ARM GAS  /var/folders/21/t9g5rlb91ys800n5npymflf80000gn/T//ccwbDDfV.s 			page 1


   1              		.cpu cortex-m4
   2              		.arch armv7e-m
   3              		.fpu fpv4-sp-d16
   4              		.eabi_attribute 27, 1
   5              		.eabi_attribute 28, 1
   6              		.eabi_attribute 20, 1
   7              		.eabi_attribute 21, 1
   8              		.eabi_attribute 23, 3
   9              		.eabi_attribute 24, 1
  10              		.eabi_attribute 25, 1
  11              		.eabi_attribute 26, 1
  12              		.eabi_attribute 30, 1
  13              		.eabi_attribute 34, 1
  14              		.eabi_attribute 18, 4
  15              		.file	"app_freertos.c"
  16              		.text
  17              	.Ltext0:
  18              		.cfi_sections	.debug_frame
  19              		.file 1 "Core/Src/app_freertos.c"
  20              		.section	.text.StartDefaultTask,"ax",%progbits
  21              		.align	1
  22              		.global	StartDefaultTask
  23              		.syntax unified
  24              		.thumb
  25              		.thumb_func
  27              	StartDefaultTask:
  28              	.LFB156:
   1:Core/Src/app_freertos.c **** /* USER CODE BEGIN Header */
   2:Core/Src/app_freertos.c **** /**
   3:Core/Src/app_freertos.c ****  ******************************************************************************
   4:Core/Src/app_freertos.c ****  * File Name          : app_freertos.c
   5:Core/Src/app_freertos.c ****  * Description        : Code for freertos applications
   6:Core/Src/app_freertos.c ****  ******************************************************************************
   7:Core/Src/app_freertos.c ****  * @attention
   8:Core/Src/app_freertos.c ****  *
   9:Core/Src/app_freertos.c ****  * Copyright (c) 2024 STMicroelectronics.
  10:Core/Src/app_freertos.c ****  * All rights reserved.
  11:Core/Src/app_freertos.c ****  *
  12:Core/Src/app_freertos.c ****  * This software is licensed under terms that can be found in the LICENSE file
  13:Core/Src/app_freertos.c ****  * in the root directory of this software component.
  14:Core/Src/app_freertos.c ****  * If no LICENSE file comes with this software, it is provided AS-IS.
  15:Core/Src/app_freertos.c ****  *
  16:Core/Src/app_freertos.c ****  ******************************************************************************
  17:Core/Src/app_freertos.c ****  */
  18:Core/Src/app_freertos.c **** /* USER CODE END Header */
  19:Core/Src/app_freertos.c **** 
  20:Core/Src/app_freertos.c **** /* Includes ------------------------------------------------------------------*/
  21:Core/Src/app_freertos.c **** #include "FreeRTOS.h"
  22:Core/Src/app_freertos.c **** #include "cmsis_os.h"
  23:Core/Src/app_freertos.c **** #include "main.h"
  24:Core/Src/app_freertos.c **** #include "task.h"
  25:Core/Src/app_freertos.c **** 
  26:Core/Src/app_freertos.c **** /* Private includes ----------------------------------------------------------*/
  27:Core/Src/app_freertos.c **** /* USER CODE BEGIN Includes */
  28:Core/Src/app_freertos.c **** #include "mpu.h"
  29:Core/Src/app_freertos.c **** #include "oled.h"
  30:Core/Src/app_freertos.c **** #include <math.h>
ARM GAS  /var/folders/21/t9g5rlb91ys800n5npymflf80000gn/T//ccwbDDfV.s 			page 2


  31:Core/Src/app_freertos.c **** /* USER CODE END Includes */
  32:Core/Src/app_freertos.c **** 
  33:Core/Src/app_freertos.c **** /* Private typedef -----------------------------------------------------------*/
  34:Core/Src/app_freertos.c **** /* USER CODE BEGIN PTD */
  35:Core/Src/app_freertos.c **** 
  36:Core/Src/app_freertos.c **** /* USER CODE END PTD */
  37:Core/Src/app_freertos.c **** 
  38:Core/Src/app_freertos.c **** /* Private define ------------------------------------------------------------*/
  39:Core/Src/app_freertos.c **** /* USER CODE BEGIN PD */
  40:Core/Src/app_freertos.c **** 
  41:Core/Src/app_freertos.c **** /* USER CODE END PD */
  42:Core/Src/app_freertos.c **** 
  43:Core/Src/app_freertos.c **** /* Private macro -------------------------------------------------------------*/
  44:Core/Src/app_freertos.c **** /* USER CODE BEGIN PM */
  45:Core/Src/app_freertos.c **** 
  46:Core/Src/app_freertos.c **** /* USER CODE END PM */
  47:Core/Src/app_freertos.c **** 
  48:Core/Src/app_freertos.c **** /* Private variables ---------------------------------------------------------*/
  49:Core/Src/app_freertos.c **** /* USER CODE BEGIN Variables */
  50:Core/Src/app_freertos.c **** static float angle;
  51:Core/Src/app_freertos.c **** extern u8g2_t u8g2;
  52:Core/Src/app_freertos.c **** extern uint8_t state;
  53:Core/Src/app_freertos.c **** /* USER CODE END Variables */
  54:Core/Src/app_freertos.c **** /* Definitions for defaultTask */
  55:Core/Src/app_freertos.c **** osThreadId_t defaultTaskHandle;
  56:Core/Src/app_freertos.c **** const osThreadAttr_t defaultTask_attributes = {
  57:Core/Src/app_freertos.c ****     .name = "defaultTask",
  58:Core/Src/app_freertos.c ****     .priority = (osPriority_t)osPriorityNormal,
  59:Core/Src/app_freertos.c ****     .stack_size = 128 * 4};
  60:Core/Src/app_freertos.c **** /* Definitions for Get_Angle */
  61:Core/Src/app_freertos.c **** osThreadId_t Get_AngleHandle;
  62:Core/Src/app_freertos.c **** const osThreadAttr_t Get_Angle_attributes = {.name = "Get_Angle",
  63:Core/Src/app_freertos.c ****                                              .priority =
  64:Core/Src/app_freertos.c ****                                                  (osPriority_t)osPriorityNormal,
  65:Core/Src/app_freertos.c ****                                              .stack_size = 256 * 4};
  66:Core/Src/app_freertos.c **** /* Definitions for Oled_Display */
  67:Core/Src/app_freertos.c **** osThreadId_t Oled_DisplayHandle;
  68:Core/Src/app_freertos.c **** const osThreadAttr_t Oled_Display_attributes = {
  69:Core/Src/app_freertos.c ****     .name = "Oled_Display",
  70:Core/Src/app_freertos.c ****     .priority = (osPriority_t)osPriorityNormal,
  71:Core/Src/app_freertos.c ****     .stack_size = 256 * 4};
  72:Core/Src/app_freertos.c **** 
  73:Core/Src/app_freertos.c **** /* Private function prototypes -----------------------------------------------*/
  74:Core/Src/app_freertos.c **** /* USER CODE BEGIN FunctionPrototypes */
  75:Core/Src/app_freertos.c **** 
  76:Core/Src/app_freertos.c **** /* USER CODE END FunctionPrototypes */
  77:Core/Src/app_freertos.c **** 
  78:Core/Src/app_freertos.c **** void StartDefaultTask(void *argument);
  79:Core/Src/app_freertos.c **** void Get_Angle_Task(void *argument);
  80:Core/Src/app_freertos.c **** void Oled_Display_Task(void *argument);
  81:Core/Src/app_freertos.c **** 
  82:Core/Src/app_freertos.c **** void MX_FREERTOS_Init(void); /* (MISRA C 2004 rule 8.1) */
  83:Core/Src/app_freertos.c **** 
  84:Core/Src/app_freertos.c **** /**
  85:Core/Src/app_freertos.c ****  * @brief  FreeRTOS initialization
  86:Core/Src/app_freertos.c ****  * @param  None
  87:Core/Src/app_freertos.c ****  * @retval None
ARM GAS  /var/folders/21/t9g5rlb91ys800n5npymflf80000gn/T//ccwbDDfV.s 			page 3


  88:Core/Src/app_freertos.c ****  */
  89:Core/Src/app_freertos.c **** void MX_FREERTOS_Init(void) {
  90:Core/Src/app_freertos.c ****   /* USER CODE BEGIN Init */
  91:Core/Src/app_freertos.c **** 
  92:Core/Src/app_freertos.c ****   /* USER CODE END Init */
  93:Core/Src/app_freertos.c **** 
  94:Core/Src/app_freertos.c ****   /* USER CODE BEGIN RTOS_MUTEX */
  95:Core/Src/app_freertos.c ****   /* add mutexes, ... */
  96:Core/Src/app_freertos.c ****   /* USER CODE END RTOS_MUTEX */
  97:Core/Src/app_freertos.c **** 
  98:Core/Src/app_freertos.c ****   /* USER CODE BEGIN RTOS_SEMAPHORES */
  99:Core/Src/app_freertos.c ****   /* add semaphores, ... */
 100:Core/Src/app_freertos.c ****   /* USER CODE END RTOS_SEMAPHORES */
 101:Core/Src/app_freertos.c **** 
 102:Core/Src/app_freertos.c ****   /* USER CODE BEGIN RTOS_TIMERS */
 103:Core/Src/app_freertos.c ****   /* start timers, add new ones, ... */
 104:Core/Src/app_freertos.c ****   /* USER CODE END RTOS_TIMERS */
 105:Core/Src/app_freertos.c **** 
 106:Core/Src/app_freertos.c ****   /* USER CODE BEGIN RTOS_QUEUES */
 107:Core/Src/app_freertos.c ****   /* add queues, ... */
 108:Core/Src/app_freertos.c ****   /* USER CODE END RTOS_QUEUES */
 109:Core/Src/app_freertos.c **** 
 110:Core/Src/app_freertos.c ****   /* Create the thread(s) */
 111:Core/Src/app_freertos.c ****   /* creation of defaultTask */
 112:Core/Src/app_freertos.c ****   defaultTaskHandle =
 113:Core/Src/app_freertos.c ****       osThreadNew(StartDefaultTask, NULL, &defaultTask_attributes);
 114:Core/Src/app_freertos.c **** 
 115:Core/Src/app_freertos.c ****   /* creation of Get_Angle */
 116:Core/Src/app_freertos.c ****   Get_AngleHandle = osThreadNew(Get_Angle_Task, NULL, &Get_Angle_attributes);
 117:Core/Src/app_freertos.c **** 
 118:Core/Src/app_freertos.c ****   /* creation of Oled_Display */
 119:Core/Src/app_freertos.c ****   Oled_DisplayHandle =
 120:Core/Src/app_freertos.c ****       osThreadNew(Oled_Display_Task, NULL, &Oled_Display_attributes);
 121:Core/Src/app_freertos.c **** 
 122:Core/Src/app_freertos.c ****   /* USER CODE BEGIN RTOS_THREADS */
 123:Core/Src/app_freertos.c ****   /* add threads, ... */
 124:Core/Src/app_freertos.c ****   /* USER CODE END RTOS_THREADS */
 125:Core/Src/app_freertos.c **** 
 126:Core/Src/app_freertos.c ****   /* USER CODE BEGIN RTOS_EVENTS */
 127:Core/Src/app_freertos.c ****   /* add events, ... */
 128:Core/Src/app_freertos.c ****   /* USER CODE END RTOS_EVENTS */
 129:Core/Src/app_freertos.c **** }
 130:Core/Src/app_freertos.c **** 
 131:Core/Src/app_freertos.c **** /* USER CODE BEGIN Header_StartDefaultTask */
 132:Core/Src/app_freertos.c **** /**
 133:Core/Src/app_freertos.c ****  * @brief  Function implementing the defaultTask thread.
 134:Core/Src/app_freertos.c ****  * @param  argument: Not used
 135:Core/Src/app_freertos.c ****  * @retval None
 136:Core/Src/app_freertos.c ****  */
 137:Core/Src/app_freertos.c **** /* USER CODE END Header_StartDefaultTask */
 138:Core/Src/app_freertos.c **** void StartDefaultTask(void *argument) {
  29              		.loc 1 138 39 view -0
  30              		.cfi_startproc
  31              		@ Volatile: function does not return.
  32              		@ args = 0, pretend = 0, frame = 0
  33              		@ frame_needed = 0, uses_anonymous_args = 0
  34              	.LVL0:
ARM GAS  /var/folders/21/t9g5rlb91ys800n5npymflf80000gn/T//ccwbDDfV.s 			page 4


  35              		.loc 1 138 39 is_stmt 0 view .LVU1
  36 0000 08B5     		push	{r3, lr}
  37              	.LCFI0:
  38              		.cfi_def_cfa_offset 8
  39              		.cfi_offset 3, -8
  40              		.cfi_offset 14, -4
  41              	.LVL1:
  42              	.L2:
 139:Core/Src/app_freertos.c ****   /* USER CODE BEGIN StartDefaultTask */
 140:Core/Src/app_freertos.c ****   /* Infinite loop */
 141:Core/Src/app_freertos.c ****   for (;;) {
  43              		.loc 1 141 3 is_stmt 1 discriminator 1 view .LVU2
 142:Core/Src/app_freertos.c ****     // HAL_GPIO_TogglePin(LED_GPIO_Port, LED_Pin);
 143:Core/Src/app_freertos.c ****     osDelay(1000);
  44              		.loc 1 143 5 discriminator 1 view .LVU3
  45 0002 4FF47A70 		mov	r0, #1000
  46 0006 FFF7FEFF 		bl	osDelay
  47              	.LVL2:
 141:Core/Src/app_freertos.c ****     // HAL_GPIO_TogglePin(LED_GPIO_Port, LED_Pin);
  48              		.loc 1 141 3 discriminator 1 view .LVU4
  49 000a FAE7     		b	.L2
  50              		.cfi_endproc
  51              	.LFE156:
  53              		.section	.text.Get_Angle_Task,"ax",%progbits
  54              		.align	1
  55              		.global	Get_Angle_Task
  56              		.syntax unified
  57              		.thumb
  58              		.thumb_func
  60              	Get_Angle_Task:
  61              	.LFB157:
 144:Core/Src/app_freertos.c ****   }
 145:Core/Src/app_freertos.c ****   /* USER CODE END StartDefaultTask */
 146:Core/Src/app_freertos.c **** }
 147:Core/Src/app_freertos.c **** 
 148:Core/Src/app_freertos.c **** /* USER CODE BEGIN Header_Get_Angle_Task */
 149:Core/Src/app_freertos.c **** /**
 150:Core/Src/app_freertos.c ****  * @brief Function implementing the Get_Angle thread.
 151:Core/Src/app_freertos.c ****  * @param argument: Not used
 152:Core/Src/app_freertos.c ****  * @retval None
 153:Core/Src/app_freertos.c ****  */
 154:Core/Src/app_freertos.c **** /* USER CODE END Header_Get_Angle_Task */
 155:Core/Src/app_freertos.c **** void Get_Angle_Task(void *argument) {
  62              		.loc 1 155 37 view -0
  63              		.cfi_startproc
  64              		@ Volatile: function does not return.
  65              		@ args = 0, pretend = 0, frame = 0
  66              		@ frame_needed = 0, uses_anonymous_args = 0
  67              	.LVL3:
  68              		.loc 1 155 37 is_stmt 0 view .LVU6
  69 0000 08B5     		push	{r3, lr}
  70              	.LCFI1:
  71              		.cfi_def_cfa_offset 8
  72              		.cfi_offset 3, -8
  73              		.cfi_offset 14, -4
  74              	.LVL4:
  75              	.L5:
ARM GAS  /var/folders/21/t9g5rlb91ys800n5npymflf80000gn/T//ccwbDDfV.s 			page 5


 156:Core/Src/app_freertos.c ****   /* USER CODE BEGIN Get_Angle_Task */
 157:Core/Src/app_freertos.c ****   // if (mpu_dmp_get_data(&pitch, &roll, &yaw) == 0) {
 158:Core/Src/app_freertos.c ****   //   uart_printf("pitch:%4.1f\n", -pitch);
 159:Core/Src/app_freertos.c ****   //   ssd1306_printf(Font_11x18, "ang:%3.1f", -pitch);
 160:Core/Src/app_freertos.c ****   //   ssd1306_SetCursor(0, 0);
 161:Core/Src/app_freertos.c ****   //   HAL_Delay(50);
 162:Core/Src/app_freertos.c ****   // }
 163:Core/Src/app_freertos.c ****   /* Infinite loop */
 164:Core/Src/app_freertos.c ****   for (;;) {
  76              		.loc 1 164 3 is_stmt 1 discriminator 1 view .LVU7
 165:Core/Src/app_freertos.c ****     angle = Angle_Get();
  77              		.loc 1 165 5 discriminator 1 view .LVU8
  78              		.loc 1 165 13 is_stmt 0 discriminator 1 view .LVU9
  79 0002 FFF7FEFF 		bl	Angle_Get
  80              	.LVL5:
  81              		.loc 1 165 11 discriminator 1 view .LVU10
  82 0006 034B     		ldr	r3, .L7
  83 0008 83ED000A 		vstr.32	s0, [r3]
 166:Core/Src/app_freertos.c ****     osDelay(30);
  84              		.loc 1 166 5 is_stmt 1 discriminator 1 view .LVU11
  85 000c 1E20     		movs	r0, #30
  86 000e FFF7FEFF 		bl	osDelay
  87              	.LVL6:
 164:Core/Src/app_freertos.c ****     angle = Angle_Get();
  88              		.loc 1 164 3 discriminator 1 view .LVU12
  89 0012 F6E7     		b	.L5
  90              	.L8:
  91              		.align	2
  92              	.L7:
  93 0014 00000000 		.word	angle
  94              		.cfi_endproc
  95              	.LFE157:
  97              		.section	.rodata.Oled_Display_Task.str1.4,"aMS",%progbits,1
  98              		.align	2
  99              	.LC0:
 100 0000 494E4954 		.ascii	"INIT...\000"
 100      2E2E2E00 
 101              		.align	2
 102              	.LC1:
 103 0008 616E673A 		.ascii	"ang:%3.1f\000"
 103      25332E31 
 103      6600
 104              		.global	__aeabi_f2d
 105              		.global	__aeabi_ddiv
 106              		.global	__aeabi_dmul
 107              		.global	__aeabi_dsub
 108              		.global	__aeabi_d2iz
 109              		.global	__aeabi_dadd
 110              		.section	.text.Oled_Display_Task,"ax",%progbits
 111              		.align	1
 112              		.global	Oled_Display_Task
 113              		.syntax unified
 114              		.thumb
 115              		.thumb_func
 117              	Oled_Display_Task:
 118              	.LVL7:
 119              	.LFB158:
ARM GAS  /var/folders/21/t9g5rlb91ys800n5npymflf80000gn/T//ccwbDDfV.s 			page 6


 167:Core/Src/app_freertos.c ****   }
 168:Core/Src/app_freertos.c ****   /* USER CODE END Get_Angle_Task */
 169:Core/Src/app_freertos.c **** }
 170:Core/Src/app_freertos.c **** 
 171:Core/Src/app_freertos.c **** /* USER CODE BEGIN Header_Oled_Display_Task */
 172:Core/Src/app_freertos.c **** /**
 173:Core/Src/app_freertos.c ****  * @brief Function implementing the Oled_Display thread.
 174:Core/Src/app_freertos.c ****  * @param argument: Not used
 175:Core/Src/app_freertos.c ****  * @retval None
 176:Core/Src/app_freertos.c ****  */
 177:Core/Src/app_freertos.c **** /* USER CODE END Header_Oled_Display_Task */
 178:Core/Src/app_freertos.c **** void Oled_Display_Task(void *argument) {
 120              		.loc 1 178 40 view -0
 121              		.cfi_startproc
 122              		@ args = 0, pretend = 0, frame = 0
 123              		@ frame_needed = 0, uses_anonymous_args = 0
 124              		.loc 1 178 40 is_stmt 0 view .LVU14
 125 0000 2DE9F04F 		push	{r4, r5, r6, r7, r8, r9, r10, fp, lr}
 126              	.LCFI2:
 127              		.cfi_def_cfa_offset 36
 128              		.cfi_offset 4, -36
 129              		.cfi_offset 5, -32
 130              		.cfi_offset 6, -28
 131              		.cfi_offset 7, -24
 132              		.cfi_offset 8, -20
 133              		.cfi_offset 9, -16
 134              		.cfi_offset 10, -12
 135              		.cfi_offset 11, -8
 136              		.cfi_offset 14, -4
 137 0004 2DED028B 		vpush.64	{d8}
 138              	.LCFI3:
 139              		.cfi_def_cfa_offset 44
 140              		.cfi_offset 80, -44
 141              		.cfi_offset 81, -40
 142 0008 83B0     		sub	sp, sp, #12
 143              	.LCFI4:
 144              		.cfi_def_cfa_offset 56
 179:Core/Src/app_freertos.c ****   /* USER CODE BEGIN Oled_Display_Task */
 180:Core/Src/app_freertos.c ****   u8g2_Setup_ssd1306_i2c_128x64_noname_f(&u8g2, U8G2_R2, STM32_byte_i2c,
 145              		.loc 1 180 3 is_stmt 1 view .LVU15
 146 000a 554C     		ldr	r4, .L15+16
 147 000c 554B     		ldr	r3, .L15+20
 148 000e 564A     		ldr	r2, .L15+24
 149 0010 5649     		ldr	r1, .L15+28
 150 0012 2046     		mov	r0, r4
 151              	.LVL8:
 152              		.loc 1 180 3 is_stmt 0 view .LVU16
 153 0014 FFF7FEFF 		bl	u8g2_Setup_ssd1306_i2c_128x64_noname_f
 154              	.LVL9:
 181:Core/Src/app_freertos.c ****                                          STM32_gpio_and_delay);
 182:Core/Src/app_freertos.c ****   u8g2_InitDisplay(&u8g2);
 155              		.loc 1 182 3 is_stmt 1 view .LVU17
 156 0018 2046     		mov	r0, r4
 157 001a FFF7FEFF 		bl	u8x8_InitDisplay
 158              	.LVL10:
 183:Core/Src/app_freertos.c ****   u8g2_SetPowerSave(&u8g2, 0);
 159              		.loc 1 183 3 view .LVU18
ARM GAS  /var/folders/21/t9g5rlb91ys800n5npymflf80000gn/T//ccwbDDfV.s 			page 7


 160 001e 0021     		movs	r1, #0
 161 0020 2046     		mov	r0, r4
 162 0022 FFF7FEFF 		bl	u8x8_SetPowerSave
 163              	.LVL11:
 184:Core/Src/app_freertos.c ****   u8g2_ClearDisplay(&u8g2);
 164              		.loc 1 184 3 view .LVU19
 165 0026 2046     		mov	r0, r4
 166 0028 FFF7FEFF 		bl	u8g2_ClearDisplay
 167              	.LVL12:
 185:Core/Src/app_freertos.c ****   u8g2_SetFont(&u8g2, u8g2_font_wqy16_t_chinese1);
 168              		.loc 1 185 3 view .LVU20
 169 002c 5049     		ldr	r1, .L15+32
 170 002e 2046     		mov	r0, r4
 171 0030 FFF7FEFF 		bl	u8g2_SetFont
 172              	.LVL13:
 173 0034 71E0     		b	.L13
 174              	.L10:
 186:Core/Src/app_freertos.c ****   /* Infinite loop */
 187:Core/Src/app_freertos.c ****   int x1, y1, x2, y2;
 188:Core/Src/app_freertos.c ****   for (;;) {
 189:Core/Src/app_freertos.c ****     // u8g2_ClearBuffer(&u8g2);
 190:Core/Src/app_freertos.c ****     switch (state) {
 191:Core/Src/app_freertos.c ****     case 0: {
 192:Core/Src/app_freertos.c ****       u8g2_ClearBuffer(&u8g2);
 193:Core/Src/app_freertos.c ****       u8g2_printf(&u8g2, 0, 30, "INIT...");
 194:Core/Src/app_freertos.c ****       u8g2_SendBuffer(&u8g2);
 195:Core/Src/app_freertos.c ****     } break;
 196:Core/Src/app_freertos.c ****     case 1: {
 197:Core/Src/app_freertos.c ****       u8g2_ClearBuffer(&u8g2);
 175              		.loc 1 197 7 view .LVU21
 176 0036 4A4C     		ldr	r4, .L15+16
 177 0038 2046     		mov	r0, r4
 178 003a FFF7FEFF 		bl	u8g2_ClearBuffer
 179              	.LVL14:
 198:Core/Src/app_freertos.c ****       u8g2_printf(&u8g2, 0, 30, "ang:%3.1f", angle);
 180              		.loc 1 198 7 view .LVU22
 181 003e 4D4D     		ldr	r5, .L15+36
 182 0040 2868     		ldr	r0, [r5]	@ float
 183 0042 FFF7FEFF 		bl	__aeabi_f2d
 184              	.LVL15:
 185 0046 CDE90001 		strd	r0, [sp]
 186 004a 4B4B     		ldr	r3, .L15+40
 187 004c 1E22     		movs	r2, #30
 188 004e 0021     		movs	r1, #0
 189 0050 2046     		mov	r0, r4
 190 0052 FFF7FEFF 		bl	u8g2_printf
 191              	.LVL16:
 199:Core/Src/app_freertos.c ****       x1 = 95 - 25 * cos(angle / 57.3);
 192              		.loc 1 199 7 view .LVU23
 193              		.loc 1 199 22 is_stmt 0 view .LVU24
 194 0056 2868     		ldr	r0, [r5]	@ float
 195 0058 FFF7FEFF 		bl	__aeabi_f2d
 196              	.LVL17:
 197 005c 3CA3     		adr	r3, .L15
 198 005e D3E90023 		ldrd	r2, [r3]
 199 0062 FFF7FEFF 		bl	__aeabi_ddiv
 200              	.LVL18:
ARM GAS  /var/folders/21/t9g5rlb91ys800n5npymflf80000gn/T//ccwbDDfV.s 			page 8


 201 0066 41EC180B 		vmov	d8, r0, r1
 202 006a B0EE480A 		vmov.f32	s0, s16
 203 006e F0EE680A 		vmov.f32	s1, s17
 204 0072 FFF7FEFF 		bl	cos
 205              	.LVL19:
 206 0076 51EC100B 		vmov	r0, r1, d0
 207              		.loc 1 199 20 view .LVU25
 208 007a 0022     		movs	r2, #0
 209 007c 3F4B     		ldr	r3, .L15+44
 210 007e FFF7FEFF 		bl	__aeabi_dmul
 211              	.LVL20:
 212 0082 0646     		mov	r6, r0
 213 0084 0F46     		mov	r7, r1
 214              		.loc 1 199 15 view .LVU26
 215 0086 0246     		mov	r2, r0
 216 0088 0B46     		mov	r3, r1
 217 008a 33A1     		adr	r1, .L15+8
 218 008c D1E90001 		ldrd	r0, [r1]
 219 0090 FFF7FEFF 		bl	__aeabi_dsub
 220              	.LVL21:
 221              		.loc 1 199 10 view .LVU27
 222 0094 FFF7FEFF 		bl	__aeabi_d2iz
 223              	.LVL22:
 224 0098 8246     		mov	r10, r0
 225              	.LVL23:
 200:Core/Src/app_freertos.c ****       y1 = 30 + 25 * sin(angle / 57.3);
 226              		.loc 1 200 7 is_stmt 1 view .LVU28
 227              		.loc 1 200 22 is_stmt 0 view .LVU29
 228 009a B0EE480A 		vmov.f32	s0, s16
 229 009e F0EE680A 		vmov.f32	s1, s17
 230 00a2 FFF7FEFF 		bl	sin
 231              	.LVL24:
 232              		.loc 1 200 22 view .LVU30
 233 00a6 51EC100B 		vmov	r0, r1, d0
 234              		.loc 1 200 20 view .LVU31
 235 00aa 0022     		movs	r2, #0
 236 00ac 334B     		ldr	r3, .L15+44
 237 00ae FFF7FEFF 		bl	__aeabi_dmul
 238              	.LVL25:
 239 00b2 8046     		mov	r8, r0
 240 00b4 8946     		mov	r9, r1
 241              		.loc 1 200 15 view .LVU32
 242 00b6 0022     		movs	r2, #0
 243 00b8 314B     		ldr	r3, .L15+48
 244 00ba FFF7FEFF 		bl	__aeabi_dadd
 245              	.LVL26:
 246              		.loc 1 200 10 view .LVU33
 247 00be FFF7FEFF 		bl	__aeabi_d2iz
 248              	.LVL27:
 249 00c2 8346     		mov	fp, r0
 250              	.LVL28:
 201:Core/Src/app_freertos.c ****       x2 = 95 + 25 * cos(angle / 57.3);
 251              		.loc 1 201 7 is_stmt 1 view .LVU34
 252              		.loc 1 201 15 is_stmt 0 view .LVU35
 253 00c4 24A3     		adr	r3, .L15+8
 254 00c6 D3E90023 		ldrd	r2, [r3]
 255 00ca 3046     		mov	r0, r6
ARM GAS  /var/folders/21/t9g5rlb91ys800n5npymflf80000gn/T//ccwbDDfV.s 			page 9


 256              	.LVL29:
 257              		.loc 1 201 15 view .LVU36
 258 00cc 3946     		mov	r1, r7
 259 00ce FFF7FEFF 		bl	__aeabi_dadd
 260              	.LVL30:
 261              		.loc 1 201 10 view .LVU37
 262 00d2 FFF7FEFF 		bl	__aeabi_d2iz
 263              	.LVL31:
 264 00d6 0646     		mov	r6, r0
 265              	.LVL32:
 202:Core/Src/app_freertos.c ****       y2 = 30 - 25 * sin(angle / 57.3);
 266              		.loc 1 202 7 is_stmt 1 view .LVU38
 267              		.loc 1 202 15 is_stmt 0 view .LVU39
 268 00d8 4246     		mov	r2, r8
 269 00da 4B46     		mov	r3, r9
 270 00dc 0020     		movs	r0, #0
 271              	.LVL33:
 272              		.loc 1 202 15 view .LVU40
 273 00de 2849     		ldr	r1, .L15+48
 274 00e0 FFF7FEFF 		bl	__aeabi_dsub
 275              	.LVL34:
 276              		.loc 1 202 10 view .LVU41
 277 00e4 FFF7FEFF 		bl	__aeabi_d2iz
 278              	.LVL35:
 279 00e8 0546     		mov	r5, r0
 280              	.LVL36:
 203:Core/Src/app_freertos.c ****       u8g2_DrawCircle(&u8g2, 95, 30, 25, U8G2_DRAW_ALL);
 281              		.loc 1 203 7 is_stmt 1 view .LVU42
 282 00ea 0F23     		movs	r3, #15
 283 00ec 0093     		str	r3, [sp]
 284 00ee 1923     		movs	r3, #25
 285 00f0 1E22     		movs	r2, #30
 286 00f2 5F21     		movs	r1, #95
 287 00f4 2046     		mov	r0, r4
 288              	.LVL37:
 289              		.loc 1 203 7 is_stmt 0 view .LVU43
 290 00f6 FFF7FEFF 		bl	u8g2_DrawCircle
 291              	.LVL38:
 204:Core/Src/app_freertos.c ****       u8g2_DrawLine(&u8g2, x1, y1, x2, y2);
 292              		.loc 1 204 7 is_stmt 1 view .LVU44
 293 00fa ADB2     		uxth	r5, r5
 294              	.LVL39:
 295              		.loc 1 204 7 is_stmt 0 view .LVU45
 296 00fc 0095     		str	r5, [sp]
 297 00fe B3B2     		uxth	r3, r6
 298 0100 1FFA8BF2 		uxth	r2, fp
 299 0104 1FFA8AF1 		uxth	r1, r10
 300 0108 2046     		mov	r0, r4
 301 010a FFF7FEFF 		bl	u8g2_DrawLine
 302              	.LVL40:
 205:Core/Src/app_freertos.c ****       u8g2_SendBuffer(&u8g2);
 303              		.loc 1 205 7 is_stmt 1 view .LVU46
 304 010e 2046     		mov	r0, r4
 305 0110 FFF7FEFF 		bl	u8g2_SendBuffer
 306              	.LVL41:
 206:Core/Src/app_freertos.c ****     }break;
 307              		.loc 1 206 6 view .LVU47
ARM GAS  /var/folders/21/t9g5rlb91ys800n5npymflf80000gn/T//ccwbDDfV.s 			page 10


 308              	.L12:
 207:Core/Src/app_freertos.c ****     case 2:{
 208:Core/Src/app_freertos.c ****       testDrawProcess(&u8g2);
 209:Core/Src/app_freertos.c ****     }break;
 210:Core/Src/app_freertos.c ****     default:break;
 211:Core/Src/app_freertos.c ****     }
 212:Core/Src/app_freertos.c ****     osDelay(10);
 309              		.loc 1 212 5 view .LVU48
 310 0114 0A20     		movs	r0, #10
 311 0116 FFF7FEFF 		bl	osDelay
 312              	.LVL42:
 188:Core/Src/app_freertos.c ****     // u8g2_ClearBuffer(&u8g2);
 313              		.loc 1 188 3 view .LVU49
 314              	.L13:
 187:Core/Src/app_freertos.c ****   for (;;) {
 315              		.loc 1 187 3 view .LVU50
 188:Core/Src/app_freertos.c ****     // u8g2_ClearBuffer(&u8g2);
 316              		.loc 1 188 3 view .LVU51
 190:Core/Src/app_freertos.c ****     case 0: {
 317              		.loc 1 190 5 view .LVU52
 318 011a 1A4B     		ldr	r3, .L15+52
 319 011c 1B78     		ldrb	r3, [r3]	@ zero_extendqisi2
 320 011e 012B     		cmp	r3, #1
 321 0120 89D0     		beq	.L10
 322 0122 022B     		cmp	r3, #2
 323 0124 0FD0     		beq	.L11
 324 0126 002B     		cmp	r3, #0
 325 0128 F4D1     		bne	.L12
 192:Core/Src/app_freertos.c ****       u8g2_printf(&u8g2, 0, 30, "INIT...");
 326              		.loc 1 192 7 view .LVU53
 327 012a 0D4C     		ldr	r4, .L15+16
 328 012c 2046     		mov	r0, r4
 329 012e FFF7FEFF 		bl	u8g2_ClearBuffer
 330              	.LVL43:
 193:Core/Src/app_freertos.c ****       u8g2_SendBuffer(&u8g2);
 331              		.loc 1 193 7 view .LVU54
 332 0132 154B     		ldr	r3, .L15+56
 333 0134 1E22     		movs	r2, #30
 334 0136 0021     		movs	r1, #0
 335 0138 2046     		mov	r0, r4
 336 013a FFF7FEFF 		bl	u8g2_printf
 337              	.LVL44:
 194:Core/Src/app_freertos.c ****     } break;
 338              		.loc 1 194 7 view .LVU55
 339 013e 2046     		mov	r0, r4
 340 0140 FFF7FEFF 		bl	u8g2_SendBuffer
 341              	.LVL45:
 195:Core/Src/app_freertos.c ****     case 1: {
 342              		.loc 1 195 7 view .LVU56
 343 0144 E6E7     		b	.L12
 344              	.L11:
 208:Core/Src/app_freertos.c ****     }break;
 345              		.loc 1 208 7 view .LVU57
 346 0146 0648     		ldr	r0, .L15+16
 347 0148 FFF7FEFF 		bl	testDrawProcess
 348              	.LVL46:
 209:Core/Src/app_freertos.c ****     default:break;
ARM GAS  /var/folders/21/t9g5rlb91ys800n5npymflf80000gn/T//ccwbDDfV.s 			page 11


 349              		.loc 1 209 6 view .LVU58
 350 014c E2E7     		b	.L12
 351              	.L16:
 352 014e 00BF     		.align	3
 353              	.L15:
 354 0150 66666666 		.word	1717986918
 355 0154 66A64C40 		.word	1078765158
 356 0158 00000000 		.word	0
 357 015c 00C05740 		.word	1079492608
 358 0160 00000000 		.word	u8g2
 359 0164 00000000 		.word	STM32_gpio_and_delay
 360 0168 00000000 		.word	STM32_byte_i2c
 361 016c 00000000 		.word	u8g2_cb_r2
 362 0170 00000000 		.word	u8g2_font_wqy16_t_chinese1
 363 0174 00000000 		.word	angle
 364 0178 08000000 		.word	.LC1
 365 017c 00003940 		.word	1077477376
 366 0180 00003E40 		.word	1077805056
 367 0184 00000000 		.word	state
 368 0188 00000000 		.word	.LC0
 369              		.cfi_endproc
 370              	.LFE158:
 372              		.section	.text.MX_FREERTOS_Init,"ax",%progbits
 373              		.align	1
 374              		.global	MX_FREERTOS_Init
 375              		.syntax unified
 376              		.thumb
 377              		.thumb_func
 379              	MX_FREERTOS_Init:
 380              	.LFB155:
  89:Core/Src/app_freertos.c ****   /* USER CODE BEGIN Init */
 381              		.loc 1 89 29 view -0
 382              		.cfi_startproc
 383              		@ args = 0, pretend = 0, frame = 0
 384              		@ frame_needed = 0, uses_anonymous_args = 0
 385 0000 08B5     		push	{r3, lr}
 386              	.LCFI5:
 387              		.cfi_def_cfa_offset 8
 388              		.cfi_offset 3, -8
 389              		.cfi_offset 14, -4
 112:Core/Src/app_freertos.c ****       osThreadNew(StartDefaultTask, NULL, &defaultTask_attributes);
 390              		.loc 1 112 3 view .LVU60
 113:Core/Src/app_freertos.c **** 
 391              		.loc 1 113 7 is_stmt 0 view .LVU61
 392 0002 0B4A     		ldr	r2, .L19
 393 0004 0021     		movs	r1, #0
 394 0006 0B48     		ldr	r0, .L19+4
 395 0008 FFF7FEFF 		bl	osThreadNew
 396              	.LVL47:
 112:Core/Src/app_freertos.c ****       osThreadNew(StartDefaultTask, NULL, &defaultTask_attributes);
 397              		.loc 1 112 21 view .LVU62
 398 000c 0A4B     		ldr	r3, .L19+8
 399 000e 1860     		str	r0, [r3]
 116:Core/Src/app_freertos.c **** 
 400              		.loc 1 116 3 is_stmt 1 view .LVU63
 116:Core/Src/app_freertos.c **** 
 401              		.loc 1 116 21 is_stmt 0 view .LVU64
ARM GAS  /var/folders/21/t9g5rlb91ys800n5npymflf80000gn/T//ccwbDDfV.s 			page 12


 402 0010 0A4A     		ldr	r2, .L19+12
 403 0012 0021     		movs	r1, #0
 404 0014 0A48     		ldr	r0, .L19+16
 405 0016 FFF7FEFF 		bl	osThreadNew
 406              	.LVL48:
 116:Core/Src/app_freertos.c **** 
 407              		.loc 1 116 19 view .LVU65
 408 001a 0A4B     		ldr	r3, .L19+20
 409 001c 1860     		str	r0, [r3]
 119:Core/Src/app_freertos.c ****       osThreadNew(Oled_Display_Task, NULL, &Oled_Display_attributes);
 410              		.loc 1 119 3 is_stmt 1 view .LVU66
 120:Core/Src/app_freertos.c **** 
 411              		.loc 1 120 7 is_stmt 0 view .LVU67
 412 001e 0A4A     		ldr	r2, .L19+24
 413 0020 0021     		movs	r1, #0
 414 0022 0A48     		ldr	r0, .L19+28
 415 0024 FFF7FEFF 		bl	osThreadNew
 416              	.LVL49:
 119:Core/Src/app_freertos.c ****       osThreadNew(Oled_Display_Task, NULL, &Oled_Display_attributes);
 417              		.loc 1 119 22 view .LVU68
 418 0028 094B     		ldr	r3, .L19+32
 419 002a 1860     		str	r0, [r3]
 129:Core/Src/app_freertos.c **** 
 420              		.loc 1 129 1 view .LVU69
 421 002c 08BD     		pop	{r3, pc}
 422              	.L20:
 423 002e 00BF     		.align	2
 424              	.L19:
 425 0030 00000000 		.word	defaultTask_attributes
 426 0034 00000000 		.word	StartDefaultTask
 427 0038 00000000 		.word	defaultTaskHandle
 428 003c 00000000 		.word	Get_Angle_attributes
 429 0040 00000000 		.word	Get_Angle_Task
 430 0044 00000000 		.word	Get_AngleHandle
 431 0048 00000000 		.word	Oled_Display_attributes
 432 004c 00000000 		.word	Oled_Display_Task
 433 0050 00000000 		.word	Oled_DisplayHandle
 434              		.cfi_endproc
 435              	.LFE155:
 437              		.global	Oled_Display_attributes
 438              		.section	.rodata.str1.4,"aMS",%progbits,1
 439              		.align	2
 440              	.LC2:
 441 0000 4F6C6564 		.ascii	"Oled_Display\000"
 441      5F446973 
 441      706C6179 
 441      00
 442              		.section	.rodata.Oled_Display_attributes,"a"
 443              		.align	2
 446              	Oled_Display_attributes:
 447 0000 00000000 		.word	.LC2
 448 0004 00000000 		.space	16
 448      00000000 
 448      00000000 
 448      00000000 
 449 0014 00040000 		.word	1024
 450 0018 18000000 		.word	24
ARM GAS  /var/folders/21/t9g5rlb91ys800n5npymflf80000gn/T//ccwbDDfV.s 			page 13


 451 001c 00000000 		.space	8
 451      00000000 
 452              		.global	Oled_DisplayHandle
 453              		.section	.bss.Oled_DisplayHandle,"aw",%nobits
 454              		.align	2
 457              	Oled_DisplayHandle:
 458 0000 00000000 		.space	4
 459              		.global	Get_Angle_attributes
 460              		.section	.rodata.str1.4
 461 000d 000000   		.align	2
 462              	.LC3:
 463 0010 4765745F 		.ascii	"Get_Angle\000"
 463      416E676C 
 463      6500
 464              		.section	.rodata.Get_Angle_attributes,"a"
 465              		.align	2
 468              	Get_Angle_attributes:
 469 0000 10000000 		.word	.LC3
 470 0004 00000000 		.space	16
 470      00000000 
 470      00000000 
 470      00000000 
 471 0014 00040000 		.word	1024
 472 0018 18000000 		.word	24
 473 001c 00000000 		.space	8
 473      00000000 
 474              		.global	Get_AngleHandle
 475              		.section	.bss.Get_AngleHandle,"aw",%nobits
 476              		.align	2
 479              	Get_AngleHandle:
 480 0000 00000000 		.space	4
 481              		.global	defaultTask_attributes
 482              		.section	.rodata.str1.4
 483 001a 0000     		.align	2
 484              	.LC4:
 485 001c 64656661 		.ascii	"defaultTask\000"
 485      756C7454 
 485      61736B00 
 486              		.section	.rodata.defaultTask_attributes,"a"
 487              		.align	2
 490              	defaultTask_attributes:
 491 0000 1C000000 		.word	.LC4
 492 0004 00000000 		.space	16
 492      00000000 
 492      00000000 
 492      00000000 
 493 0014 00020000 		.word	512
 494 0018 18000000 		.word	24
 495 001c 00000000 		.space	8
 495      00000000 
 496              		.global	defaultTaskHandle
 497              		.section	.bss.defaultTaskHandle,"aw",%nobits
 498              		.align	2
 501              	defaultTaskHandle:
 502 0000 00000000 		.space	4
 503              		.section	.bss.angle,"aw",%nobits
 504              		.align	2
ARM GAS  /var/folders/21/t9g5rlb91ys800n5npymflf80000gn/T//ccwbDDfV.s 			page 14


 507              	angle:
 508 0000 00000000 		.space	4
 509              		.text
 510              	.Letext0:
 511              		.file 2 "/usr/local/include/sys/_types/_int8_t.h"
 512              		.file 3 "/usr/local/include/_types/_uint8_t.h"
 513              		.file 4 "/usr/local/include/_types/_uint16_t.h"
 514              		.file 5 "/usr/local/include/_types/_uint32_t.h"
 515              		.file 6 "Middlewares/Third_Party/FreeRTOS/Source/CMSIS_RTOS_V2/cmsis_os2.h"
 516              		.file 7 "user/drivers/u8g2/u8x8.h"
 517              		.file 8 "user/drivers/u8g2/u8g2.h"
 518              		.file 9 "user/Inc/oled.h"
 519              		.file 10 "/usr/local/include/math.h"
 520              		.file 11 "user/Inc/mpu.h"
ARM GAS  /var/folders/21/t9g5rlb91ys800n5npymflf80000gn/T//ccwbDDfV.s 			page 15

