ARM GAS  /var/folders/21/t9g5rlb91ys800n5npymflf80000gn/T//cclcg3Ry.s 			page 1


   1              		.cpu cortex-m4
   2              		.arch armv7e-m
   3              		.fpu fpv4-sp-d16
   4              		.eabi_attribute 27, 1
   5              		.eabi_attribute 28, 1
   6              		.eabi_attribute 20, 1
   7              		.eabi_attribute 21, 1
   8              		.eabi_attribute 23, 3
   9              		.eabi_attribute 24, 1
  10              		.eabi_attribute 25, 1
  11              		.eabi_attribute 26, 1
  12              		.eabi_attribute 30, 1
  13              		.eabi_attribute 34, 1
  14              		.eabi_attribute 18, 4
  15              		.file	"app_freertos.c"
  16              		.text
  17              	.Ltext0:
  18              		.cfi_sections	.debug_frame
  19              		.file 1 "Core/Src/app_freertos.c"
  20              		.section	.text.StartDefaultTask,"ax",%progbits
  21              		.align	1
  22              		.global	StartDefaultTask
  23              		.syntax unified
  24              		.thumb
  25              		.thumb_func
  27              	StartDefaultTask:
  28              	.LFB156:
   1:Core/Src/app_freertos.c **** /* USER CODE BEGIN Header */
   2:Core/Src/app_freertos.c **** /**
   3:Core/Src/app_freertos.c ****   ******************************************************************************
   4:Core/Src/app_freertos.c ****   * File Name          : app_freertos.c
   5:Core/Src/app_freertos.c ****   * Description        : Code for freertos applications
   6:Core/Src/app_freertos.c ****   ******************************************************************************
   7:Core/Src/app_freertos.c ****   * @attention
   8:Core/Src/app_freertos.c ****   *
   9:Core/Src/app_freertos.c ****   * Copyright (c) 2024 STMicroelectronics.
  10:Core/Src/app_freertos.c ****   * All rights reserved.
  11:Core/Src/app_freertos.c ****   *
  12:Core/Src/app_freertos.c ****   * This software is licensed under terms that can be found in the LICENSE file
  13:Core/Src/app_freertos.c ****   * in the root directory of this software component.
  14:Core/Src/app_freertos.c ****   * If no LICENSE file comes with this software, it is provided AS-IS.
  15:Core/Src/app_freertos.c ****   *
  16:Core/Src/app_freertos.c ****   ******************************************************************************
  17:Core/Src/app_freertos.c ****   */
  18:Core/Src/app_freertos.c **** /* USER CODE END Header */
  19:Core/Src/app_freertos.c **** 
  20:Core/Src/app_freertos.c **** /* Includes ------------------------------------------------------------------*/
  21:Core/Src/app_freertos.c **** #include "FreeRTOS.h"
  22:Core/Src/app_freertos.c **** #include "task.h"
  23:Core/Src/app_freertos.c **** #include "main.h"
  24:Core/Src/app_freertos.c **** #include "cmsis_os.h"
  25:Core/Src/app_freertos.c **** 
  26:Core/Src/app_freertos.c **** /* Private includes ----------------------------------------------------------*/
  27:Core/Src/app_freertos.c **** /* USER CODE BEGIN Includes */
  28:Core/Src/app_freertos.c **** #include "mpu.h"
  29:Core/Src/app_freertos.c **** #include "oled.h"
  30:Core/Src/app_freertos.c **** #include <math.h>
ARM GAS  /var/folders/21/t9g5rlb91ys800n5npymflf80000gn/T//cclcg3Ry.s 			page 2


  31:Core/Src/app_freertos.c **** /* USER CODE END Includes */
  32:Core/Src/app_freertos.c **** 
  33:Core/Src/app_freertos.c **** /* Private typedef -----------------------------------------------------------*/
  34:Core/Src/app_freertos.c **** /* USER CODE BEGIN PTD */
  35:Core/Src/app_freertos.c **** 
  36:Core/Src/app_freertos.c **** /* USER CODE END PTD */
  37:Core/Src/app_freertos.c **** 
  38:Core/Src/app_freertos.c **** /* Private define ------------------------------------------------------------*/
  39:Core/Src/app_freertos.c **** /* USER CODE BEGIN PD */
  40:Core/Src/app_freertos.c **** 
  41:Core/Src/app_freertos.c **** /* USER CODE END PD */
  42:Core/Src/app_freertos.c **** 
  43:Core/Src/app_freertos.c **** /* Private macro -------------------------------------------------------------*/
  44:Core/Src/app_freertos.c **** /* USER CODE BEGIN PM */
  45:Core/Src/app_freertos.c **** 
  46:Core/Src/app_freertos.c **** /* USER CODE END PM */
  47:Core/Src/app_freertos.c **** 
  48:Core/Src/app_freertos.c **** /* Private variables ---------------------------------------------------------*/
  49:Core/Src/app_freertos.c **** /* USER CODE BEGIN Variables */
  50:Core/Src/app_freertos.c **** static float angle;
  51:Core/Src/app_freertos.c **** extern u8g2_t u8g2;
  52:Core/Src/app_freertos.c **** /* USER CODE END Variables */
  53:Core/Src/app_freertos.c **** /* Definitions for defaultTask */
  54:Core/Src/app_freertos.c **** osThreadId_t defaultTaskHandle;
  55:Core/Src/app_freertos.c **** const osThreadAttr_t defaultTask_attributes = {
  56:Core/Src/app_freertos.c ****   .name = "defaultTask",
  57:Core/Src/app_freertos.c ****   .priority = (osPriority_t) osPriorityNormal,
  58:Core/Src/app_freertos.c ****   .stack_size = 128 * 4
  59:Core/Src/app_freertos.c **** };
  60:Core/Src/app_freertos.c **** /* Definitions for Get_Angle */
  61:Core/Src/app_freertos.c **** osThreadId_t Get_AngleHandle;
  62:Core/Src/app_freertos.c **** const osThreadAttr_t Get_Angle_attributes = {
  63:Core/Src/app_freertos.c ****   .name = "Get_Angle",
  64:Core/Src/app_freertos.c ****   .priority = (osPriority_t) osPriorityNormal,
  65:Core/Src/app_freertos.c ****   .stack_size = 256 * 4
  66:Core/Src/app_freertos.c **** };
  67:Core/Src/app_freertos.c **** /* Definitions for Oled_Display */
  68:Core/Src/app_freertos.c **** osThreadId_t Oled_DisplayHandle;
  69:Core/Src/app_freertos.c **** const osThreadAttr_t Oled_Display_attributes = {
  70:Core/Src/app_freertos.c ****   .name = "Oled_Display",
  71:Core/Src/app_freertos.c ****   .priority = (osPriority_t) osPriorityNormal,
  72:Core/Src/app_freertos.c ****   .stack_size = 256 * 4
  73:Core/Src/app_freertos.c **** };
  74:Core/Src/app_freertos.c **** 
  75:Core/Src/app_freertos.c **** /* Private function prototypes -----------------------------------------------*/
  76:Core/Src/app_freertos.c **** /* USER CODE BEGIN FunctionPrototypes */
  77:Core/Src/app_freertos.c **** 
  78:Core/Src/app_freertos.c **** /* USER CODE END FunctionPrototypes */
  79:Core/Src/app_freertos.c **** 
  80:Core/Src/app_freertos.c **** void StartDefaultTask(void *argument);
  81:Core/Src/app_freertos.c **** void Get_Angle_Task(void *argument);
  82:Core/Src/app_freertos.c **** void Oled_Display_Task(void *argument);
  83:Core/Src/app_freertos.c **** 
  84:Core/Src/app_freertos.c **** void MX_FREERTOS_Init(void); /* (MISRA C 2004 rule 8.1) */
  85:Core/Src/app_freertos.c **** 
  86:Core/Src/app_freertos.c **** /**
  87:Core/Src/app_freertos.c ****   * @brief  FreeRTOS initialization
ARM GAS  /var/folders/21/t9g5rlb91ys800n5npymflf80000gn/T//cclcg3Ry.s 			page 3


  88:Core/Src/app_freertos.c ****   * @param  None
  89:Core/Src/app_freertos.c ****   * @retval None
  90:Core/Src/app_freertos.c ****   */
  91:Core/Src/app_freertos.c **** void MX_FREERTOS_Init(void) {
  92:Core/Src/app_freertos.c ****   /* USER CODE BEGIN Init */
  93:Core/Src/app_freertos.c **** 
  94:Core/Src/app_freertos.c ****   /* USER CODE END Init */
  95:Core/Src/app_freertos.c **** 
  96:Core/Src/app_freertos.c ****   /* USER CODE BEGIN RTOS_MUTEX */
  97:Core/Src/app_freertos.c ****   /* add mutexes, ... */
  98:Core/Src/app_freertos.c ****   /* USER CODE END RTOS_MUTEX */
  99:Core/Src/app_freertos.c **** 
 100:Core/Src/app_freertos.c ****   /* USER CODE BEGIN RTOS_SEMAPHORES */
 101:Core/Src/app_freertos.c ****   /* add semaphores, ... */
 102:Core/Src/app_freertos.c ****   /* USER CODE END RTOS_SEMAPHORES */
 103:Core/Src/app_freertos.c **** 
 104:Core/Src/app_freertos.c ****   /* USER CODE BEGIN RTOS_TIMERS */
 105:Core/Src/app_freertos.c ****   /* start timers, add new ones, ... */
 106:Core/Src/app_freertos.c ****   /* USER CODE END RTOS_TIMERS */
 107:Core/Src/app_freertos.c **** 
 108:Core/Src/app_freertos.c ****   /* USER CODE BEGIN RTOS_QUEUES */
 109:Core/Src/app_freertos.c ****   /* add queues, ... */
 110:Core/Src/app_freertos.c ****   /* USER CODE END RTOS_QUEUES */
 111:Core/Src/app_freertos.c **** 
 112:Core/Src/app_freertos.c ****   /* Create the thread(s) */
 113:Core/Src/app_freertos.c ****   /* creation of defaultTask */
 114:Core/Src/app_freertos.c ****   defaultTaskHandle = osThreadNew(StartDefaultTask, NULL, &defaultTask_attributes);
 115:Core/Src/app_freertos.c **** 
 116:Core/Src/app_freertos.c ****   /* creation of Get_Angle */
 117:Core/Src/app_freertos.c ****   Get_AngleHandle = osThreadNew(Get_Angle_Task, NULL, &Get_Angle_attributes);
 118:Core/Src/app_freertos.c **** 
 119:Core/Src/app_freertos.c ****   /* creation of Oled_Display */
 120:Core/Src/app_freertos.c ****   Oled_DisplayHandle = osThreadNew(Oled_Display_Task, NULL, &Oled_Display_attributes);
 121:Core/Src/app_freertos.c **** 
 122:Core/Src/app_freertos.c ****   /* USER CODE BEGIN RTOS_THREADS */
 123:Core/Src/app_freertos.c ****   /* add threads, ... */
 124:Core/Src/app_freertos.c ****   /* USER CODE END RTOS_THREADS */
 125:Core/Src/app_freertos.c **** 
 126:Core/Src/app_freertos.c ****   /* USER CODE BEGIN RTOS_EVENTS */
 127:Core/Src/app_freertos.c ****   /* add events, ... */
 128:Core/Src/app_freertos.c ****   /* USER CODE END RTOS_EVENTS */
 129:Core/Src/app_freertos.c **** 
 130:Core/Src/app_freertos.c **** }
 131:Core/Src/app_freertos.c **** 
 132:Core/Src/app_freertos.c **** /* USER CODE BEGIN Header_StartDefaultTask */
 133:Core/Src/app_freertos.c **** /**
 134:Core/Src/app_freertos.c ****   * @brief  Function implementing the defaultTask thread.
 135:Core/Src/app_freertos.c ****   * @param  argument: Not used
 136:Core/Src/app_freertos.c ****   * @retval None
 137:Core/Src/app_freertos.c ****   */
 138:Core/Src/app_freertos.c **** /* USER CODE END Header_StartDefaultTask */
 139:Core/Src/app_freertos.c **** void StartDefaultTask(void *argument)
 140:Core/Src/app_freertos.c **** {
  29              		.loc 1 140 1 view -0
  30              		.cfi_startproc
  31              		@ Volatile: function does not return.
  32              		@ args = 0, pretend = 0, frame = 0
ARM GAS  /var/folders/21/t9g5rlb91ys800n5npymflf80000gn/T//cclcg3Ry.s 			page 4


  33              		@ frame_needed = 0, uses_anonymous_args = 0
  34              	.LVL0:
  35              		.loc 1 140 1 is_stmt 0 view .LVU1
  36 0000 08B5     		push	{r3, lr}
  37              	.LCFI0:
  38              		.cfi_def_cfa_offset 8
  39              		.cfi_offset 3, -8
  40              		.cfi_offset 14, -4
  41              	.LVL1:
  42              	.L2:
 141:Core/Src/app_freertos.c ****   /* USER CODE BEGIN StartDefaultTask */
 142:Core/Src/app_freertos.c ****   /* Infinite loop */
 143:Core/Src/app_freertos.c ****   for(;;)
  43              		.loc 1 143 3 is_stmt 1 discriminator 1 view .LVU2
 144:Core/Src/app_freertos.c ****   {
 145:Core/Src/app_freertos.c ****     // HAL_GPIO_TogglePin(LED_GPIO_Port, LED_Pin);
 146:Core/Src/app_freertos.c ****     osDelay(1000);
  44              		.loc 1 146 5 discriminator 1 view .LVU3
  45 0002 4FF47A70 		mov	r0, #1000
  46 0006 FFF7FEFF 		bl	osDelay
  47              	.LVL2:
 143:Core/Src/app_freertos.c ****   {
  48              		.loc 1 143 3 discriminator 1 view .LVU4
  49 000a FAE7     		b	.L2
  50              		.cfi_endproc
  51              	.LFE156:
  53              		.section	.text.Get_Angle_Task,"ax",%progbits
  54              		.align	1
  55              		.global	Get_Angle_Task
  56              		.syntax unified
  57              		.thumb
  58              		.thumb_func
  60              	Get_Angle_Task:
  61              	.LFB157:
 147:Core/Src/app_freertos.c ****   }
 148:Core/Src/app_freertos.c ****   /* USER CODE END StartDefaultTask */
 149:Core/Src/app_freertos.c **** }
 150:Core/Src/app_freertos.c **** 
 151:Core/Src/app_freertos.c **** /* USER CODE BEGIN Header_Get_Angle_Task */
 152:Core/Src/app_freertos.c **** /**
 153:Core/Src/app_freertos.c **** * @brief Function implementing the Get_Angle thread.
 154:Core/Src/app_freertos.c **** * @param argument: Not used
 155:Core/Src/app_freertos.c **** * @retval None
 156:Core/Src/app_freertos.c **** */
 157:Core/Src/app_freertos.c **** /* USER CODE END Header_Get_Angle_Task */
 158:Core/Src/app_freertos.c **** void Get_Angle_Task(void *argument)
 159:Core/Src/app_freertos.c **** {
  62              		.loc 1 159 1 view -0
  63              		.cfi_startproc
  64              		@ Volatile: function does not return.
  65              		@ args = 0, pretend = 0, frame = 0
  66              		@ frame_needed = 0, uses_anonymous_args = 0
  67              	.LVL3:
  68              		.loc 1 159 1 is_stmt 0 view .LVU6
  69 0000 08B5     		push	{r3, lr}
  70              	.LCFI1:
  71              		.cfi_def_cfa_offset 8
ARM GAS  /var/folders/21/t9g5rlb91ys800n5npymflf80000gn/T//cclcg3Ry.s 			page 5


  72              		.cfi_offset 3, -8
  73              		.cfi_offset 14, -4
  74              	.LVL4:
  75              	.L5:
 160:Core/Src/app_freertos.c ****   /* USER CODE BEGIN Get_Angle_Task */
 161:Core/Src/app_freertos.c ****       // if (mpu_dmp_get_data(&pitch, &roll, &yaw) == 0) {
 162:Core/Src/app_freertos.c ****     //   uart_printf("pitch:%4.1f\n", -pitch);
 163:Core/Src/app_freertos.c ****     //   ssd1306_printf(Font_11x18, "ang:%3.1f", -pitch);
 164:Core/Src/app_freertos.c ****     //   ssd1306_SetCursor(0, 0);
 165:Core/Src/app_freertos.c ****     //   HAL_Delay(50);
 166:Core/Src/app_freertos.c ****     // }
 167:Core/Src/app_freertos.c ****   /* Infinite loop */
 168:Core/Src/app_freertos.c ****   for(;;)
  76              		.loc 1 168 3 is_stmt 1 discriminator 1 view .LVU7
 169:Core/Src/app_freertos.c ****   {
 170:Core/Src/app_freertos.c ****     angle = Angle_Get();
  77              		.loc 1 170 5 discriminator 1 view .LVU8
  78              		.loc 1 170 13 is_stmt 0 discriminator 1 view .LVU9
  79 0002 FFF7FEFF 		bl	Angle_Get
  80              	.LVL5:
  81              		.loc 1 170 11 discriminator 1 view .LVU10
  82 0006 034B     		ldr	r3, .L7
  83 0008 83ED000A 		vstr.32	s0, [r3]
 171:Core/Src/app_freertos.c ****     osDelay(30);
  84              		.loc 1 171 5 is_stmt 1 discriminator 1 view .LVU11
  85 000c 1E20     		movs	r0, #30
  86 000e FFF7FEFF 		bl	osDelay
  87              	.LVL6:
 168:Core/Src/app_freertos.c ****   {
  88              		.loc 1 168 3 discriminator 1 view .LVU12
  89 0012 F6E7     		b	.L5
  90              	.L8:
  91              		.align	2
  92              	.L7:
  93 0014 00000000 		.word	angle
  94              		.cfi_endproc
  95              	.LFE157:
  97              		.section	.rodata.Oled_Display_Task.str1.4,"aMS",%progbits,1
  98              		.align	2
  99              	.LC0:
 100 0000 616E673A 		.ascii	"ang:%3.1f\000"
 100      25332E31 
 100      6600
 101              		.global	__aeabi_f2d
 102              		.global	__aeabi_ddiv
 103              		.global	__aeabi_dmul
 104              		.global	__aeabi_dsub
 105              		.global	__aeabi_d2iz
 106              		.global	__aeabi_dadd
 107              		.section	.text.Oled_Display_Task,"ax",%progbits
 108              		.align	1
 109              		.global	Oled_Display_Task
 110              		.syntax unified
 111              		.thumb
 112              		.thumb_func
 114              	Oled_Display_Task:
 115              	.LVL7:
ARM GAS  /var/folders/21/t9g5rlb91ys800n5npymflf80000gn/T//cclcg3Ry.s 			page 6


 116              	.LFB158:
 172:Core/Src/app_freertos.c ****   }
 173:Core/Src/app_freertos.c ****   /* USER CODE END Get_Angle_Task */
 174:Core/Src/app_freertos.c **** }
 175:Core/Src/app_freertos.c **** 
 176:Core/Src/app_freertos.c **** /* USER CODE BEGIN Header_Oled_Display_Task */
 177:Core/Src/app_freertos.c **** /**
 178:Core/Src/app_freertos.c **** * @brief Function implementing the Oled_Display thread.
 179:Core/Src/app_freertos.c **** * @param argument: Not used
 180:Core/Src/app_freertos.c **** * @retval None
 181:Core/Src/app_freertos.c **** */
 182:Core/Src/app_freertos.c **** /* USER CODE END Header_Oled_Display_Task */
 183:Core/Src/app_freertos.c **** void Oled_Display_Task(void *argument)
 184:Core/Src/app_freertos.c **** {
 117              		.loc 1 184 1 view -0
 118              		.cfi_startproc
 119              		@ args = 0, pretend = 0, frame = 0
 120              		@ frame_needed = 0, uses_anonymous_args = 0
 121              		.loc 1 184 1 is_stmt 0 view .LVU14
 122 0000 2DE9F04F 		push	{r4, r5, r6, r7, r8, r9, r10, fp, lr}
 123              	.LCFI2:
 124              		.cfi_def_cfa_offset 36
 125              		.cfi_offset 4, -36
 126              		.cfi_offset 5, -32
 127              		.cfi_offset 6, -28
 128              		.cfi_offset 7, -24
 129              		.cfi_offset 8, -20
 130              		.cfi_offset 9, -16
 131              		.cfi_offset 10, -12
 132              		.cfi_offset 11, -8
 133              		.cfi_offset 14, -4
 134 0004 2DED028B 		vpush.64	{d8}
 135              	.LCFI3:
 136              		.cfi_def_cfa_offset 44
 137              		.cfi_offset 80, -44
 138              		.cfi_offset 81, -40
 139 0008 83B0     		sub	sp, sp, #12
 140              	.LCFI4:
 141              		.cfi_def_cfa_offset 56
 185:Core/Src/app_freertos.c ****   /* USER CODE BEGIN Oled_Display_Task */ 
 186:Core/Src/app_freertos.c ****   u8g2_Setup_ssd1306_i2c_128x64_noname_f(&u8g2, U8G2_R2, STM32_byte_i2c, STM32_gpio_and_delay);
 142              		.loc 1 186 3 is_stmt 1 view .LVU15
 143 000a 494C     		ldr	r4, .L12+16
 144 000c 494B     		ldr	r3, .L12+20
 145 000e 4A4A     		ldr	r2, .L12+24
 146 0010 4A49     		ldr	r1, .L12+28
 147 0012 2046     		mov	r0, r4
 148              	.LVL8:
 149              		.loc 1 186 3 is_stmt 0 view .LVU16
 150 0014 FFF7FEFF 		bl	u8g2_Setup_ssd1306_i2c_128x64_noname_f
 151              	.LVL9:
 187:Core/Src/app_freertos.c ****   u8g2_InitDisplay(&u8g2);
 152              		.loc 1 187 3 is_stmt 1 view .LVU17
 153 0018 2046     		mov	r0, r4
 154 001a FFF7FEFF 		bl	u8x8_InitDisplay
 155              	.LVL10:
 188:Core/Src/app_freertos.c ****   u8g2_SetPowerSave(&u8g2, 0);
ARM GAS  /var/folders/21/t9g5rlb91ys800n5npymflf80000gn/T//cclcg3Ry.s 			page 7


 156              		.loc 1 188 3 view .LVU18
 157 001e 0021     		movs	r1, #0
 158 0020 2046     		mov	r0, r4
 159 0022 FFF7FEFF 		bl	u8x8_SetPowerSave
 160              	.LVL11:
 189:Core/Src/app_freertos.c ****   u8g2_ClearDisplay(&u8g2);
 161              		.loc 1 189 3 view .LVU19
 162 0026 2046     		mov	r0, r4
 163 0028 FFF7FEFF 		bl	u8g2_ClearDisplay
 164              	.LVL12:
 190:Core/Src/app_freertos.c ****   u8g2_SetFont(&u8g2, u8g2_font_wqy16_t_chinese1);
 165              		.loc 1 190 3 view .LVU20
 166 002c 4449     		ldr	r1, .L12+32
 167 002e 2046     		mov	r0, r4
 168 0030 FFF7FEFF 		bl	u8g2_SetFont
 169              	.LVL13:
 170              	.L10:
 191:Core/Src/app_freertos.c ****   /* Infinite loop */
 192:Core/Src/app_freertos.c ****   int x1, y1, x2, y2;
 171              		.loc 1 192 3 discriminator 1 view .LVU21
 193:Core/Src/app_freertos.c ****   for(;;)
 172              		.loc 1 193 3 discriminator 1 view .LVU22
 194:Core/Src/app_freertos.c ****   {
 195:Core/Src/app_freertos.c ****     // u8g2_ClearBuffer(&u8g2);
 196:Core/Src/app_freertos.c ****     u8g2_ClearBuffer(&u8g2);
 173              		.loc 1 196 5 discriminator 1 view .LVU23
 174 0034 3E4C     		ldr	r4, .L12+16
 175 0036 2046     		mov	r0, r4
 176 0038 FFF7FEFF 		bl	u8g2_ClearBuffer
 177              	.LVL14:
 197:Core/Src/app_freertos.c ****     u8g2_printf(&u8g2, 0, 30, "ang:%3.1f", angle);
 178              		.loc 1 197 5 discriminator 1 view .LVU24
 179 003c 414D     		ldr	r5, .L12+36
 180 003e 2868     		ldr	r0, [r5]	@ float
 181 0040 FFF7FEFF 		bl	__aeabi_f2d
 182              	.LVL15:
 183 0044 CDE90001 		strd	r0, [sp]
 184 0048 3F4B     		ldr	r3, .L12+40
 185 004a 1E22     		movs	r2, #30
 186 004c 0021     		movs	r1, #0
 187 004e 2046     		mov	r0, r4
 188 0050 FFF7FEFF 		bl	u8g2_printf
 189              	.LVL16:
 198:Core/Src/app_freertos.c ****     x1 = 95 - 25 * cos(angle / 57.3);
 190              		.loc 1 198 5 discriminator 1 view .LVU25
 191              		.loc 1 198 20 is_stmt 0 discriminator 1 view .LVU26
 192 0054 2868     		ldr	r0, [r5]	@ float
 193 0056 FFF7FEFF 		bl	__aeabi_f2d
 194              	.LVL17:
 195 005a 31A3     		adr	r3, .L12
 196 005c D3E90023 		ldrd	r2, [r3]
 197 0060 FFF7FEFF 		bl	__aeabi_ddiv
 198              	.LVL18:
 199 0064 41EC180B 		vmov	d8, r0, r1
 200 0068 B0EE480A 		vmov.f32	s0, s16
 201 006c F0EE680A 		vmov.f32	s1, s17
 202 0070 FFF7FEFF 		bl	cos
ARM GAS  /var/folders/21/t9g5rlb91ys800n5npymflf80000gn/T//cclcg3Ry.s 			page 8


 203              	.LVL19:
 204 0074 51EC100B 		vmov	r0, r1, d0
 205              		.loc 1 198 18 discriminator 1 view .LVU27
 206 0078 0022     		movs	r2, #0
 207 007a 344B     		ldr	r3, .L12+44
 208 007c FFF7FEFF 		bl	__aeabi_dmul
 209              	.LVL20:
 210 0080 0646     		mov	r6, r0
 211 0082 0F46     		mov	r7, r1
 212              		.loc 1 198 13 discriminator 1 view .LVU28
 213 0084 0246     		mov	r2, r0
 214 0086 0B46     		mov	r3, r1
 215 0088 27A1     		adr	r1, .L12+8
 216 008a D1E90001 		ldrd	r0, [r1]
 217 008e FFF7FEFF 		bl	__aeabi_dsub
 218              	.LVL21:
 219              		.loc 1 198 8 discriminator 1 view .LVU29
 220 0092 FFF7FEFF 		bl	__aeabi_d2iz
 221              	.LVL22:
 222 0096 8246     		mov	r10, r0
 223              	.LVL23:
 199:Core/Src/app_freertos.c ****     y1 = 30 + 25 * sin(angle / 57.3);
 224              		.loc 1 199 5 is_stmt 1 discriminator 1 view .LVU30
 225              		.loc 1 199 20 is_stmt 0 discriminator 1 view .LVU31
 226 0098 B0EE480A 		vmov.f32	s0, s16
 227 009c F0EE680A 		vmov.f32	s1, s17
 228 00a0 FFF7FEFF 		bl	sin
 229              	.LVL24:
 230              		.loc 1 199 20 discriminator 1 view .LVU32
 231 00a4 51EC100B 		vmov	r0, r1, d0
 232              		.loc 1 199 18 discriminator 1 view .LVU33
 233 00a8 0022     		movs	r2, #0
 234 00aa 284B     		ldr	r3, .L12+44
 235 00ac FFF7FEFF 		bl	__aeabi_dmul
 236              	.LVL25:
 237 00b0 8046     		mov	r8, r0
 238 00b2 8946     		mov	r9, r1
 239              		.loc 1 199 13 discriminator 1 view .LVU34
 240 00b4 0022     		movs	r2, #0
 241 00b6 264B     		ldr	r3, .L12+48
 242 00b8 FFF7FEFF 		bl	__aeabi_dadd
 243              	.LVL26:
 244              		.loc 1 199 8 discriminator 1 view .LVU35
 245 00bc FFF7FEFF 		bl	__aeabi_d2iz
 246              	.LVL27:
 247 00c0 8346     		mov	fp, r0
 248              	.LVL28:
 200:Core/Src/app_freertos.c ****     x2 = 95 + 25 * cos(angle / 57.3);
 249              		.loc 1 200 5 is_stmt 1 discriminator 1 view .LVU36
 250              		.loc 1 200 13 is_stmt 0 discriminator 1 view .LVU37
 251 00c2 19A3     		adr	r3, .L12+8
 252 00c4 D3E90023 		ldrd	r2, [r3]
 253 00c8 3046     		mov	r0, r6
 254              	.LVL29:
 255              		.loc 1 200 13 discriminator 1 view .LVU38
 256 00ca 3946     		mov	r1, r7
 257 00cc FFF7FEFF 		bl	__aeabi_dadd
ARM GAS  /var/folders/21/t9g5rlb91ys800n5npymflf80000gn/T//cclcg3Ry.s 			page 9


 258              	.LVL30:
 259              		.loc 1 200 8 discriminator 1 view .LVU39
 260 00d0 FFF7FEFF 		bl	__aeabi_d2iz
 261              	.LVL31:
 262 00d4 0646     		mov	r6, r0
 263              	.LVL32:
 201:Core/Src/app_freertos.c ****     y2 = 30 - 25 * sin(angle / 57.3);
 264              		.loc 1 201 5 is_stmt 1 discriminator 1 view .LVU40
 265              		.loc 1 201 13 is_stmt 0 discriminator 1 view .LVU41
 266 00d6 4246     		mov	r2, r8
 267 00d8 4B46     		mov	r3, r9
 268 00da 0020     		movs	r0, #0
 269              	.LVL33:
 270              		.loc 1 201 13 discriminator 1 view .LVU42
 271 00dc 1C49     		ldr	r1, .L12+48
 272 00de FFF7FEFF 		bl	__aeabi_dsub
 273              	.LVL34:
 274              		.loc 1 201 8 discriminator 1 view .LVU43
 275 00e2 FFF7FEFF 		bl	__aeabi_d2iz
 276              	.LVL35:
 277 00e6 0546     		mov	r5, r0
 278              	.LVL36:
 202:Core/Src/app_freertos.c ****     u8g2_DrawCircle(&u8g2, 95, 30, 25, U8G2_DRAW_ALL);
 279              		.loc 1 202 5 is_stmt 1 discriminator 1 view .LVU44
 280 00e8 0F23     		movs	r3, #15
 281 00ea 0093     		str	r3, [sp]
 282 00ec 1923     		movs	r3, #25
 283 00ee 1E22     		movs	r2, #30
 284 00f0 5F21     		movs	r1, #95
 285 00f2 2046     		mov	r0, r4
 286              	.LVL37:
 287              		.loc 1 202 5 is_stmt 0 discriminator 1 view .LVU45
 288 00f4 FFF7FEFF 		bl	u8g2_DrawCircle
 289              	.LVL38:
 203:Core/Src/app_freertos.c ****     u8g2_DrawLine(&u8g2, x1, y1, x2, y2);
 290              		.loc 1 203 5 is_stmt 1 discriminator 1 view .LVU46
 291 00f8 ADB2     		uxth	r5, r5
 292              	.LVL39:
 293              		.loc 1 203 5 is_stmt 0 discriminator 1 view .LVU47
 294 00fa 0095     		str	r5, [sp]
 295 00fc B3B2     		uxth	r3, r6
 296 00fe 1FFA8BF2 		uxth	r2, fp
 297 0102 1FFA8AF1 		uxth	r1, r10
 298 0106 2046     		mov	r0, r4
 299 0108 FFF7FEFF 		bl	u8g2_DrawLine
 300              	.LVL40:
 204:Core/Src/app_freertos.c ****     u8g2_SendBuffer(&u8g2);
 301              		.loc 1 204 5 is_stmt 1 discriminator 1 view .LVU48
 302 010c 2046     		mov	r0, r4
 303 010e FFF7FEFF 		bl	u8g2_SendBuffer
 304              	.LVL41:
 205:Core/Src/app_freertos.c ****     osDelay(10);
 305              		.loc 1 205 5 discriminator 1 view .LVU49
 306 0112 0A20     		movs	r0, #10
 307 0114 FFF7FEFF 		bl	osDelay
 308              	.LVL42:
 193:Core/Src/app_freertos.c ****   {
ARM GAS  /var/folders/21/t9g5rlb91ys800n5npymflf80000gn/T//cclcg3Ry.s 			page 10


 309              		.loc 1 193 3 discriminator 1 view .LVU50
 310 0118 8CE7     		b	.L10
 311              	.L13:
 312 011a 00BFAFF3 		.align	3
 312      0080
 313              	.L12:
 314 0120 66666666 		.word	1717986918
 315 0124 66A64C40 		.word	1078765158
 316 0128 00000000 		.word	0
 317 012c 00C05740 		.word	1079492608
 318 0130 00000000 		.word	u8g2
 319 0134 00000000 		.word	STM32_gpio_and_delay
 320 0138 00000000 		.word	STM32_byte_i2c
 321 013c 00000000 		.word	u8g2_cb_r2
 322 0140 00000000 		.word	u8g2_font_wqy16_t_chinese1
 323 0144 00000000 		.word	angle
 324 0148 00000000 		.word	.LC0
 325 014c 00003940 		.word	1077477376
 326 0150 00003E40 		.word	1077805056
 327              		.cfi_endproc
 328              	.LFE158:
 330              		.section	.text.MX_FREERTOS_Init,"ax",%progbits
 331              		.align	1
 332              		.global	MX_FREERTOS_Init
 333              		.syntax unified
 334              		.thumb
 335              		.thumb_func
 337              	MX_FREERTOS_Init:
 338              	.LFB155:
  91:Core/Src/app_freertos.c ****   /* USER CODE BEGIN Init */
 339              		.loc 1 91 29 view -0
 340              		.cfi_startproc
 341              		@ args = 0, pretend = 0, frame = 0
 342              		@ frame_needed = 0, uses_anonymous_args = 0
 343 0000 08B5     		push	{r3, lr}
 344              	.LCFI5:
 345              		.cfi_def_cfa_offset 8
 346              		.cfi_offset 3, -8
 347              		.cfi_offset 14, -4
 114:Core/Src/app_freertos.c **** 
 348              		.loc 1 114 3 view .LVU52
 114:Core/Src/app_freertos.c **** 
 349              		.loc 1 114 23 is_stmt 0 view .LVU53
 350 0002 0B4A     		ldr	r2, .L16
 351 0004 0021     		movs	r1, #0
 352 0006 0B48     		ldr	r0, .L16+4
 353 0008 FFF7FEFF 		bl	osThreadNew
 354              	.LVL43:
 114:Core/Src/app_freertos.c **** 
 355              		.loc 1 114 21 view .LVU54
 356 000c 0A4B     		ldr	r3, .L16+8
 357 000e 1860     		str	r0, [r3]
 117:Core/Src/app_freertos.c **** 
 358              		.loc 1 117 3 is_stmt 1 view .LVU55
 117:Core/Src/app_freertos.c **** 
 359              		.loc 1 117 21 is_stmt 0 view .LVU56
 360 0010 0A4A     		ldr	r2, .L16+12
ARM GAS  /var/folders/21/t9g5rlb91ys800n5npymflf80000gn/T//cclcg3Ry.s 			page 11


 361 0012 0021     		movs	r1, #0
 362 0014 0A48     		ldr	r0, .L16+16
 363 0016 FFF7FEFF 		bl	osThreadNew
 364              	.LVL44:
 117:Core/Src/app_freertos.c **** 
 365              		.loc 1 117 19 view .LVU57
 366 001a 0A4B     		ldr	r3, .L16+20
 367 001c 1860     		str	r0, [r3]
 120:Core/Src/app_freertos.c **** 
 368              		.loc 1 120 3 is_stmt 1 view .LVU58
 120:Core/Src/app_freertos.c **** 
 369              		.loc 1 120 24 is_stmt 0 view .LVU59
 370 001e 0A4A     		ldr	r2, .L16+24
 371 0020 0021     		movs	r1, #0
 372 0022 0A48     		ldr	r0, .L16+28
 373 0024 FFF7FEFF 		bl	osThreadNew
 374              	.LVL45:
 120:Core/Src/app_freertos.c **** 
 375              		.loc 1 120 22 view .LVU60
 376 0028 094B     		ldr	r3, .L16+32
 377 002a 1860     		str	r0, [r3]
 130:Core/Src/app_freertos.c **** 
 378              		.loc 1 130 1 view .LVU61
 379 002c 08BD     		pop	{r3, pc}
 380              	.L17:
 381 002e 00BF     		.align	2
 382              	.L16:
 383 0030 00000000 		.word	defaultTask_attributes
 384 0034 00000000 		.word	StartDefaultTask
 385 0038 00000000 		.word	defaultTaskHandle
 386 003c 00000000 		.word	Get_Angle_attributes
 387 0040 00000000 		.word	Get_Angle_Task
 388 0044 00000000 		.word	Get_AngleHandle
 389 0048 00000000 		.word	Oled_Display_attributes
 390 004c 00000000 		.word	Oled_Display_Task
 391 0050 00000000 		.word	Oled_DisplayHandle
 392              		.cfi_endproc
 393              	.LFE155:
 395              		.global	Oled_Display_attributes
 396              		.section	.rodata.str1.4,"aMS",%progbits,1
 397              		.align	2
 398              	.LC1:
 399 0000 4F6C6564 		.ascii	"Oled_Display\000"
 399      5F446973 
 399      706C6179 
 399      00
 400              		.section	.rodata.Oled_Display_attributes,"a"
 401              		.align	2
 404              	Oled_Display_attributes:
 405 0000 00000000 		.word	.LC1
 406 0004 00000000 		.space	16
 406      00000000 
 406      00000000 
 406      00000000 
 407 0014 00040000 		.word	1024
 408 0018 18000000 		.word	24
 409 001c 00000000 		.space	8
ARM GAS  /var/folders/21/t9g5rlb91ys800n5npymflf80000gn/T//cclcg3Ry.s 			page 12


 409      00000000 
 410              		.global	Oled_DisplayHandle
 411              		.section	.bss.Oled_DisplayHandle,"aw",%nobits
 412              		.align	2
 415              	Oled_DisplayHandle:
 416 0000 00000000 		.space	4
 417              		.global	Get_Angle_attributes
 418              		.section	.rodata.str1.4
 419 000d 000000   		.align	2
 420              	.LC2:
 421 0010 4765745F 		.ascii	"Get_Angle\000"
 421      416E676C 
 421      6500
 422              		.section	.rodata.Get_Angle_attributes,"a"
 423              		.align	2
 426              	Get_Angle_attributes:
 427 0000 10000000 		.word	.LC2
 428 0004 00000000 		.space	16
 428      00000000 
 428      00000000 
 428      00000000 
 429 0014 00040000 		.word	1024
 430 0018 18000000 		.word	24
 431 001c 00000000 		.space	8
 431      00000000 
 432              		.global	Get_AngleHandle
 433              		.section	.bss.Get_AngleHandle,"aw",%nobits
 434              		.align	2
 437              	Get_AngleHandle:
 438 0000 00000000 		.space	4
 439              		.global	defaultTask_attributes
 440              		.section	.rodata.str1.4
 441 001a 0000     		.align	2
 442              	.LC3:
 443 001c 64656661 		.ascii	"defaultTask\000"
 443      756C7454 
 443      61736B00 
 444              		.section	.rodata.defaultTask_attributes,"a"
 445              		.align	2
 448              	defaultTask_attributes:
 449 0000 1C000000 		.word	.LC3
 450 0004 00000000 		.space	16
 450      00000000 
 450      00000000 
 450      00000000 
 451 0014 00020000 		.word	512
 452 0018 18000000 		.word	24
 453 001c 00000000 		.space	8
 453      00000000 
 454              		.global	defaultTaskHandle
 455              		.section	.bss.defaultTaskHandle,"aw",%nobits
 456              		.align	2
 459              	defaultTaskHandle:
 460 0000 00000000 		.space	4
 461              		.section	.bss.angle,"aw",%nobits
 462              		.align	2
 465              	angle:
ARM GAS  /var/folders/21/t9g5rlb91ys800n5npymflf80000gn/T//cclcg3Ry.s 			page 13


 466 0000 00000000 		.space	4
 467              		.text
 468              	.Letext0:
 469              		.file 2 "/usr/local/include/sys/_types/_int8_t.h"
 470              		.file 3 "/usr/local/include/_types/_uint8_t.h"
 471              		.file 4 "/usr/local/include/_types/_uint16_t.h"
 472              		.file 5 "/usr/local/include/_types/_uint32_t.h"
 473              		.file 6 "Middlewares/Third_Party/FreeRTOS/Source/CMSIS_RTOS_V2/cmsis_os2.h"
 474              		.file 7 "user/drivers/u8g2/u8x8.h"
 475              		.file 8 "user/drivers/u8g2/u8g2.h"
 476              		.file 9 "/usr/local/include/math.h"
 477              		.file 10 "user/Inc/oled.h"
 478              		.file 11 "user/Inc/mpu.h"
ARM GAS  /var/folders/21/t9g5rlb91ys800n5npymflf80000gn/T//cclcg3Ry.s 			page 14


DEFINED SYMBOLS
                            *ABS*:00000000 app_freertos.c
/var/folders/21/t9g5rlb91ys800n5npymflf80000gn/T//cclcg3Ry.s:21     .text.StartDefaultTask:00000000 $t
/var/folders/21/t9g5rlb91ys800n5npymflf80000gn/T//cclcg3Ry.s:27     .text.StartDefaultTask:00000000 StartDefaultTask
/var/folders/21/t9g5rlb91ys800n5npymflf80000gn/T//cclcg3Ry.s:54     .text.Get_Angle_Task:00000000 $t
/var/folders/21/t9g5rlb91ys800n5npymflf80000gn/T//cclcg3Ry.s:60     .text.Get_Angle_Task:00000000 Get_Angle_Task
/var/folders/21/t9g5rlb91ys800n5npymflf80000gn/T//cclcg3Ry.s:93     .text.Get_Angle_Task:00000014 $d
/var/folders/21/t9g5rlb91ys800n5npymflf80000gn/T//cclcg3Ry.s:465    .bss.angle:00000000 angle
/var/folders/21/t9g5rlb91ys800n5npymflf80000gn/T//cclcg3Ry.s:98     .rodata.Oled_Display_Task.str1.4:00000000 $d
/var/folders/21/t9g5rlb91ys800n5npymflf80000gn/T//cclcg3Ry.s:108    .text.Oled_Display_Task:00000000 $t
/var/folders/21/t9g5rlb91ys800n5npymflf80000gn/T//cclcg3Ry.s:114    .text.Oled_Display_Task:00000000 Oled_Display_Task
/var/folders/21/t9g5rlb91ys800n5npymflf80000gn/T//cclcg3Ry.s:314    .text.Oled_Display_Task:00000120 $d
/var/folders/21/t9g5rlb91ys800n5npymflf80000gn/T//cclcg3Ry.s:331    .text.MX_FREERTOS_Init:00000000 $t
/var/folders/21/t9g5rlb91ys800n5npymflf80000gn/T//cclcg3Ry.s:337    .text.MX_FREERTOS_Init:00000000 MX_FREERTOS_Init
/var/folders/21/t9g5rlb91ys800n5npymflf80000gn/T//cclcg3Ry.s:383    .text.MX_FREERTOS_Init:00000030 $d
/var/folders/21/t9g5rlb91ys800n5npymflf80000gn/T//cclcg3Ry.s:448    .rodata.defaultTask_attributes:00000000 defaultTask_attributes
/var/folders/21/t9g5rlb91ys800n5npymflf80000gn/T//cclcg3Ry.s:459    .bss.defaultTaskHandle:00000000 defaultTaskHandle
/var/folders/21/t9g5rlb91ys800n5npymflf80000gn/T//cclcg3Ry.s:426    .rodata.Get_Angle_attributes:00000000 Get_Angle_attributes
/var/folders/21/t9g5rlb91ys800n5npymflf80000gn/T//cclcg3Ry.s:437    .bss.Get_AngleHandle:00000000 Get_AngleHandle
/var/folders/21/t9g5rlb91ys800n5npymflf80000gn/T//cclcg3Ry.s:404    .rodata.Oled_Display_attributes:00000000 Oled_Display_attributes
/var/folders/21/t9g5rlb91ys800n5npymflf80000gn/T//cclcg3Ry.s:415    .bss.Oled_DisplayHandle:00000000 Oled_DisplayHandle
/var/folders/21/t9g5rlb91ys800n5npymflf80000gn/T//cclcg3Ry.s:397    .rodata.str1.4:00000000 $d
/var/folders/21/t9g5rlb91ys800n5npymflf80000gn/T//cclcg3Ry.s:401    .rodata.Oled_Display_attributes:00000000 $d
/var/folders/21/t9g5rlb91ys800n5npymflf80000gn/T//cclcg3Ry.s:412    .bss.Oled_DisplayHandle:00000000 $d
/var/folders/21/t9g5rlb91ys800n5npymflf80000gn/T//cclcg3Ry.s:423    .rodata.Get_Angle_attributes:00000000 $d
/var/folders/21/t9g5rlb91ys800n5npymflf80000gn/T//cclcg3Ry.s:434    .bss.Get_AngleHandle:00000000 $d
/var/folders/21/t9g5rlb91ys800n5npymflf80000gn/T//cclcg3Ry.s:445    .rodata.defaultTask_attributes:00000000 $d
/var/folders/21/t9g5rlb91ys800n5npymflf80000gn/T//cclcg3Ry.s:456    .bss.defaultTaskHandle:00000000 $d
/var/folders/21/t9g5rlb91ys800n5npymflf80000gn/T//cclcg3Ry.s:462    .bss.angle:00000000 $d

UNDEFINED SYMBOLS
osDelay
Angle_Get
__aeabi_f2d
__aeabi_ddiv
__aeabi_dmul
__aeabi_dsub
__aeabi_d2iz
__aeabi_dadd
u8g2_Setup_ssd1306_i2c_128x64_noname_f
u8x8_InitDisplay
u8x8_SetPowerSave
u8g2_ClearDisplay
u8g2_SetFont
u8g2_ClearBuffer
u8g2_printf
cos
sin
u8g2_DrawCircle
u8g2_DrawLine
u8g2_SendBuffer
u8g2
STM32_gpio_and_delay
STM32_byte_i2c
u8g2_cb_r2
u8g2_font_wqy16_t_chinese1
osThreadNew
ARM GAS  /var/folders/21/t9g5rlb91ys800n5npymflf80000gn/T//cclcg3Ry.s 			page 15


