ARM GAS  /var/folders/21/t9g5rlb91ys800n5npymflf80000gn/T//ccUTeGtT.s 			page 1


   1              		.cpu cortex-m4
   2              		.arch armv7e-m
   3              		.fpu fpv4-sp-d16
   4              		.eabi_attribute 27, 1
   5              		.eabi_attribute 28, 1
   6              		.eabi_attribute 20, 1
   7              		.eabi_attribute 21, 1
   8              		.eabi_attribute 23, 3
   9              		.eabi_attribute 24, 1
  10              		.eabi_attribute 25, 1
  11              		.eabi_attribute 26, 1
  12              		.eabi_attribute 30, 1
  13              		.eabi_attribute 34, 1
  14              		.eabi_attribute 18, 4
  15              		.file	"app_freertos.c"
  16              		.text
  17              	.Ltext0:
  18              		.cfi_sections	.debug_frame
  19              		.file 1 "Core/Src/app_freertos.c"
  20              		.section	.text.StartDefaultTask,"ax",%progbits
  21              		.align	1
  22              		.global	StartDefaultTask
  23              		.syntax unified
  24              		.thumb
  25              		.thumb_func
  27              	StartDefaultTask:
  28              	.LFB137:
   1:Core/Src/app_freertos.c **** /* USER CODE BEGIN Header */
   2:Core/Src/app_freertos.c **** /**
   3:Core/Src/app_freertos.c ****   ******************************************************************************
   4:Core/Src/app_freertos.c ****   * File Name          : app_freertos.c
   5:Core/Src/app_freertos.c ****   * Description        : Code for freertos applications
   6:Core/Src/app_freertos.c ****   ******************************************************************************
   7:Core/Src/app_freertos.c ****   * @attention
   8:Core/Src/app_freertos.c ****   *
   9:Core/Src/app_freertos.c ****   * Copyright (c) 2024 STMicroelectronics.
  10:Core/Src/app_freertos.c ****   * All rights reserved.
  11:Core/Src/app_freertos.c ****   *
  12:Core/Src/app_freertos.c ****   * This software is licensed under terms that can be found in the LICENSE file
  13:Core/Src/app_freertos.c ****   * in the root directory of this software component.
  14:Core/Src/app_freertos.c ****   * If no LICENSE file comes with this software, it is provided AS-IS.
  15:Core/Src/app_freertos.c ****   *
  16:Core/Src/app_freertos.c ****   ******************************************************************************
  17:Core/Src/app_freertos.c ****   */
  18:Core/Src/app_freertos.c **** /* USER CODE END Header */
  19:Core/Src/app_freertos.c **** 
  20:Core/Src/app_freertos.c **** /* Includes ------------------------------------------------------------------*/
  21:Core/Src/app_freertos.c **** #include "FreeRTOS.h"
  22:Core/Src/app_freertos.c **** #include "task.h"
  23:Core/Src/app_freertos.c **** #include "main.h"
  24:Core/Src/app_freertos.c **** #include "cmsis_os.h"
  25:Core/Src/app_freertos.c **** 
  26:Core/Src/app_freertos.c **** /* Private includes ----------------------------------------------------------*/
  27:Core/Src/app_freertos.c **** /* USER CODE BEGIN Includes */
  28:Core/Src/app_freertos.c **** #include "mpu.h"
  29:Core/Src/app_freertos.c **** #include "oled.h"
  30:Core/Src/app_freertos.c **** /* USER CODE END Includes */
ARM GAS  /var/folders/21/t9g5rlb91ys800n5npymflf80000gn/T//ccUTeGtT.s 			page 2


  31:Core/Src/app_freertos.c **** 
  32:Core/Src/app_freertos.c **** /* Private typedef -----------------------------------------------------------*/
  33:Core/Src/app_freertos.c **** /* USER CODE BEGIN PTD */
  34:Core/Src/app_freertos.c **** 
  35:Core/Src/app_freertos.c **** /* USER CODE END PTD */
  36:Core/Src/app_freertos.c **** 
  37:Core/Src/app_freertos.c **** /* Private define ------------------------------------------------------------*/
  38:Core/Src/app_freertos.c **** /* USER CODE BEGIN PD */
  39:Core/Src/app_freertos.c **** 
  40:Core/Src/app_freertos.c **** /* USER CODE END PD */
  41:Core/Src/app_freertos.c **** 
  42:Core/Src/app_freertos.c **** /* Private macro -------------------------------------------------------------*/
  43:Core/Src/app_freertos.c **** /* USER CODE BEGIN PM */
  44:Core/Src/app_freertos.c **** 
  45:Core/Src/app_freertos.c **** /* USER CODE END PM */
  46:Core/Src/app_freertos.c **** 
  47:Core/Src/app_freertos.c **** /* Private variables ---------------------------------------------------------*/
  48:Core/Src/app_freertos.c **** /* USER CODE BEGIN Variables */
  49:Core/Src/app_freertos.c **** static float angle;
  50:Core/Src/app_freertos.c **** /* USER CODE END Variables */
  51:Core/Src/app_freertos.c **** /* Definitions for defaultTask */
  52:Core/Src/app_freertos.c **** osThreadId_t defaultTaskHandle;
  53:Core/Src/app_freertos.c **** const osThreadAttr_t defaultTask_attributes = {
  54:Core/Src/app_freertos.c ****   .name = "defaultTask",
  55:Core/Src/app_freertos.c ****   .priority = (osPriority_t) osPriorityNormal,
  56:Core/Src/app_freertos.c ****   .stack_size = 128 * 4
  57:Core/Src/app_freertos.c **** };
  58:Core/Src/app_freertos.c **** /* Definitions for Get_Angle */
  59:Core/Src/app_freertos.c **** osThreadId_t Get_AngleHandle;
  60:Core/Src/app_freertos.c **** const osThreadAttr_t Get_Angle_attributes = {
  61:Core/Src/app_freertos.c ****   .name = "Get_Angle",
  62:Core/Src/app_freertos.c ****   .priority = (osPriority_t) osPriorityNormal,
  63:Core/Src/app_freertos.c ****   .stack_size = 256 * 4
  64:Core/Src/app_freertos.c **** };
  65:Core/Src/app_freertos.c **** /* Definitions for Oled_Display */
  66:Core/Src/app_freertos.c **** osThreadId_t Oled_DisplayHandle;
  67:Core/Src/app_freertos.c **** const osThreadAttr_t Oled_Display_attributes = {
  68:Core/Src/app_freertos.c ****   .name = "Oled_Display",
  69:Core/Src/app_freertos.c ****   .priority = (osPriority_t) osPriorityNormal,
  70:Core/Src/app_freertos.c ****   .stack_size = 256 * 4
  71:Core/Src/app_freertos.c **** };
  72:Core/Src/app_freertos.c **** 
  73:Core/Src/app_freertos.c **** /* Private function prototypes -----------------------------------------------*/
  74:Core/Src/app_freertos.c **** /* USER CODE BEGIN FunctionPrototypes */
  75:Core/Src/app_freertos.c **** 
  76:Core/Src/app_freertos.c **** /* USER CODE END FunctionPrototypes */
  77:Core/Src/app_freertos.c **** 
  78:Core/Src/app_freertos.c **** void StartDefaultTask(void *argument);
  79:Core/Src/app_freertos.c **** void Get_Angle_Task(void *argument);
  80:Core/Src/app_freertos.c **** void Oled_Display_Task(void *argument);
  81:Core/Src/app_freertos.c **** 
  82:Core/Src/app_freertos.c **** void MX_FREERTOS_Init(void); /* (MISRA C 2004 rule 8.1) */
  83:Core/Src/app_freertos.c **** 
  84:Core/Src/app_freertos.c **** /**
  85:Core/Src/app_freertos.c ****   * @brief  FreeRTOS initialization
  86:Core/Src/app_freertos.c ****   * @param  None
  87:Core/Src/app_freertos.c ****   * @retval None
ARM GAS  /var/folders/21/t9g5rlb91ys800n5npymflf80000gn/T//ccUTeGtT.s 			page 3


  88:Core/Src/app_freertos.c ****   */
  89:Core/Src/app_freertos.c **** void MX_FREERTOS_Init(void) {
  90:Core/Src/app_freertos.c ****   /* USER CODE BEGIN Init */
  91:Core/Src/app_freertos.c **** 
  92:Core/Src/app_freertos.c ****   /* USER CODE END Init */
  93:Core/Src/app_freertos.c **** 
  94:Core/Src/app_freertos.c ****   /* USER CODE BEGIN RTOS_MUTEX */
  95:Core/Src/app_freertos.c ****   /* add mutexes, ... */
  96:Core/Src/app_freertos.c ****   /* USER CODE END RTOS_MUTEX */
  97:Core/Src/app_freertos.c **** 
  98:Core/Src/app_freertos.c ****   /* USER CODE BEGIN RTOS_SEMAPHORES */
  99:Core/Src/app_freertos.c ****   /* add semaphores, ... */
 100:Core/Src/app_freertos.c ****   /* USER CODE END RTOS_SEMAPHORES */
 101:Core/Src/app_freertos.c **** 
 102:Core/Src/app_freertos.c ****   /* USER CODE BEGIN RTOS_TIMERS */
 103:Core/Src/app_freertos.c ****   /* start timers, add new ones, ... */
 104:Core/Src/app_freertos.c ****   /* USER CODE END RTOS_TIMERS */
 105:Core/Src/app_freertos.c **** 
 106:Core/Src/app_freertos.c ****   /* USER CODE BEGIN RTOS_QUEUES */
 107:Core/Src/app_freertos.c ****   /* add queues, ... */
 108:Core/Src/app_freertos.c ****   /* USER CODE END RTOS_QUEUES */
 109:Core/Src/app_freertos.c **** 
 110:Core/Src/app_freertos.c ****   /* Create the thread(s) */
 111:Core/Src/app_freertos.c ****   /* creation of defaultTask */
 112:Core/Src/app_freertos.c ****   defaultTaskHandle = osThreadNew(StartDefaultTask, NULL, &defaultTask_attributes);
 113:Core/Src/app_freertos.c **** 
 114:Core/Src/app_freertos.c ****   /* creation of Get_Angle */
 115:Core/Src/app_freertos.c ****   Get_AngleHandle = osThreadNew(Get_Angle_Task, NULL, &Get_Angle_attributes);
 116:Core/Src/app_freertos.c **** 
 117:Core/Src/app_freertos.c ****   /* creation of Oled_Display */
 118:Core/Src/app_freertos.c ****   Oled_DisplayHandle = osThreadNew(Oled_Display_Task, NULL, &Oled_Display_attributes);
 119:Core/Src/app_freertos.c **** 
 120:Core/Src/app_freertos.c ****   /* USER CODE BEGIN RTOS_THREADS */
 121:Core/Src/app_freertos.c ****   /* add threads, ... */
 122:Core/Src/app_freertos.c ****   /* USER CODE END RTOS_THREADS */
 123:Core/Src/app_freertos.c **** 
 124:Core/Src/app_freertos.c ****   /* USER CODE BEGIN RTOS_EVENTS */
 125:Core/Src/app_freertos.c ****   /* add events, ... */
 126:Core/Src/app_freertos.c ****   /* USER CODE END RTOS_EVENTS */
 127:Core/Src/app_freertos.c **** 
 128:Core/Src/app_freertos.c **** }
 129:Core/Src/app_freertos.c **** 
 130:Core/Src/app_freertos.c **** /* USER CODE BEGIN Header_StartDefaultTask */
 131:Core/Src/app_freertos.c **** /**
 132:Core/Src/app_freertos.c ****   * @brief  Function implementing the defaultTask thread.
 133:Core/Src/app_freertos.c ****   * @param  argument: Not used
 134:Core/Src/app_freertos.c ****   * @retval None
 135:Core/Src/app_freertos.c ****   */
 136:Core/Src/app_freertos.c **** /* USER CODE END Header_StartDefaultTask */
 137:Core/Src/app_freertos.c **** void StartDefaultTask(void *argument)
 138:Core/Src/app_freertos.c **** {
  29              		.loc 1 138 1 view -0
  30              		.cfi_startproc
  31              		@ Volatile: function does not return.
  32              		@ args = 0, pretend = 0, frame = 0
  33              		@ frame_needed = 0, uses_anonymous_args = 0
  34              	.LVL0:
ARM GAS  /var/folders/21/t9g5rlb91ys800n5npymflf80000gn/T//ccUTeGtT.s 			page 4


  35              		.loc 1 138 1 is_stmt 0 view .LVU1
  36 0000 08B5     		push	{r3, lr}
  37              	.LCFI0:
  38              		.cfi_def_cfa_offset 8
  39              		.cfi_offset 3, -8
  40              		.cfi_offset 14, -4
  41              	.LVL1:
  42              	.L2:
 139:Core/Src/app_freertos.c ****   /* USER CODE BEGIN StartDefaultTask */
 140:Core/Src/app_freertos.c ****   /* Infinite loop */
 141:Core/Src/app_freertos.c ****   for(;;)
  43              		.loc 1 141 3 is_stmt 1 discriminator 1 view .LVU2
 142:Core/Src/app_freertos.c ****   {
 143:Core/Src/app_freertos.c ****     HAL_GPIO_TogglePin(LED_GPIO_Port, LED_Pin);
  44              		.loc 1 143 5 discriminator 1 view .LVU3
  45 0002 2021     		movs	r1, #32
  46 0004 4FF09040 		mov	r0, #1207959552
  47 0008 FFF7FEFF 		bl	HAL_GPIO_TogglePin
  48              	.LVL2:
 144:Core/Src/app_freertos.c ****     osDelay(1000);
  49              		.loc 1 144 5 discriminator 1 view .LVU4
  50 000c 4FF47A70 		mov	r0, #1000
  51 0010 FFF7FEFF 		bl	osDelay
  52              	.LVL3:
 141:Core/Src/app_freertos.c ****   {
  53              		.loc 1 141 3 discriminator 1 view .LVU5
  54 0014 F5E7     		b	.L2
  55              		.cfi_endproc
  56              	.LFE137:
  58              		.section	.text.Get_Angle_Task,"ax",%progbits
  59              		.align	1
  60              		.global	Get_Angle_Task
  61              		.syntax unified
  62              		.thumb
  63              		.thumb_func
  65              	Get_Angle_Task:
  66              	.LFB138:
 145:Core/Src/app_freertos.c ****   }
 146:Core/Src/app_freertos.c ****   /* USER CODE END StartDefaultTask */
 147:Core/Src/app_freertos.c **** }
 148:Core/Src/app_freertos.c **** 
 149:Core/Src/app_freertos.c **** /* USER CODE BEGIN Header_Get_Angle_Task */
 150:Core/Src/app_freertos.c **** /**
 151:Core/Src/app_freertos.c **** * @brief Function implementing the Get_Angle thread.
 152:Core/Src/app_freertos.c **** * @param argument: Not used
 153:Core/Src/app_freertos.c **** * @retval None
 154:Core/Src/app_freertos.c **** */
 155:Core/Src/app_freertos.c **** /* USER CODE END Header_Get_Angle_Task */
 156:Core/Src/app_freertos.c **** void Get_Angle_Task(void *argument)
 157:Core/Src/app_freertos.c **** {
  67              		.loc 1 157 1 view -0
  68              		.cfi_startproc
  69              		@ Volatile: function does not return.
  70              		@ args = 0, pretend = 0, frame = 0
  71              		@ frame_needed = 0, uses_anonymous_args = 0
  72              	.LVL4:
  73              		.loc 1 157 1 is_stmt 0 view .LVU7
ARM GAS  /var/folders/21/t9g5rlb91ys800n5npymflf80000gn/T//ccUTeGtT.s 			page 5


  74 0000 08B5     		push	{r3, lr}
  75              	.LCFI1:
  76              		.cfi_def_cfa_offset 8
  77              		.cfi_offset 3, -8
  78              		.cfi_offset 14, -4
  79              	.LVL5:
  80              	.L5:
 158:Core/Src/app_freertos.c ****   /* USER CODE BEGIN Get_Angle_Task */
 159:Core/Src/app_freertos.c ****   /* Infinite loop */
 160:Core/Src/app_freertos.c ****   for(;;)
  81              		.loc 1 160 3 is_stmt 1 discriminator 1 view .LVU8
 161:Core/Src/app_freertos.c ****   {
 162:Core/Src/app_freertos.c ****     angle = Angle_Get();
  82              		.loc 1 162 5 discriminator 1 view .LVU9
  83              		.loc 1 162 13 is_stmt 0 discriminator 1 view .LVU10
  84 0002 FFF7FEFF 		bl	Angle_Get
  85              	.LVL6:
  86              		.loc 1 162 11 discriminator 1 view .LVU11
  87 0006 034B     		ldr	r3, .L7
  88 0008 83ED000A 		vstr.32	s0, [r3]
 163:Core/Src/app_freertos.c ****     osDelay(50);
  89              		.loc 1 163 5 is_stmt 1 discriminator 1 view .LVU12
  90 000c 3220     		movs	r0, #50
  91 000e FFF7FEFF 		bl	osDelay
  92              	.LVL7:
 160:Core/Src/app_freertos.c ****   {
  93              		.loc 1 160 3 discriminator 1 view .LVU13
  94 0012 F6E7     		b	.L5
  95              	.L8:
  96              		.align	2
  97              	.L7:
  98 0014 00000000 		.word	angle
  99              		.cfi_endproc
 100              	.LFE138:
 102              		.section	.rodata.Oled_Display_Task.str1.4,"aMS",%progbits,1
 103              		.align	2
 104              	.LC0:
 105 0000 616E673A 		.ascii	"ang:%3.1f\000"
 105      25332E31 
 105      6600
 106              		.global	__aeabi_f2d
 107              		.section	.text.Oled_Display_Task,"ax",%progbits
 108              		.align	1
 109              		.global	Oled_Display_Task
 110              		.syntax unified
 111              		.thumb
 112              		.thumb_func
 114              	Oled_Display_Task:
 115              	.LFB139:
 164:Core/Src/app_freertos.c ****   }
 165:Core/Src/app_freertos.c ****   /* USER CODE END Get_Angle_Task */
 166:Core/Src/app_freertos.c **** }
 167:Core/Src/app_freertos.c **** 
 168:Core/Src/app_freertos.c **** /* USER CODE BEGIN Header_Oled_Display_Task */
 169:Core/Src/app_freertos.c **** /**
 170:Core/Src/app_freertos.c **** * @brief Function implementing the Oled_Display thread.
 171:Core/Src/app_freertos.c **** * @param argument: Not used
ARM GAS  /var/folders/21/t9g5rlb91ys800n5npymflf80000gn/T//ccUTeGtT.s 			page 6


 172:Core/Src/app_freertos.c **** * @retval None
 173:Core/Src/app_freertos.c **** */
 174:Core/Src/app_freertos.c **** /* USER CODE END Header_Oled_Display_Task */
 175:Core/Src/app_freertos.c **** void Oled_Display_Task(void *argument)
 176:Core/Src/app_freertos.c **** {
 116              		.loc 1 176 1 view -0
 117              		.cfi_startproc
 118              		@ Volatile: function does not return.
 119              		@ args = 0, pretend = 0, frame = 0
 120              		@ frame_needed = 0, uses_anonymous_args = 0
 121              	.LVL8:
 122              		.loc 1 176 1 is_stmt 0 view .LVU15
 123 0000 00B5     		push	{lr}
 124              	.LCFI2:
 125              		.cfi_def_cfa_offset 4
 126              		.cfi_offset 14, -4
 127 0002 83B0     		sub	sp, sp, #12
 128              	.LCFI3:
 129              		.cfi_def_cfa_offset 16
 130              	.LVL9:
 131              	.L10:
 177:Core/Src/app_freertos.c ****   /* USER CODE BEGIN Oled_Display_Task */
 178:Core/Src/app_freertos.c ****   /* Infinite loop */
 179:Core/Src/app_freertos.c ****   for(;;)
 132              		.loc 1 179 3 is_stmt 1 discriminator 1 view .LVU16
 180:Core/Src/app_freertos.c ****   {
 181:Core/Src/app_freertos.c ****     ssd1306_printf(Font_11x18, "ang:%3.1f", angle);
 133              		.loc 1 181 5 discriminator 1 view .LVU17
 134 0004 094C     		ldr	r4, .L12
 135 0006 0A4B     		ldr	r3, .L12+4
 136 0008 1868     		ldr	r0, [r3]	@ float
 137 000a FFF7FEFF 		bl	__aeabi_f2d
 138              	.LVL10:
 139 000e CDE90001 		strd	r0, [sp]
 140 0012 084A     		ldr	r2, .L12+8
 141 0014 94E80300 		ldm	r4, {r0, r1}
 142 0018 FFF7FEFF 		bl	ssd1306_printf
 143              	.LVL11:
 182:Core/Src/app_freertos.c ****     ssd1306_SetCursor(0, 0);
 144              		.loc 1 182 5 discriminator 1 view .LVU18
 145 001c 0021     		movs	r1, #0
 146 001e 0846     		mov	r0, r1
 147 0020 FFF7FEFF 		bl	ssd1306_SetCursor
 148              	.LVL12:
 183:Core/Src/app_freertos.c ****     osDelay(50);
 149              		.loc 1 183 5 discriminator 1 view .LVU19
 150 0024 3220     		movs	r0, #50
 151 0026 FFF7FEFF 		bl	osDelay
 152              	.LVL13:
 179:Core/Src/app_freertos.c ****   {
 153              		.loc 1 179 3 discriminator 1 view .LVU20
 154 002a EBE7     		b	.L10
 155              	.L13:
 156              		.align	2
 157              	.L12:
 158 002c 00000000 		.word	Font_11x18
 159 0030 00000000 		.word	angle
ARM GAS  /var/folders/21/t9g5rlb91ys800n5npymflf80000gn/T//ccUTeGtT.s 			page 7


 160 0034 00000000 		.word	.LC0
 161              		.cfi_endproc
 162              	.LFE139:
 164              		.section	.text.MX_FREERTOS_Init,"ax",%progbits
 165              		.align	1
 166              		.global	MX_FREERTOS_Init
 167              		.syntax unified
 168              		.thumb
 169              		.thumb_func
 171              	MX_FREERTOS_Init:
 172              	.LFB136:
  89:Core/Src/app_freertos.c ****   /* USER CODE BEGIN Init */
 173              		.loc 1 89 29 view -0
 174              		.cfi_startproc
 175              		@ args = 0, pretend = 0, frame = 0
 176              		@ frame_needed = 0, uses_anonymous_args = 0
 177 0000 08B5     		push	{r3, lr}
 178              	.LCFI4:
 179              		.cfi_def_cfa_offset 8
 180              		.cfi_offset 3, -8
 181              		.cfi_offset 14, -4
 112:Core/Src/app_freertos.c **** 
 182              		.loc 1 112 3 view .LVU22
 112:Core/Src/app_freertos.c **** 
 183              		.loc 1 112 23 is_stmt 0 view .LVU23
 184 0002 0B4A     		ldr	r2, .L16
 185 0004 0021     		movs	r1, #0
 186 0006 0B48     		ldr	r0, .L16+4
 187 0008 FFF7FEFF 		bl	osThreadNew
 188              	.LVL14:
 112:Core/Src/app_freertos.c **** 
 189              		.loc 1 112 21 view .LVU24
 190 000c 0A4B     		ldr	r3, .L16+8
 191 000e 1860     		str	r0, [r3]
 115:Core/Src/app_freertos.c **** 
 192              		.loc 1 115 3 is_stmt 1 view .LVU25
 115:Core/Src/app_freertos.c **** 
 193              		.loc 1 115 21 is_stmt 0 view .LVU26
 194 0010 0A4A     		ldr	r2, .L16+12
 195 0012 0021     		movs	r1, #0
 196 0014 0A48     		ldr	r0, .L16+16
 197 0016 FFF7FEFF 		bl	osThreadNew
 198              	.LVL15:
 115:Core/Src/app_freertos.c **** 
 199              		.loc 1 115 19 view .LVU27
 200 001a 0A4B     		ldr	r3, .L16+20
 201 001c 1860     		str	r0, [r3]
 118:Core/Src/app_freertos.c **** 
 202              		.loc 1 118 3 is_stmt 1 view .LVU28
 118:Core/Src/app_freertos.c **** 
 203              		.loc 1 118 24 is_stmt 0 view .LVU29
 204 001e 0A4A     		ldr	r2, .L16+24
 205 0020 0021     		movs	r1, #0
 206 0022 0A48     		ldr	r0, .L16+28
 207 0024 FFF7FEFF 		bl	osThreadNew
 208              	.LVL16:
 118:Core/Src/app_freertos.c **** 
ARM GAS  /var/folders/21/t9g5rlb91ys800n5npymflf80000gn/T//ccUTeGtT.s 			page 8


 209              		.loc 1 118 22 view .LVU30
 210 0028 094B     		ldr	r3, .L16+32
 211 002a 1860     		str	r0, [r3]
 128:Core/Src/app_freertos.c **** 
 212              		.loc 1 128 1 view .LVU31
 213 002c 08BD     		pop	{r3, pc}
 214              	.L17:
 215 002e 00BF     		.align	2
 216              	.L16:
 217 0030 00000000 		.word	defaultTask_attributes
 218 0034 00000000 		.word	StartDefaultTask
 219 0038 00000000 		.word	defaultTaskHandle
 220 003c 00000000 		.word	Get_Angle_attributes
 221 0040 00000000 		.word	Get_Angle_Task
 222 0044 00000000 		.word	Get_AngleHandle
 223 0048 00000000 		.word	Oled_Display_attributes
 224 004c 00000000 		.word	Oled_Display_Task
 225 0050 00000000 		.word	Oled_DisplayHandle
 226              		.cfi_endproc
 227              	.LFE136:
 229              		.global	Oled_Display_attributes
 230              		.section	.rodata.str1.4,"aMS",%progbits,1
 231              		.align	2
 232              	.LC1:
 233 0000 4F6C6564 		.ascii	"Oled_Display\000"
 233      5F446973 
 233      706C6179 
 233      00
 234              		.section	.rodata.Oled_Display_attributes,"a"
 235              		.align	2
 238              	Oled_Display_attributes:
 239 0000 00000000 		.word	.LC1
 240 0004 00000000 		.space	16
 240      00000000 
 240      00000000 
 240      00000000 
 241 0014 00040000 		.word	1024
 242 0018 18000000 		.word	24
 243 001c 00000000 		.space	8
 243      00000000 
 244              		.global	Oled_DisplayHandle
 245              		.section	.bss.Oled_DisplayHandle,"aw",%nobits
 246              		.align	2
 249              	Oled_DisplayHandle:
 250 0000 00000000 		.space	4
 251              		.global	Get_Angle_attributes
 252              		.section	.rodata.str1.4
 253 000d 000000   		.align	2
 254              	.LC2:
 255 0010 4765745F 		.ascii	"Get_Angle\000"
 255      416E676C 
 255      6500
 256              		.section	.rodata.Get_Angle_attributes,"a"
 257              		.align	2
 260              	Get_Angle_attributes:
 261 0000 10000000 		.word	.LC2
 262 0004 00000000 		.space	16
ARM GAS  /var/folders/21/t9g5rlb91ys800n5npymflf80000gn/T//ccUTeGtT.s 			page 9


 262      00000000 
 262      00000000 
 262      00000000 
 263 0014 00040000 		.word	1024
 264 0018 18000000 		.word	24
 265 001c 00000000 		.space	8
 265      00000000 
 266              		.global	Get_AngleHandle
 267              		.section	.bss.Get_AngleHandle,"aw",%nobits
 268              		.align	2
 271              	Get_AngleHandle:
 272 0000 00000000 		.space	4
 273              		.global	defaultTask_attributes
 274              		.section	.rodata.str1.4
 275 001a 0000     		.align	2
 276              	.LC3:
 277 001c 64656661 		.ascii	"defaultTask\000"
 277      756C7454 
 277      61736B00 
 278              		.section	.rodata.defaultTask_attributes,"a"
 279              		.align	2
 282              	defaultTask_attributes:
 283 0000 1C000000 		.word	.LC3
 284 0004 00000000 		.space	16
 284      00000000 
 284      00000000 
 284      00000000 
 285 0014 00020000 		.word	512
 286 0018 18000000 		.word	24
 287 001c 00000000 		.space	8
 287      00000000 
 288              		.global	defaultTaskHandle
 289              		.section	.bss.defaultTaskHandle,"aw",%nobits
 290              		.align	2
 293              	defaultTaskHandle:
 294 0000 00000000 		.space	4
 295              		.section	.bss.angle,"aw",%nobits
 296              		.align	2
 299              	angle:
 300 0000 00000000 		.space	4
 301              		.text
 302              	.Letext0:
 303              		.file 2 "/usr/local/include/_types/_uint8_t.h"
 304              		.file 3 "/usr/local/include/_types/_uint16_t.h"
 305              		.file 4 "/usr/local/include/_types/_uint32_t.h"
 306              		.file 5 "Drivers/CMSIS/Device/ST/STM32G4xx/Include/stm32g474xx.h"
 307              		.file 6 "Middlewares/Third_Party/FreeRTOS/Source/CMSIS_RTOS_V2/cmsis_os2.h"
 308              		.file 7 "user/Inc/fonts.h"
 309              		.file 8 "user/Inc/oled.h"
 310              		.file 9 "user/Inc/mpu.h"
 311              		.file 10 "Drivers/STM32G4xx_HAL_Driver/Inc/stm32g4xx_hal_gpio.h"
ARM GAS  /var/folders/21/t9g5rlb91ys800n5npymflf80000gn/T//ccUTeGtT.s 			page 10


DEFINED SYMBOLS
                            *ABS*:00000000 app_freertos.c
/var/folders/21/t9g5rlb91ys800n5npymflf80000gn/T//ccUTeGtT.s:21     .text.StartDefaultTask:00000000 $t
/var/folders/21/t9g5rlb91ys800n5npymflf80000gn/T//ccUTeGtT.s:27     .text.StartDefaultTask:00000000 StartDefaultTask
/var/folders/21/t9g5rlb91ys800n5npymflf80000gn/T//ccUTeGtT.s:59     .text.Get_Angle_Task:00000000 $t
/var/folders/21/t9g5rlb91ys800n5npymflf80000gn/T//ccUTeGtT.s:65     .text.Get_Angle_Task:00000000 Get_Angle_Task
/var/folders/21/t9g5rlb91ys800n5npymflf80000gn/T//ccUTeGtT.s:98     .text.Get_Angle_Task:00000014 $d
/var/folders/21/t9g5rlb91ys800n5npymflf80000gn/T//ccUTeGtT.s:299    .bss.angle:00000000 angle
/var/folders/21/t9g5rlb91ys800n5npymflf80000gn/T//ccUTeGtT.s:103    .rodata.Oled_Display_Task.str1.4:00000000 $d
/var/folders/21/t9g5rlb91ys800n5npymflf80000gn/T//ccUTeGtT.s:108    .text.Oled_Display_Task:00000000 $t
/var/folders/21/t9g5rlb91ys800n5npymflf80000gn/T//ccUTeGtT.s:114    .text.Oled_Display_Task:00000000 Oled_Display_Task
/var/folders/21/t9g5rlb91ys800n5npymflf80000gn/T//ccUTeGtT.s:158    .text.Oled_Display_Task:0000002c $d
/var/folders/21/t9g5rlb91ys800n5npymflf80000gn/T//ccUTeGtT.s:165    .text.MX_FREERTOS_Init:00000000 $t
/var/folders/21/t9g5rlb91ys800n5npymflf80000gn/T//ccUTeGtT.s:171    .text.MX_FREERTOS_Init:00000000 MX_FREERTOS_Init
/var/folders/21/t9g5rlb91ys800n5npymflf80000gn/T//ccUTeGtT.s:217    .text.MX_FREERTOS_Init:00000030 $d
/var/folders/21/t9g5rlb91ys800n5npymflf80000gn/T//ccUTeGtT.s:282    .rodata.defaultTask_attributes:00000000 defaultTask_attributes
/var/folders/21/t9g5rlb91ys800n5npymflf80000gn/T//ccUTeGtT.s:293    .bss.defaultTaskHandle:00000000 defaultTaskHandle
/var/folders/21/t9g5rlb91ys800n5npymflf80000gn/T//ccUTeGtT.s:260    .rodata.Get_Angle_attributes:00000000 Get_Angle_attributes
/var/folders/21/t9g5rlb91ys800n5npymflf80000gn/T//ccUTeGtT.s:271    .bss.Get_AngleHandle:00000000 Get_AngleHandle
/var/folders/21/t9g5rlb91ys800n5npymflf80000gn/T//ccUTeGtT.s:238    .rodata.Oled_Display_attributes:00000000 Oled_Display_attributes
/var/folders/21/t9g5rlb91ys800n5npymflf80000gn/T//ccUTeGtT.s:249    .bss.Oled_DisplayHandle:00000000 Oled_DisplayHandle
/var/folders/21/t9g5rlb91ys800n5npymflf80000gn/T//ccUTeGtT.s:231    .rodata.str1.4:00000000 $d
/var/folders/21/t9g5rlb91ys800n5npymflf80000gn/T//ccUTeGtT.s:235    .rodata.Oled_Display_attributes:00000000 $d
/var/folders/21/t9g5rlb91ys800n5npymflf80000gn/T//ccUTeGtT.s:246    .bss.Oled_DisplayHandle:00000000 $d
/var/folders/21/t9g5rlb91ys800n5npymflf80000gn/T//ccUTeGtT.s:257    .rodata.Get_Angle_attributes:00000000 $d
/var/folders/21/t9g5rlb91ys800n5npymflf80000gn/T//ccUTeGtT.s:268    .bss.Get_AngleHandle:00000000 $d
/var/folders/21/t9g5rlb91ys800n5npymflf80000gn/T//ccUTeGtT.s:279    .rodata.defaultTask_attributes:00000000 $d
/var/folders/21/t9g5rlb91ys800n5npymflf80000gn/T//ccUTeGtT.s:290    .bss.defaultTaskHandle:00000000 $d
/var/folders/21/t9g5rlb91ys800n5npymflf80000gn/T//ccUTeGtT.s:296    .bss.angle:00000000 $d

UNDEFINED SYMBOLS
HAL_GPIO_TogglePin
osDelay
Angle_Get
__aeabi_f2d
ssd1306_printf
ssd1306_SetCursor
Font_11x18
osThreadNew
