ARM GAS  /var/folders/21/t9g5rlb91ys800n5npymflf80000gn/T//ccsHZoWN.s 			page 1


   1              		.cpu cortex-m4
   2              		.arch armv7e-m
   3              		.fpu fpv4-sp-d16
   4              		.eabi_attribute 27, 1
   5              		.eabi_attribute 28, 1
   6              		.eabi_attribute 20, 1
   7              		.eabi_attribute 21, 1
   8              		.eabi_attribute 23, 3
   9              		.eabi_attribute 24, 1
  10              		.eabi_attribute 25, 1
  11              		.eabi_attribute 26, 1
  12              		.eabi_attribute 30, 1
  13              		.eabi_attribute 34, 1
  14              		.eabi_attribute 18, 4
  15              		.file	"inv_mpu_dmp_motion_driver.c"
  16              		.text
  17              	.Ltext0:
  18              		.cfi_sections	.debug_frame
  19              		.file 1 "user/drivers/DMP/driver/eMPL/inv_mpu_dmp_motion_driver.c"
  20              		.section	.text.decode_gesture,"ax",%progbits
  21              		.align	1
  22              		.syntax unified
  23              		.thumb
  24              		.thumb_func
  26              	decode_gesture:
  27              	.LVL0:
  28              	.LFB184:
   1:user/drivers/DMP/driver/eMPL/inv_mpu_dmp_motion_driver.c **** /*
   2:user/drivers/DMP/driver/eMPL/inv_mpu_dmp_motion_driver.c ****  $License:
   3:user/drivers/DMP/driver/eMPL/inv_mpu_dmp_motion_driver.c ****     Copyright (C) 2011-2012 InvenSense Corporation, All Rights Reserved.
   4:user/drivers/DMP/driver/eMPL/inv_mpu_dmp_motion_driver.c ****     See included License.txt for License information.
   5:user/drivers/DMP/driver/eMPL/inv_mpu_dmp_motion_driver.c ****  $
   6:user/drivers/DMP/driver/eMPL/inv_mpu_dmp_motion_driver.c ****  */
   7:user/drivers/DMP/driver/eMPL/inv_mpu_dmp_motion_driver.c **** /**
   8:user/drivers/DMP/driver/eMPL/inv_mpu_dmp_motion_driver.c ****  *  @addtogroup  DRIVERS Sensor Driver Layer
   9:user/drivers/DMP/driver/eMPL/inv_mpu_dmp_motion_driver.c ****  *  @brief       Hardware drivers to communicate with sensors via I2C.
  10:user/drivers/DMP/driver/eMPL/inv_mpu_dmp_motion_driver.c ****  *
  11:user/drivers/DMP/driver/eMPL/inv_mpu_dmp_motion_driver.c ****  *  @{
  12:user/drivers/DMP/driver/eMPL/inv_mpu_dmp_motion_driver.c ****  *      @file       inv_mpu_dmp_motion_driver.c
  13:user/drivers/DMP/driver/eMPL/inv_mpu_dmp_motion_driver.c ****  *      @brief      DMP image and interface functions.
  14:user/drivers/DMP/driver/eMPL/inv_mpu_dmp_motion_driver.c ****  *      @details    All functions are preceded by the dmp_ prefix to
  15:user/drivers/DMP/driver/eMPL/inv_mpu_dmp_motion_driver.c ****  *                  differentiate among MPL and general driver function calls.
  16:user/drivers/DMP/driver/eMPL/inv_mpu_dmp_motion_driver.c ****  */
  17:user/drivers/DMP/driver/eMPL/inv_mpu_dmp_motion_driver.c **** #include "dmpKey.h"
  18:user/drivers/DMP/driver/eMPL/inv_mpu_dmp_motion_driver.c **** #include "dmpmap.h"
  19:user/drivers/DMP/driver/eMPL/inv_mpu_dmp_motion_driver.c **** #include "inv_mpu.h"
  20:user/drivers/DMP/driver/eMPL/inv_mpu_dmp_motion_driver.c **** #include "inv_mpu_dmp_motion_driver.h"
  21:user/drivers/DMP/driver/eMPL/inv_mpu_dmp_motion_driver.c **** #include <math.h>
  22:user/drivers/DMP/driver/eMPL/inv_mpu_dmp_motion_driver.c **** #include <stdint.h>
  23:user/drivers/DMP/driver/eMPL/inv_mpu_dmp_motion_driver.c **** #include <stdio.h>
  24:user/drivers/DMP/driver/eMPL/inv_mpu_dmp_motion_driver.c **** #include <stdlib.h>
  25:user/drivers/DMP/driver/eMPL/inv_mpu_dmp_motion_driver.c **** #include <string.h>
  26:user/drivers/DMP/driver/eMPL/inv_mpu_dmp_motion_driver.c **** 
  27:user/drivers/DMP/driver/eMPL/inv_mpu_dmp_motion_driver.c **** /* The following functions must be defined for this platform:
  28:user/drivers/DMP/driver/eMPL/inv_mpu_dmp_motion_driver.c ****  * i2c_write(unsigned char slave_addr, unsigned char reg_addr,
  29:user/drivers/DMP/driver/eMPL/inv_mpu_dmp_motion_driver.c ****  *      unsigned char length, unsigned char const *data)
  30:user/drivers/DMP/driver/eMPL/inv_mpu_dmp_motion_driver.c ****  * i2c_read(unsigned char slave_addr, unsigned char reg_addr,
ARM GAS  /var/folders/21/t9g5rlb91ys800n5npymflf80000gn/T//ccsHZoWN.s 			page 2


  31:user/drivers/DMP/driver/eMPL/inv_mpu_dmp_motion_driver.c ****  *      unsigned char length, unsigned char *data)
  32:user/drivers/DMP/driver/eMPL/inv_mpu_dmp_motion_driver.c ****  * delay_ms(unsigned long num_ms)
  33:user/drivers/DMP/driver/eMPL/inv_mpu_dmp_motion_driver.c ****  * get_ms(unsigned long *count)
  34:user/drivers/DMP/driver/eMPL/inv_mpu_dmp_motion_driver.c ****  */
  35:user/drivers/DMP/driver/eMPL/inv_mpu_dmp_motion_driver.c **** #if defined EMPL_TARGET_STM32F4
  36:user/drivers/DMP/driver/eMPL/inv_mpu_dmp_motion_driver.c **** // #include "i2c.h"
  37:user/drivers/DMP/driver/eMPL/inv_mpu_dmp_motion_driver.c **** // #include "main.h"
  38:user/drivers/DMP/driver/eMPL/inv_mpu_dmp_motion_driver.c **** // #include "board-st_discovery.h"
  39:user/drivers/DMP/driver/eMPL/inv_mpu_dmp_motion_driver.c **** 
  40:user/drivers/DMP/driver/eMPL/inv_mpu_dmp_motion_driver.c **** // #define i2c_write   Sensors_I2C_WriteRegister
  41:user/drivers/DMP/driver/eMPL/inv_mpu_dmp_motion_driver.c **** // #define i2c_read    Sensors_I2C_ReadRegister
  42:user/drivers/DMP/driver/eMPL/inv_mpu_dmp_motion_driver.c **** // #define get_ms      get_tick_count
  43:user/drivers/DMP/driver/eMPL/inv_mpu_dmp_motion_driver.c **** 
  44:user/drivers/DMP/driver/eMPL/inv_mpu_dmp_motion_driver.c **** #include "mpu9250.h"
  45:user/drivers/DMP/driver/eMPL/inv_mpu_dmp_motion_driver.c **** #define i2c_write MPU_Write_Len
  46:user/drivers/DMP/driver/eMPL/inv_mpu_dmp_motion_driver.c **** #define i2c_read MPU_Read_Len
  47:user/drivers/DMP/driver/eMPL/inv_mpu_dmp_motion_driver.c **** #define get_ms mget_ms
  48:user/drivers/DMP/driver/eMPL/inv_mpu_dmp_motion_driver.c **** 
  49:user/drivers/DMP/driver/eMPL/inv_mpu_dmp_motion_driver.c **** #elif defined MOTION_DRIVER_TARGET_MSP430
  50:user/drivers/DMP/driver/eMPL/inv_mpu_dmp_motion_driver.c **** #include "msp430.h"
  51:user/drivers/DMP/driver/eMPL/inv_mpu_dmp_motion_driver.c **** #include "msp430_clock.h"
  52:user/drivers/DMP/driver/eMPL/inv_mpu_dmp_motion_driver.c **** #define delay_ms msp430_delay_ms
  53:user/drivers/DMP/driver/eMPL/inv_mpu_dmp_motion_driver.c **** #define get_ms msp430_get_clock_ms
  54:user/drivers/DMP/driver/eMPL/inv_mpu_dmp_motion_driver.c **** #define log_i(...)                                                             \
  55:user/drivers/DMP/driver/eMPL/inv_mpu_dmp_motion_driver.c ****   do {                                                                         \
  56:user/drivers/DMP/driver/eMPL/inv_mpu_dmp_motion_driver.c ****   } while (0)
  57:user/drivers/DMP/driver/eMPL/inv_mpu_dmp_motion_driver.c **** #define log_e(...)                                                             \
  58:user/drivers/DMP/driver/eMPL/inv_mpu_dmp_motion_driver.c ****   do {                                                                         \
  59:user/drivers/DMP/driver/eMPL/inv_mpu_dmp_motion_driver.c ****   } while (0)
  60:user/drivers/DMP/driver/eMPL/inv_mpu_dmp_motion_driver.c **** 
  61:user/drivers/DMP/driver/eMPL/inv_mpu_dmp_motion_driver.c **** #elif defined EMPL_TARGET_MSP430
  62:user/drivers/DMP/driver/eMPL/inv_mpu_dmp_motion_driver.c **** #include "log.h"
  63:user/drivers/DMP/driver/eMPL/inv_mpu_dmp_motion_driver.c **** #include "msp430.h"
  64:user/drivers/DMP/driver/eMPL/inv_mpu_dmp_motion_driver.c **** #include "msp430_clock.h"
  65:user/drivers/DMP/driver/eMPL/inv_mpu_dmp_motion_driver.c **** #define delay_ms msp430_delay_ms
  66:user/drivers/DMP/driver/eMPL/inv_mpu_dmp_motion_driver.c **** #define get_ms msp430_get_clock_ms
  67:user/drivers/DMP/driver/eMPL/inv_mpu_dmp_motion_driver.c **** #define log_i MPL_LOGI
  68:user/drivers/DMP/driver/eMPL/inv_mpu_dmp_motion_driver.c **** #define log_e MPL_LOGE
  69:user/drivers/DMP/driver/eMPL/inv_mpu_dmp_motion_driver.c **** 
  70:user/drivers/DMP/driver/eMPL/inv_mpu_dmp_motion_driver.c **** #elif defined EMPL_TARGET_UC3L0
  71:user/drivers/DMP/driver/eMPL/inv_mpu_dmp_motion_driver.c **** /* Instead of using the standard TWI driver from the ASF library, we're using
  72:user/drivers/DMP/driver/eMPL/inv_mpu_dmp_motion_driver.c ****  * a TWI driver that follows the slave address + register address convention.
  73:user/drivers/DMP/driver/eMPL/inv_mpu_dmp_motion_driver.c ****  */
  74:user/drivers/DMP/driver/eMPL/inv_mpu_dmp_motion_driver.c **** #include "delay.h"
  75:user/drivers/DMP/driver/eMPL/inv_mpu_dmp_motion_driver.c **** #include "log.h"
  76:user/drivers/DMP/driver/eMPL/inv_mpu_dmp_motion_driver.c **** #include "sysclk.h"
  77:user/drivers/DMP/driver/eMPL/inv_mpu_dmp_motion_driver.c **** #include "uc3l0_clock.h"
  78:user/drivers/DMP/driver/eMPL/inv_mpu_dmp_motion_driver.c **** /* delay_ms is a function already defined in ASF. */
  79:user/drivers/DMP/driver/eMPL/inv_mpu_dmp_motion_driver.c **** #define get_ms uc3l0_get_clock_ms
  80:user/drivers/DMP/driver/eMPL/inv_mpu_dmp_motion_driver.c **** #define log_i MPL_LOGI
  81:user/drivers/DMP/driver/eMPL/inv_mpu_dmp_motion_driver.c **** #define log_e MPL_LOGE
  82:user/drivers/DMP/driver/eMPL/inv_mpu_dmp_motion_driver.c **** 
  83:user/drivers/DMP/driver/eMPL/inv_mpu_dmp_motion_driver.c **** #else
  84:user/drivers/DMP/driver/eMPL/inv_mpu_dmp_motion_driver.c **** #error Gyro driver is missing the system layer implementations.
  85:user/drivers/DMP/driver/eMPL/inv_mpu_dmp_motion_driver.c **** #endif
  86:user/drivers/DMP/driver/eMPL/inv_mpu_dmp_motion_driver.c **** 
  87:user/drivers/DMP/driver/eMPL/inv_mpu_dmp_motion_driver.c **** /* These defines are copied from dmpDefaultMPU6050.c in the general MPL
ARM GAS  /var/folders/21/t9g5rlb91ys800n5npymflf80000gn/T//ccsHZoWN.s 			page 3


  88:user/drivers/DMP/driver/eMPL/inv_mpu_dmp_motion_driver.c ****  * releases. These defines may change for each DMP image, so be sure to modify
  89:user/drivers/DMP/driver/eMPL/inv_mpu_dmp_motion_driver.c ****  * these values when switching to a new image.
  90:user/drivers/DMP/driver/eMPL/inv_mpu_dmp_motion_driver.c ****  */
  91:user/drivers/DMP/driver/eMPL/inv_mpu_dmp_motion_driver.c **** #define CFG_LP_QUAT (2712)
  92:user/drivers/DMP/driver/eMPL/inv_mpu_dmp_motion_driver.c **** #define END_ORIENT_TEMP (1866)
  93:user/drivers/DMP/driver/eMPL/inv_mpu_dmp_motion_driver.c **** #define CFG_27 (2742)
  94:user/drivers/DMP/driver/eMPL/inv_mpu_dmp_motion_driver.c **** #define CFG_20 (2224)
  95:user/drivers/DMP/driver/eMPL/inv_mpu_dmp_motion_driver.c **** #define CFG_23 (2745)
  96:user/drivers/DMP/driver/eMPL/inv_mpu_dmp_motion_driver.c **** #define CFG_FIFO_ON_EVENT (2690)
  97:user/drivers/DMP/driver/eMPL/inv_mpu_dmp_motion_driver.c **** #define END_PREDICTION_UPDATE (1761)
  98:user/drivers/DMP/driver/eMPL/inv_mpu_dmp_motion_driver.c **** #define CGNOTICE_INTR (2620)
  99:user/drivers/DMP/driver/eMPL/inv_mpu_dmp_motion_driver.c **** #define X_GRT_Y_TMP (1358)
 100:user/drivers/DMP/driver/eMPL/inv_mpu_dmp_motion_driver.c **** #define CFG_DR_INT (1029)
 101:user/drivers/DMP/driver/eMPL/inv_mpu_dmp_motion_driver.c **** #define CFG_AUTH (1035)
 102:user/drivers/DMP/driver/eMPL/inv_mpu_dmp_motion_driver.c **** #define UPDATE_PROP_ROT (1835)
 103:user/drivers/DMP/driver/eMPL/inv_mpu_dmp_motion_driver.c **** #define END_COMPARE_Y_X_TMP2 (1455)
 104:user/drivers/DMP/driver/eMPL/inv_mpu_dmp_motion_driver.c **** #define SKIP_X_GRT_Y_TMP (1359)
 105:user/drivers/DMP/driver/eMPL/inv_mpu_dmp_motion_driver.c **** #define SKIP_END_COMPARE (1435)
 106:user/drivers/DMP/driver/eMPL/inv_mpu_dmp_motion_driver.c **** #define FCFG_3 (1088)
 107:user/drivers/DMP/driver/eMPL/inv_mpu_dmp_motion_driver.c **** #define FCFG_2 (1066)
 108:user/drivers/DMP/driver/eMPL/inv_mpu_dmp_motion_driver.c **** #define FCFG_1 (1062)
 109:user/drivers/DMP/driver/eMPL/inv_mpu_dmp_motion_driver.c **** #define END_COMPARE_Y_X_TMP3 (1434)
 110:user/drivers/DMP/driver/eMPL/inv_mpu_dmp_motion_driver.c **** #define FCFG_7 (1073)
 111:user/drivers/DMP/driver/eMPL/inv_mpu_dmp_motion_driver.c **** #define FCFG_6 (1106)
 112:user/drivers/DMP/driver/eMPL/inv_mpu_dmp_motion_driver.c **** #define FLAT_STATE_END (1713)
 113:user/drivers/DMP/driver/eMPL/inv_mpu_dmp_motion_driver.c **** #define SWING_END_4 (1616)
 114:user/drivers/DMP/driver/eMPL/inv_mpu_dmp_motion_driver.c **** #define SWING_END_2 (1565)
 115:user/drivers/DMP/driver/eMPL/inv_mpu_dmp_motion_driver.c **** #define SWING_END_3 (1587)
 116:user/drivers/DMP/driver/eMPL/inv_mpu_dmp_motion_driver.c **** #define SWING_END_1 (1550)
 117:user/drivers/DMP/driver/eMPL/inv_mpu_dmp_motion_driver.c **** #define CFG_8 (2718)
 118:user/drivers/DMP/driver/eMPL/inv_mpu_dmp_motion_driver.c **** #define CFG_15 (2727)
 119:user/drivers/DMP/driver/eMPL/inv_mpu_dmp_motion_driver.c **** #define CFG_16 (2746)
 120:user/drivers/DMP/driver/eMPL/inv_mpu_dmp_motion_driver.c **** #define CFG_EXT_GYRO_BIAS (1189)
 121:user/drivers/DMP/driver/eMPL/inv_mpu_dmp_motion_driver.c **** #define END_COMPARE_Y_X_TMP (1407)
 122:user/drivers/DMP/driver/eMPL/inv_mpu_dmp_motion_driver.c **** #define DO_NOT_UPDATE_PROP_ROT (1839)
 123:user/drivers/DMP/driver/eMPL/inv_mpu_dmp_motion_driver.c **** #define CFG_7 (1205)
 124:user/drivers/DMP/driver/eMPL/inv_mpu_dmp_motion_driver.c **** #define FLAT_STATE_END_TEMP (1683)
 125:user/drivers/DMP/driver/eMPL/inv_mpu_dmp_motion_driver.c **** #define END_COMPARE_Y_X (1484)
 126:user/drivers/DMP/driver/eMPL/inv_mpu_dmp_motion_driver.c **** #define SKIP_SWING_END_1 (1551)
 127:user/drivers/DMP/driver/eMPL/inv_mpu_dmp_motion_driver.c **** #define SKIP_SWING_END_3 (1588)
 128:user/drivers/DMP/driver/eMPL/inv_mpu_dmp_motion_driver.c **** #define SKIP_SWING_END_2 (1566)
 129:user/drivers/DMP/driver/eMPL/inv_mpu_dmp_motion_driver.c **** #define TILTG75_START (1672)
 130:user/drivers/DMP/driver/eMPL/inv_mpu_dmp_motion_driver.c **** #define CFG_6 (2753)
 131:user/drivers/DMP/driver/eMPL/inv_mpu_dmp_motion_driver.c **** #define TILTL75_END (1669)
 132:user/drivers/DMP/driver/eMPL/inv_mpu_dmp_motion_driver.c **** #define END_ORIENT (1884)
 133:user/drivers/DMP/driver/eMPL/inv_mpu_dmp_motion_driver.c **** #define CFG_FLICK_IN (2573)
 134:user/drivers/DMP/driver/eMPL/inv_mpu_dmp_motion_driver.c **** #define TILTL75_START (1643)
 135:user/drivers/DMP/driver/eMPL/inv_mpu_dmp_motion_driver.c **** #define CFG_MOTION_BIAS (1208)
 136:user/drivers/DMP/driver/eMPL/inv_mpu_dmp_motion_driver.c **** #define X_GRT_Y (1408)
 137:user/drivers/DMP/driver/eMPL/inv_mpu_dmp_motion_driver.c **** #define TEMPLABEL (2324)
 138:user/drivers/DMP/driver/eMPL/inv_mpu_dmp_motion_driver.c **** #define CFG_ANDROID_ORIENT_INT (1853)
 139:user/drivers/DMP/driver/eMPL/inv_mpu_dmp_motion_driver.c **** #define CFG_GYRO_RAW_DATA (2722)
 140:user/drivers/DMP/driver/eMPL/inv_mpu_dmp_motion_driver.c **** #define X_GRT_Y_TMP2 (1379)
 141:user/drivers/DMP/driver/eMPL/inv_mpu_dmp_motion_driver.c **** 
 142:user/drivers/DMP/driver/eMPL/inv_mpu_dmp_motion_driver.c **** #define D_0_22 (22 + 512)
 143:user/drivers/DMP/driver/eMPL/inv_mpu_dmp_motion_driver.c **** #define D_0_24 (24 + 512)
 144:user/drivers/DMP/driver/eMPL/inv_mpu_dmp_motion_driver.c **** 
ARM GAS  /var/folders/21/t9g5rlb91ys800n5npymflf80000gn/T//ccsHZoWN.s 			page 4


 145:user/drivers/DMP/driver/eMPL/inv_mpu_dmp_motion_driver.c **** #define D_0_36 (36)
 146:user/drivers/DMP/driver/eMPL/inv_mpu_dmp_motion_driver.c **** #define D_0_52 (52)
 147:user/drivers/DMP/driver/eMPL/inv_mpu_dmp_motion_driver.c **** #define D_0_96 (96)
 148:user/drivers/DMP/driver/eMPL/inv_mpu_dmp_motion_driver.c **** #define D_0_104 (104)
 149:user/drivers/DMP/driver/eMPL/inv_mpu_dmp_motion_driver.c **** #define D_0_108 (108)
 150:user/drivers/DMP/driver/eMPL/inv_mpu_dmp_motion_driver.c **** #define D_0_163 (163)
 151:user/drivers/DMP/driver/eMPL/inv_mpu_dmp_motion_driver.c **** #define D_0_188 (188)
 152:user/drivers/DMP/driver/eMPL/inv_mpu_dmp_motion_driver.c **** #define D_0_192 (192)
 153:user/drivers/DMP/driver/eMPL/inv_mpu_dmp_motion_driver.c **** #define D_0_224 (224)
 154:user/drivers/DMP/driver/eMPL/inv_mpu_dmp_motion_driver.c **** #define D_0_228 (228)
 155:user/drivers/DMP/driver/eMPL/inv_mpu_dmp_motion_driver.c **** #define D_0_232 (232)
 156:user/drivers/DMP/driver/eMPL/inv_mpu_dmp_motion_driver.c **** #define D_0_236 (236)
 157:user/drivers/DMP/driver/eMPL/inv_mpu_dmp_motion_driver.c **** 
 158:user/drivers/DMP/driver/eMPL/inv_mpu_dmp_motion_driver.c **** #define D_1_2 (256 + 2)
 159:user/drivers/DMP/driver/eMPL/inv_mpu_dmp_motion_driver.c **** #define D_1_4 (256 + 4)
 160:user/drivers/DMP/driver/eMPL/inv_mpu_dmp_motion_driver.c **** #define D_1_8 (256 + 8)
 161:user/drivers/DMP/driver/eMPL/inv_mpu_dmp_motion_driver.c **** #define D_1_10 (256 + 10)
 162:user/drivers/DMP/driver/eMPL/inv_mpu_dmp_motion_driver.c **** #define D_1_24 (256 + 24)
 163:user/drivers/DMP/driver/eMPL/inv_mpu_dmp_motion_driver.c **** #define D_1_28 (256 + 28)
 164:user/drivers/DMP/driver/eMPL/inv_mpu_dmp_motion_driver.c **** #define D_1_36 (256 + 36)
 165:user/drivers/DMP/driver/eMPL/inv_mpu_dmp_motion_driver.c **** #define D_1_40 (256 + 40)
 166:user/drivers/DMP/driver/eMPL/inv_mpu_dmp_motion_driver.c **** #define D_1_44 (256 + 44)
 167:user/drivers/DMP/driver/eMPL/inv_mpu_dmp_motion_driver.c **** #define D_1_72 (256 + 72)
 168:user/drivers/DMP/driver/eMPL/inv_mpu_dmp_motion_driver.c **** #define D_1_74 (256 + 74)
 169:user/drivers/DMP/driver/eMPL/inv_mpu_dmp_motion_driver.c **** #define D_1_79 (256 + 79)
 170:user/drivers/DMP/driver/eMPL/inv_mpu_dmp_motion_driver.c **** #define D_1_88 (256 + 88)
 171:user/drivers/DMP/driver/eMPL/inv_mpu_dmp_motion_driver.c **** #define D_1_90 (256 + 90)
 172:user/drivers/DMP/driver/eMPL/inv_mpu_dmp_motion_driver.c **** #define D_1_92 (256 + 92)
 173:user/drivers/DMP/driver/eMPL/inv_mpu_dmp_motion_driver.c **** #define D_1_96 (256 + 96)
 174:user/drivers/DMP/driver/eMPL/inv_mpu_dmp_motion_driver.c **** #define D_1_98 (256 + 98)
 175:user/drivers/DMP/driver/eMPL/inv_mpu_dmp_motion_driver.c **** #define D_1_106 (256 + 106)
 176:user/drivers/DMP/driver/eMPL/inv_mpu_dmp_motion_driver.c **** #define D_1_108 (256 + 108)
 177:user/drivers/DMP/driver/eMPL/inv_mpu_dmp_motion_driver.c **** #define D_1_112 (256 + 112)
 178:user/drivers/DMP/driver/eMPL/inv_mpu_dmp_motion_driver.c **** #define D_1_128 (256 + 144)
 179:user/drivers/DMP/driver/eMPL/inv_mpu_dmp_motion_driver.c **** #define D_1_152 (256 + 12)
 180:user/drivers/DMP/driver/eMPL/inv_mpu_dmp_motion_driver.c **** #define D_1_160 (256 + 160)
 181:user/drivers/DMP/driver/eMPL/inv_mpu_dmp_motion_driver.c **** #define D_1_176 (256 + 176)
 182:user/drivers/DMP/driver/eMPL/inv_mpu_dmp_motion_driver.c **** #define D_1_178 (256 + 178)
 183:user/drivers/DMP/driver/eMPL/inv_mpu_dmp_motion_driver.c **** #define D_1_218 (256 + 218)
 184:user/drivers/DMP/driver/eMPL/inv_mpu_dmp_motion_driver.c **** #define D_1_232 (256 + 232)
 185:user/drivers/DMP/driver/eMPL/inv_mpu_dmp_motion_driver.c **** #define D_1_236 (256 + 236)
 186:user/drivers/DMP/driver/eMPL/inv_mpu_dmp_motion_driver.c **** #define D_1_240 (256 + 240)
 187:user/drivers/DMP/driver/eMPL/inv_mpu_dmp_motion_driver.c **** #define D_1_244 (256 + 244)
 188:user/drivers/DMP/driver/eMPL/inv_mpu_dmp_motion_driver.c **** #define D_1_250 (256 + 250)
 189:user/drivers/DMP/driver/eMPL/inv_mpu_dmp_motion_driver.c **** #define D_1_252 (256 + 252)
 190:user/drivers/DMP/driver/eMPL/inv_mpu_dmp_motion_driver.c **** #define D_2_12 (512 + 12)
 191:user/drivers/DMP/driver/eMPL/inv_mpu_dmp_motion_driver.c **** #define D_2_96 (512 + 96)
 192:user/drivers/DMP/driver/eMPL/inv_mpu_dmp_motion_driver.c **** #define D_2_108 (512 + 108)
 193:user/drivers/DMP/driver/eMPL/inv_mpu_dmp_motion_driver.c **** #define D_2_208 (512 + 208)
 194:user/drivers/DMP/driver/eMPL/inv_mpu_dmp_motion_driver.c **** #define D_2_224 (512 + 224)
 195:user/drivers/DMP/driver/eMPL/inv_mpu_dmp_motion_driver.c **** #define D_2_236 (512 + 236)
 196:user/drivers/DMP/driver/eMPL/inv_mpu_dmp_motion_driver.c **** #define D_2_244 (512 + 244)
 197:user/drivers/DMP/driver/eMPL/inv_mpu_dmp_motion_driver.c **** #define D_2_248 (512 + 248)
 198:user/drivers/DMP/driver/eMPL/inv_mpu_dmp_motion_driver.c **** #define D_2_252 (512 + 252)
 199:user/drivers/DMP/driver/eMPL/inv_mpu_dmp_motion_driver.c **** 
 200:user/drivers/DMP/driver/eMPL/inv_mpu_dmp_motion_driver.c **** #define CPASS_BIAS_X (35 * 16 + 4)
 201:user/drivers/DMP/driver/eMPL/inv_mpu_dmp_motion_driver.c **** #define CPASS_BIAS_Y (35 * 16 + 8)
ARM GAS  /var/folders/21/t9g5rlb91ys800n5npymflf80000gn/T//ccsHZoWN.s 			page 5


 202:user/drivers/DMP/driver/eMPL/inv_mpu_dmp_motion_driver.c **** #define CPASS_BIAS_Z (35 * 16 + 12)
 203:user/drivers/DMP/driver/eMPL/inv_mpu_dmp_motion_driver.c **** #define CPASS_MTX_00 (36 * 16)
 204:user/drivers/DMP/driver/eMPL/inv_mpu_dmp_motion_driver.c **** #define CPASS_MTX_01 (36 * 16 + 4)
 205:user/drivers/DMP/driver/eMPL/inv_mpu_dmp_motion_driver.c **** #define CPASS_MTX_02 (36 * 16 + 8)
 206:user/drivers/DMP/driver/eMPL/inv_mpu_dmp_motion_driver.c **** #define CPASS_MTX_10 (36 * 16 + 12)
 207:user/drivers/DMP/driver/eMPL/inv_mpu_dmp_motion_driver.c **** #define CPASS_MTX_11 (37 * 16)
 208:user/drivers/DMP/driver/eMPL/inv_mpu_dmp_motion_driver.c **** #define CPASS_MTX_12 (37 * 16 + 4)
 209:user/drivers/DMP/driver/eMPL/inv_mpu_dmp_motion_driver.c **** #define CPASS_MTX_20 (37 * 16 + 8)
 210:user/drivers/DMP/driver/eMPL/inv_mpu_dmp_motion_driver.c **** #define CPASS_MTX_21 (37 * 16 + 12)
 211:user/drivers/DMP/driver/eMPL/inv_mpu_dmp_motion_driver.c **** #define CPASS_MTX_22 (43 * 16 + 12)
 212:user/drivers/DMP/driver/eMPL/inv_mpu_dmp_motion_driver.c **** #define D_EXT_GYRO_BIAS_X (61 * 16)
 213:user/drivers/DMP/driver/eMPL/inv_mpu_dmp_motion_driver.c **** #define D_EXT_GYRO_BIAS_Y (61 * 16) + 4
 214:user/drivers/DMP/driver/eMPL/inv_mpu_dmp_motion_driver.c **** #define D_EXT_GYRO_BIAS_Z (61 * 16) + 8
 215:user/drivers/DMP/driver/eMPL/inv_mpu_dmp_motion_driver.c **** #define D_ACT0 (40 * 16)
 216:user/drivers/DMP/driver/eMPL/inv_mpu_dmp_motion_driver.c **** #define D_ACSX (40 * 16 + 4)
 217:user/drivers/DMP/driver/eMPL/inv_mpu_dmp_motion_driver.c **** #define D_ACSY (40 * 16 + 8)
 218:user/drivers/DMP/driver/eMPL/inv_mpu_dmp_motion_driver.c **** #define D_ACSZ (40 * 16 + 12)
 219:user/drivers/DMP/driver/eMPL/inv_mpu_dmp_motion_driver.c **** 
 220:user/drivers/DMP/driver/eMPL/inv_mpu_dmp_motion_driver.c **** #define FLICK_MSG (45 * 16 + 4)
 221:user/drivers/DMP/driver/eMPL/inv_mpu_dmp_motion_driver.c **** #define FLICK_COUNTER (45 * 16 + 8)
 222:user/drivers/DMP/driver/eMPL/inv_mpu_dmp_motion_driver.c **** #define FLICK_LOWER (45 * 16 + 12)
 223:user/drivers/DMP/driver/eMPL/inv_mpu_dmp_motion_driver.c **** #define FLICK_UPPER (46 * 16 + 12)
 224:user/drivers/DMP/driver/eMPL/inv_mpu_dmp_motion_driver.c **** 
 225:user/drivers/DMP/driver/eMPL/inv_mpu_dmp_motion_driver.c **** #define D_AUTH_OUT (992)
 226:user/drivers/DMP/driver/eMPL/inv_mpu_dmp_motion_driver.c **** #define D_AUTH_IN (996)
 227:user/drivers/DMP/driver/eMPL/inv_mpu_dmp_motion_driver.c **** #define D_AUTH_A (1000)
 228:user/drivers/DMP/driver/eMPL/inv_mpu_dmp_motion_driver.c **** #define D_AUTH_B (1004)
 229:user/drivers/DMP/driver/eMPL/inv_mpu_dmp_motion_driver.c **** 
 230:user/drivers/DMP/driver/eMPL/inv_mpu_dmp_motion_driver.c **** #define D_PEDSTD_BP_B (768 + 0x1C)
 231:user/drivers/DMP/driver/eMPL/inv_mpu_dmp_motion_driver.c **** #define D_PEDSTD_HP_A (768 + 0x78)
 232:user/drivers/DMP/driver/eMPL/inv_mpu_dmp_motion_driver.c **** #define D_PEDSTD_HP_B (768 + 0x7C)
 233:user/drivers/DMP/driver/eMPL/inv_mpu_dmp_motion_driver.c **** #define D_PEDSTD_BP_A4 (768 + 0x40)
 234:user/drivers/DMP/driver/eMPL/inv_mpu_dmp_motion_driver.c **** #define D_PEDSTD_BP_A3 (768 + 0x44)
 235:user/drivers/DMP/driver/eMPL/inv_mpu_dmp_motion_driver.c **** #define D_PEDSTD_BP_A2 (768 + 0x48)
 236:user/drivers/DMP/driver/eMPL/inv_mpu_dmp_motion_driver.c **** #define D_PEDSTD_BP_A1 (768 + 0x4C)
 237:user/drivers/DMP/driver/eMPL/inv_mpu_dmp_motion_driver.c **** #define D_PEDSTD_INT_THRSH (768 + 0x68)
 238:user/drivers/DMP/driver/eMPL/inv_mpu_dmp_motion_driver.c **** #define D_PEDSTD_CLIP (768 + 0x6C)
 239:user/drivers/DMP/driver/eMPL/inv_mpu_dmp_motion_driver.c **** #define D_PEDSTD_SB (768 + 0x28)
 240:user/drivers/DMP/driver/eMPL/inv_mpu_dmp_motion_driver.c **** #define D_PEDSTD_SB_TIME (768 + 0x2C)
 241:user/drivers/DMP/driver/eMPL/inv_mpu_dmp_motion_driver.c **** #define D_PEDSTD_PEAKTHRSH (768 + 0x98)
 242:user/drivers/DMP/driver/eMPL/inv_mpu_dmp_motion_driver.c **** #define D_PEDSTD_TIML (768 + 0x2A)
 243:user/drivers/DMP/driver/eMPL/inv_mpu_dmp_motion_driver.c **** #define D_PEDSTD_TIMH (768 + 0x2E)
 244:user/drivers/DMP/driver/eMPL/inv_mpu_dmp_motion_driver.c **** #define D_PEDSTD_PEAK (768 + 0X94)
 245:user/drivers/DMP/driver/eMPL/inv_mpu_dmp_motion_driver.c **** #define D_PEDSTD_STEPCTR (768 + 0x60)
 246:user/drivers/DMP/driver/eMPL/inv_mpu_dmp_motion_driver.c **** #define D_PEDSTD_TIMECTR (964)
 247:user/drivers/DMP/driver/eMPL/inv_mpu_dmp_motion_driver.c **** #define D_PEDSTD_DECI (768 + 0xA0)
 248:user/drivers/DMP/driver/eMPL/inv_mpu_dmp_motion_driver.c **** 
 249:user/drivers/DMP/driver/eMPL/inv_mpu_dmp_motion_driver.c **** #define D_HOST_NO_MOT (976)
 250:user/drivers/DMP/driver/eMPL/inv_mpu_dmp_motion_driver.c **** #define D_ACCEL_BIAS (660)
 251:user/drivers/DMP/driver/eMPL/inv_mpu_dmp_motion_driver.c **** 
 252:user/drivers/DMP/driver/eMPL/inv_mpu_dmp_motion_driver.c **** #define D_ORIENT_GAP (76)
 253:user/drivers/DMP/driver/eMPL/inv_mpu_dmp_motion_driver.c **** 
 254:user/drivers/DMP/driver/eMPL/inv_mpu_dmp_motion_driver.c **** #define D_TILT0_H (48)
 255:user/drivers/DMP/driver/eMPL/inv_mpu_dmp_motion_driver.c **** #define D_TILT0_L (50)
 256:user/drivers/DMP/driver/eMPL/inv_mpu_dmp_motion_driver.c **** #define D_TILT1_H (52)
 257:user/drivers/DMP/driver/eMPL/inv_mpu_dmp_motion_driver.c **** #define D_TILT1_L (54)
 258:user/drivers/DMP/driver/eMPL/inv_mpu_dmp_motion_driver.c **** #define D_TILT2_H (56)
ARM GAS  /var/folders/21/t9g5rlb91ys800n5npymflf80000gn/T//ccsHZoWN.s 			page 6


 259:user/drivers/DMP/driver/eMPL/inv_mpu_dmp_motion_driver.c **** #define D_TILT2_L (58)
 260:user/drivers/DMP/driver/eMPL/inv_mpu_dmp_motion_driver.c **** #define D_TILT3_H (60)
 261:user/drivers/DMP/driver/eMPL/inv_mpu_dmp_motion_driver.c **** #define D_TILT3_L (62)
 262:user/drivers/DMP/driver/eMPL/inv_mpu_dmp_motion_driver.c **** 
 263:user/drivers/DMP/driver/eMPL/inv_mpu_dmp_motion_driver.c **** #define DMP_CODE_SIZE (3062)
 264:user/drivers/DMP/driver/eMPL/inv_mpu_dmp_motion_driver.c **** 
 265:user/drivers/DMP/driver/eMPL/inv_mpu_dmp_motion_driver.c **** static const unsigned char dmp_memory[DMP_CODE_SIZE] = {
 266:user/drivers/DMP/driver/eMPL/inv_mpu_dmp_motion_driver.c ****     /* bank # 0 */
 267:user/drivers/DMP/driver/eMPL/inv_mpu_dmp_motion_driver.c ****     0x00, 0x00, 0x70, 0x00, 0x00, 0x00, 0x00, 0x24, 0x00, 0x00, 0x00, 0x02,
 268:user/drivers/DMP/driver/eMPL/inv_mpu_dmp_motion_driver.c ****     0x00, 0x03, 0x00, 0x00, 0x00, 0x65, 0x00, 0x54, 0xff, 0xef, 0x00, 0x00,
 269:user/drivers/DMP/driver/eMPL/inv_mpu_dmp_motion_driver.c ****     0xfa, 0x80, 0x00, 0x0b, 0x12, 0x82, 0x00, 0x01, 0x03, 0x0c, 0x30, 0xc3,
 270:user/drivers/DMP/driver/eMPL/inv_mpu_dmp_motion_driver.c ****     0x0e, 0x8c, 0x8c, 0xe9, 0x14, 0xd5, 0x40, 0x02, 0x13, 0x71, 0x0f, 0x8e,
 271:user/drivers/DMP/driver/eMPL/inv_mpu_dmp_motion_driver.c ****     0x38, 0x83, 0xf8, 0x83, 0x30, 0x00, 0xf8, 0x83, 0x25, 0x8e, 0xf8, 0x83,
 272:user/drivers/DMP/driver/eMPL/inv_mpu_dmp_motion_driver.c ****     0x30, 0x00, 0xf8, 0x83, 0xff, 0xff, 0xff, 0xff, 0x0f, 0xfe, 0xa9, 0xd6,
 273:user/drivers/DMP/driver/eMPL/inv_mpu_dmp_motion_driver.c ****     0x24, 0x00, 0x04, 0x00, 0x1a, 0x82, 0x79, 0xa1, 0x00, 0x00, 0x00, 0x3c,
 274:user/drivers/DMP/driver/eMPL/inv_mpu_dmp_motion_driver.c ****     0xff, 0xff, 0x00, 0x00, 0x00, 0x10, 0x00, 0x00, 0x38, 0x83, 0x6f, 0xa2,
 275:user/drivers/DMP/driver/eMPL/inv_mpu_dmp_motion_driver.c ****     0x00, 0x3e, 0x03, 0x30, 0x40, 0x00, 0x00, 0x00, 0x02, 0xca, 0xe3, 0x09,
 276:user/drivers/DMP/driver/eMPL/inv_mpu_dmp_motion_driver.c ****     0x3e, 0x80, 0x00, 0x00, 0x20, 0x00, 0x00, 0x00, 0x00, 0x00, 0x00, 0x00,
 277:user/drivers/DMP/driver/eMPL/inv_mpu_dmp_motion_driver.c ****     0x40, 0x00, 0x00, 0x00, 0x60, 0x00, 0x00, 0x00, 0x00, 0x0c, 0x00, 0x00,
 278:user/drivers/DMP/driver/eMPL/inv_mpu_dmp_motion_driver.c ****     0x00, 0x0c, 0x18, 0x6e, 0x00, 0x00, 0x06, 0x92, 0x0a, 0x16, 0xc0, 0xdf,
 279:user/drivers/DMP/driver/eMPL/inv_mpu_dmp_motion_driver.c ****     0xff, 0xff, 0x02, 0x56, 0xfd, 0x8c, 0xd3, 0x77, 0xff, 0xe1, 0xc4, 0x96,
 280:user/drivers/DMP/driver/eMPL/inv_mpu_dmp_motion_driver.c ****     0xe0, 0xc5, 0xbe, 0xaa, 0x00, 0x00, 0x00, 0x00, 0xff, 0xff, 0x0b, 0x2b,
 281:user/drivers/DMP/driver/eMPL/inv_mpu_dmp_motion_driver.c ****     0x00, 0x00, 0x16, 0x57, 0x00, 0x00, 0x03, 0x59, 0x40, 0x00, 0x00, 0x00,
 282:user/drivers/DMP/driver/eMPL/inv_mpu_dmp_motion_driver.c ****     0x00, 0x00, 0x1d, 0xfa, 0x00, 0x02, 0x6c, 0x1d, 0x00, 0x00, 0x00, 0x00,
 283:user/drivers/DMP/driver/eMPL/inv_mpu_dmp_motion_driver.c ****     0x3f, 0xff, 0xdf, 0xeb, 0x00, 0x3e, 0xb3, 0xb6, 0x00, 0x0d, 0x22, 0x78,
 284:user/drivers/DMP/driver/eMPL/inv_mpu_dmp_motion_driver.c ****     0x00, 0x00, 0x2f, 0x3c, 0x00, 0x00, 0x00, 0x00, 0x00, 0x19, 0x42, 0xb5,
 285:user/drivers/DMP/driver/eMPL/inv_mpu_dmp_motion_driver.c ****     0x00, 0x00, 0x39, 0xa2, 0x00, 0x00, 0xb3, 0x65, 0xd9, 0x0e, 0x9f, 0xc9,
 286:user/drivers/DMP/driver/eMPL/inv_mpu_dmp_motion_driver.c ****     0x1d, 0xcf, 0x4c, 0x34, 0x30, 0x00, 0x00, 0x00, 0x50, 0x00, 0x00, 0x00,
 287:user/drivers/DMP/driver/eMPL/inv_mpu_dmp_motion_driver.c ****     0x3b, 0xb6, 0x7a, 0xe8, 0x00, 0x64, 0x00, 0x00, 0x00, 0xc8, 0x00, 0x00,
 288:user/drivers/DMP/driver/eMPL/inv_mpu_dmp_motion_driver.c ****     0x00, 0x00, 0x00, 0x00,
 289:user/drivers/DMP/driver/eMPL/inv_mpu_dmp_motion_driver.c ****     /* bank # 1 */
 290:user/drivers/DMP/driver/eMPL/inv_mpu_dmp_motion_driver.c ****     0x10, 0x00, 0x00, 0x00, 0x10, 0x00, 0xfa, 0x92, 0x10, 0x00, 0x22, 0x5e,
 291:user/drivers/DMP/driver/eMPL/inv_mpu_dmp_motion_driver.c ****     0x00, 0x0d, 0x22, 0x9f, 0x00, 0x01, 0x00, 0x00, 0x00, 0x32, 0x00, 0x00,
 292:user/drivers/DMP/driver/eMPL/inv_mpu_dmp_motion_driver.c ****     0xff, 0x46, 0x00, 0x00, 0x63, 0xd4, 0x00, 0x00, 0x10, 0x00, 0x00, 0x00,
 293:user/drivers/DMP/driver/eMPL/inv_mpu_dmp_motion_driver.c ****     0x04, 0xd6, 0x00, 0x00, 0x04, 0xcc, 0x00, 0x00, 0x04, 0xcc, 0x00, 0x00,
 294:user/drivers/DMP/driver/eMPL/inv_mpu_dmp_motion_driver.c ****     0x00, 0x00, 0x10, 0x72, 0x00, 0x00, 0x00, 0x40, 0x00, 0x00, 0x00, 0x00,
 295:user/drivers/DMP/driver/eMPL/inv_mpu_dmp_motion_driver.c ****     0x00, 0x00, 0x00, 0x00, 0x00, 0x06, 0x00, 0x02, 0x00, 0x05, 0x00, 0x07,
 296:user/drivers/DMP/driver/eMPL/inv_mpu_dmp_motion_driver.c ****     0x00, 0x00, 0x00, 0x00, 0x00, 0x64, 0x00, 0x00, 0x00, 0x00, 0x00, 0x00,
 297:user/drivers/DMP/driver/eMPL/inv_mpu_dmp_motion_driver.c ****     0x00, 0x00, 0x00, 0x05, 0x00, 0x05, 0x00, 0x64, 0x00, 0x20, 0x00, 0x00,
 298:user/drivers/DMP/driver/eMPL/inv_mpu_dmp_motion_driver.c ****     0x00, 0x00, 0x00, 0x00, 0x00, 0x00, 0x00, 0x00, 0x00, 0x00, 0x40, 0x00,
 299:user/drivers/DMP/driver/eMPL/inv_mpu_dmp_motion_driver.c ****     0x00, 0x00, 0x03, 0x00, 0x00, 0x00, 0x00, 0x32, 0xf8, 0x98, 0x00, 0x00,
 300:user/drivers/DMP/driver/eMPL/inv_mpu_dmp_motion_driver.c ****     0xff, 0x65, 0x00, 0x00, 0x83, 0x0f, 0x00, 0x00, 0xff, 0x9b, 0xfc, 0x00,
 301:user/drivers/DMP/driver/eMPL/inv_mpu_dmp_motion_driver.c ****     0x00, 0x00, 0x00, 0x00, 0x00, 0x00, 0x00, 0x00, 0x00, 0x00, 0x00, 0x00,
 302:user/drivers/DMP/driver/eMPL/inv_mpu_dmp_motion_driver.c ****     0x00, 0x00, 0x00, 0x00, 0x00, 0x00, 0x00, 0x00, 0x00, 0x00, 0x00, 0x00,
 303:user/drivers/DMP/driver/eMPL/inv_mpu_dmp_motion_driver.c ****     0x00, 0x00, 0x00, 0x00, 0x00, 0x00, 0x00, 0x00, 0x00, 0x00, 0x00, 0x00,
 304:user/drivers/DMP/driver/eMPL/inv_mpu_dmp_motion_driver.c ****     0x00, 0x00, 0x00, 0x00, 0x00, 0x00, 0x10, 0x00, 0x40, 0x00, 0x00, 0x00,
 305:user/drivers/DMP/driver/eMPL/inv_mpu_dmp_motion_driver.c ****     0x00, 0x00, 0x00, 0x06, 0x00, 0x00, 0xb2, 0x6a, 0x00, 0x02, 0x00, 0x00,
 306:user/drivers/DMP/driver/eMPL/inv_mpu_dmp_motion_driver.c ****     0x00, 0x01, 0xfb, 0x83, 0x00, 0x68, 0x00, 0x00, 0x00, 0xd9, 0xfc, 0x00,
 307:user/drivers/DMP/driver/eMPL/inv_mpu_dmp_motion_driver.c ****     0x7c, 0xf1, 0xff, 0x83, 0x00, 0x00, 0x00, 0x00, 0x00, 0x65, 0x00, 0x00,
 308:user/drivers/DMP/driver/eMPL/inv_mpu_dmp_motion_driver.c ****     0x00, 0x64, 0x03, 0xe8, 0x00, 0x64, 0x00, 0x28, 0x00, 0x00, 0x00, 0x25,
 309:user/drivers/DMP/driver/eMPL/inv_mpu_dmp_motion_driver.c ****     0x00, 0x00, 0x00, 0x00, 0x16, 0xa0, 0x00, 0x00, 0x00, 0x00, 0x10, 0x00,
 310:user/drivers/DMP/driver/eMPL/inv_mpu_dmp_motion_driver.c ****     0x00, 0x00, 0x10, 0x00, 0x00, 0x2f, 0x00, 0x00, 0x00, 0x00, 0x01, 0xf4,
 311:user/drivers/DMP/driver/eMPL/inv_mpu_dmp_motion_driver.c ****     0x00, 0x00, 0x10, 0x00,
 312:user/drivers/DMP/driver/eMPL/inv_mpu_dmp_motion_driver.c ****     /* bank # 2 */
 313:user/drivers/DMP/driver/eMPL/inv_mpu_dmp_motion_driver.c ****     0x00, 0x28, 0x00, 0x00, 0xff, 0xff, 0x45, 0x81, 0xff, 0xff, 0xfa, 0x72,
 314:user/drivers/DMP/driver/eMPL/inv_mpu_dmp_motion_driver.c ****     0x00, 0x00, 0x00, 0x00, 0x00, 0x00, 0x00, 0x00, 0x00, 0x44, 0x00, 0x05,
 315:user/drivers/DMP/driver/eMPL/inv_mpu_dmp_motion_driver.c ****     0x00, 0x05, 0xba, 0xc6, 0x00, 0x47, 0x78, 0xa2, 0x00, 0x00, 0x00, 0x01,
ARM GAS  /var/folders/21/t9g5rlb91ys800n5npymflf80000gn/T//ccsHZoWN.s 			page 7


 316:user/drivers/DMP/driver/eMPL/inv_mpu_dmp_motion_driver.c ****     0x00, 0x00, 0x00, 0x00, 0x00, 0x00, 0x06, 0x00, 0x00, 0x00, 0x00, 0x14,
 317:user/drivers/DMP/driver/eMPL/inv_mpu_dmp_motion_driver.c ****     0x00, 0x00, 0x25, 0x4d, 0x00, 0x2f, 0x70, 0x6d, 0x00, 0x00, 0x05, 0xae,
 318:user/drivers/DMP/driver/eMPL/inv_mpu_dmp_motion_driver.c ****     0x00, 0x0c, 0x02, 0xd0, 0x00, 0x00, 0x00, 0x00, 0x00, 0x00, 0x00, 0x00,
 319:user/drivers/DMP/driver/eMPL/inv_mpu_dmp_motion_driver.c ****     0x00, 0x00, 0x00, 0x00, 0x00, 0x00, 0x00, 0x00, 0x00, 0x1b, 0x00, 0x00,
 320:user/drivers/DMP/driver/eMPL/inv_mpu_dmp_motion_driver.c ****     0x00, 0x00, 0x00, 0x00, 0x00, 0x00, 0x00, 0x00, 0x00, 0x00, 0x00, 0x00,
 321:user/drivers/DMP/driver/eMPL/inv_mpu_dmp_motion_driver.c ****     0x00, 0x64, 0x00, 0x00, 0x00, 0x08, 0x00, 0x00, 0x00, 0x00, 0x00, 0x00,
 322:user/drivers/DMP/driver/eMPL/inv_mpu_dmp_motion_driver.c ****     0x00, 0x00, 0x00, 0x00, 0x00, 0x00, 0x00, 0x00, 0x00, 0x00, 0x00, 0x00,
 323:user/drivers/DMP/driver/eMPL/inv_mpu_dmp_motion_driver.c ****     0x00, 0x00, 0x00, 0x00, 0x00, 0x00, 0x00, 0x00, 0x00, 0x00, 0x00, 0x00,
 324:user/drivers/DMP/driver/eMPL/inv_mpu_dmp_motion_driver.c ****     0x00, 0x00, 0x00, 0x00, 0x00, 0x00, 0x00, 0x00, 0x00, 0x00, 0x00, 0x00,
 325:user/drivers/DMP/driver/eMPL/inv_mpu_dmp_motion_driver.c ****     0x00, 0x00, 0x00, 0x00, 0x00, 0x00, 0x00, 0x00, 0x00, 0x00, 0x00, 0x00,
 326:user/drivers/DMP/driver/eMPL/inv_mpu_dmp_motion_driver.c ****     0x00, 0x00, 0x00, 0x00, 0x00, 0x00, 0x00, 0x00, 0x00, 0x00, 0x00, 0x00,
 327:user/drivers/DMP/driver/eMPL/inv_mpu_dmp_motion_driver.c ****     0x00, 0x00, 0x00, 0x00, 0x00, 0x00, 0x00, 0x00, 0x00, 0x00, 0x00, 0x00,
 328:user/drivers/DMP/driver/eMPL/inv_mpu_dmp_motion_driver.c ****     0x00, 0x00, 0x00, 0x00, 0x00, 0x00, 0x00, 0x00, 0x00, 0x00, 0x00, 0x00,
 329:user/drivers/DMP/driver/eMPL/inv_mpu_dmp_motion_driver.c ****     0x00, 0x1b, 0x00, 0x00, 0x00, 0x00, 0x00, 0x00, 0x00, 0x00, 0x00, 0x00,
 330:user/drivers/DMP/driver/eMPL/inv_mpu_dmp_motion_driver.c ****     0x00, 0x0e, 0x00, 0x0e, 0x00, 0x00, 0x0a, 0xc7, 0x00, 0x04, 0x00, 0x00,
 331:user/drivers/DMP/driver/eMPL/inv_mpu_dmp_motion_driver.c ****     0x00, 0x00, 0x00, 0x32, 0xff, 0xff, 0xff, 0x9c, 0x00, 0x00, 0x0b, 0x2b,
 332:user/drivers/DMP/driver/eMPL/inv_mpu_dmp_motion_driver.c ****     0x00, 0x00, 0x00, 0x02, 0x00, 0x00, 0x00, 0x01, 0x00, 0x00, 0x00, 0x64,
 333:user/drivers/DMP/driver/eMPL/inv_mpu_dmp_motion_driver.c ****     0xff, 0xe5, 0x00, 0x00, 0x00, 0x00, 0x00, 0x00, 0x00, 0x00, 0x00, 0x00,
 334:user/drivers/DMP/driver/eMPL/inv_mpu_dmp_motion_driver.c ****     0x00, 0x00, 0x00, 0x00,
 335:user/drivers/DMP/driver/eMPL/inv_mpu_dmp_motion_driver.c ****     /* bank # 3 */
 336:user/drivers/DMP/driver/eMPL/inv_mpu_dmp_motion_driver.c ****     0x00, 0x00, 0x00, 0x01, 0x00, 0x00, 0x00, 0x00, 0x00, 0x01, 0x00, 0x00,
 337:user/drivers/DMP/driver/eMPL/inv_mpu_dmp_motion_driver.c ****     0x00, 0x00, 0x00, 0x00, 0x00, 0x01, 0x80, 0x00, 0x00, 0x01, 0x80, 0x00,
 338:user/drivers/DMP/driver/eMPL/inv_mpu_dmp_motion_driver.c ****     0x00, 0x01, 0x80, 0x00, 0x00, 0x24, 0x26, 0xd3, 0x00, 0x00, 0x00, 0x00,
 339:user/drivers/DMP/driver/eMPL/inv_mpu_dmp_motion_driver.c ****     0x00, 0x00, 0x00, 0x00, 0x00, 0x06, 0x00, 0x10, 0x00, 0x96, 0x00, 0x3c,
 340:user/drivers/DMP/driver/eMPL/inv_mpu_dmp_motion_driver.c ****     0x00, 0x00, 0x00, 0x00, 0x00, 0x00, 0x00, 0x00, 0x00, 0x00, 0x00, 0x00,
 341:user/drivers/DMP/driver/eMPL/inv_mpu_dmp_motion_driver.c ****     0x00, 0x00, 0x00, 0x00, 0x0c, 0x0a, 0x4e, 0x68, 0xcd, 0xcf, 0x77, 0x09,
 342:user/drivers/DMP/driver/eMPL/inv_mpu_dmp_motion_driver.c ****     0x50, 0x16, 0x67, 0x59, 0xc6, 0x19, 0xce, 0x82, 0x00, 0x00, 0x00, 0x00,
 343:user/drivers/DMP/driver/eMPL/inv_mpu_dmp_motion_driver.c ****     0x00, 0x00, 0x00, 0x00, 0x00, 0x00, 0x00, 0x00, 0x00, 0x00, 0x00, 0x00,
 344:user/drivers/DMP/driver/eMPL/inv_mpu_dmp_motion_driver.c ****     0x00, 0x00, 0x00, 0x00, 0x00, 0x00, 0x00, 0x00, 0x17, 0xd7, 0x84, 0x00,
 345:user/drivers/DMP/driver/eMPL/inv_mpu_dmp_motion_driver.c ****     0x03, 0x00, 0x00, 0x00, 0x00, 0x00, 0x00, 0x00, 0x00, 0x00, 0x00, 0x00,
 346:user/drivers/DMP/driver/eMPL/inv_mpu_dmp_motion_driver.c ****     0xc7, 0x93, 0x8f, 0x9d, 0x1e, 0x1b, 0x1c, 0x19, 0x00, 0x00, 0x00, 0x00,
 347:user/drivers/DMP/driver/eMPL/inv_mpu_dmp_motion_driver.c ****     0x00, 0x00, 0x00, 0x00, 0x00, 0x00, 0x00, 0x00, 0x00, 0x00, 0x00, 0x00,
 348:user/drivers/DMP/driver/eMPL/inv_mpu_dmp_motion_driver.c ****     0x00, 0x00, 0x00, 0x00, 0x00, 0x00, 0x00, 0x00, 0x02, 0x03, 0x18, 0x85,
 349:user/drivers/DMP/driver/eMPL/inv_mpu_dmp_motion_driver.c ****     0x00, 0x00, 0x40, 0x00, 0x00, 0x00, 0x00, 0x03, 0x00, 0x00, 0x00, 0x03,
 350:user/drivers/DMP/driver/eMPL/inv_mpu_dmp_motion_driver.c ****     0x00, 0x00, 0x00, 0x00, 0x00, 0x00, 0x00, 0x00, 0x40, 0x00, 0x00, 0x00,
 351:user/drivers/DMP/driver/eMPL/inv_mpu_dmp_motion_driver.c ****     0x00, 0x00, 0x00, 0x00, 0x00, 0x00, 0x00, 0x00, 0x00, 0x00, 0x00, 0x00,
 352:user/drivers/DMP/driver/eMPL/inv_mpu_dmp_motion_driver.c ****     0x00, 0x00, 0x00, 0x00, 0x00, 0x00, 0x00, 0x00, 0x00, 0x00, 0x00, 0x00,
 353:user/drivers/DMP/driver/eMPL/inv_mpu_dmp_motion_driver.c ****     0x00, 0x00, 0x00, 0x00, 0x00, 0x00, 0x00, 0x00, 0x00, 0x00, 0x00, 0x00,
 354:user/drivers/DMP/driver/eMPL/inv_mpu_dmp_motion_driver.c ****     0x00, 0x00, 0x00, 0x00, 0x00, 0x00, 0x00, 0x00, 0x00, 0x00, 0x00, 0x00,
 355:user/drivers/DMP/driver/eMPL/inv_mpu_dmp_motion_driver.c ****     0x67, 0x7d, 0xdf, 0x7e, 0x72, 0x90, 0x2e, 0x55, 0x4c, 0xf6, 0xe6, 0x88,
 356:user/drivers/DMP/driver/eMPL/inv_mpu_dmp_motion_driver.c ****     0x00, 0x00, 0x00, 0x00, 0x00, 0x00, 0x00, 0x00, 0x00, 0x00, 0x00, 0x00,
 357:user/drivers/DMP/driver/eMPL/inv_mpu_dmp_motion_driver.c ****     0x00, 0x00, 0x00, 0x00,
 358:user/drivers/DMP/driver/eMPL/inv_mpu_dmp_motion_driver.c **** 
 359:user/drivers/DMP/driver/eMPL/inv_mpu_dmp_motion_driver.c ****     /* bank # 4 */
 360:user/drivers/DMP/driver/eMPL/inv_mpu_dmp_motion_driver.c ****     0xd8, 0xdc, 0xb4, 0xb8, 0xb0, 0xd8, 0xb9, 0xab, 0xf3, 0xf8, 0xfa, 0xb3,
 361:user/drivers/DMP/driver/eMPL/inv_mpu_dmp_motion_driver.c ****     0xb7, 0xbb, 0x8e, 0x9e, 0xae, 0xf1, 0x32, 0xf5, 0x1b, 0xf1, 0xb4, 0xb8,
 362:user/drivers/DMP/driver/eMPL/inv_mpu_dmp_motion_driver.c ****     0xb0, 0x80, 0x97, 0xf1, 0xa9, 0xdf, 0xdf, 0xdf, 0xaa, 0xdf, 0xdf, 0xdf,
 363:user/drivers/DMP/driver/eMPL/inv_mpu_dmp_motion_driver.c ****     0xf2, 0xaa, 0xc5, 0xcd, 0xc7, 0xa9, 0x0c, 0xc9, 0x2c, 0x97, 0xf1, 0xa9,
 364:user/drivers/DMP/driver/eMPL/inv_mpu_dmp_motion_driver.c ****     0x89, 0x26, 0x46, 0x66, 0xb2, 0x89, 0x99, 0xa9, 0x2d, 0x55, 0x7d, 0xb0,
 365:user/drivers/DMP/driver/eMPL/inv_mpu_dmp_motion_driver.c ****     0xb0, 0x8a, 0xa8, 0x96, 0x36, 0x56, 0x76, 0xf1, 0xba, 0xa3, 0xb4, 0xb2,
 366:user/drivers/DMP/driver/eMPL/inv_mpu_dmp_motion_driver.c ****     0x80, 0xc0, 0xb8, 0xa8, 0x97, 0x11, 0xb2, 0x83, 0x98, 0xba, 0xa3, 0xf0,
 367:user/drivers/DMP/driver/eMPL/inv_mpu_dmp_motion_driver.c ****     0x24, 0x08, 0x44, 0x10, 0x64, 0x18, 0xb2, 0xb9, 0xb4, 0x98, 0x83, 0xf1,
 368:user/drivers/DMP/driver/eMPL/inv_mpu_dmp_motion_driver.c ****     0xa3, 0x29, 0x55, 0x7d, 0xba, 0xb5, 0xb1, 0xa3, 0x83, 0x93, 0xf0, 0x00,
 369:user/drivers/DMP/driver/eMPL/inv_mpu_dmp_motion_driver.c ****     0x28, 0x50, 0xf5, 0xb2, 0xb6, 0xaa, 0x83, 0x93, 0x28, 0x54, 0x7c, 0xf1,
 370:user/drivers/DMP/driver/eMPL/inv_mpu_dmp_motion_driver.c ****     0xb9, 0xa3, 0x82, 0x93, 0x61, 0xba, 0xa2, 0xda, 0xde, 0xdf, 0xdb, 0x81,
 371:user/drivers/DMP/driver/eMPL/inv_mpu_dmp_motion_driver.c ****     0x9a, 0xb9, 0xae, 0xf5, 0x60, 0x68, 0x70, 0xf1, 0xda, 0xba, 0xa2, 0xdf,
 372:user/drivers/DMP/driver/eMPL/inv_mpu_dmp_motion_driver.c ****     0xd9, 0xba, 0xa2, 0xfa, 0xb9, 0xa3, 0x82, 0x92, 0xdb, 0x31, 0xba, 0xa2,
ARM GAS  /var/folders/21/t9g5rlb91ys800n5npymflf80000gn/T//ccsHZoWN.s 			page 8


 373:user/drivers/DMP/driver/eMPL/inv_mpu_dmp_motion_driver.c ****     0xd9, 0xba, 0xa2, 0xf8, 0xdf, 0x85, 0xa4, 0xd0, 0xc1, 0xbb, 0xad, 0x83,
 374:user/drivers/DMP/driver/eMPL/inv_mpu_dmp_motion_driver.c ****     0xc2, 0xc5, 0xc7, 0xb8, 0xa2, 0xdf, 0xdf, 0xdf, 0xba, 0xa0, 0xdf, 0xdf,
 375:user/drivers/DMP/driver/eMPL/inv_mpu_dmp_motion_driver.c ****     0xdf, 0xd8, 0xd8, 0xf1, 0xb8, 0xaa, 0xb3, 0x8d, 0xb4, 0x98, 0x0d, 0x35,
 376:user/drivers/DMP/driver/eMPL/inv_mpu_dmp_motion_driver.c ****     0x5d, 0xb2, 0xb6, 0xba, 0xaf, 0x8c, 0x96, 0x19, 0x8f, 0x9f, 0xa7, 0x0e,
 377:user/drivers/DMP/driver/eMPL/inv_mpu_dmp_motion_driver.c ****     0x16, 0x1e, 0xb4, 0x9a, 0xb8, 0xaa, 0x87, 0x2c, 0x54, 0x7c, 0xba, 0xa4,
 378:user/drivers/DMP/driver/eMPL/inv_mpu_dmp_motion_driver.c ****     0xb0, 0x8a, 0xb6, 0x91, 0x32, 0x56, 0x76, 0xb2, 0x84, 0x94, 0xa4, 0xc8,
 379:user/drivers/DMP/driver/eMPL/inv_mpu_dmp_motion_driver.c ****     0x08, 0xcd, 0xd8, 0xb8, 0xb4, 0xb0, 0xf1, 0x99, 0x82, 0xa8, 0x2d, 0x55,
 380:user/drivers/DMP/driver/eMPL/inv_mpu_dmp_motion_driver.c ****     0x7d, 0x98, 0xa8, 0x0e, 0x16, 0x1e, 0xa2, 0x2c, 0x54, 0x7c, 0x92, 0xa4,
 381:user/drivers/DMP/driver/eMPL/inv_mpu_dmp_motion_driver.c ****     0xf0, 0x2c, 0x50, 0x78,
 382:user/drivers/DMP/driver/eMPL/inv_mpu_dmp_motion_driver.c ****     /* bank # 5 */
 383:user/drivers/DMP/driver/eMPL/inv_mpu_dmp_motion_driver.c ****     0xf1, 0x84, 0xa8, 0x98, 0xc4, 0xcd, 0xfc, 0xd8, 0x0d, 0xdb, 0xa8, 0xfc,
 384:user/drivers/DMP/driver/eMPL/inv_mpu_dmp_motion_driver.c ****     0x2d, 0xf3, 0xd9, 0xba, 0xa6, 0xf8, 0xda, 0xba, 0xa6, 0xde, 0xd8, 0xba,
 385:user/drivers/DMP/driver/eMPL/inv_mpu_dmp_motion_driver.c ****     0xb2, 0xb6, 0x86, 0x96, 0xa6, 0xd0, 0xf3, 0xc8, 0x41, 0xda, 0xa6, 0xc8,
 386:user/drivers/DMP/driver/eMPL/inv_mpu_dmp_motion_driver.c ****     0xf8, 0xd8, 0xb0, 0xb4, 0xb8, 0x82, 0xa8, 0x92, 0xf5, 0x2c, 0x54, 0x88,
 387:user/drivers/DMP/driver/eMPL/inv_mpu_dmp_motion_driver.c ****     0x98, 0xf1, 0x35, 0xd9, 0xf4, 0x18, 0xd8, 0xf1, 0xa2, 0xd0, 0xf8, 0xf9,
 388:user/drivers/DMP/driver/eMPL/inv_mpu_dmp_motion_driver.c ****     0xa8, 0x84, 0xd9, 0xc7, 0xdf, 0xf8, 0xf8, 0x83, 0xc5, 0xda, 0xdf, 0x69,
 389:user/drivers/DMP/driver/eMPL/inv_mpu_dmp_motion_driver.c ****     0xdf, 0x83, 0xc1, 0xd8, 0xf4, 0x01, 0x14, 0xf1, 0xa8, 0x82, 0x4e, 0xa8,
 390:user/drivers/DMP/driver/eMPL/inv_mpu_dmp_motion_driver.c ****     0x84, 0xf3, 0x11, 0xd1, 0x82, 0xf5, 0xd9, 0x92, 0x28, 0x97, 0x88, 0xf1,
 391:user/drivers/DMP/driver/eMPL/inv_mpu_dmp_motion_driver.c ****     0x09, 0xf4, 0x1c, 0x1c, 0xd8, 0x84, 0xa8, 0xf3, 0xc0, 0xf9, 0xd1, 0xd9,
 392:user/drivers/DMP/driver/eMPL/inv_mpu_dmp_motion_driver.c ****     0x97, 0x82, 0xf1, 0x29, 0xf4, 0x0d, 0xd8, 0xf3, 0xf9, 0xf9, 0xd1, 0xd9,
 393:user/drivers/DMP/driver/eMPL/inv_mpu_dmp_motion_driver.c ****     0x82, 0xf4, 0xc2, 0x03, 0xd8, 0xde, 0xdf, 0x1a, 0xd8, 0xf1, 0xa2, 0xfa,
 394:user/drivers/DMP/driver/eMPL/inv_mpu_dmp_motion_driver.c ****     0xf9, 0xa8, 0x84, 0x98, 0xd9, 0xc7, 0xdf, 0xf8, 0xf8, 0xf8, 0x83, 0xc7,
 395:user/drivers/DMP/driver/eMPL/inv_mpu_dmp_motion_driver.c ****     0xda, 0xdf, 0x69, 0xdf, 0xf8, 0x83, 0xc3, 0xd8, 0xf4, 0x01, 0x14, 0xf1,
 396:user/drivers/DMP/driver/eMPL/inv_mpu_dmp_motion_driver.c ****     0x98, 0xa8, 0x82, 0x2e, 0xa8, 0x84, 0xf3, 0x11, 0xd1, 0x82, 0xf5, 0xd9,
 397:user/drivers/DMP/driver/eMPL/inv_mpu_dmp_motion_driver.c ****     0x92, 0x50, 0x97, 0x88, 0xf1, 0x09, 0xf4, 0x1c, 0xd8, 0x84, 0xa8, 0xf3,
 398:user/drivers/DMP/driver/eMPL/inv_mpu_dmp_motion_driver.c ****     0xc0, 0xf8, 0xf9, 0xd1, 0xd9, 0x97, 0x82, 0xf1, 0x49, 0xf4, 0x0d, 0xd8,
 399:user/drivers/DMP/driver/eMPL/inv_mpu_dmp_motion_driver.c ****     0xf3, 0xf9, 0xf9, 0xd1, 0xd9, 0x82, 0xf4, 0xc4, 0x03, 0xd8, 0xde, 0xdf,
 400:user/drivers/DMP/driver/eMPL/inv_mpu_dmp_motion_driver.c ****     0xd8, 0xf1, 0xad, 0x88, 0x98, 0xcc, 0xa8, 0x09, 0xf9, 0xd9, 0x82, 0x92,
 401:user/drivers/DMP/driver/eMPL/inv_mpu_dmp_motion_driver.c ****     0xa8, 0xf5, 0x7c, 0xf1, 0x88, 0x3a, 0xcf, 0x94, 0x4a, 0x6e, 0x98, 0xdb,
 402:user/drivers/DMP/driver/eMPL/inv_mpu_dmp_motion_driver.c ****     0x69, 0x31, 0xda, 0xad, 0xf2, 0xde, 0xf9, 0xd8, 0x87, 0x95, 0xa8, 0xf2,
 403:user/drivers/DMP/driver/eMPL/inv_mpu_dmp_motion_driver.c ****     0x21, 0xd1, 0xda, 0xa5, 0xf9, 0xf4, 0x17, 0xd9, 0xf1, 0xae, 0x8e, 0xd0,
 404:user/drivers/DMP/driver/eMPL/inv_mpu_dmp_motion_driver.c ****     0xc0, 0xc3, 0xae, 0x82,
 405:user/drivers/DMP/driver/eMPL/inv_mpu_dmp_motion_driver.c ****     /* bank # 6 */
 406:user/drivers/DMP/driver/eMPL/inv_mpu_dmp_motion_driver.c ****     0xc6, 0x84, 0xc3, 0xa8, 0x85, 0x95, 0xc8, 0xa5, 0x88, 0xf2, 0xc0, 0xf1,
 407:user/drivers/DMP/driver/eMPL/inv_mpu_dmp_motion_driver.c ****     0xf4, 0x01, 0x0e, 0xf1, 0x8e, 0x9e, 0xa8, 0xc6, 0x3e, 0x56, 0xf5, 0x54,
 408:user/drivers/DMP/driver/eMPL/inv_mpu_dmp_motion_driver.c ****     0xf1, 0x88, 0x72, 0xf4, 0x01, 0x15, 0xf1, 0x98, 0x45, 0x85, 0x6e, 0xf5,
 409:user/drivers/DMP/driver/eMPL/inv_mpu_dmp_motion_driver.c ****     0x8e, 0x9e, 0x04, 0x88, 0xf1, 0x42, 0x98, 0x5a, 0x8e, 0x9e, 0x06, 0x88,
 410:user/drivers/DMP/driver/eMPL/inv_mpu_dmp_motion_driver.c ****     0x69, 0xf4, 0x01, 0x1c, 0xf1, 0x98, 0x1e, 0x11, 0x08, 0xd0, 0xf5, 0x04,
 411:user/drivers/DMP/driver/eMPL/inv_mpu_dmp_motion_driver.c ****     0xf1, 0x1e, 0x97, 0x02, 0x02, 0x98, 0x36, 0x25, 0xdb, 0xf9, 0xd9, 0x85,
 412:user/drivers/DMP/driver/eMPL/inv_mpu_dmp_motion_driver.c ****     0xa5, 0xf3, 0xc1, 0xda, 0x85, 0xa5, 0xf3, 0xdf, 0xd8, 0x85, 0x95, 0xa8,
 413:user/drivers/DMP/driver/eMPL/inv_mpu_dmp_motion_driver.c ****     0xf3, 0x09, 0xda, 0xa5, 0xfa, 0xd8, 0x82, 0x92, 0xa8, 0xf5, 0x78, 0xf1,
 414:user/drivers/DMP/driver/eMPL/inv_mpu_dmp_motion_driver.c ****     0x88, 0x1a, 0x84, 0x9f, 0x26, 0x88, 0x98, 0x21, 0xda, 0xf4, 0x1d, 0xf3,
 415:user/drivers/DMP/driver/eMPL/inv_mpu_dmp_motion_driver.c ****     0xd8, 0x87, 0x9f, 0x39, 0xd1, 0xaf, 0xd9, 0xdf, 0xdf, 0xfb, 0xf9, 0xf4,
 416:user/drivers/DMP/driver/eMPL/inv_mpu_dmp_motion_driver.c ****     0x0c, 0xf3, 0xd8, 0xfa, 0xd0, 0xf8, 0xda, 0xf9, 0xf9, 0xd0, 0xdf, 0xd9,
 417:user/drivers/DMP/driver/eMPL/inv_mpu_dmp_motion_driver.c ****     0xf9, 0xd8, 0xf4, 0x0b, 0xd8, 0xf3, 0x87, 0x9f, 0x39, 0xd1, 0xaf, 0xd9,
 418:user/drivers/DMP/driver/eMPL/inv_mpu_dmp_motion_driver.c ****     0xdf, 0xdf, 0xf4, 0x1d, 0xf3, 0xd8, 0xfa, 0xfc, 0xa8, 0x69, 0xf9, 0xf9,
 419:user/drivers/DMP/driver/eMPL/inv_mpu_dmp_motion_driver.c ****     0xaf, 0xd0, 0xda, 0xde, 0xfa, 0xd9, 0xf8, 0x8f, 0x9f, 0xa8, 0xf1, 0xcc,
 420:user/drivers/DMP/driver/eMPL/inv_mpu_dmp_motion_driver.c ****     0xf3, 0x98, 0xdb, 0x45, 0xd9, 0xaf, 0xdf, 0xd0, 0xf8, 0xd8, 0xf1, 0x8f,
 421:user/drivers/DMP/driver/eMPL/inv_mpu_dmp_motion_driver.c ****     0x9f, 0xa8, 0xca, 0xf3, 0x88, 0x09, 0xda, 0xaf, 0x8f, 0xcb, 0xf8, 0xd8,
 422:user/drivers/DMP/driver/eMPL/inv_mpu_dmp_motion_driver.c ****     0xf2, 0xad, 0x97, 0x8d, 0x0c, 0xd9, 0xa5, 0xdf, 0xf9, 0xba, 0xa6, 0xf3,
 423:user/drivers/DMP/driver/eMPL/inv_mpu_dmp_motion_driver.c ****     0xfa, 0xf4, 0x12, 0xf2, 0xd8, 0x95, 0x0d, 0xd1, 0xd9, 0xba, 0xa6, 0xf3,
 424:user/drivers/DMP/driver/eMPL/inv_mpu_dmp_motion_driver.c ****     0xfa, 0xda, 0xa5, 0xf2, 0xc1, 0xba, 0xa6, 0xf3, 0xdf, 0xd8, 0xf1, 0xba,
 425:user/drivers/DMP/driver/eMPL/inv_mpu_dmp_motion_driver.c ****     0xb2, 0xb6, 0x86, 0x96, 0xa6, 0xd0, 0xca, 0xf3, 0x49, 0xda, 0xa6, 0xcb,
 426:user/drivers/DMP/driver/eMPL/inv_mpu_dmp_motion_driver.c ****     0xf8, 0xd8, 0xb0, 0xb4, 0xb8, 0xd8, 0xad, 0x84, 0xf2, 0xc0, 0xdf, 0xf1,
 427:user/drivers/DMP/driver/eMPL/inv_mpu_dmp_motion_driver.c ****     0x8f, 0xcb, 0xc3, 0xa8,
 428:user/drivers/DMP/driver/eMPL/inv_mpu_dmp_motion_driver.c ****     /* bank # 7 */
 429:user/drivers/DMP/driver/eMPL/inv_mpu_dmp_motion_driver.c ****     0xb2, 0xb6, 0x86, 0x96, 0xc8, 0xc1, 0xcb, 0xc3, 0xf3, 0xb0, 0xb4, 0x88,
ARM GAS  /var/folders/21/t9g5rlb91ys800n5npymflf80000gn/T//ccsHZoWN.s 			page 9


 430:user/drivers/DMP/driver/eMPL/inv_mpu_dmp_motion_driver.c ****     0x98, 0xa8, 0x21, 0xdb, 0x71, 0x8d, 0x9d, 0x71, 0x85, 0x95, 0x21, 0xd9,
 431:user/drivers/DMP/driver/eMPL/inv_mpu_dmp_motion_driver.c ****     0xad, 0xf2, 0xfa, 0xd8, 0x85, 0x97, 0xa8, 0x28, 0xd9, 0xf4, 0x08, 0xd8,
 432:user/drivers/DMP/driver/eMPL/inv_mpu_dmp_motion_driver.c ****     0xf2, 0x8d, 0x29, 0xda, 0xf4, 0x05, 0xd9, 0xf2, 0x85, 0xa4, 0xc2, 0xf2,
 433:user/drivers/DMP/driver/eMPL/inv_mpu_dmp_motion_driver.c ****     0xd8, 0xa8, 0x8d, 0x94, 0x01, 0xd1, 0xd9, 0xf4, 0x11, 0xf2, 0xd8, 0x87,
 434:user/drivers/DMP/driver/eMPL/inv_mpu_dmp_motion_driver.c ****     0x21, 0xd8, 0xf4, 0x0a, 0xd8, 0xf2, 0x84, 0x98, 0xa8, 0xc8, 0x01, 0xd1,
 435:user/drivers/DMP/driver/eMPL/inv_mpu_dmp_motion_driver.c ****     0xd9, 0xf4, 0x11, 0xd8, 0xf3, 0xa4, 0xc8, 0xbb, 0xaf, 0xd0, 0xf2, 0xde,
 436:user/drivers/DMP/driver/eMPL/inv_mpu_dmp_motion_driver.c ****     0xf8, 0xf8, 0xf8, 0xf8, 0xf8, 0xf8, 0xf8, 0xf8, 0xd8, 0xf1, 0xb8, 0xf6,
 437:user/drivers/DMP/driver/eMPL/inv_mpu_dmp_motion_driver.c ****     0xb5, 0xb9, 0xb0, 0x8a, 0x95, 0xa3, 0xde, 0x3c, 0xa3, 0xd9, 0xf8, 0xd8,
 438:user/drivers/DMP/driver/eMPL/inv_mpu_dmp_motion_driver.c ****     0x5c, 0xa3, 0xd9, 0xf8, 0xd8, 0x7c, 0xa3, 0xd9, 0xf8, 0xd8, 0xf8, 0xf9,
 439:user/drivers/DMP/driver/eMPL/inv_mpu_dmp_motion_driver.c ****     0xd1, 0xa5, 0xd9, 0xdf, 0xda, 0xfa, 0xd8, 0xb1, 0x85, 0x30, 0xf7, 0xd9,
 440:user/drivers/DMP/driver/eMPL/inv_mpu_dmp_motion_driver.c ****     0xde, 0xd8, 0xf8, 0x30, 0xad, 0xda, 0xde, 0xd8, 0xf2, 0xb4, 0x8c, 0x99,
 441:user/drivers/DMP/driver/eMPL/inv_mpu_dmp_motion_driver.c ****     0xa3, 0x2d, 0x55, 0x7d, 0xa0, 0x83, 0xdf, 0xdf, 0xdf, 0xb5, 0x91, 0xa0,
 442:user/drivers/DMP/driver/eMPL/inv_mpu_dmp_motion_driver.c ****     0xf6, 0x29, 0xd9, 0xfb, 0xd8, 0xa0, 0xfc, 0x29, 0xd9, 0xfa, 0xd8, 0xa0,
 443:user/drivers/DMP/driver/eMPL/inv_mpu_dmp_motion_driver.c ****     0xd0, 0x51, 0xd9, 0xf8, 0xd8, 0xfc, 0x51, 0xd9, 0xf9, 0xd8, 0x79, 0xd9,
 444:user/drivers/DMP/driver/eMPL/inv_mpu_dmp_motion_driver.c ****     0xfb, 0xd8, 0xa0, 0xd0, 0xfc, 0x79, 0xd9, 0xfa, 0xd8, 0xa1, 0xf9, 0xf9,
 445:user/drivers/DMP/driver/eMPL/inv_mpu_dmp_motion_driver.c ****     0xf9, 0xf9, 0xf9, 0xa0, 0xda, 0xdf, 0xdf, 0xdf, 0xd8, 0xa1, 0xf8, 0xf8,
 446:user/drivers/DMP/driver/eMPL/inv_mpu_dmp_motion_driver.c ****     0xf8, 0xf8, 0xf8, 0xac, 0xde, 0xf8, 0xad, 0xde, 0x83, 0x93, 0xac, 0x2c,
 447:user/drivers/DMP/driver/eMPL/inv_mpu_dmp_motion_driver.c ****     0x54, 0x7c, 0xf1, 0xa8, 0xdf, 0xdf, 0xdf, 0xf6, 0x9d, 0x2c, 0xda, 0xa0,
 448:user/drivers/DMP/driver/eMPL/inv_mpu_dmp_motion_driver.c ****     0xdf, 0xd9, 0xfa, 0xdb, 0x2d, 0xf8, 0xd8, 0xa8, 0x50, 0xda, 0xa0, 0xd0,
 449:user/drivers/DMP/driver/eMPL/inv_mpu_dmp_motion_driver.c ****     0xde, 0xd9, 0xd0, 0xf8, 0xf8, 0xf8, 0xdb, 0x55, 0xf8, 0xd8, 0xa8, 0x78,
 450:user/drivers/DMP/driver/eMPL/inv_mpu_dmp_motion_driver.c ****     0xda, 0xa0, 0xd0, 0xdf,
 451:user/drivers/DMP/driver/eMPL/inv_mpu_dmp_motion_driver.c ****     /* bank # 8 */
 452:user/drivers/DMP/driver/eMPL/inv_mpu_dmp_motion_driver.c ****     0xd9, 0xd0, 0xfa, 0xf8, 0xf8, 0xf8, 0xf8, 0xdb, 0x7d, 0xf8, 0xd8, 0x9c,
 453:user/drivers/DMP/driver/eMPL/inv_mpu_dmp_motion_driver.c ****     0xa8, 0x8c, 0xf5, 0x30, 0xdb, 0x38, 0xd9, 0xd0, 0xde, 0xdf, 0xa0, 0xd0,
 454:user/drivers/DMP/driver/eMPL/inv_mpu_dmp_motion_driver.c ****     0xde, 0xdf, 0xd8, 0xa8, 0x48, 0xdb, 0x58, 0xd9, 0xdf, 0xd0, 0xde, 0xa0,
 455:user/drivers/DMP/driver/eMPL/inv_mpu_dmp_motion_driver.c ****     0xdf, 0xd0, 0xde, 0xd8, 0xa8, 0x68, 0xdb, 0x70, 0xd9, 0xdf, 0xdf, 0xa0,
 456:user/drivers/DMP/driver/eMPL/inv_mpu_dmp_motion_driver.c ****     0xdf, 0xdf, 0xd8, 0xf1, 0xa8, 0x88, 0x90, 0x2c, 0x54, 0x7c, 0x98, 0xa8,
 457:user/drivers/DMP/driver/eMPL/inv_mpu_dmp_motion_driver.c ****     0xd0, 0x5c, 0x38, 0xd1, 0xda, 0xf2, 0xae, 0x8c, 0xdf, 0xf9, 0xd8, 0xb0,
 458:user/drivers/DMP/driver/eMPL/inv_mpu_dmp_motion_driver.c ****     0x87, 0xa8, 0xc1, 0xc1, 0xb1, 0x88, 0xa8, 0xc6, 0xf9, 0xf9, 0xda, 0x36,
 459:user/drivers/DMP/driver/eMPL/inv_mpu_dmp_motion_driver.c ****     0xd8, 0xa8, 0xf9, 0xda, 0x36, 0xd8, 0xa8, 0xf9, 0xda, 0x36, 0xd8, 0xa8,
 460:user/drivers/DMP/driver/eMPL/inv_mpu_dmp_motion_driver.c ****     0xf9, 0xda, 0x36, 0xd8, 0xa8, 0xf9, 0xda, 0x36, 0xd8, 0xf7, 0x8d, 0x9d,
 461:user/drivers/DMP/driver/eMPL/inv_mpu_dmp_motion_driver.c ****     0xad, 0xf8, 0x18, 0xda, 0xf2, 0xae, 0xdf, 0xd8, 0xf7, 0xad, 0xfa, 0x30,
 462:user/drivers/DMP/driver/eMPL/inv_mpu_dmp_motion_driver.c ****     0xd9, 0xa4, 0xde, 0xf9, 0xd8, 0xf2, 0xae, 0xde, 0xfa, 0xf9, 0x83, 0xa7,
 463:user/drivers/DMP/driver/eMPL/inv_mpu_dmp_motion_driver.c ****     0xd9, 0xc3, 0xc5, 0xc7, 0xf1, 0x88, 0x9b, 0xa7, 0x7a, 0xad, 0xf7, 0xde,
 464:user/drivers/DMP/driver/eMPL/inv_mpu_dmp_motion_driver.c ****     0xdf, 0xa4, 0xf8, 0x84, 0x94, 0x08, 0xa7, 0x97, 0xf3, 0x00, 0xae, 0xf2,
 465:user/drivers/DMP/driver/eMPL/inv_mpu_dmp_motion_driver.c ****     0x98, 0x19, 0xa4, 0x88, 0xc6, 0xa3, 0x94, 0x88, 0xf6, 0x32, 0xdf, 0xf2,
 466:user/drivers/DMP/driver/eMPL/inv_mpu_dmp_motion_driver.c ****     0x83, 0x93, 0xdb, 0x09, 0xd9, 0xf2, 0xaa, 0xdf, 0xd8, 0xd8, 0xae, 0xf8,
 467:user/drivers/DMP/driver/eMPL/inv_mpu_dmp_motion_driver.c ****     0xf9, 0xd1, 0xda, 0xf3, 0xa4, 0xde, 0xa7, 0xf1, 0x88, 0x9b, 0x7a, 0xd8,
 468:user/drivers/DMP/driver/eMPL/inv_mpu_dmp_motion_driver.c ****     0xf3, 0x84, 0x94, 0xae, 0x19, 0xf9, 0xda, 0xaa, 0xf1, 0xdf, 0xd8, 0xa8,
 469:user/drivers/DMP/driver/eMPL/inv_mpu_dmp_motion_driver.c ****     0x81, 0xc0, 0xc3, 0xc5, 0xc7, 0xa3, 0x92, 0x83, 0xf6, 0x28, 0xad, 0xde,
 470:user/drivers/DMP/driver/eMPL/inv_mpu_dmp_motion_driver.c ****     0xd9, 0xf8, 0xd8, 0xa3, 0x50, 0xad, 0xd9, 0xf8, 0xd8, 0xa3, 0x78, 0xad,
 471:user/drivers/DMP/driver/eMPL/inv_mpu_dmp_motion_driver.c ****     0xd9, 0xf8, 0xd8, 0xf8, 0xf9, 0xd1, 0xa1, 0xda, 0xde, 0xc3, 0xc5, 0xc7,
 472:user/drivers/DMP/driver/eMPL/inv_mpu_dmp_motion_driver.c ****     0xd8, 0xa1, 0x81, 0x94, 0xf8, 0x18, 0xf2, 0xb0, 0x89, 0xac, 0xc3, 0xc5,
 473:user/drivers/DMP/driver/eMPL/inv_mpu_dmp_motion_driver.c ****     0xc7, 0xf1, 0xd8, 0xb8,
 474:user/drivers/DMP/driver/eMPL/inv_mpu_dmp_motion_driver.c ****     /* bank # 9 */
 475:user/drivers/DMP/driver/eMPL/inv_mpu_dmp_motion_driver.c ****     0xb4, 0xb0, 0x97, 0x86, 0xa8, 0x31, 0x9b, 0x06, 0x99, 0x07, 0xab, 0x97,
 476:user/drivers/DMP/driver/eMPL/inv_mpu_dmp_motion_driver.c ****     0x28, 0x88, 0x9b, 0xf0, 0x0c, 0x20, 0x14, 0x40, 0xb0, 0xb4, 0xb8, 0xf0,
 477:user/drivers/DMP/driver/eMPL/inv_mpu_dmp_motion_driver.c ****     0xa8, 0x8a, 0x9a, 0x28, 0x50, 0x78, 0xb7, 0x9b, 0xa8, 0x29, 0x51, 0x79,
 478:user/drivers/DMP/driver/eMPL/inv_mpu_dmp_motion_driver.c ****     0x24, 0x70, 0x59, 0x44, 0x69, 0x38, 0x64, 0x48, 0x31, 0xf1, 0xbb, 0xab,
 479:user/drivers/DMP/driver/eMPL/inv_mpu_dmp_motion_driver.c ****     0x88, 0x00, 0x2c, 0x54, 0x7c, 0xf0, 0xb3, 0x8b, 0xb8, 0xa8, 0x04, 0x28,
 480:user/drivers/DMP/driver/eMPL/inv_mpu_dmp_motion_driver.c ****     0x50, 0x78, 0xf1, 0xb0, 0x88, 0xb4, 0x97, 0x26, 0xa8, 0x59, 0x98, 0xbb,
 481:user/drivers/DMP/driver/eMPL/inv_mpu_dmp_motion_driver.c ****     0xab, 0xb3, 0x8b, 0x02, 0x26, 0x46, 0x66, 0xb0, 0xb8, 0xf0, 0x8a, 0x9c,
 482:user/drivers/DMP/driver/eMPL/inv_mpu_dmp_motion_driver.c ****     0xa8, 0x29, 0x51, 0x79, 0x8b, 0x29, 0x51, 0x79, 0x8a, 0x24, 0x70, 0x59,
 483:user/drivers/DMP/driver/eMPL/inv_mpu_dmp_motion_driver.c ****     0x8b, 0x20, 0x58, 0x71, 0x8a, 0x44, 0x69, 0x38, 0x8b, 0x39, 0x40, 0x68,
 484:user/drivers/DMP/driver/eMPL/inv_mpu_dmp_motion_driver.c ****     0x8a, 0x64, 0x48, 0x31, 0x8b, 0x30, 0x49, 0x60, 0x88, 0xf1, 0xac, 0x00,
 485:user/drivers/DMP/driver/eMPL/inv_mpu_dmp_motion_driver.c ****     0x2c, 0x54, 0x7c, 0xf0, 0x8c, 0xa8, 0x04, 0x28, 0x50, 0x78, 0xf1, 0x88,
 486:user/drivers/DMP/driver/eMPL/inv_mpu_dmp_motion_driver.c ****     0x97, 0x26, 0xa8, 0x59, 0x98, 0xac, 0x8c, 0x02, 0x26, 0x46, 0x66, 0xf0,
ARM GAS  /var/folders/21/t9g5rlb91ys800n5npymflf80000gn/T//ccsHZoWN.s 			page 10


 487:user/drivers/DMP/driver/eMPL/inv_mpu_dmp_motion_driver.c ****     0x89, 0x9c, 0xa8, 0x29, 0x51, 0x79, 0x24, 0x70, 0x59, 0x44, 0x69, 0x38,
 488:user/drivers/DMP/driver/eMPL/inv_mpu_dmp_motion_driver.c ****     0x64, 0x48, 0x31, 0xa9, 0x88, 0x09, 0x20, 0x59, 0x70, 0xab, 0x11, 0x38,
 489:user/drivers/DMP/driver/eMPL/inv_mpu_dmp_motion_driver.c ****     0x40, 0x69, 0xa8, 0x19, 0x31, 0x48, 0x60, 0x8c, 0xa8, 0x3c, 0x41, 0x5c,
 490:user/drivers/DMP/driver/eMPL/inv_mpu_dmp_motion_driver.c ****     0x20, 0x7c, 0x00, 0xf1, 0x87, 0x98, 0x19, 0x86, 0xa8, 0x6e, 0x76, 0x7e,
 491:user/drivers/DMP/driver/eMPL/inv_mpu_dmp_motion_driver.c ****     0xa9, 0x99, 0x88, 0x2d, 0x55, 0x7d, 0xd8, 0xb1, 0xb5, 0xb9, 0xa3, 0xdf,
 492:user/drivers/DMP/driver/eMPL/inv_mpu_dmp_motion_driver.c ****     0xdf, 0xdf, 0xae, 0xd0, 0xdf, 0xaa, 0xd0, 0xde, 0xf2, 0xab, 0xf8, 0xf9,
 493:user/drivers/DMP/driver/eMPL/inv_mpu_dmp_motion_driver.c ****     0xd9, 0xb0, 0x87, 0xc4, 0xaa, 0xf1, 0xdf, 0xdf, 0xbb, 0xaf, 0xdf, 0xdf,
 494:user/drivers/DMP/driver/eMPL/inv_mpu_dmp_motion_driver.c ****     0xb9, 0xd8, 0xb1, 0xf1, 0xa3, 0x97, 0x8e, 0x60, 0xdf, 0xb0, 0x84, 0xf2,
 495:user/drivers/DMP/driver/eMPL/inv_mpu_dmp_motion_driver.c ****     0xc8, 0xf8, 0xf9, 0xd9, 0xde, 0xd8, 0x93, 0x85, 0xf1, 0x4a, 0xb1, 0x83,
 496:user/drivers/DMP/driver/eMPL/inv_mpu_dmp_motion_driver.c ****     0xa3, 0x08, 0xb5, 0x83,
 497:user/drivers/DMP/driver/eMPL/inv_mpu_dmp_motion_driver.c ****     /* bank # 10 */
 498:user/drivers/DMP/driver/eMPL/inv_mpu_dmp_motion_driver.c ****     0x9a, 0x08, 0x10, 0xb7, 0x9f, 0x10, 0xd8, 0xf1, 0xb0, 0xba, 0xae, 0xb0,
 499:user/drivers/DMP/driver/eMPL/inv_mpu_dmp_motion_driver.c ****     0x8a, 0xc2, 0xb2, 0xb6, 0x8e, 0x9e, 0xf1, 0xfb, 0xd9, 0xf4, 0x1d, 0xd8,
 500:user/drivers/DMP/driver/eMPL/inv_mpu_dmp_motion_driver.c ****     0xf9, 0xd9, 0x0c, 0xf1, 0xd8, 0xf8, 0xf8, 0xad, 0x61, 0xd9, 0xae, 0xfb,
 501:user/drivers/DMP/driver/eMPL/inv_mpu_dmp_motion_driver.c ****     0xd8, 0xf4, 0x0c, 0xf1, 0xd8, 0xf8, 0xf8, 0xad, 0x19, 0xd9, 0xae, 0xfb,
 502:user/drivers/DMP/driver/eMPL/inv_mpu_dmp_motion_driver.c ****     0xdf, 0xd8, 0xf4, 0x16, 0xf1, 0xd8, 0xf8, 0xad, 0x8d, 0x61, 0xd9, 0xf4,
 503:user/drivers/DMP/driver/eMPL/inv_mpu_dmp_motion_driver.c ****     0xf4, 0xac, 0xf5, 0x9c, 0x9c, 0x8d, 0xdf, 0x2b, 0xba, 0xb6, 0xae, 0xfa,
 504:user/drivers/DMP/driver/eMPL/inv_mpu_dmp_motion_driver.c ****     0xf8, 0xf4, 0x0b, 0xd8, 0xf1, 0xae, 0xd0, 0xf8, 0xad, 0x51, 0xda, 0xae,
 505:user/drivers/DMP/driver/eMPL/inv_mpu_dmp_motion_driver.c ****     0xfa, 0xf8, 0xf1, 0xd8, 0xb9, 0xb1, 0xb6, 0xa3, 0x83, 0x9c, 0x08, 0xb9,
 506:user/drivers/DMP/driver/eMPL/inv_mpu_dmp_motion_driver.c ****     0xb1, 0x83, 0x9a, 0xb5, 0xaa, 0xc0, 0xfd, 0x30, 0x83, 0xb7, 0x9f, 0x10,
 507:user/drivers/DMP/driver/eMPL/inv_mpu_dmp_motion_driver.c ****     0xb5, 0x8b, 0x93, 0xf2, 0x02, 0x02, 0xd1, 0xab, 0xda, 0xde, 0xd8, 0xf1,
 508:user/drivers/DMP/driver/eMPL/inv_mpu_dmp_motion_driver.c ****     0xb0, 0x80, 0xba, 0xab, 0xc0, 0xc3, 0xb2, 0x84, 0xc1, 0xc3, 0xd8, 0xb1,
 509:user/drivers/DMP/driver/eMPL/inv_mpu_dmp_motion_driver.c ****     0xb9, 0xf3, 0x8b, 0xa3, 0x91, 0xb6, 0x09, 0xb4, 0xd9, 0xab, 0xde, 0xb0,
 510:user/drivers/DMP/driver/eMPL/inv_mpu_dmp_motion_driver.c ****     0x87, 0x9c, 0xb9, 0xa3, 0xdd, 0xf1, 0xb3, 0x8b, 0x8b, 0x8b, 0x8b, 0x8b,
 511:user/drivers/DMP/driver/eMPL/inv_mpu_dmp_motion_driver.c ****     0xb0, 0x87, 0xa3, 0xa3, 0xa3, 0xa3, 0xb2, 0x8b, 0xb6, 0x9b, 0xf2, 0xa3,
 512:user/drivers/DMP/driver/eMPL/inv_mpu_dmp_motion_driver.c ****     0xa3, 0xa3, 0xa3, 0xa3, 0xa3, 0xa3, 0xa3, 0xa3, 0xa3, 0xf1, 0xb0, 0x87,
 513:user/drivers/DMP/driver/eMPL/inv_mpu_dmp_motion_driver.c ****     0xb5, 0x9a, 0xa3, 0xf3, 0x9b, 0xa3, 0xa3, 0xdc, 0xba, 0xac, 0xdf, 0xb9,
 514:user/drivers/DMP/driver/eMPL/inv_mpu_dmp_motion_driver.c ****     0xa3, 0xa3, 0xa3, 0xa3, 0xa3, 0xa3, 0xa3, 0xa3, 0xa3, 0xa3, 0xa3, 0xa3,
 515:user/drivers/DMP/driver/eMPL/inv_mpu_dmp_motion_driver.c ****     0xa3, 0xa3, 0xa3, 0xa3, 0xd8, 0xd8, 0xd8, 0xbb, 0xb3, 0xb7, 0xf1, 0xaa,
 516:user/drivers/DMP/driver/eMPL/inv_mpu_dmp_motion_driver.c ****     0xf9, 0xda, 0xff, 0xd9, 0x80, 0x9a, 0xaa, 0x28, 0xb4, 0x80, 0x98, 0xa7,
 517:user/drivers/DMP/driver/eMPL/inv_mpu_dmp_motion_driver.c ****     0x20, 0xb7, 0x97, 0x87, 0xa8, 0x66, 0x88, 0xf0, 0x79, 0x51, 0xf1, 0x90,
 518:user/drivers/DMP/driver/eMPL/inv_mpu_dmp_motion_driver.c ****     0x2c, 0x87, 0x0c, 0xa7, 0x81, 0x97, 0x62, 0x93, 0xf0, 0x71, 0x71, 0x60,
 519:user/drivers/DMP/driver/eMPL/inv_mpu_dmp_motion_driver.c ****     0x85, 0x94, 0x01, 0x29,
 520:user/drivers/DMP/driver/eMPL/inv_mpu_dmp_motion_driver.c ****     /* bank # 11 */
 521:user/drivers/DMP/driver/eMPL/inv_mpu_dmp_motion_driver.c ****     0x51, 0x79, 0x90, 0xa5, 0xf1, 0x28, 0x4c, 0x6c, 0x87, 0x0c, 0x95, 0x18,
 522:user/drivers/DMP/driver/eMPL/inv_mpu_dmp_motion_driver.c ****     0x85, 0x78, 0xa3, 0x83, 0x90, 0x28, 0x4c, 0x6c, 0x88, 0x6c, 0xd8, 0xf3,
 523:user/drivers/DMP/driver/eMPL/inv_mpu_dmp_motion_driver.c ****     0xa2, 0x82, 0x00, 0xf2, 0x10, 0xa8, 0x92, 0x19, 0x80, 0xa2, 0xf2, 0xd9,
 524:user/drivers/DMP/driver/eMPL/inv_mpu_dmp_motion_driver.c ****     0x26, 0xd8, 0xf1, 0x88, 0xa8, 0x4d, 0xd9, 0x48, 0xd8, 0x96, 0xa8, 0x39,
 525:user/drivers/DMP/driver/eMPL/inv_mpu_dmp_motion_driver.c ****     0x80, 0xd9, 0x3c, 0xd8, 0x95, 0x80, 0xa8, 0x39, 0xa6, 0x86, 0x98, 0xd9,
 526:user/drivers/DMP/driver/eMPL/inv_mpu_dmp_motion_driver.c ****     0x2c, 0xda, 0x87, 0xa7, 0x2c, 0xd8, 0xa8, 0x89, 0x95, 0x19, 0xa9, 0x80,
 527:user/drivers/DMP/driver/eMPL/inv_mpu_dmp_motion_driver.c ****     0xd9, 0x38, 0xd8, 0xa8, 0x89, 0x39, 0xa9, 0x80, 0xda, 0x3c, 0xd8, 0xa8,
 528:user/drivers/DMP/driver/eMPL/inv_mpu_dmp_motion_driver.c ****     0x2e, 0xa8, 0x39, 0x90, 0xd9, 0x0c, 0xd8, 0xa8, 0x95, 0x31, 0x98, 0xd9,
 529:user/drivers/DMP/driver/eMPL/inv_mpu_dmp_motion_driver.c ****     0x0c, 0xd8, 0xa8, 0x09, 0xd9, 0xff, 0xd8, 0x01, 0xda, 0xff, 0xd8, 0x95,
 530:user/drivers/DMP/driver/eMPL/inv_mpu_dmp_motion_driver.c ****     0x39, 0xa9, 0xda, 0x26, 0xff, 0xd8, 0x90, 0xa8, 0x0d, 0x89, 0x99, 0xa8,
 531:user/drivers/DMP/driver/eMPL/inv_mpu_dmp_motion_driver.c ****     0x10, 0x80, 0x98, 0x21, 0xda, 0x2e, 0xd8, 0x89, 0x99, 0xa8, 0x31, 0x80,
 532:user/drivers/DMP/driver/eMPL/inv_mpu_dmp_motion_driver.c ****     0xda, 0x2e, 0xd8, 0xa8, 0x86, 0x96, 0x31, 0x80, 0xda, 0x2e, 0xd8, 0xa8,
 533:user/drivers/DMP/driver/eMPL/inv_mpu_dmp_motion_driver.c ****     0x87, 0x31, 0x80, 0xda, 0x2e, 0xd8, 0xa8, 0x82, 0x92, 0xf3, 0x41, 0x80,
 534:user/drivers/DMP/driver/eMPL/inv_mpu_dmp_motion_driver.c ****     0xf1, 0xd9, 0x2e, 0xd8, 0xa8, 0x82, 0xf3, 0x19, 0x80, 0xf1, 0xd9, 0x2e,
 535:user/drivers/DMP/driver/eMPL/inv_mpu_dmp_motion_driver.c ****     0xd8, 0x82, 0xac, 0xf3, 0xc0, 0xa2, 0x80, 0x22, 0xf1, 0xa6, 0x2e, 0xa7,
 536:user/drivers/DMP/driver/eMPL/inv_mpu_dmp_motion_driver.c ****     0x2e, 0xa9, 0x22, 0x98, 0xa8, 0x29, 0xda, 0xac, 0xde, 0xff, 0xd8, 0xa2,
 537:user/drivers/DMP/driver/eMPL/inv_mpu_dmp_motion_driver.c ****     0xf2, 0x2a, 0xf1, 0xa9, 0x2e, 0x82, 0x92, 0xa8, 0xf2, 0x31, 0x80, 0xa6,
 538:user/drivers/DMP/driver/eMPL/inv_mpu_dmp_motion_driver.c ****     0x96, 0xf1, 0xd9, 0x00, 0xac, 0x8c, 0x9c, 0x0c, 0x30, 0xac, 0xde, 0xd0,
 539:user/drivers/DMP/driver/eMPL/inv_mpu_dmp_motion_driver.c ****     0xde, 0xff, 0xd8, 0x8c, 0x9c, 0xac, 0xd0, 0x10, 0xac, 0xde, 0x80, 0x92,
 540:user/drivers/DMP/driver/eMPL/inv_mpu_dmp_motion_driver.c ****     0xa2, 0xf2, 0x4c, 0x82, 0xa8, 0xf1, 0xca, 0xf2, 0x35, 0xf1, 0x96, 0x88,
 541:user/drivers/DMP/driver/eMPL/inv_mpu_dmp_motion_driver.c ****     0xa6, 0xd9, 0x00, 0xd8, 0xf1, 0xff};
 542:user/drivers/DMP/driver/eMPL/inv_mpu_dmp_motion_driver.c **** 
 543:user/drivers/DMP/driver/eMPL/inv_mpu_dmp_motion_driver.c **** static const unsigned short sStartAddress = 0x0400;
ARM GAS  /var/folders/21/t9g5rlb91ys800n5npymflf80000gn/T//ccsHZoWN.s 			page 11


 544:user/drivers/DMP/driver/eMPL/inv_mpu_dmp_motion_driver.c **** 
 545:user/drivers/DMP/driver/eMPL/inv_mpu_dmp_motion_driver.c **** /* END OF SECTION COPIED FROM dmpDefaultMPU6050.c */
 546:user/drivers/DMP/driver/eMPL/inv_mpu_dmp_motion_driver.c **** 
 547:user/drivers/DMP/driver/eMPL/inv_mpu_dmp_motion_driver.c **** #define INT_SRC_TAP (0x01)
 548:user/drivers/DMP/driver/eMPL/inv_mpu_dmp_motion_driver.c **** #define INT_SRC_ANDROID_ORIENT (0x08)
 549:user/drivers/DMP/driver/eMPL/inv_mpu_dmp_motion_driver.c **** 
 550:user/drivers/DMP/driver/eMPL/inv_mpu_dmp_motion_driver.c **** #define DMP_FEATURE_SEND_ANY_GYRO                                              \
 551:user/drivers/DMP/driver/eMPL/inv_mpu_dmp_motion_driver.c ****   (DMP_FEATURE_SEND_RAW_GYRO | DMP_FEATURE_SEND_CAL_GYRO)
 552:user/drivers/DMP/driver/eMPL/inv_mpu_dmp_motion_driver.c **** 
 553:user/drivers/DMP/driver/eMPL/inv_mpu_dmp_motion_driver.c **** #define MAX_PACKET_LENGTH (32)
 554:user/drivers/DMP/driver/eMPL/inv_mpu_dmp_motion_driver.c **** 
 555:user/drivers/DMP/driver/eMPL/inv_mpu_dmp_motion_driver.c **** #define DMP_SAMPLE_RATE (200)
 556:user/drivers/DMP/driver/eMPL/inv_mpu_dmp_motion_driver.c **** #define GYRO_SF (46850825LL * 200 / DMP_SAMPLE_RATE)
 557:user/drivers/DMP/driver/eMPL/inv_mpu_dmp_motion_driver.c **** 
 558:user/drivers/DMP/driver/eMPL/inv_mpu_dmp_motion_driver.c **** #define FIFO_CORRUPTION_CHECK
 559:user/drivers/DMP/driver/eMPL/inv_mpu_dmp_motion_driver.c **** #ifdef FIFO_CORRUPTION_CHECK
 560:user/drivers/DMP/driver/eMPL/inv_mpu_dmp_motion_driver.c **** #define QUAT_ERROR_THRESH (1L << 24)
 561:user/drivers/DMP/driver/eMPL/inv_mpu_dmp_motion_driver.c **** #define QUAT_MAG_SQ_NORMALIZED (1L << 28)
 562:user/drivers/DMP/driver/eMPL/inv_mpu_dmp_motion_driver.c **** #define QUAT_MAG_SQ_MIN (QUAT_MAG_SQ_NORMALIZED - QUAT_ERROR_THRESH)
 563:user/drivers/DMP/driver/eMPL/inv_mpu_dmp_motion_driver.c **** #define QUAT_MAG_SQ_MAX (QUAT_MAG_SQ_NORMALIZED + QUAT_ERROR_THRESH)
 564:user/drivers/DMP/driver/eMPL/inv_mpu_dmp_motion_driver.c **** #endif
 565:user/drivers/DMP/driver/eMPL/inv_mpu_dmp_motion_driver.c **** 
 566:user/drivers/DMP/driver/eMPL/inv_mpu_dmp_motion_driver.c **** struct dmp_s {
 567:user/drivers/DMP/driver/eMPL/inv_mpu_dmp_motion_driver.c ****   void (*tap_cb)(unsigned char count, unsigned char direction);
 568:user/drivers/DMP/driver/eMPL/inv_mpu_dmp_motion_driver.c ****   void (*android_orient_cb)(unsigned char orientation);
 569:user/drivers/DMP/driver/eMPL/inv_mpu_dmp_motion_driver.c ****   unsigned short orient;
 570:user/drivers/DMP/driver/eMPL/inv_mpu_dmp_motion_driver.c ****   unsigned short feature_mask;
 571:user/drivers/DMP/driver/eMPL/inv_mpu_dmp_motion_driver.c ****   unsigned short fifo_rate;
 572:user/drivers/DMP/driver/eMPL/inv_mpu_dmp_motion_driver.c ****   unsigned char packet_length;
 573:user/drivers/DMP/driver/eMPL/inv_mpu_dmp_motion_driver.c **** };
 574:user/drivers/DMP/driver/eMPL/inv_mpu_dmp_motion_driver.c **** 
 575:user/drivers/DMP/driver/eMPL/inv_mpu_dmp_motion_driver.c **** static struct dmp_s dmp = {.tap_cb = NULL,
 576:user/drivers/DMP/driver/eMPL/inv_mpu_dmp_motion_driver.c ****                            .android_orient_cb = NULL,
 577:user/drivers/DMP/driver/eMPL/inv_mpu_dmp_motion_driver.c ****                            .orient = 0,
 578:user/drivers/DMP/driver/eMPL/inv_mpu_dmp_motion_driver.c ****                            .feature_mask = 0,
 579:user/drivers/DMP/driver/eMPL/inv_mpu_dmp_motion_driver.c ****                            .fifo_rate = 0,
 580:user/drivers/DMP/driver/eMPL/inv_mpu_dmp_motion_driver.c ****                            .packet_length = 0};
 581:user/drivers/DMP/driver/eMPL/inv_mpu_dmp_motion_driver.c **** 
 582:user/drivers/DMP/driver/eMPL/inv_mpu_dmp_motion_driver.c **** /**
 583:user/drivers/DMP/driver/eMPL/inv_mpu_dmp_motion_driver.c ****  *  @brief  Load the DMP with this image.
 584:user/drivers/DMP/driver/eMPL/inv_mpu_dmp_motion_driver.c ****  *  @return 0 if successful.
 585:user/drivers/DMP/driver/eMPL/inv_mpu_dmp_motion_driver.c ****  */
 586:user/drivers/DMP/driver/eMPL/inv_mpu_dmp_motion_driver.c **** int dmp_load_motion_driver_firmware(void) {
 587:user/drivers/DMP/driver/eMPL/inv_mpu_dmp_motion_driver.c ****   return mpu_load_firmware(DMP_CODE_SIZE, dmp_memory, sStartAddress,
 588:user/drivers/DMP/driver/eMPL/inv_mpu_dmp_motion_driver.c ****                            DMP_SAMPLE_RATE);
 589:user/drivers/DMP/driver/eMPL/inv_mpu_dmp_motion_driver.c **** }
 590:user/drivers/DMP/driver/eMPL/inv_mpu_dmp_motion_driver.c **** 
 591:user/drivers/DMP/driver/eMPL/inv_mpu_dmp_motion_driver.c **** /**
 592:user/drivers/DMP/driver/eMPL/inv_mpu_dmp_motion_driver.c ****  *  @brief      Push gyro and accel orientation to the DMP.
 593:user/drivers/DMP/driver/eMPL/inv_mpu_dmp_motion_driver.c ****  *  The orientation is represented here as the output of
 594:user/drivers/DMP/driver/eMPL/inv_mpu_dmp_motion_driver.c ****  *  @e inv_orientation_matrix_to_scalar.
 595:user/drivers/DMP/driver/eMPL/inv_mpu_dmp_motion_driver.c ****  *  @param[in]  orient  Gyro and accel orientation in body frame.
 596:user/drivers/DMP/driver/eMPL/inv_mpu_dmp_motion_driver.c ****  *  @return     0 if successful.
 597:user/drivers/DMP/driver/eMPL/inv_mpu_dmp_motion_driver.c ****  */
 598:user/drivers/DMP/driver/eMPL/inv_mpu_dmp_motion_driver.c **** int dmp_set_orientation(unsigned short orient) {
 599:user/drivers/DMP/driver/eMPL/inv_mpu_dmp_motion_driver.c ****   unsigned char gyro_regs[3], accel_regs[3];
 600:user/drivers/DMP/driver/eMPL/inv_mpu_dmp_motion_driver.c ****   const unsigned char gyro_axes[3] = {DINA4C, DINACD, DINA6C};
ARM GAS  /var/folders/21/t9g5rlb91ys800n5npymflf80000gn/T//ccsHZoWN.s 			page 12


 601:user/drivers/DMP/driver/eMPL/inv_mpu_dmp_motion_driver.c ****   const unsigned char accel_axes[3] = {DINA0C, DINAC9, DINA2C};
 602:user/drivers/DMP/driver/eMPL/inv_mpu_dmp_motion_driver.c ****   const unsigned char gyro_sign[3] = {DINA36, DINA56, DINA76};
 603:user/drivers/DMP/driver/eMPL/inv_mpu_dmp_motion_driver.c ****   const unsigned char accel_sign[3] = {DINA26, DINA46, DINA66};
 604:user/drivers/DMP/driver/eMPL/inv_mpu_dmp_motion_driver.c **** 
 605:user/drivers/DMP/driver/eMPL/inv_mpu_dmp_motion_driver.c ****   gyro_regs[0] = gyro_axes[orient & 3];
 606:user/drivers/DMP/driver/eMPL/inv_mpu_dmp_motion_driver.c ****   gyro_regs[1] = gyro_axes[(orient >> 3) & 3];
 607:user/drivers/DMP/driver/eMPL/inv_mpu_dmp_motion_driver.c ****   gyro_regs[2] = gyro_axes[(orient >> 6) & 3];
 608:user/drivers/DMP/driver/eMPL/inv_mpu_dmp_motion_driver.c ****   accel_regs[0] = accel_axes[orient & 3];
 609:user/drivers/DMP/driver/eMPL/inv_mpu_dmp_motion_driver.c ****   accel_regs[1] = accel_axes[(orient >> 3) & 3];
 610:user/drivers/DMP/driver/eMPL/inv_mpu_dmp_motion_driver.c ****   accel_regs[2] = accel_axes[(orient >> 6) & 3];
 611:user/drivers/DMP/driver/eMPL/inv_mpu_dmp_motion_driver.c **** 
 612:user/drivers/DMP/driver/eMPL/inv_mpu_dmp_motion_driver.c ****   /* Chip-to-body, axes only. */
 613:user/drivers/DMP/driver/eMPL/inv_mpu_dmp_motion_driver.c ****   if (mpu_write_mem(FCFG_1, 3, gyro_regs))
 614:user/drivers/DMP/driver/eMPL/inv_mpu_dmp_motion_driver.c ****     return -1;
 615:user/drivers/DMP/driver/eMPL/inv_mpu_dmp_motion_driver.c ****   if (mpu_write_mem(FCFG_2, 3, accel_regs))
 616:user/drivers/DMP/driver/eMPL/inv_mpu_dmp_motion_driver.c ****     return -1;
 617:user/drivers/DMP/driver/eMPL/inv_mpu_dmp_motion_driver.c **** 
 618:user/drivers/DMP/driver/eMPL/inv_mpu_dmp_motion_driver.c ****   memcpy(gyro_regs, gyro_sign, 3);
 619:user/drivers/DMP/driver/eMPL/inv_mpu_dmp_motion_driver.c ****   memcpy(accel_regs, accel_sign, 3);
 620:user/drivers/DMP/driver/eMPL/inv_mpu_dmp_motion_driver.c ****   if (orient & 4) {
 621:user/drivers/DMP/driver/eMPL/inv_mpu_dmp_motion_driver.c ****     gyro_regs[0] |= 1;
 622:user/drivers/DMP/driver/eMPL/inv_mpu_dmp_motion_driver.c ****     accel_regs[0] |= 1;
 623:user/drivers/DMP/driver/eMPL/inv_mpu_dmp_motion_driver.c ****   }
 624:user/drivers/DMP/driver/eMPL/inv_mpu_dmp_motion_driver.c ****   if (orient & 0x20) {
 625:user/drivers/DMP/driver/eMPL/inv_mpu_dmp_motion_driver.c ****     gyro_regs[1] |= 1;
 626:user/drivers/DMP/driver/eMPL/inv_mpu_dmp_motion_driver.c ****     accel_regs[1] |= 1;
 627:user/drivers/DMP/driver/eMPL/inv_mpu_dmp_motion_driver.c ****   }
 628:user/drivers/DMP/driver/eMPL/inv_mpu_dmp_motion_driver.c ****   if (orient & 0x100) {
 629:user/drivers/DMP/driver/eMPL/inv_mpu_dmp_motion_driver.c ****     gyro_regs[2] |= 1;
 630:user/drivers/DMP/driver/eMPL/inv_mpu_dmp_motion_driver.c ****     accel_regs[2] |= 1;
 631:user/drivers/DMP/driver/eMPL/inv_mpu_dmp_motion_driver.c ****   }
 632:user/drivers/DMP/driver/eMPL/inv_mpu_dmp_motion_driver.c **** 
 633:user/drivers/DMP/driver/eMPL/inv_mpu_dmp_motion_driver.c ****   /* Chip-to-body, sign only. */
 634:user/drivers/DMP/driver/eMPL/inv_mpu_dmp_motion_driver.c ****   if (mpu_write_mem(FCFG_3, 3, gyro_regs))
 635:user/drivers/DMP/driver/eMPL/inv_mpu_dmp_motion_driver.c ****     return -1;
 636:user/drivers/DMP/driver/eMPL/inv_mpu_dmp_motion_driver.c ****   if (mpu_write_mem(FCFG_7, 3, accel_regs))
 637:user/drivers/DMP/driver/eMPL/inv_mpu_dmp_motion_driver.c ****     return -1;
 638:user/drivers/DMP/driver/eMPL/inv_mpu_dmp_motion_driver.c ****   dmp.orient = orient;
 639:user/drivers/DMP/driver/eMPL/inv_mpu_dmp_motion_driver.c ****   return 0;
 640:user/drivers/DMP/driver/eMPL/inv_mpu_dmp_motion_driver.c **** }
 641:user/drivers/DMP/driver/eMPL/inv_mpu_dmp_motion_driver.c **** 
 642:user/drivers/DMP/driver/eMPL/inv_mpu_dmp_motion_driver.c **** /**
 643:user/drivers/DMP/driver/eMPL/inv_mpu_dmp_motion_driver.c ****  *  @brief      Push gyro biases to the DMP.
 644:user/drivers/DMP/driver/eMPL/inv_mpu_dmp_motion_driver.c ****  *  Because the gyro integration is handled in the DMP, any gyro biases
 645:user/drivers/DMP/driver/eMPL/inv_mpu_dmp_motion_driver.c ****  *  calculated by the MPL should be pushed down to DMP memory to remove
 646:user/drivers/DMP/driver/eMPL/inv_mpu_dmp_motion_driver.c ****  *  3-axis quaternion drift.
 647:user/drivers/DMP/driver/eMPL/inv_mpu_dmp_motion_driver.c ****  *  \n NOTE: If the DMP-based gyro calibration is enabled, the DMP will
 648:user/drivers/DMP/driver/eMPL/inv_mpu_dmp_motion_driver.c ****  *  overwrite the biases written to this location once a new one is computed.
 649:user/drivers/DMP/driver/eMPL/inv_mpu_dmp_motion_driver.c ****  *  @param[in]  bias    Gyro biases in q16.
 650:user/drivers/DMP/driver/eMPL/inv_mpu_dmp_motion_driver.c ****  *  @return     0 if successful.
 651:user/drivers/DMP/driver/eMPL/inv_mpu_dmp_motion_driver.c ****  */
 652:user/drivers/DMP/driver/eMPL/inv_mpu_dmp_motion_driver.c **** int dmp_set_gyro_bias(long *bias) {
 653:user/drivers/DMP/driver/eMPL/inv_mpu_dmp_motion_driver.c ****   long gyro_bias_body[3];
 654:user/drivers/DMP/driver/eMPL/inv_mpu_dmp_motion_driver.c ****   unsigned char regs[4];
 655:user/drivers/DMP/driver/eMPL/inv_mpu_dmp_motion_driver.c **** 
 656:user/drivers/DMP/driver/eMPL/inv_mpu_dmp_motion_driver.c ****   gyro_bias_body[0] = bias[dmp.orient & 3];
 657:user/drivers/DMP/driver/eMPL/inv_mpu_dmp_motion_driver.c ****   if (dmp.orient & 4)
ARM GAS  /var/folders/21/t9g5rlb91ys800n5npymflf80000gn/T//ccsHZoWN.s 			page 13


 658:user/drivers/DMP/driver/eMPL/inv_mpu_dmp_motion_driver.c ****     gyro_bias_body[0] *= -1;
 659:user/drivers/DMP/driver/eMPL/inv_mpu_dmp_motion_driver.c ****   gyro_bias_body[1] = bias[(dmp.orient >> 3) & 3];
 660:user/drivers/DMP/driver/eMPL/inv_mpu_dmp_motion_driver.c ****   if (dmp.orient & 0x20)
 661:user/drivers/DMP/driver/eMPL/inv_mpu_dmp_motion_driver.c ****     gyro_bias_body[1] *= -1;
 662:user/drivers/DMP/driver/eMPL/inv_mpu_dmp_motion_driver.c ****   gyro_bias_body[2] = bias[(dmp.orient >> 6) & 3];
 663:user/drivers/DMP/driver/eMPL/inv_mpu_dmp_motion_driver.c ****   if (dmp.orient & 0x100)
 664:user/drivers/DMP/driver/eMPL/inv_mpu_dmp_motion_driver.c ****     gyro_bias_body[2] *= -1;
 665:user/drivers/DMP/driver/eMPL/inv_mpu_dmp_motion_driver.c **** 
 666:user/drivers/DMP/driver/eMPL/inv_mpu_dmp_motion_driver.c **** #ifdef EMPL_NO_64BIT
 667:user/drivers/DMP/driver/eMPL/inv_mpu_dmp_motion_driver.c ****   gyro_bias_body[0] =
 668:user/drivers/DMP/driver/eMPL/inv_mpu_dmp_motion_driver.c ****       (long)(((float)gyro_bias_body[0] * GYRO_SF) / 1073741824.f);
 669:user/drivers/DMP/driver/eMPL/inv_mpu_dmp_motion_driver.c ****   gyro_bias_body[1] =
 670:user/drivers/DMP/driver/eMPL/inv_mpu_dmp_motion_driver.c ****       (long)(((float)gyro_bias_body[1] * GYRO_SF) / 1073741824.f);
 671:user/drivers/DMP/driver/eMPL/inv_mpu_dmp_motion_driver.c ****   gyro_bias_body[2] =
 672:user/drivers/DMP/driver/eMPL/inv_mpu_dmp_motion_driver.c ****       (long)(((float)gyro_bias_body[2] * GYRO_SF) / 1073741824.f);
 673:user/drivers/DMP/driver/eMPL/inv_mpu_dmp_motion_driver.c **** #else
 674:user/drivers/DMP/driver/eMPL/inv_mpu_dmp_motion_driver.c ****   gyro_bias_body[0] = (long)(((long long)gyro_bias_body[0] * GYRO_SF) >> 30);
 675:user/drivers/DMP/driver/eMPL/inv_mpu_dmp_motion_driver.c ****   gyro_bias_body[1] = (long)(((long long)gyro_bias_body[1] * GYRO_SF) >> 30);
 676:user/drivers/DMP/driver/eMPL/inv_mpu_dmp_motion_driver.c ****   gyro_bias_body[2] = (long)(((long long)gyro_bias_body[2] * GYRO_SF) >> 30);
 677:user/drivers/DMP/driver/eMPL/inv_mpu_dmp_motion_driver.c **** #endif
 678:user/drivers/DMP/driver/eMPL/inv_mpu_dmp_motion_driver.c **** 
 679:user/drivers/DMP/driver/eMPL/inv_mpu_dmp_motion_driver.c ****   regs[0] = (unsigned char)((gyro_bias_body[0] >> 24) & 0xFF);
 680:user/drivers/DMP/driver/eMPL/inv_mpu_dmp_motion_driver.c ****   regs[1] = (unsigned char)((gyro_bias_body[0] >> 16) & 0xFF);
 681:user/drivers/DMP/driver/eMPL/inv_mpu_dmp_motion_driver.c ****   regs[2] = (unsigned char)((gyro_bias_body[0] >> 8) & 0xFF);
 682:user/drivers/DMP/driver/eMPL/inv_mpu_dmp_motion_driver.c ****   regs[3] = (unsigned char)(gyro_bias_body[0] & 0xFF);
 683:user/drivers/DMP/driver/eMPL/inv_mpu_dmp_motion_driver.c ****   if (mpu_write_mem(D_EXT_GYRO_BIAS_X, 4, regs))
 684:user/drivers/DMP/driver/eMPL/inv_mpu_dmp_motion_driver.c ****     return -1;
 685:user/drivers/DMP/driver/eMPL/inv_mpu_dmp_motion_driver.c **** 
 686:user/drivers/DMP/driver/eMPL/inv_mpu_dmp_motion_driver.c ****   regs[0] = (unsigned char)((gyro_bias_body[1] >> 24) & 0xFF);
 687:user/drivers/DMP/driver/eMPL/inv_mpu_dmp_motion_driver.c ****   regs[1] = (unsigned char)((gyro_bias_body[1] >> 16) & 0xFF);
 688:user/drivers/DMP/driver/eMPL/inv_mpu_dmp_motion_driver.c ****   regs[2] = (unsigned char)((gyro_bias_body[1] >> 8) & 0xFF);
 689:user/drivers/DMP/driver/eMPL/inv_mpu_dmp_motion_driver.c ****   regs[3] = (unsigned char)(gyro_bias_body[1] & 0xFF);
 690:user/drivers/DMP/driver/eMPL/inv_mpu_dmp_motion_driver.c ****   if (mpu_write_mem(D_EXT_GYRO_BIAS_Y, 4, regs))
 691:user/drivers/DMP/driver/eMPL/inv_mpu_dmp_motion_driver.c ****     return -1;
 692:user/drivers/DMP/driver/eMPL/inv_mpu_dmp_motion_driver.c **** 
 693:user/drivers/DMP/driver/eMPL/inv_mpu_dmp_motion_driver.c ****   regs[0] = (unsigned char)((gyro_bias_body[2] >> 24) & 0xFF);
 694:user/drivers/DMP/driver/eMPL/inv_mpu_dmp_motion_driver.c ****   regs[1] = (unsigned char)((gyro_bias_body[2] >> 16) & 0xFF);
 695:user/drivers/DMP/driver/eMPL/inv_mpu_dmp_motion_driver.c ****   regs[2] = (unsigned char)((gyro_bias_body[2] >> 8) & 0xFF);
 696:user/drivers/DMP/driver/eMPL/inv_mpu_dmp_motion_driver.c ****   regs[3] = (unsigned char)(gyro_bias_body[2] & 0xFF);
 697:user/drivers/DMP/driver/eMPL/inv_mpu_dmp_motion_driver.c ****   return mpu_write_mem(D_EXT_GYRO_BIAS_Z, 4, regs);
 698:user/drivers/DMP/driver/eMPL/inv_mpu_dmp_motion_driver.c **** }
 699:user/drivers/DMP/driver/eMPL/inv_mpu_dmp_motion_driver.c **** 
 700:user/drivers/DMP/driver/eMPL/inv_mpu_dmp_motion_driver.c **** /**
 701:user/drivers/DMP/driver/eMPL/inv_mpu_dmp_motion_driver.c ****  *  @brief      Push accel biases to the DMP.
 702:user/drivers/DMP/driver/eMPL/inv_mpu_dmp_motion_driver.c ****  *  These biases will be removed from the DMP 6-axis quaternion.
 703:user/drivers/DMP/driver/eMPL/inv_mpu_dmp_motion_driver.c ****  *  @param[in]  bias    Accel biases in q16.
 704:user/drivers/DMP/driver/eMPL/inv_mpu_dmp_motion_driver.c ****  *  @return     0 if successful.
 705:user/drivers/DMP/driver/eMPL/inv_mpu_dmp_motion_driver.c ****  */
 706:user/drivers/DMP/driver/eMPL/inv_mpu_dmp_motion_driver.c **** int dmp_set_accel_bias(long *bias) {
 707:user/drivers/DMP/driver/eMPL/inv_mpu_dmp_motion_driver.c ****   long accel_bias_body[3];
 708:user/drivers/DMP/driver/eMPL/inv_mpu_dmp_motion_driver.c ****   unsigned char regs[12];
 709:user/drivers/DMP/driver/eMPL/inv_mpu_dmp_motion_driver.c ****   long long accel_sf;
 710:user/drivers/DMP/driver/eMPL/inv_mpu_dmp_motion_driver.c ****   unsigned short accel_sens;
 711:user/drivers/DMP/driver/eMPL/inv_mpu_dmp_motion_driver.c **** 
 712:user/drivers/DMP/driver/eMPL/inv_mpu_dmp_motion_driver.c ****   mpu_get_accel_sens(&accel_sens);
 713:user/drivers/DMP/driver/eMPL/inv_mpu_dmp_motion_driver.c ****   accel_sf = (long long)accel_sens << 15;
 714:user/drivers/DMP/driver/eMPL/inv_mpu_dmp_motion_driver.c ****   //__no_operation();
ARM GAS  /var/folders/21/t9g5rlb91ys800n5npymflf80000gn/T//ccsHZoWN.s 			page 14


 715:user/drivers/DMP/driver/eMPL/inv_mpu_dmp_motion_driver.c **** 
 716:user/drivers/DMP/driver/eMPL/inv_mpu_dmp_motion_driver.c ****   accel_bias_body[0] = bias[dmp.orient & 3];
 717:user/drivers/DMP/driver/eMPL/inv_mpu_dmp_motion_driver.c ****   if (dmp.orient & 4)
 718:user/drivers/DMP/driver/eMPL/inv_mpu_dmp_motion_driver.c ****     accel_bias_body[0] *= -1;
 719:user/drivers/DMP/driver/eMPL/inv_mpu_dmp_motion_driver.c ****   accel_bias_body[1] = bias[(dmp.orient >> 3) & 3];
 720:user/drivers/DMP/driver/eMPL/inv_mpu_dmp_motion_driver.c ****   if (dmp.orient & 0x20)
 721:user/drivers/DMP/driver/eMPL/inv_mpu_dmp_motion_driver.c ****     accel_bias_body[1] *= -1;
 722:user/drivers/DMP/driver/eMPL/inv_mpu_dmp_motion_driver.c ****   accel_bias_body[2] = bias[(dmp.orient >> 6) & 3];
 723:user/drivers/DMP/driver/eMPL/inv_mpu_dmp_motion_driver.c ****   if (dmp.orient & 0x100)
 724:user/drivers/DMP/driver/eMPL/inv_mpu_dmp_motion_driver.c ****     accel_bias_body[2] *= -1;
 725:user/drivers/DMP/driver/eMPL/inv_mpu_dmp_motion_driver.c **** 
 726:user/drivers/DMP/driver/eMPL/inv_mpu_dmp_motion_driver.c **** #ifdef EMPL_NO_64BIT
 727:user/drivers/DMP/driver/eMPL/inv_mpu_dmp_motion_driver.c ****   accel_bias_body[0] =
 728:user/drivers/DMP/driver/eMPL/inv_mpu_dmp_motion_driver.c ****       (long)(((float)accel_bias_body[0] * accel_sf) / 1073741824.f);
 729:user/drivers/DMP/driver/eMPL/inv_mpu_dmp_motion_driver.c ****   accel_bias_body[1] =
 730:user/drivers/DMP/driver/eMPL/inv_mpu_dmp_motion_driver.c ****       (long)(((float)accel_bias_body[1] * accel_sf) / 1073741824.f);
 731:user/drivers/DMP/driver/eMPL/inv_mpu_dmp_motion_driver.c ****   accel_bias_body[2] =
 732:user/drivers/DMP/driver/eMPL/inv_mpu_dmp_motion_driver.c ****       (long)(((float)accel_bias_body[2] * accel_sf) / 1073741824.f);
 733:user/drivers/DMP/driver/eMPL/inv_mpu_dmp_motion_driver.c **** #else
 734:user/drivers/DMP/driver/eMPL/inv_mpu_dmp_motion_driver.c ****   accel_bias_body[0] = (long)(((long long)accel_bias_body[0] * accel_sf) >> 30);
 735:user/drivers/DMP/driver/eMPL/inv_mpu_dmp_motion_driver.c ****   accel_bias_body[1] = (long)(((long long)accel_bias_body[1] * accel_sf) >> 30);
 736:user/drivers/DMP/driver/eMPL/inv_mpu_dmp_motion_driver.c ****   accel_bias_body[2] = (long)(((long long)accel_bias_body[2] * accel_sf) >> 30);
 737:user/drivers/DMP/driver/eMPL/inv_mpu_dmp_motion_driver.c **** #endif
 738:user/drivers/DMP/driver/eMPL/inv_mpu_dmp_motion_driver.c **** 
 739:user/drivers/DMP/driver/eMPL/inv_mpu_dmp_motion_driver.c ****   regs[0] = (unsigned char)((accel_bias_body[0] >> 24) & 0xFF);
 740:user/drivers/DMP/driver/eMPL/inv_mpu_dmp_motion_driver.c ****   regs[1] = (unsigned char)((accel_bias_body[0] >> 16) & 0xFF);
 741:user/drivers/DMP/driver/eMPL/inv_mpu_dmp_motion_driver.c ****   regs[2] = (unsigned char)((accel_bias_body[0] >> 8) & 0xFF);
 742:user/drivers/DMP/driver/eMPL/inv_mpu_dmp_motion_driver.c ****   regs[3] = (unsigned char)(accel_bias_body[0] & 0xFF);
 743:user/drivers/DMP/driver/eMPL/inv_mpu_dmp_motion_driver.c ****   regs[4] = (unsigned char)((accel_bias_body[1] >> 24) & 0xFF);
 744:user/drivers/DMP/driver/eMPL/inv_mpu_dmp_motion_driver.c ****   regs[5] = (unsigned char)((accel_bias_body[1] >> 16) & 0xFF);
 745:user/drivers/DMP/driver/eMPL/inv_mpu_dmp_motion_driver.c ****   regs[6] = (unsigned char)((accel_bias_body[1] >> 8) & 0xFF);
 746:user/drivers/DMP/driver/eMPL/inv_mpu_dmp_motion_driver.c ****   regs[7] = (unsigned char)(accel_bias_body[1] & 0xFF);
 747:user/drivers/DMP/driver/eMPL/inv_mpu_dmp_motion_driver.c ****   regs[8] = (unsigned char)((accel_bias_body[2] >> 24) & 0xFF);
 748:user/drivers/DMP/driver/eMPL/inv_mpu_dmp_motion_driver.c ****   regs[9] = (unsigned char)((accel_bias_body[2] >> 16) & 0xFF);
 749:user/drivers/DMP/driver/eMPL/inv_mpu_dmp_motion_driver.c ****   regs[10] = (unsigned char)((accel_bias_body[2] >> 8) & 0xFF);
 750:user/drivers/DMP/driver/eMPL/inv_mpu_dmp_motion_driver.c ****   regs[11] = (unsigned char)(accel_bias_body[2] & 0xFF);
 751:user/drivers/DMP/driver/eMPL/inv_mpu_dmp_motion_driver.c ****   return mpu_write_mem(D_ACCEL_BIAS, 12, regs);
 752:user/drivers/DMP/driver/eMPL/inv_mpu_dmp_motion_driver.c **** }
 753:user/drivers/DMP/driver/eMPL/inv_mpu_dmp_motion_driver.c **** 
 754:user/drivers/DMP/driver/eMPL/inv_mpu_dmp_motion_driver.c **** /**
 755:user/drivers/DMP/driver/eMPL/inv_mpu_dmp_motion_driver.c ****  *  @brief      Set DMP output rate.
 756:user/drivers/DMP/driver/eMPL/inv_mpu_dmp_motion_driver.c ****  *  Only used when DMP is on.
 757:user/drivers/DMP/driver/eMPL/inv_mpu_dmp_motion_driver.c ****  *  @param[in]  rate    Desired fifo rate (Hz).
 758:user/drivers/DMP/driver/eMPL/inv_mpu_dmp_motion_driver.c ****  *  @return     0 if successful.
 759:user/drivers/DMP/driver/eMPL/inv_mpu_dmp_motion_driver.c ****  */
 760:user/drivers/DMP/driver/eMPL/inv_mpu_dmp_motion_driver.c **** int dmp_set_fifo_rate(unsigned short rate) {
 761:user/drivers/DMP/driver/eMPL/inv_mpu_dmp_motion_driver.c ****   const unsigned char regs_end[12] = {DINAFE, DINAF2, DINAAB, 0xc4,
 762:user/drivers/DMP/driver/eMPL/inv_mpu_dmp_motion_driver.c ****                                       DINAAA, DINAF1, DINADF, DINADF,
 763:user/drivers/DMP/driver/eMPL/inv_mpu_dmp_motion_driver.c ****                                       0xBB,   0xAF,   DINADF, DINADF};
 764:user/drivers/DMP/driver/eMPL/inv_mpu_dmp_motion_driver.c ****   unsigned short div;
 765:user/drivers/DMP/driver/eMPL/inv_mpu_dmp_motion_driver.c ****   unsigned char tmp[8];
 766:user/drivers/DMP/driver/eMPL/inv_mpu_dmp_motion_driver.c **** 
 767:user/drivers/DMP/driver/eMPL/inv_mpu_dmp_motion_driver.c ****   if (rate > DMP_SAMPLE_RATE)
 768:user/drivers/DMP/driver/eMPL/inv_mpu_dmp_motion_driver.c ****     return -1;
 769:user/drivers/DMP/driver/eMPL/inv_mpu_dmp_motion_driver.c ****   div = DMP_SAMPLE_RATE / rate - 1;
 770:user/drivers/DMP/driver/eMPL/inv_mpu_dmp_motion_driver.c ****   tmp[0] = (unsigned char)((div >> 8) & 0xFF);
 771:user/drivers/DMP/driver/eMPL/inv_mpu_dmp_motion_driver.c ****   tmp[1] = (unsigned char)(div & 0xFF);
ARM GAS  /var/folders/21/t9g5rlb91ys800n5npymflf80000gn/T//ccsHZoWN.s 			page 15


 772:user/drivers/DMP/driver/eMPL/inv_mpu_dmp_motion_driver.c ****   if (mpu_write_mem(D_0_22, 2, tmp))
 773:user/drivers/DMP/driver/eMPL/inv_mpu_dmp_motion_driver.c ****     return -1;
 774:user/drivers/DMP/driver/eMPL/inv_mpu_dmp_motion_driver.c ****   if (mpu_write_mem(CFG_6, 12, (unsigned char *)regs_end))
 775:user/drivers/DMP/driver/eMPL/inv_mpu_dmp_motion_driver.c ****     return -1;
 776:user/drivers/DMP/driver/eMPL/inv_mpu_dmp_motion_driver.c **** 
 777:user/drivers/DMP/driver/eMPL/inv_mpu_dmp_motion_driver.c ****   dmp.fifo_rate = rate;
 778:user/drivers/DMP/driver/eMPL/inv_mpu_dmp_motion_driver.c ****   return 0;
 779:user/drivers/DMP/driver/eMPL/inv_mpu_dmp_motion_driver.c **** }
 780:user/drivers/DMP/driver/eMPL/inv_mpu_dmp_motion_driver.c **** 
 781:user/drivers/DMP/driver/eMPL/inv_mpu_dmp_motion_driver.c **** /**
 782:user/drivers/DMP/driver/eMPL/inv_mpu_dmp_motion_driver.c ****  *  @brief      Get DMP output rate.
 783:user/drivers/DMP/driver/eMPL/inv_mpu_dmp_motion_driver.c ****  *  @param[out] rate    Current fifo rate (Hz).
 784:user/drivers/DMP/driver/eMPL/inv_mpu_dmp_motion_driver.c ****  *  @return     0 if successful.
 785:user/drivers/DMP/driver/eMPL/inv_mpu_dmp_motion_driver.c ****  */
 786:user/drivers/DMP/driver/eMPL/inv_mpu_dmp_motion_driver.c **** int dmp_get_fifo_rate(unsigned short *rate) {
 787:user/drivers/DMP/driver/eMPL/inv_mpu_dmp_motion_driver.c ****   rate[0] = dmp.fifo_rate;
 788:user/drivers/DMP/driver/eMPL/inv_mpu_dmp_motion_driver.c ****   return 0;
 789:user/drivers/DMP/driver/eMPL/inv_mpu_dmp_motion_driver.c **** }
 790:user/drivers/DMP/driver/eMPL/inv_mpu_dmp_motion_driver.c **** 
 791:user/drivers/DMP/driver/eMPL/inv_mpu_dmp_motion_driver.c **** /**
 792:user/drivers/DMP/driver/eMPL/inv_mpu_dmp_motion_driver.c ****  *  @brief      Set tap threshold for a specific axis.
 793:user/drivers/DMP/driver/eMPL/inv_mpu_dmp_motion_driver.c ****  *  @param[in]  axis    1, 2, and 4 for XYZ accel, respectively.
 794:user/drivers/DMP/driver/eMPL/inv_mpu_dmp_motion_driver.c ****  *  @param[in]  thresh  Tap threshold, in mg/ms.
 795:user/drivers/DMP/driver/eMPL/inv_mpu_dmp_motion_driver.c ****  *  @return     0 if successful.
 796:user/drivers/DMP/driver/eMPL/inv_mpu_dmp_motion_driver.c ****  */
 797:user/drivers/DMP/driver/eMPL/inv_mpu_dmp_motion_driver.c **** int dmp_set_tap_thresh(unsigned char axis, unsigned short thresh) {
 798:user/drivers/DMP/driver/eMPL/inv_mpu_dmp_motion_driver.c ****   unsigned char tmp[4], accel_fsr;
 799:user/drivers/DMP/driver/eMPL/inv_mpu_dmp_motion_driver.c ****   float scaled_thresh;
 800:user/drivers/DMP/driver/eMPL/inv_mpu_dmp_motion_driver.c ****   unsigned short dmp_thresh, dmp_thresh_2;
 801:user/drivers/DMP/driver/eMPL/inv_mpu_dmp_motion_driver.c ****   if (!(axis & TAP_XYZ) || thresh > 1600)
 802:user/drivers/DMP/driver/eMPL/inv_mpu_dmp_motion_driver.c ****     return -1;
 803:user/drivers/DMP/driver/eMPL/inv_mpu_dmp_motion_driver.c **** 
 804:user/drivers/DMP/driver/eMPL/inv_mpu_dmp_motion_driver.c ****   scaled_thresh = (float)thresh / DMP_SAMPLE_RATE;
 805:user/drivers/DMP/driver/eMPL/inv_mpu_dmp_motion_driver.c **** 
 806:user/drivers/DMP/driver/eMPL/inv_mpu_dmp_motion_driver.c ****   mpu_get_accel_fsr(&accel_fsr);
 807:user/drivers/DMP/driver/eMPL/inv_mpu_dmp_motion_driver.c ****   switch (accel_fsr) {
 808:user/drivers/DMP/driver/eMPL/inv_mpu_dmp_motion_driver.c ****   case 2:
 809:user/drivers/DMP/driver/eMPL/inv_mpu_dmp_motion_driver.c ****     dmp_thresh = (unsigned short)(scaled_thresh * 16384);
 810:user/drivers/DMP/driver/eMPL/inv_mpu_dmp_motion_driver.c ****     /* dmp_thresh * 0.75 */
 811:user/drivers/DMP/driver/eMPL/inv_mpu_dmp_motion_driver.c ****     dmp_thresh_2 = (unsigned short)(scaled_thresh * 12288);
 812:user/drivers/DMP/driver/eMPL/inv_mpu_dmp_motion_driver.c ****     break;
 813:user/drivers/DMP/driver/eMPL/inv_mpu_dmp_motion_driver.c ****   case 4:
 814:user/drivers/DMP/driver/eMPL/inv_mpu_dmp_motion_driver.c ****     dmp_thresh = (unsigned short)(scaled_thresh * 8192);
 815:user/drivers/DMP/driver/eMPL/inv_mpu_dmp_motion_driver.c ****     /* dmp_thresh * 0.75 */
 816:user/drivers/DMP/driver/eMPL/inv_mpu_dmp_motion_driver.c ****     dmp_thresh_2 = (unsigned short)(scaled_thresh * 6144);
 817:user/drivers/DMP/driver/eMPL/inv_mpu_dmp_motion_driver.c ****     break;
 818:user/drivers/DMP/driver/eMPL/inv_mpu_dmp_motion_driver.c ****   case 8:
 819:user/drivers/DMP/driver/eMPL/inv_mpu_dmp_motion_driver.c ****     dmp_thresh = (unsigned short)(scaled_thresh * 4096);
 820:user/drivers/DMP/driver/eMPL/inv_mpu_dmp_motion_driver.c ****     /* dmp_thresh * 0.75 */
 821:user/drivers/DMP/driver/eMPL/inv_mpu_dmp_motion_driver.c ****     dmp_thresh_2 = (unsigned short)(scaled_thresh * 3072);
 822:user/drivers/DMP/driver/eMPL/inv_mpu_dmp_motion_driver.c ****     break;
 823:user/drivers/DMP/driver/eMPL/inv_mpu_dmp_motion_driver.c ****   case 16:
 824:user/drivers/DMP/driver/eMPL/inv_mpu_dmp_motion_driver.c ****     dmp_thresh = (unsigned short)(scaled_thresh * 2048);
 825:user/drivers/DMP/driver/eMPL/inv_mpu_dmp_motion_driver.c ****     /* dmp_thresh * 0.75 */
 826:user/drivers/DMP/driver/eMPL/inv_mpu_dmp_motion_driver.c ****     dmp_thresh_2 = (unsigned short)(scaled_thresh * 1536);
 827:user/drivers/DMP/driver/eMPL/inv_mpu_dmp_motion_driver.c ****     break;
 828:user/drivers/DMP/driver/eMPL/inv_mpu_dmp_motion_driver.c ****   default:
ARM GAS  /var/folders/21/t9g5rlb91ys800n5npymflf80000gn/T//ccsHZoWN.s 			page 16


 829:user/drivers/DMP/driver/eMPL/inv_mpu_dmp_motion_driver.c ****     return -1;
 830:user/drivers/DMP/driver/eMPL/inv_mpu_dmp_motion_driver.c ****   }
 831:user/drivers/DMP/driver/eMPL/inv_mpu_dmp_motion_driver.c ****   tmp[0] = (unsigned char)(dmp_thresh >> 8);
 832:user/drivers/DMP/driver/eMPL/inv_mpu_dmp_motion_driver.c ****   tmp[1] = (unsigned char)(dmp_thresh & 0xFF);
 833:user/drivers/DMP/driver/eMPL/inv_mpu_dmp_motion_driver.c ****   tmp[2] = (unsigned char)(dmp_thresh_2 >> 8);
 834:user/drivers/DMP/driver/eMPL/inv_mpu_dmp_motion_driver.c ****   tmp[3] = (unsigned char)(dmp_thresh_2 & 0xFF);
 835:user/drivers/DMP/driver/eMPL/inv_mpu_dmp_motion_driver.c **** 
 836:user/drivers/DMP/driver/eMPL/inv_mpu_dmp_motion_driver.c ****   if (axis & TAP_X) {
 837:user/drivers/DMP/driver/eMPL/inv_mpu_dmp_motion_driver.c ****     if (mpu_write_mem(DMP_TAP_THX, 2, tmp))
 838:user/drivers/DMP/driver/eMPL/inv_mpu_dmp_motion_driver.c ****       return -1;
 839:user/drivers/DMP/driver/eMPL/inv_mpu_dmp_motion_driver.c ****     if (mpu_write_mem(D_1_36, 2, tmp + 2))
 840:user/drivers/DMP/driver/eMPL/inv_mpu_dmp_motion_driver.c ****       return -1;
 841:user/drivers/DMP/driver/eMPL/inv_mpu_dmp_motion_driver.c ****   }
 842:user/drivers/DMP/driver/eMPL/inv_mpu_dmp_motion_driver.c ****   if (axis & TAP_Y) {
 843:user/drivers/DMP/driver/eMPL/inv_mpu_dmp_motion_driver.c ****     if (mpu_write_mem(DMP_TAP_THY, 2, tmp))
 844:user/drivers/DMP/driver/eMPL/inv_mpu_dmp_motion_driver.c ****       return -1;
 845:user/drivers/DMP/driver/eMPL/inv_mpu_dmp_motion_driver.c ****     if (mpu_write_mem(D_1_40, 2, tmp + 2))
 846:user/drivers/DMP/driver/eMPL/inv_mpu_dmp_motion_driver.c ****       return -1;
 847:user/drivers/DMP/driver/eMPL/inv_mpu_dmp_motion_driver.c ****   }
 848:user/drivers/DMP/driver/eMPL/inv_mpu_dmp_motion_driver.c ****   if (axis & TAP_Z) {
 849:user/drivers/DMP/driver/eMPL/inv_mpu_dmp_motion_driver.c ****     if (mpu_write_mem(DMP_TAP_THZ, 2, tmp))
 850:user/drivers/DMP/driver/eMPL/inv_mpu_dmp_motion_driver.c ****       return -1;
 851:user/drivers/DMP/driver/eMPL/inv_mpu_dmp_motion_driver.c ****     if (mpu_write_mem(D_1_44, 2, tmp + 2))
 852:user/drivers/DMP/driver/eMPL/inv_mpu_dmp_motion_driver.c ****       return -1;
 853:user/drivers/DMP/driver/eMPL/inv_mpu_dmp_motion_driver.c ****   }
 854:user/drivers/DMP/driver/eMPL/inv_mpu_dmp_motion_driver.c ****   return 0;
 855:user/drivers/DMP/driver/eMPL/inv_mpu_dmp_motion_driver.c **** }
 856:user/drivers/DMP/driver/eMPL/inv_mpu_dmp_motion_driver.c **** 
 857:user/drivers/DMP/driver/eMPL/inv_mpu_dmp_motion_driver.c **** /**
 858:user/drivers/DMP/driver/eMPL/inv_mpu_dmp_motion_driver.c ****  *  @brief      Set which axes will register a tap.
 859:user/drivers/DMP/driver/eMPL/inv_mpu_dmp_motion_driver.c ****  *  @param[in]  axis    1, 2, and 4 for XYZ, respectively.
 860:user/drivers/DMP/driver/eMPL/inv_mpu_dmp_motion_driver.c ****  *  @return     0 if successful.
 861:user/drivers/DMP/driver/eMPL/inv_mpu_dmp_motion_driver.c ****  */
 862:user/drivers/DMP/driver/eMPL/inv_mpu_dmp_motion_driver.c **** int dmp_set_tap_axes(unsigned char axis) {
 863:user/drivers/DMP/driver/eMPL/inv_mpu_dmp_motion_driver.c ****   unsigned char tmp = 0;
 864:user/drivers/DMP/driver/eMPL/inv_mpu_dmp_motion_driver.c **** 
 865:user/drivers/DMP/driver/eMPL/inv_mpu_dmp_motion_driver.c ****   if (axis & TAP_X)
 866:user/drivers/DMP/driver/eMPL/inv_mpu_dmp_motion_driver.c ****     tmp |= 0x30;
 867:user/drivers/DMP/driver/eMPL/inv_mpu_dmp_motion_driver.c ****   if (axis & TAP_Y)
 868:user/drivers/DMP/driver/eMPL/inv_mpu_dmp_motion_driver.c ****     tmp |= 0x0C;
 869:user/drivers/DMP/driver/eMPL/inv_mpu_dmp_motion_driver.c ****   if (axis & TAP_Z)
 870:user/drivers/DMP/driver/eMPL/inv_mpu_dmp_motion_driver.c ****     tmp |= 0x03;
 871:user/drivers/DMP/driver/eMPL/inv_mpu_dmp_motion_driver.c ****   return mpu_write_mem(D_1_72, 1, &tmp);
 872:user/drivers/DMP/driver/eMPL/inv_mpu_dmp_motion_driver.c **** }
 873:user/drivers/DMP/driver/eMPL/inv_mpu_dmp_motion_driver.c **** 
 874:user/drivers/DMP/driver/eMPL/inv_mpu_dmp_motion_driver.c **** /**
 875:user/drivers/DMP/driver/eMPL/inv_mpu_dmp_motion_driver.c ****  *  @brief      Set minimum number of taps needed for an interrupt.
 876:user/drivers/DMP/driver/eMPL/inv_mpu_dmp_motion_driver.c ****  *  @param[in]  min_taps    Minimum consecutive taps (1-4).
 877:user/drivers/DMP/driver/eMPL/inv_mpu_dmp_motion_driver.c ****  *  @return     0 if successful.
 878:user/drivers/DMP/driver/eMPL/inv_mpu_dmp_motion_driver.c ****  */
 879:user/drivers/DMP/driver/eMPL/inv_mpu_dmp_motion_driver.c **** int dmp_set_tap_count(unsigned char min_taps) {
 880:user/drivers/DMP/driver/eMPL/inv_mpu_dmp_motion_driver.c ****   unsigned char tmp;
 881:user/drivers/DMP/driver/eMPL/inv_mpu_dmp_motion_driver.c **** 
 882:user/drivers/DMP/driver/eMPL/inv_mpu_dmp_motion_driver.c ****   if (min_taps < 1)
 883:user/drivers/DMP/driver/eMPL/inv_mpu_dmp_motion_driver.c ****     min_taps = 1;
 884:user/drivers/DMP/driver/eMPL/inv_mpu_dmp_motion_driver.c ****   else if (min_taps > 4)
 885:user/drivers/DMP/driver/eMPL/inv_mpu_dmp_motion_driver.c ****     min_taps = 4;
ARM GAS  /var/folders/21/t9g5rlb91ys800n5npymflf80000gn/T//ccsHZoWN.s 			page 17


 886:user/drivers/DMP/driver/eMPL/inv_mpu_dmp_motion_driver.c **** 
 887:user/drivers/DMP/driver/eMPL/inv_mpu_dmp_motion_driver.c ****   tmp = min_taps - 1;
 888:user/drivers/DMP/driver/eMPL/inv_mpu_dmp_motion_driver.c ****   return mpu_write_mem(D_1_79, 1, &tmp);
 889:user/drivers/DMP/driver/eMPL/inv_mpu_dmp_motion_driver.c **** }
 890:user/drivers/DMP/driver/eMPL/inv_mpu_dmp_motion_driver.c **** 
 891:user/drivers/DMP/driver/eMPL/inv_mpu_dmp_motion_driver.c **** /**
 892:user/drivers/DMP/driver/eMPL/inv_mpu_dmp_motion_driver.c ****  *  @brief      Set length between valid taps.
 893:user/drivers/DMP/driver/eMPL/inv_mpu_dmp_motion_driver.c ****  *  @param[in]  time    Milliseconds between taps.
 894:user/drivers/DMP/driver/eMPL/inv_mpu_dmp_motion_driver.c ****  *  @return     0 if successful.
 895:user/drivers/DMP/driver/eMPL/inv_mpu_dmp_motion_driver.c ****  */
 896:user/drivers/DMP/driver/eMPL/inv_mpu_dmp_motion_driver.c **** int dmp_set_tap_time(unsigned short time) {
 897:user/drivers/DMP/driver/eMPL/inv_mpu_dmp_motion_driver.c ****   unsigned short dmp_time;
 898:user/drivers/DMP/driver/eMPL/inv_mpu_dmp_motion_driver.c ****   unsigned char tmp[2];
 899:user/drivers/DMP/driver/eMPL/inv_mpu_dmp_motion_driver.c **** 
 900:user/drivers/DMP/driver/eMPL/inv_mpu_dmp_motion_driver.c ****   dmp_time = time / (1000 / DMP_SAMPLE_RATE);
 901:user/drivers/DMP/driver/eMPL/inv_mpu_dmp_motion_driver.c ****   tmp[0] = (unsigned char)(dmp_time >> 8);
 902:user/drivers/DMP/driver/eMPL/inv_mpu_dmp_motion_driver.c ****   tmp[1] = (unsigned char)(dmp_time & 0xFF);
 903:user/drivers/DMP/driver/eMPL/inv_mpu_dmp_motion_driver.c ****   return mpu_write_mem(DMP_TAPW_MIN, 2, tmp);
 904:user/drivers/DMP/driver/eMPL/inv_mpu_dmp_motion_driver.c **** }
 905:user/drivers/DMP/driver/eMPL/inv_mpu_dmp_motion_driver.c **** 
 906:user/drivers/DMP/driver/eMPL/inv_mpu_dmp_motion_driver.c **** /**
 907:user/drivers/DMP/driver/eMPL/inv_mpu_dmp_motion_driver.c ****  *  @brief      Set max time between taps to register as a multi-tap.
 908:user/drivers/DMP/driver/eMPL/inv_mpu_dmp_motion_driver.c ****  *  @param[in]  time    Max milliseconds between taps.
 909:user/drivers/DMP/driver/eMPL/inv_mpu_dmp_motion_driver.c ****  *  @return     0 if successful.
 910:user/drivers/DMP/driver/eMPL/inv_mpu_dmp_motion_driver.c ****  */
 911:user/drivers/DMP/driver/eMPL/inv_mpu_dmp_motion_driver.c **** int dmp_set_tap_time_multi(unsigned short time) {
 912:user/drivers/DMP/driver/eMPL/inv_mpu_dmp_motion_driver.c ****   unsigned short dmp_time;
 913:user/drivers/DMP/driver/eMPL/inv_mpu_dmp_motion_driver.c ****   unsigned char tmp[2];
 914:user/drivers/DMP/driver/eMPL/inv_mpu_dmp_motion_driver.c **** 
 915:user/drivers/DMP/driver/eMPL/inv_mpu_dmp_motion_driver.c ****   dmp_time = time / (1000 / DMP_SAMPLE_RATE);
 916:user/drivers/DMP/driver/eMPL/inv_mpu_dmp_motion_driver.c ****   tmp[0] = (unsigned char)(dmp_time >> 8);
 917:user/drivers/DMP/driver/eMPL/inv_mpu_dmp_motion_driver.c ****   tmp[1] = (unsigned char)(dmp_time & 0xFF);
 918:user/drivers/DMP/driver/eMPL/inv_mpu_dmp_motion_driver.c ****   return mpu_write_mem(D_1_218, 2, tmp);
 919:user/drivers/DMP/driver/eMPL/inv_mpu_dmp_motion_driver.c **** }
 920:user/drivers/DMP/driver/eMPL/inv_mpu_dmp_motion_driver.c **** 
 921:user/drivers/DMP/driver/eMPL/inv_mpu_dmp_motion_driver.c **** /**
 922:user/drivers/DMP/driver/eMPL/inv_mpu_dmp_motion_driver.c ****  *  @brief      Set shake rejection threshold.
 923:user/drivers/DMP/driver/eMPL/inv_mpu_dmp_motion_driver.c ****  *  If the DMP detects a gyro sample larger than @e thresh, taps are rejected.
 924:user/drivers/DMP/driver/eMPL/inv_mpu_dmp_motion_driver.c ****  *  @param[in]  sf      Gyro scale factor.
 925:user/drivers/DMP/driver/eMPL/inv_mpu_dmp_motion_driver.c ****  *  @param[in]  thresh  Gyro threshold in dps.
 926:user/drivers/DMP/driver/eMPL/inv_mpu_dmp_motion_driver.c ****  *  @return     0 if successful.
 927:user/drivers/DMP/driver/eMPL/inv_mpu_dmp_motion_driver.c ****  */
 928:user/drivers/DMP/driver/eMPL/inv_mpu_dmp_motion_driver.c **** int dmp_set_shake_reject_thresh(long sf, unsigned short thresh) {
 929:user/drivers/DMP/driver/eMPL/inv_mpu_dmp_motion_driver.c ****   unsigned char tmp[4];
 930:user/drivers/DMP/driver/eMPL/inv_mpu_dmp_motion_driver.c ****   long thresh_scaled = sf / 1000 * thresh;
 931:user/drivers/DMP/driver/eMPL/inv_mpu_dmp_motion_driver.c ****   tmp[0] = (unsigned char)(((long)thresh_scaled >> 24) & 0xFF);
 932:user/drivers/DMP/driver/eMPL/inv_mpu_dmp_motion_driver.c ****   tmp[1] = (unsigned char)(((long)thresh_scaled >> 16) & 0xFF);
 933:user/drivers/DMP/driver/eMPL/inv_mpu_dmp_motion_driver.c ****   tmp[2] = (unsigned char)(((long)thresh_scaled >> 8) & 0xFF);
 934:user/drivers/DMP/driver/eMPL/inv_mpu_dmp_motion_driver.c ****   tmp[3] = (unsigned char)((long)thresh_scaled & 0xFF);
 935:user/drivers/DMP/driver/eMPL/inv_mpu_dmp_motion_driver.c ****   return mpu_write_mem(D_1_92, 4, tmp);
 936:user/drivers/DMP/driver/eMPL/inv_mpu_dmp_motion_driver.c **** }
 937:user/drivers/DMP/driver/eMPL/inv_mpu_dmp_motion_driver.c **** 
 938:user/drivers/DMP/driver/eMPL/inv_mpu_dmp_motion_driver.c **** /**
 939:user/drivers/DMP/driver/eMPL/inv_mpu_dmp_motion_driver.c ****  *  @brief      Set shake rejection time.
 940:user/drivers/DMP/driver/eMPL/inv_mpu_dmp_motion_driver.c ****  *  Sets the length of time that the gyro must be outside of the threshold set
 941:user/drivers/DMP/driver/eMPL/inv_mpu_dmp_motion_driver.c ****  *  by @e gyro_set_shake_reject_thresh before taps are rejected. A mandatory
 942:user/drivers/DMP/driver/eMPL/inv_mpu_dmp_motion_driver.c ****  *  60 ms is added to this parameter.
ARM GAS  /var/folders/21/t9g5rlb91ys800n5npymflf80000gn/T//ccsHZoWN.s 			page 18


 943:user/drivers/DMP/driver/eMPL/inv_mpu_dmp_motion_driver.c ****  *  @param[in]  time    Time in milliseconds.
 944:user/drivers/DMP/driver/eMPL/inv_mpu_dmp_motion_driver.c ****  *  @return     0 if successful.
 945:user/drivers/DMP/driver/eMPL/inv_mpu_dmp_motion_driver.c ****  */
 946:user/drivers/DMP/driver/eMPL/inv_mpu_dmp_motion_driver.c **** int dmp_set_shake_reject_time(unsigned short time) {
 947:user/drivers/DMP/driver/eMPL/inv_mpu_dmp_motion_driver.c ****   unsigned char tmp[2];
 948:user/drivers/DMP/driver/eMPL/inv_mpu_dmp_motion_driver.c **** 
 949:user/drivers/DMP/driver/eMPL/inv_mpu_dmp_motion_driver.c ****   time /= (1000 / DMP_SAMPLE_RATE);
 950:user/drivers/DMP/driver/eMPL/inv_mpu_dmp_motion_driver.c ****   tmp[0] = time >> 8;
 951:user/drivers/DMP/driver/eMPL/inv_mpu_dmp_motion_driver.c ****   tmp[1] = time & 0xFF;
 952:user/drivers/DMP/driver/eMPL/inv_mpu_dmp_motion_driver.c ****   return mpu_write_mem(D_1_90, 2, tmp);
 953:user/drivers/DMP/driver/eMPL/inv_mpu_dmp_motion_driver.c **** }
 954:user/drivers/DMP/driver/eMPL/inv_mpu_dmp_motion_driver.c **** 
 955:user/drivers/DMP/driver/eMPL/inv_mpu_dmp_motion_driver.c **** /**
 956:user/drivers/DMP/driver/eMPL/inv_mpu_dmp_motion_driver.c ****  *  @brief      Set shake rejection timeout.
 957:user/drivers/DMP/driver/eMPL/inv_mpu_dmp_motion_driver.c ****  *  Sets the length of time after a shake rejection that the gyro must stay
 958:user/drivers/DMP/driver/eMPL/inv_mpu_dmp_motion_driver.c ****  *  inside of the threshold before taps can be detected again. A mandatory
 959:user/drivers/DMP/driver/eMPL/inv_mpu_dmp_motion_driver.c ****  *  60 ms is added to this parameter.
 960:user/drivers/DMP/driver/eMPL/inv_mpu_dmp_motion_driver.c ****  *  @param[in]  time    Time in milliseconds.
 961:user/drivers/DMP/driver/eMPL/inv_mpu_dmp_motion_driver.c ****  *  @return     0 if successful.
 962:user/drivers/DMP/driver/eMPL/inv_mpu_dmp_motion_driver.c ****  */
 963:user/drivers/DMP/driver/eMPL/inv_mpu_dmp_motion_driver.c **** int dmp_set_shake_reject_timeout(unsigned short time) {
 964:user/drivers/DMP/driver/eMPL/inv_mpu_dmp_motion_driver.c ****   unsigned char tmp[2];
 965:user/drivers/DMP/driver/eMPL/inv_mpu_dmp_motion_driver.c **** 
 966:user/drivers/DMP/driver/eMPL/inv_mpu_dmp_motion_driver.c ****   time /= (1000 / DMP_SAMPLE_RATE);
 967:user/drivers/DMP/driver/eMPL/inv_mpu_dmp_motion_driver.c ****   tmp[0] = time >> 8;
 968:user/drivers/DMP/driver/eMPL/inv_mpu_dmp_motion_driver.c ****   tmp[1] = time & 0xFF;
 969:user/drivers/DMP/driver/eMPL/inv_mpu_dmp_motion_driver.c ****   return mpu_write_mem(D_1_88, 2, tmp);
 970:user/drivers/DMP/driver/eMPL/inv_mpu_dmp_motion_driver.c **** }
 971:user/drivers/DMP/driver/eMPL/inv_mpu_dmp_motion_driver.c **** 
 972:user/drivers/DMP/driver/eMPL/inv_mpu_dmp_motion_driver.c **** /**
 973:user/drivers/DMP/driver/eMPL/inv_mpu_dmp_motion_driver.c ****  *  @brief      Get current step count.
 974:user/drivers/DMP/driver/eMPL/inv_mpu_dmp_motion_driver.c ****  *  @param[out] count   Number of steps detected.
 975:user/drivers/DMP/driver/eMPL/inv_mpu_dmp_motion_driver.c ****  *  @return     0 if successful.
 976:user/drivers/DMP/driver/eMPL/inv_mpu_dmp_motion_driver.c ****  */
 977:user/drivers/DMP/driver/eMPL/inv_mpu_dmp_motion_driver.c **** int dmp_get_pedometer_step_count(unsigned long *count) {
 978:user/drivers/DMP/driver/eMPL/inv_mpu_dmp_motion_driver.c ****   unsigned char tmp[4];
 979:user/drivers/DMP/driver/eMPL/inv_mpu_dmp_motion_driver.c ****   if (!count)
 980:user/drivers/DMP/driver/eMPL/inv_mpu_dmp_motion_driver.c ****     return -1;
 981:user/drivers/DMP/driver/eMPL/inv_mpu_dmp_motion_driver.c **** 
 982:user/drivers/DMP/driver/eMPL/inv_mpu_dmp_motion_driver.c ****   if (mpu_read_mem(D_PEDSTD_STEPCTR, 4, tmp))
 983:user/drivers/DMP/driver/eMPL/inv_mpu_dmp_motion_driver.c ****     return -1;
 984:user/drivers/DMP/driver/eMPL/inv_mpu_dmp_motion_driver.c **** 
 985:user/drivers/DMP/driver/eMPL/inv_mpu_dmp_motion_driver.c ****   count[0] = ((unsigned long)tmp[0] << 24) | ((unsigned long)tmp[1] << 16) |
 986:user/drivers/DMP/driver/eMPL/inv_mpu_dmp_motion_driver.c ****              ((unsigned long)tmp[2] << 8) | tmp[3];
 987:user/drivers/DMP/driver/eMPL/inv_mpu_dmp_motion_driver.c ****   return 0;
 988:user/drivers/DMP/driver/eMPL/inv_mpu_dmp_motion_driver.c **** }
 989:user/drivers/DMP/driver/eMPL/inv_mpu_dmp_motion_driver.c **** 
 990:user/drivers/DMP/driver/eMPL/inv_mpu_dmp_motion_driver.c **** /**
 991:user/drivers/DMP/driver/eMPL/inv_mpu_dmp_motion_driver.c ****  *  @brief      Overwrite current step count.
 992:user/drivers/DMP/driver/eMPL/inv_mpu_dmp_motion_driver.c ****  *  WARNING: This function writes to DMP memory and could potentially encounter
 993:user/drivers/DMP/driver/eMPL/inv_mpu_dmp_motion_driver.c ****  *  a race condition if called while the pedometer is enabled.
 994:user/drivers/DMP/driver/eMPL/inv_mpu_dmp_motion_driver.c ****  *  @param[in]  count   New step count.
 995:user/drivers/DMP/driver/eMPL/inv_mpu_dmp_motion_driver.c ****  *  @return     0 if successful.
 996:user/drivers/DMP/driver/eMPL/inv_mpu_dmp_motion_driver.c ****  */
 997:user/drivers/DMP/driver/eMPL/inv_mpu_dmp_motion_driver.c **** int dmp_set_pedometer_step_count(unsigned long count) {
 998:user/drivers/DMP/driver/eMPL/inv_mpu_dmp_motion_driver.c ****   unsigned char tmp[4];
 999:user/drivers/DMP/driver/eMPL/inv_mpu_dmp_motion_driver.c **** 
ARM GAS  /var/folders/21/t9g5rlb91ys800n5npymflf80000gn/T//ccsHZoWN.s 			page 19


1000:user/drivers/DMP/driver/eMPL/inv_mpu_dmp_motion_driver.c ****   tmp[0] = (unsigned char)((count >> 24) & 0xFF);
1001:user/drivers/DMP/driver/eMPL/inv_mpu_dmp_motion_driver.c ****   tmp[1] = (unsigned char)((count >> 16) & 0xFF);
1002:user/drivers/DMP/driver/eMPL/inv_mpu_dmp_motion_driver.c ****   tmp[2] = (unsigned char)((count >> 8) & 0xFF);
1003:user/drivers/DMP/driver/eMPL/inv_mpu_dmp_motion_driver.c ****   tmp[3] = (unsigned char)(count & 0xFF);
1004:user/drivers/DMP/driver/eMPL/inv_mpu_dmp_motion_driver.c ****   return mpu_write_mem(D_PEDSTD_STEPCTR, 4, tmp);
1005:user/drivers/DMP/driver/eMPL/inv_mpu_dmp_motion_driver.c **** }
1006:user/drivers/DMP/driver/eMPL/inv_mpu_dmp_motion_driver.c **** 
1007:user/drivers/DMP/driver/eMPL/inv_mpu_dmp_motion_driver.c **** /**
1008:user/drivers/DMP/driver/eMPL/inv_mpu_dmp_motion_driver.c ****  *  @brief      Get duration of walking time.
1009:user/drivers/DMP/driver/eMPL/inv_mpu_dmp_motion_driver.c ****  *  @param[in]  time    Walk time in milliseconds.
1010:user/drivers/DMP/driver/eMPL/inv_mpu_dmp_motion_driver.c ****  *  @return     0 if successful.
1011:user/drivers/DMP/driver/eMPL/inv_mpu_dmp_motion_driver.c ****  */
1012:user/drivers/DMP/driver/eMPL/inv_mpu_dmp_motion_driver.c **** int dmp_get_pedometer_walk_time(unsigned long *time) {
1013:user/drivers/DMP/driver/eMPL/inv_mpu_dmp_motion_driver.c ****   unsigned char tmp[4];
1014:user/drivers/DMP/driver/eMPL/inv_mpu_dmp_motion_driver.c ****   if (!time)
1015:user/drivers/DMP/driver/eMPL/inv_mpu_dmp_motion_driver.c ****     return -1;
1016:user/drivers/DMP/driver/eMPL/inv_mpu_dmp_motion_driver.c **** 
1017:user/drivers/DMP/driver/eMPL/inv_mpu_dmp_motion_driver.c ****   if (mpu_read_mem(D_PEDSTD_TIMECTR, 4, tmp))
1018:user/drivers/DMP/driver/eMPL/inv_mpu_dmp_motion_driver.c ****     return -1;
1019:user/drivers/DMP/driver/eMPL/inv_mpu_dmp_motion_driver.c **** 
1020:user/drivers/DMP/driver/eMPL/inv_mpu_dmp_motion_driver.c ****   time[0] = (((unsigned long)tmp[0] << 24) | ((unsigned long)tmp[1] << 16) |
1021:user/drivers/DMP/driver/eMPL/inv_mpu_dmp_motion_driver.c ****              ((unsigned long)tmp[2] << 8) | tmp[3]) *
1022:user/drivers/DMP/driver/eMPL/inv_mpu_dmp_motion_driver.c ****             20;
1023:user/drivers/DMP/driver/eMPL/inv_mpu_dmp_motion_driver.c ****   return 0;
1024:user/drivers/DMP/driver/eMPL/inv_mpu_dmp_motion_driver.c **** }
1025:user/drivers/DMP/driver/eMPL/inv_mpu_dmp_motion_driver.c **** 
1026:user/drivers/DMP/driver/eMPL/inv_mpu_dmp_motion_driver.c **** /**
1027:user/drivers/DMP/driver/eMPL/inv_mpu_dmp_motion_driver.c ****  *  @brief      Overwrite current walk time.
1028:user/drivers/DMP/driver/eMPL/inv_mpu_dmp_motion_driver.c ****  *  WARNING: This function writes to DMP memory and could potentially encounter
1029:user/drivers/DMP/driver/eMPL/inv_mpu_dmp_motion_driver.c ****  *  a race condition if called while the pedometer is enabled.
1030:user/drivers/DMP/driver/eMPL/inv_mpu_dmp_motion_driver.c ****  *  @param[in]  time    New walk time in milliseconds.
1031:user/drivers/DMP/driver/eMPL/inv_mpu_dmp_motion_driver.c ****  */
1032:user/drivers/DMP/driver/eMPL/inv_mpu_dmp_motion_driver.c **** int dmp_set_pedometer_walk_time(unsigned long time) {
1033:user/drivers/DMP/driver/eMPL/inv_mpu_dmp_motion_driver.c ****   unsigned char tmp[4];
1034:user/drivers/DMP/driver/eMPL/inv_mpu_dmp_motion_driver.c **** 
1035:user/drivers/DMP/driver/eMPL/inv_mpu_dmp_motion_driver.c ****   time /= 20;
1036:user/drivers/DMP/driver/eMPL/inv_mpu_dmp_motion_driver.c **** 
1037:user/drivers/DMP/driver/eMPL/inv_mpu_dmp_motion_driver.c ****   tmp[0] = (unsigned char)((time >> 24) & 0xFF);
1038:user/drivers/DMP/driver/eMPL/inv_mpu_dmp_motion_driver.c ****   tmp[1] = (unsigned char)((time >> 16) & 0xFF);
1039:user/drivers/DMP/driver/eMPL/inv_mpu_dmp_motion_driver.c ****   tmp[2] = (unsigned char)((time >> 8) & 0xFF);
1040:user/drivers/DMP/driver/eMPL/inv_mpu_dmp_motion_driver.c ****   tmp[3] = (unsigned char)(time & 0xFF);
1041:user/drivers/DMP/driver/eMPL/inv_mpu_dmp_motion_driver.c ****   return mpu_write_mem(D_PEDSTD_TIMECTR, 4, tmp);
1042:user/drivers/DMP/driver/eMPL/inv_mpu_dmp_motion_driver.c **** }
1043:user/drivers/DMP/driver/eMPL/inv_mpu_dmp_motion_driver.c **** 
1044:user/drivers/DMP/driver/eMPL/inv_mpu_dmp_motion_driver.c **** /**
1045:user/drivers/DMP/driver/eMPL/inv_mpu_dmp_motion_driver.c ****  *  @brief      Enable DMP features.
1046:user/drivers/DMP/driver/eMPL/inv_mpu_dmp_motion_driver.c ****  *  The following \#define's are used in the input mask:
1047:user/drivers/DMP/driver/eMPL/inv_mpu_dmp_motion_driver.c ****  *  \n DMP_FEATURE_TAP
1048:user/drivers/DMP/driver/eMPL/inv_mpu_dmp_motion_driver.c ****  *  \n DMP_FEATURE_ANDROID_ORIENT
1049:user/drivers/DMP/driver/eMPL/inv_mpu_dmp_motion_driver.c ****  *  \n DMP_FEATURE_LP_QUAT
1050:user/drivers/DMP/driver/eMPL/inv_mpu_dmp_motion_driver.c ****  *  \n DMP_FEATURE_6X_LP_QUAT
1051:user/drivers/DMP/driver/eMPL/inv_mpu_dmp_motion_driver.c ****  *  \n DMP_FEATURE_GYRO_CAL
1052:user/drivers/DMP/driver/eMPL/inv_mpu_dmp_motion_driver.c ****  *  \n DMP_FEATURE_SEND_RAW_ACCEL
1053:user/drivers/DMP/driver/eMPL/inv_mpu_dmp_motion_driver.c ****  *  \n DMP_FEATURE_SEND_RAW_GYRO
1054:user/drivers/DMP/driver/eMPL/inv_mpu_dmp_motion_driver.c ****  *  \n NOTE: DMP_FEATURE_LP_QUAT and DMP_FEATURE_6X_LP_QUAT are mutually
1055:user/drivers/DMP/driver/eMPL/inv_mpu_dmp_motion_driver.c ****  *  exclusive.
1056:user/drivers/DMP/driver/eMPL/inv_mpu_dmp_motion_driver.c ****  *  \n NOTE: DMP_FEATURE_SEND_RAW_GYRO and DMP_FEATURE_SEND_CAL_GYRO are also
ARM GAS  /var/folders/21/t9g5rlb91ys800n5npymflf80000gn/T//ccsHZoWN.s 			page 20


1057:user/drivers/DMP/driver/eMPL/inv_mpu_dmp_motion_driver.c ****  *  mutually exclusive.
1058:user/drivers/DMP/driver/eMPL/inv_mpu_dmp_motion_driver.c ****  *  @param[in]  mask    Mask of features to enable.
1059:user/drivers/DMP/driver/eMPL/inv_mpu_dmp_motion_driver.c ****  *  @return     0 if successful.
1060:user/drivers/DMP/driver/eMPL/inv_mpu_dmp_motion_driver.c ****  */
1061:user/drivers/DMP/driver/eMPL/inv_mpu_dmp_motion_driver.c **** int dmp_enable_feature(unsigned short mask) {
1062:user/drivers/DMP/driver/eMPL/inv_mpu_dmp_motion_driver.c ****   unsigned char tmp[10];
1063:user/drivers/DMP/driver/eMPL/inv_mpu_dmp_motion_driver.c **** 
1064:user/drivers/DMP/driver/eMPL/inv_mpu_dmp_motion_driver.c ****   /* TODO: All of these settings can probably be integrated into the default
1065:user/drivers/DMP/driver/eMPL/inv_mpu_dmp_motion_driver.c ****    * DMP image.
1066:user/drivers/DMP/driver/eMPL/inv_mpu_dmp_motion_driver.c ****    */
1067:user/drivers/DMP/driver/eMPL/inv_mpu_dmp_motion_driver.c ****   /* Set integration scale factor. */
1068:user/drivers/DMP/driver/eMPL/inv_mpu_dmp_motion_driver.c ****   tmp[0] = (unsigned char)((GYRO_SF >> 24) & 0xFF);
1069:user/drivers/DMP/driver/eMPL/inv_mpu_dmp_motion_driver.c ****   tmp[1] = (unsigned char)((GYRO_SF >> 16) & 0xFF);
1070:user/drivers/DMP/driver/eMPL/inv_mpu_dmp_motion_driver.c ****   tmp[2] = (unsigned char)((GYRO_SF >> 8) & 0xFF);
1071:user/drivers/DMP/driver/eMPL/inv_mpu_dmp_motion_driver.c ****   tmp[3] = (unsigned char)(GYRO_SF & 0xFF);
1072:user/drivers/DMP/driver/eMPL/inv_mpu_dmp_motion_driver.c ****   mpu_write_mem(D_0_104, 4, tmp);
1073:user/drivers/DMP/driver/eMPL/inv_mpu_dmp_motion_driver.c **** 
1074:user/drivers/DMP/driver/eMPL/inv_mpu_dmp_motion_driver.c ****   /* Send sensor data to the FIFO. */
1075:user/drivers/DMP/driver/eMPL/inv_mpu_dmp_motion_driver.c ****   tmp[0] = 0xA3;
1076:user/drivers/DMP/driver/eMPL/inv_mpu_dmp_motion_driver.c ****   if (mask & DMP_FEATURE_SEND_RAW_ACCEL) {
1077:user/drivers/DMP/driver/eMPL/inv_mpu_dmp_motion_driver.c ****     tmp[1] = 0xC0;
1078:user/drivers/DMP/driver/eMPL/inv_mpu_dmp_motion_driver.c ****     tmp[2] = 0xC8;
1079:user/drivers/DMP/driver/eMPL/inv_mpu_dmp_motion_driver.c ****     tmp[3] = 0xC2;
1080:user/drivers/DMP/driver/eMPL/inv_mpu_dmp_motion_driver.c ****   } else {
1081:user/drivers/DMP/driver/eMPL/inv_mpu_dmp_motion_driver.c ****     tmp[1] = 0xA3;
1082:user/drivers/DMP/driver/eMPL/inv_mpu_dmp_motion_driver.c ****     tmp[2] = 0xA3;
1083:user/drivers/DMP/driver/eMPL/inv_mpu_dmp_motion_driver.c ****     tmp[3] = 0xA3;
1084:user/drivers/DMP/driver/eMPL/inv_mpu_dmp_motion_driver.c ****   }
1085:user/drivers/DMP/driver/eMPL/inv_mpu_dmp_motion_driver.c ****   if (mask & DMP_FEATURE_SEND_ANY_GYRO) {
1086:user/drivers/DMP/driver/eMPL/inv_mpu_dmp_motion_driver.c ****     tmp[4] = 0xC4;
1087:user/drivers/DMP/driver/eMPL/inv_mpu_dmp_motion_driver.c ****     tmp[5] = 0xCC;
1088:user/drivers/DMP/driver/eMPL/inv_mpu_dmp_motion_driver.c ****     tmp[6] = 0xC6;
1089:user/drivers/DMP/driver/eMPL/inv_mpu_dmp_motion_driver.c ****   } else {
1090:user/drivers/DMP/driver/eMPL/inv_mpu_dmp_motion_driver.c ****     tmp[4] = 0xA3;
1091:user/drivers/DMP/driver/eMPL/inv_mpu_dmp_motion_driver.c ****     tmp[5] = 0xA3;
1092:user/drivers/DMP/driver/eMPL/inv_mpu_dmp_motion_driver.c ****     tmp[6] = 0xA3;
1093:user/drivers/DMP/driver/eMPL/inv_mpu_dmp_motion_driver.c ****   }
1094:user/drivers/DMP/driver/eMPL/inv_mpu_dmp_motion_driver.c ****   tmp[7] = 0xA3;
1095:user/drivers/DMP/driver/eMPL/inv_mpu_dmp_motion_driver.c ****   tmp[8] = 0xA3;
1096:user/drivers/DMP/driver/eMPL/inv_mpu_dmp_motion_driver.c ****   tmp[9] = 0xA3;
1097:user/drivers/DMP/driver/eMPL/inv_mpu_dmp_motion_driver.c ****   mpu_write_mem(CFG_15, 10, tmp);
1098:user/drivers/DMP/driver/eMPL/inv_mpu_dmp_motion_driver.c **** 
1099:user/drivers/DMP/driver/eMPL/inv_mpu_dmp_motion_driver.c ****   /* Send gesture data to the FIFO. */
1100:user/drivers/DMP/driver/eMPL/inv_mpu_dmp_motion_driver.c ****   if (mask & (DMP_FEATURE_TAP | DMP_FEATURE_ANDROID_ORIENT))
1101:user/drivers/DMP/driver/eMPL/inv_mpu_dmp_motion_driver.c ****     tmp[0] = DINA20;
1102:user/drivers/DMP/driver/eMPL/inv_mpu_dmp_motion_driver.c ****   else
1103:user/drivers/DMP/driver/eMPL/inv_mpu_dmp_motion_driver.c ****     tmp[0] = 0xD8;
1104:user/drivers/DMP/driver/eMPL/inv_mpu_dmp_motion_driver.c ****   mpu_write_mem(CFG_27, 1, tmp);
1105:user/drivers/DMP/driver/eMPL/inv_mpu_dmp_motion_driver.c **** 
1106:user/drivers/DMP/driver/eMPL/inv_mpu_dmp_motion_driver.c ****   if (mask & DMP_FEATURE_GYRO_CAL)
1107:user/drivers/DMP/driver/eMPL/inv_mpu_dmp_motion_driver.c ****     dmp_enable_gyro_cal(1);
1108:user/drivers/DMP/driver/eMPL/inv_mpu_dmp_motion_driver.c ****   else
1109:user/drivers/DMP/driver/eMPL/inv_mpu_dmp_motion_driver.c ****     dmp_enable_gyro_cal(0);
1110:user/drivers/DMP/driver/eMPL/inv_mpu_dmp_motion_driver.c **** 
1111:user/drivers/DMP/driver/eMPL/inv_mpu_dmp_motion_driver.c ****   if (mask & DMP_FEATURE_SEND_ANY_GYRO) {
1112:user/drivers/DMP/driver/eMPL/inv_mpu_dmp_motion_driver.c ****     if (mask & DMP_FEATURE_SEND_CAL_GYRO) {
1113:user/drivers/DMP/driver/eMPL/inv_mpu_dmp_motion_driver.c ****       tmp[0] = 0xB2;
ARM GAS  /var/folders/21/t9g5rlb91ys800n5npymflf80000gn/T//ccsHZoWN.s 			page 21


1114:user/drivers/DMP/driver/eMPL/inv_mpu_dmp_motion_driver.c ****       tmp[1] = 0x8B;
1115:user/drivers/DMP/driver/eMPL/inv_mpu_dmp_motion_driver.c ****       tmp[2] = 0xB6;
1116:user/drivers/DMP/driver/eMPL/inv_mpu_dmp_motion_driver.c ****       tmp[3] = 0x9B;
1117:user/drivers/DMP/driver/eMPL/inv_mpu_dmp_motion_driver.c ****     } else {
1118:user/drivers/DMP/driver/eMPL/inv_mpu_dmp_motion_driver.c ****       tmp[0] = DINAC0;
1119:user/drivers/DMP/driver/eMPL/inv_mpu_dmp_motion_driver.c ****       tmp[1] = DINA80;
1120:user/drivers/DMP/driver/eMPL/inv_mpu_dmp_motion_driver.c ****       tmp[2] = DINAC2;
1121:user/drivers/DMP/driver/eMPL/inv_mpu_dmp_motion_driver.c ****       tmp[3] = DINA90;
1122:user/drivers/DMP/driver/eMPL/inv_mpu_dmp_motion_driver.c ****     }
1123:user/drivers/DMP/driver/eMPL/inv_mpu_dmp_motion_driver.c ****     mpu_write_mem(CFG_GYRO_RAW_DATA, 4, tmp);
1124:user/drivers/DMP/driver/eMPL/inv_mpu_dmp_motion_driver.c ****   }
1125:user/drivers/DMP/driver/eMPL/inv_mpu_dmp_motion_driver.c **** 
1126:user/drivers/DMP/driver/eMPL/inv_mpu_dmp_motion_driver.c ****   if (mask & DMP_FEATURE_TAP) {
1127:user/drivers/DMP/driver/eMPL/inv_mpu_dmp_motion_driver.c ****     /* Enable tap. */
1128:user/drivers/DMP/driver/eMPL/inv_mpu_dmp_motion_driver.c ****     tmp[0] = 0xF8;
1129:user/drivers/DMP/driver/eMPL/inv_mpu_dmp_motion_driver.c ****     mpu_write_mem(CFG_20, 1, tmp);
1130:user/drivers/DMP/driver/eMPL/inv_mpu_dmp_motion_driver.c ****     dmp_set_tap_thresh(TAP_XYZ, 250);
1131:user/drivers/DMP/driver/eMPL/inv_mpu_dmp_motion_driver.c ****     dmp_set_tap_axes(TAP_XYZ);
1132:user/drivers/DMP/driver/eMPL/inv_mpu_dmp_motion_driver.c ****     dmp_set_tap_count(1);
1133:user/drivers/DMP/driver/eMPL/inv_mpu_dmp_motion_driver.c ****     dmp_set_tap_time(100);
1134:user/drivers/DMP/driver/eMPL/inv_mpu_dmp_motion_driver.c ****     dmp_set_tap_time_multi(500);
1135:user/drivers/DMP/driver/eMPL/inv_mpu_dmp_motion_driver.c **** 
1136:user/drivers/DMP/driver/eMPL/inv_mpu_dmp_motion_driver.c ****     dmp_set_shake_reject_thresh(GYRO_SF, 200);
1137:user/drivers/DMP/driver/eMPL/inv_mpu_dmp_motion_driver.c ****     dmp_set_shake_reject_time(40);
1138:user/drivers/DMP/driver/eMPL/inv_mpu_dmp_motion_driver.c ****     dmp_set_shake_reject_timeout(10);
1139:user/drivers/DMP/driver/eMPL/inv_mpu_dmp_motion_driver.c ****   } else {
1140:user/drivers/DMP/driver/eMPL/inv_mpu_dmp_motion_driver.c ****     tmp[0] = 0xD8;
1141:user/drivers/DMP/driver/eMPL/inv_mpu_dmp_motion_driver.c ****     mpu_write_mem(CFG_20, 1, tmp);
1142:user/drivers/DMP/driver/eMPL/inv_mpu_dmp_motion_driver.c ****   }
1143:user/drivers/DMP/driver/eMPL/inv_mpu_dmp_motion_driver.c **** 
1144:user/drivers/DMP/driver/eMPL/inv_mpu_dmp_motion_driver.c ****   if (mask & DMP_FEATURE_ANDROID_ORIENT) {
1145:user/drivers/DMP/driver/eMPL/inv_mpu_dmp_motion_driver.c ****     tmp[0] = 0xD9;
1146:user/drivers/DMP/driver/eMPL/inv_mpu_dmp_motion_driver.c ****   } else
1147:user/drivers/DMP/driver/eMPL/inv_mpu_dmp_motion_driver.c ****     tmp[0] = 0xD8;
1148:user/drivers/DMP/driver/eMPL/inv_mpu_dmp_motion_driver.c ****   mpu_write_mem(CFG_ANDROID_ORIENT_INT, 1, tmp);
1149:user/drivers/DMP/driver/eMPL/inv_mpu_dmp_motion_driver.c **** 
1150:user/drivers/DMP/driver/eMPL/inv_mpu_dmp_motion_driver.c ****   if (mask & DMP_FEATURE_LP_QUAT)
1151:user/drivers/DMP/driver/eMPL/inv_mpu_dmp_motion_driver.c ****     dmp_enable_lp_quat(1);
1152:user/drivers/DMP/driver/eMPL/inv_mpu_dmp_motion_driver.c ****   else
1153:user/drivers/DMP/driver/eMPL/inv_mpu_dmp_motion_driver.c ****     dmp_enable_lp_quat(0);
1154:user/drivers/DMP/driver/eMPL/inv_mpu_dmp_motion_driver.c **** 
1155:user/drivers/DMP/driver/eMPL/inv_mpu_dmp_motion_driver.c ****   if (mask & DMP_FEATURE_6X_LP_QUAT)
1156:user/drivers/DMP/driver/eMPL/inv_mpu_dmp_motion_driver.c ****     dmp_enable_6x_lp_quat(1);
1157:user/drivers/DMP/driver/eMPL/inv_mpu_dmp_motion_driver.c ****   else
1158:user/drivers/DMP/driver/eMPL/inv_mpu_dmp_motion_driver.c ****     dmp_enable_6x_lp_quat(0);
1159:user/drivers/DMP/driver/eMPL/inv_mpu_dmp_motion_driver.c **** 
1160:user/drivers/DMP/driver/eMPL/inv_mpu_dmp_motion_driver.c ****   /* Pedometer is always enabled. */
1161:user/drivers/DMP/driver/eMPL/inv_mpu_dmp_motion_driver.c ****   dmp.feature_mask = mask | DMP_FEATURE_PEDOMETER;
1162:user/drivers/DMP/driver/eMPL/inv_mpu_dmp_motion_driver.c ****   mpu_reset_fifo();
1163:user/drivers/DMP/driver/eMPL/inv_mpu_dmp_motion_driver.c **** 
1164:user/drivers/DMP/driver/eMPL/inv_mpu_dmp_motion_driver.c ****   dmp.packet_length = 0;
1165:user/drivers/DMP/driver/eMPL/inv_mpu_dmp_motion_driver.c ****   if (mask & DMP_FEATURE_SEND_RAW_ACCEL)
1166:user/drivers/DMP/driver/eMPL/inv_mpu_dmp_motion_driver.c ****     dmp.packet_length += 6;
1167:user/drivers/DMP/driver/eMPL/inv_mpu_dmp_motion_driver.c ****   if (mask & DMP_FEATURE_SEND_ANY_GYRO)
1168:user/drivers/DMP/driver/eMPL/inv_mpu_dmp_motion_driver.c ****     dmp.packet_length += 6;
1169:user/drivers/DMP/driver/eMPL/inv_mpu_dmp_motion_driver.c ****   if (mask & (DMP_FEATURE_LP_QUAT | DMP_FEATURE_6X_LP_QUAT))
1170:user/drivers/DMP/driver/eMPL/inv_mpu_dmp_motion_driver.c ****     dmp.packet_length += 16;
ARM GAS  /var/folders/21/t9g5rlb91ys800n5npymflf80000gn/T//ccsHZoWN.s 			page 22


1171:user/drivers/DMP/driver/eMPL/inv_mpu_dmp_motion_driver.c ****   if (mask & (DMP_FEATURE_TAP | DMP_FEATURE_ANDROID_ORIENT))
1172:user/drivers/DMP/driver/eMPL/inv_mpu_dmp_motion_driver.c ****     dmp.packet_length += 4;
1173:user/drivers/DMP/driver/eMPL/inv_mpu_dmp_motion_driver.c **** 
1174:user/drivers/DMP/driver/eMPL/inv_mpu_dmp_motion_driver.c ****   return 0;
1175:user/drivers/DMP/driver/eMPL/inv_mpu_dmp_motion_driver.c **** }
1176:user/drivers/DMP/driver/eMPL/inv_mpu_dmp_motion_driver.c **** 
1177:user/drivers/DMP/driver/eMPL/inv_mpu_dmp_motion_driver.c **** /**
1178:user/drivers/DMP/driver/eMPL/inv_mpu_dmp_motion_driver.c ****  *  @brief      Get list of currently enabled DMP features.
1179:user/drivers/DMP/driver/eMPL/inv_mpu_dmp_motion_driver.c ****  *  @param[out] Mask of enabled features.
1180:user/drivers/DMP/driver/eMPL/inv_mpu_dmp_motion_driver.c ****  *  @return     0 if successful.
1181:user/drivers/DMP/driver/eMPL/inv_mpu_dmp_motion_driver.c ****  */
1182:user/drivers/DMP/driver/eMPL/inv_mpu_dmp_motion_driver.c **** int dmp_get_enabled_features(unsigned short *mask) {
1183:user/drivers/DMP/driver/eMPL/inv_mpu_dmp_motion_driver.c ****   mask[0] = dmp.feature_mask;
1184:user/drivers/DMP/driver/eMPL/inv_mpu_dmp_motion_driver.c ****   return 0;
1185:user/drivers/DMP/driver/eMPL/inv_mpu_dmp_motion_driver.c **** }
1186:user/drivers/DMP/driver/eMPL/inv_mpu_dmp_motion_driver.c **** 
1187:user/drivers/DMP/driver/eMPL/inv_mpu_dmp_motion_driver.c **** /**
1188:user/drivers/DMP/driver/eMPL/inv_mpu_dmp_motion_driver.c ****  *  @brief      Calibrate the gyro data in the DMP.
1189:user/drivers/DMP/driver/eMPL/inv_mpu_dmp_motion_driver.c ****  *  After eight seconds of no motion, the DMP will compute gyro biases and
1190:user/drivers/DMP/driver/eMPL/inv_mpu_dmp_motion_driver.c ****  *  subtract them from the quaternion output. If @e dmp_enable_feature is
1191:user/drivers/DMP/driver/eMPL/inv_mpu_dmp_motion_driver.c ****  *  called with @e DMP_FEATURE_SEND_CAL_GYRO, the biases will also be
1192:user/drivers/DMP/driver/eMPL/inv_mpu_dmp_motion_driver.c ****  *  subtracted from the gyro output.
1193:user/drivers/DMP/driver/eMPL/inv_mpu_dmp_motion_driver.c ****  *  @param[in]  enable  1 to enable gyro calibration.
1194:user/drivers/DMP/driver/eMPL/inv_mpu_dmp_motion_driver.c ****  *  @return     0 if successful.
1195:user/drivers/DMP/driver/eMPL/inv_mpu_dmp_motion_driver.c ****  */
1196:user/drivers/DMP/driver/eMPL/inv_mpu_dmp_motion_driver.c **** int dmp_enable_gyro_cal(unsigned char enable) {
1197:user/drivers/DMP/driver/eMPL/inv_mpu_dmp_motion_driver.c ****   if (enable) {
1198:user/drivers/DMP/driver/eMPL/inv_mpu_dmp_motion_driver.c ****     unsigned char regs[9] = {0xb8, 0xaa, 0xb3, 0x8d, 0xb4,
1199:user/drivers/DMP/driver/eMPL/inv_mpu_dmp_motion_driver.c ****                              0x98, 0x0d, 0x35, 0x5d};
1200:user/drivers/DMP/driver/eMPL/inv_mpu_dmp_motion_driver.c ****     return mpu_write_mem(CFG_MOTION_BIAS, 9, regs);
1201:user/drivers/DMP/driver/eMPL/inv_mpu_dmp_motion_driver.c ****   } else {
1202:user/drivers/DMP/driver/eMPL/inv_mpu_dmp_motion_driver.c ****     unsigned char regs[9] = {0xb8, 0xaa, 0xaa, 0xaa, 0xb0,
1203:user/drivers/DMP/driver/eMPL/inv_mpu_dmp_motion_driver.c ****                              0x88, 0xc3, 0xc5, 0xc7};
1204:user/drivers/DMP/driver/eMPL/inv_mpu_dmp_motion_driver.c ****     return mpu_write_mem(CFG_MOTION_BIAS, 9, regs);
1205:user/drivers/DMP/driver/eMPL/inv_mpu_dmp_motion_driver.c ****   }
1206:user/drivers/DMP/driver/eMPL/inv_mpu_dmp_motion_driver.c **** }
1207:user/drivers/DMP/driver/eMPL/inv_mpu_dmp_motion_driver.c **** 
1208:user/drivers/DMP/driver/eMPL/inv_mpu_dmp_motion_driver.c **** /**
1209:user/drivers/DMP/driver/eMPL/inv_mpu_dmp_motion_driver.c ****  *  @brief      Generate 3-axis quaternions from the DMP.
1210:user/drivers/DMP/driver/eMPL/inv_mpu_dmp_motion_driver.c ****  *  In this driver, the 3-axis and 6-axis DMP quaternion features are mutually
1211:user/drivers/DMP/driver/eMPL/inv_mpu_dmp_motion_driver.c ****  *  exclusive.
1212:user/drivers/DMP/driver/eMPL/inv_mpu_dmp_motion_driver.c ****  *  @param[in]  enable  1 to enable 3-axis quaternion.
1213:user/drivers/DMP/driver/eMPL/inv_mpu_dmp_motion_driver.c ****  *  @return     0 if successful.
1214:user/drivers/DMP/driver/eMPL/inv_mpu_dmp_motion_driver.c ****  */
1215:user/drivers/DMP/driver/eMPL/inv_mpu_dmp_motion_driver.c **** int dmp_enable_lp_quat(unsigned char enable) {
1216:user/drivers/DMP/driver/eMPL/inv_mpu_dmp_motion_driver.c ****   unsigned char regs[4];
1217:user/drivers/DMP/driver/eMPL/inv_mpu_dmp_motion_driver.c ****   if (enable) {
1218:user/drivers/DMP/driver/eMPL/inv_mpu_dmp_motion_driver.c ****     regs[0] = DINBC0;
1219:user/drivers/DMP/driver/eMPL/inv_mpu_dmp_motion_driver.c ****     regs[1] = DINBC2;
1220:user/drivers/DMP/driver/eMPL/inv_mpu_dmp_motion_driver.c ****     regs[2] = DINBC4;
1221:user/drivers/DMP/driver/eMPL/inv_mpu_dmp_motion_driver.c ****     regs[3] = DINBC6;
1222:user/drivers/DMP/driver/eMPL/inv_mpu_dmp_motion_driver.c ****   } else
1223:user/drivers/DMP/driver/eMPL/inv_mpu_dmp_motion_driver.c ****     memset(regs, 0x8B, 4);
1224:user/drivers/DMP/driver/eMPL/inv_mpu_dmp_motion_driver.c **** 
1225:user/drivers/DMP/driver/eMPL/inv_mpu_dmp_motion_driver.c ****   mpu_write_mem(CFG_LP_QUAT, 4, regs);
1226:user/drivers/DMP/driver/eMPL/inv_mpu_dmp_motion_driver.c **** 
1227:user/drivers/DMP/driver/eMPL/inv_mpu_dmp_motion_driver.c ****   return mpu_reset_fifo();
ARM GAS  /var/folders/21/t9g5rlb91ys800n5npymflf80000gn/T//ccsHZoWN.s 			page 23


1228:user/drivers/DMP/driver/eMPL/inv_mpu_dmp_motion_driver.c **** }
1229:user/drivers/DMP/driver/eMPL/inv_mpu_dmp_motion_driver.c **** 
1230:user/drivers/DMP/driver/eMPL/inv_mpu_dmp_motion_driver.c **** /**
1231:user/drivers/DMP/driver/eMPL/inv_mpu_dmp_motion_driver.c ****  *  @brief       Generate 6-axis quaternions from the DMP.
1232:user/drivers/DMP/driver/eMPL/inv_mpu_dmp_motion_driver.c ****  *  In this driver, the 3-axis and 6-axis DMP quaternion features are mutually
1233:user/drivers/DMP/driver/eMPL/inv_mpu_dmp_motion_driver.c ****  *  exclusive.
1234:user/drivers/DMP/driver/eMPL/inv_mpu_dmp_motion_driver.c ****  *  @param[in]   enable  1 to enable 6-axis quaternion.
1235:user/drivers/DMP/driver/eMPL/inv_mpu_dmp_motion_driver.c ****  *  @return      0 if successful.
1236:user/drivers/DMP/driver/eMPL/inv_mpu_dmp_motion_driver.c ****  */
1237:user/drivers/DMP/driver/eMPL/inv_mpu_dmp_motion_driver.c **** int dmp_enable_6x_lp_quat(unsigned char enable) {
1238:user/drivers/DMP/driver/eMPL/inv_mpu_dmp_motion_driver.c ****   unsigned char regs[4];
1239:user/drivers/DMP/driver/eMPL/inv_mpu_dmp_motion_driver.c ****   if (enable) {
1240:user/drivers/DMP/driver/eMPL/inv_mpu_dmp_motion_driver.c ****     regs[0] = DINA20;
1241:user/drivers/DMP/driver/eMPL/inv_mpu_dmp_motion_driver.c ****     regs[1] = DINA28;
1242:user/drivers/DMP/driver/eMPL/inv_mpu_dmp_motion_driver.c ****     regs[2] = DINA30;
1243:user/drivers/DMP/driver/eMPL/inv_mpu_dmp_motion_driver.c ****     regs[3] = DINA38;
1244:user/drivers/DMP/driver/eMPL/inv_mpu_dmp_motion_driver.c ****   } else
1245:user/drivers/DMP/driver/eMPL/inv_mpu_dmp_motion_driver.c ****     memset(regs, 0xA3, 4);
1246:user/drivers/DMP/driver/eMPL/inv_mpu_dmp_motion_driver.c **** 
1247:user/drivers/DMP/driver/eMPL/inv_mpu_dmp_motion_driver.c ****   mpu_write_mem(CFG_8, 4, regs);
1248:user/drivers/DMP/driver/eMPL/inv_mpu_dmp_motion_driver.c **** 
1249:user/drivers/DMP/driver/eMPL/inv_mpu_dmp_motion_driver.c ****   return mpu_reset_fifo();
1250:user/drivers/DMP/driver/eMPL/inv_mpu_dmp_motion_driver.c **** }
1251:user/drivers/DMP/driver/eMPL/inv_mpu_dmp_motion_driver.c **** 
1252:user/drivers/DMP/driver/eMPL/inv_mpu_dmp_motion_driver.c **** /**
1253:user/drivers/DMP/driver/eMPL/inv_mpu_dmp_motion_driver.c ****  *  @brief      Decode the four-byte gesture data and execute any callbacks.
1254:user/drivers/DMP/driver/eMPL/inv_mpu_dmp_motion_driver.c ****  *  @param[in]  gesture Gesture data from DMP packet.
1255:user/drivers/DMP/driver/eMPL/inv_mpu_dmp_motion_driver.c ****  *  @return     0 if successful.
1256:user/drivers/DMP/driver/eMPL/inv_mpu_dmp_motion_driver.c ****  */
1257:user/drivers/DMP/driver/eMPL/inv_mpu_dmp_motion_driver.c **** static int decode_gesture(unsigned char *gesture) {
  29              		.loc 1 1257 51 view -0
  30              		.cfi_startproc
  31              		@ args = 0, pretend = 0, frame = 0
  32              		@ frame_needed = 0, uses_anonymous_args = 0
  33              		.loc 1 1257 51 is_stmt 0 view .LVU1
  34 0000 38B5     		push	{r3, r4, r5, lr}
  35              	.LCFI0:
  36              		.cfi_def_cfa_offset 16
  37              		.cfi_offset 3, -16
  38              		.cfi_offset 4, -12
  39              		.cfi_offset 5, -8
  40              		.cfi_offset 14, -4
  41 0002 0446     		mov	r4, r0
1258:user/drivers/DMP/driver/eMPL/inv_mpu_dmp_motion_driver.c ****   unsigned char tap, android_orient;
  42              		.loc 1 1258 3 is_stmt 1 view .LVU2
1259:user/drivers/DMP/driver/eMPL/inv_mpu_dmp_motion_driver.c **** 
1260:user/drivers/DMP/driver/eMPL/inv_mpu_dmp_motion_driver.c ****   android_orient = gesture[3] & 0xC0;
  43              		.loc 1 1260 3 view .LVU3
  44              		.loc 1 1260 27 is_stmt 0 view .LVU4
  45 0004 C578     		ldrb	r5, [r0, #3]	@ zero_extendqisi2
  46              	.LVL1:
1261:user/drivers/DMP/driver/eMPL/inv_mpu_dmp_motion_driver.c ****   tap = 0x3F & gesture[3];
  47              		.loc 1 1261 3 is_stmt 1 view .LVU5
1262:user/drivers/DMP/driver/eMPL/inv_mpu_dmp_motion_driver.c **** 
1263:user/drivers/DMP/driver/eMPL/inv_mpu_dmp_motion_driver.c ****   if (gesture[1] & INT_SRC_TAP) {
  48              		.loc 1 1263 3 view .LVU6
  49              		.loc 1 1263 14 is_stmt 0 view .LVU7
ARM GAS  /var/folders/21/t9g5rlb91ys800n5npymflf80000gn/T//ccsHZoWN.s 			page 24


  50 0006 4378     		ldrb	r3, [r0, #1]	@ zero_extendqisi2
  51              		.loc 1 1263 6 view .LVU8
  52 0008 13F0010F 		tst	r3, #1
  53 000c 09D0     		beq	.L2
  54 000e 05F03F00 		and	r0, r5, #63
  55              	.LVL2:
  56              	.LBB2:
1264:user/drivers/DMP/driver/eMPL/inv_mpu_dmp_motion_driver.c ****     unsigned char direction, count;
  57              		.loc 1 1264 5 is_stmt 1 view .LVU9
1265:user/drivers/DMP/driver/eMPL/inv_mpu_dmp_motion_driver.c ****     direction = tap >> 3;
  58              		.loc 1 1265 5 view .LVU10
  59              		.loc 1 1265 15 is_stmt 0 view .LVU11
  60 0012 C008     		lsrs	r0, r0, #3
  61              	.LVL3:
1266:user/drivers/DMP/driver/eMPL/inv_mpu_dmp_motion_driver.c ****     count = (tap % 8) + 1;
  62              		.loc 1 1266 5 is_stmt 1 view .LVU12
  63              		.loc 1 1266 18 is_stmt 0 view .LVU13
  64 0014 05F00701 		and	r1, r5, #7
  65              		.loc 1 1266 11 view .LVU14
  66 0018 0131     		adds	r1, r1, #1
  67              	.LVL4:
1267:user/drivers/DMP/driver/eMPL/inv_mpu_dmp_motion_driver.c ****     if (dmp.tap_cb)
  68              		.loc 1 1267 5 is_stmt 1 view .LVU15
  69              		.loc 1 1267 12 is_stmt 0 view .LVU16
  70 001a 074B     		ldr	r3, .L5
  71 001c 1B68     		ldr	r3, [r3]
  72              		.loc 1 1267 8 view .LVU17
  73 001e 03B1     		cbz	r3, .L2
1268:user/drivers/DMP/driver/eMPL/inv_mpu_dmp_motion_driver.c ****       dmp.tap_cb(direction, count);
  74              		.loc 1 1268 7 is_stmt 1 view .LVU18
  75 0020 9847     		blx	r3
  76              	.LVL5:
  77              	.L2:
  78              		.loc 1 1268 7 is_stmt 0 view .LVU19
  79              	.LBE2:
1269:user/drivers/DMP/driver/eMPL/inv_mpu_dmp_motion_driver.c ****   }
1270:user/drivers/DMP/driver/eMPL/inv_mpu_dmp_motion_driver.c **** 
1271:user/drivers/DMP/driver/eMPL/inv_mpu_dmp_motion_driver.c ****   if (gesture[1] & INT_SRC_ANDROID_ORIENT) {
  80              		.loc 1 1271 3 is_stmt 1 view .LVU20
  81              		.loc 1 1271 14 is_stmt 0 view .LVU21
  82 0022 6378     		ldrb	r3, [r4, #1]	@ zero_extendqisi2
  83              		.loc 1 1271 6 view .LVU22
  84 0024 13F0080F 		tst	r3, #8
  85 0028 04D0     		beq	.L3
1272:user/drivers/DMP/driver/eMPL/inv_mpu_dmp_motion_driver.c ****     if (dmp.android_orient_cb)
  86              		.loc 1 1272 5 is_stmt 1 view .LVU23
  87              		.loc 1 1272 12 is_stmt 0 view .LVU24
  88 002a 034B     		ldr	r3, .L5
  89 002c 5B68     		ldr	r3, [r3, #4]
  90              		.loc 1 1272 8 view .LVU25
  91 002e 0BB1     		cbz	r3, .L3
1273:user/drivers/DMP/driver/eMPL/inv_mpu_dmp_motion_driver.c ****       dmp.android_orient_cb(android_orient >> 6);
  92              		.loc 1 1273 7 is_stmt 1 view .LVU26
  93 0030 A809     		lsrs	r0, r5, #6
  94 0032 9847     		blx	r3
  95              	.LVL6:
  96              	.L3:
ARM GAS  /var/folders/21/t9g5rlb91ys800n5npymflf80000gn/T//ccsHZoWN.s 			page 25


1274:user/drivers/DMP/driver/eMPL/inv_mpu_dmp_motion_driver.c ****   }
1275:user/drivers/DMP/driver/eMPL/inv_mpu_dmp_motion_driver.c **** 
1276:user/drivers/DMP/driver/eMPL/inv_mpu_dmp_motion_driver.c ****   return 0;
  97              		.loc 1 1276 3 view .LVU27
1277:user/drivers/DMP/driver/eMPL/inv_mpu_dmp_motion_driver.c **** }
  98              		.loc 1 1277 1 is_stmt 0 view .LVU28
  99 0034 0020     		movs	r0, #0
 100 0036 38BD     		pop	{r3, r4, r5, pc}
 101              	.LVL7:
 102              	.L6:
 103              		.loc 1 1277 1 view .LVU29
 104              		.align	2
 105              	.L5:
 106 0038 00000000 		.word	dmp
 107              		.cfi_endproc
 108              	.LFE184:
 110              		.section	.text.dmp_load_motion_driver_firmware,"ax",%progbits
 111              		.align	1
 112              		.global	dmp_load_motion_driver_firmware
 113              		.syntax unified
 114              		.thumb
 115              		.thumb_func
 117              	dmp_load_motion_driver_firmware:
 118              	.LFB161:
 586:user/drivers/DMP/driver/eMPL/inv_mpu_dmp_motion_driver.c ****   return mpu_load_firmware(DMP_CODE_SIZE, dmp_memory, sStartAddress,
 119              		.loc 1 586 43 is_stmt 1 view -0
 120              		.cfi_startproc
 121              		@ args = 0, pretend = 0, frame = 0
 122              		@ frame_needed = 0, uses_anonymous_args = 0
 123 0000 08B5     		push	{r3, lr}
 124              	.LCFI1:
 125              		.cfi_def_cfa_offset 8
 126              		.cfi_offset 3, -8
 127              		.cfi_offset 14, -4
 587:user/drivers/DMP/driver/eMPL/inv_mpu_dmp_motion_driver.c ****                            DMP_SAMPLE_RATE);
 128              		.loc 1 587 3 view .LVU31
 587:user/drivers/DMP/driver/eMPL/inv_mpu_dmp_motion_driver.c ****                            DMP_SAMPLE_RATE);
 129              		.loc 1 587 10 is_stmt 0 view .LVU32
 130 0002 C823     		movs	r3, #200
 131 0004 4FF48062 		mov	r2, #1024
 132 0008 0249     		ldr	r1, .L9
 133 000a 40F6F630 		movw	r0, #3062
 134 000e FFF7FEFF 		bl	mpu_load_firmware
 135              	.LVL8:
 589:user/drivers/DMP/driver/eMPL/inv_mpu_dmp_motion_driver.c **** 
 136              		.loc 1 589 1 view .LVU33
 137 0012 08BD     		pop	{r3, pc}
 138              	.L10:
 139              		.align	2
 140              	.L9:
 141 0014 00000000 		.word	dmp_memory
 142              		.cfi_endproc
 143              	.LFE161:
 145              		.section	.rodata.dmp_set_orientation.str1.4,"aMS",%progbits,1
 146              		.align	2
 147              	.LC0:
 148 0000 4CCD6C00 		.ascii	"L\315l\000"
ARM GAS  /var/folders/21/t9g5rlb91ys800n5npymflf80000gn/T//ccsHZoWN.s 			page 26


 149              		.align	2
 150              	.LC1:
 151 0004 0CC92C00 		.ascii	"\014\311,\000"
 152              		.align	2
 153              	.LC2:
 154 0008 36567600 		.ascii	"6Vv\000"
 155              		.align	2
 156              	.LC3:
 157 000c 26466600 		.ascii	"&Ff\000"
 158              		.section	.text.dmp_set_orientation,"ax",%progbits
 159              		.align	1
 160              		.global	dmp_set_orientation
 161              		.syntax unified
 162              		.thumb
 163              		.thumb_func
 165              	dmp_set_orientation:
 166              	.LVL9:
 167              	.LFB162:
 598:user/drivers/DMP/driver/eMPL/inv_mpu_dmp_motion_driver.c ****   unsigned char gyro_regs[3], accel_regs[3];
 168              		.loc 1 598 48 is_stmt 1 view -0
 169              		.cfi_startproc
 170              		@ args = 0, pretend = 0, frame = 24
 171              		@ frame_needed = 0, uses_anonymous_args = 0
 598:user/drivers/DMP/driver/eMPL/inv_mpu_dmp_motion_driver.c ****   unsigned char gyro_regs[3], accel_regs[3];
 172              		.loc 1 598 48 is_stmt 0 view .LVU35
 173 0000 10B5     		push	{r4, lr}
 174              	.LCFI2:
 175              		.cfi_def_cfa_offset 8
 176              		.cfi_offset 4, -8
 177              		.cfi_offset 14, -4
 178 0002 86B0     		sub	sp, sp, #24
 179              	.LCFI3:
 180              		.cfi_def_cfa_offset 32
 181 0004 0446     		mov	r4, r0
 599:user/drivers/DMP/driver/eMPL/inv_mpu_dmp_motion_driver.c ****   const unsigned char gyro_axes[3] = {DINA4C, DINACD, DINA6C};
 182              		.loc 1 599 3 is_stmt 1 view .LVU36
 600:user/drivers/DMP/driver/eMPL/inv_mpu_dmp_motion_driver.c ****   const unsigned char accel_axes[3] = {DINA0C, DINAC9, DINA2C};
 183              		.loc 1 600 3 view .LVU37
 600:user/drivers/DMP/driver/eMPL/inv_mpu_dmp_motion_driver.c ****   const unsigned char accel_axes[3] = {DINA0C, DINAC9, DINA2C};
 184              		.loc 1 600 23 is_stmt 0 view .LVU38
 185 0006 4C4B     		ldr	r3, .L21
 186 0008 1B68     		ldr	r3, [r3]
 187 000a ADF80C30 		strh	r3, [sp, #12]	@ movhi
 188 000e 1B0C     		lsrs	r3, r3, #16
 189 0010 8DF80E30 		strb	r3, [sp, #14]
 601:user/drivers/DMP/driver/eMPL/inv_mpu_dmp_motion_driver.c ****   const unsigned char gyro_sign[3] = {DINA36, DINA56, DINA76};
 190              		.loc 1 601 3 is_stmt 1 view .LVU39
 601:user/drivers/DMP/driver/eMPL/inv_mpu_dmp_motion_driver.c ****   const unsigned char gyro_sign[3] = {DINA36, DINA56, DINA76};
 191              		.loc 1 601 23 is_stmt 0 view .LVU40
 192 0014 494B     		ldr	r3, .L21+4
 193 0016 1B68     		ldr	r3, [r3]
 194 0018 ADF80830 		strh	r3, [sp, #8]	@ movhi
 195 001c 1B0C     		lsrs	r3, r3, #16
 196 001e 8DF80A30 		strb	r3, [sp, #10]
 602:user/drivers/DMP/driver/eMPL/inv_mpu_dmp_motion_driver.c ****   const unsigned char accel_sign[3] = {DINA26, DINA46, DINA66};
 197              		.loc 1 602 3 is_stmt 1 view .LVU41
 602:user/drivers/DMP/driver/eMPL/inv_mpu_dmp_motion_driver.c ****   const unsigned char accel_sign[3] = {DINA26, DINA46, DINA66};
ARM GAS  /var/folders/21/t9g5rlb91ys800n5npymflf80000gn/T//ccsHZoWN.s 			page 27


 198              		.loc 1 602 23 is_stmt 0 view .LVU42
 199 0022 474B     		ldr	r3, .L21+8
 200 0024 1B68     		ldr	r3, [r3]
 201 0026 ADF80430 		strh	r3, [sp, #4]	@ movhi
 202 002a 1B0C     		lsrs	r3, r3, #16
 203 002c 8DF80630 		strb	r3, [sp, #6]
 603:user/drivers/DMP/driver/eMPL/inv_mpu_dmp_motion_driver.c **** 
 204              		.loc 1 603 3 is_stmt 1 view .LVU43
 603:user/drivers/DMP/driver/eMPL/inv_mpu_dmp_motion_driver.c **** 
 205              		.loc 1 603 23 is_stmt 0 view .LVU44
 206 0030 444B     		ldr	r3, .L21+12
 207 0032 1B68     		ldr	r3, [r3]
 208 0034 ADF80030 		strh	r3, [sp]	@ movhi
 209 0038 1B0C     		lsrs	r3, r3, #16
 210 003a 8DF80230 		strb	r3, [sp, #2]
 605:user/drivers/DMP/driver/eMPL/inv_mpu_dmp_motion_driver.c ****   gyro_regs[1] = gyro_axes[(orient >> 3) & 3];
 211              		.loc 1 605 3 is_stmt 1 view .LVU45
 605:user/drivers/DMP/driver/eMPL/inv_mpu_dmp_motion_driver.c ****   gyro_regs[1] = gyro_axes[(orient >> 3) & 3];
 212              		.loc 1 605 35 is_stmt 0 view .LVU46
 213 003e 00F00301 		and	r1, r0, #3
 605:user/drivers/DMP/driver/eMPL/inv_mpu_dmp_motion_driver.c ****   gyro_regs[1] = gyro_axes[(orient >> 3) & 3];
 214              		.loc 1 605 27 view .LVU47
 215 0042 01F11803 		add	r3, r1, #24
 216 0046 0DEB0301 		add	r1, sp, r3
 217 004a 11F80C3C 		ldrb	r3, [r1, #-12]	@ zero_extendqisi2
 605:user/drivers/DMP/driver/eMPL/inv_mpu_dmp_motion_driver.c ****   gyro_regs[1] = gyro_axes[(orient >> 3) & 3];
 218              		.loc 1 605 16 view .LVU48
 219 004e 8DF81430 		strb	r3, [sp, #20]
 606:user/drivers/DMP/driver/eMPL/inv_mpu_dmp_motion_driver.c ****   gyro_regs[2] = gyro_axes[(orient >> 6) & 3];
 220              		.loc 1 606 3 is_stmt 1 view .LVU49
 606:user/drivers/DMP/driver/eMPL/inv_mpu_dmp_motion_driver.c ****   gyro_regs[2] = gyro_axes[(orient >> 6) & 3];
 221              		.loc 1 606 42 is_stmt 0 view .LVU50
 222 0052 C0F3C102 		ubfx	r2, r0, #3, #2
 606:user/drivers/DMP/driver/eMPL/inv_mpu_dmp_motion_driver.c ****   gyro_regs[2] = gyro_axes[(orient >> 6) & 3];
 223              		.loc 1 606 27 view .LVU51
 224 0056 02F11803 		add	r3, r2, #24
 225 005a 0DEB0302 		add	r2, sp, r3
 226 005e 12F80C3C 		ldrb	r3, [r2, #-12]	@ zero_extendqisi2
 606:user/drivers/DMP/driver/eMPL/inv_mpu_dmp_motion_driver.c ****   gyro_regs[2] = gyro_axes[(orient >> 6) & 3];
 227              		.loc 1 606 16 view .LVU52
 228 0062 8DF81530 		strb	r3, [sp, #21]
 607:user/drivers/DMP/driver/eMPL/inv_mpu_dmp_motion_driver.c ****   accel_regs[0] = accel_axes[orient & 3];
 229              		.loc 1 607 3 is_stmt 1 view .LVU53
 607:user/drivers/DMP/driver/eMPL/inv_mpu_dmp_motion_driver.c ****   accel_regs[0] = accel_axes[orient & 3];
 230              		.loc 1 607 42 is_stmt 0 view .LVU54
 231 0066 C0F38113 		ubfx	r3, r0, #6, #2
 607:user/drivers/DMP/driver/eMPL/inv_mpu_dmp_motion_driver.c ****   accel_regs[0] = accel_axes[orient & 3];
 232              		.loc 1 607 27 view .LVU55
 233 006a 1833     		adds	r3, r3, #24
 234 006c 6B44     		add	r3, sp, r3
 235 006e 13F80C0C 		ldrb	r0, [r3, #-12]	@ zero_extendqisi2
 236              	.LVL10:
 607:user/drivers/DMP/driver/eMPL/inv_mpu_dmp_motion_driver.c ****   accel_regs[0] = accel_axes[orient & 3];
 237              		.loc 1 607 16 view .LVU56
 238 0072 8DF81600 		strb	r0, [sp, #22]
 608:user/drivers/DMP/driver/eMPL/inv_mpu_dmp_motion_driver.c ****   accel_regs[1] = accel_axes[(orient >> 3) & 3];
 239              		.loc 1 608 3 is_stmt 1 view .LVU57
ARM GAS  /var/folders/21/t9g5rlb91ys800n5npymflf80000gn/T//ccsHZoWN.s 			page 28


 608:user/drivers/DMP/driver/eMPL/inv_mpu_dmp_motion_driver.c ****   accel_regs[1] = accel_axes[(orient >> 3) & 3];
 240              		.loc 1 608 29 is_stmt 0 view .LVU58
 241 0076 11F8101C 		ldrb	r1, [r1, #-16]	@ zero_extendqisi2
 608:user/drivers/DMP/driver/eMPL/inv_mpu_dmp_motion_driver.c ****   accel_regs[1] = accel_axes[(orient >> 3) & 3];
 242              		.loc 1 608 17 view .LVU59
 243 007a 8DF81010 		strb	r1, [sp, #16]
 609:user/drivers/DMP/driver/eMPL/inv_mpu_dmp_motion_driver.c ****   accel_regs[2] = accel_axes[(orient >> 6) & 3];
 244              		.loc 1 609 3 is_stmt 1 view .LVU60
 609:user/drivers/DMP/driver/eMPL/inv_mpu_dmp_motion_driver.c ****   accel_regs[2] = accel_axes[(orient >> 6) & 3];
 245              		.loc 1 609 29 is_stmt 0 view .LVU61
 246 007e 12F8102C 		ldrb	r2, [r2, #-16]	@ zero_extendqisi2
 609:user/drivers/DMP/driver/eMPL/inv_mpu_dmp_motion_driver.c ****   accel_regs[2] = accel_axes[(orient >> 6) & 3];
 247              		.loc 1 609 17 view .LVU62
 248 0082 8DF81120 		strb	r2, [sp, #17]
 610:user/drivers/DMP/driver/eMPL/inv_mpu_dmp_motion_driver.c **** 
 249              		.loc 1 610 3 is_stmt 1 view .LVU63
 610:user/drivers/DMP/driver/eMPL/inv_mpu_dmp_motion_driver.c **** 
 250              		.loc 1 610 29 is_stmt 0 view .LVU64
 251 0086 13F8103C 		ldrb	r3, [r3, #-16]	@ zero_extendqisi2
 610:user/drivers/DMP/driver/eMPL/inv_mpu_dmp_motion_driver.c **** 
 252              		.loc 1 610 17 view .LVU65
 253 008a 8DF81230 		strb	r3, [sp, #18]
 613:user/drivers/DMP/driver/eMPL/inv_mpu_dmp_motion_driver.c ****     return -1;
 254              		.loc 1 613 3 is_stmt 1 view .LVU66
 613:user/drivers/DMP/driver/eMPL/inv_mpu_dmp_motion_driver.c ****     return -1;
 255              		.loc 1 613 7 is_stmt 0 view .LVU67
 256 008e 05AA     		add	r2, sp, #20
 257 0090 0321     		movs	r1, #3
 258 0092 40F22640 		movw	r0, #1062
 259 0096 FFF7FEFF 		bl	mpu_write_mem
 260              	.LVL11:
 613:user/drivers/DMP/driver/eMPL/inv_mpu_dmp_motion_driver.c ****     return -1;
 261              		.loc 1 613 6 view .LVU68
 262 009a 0028     		cmp	r0, #0
 263 009c 40D1     		bne	.L16
 615:user/drivers/DMP/driver/eMPL/inv_mpu_dmp_motion_driver.c ****     return -1;
 264              		.loc 1 615 3 is_stmt 1 view .LVU69
 615:user/drivers/DMP/driver/eMPL/inv_mpu_dmp_motion_driver.c ****     return -1;
 265              		.loc 1 615 7 is_stmt 0 view .LVU70
 266 009e 04AA     		add	r2, sp, #16
 267 00a0 0321     		movs	r1, #3
 268 00a2 40F22A40 		movw	r0, #1066
 269 00a6 FFF7FEFF 		bl	mpu_write_mem
 270              	.LVL12:
 615:user/drivers/DMP/driver/eMPL/inv_mpu_dmp_motion_driver.c ****     return -1;
 271              		.loc 1 615 6 view .LVU71
 272 00aa 0028     		cmp	r0, #0
 273 00ac 3BD1     		bne	.L17
 618:user/drivers/DMP/driver/eMPL/inv_mpu_dmp_motion_driver.c ****   memcpy(accel_regs, accel_sign, 3);
 274              		.loc 1 618 3 is_stmt 1 view .LVU72
 275 00ae 019B     		ldr	r3, [sp, #4]
 276 00b0 ADF81430 		strh	r3, [sp, #20]	@ movhi
 277 00b4 1B0C     		lsrs	r3, r3, #16
 278 00b6 8DF81630 		strb	r3, [sp, #22]
 619:user/drivers/DMP/driver/eMPL/inv_mpu_dmp_motion_driver.c ****   if (orient & 4) {
 279              		.loc 1 619 3 view .LVU73
 280 00ba 009B     		ldr	r3, [sp]
ARM GAS  /var/folders/21/t9g5rlb91ys800n5npymflf80000gn/T//ccsHZoWN.s 			page 29


 281 00bc ADF81030 		strh	r3, [sp, #16]	@ movhi
 282 00c0 1B0C     		lsrs	r3, r3, #16
 283 00c2 8DF81230 		strb	r3, [sp, #18]
 620:user/drivers/DMP/driver/eMPL/inv_mpu_dmp_motion_driver.c ****     gyro_regs[0] |= 1;
 284              		.loc 1 620 3 view .LVU74
 620:user/drivers/DMP/driver/eMPL/inv_mpu_dmp_motion_driver.c ****     gyro_regs[0] |= 1;
 285              		.loc 1 620 6 is_stmt 0 view .LVU75
 286 00c6 14F0040F 		tst	r4, #4
 287 00ca 05D0     		beq	.L13
 621:user/drivers/DMP/driver/eMPL/inv_mpu_dmp_motion_driver.c ****     accel_regs[0] |= 1;
 288              		.loc 1 621 5 is_stmt 1 view .LVU76
 621:user/drivers/DMP/driver/eMPL/inv_mpu_dmp_motion_driver.c ****     accel_regs[0] |= 1;
 289              		.loc 1 621 18 is_stmt 0 view .LVU77
 290 00cc 3723     		movs	r3, #55
 291 00ce 8DF81430 		strb	r3, [sp, #20]
 622:user/drivers/DMP/driver/eMPL/inv_mpu_dmp_motion_driver.c ****   }
 292              		.loc 1 622 5 is_stmt 1 view .LVU78
 622:user/drivers/DMP/driver/eMPL/inv_mpu_dmp_motion_driver.c ****   }
 293              		.loc 1 622 19 is_stmt 0 view .LVU79
 294 00d2 2723     		movs	r3, #39
 295 00d4 8DF81030 		strb	r3, [sp, #16]
 296              	.L13:
 624:user/drivers/DMP/driver/eMPL/inv_mpu_dmp_motion_driver.c ****     gyro_regs[1] |= 1;
 297              		.loc 1 624 3 is_stmt 1 view .LVU80
 624:user/drivers/DMP/driver/eMPL/inv_mpu_dmp_motion_driver.c ****     gyro_regs[1] |= 1;
 298              		.loc 1 624 6 is_stmt 0 view .LVU81
 299 00d8 14F0200F 		tst	r4, #32
 300 00dc 05D0     		beq	.L14
 625:user/drivers/DMP/driver/eMPL/inv_mpu_dmp_motion_driver.c ****     accel_regs[1] |= 1;
 301              		.loc 1 625 5 is_stmt 1 view .LVU82
 625:user/drivers/DMP/driver/eMPL/inv_mpu_dmp_motion_driver.c ****     accel_regs[1] |= 1;
 302              		.loc 1 625 18 is_stmt 0 view .LVU83
 303 00de 5723     		movs	r3, #87
 304 00e0 8DF81530 		strb	r3, [sp, #21]
 626:user/drivers/DMP/driver/eMPL/inv_mpu_dmp_motion_driver.c ****   }
 305              		.loc 1 626 5 is_stmt 1 view .LVU84
 626:user/drivers/DMP/driver/eMPL/inv_mpu_dmp_motion_driver.c ****   }
 306              		.loc 1 626 19 is_stmt 0 view .LVU85
 307 00e4 4723     		movs	r3, #71
 308 00e6 8DF81130 		strb	r3, [sp, #17]
 309              	.L14:
 628:user/drivers/DMP/driver/eMPL/inv_mpu_dmp_motion_driver.c ****     gyro_regs[2] |= 1;
 310              		.loc 1 628 3 is_stmt 1 view .LVU86
 628:user/drivers/DMP/driver/eMPL/inv_mpu_dmp_motion_driver.c ****     gyro_regs[2] |= 1;
 311              		.loc 1 628 6 is_stmt 0 view .LVU87
 312 00ea 14F4807F 		tst	r4, #256
 313 00ee 05D0     		beq	.L15
 629:user/drivers/DMP/driver/eMPL/inv_mpu_dmp_motion_driver.c ****     accel_regs[2] |= 1;
 314              		.loc 1 629 5 is_stmt 1 view .LVU88
 629:user/drivers/DMP/driver/eMPL/inv_mpu_dmp_motion_driver.c ****     accel_regs[2] |= 1;
 315              		.loc 1 629 18 is_stmt 0 view .LVU89
 316 00f0 7723     		movs	r3, #119
 317 00f2 8DF81630 		strb	r3, [sp, #22]
 630:user/drivers/DMP/driver/eMPL/inv_mpu_dmp_motion_driver.c ****   }
 318              		.loc 1 630 5 is_stmt 1 view .LVU90
 630:user/drivers/DMP/driver/eMPL/inv_mpu_dmp_motion_driver.c ****   }
 319              		.loc 1 630 19 is_stmt 0 view .LVU91
ARM GAS  /var/folders/21/t9g5rlb91ys800n5npymflf80000gn/T//ccsHZoWN.s 			page 30


 320 00f6 6723     		movs	r3, #103
 321 00f8 8DF81230 		strb	r3, [sp, #18]
 322              	.L15:
 634:user/drivers/DMP/driver/eMPL/inv_mpu_dmp_motion_driver.c ****     return -1;
 323              		.loc 1 634 3 is_stmt 1 view .LVU92
 634:user/drivers/DMP/driver/eMPL/inv_mpu_dmp_motion_driver.c ****     return -1;
 324              		.loc 1 634 7 is_stmt 0 view .LVU93
 325 00fc 05AA     		add	r2, sp, #20
 326 00fe 0321     		movs	r1, #3
 327 0100 4FF48860 		mov	r0, #1088
 328 0104 FFF7FEFF 		bl	mpu_write_mem
 329              	.LVL13:
 634:user/drivers/DMP/driver/eMPL/inv_mpu_dmp_motion_driver.c ****     return -1;
 330              		.loc 1 634 6 view .LVU94
 331 0108 80B9     		cbnz	r0, .L18
 636:user/drivers/DMP/driver/eMPL/inv_mpu_dmp_motion_driver.c ****     return -1;
 332              		.loc 1 636 3 is_stmt 1 view .LVU95
 636:user/drivers/DMP/driver/eMPL/inv_mpu_dmp_motion_driver.c ****     return -1;
 333              		.loc 1 636 7 is_stmt 0 view .LVU96
 334 010a 04AA     		add	r2, sp, #16
 335 010c 0321     		movs	r1, #3
 336 010e 40F23140 		movw	r0, #1073
 337 0112 FFF7FEFF 		bl	mpu_write_mem
 338              	.LVL14:
 636:user/drivers/DMP/driver/eMPL/inv_mpu_dmp_motion_driver.c ****     return -1;
 339              		.loc 1 636 6 view .LVU97
 340 0116 60B9     		cbnz	r0, .L19
 638:user/drivers/DMP/driver/eMPL/inv_mpu_dmp_motion_driver.c ****   return 0;
 341              		.loc 1 638 3 is_stmt 1 view .LVU98
 638:user/drivers/DMP/driver/eMPL/inv_mpu_dmp_motion_driver.c ****   return 0;
 342              		.loc 1 638 14 is_stmt 0 view .LVU99
 343 0118 0B4B     		ldr	r3, .L21+16
 344 011a 1C81     		strh	r4, [r3, #8]	@ movhi
 639:user/drivers/DMP/driver/eMPL/inv_mpu_dmp_motion_driver.c **** }
 345              		.loc 1 639 3 is_stmt 1 view .LVU100
 346              	.L11:
 640:user/drivers/DMP/driver/eMPL/inv_mpu_dmp_motion_driver.c **** 
 347              		.loc 1 640 1 is_stmt 0 view .LVU101
 348 011c 06B0     		add	sp, sp, #24
 349              	.LCFI4:
 350              		.cfi_remember_state
 351              		.cfi_def_cfa_offset 8
 352              		@ sp needed
 353 011e 10BD     		pop	{r4, pc}
 354              	.L16:
 355              	.LCFI5:
 356              		.cfi_restore_state
 614:user/drivers/DMP/driver/eMPL/inv_mpu_dmp_motion_driver.c ****   if (mpu_write_mem(FCFG_2, 3, accel_regs))
 357              		.loc 1 614 12 view .LVU102
 358 0120 4FF0FF30 		mov	r0, #-1
 359 0124 FAE7     		b	.L11
 360              	.L17:
 616:user/drivers/DMP/driver/eMPL/inv_mpu_dmp_motion_driver.c **** 
 361              		.loc 1 616 12 view .LVU103
 362 0126 4FF0FF30 		mov	r0, #-1
 363 012a F7E7     		b	.L11
 364              	.L18:
ARM GAS  /var/folders/21/t9g5rlb91ys800n5npymflf80000gn/T//ccsHZoWN.s 			page 31


 635:user/drivers/DMP/driver/eMPL/inv_mpu_dmp_motion_driver.c ****   if (mpu_write_mem(FCFG_7, 3, accel_regs))
 365              		.loc 1 635 12 view .LVU104
 366 012c 4FF0FF30 		mov	r0, #-1
 367 0130 F4E7     		b	.L11
 368              	.L19:
 637:user/drivers/DMP/driver/eMPL/inv_mpu_dmp_motion_driver.c ****   dmp.orient = orient;
 369              		.loc 1 637 12 view .LVU105
 370 0132 4FF0FF30 		mov	r0, #-1
 371 0136 F1E7     		b	.L11
 372              	.L22:
 373              		.align	2
 374              	.L21:
 375 0138 00000000 		.word	.LC0
 376 013c 04000000 		.word	.LC1
 377 0140 08000000 		.word	.LC2
 378 0144 0C000000 		.word	.LC3
 379 0148 00000000 		.word	dmp
 380              		.cfi_endproc
 381              	.LFE162:
 383              		.section	.text.dmp_set_gyro_bias,"ax",%progbits
 384              		.align	1
 385              		.global	dmp_set_gyro_bias
 386              		.syntax unified
 387              		.thumb
 388              		.thumb_func
 390              	dmp_set_gyro_bias:
 391              	.LVL15:
 392              	.LFB163:
 652:user/drivers/DMP/driver/eMPL/inv_mpu_dmp_motion_driver.c ****   long gyro_bias_body[3];
 393              		.loc 1 652 35 is_stmt 1 view -0
 394              		.cfi_startproc
 395              		@ args = 0, pretend = 0, frame = 16
 396              		@ frame_needed = 0, uses_anonymous_args = 0
 652:user/drivers/DMP/driver/eMPL/inv_mpu_dmp_motion_driver.c ****   long gyro_bias_body[3];
 397              		.loc 1 652 35 is_stmt 0 view .LVU107
 398 0000 70B5     		push	{r4, r5, r6, lr}
 399              	.LCFI6:
 400              		.cfi_def_cfa_offset 16
 401              		.cfi_offset 4, -16
 402              		.cfi_offset 5, -12
 403              		.cfi_offset 6, -8
 404              		.cfi_offset 14, -4
 405 0002 84B0     		sub	sp, sp, #16
 406              	.LCFI7:
 407              		.cfi_def_cfa_offset 32
 653:user/drivers/DMP/driver/eMPL/inv_mpu_dmp_motion_driver.c ****   unsigned char regs[4];
 408              		.loc 1 653 3 is_stmt 1 view .LVU108
 654:user/drivers/DMP/driver/eMPL/inv_mpu_dmp_motion_driver.c **** 
 409              		.loc 1 654 3 view .LVU109
 656:user/drivers/DMP/driver/eMPL/inv_mpu_dmp_motion_driver.c ****   if (dmp.orient & 4)
 410              		.loc 1 656 3 view .LVU110
 656:user/drivers/DMP/driver/eMPL/inv_mpu_dmp_motion_driver.c ****   if (dmp.orient & 4)
 411              		.loc 1 656 31 is_stmt 0 view .LVU111
 412 0004 404B     		ldr	r3, .L31
 413 0006 1B89     		ldrh	r3, [r3, #8]
 656:user/drivers/DMP/driver/eMPL/inv_mpu_dmp_motion_driver.c ****   if (dmp.orient & 4)
 414              		.loc 1 656 39 view .LVU112
ARM GAS  /var/folders/21/t9g5rlb91ys800n5npymflf80000gn/T//ccsHZoWN.s 			page 32


 415 0008 03F00302 		and	r2, r3, #3
 656:user/drivers/DMP/driver/eMPL/inv_mpu_dmp_motion_driver.c ****   if (dmp.orient & 4)
 416              		.loc 1 656 27 view .LVU113
 417 000c 50F82220 		ldr	r2, [r0, r2, lsl #2]
 656:user/drivers/DMP/driver/eMPL/inv_mpu_dmp_motion_driver.c ****   if (dmp.orient & 4)
 418              		.loc 1 656 21 view .LVU114
 419 0010 0192     		str	r2, [sp, #4]
 657:user/drivers/DMP/driver/eMPL/inv_mpu_dmp_motion_driver.c ****     gyro_bias_body[0] *= -1;
 420              		.loc 1 657 3 is_stmt 1 view .LVU115
 657:user/drivers/DMP/driver/eMPL/inv_mpu_dmp_motion_driver.c ****     gyro_bias_body[0] *= -1;
 421              		.loc 1 657 6 is_stmt 0 view .LVU116
 422 0012 13F0040F 		tst	r3, #4
 423 0016 01D0     		beq	.L24
 658:user/drivers/DMP/driver/eMPL/inv_mpu_dmp_motion_driver.c ****   gyro_bias_body[1] = bias[(dmp.orient >> 3) & 3];
 424              		.loc 1 658 5 is_stmt 1 view .LVU117
 658:user/drivers/DMP/driver/eMPL/inv_mpu_dmp_motion_driver.c ****   gyro_bias_body[1] = bias[(dmp.orient >> 3) & 3];
 425              		.loc 1 658 23 is_stmt 0 view .LVU118
 426 0018 5242     		rsbs	r2, r2, #0
 427 001a 0192     		str	r2, [sp, #4]
 428              	.L24:
 659:user/drivers/DMP/driver/eMPL/inv_mpu_dmp_motion_driver.c ****   if (dmp.orient & 0x20)
 429              		.loc 1 659 3 is_stmt 1 view .LVU119
 659:user/drivers/DMP/driver/eMPL/inv_mpu_dmp_motion_driver.c ****   if (dmp.orient & 0x20)
 430              		.loc 1 659 46 is_stmt 0 view .LVU120
 431 001c C3F3C102 		ubfx	r2, r3, #3, #2
 659:user/drivers/DMP/driver/eMPL/inv_mpu_dmp_motion_driver.c ****   if (dmp.orient & 0x20)
 432              		.loc 1 659 27 view .LVU121
 433 0020 50F82220 		ldr	r2, [r0, r2, lsl #2]
 659:user/drivers/DMP/driver/eMPL/inv_mpu_dmp_motion_driver.c ****   if (dmp.orient & 0x20)
 434              		.loc 1 659 21 view .LVU122
 435 0024 0292     		str	r2, [sp, #8]
 660:user/drivers/DMP/driver/eMPL/inv_mpu_dmp_motion_driver.c ****     gyro_bias_body[1] *= -1;
 436              		.loc 1 660 3 is_stmt 1 view .LVU123
 660:user/drivers/DMP/driver/eMPL/inv_mpu_dmp_motion_driver.c ****     gyro_bias_body[1] *= -1;
 437              		.loc 1 660 6 is_stmt 0 view .LVU124
 438 0026 13F0200F 		tst	r3, #32
 439 002a 01D0     		beq	.L25
 661:user/drivers/DMP/driver/eMPL/inv_mpu_dmp_motion_driver.c ****   gyro_bias_body[2] = bias[(dmp.orient >> 6) & 3];
 440              		.loc 1 661 5 is_stmt 1 view .LVU125
 661:user/drivers/DMP/driver/eMPL/inv_mpu_dmp_motion_driver.c ****   gyro_bias_body[2] = bias[(dmp.orient >> 6) & 3];
 441              		.loc 1 661 23 is_stmt 0 view .LVU126
 442 002c 5242     		rsbs	r2, r2, #0
 443 002e 0292     		str	r2, [sp, #8]
 444              	.L25:
 662:user/drivers/DMP/driver/eMPL/inv_mpu_dmp_motion_driver.c ****   if (dmp.orient & 0x100)
 445              		.loc 1 662 3 is_stmt 1 view .LVU127
 662:user/drivers/DMP/driver/eMPL/inv_mpu_dmp_motion_driver.c ****   if (dmp.orient & 0x100)
 446              		.loc 1 662 46 is_stmt 0 view .LVU128
 447 0030 C3F38112 		ubfx	r2, r3, #6, #2
 662:user/drivers/DMP/driver/eMPL/inv_mpu_dmp_motion_driver.c ****   if (dmp.orient & 0x100)
 448              		.loc 1 662 27 view .LVU129
 449 0034 50F82220 		ldr	r2, [r0, r2, lsl #2]
 662:user/drivers/DMP/driver/eMPL/inv_mpu_dmp_motion_driver.c ****   if (dmp.orient & 0x100)
 450              		.loc 1 662 21 view .LVU130
 451 0038 0392     		str	r2, [sp, #12]
 663:user/drivers/DMP/driver/eMPL/inv_mpu_dmp_motion_driver.c ****     gyro_bias_body[2] *= -1;
 452              		.loc 1 663 3 is_stmt 1 view .LVU131
ARM GAS  /var/folders/21/t9g5rlb91ys800n5npymflf80000gn/T//ccsHZoWN.s 			page 33


 663:user/drivers/DMP/driver/eMPL/inv_mpu_dmp_motion_driver.c ****     gyro_bias_body[2] *= -1;
 453              		.loc 1 663 6 is_stmt 0 view .LVU132
 454 003a 13F4807F 		tst	r3, #256
 455 003e 01D0     		beq	.L26
 664:user/drivers/DMP/driver/eMPL/inv_mpu_dmp_motion_driver.c **** 
 456              		.loc 1 664 5 is_stmt 1 view .LVU133
 664:user/drivers/DMP/driver/eMPL/inv_mpu_dmp_motion_driver.c **** 
 457              		.loc 1 664 23 is_stmt 0 view .LVU134
 458 0040 5242     		rsbs	r2, r2, #0
 459 0042 0392     		str	r2, [sp, #12]
 460              	.L26:
 674:user/drivers/DMP/driver/eMPL/inv_mpu_dmp_motion_driver.c ****   gyro_bias_body[1] = (long)(((long long)gyro_bias_body[1] * GYRO_SF) >> 30);
 461              		.loc 1 674 3 is_stmt 1 view .LVU135
 674:user/drivers/DMP/driver/eMPL/inv_mpu_dmp_motion_driver.c ****   gyro_bias_body[1] = (long)(((long long)gyro_bias_body[1] * GYRO_SF) >> 30);
 462              		.loc 1 674 56 is_stmt 0 view .LVU136
 463 0044 019B     		ldr	r3, [sp, #4]
 674:user/drivers/DMP/driver/eMPL/inv_mpu_dmp_motion_driver.c ****   gyro_bias_body[1] = (long)(((long long)gyro_bias_body[1] * GYRO_SF) >> 30);
 464              		.loc 1 674 31 view .LVU137
 465 0046 D817     		asrs	r0, r3, #31
 466              	.LVL16:
 674:user/drivers/DMP/driver/eMPL/inv_mpu_dmp_motion_driver.c ****   gyro_bias_body[1] = (long)(((long long)gyro_bias_body[1] * GYRO_SF) >> 30);
 467              		.loc 1 674 60 view .LVU138
 468 0048 304A     		ldr	r2, .L31+4
 469 004a A3FB0231 		umull	r3, r1, r3, r2
 470 004e 02FB0011 		mla	r1, r2, r0, r1
 674:user/drivers/DMP/driver/eMPL/inv_mpu_dmp_motion_driver.c ****   gyro_bias_body[1] = (long)(((long long)gyro_bias_body[1] * GYRO_SF) >> 30);
 471              		.loc 1 674 71 view .LVU139
 472 0052 9B0F     		lsrs	r3, r3, #30
 473 0054 43EA8103 		orr	r3, r3, r1, lsl #2
 674:user/drivers/DMP/driver/eMPL/inv_mpu_dmp_motion_driver.c ****   gyro_bias_body[1] = (long)(((long long)gyro_bias_body[1] * GYRO_SF) >> 30);
 474              		.loc 1 674 21 view .LVU140
 475 0058 0193     		str	r3, [sp, #4]
 675:user/drivers/DMP/driver/eMPL/inv_mpu_dmp_motion_driver.c ****   gyro_bias_body[2] = (long)(((long long)gyro_bias_body[2] * GYRO_SF) >> 30);
 476              		.loc 1 675 3 is_stmt 1 view .LVU141
 675:user/drivers/DMP/driver/eMPL/inv_mpu_dmp_motion_driver.c ****   gyro_bias_body[2] = (long)(((long long)gyro_bias_body[2] * GYRO_SF) >> 30);
 477              		.loc 1 675 56 is_stmt 0 view .LVU142
 478 005a 0299     		ldr	r1, [sp, #8]
 675:user/drivers/DMP/driver/eMPL/inv_mpu_dmp_motion_driver.c ****   gyro_bias_body[2] = (long)(((long long)gyro_bias_body[2] * GYRO_SF) >> 30);
 479              		.loc 1 675 31 view .LVU143
 480 005c CC17     		asrs	r4, r1, #31
 675:user/drivers/DMP/driver/eMPL/inv_mpu_dmp_motion_driver.c ****   gyro_bias_body[2] = (long)(((long long)gyro_bias_body[2] * GYRO_SF) >> 30);
 481              		.loc 1 675 60 view .LVU144
 482 005e A1FB0210 		umull	r1, r0, r1, r2
 483 0062 02FB0400 		mla	r0, r2, r4, r0
 675:user/drivers/DMP/driver/eMPL/inv_mpu_dmp_motion_driver.c ****   gyro_bias_body[2] = (long)(((long long)gyro_bias_body[2] * GYRO_SF) >> 30);
 484              		.loc 1 675 71 view .LVU145
 485 0066 8D0F     		lsrs	r5, r1, #30
 486 0068 45EA8005 		orr	r5, r5, r0, lsl #2
 675:user/drivers/DMP/driver/eMPL/inv_mpu_dmp_motion_driver.c ****   gyro_bias_body[2] = (long)(((long long)gyro_bias_body[2] * GYRO_SF) >> 30);
 487              		.loc 1 675 21 view .LVU146
 488 006c 0295     		str	r5, [sp, #8]
 676:user/drivers/DMP/driver/eMPL/inv_mpu_dmp_motion_driver.c **** #endif
 489              		.loc 1 676 3 is_stmt 1 view .LVU147
 676:user/drivers/DMP/driver/eMPL/inv_mpu_dmp_motion_driver.c **** #endif
 490              		.loc 1 676 56 is_stmt 0 view .LVU148
 491 006e 039C     		ldr	r4, [sp, #12]
 676:user/drivers/DMP/driver/eMPL/inv_mpu_dmp_motion_driver.c **** #endif
ARM GAS  /var/folders/21/t9g5rlb91ys800n5npymflf80000gn/T//ccsHZoWN.s 			page 34


 492              		.loc 1 676 31 view .LVU149
 493 0070 E017     		asrs	r0, r4, #31
 676:user/drivers/DMP/driver/eMPL/inv_mpu_dmp_motion_driver.c **** #endif
 494              		.loc 1 676 60 view .LVU150
 495 0072 A4FB0241 		umull	r4, r1, r4, r2
 496 0076 02FB0012 		mla	r2, r2, r0, r1
 676:user/drivers/DMP/driver/eMPL/inv_mpu_dmp_motion_driver.c **** #endif
 497              		.loc 1 676 71 view .LVU151
 498 007a A40F     		lsrs	r4, r4, #30
 499 007c 44EA8204 		orr	r4, r4, r2, lsl #2
 676:user/drivers/DMP/driver/eMPL/inv_mpu_dmp_motion_driver.c **** #endif
 500              		.loc 1 676 21 view .LVU152
 501 0080 0394     		str	r4, [sp, #12]
 679:user/drivers/DMP/driver/eMPL/inv_mpu_dmp_motion_driver.c ****   regs[1] = (unsigned char)((gyro_bias_body[0] >> 16) & 0xFF);
 502              		.loc 1 679 3 is_stmt 1 view .LVU153
 679:user/drivers/DMP/driver/eMPL/inv_mpu_dmp_motion_driver.c ****   regs[1] = (unsigned char)((gyro_bias_body[0] >> 16) & 0xFF);
 503              		.loc 1 679 13 is_stmt 0 view .LVU154
 504 0082 1A0E     		lsrs	r2, r3, #24
 679:user/drivers/DMP/driver/eMPL/inv_mpu_dmp_motion_driver.c ****   regs[1] = (unsigned char)((gyro_bias_body[0] >> 16) & 0xFF);
 505              		.loc 1 679 11 view .LVU155
 506 0084 8DF80020 		strb	r2, [sp]
 680:user/drivers/DMP/driver/eMPL/inv_mpu_dmp_motion_driver.c ****   regs[2] = (unsigned char)((gyro_bias_body[0] >> 8) & 0xFF);
 507              		.loc 1 680 3 is_stmt 1 view .LVU156
 680:user/drivers/DMP/driver/eMPL/inv_mpu_dmp_motion_driver.c ****   regs[2] = (unsigned char)((gyro_bias_body[0] >> 8) & 0xFF);
 508              		.loc 1 680 13 is_stmt 0 view .LVU157
 509 0088 C3F30742 		ubfx	r2, r3, #16, #8
 680:user/drivers/DMP/driver/eMPL/inv_mpu_dmp_motion_driver.c ****   regs[2] = (unsigned char)((gyro_bias_body[0] >> 8) & 0xFF);
 510              		.loc 1 680 11 view .LVU158
 511 008c 8DF80120 		strb	r2, [sp, #1]
 681:user/drivers/DMP/driver/eMPL/inv_mpu_dmp_motion_driver.c ****   regs[3] = (unsigned char)(gyro_bias_body[0] & 0xFF);
 512              		.loc 1 681 3 is_stmt 1 view .LVU159
 681:user/drivers/DMP/driver/eMPL/inv_mpu_dmp_motion_driver.c ****   regs[3] = (unsigned char)(gyro_bias_body[0] & 0xFF);
 513              		.loc 1 681 13 is_stmt 0 view .LVU160
 514 0090 C3F30722 		ubfx	r2, r3, #8, #8
 681:user/drivers/DMP/driver/eMPL/inv_mpu_dmp_motion_driver.c ****   regs[3] = (unsigned char)(gyro_bias_body[0] & 0xFF);
 515              		.loc 1 681 11 view .LVU161
 516 0094 8DF80220 		strb	r2, [sp, #2]
 682:user/drivers/DMP/driver/eMPL/inv_mpu_dmp_motion_driver.c ****   if (mpu_write_mem(D_EXT_GYRO_BIAS_X, 4, regs))
 517              		.loc 1 682 3 is_stmt 1 view .LVU162
 682:user/drivers/DMP/driver/eMPL/inv_mpu_dmp_motion_driver.c ****   if (mpu_write_mem(D_EXT_GYRO_BIAS_X, 4, regs))
 518              		.loc 1 682 11 is_stmt 0 view .LVU163
 519 0098 8DF80330 		strb	r3, [sp, #3]
 683:user/drivers/DMP/driver/eMPL/inv_mpu_dmp_motion_driver.c ****     return -1;
 520              		.loc 1 683 3 is_stmt 1 view .LVU164
 683:user/drivers/DMP/driver/eMPL/inv_mpu_dmp_motion_driver.c ****     return -1;
 521              		.loc 1 683 7 is_stmt 0 view .LVU165
 522 009c 6A46     		mov	r2, sp
 523 009e 0421     		movs	r1, #4
 524 00a0 4FF47470 		mov	r0, #976
 525 00a4 FFF7FEFF 		bl	mpu_write_mem
 526              	.LVL17:
 683:user/drivers/DMP/driver/eMPL/inv_mpu_dmp_motion_driver.c ****     return -1;
 527              		.loc 1 683 6 view .LVU166
 528 00a8 40BB     		cbnz	r0, .L28
 686:user/drivers/DMP/driver/eMPL/inv_mpu_dmp_motion_driver.c ****   regs[1] = (unsigned char)((gyro_bias_body[1] >> 16) & 0xFF);
 529              		.loc 1 686 3 is_stmt 1 view .LVU167
 686:user/drivers/DMP/driver/eMPL/inv_mpu_dmp_motion_driver.c ****   regs[1] = (unsigned char)((gyro_bias_body[1] >> 16) & 0xFF);
ARM GAS  /var/folders/21/t9g5rlb91ys800n5npymflf80000gn/T//ccsHZoWN.s 			page 35


 530              		.loc 1 686 13 is_stmt 0 view .LVU168
 531 00aa 2B0E     		lsrs	r3, r5, #24
 686:user/drivers/DMP/driver/eMPL/inv_mpu_dmp_motion_driver.c ****   regs[1] = (unsigned char)((gyro_bias_body[1] >> 16) & 0xFF);
 532              		.loc 1 686 11 view .LVU169
 533 00ac 8DF80030 		strb	r3, [sp]
 687:user/drivers/DMP/driver/eMPL/inv_mpu_dmp_motion_driver.c ****   regs[2] = (unsigned char)((gyro_bias_body[1] >> 8) & 0xFF);
 534              		.loc 1 687 3 is_stmt 1 view .LVU170
 687:user/drivers/DMP/driver/eMPL/inv_mpu_dmp_motion_driver.c ****   regs[2] = (unsigned char)((gyro_bias_body[1] >> 8) & 0xFF);
 535              		.loc 1 687 13 is_stmt 0 view .LVU171
 536 00b0 C5F30743 		ubfx	r3, r5, #16, #8
 687:user/drivers/DMP/driver/eMPL/inv_mpu_dmp_motion_driver.c ****   regs[2] = (unsigned char)((gyro_bias_body[1] >> 8) & 0xFF);
 537              		.loc 1 687 11 view .LVU172
 538 00b4 8DF80130 		strb	r3, [sp, #1]
 688:user/drivers/DMP/driver/eMPL/inv_mpu_dmp_motion_driver.c ****   regs[3] = (unsigned char)(gyro_bias_body[1] & 0xFF);
 539              		.loc 1 688 3 is_stmt 1 view .LVU173
 688:user/drivers/DMP/driver/eMPL/inv_mpu_dmp_motion_driver.c ****   regs[3] = (unsigned char)(gyro_bias_body[1] & 0xFF);
 540              		.loc 1 688 13 is_stmt 0 view .LVU174
 541 00b8 C5F30723 		ubfx	r3, r5, #8, #8
 688:user/drivers/DMP/driver/eMPL/inv_mpu_dmp_motion_driver.c ****   regs[3] = (unsigned char)(gyro_bias_body[1] & 0xFF);
 542              		.loc 1 688 11 view .LVU175
 543 00bc 8DF80230 		strb	r3, [sp, #2]
 689:user/drivers/DMP/driver/eMPL/inv_mpu_dmp_motion_driver.c ****   if (mpu_write_mem(D_EXT_GYRO_BIAS_Y, 4, regs))
 544              		.loc 1 689 3 is_stmt 1 view .LVU176
 689:user/drivers/DMP/driver/eMPL/inv_mpu_dmp_motion_driver.c ****   if (mpu_write_mem(D_EXT_GYRO_BIAS_Y, 4, regs))
 545              		.loc 1 689 11 is_stmt 0 view .LVU177
 546 00c0 8DF80350 		strb	r5, [sp, #3]
 690:user/drivers/DMP/driver/eMPL/inv_mpu_dmp_motion_driver.c ****     return -1;
 547              		.loc 1 690 3 is_stmt 1 view .LVU178
 690:user/drivers/DMP/driver/eMPL/inv_mpu_dmp_motion_driver.c ****     return -1;
 548              		.loc 1 690 7 is_stmt 0 view .LVU179
 549 00c4 6A46     		mov	r2, sp
 550 00c6 0421     		movs	r1, #4
 551 00c8 4FF47570 		mov	r0, #980
 552 00cc FFF7FEFF 		bl	mpu_write_mem
 553              	.LVL18:
 690:user/drivers/DMP/driver/eMPL/inv_mpu_dmp_motion_driver.c ****     return -1;
 554              		.loc 1 690 6 view .LVU180
 555 00d0 B8B9     		cbnz	r0, .L29
 693:user/drivers/DMP/driver/eMPL/inv_mpu_dmp_motion_driver.c ****   regs[1] = (unsigned char)((gyro_bias_body[2] >> 16) & 0xFF);
 556              		.loc 1 693 3 is_stmt 1 view .LVU181
 693:user/drivers/DMP/driver/eMPL/inv_mpu_dmp_motion_driver.c ****   regs[1] = (unsigned char)((gyro_bias_body[2] >> 16) & 0xFF);
 557              		.loc 1 693 13 is_stmt 0 view .LVU182
 558 00d2 230E     		lsrs	r3, r4, #24
 693:user/drivers/DMP/driver/eMPL/inv_mpu_dmp_motion_driver.c ****   regs[1] = (unsigned char)((gyro_bias_body[2] >> 16) & 0xFF);
 559              		.loc 1 693 11 view .LVU183
 560 00d4 8DF80030 		strb	r3, [sp]
 694:user/drivers/DMP/driver/eMPL/inv_mpu_dmp_motion_driver.c ****   regs[2] = (unsigned char)((gyro_bias_body[2] >> 8) & 0xFF);
 561              		.loc 1 694 3 is_stmt 1 view .LVU184
 694:user/drivers/DMP/driver/eMPL/inv_mpu_dmp_motion_driver.c ****   regs[2] = (unsigned char)((gyro_bias_body[2] >> 8) & 0xFF);
 562              		.loc 1 694 13 is_stmt 0 view .LVU185
 563 00d8 C4F30743 		ubfx	r3, r4, #16, #8
 694:user/drivers/DMP/driver/eMPL/inv_mpu_dmp_motion_driver.c ****   regs[2] = (unsigned char)((gyro_bias_body[2] >> 8) & 0xFF);
 564              		.loc 1 694 11 view .LVU186
 565 00dc 8DF80130 		strb	r3, [sp, #1]
 695:user/drivers/DMP/driver/eMPL/inv_mpu_dmp_motion_driver.c ****   regs[3] = (unsigned char)(gyro_bias_body[2] & 0xFF);
 566              		.loc 1 695 3 is_stmt 1 view .LVU187
 695:user/drivers/DMP/driver/eMPL/inv_mpu_dmp_motion_driver.c ****   regs[3] = (unsigned char)(gyro_bias_body[2] & 0xFF);
ARM GAS  /var/folders/21/t9g5rlb91ys800n5npymflf80000gn/T//ccsHZoWN.s 			page 36


 567              		.loc 1 695 13 is_stmt 0 view .LVU188
 568 00e0 C4F30726 		ubfx	r6, r4, #8, #8
 695:user/drivers/DMP/driver/eMPL/inv_mpu_dmp_motion_driver.c ****   regs[3] = (unsigned char)(gyro_bias_body[2] & 0xFF);
 569              		.loc 1 695 11 view .LVU189
 570 00e4 8DF80260 		strb	r6, [sp, #2]
 696:user/drivers/DMP/driver/eMPL/inv_mpu_dmp_motion_driver.c ****   return mpu_write_mem(D_EXT_GYRO_BIAS_Z, 4, regs);
 571              		.loc 1 696 3 is_stmt 1 view .LVU190
 696:user/drivers/DMP/driver/eMPL/inv_mpu_dmp_motion_driver.c ****   return mpu_write_mem(D_EXT_GYRO_BIAS_Z, 4, regs);
 572              		.loc 1 696 11 is_stmt 0 view .LVU191
 573 00e8 8DF80340 		strb	r4, [sp, #3]
 697:user/drivers/DMP/driver/eMPL/inv_mpu_dmp_motion_driver.c **** }
 574              		.loc 1 697 3 is_stmt 1 view .LVU192
 697:user/drivers/DMP/driver/eMPL/inv_mpu_dmp_motion_driver.c **** }
 575              		.loc 1 697 10 is_stmt 0 view .LVU193
 576 00ec 6A46     		mov	r2, sp
 577 00ee 0421     		movs	r1, #4
 578 00f0 4FF47670 		mov	r0, #984
 579 00f4 FFF7FEFF 		bl	mpu_write_mem
 580              	.LVL19:
 581              	.L23:
 698:user/drivers/DMP/driver/eMPL/inv_mpu_dmp_motion_driver.c **** 
 582              		.loc 1 698 1 view .LVU194
 583 00f8 04B0     		add	sp, sp, #16
 584              	.LCFI8:
 585              		.cfi_remember_state
 586              		.cfi_def_cfa_offset 16
 587              		@ sp needed
 588 00fa 70BD     		pop	{r4, r5, r6, pc}
 589              	.L28:
 590              	.LCFI9:
 591              		.cfi_restore_state
 684:user/drivers/DMP/driver/eMPL/inv_mpu_dmp_motion_driver.c **** 
 592              		.loc 1 684 12 view .LVU195
 593 00fc 4FF0FF30 		mov	r0, #-1
 594 0100 FAE7     		b	.L23
 595              	.L29:
 691:user/drivers/DMP/driver/eMPL/inv_mpu_dmp_motion_driver.c **** 
 596              		.loc 1 691 12 view .LVU196
 597 0102 4FF0FF30 		mov	r0, #-1
 598 0106 F7E7     		b	.L23
 599              	.L32:
 600              		.align	2
 601              	.L31:
 602 0108 00000000 		.word	dmp
 603 010c 09E3CA02 		.word	46850825
 604              		.cfi_endproc
 605              	.LFE163:
 607              		.section	.text.dmp_set_accel_bias,"ax",%progbits
 608              		.align	1
 609              		.global	dmp_set_accel_bias
 610              		.syntax unified
 611              		.thumb
 612              		.thumb_func
 614              	dmp_set_accel_bias:
 615              	.LVL20:
 616              	.LFB164:
 706:user/drivers/DMP/driver/eMPL/inv_mpu_dmp_motion_driver.c ****   long accel_bias_body[3];
ARM GAS  /var/folders/21/t9g5rlb91ys800n5npymflf80000gn/T//ccsHZoWN.s 			page 37


 617              		.loc 1 706 36 is_stmt 1 view -0
 618              		.cfi_startproc
 619              		@ args = 0, pretend = 0, frame = 32
 620              		@ frame_needed = 0, uses_anonymous_args = 0
 706:user/drivers/DMP/driver/eMPL/inv_mpu_dmp_motion_driver.c ****   long accel_bias_body[3];
 621              		.loc 1 706 36 is_stmt 0 view .LVU198
 622 0000 10B5     		push	{r4, lr}
 623              	.LCFI10:
 624              		.cfi_def_cfa_offset 8
 625              		.cfi_offset 4, -8
 626              		.cfi_offset 14, -4
 627 0002 88B0     		sub	sp, sp, #32
 628              	.LCFI11:
 629              		.cfi_def_cfa_offset 40
 630 0004 0446     		mov	r4, r0
 707:user/drivers/DMP/driver/eMPL/inv_mpu_dmp_motion_driver.c ****   unsigned char regs[12];
 631              		.loc 1 707 3 is_stmt 1 view .LVU199
 708:user/drivers/DMP/driver/eMPL/inv_mpu_dmp_motion_driver.c ****   long long accel_sf;
 632              		.loc 1 708 3 view .LVU200
 709:user/drivers/DMP/driver/eMPL/inv_mpu_dmp_motion_driver.c ****   unsigned short accel_sens;
 633              		.loc 1 709 3 view .LVU201
 710:user/drivers/DMP/driver/eMPL/inv_mpu_dmp_motion_driver.c **** 
 634              		.loc 1 710 3 view .LVU202
 712:user/drivers/DMP/driver/eMPL/inv_mpu_dmp_motion_driver.c ****   accel_sf = (long long)accel_sens << 15;
 635              		.loc 1 712 3 view .LVU203
 636 0006 0DF10600 		add	r0, sp, #6
 637              	.LVL21:
 712:user/drivers/DMP/driver/eMPL/inv_mpu_dmp_motion_driver.c ****   accel_sf = (long long)accel_sens << 15;
 638              		.loc 1 712 3 is_stmt 0 view .LVU204
 639 000a FFF7FEFF 		bl	mpu_get_accel_sens
 640              	.LVL22:
 713:user/drivers/DMP/driver/eMPL/inv_mpu_dmp_motion_driver.c ****   //__no_operation();
 641              		.loc 1 713 3 is_stmt 1 view .LVU205
 713:user/drivers/DMP/driver/eMPL/inv_mpu_dmp_motion_driver.c ****   //__no_operation();
 642              		.loc 1 713 14 is_stmt 0 view .LVU206
 643 000e BDF806C0 		ldrh	ip, [sp, #6]
 713:user/drivers/DMP/driver/eMPL/inv_mpu_dmp_motion_driver.c ****   //__no_operation();
 644              		.loc 1 713 12 view .LVU207
 645 0012 4FEACC3C 		lsl	ip, ip, #15
 646              	.LVL23:
 716:user/drivers/DMP/driver/eMPL/inv_mpu_dmp_motion_driver.c ****   if (dmp.orient & 4)
 647              		.loc 1 716 3 is_stmt 1 view .LVU208
 716:user/drivers/DMP/driver/eMPL/inv_mpu_dmp_motion_driver.c ****   if (dmp.orient & 4)
 648              		.loc 1 716 32 is_stmt 0 view .LVU209
 649 0016 364B     		ldr	r3, .L38
 650 0018 1B89     		ldrh	r3, [r3, #8]
 716:user/drivers/DMP/driver/eMPL/inv_mpu_dmp_motion_driver.c ****   if (dmp.orient & 4)
 651              		.loc 1 716 40 view .LVU210
 652 001a 03F00302 		and	r2, r3, #3
 716:user/drivers/DMP/driver/eMPL/inv_mpu_dmp_motion_driver.c ****   if (dmp.orient & 4)
 653              		.loc 1 716 28 view .LVU211
 654 001e 54F82220 		ldr	r2, [r4, r2, lsl #2]
 716:user/drivers/DMP/driver/eMPL/inv_mpu_dmp_motion_driver.c ****   if (dmp.orient & 4)
 655              		.loc 1 716 22 view .LVU212
 656 0022 0592     		str	r2, [sp, #20]
 717:user/drivers/DMP/driver/eMPL/inv_mpu_dmp_motion_driver.c ****     accel_bias_body[0] *= -1;
 657              		.loc 1 717 3 is_stmt 1 view .LVU213
ARM GAS  /var/folders/21/t9g5rlb91ys800n5npymflf80000gn/T//ccsHZoWN.s 			page 38


 717:user/drivers/DMP/driver/eMPL/inv_mpu_dmp_motion_driver.c ****     accel_bias_body[0] *= -1;
 658              		.loc 1 717 6 is_stmt 0 view .LVU214
 659 0024 13F0040F 		tst	r3, #4
 660 0028 01D0     		beq	.L34
 718:user/drivers/DMP/driver/eMPL/inv_mpu_dmp_motion_driver.c ****   accel_bias_body[1] = bias[(dmp.orient >> 3) & 3];
 661              		.loc 1 718 5 is_stmt 1 view .LVU215
 718:user/drivers/DMP/driver/eMPL/inv_mpu_dmp_motion_driver.c ****   accel_bias_body[1] = bias[(dmp.orient >> 3) & 3];
 662              		.loc 1 718 24 is_stmt 0 view .LVU216
 663 002a 5242     		rsbs	r2, r2, #0
 664 002c 0592     		str	r2, [sp, #20]
 665              	.L34:
 719:user/drivers/DMP/driver/eMPL/inv_mpu_dmp_motion_driver.c ****   if (dmp.orient & 0x20)
 666              		.loc 1 719 3 is_stmt 1 view .LVU217
 719:user/drivers/DMP/driver/eMPL/inv_mpu_dmp_motion_driver.c ****   if (dmp.orient & 0x20)
 667              		.loc 1 719 47 is_stmt 0 view .LVU218
 668 002e C3F3C102 		ubfx	r2, r3, #3, #2
 719:user/drivers/DMP/driver/eMPL/inv_mpu_dmp_motion_driver.c ****   if (dmp.orient & 0x20)
 669              		.loc 1 719 28 view .LVU219
 670 0032 54F82220 		ldr	r2, [r4, r2, lsl #2]
 719:user/drivers/DMP/driver/eMPL/inv_mpu_dmp_motion_driver.c ****   if (dmp.orient & 0x20)
 671              		.loc 1 719 22 view .LVU220
 672 0036 0692     		str	r2, [sp, #24]
 720:user/drivers/DMP/driver/eMPL/inv_mpu_dmp_motion_driver.c ****     accel_bias_body[1] *= -1;
 673              		.loc 1 720 3 is_stmt 1 view .LVU221
 720:user/drivers/DMP/driver/eMPL/inv_mpu_dmp_motion_driver.c ****     accel_bias_body[1] *= -1;
 674              		.loc 1 720 6 is_stmt 0 view .LVU222
 675 0038 13F0200F 		tst	r3, #32
 676 003c 01D0     		beq	.L35
 721:user/drivers/DMP/driver/eMPL/inv_mpu_dmp_motion_driver.c ****   accel_bias_body[2] = bias[(dmp.orient >> 6) & 3];
 677              		.loc 1 721 5 is_stmt 1 view .LVU223
 721:user/drivers/DMP/driver/eMPL/inv_mpu_dmp_motion_driver.c ****   accel_bias_body[2] = bias[(dmp.orient >> 6) & 3];
 678              		.loc 1 721 24 is_stmt 0 view .LVU224
 679 003e 5242     		rsbs	r2, r2, #0
 680 0040 0692     		str	r2, [sp, #24]
 681              	.L35:
 722:user/drivers/DMP/driver/eMPL/inv_mpu_dmp_motion_driver.c ****   if (dmp.orient & 0x100)
 682              		.loc 1 722 3 is_stmt 1 view .LVU225
 722:user/drivers/DMP/driver/eMPL/inv_mpu_dmp_motion_driver.c ****   if (dmp.orient & 0x100)
 683              		.loc 1 722 47 is_stmt 0 view .LVU226
 684 0042 C3F38112 		ubfx	r2, r3, #6, #2
 722:user/drivers/DMP/driver/eMPL/inv_mpu_dmp_motion_driver.c ****   if (dmp.orient & 0x100)
 685              		.loc 1 722 28 view .LVU227
 686 0046 54F82220 		ldr	r2, [r4, r2, lsl #2]
 722:user/drivers/DMP/driver/eMPL/inv_mpu_dmp_motion_driver.c ****   if (dmp.orient & 0x100)
 687              		.loc 1 722 22 view .LVU228
 688 004a 0792     		str	r2, [sp, #28]
 723:user/drivers/DMP/driver/eMPL/inv_mpu_dmp_motion_driver.c ****     accel_bias_body[2] *= -1;
 689              		.loc 1 723 3 is_stmt 1 view .LVU229
 723:user/drivers/DMP/driver/eMPL/inv_mpu_dmp_motion_driver.c ****     accel_bias_body[2] *= -1;
 690              		.loc 1 723 6 is_stmt 0 view .LVU230
 691 004c 13F4807F 		tst	r3, #256
 692 0050 01D0     		beq	.L36
 724:user/drivers/DMP/driver/eMPL/inv_mpu_dmp_motion_driver.c **** 
 693              		.loc 1 724 5 is_stmt 1 view .LVU231
 724:user/drivers/DMP/driver/eMPL/inv_mpu_dmp_motion_driver.c **** 
 694              		.loc 1 724 24 is_stmt 0 view .LVU232
 695 0052 5242     		rsbs	r2, r2, #0
ARM GAS  /var/folders/21/t9g5rlb91ys800n5npymflf80000gn/T//ccsHZoWN.s 			page 39


 696 0054 0792     		str	r2, [sp, #28]
 697              	.L36:
 734:user/drivers/DMP/driver/eMPL/inv_mpu_dmp_motion_driver.c ****   accel_bias_body[1] = (long)(((long long)accel_bias_body[1] * accel_sf) >> 30);
 698              		.loc 1 734 3 is_stmt 1 view .LVU233
 734:user/drivers/DMP/driver/eMPL/inv_mpu_dmp_motion_driver.c ****   accel_bias_body[1] = (long)(((long long)accel_bias_body[1] * accel_sf) >> 30);
 699              		.loc 1 734 58 is_stmt 0 view .LVU234
 700 0056 0599     		ldr	r1, [sp, #20]
 734:user/drivers/DMP/driver/eMPL/inv_mpu_dmp_motion_driver.c ****   accel_bias_body[1] = (long)(((long long)accel_bias_body[1] * accel_sf) >> 30);
 701              		.loc 1 734 32 view .LVU235
 702 0058 CA17     		asrs	r2, r1, #31
 734:user/drivers/DMP/driver/eMPL/inv_mpu_dmp_motion_driver.c ****   accel_bias_body[1] = (long)(((long long)accel_bias_body[1] * accel_sf) >> 30);
 703              		.loc 1 734 62 view .LVU236
 704 005a A1FB0C13 		umull	r1, r3, r1, ip
 705 005e 0CFB0233 		mla	r3, ip, r2, r3
 734:user/drivers/DMP/driver/eMPL/inv_mpu_dmp_motion_driver.c ****   accel_bias_body[1] = (long)(((long long)accel_bias_body[1] * accel_sf) >> 30);
 706              		.loc 1 734 74 view .LVU237
 707 0062 890F     		lsrs	r1, r1, #30
 708 0064 41EA8301 		orr	r1, r1, r3, lsl #2
 734:user/drivers/DMP/driver/eMPL/inv_mpu_dmp_motion_driver.c ****   accel_bias_body[1] = (long)(((long long)accel_bias_body[1] * accel_sf) >> 30);
 709              		.loc 1 734 22 view .LVU238
 710 0068 0591     		str	r1, [sp, #20]
 735:user/drivers/DMP/driver/eMPL/inv_mpu_dmp_motion_driver.c ****   accel_bias_body[2] = (long)(((long long)accel_bias_body[2] * accel_sf) >> 30);
 711              		.loc 1 735 3 is_stmt 1 view .LVU239
 735:user/drivers/DMP/driver/eMPL/inv_mpu_dmp_motion_driver.c ****   accel_bias_body[2] = (long)(((long long)accel_bias_body[2] * accel_sf) >> 30);
 712              		.loc 1 735 58 is_stmt 0 view .LVU240
 713 006a 069A     		ldr	r2, [sp, #24]
 735:user/drivers/DMP/driver/eMPL/inv_mpu_dmp_motion_driver.c ****   accel_bias_body[2] = (long)(((long long)accel_bias_body[2] * accel_sf) >> 30);
 714              		.loc 1 735 32 view .LVU241
 715 006c D017     		asrs	r0, r2, #31
 735:user/drivers/DMP/driver/eMPL/inv_mpu_dmp_motion_driver.c ****   accel_bias_body[2] = (long)(((long long)accel_bias_body[2] * accel_sf) >> 30);
 716              		.loc 1 735 62 view .LVU242
 717 006e A2FB0C23 		umull	r2, r3, r2, ip
 718 0072 0CFB0033 		mla	r3, ip, r0, r3
 735:user/drivers/DMP/driver/eMPL/inv_mpu_dmp_motion_driver.c ****   accel_bias_body[2] = (long)(((long long)accel_bias_body[2] * accel_sf) >> 30);
 719              		.loc 1 735 74 view .LVU243
 720 0076 920F     		lsrs	r2, r2, #30
 721 0078 42EA8302 		orr	r2, r2, r3, lsl #2
 735:user/drivers/DMP/driver/eMPL/inv_mpu_dmp_motion_driver.c ****   accel_bias_body[2] = (long)(((long long)accel_bias_body[2] * accel_sf) >> 30);
 722              		.loc 1 735 22 view .LVU244
 723 007c 0692     		str	r2, [sp, #24]
 736:user/drivers/DMP/driver/eMPL/inv_mpu_dmp_motion_driver.c **** #endif
 724              		.loc 1 736 3 is_stmt 1 view .LVU245
 736:user/drivers/DMP/driver/eMPL/inv_mpu_dmp_motion_driver.c **** #endif
 725              		.loc 1 736 58 is_stmt 0 view .LVU246
 726 007e 079B     		ldr	r3, [sp, #28]
 736:user/drivers/DMP/driver/eMPL/inv_mpu_dmp_motion_driver.c **** #endif
 727              		.loc 1 736 32 view .LVU247
 728 0080 DC17     		asrs	r4, r3, #31
 729              	.LVL24:
 736:user/drivers/DMP/driver/eMPL/inv_mpu_dmp_motion_driver.c **** #endif
 730              		.loc 1 736 62 view .LVU248
 731 0082 A3FB0C30 		umull	r3, r0, r3, ip
 732 0086 0CFB0400 		mla	r0, ip, r4, r0
 736:user/drivers/DMP/driver/eMPL/inv_mpu_dmp_motion_driver.c **** #endif
 733              		.loc 1 736 74 view .LVU249
 734 008a 9B0F     		lsrs	r3, r3, #30
 735 008c 43EA8003 		orr	r3, r3, r0, lsl #2
ARM GAS  /var/folders/21/t9g5rlb91ys800n5npymflf80000gn/T//ccsHZoWN.s 			page 40


 736:user/drivers/DMP/driver/eMPL/inv_mpu_dmp_motion_driver.c **** #endif
 736              		.loc 1 736 22 view .LVU250
 737 0090 0793     		str	r3, [sp, #28]
 739:user/drivers/DMP/driver/eMPL/inv_mpu_dmp_motion_driver.c ****   regs[1] = (unsigned char)((accel_bias_body[0] >> 16) & 0xFF);
 738              		.loc 1 739 3 is_stmt 1 view .LVU251
 739:user/drivers/DMP/driver/eMPL/inv_mpu_dmp_motion_driver.c ****   regs[1] = (unsigned char)((accel_bias_body[0] >> 16) & 0xFF);
 739              		.loc 1 739 13 is_stmt 0 view .LVU252
 740 0092 080E     		lsrs	r0, r1, #24
 739:user/drivers/DMP/driver/eMPL/inv_mpu_dmp_motion_driver.c ****   regs[1] = (unsigned char)((accel_bias_body[0] >> 16) & 0xFF);
 741              		.loc 1 739 11 view .LVU253
 742 0094 8DF80800 		strb	r0, [sp, #8]
 740:user/drivers/DMP/driver/eMPL/inv_mpu_dmp_motion_driver.c ****   regs[2] = (unsigned char)((accel_bias_body[0] >> 8) & 0xFF);
 743              		.loc 1 740 3 is_stmt 1 view .LVU254
 740:user/drivers/DMP/driver/eMPL/inv_mpu_dmp_motion_driver.c ****   regs[2] = (unsigned char)((accel_bias_body[0] >> 8) & 0xFF);
 744              		.loc 1 740 13 is_stmt 0 view .LVU255
 745 0098 C1F30740 		ubfx	r0, r1, #16, #8
 740:user/drivers/DMP/driver/eMPL/inv_mpu_dmp_motion_driver.c ****   regs[2] = (unsigned char)((accel_bias_body[0] >> 8) & 0xFF);
 746              		.loc 1 740 11 view .LVU256
 747 009c 8DF80900 		strb	r0, [sp, #9]
 741:user/drivers/DMP/driver/eMPL/inv_mpu_dmp_motion_driver.c ****   regs[3] = (unsigned char)(accel_bias_body[0] & 0xFF);
 748              		.loc 1 741 3 is_stmt 1 view .LVU257
 741:user/drivers/DMP/driver/eMPL/inv_mpu_dmp_motion_driver.c ****   regs[3] = (unsigned char)(accel_bias_body[0] & 0xFF);
 749              		.loc 1 741 13 is_stmt 0 view .LVU258
 750 00a0 C1F30720 		ubfx	r0, r1, #8, #8
 741:user/drivers/DMP/driver/eMPL/inv_mpu_dmp_motion_driver.c ****   regs[3] = (unsigned char)(accel_bias_body[0] & 0xFF);
 751              		.loc 1 741 11 view .LVU259
 752 00a4 8DF80A00 		strb	r0, [sp, #10]
 742:user/drivers/DMP/driver/eMPL/inv_mpu_dmp_motion_driver.c ****   regs[4] = (unsigned char)((accel_bias_body[1] >> 24) & 0xFF);
 753              		.loc 1 742 3 is_stmt 1 view .LVU260
 742:user/drivers/DMP/driver/eMPL/inv_mpu_dmp_motion_driver.c ****   regs[4] = (unsigned char)((accel_bias_body[1] >> 24) & 0xFF);
 754              		.loc 1 742 11 is_stmt 0 view .LVU261
 755 00a8 8DF80B10 		strb	r1, [sp, #11]
 743:user/drivers/DMP/driver/eMPL/inv_mpu_dmp_motion_driver.c ****   regs[5] = (unsigned char)((accel_bias_body[1] >> 16) & 0xFF);
 756              		.loc 1 743 3 is_stmt 1 view .LVU262
 743:user/drivers/DMP/driver/eMPL/inv_mpu_dmp_motion_driver.c ****   regs[5] = (unsigned char)((accel_bias_body[1] >> 16) & 0xFF);
 757              		.loc 1 743 13 is_stmt 0 view .LVU263
 758 00ac 110E     		lsrs	r1, r2, #24
 743:user/drivers/DMP/driver/eMPL/inv_mpu_dmp_motion_driver.c ****   regs[5] = (unsigned char)((accel_bias_body[1] >> 16) & 0xFF);
 759              		.loc 1 743 11 view .LVU264
 760 00ae 8DF80C10 		strb	r1, [sp, #12]
 744:user/drivers/DMP/driver/eMPL/inv_mpu_dmp_motion_driver.c ****   regs[6] = (unsigned char)((accel_bias_body[1] >> 8) & 0xFF);
 761              		.loc 1 744 3 is_stmt 1 view .LVU265
 744:user/drivers/DMP/driver/eMPL/inv_mpu_dmp_motion_driver.c ****   regs[6] = (unsigned char)((accel_bias_body[1] >> 8) & 0xFF);
 762              		.loc 1 744 13 is_stmt 0 view .LVU266
 763 00b2 C2F30741 		ubfx	r1, r2, #16, #8
 744:user/drivers/DMP/driver/eMPL/inv_mpu_dmp_motion_driver.c ****   regs[6] = (unsigned char)((accel_bias_body[1] >> 8) & 0xFF);
 764              		.loc 1 744 11 view .LVU267
 765 00b6 8DF80D10 		strb	r1, [sp, #13]
 745:user/drivers/DMP/driver/eMPL/inv_mpu_dmp_motion_driver.c ****   regs[7] = (unsigned char)(accel_bias_body[1] & 0xFF);
 766              		.loc 1 745 3 is_stmt 1 view .LVU268
 745:user/drivers/DMP/driver/eMPL/inv_mpu_dmp_motion_driver.c ****   regs[7] = (unsigned char)(accel_bias_body[1] & 0xFF);
 767              		.loc 1 745 13 is_stmt 0 view .LVU269
 768 00ba C2F30721 		ubfx	r1, r2, #8, #8
 745:user/drivers/DMP/driver/eMPL/inv_mpu_dmp_motion_driver.c ****   regs[7] = (unsigned char)(accel_bias_body[1] & 0xFF);
 769              		.loc 1 745 11 view .LVU270
 770 00be 8DF80E10 		strb	r1, [sp, #14]
 746:user/drivers/DMP/driver/eMPL/inv_mpu_dmp_motion_driver.c ****   regs[8] = (unsigned char)((accel_bias_body[2] >> 24) & 0xFF);
ARM GAS  /var/folders/21/t9g5rlb91ys800n5npymflf80000gn/T//ccsHZoWN.s 			page 41


 771              		.loc 1 746 3 is_stmt 1 view .LVU271
 746:user/drivers/DMP/driver/eMPL/inv_mpu_dmp_motion_driver.c ****   regs[8] = (unsigned char)((accel_bias_body[2] >> 24) & 0xFF);
 772              		.loc 1 746 11 is_stmt 0 view .LVU272
 773 00c2 8DF80F20 		strb	r2, [sp, #15]
 747:user/drivers/DMP/driver/eMPL/inv_mpu_dmp_motion_driver.c ****   regs[9] = (unsigned char)((accel_bias_body[2] >> 16) & 0xFF);
 774              		.loc 1 747 3 is_stmt 1 view .LVU273
 747:user/drivers/DMP/driver/eMPL/inv_mpu_dmp_motion_driver.c ****   regs[9] = (unsigned char)((accel_bias_body[2] >> 16) & 0xFF);
 775              		.loc 1 747 13 is_stmt 0 view .LVU274
 776 00c6 1A0E     		lsrs	r2, r3, #24
 747:user/drivers/DMP/driver/eMPL/inv_mpu_dmp_motion_driver.c ****   regs[9] = (unsigned char)((accel_bias_body[2] >> 16) & 0xFF);
 777              		.loc 1 747 11 view .LVU275
 778 00c8 8DF81020 		strb	r2, [sp, #16]
 748:user/drivers/DMP/driver/eMPL/inv_mpu_dmp_motion_driver.c ****   regs[10] = (unsigned char)((accel_bias_body[2] >> 8) & 0xFF);
 779              		.loc 1 748 3 is_stmt 1 view .LVU276
 748:user/drivers/DMP/driver/eMPL/inv_mpu_dmp_motion_driver.c ****   regs[10] = (unsigned char)((accel_bias_body[2] >> 8) & 0xFF);
 780              		.loc 1 748 13 is_stmt 0 view .LVU277
 781 00cc C3F30742 		ubfx	r2, r3, #16, #8
 748:user/drivers/DMP/driver/eMPL/inv_mpu_dmp_motion_driver.c ****   regs[10] = (unsigned char)((accel_bias_body[2] >> 8) & 0xFF);
 782              		.loc 1 748 11 view .LVU278
 783 00d0 8DF81120 		strb	r2, [sp, #17]
 749:user/drivers/DMP/driver/eMPL/inv_mpu_dmp_motion_driver.c ****   regs[11] = (unsigned char)(accel_bias_body[2] & 0xFF);
 784              		.loc 1 749 3 is_stmt 1 view .LVU279
 749:user/drivers/DMP/driver/eMPL/inv_mpu_dmp_motion_driver.c ****   regs[11] = (unsigned char)(accel_bias_body[2] & 0xFF);
 785              		.loc 1 749 14 is_stmt 0 view .LVU280
 786 00d4 C3F30722 		ubfx	r2, r3, #8, #8
 749:user/drivers/DMP/driver/eMPL/inv_mpu_dmp_motion_driver.c ****   regs[11] = (unsigned char)(accel_bias_body[2] & 0xFF);
 787              		.loc 1 749 12 view .LVU281
 788 00d8 8DF81220 		strb	r2, [sp, #18]
 750:user/drivers/DMP/driver/eMPL/inv_mpu_dmp_motion_driver.c ****   return mpu_write_mem(D_ACCEL_BIAS, 12, regs);
 789              		.loc 1 750 3 is_stmt 1 view .LVU282
 750:user/drivers/DMP/driver/eMPL/inv_mpu_dmp_motion_driver.c ****   return mpu_write_mem(D_ACCEL_BIAS, 12, regs);
 790              		.loc 1 750 12 is_stmt 0 view .LVU283
 791 00dc 8DF81330 		strb	r3, [sp, #19]
 751:user/drivers/DMP/driver/eMPL/inv_mpu_dmp_motion_driver.c **** }
 792              		.loc 1 751 3 is_stmt 1 view .LVU284
 751:user/drivers/DMP/driver/eMPL/inv_mpu_dmp_motion_driver.c **** }
 793              		.loc 1 751 10 is_stmt 0 view .LVU285
 794 00e0 02AA     		add	r2, sp, #8
 795 00e2 0C21     		movs	r1, #12
 796 00e4 4FF42570 		mov	r0, #660
 797 00e8 FFF7FEFF 		bl	mpu_write_mem
 798              	.LVL25:
 752:user/drivers/DMP/driver/eMPL/inv_mpu_dmp_motion_driver.c **** 
 799              		.loc 1 752 1 view .LVU286
 800 00ec 08B0     		add	sp, sp, #32
 801              	.LCFI12:
 802              		.cfi_def_cfa_offset 8
 803              		@ sp needed
 804 00ee 10BD     		pop	{r4, pc}
 805              	.L39:
 806              		.align	2
 807              	.L38:
 808 00f0 00000000 		.word	dmp
 809              		.cfi_endproc
 810              	.LFE164:
 812              		.section	.rodata.dmp_set_fifo_rate.str1.4,"aMS",%progbits,1
 813              		.align	2
ARM GAS  /var/folders/21/t9g5rlb91ys800n5npymflf80000gn/T//ccsHZoWN.s 			page 42


 814              	.LC4:
 815 0000 FEF2ABC4 		.ascii	"\376\362\253\304\252\361\337\337\273\257\337\337\000"
 815      AAF1DFDF 
 815      BBAFDFDF 
 815      00
 816              		.section	.text.dmp_set_fifo_rate,"ax",%progbits
 817              		.align	1
 818              		.global	dmp_set_fifo_rate
 819              		.syntax unified
 820              		.thumb
 821              		.thumb_func
 823              	dmp_set_fifo_rate:
 824              	.LVL26:
 825              	.LFB165:
 760:user/drivers/DMP/driver/eMPL/inv_mpu_dmp_motion_driver.c ****   const unsigned char regs_end[12] = {DINAFE, DINAF2, DINAAB, 0xc4,
 826              		.loc 1 760 44 is_stmt 1 view -0
 827              		.cfi_startproc
 828              		@ args = 0, pretend = 0, frame = 24
 829              		@ frame_needed = 0, uses_anonymous_args = 0
 760:user/drivers/DMP/driver/eMPL/inv_mpu_dmp_motion_driver.c ****   const unsigned char regs_end[12] = {DINAFE, DINAF2, DINAAB, 0xc4,
 830              		.loc 1 760 44 is_stmt 0 view .LVU288
 831 0000 10B5     		push	{r4, lr}
 832              	.LCFI13:
 833              		.cfi_def_cfa_offset 8
 834              		.cfi_offset 4, -8
 835              		.cfi_offset 14, -4
 836 0002 86B0     		sub	sp, sp, #24
 837              	.LCFI14:
 838              		.cfi_def_cfa_offset 32
 839 0004 0446     		mov	r4, r0
 761:user/drivers/DMP/driver/eMPL/inv_mpu_dmp_motion_driver.c ****                                       DINAAA, DINAF1, DINADF, DINADF,
 840              		.loc 1 761 3 is_stmt 1 view .LVU289
 761:user/drivers/DMP/driver/eMPL/inv_mpu_dmp_motion_driver.c ****                                       DINAAA, DINAF1, DINADF, DINADF,
 841              		.loc 1 761 23 is_stmt 0 view .LVU290
 842 0006 164B     		ldr	r3, .L46
 843 0008 93E80700 		ldm	r3, {r0, r1, r2}
 844              	.LVL27:
 761:user/drivers/DMP/driver/eMPL/inv_mpu_dmp_motion_driver.c ****                                       DINAAA, DINAF1, DINADF, DINADF,
 845              		.loc 1 761 23 view .LVU291
 846 000c 06AB     		add	r3, sp, #24
 847 000e 03E90700 		stmdb	r3, {r0, r1, r2}
 764:user/drivers/DMP/driver/eMPL/inv_mpu_dmp_motion_driver.c ****   unsigned char tmp[8];
 848              		.loc 1 764 3 is_stmt 1 view .LVU292
 765:user/drivers/DMP/driver/eMPL/inv_mpu_dmp_motion_driver.c **** 
 849              		.loc 1 765 3 view .LVU293
 767:user/drivers/DMP/driver/eMPL/inv_mpu_dmp_motion_driver.c ****     return -1;
 850              		.loc 1 767 3 view .LVU294
 767:user/drivers/DMP/driver/eMPL/inv_mpu_dmp_motion_driver.c ****     return -1;
 851              		.loc 1 767 6 is_stmt 0 view .LVU295
 852 0012 C82C     		cmp	r4, #200
 853 0014 1AD8     		bhi	.L42
 769:user/drivers/DMP/driver/eMPL/inv_mpu_dmp_motion_driver.c ****   tmp[0] = (unsigned char)((div >> 8) & 0xFF);
 854              		.loc 1 769 3 is_stmt 1 view .LVU296
 769:user/drivers/DMP/driver/eMPL/inv_mpu_dmp_motion_driver.c ****   tmp[0] = (unsigned char)((div >> 8) & 0xFF);
 855              		.loc 1 769 32 is_stmt 0 view .LVU297
 856 0016 C823     		movs	r3, #200
 857 0018 93FBF4F3 		sdiv	r3, r3, r4
ARM GAS  /var/folders/21/t9g5rlb91ys800n5npymflf80000gn/T//ccsHZoWN.s 			page 43


 769:user/drivers/DMP/driver/eMPL/inv_mpu_dmp_motion_driver.c ****   tmp[0] = (unsigned char)((div >> 8) & 0xFF);
 858              		.loc 1 769 7 view .LVU298
 859 001c 013B     		subs	r3, r3, #1
 860              	.LVL28:
 770:user/drivers/DMP/driver/eMPL/inv_mpu_dmp_motion_driver.c ****   tmp[1] = (unsigned char)(div & 0xFF);
 861              		.loc 1 770 3 is_stmt 1 view .LVU299
 770:user/drivers/DMP/driver/eMPL/inv_mpu_dmp_motion_driver.c ****   tmp[1] = (unsigned char)(div & 0xFF);
 862              		.loc 1 770 12 is_stmt 0 view .LVU300
 863 001e 1A0E     		lsrs	r2, r3, #24
 770:user/drivers/DMP/driver/eMPL/inv_mpu_dmp_motion_driver.c ****   tmp[1] = (unsigned char)(div & 0xFF);
 864              		.loc 1 770 10 view .LVU301
 865 0020 8DF80420 		strb	r2, [sp, #4]
 771:user/drivers/DMP/driver/eMPL/inv_mpu_dmp_motion_driver.c ****   if (mpu_write_mem(D_0_22, 2, tmp))
 866              		.loc 1 771 3 is_stmt 1 view .LVU302
 771:user/drivers/DMP/driver/eMPL/inv_mpu_dmp_motion_driver.c ****   if (mpu_write_mem(D_0_22, 2, tmp))
 867              		.loc 1 771 10 is_stmt 0 view .LVU303
 868 0024 8DF80530 		strb	r3, [sp, #5]
 772:user/drivers/DMP/driver/eMPL/inv_mpu_dmp_motion_driver.c ****     return -1;
 869              		.loc 1 772 3 is_stmt 1 view .LVU304
 772:user/drivers/DMP/driver/eMPL/inv_mpu_dmp_motion_driver.c ****     return -1;
 870              		.loc 1 772 7 is_stmt 0 view .LVU305
 871 0028 01AA     		add	r2, sp, #4
 872 002a 0221     		movs	r1, #2
 873 002c 40F21620 		movw	r0, #534
 874 0030 FFF7FEFF 		bl	mpu_write_mem
 875              	.LVL29:
 772:user/drivers/DMP/driver/eMPL/inv_mpu_dmp_motion_driver.c ****     return -1;
 876              		.loc 1 772 6 view .LVU306
 877 0034 68B9     		cbnz	r0, .L43
 774:user/drivers/DMP/driver/eMPL/inv_mpu_dmp_motion_driver.c ****     return -1;
 878              		.loc 1 774 3 is_stmt 1 view .LVU307
 774:user/drivers/DMP/driver/eMPL/inv_mpu_dmp_motion_driver.c ****     return -1;
 879              		.loc 1 774 7 is_stmt 0 view .LVU308
 880 0036 03AA     		add	r2, sp, #12
 881 0038 0C21     		movs	r1, #12
 882 003a 40F6C120 		movw	r0, #2753
 883 003e FFF7FEFF 		bl	mpu_write_mem
 884              	.LVL30:
 774:user/drivers/DMP/driver/eMPL/inv_mpu_dmp_motion_driver.c ****     return -1;
 885              		.loc 1 774 6 view .LVU309
 886 0042 48B9     		cbnz	r0, .L44
 777:user/drivers/DMP/driver/eMPL/inv_mpu_dmp_motion_driver.c ****   return 0;
 887              		.loc 1 777 3 is_stmt 1 view .LVU310
 777:user/drivers/DMP/driver/eMPL/inv_mpu_dmp_motion_driver.c ****   return 0;
 888              		.loc 1 777 17 is_stmt 0 view .LVU311
 889 0044 074B     		ldr	r3, .L46+4
 890 0046 9C81     		strh	r4, [r3, #12]	@ movhi
 778:user/drivers/DMP/driver/eMPL/inv_mpu_dmp_motion_driver.c **** }
 891              		.loc 1 778 3 is_stmt 1 view .LVU312
 892              	.LVL31:
 893              	.L40:
 779:user/drivers/DMP/driver/eMPL/inv_mpu_dmp_motion_driver.c **** 
 894              		.loc 1 779 1 is_stmt 0 view .LVU313
 895 0048 06B0     		add	sp, sp, #24
 896              	.LCFI15:
 897              		.cfi_remember_state
 898              		.cfi_def_cfa_offset 8
ARM GAS  /var/folders/21/t9g5rlb91ys800n5npymflf80000gn/T//ccsHZoWN.s 			page 44


 899              		@ sp needed
 900 004a 10BD     		pop	{r4, pc}
 901              	.L42:
 902              	.LCFI16:
 903              		.cfi_restore_state
 768:user/drivers/DMP/driver/eMPL/inv_mpu_dmp_motion_driver.c ****   div = DMP_SAMPLE_RATE / rate - 1;
 904              		.loc 1 768 12 view .LVU314
 905 004c 4FF0FF30 		mov	r0, #-1
 906 0050 FAE7     		b	.L40
 907              	.LVL32:
 908              	.L43:
 773:user/drivers/DMP/driver/eMPL/inv_mpu_dmp_motion_driver.c ****   if (mpu_write_mem(CFG_6, 12, (unsigned char *)regs_end))
 909              		.loc 1 773 12 view .LVU315
 910 0052 4FF0FF30 		mov	r0, #-1
 911 0056 F7E7     		b	.L40
 912              	.L44:
 775:user/drivers/DMP/driver/eMPL/inv_mpu_dmp_motion_driver.c **** 
 913              		.loc 1 775 12 view .LVU316
 914 0058 4FF0FF30 		mov	r0, #-1
 915 005c F4E7     		b	.L40
 916              	.L47:
 917 005e 00BF     		.align	2
 918              	.L46:
 919 0060 00000000 		.word	.LC4
 920 0064 00000000 		.word	dmp
 921              		.cfi_endproc
 922              	.LFE165:
 924              		.section	.text.dmp_get_fifo_rate,"ax",%progbits
 925              		.align	1
 926              		.global	dmp_get_fifo_rate
 927              		.syntax unified
 928              		.thumb
 929              		.thumb_func
 931              	dmp_get_fifo_rate:
 932              	.LVL33:
 933              	.LFB166:
 786:user/drivers/DMP/driver/eMPL/inv_mpu_dmp_motion_driver.c ****   rate[0] = dmp.fifo_rate;
 934              		.loc 1 786 45 is_stmt 1 view -0
 935              		.cfi_startproc
 936              		@ args = 0, pretend = 0, frame = 0
 937              		@ frame_needed = 0, uses_anonymous_args = 0
 938              		@ link register save eliminated.
 787:user/drivers/DMP/driver/eMPL/inv_mpu_dmp_motion_driver.c ****   return 0;
 939              		.loc 1 787 3 view .LVU318
 787:user/drivers/DMP/driver/eMPL/inv_mpu_dmp_motion_driver.c ****   return 0;
 940              		.loc 1 787 16 is_stmt 0 view .LVU319
 941 0000 024B     		ldr	r3, .L49
 942 0002 9B89     		ldrh	r3, [r3, #12]
 787:user/drivers/DMP/driver/eMPL/inv_mpu_dmp_motion_driver.c ****   return 0;
 943              		.loc 1 787 11 view .LVU320
 944 0004 0380     		strh	r3, [r0]	@ movhi
 788:user/drivers/DMP/driver/eMPL/inv_mpu_dmp_motion_driver.c **** }
 945              		.loc 1 788 3 is_stmt 1 view .LVU321
 789:user/drivers/DMP/driver/eMPL/inv_mpu_dmp_motion_driver.c **** 
 946              		.loc 1 789 1 is_stmt 0 view .LVU322
 947 0006 0020     		movs	r0, #0
 948              	.LVL34:
ARM GAS  /var/folders/21/t9g5rlb91ys800n5npymflf80000gn/T//ccsHZoWN.s 			page 45


 789:user/drivers/DMP/driver/eMPL/inv_mpu_dmp_motion_driver.c **** 
 949              		.loc 1 789 1 view .LVU323
 950 0008 7047     		bx	lr
 951              	.L50:
 952 000a 00BF     		.align	2
 953              	.L49:
 954 000c 00000000 		.word	dmp
 955              		.cfi_endproc
 956              	.LFE166:
 958              		.section	.text.dmp_set_tap_thresh,"ax",%progbits
 959              		.align	1
 960              		.global	dmp_set_tap_thresh
 961              		.syntax unified
 962              		.thumb
 963              		.thumb_func
 965              	dmp_set_tap_thresh:
 966              	.LVL35:
 967              	.LFB167:
 797:user/drivers/DMP/driver/eMPL/inv_mpu_dmp_motion_driver.c ****   unsigned char tmp[4], accel_fsr;
 968              		.loc 1 797 67 is_stmt 1 view -0
 969              		.cfi_startproc
 970              		@ args = 0, pretend = 0, frame = 8
 971              		@ frame_needed = 0, uses_anonymous_args = 0
 798:user/drivers/DMP/driver/eMPL/inv_mpu_dmp_motion_driver.c ****   float scaled_thresh;
 972              		.loc 1 798 3 view .LVU325
 799:user/drivers/DMP/driver/eMPL/inv_mpu_dmp_motion_driver.c ****   unsigned short dmp_thresh, dmp_thresh_2;
 973              		.loc 1 799 3 view .LVU326
 800:user/drivers/DMP/driver/eMPL/inv_mpu_dmp_motion_driver.c ****   if (!(axis & TAP_XYZ) || thresh > 1600)
 974              		.loc 1 800 3 view .LVU327
 801:user/drivers/DMP/driver/eMPL/inv_mpu_dmp_motion_driver.c ****     return -1;
 975              		.loc 1 801 3 view .LVU328
 801:user/drivers/DMP/driver/eMPL/inv_mpu_dmp_motion_driver.c ****     return -1;
 976              		.loc 1 801 6 is_stmt 0 view .LVU329
 977 0000 10F0070F 		tst	r0, #7
 978 0004 00F0BE80 		beq	.L61
 797:user/drivers/DMP/driver/eMPL/inv_mpu_dmp_motion_driver.c ****   unsigned char tmp[4], accel_fsr;
 979              		.loc 1 797 67 discriminator 1 view .LVU330
 980 0008 10B5     		push	{r4, lr}
 981              	.LCFI17:
 982              		.cfi_def_cfa_offset 8
 983              		.cfi_offset 4, -8
 984              		.cfi_offset 14, -4
 985 000a 2DED028B 		vpush.64	{d8}
 986              	.LCFI18:
 987              		.cfi_def_cfa_offset 16
 988              		.cfi_offset 80, -16
 989              		.cfi_offset 81, -12
 990 000e 82B0     		sub	sp, sp, #8
 991              	.LCFI19:
 992              		.cfi_def_cfa_offset 24
 993 0010 0446     		mov	r4, r0
 801:user/drivers/DMP/driver/eMPL/inv_mpu_dmp_motion_driver.c ****     return -1;
 994              		.loc 1 801 25 discriminator 1 view .LVU331
 995 0012 B1F5C86F 		cmp	r1, #1600
 996 0016 00F2B880 		bhi	.L62
 804:user/drivers/DMP/driver/eMPL/inv_mpu_dmp_motion_driver.c **** 
 997              		.loc 1 804 3 is_stmt 1 view .LVU332
ARM GAS  /var/folders/21/t9g5rlb91ys800n5npymflf80000gn/T//ccsHZoWN.s 			page 46


 804:user/drivers/DMP/driver/eMPL/inv_mpu_dmp_motion_driver.c **** 
 998              		.loc 1 804 19 is_stmt 0 view .LVU333
 999 001a 07EE901A 		vmov	s15, r1	@ int
 1000 001e F8EE677A 		vcvt.f32.u32	s15, s15
 804:user/drivers/DMP/driver/eMPL/inv_mpu_dmp_motion_driver.c **** 
 1001              		.loc 1 804 17 view .LVU334
 1002 0022 9FED637A 		vldr.32	s14, .L78
 1003 0026 87EE878A 		vdiv.f32	s16, s15, s14
 1004              	.LVL36:
 806:user/drivers/DMP/driver/eMPL/inv_mpu_dmp_motion_driver.c ****   switch (accel_fsr) {
 1005              		.loc 1 806 3 is_stmt 1 view .LVU335
 1006 002a 0DF10300 		add	r0, sp, #3
 1007              	.LVL37:
 806:user/drivers/DMP/driver/eMPL/inv_mpu_dmp_motion_driver.c ****   switch (accel_fsr) {
 1008              		.loc 1 806 3 is_stmt 0 view .LVU336
 1009 002e FFF7FEFF 		bl	mpu_get_accel_fsr
 1010              	.LVL38:
 807:user/drivers/DMP/driver/eMPL/inv_mpu_dmp_motion_driver.c ****   case 2:
 1011              		.loc 1 807 3 is_stmt 1 view .LVU337
 1012 0032 9DF80330 		ldrb	r3, [sp, #3]	@ zero_extendqisi2
 1013 0036 023B     		subs	r3, r3, #2
 1014 0038 0E2B     		cmp	r3, #14
 1015 003a 00F2A980 		bhi	.L63
 1016 003e DFE803F0 		tbb	[pc, r3]
 1017              	.L54:
 1018 0042 08       		.byte	(.L57-.L54)/2
 1019 0043 A7       		.byte	(.L63-.L54)/2
 1020 0044 2F       		.byte	(.L56-.L54)/2
 1021 0045 A7       		.byte	(.L63-.L54)/2
 1022 0046 A7       		.byte	(.L63-.L54)/2
 1023 0047 A7       		.byte	(.L63-.L54)/2
 1024 0048 42       		.byte	(.L55-.L54)/2
 1025 0049 A7       		.byte	(.L63-.L54)/2
 1026 004a A7       		.byte	(.L63-.L54)/2
 1027 004b A7       		.byte	(.L63-.L54)/2
 1028 004c A7       		.byte	(.L63-.L54)/2
 1029 004d A7       		.byte	(.L63-.L54)/2
 1030 004e A7       		.byte	(.L63-.L54)/2
 1031 004f A7       		.byte	(.L63-.L54)/2
 1032 0050 55       		.byte	(.L53-.L54)/2
 1033 0051 00       		.p2align 1
 1034              	.L57:
 809:user/drivers/DMP/driver/eMPL/inv_mpu_dmp_motion_driver.c ****     /* dmp_thresh * 0.75 */
 1035              		.loc 1 809 5 view .LVU338
 809:user/drivers/DMP/driver/eMPL/inv_mpu_dmp_motion_driver.c ****     /* dmp_thresh * 0.75 */
 1036              		.loc 1 809 49 is_stmt 0 view .LVU339
 1037 0052 DFED587A 		vldr.32	s15, .L78+4
 1038 0056 68EE277A 		vmul.f32	s15, s16, s15
 809:user/drivers/DMP/driver/eMPL/inv_mpu_dmp_motion_driver.c ****     /* dmp_thresh * 0.75 */
 1039              		.loc 1 809 16 view .LVU340
 1040 005a FCEEE77A 		vcvt.u32.f32	s15, s15
 1041 005e 17EE903A 		vmov	r3, s15	@ int
 1042 0062 9BB2     		uxth	r3, r3
 1043              	.LVL39:
 811:user/drivers/DMP/driver/eMPL/inv_mpu_dmp_motion_driver.c ****     break;
 1044              		.loc 1 811 5 is_stmt 1 view .LVU341
 811:user/drivers/DMP/driver/eMPL/inv_mpu_dmp_motion_driver.c ****     break;
ARM GAS  /var/folders/21/t9g5rlb91ys800n5npymflf80000gn/T//ccsHZoWN.s 			page 47


 1045              		.loc 1 811 51 is_stmt 0 view .LVU342
 1046 0064 DFED547A 		vldr.32	s15, .L78+8
 1047 0068 68EE277A 		vmul.f32	s15, s16, s15
 811:user/drivers/DMP/driver/eMPL/inv_mpu_dmp_motion_driver.c ****     break;
 1048              		.loc 1 811 18 view .LVU343
 1049 006c FCEEE77A 		vcvt.u32.f32	s15, s15
 1050 0070 17EE902A 		vmov	r2, s15	@ int
 1051 0074 92B2     		uxth	r2, r2
 1052              	.LVL40:
 812:user/drivers/DMP/driver/eMPL/inv_mpu_dmp_motion_driver.c ****   case 4:
 1053              		.loc 1 812 5 is_stmt 1 view .LVU344
 1054              	.L58:
 831:user/drivers/DMP/driver/eMPL/inv_mpu_dmp_motion_driver.c ****   tmp[1] = (unsigned char)(dmp_thresh & 0xFF);
 1055              		.loc 1 831 3 view .LVU345
 831:user/drivers/DMP/driver/eMPL/inv_mpu_dmp_motion_driver.c ****   tmp[1] = (unsigned char)(dmp_thresh & 0xFF);
 1056              		.loc 1 831 12 is_stmt 0 view .LVU346
 1057 0076 190A     		lsrs	r1, r3, #8
 831:user/drivers/DMP/driver/eMPL/inv_mpu_dmp_motion_driver.c ****   tmp[1] = (unsigned char)(dmp_thresh & 0xFF);
 1058              		.loc 1 831 10 view .LVU347
 1059 0078 8DF80410 		strb	r1, [sp, #4]
 832:user/drivers/DMP/driver/eMPL/inv_mpu_dmp_motion_driver.c ****   tmp[2] = (unsigned char)(dmp_thresh_2 >> 8);
 1060              		.loc 1 832 3 is_stmt 1 view .LVU348
 832:user/drivers/DMP/driver/eMPL/inv_mpu_dmp_motion_driver.c ****   tmp[2] = (unsigned char)(dmp_thresh_2 >> 8);
 1061              		.loc 1 832 10 is_stmt 0 view .LVU349
 1062 007c 8DF80530 		strb	r3, [sp, #5]
 833:user/drivers/DMP/driver/eMPL/inv_mpu_dmp_motion_driver.c ****   tmp[3] = (unsigned char)(dmp_thresh_2 & 0xFF);
 1063              		.loc 1 833 3 is_stmt 1 view .LVU350
 833:user/drivers/DMP/driver/eMPL/inv_mpu_dmp_motion_driver.c ****   tmp[3] = (unsigned char)(dmp_thresh_2 & 0xFF);
 1064              		.loc 1 833 12 is_stmt 0 view .LVU351
 1065 0080 130A     		lsrs	r3, r2, #8
 1066              	.LVL41:
 833:user/drivers/DMP/driver/eMPL/inv_mpu_dmp_motion_driver.c ****   tmp[3] = (unsigned char)(dmp_thresh_2 & 0xFF);
 1067              		.loc 1 833 10 view .LVU352
 1068 0082 8DF80630 		strb	r3, [sp, #6]
 834:user/drivers/DMP/driver/eMPL/inv_mpu_dmp_motion_driver.c **** 
 1069              		.loc 1 834 3 is_stmt 1 view .LVU353
 834:user/drivers/DMP/driver/eMPL/inv_mpu_dmp_motion_driver.c **** 
 1070              		.loc 1 834 10 is_stmt 0 view .LVU354
 1071 0086 8DF80720 		strb	r2, [sp, #7]
 836:user/drivers/DMP/driver/eMPL/inv_mpu_dmp_motion_driver.c ****     if (mpu_write_mem(DMP_TAP_THX, 2, tmp))
 1072              		.loc 1 836 3 is_stmt 1 view .LVU355
 836:user/drivers/DMP/driver/eMPL/inv_mpu_dmp_motion_driver.c ****     if (mpu_write_mem(DMP_TAP_THX, 2, tmp))
 1073              		.loc 1 836 6 is_stmt 0 view .LVU356
 1074 008a 14F0010F 		tst	r4, #1
 1075 008e 40D1     		bne	.L75
 1076              	.LVL42:
 1077              	.L59:
 842:user/drivers/DMP/driver/eMPL/inv_mpu_dmp_motion_driver.c ****     if (mpu_write_mem(DMP_TAP_THY, 2, tmp))
 1078              		.loc 1 842 3 is_stmt 1 view .LVU357
 842:user/drivers/DMP/driver/eMPL/inv_mpu_dmp_motion_driver.c ****     if (mpu_write_mem(DMP_TAP_THY, 2, tmp))
 1079              		.loc 1 842 6 is_stmt 0 view .LVU358
 1080 0090 14F0020F 		tst	r4, #2
 1081 0094 51D1     		bne	.L76
 1082              	.L60:
 848:user/drivers/DMP/driver/eMPL/inv_mpu_dmp_motion_driver.c ****     if (mpu_write_mem(DMP_TAP_THZ, 2, tmp))
 1083              		.loc 1 848 3 is_stmt 1 view .LVU359
 848:user/drivers/DMP/driver/eMPL/inv_mpu_dmp_motion_driver.c ****     if (mpu_write_mem(DMP_TAP_THZ, 2, tmp))
ARM GAS  /var/folders/21/t9g5rlb91ys800n5npymflf80000gn/T//ccsHZoWN.s 			page 48


 1084              		.loc 1 848 6 is_stmt 0 view .LVU360
 1085 0096 14F0040F 		tst	r4, #4
 1086 009a 61D1     		bne	.L77
 854:user/drivers/DMP/driver/eMPL/inv_mpu_dmp_motion_driver.c **** }
 1087              		.loc 1 854 10 view .LVU361
 1088 009c 0020     		movs	r0, #0
 1089 009e 79E0     		b	.L51
 1090              	.LVL43:
 1091              	.L56:
 814:user/drivers/DMP/driver/eMPL/inv_mpu_dmp_motion_driver.c ****     /* dmp_thresh * 0.75 */
 1092              		.loc 1 814 5 is_stmt 1 view .LVU362
 814:user/drivers/DMP/driver/eMPL/inv_mpu_dmp_motion_driver.c ****     /* dmp_thresh * 0.75 */
 1093              		.loc 1 814 49 is_stmt 0 view .LVU363
 1094 00a0 DFED467A 		vldr.32	s15, .L78+12
 1095 00a4 68EE277A 		vmul.f32	s15, s16, s15
 814:user/drivers/DMP/driver/eMPL/inv_mpu_dmp_motion_driver.c ****     /* dmp_thresh * 0.75 */
 1096              		.loc 1 814 16 view .LVU364
 1097 00a8 FCEEE77A 		vcvt.u32.f32	s15, s15
 1098 00ac 17EE903A 		vmov	r3, s15	@ int
 1099 00b0 9BB2     		uxth	r3, r3
 1100              	.LVL44:
 816:user/drivers/DMP/driver/eMPL/inv_mpu_dmp_motion_driver.c ****     break;
 1101              		.loc 1 816 5 is_stmt 1 view .LVU365
 816:user/drivers/DMP/driver/eMPL/inv_mpu_dmp_motion_driver.c ****     break;
 1102              		.loc 1 816 51 is_stmt 0 view .LVU366
 1103 00b2 DFED437A 		vldr.32	s15, .L78+16
 1104 00b6 68EE277A 		vmul.f32	s15, s16, s15
 816:user/drivers/DMP/driver/eMPL/inv_mpu_dmp_motion_driver.c ****     break;
 1105              		.loc 1 816 18 view .LVU367
 1106 00ba FCEEE77A 		vcvt.u32.f32	s15, s15
 1107 00be 17EE902A 		vmov	r2, s15	@ int
 1108 00c2 92B2     		uxth	r2, r2
 1109              	.LVL45:
 817:user/drivers/DMP/driver/eMPL/inv_mpu_dmp_motion_driver.c ****   case 8:
 1110              		.loc 1 817 5 is_stmt 1 view .LVU368
 1111 00c4 D7E7     		b	.L58
 1112              	.LVL46:
 1113              	.L55:
 819:user/drivers/DMP/driver/eMPL/inv_mpu_dmp_motion_driver.c ****     /* dmp_thresh * 0.75 */
 1114              		.loc 1 819 5 view .LVU369
 819:user/drivers/DMP/driver/eMPL/inv_mpu_dmp_motion_driver.c ****     /* dmp_thresh * 0.75 */
 1115              		.loc 1 819 49 is_stmt 0 view .LVU370
 1116 00c6 DFED3F7A 		vldr.32	s15, .L78+20
 1117 00ca 68EE277A 		vmul.f32	s15, s16, s15
 819:user/drivers/DMP/driver/eMPL/inv_mpu_dmp_motion_driver.c ****     /* dmp_thresh * 0.75 */
 1118              		.loc 1 819 16 view .LVU371
 1119 00ce FCEEE77A 		vcvt.u32.f32	s15, s15
 1120 00d2 17EE903A 		vmov	r3, s15	@ int
 1121 00d6 9BB2     		uxth	r3, r3
 1122              	.LVL47:
 821:user/drivers/DMP/driver/eMPL/inv_mpu_dmp_motion_driver.c ****     break;
 1123              		.loc 1 821 5 is_stmt 1 view .LVU372
 821:user/drivers/DMP/driver/eMPL/inv_mpu_dmp_motion_driver.c ****     break;
 1124              		.loc 1 821 51 is_stmt 0 view .LVU373
 1125 00d8 DFED3B7A 		vldr.32	s15, .L78+24
 1126 00dc 68EE277A 		vmul.f32	s15, s16, s15
 821:user/drivers/DMP/driver/eMPL/inv_mpu_dmp_motion_driver.c ****     break;
ARM GAS  /var/folders/21/t9g5rlb91ys800n5npymflf80000gn/T//ccsHZoWN.s 			page 49


 1127              		.loc 1 821 18 view .LVU374
 1128 00e0 FCEEE77A 		vcvt.u32.f32	s15, s15
 1129 00e4 17EE902A 		vmov	r2, s15	@ int
 1130 00e8 92B2     		uxth	r2, r2
 1131              	.LVL48:
 822:user/drivers/DMP/driver/eMPL/inv_mpu_dmp_motion_driver.c ****   case 16:
 1132              		.loc 1 822 5 is_stmt 1 view .LVU375
 1133 00ea C4E7     		b	.L58
 1134              	.LVL49:
 1135              	.L53:
 824:user/drivers/DMP/driver/eMPL/inv_mpu_dmp_motion_driver.c ****     /* dmp_thresh * 0.75 */
 1136              		.loc 1 824 5 view .LVU376
 824:user/drivers/DMP/driver/eMPL/inv_mpu_dmp_motion_driver.c ****     /* dmp_thresh * 0.75 */
 1137              		.loc 1 824 49 is_stmt 0 view .LVU377
 1138 00ec DFED377A 		vldr.32	s15, .L78+28
 1139 00f0 68EE277A 		vmul.f32	s15, s16, s15
 824:user/drivers/DMP/driver/eMPL/inv_mpu_dmp_motion_driver.c ****     /* dmp_thresh * 0.75 */
 1140              		.loc 1 824 16 view .LVU378
 1141 00f4 FCEEE77A 		vcvt.u32.f32	s15, s15
 1142 00f8 17EE903A 		vmov	r3, s15	@ int
 1143 00fc 9BB2     		uxth	r3, r3
 1144              	.LVL50:
 826:user/drivers/DMP/driver/eMPL/inv_mpu_dmp_motion_driver.c ****     break;
 1145              		.loc 1 826 5 is_stmt 1 view .LVU379
 826:user/drivers/DMP/driver/eMPL/inv_mpu_dmp_motion_driver.c ****     break;
 1146              		.loc 1 826 51 is_stmt 0 view .LVU380
 1147 00fe DFED347A 		vldr.32	s15, .L78+32
 1148 0102 28EE278A 		vmul.f32	s16, s16, s15
 1149              	.LVL51:
 826:user/drivers/DMP/driver/eMPL/inv_mpu_dmp_motion_driver.c ****     break;
 1150              		.loc 1 826 18 view .LVU381
 1151 0106 BCEEC88A 		vcvt.u32.f32	s16, s16
 1152 010a 18EE102A 		vmov	r2, s16	@ int
 1153 010e 92B2     		uxth	r2, r2
 1154              	.LVL52:
 827:user/drivers/DMP/driver/eMPL/inv_mpu_dmp_motion_driver.c ****   default:
 1155              		.loc 1 827 5 is_stmt 1 view .LVU382
 1156 0110 B1E7     		b	.L58
 1157              	.LVL53:
 1158              	.L75:
 837:user/drivers/DMP/driver/eMPL/inv_mpu_dmp_motion_driver.c ****       return -1;
 1159              		.loc 1 837 5 view .LVU383
 837:user/drivers/DMP/driver/eMPL/inv_mpu_dmp_motion_driver.c ****       return -1;
 1160              		.loc 1 837 9 is_stmt 0 view .LVU384
 1161 0112 01AA     		add	r2, sp, #4
 1162              	.LVL54:
 837:user/drivers/DMP/driver/eMPL/inv_mpu_dmp_motion_driver.c ****       return -1;
 1163              		.loc 1 837 9 view .LVU385
 1164 0114 0221     		movs	r1, #2
 1165 0116 4FF4EA70 		mov	r0, #468
 1166 011a FFF7FEFF 		bl	mpu_write_mem
 1167              	.LVL55:
 837:user/drivers/DMP/driver/eMPL/inv_mpu_dmp_motion_driver.c ****       return -1;
 1168              		.loc 1 837 8 view .LVU386
 1169 011e 0028     		cmp	r0, #0
 1170 0120 3CD1     		bne	.L64
 839:user/drivers/DMP/driver/eMPL/inv_mpu_dmp_motion_driver.c ****       return -1;
ARM GAS  /var/folders/21/t9g5rlb91ys800n5npymflf80000gn/T//ccsHZoWN.s 			page 50


 1171              		.loc 1 839 5 is_stmt 1 view .LVU387
 839:user/drivers/DMP/driver/eMPL/inv_mpu_dmp_motion_driver.c ****       return -1;
 1172              		.loc 1 839 9 is_stmt 0 view .LVU388
 1173 0122 0DF10602 		add	r2, sp, #6
 1174 0126 0221     		movs	r1, #2
 1175 0128 4FF49270 		mov	r0, #292
 1176 012c FFF7FEFF 		bl	mpu_write_mem
 1177              	.LVL56:
 839:user/drivers/DMP/driver/eMPL/inv_mpu_dmp_motion_driver.c ****       return -1;
 1178              		.loc 1 839 8 view .LVU389
 1179 0130 0028     		cmp	r0, #0
 1180 0132 ADD0     		beq	.L59
 840:user/drivers/DMP/driver/eMPL/inv_mpu_dmp_motion_driver.c ****   }
 1181              		.loc 1 840 14 view .LVU390
 1182 0134 4FF0FF30 		mov	r0, #-1
 1183 0138 2CE0     		b	.L51
 1184              	.L76:
 843:user/drivers/DMP/driver/eMPL/inv_mpu_dmp_motion_driver.c ****       return -1;
 1185              		.loc 1 843 5 is_stmt 1 view .LVU391
 843:user/drivers/DMP/driver/eMPL/inv_mpu_dmp_motion_driver.c ****       return -1;
 1186              		.loc 1 843 9 is_stmt 0 view .LVU392
 1187 013a 01AA     		add	r2, sp, #4
 1188 013c 0221     		movs	r1, #2
 1189 013e 4FF4EC70 		mov	r0, #472
 1190 0142 FFF7FEFF 		bl	mpu_write_mem
 1191              	.LVL57:
 843:user/drivers/DMP/driver/eMPL/inv_mpu_dmp_motion_driver.c ****       return -1;
 1192              		.loc 1 843 8 view .LVU393
 1193 0146 60BB     		cbnz	r0, .L66
 845:user/drivers/DMP/driver/eMPL/inv_mpu_dmp_motion_driver.c ****       return -1;
 1194              		.loc 1 845 5 is_stmt 1 view .LVU394
 845:user/drivers/DMP/driver/eMPL/inv_mpu_dmp_motion_driver.c ****       return -1;
 1195              		.loc 1 845 9 is_stmt 0 view .LVU395
 1196 0148 0DF10602 		add	r2, sp, #6
 1197 014c 0221     		movs	r1, #2
 1198 014e 4FF49470 		mov	r0, #296
 1199 0152 FFF7FEFF 		bl	mpu_write_mem
 1200              	.LVL58:
 845:user/drivers/DMP/driver/eMPL/inv_mpu_dmp_motion_driver.c ****       return -1;
 1201              		.loc 1 845 8 view .LVU396
 1202 0156 0028     		cmp	r0, #0
 1203 0158 9DD0     		beq	.L60
 846:user/drivers/DMP/driver/eMPL/inv_mpu_dmp_motion_driver.c ****   }
 1204              		.loc 1 846 14 view .LVU397
 1205 015a 4FF0FF30 		mov	r0, #-1
 1206 015e 19E0     		b	.L51
 1207              	.L77:
 849:user/drivers/DMP/driver/eMPL/inv_mpu_dmp_motion_driver.c ****       return -1;
 1208              		.loc 1 849 5 is_stmt 1 view .LVU398
 849:user/drivers/DMP/driver/eMPL/inv_mpu_dmp_motion_driver.c ****       return -1;
 1209              		.loc 1 849 9 is_stmt 0 view .LVU399
 1210 0160 01AA     		add	r2, sp, #4
 1211 0162 0221     		movs	r1, #2
 1212 0164 4FF4EE70 		mov	r0, #476
 1213 0168 FFF7FEFF 		bl	mpu_write_mem
 1214              	.LVL59:
 849:user/drivers/DMP/driver/eMPL/inv_mpu_dmp_motion_driver.c ****       return -1;
ARM GAS  /var/folders/21/t9g5rlb91ys800n5npymflf80000gn/T//ccsHZoWN.s 			page 51


 1215              		.loc 1 849 8 view .LVU400
 1216 016c E0B9     		cbnz	r0, .L69
 851:user/drivers/DMP/driver/eMPL/inv_mpu_dmp_motion_driver.c ****       return -1;
 1217              		.loc 1 851 5 is_stmt 1 view .LVU401
 851:user/drivers/DMP/driver/eMPL/inv_mpu_dmp_motion_driver.c ****       return -1;
 1218              		.loc 1 851 9 is_stmt 0 view .LVU402
 1219 016e 0DF10602 		add	r2, sp, #6
 1220 0172 0221     		movs	r1, #2
 1221 0174 4FF49670 		mov	r0, #300
 1222 0178 FFF7FEFF 		bl	mpu_write_mem
 1223              	.LVL60:
 851:user/drivers/DMP/driver/eMPL/inv_mpu_dmp_motion_driver.c ****       return -1;
 1224              		.loc 1 851 8 view .LVU403
 1225 017c 50B1     		cbz	r0, .L51
 852:user/drivers/DMP/driver/eMPL/inv_mpu_dmp_motion_driver.c ****   }
 1226              		.loc 1 852 14 view .LVU404
 1227 017e 4FF0FF30 		mov	r0, #-1
 1228 0182 07E0     		b	.L51
 1229              	.LVL61:
 1230              	.L61:
 1231              	.LCFI20:
 1232              		.cfi_def_cfa_offset 0
 1233              		.cfi_restore 4
 1234              		.cfi_restore 14
 1235              		.cfi_restore 80
 1236              		.cfi_restore 81
 802:user/drivers/DMP/driver/eMPL/inv_mpu_dmp_motion_driver.c **** 
 1237              		.loc 1 802 12 view .LVU405
 1238 0184 4FF0FF30 		mov	r0, #-1
 1239              	.LVL62:
 855:user/drivers/DMP/driver/eMPL/inv_mpu_dmp_motion_driver.c **** 
 1240              		.loc 1 855 1 view .LVU406
 1241 0188 7047     		bx	lr
 1242              	.LVL63:
 1243              	.L62:
 1244              	.LCFI21:
 1245              		.cfi_def_cfa_offset 24
 1246              		.cfi_offset 4, -8
 1247              		.cfi_offset 14, -4
 1248              		.cfi_offset 80, -16
 1249              		.cfi_offset 81, -12
 802:user/drivers/DMP/driver/eMPL/inv_mpu_dmp_motion_driver.c **** 
 1250              		.loc 1 802 12 view .LVU407
 1251 018a 4FF0FF30 		mov	r0, #-1
 1252              	.LVL64:
 802:user/drivers/DMP/driver/eMPL/inv_mpu_dmp_motion_driver.c **** 
 1253              		.loc 1 802 12 view .LVU408
 1254 018e 01E0     		b	.L51
 1255              	.LVL65:
 1256              	.L63:
 807:user/drivers/DMP/driver/eMPL/inv_mpu_dmp_motion_driver.c ****   case 2:
 1257              		.loc 1 807 3 view .LVU409
 1258 0190 4FF0FF30 		mov	r0, #-1
 1259              	.LVL66:
 1260              	.L51:
 855:user/drivers/DMP/driver/eMPL/inv_mpu_dmp_motion_driver.c **** 
 1261              		.loc 1 855 1 view .LVU410
ARM GAS  /var/folders/21/t9g5rlb91ys800n5npymflf80000gn/T//ccsHZoWN.s 			page 52


 1262 0194 02B0     		add	sp, sp, #8
 1263              	.LCFI22:
 1264              		.cfi_remember_state
 1265              		.cfi_def_cfa_offset 16
 1266              		@ sp needed
 1267 0196 BDEC028B 		vldm	sp!, {d8}
 1268              	.LCFI23:
 1269              		.cfi_restore 80
 1270              		.cfi_restore 81
 1271              		.cfi_def_cfa_offset 8
 1272 019a 10BD     		pop	{r4, pc}
 1273              	.LVL67:
 1274              	.L64:
 1275              	.LCFI24:
 1276              		.cfi_restore_state
 838:user/drivers/DMP/driver/eMPL/inv_mpu_dmp_motion_driver.c ****     if (mpu_write_mem(D_1_36, 2, tmp + 2))
 1277              		.loc 1 838 14 view .LVU411
 1278 019c 4FF0FF30 		mov	r0, #-1
 1279 01a0 F8E7     		b	.L51
 1280              	.L66:
 844:user/drivers/DMP/driver/eMPL/inv_mpu_dmp_motion_driver.c ****     if (mpu_write_mem(D_1_40, 2, tmp + 2))
 1281              		.loc 1 844 14 view .LVU412
 1282 01a2 4FF0FF30 		mov	r0, #-1
 1283 01a6 F5E7     		b	.L51
 1284              	.L69:
 850:user/drivers/DMP/driver/eMPL/inv_mpu_dmp_motion_driver.c ****     if (mpu_write_mem(D_1_44, 2, tmp + 2))
 1285              		.loc 1 850 14 view .LVU413
 1286 01a8 4FF0FF30 		mov	r0, #-1
 1287 01ac F2E7     		b	.L51
 1288              	.L79:
 1289 01ae 00BF     		.align	2
 1290              	.L78:
 1291 01b0 00004843 		.word	1128792064
 1292 01b4 00008046 		.word	1182793728
 1293 01b8 00004046 		.word	1178599424
 1294 01bc 00000046 		.word	1174405120
 1295 01c0 0000C045 		.word	1170210816
 1296 01c4 00008045 		.word	1166016512
 1297 01c8 00004045 		.word	1161822208
 1298 01cc 00000045 		.word	1157627904
 1299 01d0 0000C044 		.word	1153433600
 1300              		.cfi_endproc
 1301              	.LFE167:
 1303              		.section	.text.dmp_set_tap_axes,"ax",%progbits
 1304              		.align	1
 1305              		.global	dmp_set_tap_axes
 1306              		.syntax unified
 1307              		.thumb
 1308              		.thumb_func
 1310              	dmp_set_tap_axes:
 1311              	.LVL68:
 1312              	.LFB168:
 862:user/drivers/DMP/driver/eMPL/inv_mpu_dmp_motion_driver.c ****   unsigned char tmp = 0;
 1313              		.loc 1 862 42 is_stmt 1 view -0
 1314              		.cfi_startproc
 1315              		@ args = 0, pretend = 0, frame = 8
 1316              		@ frame_needed = 0, uses_anonymous_args = 0
ARM GAS  /var/folders/21/t9g5rlb91ys800n5npymflf80000gn/T//ccsHZoWN.s 			page 53


 862:user/drivers/DMP/driver/eMPL/inv_mpu_dmp_motion_driver.c ****   unsigned char tmp = 0;
 1317              		.loc 1 862 42 is_stmt 0 view .LVU415
 1318 0000 00B5     		push	{lr}
 1319              	.LCFI25:
 1320              		.cfi_def_cfa_offset 4
 1321              		.cfi_offset 14, -4
 1322 0002 83B0     		sub	sp, sp, #12
 1323              	.LCFI26:
 1324              		.cfi_def_cfa_offset 16
 863:user/drivers/DMP/driver/eMPL/inv_mpu_dmp_motion_driver.c **** 
 1325              		.loc 1 863 3 is_stmt 1 view .LVU416
 863:user/drivers/DMP/driver/eMPL/inv_mpu_dmp_motion_driver.c **** 
 1326              		.loc 1 863 17 is_stmt 0 view .LVU417
 1327 0004 0023     		movs	r3, #0
 1328 0006 8DF80730 		strb	r3, [sp, #7]
 865:user/drivers/DMP/driver/eMPL/inv_mpu_dmp_motion_driver.c ****     tmp |= 0x30;
 1329              		.loc 1 865 3 is_stmt 1 view .LVU418
 865:user/drivers/DMP/driver/eMPL/inv_mpu_dmp_motion_driver.c ****     tmp |= 0x30;
 1330              		.loc 1 865 6 is_stmt 0 view .LVU419
 1331 000a 10F0010F 		tst	r0, #1
 1332 000e 02D0     		beq	.L81
 866:user/drivers/DMP/driver/eMPL/inv_mpu_dmp_motion_driver.c ****   if (axis & TAP_Y)
 1333              		.loc 1 866 5 is_stmt 1 view .LVU420
 866:user/drivers/DMP/driver/eMPL/inv_mpu_dmp_motion_driver.c ****   if (axis & TAP_Y)
 1334              		.loc 1 866 9 is_stmt 0 view .LVU421
 1335 0010 3023     		movs	r3, #48
 1336 0012 8DF80730 		strb	r3, [sp, #7]
 1337              	.L81:
 867:user/drivers/DMP/driver/eMPL/inv_mpu_dmp_motion_driver.c ****     tmp |= 0x0C;
 1338              		.loc 1 867 3 is_stmt 1 view .LVU422
 867:user/drivers/DMP/driver/eMPL/inv_mpu_dmp_motion_driver.c ****     tmp |= 0x0C;
 1339              		.loc 1 867 6 is_stmt 0 view .LVU423
 1340 0016 10F0020F 		tst	r0, #2
 1341 001a 05D0     		beq	.L82
 868:user/drivers/DMP/driver/eMPL/inv_mpu_dmp_motion_driver.c ****   if (axis & TAP_Z)
 1342              		.loc 1 868 5 is_stmt 1 view .LVU424
 868:user/drivers/DMP/driver/eMPL/inv_mpu_dmp_motion_driver.c ****   if (axis & TAP_Z)
 1343              		.loc 1 868 9 is_stmt 0 view .LVU425
 1344 001c 9DF80730 		ldrb	r3, [sp, #7]	@ zero_extendqisi2
 1345 0020 43F00C03 		orr	r3, r3, #12
 1346 0024 8DF80730 		strb	r3, [sp, #7]
 1347              	.L82:
 869:user/drivers/DMP/driver/eMPL/inv_mpu_dmp_motion_driver.c ****     tmp |= 0x03;
 1348              		.loc 1 869 3 is_stmt 1 view .LVU426
 869:user/drivers/DMP/driver/eMPL/inv_mpu_dmp_motion_driver.c ****     tmp |= 0x03;
 1349              		.loc 1 869 6 is_stmt 0 view .LVU427
 1350 0028 10F0040F 		tst	r0, #4
 1351 002c 05D0     		beq	.L83
 870:user/drivers/DMP/driver/eMPL/inv_mpu_dmp_motion_driver.c ****   return mpu_write_mem(D_1_72, 1, &tmp);
 1352              		.loc 1 870 5 is_stmt 1 view .LVU428
 870:user/drivers/DMP/driver/eMPL/inv_mpu_dmp_motion_driver.c ****   return mpu_write_mem(D_1_72, 1, &tmp);
 1353              		.loc 1 870 9 is_stmt 0 view .LVU429
 1354 002e 9DF80730 		ldrb	r3, [sp, #7]	@ zero_extendqisi2
 1355 0032 43F00303 		orr	r3, r3, #3
 1356 0036 8DF80730 		strb	r3, [sp, #7]
 1357              	.L83:
 871:user/drivers/DMP/driver/eMPL/inv_mpu_dmp_motion_driver.c **** }
ARM GAS  /var/folders/21/t9g5rlb91ys800n5npymflf80000gn/T//ccsHZoWN.s 			page 54


 1358              		.loc 1 871 3 is_stmt 1 view .LVU430
 871:user/drivers/DMP/driver/eMPL/inv_mpu_dmp_motion_driver.c **** }
 1359              		.loc 1 871 10 is_stmt 0 view .LVU431
 1360 003a 0DF10702 		add	r2, sp, #7
 1361 003e 0121     		movs	r1, #1
 1362 0040 4FF4A470 		mov	r0, #328
 1363              	.LVL69:
 871:user/drivers/DMP/driver/eMPL/inv_mpu_dmp_motion_driver.c **** }
 1364              		.loc 1 871 10 view .LVU432
 1365 0044 FFF7FEFF 		bl	mpu_write_mem
 1366              	.LVL70:
 872:user/drivers/DMP/driver/eMPL/inv_mpu_dmp_motion_driver.c **** 
 1367              		.loc 1 872 1 view .LVU433
 1368 0048 03B0     		add	sp, sp, #12
 1369              	.LCFI27:
 1370              		.cfi_def_cfa_offset 4
 1371              		@ sp needed
 1372 004a 5DF804FB 		ldr	pc, [sp], #4
 1373              		.cfi_endproc
 1374              	.LFE168:
 1376              		.section	.text.dmp_set_tap_count,"ax",%progbits
 1377              		.align	1
 1378              		.global	dmp_set_tap_count
 1379              		.syntax unified
 1380              		.thumb
 1381              		.thumb_func
 1383              	dmp_set_tap_count:
 1384              	.LVL71:
 1385              	.LFB169:
 879:user/drivers/DMP/driver/eMPL/inv_mpu_dmp_motion_driver.c ****   unsigned char tmp;
 1386              		.loc 1 879 47 is_stmt 1 view -0
 1387              		.cfi_startproc
 1388              		@ args = 0, pretend = 0, frame = 8
 1389              		@ frame_needed = 0, uses_anonymous_args = 0
 879:user/drivers/DMP/driver/eMPL/inv_mpu_dmp_motion_driver.c ****   unsigned char tmp;
 1390              		.loc 1 879 47 is_stmt 0 view .LVU435
 1391 0000 00B5     		push	{lr}
 1392              	.LCFI28:
 1393              		.cfi_def_cfa_offset 4
 1394              		.cfi_offset 14, -4
 1395 0002 83B0     		sub	sp, sp, #12
 1396              	.LCFI29:
 1397              		.cfi_def_cfa_offset 16
 880:user/drivers/DMP/driver/eMPL/inv_mpu_dmp_motion_driver.c **** 
 1398              		.loc 1 880 3 is_stmt 1 view .LVU436
 882:user/drivers/DMP/driver/eMPL/inv_mpu_dmp_motion_driver.c ****     min_taps = 1;
 1399              		.loc 1 882 3 view .LVU437
 882:user/drivers/DMP/driver/eMPL/inv_mpu_dmp_motion_driver.c ****     min_taps = 1;
 1400              		.loc 1 882 6 is_stmt 0 view .LVU438
 1401 0004 20B1     		cbz	r0, .L87
 1402 0006 0346     		mov	r3, r0
 884:user/drivers/DMP/driver/eMPL/inv_mpu_dmp_motion_driver.c ****     min_taps = 4;
 1403              		.loc 1 884 8 is_stmt 1 view .LVU439
 884:user/drivers/DMP/driver/eMPL/inv_mpu_dmp_motion_driver.c ****     min_taps = 4;
 1404              		.loc 1 884 11 is_stmt 0 view .LVU440
 1405 0008 0428     		cmp	r0, #4
 1406 000a 02D9     		bls	.L86
ARM GAS  /var/folders/21/t9g5rlb91ys800n5npymflf80000gn/T//ccsHZoWN.s 			page 55


 885:user/drivers/DMP/driver/eMPL/inv_mpu_dmp_motion_driver.c **** 
 1407              		.loc 1 885 14 view .LVU441
 1408 000c 0423     		movs	r3, #4
 1409 000e 00E0     		b	.L86
 1410              	.L87:
 883:user/drivers/DMP/driver/eMPL/inv_mpu_dmp_motion_driver.c ****   else if (min_taps > 4)
 1411              		.loc 1 883 14 view .LVU442
 1412 0010 0123     		movs	r3, #1
 1413              	.L86:
 1414              	.LVL72:
 887:user/drivers/DMP/driver/eMPL/inv_mpu_dmp_motion_driver.c ****   return mpu_write_mem(D_1_79, 1, &tmp);
 1415              		.loc 1 887 3 is_stmt 1 view .LVU443
 887:user/drivers/DMP/driver/eMPL/inv_mpu_dmp_motion_driver.c ****   return mpu_write_mem(D_1_79, 1, &tmp);
 1416              		.loc 1 887 18 is_stmt 0 view .LVU444
 1417 0012 013B     		subs	r3, r3, #1
 1418              	.LVL73:
 887:user/drivers/DMP/driver/eMPL/inv_mpu_dmp_motion_driver.c ****   return mpu_write_mem(D_1_79, 1, &tmp);
 1419              		.loc 1 887 7 view .LVU445
 1420 0014 8DF80730 		strb	r3, [sp, #7]
 888:user/drivers/DMP/driver/eMPL/inv_mpu_dmp_motion_driver.c **** }
 1421              		.loc 1 888 3 is_stmt 1 view .LVU446
 888:user/drivers/DMP/driver/eMPL/inv_mpu_dmp_motion_driver.c **** }
 1422              		.loc 1 888 10 is_stmt 0 view .LVU447
 1423 0018 0DF10702 		add	r2, sp, #7
 1424 001c 0121     		movs	r1, #1
 1425 001e 40F24F10 		movw	r0, #335
 1426 0022 FFF7FEFF 		bl	mpu_write_mem
 1427              	.LVL74:
 889:user/drivers/DMP/driver/eMPL/inv_mpu_dmp_motion_driver.c **** 
 1428              		.loc 1 889 1 view .LVU448
 1429 0026 03B0     		add	sp, sp, #12
 1430              	.LCFI30:
 1431              		.cfi_def_cfa_offset 4
 1432              		@ sp needed
 1433 0028 5DF804FB 		ldr	pc, [sp], #4
 1434              		.cfi_endproc
 1435              	.LFE169:
 1437              		.section	.text.dmp_set_tap_time,"ax",%progbits
 1438              		.align	1
 1439              		.global	dmp_set_tap_time
 1440              		.syntax unified
 1441              		.thumb
 1442              		.thumb_func
 1444              	dmp_set_tap_time:
 1445              	.LVL75:
 1446              	.LFB170:
 896:user/drivers/DMP/driver/eMPL/inv_mpu_dmp_motion_driver.c ****   unsigned short dmp_time;
 1447              		.loc 1 896 43 is_stmt 1 view -0
 1448              		.cfi_startproc
 1449              		@ args = 0, pretend = 0, frame = 8
 1450              		@ frame_needed = 0, uses_anonymous_args = 0
 896:user/drivers/DMP/driver/eMPL/inv_mpu_dmp_motion_driver.c ****   unsigned short dmp_time;
 1451              		.loc 1 896 43 is_stmt 0 view .LVU450
 1452 0000 00B5     		push	{lr}
 1453              	.LCFI31:
 1454              		.cfi_def_cfa_offset 4
 1455              		.cfi_offset 14, -4
ARM GAS  /var/folders/21/t9g5rlb91ys800n5npymflf80000gn/T//ccsHZoWN.s 			page 56


 1456 0002 83B0     		sub	sp, sp, #12
 1457              	.LCFI32:
 1458              		.cfi_def_cfa_offset 16
 897:user/drivers/DMP/driver/eMPL/inv_mpu_dmp_motion_driver.c ****   unsigned char tmp[2];
 1459              		.loc 1 897 3 is_stmt 1 view .LVU451
 898:user/drivers/DMP/driver/eMPL/inv_mpu_dmp_motion_driver.c **** 
 1460              		.loc 1 898 3 view .LVU452
 900:user/drivers/DMP/driver/eMPL/inv_mpu_dmp_motion_driver.c ****   tmp[0] = (unsigned char)(dmp_time >> 8);
 1461              		.loc 1 900 3 view .LVU453
 900:user/drivers/DMP/driver/eMPL/inv_mpu_dmp_motion_driver.c ****   tmp[0] = (unsigned char)(dmp_time >> 8);
 1462              		.loc 1 900 12 is_stmt 0 view .LVU454
 1463 0004 094B     		ldr	r3, .L92
 1464 0006 A3FB0030 		umull	r3, r0, r3, r0
 1465              	.LVL76:
 901:user/drivers/DMP/driver/eMPL/inv_mpu_dmp_motion_driver.c ****   tmp[1] = (unsigned char)(dmp_time & 0xFF);
 1466              		.loc 1 901 3 is_stmt 1 view .LVU455
 901:user/drivers/DMP/driver/eMPL/inv_mpu_dmp_motion_driver.c ****   tmp[1] = (unsigned char)(dmp_time & 0xFF);
 1467              		.loc 1 901 12 is_stmt 0 view .LVU456
 1468 000a 830A     		lsrs	r3, r0, #10
 901:user/drivers/DMP/driver/eMPL/inv_mpu_dmp_motion_driver.c ****   tmp[1] = (unsigned char)(dmp_time & 0xFF);
 1469              		.loc 1 901 10 view .LVU457
 1470 000c 8DF80430 		strb	r3, [sp, #4]
 902:user/drivers/DMP/driver/eMPL/inv_mpu_dmp_motion_driver.c ****   return mpu_write_mem(DMP_TAPW_MIN, 2, tmp);
 1471              		.loc 1 902 3 is_stmt 1 view .LVU458
 902:user/drivers/DMP/driver/eMPL/inv_mpu_dmp_motion_driver.c ****   return mpu_write_mem(DMP_TAPW_MIN, 2, tmp);
 1472              		.loc 1 902 12 is_stmt 0 view .LVU459
 1473 0010 C0F38700 		ubfx	r0, r0, #2, #8
 1474              	.LVL77:
 902:user/drivers/DMP/driver/eMPL/inv_mpu_dmp_motion_driver.c ****   return mpu_write_mem(DMP_TAPW_MIN, 2, tmp);
 1475              		.loc 1 902 10 view .LVU460
 1476 0014 8DF80500 		strb	r0, [sp, #5]
 903:user/drivers/DMP/driver/eMPL/inv_mpu_dmp_motion_driver.c **** }
 1477              		.loc 1 903 3 is_stmt 1 view .LVU461
 903:user/drivers/DMP/driver/eMPL/inv_mpu_dmp_motion_driver.c **** }
 1478              		.loc 1 903 10 is_stmt 0 view .LVU462
 1479 0018 01AA     		add	r2, sp, #4
 1480 001a 0221     		movs	r1, #2
 1481 001c 4FF4EF70 		mov	r0, #478
 1482 0020 FFF7FEFF 		bl	mpu_write_mem
 1483              	.LVL78:
 904:user/drivers/DMP/driver/eMPL/inv_mpu_dmp_motion_driver.c **** 
 1484              		.loc 1 904 1 view .LVU463
 1485 0024 03B0     		add	sp, sp, #12
 1486              	.LCFI33:
 1487              		.cfi_def_cfa_offset 4
 1488              		@ sp needed
 1489 0026 5DF804FB 		ldr	pc, [sp], #4
 1490              	.L93:
 1491 002a 00BF     		.align	2
 1492              	.L92:
 1493 002c CDCCCCCC 		.word	-858993459
 1494              		.cfi_endproc
 1495              	.LFE170:
 1497              		.section	.text.dmp_set_tap_time_multi,"ax",%progbits
 1498              		.align	1
 1499              		.global	dmp_set_tap_time_multi
 1500              		.syntax unified
ARM GAS  /var/folders/21/t9g5rlb91ys800n5npymflf80000gn/T//ccsHZoWN.s 			page 57


 1501              		.thumb
 1502              		.thumb_func
 1504              	dmp_set_tap_time_multi:
 1505              	.LVL79:
 1506              	.LFB171:
 911:user/drivers/DMP/driver/eMPL/inv_mpu_dmp_motion_driver.c ****   unsigned short dmp_time;
 1507              		.loc 1 911 49 is_stmt 1 view -0
 1508              		.cfi_startproc
 1509              		@ args = 0, pretend = 0, frame = 8
 1510              		@ frame_needed = 0, uses_anonymous_args = 0
 911:user/drivers/DMP/driver/eMPL/inv_mpu_dmp_motion_driver.c ****   unsigned short dmp_time;
 1511              		.loc 1 911 49 is_stmt 0 view .LVU465
 1512 0000 00B5     		push	{lr}
 1513              	.LCFI34:
 1514              		.cfi_def_cfa_offset 4
 1515              		.cfi_offset 14, -4
 1516 0002 83B0     		sub	sp, sp, #12
 1517              	.LCFI35:
 1518              		.cfi_def_cfa_offset 16
 912:user/drivers/DMP/driver/eMPL/inv_mpu_dmp_motion_driver.c ****   unsigned char tmp[2];
 1519              		.loc 1 912 3 is_stmt 1 view .LVU466
 913:user/drivers/DMP/driver/eMPL/inv_mpu_dmp_motion_driver.c **** 
 1520              		.loc 1 913 3 view .LVU467
 915:user/drivers/DMP/driver/eMPL/inv_mpu_dmp_motion_driver.c ****   tmp[0] = (unsigned char)(dmp_time >> 8);
 1521              		.loc 1 915 3 view .LVU468
 915:user/drivers/DMP/driver/eMPL/inv_mpu_dmp_motion_driver.c ****   tmp[0] = (unsigned char)(dmp_time >> 8);
 1522              		.loc 1 915 12 is_stmt 0 view .LVU469
 1523 0004 094B     		ldr	r3, .L96
 1524 0006 A3FB0030 		umull	r3, r0, r3, r0
 1525              	.LVL80:
 916:user/drivers/DMP/driver/eMPL/inv_mpu_dmp_motion_driver.c ****   tmp[1] = (unsigned char)(dmp_time & 0xFF);
 1526              		.loc 1 916 3 is_stmt 1 view .LVU470
 916:user/drivers/DMP/driver/eMPL/inv_mpu_dmp_motion_driver.c ****   tmp[1] = (unsigned char)(dmp_time & 0xFF);
 1527              		.loc 1 916 12 is_stmt 0 view .LVU471
 1528 000a 830A     		lsrs	r3, r0, #10
 916:user/drivers/DMP/driver/eMPL/inv_mpu_dmp_motion_driver.c ****   tmp[1] = (unsigned char)(dmp_time & 0xFF);
 1529              		.loc 1 916 10 view .LVU472
 1530 000c 8DF80430 		strb	r3, [sp, #4]
 917:user/drivers/DMP/driver/eMPL/inv_mpu_dmp_motion_driver.c ****   return mpu_write_mem(D_1_218, 2, tmp);
 1531              		.loc 1 917 3 is_stmt 1 view .LVU473
 917:user/drivers/DMP/driver/eMPL/inv_mpu_dmp_motion_driver.c ****   return mpu_write_mem(D_1_218, 2, tmp);
 1532              		.loc 1 917 12 is_stmt 0 view .LVU474
 1533 0010 C0F38700 		ubfx	r0, r0, #2, #8
 1534              	.LVL81:
 917:user/drivers/DMP/driver/eMPL/inv_mpu_dmp_motion_driver.c ****   return mpu_write_mem(D_1_218, 2, tmp);
 1535              		.loc 1 917 10 view .LVU475
 1536 0014 8DF80500 		strb	r0, [sp, #5]
 918:user/drivers/DMP/driver/eMPL/inv_mpu_dmp_motion_driver.c **** }
 1537              		.loc 1 918 3 is_stmt 1 view .LVU476
 918:user/drivers/DMP/driver/eMPL/inv_mpu_dmp_motion_driver.c **** }
 1538              		.loc 1 918 10 is_stmt 0 view .LVU477
 1539 0018 01AA     		add	r2, sp, #4
 1540 001a 0221     		movs	r1, #2
 1541 001c 4FF4ED70 		mov	r0, #474
 1542 0020 FFF7FEFF 		bl	mpu_write_mem
 1543              	.LVL82:
 919:user/drivers/DMP/driver/eMPL/inv_mpu_dmp_motion_driver.c **** 
ARM GAS  /var/folders/21/t9g5rlb91ys800n5npymflf80000gn/T//ccsHZoWN.s 			page 58


 1544              		.loc 1 919 1 view .LVU478
 1545 0024 03B0     		add	sp, sp, #12
 1546              	.LCFI36:
 1547              		.cfi_def_cfa_offset 4
 1548              		@ sp needed
 1549 0026 5DF804FB 		ldr	pc, [sp], #4
 1550              	.L97:
 1551 002a 00BF     		.align	2
 1552              	.L96:
 1553 002c CDCCCCCC 		.word	-858993459
 1554              		.cfi_endproc
 1555              	.LFE171:
 1557              		.section	.text.dmp_set_shake_reject_thresh,"ax",%progbits
 1558              		.align	1
 1559              		.global	dmp_set_shake_reject_thresh
 1560              		.syntax unified
 1561              		.thumb
 1562              		.thumb_func
 1564              	dmp_set_shake_reject_thresh:
 1565              	.LVL83:
 1566              	.LFB172:
 928:user/drivers/DMP/driver/eMPL/inv_mpu_dmp_motion_driver.c ****   unsigned char tmp[4];
 1567              		.loc 1 928 65 is_stmt 1 view -0
 1568              		.cfi_startproc
 1569              		@ args = 0, pretend = 0, frame = 8
 1570              		@ frame_needed = 0, uses_anonymous_args = 0
 928:user/drivers/DMP/driver/eMPL/inv_mpu_dmp_motion_driver.c ****   unsigned char tmp[4];
 1571              		.loc 1 928 65 is_stmt 0 view .LVU480
 1572 0000 00B5     		push	{lr}
 1573              	.LCFI37:
 1574              		.cfi_def_cfa_offset 4
 1575              		.cfi_offset 14, -4
 1576 0002 83B0     		sub	sp, sp, #12
 1577              	.LCFI38:
 1578              		.cfi_def_cfa_offset 16
 929:user/drivers/DMP/driver/eMPL/inv_mpu_dmp_motion_driver.c ****   long thresh_scaled = sf / 1000 * thresh;
 1579              		.loc 1 929 3 is_stmt 1 view .LVU481
 930:user/drivers/DMP/driver/eMPL/inv_mpu_dmp_motion_driver.c ****   tmp[0] = (unsigned char)(((long)thresh_scaled >> 24) & 0xFF);
 1580              		.loc 1 930 3 view .LVU482
 930:user/drivers/DMP/driver/eMPL/inv_mpu_dmp_motion_driver.c ****   tmp[0] = (unsigned char)(((long)thresh_scaled >> 24) & 0xFF);
 1581              		.loc 1 930 27 is_stmt 0 view .LVU483
 1582 0004 0E4B     		ldr	r3, .L100
 1583 0006 83FB0023 		smull	r2, r3, r3, r0
 1584 000a C017     		asrs	r0, r0, #31
 1585              	.LVL84:
 930:user/drivers/DMP/driver/eMPL/inv_mpu_dmp_motion_driver.c ****   tmp[0] = (unsigned char)(((long)thresh_scaled >> 24) & 0xFF);
 1586              		.loc 1 930 27 view .LVU484
 1587 000c C0EBA310 		rsb	r0, r0, r3, asr #6
 930:user/drivers/DMP/driver/eMPL/inv_mpu_dmp_motion_driver.c ****   tmp[0] = (unsigned char)(((long)thresh_scaled >> 24) & 0xFF);
 1588              		.loc 1 930 8 view .LVU485
 1589 0010 00FB01F1 		mul	r1, r0, r1
 1590              	.LVL85:
 931:user/drivers/DMP/driver/eMPL/inv_mpu_dmp_motion_driver.c ****   tmp[1] = (unsigned char)(((long)thresh_scaled >> 16) & 0xFF);
 1591              		.loc 1 931 3 is_stmt 1 view .LVU486
 931:user/drivers/DMP/driver/eMPL/inv_mpu_dmp_motion_driver.c ****   tmp[1] = (unsigned char)(((long)thresh_scaled >> 16) & 0xFF);
 1592              		.loc 1 931 12 is_stmt 0 view .LVU487
 1593 0014 0B0E     		lsrs	r3, r1, #24
ARM GAS  /var/folders/21/t9g5rlb91ys800n5npymflf80000gn/T//ccsHZoWN.s 			page 59


 931:user/drivers/DMP/driver/eMPL/inv_mpu_dmp_motion_driver.c ****   tmp[1] = (unsigned char)(((long)thresh_scaled >> 16) & 0xFF);
 1594              		.loc 1 931 10 view .LVU488
 1595 0016 8DF80430 		strb	r3, [sp, #4]
 932:user/drivers/DMP/driver/eMPL/inv_mpu_dmp_motion_driver.c ****   tmp[2] = (unsigned char)(((long)thresh_scaled >> 8) & 0xFF);
 1596              		.loc 1 932 3 is_stmt 1 view .LVU489
 932:user/drivers/DMP/driver/eMPL/inv_mpu_dmp_motion_driver.c ****   tmp[2] = (unsigned char)(((long)thresh_scaled >> 8) & 0xFF);
 1597              		.loc 1 932 12 is_stmt 0 view .LVU490
 1598 001a C1F30743 		ubfx	r3, r1, #16, #8
 932:user/drivers/DMP/driver/eMPL/inv_mpu_dmp_motion_driver.c ****   tmp[2] = (unsigned char)(((long)thresh_scaled >> 8) & 0xFF);
 1599              		.loc 1 932 10 view .LVU491
 1600 001e 8DF80530 		strb	r3, [sp, #5]
 933:user/drivers/DMP/driver/eMPL/inv_mpu_dmp_motion_driver.c ****   tmp[3] = (unsigned char)((long)thresh_scaled & 0xFF);
 1601              		.loc 1 933 3 is_stmt 1 view .LVU492
 933:user/drivers/DMP/driver/eMPL/inv_mpu_dmp_motion_driver.c ****   tmp[3] = (unsigned char)((long)thresh_scaled & 0xFF);
 1602              		.loc 1 933 12 is_stmt 0 view .LVU493
 1603 0022 C1F30723 		ubfx	r3, r1, #8, #8
 933:user/drivers/DMP/driver/eMPL/inv_mpu_dmp_motion_driver.c ****   tmp[3] = (unsigned char)((long)thresh_scaled & 0xFF);
 1604              		.loc 1 933 10 view .LVU494
 1605 0026 8DF80630 		strb	r3, [sp, #6]
 934:user/drivers/DMP/driver/eMPL/inv_mpu_dmp_motion_driver.c ****   return mpu_write_mem(D_1_92, 4, tmp);
 1606              		.loc 1 934 3 is_stmt 1 view .LVU495
 934:user/drivers/DMP/driver/eMPL/inv_mpu_dmp_motion_driver.c ****   return mpu_write_mem(D_1_92, 4, tmp);
 1607              		.loc 1 934 10 is_stmt 0 view .LVU496
 1608 002a 8DF80710 		strb	r1, [sp, #7]
 935:user/drivers/DMP/driver/eMPL/inv_mpu_dmp_motion_driver.c **** }
 1609              		.loc 1 935 3 is_stmt 1 view .LVU497
 935:user/drivers/DMP/driver/eMPL/inv_mpu_dmp_motion_driver.c **** }
 1610              		.loc 1 935 10 is_stmt 0 view .LVU498
 1611 002e 01AA     		add	r2, sp, #4
 1612 0030 0421     		movs	r1, #4
 1613              	.LVL86:
 935:user/drivers/DMP/driver/eMPL/inv_mpu_dmp_motion_driver.c **** }
 1614              		.loc 1 935 10 view .LVU499
 1615 0032 4FF4AE70 		mov	r0, #348
 935:user/drivers/DMP/driver/eMPL/inv_mpu_dmp_motion_driver.c **** }
 1616              		.loc 1 935 10 view .LVU500
 1617 0036 FFF7FEFF 		bl	mpu_write_mem
 1618              	.LVL87:
 936:user/drivers/DMP/driver/eMPL/inv_mpu_dmp_motion_driver.c **** 
 1619              		.loc 1 936 1 view .LVU501
 1620 003a 03B0     		add	sp, sp, #12
 1621              	.LCFI39:
 1622              		.cfi_def_cfa_offset 4
 1623              		@ sp needed
 1624 003c 5DF804FB 		ldr	pc, [sp], #4
 1625              	.L101:
 1626              		.align	2
 1627              	.L100:
 1628 0040 D34D6210 		.word	274877907
 1629              		.cfi_endproc
 1630              	.LFE172:
 1632              		.section	.text.dmp_set_shake_reject_time,"ax",%progbits
 1633              		.align	1
 1634              		.global	dmp_set_shake_reject_time
 1635              		.syntax unified
 1636              		.thumb
 1637              		.thumb_func
ARM GAS  /var/folders/21/t9g5rlb91ys800n5npymflf80000gn/T//ccsHZoWN.s 			page 60


 1639              	dmp_set_shake_reject_time:
 1640              	.LVL88:
 1641              	.LFB173:
 946:user/drivers/DMP/driver/eMPL/inv_mpu_dmp_motion_driver.c ****   unsigned char tmp[2];
 1642              		.loc 1 946 52 is_stmt 1 view -0
 1643              		.cfi_startproc
 1644              		@ args = 0, pretend = 0, frame = 8
 1645              		@ frame_needed = 0, uses_anonymous_args = 0
 946:user/drivers/DMP/driver/eMPL/inv_mpu_dmp_motion_driver.c ****   unsigned char tmp[2];
 1646              		.loc 1 946 52 is_stmt 0 view .LVU503
 1647 0000 00B5     		push	{lr}
 1648              	.LCFI40:
 1649              		.cfi_def_cfa_offset 4
 1650              		.cfi_offset 14, -4
 1651 0002 83B0     		sub	sp, sp, #12
 1652              	.LCFI41:
 1653              		.cfi_def_cfa_offset 16
 947:user/drivers/DMP/driver/eMPL/inv_mpu_dmp_motion_driver.c **** 
 1654              		.loc 1 947 3 is_stmt 1 view .LVU504
 949:user/drivers/DMP/driver/eMPL/inv_mpu_dmp_motion_driver.c ****   tmp[0] = time >> 8;
 1655              		.loc 1 949 3 view .LVU505
 949:user/drivers/DMP/driver/eMPL/inv_mpu_dmp_motion_driver.c ****   tmp[0] = time >> 8;
 1656              		.loc 1 949 8 is_stmt 0 view .LVU506
 1657 0004 084B     		ldr	r3, .L104
 1658 0006 A3FB0030 		umull	r3, r0, r3, r0
 1659              	.LVL89:
 949:user/drivers/DMP/driver/eMPL/inv_mpu_dmp_motion_driver.c ****   tmp[0] = time >> 8;
 1660              		.loc 1 949 8 view .LVU507
 1661 000a 8308     		lsrs	r3, r0, #2
 1662              	.LVL90:
 950:user/drivers/DMP/driver/eMPL/inv_mpu_dmp_motion_driver.c ****   tmp[1] = time & 0xFF;
 1663              		.loc 1 950 3 is_stmt 1 view .LVU508
 950:user/drivers/DMP/driver/eMPL/inv_mpu_dmp_motion_driver.c ****   tmp[1] = time & 0xFF;
 1664              		.loc 1 950 10 is_stmt 0 view .LVU509
 1665 000c 800A     		lsrs	r0, r0, #10
 1666 000e 8DF80400 		strb	r0, [sp, #4]
 951:user/drivers/DMP/driver/eMPL/inv_mpu_dmp_motion_driver.c ****   return mpu_write_mem(D_1_90, 2, tmp);
 1667              		.loc 1 951 3 is_stmt 1 view .LVU510
 951:user/drivers/DMP/driver/eMPL/inv_mpu_dmp_motion_driver.c ****   return mpu_write_mem(D_1_90, 2, tmp);
 1668              		.loc 1 951 10 is_stmt 0 view .LVU511
 1669 0012 8DF80530 		strb	r3, [sp, #5]
 952:user/drivers/DMP/driver/eMPL/inv_mpu_dmp_motion_driver.c **** }
 1670              		.loc 1 952 3 is_stmt 1 view .LVU512
 952:user/drivers/DMP/driver/eMPL/inv_mpu_dmp_motion_driver.c **** }
 1671              		.loc 1 952 10 is_stmt 0 view .LVU513
 1672 0016 01AA     		add	r2, sp, #4
 1673 0018 0221     		movs	r1, #2
 1674 001a 4FF4AD70 		mov	r0, #346
 1675 001e FFF7FEFF 		bl	mpu_write_mem
 1676              	.LVL91:
 953:user/drivers/DMP/driver/eMPL/inv_mpu_dmp_motion_driver.c **** 
 1677              		.loc 1 953 1 view .LVU514
 1678 0022 03B0     		add	sp, sp, #12
 1679              	.LCFI42:
 1680              		.cfi_def_cfa_offset 4
 1681              		@ sp needed
 1682 0024 5DF804FB 		ldr	pc, [sp], #4
ARM GAS  /var/folders/21/t9g5rlb91ys800n5npymflf80000gn/T//ccsHZoWN.s 			page 61


 1683              	.L105:
 1684              		.align	2
 1685              	.L104:
 1686 0028 CDCCCCCC 		.word	-858993459
 1687              		.cfi_endproc
 1688              	.LFE173:
 1690              		.section	.text.dmp_set_shake_reject_timeout,"ax",%progbits
 1691              		.align	1
 1692              		.global	dmp_set_shake_reject_timeout
 1693              		.syntax unified
 1694              		.thumb
 1695              		.thumb_func
 1697              	dmp_set_shake_reject_timeout:
 1698              	.LVL92:
 1699              	.LFB174:
 963:user/drivers/DMP/driver/eMPL/inv_mpu_dmp_motion_driver.c ****   unsigned char tmp[2];
 1700              		.loc 1 963 55 is_stmt 1 view -0
 1701              		.cfi_startproc
 1702              		@ args = 0, pretend = 0, frame = 8
 1703              		@ frame_needed = 0, uses_anonymous_args = 0
 963:user/drivers/DMP/driver/eMPL/inv_mpu_dmp_motion_driver.c ****   unsigned char tmp[2];
 1704              		.loc 1 963 55 is_stmt 0 view .LVU516
 1705 0000 00B5     		push	{lr}
 1706              	.LCFI43:
 1707              		.cfi_def_cfa_offset 4
 1708              		.cfi_offset 14, -4
 1709 0002 83B0     		sub	sp, sp, #12
 1710              	.LCFI44:
 1711              		.cfi_def_cfa_offset 16
 964:user/drivers/DMP/driver/eMPL/inv_mpu_dmp_motion_driver.c **** 
 1712              		.loc 1 964 3 is_stmt 1 view .LVU517
 966:user/drivers/DMP/driver/eMPL/inv_mpu_dmp_motion_driver.c ****   tmp[0] = time >> 8;
 1713              		.loc 1 966 3 view .LVU518
 966:user/drivers/DMP/driver/eMPL/inv_mpu_dmp_motion_driver.c ****   tmp[0] = time >> 8;
 1714              		.loc 1 966 8 is_stmt 0 view .LVU519
 1715 0004 084B     		ldr	r3, .L108
 1716 0006 A3FB0030 		umull	r3, r0, r3, r0
 1717              	.LVL93:
 966:user/drivers/DMP/driver/eMPL/inv_mpu_dmp_motion_driver.c ****   tmp[0] = time >> 8;
 1718              		.loc 1 966 8 view .LVU520
 1719 000a 8308     		lsrs	r3, r0, #2
 1720              	.LVL94:
 967:user/drivers/DMP/driver/eMPL/inv_mpu_dmp_motion_driver.c ****   tmp[1] = time & 0xFF;
 1721              		.loc 1 967 3 is_stmt 1 view .LVU521
 967:user/drivers/DMP/driver/eMPL/inv_mpu_dmp_motion_driver.c ****   tmp[1] = time & 0xFF;
 1722              		.loc 1 967 10 is_stmt 0 view .LVU522
 1723 000c 800A     		lsrs	r0, r0, #10
 1724 000e 8DF80400 		strb	r0, [sp, #4]
 968:user/drivers/DMP/driver/eMPL/inv_mpu_dmp_motion_driver.c ****   return mpu_write_mem(D_1_88, 2, tmp);
 1725              		.loc 1 968 3 is_stmt 1 view .LVU523
 968:user/drivers/DMP/driver/eMPL/inv_mpu_dmp_motion_driver.c ****   return mpu_write_mem(D_1_88, 2, tmp);
 1726              		.loc 1 968 10 is_stmt 0 view .LVU524
 1727 0012 8DF80530 		strb	r3, [sp, #5]
 969:user/drivers/DMP/driver/eMPL/inv_mpu_dmp_motion_driver.c **** }
 1728              		.loc 1 969 3 is_stmt 1 view .LVU525
 969:user/drivers/DMP/driver/eMPL/inv_mpu_dmp_motion_driver.c **** }
 1729              		.loc 1 969 10 is_stmt 0 view .LVU526
ARM GAS  /var/folders/21/t9g5rlb91ys800n5npymflf80000gn/T//ccsHZoWN.s 			page 62


 1730 0016 01AA     		add	r2, sp, #4
 1731 0018 0221     		movs	r1, #2
 1732 001a 4FF4AC70 		mov	r0, #344
 1733 001e FFF7FEFF 		bl	mpu_write_mem
 1734              	.LVL95:
 970:user/drivers/DMP/driver/eMPL/inv_mpu_dmp_motion_driver.c **** 
 1735              		.loc 1 970 1 view .LVU527
 1736 0022 03B0     		add	sp, sp, #12
 1737              	.LCFI45:
 1738              		.cfi_def_cfa_offset 4
 1739              		@ sp needed
 1740 0024 5DF804FB 		ldr	pc, [sp], #4
 1741              	.L109:
 1742              		.align	2
 1743              	.L108:
 1744 0028 CDCCCCCC 		.word	-858993459
 1745              		.cfi_endproc
 1746              	.LFE174:
 1748              		.section	.text.dmp_get_pedometer_step_count,"ax",%progbits
 1749              		.align	1
 1750              		.global	dmp_get_pedometer_step_count
 1751              		.syntax unified
 1752              		.thumb
 1753              		.thumb_func
 1755              	dmp_get_pedometer_step_count:
 1756              	.LVL96:
 1757              	.LFB175:
 977:user/drivers/DMP/driver/eMPL/inv_mpu_dmp_motion_driver.c ****   unsigned char tmp[4];
 1758              		.loc 1 977 56 is_stmt 1 view -0
 1759              		.cfi_startproc
 1760              		@ args = 0, pretend = 0, frame = 8
 1761              		@ frame_needed = 0, uses_anonymous_args = 0
 978:user/drivers/DMP/driver/eMPL/inv_mpu_dmp_motion_driver.c ****   if (!count)
 1762              		.loc 1 978 3 view .LVU529
 979:user/drivers/DMP/driver/eMPL/inv_mpu_dmp_motion_driver.c ****     return -1;
 1763              		.loc 1 979 3 view .LVU530
 979:user/drivers/DMP/driver/eMPL/inv_mpu_dmp_motion_driver.c ****     return -1;
 1764              		.loc 1 979 6 is_stmt 0 view .LVU531
 1765 0000 D0B1     		cbz	r0, .L112
 977:user/drivers/DMP/driver/eMPL/inv_mpu_dmp_motion_driver.c ****   unsigned char tmp[4];
 1766              		.loc 1 977 56 view .LVU532
 1767 0002 10B5     		push	{r4, lr}
 1768              	.LCFI46:
 1769              		.cfi_def_cfa_offset 8
 1770              		.cfi_offset 4, -8
 1771              		.cfi_offset 14, -4
 1772 0004 82B0     		sub	sp, sp, #8
 1773              	.LCFI47:
 1774              		.cfi_def_cfa_offset 16
 1775 0006 0446     		mov	r4, r0
 982:user/drivers/DMP/driver/eMPL/inv_mpu_dmp_motion_driver.c ****     return -1;
 1776              		.loc 1 982 3 is_stmt 1 view .LVU533
 982:user/drivers/DMP/driver/eMPL/inv_mpu_dmp_motion_driver.c ****     return -1;
 1777              		.loc 1 982 7 is_stmt 0 view .LVU534
 1778 0008 01AA     		add	r2, sp, #4
 1779 000a 0421     		movs	r1, #4
 1780 000c 4FF45870 		mov	r0, #864
ARM GAS  /var/folders/21/t9g5rlb91ys800n5npymflf80000gn/T//ccsHZoWN.s 			page 63


 1781              	.LVL97:
 982:user/drivers/DMP/driver/eMPL/inv_mpu_dmp_motion_driver.c ****     return -1;
 1782              		.loc 1 982 7 view .LVU535
 1783 0010 FFF7FEFF 		bl	mpu_read_mem
 1784              	.LVL98:
 982:user/drivers/DMP/driver/eMPL/inv_mpu_dmp_motion_driver.c ****     return -1;
 1785              		.loc 1 982 6 view .LVU536
 1786 0014 98B9     		cbnz	r0, .L113
 985:user/drivers/DMP/driver/eMPL/inv_mpu_dmp_motion_driver.c ****              ((unsigned long)tmp[2] << 8) | tmp[3];
 1787              		.loc 1 985 3 is_stmt 1 view .LVU537
 985:user/drivers/DMP/driver/eMPL/inv_mpu_dmp_motion_driver.c ****              ((unsigned long)tmp[2] << 8) | tmp[3];
 1788              		.loc 1 985 33 is_stmt 0 view .LVU538
 1789 0016 9DF80420 		ldrb	r2, [sp, #4]	@ zero_extendqisi2
 985:user/drivers/DMP/driver/eMPL/inv_mpu_dmp_motion_driver.c ****              ((unsigned long)tmp[2] << 8) | tmp[3];
 1790              		.loc 1 985 65 view .LVU539
 1791 001a 9DF80530 		ldrb	r3, [sp, #5]	@ zero_extendqisi2
 985:user/drivers/DMP/driver/eMPL/inv_mpu_dmp_motion_driver.c ****              ((unsigned long)tmp[2] << 8) | tmp[3];
 1792              		.loc 1 985 69 view .LVU540
 1793 001e 1B04     		lsls	r3, r3, #16
 985:user/drivers/DMP/driver/eMPL/inv_mpu_dmp_motion_driver.c ****              ((unsigned long)tmp[2] << 8) | tmp[3];
 1794              		.loc 1 985 44 view .LVU541
 1795 0020 43EA0263 		orr	r3, r3, r2, lsl #24
 986:user/drivers/DMP/driver/eMPL/inv_mpu_dmp_motion_driver.c ****   return 0;
 1796              		.loc 1 986 33 view .LVU542
 1797 0024 9DF80620 		ldrb	r2, [sp, #6]	@ zero_extendqisi2
 985:user/drivers/DMP/driver/eMPL/inv_mpu_dmp_motion_driver.c ****              ((unsigned long)tmp[2] << 8) | tmp[3];
 1798              		.loc 1 985 76 view .LVU543
 1799 0028 43EA0223 		orr	r3, r3, r2, lsl #8
 986:user/drivers/DMP/driver/eMPL/inv_mpu_dmp_motion_driver.c ****   return 0;
 1800              		.loc 1 986 48 view .LVU544
 1801 002c 9DF80720 		ldrb	r2, [sp, #7]	@ zero_extendqisi2
 986:user/drivers/DMP/driver/eMPL/inv_mpu_dmp_motion_driver.c ****   return 0;
 1802              		.loc 1 986 43 view .LVU545
 1803 0030 1343     		orrs	r3, r3, r2
 985:user/drivers/DMP/driver/eMPL/inv_mpu_dmp_motion_driver.c ****              ((unsigned long)tmp[2] << 8) | tmp[3];
 1804              		.loc 1 985 12 view .LVU546
 1805 0032 2360     		str	r3, [r4]
 987:user/drivers/DMP/driver/eMPL/inv_mpu_dmp_motion_driver.c **** }
 1806              		.loc 1 987 3 is_stmt 1 view .LVU547
 1807              	.L110:
 988:user/drivers/DMP/driver/eMPL/inv_mpu_dmp_motion_driver.c **** 
 1808              		.loc 1 988 1 is_stmt 0 view .LVU548
 1809 0034 02B0     		add	sp, sp, #8
 1810              	.LCFI48:
 1811              		.cfi_def_cfa_offset 8
 1812              		@ sp needed
 1813 0036 10BD     		pop	{r4, pc}
 1814              	.LVL99:
 1815              	.L112:
 1816              	.LCFI49:
 1817              		.cfi_def_cfa_offset 0
 1818              		.cfi_restore 4
 1819              		.cfi_restore 14
 980:user/drivers/DMP/driver/eMPL/inv_mpu_dmp_motion_driver.c **** 
 1820              		.loc 1 980 12 view .LVU549
 1821 0038 4FF0FF30 		mov	r0, #-1
 1822              	.LVL100:
ARM GAS  /var/folders/21/t9g5rlb91ys800n5npymflf80000gn/T//ccsHZoWN.s 			page 64


 988:user/drivers/DMP/driver/eMPL/inv_mpu_dmp_motion_driver.c **** 
 1823              		.loc 1 988 1 view .LVU550
 1824 003c 7047     		bx	lr
 1825              	.LVL101:
 1826              	.L113:
 1827              	.LCFI50:
 1828              		.cfi_def_cfa_offset 16
 1829              		.cfi_offset 4, -8
 1830              		.cfi_offset 14, -4
 983:user/drivers/DMP/driver/eMPL/inv_mpu_dmp_motion_driver.c **** 
 1831              		.loc 1 983 12 view .LVU551
 1832 003e 4FF0FF30 		mov	r0, #-1
 1833 0042 F7E7     		b	.L110
 1834              		.cfi_endproc
 1835              	.LFE175:
 1837              		.section	.text.dmp_set_pedometer_step_count,"ax",%progbits
 1838              		.align	1
 1839              		.global	dmp_set_pedometer_step_count
 1840              		.syntax unified
 1841              		.thumb
 1842              		.thumb_func
 1844              	dmp_set_pedometer_step_count:
 1845              	.LVL102:
 1846              	.LFB176:
 997:user/drivers/DMP/driver/eMPL/inv_mpu_dmp_motion_driver.c ****   unsigned char tmp[4];
 1847              		.loc 1 997 55 is_stmt 1 view -0
 1848              		.cfi_startproc
 1849              		@ args = 0, pretend = 0, frame = 8
 1850              		@ frame_needed = 0, uses_anonymous_args = 0
 997:user/drivers/DMP/driver/eMPL/inv_mpu_dmp_motion_driver.c ****   unsigned char tmp[4];
 1851              		.loc 1 997 55 is_stmt 0 view .LVU553
 1852 0000 00B5     		push	{lr}
 1853              	.LCFI51:
 1854              		.cfi_def_cfa_offset 4
 1855              		.cfi_offset 14, -4
 1856 0002 83B0     		sub	sp, sp, #12
 1857              	.LCFI52:
 1858              		.cfi_def_cfa_offset 16
 998:user/drivers/DMP/driver/eMPL/inv_mpu_dmp_motion_driver.c **** 
 1859              		.loc 1 998 3 is_stmt 1 view .LVU554
1000:user/drivers/DMP/driver/eMPL/inv_mpu_dmp_motion_driver.c ****   tmp[1] = (unsigned char)((count >> 16) & 0xFF);
 1860              		.loc 1 1000 3 view .LVU555
1000:user/drivers/DMP/driver/eMPL/inv_mpu_dmp_motion_driver.c ****   tmp[1] = (unsigned char)((count >> 16) & 0xFF);
 1861              		.loc 1 1000 12 is_stmt 0 view .LVU556
 1862 0004 030E     		lsrs	r3, r0, #24
1000:user/drivers/DMP/driver/eMPL/inv_mpu_dmp_motion_driver.c ****   tmp[1] = (unsigned char)((count >> 16) & 0xFF);
 1863              		.loc 1 1000 10 view .LVU557
 1864 0006 8DF80430 		strb	r3, [sp, #4]
1001:user/drivers/DMP/driver/eMPL/inv_mpu_dmp_motion_driver.c ****   tmp[2] = (unsigned char)((count >> 8) & 0xFF);
 1865              		.loc 1 1001 3 is_stmt 1 view .LVU558
1001:user/drivers/DMP/driver/eMPL/inv_mpu_dmp_motion_driver.c ****   tmp[2] = (unsigned char)((count >> 8) & 0xFF);
 1866              		.loc 1 1001 12 is_stmt 0 view .LVU559
 1867 000a C0F30743 		ubfx	r3, r0, #16, #8
1001:user/drivers/DMP/driver/eMPL/inv_mpu_dmp_motion_driver.c ****   tmp[2] = (unsigned char)((count >> 8) & 0xFF);
 1868              		.loc 1 1001 10 view .LVU560
 1869 000e 8DF80530 		strb	r3, [sp, #5]
1002:user/drivers/DMP/driver/eMPL/inv_mpu_dmp_motion_driver.c ****   tmp[3] = (unsigned char)(count & 0xFF);
ARM GAS  /var/folders/21/t9g5rlb91ys800n5npymflf80000gn/T//ccsHZoWN.s 			page 65


 1870              		.loc 1 1002 3 is_stmt 1 view .LVU561
1002:user/drivers/DMP/driver/eMPL/inv_mpu_dmp_motion_driver.c ****   tmp[3] = (unsigned char)(count & 0xFF);
 1871              		.loc 1 1002 12 is_stmt 0 view .LVU562
 1872 0012 C0F30723 		ubfx	r3, r0, #8, #8
1002:user/drivers/DMP/driver/eMPL/inv_mpu_dmp_motion_driver.c ****   tmp[3] = (unsigned char)(count & 0xFF);
 1873              		.loc 1 1002 10 view .LVU563
 1874 0016 8DF80630 		strb	r3, [sp, #6]
1003:user/drivers/DMP/driver/eMPL/inv_mpu_dmp_motion_driver.c ****   return mpu_write_mem(D_PEDSTD_STEPCTR, 4, tmp);
 1875              		.loc 1 1003 3 is_stmt 1 view .LVU564
1003:user/drivers/DMP/driver/eMPL/inv_mpu_dmp_motion_driver.c ****   return mpu_write_mem(D_PEDSTD_STEPCTR, 4, tmp);
 1876              		.loc 1 1003 10 is_stmt 0 view .LVU565
 1877 001a 8DF80700 		strb	r0, [sp, #7]
1004:user/drivers/DMP/driver/eMPL/inv_mpu_dmp_motion_driver.c **** }
 1878              		.loc 1 1004 3 is_stmt 1 view .LVU566
1004:user/drivers/DMP/driver/eMPL/inv_mpu_dmp_motion_driver.c **** }
 1879              		.loc 1 1004 10 is_stmt 0 view .LVU567
 1880 001e 01AA     		add	r2, sp, #4
 1881 0020 0421     		movs	r1, #4
 1882 0022 4FF45870 		mov	r0, #864
 1883              	.LVL103:
1004:user/drivers/DMP/driver/eMPL/inv_mpu_dmp_motion_driver.c **** }
 1884              		.loc 1 1004 10 view .LVU568
 1885 0026 FFF7FEFF 		bl	mpu_write_mem
 1886              	.LVL104:
1005:user/drivers/DMP/driver/eMPL/inv_mpu_dmp_motion_driver.c **** 
 1887              		.loc 1 1005 1 view .LVU569
 1888 002a 03B0     		add	sp, sp, #12
 1889              	.LCFI53:
 1890              		.cfi_def_cfa_offset 4
 1891              		@ sp needed
 1892 002c 5DF804FB 		ldr	pc, [sp], #4
 1893              		.cfi_endproc
 1894              	.LFE176:
 1896              		.section	.text.dmp_get_pedometer_walk_time,"ax",%progbits
 1897              		.align	1
 1898              		.global	dmp_get_pedometer_walk_time
 1899              		.syntax unified
 1900              		.thumb
 1901              		.thumb_func
 1903              	dmp_get_pedometer_walk_time:
 1904              	.LVL105:
 1905              	.LFB177:
1012:user/drivers/DMP/driver/eMPL/inv_mpu_dmp_motion_driver.c ****   unsigned char tmp[4];
 1906              		.loc 1 1012 54 is_stmt 1 view -0
 1907              		.cfi_startproc
 1908              		@ args = 0, pretend = 0, frame = 8
 1909              		@ frame_needed = 0, uses_anonymous_args = 0
1013:user/drivers/DMP/driver/eMPL/inv_mpu_dmp_motion_driver.c ****   if (!time)
 1910              		.loc 1 1013 3 view .LVU571
1014:user/drivers/DMP/driver/eMPL/inv_mpu_dmp_motion_driver.c ****     return -1;
 1911              		.loc 1 1014 3 view .LVU572
1014:user/drivers/DMP/driver/eMPL/inv_mpu_dmp_motion_driver.c ****     return -1;
 1912              		.loc 1 1014 6 is_stmt 0 view .LVU573
 1913 0000 E8B1     		cbz	r0, .L122
1012:user/drivers/DMP/driver/eMPL/inv_mpu_dmp_motion_driver.c ****   unsigned char tmp[4];
 1914              		.loc 1 1012 54 view .LVU574
 1915 0002 10B5     		push	{r4, lr}
ARM GAS  /var/folders/21/t9g5rlb91ys800n5npymflf80000gn/T//ccsHZoWN.s 			page 66


 1916              	.LCFI54:
 1917              		.cfi_def_cfa_offset 8
 1918              		.cfi_offset 4, -8
 1919              		.cfi_offset 14, -4
 1920 0004 82B0     		sub	sp, sp, #8
 1921              	.LCFI55:
 1922              		.cfi_def_cfa_offset 16
 1923 0006 0446     		mov	r4, r0
1017:user/drivers/DMP/driver/eMPL/inv_mpu_dmp_motion_driver.c ****     return -1;
 1924              		.loc 1 1017 3 is_stmt 1 view .LVU575
1017:user/drivers/DMP/driver/eMPL/inv_mpu_dmp_motion_driver.c ****     return -1;
 1925              		.loc 1 1017 7 is_stmt 0 view .LVU576
 1926 0008 01AA     		add	r2, sp, #4
 1927 000a 0421     		movs	r1, #4
 1928 000c 4FF47170 		mov	r0, #964
 1929              	.LVL106:
1017:user/drivers/DMP/driver/eMPL/inv_mpu_dmp_motion_driver.c ****     return -1;
 1930              		.loc 1 1017 7 view .LVU577
 1931 0010 FFF7FEFF 		bl	mpu_read_mem
 1932              	.LVL107:
1017:user/drivers/DMP/driver/eMPL/inv_mpu_dmp_motion_driver.c ****     return -1;
 1933              		.loc 1 1017 6 view .LVU578
 1934 0014 B0B9     		cbnz	r0, .L123
1020:user/drivers/DMP/driver/eMPL/inv_mpu_dmp_motion_driver.c ****              ((unsigned long)tmp[2] << 8) | tmp[3]) *
 1935              		.loc 1 1020 3 is_stmt 1 view .LVU579
1020:user/drivers/DMP/driver/eMPL/inv_mpu_dmp_motion_driver.c ****              ((unsigned long)tmp[2] << 8) | tmp[3]) *
 1936              		.loc 1 1020 33 is_stmt 0 view .LVU580
 1937 0016 9DF80420 		ldrb	r2, [sp, #4]	@ zero_extendqisi2
1020:user/drivers/DMP/driver/eMPL/inv_mpu_dmp_motion_driver.c ****              ((unsigned long)tmp[2] << 8) | tmp[3]) *
 1938              		.loc 1 1020 65 view .LVU581
 1939 001a 9DF80530 		ldrb	r3, [sp, #5]	@ zero_extendqisi2
1020:user/drivers/DMP/driver/eMPL/inv_mpu_dmp_motion_driver.c ****              ((unsigned long)tmp[2] << 8) | tmp[3]) *
 1940              		.loc 1 1020 69 view .LVU582
 1941 001e 1B04     		lsls	r3, r3, #16
1020:user/drivers/DMP/driver/eMPL/inv_mpu_dmp_motion_driver.c ****              ((unsigned long)tmp[2] << 8) | tmp[3]) *
 1942              		.loc 1 1020 44 view .LVU583
 1943 0020 43EA0263 		orr	r3, r3, r2, lsl #24
1021:user/drivers/DMP/driver/eMPL/inv_mpu_dmp_motion_driver.c ****             20;
 1944              		.loc 1 1021 33 view .LVU584
 1945 0024 9DF80620 		ldrb	r2, [sp, #6]	@ zero_extendqisi2
1020:user/drivers/DMP/driver/eMPL/inv_mpu_dmp_motion_driver.c ****              ((unsigned long)tmp[2] << 8) | tmp[3]) *
 1946              		.loc 1 1020 76 view .LVU585
 1947 0028 43EA0223 		orr	r3, r3, r2, lsl #8
1021:user/drivers/DMP/driver/eMPL/inv_mpu_dmp_motion_driver.c ****             20;
 1948              		.loc 1 1021 48 view .LVU586
 1949 002c 9DF80720 		ldrb	r2, [sp, #7]	@ zero_extendqisi2
1021:user/drivers/DMP/driver/eMPL/inv_mpu_dmp_motion_driver.c ****             20;
 1950              		.loc 1 1021 43 view .LVU587
 1951 0030 1343     		orrs	r3, r3, r2
1021:user/drivers/DMP/driver/eMPL/inv_mpu_dmp_motion_driver.c ****             20;
 1952              		.loc 1 1021 53 view .LVU588
 1953 0032 03EB8303 		add	r3, r3, r3, lsl #2
 1954 0036 9B00     		lsls	r3, r3, #2
1020:user/drivers/DMP/driver/eMPL/inv_mpu_dmp_motion_driver.c ****              ((unsigned long)tmp[2] << 8) | tmp[3]) *
 1955              		.loc 1 1020 11 view .LVU589
 1956 0038 2360     		str	r3, [r4]
1023:user/drivers/DMP/driver/eMPL/inv_mpu_dmp_motion_driver.c **** }
ARM GAS  /var/folders/21/t9g5rlb91ys800n5npymflf80000gn/T//ccsHZoWN.s 			page 67


 1957              		.loc 1 1023 3 is_stmt 1 view .LVU590
 1958              	.L120:
1024:user/drivers/DMP/driver/eMPL/inv_mpu_dmp_motion_driver.c **** 
 1959              		.loc 1 1024 1 is_stmt 0 view .LVU591
 1960 003a 02B0     		add	sp, sp, #8
 1961              	.LCFI56:
 1962              		.cfi_def_cfa_offset 8
 1963              		@ sp needed
 1964 003c 10BD     		pop	{r4, pc}
 1965              	.LVL108:
 1966              	.L122:
 1967              	.LCFI57:
 1968              		.cfi_def_cfa_offset 0
 1969              		.cfi_restore 4
 1970              		.cfi_restore 14
1015:user/drivers/DMP/driver/eMPL/inv_mpu_dmp_motion_driver.c **** 
 1971              		.loc 1 1015 12 view .LVU592
 1972 003e 4FF0FF30 		mov	r0, #-1
 1973              	.LVL109:
1024:user/drivers/DMP/driver/eMPL/inv_mpu_dmp_motion_driver.c **** 
 1974              		.loc 1 1024 1 view .LVU593
 1975 0042 7047     		bx	lr
 1976              	.LVL110:
 1977              	.L123:
 1978              	.LCFI58:
 1979              		.cfi_def_cfa_offset 16
 1980              		.cfi_offset 4, -8
 1981              		.cfi_offset 14, -4
1018:user/drivers/DMP/driver/eMPL/inv_mpu_dmp_motion_driver.c **** 
 1982              		.loc 1 1018 12 view .LVU594
 1983 0044 4FF0FF30 		mov	r0, #-1
 1984 0048 F7E7     		b	.L120
 1985              		.cfi_endproc
 1986              	.LFE177:
 1988              		.section	.text.dmp_set_pedometer_walk_time,"ax",%progbits
 1989              		.align	1
 1990              		.global	dmp_set_pedometer_walk_time
 1991              		.syntax unified
 1992              		.thumb
 1993              		.thumb_func
 1995              	dmp_set_pedometer_walk_time:
 1996              	.LVL111:
 1997              	.LFB178:
1032:user/drivers/DMP/driver/eMPL/inv_mpu_dmp_motion_driver.c ****   unsigned char tmp[4];
 1998              		.loc 1 1032 53 is_stmt 1 view -0
 1999              		.cfi_startproc
 2000              		@ args = 0, pretend = 0, frame = 8
 2001              		@ frame_needed = 0, uses_anonymous_args = 0
1032:user/drivers/DMP/driver/eMPL/inv_mpu_dmp_motion_driver.c ****   unsigned char tmp[4];
 2002              		.loc 1 1032 53 is_stmt 0 view .LVU596
 2003 0000 00B5     		push	{lr}
 2004              	.LCFI59:
 2005              		.cfi_def_cfa_offset 4
 2006              		.cfi_offset 14, -4
 2007 0002 83B0     		sub	sp, sp, #12
 2008              	.LCFI60:
 2009              		.cfi_def_cfa_offset 16
ARM GAS  /var/folders/21/t9g5rlb91ys800n5npymflf80000gn/T//ccsHZoWN.s 			page 68


1033:user/drivers/DMP/driver/eMPL/inv_mpu_dmp_motion_driver.c **** 
 2010              		.loc 1 1033 3 is_stmt 1 view .LVU597
1035:user/drivers/DMP/driver/eMPL/inv_mpu_dmp_motion_driver.c **** 
 2011              		.loc 1 1035 3 view .LVU598
1035:user/drivers/DMP/driver/eMPL/inv_mpu_dmp_motion_driver.c **** 
 2012              		.loc 1 1035 8 is_stmt 0 view .LVU599
 2013 0004 0D4B     		ldr	r3, .L130
 2014 0006 A3FB0030 		umull	r3, r0, r3, r0
 2015              	.LVL112:
1037:user/drivers/DMP/driver/eMPL/inv_mpu_dmp_motion_driver.c ****   tmp[1] = (unsigned char)((time >> 16) & 0xFF);
 2016              		.loc 1 1037 3 is_stmt 1 view .LVU600
1037:user/drivers/DMP/driver/eMPL/inv_mpu_dmp_motion_driver.c ****   tmp[1] = (unsigned char)((time >> 16) & 0xFF);
 2017              		.loc 1 1037 12 is_stmt 0 view .LVU601
 2018 000a 030F     		lsrs	r3, r0, #28
1037:user/drivers/DMP/driver/eMPL/inv_mpu_dmp_motion_driver.c ****   tmp[1] = (unsigned char)((time >> 16) & 0xFF);
 2019              		.loc 1 1037 10 view .LVU602
 2020 000c 8DF80430 		strb	r3, [sp, #4]
1038:user/drivers/DMP/driver/eMPL/inv_mpu_dmp_motion_driver.c ****   tmp[2] = (unsigned char)((time >> 8) & 0xFF);
 2021              		.loc 1 1038 3 is_stmt 1 view .LVU603
1038:user/drivers/DMP/driver/eMPL/inv_mpu_dmp_motion_driver.c ****   tmp[2] = (unsigned char)((time >> 8) & 0xFF);
 2022              		.loc 1 1038 12 is_stmt 0 view .LVU604
 2023 0010 C0F30753 		ubfx	r3, r0, #20, #8
1038:user/drivers/DMP/driver/eMPL/inv_mpu_dmp_motion_driver.c ****   tmp[2] = (unsigned char)((time >> 8) & 0xFF);
 2024              		.loc 1 1038 10 view .LVU605
 2025 0014 8DF80530 		strb	r3, [sp, #5]
1039:user/drivers/DMP/driver/eMPL/inv_mpu_dmp_motion_driver.c ****   tmp[3] = (unsigned char)(time & 0xFF);
 2026              		.loc 1 1039 3 is_stmt 1 view .LVU606
1039:user/drivers/DMP/driver/eMPL/inv_mpu_dmp_motion_driver.c ****   tmp[3] = (unsigned char)(time & 0xFF);
 2027              		.loc 1 1039 12 is_stmt 0 view .LVU607
 2028 0018 C0F30733 		ubfx	r3, r0, #12, #8
1039:user/drivers/DMP/driver/eMPL/inv_mpu_dmp_motion_driver.c ****   tmp[3] = (unsigned char)(time & 0xFF);
 2029              		.loc 1 1039 10 view .LVU608
 2030 001c 8DF80630 		strb	r3, [sp, #6]
1040:user/drivers/DMP/driver/eMPL/inv_mpu_dmp_motion_driver.c ****   return mpu_write_mem(D_PEDSTD_TIMECTR, 4, tmp);
 2031              		.loc 1 1040 3 is_stmt 1 view .LVU609
1040:user/drivers/DMP/driver/eMPL/inv_mpu_dmp_motion_driver.c ****   return mpu_write_mem(D_PEDSTD_TIMECTR, 4, tmp);
 2032              		.loc 1 1040 12 is_stmt 0 view .LVU610
 2033 0020 C0F30710 		ubfx	r0, r0, #4, #8
 2034              	.LVL113:
1040:user/drivers/DMP/driver/eMPL/inv_mpu_dmp_motion_driver.c ****   return mpu_write_mem(D_PEDSTD_TIMECTR, 4, tmp);
 2035              		.loc 1 1040 10 view .LVU611
 2036 0024 8DF80700 		strb	r0, [sp, #7]
1041:user/drivers/DMP/driver/eMPL/inv_mpu_dmp_motion_driver.c **** }
 2037              		.loc 1 1041 3 is_stmt 1 view .LVU612
1041:user/drivers/DMP/driver/eMPL/inv_mpu_dmp_motion_driver.c **** }
 2038              		.loc 1 1041 10 is_stmt 0 view .LVU613
 2039 0028 01AA     		add	r2, sp, #4
 2040 002a 0421     		movs	r1, #4
 2041 002c 4FF47170 		mov	r0, #964
 2042 0030 FFF7FEFF 		bl	mpu_write_mem
 2043              	.LVL114:
1042:user/drivers/DMP/driver/eMPL/inv_mpu_dmp_motion_driver.c **** 
 2044              		.loc 1 1042 1 view .LVU614
 2045 0034 03B0     		add	sp, sp, #12
 2046              	.LCFI61:
 2047              		.cfi_def_cfa_offset 4
 2048              		@ sp needed
ARM GAS  /var/folders/21/t9g5rlb91ys800n5npymflf80000gn/T//ccsHZoWN.s 			page 69


 2049 0036 5DF804FB 		ldr	pc, [sp], #4
 2050              	.L131:
 2051 003a 00BF     		.align	2
 2052              	.L130:
 2053 003c CDCCCCCC 		.word	-858993459
 2054              		.cfi_endproc
 2055              	.LFE178:
 2057              		.section	.text.dmp_get_enabled_features,"ax",%progbits
 2058              		.align	1
 2059              		.global	dmp_get_enabled_features
 2060              		.syntax unified
 2061              		.thumb
 2062              		.thumb_func
 2064              	dmp_get_enabled_features:
 2065              	.LVL115:
 2066              	.LFB180:
1182:user/drivers/DMP/driver/eMPL/inv_mpu_dmp_motion_driver.c ****   mask[0] = dmp.feature_mask;
 2067              		.loc 1 1182 52 is_stmt 1 view -0
 2068              		.cfi_startproc
 2069              		@ args = 0, pretend = 0, frame = 0
 2070              		@ frame_needed = 0, uses_anonymous_args = 0
 2071              		@ link register save eliminated.
1183:user/drivers/DMP/driver/eMPL/inv_mpu_dmp_motion_driver.c ****   return 0;
 2072              		.loc 1 1183 3 view .LVU616
1183:user/drivers/DMP/driver/eMPL/inv_mpu_dmp_motion_driver.c ****   return 0;
 2073              		.loc 1 1183 16 is_stmt 0 view .LVU617
 2074 0000 024B     		ldr	r3, .L133
 2075 0002 5B89     		ldrh	r3, [r3, #10]
1183:user/drivers/DMP/driver/eMPL/inv_mpu_dmp_motion_driver.c ****   return 0;
 2076              		.loc 1 1183 11 view .LVU618
 2077 0004 0380     		strh	r3, [r0]	@ movhi
1184:user/drivers/DMP/driver/eMPL/inv_mpu_dmp_motion_driver.c **** }
 2078              		.loc 1 1184 3 is_stmt 1 view .LVU619
1185:user/drivers/DMP/driver/eMPL/inv_mpu_dmp_motion_driver.c **** 
 2079              		.loc 1 1185 1 is_stmt 0 view .LVU620
 2080 0006 0020     		movs	r0, #0
 2081              	.LVL116:
1185:user/drivers/DMP/driver/eMPL/inv_mpu_dmp_motion_driver.c **** 
 2082              		.loc 1 1185 1 view .LVU621
 2083 0008 7047     		bx	lr
 2084              	.L134:
 2085 000a 00BF     		.align	2
 2086              	.L133:
 2087 000c 00000000 		.word	dmp
 2088              		.cfi_endproc
 2089              	.LFE180:
 2091              		.section	.rodata.dmp_enable_gyro_cal.str1.4,"aMS",%progbits,1
 2092              		.align	2
 2093              	.LC5:
 2094 0000 B8AAB38D 		.ascii	"\270\252\263\215\264\230\0155]\000"
 2094      B4980D35 
 2094      5D00
 2095 000a 0000     		.align	2
 2096              	.LC6:
 2097 000c B8AAAAAA 		.ascii	"\270\252\252\252\260\210\303\305\307\000"
 2097      B088C3C5 
 2097      C700
ARM GAS  /var/folders/21/t9g5rlb91ys800n5npymflf80000gn/T//ccsHZoWN.s 			page 70


 2098              		.section	.text.dmp_enable_gyro_cal,"ax",%progbits
 2099              		.align	1
 2100              		.global	dmp_enable_gyro_cal
 2101              		.syntax unified
 2102              		.thumb
 2103              		.thumb_func
 2105              	dmp_enable_gyro_cal:
 2106              	.LVL117:
 2107              	.LFB181:
1196:user/drivers/DMP/driver/eMPL/inv_mpu_dmp_motion_driver.c ****   if (enable) {
 2108              		.loc 1 1196 47 is_stmt 1 view -0
 2109              		.cfi_startproc
 2110              		@ args = 0, pretend = 0, frame = 16
 2111              		@ frame_needed = 0, uses_anonymous_args = 0
1196:user/drivers/DMP/driver/eMPL/inv_mpu_dmp_motion_driver.c ****   if (enable) {
 2112              		.loc 1 1196 47 is_stmt 0 view .LVU623
 2113 0000 00B5     		push	{lr}
 2114              	.LCFI62:
 2115              		.cfi_def_cfa_offset 4
 2116              		.cfi_offset 14, -4
 2117 0002 85B0     		sub	sp, sp, #20
 2118              	.LCFI63:
 2119              		.cfi_def_cfa_offset 24
1197:user/drivers/DMP/driver/eMPL/inv_mpu_dmp_motion_driver.c ****     unsigned char regs[9] = {0xb8, 0xaa, 0xb3, 0x8d, 0xb4,
 2120              		.loc 1 1197 3 is_stmt 1 view .LVU624
1197:user/drivers/DMP/driver/eMPL/inv_mpu_dmp_motion_driver.c ****     unsigned char regs[9] = {0xb8, 0xaa, 0xb3, 0x8d, 0xb4,
 2121              		.loc 1 1197 6 is_stmt 0 view .LVU625
 2122 0004 68B1     		cbz	r0, .L136
 2123              	.LBB3:
1198:user/drivers/DMP/driver/eMPL/inv_mpu_dmp_motion_driver.c ****                              0x98, 0x0d, 0x35, 0x5d};
 2124              		.loc 1 1198 5 is_stmt 1 view .LVU626
1198:user/drivers/DMP/driver/eMPL/inv_mpu_dmp_motion_driver.c ****                              0x98, 0x0d, 0x35, 0x5d};
 2125              		.loc 1 1198 19 is_stmt 0 view .LVU627
 2126 0006 0D4A     		ldr	r2, .L139
 2127 0008 01AB     		add	r3, sp, #4
 2128 000a 07CA     		ldm	r2, {r0, r1, r2}
 2129              	.LVL118:
1198:user/drivers/DMP/driver/eMPL/inv_mpu_dmp_motion_driver.c ****                              0x98, 0x0d, 0x35, 0x5d};
 2130              		.loc 1 1198 19 view .LVU628
 2131 000c 03C3     		stmia	r3!, {r0, r1}
 2132 000e 1A70     		strb	r2, [r3]
1200:user/drivers/DMP/driver/eMPL/inv_mpu_dmp_motion_driver.c ****   } else {
 2133              		.loc 1 1200 5 is_stmt 1 view .LVU629
1200:user/drivers/DMP/driver/eMPL/inv_mpu_dmp_motion_driver.c ****   } else {
 2134              		.loc 1 1200 12 is_stmt 0 view .LVU630
 2135 0010 01AA     		add	r2, sp, #4
 2136 0012 0921     		movs	r1, #9
 2137 0014 4FF49760 		mov	r0, #1208
 2138 0018 FFF7FEFF 		bl	mpu_write_mem
 2139              	.LVL119:
 2140              	.L135:
 2141              	.LBE3:
1206:user/drivers/DMP/driver/eMPL/inv_mpu_dmp_motion_driver.c **** 
 2142              		.loc 1 1206 1 view .LVU631
 2143 001c 05B0     		add	sp, sp, #20
 2144              	.LCFI64:
 2145              		.cfi_remember_state
ARM GAS  /var/folders/21/t9g5rlb91ys800n5npymflf80000gn/T//ccsHZoWN.s 			page 71


 2146              		.cfi_def_cfa_offset 4
 2147              		@ sp needed
 2148 001e 5DF804FB 		ldr	pc, [sp], #4
 2149              	.LVL120:
 2150              	.L136:
 2151              	.LCFI65:
 2152              		.cfi_restore_state
 2153              	.LBB4:
1202:user/drivers/DMP/driver/eMPL/inv_mpu_dmp_motion_driver.c ****                              0x88, 0xc3, 0xc5, 0xc7};
 2154              		.loc 1 1202 5 is_stmt 1 view .LVU632
1202:user/drivers/DMP/driver/eMPL/inv_mpu_dmp_motion_driver.c ****                              0x88, 0xc3, 0xc5, 0xc7};
 2155              		.loc 1 1202 19 is_stmt 0 view .LVU633
 2156 0022 074A     		ldr	r2, .L139+4
 2157 0024 01AB     		add	r3, sp, #4
 2158 0026 07CA     		ldm	r2, {r0, r1, r2}
 2159              	.LVL121:
1202:user/drivers/DMP/driver/eMPL/inv_mpu_dmp_motion_driver.c ****                              0x88, 0xc3, 0xc5, 0xc7};
 2160              		.loc 1 1202 19 view .LVU634
 2161 0028 03C3     		stmia	r3!, {r0, r1}
 2162 002a 1A70     		strb	r2, [r3]
1204:user/drivers/DMP/driver/eMPL/inv_mpu_dmp_motion_driver.c ****   }
 2163              		.loc 1 1204 5 is_stmt 1 view .LVU635
1204:user/drivers/DMP/driver/eMPL/inv_mpu_dmp_motion_driver.c ****   }
 2164              		.loc 1 1204 12 is_stmt 0 view .LVU636
 2165 002c 01AA     		add	r2, sp, #4
 2166 002e 0921     		movs	r1, #9
 2167 0030 4FF49760 		mov	r0, #1208
 2168 0034 FFF7FEFF 		bl	mpu_write_mem
 2169              	.LVL122:
 2170 0038 F0E7     		b	.L135
 2171              	.L140:
 2172 003a 00BF     		.align	2
 2173              	.L139:
 2174 003c 00000000 		.word	.LC5
 2175 0040 0C000000 		.word	.LC6
 2176              	.LBE4:
 2177              		.cfi_endproc
 2178              	.LFE181:
 2180              		.section	.text.dmp_enable_lp_quat,"ax",%progbits
 2181              		.align	1
 2182              		.global	dmp_enable_lp_quat
 2183              		.syntax unified
 2184              		.thumb
 2185              		.thumb_func
 2187              	dmp_enable_lp_quat:
 2188              	.LVL123:
 2189              	.LFB182:
1215:user/drivers/DMP/driver/eMPL/inv_mpu_dmp_motion_driver.c ****   unsigned char regs[4];
 2190              		.loc 1 1215 46 is_stmt 1 view -0
 2191              		.cfi_startproc
 2192              		@ args = 0, pretend = 0, frame = 8
 2193              		@ frame_needed = 0, uses_anonymous_args = 0
1215:user/drivers/DMP/driver/eMPL/inv_mpu_dmp_motion_driver.c ****   unsigned char regs[4];
 2194              		.loc 1 1215 46 is_stmt 0 view .LVU638
 2195 0000 00B5     		push	{lr}
 2196              	.LCFI66:
 2197              		.cfi_def_cfa_offset 4
ARM GAS  /var/folders/21/t9g5rlb91ys800n5npymflf80000gn/T//ccsHZoWN.s 			page 72


 2198              		.cfi_offset 14, -4
 2199 0002 83B0     		sub	sp, sp, #12
 2200              	.LCFI67:
 2201              		.cfi_def_cfa_offset 16
1216:user/drivers/DMP/driver/eMPL/inv_mpu_dmp_motion_driver.c ****   if (enable) {
 2202              		.loc 1 1216 3 is_stmt 1 view .LVU639
1217:user/drivers/DMP/driver/eMPL/inv_mpu_dmp_motion_driver.c ****     regs[0] = DINBC0;
 2203              		.loc 1 1217 3 view .LVU640
1217:user/drivers/DMP/driver/eMPL/inv_mpu_dmp_motion_driver.c ****     regs[0] = DINBC0;
 2204              		.loc 1 1217 6 is_stmt 0 view .LVU641
 2205 0004 B0B1     		cbz	r0, .L142
1218:user/drivers/DMP/driver/eMPL/inv_mpu_dmp_motion_driver.c ****     regs[1] = DINBC2;
 2206              		.loc 1 1218 5 is_stmt 1 view .LVU642
1218:user/drivers/DMP/driver/eMPL/inv_mpu_dmp_motion_driver.c ****     regs[1] = DINBC2;
 2207              		.loc 1 1218 13 is_stmt 0 view .LVU643
 2208 0006 C023     		movs	r3, #192
 2209 0008 8DF80430 		strb	r3, [sp, #4]
1219:user/drivers/DMP/driver/eMPL/inv_mpu_dmp_motion_driver.c ****     regs[2] = DINBC4;
 2210              		.loc 1 1219 5 is_stmt 1 view .LVU644
1219:user/drivers/DMP/driver/eMPL/inv_mpu_dmp_motion_driver.c ****     regs[2] = DINBC4;
 2211              		.loc 1 1219 13 is_stmt 0 view .LVU645
 2212 000c C223     		movs	r3, #194
 2213 000e 8DF80530 		strb	r3, [sp, #5]
1220:user/drivers/DMP/driver/eMPL/inv_mpu_dmp_motion_driver.c ****     regs[3] = DINBC6;
 2214              		.loc 1 1220 5 is_stmt 1 view .LVU646
1220:user/drivers/DMP/driver/eMPL/inv_mpu_dmp_motion_driver.c ****     regs[3] = DINBC6;
 2215              		.loc 1 1220 13 is_stmt 0 view .LVU647
 2216 0012 C423     		movs	r3, #196
 2217 0014 8DF80630 		strb	r3, [sp, #6]
1221:user/drivers/DMP/driver/eMPL/inv_mpu_dmp_motion_driver.c ****   } else
 2218              		.loc 1 1221 5 is_stmt 1 view .LVU648
1221:user/drivers/DMP/driver/eMPL/inv_mpu_dmp_motion_driver.c ****   } else
 2219              		.loc 1 1221 13 is_stmt 0 view .LVU649
 2220 0018 C623     		movs	r3, #198
 2221 001a 8DF80730 		strb	r3, [sp, #7]
 2222              	.L143:
1225:user/drivers/DMP/driver/eMPL/inv_mpu_dmp_motion_driver.c **** 
 2223              		.loc 1 1225 3 is_stmt 1 view .LVU650
 2224 001e 01AA     		add	r2, sp, #4
 2225 0020 0421     		movs	r1, #4
 2226 0022 40F69820 		movw	r0, #2712
 2227              	.LVL124:
1225:user/drivers/DMP/driver/eMPL/inv_mpu_dmp_motion_driver.c **** 
 2228              		.loc 1 1225 3 is_stmt 0 view .LVU651
 2229 0026 FFF7FEFF 		bl	mpu_write_mem
 2230              	.LVL125:
1227:user/drivers/DMP/driver/eMPL/inv_mpu_dmp_motion_driver.c **** }
 2231              		.loc 1 1227 3 is_stmt 1 view .LVU652
1227:user/drivers/DMP/driver/eMPL/inv_mpu_dmp_motion_driver.c **** }
 2232              		.loc 1 1227 10 is_stmt 0 view .LVU653
 2233 002a FFF7FEFF 		bl	mpu_reset_fifo
 2234              	.LVL126:
1228:user/drivers/DMP/driver/eMPL/inv_mpu_dmp_motion_driver.c **** 
 2235              		.loc 1 1228 1 view .LVU654
 2236 002e 03B0     		add	sp, sp, #12
 2237              	.LCFI68:
 2238              		.cfi_remember_state
ARM GAS  /var/folders/21/t9g5rlb91ys800n5npymflf80000gn/T//ccsHZoWN.s 			page 73


 2239              		.cfi_def_cfa_offset 4
 2240              		@ sp needed
 2241 0030 5DF804FB 		ldr	pc, [sp], #4
 2242              	.LVL127:
 2243              	.L142:
 2244              	.LCFI69:
 2245              		.cfi_restore_state
1223:user/drivers/DMP/driver/eMPL/inv_mpu_dmp_motion_driver.c **** 
 2246              		.loc 1 1223 5 is_stmt 1 view .LVU655
 2247 0034 4FF08B33 		mov	r3, #-1953789045
 2248 0038 0193     		str	r3, [sp, #4]
 2249 003a F0E7     		b	.L143
 2250              		.cfi_endproc
 2251              	.LFE182:
 2253              		.section	.text.dmp_enable_6x_lp_quat,"ax",%progbits
 2254              		.align	1
 2255              		.global	dmp_enable_6x_lp_quat
 2256              		.syntax unified
 2257              		.thumb
 2258              		.thumb_func
 2260              	dmp_enable_6x_lp_quat:
 2261              	.LVL128:
 2262              	.LFB183:
1237:user/drivers/DMP/driver/eMPL/inv_mpu_dmp_motion_driver.c ****   unsigned char regs[4];
 2263              		.loc 1 1237 49 view -0
 2264              		.cfi_startproc
 2265              		@ args = 0, pretend = 0, frame = 8
 2266              		@ frame_needed = 0, uses_anonymous_args = 0
1237:user/drivers/DMP/driver/eMPL/inv_mpu_dmp_motion_driver.c ****   unsigned char regs[4];
 2267              		.loc 1 1237 49 is_stmt 0 view .LVU657
 2268 0000 00B5     		push	{lr}
 2269              	.LCFI70:
 2270              		.cfi_def_cfa_offset 4
 2271              		.cfi_offset 14, -4
 2272 0002 83B0     		sub	sp, sp, #12
 2273              	.LCFI71:
 2274              		.cfi_def_cfa_offset 16
1238:user/drivers/DMP/driver/eMPL/inv_mpu_dmp_motion_driver.c ****   if (enable) {
 2275              		.loc 1 1238 3 is_stmt 1 view .LVU658
1239:user/drivers/DMP/driver/eMPL/inv_mpu_dmp_motion_driver.c ****     regs[0] = DINA20;
 2276              		.loc 1 1239 3 view .LVU659
1239:user/drivers/DMP/driver/eMPL/inv_mpu_dmp_motion_driver.c ****     regs[0] = DINA20;
 2277              		.loc 1 1239 6 is_stmt 0 view .LVU660
 2278 0004 B0B1     		cbz	r0, .L146
1240:user/drivers/DMP/driver/eMPL/inv_mpu_dmp_motion_driver.c ****     regs[1] = DINA28;
 2279              		.loc 1 1240 5 is_stmt 1 view .LVU661
1240:user/drivers/DMP/driver/eMPL/inv_mpu_dmp_motion_driver.c ****     regs[1] = DINA28;
 2280              		.loc 1 1240 13 is_stmt 0 view .LVU662
 2281 0006 2023     		movs	r3, #32
 2282 0008 8DF80430 		strb	r3, [sp, #4]
1241:user/drivers/DMP/driver/eMPL/inv_mpu_dmp_motion_driver.c ****     regs[2] = DINA30;
 2283              		.loc 1 1241 5 is_stmt 1 view .LVU663
1241:user/drivers/DMP/driver/eMPL/inv_mpu_dmp_motion_driver.c ****     regs[2] = DINA30;
 2284              		.loc 1 1241 13 is_stmt 0 view .LVU664
 2285 000c 2823     		movs	r3, #40
 2286 000e 8DF80530 		strb	r3, [sp, #5]
1242:user/drivers/DMP/driver/eMPL/inv_mpu_dmp_motion_driver.c ****     regs[3] = DINA38;
ARM GAS  /var/folders/21/t9g5rlb91ys800n5npymflf80000gn/T//ccsHZoWN.s 			page 74


 2287              		.loc 1 1242 5 is_stmt 1 view .LVU665
1242:user/drivers/DMP/driver/eMPL/inv_mpu_dmp_motion_driver.c ****     regs[3] = DINA38;
 2288              		.loc 1 1242 13 is_stmt 0 view .LVU666
 2289 0012 3023     		movs	r3, #48
 2290 0014 8DF80630 		strb	r3, [sp, #6]
1243:user/drivers/DMP/driver/eMPL/inv_mpu_dmp_motion_driver.c ****   } else
 2291              		.loc 1 1243 5 is_stmt 1 view .LVU667
1243:user/drivers/DMP/driver/eMPL/inv_mpu_dmp_motion_driver.c ****   } else
 2292              		.loc 1 1243 13 is_stmt 0 view .LVU668
 2293 0018 3823     		movs	r3, #56
 2294 001a 8DF80730 		strb	r3, [sp, #7]
 2295              	.L147:
1247:user/drivers/DMP/driver/eMPL/inv_mpu_dmp_motion_driver.c **** 
 2296              		.loc 1 1247 3 is_stmt 1 view .LVU669
 2297 001e 01AA     		add	r2, sp, #4
 2298 0020 0421     		movs	r1, #4
 2299 0022 40F69E20 		movw	r0, #2718
 2300              	.LVL129:
1247:user/drivers/DMP/driver/eMPL/inv_mpu_dmp_motion_driver.c **** 
 2301              		.loc 1 1247 3 is_stmt 0 view .LVU670
 2302 0026 FFF7FEFF 		bl	mpu_write_mem
 2303              	.LVL130:
1249:user/drivers/DMP/driver/eMPL/inv_mpu_dmp_motion_driver.c **** }
 2304              		.loc 1 1249 3 is_stmt 1 view .LVU671
1249:user/drivers/DMP/driver/eMPL/inv_mpu_dmp_motion_driver.c **** }
 2305              		.loc 1 1249 10 is_stmt 0 view .LVU672
 2306 002a FFF7FEFF 		bl	mpu_reset_fifo
 2307              	.LVL131:
1250:user/drivers/DMP/driver/eMPL/inv_mpu_dmp_motion_driver.c **** 
 2308              		.loc 1 1250 1 view .LVU673
 2309 002e 03B0     		add	sp, sp, #12
 2310              	.LCFI72:
 2311              		.cfi_remember_state
 2312              		.cfi_def_cfa_offset 4
 2313              		@ sp needed
 2314 0030 5DF804FB 		ldr	pc, [sp], #4
 2315              	.LVL132:
 2316              	.L146:
 2317              	.LCFI73:
 2318              		.cfi_restore_state
1245:user/drivers/DMP/driver/eMPL/inv_mpu_dmp_motion_driver.c **** 
 2319              		.loc 1 1245 5 is_stmt 1 view .LVU674
 2320 0034 4FF0A333 		mov	r3, #-1549556829
 2321 0038 0193     		str	r3, [sp, #4]
 2322 003a F0E7     		b	.L147
 2323              		.cfi_endproc
 2324              	.LFE183:
 2326              		.section	.text.dmp_enable_feature,"ax",%progbits
 2327              		.align	1
 2328              		.global	dmp_enable_feature
 2329              		.syntax unified
 2330              		.thumb
 2331              		.thumb_func
 2333              	dmp_enable_feature:
 2334              	.LVL133:
 2335              	.LFB179:
1061:user/drivers/DMP/driver/eMPL/inv_mpu_dmp_motion_driver.c ****   unsigned char tmp[10];
ARM GAS  /var/folders/21/t9g5rlb91ys800n5npymflf80000gn/T//ccsHZoWN.s 			page 75


 2336              		.loc 1 1061 45 view -0
 2337              		.cfi_startproc
 2338              		@ args = 0, pretend = 0, frame = 16
 2339              		@ frame_needed = 0, uses_anonymous_args = 0
1061:user/drivers/DMP/driver/eMPL/inv_mpu_dmp_motion_driver.c ****   unsigned char tmp[10];
 2340              		.loc 1 1061 45 is_stmt 0 view .LVU676
 2341 0000 2DE9F041 		push	{r4, r5, r6, r7, r8, lr}
 2342              	.LCFI74:
 2343              		.cfi_def_cfa_offset 24
 2344              		.cfi_offset 4, -24
 2345              		.cfi_offset 5, -20
 2346              		.cfi_offset 6, -16
 2347              		.cfi_offset 7, -12
 2348              		.cfi_offset 8, -8
 2349              		.cfi_offset 14, -4
 2350 0004 84B0     		sub	sp, sp, #16
 2351              	.LCFI75:
 2352              		.cfi_def_cfa_offset 40
 2353 0006 0446     		mov	r4, r0
1062:user/drivers/DMP/driver/eMPL/inv_mpu_dmp_motion_driver.c **** 
 2354              		.loc 1 1062 3 is_stmt 1 view .LVU677
1068:user/drivers/DMP/driver/eMPL/inv_mpu_dmp_motion_driver.c ****   tmp[1] = (unsigned char)((GYRO_SF >> 16) & 0xFF);
 2355              		.loc 1 1068 3 view .LVU678
1068:user/drivers/DMP/driver/eMPL/inv_mpu_dmp_motion_driver.c ****   tmp[1] = (unsigned char)((GYRO_SF >> 16) & 0xFF);
 2356              		.loc 1 1068 10 is_stmt 0 view .LVU679
 2357 0008 0223     		movs	r3, #2
 2358 000a 8DF80430 		strb	r3, [sp, #4]
1069:user/drivers/DMP/driver/eMPL/inv_mpu_dmp_motion_driver.c ****   tmp[2] = (unsigned char)((GYRO_SF >> 8) & 0xFF);
 2359              		.loc 1 1069 3 is_stmt 1 view .LVU680
1069:user/drivers/DMP/driver/eMPL/inv_mpu_dmp_motion_driver.c ****   tmp[2] = (unsigned char)((GYRO_SF >> 8) & 0xFF);
 2360              		.loc 1 1069 10 is_stmt 0 view .LVU681
 2361 000e CA23     		movs	r3, #202
 2362 0010 8DF80530 		strb	r3, [sp, #5]
1070:user/drivers/DMP/driver/eMPL/inv_mpu_dmp_motion_driver.c ****   tmp[3] = (unsigned char)(GYRO_SF & 0xFF);
 2363              		.loc 1 1070 3 is_stmt 1 view .LVU682
1070:user/drivers/DMP/driver/eMPL/inv_mpu_dmp_motion_driver.c ****   tmp[3] = (unsigned char)(GYRO_SF & 0xFF);
 2364              		.loc 1 1070 10 is_stmt 0 view .LVU683
 2365 0014 E323     		movs	r3, #227
 2366 0016 8DF80630 		strb	r3, [sp, #6]
1071:user/drivers/DMP/driver/eMPL/inv_mpu_dmp_motion_driver.c ****   mpu_write_mem(D_0_104, 4, tmp);
 2367              		.loc 1 1071 3 is_stmt 1 view .LVU684
1071:user/drivers/DMP/driver/eMPL/inv_mpu_dmp_motion_driver.c ****   mpu_write_mem(D_0_104, 4, tmp);
 2368              		.loc 1 1071 10 is_stmt 0 view .LVU685
 2369 001a 0923     		movs	r3, #9
 2370 001c 8DF80730 		strb	r3, [sp, #7]
1072:user/drivers/DMP/driver/eMPL/inv_mpu_dmp_motion_driver.c **** 
 2371              		.loc 1 1072 3 is_stmt 1 view .LVU686
 2372 0020 01AA     		add	r2, sp, #4
 2373 0022 0421     		movs	r1, #4
 2374 0024 6820     		movs	r0, #104
 2375              	.LVL134:
1072:user/drivers/DMP/driver/eMPL/inv_mpu_dmp_motion_driver.c **** 
 2376              		.loc 1 1072 3 is_stmt 0 view .LVU687
 2377 0026 FFF7FEFF 		bl	mpu_write_mem
 2378              	.LVL135:
1075:user/drivers/DMP/driver/eMPL/inv_mpu_dmp_motion_driver.c ****   if (mask & DMP_FEATURE_SEND_RAW_ACCEL) {
 2379              		.loc 1 1075 3 is_stmt 1 view .LVU688
ARM GAS  /var/folders/21/t9g5rlb91ys800n5npymflf80000gn/T//ccsHZoWN.s 			page 76


1075:user/drivers/DMP/driver/eMPL/inv_mpu_dmp_motion_driver.c ****   if (mask & DMP_FEATURE_SEND_RAW_ACCEL) {
 2380              		.loc 1 1075 10 is_stmt 0 view .LVU689
 2381 002a A323     		movs	r3, #163
 2382 002c 8DF80430 		strb	r3, [sp, #4]
1076:user/drivers/DMP/driver/eMPL/inv_mpu_dmp_motion_driver.c ****     tmp[1] = 0xC0;
 2383              		.loc 1 1076 3 is_stmt 1 view .LVU690
1076:user/drivers/DMP/driver/eMPL/inv_mpu_dmp_motion_driver.c ****     tmp[1] = 0xC0;
 2384              		.loc 1 1076 6 is_stmt 0 view .LVU691
 2385 0030 14F04008 		ands	r8, r4, #64
 2386 0034 00F0B080 		beq	.L150
1077:user/drivers/DMP/driver/eMPL/inv_mpu_dmp_motion_driver.c ****     tmp[2] = 0xC8;
 2387              		.loc 1 1077 5 is_stmt 1 view .LVU692
1077:user/drivers/DMP/driver/eMPL/inv_mpu_dmp_motion_driver.c ****     tmp[2] = 0xC8;
 2388              		.loc 1 1077 12 is_stmt 0 view .LVU693
 2389 0038 C023     		movs	r3, #192
 2390 003a 8DF80530 		strb	r3, [sp, #5]
1078:user/drivers/DMP/driver/eMPL/inv_mpu_dmp_motion_driver.c ****     tmp[3] = 0xC2;
 2391              		.loc 1 1078 5 is_stmt 1 view .LVU694
1078:user/drivers/DMP/driver/eMPL/inv_mpu_dmp_motion_driver.c ****     tmp[3] = 0xC2;
 2392              		.loc 1 1078 12 is_stmt 0 view .LVU695
 2393 003e C823     		movs	r3, #200
 2394 0040 8DF80630 		strb	r3, [sp, #6]
1079:user/drivers/DMP/driver/eMPL/inv_mpu_dmp_motion_driver.c ****   } else {
 2395              		.loc 1 1079 5 is_stmt 1 view .LVU696
1079:user/drivers/DMP/driver/eMPL/inv_mpu_dmp_motion_driver.c ****   } else {
 2396              		.loc 1 1079 12 is_stmt 0 view .LVU697
 2397 0044 C223     		movs	r3, #194
 2398 0046 8DF80730 		strb	r3, [sp, #7]
 2399              	.L151:
1085:user/drivers/DMP/driver/eMPL/inv_mpu_dmp_motion_driver.c ****     tmp[4] = 0xC4;
 2400              		.loc 1 1085 3 is_stmt 1 view .LVU698
1085:user/drivers/DMP/driver/eMPL/inv_mpu_dmp_motion_driver.c ****     tmp[4] = 0xC4;
 2401              		.loc 1 1085 6 is_stmt 0 view .LVU699
 2402 004a 14F4C075 		ands	r5, r4, #384
 2403 004e 00F0AB80 		beq	.L152
1086:user/drivers/DMP/driver/eMPL/inv_mpu_dmp_motion_driver.c ****     tmp[5] = 0xCC;
 2404              		.loc 1 1086 5 is_stmt 1 view .LVU700
1086:user/drivers/DMP/driver/eMPL/inv_mpu_dmp_motion_driver.c ****     tmp[5] = 0xCC;
 2405              		.loc 1 1086 12 is_stmt 0 view .LVU701
 2406 0052 C423     		movs	r3, #196
 2407 0054 8DF80830 		strb	r3, [sp, #8]
1087:user/drivers/DMP/driver/eMPL/inv_mpu_dmp_motion_driver.c ****     tmp[6] = 0xC6;
 2408              		.loc 1 1087 5 is_stmt 1 view .LVU702
1087:user/drivers/DMP/driver/eMPL/inv_mpu_dmp_motion_driver.c ****     tmp[6] = 0xC6;
 2409              		.loc 1 1087 12 is_stmt 0 view .LVU703
 2410 0058 CC23     		movs	r3, #204
 2411 005a 8DF80930 		strb	r3, [sp, #9]
1088:user/drivers/DMP/driver/eMPL/inv_mpu_dmp_motion_driver.c ****   } else {
 2412              		.loc 1 1088 5 is_stmt 1 view .LVU704
1088:user/drivers/DMP/driver/eMPL/inv_mpu_dmp_motion_driver.c ****   } else {
 2413              		.loc 1 1088 12 is_stmt 0 view .LVU705
 2414 005e C623     		movs	r3, #198
 2415 0060 8DF80A30 		strb	r3, [sp, #10]
 2416              	.L153:
1094:user/drivers/DMP/driver/eMPL/inv_mpu_dmp_motion_driver.c ****   tmp[8] = 0xA3;
 2417              		.loc 1 1094 3 is_stmt 1 view .LVU706
1094:user/drivers/DMP/driver/eMPL/inv_mpu_dmp_motion_driver.c ****   tmp[8] = 0xA3;
ARM GAS  /var/folders/21/t9g5rlb91ys800n5npymflf80000gn/T//ccsHZoWN.s 			page 77


 2418              		.loc 1 1094 10 is_stmt 0 view .LVU707
 2419 0064 A323     		movs	r3, #163
 2420 0066 8DF80B30 		strb	r3, [sp, #11]
1095:user/drivers/DMP/driver/eMPL/inv_mpu_dmp_motion_driver.c ****   tmp[9] = 0xA3;
 2421              		.loc 1 1095 3 is_stmt 1 view .LVU708
1095:user/drivers/DMP/driver/eMPL/inv_mpu_dmp_motion_driver.c ****   tmp[9] = 0xA3;
 2422              		.loc 1 1095 10 is_stmt 0 view .LVU709
 2423 006a 8DF80C30 		strb	r3, [sp, #12]
1096:user/drivers/DMP/driver/eMPL/inv_mpu_dmp_motion_driver.c ****   mpu_write_mem(CFG_15, 10, tmp);
 2424              		.loc 1 1096 3 is_stmt 1 view .LVU710
1096:user/drivers/DMP/driver/eMPL/inv_mpu_dmp_motion_driver.c ****   mpu_write_mem(CFG_15, 10, tmp);
 2425              		.loc 1 1096 10 is_stmt 0 view .LVU711
 2426 006e 8DF80D30 		strb	r3, [sp, #13]
1097:user/drivers/DMP/driver/eMPL/inv_mpu_dmp_motion_driver.c **** 
 2427              		.loc 1 1097 3 is_stmt 1 view .LVU712
 2428 0072 01AA     		add	r2, sp, #4
 2429 0074 0A21     		movs	r1, #10
 2430 0076 40F6A720 		movw	r0, #2727
 2431 007a FFF7FEFF 		bl	mpu_write_mem
 2432              	.LVL136:
1100:user/drivers/DMP/driver/eMPL/inv_mpu_dmp_motion_driver.c ****     tmp[0] = DINA20;
 2433              		.loc 1 1100 3 view .LVU713
1100:user/drivers/DMP/driver/eMPL/inv_mpu_dmp_motion_driver.c ****     tmp[0] = DINA20;
 2434              		.loc 1 1100 6 is_stmt 0 view .LVU714
 2435 007e 14F00307 		ands	r7, r4, #3
 2436 0082 00F09980 		beq	.L154
1101:user/drivers/DMP/driver/eMPL/inv_mpu_dmp_motion_driver.c ****   else
 2437              		.loc 1 1101 5 is_stmt 1 view .LVU715
1101:user/drivers/DMP/driver/eMPL/inv_mpu_dmp_motion_driver.c ****   else
 2438              		.loc 1 1101 12 is_stmt 0 view .LVU716
 2439 0086 2023     		movs	r3, #32
 2440 0088 8DF80430 		strb	r3, [sp, #4]
 2441              	.L155:
1104:user/drivers/DMP/driver/eMPL/inv_mpu_dmp_motion_driver.c **** 
 2442              		.loc 1 1104 3 is_stmt 1 view .LVU717
 2443 008c 01AA     		add	r2, sp, #4
 2444 008e 0121     		movs	r1, #1
 2445 0090 40F6B620 		movw	r0, #2742
 2446 0094 FFF7FEFF 		bl	mpu_write_mem
 2447              	.LVL137:
1106:user/drivers/DMP/driver/eMPL/inv_mpu_dmp_motion_driver.c ****     dmp_enable_gyro_cal(1);
 2448              		.loc 1 1106 3 view .LVU718
1106:user/drivers/DMP/driver/eMPL/inv_mpu_dmp_motion_driver.c ****     dmp_enable_gyro_cal(1);
 2449              		.loc 1 1106 6 is_stmt 0 view .LVU719
 2450 0098 14F0200F 		tst	r4, #32
 2451 009c 00F09080 		beq	.L156
1107:user/drivers/DMP/driver/eMPL/inv_mpu_dmp_motion_driver.c ****   else
 2452              		.loc 1 1107 5 is_stmt 1 view .LVU720
 2453 00a0 0120     		movs	r0, #1
 2454 00a2 FFF7FEFF 		bl	dmp_enable_gyro_cal
 2455              	.LVL138:
 2456              	.L157:
1111:user/drivers/DMP/driver/eMPL/inv_mpu_dmp_motion_driver.c ****     if (mask & DMP_FEATURE_SEND_CAL_GYRO) {
 2457              		.loc 1 1111 3 view .LVU721
1111:user/drivers/DMP/driver/eMPL/inv_mpu_dmp_motion_driver.c ****     if (mask & DMP_FEATURE_SEND_CAL_GYRO) {
 2458              		.loc 1 1111 6 is_stmt 0 view .LVU722
 2459 00a6 ADB1     		cbz	r5, .L158
ARM GAS  /var/folders/21/t9g5rlb91ys800n5npymflf80000gn/T//ccsHZoWN.s 			page 78


1112:user/drivers/DMP/driver/eMPL/inv_mpu_dmp_motion_driver.c ****       tmp[0] = 0xB2;
 2460              		.loc 1 1112 5 is_stmt 1 view .LVU723
1112:user/drivers/DMP/driver/eMPL/inv_mpu_dmp_motion_driver.c ****       tmp[0] = 0xB2;
 2461              		.loc 1 1112 8 is_stmt 0 view .LVU724
 2462 00a8 14F4807F 		tst	r4, #256
 2463 00ac 00F08C80 		beq	.L159
1113:user/drivers/DMP/driver/eMPL/inv_mpu_dmp_motion_driver.c ****       tmp[1] = 0x8B;
 2464              		.loc 1 1113 7 is_stmt 1 view .LVU725
1113:user/drivers/DMP/driver/eMPL/inv_mpu_dmp_motion_driver.c ****       tmp[1] = 0x8B;
 2465              		.loc 1 1113 14 is_stmt 0 view .LVU726
 2466 00b0 B223     		movs	r3, #178
 2467 00b2 8DF80430 		strb	r3, [sp, #4]
1114:user/drivers/DMP/driver/eMPL/inv_mpu_dmp_motion_driver.c ****       tmp[2] = 0xB6;
 2468              		.loc 1 1114 7 is_stmt 1 view .LVU727
1114:user/drivers/DMP/driver/eMPL/inv_mpu_dmp_motion_driver.c ****       tmp[2] = 0xB6;
 2469              		.loc 1 1114 14 is_stmt 0 view .LVU728
 2470 00b6 8B23     		movs	r3, #139
 2471 00b8 8DF80530 		strb	r3, [sp, #5]
1115:user/drivers/DMP/driver/eMPL/inv_mpu_dmp_motion_driver.c ****       tmp[3] = 0x9B;
 2472              		.loc 1 1115 7 is_stmt 1 view .LVU729
1115:user/drivers/DMP/driver/eMPL/inv_mpu_dmp_motion_driver.c ****       tmp[3] = 0x9B;
 2473              		.loc 1 1115 14 is_stmt 0 view .LVU730
 2474 00bc B623     		movs	r3, #182
 2475 00be 8DF80630 		strb	r3, [sp, #6]
1116:user/drivers/DMP/driver/eMPL/inv_mpu_dmp_motion_driver.c ****     } else {
 2476              		.loc 1 1116 7 is_stmt 1 view .LVU731
1116:user/drivers/DMP/driver/eMPL/inv_mpu_dmp_motion_driver.c ****     } else {
 2477              		.loc 1 1116 14 is_stmt 0 view .LVU732
 2478 00c2 9B23     		movs	r3, #155
 2479 00c4 8DF80730 		strb	r3, [sp, #7]
 2480              	.L160:
1123:user/drivers/DMP/driver/eMPL/inv_mpu_dmp_motion_driver.c ****   }
 2481              		.loc 1 1123 5 is_stmt 1 view .LVU733
 2482 00c8 01AA     		add	r2, sp, #4
 2483 00ca 0421     		movs	r1, #4
 2484 00cc 40F6A220 		movw	r0, #2722
 2485 00d0 FFF7FEFF 		bl	mpu_write_mem
 2486              	.LVL139:
 2487              	.L158:
1126:user/drivers/DMP/driver/eMPL/inv_mpu_dmp_motion_driver.c ****     /* Enable tap. */
 2488              		.loc 1 1126 3 view .LVU734
1126:user/drivers/DMP/driver/eMPL/inv_mpu_dmp_motion_driver.c ****     /* Enable tap. */
 2489              		.loc 1 1126 6 is_stmt 0 view .LVU735
 2490 00d4 14F0010F 		tst	r4, #1
 2491 00d8 00F08380 		beq	.L161
1128:user/drivers/DMP/driver/eMPL/inv_mpu_dmp_motion_driver.c ****     mpu_write_mem(CFG_20, 1, tmp);
 2492              		.loc 1 1128 5 is_stmt 1 view .LVU736
1128:user/drivers/DMP/driver/eMPL/inv_mpu_dmp_motion_driver.c ****     mpu_write_mem(CFG_20, 1, tmp);
 2493              		.loc 1 1128 12 is_stmt 0 view .LVU737
 2494 00dc F823     		movs	r3, #248
 2495 00de 8DF80430 		strb	r3, [sp, #4]
1129:user/drivers/DMP/driver/eMPL/inv_mpu_dmp_motion_driver.c ****     dmp_set_tap_thresh(TAP_XYZ, 250);
 2496              		.loc 1 1129 5 is_stmt 1 view .LVU738
 2497 00e2 01AA     		add	r2, sp, #4
 2498 00e4 0121     		movs	r1, #1
 2499 00e6 4FF40B60 		mov	r0, #2224
 2500 00ea FFF7FEFF 		bl	mpu_write_mem
ARM GAS  /var/folders/21/t9g5rlb91ys800n5npymflf80000gn/T//ccsHZoWN.s 			page 79


 2501              	.LVL140:
1130:user/drivers/DMP/driver/eMPL/inv_mpu_dmp_motion_driver.c ****     dmp_set_tap_axes(TAP_XYZ);
 2502              		.loc 1 1130 5 view .LVU739
 2503 00ee FA21     		movs	r1, #250
 2504 00f0 0720     		movs	r0, #7
 2505 00f2 FFF7FEFF 		bl	dmp_set_tap_thresh
 2506              	.LVL141:
1131:user/drivers/DMP/driver/eMPL/inv_mpu_dmp_motion_driver.c ****     dmp_set_tap_count(1);
 2507              		.loc 1 1131 5 view .LVU740
 2508 00f6 0720     		movs	r0, #7
 2509 00f8 FFF7FEFF 		bl	dmp_set_tap_axes
 2510              	.LVL142:
1132:user/drivers/DMP/driver/eMPL/inv_mpu_dmp_motion_driver.c ****     dmp_set_tap_time(100);
 2511              		.loc 1 1132 5 view .LVU741
 2512 00fc 0120     		movs	r0, #1
 2513 00fe FFF7FEFF 		bl	dmp_set_tap_count
 2514              	.LVL143:
1133:user/drivers/DMP/driver/eMPL/inv_mpu_dmp_motion_driver.c ****     dmp_set_tap_time_multi(500);
 2515              		.loc 1 1133 5 view .LVU742
 2516 0102 6420     		movs	r0, #100
 2517 0104 FFF7FEFF 		bl	dmp_set_tap_time
 2518              	.LVL144:
1134:user/drivers/DMP/driver/eMPL/inv_mpu_dmp_motion_driver.c **** 
 2519              		.loc 1 1134 5 view .LVU743
 2520 0108 4FF4FA70 		mov	r0, #500
 2521 010c FFF7FEFF 		bl	dmp_set_tap_time_multi
 2522              	.LVL145:
1136:user/drivers/DMP/driver/eMPL/inv_mpu_dmp_motion_driver.c ****     dmp_set_shake_reject_time(40);
 2523              		.loc 1 1136 5 view .LVU744
 2524 0110 C821     		movs	r1, #200
 2525 0112 3F48     		ldr	r0, .L174
 2526 0114 FFF7FEFF 		bl	dmp_set_shake_reject_thresh
 2527              	.LVL146:
1137:user/drivers/DMP/driver/eMPL/inv_mpu_dmp_motion_driver.c ****     dmp_set_shake_reject_timeout(10);
 2528              		.loc 1 1137 5 view .LVU745
 2529 0118 2820     		movs	r0, #40
 2530 011a FFF7FEFF 		bl	dmp_set_shake_reject_time
 2531              	.LVL147:
1138:user/drivers/DMP/driver/eMPL/inv_mpu_dmp_motion_driver.c ****   } else {
 2532              		.loc 1 1138 5 view .LVU746
 2533 011e 0A20     		movs	r0, #10
 2534 0120 FFF7FEFF 		bl	dmp_set_shake_reject_timeout
 2535              	.LVL148:
 2536              	.L162:
1144:user/drivers/DMP/driver/eMPL/inv_mpu_dmp_motion_driver.c ****     tmp[0] = 0xD9;
 2537              		.loc 1 1144 3 view .LVU747
1144:user/drivers/DMP/driver/eMPL/inv_mpu_dmp_motion_driver.c ****     tmp[0] = 0xD9;
 2538              		.loc 1 1144 6 is_stmt 0 view .LVU748
 2539 0124 14F0020F 		tst	r4, #2
 2540 0128 65D0     		beq	.L163
1145:user/drivers/DMP/driver/eMPL/inv_mpu_dmp_motion_driver.c ****   } else
 2541              		.loc 1 1145 5 is_stmt 1 view .LVU749
1145:user/drivers/DMP/driver/eMPL/inv_mpu_dmp_motion_driver.c ****   } else
 2542              		.loc 1 1145 12 is_stmt 0 view .LVU750
 2543 012a D923     		movs	r3, #217
 2544 012c 8DF80430 		strb	r3, [sp, #4]
 2545              	.L164:
ARM GAS  /var/folders/21/t9g5rlb91ys800n5npymflf80000gn/T//ccsHZoWN.s 			page 80


1148:user/drivers/DMP/driver/eMPL/inv_mpu_dmp_motion_driver.c **** 
 2546              		.loc 1 1148 3 is_stmt 1 view .LVU751
 2547 0130 01AA     		add	r2, sp, #4
 2548 0132 0121     		movs	r1, #1
 2549 0134 40F23D70 		movw	r0, #1853
 2550 0138 FFF7FEFF 		bl	mpu_write_mem
 2551              	.LVL149:
1150:user/drivers/DMP/driver/eMPL/inv_mpu_dmp_motion_driver.c ****     dmp_enable_lp_quat(1);
 2552              		.loc 1 1150 3 view .LVU752
1150:user/drivers/DMP/driver/eMPL/inv_mpu_dmp_motion_driver.c ****     dmp_enable_lp_quat(1);
 2553              		.loc 1 1150 6 is_stmt 0 view .LVU753
 2554 013c 14F0040F 		tst	r4, #4
 2555 0140 5DD0     		beq	.L165
1151:user/drivers/DMP/driver/eMPL/inv_mpu_dmp_motion_driver.c ****   else
 2556              		.loc 1 1151 5 is_stmt 1 view .LVU754
 2557 0142 0120     		movs	r0, #1
 2558 0144 FFF7FEFF 		bl	dmp_enable_lp_quat
 2559              	.LVL150:
 2560              	.L166:
1155:user/drivers/DMP/driver/eMPL/inv_mpu_dmp_motion_driver.c ****     dmp_enable_6x_lp_quat(1);
 2561              		.loc 1 1155 3 view .LVU755
1155:user/drivers/DMP/driver/eMPL/inv_mpu_dmp_motion_driver.c ****     dmp_enable_6x_lp_quat(1);
 2562              		.loc 1 1155 6 is_stmt 0 view .LVU756
 2563 0148 14F0100F 		tst	r4, #16
 2564 014c 5BD0     		beq	.L167
1156:user/drivers/DMP/driver/eMPL/inv_mpu_dmp_motion_driver.c ****   else
 2565              		.loc 1 1156 5 is_stmt 1 view .LVU757
 2566 014e 0120     		movs	r0, #1
 2567 0150 FFF7FEFF 		bl	dmp_enable_6x_lp_quat
 2568              	.LVL151:
 2569              	.L168:
1161:user/drivers/DMP/driver/eMPL/inv_mpu_dmp_motion_driver.c ****   mpu_reset_fifo();
 2570              		.loc 1 1161 3 view .LVU758
1161:user/drivers/DMP/driver/eMPL/inv_mpu_dmp_motion_driver.c ****   mpu_reset_fifo();
 2571              		.loc 1 1161 20 is_stmt 0 view .LVU759
 2572 0154 2F4E     		ldr	r6, .L174+4
 2573 0156 44F00803 		orr	r3, r4, #8
 2574 015a 7381     		strh	r3, [r6, #10]	@ movhi
1162:user/drivers/DMP/driver/eMPL/inv_mpu_dmp_motion_driver.c **** 
 2575              		.loc 1 1162 3 is_stmt 1 view .LVU760
 2576 015c FFF7FEFF 		bl	mpu_reset_fifo
 2577              	.LVL152:
1164:user/drivers/DMP/driver/eMPL/inv_mpu_dmp_motion_driver.c ****   if (mask & DMP_FEATURE_SEND_RAW_ACCEL)
 2578              		.loc 1 1164 3 view .LVU761
1164:user/drivers/DMP/driver/eMPL/inv_mpu_dmp_motion_driver.c ****   if (mask & DMP_FEATURE_SEND_RAW_ACCEL)
 2579              		.loc 1 1164 21 is_stmt 0 view .LVU762
 2580 0160 0023     		movs	r3, #0
 2581 0162 B373     		strb	r3, [r6, #14]
1165:user/drivers/DMP/driver/eMPL/inv_mpu_dmp_motion_driver.c ****     dmp.packet_length += 6;
 2582              		.loc 1 1165 3 is_stmt 1 view .LVU763
1165:user/drivers/DMP/driver/eMPL/inv_mpu_dmp_motion_driver.c ****     dmp.packet_length += 6;
 2583              		.loc 1 1165 6 is_stmt 0 view .LVU764
 2584 0164 B8F1000F 		cmp	r8, #0
 2585 0168 01D0     		beq	.L169
1166:user/drivers/DMP/driver/eMPL/inv_mpu_dmp_motion_driver.c ****   if (mask & DMP_FEATURE_SEND_ANY_GYRO)
 2586              		.loc 1 1166 5 is_stmt 1 view .LVU765
1166:user/drivers/DMP/driver/eMPL/inv_mpu_dmp_motion_driver.c ****   if (mask & DMP_FEATURE_SEND_ANY_GYRO)
ARM GAS  /var/folders/21/t9g5rlb91ys800n5npymflf80000gn/T//ccsHZoWN.s 			page 81


 2587              		.loc 1 1166 23 is_stmt 0 view .LVU766
 2588 016a 0622     		movs	r2, #6
 2589 016c B273     		strb	r2, [r6, #14]
 2590              	.L169:
1167:user/drivers/DMP/driver/eMPL/inv_mpu_dmp_motion_driver.c ****     dmp.packet_length += 6;
 2591              		.loc 1 1167 3 is_stmt 1 view .LVU767
1167:user/drivers/DMP/driver/eMPL/inv_mpu_dmp_motion_driver.c ****     dmp.packet_length += 6;
 2592              		.loc 1 1167 6 is_stmt 0 view .LVU768
 2593 016e 1DB1     		cbz	r5, .L170
1168:user/drivers/DMP/driver/eMPL/inv_mpu_dmp_motion_driver.c ****   if (mask & (DMP_FEATURE_LP_QUAT | DMP_FEATURE_6X_LP_QUAT))
 2594              		.loc 1 1168 5 is_stmt 1 view .LVU769
1168:user/drivers/DMP/driver/eMPL/inv_mpu_dmp_motion_driver.c ****   if (mask & (DMP_FEATURE_LP_QUAT | DMP_FEATURE_6X_LP_QUAT))
 2595              		.loc 1 1168 8 is_stmt 0 view .LVU770
 2596 0170 284A     		ldr	r2, .L174+4
 2597 0172 937B     		ldrb	r3, [r2, #14]	@ zero_extendqisi2
1168:user/drivers/DMP/driver/eMPL/inv_mpu_dmp_motion_driver.c ****   if (mask & (DMP_FEATURE_LP_QUAT | DMP_FEATURE_6X_LP_QUAT))
 2598              		.loc 1 1168 23 view .LVU771
 2599 0174 0633     		adds	r3, r3, #6
 2600 0176 9373     		strb	r3, [r2, #14]
 2601              	.L170:
1169:user/drivers/DMP/driver/eMPL/inv_mpu_dmp_motion_driver.c ****     dmp.packet_length += 16;
 2602              		.loc 1 1169 3 is_stmt 1 view .LVU772
1169:user/drivers/DMP/driver/eMPL/inv_mpu_dmp_motion_driver.c ****     dmp.packet_length += 16;
 2603              		.loc 1 1169 6 is_stmt 0 view .LVU773
 2604 0178 14F0140F 		tst	r4, #20
 2605 017c 03D0     		beq	.L171
1170:user/drivers/DMP/driver/eMPL/inv_mpu_dmp_motion_driver.c ****   if (mask & (DMP_FEATURE_TAP | DMP_FEATURE_ANDROID_ORIENT))
 2606              		.loc 1 1170 5 is_stmt 1 view .LVU774
1170:user/drivers/DMP/driver/eMPL/inv_mpu_dmp_motion_driver.c ****   if (mask & (DMP_FEATURE_TAP | DMP_FEATURE_ANDROID_ORIENT))
 2607              		.loc 1 1170 8 is_stmt 0 view .LVU775
 2608 017e 254A     		ldr	r2, .L174+4
 2609 0180 937B     		ldrb	r3, [r2, #14]	@ zero_extendqisi2
1170:user/drivers/DMP/driver/eMPL/inv_mpu_dmp_motion_driver.c ****   if (mask & (DMP_FEATURE_TAP | DMP_FEATURE_ANDROID_ORIENT))
 2610              		.loc 1 1170 23 view .LVU776
 2611 0182 1033     		adds	r3, r3, #16
 2612 0184 9373     		strb	r3, [r2, #14]
 2613              	.L171:
1171:user/drivers/DMP/driver/eMPL/inv_mpu_dmp_motion_driver.c ****     dmp.packet_length += 4;
 2614              		.loc 1 1171 3 is_stmt 1 view .LVU777
1171:user/drivers/DMP/driver/eMPL/inv_mpu_dmp_motion_driver.c ****     dmp.packet_length += 4;
 2615              		.loc 1 1171 6 is_stmt 0 view .LVU778
 2616 0186 1FB1     		cbz	r7, .L172
1172:user/drivers/DMP/driver/eMPL/inv_mpu_dmp_motion_driver.c **** 
 2617              		.loc 1 1172 5 is_stmt 1 view .LVU779
1172:user/drivers/DMP/driver/eMPL/inv_mpu_dmp_motion_driver.c **** 
 2618              		.loc 1 1172 8 is_stmt 0 view .LVU780
 2619 0188 224A     		ldr	r2, .L174+4
 2620 018a 937B     		ldrb	r3, [r2, #14]	@ zero_extendqisi2
1172:user/drivers/DMP/driver/eMPL/inv_mpu_dmp_motion_driver.c **** 
 2621              		.loc 1 1172 23 view .LVU781
 2622 018c 0433     		adds	r3, r3, #4
 2623 018e 9373     		strb	r3, [r2, #14]
 2624              	.L172:
1174:user/drivers/DMP/driver/eMPL/inv_mpu_dmp_motion_driver.c **** }
 2625              		.loc 1 1174 3 is_stmt 1 view .LVU782
1175:user/drivers/DMP/driver/eMPL/inv_mpu_dmp_motion_driver.c **** 
 2626              		.loc 1 1175 1 is_stmt 0 view .LVU783
ARM GAS  /var/folders/21/t9g5rlb91ys800n5npymflf80000gn/T//ccsHZoWN.s 			page 82


 2627 0190 0020     		movs	r0, #0
 2628 0192 04B0     		add	sp, sp, #16
 2629              	.LCFI76:
 2630              		.cfi_remember_state
 2631              		.cfi_def_cfa_offset 24
 2632              		@ sp needed
 2633 0194 BDE8F081 		pop	{r4, r5, r6, r7, r8, pc}
 2634              	.L150:
 2635              	.LCFI77:
 2636              		.cfi_restore_state
1081:user/drivers/DMP/driver/eMPL/inv_mpu_dmp_motion_driver.c ****     tmp[2] = 0xA3;
 2637              		.loc 1 1081 5 is_stmt 1 view .LVU784
1081:user/drivers/DMP/driver/eMPL/inv_mpu_dmp_motion_driver.c ****     tmp[2] = 0xA3;
 2638              		.loc 1 1081 12 is_stmt 0 view .LVU785
 2639 0198 A323     		movs	r3, #163
 2640 019a 8DF80530 		strb	r3, [sp, #5]
1082:user/drivers/DMP/driver/eMPL/inv_mpu_dmp_motion_driver.c ****     tmp[3] = 0xA3;
 2641              		.loc 1 1082 5 is_stmt 1 view .LVU786
1082:user/drivers/DMP/driver/eMPL/inv_mpu_dmp_motion_driver.c ****     tmp[3] = 0xA3;
 2642              		.loc 1 1082 12 is_stmt 0 view .LVU787
 2643 019e 8DF80630 		strb	r3, [sp, #6]
1083:user/drivers/DMP/driver/eMPL/inv_mpu_dmp_motion_driver.c ****   }
 2644              		.loc 1 1083 5 is_stmt 1 view .LVU788
1083:user/drivers/DMP/driver/eMPL/inv_mpu_dmp_motion_driver.c ****   }
 2645              		.loc 1 1083 12 is_stmt 0 view .LVU789
 2646 01a2 8DF80730 		strb	r3, [sp, #7]
 2647 01a6 50E7     		b	.L151
 2648              	.L152:
1090:user/drivers/DMP/driver/eMPL/inv_mpu_dmp_motion_driver.c ****     tmp[5] = 0xA3;
 2649              		.loc 1 1090 5 is_stmt 1 view .LVU790
1090:user/drivers/DMP/driver/eMPL/inv_mpu_dmp_motion_driver.c ****     tmp[5] = 0xA3;
 2650              		.loc 1 1090 12 is_stmt 0 view .LVU791
 2651 01a8 A323     		movs	r3, #163
 2652 01aa 8DF80830 		strb	r3, [sp, #8]
1091:user/drivers/DMP/driver/eMPL/inv_mpu_dmp_motion_driver.c ****     tmp[6] = 0xA3;
 2653              		.loc 1 1091 5 is_stmt 1 view .LVU792
1091:user/drivers/DMP/driver/eMPL/inv_mpu_dmp_motion_driver.c ****     tmp[6] = 0xA3;
 2654              		.loc 1 1091 12 is_stmt 0 view .LVU793
 2655 01ae 8DF80930 		strb	r3, [sp, #9]
1092:user/drivers/DMP/driver/eMPL/inv_mpu_dmp_motion_driver.c ****   }
 2656              		.loc 1 1092 5 is_stmt 1 view .LVU794
1092:user/drivers/DMP/driver/eMPL/inv_mpu_dmp_motion_driver.c ****   }
 2657              		.loc 1 1092 12 is_stmt 0 view .LVU795
 2658 01b2 8DF80A30 		strb	r3, [sp, #10]
 2659 01b6 55E7     		b	.L153
 2660              	.L154:
1103:user/drivers/DMP/driver/eMPL/inv_mpu_dmp_motion_driver.c ****   mpu_write_mem(CFG_27, 1, tmp);
 2661              		.loc 1 1103 5 is_stmt 1 view .LVU796
1103:user/drivers/DMP/driver/eMPL/inv_mpu_dmp_motion_driver.c ****   mpu_write_mem(CFG_27, 1, tmp);
 2662              		.loc 1 1103 12 is_stmt 0 view .LVU797
 2663 01b8 D823     		movs	r3, #216
 2664 01ba 8DF80430 		strb	r3, [sp, #4]
 2665 01be 65E7     		b	.L155
 2666              	.L156:
1109:user/drivers/DMP/driver/eMPL/inv_mpu_dmp_motion_driver.c **** 
 2667              		.loc 1 1109 5 is_stmt 1 view .LVU798
 2668 01c0 0020     		movs	r0, #0
ARM GAS  /var/folders/21/t9g5rlb91ys800n5npymflf80000gn/T//ccsHZoWN.s 			page 83


 2669 01c2 FFF7FEFF 		bl	dmp_enable_gyro_cal
 2670              	.LVL153:
 2671 01c6 6EE7     		b	.L157
 2672              	.L159:
1118:user/drivers/DMP/driver/eMPL/inv_mpu_dmp_motion_driver.c ****       tmp[1] = DINA80;
 2673              		.loc 1 1118 7 view .LVU799
1118:user/drivers/DMP/driver/eMPL/inv_mpu_dmp_motion_driver.c ****       tmp[1] = DINA80;
 2674              		.loc 1 1118 14 is_stmt 0 view .LVU800
 2675 01c8 B023     		movs	r3, #176
 2676 01ca 8DF80430 		strb	r3, [sp, #4]
1119:user/drivers/DMP/driver/eMPL/inv_mpu_dmp_motion_driver.c ****       tmp[2] = DINAC2;
 2677              		.loc 1 1119 7 is_stmt 1 view .LVU801
1119:user/drivers/DMP/driver/eMPL/inv_mpu_dmp_motion_driver.c ****       tmp[2] = DINAC2;
 2678              		.loc 1 1119 14 is_stmt 0 view .LVU802
 2679 01ce 8023     		movs	r3, #128
 2680 01d0 8DF80530 		strb	r3, [sp, #5]
1120:user/drivers/DMP/driver/eMPL/inv_mpu_dmp_motion_driver.c ****       tmp[3] = DINA90;
 2681              		.loc 1 1120 7 is_stmt 1 view .LVU803
1120:user/drivers/DMP/driver/eMPL/inv_mpu_dmp_motion_driver.c ****       tmp[3] = DINA90;
 2682              		.loc 1 1120 14 is_stmt 0 view .LVU804
 2683 01d4 B423     		movs	r3, #180
 2684 01d6 8DF80630 		strb	r3, [sp, #6]
1121:user/drivers/DMP/driver/eMPL/inv_mpu_dmp_motion_driver.c ****     }
 2685              		.loc 1 1121 7 is_stmt 1 view .LVU805
1121:user/drivers/DMP/driver/eMPL/inv_mpu_dmp_motion_driver.c ****     }
 2686              		.loc 1 1121 14 is_stmt 0 view .LVU806
 2687 01da 9023     		movs	r3, #144
 2688 01dc 8DF80730 		strb	r3, [sp, #7]
 2689 01e0 72E7     		b	.L160
 2690              	.L161:
1140:user/drivers/DMP/driver/eMPL/inv_mpu_dmp_motion_driver.c ****     mpu_write_mem(CFG_20, 1, tmp);
 2691              		.loc 1 1140 5 is_stmt 1 view .LVU807
1140:user/drivers/DMP/driver/eMPL/inv_mpu_dmp_motion_driver.c ****     mpu_write_mem(CFG_20, 1, tmp);
 2692              		.loc 1 1140 12 is_stmt 0 view .LVU808
 2693 01e2 D823     		movs	r3, #216
 2694 01e4 8DF80430 		strb	r3, [sp, #4]
1141:user/drivers/DMP/driver/eMPL/inv_mpu_dmp_motion_driver.c ****   }
 2695              		.loc 1 1141 5 is_stmt 1 view .LVU809
 2696 01e8 01AA     		add	r2, sp, #4
 2697 01ea 0121     		movs	r1, #1
 2698 01ec 4FF40B60 		mov	r0, #2224
 2699 01f0 FFF7FEFF 		bl	mpu_write_mem
 2700              	.LVL154:
 2701 01f4 96E7     		b	.L162
 2702              	.L163:
1147:user/drivers/DMP/driver/eMPL/inv_mpu_dmp_motion_driver.c ****   mpu_write_mem(CFG_ANDROID_ORIENT_INT, 1, tmp);
 2703              		.loc 1 1147 5 view .LVU810
1147:user/drivers/DMP/driver/eMPL/inv_mpu_dmp_motion_driver.c ****   mpu_write_mem(CFG_ANDROID_ORIENT_INT, 1, tmp);
 2704              		.loc 1 1147 12 is_stmt 0 view .LVU811
 2705 01f6 D823     		movs	r3, #216
 2706 01f8 8DF80430 		strb	r3, [sp, #4]
 2707 01fc 98E7     		b	.L164
 2708              	.L165:
1153:user/drivers/DMP/driver/eMPL/inv_mpu_dmp_motion_driver.c **** 
 2709              		.loc 1 1153 5 is_stmt 1 view .LVU812
 2710 01fe 0020     		movs	r0, #0
 2711 0200 FFF7FEFF 		bl	dmp_enable_lp_quat
ARM GAS  /var/folders/21/t9g5rlb91ys800n5npymflf80000gn/T//ccsHZoWN.s 			page 84


 2712              	.LVL155:
 2713 0204 A0E7     		b	.L166
 2714              	.L167:
1158:user/drivers/DMP/driver/eMPL/inv_mpu_dmp_motion_driver.c **** 
 2715              		.loc 1 1158 5 view .LVU813
 2716 0206 0020     		movs	r0, #0
 2717 0208 FFF7FEFF 		bl	dmp_enable_6x_lp_quat
 2718              	.LVL156:
 2719 020c A2E7     		b	.L168
 2720              	.L175:
 2721 020e 00BF     		.align	2
 2722              	.L174:
 2723 0210 09E3CA02 		.word	46850825
 2724 0214 00000000 		.word	dmp
 2725              		.cfi_endproc
 2726              	.LFE179:
 2728              		.section	.rodata.dmp_set_interrupt_mode.str1.4,"aMS",%progbits,1
 2729              		.align	2
 2730              	.LC7:
 2731 0000 D8B1B9F3 		.ascii	"\330\261\271\363\213\243\221\266\011\264\331\000"
 2731      8BA391B6 
 2731      09B4D900 
 2732              		.align	2
 2733              	.LC8:
 2734 000c DAB1B9F3 		.ascii	"\332\261\271\363\213\243\221\266\332\264\332\000"
 2734      8BA391B6 
 2734      DAB4DA00 
 2735              		.section	.text.dmp_set_interrupt_mode,"ax",%progbits
 2736              		.align	1
 2737              		.global	dmp_set_interrupt_mode
 2738              		.syntax unified
 2739              		.thumb
 2740              		.thumb_func
 2742              	dmp_set_interrupt_mode:
 2743              	.LVL157:
 2744              	.LFB185:
1278:user/drivers/DMP/driver/eMPL/inv_mpu_dmp_motion_driver.c **** 
1279:user/drivers/DMP/driver/eMPL/inv_mpu_dmp_motion_driver.c **** /**
1280:user/drivers/DMP/driver/eMPL/inv_mpu_dmp_motion_driver.c ****  *  @brief      Specify when a DMP interrupt should occur.
1281:user/drivers/DMP/driver/eMPL/inv_mpu_dmp_motion_driver.c ****  *  A DMP interrupt can be configured to trigger on either of the two
1282:user/drivers/DMP/driver/eMPL/inv_mpu_dmp_motion_driver.c ****  *  conditions below:
1283:user/drivers/DMP/driver/eMPL/inv_mpu_dmp_motion_driver.c ****  *  \n a. One FIFO period has elapsed (set by @e mpu_set_sample_rate).
1284:user/drivers/DMP/driver/eMPL/inv_mpu_dmp_motion_driver.c ****  *  \n b. A tap event has been detected.
1285:user/drivers/DMP/driver/eMPL/inv_mpu_dmp_motion_driver.c ****  *  @param[in]  mode    DMP_INT_GESTURE or DMP_INT_CONTINUOUS.
1286:user/drivers/DMP/driver/eMPL/inv_mpu_dmp_motion_driver.c ****  *  @return     0 if successful.
1287:user/drivers/DMP/driver/eMPL/inv_mpu_dmp_motion_driver.c ****  */
1288:user/drivers/DMP/driver/eMPL/inv_mpu_dmp_motion_driver.c **** int dmp_set_interrupt_mode(unsigned char mode) {
 2745              		.loc 1 1288 48 view -0
 2746              		.cfi_startproc
 2747              		@ args = 0, pretend = 0, frame = 24
 2748              		@ frame_needed = 0, uses_anonymous_args = 0
 2749              		.loc 1 1288 48 is_stmt 0 view .LVU815
 2750 0000 00B5     		push	{lr}
 2751              	.LCFI78:
 2752              		.cfi_def_cfa_offset 4
 2753              		.cfi_offset 14, -4
 2754 0002 87B0     		sub	sp, sp, #28
ARM GAS  /var/folders/21/t9g5rlb91ys800n5npymflf80000gn/T//ccsHZoWN.s 			page 85


 2755              	.LCFI79:
 2756              		.cfi_def_cfa_offset 32
 2757 0004 8446     		mov	ip, r0
1289:user/drivers/DMP/driver/eMPL/inv_mpu_dmp_motion_driver.c ****   const unsigned char regs_continuous[11] = {0xd8, 0xb1, 0xb9, 0xf3, 0x8b, 0xa3,
 2758              		.loc 1 1289 3 is_stmt 1 view .LVU816
 2759              		.loc 1 1289 23 is_stmt 0 view .LVU817
 2760 0006 144A     		ldr	r2, .L181
 2761 0008 03AB     		add	r3, sp, #12
 2762 000a 07CA     		ldm	r2, {r0, r1, r2}
 2763              	.LVL158:
 2764              		.loc 1 1289 23 view .LVU818
 2765 000c 03C3     		stmia	r3!, {r0, r1}
 2766 000e 23F8022B 		strh	r2, [r3], #2	@ movhi
 2767 0012 120C     		lsrs	r2, r2, #16
 2768 0014 1A70     		strb	r2, [r3]
1290:user/drivers/DMP/driver/eMPL/inv_mpu_dmp_motion_driver.c ****                                              0x91, 0xb6, 0x09, 0xb4, 0xd9};
1291:user/drivers/DMP/driver/eMPL/inv_mpu_dmp_motion_driver.c ****   const unsigned char regs_gesture[11] = {0xda, 0xb1, 0xb9, 0xf3, 0x8b, 0xa3,
 2769              		.loc 1 1291 3 is_stmt 1 view .LVU819
 2770              		.loc 1 1291 23 is_stmt 0 view .LVU820
 2771 0016 114A     		ldr	r2, .L181+4
 2772 0018 6B46     		mov	r3, sp
 2773 001a 07CA     		ldm	r2, {r0, r1, r2}
 2774 001c 03C3     		stmia	r3!, {r0, r1}
 2775 001e 23F8022B 		strh	r2, [r3], #2	@ movhi
 2776 0022 120C     		lsrs	r2, r2, #16
 2777 0024 1A70     		strb	r2, [r3]
1292:user/drivers/DMP/driver/eMPL/inv_mpu_dmp_motion_driver.c ****                                           0x91, 0xb6, 0xda, 0xb4, 0xda};
1293:user/drivers/DMP/driver/eMPL/inv_mpu_dmp_motion_driver.c **** 
1294:user/drivers/DMP/driver/eMPL/inv_mpu_dmp_motion_driver.c ****   switch (mode) {
 2778              		.loc 1 1294 3 is_stmt 1 view .LVU821
 2779 0026 BCF1010F 		cmp	ip, #1
 2780 002a 09D0     		beq	.L177
 2781 002c BCF1020F 		cmp	ip, #2
 2782 0030 0DD1     		bne	.L179
1295:user/drivers/DMP/driver/eMPL/inv_mpu_dmp_motion_driver.c ****   case DMP_INT_CONTINUOUS:
1296:user/drivers/DMP/driver/eMPL/inv_mpu_dmp_motion_driver.c ****     return mpu_write_mem(CFG_FIFO_ON_EVENT, 11,
 2783              		.loc 1 1296 5 view .LVU822
 2784              		.loc 1 1296 12 is_stmt 0 view .LVU823
 2785 0032 03AA     		add	r2, sp, #12
 2786 0034 0B21     		movs	r1, #11
 2787 0036 40F68220 		movw	r0, #2690
 2788 003a FFF7FEFF 		bl	mpu_write_mem
 2789              	.LVL159:
 2790 003e 08E0     		b	.L176
 2791              	.L177:
1297:user/drivers/DMP/driver/eMPL/inv_mpu_dmp_motion_driver.c ****                          (unsigned char *)regs_continuous);
1298:user/drivers/DMP/driver/eMPL/inv_mpu_dmp_motion_driver.c ****   case DMP_INT_GESTURE:
1299:user/drivers/DMP/driver/eMPL/inv_mpu_dmp_motion_driver.c ****     return mpu_write_mem(CFG_FIFO_ON_EVENT, 11, (unsigned char *)regs_gesture);
 2792              		.loc 1 1299 5 is_stmt 1 view .LVU824
 2793              		.loc 1 1299 12 is_stmt 0 view .LVU825
 2794 0040 6A46     		mov	r2, sp
 2795 0042 0B21     		movs	r1, #11
 2796 0044 40F68220 		movw	r0, #2690
 2797 0048 FFF7FEFF 		bl	mpu_write_mem
 2798              	.LVL160:
 2799 004c 01E0     		b	.L176
 2800              	.L179:
ARM GAS  /var/folders/21/t9g5rlb91ys800n5npymflf80000gn/T//ccsHZoWN.s 			page 86


1294:user/drivers/DMP/driver/eMPL/inv_mpu_dmp_motion_driver.c ****   case DMP_INT_CONTINUOUS:
 2801              		.loc 1 1294 3 view .LVU826
 2802 004e 4FF0FF30 		mov	r0, #-1
 2803              	.L176:
1300:user/drivers/DMP/driver/eMPL/inv_mpu_dmp_motion_driver.c ****   default:
1301:user/drivers/DMP/driver/eMPL/inv_mpu_dmp_motion_driver.c ****     return -1;
1302:user/drivers/DMP/driver/eMPL/inv_mpu_dmp_motion_driver.c ****   }
1303:user/drivers/DMP/driver/eMPL/inv_mpu_dmp_motion_driver.c **** }
 2804              		.loc 1 1303 1 view .LVU827
 2805 0052 07B0     		add	sp, sp, #28
 2806              	.LCFI80:
 2807              		.cfi_def_cfa_offset 4
 2808              		@ sp needed
 2809 0054 5DF804FB 		ldr	pc, [sp], #4
 2810              	.L182:
 2811              		.align	2
 2812              	.L181:
 2813 0058 00000000 		.word	.LC7
 2814 005c 0C000000 		.word	.LC8
 2815              		.cfi_endproc
 2816              	.LFE185:
 2818              		.section	.text.dmp_read_fifo,"ax",%progbits
 2819              		.align	1
 2820              		.global	dmp_read_fifo
 2821              		.syntax unified
 2822              		.thumb
 2823              		.thumb_func
 2825              	dmp_read_fifo:
 2826              	.LVL161:
 2827              	.LFB186:
1304:user/drivers/DMP/driver/eMPL/inv_mpu_dmp_motion_driver.c **** 
1305:user/drivers/DMP/driver/eMPL/inv_mpu_dmp_motion_driver.c **** /**
1306:user/drivers/DMP/driver/eMPL/inv_mpu_dmp_motion_driver.c ****  *  @brief      Get one packet from the FIFO.
1307:user/drivers/DMP/driver/eMPL/inv_mpu_dmp_motion_driver.c ****  *  If @e sensors does not contain a particular sensor, disregard the data
1308:user/drivers/DMP/driver/eMPL/inv_mpu_dmp_motion_driver.c ****  *  returned to that pointer.
1309:user/drivers/DMP/driver/eMPL/inv_mpu_dmp_motion_driver.c ****  *  \n @e sensors can contain a combination of the following flags:
1310:user/drivers/DMP/driver/eMPL/inv_mpu_dmp_motion_driver.c ****  *  \n INV_X_GYRO, INV_Y_GYRO, INV_Z_GYRO
1311:user/drivers/DMP/driver/eMPL/inv_mpu_dmp_motion_driver.c ****  *  \n INV_XYZ_GYRO
1312:user/drivers/DMP/driver/eMPL/inv_mpu_dmp_motion_driver.c ****  *  \n INV_XYZ_ACCEL
1313:user/drivers/DMP/driver/eMPL/inv_mpu_dmp_motion_driver.c ****  *  \n INV_WXYZ_QUAT
1314:user/drivers/DMP/driver/eMPL/inv_mpu_dmp_motion_driver.c ****  *  \n If the FIFO has no new data, @e sensors will be zero.
1315:user/drivers/DMP/driver/eMPL/inv_mpu_dmp_motion_driver.c ****  *  \n If the FIFO is disabled, @e sensors will be zero and this function will
1316:user/drivers/DMP/driver/eMPL/inv_mpu_dmp_motion_driver.c ****  *  return a non-zero error code.
1317:user/drivers/DMP/driver/eMPL/inv_mpu_dmp_motion_driver.c ****  *  @param[out] gyro        Gyro data in hardware units.
1318:user/drivers/DMP/driver/eMPL/inv_mpu_dmp_motion_driver.c ****  *  @param[out] accel       Accel data in hardware units.
1319:user/drivers/DMP/driver/eMPL/inv_mpu_dmp_motion_driver.c ****  *  @param[out] quat        3-axis quaternion data in hardware units.
1320:user/drivers/DMP/driver/eMPL/inv_mpu_dmp_motion_driver.c ****  *  @param[out] timestamp   Timestamp in milliseconds.
1321:user/drivers/DMP/driver/eMPL/inv_mpu_dmp_motion_driver.c ****  *  @param[out] sensors     Mask of sensors read from FIFO.
1322:user/drivers/DMP/driver/eMPL/inv_mpu_dmp_motion_driver.c ****  *  @param[out] more        Number of remaining packets.
1323:user/drivers/DMP/driver/eMPL/inv_mpu_dmp_motion_driver.c ****  *  @return     0 if successful.
1324:user/drivers/DMP/driver/eMPL/inv_mpu_dmp_motion_driver.c ****  */
1325:user/drivers/DMP/driver/eMPL/inv_mpu_dmp_motion_driver.c **** int dmp_read_fifo(short *gyro, short *accel, long *quat,
1326:user/drivers/DMP/driver/eMPL/inv_mpu_dmp_motion_driver.c ****                   unsigned long *timestamp, short *sensors,
1327:user/drivers/DMP/driver/eMPL/inv_mpu_dmp_motion_driver.c ****                   unsigned char *more) {
 2828              		.loc 1 1327 40 is_stmt 1 view -0
 2829              		.cfi_startproc
 2830              		@ args = 8, pretend = 0, frame = 48
ARM GAS  /var/folders/21/t9g5rlb91ys800n5npymflf80000gn/T//ccsHZoWN.s 			page 87


 2831              		@ frame_needed = 0, uses_anonymous_args = 0
 2832              		.loc 1 1327 40 is_stmt 0 view .LVU829
 2833 0000 2DE9F047 		push	{r4, r5, r6, r7, r8, r9, r10, lr}
 2834              	.LCFI81:
 2835              		.cfi_def_cfa_offset 32
 2836              		.cfi_offset 4, -32
 2837              		.cfi_offset 5, -28
 2838              		.cfi_offset 6, -24
 2839              		.cfi_offset 7, -20
 2840              		.cfi_offset 8, -16
 2841              		.cfi_offset 9, -12
 2842              		.cfi_offset 10, -8
 2843              		.cfi_offset 14, -4
 2844 0004 8CB0     		sub	sp, sp, #48
 2845              	.LCFI82:
 2846              		.cfi_def_cfa_offset 80
 2847 0006 0646     		mov	r6, r0
 2848 0008 0F46     		mov	r7, r1
 2849 000a 9246     		mov	r10, r2
 2850 000c 9846     		mov	r8, r3
 2851 000e 149D     		ldr	r5, [sp, #80]
1328:user/drivers/DMP/driver/eMPL/inv_mpu_dmp_motion_driver.c ****   unsigned char fifo_data[MAX_PACKET_LENGTH];
 2852              		.loc 1 1328 3 is_stmt 1 view .LVU830
1329:user/drivers/DMP/driver/eMPL/inv_mpu_dmp_motion_driver.c ****   unsigned char ii = 0;
 2853              		.loc 1 1329 3 view .LVU831
 2854              	.LVL162:
1330:user/drivers/DMP/driver/eMPL/inv_mpu_dmp_motion_driver.c **** 
1331:user/drivers/DMP/driver/eMPL/inv_mpu_dmp_motion_driver.c ****   /* TODO: sensors[0] only changes when dmp_enable_feature is called. We can
1332:user/drivers/DMP/driver/eMPL/inv_mpu_dmp_motion_driver.c ****    * cache this value and save some cycles.
1333:user/drivers/DMP/driver/eMPL/inv_mpu_dmp_motion_driver.c ****    */
1334:user/drivers/DMP/driver/eMPL/inv_mpu_dmp_motion_driver.c ****   sensors[0] = 0;
 2855              		.loc 1 1334 3 view .LVU832
 2856              		.loc 1 1334 14 is_stmt 0 view .LVU833
 2857 0010 0023     		movs	r3, #0
 2858              	.LVL163:
 2859              		.loc 1 1334 14 view .LVU834
 2860 0012 2B80     		strh	r3, [r5]	@ movhi
1335:user/drivers/DMP/driver/eMPL/inv_mpu_dmp_motion_driver.c **** 
1336:user/drivers/DMP/driver/eMPL/inv_mpu_dmp_motion_driver.c ****   /* Get a packet. */
1337:user/drivers/DMP/driver/eMPL/inv_mpu_dmp_motion_driver.c ****   if (mpu_read_fifo_stream(dmp.packet_length, fifo_data, more))
 2861              		.loc 1 1337 3 is_stmt 1 view .LVU835
 2862              		.loc 1 1337 7 is_stmt 0 view .LVU836
 2863 0014 159A     		ldr	r2, [sp, #84]
 2864              	.LVL164:
 2865              		.loc 1 1337 7 view .LVU837
 2866 0016 04A9     		add	r1, sp, #16
 2867              	.LVL165:
 2868              		.loc 1 1337 7 view .LVU838
 2869 0018 734B     		ldr	r3, .L195
 2870 001a 987B     		ldrb	r0, [r3, #14]	@ zero_extendqisi2
 2871              	.LVL166:
 2872              		.loc 1 1337 7 view .LVU839
 2873 001c FFF7FEFF 		bl	mpu_read_fifo_stream
 2874              	.LVL167:
 2875              		.loc 1 1337 6 view .LVU840
 2876 0020 0028     		cmp	r0, #0
 2877 0022 40F0DE80 		bne	.L190
ARM GAS  /var/folders/21/t9g5rlb91ys800n5npymflf80000gn/T//ccsHZoWN.s 			page 88


 2878 0026 8146     		mov	r9, r0
1338:user/drivers/DMP/driver/eMPL/inv_mpu_dmp_motion_driver.c ****     return -1;
1339:user/drivers/DMP/driver/eMPL/inv_mpu_dmp_motion_driver.c **** 
1340:user/drivers/DMP/driver/eMPL/inv_mpu_dmp_motion_driver.c ****   /* Parse DMP packet. */
1341:user/drivers/DMP/driver/eMPL/inv_mpu_dmp_motion_driver.c ****   if (dmp.feature_mask & (DMP_FEATURE_LP_QUAT | DMP_FEATURE_6X_LP_QUAT)) {
 2879              		.loc 1 1341 3 is_stmt 1 view .LVU841
 2880              		.loc 1 1341 10 is_stmt 0 view .LVU842
 2881 0028 6F4B     		ldr	r3, .L195
 2882 002a 5B89     		ldrh	r3, [r3, #10]
 2883              		.loc 1 1341 6 view .LVU843
 2884 002c 13F0140F 		tst	r3, #20
 2885 0030 65D0     		beq	.L191
 2886              	.LBB5:
1342:user/drivers/DMP/driver/eMPL/inv_mpu_dmp_motion_driver.c **** #ifdef FIFO_CORRUPTION_CHECK
1343:user/drivers/DMP/driver/eMPL/inv_mpu_dmp_motion_driver.c ****     long quat_q14[4], quat_mag_sq;
 2887              		.loc 1 1343 5 is_stmt 1 view .LVU844
1344:user/drivers/DMP/driver/eMPL/inv_mpu_dmp_motion_driver.c **** #endif
1345:user/drivers/DMP/driver/eMPL/inv_mpu_dmp_motion_driver.c ****     quat[0] = ((long)fifo_data[0] << 24) | ((long)fifo_data[1] << 16) |
 2888              		.loc 1 1345 5 view .LVU845
 2889              		.loc 1 1345 31 is_stmt 0 view .LVU846
 2890 0032 9DF81020 		ldrb	r2, [sp, #16]	@ zero_extendqisi2
 2891              		.loc 1 1345 60 view .LVU847
 2892 0036 9DF81100 		ldrb	r0, [sp, #17]	@ zero_extendqisi2
 2893              		.loc 1 1345 64 view .LVU848
 2894 003a 0004     		lsls	r0, r0, #16
 2895              		.loc 1 1345 42 view .LVU849
 2896 003c 40EA0260 		orr	r0, r0, r2, lsl #24
1346:user/drivers/DMP/driver/eMPL/inv_mpu_dmp_motion_driver.c ****               ((long)fifo_data[2] << 8) | fifo_data[3];
 2897              		.loc 1 1346 31 view .LVU850
 2898 0040 9DF81220 		ldrb	r2, [sp, #18]	@ zero_extendqisi2
1345:user/drivers/DMP/driver/eMPL/inv_mpu_dmp_motion_driver.c ****               ((long)fifo_data[2] << 8) | fifo_data[3];
 2899              		.loc 1 1345 71 view .LVU851
 2900 0044 40EA0220 		orr	r0, r0, r2, lsl #8
 2901              		.loc 1 1346 52 view .LVU852
 2902 0048 9DF81320 		ldrb	r2, [sp, #19]	@ zero_extendqisi2
 2903              		.loc 1 1346 41 view .LVU853
 2904 004c 1043     		orrs	r0, r0, r2
1345:user/drivers/DMP/driver/eMPL/inv_mpu_dmp_motion_driver.c ****               ((long)fifo_data[2] << 8) | fifo_data[3];
 2905              		.loc 1 1345 13 view .LVU854
 2906 004e CAF80000 		str	r0, [r10]
1347:user/drivers/DMP/driver/eMPL/inv_mpu_dmp_motion_driver.c ****     quat[1] = ((long)fifo_data[4] << 24) | ((long)fifo_data[5] << 16) |
 2907              		.loc 1 1347 5 is_stmt 1 view .LVU855
 2908              		.loc 1 1347 31 is_stmt 0 view .LVU856
 2909 0052 9DF81410 		ldrb	r1, [sp, #20]	@ zero_extendqisi2
 2910              		.loc 1 1347 60 view .LVU857
 2911 0056 9DF81520 		ldrb	r2, [sp, #21]	@ zero_extendqisi2
 2912              		.loc 1 1347 64 view .LVU858
 2913 005a 1204     		lsls	r2, r2, #16
 2914              		.loc 1 1347 42 view .LVU859
 2915 005c 42EA0162 		orr	r2, r2, r1, lsl #24
1348:user/drivers/DMP/driver/eMPL/inv_mpu_dmp_motion_driver.c ****               ((long)fifo_data[6] << 8) | fifo_data[7];
 2916              		.loc 1 1348 31 view .LVU860
 2917 0060 9DF81610 		ldrb	r1, [sp, #22]	@ zero_extendqisi2
1347:user/drivers/DMP/driver/eMPL/inv_mpu_dmp_motion_driver.c ****     quat[1] = ((long)fifo_data[4] << 24) | ((long)fifo_data[5] << 16) |
 2918              		.loc 1 1347 71 view .LVU861
 2919 0064 42EA0122 		orr	r2, r2, r1, lsl #8
 2920              		.loc 1 1348 52 view .LVU862
ARM GAS  /var/folders/21/t9g5rlb91ys800n5npymflf80000gn/T//ccsHZoWN.s 			page 89


 2921 0068 9DF81710 		ldrb	r1, [sp, #23]	@ zero_extendqisi2
 2922              		.loc 1 1348 41 view .LVU863
 2923 006c 0A43     		orrs	r2, r2, r1
1347:user/drivers/DMP/driver/eMPL/inv_mpu_dmp_motion_driver.c ****     quat[1] = ((long)fifo_data[4] << 24) | ((long)fifo_data[5] << 16) |
 2924              		.loc 1 1347 13 view .LVU864
 2925 006e CAF80420 		str	r2, [r10, #4]
1349:user/drivers/DMP/driver/eMPL/inv_mpu_dmp_motion_driver.c ****     quat[2] = ((long)fifo_data[8] << 24) | ((long)fifo_data[9] << 16) |
 2926              		.loc 1 1349 5 is_stmt 1 view .LVU865
 2927              		.loc 1 1349 31 is_stmt 0 view .LVU866
 2928 0072 9DF81840 		ldrb	r4, [sp, #24]	@ zero_extendqisi2
 2929              		.loc 1 1349 60 view .LVU867
 2930 0076 9DF81910 		ldrb	r1, [sp, #25]	@ zero_extendqisi2
 2931              		.loc 1 1349 64 view .LVU868
 2932 007a 0904     		lsls	r1, r1, #16
 2933              		.loc 1 1349 42 view .LVU869
 2934 007c 41EA0461 		orr	r1, r1, r4, lsl #24
1350:user/drivers/DMP/driver/eMPL/inv_mpu_dmp_motion_driver.c ****               ((long)fifo_data[10] << 8) | fifo_data[11];
 2935              		.loc 1 1350 31 view .LVU870
 2936 0080 9DF81A40 		ldrb	r4, [sp, #26]	@ zero_extendqisi2
1349:user/drivers/DMP/driver/eMPL/inv_mpu_dmp_motion_driver.c ****     quat[2] = ((long)fifo_data[8] << 24) | ((long)fifo_data[9] << 16) |
 2937              		.loc 1 1349 71 view .LVU871
 2938 0084 41EA0421 		orr	r1, r1, r4, lsl #8
 2939              		.loc 1 1350 53 view .LVU872
 2940 0088 9DF81B40 		ldrb	r4, [sp, #27]	@ zero_extendqisi2
 2941              		.loc 1 1350 42 view .LVU873
 2942 008c 2143     		orrs	r1, r1, r4
1349:user/drivers/DMP/driver/eMPL/inv_mpu_dmp_motion_driver.c ****     quat[2] = ((long)fifo_data[8] << 24) | ((long)fifo_data[9] << 16) |
 2943              		.loc 1 1349 13 view .LVU874
 2944 008e CAF80810 		str	r1, [r10, #8]
1351:user/drivers/DMP/driver/eMPL/inv_mpu_dmp_motion_driver.c ****     quat[3] = ((long)fifo_data[12] << 24) | ((long)fifo_data[13] << 16) |
 2945              		.loc 1 1351 5 is_stmt 1 view .LVU875
 2946              		.loc 1 1351 31 is_stmt 0 view .LVU876
 2947 0092 9DF81CC0 		ldrb	ip, [sp, #28]	@ zero_extendqisi2
 2948              		.loc 1 1351 61 view .LVU877
 2949 0096 9DF81D40 		ldrb	r4, [sp, #29]	@ zero_extendqisi2
 2950              		.loc 1 1351 66 view .LVU878
 2951 009a 2404     		lsls	r4, r4, #16
 2952              		.loc 1 1351 43 view .LVU879
 2953 009c 44EA0C64 		orr	r4, r4, ip, lsl #24
1352:user/drivers/DMP/driver/eMPL/inv_mpu_dmp_motion_driver.c ****               ((long)fifo_data[14] << 8) | fifo_data[15];
 2954              		.loc 1 1352 31 view .LVU880
 2955 00a0 9DF81EC0 		ldrb	ip, [sp, #30]	@ zero_extendqisi2
1351:user/drivers/DMP/driver/eMPL/inv_mpu_dmp_motion_driver.c ****     quat[3] = ((long)fifo_data[12] << 24) | ((long)fifo_data[13] << 16) |
 2956              		.loc 1 1351 73 view .LVU881
 2957 00a4 44EA0C24 		orr	r4, r4, ip, lsl #8
 2958              		.loc 1 1352 53 view .LVU882
 2959 00a8 9DF81FC0 		ldrb	ip, [sp, #31]	@ zero_extendqisi2
 2960              		.loc 1 1352 42 view .LVU883
 2961 00ac 44EA0C04 		orr	r4, r4, ip
1351:user/drivers/DMP/driver/eMPL/inv_mpu_dmp_motion_driver.c ****     quat[3] = ((long)fifo_data[12] << 24) | ((long)fifo_data[13] << 16) |
 2962              		.loc 1 1351 13 view .LVU884
 2963 00b0 CAF80C40 		str	r4, [r10, #12]
1353:user/drivers/DMP/driver/eMPL/inv_mpu_dmp_motion_driver.c ****     ii += 16;
 2964              		.loc 1 1353 5 is_stmt 1 view .LVU885
 2965              	.LVL168:
1354:user/drivers/DMP/driver/eMPL/inv_mpu_dmp_motion_driver.c **** #ifdef FIFO_CORRUPTION_CHECK
1355:user/drivers/DMP/driver/eMPL/inv_mpu_dmp_motion_driver.c ****     /* We can detect a corrupted FIFO by monitoring the quaternion data and
ARM GAS  /var/folders/21/t9g5rlb91ys800n5npymflf80000gn/T//ccsHZoWN.s 			page 90


1356:user/drivers/DMP/driver/eMPL/inv_mpu_dmp_motion_driver.c ****      * ensuring that the magnitude is always normalized to one. This
1357:user/drivers/DMP/driver/eMPL/inv_mpu_dmp_motion_driver.c ****      * shouldn't happen in normal operation, but if an I2C error occurs,
1358:user/drivers/DMP/driver/eMPL/inv_mpu_dmp_motion_driver.c ****      * the FIFO reads might become misaligned.
1359:user/drivers/DMP/driver/eMPL/inv_mpu_dmp_motion_driver.c ****      *
1360:user/drivers/DMP/driver/eMPL/inv_mpu_dmp_motion_driver.c ****      * Let's start by scaling down the quaternion data to avoid long long
1361:user/drivers/DMP/driver/eMPL/inv_mpu_dmp_motion_driver.c ****      * math.
1362:user/drivers/DMP/driver/eMPL/inv_mpu_dmp_motion_driver.c ****      */
1363:user/drivers/DMP/driver/eMPL/inv_mpu_dmp_motion_driver.c ****     quat_q14[0] = quat[0] >> 16;
 2966              		.loc 1 1363 5 view .LVU886
 2967              		.loc 1 1363 27 is_stmt 0 view .LVU887
 2968 00b4 0014     		asrs	r0, r0, #16
 2969              		.loc 1 1363 17 view .LVU888
 2970 00b6 0090     		str	r0, [sp]
1364:user/drivers/DMP/driver/eMPL/inv_mpu_dmp_motion_driver.c ****     quat_q14[1] = quat[1] >> 16;
 2971              		.loc 1 1364 5 is_stmt 1 view .LVU889
 2972              		.loc 1 1364 27 is_stmt 0 view .LVU890
 2973 00b8 4FEA224C 		asr	ip, r2, #16
 2974              		.loc 1 1364 17 view .LVU891
 2975 00bc CDF804C0 		str	ip, [sp, #4]
1365:user/drivers/DMP/driver/eMPL/inv_mpu_dmp_motion_driver.c ****     quat_q14[2] = quat[2] >> 16;
 2976              		.loc 1 1365 5 is_stmt 1 view .LVU892
 2977              		.loc 1 1365 27 is_stmt 0 view .LVU893
 2978 00c0 0914     		asrs	r1, r1, #16
 2979              		.loc 1 1365 17 view .LVU894
 2980 00c2 0291     		str	r1, [sp, #8]
1366:user/drivers/DMP/driver/eMPL/inv_mpu_dmp_motion_driver.c ****     quat_q14[3] = quat[3] >> 16;
 2981              		.loc 1 1366 5 is_stmt 1 view .LVU895
 2982              		.loc 1 1366 27 is_stmt 0 view .LVU896
 2983 00c4 2214     		asrs	r2, r4, #16
 2984              		.loc 1 1366 17 view .LVU897
 2985 00c6 0392     		str	r2, [sp, #12]
1367:user/drivers/DMP/driver/eMPL/inv_mpu_dmp_motion_driver.c ****     quat_mag_sq = quat_q14[0] * quat_q14[0] + quat_q14[1] * quat_q14[1] +
 2986              		.loc 1 1367 5 is_stmt 1 view .LVU898
 2987              		.loc 1 1367 59 is_stmt 0 view .LVU899
 2988 00c8 0CFB0CFC 		mul	ip, ip, ip
 2989              		.loc 1 1367 45 view .LVU900
 2990 00cc 00FB00C0 		mla	r0, r0, r0, ip
 2991              		.loc 1 1367 73 view .LVU901
 2992 00d0 01FB0101 		mla	r1, r1, r1, r0
 2993              		.loc 1 1367 17 view .LVU902
 2994 00d4 02FB0212 		mla	r2, r2, r2, r1
 2995              	.LVL169:
1368:user/drivers/DMP/driver/eMPL/inv_mpu_dmp_motion_driver.c ****                   quat_q14[2] * quat_q14[2] + quat_q14[3] * quat_q14[3];
1369:user/drivers/DMP/driver/eMPL/inv_mpu_dmp_motion_driver.c ****     if ((quat_mag_sq < QUAT_MAG_SQ_MIN) || (quat_mag_sq > QUAT_MAG_SQ_MAX)) {
 2996              		.loc 1 1369 5 is_stmt 1 view .LVU903
 2997              		.loc 1 1369 41 is_stmt 0 view .LVU904
 2998 00d8 02F17142 		add	r2, r2, #-251658240
 2999              	.LVL170:
 3000              		.loc 1 1369 8 view .LVU905
 3001 00dc B2F1007F 		cmp	r2, #33554432
 3002 00e0 06D8     		bhi	.L193
1370:user/drivers/DMP/driver/eMPL/inv_mpu_dmp_motion_driver.c ****       /* Quaternion is outside of the acceptable threshold. */
1371:user/drivers/DMP/driver/eMPL/inv_mpu_dmp_motion_driver.c ****       mpu_reset_fifo();
1372:user/drivers/DMP/driver/eMPL/inv_mpu_dmp_motion_driver.c ****       sensors[0] = 0;
1373:user/drivers/DMP/driver/eMPL/inv_mpu_dmp_motion_driver.c ****       return -1;
1374:user/drivers/DMP/driver/eMPL/inv_mpu_dmp_motion_driver.c ****     }
1375:user/drivers/DMP/driver/eMPL/inv_mpu_dmp_motion_driver.c ****     sensors[0] |= INV_WXYZ_QUAT;
ARM GAS  /var/folders/21/t9g5rlb91ys800n5npymflf80000gn/T//ccsHZoWN.s 			page 91


 3003              		.loc 1 1375 5 is_stmt 1 view .LVU906
 3004              		.loc 1 1375 12 is_stmt 0 view .LVU907
 3005 00e2 B5F90020 		ldrsh	r2, [r5]
 3006              	.LVL171:
 3007              		.loc 1 1375 16 view .LVU908
 3008 00e6 42F48072 		orr	r2, r2, #256
 3009 00ea 2A80     		strh	r2, [r5]	@ movhi
1353:user/drivers/DMP/driver/eMPL/inv_mpu_dmp_motion_driver.c **** #ifdef FIFO_CORRUPTION_CHECK
 3010              		.loc 1 1353 8 view .LVU909
 3011 00ec 1022     		movs	r2, #16
 3012 00ee 07E0     		b	.L185
 3013              	.L193:
1371:user/drivers/DMP/driver/eMPL/inv_mpu_dmp_motion_driver.c ****       sensors[0] = 0;
 3014              		.loc 1 1371 7 is_stmt 1 view .LVU910
 3015 00f0 FFF7FEFF 		bl	mpu_reset_fifo
 3016              	.LVL172:
1372:user/drivers/DMP/driver/eMPL/inv_mpu_dmp_motion_driver.c ****       return -1;
 3017              		.loc 1 1372 7 view .LVU911
1372:user/drivers/DMP/driver/eMPL/inv_mpu_dmp_motion_driver.c ****       return -1;
 3018              		.loc 1 1372 18 is_stmt 0 view .LVU912
 3019 00f4 0023     		movs	r3, #0
 3020 00f6 2B80     		strh	r3, [r5]	@ movhi
1373:user/drivers/DMP/driver/eMPL/inv_mpu_dmp_motion_driver.c ****     }
 3021              		.loc 1 1373 7 is_stmt 1 view .LVU913
1373:user/drivers/DMP/driver/eMPL/inv_mpu_dmp_motion_driver.c ****     }
 3022              		.loc 1 1373 14 is_stmt 0 view .LVU914
 3023 00f8 4FF0FF39 		mov	r9, #-1
 3024 00fc 68E0     		b	.L183
 3025              	.LVL173:
 3026              	.L191:
1373:user/drivers/DMP/driver/eMPL/inv_mpu_dmp_motion_driver.c ****     }
 3027              		.loc 1 1373 14 view .LVU915
 3028              	.LBE5:
1329:user/drivers/DMP/driver/eMPL/inv_mpu_dmp_motion_driver.c **** 
 3029              		.loc 1 1329 17 view .LVU916
 3030 00fe 0022     		movs	r2, #0
 3031              	.LVL174:
 3032              	.L185:
1376:user/drivers/DMP/driver/eMPL/inv_mpu_dmp_motion_driver.c **** #endif
1377:user/drivers/DMP/driver/eMPL/inv_mpu_dmp_motion_driver.c ****   }
1378:user/drivers/DMP/driver/eMPL/inv_mpu_dmp_motion_driver.c **** 
1379:user/drivers/DMP/driver/eMPL/inv_mpu_dmp_motion_driver.c ****   if (dmp.feature_mask & DMP_FEATURE_SEND_RAW_ACCEL) {
 3033              		.loc 1 1379 3 is_stmt 1 view .LVU917
 3034              		.loc 1 1379 6 is_stmt 0 view .LVU918
 3035 0100 13F0400F 		tst	r3, #64
 3036 0104 2DD0     		beq	.L187
1380:user/drivers/DMP/driver/eMPL/inv_mpu_dmp_motion_driver.c ****     accel[0] = ((short)fifo_data[ii + 0] << 8) | fifo_data[ii + 1];
 3037              		.loc 1 1380 5 is_stmt 1 view .LVU919
 3038              		.loc 1 1380 33 is_stmt 0 view .LVU920
 3039 0106 02F13001 		add	r1, r2, #48
 3040 010a 6944     		add	r1, sp, r1
 3041 010c 11F8200C 		ldrb	r0, [r1, #-32]	@ zero_extendqisi2
 3042              		.loc 1 1380 59 view .LVU921
 3043 0110 02F13101 		add	r1, r2, #49
 3044 0114 6944     		add	r1, sp, r1
 3045 0116 11F8201C 		ldrb	r1, [r1, #-32]	@ zero_extendqisi2
 3046              		.loc 1 1380 48 view .LVU922
ARM GAS  /var/folders/21/t9g5rlb91ys800n5npymflf80000gn/T//ccsHZoWN.s 			page 92


 3047 011a 41EA0021 		orr	r1, r1, r0, lsl #8
 3048              		.loc 1 1380 14 view .LVU923
 3049 011e 3980     		strh	r1, [r7]	@ movhi
1381:user/drivers/DMP/driver/eMPL/inv_mpu_dmp_motion_driver.c ****     accel[1] = ((short)fifo_data[ii + 2] << 8) | fifo_data[ii + 3];
 3050              		.loc 1 1381 5 is_stmt 1 view .LVU924
 3051              		.loc 1 1381 33 is_stmt 0 view .LVU925
 3052 0120 02F13201 		add	r1, r2, #50
 3053 0124 6944     		add	r1, sp, r1
 3054 0126 11F8200C 		ldrb	r0, [r1, #-32]	@ zero_extendqisi2
 3055              		.loc 1 1381 59 view .LVU926
 3056 012a 02F13301 		add	r1, r2, #51
 3057 012e 6944     		add	r1, sp, r1
 3058 0130 11F8201C 		ldrb	r1, [r1, #-32]	@ zero_extendqisi2
 3059              		.loc 1 1381 48 view .LVU927
 3060 0134 41EA0021 		orr	r1, r1, r0, lsl #8
 3061              		.loc 1 1381 14 view .LVU928
 3062 0138 7980     		strh	r1, [r7, #2]	@ movhi
1382:user/drivers/DMP/driver/eMPL/inv_mpu_dmp_motion_driver.c ****     accel[2] = ((short)fifo_data[ii + 4] << 8) | fifo_data[ii + 5];
 3063              		.loc 1 1382 5 is_stmt 1 view .LVU929
 3064              		.loc 1 1382 33 is_stmt 0 view .LVU930
 3065 013a 02F13401 		add	r1, r2, #52
 3066 013e 6944     		add	r1, sp, r1
 3067 0140 11F8200C 		ldrb	r0, [r1, #-32]	@ zero_extendqisi2
 3068              		.loc 1 1382 59 view .LVU931
 3069 0144 02F13501 		add	r1, r2, #53
 3070 0148 6944     		add	r1, sp, r1
 3071 014a 11F8201C 		ldrb	r1, [r1, #-32]	@ zero_extendqisi2
 3072              		.loc 1 1382 48 view .LVU932
 3073 014e 41EA0021 		orr	r1, r1, r0, lsl #8
 3074              		.loc 1 1382 14 view .LVU933
 3075 0152 B980     		strh	r1, [r7, #4]	@ movhi
1383:user/drivers/DMP/driver/eMPL/inv_mpu_dmp_motion_driver.c ****     ii += 6;
 3076              		.loc 1 1383 5 is_stmt 1 view .LVU934
 3077              		.loc 1 1383 8 is_stmt 0 view .LVU935
 3078 0154 0632     		adds	r2, r2, #6
 3079              	.LVL175:
 3080              		.loc 1 1383 8 view .LVU936
 3081 0156 D2B2     		uxtb	r2, r2
 3082              	.LVL176:
1384:user/drivers/DMP/driver/eMPL/inv_mpu_dmp_motion_driver.c ****     sensors[0] |= INV_XYZ_ACCEL;
 3083              		.loc 1 1384 5 is_stmt 1 view .LVU937
 3084              		.loc 1 1384 12 is_stmt 0 view .LVU938
 3085 0158 B5F90010 		ldrsh	r1, [r5]
 3086              		.loc 1 1384 16 view .LVU939
 3087 015c 41F00801 		orr	r1, r1, #8
 3088 0160 2980     		strh	r1, [r5]	@ movhi
 3089              	.L187:
1385:user/drivers/DMP/driver/eMPL/inv_mpu_dmp_motion_driver.c ****   }
1386:user/drivers/DMP/driver/eMPL/inv_mpu_dmp_motion_driver.c **** 
1387:user/drivers/DMP/driver/eMPL/inv_mpu_dmp_motion_driver.c ****   if (dmp.feature_mask & DMP_FEATURE_SEND_ANY_GYRO) {
 3090              		.loc 1 1387 3 is_stmt 1 view .LVU940
 3091              		.loc 1 1387 6 is_stmt 0 view .LVU941
 3092 0162 13F4C07F 		tst	r3, #384
 3093 0166 2DD0     		beq	.L188
1388:user/drivers/DMP/driver/eMPL/inv_mpu_dmp_motion_driver.c ****     gyro[0] = ((short)fifo_data[ii + 0] << 8) | fifo_data[ii + 1];
 3094              		.loc 1 1388 5 is_stmt 1 view .LVU942
 3095              		.loc 1 1388 32 is_stmt 0 view .LVU943
ARM GAS  /var/folders/21/t9g5rlb91ys800n5npymflf80000gn/T//ccsHZoWN.s 			page 93


 3096 0168 02F13001 		add	r1, r2, #48
 3097 016c 6944     		add	r1, sp, r1
 3098 016e 11F8200C 		ldrb	r0, [r1, #-32]	@ zero_extendqisi2
 3099              		.loc 1 1388 58 view .LVU944
 3100 0172 02F13101 		add	r1, r2, #49
 3101 0176 6944     		add	r1, sp, r1
 3102 0178 11F8201C 		ldrb	r1, [r1, #-32]	@ zero_extendqisi2
 3103              		.loc 1 1388 47 view .LVU945
 3104 017c 41EA0021 		orr	r1, r1, r0, lsl #8
 3105              		.loc 1 1388 13 view .LVU946
 3106 0180 3180     		strh	r1, [r6]	@ movhi
1389:user/drivers/DMP/driver/eMPL/inv_mpu_dmp_motion_driver.c ****     gyro[1] = ((short)fifo_data[ii + 2] << 8) | fifo_data[ii + 3];
 3107              		.loc 1 1389 5 is_stmt 1 view .LVU947
 3108              		.loc 1 1389 32 is_stmt 0 view .LVU948
 3109 0182 02F13201 		add	r1, r2, #50
 3110 0186 6944     		add	r1, sp, r1
 3111 0188 11F8200C 		ldrb	r0, [r1, #-32]	@ zero_extendqisi2
 3112              		.loc 1 1389 58 view .LVU949
 3113 018c 02F13301 		add	r1, r2, #51
 3114 0190 6944     		add	r1, sp, r1
 3115 0192 11F8201C 		ldrb	r1, [r1, #-32]	@ zero_extendqisi2
 3116              		.loc 1 1389 47 view .LVU950
 3117 0196 41EA0021 		orr	r1, r1, r0, lsl #8
 3118              		.loc 1 1389 13 view .LVU951
 3119 019a 7180     		strh	r1, [r6, #2]	@ movhi
1390:user/drivers/DMP/driver/eMPL/inv_mpu_dmp_motion_driver.c ****     gyro[2] = ((short)fifo_data[ii + 4] << 8) | fifo_data[ii + 5];
 3120              		.loc 1 1390 5 is_stmt 1 view .LVU952
 3121              		.loc 1 1390 32 is_stmt 0 view .LVU953
 3122 019c 02F13401 		add	r1, r2, #52
 3123 01a0 6944     		add	r1, sp, r1
 3124 01a2 11F8200C 		ldrb	r0, [r1, #-32]	@ zero_extendqisi2
 3125              		.loc 1 1390 58 view .LVU954
 3126 01a6 02F13501 		add	r1, r2, #53
 3127 01aa 6944     		add	r1, sp, r1
 3128 01ac 11F8201C 		ldrb	r1, [r1, #-32]	@ zero_extendqisi2
 3129              		.loc 1 1390 47 view .LVU955
 3130 01b0 41EA0021 		orr	r1, r1, r0, lsl #8
 3131              		.loc 1 1390 13 view .LVU956
 3132 01b4 B180     		strh	r1, [r6, #4]	@ movhi
1391:user/drivers/DMP/driver/eMPL/inv_mpu_dmp_motion_driver.c ****     ii += 6;
 3133              		.loc 1 1391 5 is_stmt 1 view .LVU957
 3134              		.loc 1 1391 8 is_stmt 0 view .LVU958
 3135 01b6 0632     		adds	r2, r2, #6
 3136              	.LVL177:
 3137              		.loc 1 1391 8 view .LVU959
 3138 01b8 D2B2     		uxtb	r2, r2
 3139              	.LVL178:
1392:user/drivers/DMP/driver/eMPL/inv_mpu_dmp_motion_driver.c ****     sensors[0] |= INV_XYZ_GYRO;
 3140              		.loc 1 1392 5 is_stmt 1 view .LVU960
 3141              		.loc 1 1392 12 is_stmt 0 view .LVU961
 3142 01ba B5F90010 		ldrsh	r1, [r5]
 3143              		.loc 1 1392 16 view .LVU962
 3144 01be 41F07001 		orr	r1, r1, #112
 3145 01c2 2980     		strh	r1, [r5]	@ movhi
 3146              	.L188:
1393:user/drivers/DMP/driver/eMPL/inv_mpu_dmp_motion_driver.c ****   }
1394:user/drivers/DMP/driver/eMPL/inv_mpu_dmp_motion_driver.c **** 
ARM GAS  /var/folders/21/t9g5rlb91ys800n5npymflf80000gn/T//ccsHZoWN.s 			page 94


1395:user/drivers/DMP/driver/eMPL/inv_mpu_dmp_motion_driver.c ****   /* Gesture data is at the end of the DMP packet. Parse it and call
1396:user/drivers/DMP/driver/eMPL/inv_mpu_dmp_motion_driver.c ****    * the gesture callbacks (if registered).
1397:user/drivers/DMP/driver/eMPL/inv_mpu_dmp_motion_driver.c ****    */
1398:user/drivers/DMP/driver/eMPL/inv_mpu_dmp_motion_driver.c ****   if (dmp.feature_mask & (DMP_FEATURE_TAP | DMP_FEATURE_ANDROID_ORIENT))
 3147              		.loc 1 1398 3 is_stmt 1 view .LVU963
 3148              		.loc 1 1398 6 is_stmt 0 view .LVU964
 3149 01c4 13F0030F 		tst	r3, #3
 3150 01c8 06D1     		bne	.L194
 3151              	.LVL179:
 3152              	.L189:
1399:user/drivers/DMP/driver/eMPL/inv_mpu_dmp_motion_driver.c ****     decode_gesture(fifo_data + ii);
1400:user/drivers/DMP/driver/eMPL/inv_mpu_dmp_motion_driver.c **** 
1401:user/drivers/DMP/driver/eMPL/inv_mpu_dmp_motion_driver.c ****   get_ms(timestamp);
 3153              		.loc 1 1401 3 is_stmt 1 view .LVU965
 3154 01ca 4046     		mov	r0, r8
 3155 01cc FFF7FEFF 		bl	mget_ms
 3156              	.LVL180:
1402:user/drivers/DMP/driver/eMPL/inv_mpu_dmp_motion_driver.c ****   return 0;
 3157              		.loc 1 1402 3 view .LVU966
 3158              	.L183:
1403:user/drivers/DMP/driver/eMPL/inv_mpu_dmp_motion_driver.c **** }
 3159              		.loc 1 1403 1 is_stmt 0 view .LVU967
 3160 01d0 4846     		mov	r0, r9
 3161 01d2 0CB0     		add	sp, sp, #48
 3162              	.LCFI83:
 3163              		.cfi_remember_state
 3164              		.cfi_def_cfa_offset 32
 3165              		@ sp needed
 3166 01d4 BDE8F087 		pop	{r4, r5, r6, r7, r8, r9, r10, pc}
 3167              	.LVL181:
 3168              	.L194:
 3169              	.LCFI84:
 3170              		.cfi_restore_state
1399:user/drivers/DMP/driver/eMPL/inv_mpu_dmp_motion_driver.c ****     decode_gesture(fifo_data + ii);
 3171              		.loc 1 1399 5 is_stmt 1 view .LVU968
 3172 01d8 04AB     		add	r3, sp, #16
 3173 01da 9818     		adds	r0, r3, r2
 3174 01dc FFF7FEFF 		bl	decode_gesture
 3175              	.LVL182:
1399:user/drivers/DMP/driver/eMPL/inv_mpu_dmp_motion_driver.c ****     decode_gesture(fifo_data + ii);
 3176              		.loc 1 1399 5 is_stmt 0 view .LVU969
 3177 01e0 F3E7     		b	.L189
 3178              	.LVL183:
 3179              	.L190:
1338:user/drivers/DMP/driver/eMPL/inv_mpu_dmp_motion_driver.c **** 
 3180              		.loc 1 1338 12 view .LVU970
 3181 01e2 4FF0FF39 		mov	r9, #-1
 3182 01e6 F3E7     		b	.L183
 3183              	.L196:
 3184              		.align	2
 3185              	.L195:
 3186 01e8 00000000 		.word	dmp
 3187              		.cfi_endproc
 3188              	.LFE186:
 3190              		.section	.text.dmp_register_tap_cb,"ax",%progbits
 3191              		.align	1
 3192              		.global	dmp_register_tap_cb
ARM GAS  /var/folders/21/t9g5rlb91ys800n5npymflf80000gn/T//ccsHZoWN.s 			page 95


 3193              		.syntax unified
 3194              		.thumb
 3195              		.thumb_func
 3197              	dmp_register_tap_cb:
 3198              	.LVL184:
 3199              	.LFB187:
1404:user/drivers/DMP/driver/eMPL/inv_mpu_dmp_motion_driver.c **** 
1405:user/drivers/DMP/driver/eMPL/inv_mpu_dmp_motion_driver.c **** /**
1406:user/drivers/DMP/driver/eMPL/inv_mpu_dmp_motion_driver.c ****  *  @brief      Register a function to be executed on a tap event.
1407:user/drivers/DMP/driver/eMPL/inv_mpu_dmp_motion_driver.c ****  *  The tap direction is represented by one of the following:
1408:user/drivers/DMP/driver/eMPL/inv_mpu_dmp_motion_driver.c ****  *  \n TAP_X_UP
1409:user/drivers/DMP/driver/eMPL/inv_mpu_dmp_motion_driver.c ****  *  \n TAP_X_DOWN
1410:user/drivers/DMP/driver/eMPL/inv_mpu_dmp_motion_driver.c ****  *  \n TAP_Y_UP
1411:user/drivers/DMP/driver/eMPL/inv_mpu_dmp_motion_driver.c ****  *  \n TAP_Y_DOWN
1412:user/drivers/DMP/driver/eMPL/inv_mpu_dmp_motion_driver.c ****  *  \n TAP_Z_UP
1413:user/drivers/DMP/driver/eMPL/inv_mpu_dmp_motion_driver.c ****  *  \n TAP_Z_DOWN
1414:user/drivers/DMP/driver/eMPL/inv_mpu_dmp_motion_driver.c ****  *  @param[in]  func    Callback function.
1415:user/drivers/DMP/driver/eMPL/inv_mpu_dmp_motion_driver.c ****  *  @return     0 if successful.
1416:user/drivers/DMP/driver/eMPL/inv_mpu_dmp_motion_driver.c ****  */
1417:user/drivers/DMP/driver/eMPL/inv_mpu_dmp_motion_driver.c **** int dmp_register_tap_cb(void (*func)(unsigned char, unsigned char)) {
 3200              		.loc 1 1417 69 is_stmt 1 view -0
 3201              		.cfi_startproc
 3202              		@ args = 0, pretend = 0, frame = 0
 3203              		@ frame_needed = 0, uses_anonymous_args = 0
 3204              		@ link register save eliminated.
1418:user/drivers/DMP/driver/eMPL/inv_mpu_dmp_motion_driver.c ****   dmp.tap_cb = func;
 3205              		.loc 1 1418 3 view .LVU972
 3206              		.loc 1 1418 14 is_stmt 0 view .LVU973
 3207 0000 014B     		ldr	r3, .L198
 3208 0002 1860     		str	r0, [r3]
1419:user/drivers/DMP/driver/eMPL/inv_mpu_dmp_motion_driver.c ****   return 0;
 3209              		.loc 1 1419 3 is_stmt 1 view .LVU974
1420:user/drivers/DMP/driver/eMPL/inv_mpu_dmp_motion_driver.c **** }
 3210              		.loc 1 1420 1 is_stmt 0 view .LVU975
 3211 0004 0020     		movs	r0, #0
 3212              	.LVL185:
 3213              		.loc 1 1420 1 view .LVU976
 3214 0006 7047     		bx	lr
 3215              	.L199:
 3216              		.align	2
 3217              	.L198:
 3218 0008 00000000 		.word	dmp
 3219              		.cfi_endproc
 3220              	.LFE187:
 3222              		.section	.text.dmp_register_android_orient_cb,"ax",%progbits
 3223              		.align	1
 3224              		.global	dmp_register_android_orient_cb
 3225              		.syntax unified
 3226              		.thumb
 3227              		.thumb_func
 3229              	dmp_register_android_orient_cb:
 3230              	.LVL186:
 3231              	.LFB188:
1421:user/drivers/DMP/driver/eMPL/inv_mpu_dmp_motion_driver.c **** 
1422:user/drivers/DMP/driver/eMPL/inv_mpu_dmp_motion_driver.c **** /**
1423:user/drivers/DMP/driver/eMPL/inv_mpu_dmp_motion_driver.c ****  *  @brief      Register a function to be executed on a android orientation
1424:user/drivers/DMP/driver/eMPL/inv_mpu_dmp_motion_driver.c ****  * event.
ARM GAS  /var/folders/21/t9g5rlb91ys800n5npymflf80000gn/T//ccsHZoWN.s 			page 96


1425:user/drivers/DMP/driver/eMPL/inv_mpu_dmp_motion_driver.c ****  *  @param[in]  func    Callback function.
1426:user/drivers/DMP/driver/eMPL/inv_mpu_dmp_motion_driver.c ****  *  @return     0 if successful.
1427:user/drivers/DMP/driver/eMPL/inv_mpu_dmp_motion_driver.c ****  */
1428:user/drivers/DMP/driver/eMPL/inv_mpu_dmp_motion_driver.c **** int dmp_register_android_orient_cb(void (*func)(unsigned char)) {
 3232              		.loc 1 1428 65 is_stmt 1 view -0
 3233              		.cfi_startproc
 3234              		@ args = 0, pretend = 0, frame = 0
 3235              		@ frame_needed = 0, uses_anonymous_args = 0
 3236              		@ link register save eliminated.
1429:user/drivers/DMP/driver/eMPL/inv_mpu_dmp_motion_driver.c ****   dmp.android_orient_cb = func;
 3237              		.loc 1 1429 3 view .LVU978
 3238              		.loc 1 1429 25 is_stmt 0 view .LVU979
 3239 0000 014B     		ldr	r3, .L201
 3240 0002 5860     		str	r0, [r3, #4]
1430:user/drivers/DMP/driver/eMPL/inv_mpu_dmp_motion_driver.c ****   return 0;
 3241              		.loc 1 1430 3 is_stmt 1 view .LVU980
1431:user/drivers/DMP/driver/eMPL/inv_mpu_dmp_motion_driver.c **** }
 3242              		.loc 1 1431 1 is_stmt 0 view .LVU981
 3243 0004 0020     		movs	r0, #0
 3244              	.LVL187:
 3245              		.loc 1 1431 1 view .LVU982
 3246 0006 7047     		bx	lr
 3247              	.L202:
 3248              		.align	2
 3249              	.L201:
 3250 0008 00000000 		.word	dmp
 3251              		.cfi_endproc
 3252              	.LFE188:
 3254              		.section	.bss.dmp,"aw",%nobits
 3255              		.align	2
 3258              	dmp:
 3259 0000 00000000 		.space	16
 3259      00000000 
 3259      00000000 
 3259      00000000 
 3260              		.section	.rodata.dmp_memory,"a"
 3261              		.align	2
 3264              	dmp_memory:
 3265 0000 00007000 		.ascii	"\000\000p\000\000\000\000$\000\000\000\002\000\003\000"
 3265      00000024 
 3265      00000002 
 3265      000300
 3266 000f 00006500 		.ascii	"\000\000e\000T\377\357\000\000\372\200\000\013\022\202"
 3266      54FFEF00 
 3266      00FA8000 
 3266      0B1282
 3267 001e 0001030C 		.ascii	"\000\001\003\0140\303\016\214\214\351\024\325@\002\023"
 3267      30C30E8C 
 3267      8CE914D5 
 3267      400213
 3268 002d 710F8E38 		.ascii	"q\017\2168\203\370\2030\000\370\203%\216\370\2030\000"
 3268      83F88330 
 3268      00F88325 
 3268      8EF88330 
 3268      00
 3269 003e F883FFFF 		.ascii	"\370\203\377\377\377\377\017\376\251\326$\000\004\000"
 3269      FFFF0FFE 
ARM GAS  /var/folders/21/t9g5rlb91ys800n5npymflf80000gn/T//ccsHZoWN.s 			page 97


 3269      A9D62400 
 3269      0400
 3270 004c 1A8279A1 		.ascii	"\032\202y\241\000\000\000<\377\377\000\000\000\020\000"
 3270      0000003C 
 3270      FFFF0000 
 3270      001000
 3271 005b 0038836F 		.ascii	"\0008\203o\242\000>\0030@\000\000\000\002\312\343\011"
 3271      A2003E03 
 3271      30400000 
 3271      0002CAE3 
 3271      09
 3272 006c 3E800000 		.ascii	">\200\000\000 \000\000\000\000\000\000\000@\000\000"
 3272      20000000 
 3272      00000000 
 3272      400000
 3273 007b 00600000 		.ascii	"\000`\000\000\000\000\014\000\000\000\014\030n\000\000"
 3273      00000C00 
 3273      00000C18 
 3273      6E0000
 3274 008a 06920A16 		.ascii	"\006\222\012\026\300\337\377\377\002V\375\214\323w\377"
 3274      C0DFFFFF 
 3274      0256FD8C 
 3274      D377FF
 3275 0099 E1C496E0 		.ascii	"\341\304\226\340\305\276\252\000\000\000\000\377\377"
 3275      C5BEAA00 
 3275      000000FF 
 3275      FF
 3276 00a6 0B2B0000 		.ascii	"\013+\000\000\026W\000\000\003Y@\000\000\000\000\000"
 3276      16570000 
 3276      03594000 
 3276      00000000 
 3277 00b6 1DFA0002 		.ascii	"\035\372\000\002l\035\000\000\000\000?\377\337\353\000"
 3277      6C1D0000 
 3277      00003FFF 
 3277      DFEB00
 3278 00c5 3EB3B600 		.ascii	">\263\266\000\015\"x\000\000/<\000\000\000\000\000\031"
 3278      0D227800 
 3278      002F3C00 
 3278      00000000 
 3278      19
 3279 00d6 42B50000 		.ascii	"B\265\000\0009\242\000\000\263e\331\016\237\311\035"
 3279      39A20000 
 3279      B365D90E 
 3279      9FC91D
 3280 00e5 CF4C3430 		.ascii	"\317L40\000\000\000P\000\000\000;\266z\350\000d\000"
 3280      00000050 
 3280      0000003B 
 3280      B67AE800 
 3280      6400
 3281 00f7 0000C800 		.ascii	"\000\000\310\000\000\000\000\000\000\020\000\000\000"
 3281      00000000 
 3281      00100000 
 3281      00
 3282 0104 1000FA92 		.ascii	"\020\000\372\222\020\000\"^\000\015\"\237\000\001\000"
 3282      1000225E 
 3282      000D229F 
 3282      000100
ARM GAS  /var/folders/21/t9g5rlb91ys800n5npymflf80000gn/T//ccsHZoWN.s 			page 98


 3283 0113 00003200 		.ascii	"\000\0002\000\000\377F\000\000c\324\000\000\020\000"
 3283      00FF4600 
 3283      0063D400 
 3283      001000
 3284 0122 000004D6 		.ascii	"\000\000\004\326\000\000\004\314\000\000\004\314\000"
 3284      000004CC 
 3284      000004CC 
 3284      00
 3285 012f 00000010 		.ascii	"\000\000\000\020r\000\000\000@\000\000\000\000\000\000"
 3285      72000000 
 3285      40000000 
 3285      000000
 3286 013e 00000006 		.ascii	"\000\000\000\006\000\002\000\005\000\007\000\000\000"
 3286      00020005 
 3286      00070000 
 3286      00
 3287 014b 00006400 		.ascii	"\000\000d\000\000\000\000\000\000\000\000\000\005\000"
 3287      00000000 
 3287      00000000 
 3287      0500
 3288 0159 05006400 		.ascii	"\005\000d\000 \000\000\000\000\000\000\000\000\000\000"
 3288      20000000 
 3288      00000000 
 3288      000000
 3289 0168 00004000 		.ascii	"\000\000@\000\000\000\003\000\000\000\0002\370\230\000"
 3289      00000300 
 3289      00000032 
 3289      F89800
 3290 0177 00FF6500 		.ascii	"\000\377e\000\000\203\017\000\000\377\233\374\000\000"
 3290      00830F00 
 3290      00FF9BFC 
 3290      0000
 3291 0185 00000000 		.ascii	"\000\000\000\000\000\000\000\000\000\000\000\000\000"
 3291      00000000 
 3291      00000000 
 3291      00
 3292 0192 00000000 		.ascii	"\000\000\000\000\000\000\000\000\000\000\000\000\000"
 3292      00000000 
 3292      00000000 
 3292      00
 3293 019f 00000000 		.ascii	"\000\000\000\000\000\000\000\000\000\000\000\000\000"
 3293      00000000 
 3293      00000000 
 3293      00
 3294 01ac 00001000 		.ascii	"\000\000\020\000@\000\000\000\000\000\000\006\000\000"
 3294      40000000 
 3294      00000006 
 3294      0000
 3295 01ba B26A0002 		.ascii	"\262j\000\002\000\000\000\001\373\203\000h\000\000\000"
 3295      00000001 
 3295      FB830068 
 3295      000000
 3296 01c9 D9FC007C 		.ascii	"\331\374\000|\361\377\203\000\000\000\000\000e\000\000"
 3296      F1FF8300 
 3296      00000000 
 3296      650000
 3297 01d8 006403E8 		.ascii	"\000d\003\350\000d\000(\000\000\000%\000\000\000\000"
ARM GAS  /var/folders/21/t9g5rlb91ys800n5npymflf80000gn/T//ccsHZoWN.s 			page 99


 3297      00640028 
 3297      00000025 
 3297      00000000 
 3298 01e8 16A00000 		.ascii	"\026\240\000\000\000\000\020\000\000\000\020\000\000"
 3298      00001000 
 3298      00001000 
 3298      00
 3299 01f5 2F000000 		.ascii	"/\000\000\000\000\001\364\000\000\020\000\000(\000\000"
 3299      0001F400 
 3299      00100000 
 3299      280000
 3300 0204 FFFF4581 		.ascii	"\377\377E\201\377\377\372r\000\000\000\000\000\000\000"
 3300      FFFFFA72 
 3300      00000000 
 3300      000000
 3301 0213 00004400 		.ascii	"\000\000D\000\005\000\005\272\306\000Gx\242\000\000"
 3301      050005BA 
 3301      C6004778 
 3301      A20000
 3302 0222 00010000 		.ascii	"\000\001\000\000\000\000\000\000\006\000\000\000\000"
 3302      00000000 
 3302      06000000 
 3302      00
 3303 022f 14000025 		.ascii	"\024\000\000%M\000/pm\000\000\005\256\000\014\002\320"
 3303      4D002F70 
 3303      6D000005 
 3303      AE000C02 
 3303      D0
 3304 0240 00000000 		.ascii	"\000\000\000\000\000\000\000\000\000\000\000\000\000"
 3304      00000000 
 3304      00000000 
 3304      00
 3305 024d 00000000 		.ascii	"\000\000\000\000\033\000\000\000\000\000\000\000\000"
 3305      1B000000 
 3305      00000000 
 3305      00
 3306 025a 00000000 		.ascii	"\000\000\000\000\000\000\000d\000\000\000\010\000\000"
 3306      00000064 
 3306      00000008 
 3306      0000
 3307 0268 00000000 		.ascii	"\000\000\000\000\000\000\000\000\000\000\000\000\000"
 3307      00000000 
 3307      00000000 
 3307      00
 3308 0275 00000000 		.ascii	"\000\000\000\000\000\000\000\000\000\000\000\000\000"
 3308      00000000 
 3308      00000000 
 3308      00
 3309 0282 00000000 		.ascii	"\000\000\000\000\000\000\000\000\000\000\000\000\000"
 3309      00000000 
 3309      00000000 
 3309      00
 3310 028f 00000000 		.ascii	"\000\000\000\000\000\000\000\000\000\000\000\000\000"
 3310      00000000 
 3310      00000000 
 3310      00
 3311 029c 00000000 		.ascii	"\000\000\000\000\000\000\000\000\000\000\000\000\000"
ARM GAS  /var/folders/21/t9g5rlb91ys800n5npymflf80000gn/T//ccsHZoWN.s 			page 100


 3311      00000000 
 3311      00000000 
 3311      00
 3312 02a9 00000000 		.ascii	"\000\000\000\000\000\000\000\000\000\000\000\000\000"
 3312      00000000 
 3312      00000000 
 3312      00
 3313 02b6 00000000 		.ascii	"\000\000\000\000\000\000\000\000\000\000\000\033\000"
 3313      00000000 
 3313      0000001B 
 3313      00
 3314 02c3 00000000 		.ascii	"\000\000\000\000\000\000\000\000\000\000\016\000\016"
 3314      00000000 
 3314      00000E00 
 3314      0E
 3315 02d0 00000AC7 		.ascii	"\000\000\012\307\000\004\000\000\000\000\0002\377\377"
 3315      00040000 
 3315      00000032 
 3315      FFFF
 3316 02de FF9C0000 		.ascii	"\377\234\000\000\013+\000\000\000\002\000\000\000\001"
 3316      0B2B0000 
 3316      00020000 
 3316      0001
 3317 02ec 00000064 		.ascii	"\000\000\000d\377\345\000\000\000\000\000\000\000\000"
 3317      FFE50000 
 3317      00000000 
 3317      0000
 3318 02fa 00000000 		.ascii	"\000\000\000\000\000\000\000\000\000\001\000\000\000"
 3318      00000000 
 3318      00010000 
 3318      00
 3319 0307 00000100 		.ascii	"\000\000\001\000\000\000\000\000\000\000\001\200\000"
 3319      00000000 
 3319      00000180 
 3319      00
 3320 0314 00018000 		.ascii	"\000\001\200\000\000\001\200\000\000$&\323\000\000\000"
 3320      00018000 
 3320      002426D3 
 3320      000000
 3321 0323 00000000 		.ascii	"\000\000\000\000\000\000\006\000\020\000\226\000<\000"
 3321      00000600 
 3321      10009600 
 3321      3C00
 3322 0331 00000000 		.ascii	"\000\000\000\000\000\000\000\000\000\000\000\000\000"
 3322      00000000 
 3322      00000000 
 3322      00
 3323 033e 00000C0A 		.ascii	"\000\000\014\012Nh\315\317w\011P\026gY\306\031\316\202"
 3323      4E68CDCF 
 3323      77095016 
 3323      6759C619 
 3323      CE82
 3324 0350 00000000 		.ascii	"\000\000\000\000\000\000\000\000\000\000\000\000\000"
 3324      00000000 
 3324      00000000 
 3324      00
 3325 035d 00000000 		.ascii	"\000\000\000\000\000\000\000\000\000\000\000\027\327"
ARM GAS  /var/folders/21/t9g5rlb91ys800n5npymflf80000gn/T//ccsHZoWN.s 			page 101


 3325      00000000 
 3325      00000017 
 3325      D7
 3326 036a 84000300 		.ascii	"\204\000\003\000\000\000\000\000\000\000\000\000\000"
 3326      00000000 
 3326      00000000 
 3326      00
 3327 0377 00C7938F 		.ascii	"\000\307\223\217\235\036\033\034\031\000\000\000\000"
 3327      9D1E1B1C 
 3327      19000000 
 3327      00
 3328 0384 00000000 		.ascii	"\000\000\000\000\000\000\000\000\000\000\000\000\000"
 3328      00000000 
 3328      00000000 
 3328      00
 3329 0391 00000000 		.ascii	"\000\000\000\000\000\000\000\002\003\030\205\000\000"
 3329      00000002 
 3329      03188500 
 3329      00
 3330 039e 40000000 		.ascii	"@\000\000\000\000\003\000\000\000\003\000\000\000\000"
 3330      00030000 
 3330      00030000 
 3330      0000
 3331 03ac 00000000 		.ascii	"\000\000\000\000@\000\000\000\000\000\000\000\000\000"
 3331      40000000 
 3331      00000000 
 3331      0000
 3332 03ba 00000000 		.ascii	"\000\000\000\000\000\000\000\000\000\000\000\000\000"
 3332      00000000 
 3332      00000000 
 3332      00
 3333 03c7 00000000 		.ascii	"\000\000\000\000\000\000\000\000\000\000\000\000\000"
 3333      00000000 
 3333      00000000 
 3333      00
 3334 03d4 00000000 		.ascii	"\000\000\000\000\000\000\000\000\000\000\000\000\000"
 3334      00000000 
 3334      00000000 
 3334      00
 3335 03e1 00000067 		.ascii	"\000\000\000g}\337~r\220.UL\366\346\210\000\000\000"
 3335      7DDF7E72 
 3335      902E554C 
 3335      F6E68800 
 3335      0000
 3336 03f3 00000000 		.ascii	"\000\000\000\000\000\000\000\000\000\000\000\000\000"
 3336      00000000 
 3336      00000000 
 3336      00
 3337 0400 D8DCB4B8 		.ascii	"\330\334\264\270\260\330\271\253\363\370\372\263\267"
 3337      B0D8B9AB 
 3337      F3F8FAB3 
 3337      B7
 3338 040d BB8E9EAE 		.ascii	"\273\216\236\256\3612\365\033\361\264\270\260\200\227"
 3338      F132F51B 
 3338      F1B4B8B0 
 3338      8097
 3339 041b F1A9DFDF 		.ascii	"\361\251\337\337\337\252\337\337\337\362\252\305\315"
ARM GAS  /var/folders/21/t9g5rlb91ys800n5npymflf80000gn/T//ccsHZoWN.s 			page 102


 3339      DFAADFDF 
 3339      DFF2AAC5 
 3339      CD
 3340 0428 C7A90CC9 		.ascii	"\307\251\014\311,\227\361\251\211&Ff\262\211\231\251"
 3340      2C97F1A9 
 3340      89264666 
 3340      B28999A9 
 3341 0438 2D557DB0 		.ascii	"-U}\260\260\212\250\2266Vv\361\272\243\264\262\200\300"
 3341      B08AA896 
 3341      365676F1 
 3341      BAA3B4B2 
 3341      80C0
 3342 044a B8A89711 		.ascii	"\270\250\227\021\262\203\230\272\243\360$\010D\020d"
 3342      B28398BA 
 3342      A3F02408 
 3342      441064
 3343 0459 18B2B9B4 		.ascii	"\030\262\271\264\230\203\361\243)U}\272\265\261\243"
 3343      9883F1A3 
 3343      29557DBA 
 3343      B5B1A3
 3344 0468 8393F000 		.ascii	"\203\223\360\000(P\365\262\266\252\203\223(T|\361\271"
 3344      2850F5B2 
 3344      B6AA8393 
 3344      28547CF1 
 3344      B9
 3345 0479 A3829361 		.ascii	"\243\202\223a\272\242\332\336\337\333\201\232\271\256"
 3345      BAA2DADE 
 3345      DFDB819A 
 3345      B9AE
 3346 0487 F5606870 		.ascii	"\365`hp\361\332\272\242\337\331\272\242\372\271\243"
 3346      F1DABAA2 
 3346      DFD9BAA2 
 3346      FAB9A3
 3347 0496 8292DB31 		.ascii	"\202\222\3331\272\242\331\272\242\370\337\205\244\320"
 3347      BAA2D9BA 
 3347      A2F8DF85 
 3347      A4D0
 3348 04a4 C1BBAD83 		.ascii	"\301\273\255\203\302\305\307\270\242\337\337\337\272"
 3348      C2C5C7B8 
 3348      A2DFDFDF 
 3348      BA
 3349 04b1 A0DFDFDF 		.ascii	"\240\337\337\337\330\330\361\270\252\263\215\264\230"
 3349      D8D8F1B8 
 3349      AAB38DB4 
 3349      98
 3350 04be 0D355DB2 		.ascii	"\0155]\262\266\272\257\214\226\031\217\237\247\016\026"
 3350      B6BAAF8C 
 3350      96198F9F 
 3350      A70E16
 3351 04cd 1EB49AB8 		.ascii	"\036\264\232\270\252\207,T|\272\244\260\212\266\221"
 3351      AA872C54 
 3351      7CBAA4B0 
 3351      8AB691
 3352 04dc 325676B2 		.ascii	"2Vv\262\204\224\244\310\010\315\330\270\264\260\361"
 3352      8494A4C8 
 3352      08CDD8B8 
 3352      B4B0F1
ARM GAS  /var/folders/21/t9g5rlb91ys800n5npymflf80000gn/T//ccsHZoWN.s 			page 103


 3353 04eb 9982A82D 		.ascii	"\231\202\250-U}\230\250\016\026\036\242,T|\222\244\360"
 3353      557D98A8 
 3353      0E161EA2 
 3353      2C547C92 
 3353      A4F0
 3354 04fd 2C5078F1 		.ascii	",Px\361\204\250\230\304\315\374\330\015\333\250\374"
 3354      84A898C4 
 3354      CDFCD80D 
 3354      DBA8FC
 3355 050c 2DF3D9BA 		.ascii	"-\363\331\272\246\370\332\272\246\336\330\272\262\266"
 3355      A6F8DABA 
 3355      A6DED8BA 
 3355      B2B6
 3356 051a 8696A6D0 		.ascii	"\206\226\246\320\363\310A\332\246\310\370\330\260\264"
 3356      F3C841DA 
 3356      A6C8F8D8 
 3356      B0B4
 3357 0528 B882A892 		.ascii	"\270\202\250\222\365,T\210\230\3615\331\364\030\330"
 3357      F52C5488 
 3357      98F135D9 
 3357      F418D8
 3358 0537 F1A2D0F8 		.ascii	"\361\242\320\370\371\250\204\331\307\337\370\370\203"
 3358      F9A884D9 
 3358      C7DFF8F8 
 3358      83
 3359 0544 C5DADF69 		.ascii	"\305\332\337i\337\203\301\330\364\001\024\361\250\202"
 3359      DF83C1D8 
 3359      F40114F1 
 3359      A882
 3360 0552 4EA884F3 		.ascii	"N\250\204\363\021\321\202\365\331\222(\227\210\361\011"
 3360      11D182F5 
 3360      D9922897 
 3360      88F109
 3361 0561 F41C1CD8 		.ascii	"\364\034\034\330\204\250\363\300\371\321\331\227\202"
 3361      84A8F3C0 
 3361      F9D1D997 
 3361      82
 3362 056e F129F40D 		.ascii	"\361)\364\015\330\363\371\371\321\331\202\364\302\003"
 3362      D8F3F9F9 
 3362      D1D982F4 
 3362      C203
 3363 057c D8DEDF1A 		.ascii	"\330\336\337\032\330\361\242\372\371\250\204\230\331"
 3363      D8F1A2FA 
 3363      F9A88498 
 3363      D9
 3364 0589 C7DFF8F8 		.ascii	"\307\337\370\370\370\203\307\332\337i\337\370\203\303"
 3364      F883C7DA 
 3364      DF69DFF8 
 3364      83C3
 3365 0597 D8F40114 		.ascii	"\330\364\001\024\361\230\250\202.\250\204\363\021\321"
 3365      F198A882 
 3365      2EA884F3 
 3365      11D1
 3366 05a5 82F5D992 		.ascii	"\202\365\331\222P\227\210\361\011\364\034\330\204\250"
 3366      509788F1 
 3366      09F41CD8 
 3366      84A8
ARM GAS  /var/folders/21/t9g5rlb91ys800n5npymflf80000gn/T//ccsHZoWN.s 			page 104


 3367 05b3 F3C0F8F9 		.ascii	"\363\300\370\371\321\331\227\202\361I\364\015\330\363"
 3367      D1D99782 
 3367      F149F40D 
 3367      D8F3
 3368 05c1 F9F9D1D9 		.ascii	"\371\371\321\331\202\364\304\003\330\336\337\330\361"
 3368      82F4C403 
 3368      D8DEDFD8 
 3368      F1
 3369 05ce AD8898CC 		.ascii	"\255\210\230\314\250\011\371\331\202\222\250\365|\361"
 3369      A809F9D9 
 3369      8292A8F5 
 3369      7CF1
 3370 05dc 883ACF94 		.ascii	"\210:\317\224Jn\230\333i1\332\255\362\336\371\330\207"
 3370      4A6E98DB 
 3370      6931DAAD 
 3370      F2DEF9D8 
 3370      87
 3371 05ed 95A8F221 		.ascii	"\225\250\362!\321\332\245\371\364\027\331\361\256\216"
 3371      D1DAA5F9 
 3371      F417D9F1 
 3371      AE8E
 3372 05fb D0C0C3AE 		.ascii	"\320\300\303\256\202\306\204\303\250\205\225\310\245"
 3372      82C684C3 
 3372      A88595C8 
 3372      A5
 3373 0608 88F2C0F1 		.ascii	"\210\362\300\361\364\001\016\361\216\236\250\306>V\365"
 3373      F4010EF1 
 3373      8E9EA8C6 
 3373      3E56F5
 3374 0617 54F18872 		.ascii	"T\361\210r\364\001\025\361\230E\205n\365\216\236\004"
 3374      F40115F1 
 3374      9845856E 
 3374      F58E9E04 
 3375 0627 88F14298 		.ascii	"\210\361B\230Z\216\236\006\210i\364\001\034\361\230"
 3375      5A8E9E06 
 3375      8869F401 
 3375      1CF198
 3376 0636 1E1108D0 		.ascii	"\036\021\010\320\365\004\361\036\227\002\002\2306%\333"
 3376      F504F11E 
 3376      97020298 
 3376      3625DB
 3377 0645 F9D985A5 		.ascii	"\371\331\205\245\363\301\332\205\245\363\337\330\205"
 3377      F3C1DA85 
 3377      A5F3DFD8 
 3377      85
 3378 0652 95A8F309 		.ascii	"\225\250\363\011\332\245\372\330\202\222\250\365x\361"
 3378      DAA5FAD8 
 3378      8292A8F5 
 3378      78F1
 3379 0660 881A849F 		.ascii	"\210\032\204\237&\210\230!\332\364\035\363\330\207\237"
 3379      26889821 
 3379      DAF41DF3 
 3379      D8879F
 3380 066f 39D1AFD9 		.ascii	"9\321\257\331\337\337\373\371\364\014\363\330\372\320"
 3380      DFDFFBF9 
 3380      F40CF3D8 
 3380      FAD0
ARM GAS  /var/folders/21/t9g5rlb91ys800n5npymflf80000gn/T//ccsHZoWN.s 			page 105


 3381 067d F8DAF9F9 		.ascii	"\370\332\371\371\320\337\331\371\330\364\013\330\363"
 3381      D0DFD9F9 
 3381      D8F40BD8 
 3381      F3
 3382 068a 879F39D1 		.ascii	"\207\2379\321\257\331\337\337\364\035\363\330\372\374"
 3382      AFD9DFDF 
 3382      F41DF3D8 
 3382      FAFC
 3383 0698 A869F9F9 		.ascii	"\250i\371\371\257\320\332\336\372\331\370\217\237\250"
 3383      AFD0DADE 
 3383      FAD9F88F 
 3383      9FA8
 3384 06a6 F1CCF398 		.ascii	"\361\314\363\230\333E\331\257\337\320\370\330\361\217"
 3384      DB45D9AF 
 3384      DFD0F8D8 
 3384      F18F
 3385 06b4 9FA8CAF3 		.ascii	"\237\250\312\363\210\011\332\257\217\313\370\330\362"
 3385      8809DAAF 
 3385      8FCBF8D8 
 3385      F2
 3386 06c1 AD978D0C 		.ascii	"\255\227\215\014\331\245\337\371\272\246\363\372\364"
 3386      D9A5DFF9 
 3386      BAA6F3FA 
 3386      F4
 3387 06ce 12F2D895 		.ascii	"\022\362\330\225\015\321\331\272\246\363\372\332\245"
 3387      0DD1D9BA 
 3387      A6F3FADA 
 3387      A5
 3388 06db F2C1BAA6 		.ascii	"\362\301\272\246\363\337\330\361\272\262\266\206\226"
 3388      F3DFD8F1 
 3388      BAB2B686 
 3388      96
 3389 06e8 A6D0CAF3 		.ascii	"\246\320\312\363I\332\246\313\370\330\260\264\270\330"
 3389      49DAA6CB 
 3389      F8D8B0B4 
 3389      B8D8
 3390 06f6 AD84F2C0 		.ascii	"\255\204\362\300\337\361\217\313\303\250\262\266\206"
 3390      DFF18FCB 
 3390      C3A8B2B6 
 3390      86
 3391 0703 96C8C1CB 		.ascii	"\226\310\301\313\303\363\260\264\210\230\250!\333q\215"
 3391      C3F3B0B4 
 3391      8898A821 
 3391      DB718D
 3392 0712 9D718595 		.ascii	"\235q\205\225!\331\255\362\372\330\205\227\250(\331"
 3392      21D9ADF2 
 3392      FAD88597 
 3392      A828D9
 3393 0721 F408D8F2 		.ascii	"\364\010\330\362\215)\332\364\005\331\362\205\244\302"
 3393      8D29DAF4 
 3393      05D9F285 
 3393      A4C2
 3394 072f F2D8A88D 		.ascii	"\362\330\250\215\224\001\321\331\364\021\362\330\207"
 3394      9401D1D9 
 3394      F411F2D8 
 3394      87
 3395 073c 21D8F40A 		.ascii	"!\330\364\012\330\362\204\230\250\310\001\321\331\364"
ARM GAS  /var/folders/21/t9g5rlb91ys800n5npymflf80000gn/T//ccsHZoWN.s 			page 106


 3395      D8F28498 
 3395      A8C801D1 
 3395      D9F4
 3396 074a 11D8F3A4 		.ascii	"\021\330\363\244\310\273\257\320\362\336\370\370\370"
 3396      C8BBAFD0 
 3396      F2DEF8F8 
 3396      F8
 3397 0757 F8F8F8F8 		.ascii	"\370\370\370\370\370\330\361\270\366\265\271\260\212"
 3397      F8D8F1B8 
 3397      F6B5B9B0 
 3397      8A
 3398 0764 95A3DE3C 		.ascii	"\225\243\336<\243\331\370\330\\\243\331\370\330|\243"
 3398      A3D9F8D8 
 3398      5CA3D9F8 
 3398      D87CA3
 3399 0773 D9F8D8F8 		.ascii	"\331\370\330\370\371\321\245\331\337\332\372\330\261"
 3399      F9D1A5D9 
 3399      DFDAFAD8 
 3399      B1
 3400 0780 8530F7D9 		.ascii	"\2050\367\331\336\330\3700\255\332\336\330\362\264\214"
 3400      DED8F830 
 3400      ADDADED8 
 3400      F2B48C
 3401 078f 99A32D55 		.ascii	"\231\243-U}\240\203\337\337\337\265\221\240\366)\331"
 3401      7DA083DF 
 3401      DFDFB591 
 3401      A0F629D9 
 3402 079f FBD8A0FC 		.ascii	"\373\330\240\374)\331\372\330\240\320Q\331\370\330\374"
 3402      29D9FAD8 
 3402      A0D051D9 
 3402      F8D8FC
 3403 07ae 51D9F9D8 		.ascii	"Q\331\371\330y\331\373\330\240\320\374y\331\372\330"
 3403      79D9FBD8 
 3403      A0D0FC79 
 3403      D9FAD8
 3404 07bd A1F9F9F9 		.ascii	"\241\371\371\371\371\371\240\332\337\337\337\330\241"
 3404      F9F9A0DA 
 3404      DFDFDFD8 
 3404      A1
 3405 07ca F8F8F8F8 		.ascii	"\370\370\370\370\370\254"
 3405      F8AC
 3406 07d0 DEF8ADDE 		.ascii	"\336\370\255\336\203\223\254,T|\361\250\337\337\337"
 3406      8393AC2C 
 3406      547CF1A8 
 3406      DFDFDF
 3407 07df F69D2CDA 		.ascii	"\366\235,\332\240\337\331\372\333-\370\330\250P\332"
 3407      A0DFD9FA 
 3407      DB2DF8D8 
 3407      A850DA
 3408 07ee A0D0DED9 		.ascii	"\240\320\336\331\320\370\370\370\333U\370\330\250x\332"
 3408      D0F8F8F8 
 3408      DB55F8D8 
 3408      A878DA
 3409 07fd A0D0DFD9 		.ascii	"\240\320\337\331\320\372\370\370\370\370\333}\370\330"
 3409      D0FAF8F8 
 3409      F8F8DB7D 
 3409      F8D8
ARM GAS  /var/folders/21/t9g5rlb91ys800n5npymflf80000gn/T//ccsHZoWN.s 			page 107


 3410 080b 9CA88CF5 		.ascii	"\234\250\214\3650\3338\331\320\336\337\240\320\336\337"
 3410      30DB38D9 
 3410      D0DEDFA0 
 3410      D0DEDF
 3411 081a D8A848DB 		.ascii	"\330\250H\333X\331\337\320\336\240\337\320\336\330\250"
 3411      58D9DFD0 
 3411      DEA0DFD0 
 3411      DED8A8
 3412 0829 68DB70D9 		.ascii	"h\333p\331\337\337\240\337\337\330\361\250\210\220,"
 3412      DFDFA0DF 
 3412      DFD8F1A8 
 3412      88902C
 3413 0838 547C98A8 		.ascii	"T|\230\250\320\\8\321\332\362\256\214\337\371\330\260"
 3413      D05C38D1 
 3413      DAF2AE8C 
 3413      DFF9D8B0 
 3414 0848 87A8C1C1 		.ascii	"\207\250\301\301\261\210\250\306\371\371\3326\330\250"
 3414      B188A8C6 
 3414      F9F9DA36 
 3414      D8A8
 3415 0856 F9DA36D8 		.ascii	"\371\3326\330\250\371\3326\330\250\371\3326\330\250"
 3415      A8F9DA36 
 3415      D8A8F9DA 
 3415      36D8A8
 3416 0865 F9DA36D8 		.ascii	"\371\3326\330\367\215\235\255\370\030\332\362\256\337"
 3416      F78D9DAD 
 3416      F818DAF2 
 3416      AEDF
 3417 0873 D8F7ADFA 		.ascii	"\330\367\255\3720\331\244\336\371\330\362\256\336\372"
 3417      30D9A4DE 
 3417      F9D8F2AE 
 3417      DEFA
 3418 0881 F983A7D9 		.ascii	"\371\203\247\331\303\305\307\361\210\233\247z\255\367"
 3418      C3C5C7F1 
 3418      889BA77A 
 3418      ADF7
 3419 088f DEDFA4F8 		.ascii	"\336\337\244\370\204\224\010\247\227\363\000\256\362"
 3419      849408A7 
 3419      97F300AE 
 3419      F2
 3420 089c 9819A488 		.ascii	"\230\031\244\210\306\243\224\210\3662\337\362\203\223"
 3420      C6A39488 
 3420      F632DFF2 
 3420      8393
 3421 08aa DB09D9F2 		.ascii	"\333\011\331\362\252\337\330\330\256\370\371\321\332"
 3421      AADFD8D8 
 3421      AEF8F9D1 
 3421      DA
 3422 08b7 F3A4DEA7 		.ascii	"\363\244\336\247\361\210\233z\330\363\204\224\256\031"
 3422      F1889B7A 
 3422      D8F38494 
 3422      AE19
 3423 08c5 F9DAAAF1 		.ascii	"\371\332\252\361\337\330\250\201\300\303\305\307\243"
 3423      DFD8A881 
 3423      C0C3C5C7 
 3423      A3
 3424 08d2 9283F628 		.ascii	"\222\203\366(\255\336\331\370\330\243P\255\331\370\330"
ARM GAS  /var/folders/21/t9g5rlb91ys800n5npymflf80000gn/T//ccsHZoWN.s 			page 108


 3424      ADDED9F8 
 3424      D8A350AD 
 3424      D9F8D8
 3425 08e1 A378ADD9 		.ascii	"\243x\255\331\370\330\370\371\321\241\332\336\303\305"
 3425      F8D8F8F9 
 3425      D1A1DADE 
 3425      C3C5
 3426 08ef C7D8A181 		.ascii	"\307\330\241\201\224\370\030\362\260\211\254\303\305"
 3426      94F818F2 
 3426      B089ACC3 
 3426      C5
 3427 08fc C7F1D8B8 		.ascii	"\307\361\330\270\264\260\227\206\2501\233\006\231\007"
 3427      B4B09786 
 3427      A8319B06 
 3427      9907
 3428 090a AB972888 		.ascii	"\253\227(\210\233\360\014 \024@\260\264\270\360\250"
 3428      9BF00C20 
 3428      1440B0B4 
 3428      B8F0A8
 3429 0919 8A9A2850 		.ascii	"\212\232(Px\267\233\250)Qy$pYDi8dH1\361\273\253\210"
 3429      78B79BA8 
 3429      29517924 
 3429      70594469 
 3429      38644831 
 3430 0931 002C547C 		.ascii	"\000,T|\360\263\213\270\250\004(Px\361\260\210\264\227"
 3430      F0B38BB8 
 3430      A8042850 
 3430      78F1B088 
 3430      B497
 3431 0943 26A85998 		.ascii	"&\250Y\230\273\253\263\213\002&Ff\260\270\360\212\234"
 3431      BBABB38B 
 3431      02264666 
 3431      B0B8F08A 
 3431      9C
 3432 0954 A8295179 		.ascii	"\250)Qy\213)Qy\212$pY\213 Xq\212Di8\2139@h\212dH1\213"
 3432      8B295179 
 3432      8A247059 
 3432      8B205871 
 3432      8A446938 
 3433 0971 30496088 		.ascii	"0I`\210\361\254\000,T|\360\214\250\004(Px\361\210\227"
 3433      F1AC002C 
 3433      547CF08C 
 3433      A8042850 
 3433      78F18897 
 3434 0985 26A85998 		.ascii	"&\250Y\230\254\214\002&Ff\360\211\234\250)Qy$pYDi8d"
 3434      AC8C0226 
 3434      4666F089 
 3434      9CA82951 
 3434      79247059 
 3435 099d 4831A988 		.ascii	"H1\251\210\011 Yp\253\0218@i\250\0311H`\214\250<A\\"
 3435      09205970 
 3435      AB113840 
 3435      69A81931 
 3435      48608CA8 
 3436 09b4 207C00F1 		.ascii	" |\000\361\207\230\031\206\250nv~\251\231\210-U}\330"
 3436      87981986 
 3436      A86E767E 
ARM GAS  /var/folders/21/t9g5rlb91ys800n5npymflf80000gn/T//ccsHZoWN.s 			page 109


 3436      A999882D 
 3436      557DD8
 3437 09c7 B1B5B9A3 		.ascii	"\261\265\271\243\337\337\337\256\320\337\252\320\336"
 3437      DFDFDFAE 
 3437      D0DFAAD0 
 3437      DE
 3438 09d4 F2ABF8F9 		.ascii	"\362\253\370\371\331\260\207\304\252\361\337\337\273"
 3438      D9B087C4 
 3438      AAF1DFDF 
 3438      BB
 3439 09e1 AFDFDFB9 		.ascii	"\257\337\337\271\330\261\361\243\227\216`\337\260\204"
 3439      D8B1F1A3 
 3439      978E60DF 
 3439      B084
 3440 09ef F2C8F8F9 		.ascii	"\362\310\370\371\331\336\330\223\205\361J\261\203\243"
 3440      D9DED893 
 3440      85F14AB1 
 3440      83A3
 3441 09fd 08B5839A 		.ascii	"\010\265\203\232\010\020\267\237\020\330\361\260\272"
 3441      0810B79F 
 3441      10D8F1B0 
 3441      BA
 3442 0a0a AEB08AC2 		.ascii	"\256\260\212\302\262\266\216\236\361\373\331\364\035"
 3442      B2B68E9E 
 3442      F1FBD9F4 
 3442      1D
 3443 0a17 D8F9D90C 		.ascii	"\330\371\331\014\361\330\370\370\255a\331\256\373\330"
 3443      F1D8F8F8 
 3443      AD61D9AE 
 3443      FBD8
 3444 0a25 F40CF1D8 		.ascii	"\364\014\361\330\370\370\255\031\331\256\373\337\330"
 3444      F8F8AD19 
 3444      D9AEFBDF 
 3444      D8
 3445 0a32 F416F1D8 		.ascii	"\364\026\361\330\370\255\215a\331\364\364\254\365\234"
 3445      F8AD8D61 
 3445      D9F4F4AC 
 3445      F59C
 3446 0a40 9C8DDF2B 		.ascii	"\234\215\337+\272\266\256\372\370\364\013\330\361\256"
 3446      BAB6AEFA 
 3446      F8F40BD8 
 3446      F1AE
 3447 0a4e D0F8AD51 		.ascii	"\320\370\255Q\332\256\372\370\361\330\271\261\266\243"
 3447      DAAEFAF8 
 3447      F1D8B9B1 
 3447      B6A3
 3448 0a5c 839C08B9 		.ascii	"\203\234\010\271\261\203\232\265\252\300\3750\203\267"
 3448      B1839AB5 
 3448      AAC0FD30 
 3448      83B7
 3449 0a6a 9F10B58B 		.ascii	"\237\020\265\213\223\362\002\002\321\253\332\336\330"
 3449      93F20202 
 3449      D1ABDADE 
 3449      D8
 3450 0a77 F1B080BA 		.ascii	"\361\260\200\272\253\300\303\262\204\301\303\330\261"
 3450      ABC0C3B2 
 3450      84C1C3D8 
ARM GAS  /var/folders/21/t9g5rlb91ys800n5npymflf80000gn/T//ccsHZoWN.s 			page 110


 3450      B1
 3451 0a84 B9F38BA3 		.ascii	"\271\363\213\243\221\266\011\264\331\253\336\260\207"
 3451      91B609B4 
 3451      D9ABDEB0 
 3451      87
 3452 0a91 9CB9A3DD 		.ascii	"\234\271\243\335\361\263\213\213\213\213\213\260\207"
 3452      F1B38B8B 
 3452      8B8B8BB0 
 3452      87
 3453 0a9e A3A3A3A3 		.ascii	"\243\243\243\243\262\213\266\233\362\243\243\243\243"
 3453      B28BB69B 
 3453      F2A3A3A3 
 3453      A3
 3454 0aab A3A3A3A3 		.ascii	"\243\243\243\243\243\243\361\260\207\265\232\243\363"
 3454      A3A3F1B0 
 3454      87B59AA3 
 3454      F3
 3455 0ab8 9BA3A3DC 		.ascii	"\233\243\243\334\272\254\337\271\243\243\243\243\243"
 3455      BAACDFB9 
 3455      A3A3A3A3 
 3455      A3
 3456 0ac5 A3A3A3A3 		.ascii	"\243\243\243\243\243\243\243\243\243\243\243\330\330"
 3456      A3A3A3A3 
 3456      A3A3A3D8 
 3456      D8
 3457 0ad2 D8BBB3B7 		.ascii	"\330\273\263\267\361\252\371\332\377\331\200\232\252"
 3457      F1AAF9DA 
 3457      FFD9809A 
 3457      AA
 3458 0adf 28B48098 		.ascii	"(\264\200\230\247 \267\227\207\250f\210\360yQ\361\220"
 3458      A720B797 
 3458      87A86688 
 3458      F07951F1 
 3458      90
 3459 0af0 2C870CA7 		.ascii	",\207\014\247\201\227b\223\360qq`\205\224\001)Qy\220"
 3459      81976293 
 3459      F0717160 
 3459      85940129 
 3459      517990
 3460 0b03 A5F1284C 		.ascii	"\245\361(Ll\207\014\225\030\205x\243\203\220(Ll\210"
 3460      6C870C95 
 3460      188578A3 
 3460      8390284C 
 3460      6C88
 3461 0b15 6CD8F3A2 		.ascii	"l\330\363\242\202\000\362\020\250\222\031\200\242\362"
 3461      8200F210 
 3461      A8921980 
 3461      A2F2
 3462 0b23 D926D8F1 		.ascii	"\331&\330\361\210\250M\331H\330\226\2509\200\331<\330"
 3462      88A84DD9 
 3462      48D896A8 
 3462      3980D93C 
 3462      D8
 3463 0b34 9580A839 		.ascii	"\225\200\2509\246\206\230\331,\332\207\247,\330\250"
 3463      A68698D9 
 3463      2CDA87A7 
 3463      2CD8A8
ARM GAS  /var/folders/21/t9g5rlb91ys800n5npymflf80000gn/T//ccsHZoWN.s 			page 111


 3464 0b43 899519A9 		.ascii	"\211\225\031\251\200\3318\330\250\2119\251\200\332<"
 3464      80D938D8 
 3464      A88939A9 
 3464      80DA3C
 3465 0b52 D8A82EA8 		.ascii	"\330\250.\2509\220\331\014\330\250\2251\230\331\014"
 3465      3990D90C 
 3465      D8A89531 
 3465      98D90C
 3466 0b61 D8A809D9 		.ascii	"\330\250\011\331\377\330\001\332\377\330\2259\251\332"
 3466      FFD801DA 
 3466      FFD89539 
 3466      A9DA
 3467 0b6f 26FFD890 		.ascii	"&\377\330\220\250\015\211\231\250\020\200\230!\332."
 3467      A80D8999 
 3467      A8108098 
 3467      21DA2E
 3468 0b7e D88999A8 		.ascii	"\330\211\231\2501\200\332.\330\250\206\2261\200\332"
 3468      3180DA2E 
 3468      D8A88696 
 3468      3180DA
 3469 0b8d 2ED8A887 		.ascii	".\330\250\2071\200\332.\330\250\202\222\363A\200\361"
 3469      3180DA2E 
 3469      D8A88292 
 3469      F34180F1 
 3470 0b9d D92ED8A8 		.ascii	"\331.\330\250\202\363\031\200\361\331.\330\202\254\363"
 3470      82F31980 
 3470      F1D92ED8 
 3470      82ACF3
 3471 0bac C0A28022 		.ascii	"\300\242\200\"\361\246.\247.\251\"\230\250)\332\254"
 3471      F1A62EA7 
 3471      2EA92298 
 3471      A829DAAC 
 3472 0bbc DEFFD8A2 		.ascii	"\336\377\330\242\362*\361\251.\202\222\250\3621\200"
 3472      F22AF1A9 
 3472      2E8292A8 
 3472      F23180
 3473 0bcb A696F1D9 		.ascii	"\246\226\361\331\000\254\214\234\0140\254\336\320\336"
 3473      00AC8C9C 
 3473      0C30ACDE 
 3473      D0DE
 3474 0bd9 FFD88C9C 		.ascii	"\377\330\214\234\254\320\020\254\336\200\222\242\362"
 3474      ACD010AC 
 3474      DE8092A2 
 3474      F2
 3475 0be6 4C82A8F1 		.ascii	"L\202\250\361\312\3625\361\226\210\246\331\000\330\361"
 3475      CAF235F1 
 3475      9688A6D9 
 3475      00D8F1
 3476 0bf5 FF       		.ascii	"\377"
 3477              		.text
 3478              	.Letext0:
 3479              		.file 2 "user/drivers/DMP/driver/eMPL/inv_mpu.h"
ARM GAS  /var/folders/21/t9g5rlb91ys800n5npymflf80000gn/T//ccsHZoWN.s 			page 112


DEFINED SYMBOLS
                            *ABS*:00000000 inv_mpu_dmp_motion_driver.c
/var/folders/21/t9g5rlb91ys800n5npymflf80000gn/T//ccsHZoWN.s:21     .text.decode_gesture:00000000 $t
/var/folders/21/t9g5rlb91ys800n5npymflf80000gn/T//ccsHZoWN.s:26     .text.decode_gesture:00000000 decode_gesture
/var/folders/21/t9g5rlb91ys800n5npymflf80000gn/T//ccsHZoWN.s:106    .text.decode_gesture:00000038 $d
/var/folders/21/t9g5rlb91ys800n5npymflf80000gn/T//ccsHZoWN.s:3258   .bss.dmp:00000000 dmp
/var/folders/21/t9g5rlb91ys800n5npymflf80000gn/T//ccsHZoWN.s:111    .text.dmp_load_motion_driver_firmware:00000000 $t
/var/folders/21/t9g5rlb91ys800n5npymflf80000gn/T//ccsHZoWN.s:117    .text.dmp_load_motion_driver_firmware:00000000 dmp_load_motion_driver_firmware
/var/folders/21/t9g5rlb91ys800n5npymflf80000gn/T//ccsHZoWN.s:141    .text.dmp_load_motion_driver_firmware:00000014 $d
/var/folders/21/t9g5rlb91ys800n5npymflf80000gn/T//ccsHZoWN.s:3264   .rodata.dmp_memory:00000000 dmp_memory
/var/folders/21/t9g5rlb91ys800n5npymflf80000gn/T//ccsHZoWN.s:146    .rodata.dmp_set_orientation.str1.4:00000000 $d
/var/folders/21/t9g5rlb91ys800n5npymflf80000gn/T//ccsHZoWN.s:159    .text.dmp_set_orientation:00000000 $t
/var/folders/21/t9g5rlb91ys800n5npymflf80000gn/T//ccsHZoWN.s:165    .text.dmp_set_orientation:00000000 dmp_set_orientation
/var/folders/21/t9g5rlb91ys800n5npymflf80000gn/T//ccsHZoWN.s:375    .text.dmp_set_orientation:00000138 $d
/var/folders/21/t9g5rlb91ys800n5npymflf80000gn/T//ccsHZoWN.s:384    .text.dmp_set_gyro_bias:00000000 $t
/var/folders/21/t9g5rlb91ys800n5npymflf80000gn/T//ccsHZoWN.s:390    .text.dmp_set_gyro_bias:00000000 dmp_set_gyro_bias
/var/folders/21/t9g5rlb91ys800n5npymflf80000gn/T//ccsHZoWN.s:602    .text.dmp_set_gyro_bias:00000108 $d
/var/folders/21/t9g5rlb91ys800n5npymflf80000gn/T//ccsHZoWN.s:608    .text.dmp_set_accel_bias:00000000 $t
/var/folders/21/t9g5rlb91ys800n5npymflf80000gn/T//ccsHZoWN.s:614    .text.dmp_set_accel_bias:00000000 dmp_set_accel_bias
/var/folders/21/t9g5rlb91ys800n5npymflf80000gn/T//ccsHZoWN.s:808    .text.dmp_set_accel_bias:000000f0 $d
/var/folders/21/t9g5rlb91ys800n5npymflf80000gn/T//ccsHZoWN.s:813    .rodata.dmp_set_fifo_rate.str1.4:00000000 $d
/var/folders/21/t9g5rlb91ys800n5npymflf80000gn/T//ccsHZoWN.s:817    .text.dmp_set_fifo_rate:00000000 $t
/var/folders/21/t9g5rlb91ys800n5npymflf80000gn/T//ccsHZoWN.s:823    .text.dmp_set_fifo_rate:00000000 dmp_set_fifo_rate
/var/folders/21/t9g5rlb91ys800n5npymflf80000gn/T//ccsHZoWN.s:919    .text.dmp_set_fifo_rate:00000060 $d
/var/folders/21/t9g5rlb91ys800n5npymflf80000gn/T//ccsHZoWN.s:925    .text.dmp_get_fifo_rate:00000000 $t
/var/folders/21/t9g5rlb91ys800n5npymflf80000gn/T//ccsHZoWN.s:931    .text.dmp_get_fifo_rate:00000000 dmp_get_fifo_rate
/var/folders/21/t9g5rlb91ys800n5npymflf80000gn/T//ccsHZoWN.s:954    .text.dmp_get_fifo_rate:0000000c $d
/var/folders/21/t9g5rlb91ys800n5npymflf80000gn/T//ccsHZoWN.s:959    .text.dmp_set_tap_thresh:00000000 $t
/var/folders/21/t9g5rlb91ys800n5npymflf80000gn/T//ccsHZoWN.s:965    .text.dmp_set_tap_thresh:00000000 dmp_set_tap_thresh
/var/folders/21/t9g5rlb91ys800n5npymflf80000gn/T//ccsHZoWN.s:1018   .text.dmp_set_tap_thresh:00000042 $d
/var/folders/21/t9g5rlb91ys800n5npymflf80000gn/T//ccsHZoWN.s:1291   .text.dmp_set_tap_thresh:000001b0 $d
/var/folders/21/t9g5rlb91ys800n5npymflf80000gn/T//ccsHZoWN.s:1304   .text.dmp_set_tap_axes:00000000 $t
/var/folders/21/t9g5rlb91ys800n5npymflf80000gn/T//ccsHZoWN.s:1310   .text.dmp_set_tap_axes:00000000 dmp_set_tap_axes
/var/folders/21/t9g5rlb91ys800n5npymflf80000gn/T//ccsHZoWN.s:1377   .text.dmp_set_tap_count:00000000 $t
/var/folders/21/t9g5rlb91ys800n5npymflf80000gn/T//ccsHZoWN.s:1383   .text.dmp_set_tap_count:00000000 dmp_set_tap_count
/var/folders/21/t9g5rlb91ys800n5npymflf80000gn/T//ccsHZoWN.s:1438   .text.dmp_set_tap_time:00000000 $t
/var/folders/21/t9g5rlb91ys800n5npymflf80000gn/T//ccsHZoWN.s:1444   .text.dmp_set_tap_time:00000000 dmp_set_tap_time
/var/folders/21/t9g5rlb91ys800n5npymflf80000gn/T//ccsHZoWN.s:1493   .text.dmp_set_tap_time:0000002c $d
/var/folders/21/t9g5rlb91ys800n5npymflf80000gn/T//ccsHZoWN.s:1498   .text.dmp_set_tap_time_multi:00000000 $t
/var/folders/21/t9g5rlb91ys800n5npymflf80000gn/T//ccsHZoWN.s:1504   .text.dmp_set_tap_time_multi:00000000 dmp_set_tap_time_multi
/var/folders/21/t9g5rlb91ys800n5npymflf80000gn/T//ccsHZoWN.s:1553   .text.dmp_set_tap_time_multi:0000002c $d
/var/folders/21/t9g5rlb91ys800n5npymflf80000gn/T//ccsHZoWN.s:1558   .text.dmp_set_shake_reject_thresh:00000000 $t
/var/folders/21/t9g5rlb91ys800n5npymflf80000gn/T//ccsHZoWN.s:1564   .text.dmp_set_shake_reject_thresh:00000000 dmp_set_shake_reject_thresh
/var/folders/21/t9g5rlb91ys800n5npymflf80000gn/T//ccsHZoWN.s:1628   .text.dmp_set_shake_reject_thresh:00000040 $d
/var/folders/21/t9g5rlb91ys800n5npymflf80000gn/T//ccsHZoWN.s:1633   .text.dmp_set_shake_reject_time:00000000 $t
/var/folders/21/t9g5rlb91ys800n5npymflf80000gn/T//ccsHZoWN.s:1639   .text.dmp_set_shake_reject_time:00000000 dmp_set_shake_reject_time
/var/folders/21/t9g5rlb91ys800n5npymflf80000gn/T//ccsHZoWN.s:1686   .text.dmp_set_shake_reject_time:00000028 $d
/var/folders/21/t9g5rlb91ys800n5npymflf80000gn/T//ccsHZoWN.s:1691   .text.dmp_set_shake_reject_timeout:00000000 $t
/var/folders/21/t9g5rlb91ys800n5npymflf80000gn/T//ccsHZoWN.s:1697   .text.dmp_set_shake_reject_timeout:00000000 dmp_set_shake_reject_timeout
/var/folders/21/t9g5rlb91ys800n5npymflf80000gn/T//ccsHZoWN.s:1744   .text.dmp_set_shake_reject_timeout:00000028 $d
/var/folders/21/t9g5rlb91ys800n5npymflf80000gn/T//ccsHZoWN.s:1749   .text.dmp_get_pedometer_step_count:00000000 $t
/var/folders/21/t9g5rlb91ys800n5npymflf80000gn/T//ccsHZoWN.s:1755   .text.dmp_get_pedometer_step_count:00000000 dmp_get_pedometer_step_count
/var/folders/21/t9g5rlb91ys800n5npymflf80000gn/T//ccsHZoWN.s:1838   .text.dmp_set_pedometer_step_count:00000000 $t
/var/folders/21/t9g5rlb91ys800n5npymflf80000gn/T//ccsHZoWN.s:1844   .text.dmp_set_pedometer_step_count:00000000 dmp_set_pedometer_step_count
/var/folders/21/t9g5rlb91ys800n5npymflf80000gn/T//ccsHZoWN.s:1897   .text.dmp_get_pedometer_walk_time:00000000 $t
/var/folders/21/t9g5rlb91ys800n5npymflf80000gn/T//ccsHZoWN.s:1903   .text.dmp_get_pedometer_walk_time:00000000 dmp_get_pedometer_walk_time
/var/folders/21/t9g5rlb91ys800n5npymflf80000gn/T//ccsHZoWN.s:1989   .text.dmp_set_pedometer_walk_time:00000000 $t
ARM GAS  /var/folders/21/t9g5rlb91ys800n5npymflf80000gn/T//ccsHZoWN.s 			page 113


/var/folders/21/t9g5rlb91ys800n5npymflf80000gn/T//ccsHZoWN.s:1995   .text.dmp_set_pedometer_walk_time:00000000 dmp_set_pedometer_walk_time
/var/folders/21/t9g5rlb91ys800n5npymflf80000gn/T//ccsHZoWN.s:2053   .text.dmp_set_pedometer_walk_time:0000003c $d
/var/folders/21/t9g5rlb91ys800n5npymflf80000gn/T//ccsHZoWN.s:2058   .text.dmp_get_enabled_features:00000000 $t
/var/folders/21/t9g5rlb91ys800n5npymflf80000gn/T//ccsHZoWN.s:2064   .text.dmp_get_enabled_features:00000000 dmp_get_enabled_features
/var/folders/21/t9g5rlb91ys800n5npymflf80000gn/T//ccsHZoWN.s:2087   .text.dmp_get_enabled_features:0000000c $d
/var/folders/21/t9g5rlb91ys800n5npymflf80000gn/T//ccsHZoWN.s:2092   .rodata.dmp_enable_gyro_cal.str1.4:00000000 $d
/var/folders/21/t9g5rlb91ys800n5npymflf80000gn/T//ccsHZoWN.s:2099   .text.dmp_enable_gyro_cal:00000000 $t
/var/folders/21/t9g5rlb91ys800n5npymflf80000gn/T//ccsHZoWN.s:2105   .text.dmp_enable_gyro_cal:00000000 dmp_enable_gyro_cal
/var/folders/21/t9g5rlb91ys800n5npymflf80000gn/T//ccsHZoWN.s:2174   .text.dmp_enable_gyro_cal:0000003c $d
/var/folders/21/t9g5rlb91ys800n5npymflf80000gn/T//ccsHZoWN.s:2181   .text.dmp_enable_lp_quat:00000000 $t
/var/folders/21/t9g5rlb91ys800n5npymflf80000gn/T//ccsHZoWN.s:2187   .text.dmp_enable_lp_quat:00000000 dmp_enable_lp_quat
/var/folders/21/t9g5rlb91ys800n5npymflf80000gn/T//ccsHZoWN.s:2254   .text.dmp_enable_6x_lp_quat:00000000 $t
/var/folders/21/t9g5rlb91ys800n5npymflf80000gn/T//ccsHZoWN.s:2260   .text.dmp_enable_6x_lp_quat:00000000 dmp_enable_6x_lp_quat
/var/folders/21/t9g5rlb91ys800n5npymflf80000gn/T//ccsHZoWN.s:2327   .text.dmp_enable_feature:00000000 $t
/var/folders/21/t9g5rlb91ys800n5npymflf80000gn/T//ccsHZoWN.s:2333   .text.dmp_enable_feature:00000000 dmp_enable_feature
/var/folders/21/t9g5rlb91ys800n5npymflf80000gn/T//ccsHZoWN.s:2723   .text.dmp_enable_feature:00000210 $d
/var/folders/21/t9g5rlb91ys800n5npymflf80000gn/T//ccsHZoWN.s:2729   .rodata.dmp_set_interrupt_mode.str1.4:00000000 $d
/var/folders/21/t9g5rlb91ys800n5npymflf80000gn/T//ccsHZoWN.s:2736   .text.dmp_set_interrupt_mode:00000000 $t
/var/folders/21/t9g5rlb91ys800n5npymflf80000gn/T//ccsHZoWN.s:2742   .text.dmp_set_interrupt_mode:00000000 dmp_set_interrupt_mode
/var/folders/21/t9g5rlb91ys800n5npymflf80000gn/T//ccsHZoWN.s:2813   .text.dmp_set_interrupt_mode:00000058 $d
/var/folders/21/t9g5rlb91ys800n5npymflf80000gn/T//ccsHZoWN.s:2819   .text.dmp_read_fifo:00000000 $t
/var/folders/21/t9g5rlb91ys800n5npymflf80000gn/T//ccsHZoWN.s:2825   .text.dmp_read_fifo:00000000 dmp_read_fifo
/var/folders/21/t9g5rlb91ys800n5npymflf80000gn/T//ccsHZoWN.s:3186   .text.dmp_read_fifo:000001e8 $d
/var/folders/21/t9g5rlb91ys800n5npymflf80000gn/T//ccsHZoWN.s:3191   .text.dmp_register_tap_cb:00000000 $t
/var/folders/21/t9g5rlb91ys800n5npymflf80000gn/T//ccsHZoWN.s:3197   .text.dmp_register_tap_cb:00000000 dmp_register_tap_cb
/var/folders/21/t9g5rlb91ys800n5npymflf80000gn/T//ccsHZoWN.s:3218   .text.dmp_register_tap_cb:00000008 $d
/var/folders/21/t9g5rlb91ys800n5npymflf80000gn/T//ccsHZoWN.s:3223   .text.dmp_register_android_orient_cb:00000000 $t
/var/folders/21/t9g5rlb91ys800n5npymflf80000gn/T//ccsHZoWN.s:3229   .text.dmp_register_android_orient_cb:00000000 dmp_register_android_orient_cb
/var/folders/21/t9g5rlb91ys800n5npymflf80000gn/T//ccsHZoWN.s:3250   .text.dmp_register_android_orient_cb:00000008 $d
/var/folders/21/t9g5rlb91ys800n5npymflf80000gn/T//ccsHZoWN.s:3255   .bss.dmp:00000000 $d
/var/folders/21/t9g5rlb91ys800n5npymflf80000gn/T//ccsHZoWN.s:3261   .rodata.dmp_memory:00000000 $d
/var/folders/21/t9g5rlb91ys800n5npymflf80000gn/T//ccsHZoWN.s:1033   .text.dmp_set_tap_thresh:00000051 $d
/var/folders/21/t9g5rlb91ys800n5npymflf80000gn/T//ccsHZoWN.s:1033   .text.dmp_set_tap_thresh:00000052 $t

UNDEFINED SYMBOLS
mpu_load_firmware
mpu_write_mem
mpu_get_accel_sens
mpu_get_accel_fsr
mpu_read_mem
mpu_reset_fifo
mpu_read_fifo_stream
mget_ms
