ARM GAS  /var/folders/21/t9g5rlb91ys800n5npymflf80000gn/T//ccj8QTAi.s 			page 1


   1              		.cpu cortex-m4
   2              		.arch armv7e-m
   3              		.fpu fpv4-sp-d16
   4              		.eabi_attribute 27, 1
   5              		.eabi_attribute 28, 1
   6              		.eabi_attribute 20, 1
   7              		.eabi_attribute 21, 1
   8              		.eabi_attribute 23, 3
   9              		.eabi_attribute 24, 1
  10              		.eabi_attribute 25, 1
  11              		.eabi_attribute 26, 1
  12              		.eabi_attribute 30, 1
  13              		.eabi_attribute 34, 1
  14              		.eabi_attribute 18, 4
  15              		.file	"lv_area.c"
  16              		.text
  17              	.Ltext0:
  18              		.cfi_sections	.debug_frame
  19              		.file 1 "lvgl/src/misc/lv_area.c"
  20              		.section	.text.lv_point_within_circle,"ax",%progbits
  21              		.align	1
  22              		.syntax unified
  23              		.thumb
  24              		.thumb_func
  26              	lv_point_within_circle:
  27              	.LVL0:
  28              	.LFB22:
   1:lvgl/src/misc/lv_area.c **** /**
   2:lvgl/src/misc/lv_area.c ****  * @file lv_area.c
   3:lvgl/src/misc/lv_area.c ****  *
   4:lvgl/src/misc/lv_area.c ****  */
   5:lvgl/src/misc/lv_area.c **** 
   6:lvgl/src/misc/lv_area.c **** /*********************
   7:lvgl/src/misc/lv_area.c ****  *      INCLUDES
   8:lvgl/src/misc/lv_area.c ****  *********************/
   9:lvgl/src/misc/lv_area.c **** #include "../lv_conf_internal.h"
  10:lvgl/src/misc/lv_area.c **** 
  11:lvgl/src/misc/lv_area.c **** #include "lv_area.h"
  12:lvgl/src/misc/lv_area.c **** #include "lv_math.h"
  13:lvgl/src/misc/lv_area.c **** 
  14:lvgl/src/misc/lv_area.c **** /*********************
  15:lvgl/src/misc/lv_area.c ****  *      DEFINES
  16:lvgl/src/misc/lv_area.c ****  *********************/
  17:lvgl/src/misc/lv_area.c **** 
  18:lvgl/src/misc/lv_area.c **** /**********************
  19:lvgl/src/misc/lv_area.c ****  *      TYPEDEFS
  20:lvgl/src/misc/lv_area.c ****  **********************/
  21:lvgl/src/misc/lv_area.c **** 
  22:lvgl/src/misc/lv_area.c **** /**********************
  23:lvgl/src/misc/lv_area.c ****  *  STATIC PROTOTYPES
  24:lvgl/src/misc/lv_area.c ****  **********************/
  25:lvgl/src/misc/lv_area.c **** 
  26:lvgl/src/misc/lv_area.c **** static bool lv_point_within_circle(const lv_area_t * area, const lv_point_t * p);
  27:lvgl/src/misc/lv_area.c **** 
  28:lvgl/src/misc/lv_area.c **** /**********************
  29:lvgl/src/misc/lv_area.c ****  *  STATIC VARIABLES
  30:lvgl/src/misc/lv_area.c ****  **********************/
ARM GAS  /var/folders/21/t9g5rlb91ys800n5npymflf80000gn/T//ccj8QTAi.s 			page 2


  31:lvgl/src/misc/lv_area.c **** 
  32:lvgl/src/misc/lv_area.c **** /**********************
  33:lvgl/src/misc/lv_area.c ****  *      MACROS
  34:lvgl/src/misc/lv_area.c ****  **********************/
  35:lvgl/src/misc/lv_area.c **** 
  36:lvgl/src/misc/lv_area.c **** /**********************
  37:lvgl/src/misc/lv_area.c ****  *   GLOBAL FUNCTIONS
  38:lvgl/src/misc/lv_area.c ****  **********************/
  39:lvgl/src/misc/lv_area.c **** 
  40:lvgl/src/misc/lv_area.c **** /**
  41:lvgl/src/misc/lv_area.c ****  * Initialize an area
  42:lvgl/src/misc/lv_area.c ****  * @param area_p pointer to an area
  43:lvgl/src/misc/lv_area.c ****  * @param x1 left coordinate of the area
  44:lvgl/src/misc/lv_area.c ****  * @param y1 top coordinate of the area
  45:lvgl/src/misc/lv_area.c ****  * @param x2 right coordinate of the area
  46:lvgl/src/misc/lv_area.c ****  * @param y2 bottom coordinate of the area
  47:lvgl/src/misc/lv_area.c ****  */
  48:lvgl/src/misc/lv_area.c **** void lv_area_set(lv_area_t * area_p, lv_coord_t x1, lv_coord_t y1, lv_coord_t x2, lv_coord_t y2)
  49:lvgl/src/misc/lv_area.c **** {
  50:lvgl/src/misc/lv_area.c ****     area_p->x1 = x1;
  51:lvgl/src/misc/lv_area.c ****     area_p->y1 = y1;
  52:lvgl/src/misc/lv_area.c ****     area_p->x2 = x2;
  53:lvgl/src/misc/lv_area.c ****     area_p->y2 = y2;
  54:lvgl/src/misc/lv_area.c **** }
  55:lvgl/src/misc/lv_area.c **** 
  56:lvgl/src/misc/lv_area.c **** /**
  57:lvgl/src/misc/lv_area.c ****  * Set the width of an area
  58:lvgl/src/misc/lv_area.c ****  * @param area_p pointer to an area
  59:lvgl/src/misc/lv_area.c ****  * @param w the new width of the area (w == 1 makes x1 == x2)
  60:lvgl/src/misc/lv_area.c ****  */
  61:lvgl/src/misc/lv_area.c **** void lv_area_set_width(lv_area_t * area_p, lv_coord_t w)
  62:lvgl/src/misc/lv_area.c **** {
  63:lvgl/src/misc/lv_area.c ****     area_p->x2 = area_p->x1 + w - 1;
  64:lvgl/src/misc/lv_area.c **** }
  65:lvgl/src/misc/lv_area.c **** 
  66:lvgl/src/misc/lv_area.c **** /**
  67:lvgl/src/misc/lv_area.c ****  * Set the height of an area
  68:lvgl/src/misc/lv_area.c ****  * @param area_p pointer to an area
  69:lvgl/src/misc/lv_area.c ****  * @param h the new height of the area (h == 1 makes y1 == y2)
  70:lvgl/src/misc/lv_area.c ****  */
  71:lvgl/src/misc/lv_area.c **** void lv_area_set_height(lv_area_t * area_p, lv_coord_t h)
  72:lvgl/src/misc/lv_area.c **** {
  73:lvgl/src/misc/lv_area.c ****     area_p->y2 = area_p->y1 + h - 1;
  74:lvgl/src/misc/lv_area.c **** }
  75:lvgl/src/misc/lv_area.c **** 
  76:lvgl/src/misc/lv_area.c **** /**
  77:lvgl/src/misc/lv_area.c ****  * Set the position of an area (width and height will be kept)
  78:lvgl/src/misc/lv_area.c ****  * @param area_p pointer to an area
  79:lvgl/src/misc/lv_area.c ****  * @param x the new x coordinate of the area
  80:lvgl/src/misc/lv_area.c ****  * @param y the new y coordinate of the area
  81:lvgl/src/misc/lv_area.c ****  */
  82:lvgl/src/misc/lv_area.c **** void _lv_area_set_pos(lv_area_t * area_p, lv_coord_t x, lv_coord_t y)
  83:lvgl/src/misc/lv_area.c **** {
  84:lvgl/src/misc/lv_area.c ****     lv_coord_t w = lv_area_get_width(area_p);
  85:lvgl/src/misc/lv_area.c ****     lv_coord_t h = lv_area_get_height(area_p);
  86:lvgl/src/misc/lv_area.c ****     area_p->x1   = x;
  87:lvgl/src/misc/lv_area.c ****     area_p->y1   = y;
ARM GAS  /var/folders/21/t9g5rlb91ys800n5npymflf80000gn/T//ccj8QTAi.s 			page 3


  88:lvgl/src/misc/lv_area.c ****     lv_area_set_width(area_p, w);
  89:lvgl/src/misc/lv_area.c ****     lv_area_set_height(area_p, h);
  90:lvgl/src/misc/lv_area.c **** }
  91:lvgl/src/misc/lv_area.c **** 
  92:lvgl/src/misc/lv_area.c **** /**
  93:lvgl/src/misc/lv_area.c ****  * Return with area of an area (x * y)
  94:lvgl/src/misc/lv_area.c ****  * @param area_p pointer to an area
  95:lvgl/src/misc/lv_area.c ****  * @return size of area
  96:lvgl/src/misc/lv_area.c ****  */
  97:lvgl/src/misc/lv_area.c **** uint32_t lv_area_get_size(const lv_area_t * area_p)
  98:lvgl/src/misc/lv_area.c **** {
  99:lvgl/src/misc/lv_area.c ****     uint32_t size;
 100:lvgl/src/misc/lv_area.c **** 
 101:lvgl/src/misc/lv_area.c ****     size = (uint32_t)(area_p->x2 - area_p->x1 + 1) * (area_p->y2 - area_p->y1 + 1);
 102:lvgl/src/misc/lv_area.c **** 
 103:lvgl/src/misc/lv_area.c ****     return size;
 104:lvgl/src/misc/lv_area.c **** }
 105:lvgl/src/misc/lv_area.c **** 
 106:lvgl/src/misc/lv_area.c **** void lv_area_increase(lv_area_t * area, lv_coord_t w_extra, lv_coord_t h_extra)
 107:lvgl/src/misc/lv_area.c **** {
 108:lvgl/src/misc/lv_area.c ****     area->x1 -= w_extra;
 109:lvgl/src/misc/lv_area.c ****     area->x2 += w_extra;
 110:lvgl/src/misc/lv_area.c ****     area->y1 -= h_extra;
 111:lvgl/src/misc/lv_area.c ****     area->y2 += h_extra;
 112:lvgl/src/misc/lv_area.c **** }
 113:lvgl/src/misc/lv_area.c **** 
 114:lvgl/src/misc/lv_area.c **** void lv_area_move(lv_area_t * area, lv_coord_t x_ofs, lv_coord_t y_ofs)
 115:lvgl/src/misc/lv_area.c **** {
 116:lvgl/src/misc/lv_area.c ****     area->x1 += x_ofs;
 117:lvgl/src/misc/lv_area.c ****     area->x2 += x_ofs;
 118:lvgl/src/misc/lv_area.c ****     area->y1 += y_ofs;
 119:lvgl/src/misc/lv_area.c ****     area->y2 += y_ofs;
 120:lvgl/src/misc/lv_area.c **** }
 121:lvgl/src/misc/lv_area.c **** 
 122:lvgl/src/misc/lv_area.c **** /**
 123:lvgl/src/misc/lv_area.c ****  * Get the common parts of two areas
 124:lvgl/src/misc/lv_area.c ****  * @param res_p pointer to an area, the result will be stored here
 125:lvgl/src/misc/lv_area.c ****  * @param a1_p pointer to the first area
 126:lvgl/src/misc/lv_area.c ****  * @param a2_p pointer to the second area
 127:lvgl/src/misc/lv_area.c ****  * @return false: the two area has NO common parts, res_p is invalid
 128:lvgl/src/misc/lv_area.c ****  */
 129:lvgl/src/misc/lv_area.c **** bool _lv_area_intersect(lv_area_t * res_p, const lv_area_t * a1_p, const lv_area_t * a2_p)
 130:lvgl/src/misc/lv_area.c **** {
 131:lvgl/src/misc/lv_area.c ****     /*Get the smaller area from 'a1_p' and 'a2_p'*/
 132:lvgl/src/misc/lv_area.c ****     res_p->x1 = LV_MAX(a1_p->x1, a2_p->x1);
 133:lvgl/src/misc/lv_area.c ****     res_p->y1 = LV_MAX(a1_p->y1, a2_p->y1);
 134:lvgl/src/misc/lv_area.c ****     res_p->x2 = LV_MIN(a1_p->x2, a2_p->x2);
 135:lvgl/src/misc/lv_area.c ****     res_p->y2 = LV_MIN(a1_p->y2, a2_p->y2);
 136:lvgl/src/misc/lv_area.c **** 
 137:lvgl/src/misc/lv_area.c ****     /*If x1 or y1 greater than x2 or y2 then the areas union is empty*/
 138:lvgl/src/misc/lv_area.c ****     bool union_ok = true;
 139:lvgl/src/misc/lv_area.c ****     if((res_p->x1 > res_p->x2) || (res_p->y1 > res_p->y2)) {
 140:lvgl/src/misc/lv_area.c ****         union_ok = false;
 141:lvgl/src/misc/lv_area.c ****     }
 142:lvgl/src/misc/lv_area.c **** 
 143:lvgl/src/misc/lv_area.c ****     return union_ok;
 144:lvgl/src/misc/lv_area.c **** }
ARM GAS  /var/folders/21/t9g5rlb91ys800n5npymflf80000gn/T//ccj8QTAi.s 			page 4


 145:lvgl/src/misc/lv_area.c **** 
 146:lvgl/src/misc/lv_area.c **** /**
 147:lvgl/src/misc/lv_area.c ****  * Get resulting sub areas after removing the common parts of two areas from the first area
 148:lvgl/src/misc/lv_area.c ****  * @param res_p pointer to an array of areas with a count of 4, the resulting areas will be stored 
 149:lvgl/src/misc/lv_area.c ****  * @param a1_p pointer to the first area
 150:lvgl/src/misc/lv_area.c ****  * @param a2_p pointer to the second area
 151:lvgl/src/misc/lv_area.c ****  * @return number of results or -1 if no intersect
 152:lvgl/src/misc/lv_area.c ****  */
 153:lvgl/src/misc/lv_area.c **** int8_t _lv_area_diff(lv_area_t * res_p, const lv_area_t * a1_p, const lv_area_t * a2_p)
 154:lvgl/src/misc/lv_area.c **** {
 155:lvgl/src/misc/lv_area.c ****     /*Areas have no common parts*/
 156:lvgl/src/misc/lv_area.c ****     if(!_lv_area_is_on(a1_p, a2_p)) return -1;
 157:lvgl/src/misc/lv_area.c **** 
 158:lvgl/src/misc/lv_area.c ****     /*No remaining areas after removing common parts*/
 159:lvgl/src/misc/lv_area.c ****     if(_lv_area_is_in(a1_p, a2_p, 0)) return 0;
 160:lvgl/src/misc/lv_area.c **** 
 161:lvgl/src/misc/lv_area.c ****     /*Result counter*/
 162:lvgl/src/misc/lv_area.c ****     int8_t res_c = 0;
 163:lvgl/src/misc/lv_area.c **** 
 164:lvgl/src/misc/lv_area.c ****     /*Get required information*/
 165:lvgl/src/misc/lv_area.c ****     lv_area_t n;
 166:lvgl/src/misc/lv_area.c ****     lv_coord_t a1_w = lv_area_get_width(a1_p) - 1;
 167:lvgl/src/misc/lv_area.c ****     lv_coord_t a1_h = lv_area_get_height(a1_p) - 1;
 168:lvgl/src/misc/lv_area.c **** 
 169:lvgl/src/misc/lv_area.c ****     /*Compute top rectangle*/
 170:lvgl/src/misc/lv_area.c ****     lv_coord_t th = a2_p->y1 - a1_p->y1;
 171:lvgl/src/misc/lv_area.c ****     if(th > 0) {
 172:lvgl/src/misc/lv_area.c ****         n.x1 = a1_p->x1;
 173:lvgl/src/misc/lv_area.c ****         n.y1 = a1_p->y1;
 174:lvgl/src/misc/lv_area.c ****         n.x2 = a1_p->x2;
 175:lvgl/src/misc/lv_area.c ****         n.y2 = a1_p->y1 + th;
 176:lvgl/src/misc/lv_area.c ****         res_p[res_c++] = n;
 177:lvgl/src/misc/lv_area.c ****     }
 178:lvgl/src/misc/lv_area.c **** 
 179:lvgl/src/misc/lv_area.c ****     /*Compute the bottom rectangle*/
 180:lvgl/src/misc/lv_area.c ****     lv_coord_t bh = a1_h - (a2_p->y2 - a1_p->y1);
 181:lvgl/src/misc/lv_area.c ****     if(bh > 0 && a2_p->y2 < a1_p->y2) {
 182:lvgl/src/misc/lv_area.c ****         n.x1 = a1_p->x1;
 183:lvgl/src/misc/lv_area.c ****         n.y1 = a2_p->y2;
 184:lvgl/src/misc/lv_area.c ****         n.x2 = a1_p->x2;
 185:lvgl/src/misc/lv_area.c ****         n.y2 = a2_p->y2 + bh;
 186:lvgl/src/misc/lv_area.c ****         res_p[res_c++] = n;
 187:lvgl/src/misc/lv_area.c ****     }
 188:lvgl/src/misc/lv_area.c **** 
 189:lvgl/src/misc/lv_area.c ****     /*Compute side height*/
 190:lvgl/src/misc/lv_area.c ****     lv_coord_t y1 = a2_p->y1 > a1_p->y1 ? a2_p->y1 : a1_p->y1;
 191:lvgl/src/misc/lv_area.c ****     lv_coord_t y2 = a2_p->y2 < a1_p->y2 ? a2_p->y2 : a1_p->y2;
 192:lvgl/src/misc/lv_area.c ****     lv_coord_t sh = y2 - y1;
 193:lvgl/src/misc/lv_area.c **** 
 194:lvgl/src/misc/lv_area.c ****     /*Compute the left rectangle*/
 195:lvgl/src/misc/lv_area.c ****     lv_coord_t lw = a2_p->x1 - a1_p->x1;
 196:lvgl/src/misc/lv_area.c ****     if(lw > 0 && sh > 0) {
 197:lvgl/src/misc/lv_area.c ****         n.x1 = a1_p->x1;
 198:lvgl/src/misc/lv_area.c ****         n.y1 = y1;
 199:lvgl/src/misc/lv_area.c ****         n.x2 = a1_p->x1 + lw;
 200:lvgl/src/misc/lv_area.c ****         n.y2 = y1 + sh;
 201:lvgl/src/misc/lv_area.c ****         res_p[res_c++] = n;
ARM GAS  /var/folders/21/t9g5rlb91ys800n5npymflf80000gn/T//ccj8QTAi.s 			page 5


 202:lvgl/src/misc/lv_area.c ****     }
 203:lvgl/src/misc/lv_area.c **** 
 204:lvgl/src/misc/lv_area.c ****     /*Compute the right rectangle*/
 205:lvgl/src/misc/lv_area.c ****     lv_coord_t rw = a1_w - (a2_p->x2 - a1_p->x1);
 206:lvgl/src/misc/lv_area.c ****     if(rw > 0) {
 207:lvgl/src/misc/lv_area.c ****         n.x1 = a2_p->x2;
 208:lvgl/src/misc/lv_area.c ****         n.y1 = y1;
 209:lvgl/src/misc/lv_area.c ****         n.x2 = a2_p->x2 + rw;
 210:lvgl/src/misc/lv_area.c ****         n.y2 = y1 + sh;
 211:lvgl/src/misc/lv_area.c ****         res_p[res_c++] = n;
 212:lvgl/src/misc/lv_area.c ****     }
 213:lvgl/src/misc/lv_area.c **** 
 214:lvgl/src/misc/lv_area.c ****     //Return number of results
 215:lvgl/src/misc/lv_area.c ****     return res_c;
 216:lvgl/src/misc/lv_area.c **** }
 217:lvgl/src/misc/lv_area.c **** 
 218:lvgl/src/misc/lv_area.c **** /**
 219:lvgl/src/misc/lv_area.c ****  * Join two areas into a third which involves the other two
 220:lvgl/src/misc/lv_area.c ****  * @param res_p pointer to an area, the result will be stored here
 221:lvgl/src/misc/lv_area.c ****  * @param a1_p pointer to the first area
 222:lvgl/src/misc/lv_area.c ****  * @param a2_p pointer to the second area
 223:lvgl/src/misc/lv_area.c ****  */
 224:lvgl/src/misc/lv_area.c **** void _lv_area_join(lv_area_t * a_res_p, const lv_area_t * a1_p, const lv_area_t * a2_p)
 225:lvgl/src/misc/lv_area.c **** {
 226:lvgl/src/misc/lv_area.c ****     a_res_p->x1 = LV_MIN(a1_p->x1, a2_p->x1);
 227:lvgl/src/misc/lv_area.c ****     a_res_p->y1 = LV_MIN(a1_p->y1, a2_p->y1);
 228:lvgl/src/misc/lv_area.c ****     a_res_p->x2 = LV_MAX(a1_p->x2, a2_p->x2);
 229:lvgl/src/misc/lv_area.c ****     a_res_p->y2 = LV_MAX(a1_p->y2, a2_p->y2);
 230:lvgl/src/misc/lv_area.c **** }
 231:lvgl/src/misc/lv_area.c **** 
 232:lvgl/src/misc/lv_area.c **** /**
 233:lvgl/src/misc/lv_area.c ****  * Check if a point is on an area
 234:lvgl/src/misc/lv_area.c ****  * @param a_p pointer to an area
 235:lvgl/src/misc/lv_area.c ****  * @param p_p pointer to a point
 236:lvgl/src/misc/lv_area.c ****  * @param radius radius of area (e.g. for rounded rectangle)
 237:lvgl/src/misc/lv_area.c ****  * @return false:the point is out of the area
 238:lvgl/src/misc/lv_area.c ****  */
 239:lvgl/src/misc/lv_area.c **** bool _lv_area_is_point_on(const lv_area_t * a_p, const lv_point_t * p_p, lv_coord_t radius)
 240:lvgl/src/misc/lv_area.c **** {
 241:lvgl/src/misc/lv_area.c ****     /*First check the basic area*/
 242:lvgl/src/misc/lv_area.c ****     bool is_on_rect = false;
 243:lvgl/src/misc/lv_area.c ****     if((p_p->x >= a_p->x1 && p_p->x <= a_p->x2) && ((p_p->y >= a_p->y1 && p_p->y <= a_p->y2))) {
 244:lvgl/src/misc/lv_area.c ****         is_on_rect = true;
 245:lvgl/src/misc/lv_area.c ****     }
 246:lvgl/src/misc/lv_area.c ****     if(!is_on_rect)
 247:lvgl/src/misc/lv_area.c ****         return false;
 248:lvgl/src/misc/lv_area.c ****     /*Now handle potential rounded rectangles*/
 249:lvgl/src/misc/lv_area.c ****     if(radius <= 0) {
 250:lvgl/src/misc/lv_area.c ****         /*No radius, it is within the rectangle*/
 251:lvgl/src/misc/lv_area.c ****         return true;
 252:lvgl/src/misc/lv_area.c ****     }
 253:lvgl/src/misc/lv_area.c ****     lv_coord_t w = lv_area_get_width(a_p) / 2;
 254:lvgl/src/misc/lv_area.c ****     lv_coord_t h = lv_area_get_height(a_p) / 2;
 255:lvgl/src/misc/lv_area.c ****     lv_coord_t max_radius = LV_MIN(w, h);
 256:lvgl/src/misc/lv_area.c ****     if(radius > max_radius)
 257:lvgl/src/misc/lv_area.c ****         radius = max_radius;
 258:lvgl/src/misc/lv_area.c **** 
ARM GAS  /var/folders/21/t9g5rlb91ys800n5npymflf80000gn/T//ccj8QTAi.s 			page 6


 259:lvgl/src/misc/lv_area.c ****     /*Check if it's in one of the corners*/
 260:lvgl/src/misc/lv_area.c ****     lv_area_t corner_area;
 261:lvgl/src/misc/lv_area.c ****     /*Top left*/
 262:lvgl/src/misc/lv_area.c ****     corner_area.x1 = a_p->x1;
 263:lvgl/src/misc/lv_area.c ****     corner_area.x2 = a_p->x1 + radius;
 264:lvgl/src/misc/lv_area.c ****     corner_area.y1 = a_p->y1;
 265:lvgl/src/misc/lv_area.c ****     corner_area.y2 = a_p->y1 + radius;
 266:lvgl/src/misc/lv_area.c ****     if(_lv_area_is_point_on(&corner_area, p_p, 0)) {
 267:lvgl/src/misc/lv_area.c ****         corner_area.x2 += radius;
 268:lvgl/src/misc/lv_area.c ****         corner_area.y2 += radius;
 269:lvgl/src/misc/lv_area.c ****         return lv_point_within_circle(&corner_area, p_p);
 270:lvgl/src/misc/lv_area.c ****     }
 271:lvgl/src/misc/lv_area.c ****     /*Bottom left*/
 272:lvgl/src/misc/lv_area.c ****     corner_area.y1 = a_p->y2 - radius;
 273:lvgl/src/misc/lv_area.c ****     corner_area.y2 = a_p->y2;
 274:lvgl/src/misc/lv_area.c ****     if(_lv_area_is_point_on(&corner_area, p_p, 0)) {
 275:lvgl/src/misc/lv_area.c ****         corner_area.x2 += radius;
 276:lvgl/src/misc/lv_area.c ****         corner_area.y1 -= radius;
 277:lvgl/src/misc/lv_area.c ****         return lv_point_within_circle(&corner_area, p_p);
 278:lvgl/src/misc/lv_area.c ****     }
 279:lvgl/src/misc/lv_area.c ****     /*Bottom right*/
 280:lvgl/src/misc/lv_area.c ****     corner_area.x1 = a_p->x2 - radius;
 281:lvgl/src/misc/lv_area.c ****     corner_area.x2 = a_p->x2;
 282:lvgl/src/misc/lv_area.c ****     if(_lv_area_is_point_on(&corner_area, p_p, 0)) {
 283:lvgl/src/misc/lv_area.c ****         corner_area.x1 -= radius;
 284:lvgl/src/misc/lv_area.c ****         corner_area.y1 -= radius;
 285:lvgl/src/misc/lv_area.c ****         return lv_point_within_circle(&corner_area, p_p);
 286:lvgl/src/misc/lv_area.c ****     }
 287:lvgl/src/misc/lv_area.c ****     /*Top right*/
 288:lvgl/src/misc/lv_area.c ****     corner_area.y1 = a_p->y1;
 289:lvgl/src/misc/lv_area.c ****     corner_area.y2 = a_p->y1 + radius;
 290:lvgl/src/misc/lv_area.c ****     if(_lv_area_is_point_on(&corner_area, p_p, 0)) {
 291:lvgl/src/misc/lv_area.c ****         corner_area.x1 -= radius;
 292:lvgl/src/misc/lv_area.c ****         corner_area.y2 += radius;
 293:lvgl/src/misc/lv_area.c ****         return lv_point_within_circle(&corner_area, p_p);
 294:lvgl/src/misc/lv_area.c ****     }
 295:lvgl/src/misc/lv_area.c ****     /*Not within corners*/
 296:lvgl/src/misc/lv_area.c ****     return true;
 297:lvgl/src/misc/lv_area.c **** }
 298:lvgl/src/misc/lv_area.c **** 
 299:lvgl/src/misc/lv_area.c **** /**
 300:lvgl/src/misc/lv_area.c ****  * Check if two area has common parts
 301:lvgl/src/misc/lv_area.c ****  * @param a1_p pointer to an area.
 302:lvgl/src/misc/lv_area.c ****  * @param a2_p pointer to an other area
 303:lvgl/src/misc/lv_area.c ****  * @return false: a1_p and a2_p has no common parts
 304:lvgl/src/misc/lv_area.c ****  */
 305:lvgl/src/misc/lv_area.c **** bool _lv_area_is_on(const lv_area_t * a1_p, const lv_area_t * a2_p)
 306:lvgl/src/misc/lv_area.c **** {
 307:lvgl/src/misc/lv_area.c ****     if((a1_p->x1 <= a2_p->x2) && (a1_p->x2 >= a2_p->x1) && (a1_p->y1 <= a2_p->y2) && (a1_p->y2 >= a
 308:lvgl/src/misc/lv_area.c ****         return true;
 309:lvgl/src/misc/lv_area.c ****     }
 310:lvgl/src/misc/lv_area.c ****     else {
 311:lvgl/src/misc/lv_area.c ****         return false;
 312:lvgl/src/misc/lv_area.c ****     }
 313:lvgl/src/misc/lv_area.c **** }
 314:lvgl/src/misc/lv_area.c **** 
 315:lvgl/src/misc/lv_area.c **** /**
ARM GAS  /var/folders/21/t9g5rlb91ys800n5npymflf80000gn/T//ccj8QTAi.s 			page 7


 316:lvgl/src/misc/lv_area.c ****  * Check if an area is fully on an other
 317:lvgl/src/misc/lv_area.c ****  * @param ain_p pointer to an area which could be in 'aholder_p'
 318:lvgl/src/misc/lv_area.c ****  * @param aholder_p pointer to an area which could involve 'ain_p'
 319:lvgl/src/misc/lv_area.c ****  * @param radius radius of `aholder_p` (e.g. for rounded rectangle)
 320:lvgl/src/misc/lv_area.c ****  * @return true: `ain_p` is fully inside `aholder_p`
 321:lvgl/src/misc/lv_area.c ****  */
 322:lvgl/src/misc/lv_area.c **** bool _lv_area_is_in(const lv_area_t * ain_p, const lv_area_t * aholder_p, lv_coord_t radius)
 323:lvgl/src/misc/lv_area.c **** {
 324:lvgl/src/misc/lv_area.c ****     bool is_in = false;
 325:lvgl/src/misc/lv_area.c **** 
 326:lvgl/src/misc/lv_area.c ****     if(ain_p->x1 >= aholder_p->x1 && ain_p->y1 >= aholder_p->y1 && ain_p->x2 <= aholder_p->x2 &&
 327:lvgl/src/misc/lv_area.c ****        ain_p->y2 <= aholder_p->y2) {
 328:lvgl/src/misc/lv_area.c ****         is_in = true;
 329:lvgl/src/misc/lv_area.c ****     }
 330:lvgl/src/misc/lv_area.c **** 
 331:lvgl/src/misc/lv_area.c ****     if(!is_in) return false;
 332:lvgl/src/misc/lv_area.c ****     if(radius == 0) return true;
 333:lvgl/src/misc/lv_area.c **** 
 334:lvgl/src/misc/lv_area.c ****     /*Check if the corner points are inside the radius or not*/
 335:lvgl/src/misc/lv_area.c ****     lv_point_t p;
 336:lvgl/src/misc/lv_area.c **** 
 337:lvgl/src/misc/lv_area.c ****     p.x = ain_p->x1;
 338:lvgl/src/misc/lv_area.c ****     p.y = ain_p->y1;
 339:lvgl/src/misc/lv_area.c ****     if(_lv_area_is_point_on(aholder_p, &p, radius) == false) return false;
 340:lvgl/src/misc/lv_area.c **** 
 341:lvgl/src/misc/lv_area.c ****     p.x = ain_p->x2;
 342:lvgl/src/misc/lv_area.c ****     p.y = ain_p->y1;
 343:lvgl/src/misc/lv_area.c ****     if(_lv_area_is_point_on(aholder_p, &p, radius) == false) return false;
 344:lvgl/src/misc/lv_area.c **** 
 345:lvgl/src/misc/lv_area.c ****     p.x = ain_p->x1;
 346:lvgl/src/misc/lv_area.c ****     p.y = ain_p->y2;
 347:lvgl/src/misc/lv_area.c ****     if(_lv_area_is_point_on(aholder_p, &p, radius) == false) return false;
 348:lvgl/src/misc/lv_area.c **** 
 349:lvgl/src/misc/lv_area.c ****     p.x = ain_p->x2;
 350:lvgl/src/misc/lv_area.c ****     p.y = ain_p->y2;
 351:lvgl/src/misc/lv_area.c ****     if(_lv_area_is_point_on(aholder_p, &p, radius) == false) return false;
 352:lvgl/src/misc/lv_area.c **** 
 353:lvgl/src/misc/lv_area.c ****     return true;
 354:lvgl/src/misc/lv_area.c **** }
 355:lvgl/src/misc/lv_area.c **** 
 356:lvgl/src/misc/lv_area.c **** /**
 357:lvgl/src/misc/lv_area.c ****  * Check if an area is fully out of an other
 358:lvgl/src/misc/lv_area.c ****  * @param aout_p pointer to an area which could be in 'aholder_p'
 359:lvgl/src/misc/lv_area.c ****  * @param aholder_p pointer to an area which could involve 'ain_p'
 360:lvgl/src/misc/lv_area.c ****  * @param radius radius of `aholder_p` (e.g. for rounded rectangle)
 361:lvgl/src/misc/lv_area.c ****  * @return true: `aout_p` is fully outside `aholder_p`
 362:lvgl/src/misc/lv_area.c ****  */
 363:lvgl/src/misc/lv_area.c **** bool _lv_area_is_out(const lv_area_t * aout_p, const lv_area_t * aholder_p, lv_coord_t radius)
 364:lvgl/src/misc/lv_area.c **** {
 365:lvgl/src/misc/lv_area.c ****     if(aout_p->x2 < aholder_p->x1 || aout_p->y2 < aholder_p->y1 || aout_p->x1 > aholder_p->x2 ||
 366:lvgl/src/misc/lv_area.c ****        aout_p->y1 > aholder_p->y2) {
 367:lvgl/src/misc/lv_area.c ****         return true;
 368:lvgl/src/misc/lv_area.c ****     }
 369:lvgl/src/misc/lv_area.c **** 
 370:lvgl/src/misc/lv_area.c ****     if(radius == 0) return false;
 371:lvgl/src/misc/lv_area.c **** 
 372:lvgl/src/misc/lv_area.c ****     /*Check if the corner points are outside the radius or not*/
ARM GAS  /var/folders/21/t9g5rlb91ys800n5npymflf80000gn/T//ccj8QTAi.s 			page 8


 373:lvgl/src/misc/lv_area.c ****     lv_point_t p;
 374:lvgl/src/misc/lv_area.c **** 
 375:lvgl/src/misc/lv_area.c ****     p.x = aout_p->x1;
 376:lvgl/src/misc/lv_area.c ****     p.y = aout_p->y1;
 377:lvgl/src/misc/lv_area.c ****     if(_lv_area_is_point_on(aholder_p, &p, radius)) return false;
 378:lvgl/src/misc/lv_area.c **** 
 379:lvgl/src/misc/lv_area.c ****     p.x = aout_p->x2;
 380:lvgl/src/misc/lv_area.c ****     p.y = aout_p->y1;
 381:lvgl/src/misc/lv_area.c ****     if(_lv_area_is_point_on(aholder_p, &p, radius)) return false;
 382:lvgl/src/misc/lv_area.c **** 
 383:lvgl/src/misc/lv_area.c ****     p.x = aout_p->x1;
 384:lvgl/src/misc/lv_area.c ****     p.y = aout_p->y2;
 385:lvgl/src/misc/lv_area.c ****     if(_lv_area_is_point_on(aholder_p, &p, radius)) return false;
 386:lvgl/src/misc/lv_area.c **** 
 387:lvgl/src/misc/lv_area.c ****     p.x = aout_p->x2;
 388:lvgl/src/misc/lv_area.c ****     p.y = aout_p->y2;
 389:lvgl/src/misc/lv_area.c ****     if(_lv_area_is_point_on(aholder_p, &p, radius)) return false;
 390:lvgl/src/misc/lv_area.c **** 
 391:lvgl/src/misc/lv_area.c ****     return true;
 392:lvgl/src/misc/lv_area.c **** }
 393:lvgl/src/misc/lv_area.c **** 
 394:lvgl/src/misc/lv_area.c **** bool _lv_area_is_equal(const lv_area_t * a, const lv_area_t * b)
 395:lvgl/src/misc/lv_area.c **** {
 396:lvgl/src/misc/lv_area.c ****     return a->x1 == b->x1 && a->x2 == b->x2 && a->y1 == b->y1 && a->y2 == b->y2;
 397:lvgl/src/misc/lv_area.c **** }
 398:lvgl/src/misc/lv_area.c **** 
 399:lvgl/src/misc/lv_area.c **** /**
 400:lvgl/src/misc/lv_area.c ****  * Align an area to an other
 401:lvgl/src/misc/lv_area.c ****  * @param base an are where the other will be aligned
 402:lvgl/src/misc/lv_area.c ****  * @param to_align the area to align
 403:lvgl/src/misc/lv_area.c ****  * @param align `LV_ALIGN_...`
 404:lvgl/src/misc/lv_area.c ****  * @param res x/y coordinates where `to_align` align area should be placed
 405:lvgl/src/misc/lv_area.c ****  */
 406:lvgl/src/misc/lv_area.c **** void lv_area_align(const lv_area_t * base, lv_area_t * to_align, lv_align_t align, lv_coord_t ofs_x
 407:lvgl/src/misc/lv_area.c **** {
 408:lvgl/src/misc/lv_area.c **** 
 409:lvgl/src/misc/lv_area.c ****     lv_coord_t x;
 410:lvgl/src/misc/lv_area.c ****     lv_coord_t y;
 411:lvgl/src/misc/lv_area.c ****     switch(align) {
 412:lvgl/src/misc/lv_area.c ****         case LV_ALIGN_CENTER:
 413:lvgl/src/misc/lv_area.c ****             x = lv_area_get_width(base) / 2 - lv_area_get_width(to_align) / 2;
 414:lvgl/src/misc/lv_area.c ****             y = lv_area_get_height(base) / 2 - lv_area_get_height(to_align) / 2;
 415:lvgl/src/misc/lv_area.c ****             break;
 416:lvgl/src/misc/lv_area.c **** 
 417:lvgl/src/misc/lv_area.c ****         case LV_ALIGN_TOP_LEFT:
 418:lvgl/src/misc/lv_area.c ****             x = 0;
 419:lvgl/src/misc/lv_area.c ****             y = 0;
 420:lvgl/src/misc/lv_area.c ****             break;
 421:lvgl/src/misc/lv_area.c ****         case LV_ALIGN_TOP_MID:
 422:lvgl/src/misc/lv_area.c ****             x = lv_area_get_width(base) / 2 - lv_area_get_width(to_align) / 2;
 423:lvgl/src/misc/lv_area.c ****             y = 0;
 424:lvgl/src/misc/lv_area.c ****             break;
 425:lvgl/src/misc/lv_area.c **** 
 426:lvgl/src/misc/lv_area.c ****         case LV_ALIGN_TOP_RIGHT:
 427:lvgl/src/misc/lv_area.c ****             x = lv_area_get_width(base) - lv_area_get_width(to_align);
 428:lvgl/src/misc/lv_area.c ****             y = 0;
 429:lvgl/src/misc/lv_area.c ****             break;
ARM GAS  /var/folders/21/t9g5rlb91ys800n5npymflf80000gn/T//ccj8QTAi.s 			page 9


 430:lvgl/src/misc/lv_area.c **** 
 431:lvgl/src/misc/lv_area.c ****         case LV_ALIGN_BOTTOM_LEFT:
 432:lvgl/src/misc/lv_area.c ****             x = 0;
 433:lvgl/src/misc/lv_area.c ****             y = lv_area_get_height(base) - lv_area_get_height(to_align);
 434:lvgl/src/misc/lv_area.c ****             break;
 435:lvgl/src/misc/lv_area.c ****         case LV_ALIGN_BOTTOM_MID:
 436:lvgl/src/misc/lv_area.c ****             x = lv_area_get_width(base) / 2 - lv_area_get_width(to_align) / 2;
 437:lvgl/src/misc/lv_area.c ****             y = lv_area_get_height(base) - lv_area_get_height(to_align);
 438:lvgl/src/misc/lv_area.c ****             break;
 439:lvgl/src/misc/lv_area.c **** 
 440:lvgl/src/misc/lv_area.c ****         case LV_ALIGN_BOTTOM_RIGHT:
 441:lvgl/src/misc/lv_area.c ****             x = lv_area_get_width(base) - lv_area_get_width(to_align);
 442:lvgl/src/misc/lv_area.c ****             y = lv_area_get_height(base) - lv_area_get_height(to_align);
 443:lvgl/src/misc/lv_area.c ****             break;
 444:lvgl/src/misc/lv_area.c **** 
 445:lvgl/src/misc/lv_area.c ****         case LV_ALIGN_LEFT_MID:
 446:lvgl/src/misc/lv_area.c ****             x = 0;
 447:lvgl/src/misc/lv_area.c ****             y = lv_area_get_height(base) / 2 - lv_area_get_height(to_align) / 2;
 448:lvgl/src/misc/lv_area.c ****             break;
 449:lvgl/src/misc/lv_area.c **** 
 450:lvgl/src/misc/lv_area.c ****         case LV_ALIGN_RIGHT_MID:
 451:lvgl/src/misc/lv_area.c ****             x = lv_area_get_width(base) - lv_area_get_width(to_align);
 452:lvgl/src/misc/lv_area.c ****             y = lv_area_get_height(base) / 2 - lv_area_get_height(to_align) / 2;
 453:lvgl/src/misc/lv_area.c ****             break;
 454:lvgl/src/misc/lv_area.c **** 
 455:lvgl/src/misc/lv_area.c ****         case LV_ALIGN_OUT_TOP_LEFT:
 456:lvgl/src/misc/lv_area.c ****             x = 0;
 457:lvgl/src/misc/lv_area.c ****             y = -lv_area_get_height(to_align);
 458:lvgl/src/misc/lv_area.c ****             break;
 459:lvgl/src/misc/lv_area.c **** 
 460:lvgl/src/misc/lv_area.c ****         case LV_ALIGN_OUT_TOP_MID:
 461:lvgl/src/misc/lv_area.c ****             x = lv_area_get_width(base) / 2 - lv_area_get_width(to_align) / 2;
 462:lvgl/src/misc/lv_area.c ****             y = -lv_area_get_height(to_align);
 463:lvgl/src/misc/lv_area.c ****             break;
 464:lvgl/src/misc/lv_area.c **** 
 465:lvgl/src/misc/lv_area.c ****         case LV_ALIGN_OUT_TOP_RIGHT:
 466:lvgl/src/misc/lv_area.c ****             x = lv_area_get_width(base) - lv_area_get_width(to_align);
 467:lvgl/src/misc/lv_area.c ****             y = -lv_area_get_height(to_align);
 468:lvgl/src/misc/lv_area.c ****             break;
 469:lvgl/src/misc/lv_area.c **** 
 470:lvgl/src/misc/lv_area.c ****         case LV_ALIGN_OUT_BOTTOM_LEFT:
 471:lvgl/src/misc/lv_area.c ****             x = 0;
 472:lvgl/src/misc/lv_area.c ****             y = lv_area_get_height(base);
 473:lvgl/src/misc/lv_area.c ****             break;
 474:lvgl/src/misc/lv_area.c **** 
 475:lvgl/src/misc/lv_area.c ****         case LV_ALIGN_OUT_BOTTOM_MID:
 476:lvgl/src/misc/lv_area.c ****             x = lv_area_get_width(base) / 2 - lv_area_get_width(to_align) / 2;
 477:lvgl/src/misc/lv_area.c ****             y = lv_area_get_height(base);
 478:lvgl/src/misc/lv_area.c ****             break;
 479:lvgl/src/misc/lv_area.c **** 
 480:lvgl/src/misc/lv_area.c ****         case LV_ALIGN_OUT_BOTTOM_RIGHT:
 481:lvgl/src/misc/lv_area.c ****             x = lv_area_get_width(base) - lv_area_get_width(to_align);
 482:lvgl/src/misc/lv_area.c ****             y = lv_area_get_height(base);
 483:lvgl/src/misc/lv_area.c ****             break;
 484:lvgl/src/misc/lv_area.c **** 
 485:lvgl/src/misc/lv_area.c ****         case LV_ALIGN_OUT_LEFT_TOP:
 486:lvgl/src/misc/lv_area.c ****             x = -lv_area_get_width(to_align);
ARM GAS  /var/folders/21/t9g5rlb91ys800n5npymflf80000gn/T//ccj8QTAi.s 			page 10


 487:lvgl/src/misc/lv_area.c ****             y = 0;
 488:lvgl/src/misc/lv_area.c ****             break;
 489:lvgl/src/misc/lv_area.c **** 
 490:lvgl/src/misc/lv_area.c ****         case LV_ALIGN_OUT_LEFT_MID:
 491:lvgl/src/misc/lv_area.c ****             x = -lv_area_get_width(to_align);
 492:lvgl/src/misc/lv_area.c ****             y = lv_area_get_height(base) / 2 - lv_area_get_height(to_align) / 2;
 493:lvgl/src/misc/lv_area.c ****             break;
 494:lvgl/src/misc/lv_area.c **** 
 495:lvgl/src/misc/lv_area.c ****         case LV_ALIGN_OUT_LEFT_BOTTOM:
 496:lvgl/src/misc/lv_area.c ****             x = -lv_area_get_width(to_align);
 497:lvgl/src/misc/lv_area.c ****             y = lv_area_get_height(base) - lv_area_get_height(to_align);
 498:lvgl/src/misc/lv_area.c ****             break;
 499:lvgl/src/misc/lv_area.c **** 
 500:lvgl/src/misc/lv_area.c ****         case LV_ALIGN_OUT_RIGHT_TOP:
 501:lvgl/src/misc/lv_area.c ****             x = lv_area_get_width(base);
 502:lvgl/src/misc/lv_area.c ****             y = 0;
 503:lvgl/src/misc/lv_area.c ****             break;
 504:lvgl/src/misc/lv_area.c **** 
 505:lvgl/src/misc/lv_area.c ****         case LV_ALIGN_OUT_RIGHT_MID:
 506:lvgl/src/misc/lv_area.c ****             x = lv_area_get_width(base);
 507:lvgl/src/misc/lv_area.c ****             y = lv_area_get_height(base) / 2 - lv_area_get_height(to_align) / 2;
 508:lvgl/src/misc/lv_area.c ****             break;
 509:lvgl/src/misc/lv_area.c **** 
 510:lvgl/src/misc/lv_area.c ****         case LV_ALIGN_OUT_RIGHT_BOTTOM:
 511:lvgl/src/misc/lv_area.c ****             x = lv_area_get_width(base);
 512:lvgl/src/misc/lv_area.c ****             y = lv_area_get_height(base) - lv_area_get_height(to_align);
 513:lvgl/src/misc/lv_area.c ****             break;
 514:lvgl/src/misc/lv_area.c ****         default:
 515:lvgl/src/misc/lv_area.c ****             x = 0;
 516:lvgl/src/misc/lv_area.c ****             y = 0;
 517:lvgl/src/misc/lv_area.c ****             break;
 518:lvgl/src/misc/lv_area.c ****     }
 519:lvgl/src/misc/lv_area.c **** 
 520:lvgl/src/misc/lv_area.c ****     x += base->x1;
 521:lvgl/src/misc/lv_area.c ****     y += base->y1;
 522:lvgl/src/misc/lv_area.c **** 
 523:lvgl/src/misc/lv_area.c ****     lv_coord_t w = lv_area_get_width(to_align);
 524:lvgl/src/misc/lv_area.c ****     lv_coord_t h = lv_area_get_height(to_align);
 525:lvgl/src/misc/lv_area.c ****     to_align->x1 = x + ofs_x;
 526:lvgl/src/misc/lv_area.c ****     to_align->y1 = y + ofs_y;
 527:lvgl/src/misc/lv_area.c ****     to_align->x2 = to_align->x1 + w - 1;
 528:lvgl/src/misc/lv_area.c ****     to_align->y2 = to_align->y1 + h - 1;
 529:lvgl/src/misc/lv_area.c **** }
 530:lvgl/src/misc/lv_area.c **** 
 531:lvgl/src/misc/lv_area.c **** #define _LV_TRANSFORM_TRIGO_SHIFT 10
 532:lvgl/src/misc/lv_area.c **** void lv_point_transform(lv_point_t * p, int32_t angle, int32_t zoom, const lv_point_t * pivot)
 533:lvgl/src/misc/lv_area.c **** {
 534:lvgl/src/misc/lv_area.c ****     if(angle == 0 && zoom == 256) {
 535:lvgl/src/misc/lv_area.c ****         return;
 536:lvgl/src/misc/lv_area.c ****     }
 537:lvgl/src/misc/lv_area.c **** 
 538:lvgl/src/misc/lv_area.c ****     p->x -= pivot->x;
 539:lvgl/src/misc/lv_area.c ****     p->y -= pivot->y;
 540:lvgl/src/misc/lv_area.c **** 
 541:lvgl/src/misc/lv_area.c ****     if(angle == 0) {
 542:lvgl/src/misc/lv_area.c ****         p->x = (((int32_t)(p->x) * zoom) >> 8) + pivot->x;
 543:lvgl/src/misc/lv_area.c ****         p->y = (((int32_t)(p->y) * zoom) >> 8) + pivot->y;
ARM GAS  /var/folders/21/t9g5rlb91ys800n5npymflf80000gn/T//ccj8QTAi.s 			page 11


 544:lvgl/src/misc/lv_area.c ****         return;
 545:lvgl/src/misc/lv_area.c ****     }
 546:lvgl/src/misc/lv_area.c **** 
 547:lvgl/src/misc/lv_area.c ****     static int32_t angle_prev = INT32_MIN;
 548:lvgl/src/misc/lv_area.c ****     static int32_t sinma;
 549:lvgl/src/misc/lv_area.c ****     static int32_t cosma;
 550:lvgl/src/misc/lv_area.c ****     if(angle_prev != angle) {
 551:lvgl/src/misc/lv_area.c ****         int32_t angle_limited = angle;
 552:lvgl/src/misc/lv_area.c ****         if(angle_limited > 3600) angle_limited -= 3600;
 553:lvgl/src/misc/lv_area.c ****         if(angle_limited < 0) angle_limited += 3600;
 554:lvgl/src/misc/lv_area.c **** 
 555:lvgl/src/misc/lv_area.c ****         int32_t angle_low = angle_limited / 10;
 556:lvgl/src/misc/lv_area.c ****         int32_t angle_high = angle_low + 1;
 557:lvgl/src/misc/lv_area.c ****         int32_t angle_rem = angle_limited  - (angle_low * 10);
 558:lvgl/src/misc/lv_area.c **** 
 559:lvgl/src/misc/lv_area.c ****         int32_t s1 = lv_trigo_sin(angle_low);
 560:lvgl/src/misc/lv_area.c ****         int32_t s2 = lv_trigo_sin(angle_high);
 561:lvgl/src/misc/lv_area.c **** 
 562:lvgl/src/misc/lv_area.c ****         int32_t c1 = lv_trigo_sin(angle_low + 90);
 563:lvgl/src/misc/lv_area.c ****         int32_t c2 = lv_trigo_sin(angle_high + 90);
 564:lvgl/src/misc/lv_area.c **** 
 565:lvgl/src/misc/lv_area.c ****         sinma = (s1 * (10 - angle_rem) + s2 * angle_rem) / 10;
 566:lvgl/src/misc/lv_area.c ****         cosma = (c1 * (10 - angle_rem) + c2 * angle_rem) / 10;
 567:lvgl/src/misc/lv_area.c ****         sinma = sinma >> (LV_TRIGO_SHIFT - _LV_TRANSFORM_TRIGO_SHIFT);
 568:lvgl/src/misc/lv_area.c ****         cosma = cosma >> (LV_TRIGO_SHIFT - _LV_TRANSFORM_TRIGO_SHIFT);
 569:lvgl/src/misc/lv_area.c ****         angle_prev = angle;
 570:lvgl/src/misc/lv_area.c ****     }
 571:lvgl/src/misc/lv_area.c ****     int32_t x = p->x;
 572:lvgl/src/misc/lv_area.c ****     int32_t y = p->y;
 573:lvgl/src/misc/lv_area.c ****     if(zoom == 256) {
 574:lvgl/src/misc/lv_area.c ****         p->x = ((cosma * x - sinma * y) >> _LV_TRANSFORM_TRIGO_SHIFT) + pivot->x;
 575:lvgl/src/misc/lv_area.c ****         p->y = ((sinma * x + cosma * y) >> _LV_TRANSFORM_TRIGO_SHIFT) + pivot->y;
 576:lvgl/src/misc/lv_area.c ****     }
 577:lvgl/src/misc/lv_area.c ****     else {
 578:lvgl/src/misc/lv_area.c ****         p->x = (((cosma * x - sinma * y) * zoom) >> (_LV_TRANSFORM_TRIGO_SHIFT + 8)) + pivot->x;
 579:lvgl/src/misc/lv_area.c ****         p->y = (((sinma * x + cosma * y) * zoom) >> (_LV_TRANSFORM_TRIGO_SHIFT + 8)) + pivot->y;
 580:lvgl/src/misc/lv_area.c ****     }
 581:lvgl/src/misc/lv_area.c **** }
 582:lvgl/src/misc/lv_area.c **** 
 583:lvgl/src/misc/lv_area.c **** /**********************
 584:lvgl/src/misc/lv_area.c ****  *   STATIC FUNCTIONS
 585:lvgl/src/misc/lv_area.c ****  **********************/
 586:lvgl/src/misc/lv_area.c **** 
 587:lvgl/src/misc/lv_area.c **** static bool lv_point_within_circle(const lv_area_t * area, const lv_point_t * p)
 588:lvgl/src/misc/lv_area.c **** {
  29              		.loc 1 588 1 view -0
  30              		.cfi_startproc
  31              		@ args = 0, pretend = 0, frame = 0
  32              		@ frame_needed = 0, uses_anonymous_args = 0
  33              		.loc 1 588 1 is_stmt 0 view .LVU1
  34 0000 00B5     		push	{lr}
  35              	.LCFI0:
  36              		.cfi_def_cfa_offset 4
  37              		.cfi_offset 14, -4
 589:lvgl/src/misc/lv_area.c ****     lv_coord_t r = (area->x2 - area->x1) / 2;
  38              		.loc 1 589 5 is_stmt 1 view .LVU2
  39              		.loc 1 589 25 is_stmt 0 view .LVU3
ARM GAS  /var/folders/21/t9g5rlb91ys800n5npymflf80000gn/T//ccj8QTAi.s 			page 12


  40 0002 B0F90430 		ldrsh	r3, [r0, #4]
  41              		.loc 1 589 36 view .LVU4
  42 0006 B0F90020 		ldrsh	r2, [r0]
  43              		.loc 1 589 30 view .LVU5
  44 000a 9B1A     		subs	r3, r3, r2
  45              		.loc 1 589 42 view .LVU6
  46 000c 03EBD373 		add	r3, r3, r3, lsr #31
  47              		.loc 1 589 16 view .LVU7
  48 0010 43F34F0E 		sbfx	lr, r3, #1, #16
  49              	.LVL1:
 590:lvgl/src/misc/lv_area.c **** 
 591:lvgl/src/misc/lv_area.c ****     /*Circle center*/
 592:lvgl/src/misc/lv_area.c ****     lv_coord_t cx = area->x1 + r;
  50              		.loc 1 592 5 is_stmt 1 view .LVU8
  51              		.loc 1 592 30 is_stmt 0 view .LVU9
  52 0014 C3F34F03 		ubfx	r3, r3, #1, #16
  53 0018 13FA82F2 		uxtah	r2, r3, r2
  54 001c 1FFA82FC 		uxth	ip, r2
  55              	.LVL2:
 593:lvgl/src/misc/lv_area.c ****     lv_coord_t cy = area->y1 + r;
  56              		.loc 1 593 5 is_stmt 1 view .LVU10
  57              		.loc 1 593 25 is_stmt 0 view .LVU11
  58 0020 4288     		ldrh	r2, [r0, #2]
  59              		.loc 1 593 30 view .LVU12
  60 0022 1344     		add	r3, r3, r2
  61 0024 9BB2     		uxth	r3, r3
  62              	.LVL3:
 594:lvgl/src/misc/lv_area.c **** 
 595:lvgl/src/misc/lv_area.c ****     /*Simplify the code by moving everything to (0, 0)*/
 596:lvgl/src/misc/lv_area.c ****     lv_coord_t px = p->x - cx;
  63              		.loc 1 596 5 is_stmt 1 view .LVU13
  64              		.loc 1 596 22 is_stmt 0 view .LVU14
  65 0026 0A88     		ldrh	r2, [r1]
  66              		.loc 1 596 26 view .LVU15
  67 0028 A2EB0C02 		sub	r2, r2, ip
  68              	.LVL4:
 597:lvgl/src/misc/lv_area.c ****     lv_coord_t py = p->y - cy;
  69              		.loc 1 597 5 is_stmt 1 view .LVU16
  70              		.loc 1 597 22 is_stmt 0 view .LVU17
  71 002c 4988     		ldrh	r1, [r1, #2]
  72              	.LVL5:
  73              		.loc 1 597 26 view .LVU18
  74 002e CB1A     		subs	r3, r1, r3
  75              	.LVL6:
 598:lvgl/src/misc/lv_area.c **** 
 599:lvgl/src/misc/lv_area.c ****     uint32_t r_sqrd = r * r;
  76              		.loc 1 599 5 is_stmt 1 view .LVU19
  77              		.loc 1 599 25 is_stmt 0 view .LVU20
  78 0030 0EFB0EFE 		mul	lr, lr, lr
  79              	.LVL7:
 600:lvgl/src/misc/lv_area.c ****     uint32_t dist = (px * px) + (py * py);
  80              		.loc 1 600 5 is_stmt 1 view .LVU21
  81              		.loc 1 600 37 is_stmt 0 view .LVU22
  82 0034 13FB03F3 		smulbb	r3, r3, r3
  83              	.LVL8:
  84              		.loc 1 600 31 view .LVU23
  85 0038 12FB0232 		smlabb	r2, r2, r2, r3
ARM GAS  /var/folders/21/t9g5rlb91ys800n5npymflf80000gn/T//ccj8QTAi.s 			page 13


  86              	.LVL9:
 601:lvgl/src/misc/lv_area.c **** 
 602:lvgl/src/misc/lv_area.c ****     if(dist <= r_sqrd)
  87              		.loc 1 602 5 is_stmt 1 view .LVU24
  88              		.loc 1 602 7 is_stmt 0 view .LVU25
  89 003c 9645     		cmp	lr, r2
  90 003e 02D3     		bcc	.L3
 603:lvgl/src/misc/lv_area.c ****         return true;
  91              		.loc 1 603 16 view .LVU26
  92 0040 0120     		movs	r0, #1
  93              	.LVL10:
  94              	.L2:
 604:lvgl/src/misc/lv_area.c ****     else
 605:lvgl/src/misc/lv_area.c ****         return false;
 606:lvgl/src/misc/lv_area.c **** }
  95              		.loc 1 606 1 view .LVU27
  96 0042 5DF804FB 		ldr	pc, [sp], #4
  97              	.LVL11:
  98              	.L3:
 605:lvgl/src/misc/lv_area.c **** }
  99              		.loc 1 605 16 view .LVU28
 100 0046 0020     		movs	r0, #0
 101              	.LVL12:
 605:lvgl/src/misc/lv_area.c **** }
 102              		.loc 1 605 16 view .LVU29
 103 0048 FBE7     		b	.L2
 104              		.cfi_endproc
 105              	.LFE22:
 107              		.section	.text.lv_area_set,"ax",%progbits
 108              		.align	1
 109              		.global	lv_area_set
 110              		.syntax unified
 111              		.thumb
 112              		.thumb_func
 114              	lv_area_set:
 115              	.LVL13:
 116              	.LFB5:
  49:lvgl/src/misc/lv_area.c ****     area_p->x1 = x1;
 117              		.loc 1 49 1 is_stmt 1 view -0
 118              		.cfi_startproc
 119              		@ args = 4, pretend = 0, frame = 0
 120              		@ frame_needed = 0, uses_anonymous_args = 0
 121              		@ link register save eliminated.
  50:lvgl/src/misc/lv_area.c ****     area_p->y1 = y1;
 122              		.loc 1 50 5 view .LVU31
  50:lvgl/src/misc/lv_area.c ****     area_p->y1 = y1;
 123              		.loc 1 50 16 is_stmt 0 view .LVU32
 124 0000 0180     		strh	r1, [r0]	@ movhi
  51:lvgl/src/misc/lv_area.c ****     area_p->x2 = x2;
 125              		.loc 1 51 5 is_stmt 1 view .LVU33
  51:lvgl/src/misc/lv_area.c ****     area_p->x2 = x2;
 126              		.loc 1 51 16 is_stmt 0 view .LVU34
 127 0002 4280     		strh	r2, [r0, #2]	@ movhi
  52:lvgl/src/misc/lv_area.c ****     area_p->y2 = y2;
 128              		.loc 1 52 5 is_stmt 1 view .LVU35
  52:lvgl/src/misc/lv_area.c ****     area_p->y2 = y2;
 129              		.loc 1 52 16 is_stmt 0 view .LVU36
ARM GAS  /var/folders/21/t9g5rlb91ys800n5npymflf80000gn/T//ccj8QTAi.s 			page 14


 130 0004 8380     		strh	r3, [r0, #4]	@ movhi
  53:lvgl/src/misc/lv_area.c **** }
 131              		.loc 1 53 5 is_stmt 1 view .LVU37
  53:lvgl/src/misc/lv_area.c **** }
 132              		.loc 1 53 16 is_stmt 0 view .LVU38
 133 0006 BDF90030 		ldrsh	r3, [sp]
 134              	.LVL14:
  53:lvgl/src/misc/lv_area.c **** }
 135              		.loc 1 53 16 view .LVU39
 136 000a C380     		strh	r3, [r0, #6]	@ movhi
  54:lvgl/src/misc/lv_area.c **** 
 137              		.loc 1 54 1 view .LVU40
 138 000c 7047     		bx	lr
 139              		.cfi_endproc
 140              	.LFE5:
 142              		.section	.text.lv_area_set_width,"ax",%progbits
 143              		.align	1
 144              		.global	lv_area_set_width
 145              		.syntax unified
 146              		.thumb
 147              		.thumb_func
 149              	lv_area_set_width:
 150              	.LVL15:
 151              	.LFB6:
  62:lvgl/src/misc/lv_area.c ****     area_p->x2 = area_p->x1 + w - 1;
 152              		.loc 1 62 1 is_stmt 1 view -0
 153              		.cfi_startproc
 154              		@ args = 0, pretend = 0, frame = 0
 155              		@ frame_needed = 0, uses_anonymous_args = 0
 156              		@ link register save eliminated.
  63:lvgl/src/misc/lv_area.c **** }
 157              		.loc 1 63 5 view .LVU42
  63:lvgl/src/misc/lv_area.c **** }
 158              		.loc 1 63 24 is_stmt 0 view .LVU43
 159 0000 0388     		ldrh	r3, [r0]
  63:lvgl/src/misc/lv_area.c **** }
 160              		.loc 1 63 29 view .LVU44
 161 0002 0B44     		add	r3, r3, r1
 162 0004 9BB2     		uxth	r3, r3
  63:lvgl/src/misc/lv_area.c **** }
 163              		.loc 1 63 33 view .LVU45
 164 0006 013B     		subs	r3, r3, #1
  63:lvgl/src/misc/lv_area.c **** }
 165              		.loc 1 63 16 view .LVU46
 166 0008 8380     		strh	r3, [r0, #4]	@ movhi
  64:lvgl/src/misc/lv_area.c **** 
 167              		.loc 1 64 1 view .LVU47
 168 000a 7047     		bx	lr
 169              		.cfi_endproc
 170              	.LFE6:
 172              		.section	.text.lv_area_set_height,"ax",%progbits
 173              		.align	1
 174              		.global	lv_area_set_height
 175              		.syntax unified
 176              		.thumb
 177              		.thumb_func
 179              	lv_area_set_height:
ARM GAS  /var/folders/21/t9g5rlb91ys800n5npymflf80000gn/T//ccj8QTAi.s 			page 15


 180              	.LVL16:
 181              	.LFB7:
  72:lvgl/src/misc/lv_area.c ****     area_p->y2 = area_p->y1 + h - 1;
 182              		.loc 1 72 1 is_stmt 1 view -0
 183              		.cfi_startproc
 184              		@ args = 0, pretend = 0, frame = 0
 185              		@ frame_needed = 0, uses_anonymous_args = 0
 186              		@ link register save eliminated.
  73:lvgl/src/misc/lv_area.c **** }
 187              		.loc 1 73 5 view .LVU49
  73:lvgl/src/misc/lv_area.c **** }
 188              		.loc 1 73 24 is_stmt 0 view .LVU50
 189 0000 4388     		ldrh	r3, [r0, #2]
  73:lvgl/src/misc/lv_area.c **** }
 190              		.loc 1 73 29 view .LVU51
 191 0002 0B44     		add	r3, r3, r1
 192 0004 9BB2     		uxth	r3, r3
  73:lvgl/src/misc/lv_area.c **** }
 193              		.loc 1 73 33 view .LVU52
 194 0006 013B     		subs	r3, r3, #1
  73:lvgl/src/misc/lv_area.c **** }
 195              		.loc 1 73 16 view .LVU53
 196 0008 C380     		strh	r3, [r0, #6]	@ movhi
  74:lvgl/src/misc/lv_area.c **** 
 197              		.loc 1 74 1 view .LVU54
 198 000a 7047     		bx	lr
 199              		.cfi_endproc
 200              	.LFE7:
 202              		.section	.text._lv_area_set_pos,"ax",%progbits
 203              		.align	1
 204              		.global	_lv_area_set_pos
 205              		.syntax unified
 206              		.thumb
 207              		.thumb_func
 209              	_lv_area_set_pos:
 210              	.LVL17:
 211              	.LFB8:
  83:lvgl/src/misc/lv_area.c ****     lv_coord_t w = lv_area_get_width(area_p);
 212              		.loc 1 83 1 is_stmt 1 view -0
 213              		.cfi_startproc
 214              		@ args = 0, pretend = 0, frame = 0
 215              		@ frame_needed = 0, uses_anonymous_args = 0
  83:lvgl/src/misc/lv_area.c ****     lv_coord_t w = lv_area_get_width(area_p);
 216              		.loc 1 83 1 is_stmt 0 view .LVU56
 217 0000 38B5     		push	{r3, r4, r5, lr}
 218              	.LCFI1:
 219              		.cfi_def_cfa_offset 16
 220              		.cfi_offset 3, -16
 221              		.cfi_offset 4, -12
 222              		.cfi_offset 5, -8
 223              		.cfi_offset 14, -4
 224 0002 0446     		mov	r4, r0
  84:lvgl/src/misc/lv_area.c ****     lv_coord_t h = lv_area_get_height(area_p);
 225              		.loc 1 84 5 is_stmt 1 view .LVU57
 226              	.LVL18:
 227              	.LBB122:
 228              	.LBI122:
ARM GAS  /var/folders/21/t9g5rlb91ys800n5npymflf80000gn/T//ccj8QTAi.s 			page 16


 229              		.file 2 "lvgl/src/misc/lv_area.h"
   1:lvgl/src/misc/lv_area.h **** /**
   2:lvgl/src/misc/lv_area.h ****  * @file lv_area.h
   3:lvgl/src/misc/lv_area.h ****  *
   4:lvgl/src/misc/lv_area.h ****  */
   5:lvgl/src/misc/lv_area.h **** 
   6:lvgl/src/misc/lv_area.h **** #ifndef LV_AREA_H
   7:lvgl/src/misc/lv_area.h **** #define LV_AREA_H
   8:lvgl/src/misc/lv_area.h **** 
   9:lvgl/src/misc/lv_area.h **** #ifdef __cplusplus
  10:lvgl/src/misc/lv_area.h **** extern "C" {
  11:lvgl/src/misc/lv_area.h **** #endif
  12:lvgl/src/misc/lv_area.h **** 
  13:lvgl/src/misc/lv_area.h **** /*********************
  14:lvgl/src/misc/lv_area.h ****  *      INCLUDES
  15:lvgl/src/misc/lv_area.h ****  *********************/
  16:lvgl/src/misc/lv_area.h **** #include "../lv_conf_internal.h"
  17:lvgl/src/misc/lv_area.h **** #include <stdbool.h>
  18:lvgl/src/misc/lv_area.h **** #include <stdint.h>
  19:lvgl/src/misc/lv_area.h **** 
  20:lvgl/src/misc/lv_area.h **** /*********************
  21:lvgl/src/misc/lv_area.h ****  *      DEFINES
  22:lvgl/src/misc/lv_area.h ****  *********************/
  23:lvgl/src/misc/lv_area.h **** 
  24:lvgl/src/misc/lv_area.h **** #if LV_USE_LARGE_COORD
  25:lvgl/src/misc/lv_area.h **** typedef int32_t lv_coord_t;
  26:lvgl/src/misc/lv_area.h **** #else
  27:lvgl/src/misc/lv_area.h **** typedef int16_t lv_coord_t;
  28:lvgl/src/misc/lv_area.h **** #endif
  29:lvgl/src/misc/lv_area.h **** 
  30:lvgl/src/misc/lv_area.h **** /**********************
  31:lvgl/src/misc/lv_area.h ****  *      TYPEDEFS
  32:lvgl/src/misc/lv_area.h ****  **********************/
  33:lvgl/src/misc/lv_area.h **** 
  34:lvgl/src/misc/lv_area.h **** /**
  35:lvgl/src/misc/lv_area.h ****  * Represents a point on the screen.
  36:lvgl/src/misc/lv_area.h ****  */
  37:lvgl/src/misc/lv_area.h **** typedef struct {
  38:lvgl/src/misc/lv_area.h ****     lv_coord_t x;
  39:lvgl/src/misc/lv_area.h ****     lv_coord_t y;
  40:lvgl/src/misc/lv_area.h **** } lv_point_t;
  41:lvgl/src/misc/lv_area.h **** 
  42:lvgl/src/misc/lv_area.h **** /** Represents an area of the screen.*/
  43:lvgl/src/misc/lv_area.h **** typedef struct {
  44:lvgl/src/misc/lv_area.h ****     lv_coord_t x1;
  45:lvgl/src/misc/lv_area.h ****     lv_coord_t y1;
  46:lvgl/src/misc/lv_area.h ****     lv_coord_t x2;
  47:lvgl/src/misc/lv_area.h ****     lv_coord_t y2;
  48:lvgl/src/misc/lv_area.h **** } lv_area_t;
  49:lvgl/src/misc/lv_area.h **** 
  50:lvgl/src/misc/lv_area.h **** /** Alignments*/
  51:lvgl/src/misc/lv_area.h **** enum {
  52:lvgl/src/misc/lv_area.h ****     LV_ALIGN_DEFAULT = 0,
  53:lvgl/src/misc/lv_area.h ****     LV_ALIGN_TOP_LEFT,
  54:lvgl/src/misc/lv_area.h ****     LV_ALIGN_TOP_MID,
  55:lvgl/src/misc/lv_area.h ****     LV_ALIGN_TOP_RIGHT,
  56:lvgl/src/misc/lv_area.h ****     LV_ALIGN_BOTTOM_LEFT,
ARM GAS  /var/folders/21/t9g5rlb91ys800n5npymflf80000gn/T//ccj8QTAi.s 			page 17


  57:lvgl/src/misc/lv_area.h ****     LV_ALIGN_BOTTOM_MID,
  58:lvgl/src/misc/lv_area.h ****     LV_ALIGN_BOTTOM_RIGHT,
  59:lvgl/src/misc/lv_area.h ****     LV_ALIGN_LEFT_MID,
  60:lvgl/src/misc/lv_area.h ****     LV_ALIGN_RIGHT_MID,
  61:lvgl/src/misc/lv_area.h ****     LV_ALIGN_CENTER,
  62:lvgl/src/misc/lv_area.h **** 
  63:lvgl/src/misc/lv_area.h ****     LV_ALIGN_OUT_TOP_LEFT,
  64:lvgl/src/misc/lv_area.h ****     LV_ALIGN_OUT_TOP_MID,
  65:lvgl/src/misc/lv_area.h ****     LV_ALIGN_OUT_TOP_RIGHT,
  66:lvgl/src/misc/lv_area.h ****     LV_ALIGN_OUT_BOTTOM_LEFT,
  67:lvgl/src/misc/lv_area.h ****     LV_ALIGN_OUT_BOTTOM_MID,
  68:lvgl/src/misc/lv_area.h ****     LV_ALIGN_OUT_BOTTOM_RIGHT,
  69:lvgl/src/misc/lv_area.h ****     LV_ALIGN_OUT_LEFT_TOP,
  70:lvgl/src/misc/lv_area.h ****     LV_ALIGN_OUT_LEFT_MID,
  71:lvgl/src/misc/lv_area.h ****     LV_ALIGN_OUT_LEFT_BOTTOM,
  72:lvgl/src/misc/lv_area.h ****     LV_ALIGN_OUT_RIGHT_TOP,
  73:lvgl/src/misc/lv_area.h ****     LV_ALIGN_OUT_RIGHT_MID,
  74:lvgl/src/misc/lv_area.h ****     LV_ALIGN_OUT_RIGHT_BOTTOM,
  75:lvgl/src/misc/lv_area.h **** };
  76:lvgl/src/misc/lv_area.h **** typedef uint8_t lv_align_t;
  77:lvgl/src/misc/lv_area.h **** 
  78:lvgl/src/misc/lv_area.h **** enum {
  79:lvgl/src/misc/lv_area.h ****     LV_DIR_NONE     = 0x00,
  80:lvgl/src/misc/lv_area.h ****     LV_DIR_LEFT     = (1 << 0),
  81:lvgl/src/misc/lv_area.h ****     LV_DIR_RIGHT    = (1 << 1),
  82:lvgl/src/misc/lv_area.h ****     LV_DIR_TOP      = (1 << 2),
  83:lvgl/src/misc/lv_area.h ****     LV_DIR_BOTTOM   = (1 << 3),
  84:lvgl/src/misc/lv_area.h ****     LV_DIR_HOR      = LV_DIR_LEFT | LV_DIR_RIGHT,
  85:lvgl/src/misc/lv_area.h ****     LV_DIR_VER      = LV_DIR_TOP | LV_DIR_BOTTOM,
  86:lvgl/src/misc/lv_area.h ****     LV_DIR_ALL      = LV_DIR_HOR | LV_DIR_VER,
  87:lvgl/src/misc/lv_area.h **** };
  88:lvgl/src/misc/lv_area.h **** 
  89:lvgl/src/misc/lv_area.h **** typedef uint8_t lv_dir_t;
  90:lvgl/src/misc/lv_area.h **** 
  91:lvgl/src/misc/lv_area.h **** /**********************
  92:lvgl/src/misc/lv_area.h ****  * GLOBAL PROTOTYPES
  93:lvgl/src/misc/lv_area.h ****  **********************/
  94:lvgl/src/misc/lv_area.h **** 
  95:lvgl/src/misc/lv_area.h **** /**
  96:lvgl/src/misc/lv_area.h ****  * Initialize an area
  97:lvgl/src/misc/lv_area.h ****  * @param area_p pointer to an area
  98:lvgl/src/misc/lv_area.h ****  * @param x1 left coordinate of the area
  99:lvgl/src/misc/lv_area.h ****  * @param y1 top coordinate of the area
 100:lvgl/src/misc/lv_area.h ****  * @param x2 right coordinate of the area
 101:lvgl/src/misc/lv_area.h ****  * @param y2 bottom coordinate of the area
 102:lvgl/src/misc/lv_area.h ****  */
 103:lvgl/src/misc/lv_area.h **** void lv_area_set(lv_area_t * area_p, lv_coord_t x1, lv_coord_t y1, lv_coord_t x2, lv_coord_t y2);
 104:lvgl/src/misc/lv_area.h **** 
 105:lvgl/src/misc/lv_area.h **** /**
 106:lvgl/src/misc/lv_area.h ****  * Copy an area
 107:lvgl/src/misc/lv_area.h ****  * @param dest pointer to the destination area
 108:lvgl/src/misc/lv_area.h ****  * @param src pointer to the source area
 109:lvgl/src/misc/lv_area.h ****  */
 110:lvgl/src/misc/lv_area.h **** inline static void lv_area_copy(lv_area_t * dest, const lv_area_t * src)
 111:lvgl/src/misc/lv_area.h **** {
 112:lvgl/src/misc/lv_area.h ****     dest->x1 = src->x1;
 113:lvgl/src/misc/lv_area.h ****     dest->y1 = src->y1;
ARM GAS  /var/folders/21/t9g5rlb91ys800n5npymflf80000gn/T//ccj8QTAi.s 			page 18


 114:lvgl/src/misc/lv_area.h ****     dest->x2 = src->x2;
 115:lvgl/src/misc/lv_area.h ****     dest->y2 = src->y2;
 116:lvgl/src/misc/lv_area.h **** }
 117:lvgl/src/misc/lv_area.h **** 
 118:lvgl/src/misc/lv_area.h **** /**
 119:lvgl/src/misc/lv_area.h ****  * Get the width of an area
 120:lvgl/src/misc/lv_area.h ****  * @param area_p pointer to an area
 121:lvgl/src/misc/lv_area.h ****  * @return the width of the area (if x1 == x2 -> width = 1)
 122:lvgl/src/misc/lv_area.h ****  */
 123:lvgl/src/misc/lv_area.h **** static inline lv_coord_t lv_area_get_width(const lv_area_t * area_p)
 230              		.loc 2 123 26 view .LVU58
 231              	.LBB123:
 124:lvgl/src/misc/lv_area.h **** {
 125:lvgl/src/misc/lv_area.h ****     return (lv_coord_t)(area_p->x2 - area_p->x1 + 1);
 232              		.loc 2 125 5 view .LVU59
 233              		.loc 2 125 31 is_stmt 0 view .LVU60
 234 0004 8388     		ldrh	r3, [r0, #4]
 235              		.loc 2 125 44 view .LVU61
 236 0006 0588     		ldrh	r5, [r0]
 237              		.loc 2 125 36 view .LVU62
 238 0008 5B1B     		subs	r3, r3, r5
 239 000a 9BB2     		uxth	r3, r3
 240              		.loc 2 125 49 view .LVU63
 241 000c 0133     		adds	r3, r3, #1
 242              	.LVL19:
 243              		.loc 2 125 49 view .LVU64
 244              	.LBE123:
 245              	.LBE122:
  85:lvgl/src/misc/lv_area.c ****     area_p->x1   = x;
 246              		.loc 1 85 5 is_stmt 1 view .LVU65
 247              	.LBB124:
 248              	.LBI124:
 126:lvgl/src/misc/lv_area.h **** }
 127:lvgl/src/misc/lv_area.h **** 
 128:lvgl/src/misc/lv_area.h **** /**
 129:lvgl/src/misc/lv_area.h ****  * Get the height of an area
 130:lvgl/src/misc/lv_area.h ****  * @param area_p pointer to an area
 131:lvgl/src/misc/lv_area.h ****  * @return the height of the area (if y1 == y2 -> height = 1)
 132:lvgl/src/misc/lv_area.h ****  */
 133:lvgl/src/misc/lv_area.h **** static inline lv_coord_t lv_area_get_height(const lv_area_t * area_p)
 249              		.loc 2 133 26 view .LVU66
 250              	.LBB125:
 134:lvgl/src/misc/lv_area.h **** {
 135:lvgl/src/misc/lv_area.h ****     return (lv_coord_t)(area_p->y2 - area_p->y1 + 1);
 251              		.loc 2 135 5 view .LVU67
 252              		.loc 2 135 31 is_stmt 0 view .LVU68
 253 000e C588     		ldrh	r5, [r0, #6]
 254              		.loc 2 135 44 view .LVU69
 255 0010 B0F802C0 		ldrh	ip, [r0, #2]
 256              		.loc 2 135 36 view .LVU70
 257 0014 A5EB0C05 		sub	r5, r5, ip
 258 0018 ADB2     		uxth	r5, r5
 259              		.loc 2 135 49 view .LVU71
 260 001a 0135     		adds	r5, r5, #1
 261              		.loc 2 135 12 view .LVU72
 262 001c 2DB2     		sxth	r5, r5
 263              	.LVL20:
ARM GAS  /var/folders/21/t9g5rlb91ys800n5npymflf80000gn/T//ccj8QTAi.s 			page 19


 264              		.loc 2 135 12 view .LVU73
 265              	.LBE125:
 266              	.LBE124:
  86:lvgl/src/misc/lv_area.c ****     area_p->y1   = y;
 267              		.loc 1 86 5 is_stmt 1 view .LVU74
  86:lvgl/src/misc/lv_area.c ****     area_p->y1   = y;
 268              		.loc 1 86 18 is_stmt 0 view .LVU75
 269 001e 0180     		strh	r1, [r0]	@ movhi
  87:lvgl/src/misc/lv_area.c ****     lv_area_set_width(area_p, w);
 270              		.loc 1 87 5 is_stmt 1 view .LVU76
  87:lvgl/src/misc/lv_area.c ****     lv_area_set_width(area_p, w);
 271              		.loc 1 87 18 is_stmt 0 view .LVU77
 272 0020 4280     		strh	r2, [r0, #2]	@ movhi
  88:lvgl/src/misc/lv_area.c ****     lv_area_set_height(area_p, h);
 273              		.loc 1 88 5 is_stmt 1 view .LVU78
 274 0022 19B2     		sxth	r1, r3
 275              	.LVL21:
  88:lvgl/src/misc/lv_area.c ****     lv_area_set_height(area_p, h);
 276              		.loc 1 88 5 is_stmt 0 view .LVU79
 277 0024 FFF7FEFF 		bl	lv_area_set_width
 278              	.LVL22:
  89:lvgl/src/misc/lv_area.c **** }
 279              		.loc 1 89 5 is_stmt 1 view .LVU80
 280 0028 2946     		mov	r1, r5
 281 002a 2046     		mov	r0, r4
 282 002c FFF7FEFF 		bl	lv_area_set_height
 283              	.LVL23:
  90:lvgl/src/misc/lv_area.c **** 
 284              		.loc 1 90 1 is_stmt 0 view .LVU81
 285 0030 38BD     		pop	{r3, r4, r5, pc}
  90:lvgl/src/misc/lv_area.c **** 
 286              		.loc 1 90 1 view .LVU82
 287              		.cfi_endproc
 288              	.LFE8:
 290              		.section	.text.lv_area_get_size,"ax",%progbits
 291              		.align	1
 292              		.global	lv_area_get_size
 293              		.syntax unified
 294              		.thumb
 295              		.thumb_func
 297              	lv_area_get_size:
 298              	.LVL24:
 299              	.LFB9:
  98:lvgl/src/misc/lv_area.c ****     uint32_t size;
 300              		.loc 1 98 1 is_stmt 1 view -0
 301              		.cfi_startproc
 302              		@ args = 0, pretend = 0, frame = 0
 303              		@ frame_needed = 0, uses_anonymous_args = 0
 304              		@ link register save eliminated.
  99:lvgl/src/misc/lv_area.c **** 
 305              		.loc 1 99 5 view .LVU84
 101:lvgl/src/misc/lv_area.c **** 
 306              		.loc 1 101 5 view .LVU85
 101:lvgl/src/misc/lv_area.c **** 
 307              		.loc 1 101 29 is_stmt 0 view .LVU86
 308 0000 B0F90420 		ldrsh	r2, [r0, #4]
 101:lvgl/src/misc/lv_area.c **** 
ARM GAS  /var/folders/21/t9g5rlb91ys800n5npymflf80000gn/T//ccj8QTAi.s 			page 20


 309              		.loc 1 101 42 view .LVU87
 310 0004 B0F90030 		ldrsh	r3, [r0]
 101:lvgl/src/misc/lv_area.c **** 
 311              		.loc 1 101 34 view .LVU88
 312 0008 D21A     		subs	r2, r2, r3
 101:lvgl/src/misc/lv_area.c **** 
 313              		.loc 1 101 61 view .LVU89
 314 000a B0F90630 		ldrsh	r3, [r0, #6]
 101:lvgl/src/misc/lv_area.c **** 
 315              		.loc 1 101 74 view .LVU90
 316 000e B0F90210 		ldrsh	r1, [r0, #2]
 101:lvgl/src/misc/lv_area.c **** 
 317              		.loc 1 101 66 view .LVU91
 318 0012 581A     		subs	r0, r3, r1
 319              	.LVL25:
 101:lvgl/src/misc/lv_area.c **** 
 320              		.loc 1 101 79 view .LVU92
 321 0014 0130     		adds	r0, r0, #1
 322              	.LVL26:
 103:lvgl/src/misc/lv_area.c **** }
 323              		.loc 1 103 5 is_stmt 1 view .LVU93
 104:lvgl/src/misc/lv_area.c **** 
 324              		.loc 1 104 1 is_stmt 0 view .LVU94
 325 0016 02FB0000 		mla	r0, r2, r0, r0
 326              	.LVL27:
 104:lvgl/src/misc/lv_area.c **** 
 327              		.loc 1 104 1 view .LVU95
 328 001a 7047     		bx	lr
 329              		.cfi_endproc
 330              	.LFE9:
 332              		.section	.text.lv_area_increase,"ax",%progbits
 333              		.align	1
 334              		.global	lv_area_increase
 335              		.syntax unified
 336              		.thumb
 337              		.thumb_func
 339              	lv_area_increase:
 340              	.LVL28:
 341              	.LFB10:
 107:lvgl/src/misc/lv_area.c ****     area->x1 -= w_extra;
 342              		.loc 1 107 1 is_stmt 1 view -0
 343              		.cfi_startproc
 344              		@ args = 0, pretend = 0, frame = 0
 345              		@ frame_needed = 0, uses_anonymous_args = 0
 346              		@ link register save eliminated.
 108:lvgl/src/misc/lv_area.c ****     area->x2 += w_extra;
 347              		.loc 1 108 5 view .LVU97
 108:lvgl/src/misc/lv_area.c ****     area->x2 += w_extra;
 348              		.loc 1 108 9 is_stmt 0 view .LVU98
 349 0000 0388     		ldrh	r3, [r0]
 108:lvgl/src/misc/lv_area.c ****     area->x2 += w_extra;
 350              		.loc 1 108 14 view .LVU99
 351 0002 89B2     		uxth	r1, r1
 108:lvgl/src/misc/lv_area.c ****     area->x2 += w_extra;
 352              		.loc 1 108 14 view .LVU100
 353 0004 5B1A     		subs	r3, r3, r1
 354 0006 0380     		strh	r3, [r0]	@ movhi
ARM GAS  /var/folders/21/t9g5rlb91ys800n5npymflf80000gn/T//ccj8QTAi.s 			page 21


 109:lvgl/src/misc/lv_area.c ****     area->y1 -= h_extra;
 355              		.loc 1 109 5 is_stmt 1 view .LVU101
 109:lvgl/src/misc/lv_area.c ****     area->y1 -= h_extra;
 356              		.loc 1 109 9 is_stmt 0 view .LVU102
 357 0008 8388     		ldrh	r3, [r0, #4]
 109:lvgl/src/misc/lv_area.c ****     area->y1 -= h_extra;
 358              		.loc 1 109 14 view .LVU103
 359 000a 1944     		add	r1, r1, r3
 360              	.LVL29:
 109:lvgl/src/misc/lv_area.c ****     area->y1 -= h_extra;
 361              		.loc 1 109 14 view .LVU104
 362 000c 8180     		strh	r1, [r0, #4]	@ movhi
 110:lvgl/src/misc/lv_area.c ****     area->y2 += h_extra;
 363              		.loc 1 110 5 is_stmt 1 view .LVU105
 110:lvgl/src/misc/lv_area.c ****     area->y2 += h_extra;
 364              		.loc 1 110 9 is_stmt 0 view .LVU106
 365 000e 4388     		ldrh	r3, [r0, #2]
 110:lvgl/src/misc/lv_area.c ****     area->y2 += h_extra;
 366              		.loc 1 110 14 view .LVU107
 367 0010 92B2     		uxth	r2, r2
 110:lvgl/src/misc/lv_area.c ****     area->y2 += h_extra;
 368              		.loc 1 110 14 view .LVU108
 369 0012 9B1A     		subs	r3, r3, r2
 370 0014 4380     		strh	r3, [r0, #2]	@ movhi
 111:lvgl/src/misc/lv_area.c **** }
 371              		.loc 1 111 5 is_stmt 1 view .LVU109
 111:lvgl/src/misc/lv_area.c **** }
 372              		.loc 1 111 9 is_stmt 0 view .LVU110
 373 0016 C388     		ldrh	r3, [r0, #6]
 111:lvgl/src/misc/lv_area.c **** }
 374              		.loc 1 111 14 view .LVU111
 375 0018 1A44     		add	r2, r2, r3
 376              	.LVL30:
 111:lvgl/src/misc/lv_area.c **** }
 377              		.loc 1 111 14 view .LVU112
 378 001a C280     		strh	r2, [r0, #6]	@ movhi
 112:lvgl/src/misc/lv_area.c **** 
 379              		.loc 1 112 1 view .LVU113
 380 001c 7047     		bx	lr
 381              		.cfi_endproc
 382              	.LFE10:
 384              		.section	.text.lv_area_move,"ax",%progbits
 385              		.align	1
 386              		.global	lv_area_move
 387              		.syntax unified
 388              		.thumb
 389              		.thumb_func
 391              	lv_area_move:
 392              	.LVL31:
 393              	.LFB11:
 115:lvgl/src/misc/lv_area.c ****     area->x1 += x_ofs;
 394              		.loc 1 115 1 is_stmt 1 view -0
 395              		.cfi_startproc
 396              		@ args = 0, pretend = 0, frame = 0
 397              		@ frame_needed = 0, uses_anonymous_args = 0
 398              		@ link register save eliminated.
 116:lvgl/src/misc/lv_area.c ****     area->x2 += x_ofs;
ARM GAS  /var/folders/21/t9g5rlb91ys800n5npymflf80000gn/T//ccj8QTAi.s 			page 22


 399              		.loc 1 116 5 view .LVU115
 116:lvgl/src/misc/lv_area.c ****     area->x2 += x_ofs;
 400              		.loc 1 116 9 is_stmt 0 view .LVU116
 401 0000 0388     		ldrh	r3, [r0]
 116:lvgl/src/misc/lv_area.c ****     area->x2 += x_ofs;
 402              		.loc 1 116 14 view .LVU117
 403 0002 89B2     		uxth	r1, r1
 116:lvgl/src/misc/lv_area.c ****     area->x2 += x_ofs;
 404              		.loc 1 116 14 view .LVU118
 405 0004 0B44     		add	r3, r3, r1
 406 0006 0380     		strh	r3, [r0]	@ movhi
 117:lvgl/src/misc/lv_area.c ****     area->y1 += y_ofs;
 407              		.loc 1 117 5 is_stmt 1 view .LVU119
 117:lvgl/src/misc/lv_area.c ****     area->y1 += y_ofs;
 408              		.loc 1 117 9 is_stmt 0 view .LVU120
 409 0008 8388     		ldrh	r3, [r0, #4]
 117:lvgl/src/misc/lv_area.c ****     area->y1 += y_ofs;
 410              		.loc 1 117 14 view .LVU121
 411 000a 1944     		add	r1, r1, r3
 412              	.LVL32:
 117:lvgl/src/misc/lv_area.c ****     area->y1 += y_ofs;
 413              		.loc 1 117 14 view .LVU122
 414 000c 8180     		strh	r1, [r0, #4]	@ movhi
 118:lvgl/src/misc/lv_area.c ****     area->y2 += y_ofs;
 415              		.loc 1 118 5 is_stmt 1 view .LVU123
 118:lvgl/src/misc/lv_area.c ****     area->y2 += y_ofs;
 416              		.loc 1 118 9 is_stmt 0 view .LVU124
 417 000e 4388     		ldrh	r3, [r0, #2]
 118:lvgl/src/misc/lv_area.c ****     area->y2 += y_ofs;
 418              		.loc 1 118 14 view .LVU125
 419 0010 92B2     		uxth	r2, r2
 118:lvgl/src/misc/lv_area.c ****     area->y2 += y_ofs;
 420              		.loc 1 118 14 view .LVU126
 421 0012 1344     		add	r3, r3, r2
 422 0014 4380     		strh	r3, [r0, #2]	@ movhi
 119:lvgl/src/misc/lv_area.c **** }
 423              		.loc 1 119 5 is_stmt 1 view .LVU127
 119:lvgl/src/misc/lv_area.c **** }
 424              		.loc 1 119 9 is_stmt 0 view .LVU128
 425 0016 C388     		ldrh	r3, [r0, #6]
 119:lvgl/src/misc/lv_area.c **** }
 426              		.loc 1 119 14 view .LVU129
 427 0018 1A44     		add	r2, r2, r3
 428              	.LVL33:
 119:lvgl/src/misc/lv_area.c **** }
 429              		.loc 1 119 14 view .LVU130
 430 001a C280     		strh	r2, [r0, #6]	@ movhi
 120:lvgl/src/misc/lv_area.c **** 
 431              		.loc 1 120 1 view .LVU131
 432 001c 7047     		bx	lr
 433              		.cfi_endproc
 434              	.LFE11:
 436              		.section	.text._lv_area_intersect,"ax",%progbits
 437              		.align	1
 438              		.global	_lv_area_intersect
 439              		.syntax unified
 440              		.thumb
ARM GAS  /var/folders/21/t9g5rlb91ys800n5npymflf80000gn/T//ccj8QTAi.s 			page 23


 441              		.thumb_func
 443              	_lv_area_intersect:
 444              	.LVL34:
 445              	.LFB12:
 130:lvgl/src/misc/lv_area.c ****     /*Get the smaller area from 'a1_p' and 'a2_p'*/
 446              		.loc 1 130 1 is_stmt 1 view -0
 447              		.cfi_startproc
 448              		@ args = 0, pretend = 0, frame = 0
 449              		@ frame_needed = 0, uses_anonymous_args = 0
 130:lvgl/src/misc/lv_area.c ****     /*Get the smaller area from 'a1_p' and 'a2_p'*/
 450              		.loc 1 130 1 is_stmt 0 view .LVU133
 451 0000 10B5     		push	{r4, lr}
 452              	.LCFI2:
 453              		.cfi_def_cfa_offset 8
 454              		.cfi_offset 4, -8
 455              		.cfi_offset 14, -4
 132:lvgl/src/misc/lv_area.c ****     res_p->y1 = LV_MAX(a1_p->y1, a2_p->y1);
 456              		.loc 1 132 5 is_stmt 1 view .LVU134
 132:lvgl/src/misc/lv_area.c ****     res_p->y1 = LV_MAX(a1_p->y1, a2_p->y1);
 457              		.loc 1 132 17 is_stmt 0 view .LVU135
 458 0002 B2F900C0 		ldrsh	ip, [r2]
 459 0006 B1F90030 		ldrsh	r3, [r1]
 460 000a 9C45     		cmp	ip, r3
 461 000c B8BF     		it	lt
 462 000e 9C46     		movlt	ip, r3
 132:lvgl/src/misc/lv_area.c ****     res_p->y1 = LV_MAX(a1_p->y1, a2_p->y1);
 463              		.loc 1 132 15 view .LVU136
 464 0010 A0F800C0 		strh	ip, [r0]	@ movhi
 133:lvgl/src/misc/lv_area.c ****     res_p->x2 = LV_MIN(a1_p->x2, a2_p->x2);
 465              		.loc 1 133 5 is_stmt 1 view .LVU137
 133:lvgl/src/misc/lv_area.c ****     res_p->x2 = LV_MIN(a1_p->x2, a2_p->x2);
 466              		.loc 1 133 17 is_stmt 0 view .LVU138
 467 0014 B2F902E0 		ldrsh	lr, [r2, #2]
 468 0018 B1F90230 		ldrsh	r3, [r1, #2]
 469 001c 9E45     		cmp	lr, r3
 470 001e B8BF     		it	lt
 471 0020 9E46     		movlt	lr, r3
 133:lvgl/src/misc/lv_area.c ****     res_p->x2 = LV_MIN(a1_p->x2, a2_p->x2);
 472              		.loc 1 133 15 view .LVU139
 473 0022 A0F802E0 		strh	lr, [r0, #2]	@ movhi
 134:lvgl/src/misc/lv_area.c ****     res_p->y2 = LV_MIN(a1_p->y2, a2_p->y2);
 474              		.loc 1 134 5 is_stmt 1 view .LVU140
 134:lvgl/src/misc/lv_area.c ****     res_p->y2 = LV_MIN(a1_p->y2, a2_p->y2);
 475              		.loc 1 134 17 is_stmt 0 view .LVU141
 476 0026 B2F90430 		ldrsh	r3, [r2, #4]
 477 002a B1F90440 		ldrsh	r4, [r1, #4]
 478 002e A342     		cmp	r3, r4
 479 0030 A8BF     		it	ge
 480 0032 2346     		movge	r3, r4
 134:lvgl/src/misc/lv_area.c ****     res_p->y2 = LV_MIN(a1_p->y2, a2_p->y2);
 481              		.loc 1 134 15 view .LVU142
 482 0034 8380     		strh	r3, [r0, #4]	@ movhi
 135:lvgl/src/misc/lv_area.c **** 
 483              		.loc 1 135 5 is_stmt 1 view .LVU143
 135:lvgl/src/misc/lv_area.c **** 
 484              		.loc 1 135 17 is_stmt 0 view .LVU144
 485 0036 B2F90620 		ldrsh	r2, [r2, #6]
ARM GAS  /var/folders/21/t9g5rlb91ys800n5npymflf80000gn/T//ccj8QTAi.s 			page 24


 486              	.LVL35:
 135:lvgl/src/misc/lv_area.c **** 
 487              		.loc 1 135 17 view .LVU145
 488 003a B1F90610 		ldrsh	r1, [r1, #6]
 489              	.LVL36:
 135:lvgl/src/misc/lv_area.c **** 
 490              		.loc 1 135 17 view .LVU146
 491 003e 8A42     		cmp	r2, r1
 492 0040 A8BF     		it	ge
 493 0042 0A46     		movge	r2, r1
 135:lvgl/src/misc/lv_area.c **** 
 494              		.loc 1 135 15 view .LVU147
 495 0044 C280     		strh	r2, [r0, #6]	@ movhi
 138:lvgl/src/misc/lv_area.c ****     if((res_p->x1 > res_p->x2) || (res_p->y1 > res_p->y2)) {
 496              		.loc 1 138 5 is_stmt 1 view .LVU148
 497              	.LVL37:
 139:lvgl/src/misc/lv_area.c ****         union_ok = false;
 498              		.loc 1 139 5 view .LVU149
 139:lvgl/src/misc/lv_area.c ****         union_ok = false;
 499              		.loc 1 139 7 is_stmt 0 view .LVU150
 500 0046 9C45     		cmp	ip, r3
 501 0048 03DC     		bgt	.L15
 139:lvgl/src/misc/lv_area.c ****         union_ok = false;
 502              		.loc 1 139 32 discriminator 1 view .LVU151
 503 004a 9645     		cmp	lr, r2
 504 004c 03DC     		bgt	.L16
 138:lvgl/src/misc/lv_area.c ****     if((res_p->x1 > res_p->x2) || (res_p->y1 > res_p->y2)) {
 505              		.loc 1 138 10 view .LVU152
 506 004e 0120     		movs	r0, #1
 507              	.LVL38:
 138:lvgl/src/misc/lv_area.c ****     if((res_p->x1 > res_p->x2) || (res_p->y1 > res_p->y2)) {
 508              		.loc 1 138 10 view .LVU153
 509 0050 00E0     		b	.L14
 510              	.LVL39:
 511              	.L15:
 140:lvgl/src/misc/lv_area.c ****     }
 512              		.loc 1 140 18 view .LVU154
 513 0052 0020     		movs	r0, #0
 514              	.LVL40:
 515              	.L14:
 143:lvgl/src/misc/lv_area.c **** }
 516              		.loc 1 143 5 is_stmt 1 view .LVU155
 144:lvgl/src/misc/lv_area.c **** 
 517              		.loc 1 144 1 is_stmt 0 view .LVU156
 518 0054 10BD     		pop	{r4, pc}
 519              	.LVL41:
 520              	.L16:
 140:lvgl/src/misc/lv_area.c ****     }
 521              		.loc 1 140 18 view .LVU157
 522 0056 0020     		movs	r0, #0
 523              	.LVL42:
 140:lvgl/src/misc/lv_area.c ****     }
 524              		.loc 1 140 18 view .LVU158
 525 0058 FCE7     		b	.L14
 526              		.cfi_endproc
 527              	.LFE12:
 529              		.section	.text._lv_area_join,"ax",%progbits
ARM GAS  /var/folders/21/t9g5rlb91ys800n5npymflf80000gn/T//ccj8QTAi.s 			page 25


 530              		.align	1
 531              		.global	_lv_area_join
 532              		.syntax unified
 533              		.thumb
 534              		.thumb_func
 536              	_lv_area_join:
 537              	.LVL43:
 538              	.LFB14:
 225:lvgl/src/misc/lv_area.c ****     a_res_p->x1 = LV_MIN(a1_p->x1, a2_p->x1);
 539              		.loc 1 225 1 is_stmt 1 view -0
 540              		.cfi_startproc
 541              		@ args = 0, pretend = 0, frame = 0
 542              		@ frame_needed = 0, uses_anonymous_args = 0
 543              		@ link register save eliminated.
 226:lvgl/src/misc/lv_area.c ****     a_res_p->y1 = LV_MIN(a1_p->y1, a2_p->y1);
 544              		.loc 1 226 5 view .LVU160
 226:lvgl/src/misc/lv_area.c ****     a_res_p->y1 = LV_MIN(a1_p->y1, a2_p->y1);
 545              		.loc 1 226 19 is_stmt 0 view .LVU161
 546 0000 B2F90030 		ldrsh	r3, [r2]
 547 0004 B1F900C0 		ldrsh	ip, [r1]
 548 0008 6345     		cmp	r3, ip
 549 000a A8BF     		it	ge
 550 000c 6346     		movge	r3, ip
 226:lvgl/src/misc/lv_area.c ****     a_res_p->y1 = LV_MIN(a1_p->y1, a2_p->y1);
 551              		.loc 1 226 17 view .LVU162
 552 000e 0380     		strh	r3, [r0]	@ movhi
 227:lvgl/src/misc/lv_area.c ****     a_res_p->x2 = LV_MAX(a1_p->x2, a2_p->x2);
 553              		.loc 1 227 5 is_stmt 1 view .LVU163
 227:lvgl/src/misc/lv_area.c ****     a_res_p->x2 = LV_MAX(a1_p->x2, a2_p->x2);
 554              		.loc 1 227 19 is_stmt 0 view .LVU164
 555 0010 B2F90230 		ldrsh	r3, [r2, #2]
 556 0014 B1F902C0 		ldrsh	ip, [r1, #2]
 557 0018 6345     		cmp	r3, ip
 558 001a A8BF     		it	ge
 559 001c 6346     		movge	r3, ip
 227:lvgl/src/misc/lv_area.c ****     a_res_p->x2 = LV_MAX(a1_p->x2, a2_p->x2);
 560              		.loc 1 227 17 view .LVU165
 561 001e 4380     		strh	r3, [r0, #2]	@ movhi
 228:lvgl/src/misc/lv_area.c ****     a_res_p->y2 = LV_MAX(a1_p->y2, a2_p->y2);
 562              		.loc 1 228 5 is_stmt 1 view .LVU166
 228:lvgl/src/misc/lv_area.c ****     a_res_p->y2 = LV_MAX(a1_p->y2, a2_p->y2);
 563              		.loc 1 228 19 is_stmt 0 view .LVU167
 564 0020 B2F90430 		ldrsh	r3, [r2, #4]
 565 0024 B1F904C0 		ldrsh	ip, [r1, #4]
 566 0028 6345     		cmp	r3, ip
 567 002a B8BF     		it	lt
 568 002c 6346     		movlt	r3, ip
 228:lvgl/src/misc/lv_area.c ****     a_res_p->y2 = LV_MAX(a1_p->y2, a2_p->y2);
 569              		.loc 1 228 17 view .LVU168
 570 002e 8380     		strh	r3, [r0, #4]	@ movhi
 229:lvgl/src/misc/lv_area.c **** }
 571              		.loc 1 229 5 is_stmt 1 view .LVU169
 229:lvgl/src/misc/lv_area.c **** }
 572              		.loc 1 229 19 is_stmt 0 view .LVU170
 573 0030 B2F90630 		ldrsh	r3, [r2, #6]
 574 0034 B1F90620 		ldrsh	r2, [r1, #6]
 575              	.LVL44:
ARM GAS  /var/folders/21/t9g5rlb91ys800n5npymflf80000gn/T//ccj8QTAi.s 			page 26


 229:lvgl/src/misc/lv_area.c **** }
 576              		.loc 1 229 19 view .LVU171
 577 0038 9342     		cmp	r3, r2
 578 003a B8BF     		it	lt
 579 003c 1346     		movlt	r3, r2
 229:lvgl/src/misc/lv_area.c **** }
 580              		.loc 1 229 17 view .LVU172
 581 003e C380     		strh	r3, [r0, #6]	@ movhi
 230:lvgl/src/misc/lv_area.c **** 
 582              		.loc 1 230 1 view .LVU173
 583 0040 7047     		bx	lr
 584              		.cfi_endproc
 585              	.LFE14:
 587              		.section	.text._lv_area_is_point_on,"ax",%progbits
 588              		.align	1
 589              		.global	_lv_area_is_point_on
 590              		.syntax unified
 591              		.thumb
 592              		.thumb_func
 594              	_lv_area_is_point_on:
 595              	.LVL45:
 596              	.LFB15:
 240:lvgl/src/misc/lv_area.c ****     /*First check the basic area*/
 597              		.loc 1 240 1 is_stmt 1 view -0
 598              		.cfi_startproc
 599              		@ args = 0, pretend = 0, frame = 8
 600              		@ frame_needed = 0, uses_anonymous_args = 0
 240:lvgl/src/misc/lv_area.c ****     /*First check the basic area*/
 601              		.loc 1 240 1 is_stmt 0 view .LVU175
 602 0000 70B5     		push	{r4, r5, r6, lr}
 603              	.LCFI3:
 604              		.cfi_def_cfa_offset 16
 605              		.cfi_offset 4, -16
 606              		.cfi_offset 5, -12
 607              		.cfi_offset 6, -8
 608              		.cfi_offset 14, -4
 609 0002 82B0     		sub	sp, sp, #8
 610              	.LCFI4:
 611              		.cfi_def_cfa_offset 24
 612 0004 0446     		mov	r4, r0
 613 0006 0D46     		mov	r5, r1
 242:lvgl/src/misc/lv_area.c ****     if((p_p->x >= a_p->x1 && p_p->x <= a_p->x2) && ((p_p->y >= a_p->y1 && p_p->y <= a_p->y2))) {
 614              		.loc 1 242 5 is_stmt 1 view .LVU176
 615              	.LVL46:
 243:lvgl/src/misc/lv_area.c ****         is_on_rect = true;
 616              		.loc 1 243 5 view .LVU177
 243:lvgl/src/misc/lv_area.c ****         is_on_rect = true;
 617              		.loc 1 243 12 is_stmt 0 view .LVU178
 618 0008 B1F90010 		ldrsh	r1, [r1]
 619              	.LVL47:
 243:lvgl/src/misc/lv_area.c ****         is_on_rect = true;
 620              		.loc 1 243 22 view .LVU179
 621 000c B0F90000 		ldrsh	r0, [r0]
 622              	.LVL48:
 243:lvgl/src/misc/lv_area.c ****         is_on_rect = true;
 623              		.loc 1 243 7 view .LVU180
 624 0010 8142     		cmp	r1, r0
ARM GAS  /var/folders/21/t9g5rlb91ys800n5npymflf80000gn/T//ccj8QTAi.s 			page 27


 625 0012 C0F2AE80 		blt	.L25
 243:lvgl/src/misc/lv_area.c ****         is_on_rect = true;
 626              		.loc 1 243 43 discriminator 1 view .LVU181
 627 0016 B4F90430 		ldrsh	r3, [r4, #4]
 243:lvgl/src/misc/lv_area.c ****         is_on_rect = true;
 628              		.loc 1 243 27 discriminator 1 view .LVU182
 629 001a 9942     		cmp	r1, r3
 630 001c 00F3AC80 		bgt	.L26
 243:lvgl/src/misc/lv_area.c ****         is_on_rect = true;
 631              		.loc 1 243 57 discriminator 2 view .LVU183
 632 0020 B5F90260 		ldrsh	r6, [r5, #2]
 243:lvgl/src/misc/lv_area.c ****         is_on_rect = true;
 633              		.loc 1 243 67 discriminator 2 view .LVU184
 634 0024 B4F902E0 		ldrsh	lr, [r4, #2]
 243:lvgl/src/misc/lv_area.c ****         is_on_rect = true;
 635              		.loc 1 243 49 discriminator 2 view .LVU185
 636 0028 7645     		cmp	r6, lr
 637 002a C0F2A780 		blt	.L27
 243:lvgl/src/misc/lv_area.c ****         is_on_rect = true;
 638              		.loc 1 243 88 discriminator 3 view .LVU186
 639 002e B4F90610 		ldrsh	r1, [r4, #6]
 243:lvgl/src/misc/lv_area.c ****         is_on_rect = true;
 640              		.loc 1 243 72 discriminator 3 view .LVU187
 641 0032 8E42     		cmp	r6, r1
 642 0034 00F3A480 		bgt	.L28
 244:lvgl/src/misc/lv_area.c ****     }
 643              		.loc 1 244 9 is_stmt 1 view .LVU188
 644              	.LVL49:
 246:lvgl/src/misc/lv_area.c ****         return false;
 645              		.loc 1 246 5 view .LVU189
 249:lvgl/src/misc/lv_area.c ****         /*No radius, it is within the rectangle*/
 646              		.loc 1 249 5 view .LVU190
 249:lvgl/src/misc/lv_area.c ****         /*No radius, it is within the rectangle*/
 647              		.loc 1 249 7 is_stmt 0 view .LVU191
 648 0038 002A     		cmp	r2, #0
 649 003a 40F3A380 		ble	.L29
 253:lvgl/src/misc/lv_area.c ****     lv_coord_t h = lv_area_get_height(a_p) / 2;
 650              		.loc 1 253 5 is_stmt 1 view .LVU192
 651              	.LVL50:
 652              	.LBB126:
 653              	.LBI126:
 123:lvgl/src/misc/lv_area.h **** {
 654              		.loc 2 123 26 view .LVU193
 655              	.LBB127:
 125:lvgl/src/misc/lv_area.h **** }
 656              		.loc 2 125 5 view .LVU194
 125:lvgl/src/misc/lv_area.h **** }
 657              		.loc 2 125 31 is_stmt 0 view .LVU195
 658 003e 9BB2     		uxth	r3, r3
 125:lvgl/src/misc/lv_area.h **** }
 659              		.loc 2 125 44 view .LVU196
 660 0040 1FFA80FC 		uxth	ip, r0
 125:lvgl/src/misc/lv_area.h **** }
 661              		.loc 2 125 36 view .LVU197
 662 0044 A3EB0C03 		sub	r3, r3, ip
 663 0048 9BB2     		uxth	r3, r3
 125:lvgl/src/misc/lv_area.h **** }
ARM GAS  /var/folders/21/t9g5rlb91ys800n5npymflf80000gn/T//ccj8QTAi.s 			page 28


 664              		.loc 2 125 49 view .LVU198
 665 004a 0133     		adds	r3, r3, #1
 666              	.LVL51:
 125:lvgl/src/misc/lv_area.h **** }
 667              		.loc 2 125 49 view .LVU199
 668              	.LBE127:
 669              	.LBE126:
 253:lvgl/src/misc/lv_area.c ****     lv_coord_t h = lv_area_get_height(a_p) / 2;
 670              		.loc 1 253 16 view .LVU200
 671 004c C3F3C036 		ubfx	r6, r3, #15, #1
 672 0050 06FA83F3 		sxtah	r3, r6, r3
 673 0054 5B10     		asrs	r3, r3, #1
 674              	.LVL52:
 254:lvgl/src/misc/lv_area.c ****     lv_coord_t max_radius = LV_MIN(w, h);
 675              		.loc 1 254 5 is_stmt 1 view .LVU201
 676              	.LBB128:
 677              	.LBI128:
 133:lvgl/src/misc/lv_area.h **** {
 678              		.loc 2 133 26 view .LVU202
 679              	.LBB129:
 680              		.loc 2 135 5 view .LVU203
 681              		.loc 2 135 31 is_stmt 0 view .LVU204
 682 0056 89B2     		uxth	r1, r1
 683              		.loc 2 135 44 view .LVU205
 684 0058 1FFA8EFE 		uxth	lr, lr
 685              		.loc 2 135 36 view .LVU206
 686 005c A1EB0E01 		sub	r1, r1, lr
 687 0060 89B2     		uxth	r1, r1
 688              		.loc 2 135 49 view .LVU207
 689 0062 0131     		adds	r1, r1, #1
 690              	.LVL53:
 691              		.loc 2 135 49 view .LVU208
 692              	.LBE129:
 693              	.LBE128:
 254:lvgl/src/misc/lv_area.c ****     lv_coord_t max_radius = LV_MIN(w, h);
 694              		.loc 1 254 16 view .LVU209
 695 0064 C1F3C036 		ubfx	r6, r1, #15, #1
 696 0068 06FA81F1 		sxtah	r1, r6, r1
 697 006c 4910     		asrs	r1, r1, #1
 698              	.LVL54:
 255:lvgl/src/misc/lv_area.c ****     if(radius > max_radius)
 699              		.loc 1 255 5 is_stmt 1 view .LVU210
 255:lvgl/src/misc/lv_area.c ****     if(radius > max_radius)
 700              		.loc 1 255 16 is_stmt 0 view .LVU211
 701 006e 8B42     		cmp	r3, r1
 702 0070 A8BF     		it	ge
 703 0072 0B46     		movge	r3, r1
 704              	.LVL55:
 256:lvgl/src/misc/lv_area.c ****         radius = max_radius;
 705              		.loc 1 256 5 is_stmt 1 view .LVU212
 256:lvgl/src/misc/lv_area.c ****         radius = max_radius;
 706              		.loc 1 256 7 is_stmt 0 view .LVU213
 707 0074 9A42     		cmp	r2, r3
 708 0076 00DC     		bgt	.L21
 709 0078 1346     		mov	r3, r2
 710              	.LVL56:
 711              	.L21:
ARM GAS  /var/folders/21/t9g5rlb91ys800n5npymflf80000gn/T//ccj8QTAi.s 			page 29


 260:lvgl/src/misc/lv_area.c ****     /*Top left*/
 712              		.loc 1 260 5 is_stmt 1 view .LVU214
 262:lvgl/src/misc/lv_area.c ****     corner_area.x2 = a_p->x1 + radius;
 713              		.loc 1 262 5 view .LVU215
 262:lvgl/src/misc/lv_area.c ****     corner_area.x2 = a_p->x1 + radius;
 714              		.loc 1 262 20 is_stmt 0 view .LVU216
 715 007a ADF80000 		strh	r0, [sp]	@ movhi
 263:lvgl/src/misc/lv_area.c ****     corner_area.y1 = a_p->y1;
 716              		.loc 1 263 5 is_stmt 1 view .LVU217
 263:lvgl/src/misc/lv_area.c ****     corner_area.y1 = a_p->y1;
 717              		.loc 1 263 30 is_stmt 0 view .LVU218
 718 007e 9EB2     		uxth	r6, r3
 719 0080 B444     		add	ip, ip, r6
 720              	.LVL57:
 263:lvgl/src/misc/lv_area.c ****     corner_area.y1 = a_p->y1;
 721              		.loc 1 263 20 view .LVU219
 722 0082 ADF804C0 		strh	ip, [sp, #4]	@ movhi
 723              	.LVL58:
 264:lvgl/src/misc/lv_area.c ****     corner_area.y2 = a_p->y1 + radius;
 724              		.loc 1 264 5 is_stmt 1 view .LVU220
 264:lvgl/src/misc/lv_area.c ****     corner_area.y2 = a_p->y1 + radius;
 725              		.loc 1 264 25 is_stmt 0 view .LVU221
 726 0086 B4F90230 		ldrsh	r3, [r4, #2]
 727              	.LVL59:
 264:lvgl/src/misc/lv_area.c ****     corner_area.y2 = a_p->y1 + radius;
 728              		.loc 1 264 20 view .LVU222
 729 008a ADF80230 		strh	r3, [sp, #2]	@ movhi
 265:lvgl/src/misc/lv_area.c ****     if(_lv_area_is_point_on(&corner_area, p_p, 0)) {
 730              		.loc 1 265 5 is_stmt 1 view .LVU223
 265:lvgl/src/misc/lv_area.c ****     if(_lv_area_is_point_on(&corner_area, p_p, 0)) {
 731              		.loc 1 265 30 is_stmt 0 view .LVU224
 732 008e 16FA83F3 		uxtah	r3, r6, r3
 265:lvgl/src/misc/lv_area.c ****     if(_lv_area_is_point_on(&corner_area, p_p, 0)) {
 733              		.loc 1 265 20 view .LVU225
 734 0092 ADF80630 		strh	r3, [sp, #6]	@ movhi
 266:lvgl/src/misc/lv_area.c ****         corner_area.x2 += radius;
 735              		.loc 1 266 5 is_stmt 1 view .LVU226
 266:lvgl/src/misc/lv_area.c ****         corner_area.x2 += radius;
 736              		.loc 1 266 8 is_stmt 0 view .LVU227
 737 0096 0022     		movs	r2, #0
 738 0098 2946     		mov	r1, r5
 739              	.LVL60:
 266:lvgl/src/misc/lv_area.c ****         corner_area.x2 += radius;
 740              		.loc 1 266 8 view .LVU228
 741 009a 6846     		mov	r0, sp
 742 009c FFF7FEFF 		bl	_lv_area_is_point_on
 743              	.LVL61:
 266:lvgl/src/misc/lv_area.c ****         corner_area.x2 += radius;
 744              		.loc 1 266 7 view .LVU229
 745 00a0 70B1     		cbz	r0, .L22
 267:lvgl/src/misc/lv_area.c ****         corner_area.y2 += radius;
 746              		.loc 1 267 9 is_stmt 1 view .LVU230
 267:lvgl/src/misc/lv_area.c ****         corner_area.y2 += radius;
 747              		.loc 1 267 20 is_stmt 0 view .LVU231
 748 00a2 BDF80430 		ldrh	r3, [sp, #4]
 267:lvgl/src/misc/lv_area.c ****         corner_area.y2 += radius;
 749              		.loc 1 267 24 view .LVU232
ARM GAS  /var/folders/21/t9g5rlb91ys800n5npymflf80000gn/T//ccj8QTAi.s 			page 30


 750 00a6 3344     		add	r3, r3, r6
 751 00a8 ADF80430 		strh	r3, [sp, #4]	@ movhi
 268:lvgl/src/misc/lv_area.c ****         return lv_point_within_circle(&corner_area, p_p);
 752              		.loc 1 268 9 is_stmt 1 view .LVU233
 268:lvgl/src/misc/lv_area.c ****         return lv_point_within_circle(&corner_area, p_p);
 753              		.loc 1 268 20 is_stmt 0 view .LVU234
 754 00ac BDF80630 		ldrh	r3, [sp, #6]
 268:lvgl/src/misc/lv_area.c ****         return lv_point_within_circle(&corner_area, p_p);
 755              		.loc 1 268 24 view .LVU235
 756 00b0 3344     		add	r3, r3, r6
 757 00b2 ADF80630 		strh	r3, [sp, #6]	@ movhi
 269:lvgl/src/misc/lv_area.c ****     }
 758              		.loc 1 269 9 is_stmt 1 view .LVU236
 269:lvgl/src/misc/lv_area.c ****     }
 759              		.loc 1 269 16 is_stmt 0 view .LVU237
 760 00b6 2946     		mov	r1, r5
 761 00b8 6846     		mov	r0, sp
 762 00ba FFF7FEFF 		bl	lv_point_within_circle
 763              	.LVL62:
 764 00be 59E0     		b	.L20
 765              	.L22:
 272:lvgl/src/misc/lv_area.c ****     corner_area.y2 = a_p->y2;
 766              		.loc 1 272 5 is_stmt 1 view .LVU238
 272:lvgl/src/misc/lv_area.c ****     corner_area.y2 = a_p->y2;
 767              		.loc 1 272 25 is_stmt 0 view .LVU239
 768 00c0 B4F90620 		ldrsh	r2, [r4, #6]
 769 00c4 93B2     		uxth	r3, r2
 272:lvgl/src/misc/lv_area.c ****     corner_area.y2 = a_p->y2;
 770              		.loc 1 272 30 view .LVU240
 771 00c6 9B1B     		subs	r3, r3, r6
 272:lvgl/src/misc/lv_area.c ****     corner_area.y2 = a_p->y2;
 772              		.loc 1 272 20 view .LVU241
 773 00c8 ADF80230 		strh	r3, [sp, #2]	@ movhi
 273:lvgl/src/misc/lv_area.c ****     if(_lv_area_is_point_on(&corner_area, p_p, 0)) {
 774              		.loc 1 273 5 is_stmt 1 view .LVU242
 273:lvgl/src/misc/lv_area.c ****     if(_lv_area_is_point_on(&corner_area, p_p, 0)) {
 775              		.loc 1 273 20 is_stmt 0 view .LVU243
 776 00cc ADF80620 		strh	r2, [sp, #6]	@ movhi
 274:lvgl/src/misc/lv_area.c ****         corner_area.x2 += radius;
 777              		.loc 1 274 5 is_stmt 1 view .LVU244
 274:lvgl/src/misc/lv_area.c ****         corner_area.x2 += radius;
 778              		.loc 1 274 8 is_stmt 0 view .LVU245
 779 00d0 0022     		movs	r2, #0
 780 00d2 2946     		mov	r1, r5
 781 00d4 6846     		mov	r0, sp
 782 00d6 FFF7FEFF 		bl	_lv_area_is_point_on
 783              	.LVL63:
 274:lvgl/src/misc/lv_area.c ****         corner_area.x2 += radius;
 784              		.loc 1 274 7 view .LVU246
 785 00da 70B1     		cbz	r0, .L23
 275:lvgl/src/misc/lv_area.c ****         corner_area.y1 -= radius;
 786              		.loc 1 275 9 is_stmt 1 view .LVU247
 275:lvgl/src/misc/lv_area.c ****         corner_area.y1 -= radius;
 787              		.loc 1 275 20 is_stmt 0 view .LVU248
 788 00dc BDF80430 		ldrh	r3, [sp, #4]
 275:lvgl/src/misc/lv_area.c ****         corner_area.y1 -= radius;
 789              		.loc 1 275 24 view .LVU249
ARM GAS  /var/folders/21/t9g5rlb91ys800n5npymflf80000gn/T//ccj8QTAi.s 			page 31


 790 00e0 3344     		add	r3, r3, r6
 791 00e2 ADF80430 		strh	r3, [sp, #4]	@ movhi
 276:lvgl/src/misc/lv_area.c ****         return lv_point_within_circle(&corner_area, p_p);
 792              		.loc 1 276 9 is_stmt 1 view .LVU250
 276:lvgl/src/misc/lv_area.c ****         return lv_point_within_circle(&corner_area, p_p);
 793              		.loc 1 276 20 is_stmt 0 view .LVU251
 794 00e6 BDF80230 		ldrh	r3, [sp, #2]
 276:lvgl/src/misc/lv_area.c ****         return lv_point_within_circle(&corner_area, p_p);
 795              		.loc 1 276 24 view .LVU252
 796 00ea 9B1B     		subs	r3, r3, r6
 797 00ec ADF80230 		strh	r3, [sp, #2]	@ movhi
 277:lvgl/src/misc/lv_area.c ****     }
 798              		.loc 1 277 9 is_stmt 1 view .LVU253
 277:lvgl/src/misc/lv_area.c ****     }
 799              		.loc 1 277 16 is_stmt 0 view .LVU254
 800 00f0 2946     		mov	r1, r5
 801 00f2 6846     		mov	r0, sp
 802 00f4 FFF7FEFF 		bl	lv_point_within_circle
 803              	.LVL64:
 804 00f8 3CE0     		b	.L20
 805              	.L23:
 280:lvgl/src/misc/lv_area.c ****     corner_area.x2 = a_p->x2;
 806              		.loc 1 280 5 is_stmt 1 view .LVU255
 280:lvgl/src/misc/lv_area.c ****     corner_area.x2 = a_p->x2;
 807              		.loc 1 280 25 is_stmt 0 view .LVU256
 808 00fa B4F90420 		ldrsh	r2, [r4, #4]
 809 00fe 93B2     		uxth	r3, r2
 280:lvgl/src/misc/lv_area.c ****     corner_area.x2 = a_p->x2;
 810              		.loc 1 280 30 view .LVU257
 811 0100 9B1B     		subs	r3, r3, r6
 280:lvgl/src/misc/lv_area.c ****     corner_area.x2 = a_p->x2;
 812              		.loc 1 280 20 view .LVU258
 813 0102 ADF80030 		strh	r3, [sp]	@ movhi
 281:lvgl/src/misc/lv_area.c ****     if(_lv_area_is_point_on(&corner_area, p_p, 0)) {
 814              		.loc 1 281 5 is_stmt 1 view .LVU259
 281:lvgl/src/misc/lv_area.c ****     if(_lv_area_is_point_on(&corner_area, p_p, 0)) {
 815              		.loc 1 281 20 is_stmt 0 view .LVU260
 816 0106 ADF80420 		strh	r2, [sp, #4]	@ movhi
 282:lvgl/src/misc/lv_area.c ****         corner_area.x1 -= radius;
 817              		.loc 1 282 5 is_stmt 1 view .LVU261
 282:lvgl/src/misc/lv_area.c ****         corner_area.x1 -= radius;
 818              		.loc 1 282 8 is_stmt 0 view .LVU262
 819 010a 0022     		movs	r2, #0
 820 010c 2946     		mov	r1, r5
 821 010e 6846     		mov	r0, sp
 822 0110 FFF7FEFF 		bl	_lv_area_is_point_on
 823              	.LVL65:
 282:lvgl/src/misc/lv_area.c ****         corner_area.x1 -= radius;
 824              		.loc 1 282 7 view .LVU263
 825 0114 70B1     		cbz	r0, .L24
 283:lvgl/src/misc/lv_area.c ****         corner_area.y1 -= radius;
 826              		.loc 1 283 9 is_stmt 1 view .LVU264
 283:lvgl/src/misc/lv_area.c ****         corner_area.y1 -= radius;
 827              		.loc 1 283 20 is_stmt 0 view .LVU265
 828 0116 BDF80030 		ldrh	r3, [sp]
 283:lvgl/src/misc/lv_area.c ****         corner_area.y1 -= radius;
 829              		.loc 1 283 24 view .LVU266
ARM GAS  /var/folders/21/t9g5rlb91ys800n5npymflf80000gn/T//ccj8QTAi.s 			page 32


 830 011a 9B1B     		subs	r3, r3, r6
 831 011c ADF80030 		strh	r3, [sp]	@ movhi
 284:lvgl/src/misc/lv_area.c ****         return lv_point_within_circle(&corner_area, p_p);
 832              		.loc 1 284 9 is_stmt 1 view .LVU267
 284:lvgl/src/misc/lv_area.c ****         return lv_point_within_circle(&corner_area, p_p);
 833              		.loc 1 284 20 is_stmt 0 view .LVU268
 834 0120 BDF80230 		ldrh	r3, [sp, #2]
 284:lvgl/src/misc/lv_area.c ****         return lv_point_within_circle(&corner_area, p_p);
 835              		.loc 1 284 24 view .LVU269
 836 0124 9B1B     		subs	r3, r3, r6
 837 0126 ADF80230 		strh	r3, [sp, #2]	@ movhi
 285:lvgl/src/misc/lv_area.c ****     }
 838              		.loc 1 285 9 is_stmt 1 view .LVU270
 285:lvgl/src/misc/lv_area.c ****     }
 839              		.loc 1 285 16 is_stmt 0 view .LVU271
 840 012a 2946     		mov	r1, r5
 841 012c 6846     		mov	r0, sp
 842 012e FFF7FEFF 		bl	lv_point_within_circle
 843              	.LVL66:
 844 0132 1FE0     		b	.L20
 845              	.L24:
 288:lvgl/src/misc/lv_area.c ****     corner_area.y2 = a_p->y1 + radius;
 846              		.loc 1 288 5 is_stmt 1 view .LVU272
 288:lvgl/src/misc/lv_area.c ****     corner_area.y2 = a_p->y1 + radius;
 847              		.loc 1 288 25 is_stmt 0 view .LVU273
 848 0134 B4F90230 		ldrsh	r3, [r4, #2]
 288:lvgl/src/misc/lv_area.c ****     corner_area.y2 = a_p->y1 + radius;
 849              		.loc 1 288 20 view .LVU274
 850 0138 ADF80230 		strh	r3, [sp, #2]	@ movhi
 289:lvgl/src/misc/lv_area.c ****     if(_lv_area_is_point_on(&corner_area, p_p, 0)) {
 851              		.loc 1 289 5 is_stmt 1 view .LVU275
 289:lvgl/src/misc/lv_area.c ****     if(_lv_area_is_point_on(&corner_area, p_p, 0)) {
 852              		.loc 1 289 30 is_stmt 0 view .LVU276
 853 013c 16FA83F3 		uxtah	r3, r6, r3
 289:lvgl/src/misc/lv_area.c ****     if(_lv_area_is_point_on(&corner_area, p_p, 0)) {
 854              		.loc 1 289 20 view .LVU277
 855 0140 ADF80630 		strh	r3, [sp, #6]	@ movhi
 290:lvgl/src/misc/lv_area.c ****         corner_area.x1 -= radius;
 856              		.loc 1 290 5 is_stmt 1 view .LVU278
 290:lvgl/src/misc/lv_area.c ****         corner_area.x1 -= radius;
 857              		.loc 1 290 8 is_stmt 0 view .LVU279
 858 0144 0022     		movs	r2, #0
 859 0146 2946     		mov	r1, r5
 860 0148 6846     		mov	r0, sp
 861 014a FFF7FEFF 		bl	_lv_area_is_point_on
 862              	.LVL67:
 290:lvgl/src/misc/lv_area.c ****         corner_area.x1 -= radius;
 863              		.loc 1 290 7 view .LVU280
 864 014e 08B9     		cbnz	r0, .L32
 296:lvgl/src/misc/lv_area.c **** }
 865              		.loc 1 296 12 view .LVU281
 866 0150 0120     		movs	r0, #1
 867 0152 0FE0     		b	.L20
 868              	.L32:
 291:lvgl/src/misc/lv_area.c ****         corner_area.y2 += radius;
 869              		.loc 1 291 9 is_stmt 1 view .LVU282
 291:lvgl/src/misc/lv_area.c ****         corner_area.y2 += radius;
ARM GAS  /var/folders/21/t9g5rlb91ys800n5npymflf80000gn/T//ccj8QTAi.s 			page 33


 870              		.loc 1 291 20 is_stmt 0 view .LVU283
 871 0154 BDF80030 		ldrh	r3, [sp]
 291:lvgl/src/misc/lv_area.c ****         corner_area.y2 += radius;
 872              		.loc 1 291 24 view .LVU284
 873 0158 9B1B     		subs	r3, r3, r6
 874 015a ADF80030 		strh	r3, [sp]	@ movhi
 292:lvgl/src/misc/lv_area.c ****         return lv_point_within_circle(&corner_area, p_p);
 875              		.loc 1 292 9 is_stmt 1 view .LVU285
 292:lvgl/src/misc/lv_area.c ****         return lv_point_within_circle(&corner_area, p_p);
 876              		.loc 1 292 20 is_stmt 0 view .LVU286
 877 015e BDF80630 		ldrh	r3, [sp, #6]
 292:lvgl/src/misc/lv_area.c ****         return lv_point_within_circle(&corner_area, p_p);
 878              		.loc 1 292 24 view .LVU287
 879 0162 1E44     		add	r6, r6, r3
 880              	.LVL68:
 292:lvgl/src/misc/lv_area.c ****         return lv_point_within_circle(&corner_area, p_p);
 881              		.loc 1 292 24 view .LVU288
 882 0164 ADF80660 		strh	r6, [sp, #6]	@ movhi
 293:lvgl/src/misc/lv_area.c ****     }
 883              		.loc 1 293 9 is_stmt 1 view .LVU289
 293:lvgl/src/misc/lv_area.c ****     }
 884              		.loc 1 293 16 is_stmt 0 view .LVU290
 885 0168 2946     		mov	r1, r5
 886 016a 6846     		mov	r0, sp
 887 016c FFF7FEFF 		bl	lv_point_within_circle
 888              	.LVL69:
 889 0170 00E0     		b	.L20
 890              	.LVL70:
 891              	.L25:
 247:lvgl/src/misc/lv_area.c ****     /*Now handle potential rounded rectangles*/
 892              		.loc 1 247 16 view .LVU291
 893 0172 0020     		movs	r0, #0
 894              	.LVL71:
 895              	.L20:
 297:lvgl/src/misc/lv_area.c **** 
 896              		.loc 1 297 1 view .LVU292
 897 0174 02B0     		add	sp, sp, #8
 898              	.LCFI5:
 899              		.cfi_remember_state
 900              		.cfi_def_cfa_offset 16
 901              		@ sp needed
 902 0176 70BD     		pop	{r4, r5, r6, pc}
 903              	.LVL72:
 904              	.L26:
 905              	.LCFI6:
 906              		.cfi_restore_state
 247:lvgl/src/misc/lv_area.c ****     /*Now handle potential rounded rectangles*/
 907              		.loc 1 247 16 view .LVU293
 908 0178 0020     		movs	r0, #0
 909 017a FBE7     		b	.L20
 910              	.L27:
 911 017c 0020     		movs	r0, #0
 912 017e F9E7     		b	.L20
 913              	.L28:
 914 0180 0020     		movs	r0, #0
 915 0182 F7E7     		b	.L20
 916              	.LVL73:
ARM GAS  /var/folders/21/t9g5rlb91ys800n5npymflf80000gn/T//ccj8QTAi.s 			page 34


 917              	.L29:
 251:lvgl/src/misc/lv_area.c ****     }
 918              		.loc 1 251 16 view .LVU294
 919 0184 0120     		movs	r0, #1
 920 0186 F5E7     		b	.L20
 921              		.cfi_endproc
 922              	.LFE15:
 924              		.section	.text._lv_area_is_on,"ax",%progbits
 925              		.align	1
 926              		.global	_lv_area_is_on
 927              		.syntax unified
 928              		.thumb
 929              		.thumb_func
 931              	_lv_area_is_on:
 932              	.LVL74:
 933              	.LFB16:
 306:lvgl/src/misc/lv_area.c ****     if((a1_p->x1 <= a2_p->x2) && (a1_p->x2 >= a2_p->x1) && (a1_p->y1 <= a2_p->y2) && (a1_p->y2 >= a
 934              		.loc 1 306 1 is_stmt 1 view -0
 935              		.cfi_startproc
 936              		@ args = 0, pretend = 0, frame = 0
 937              		@ frame_needed = 0, uses_anonymous_args = 0
 938              		@ link register save eliminated.
 307:lvgl/src/misc/lv_area.c ****         return true;
 939              		.loc 1 307 5 view .LVU296
 307:lvgl/src/misc/lv_area.c ****         return true;
 940              		.loc 1 307 13 is_stmt 0 view .LVU297
 941 0000 B0F90020 		ldrsh	r2, [r0]
 307:lvgl/src/misc/lv_area.c ****         return true;
 942              		.loc 1 307 25 view .LVU298
 943 0004 B1F90430 		ldrsh	r3, [r1, #4]
 307:lvgl/src/misc/lv_area.c ****         return true;
 944              		.loc 1 307 7 view .LVU299
 945 0008 9A42     		cmp	r2, r3
 946 000a 13DC     		bgt	.L35
 307:lvgl/src/misc/lv_area.c ****         return true;
 947              		.loc 1 307 39 discriminator 1 view .LVU300
 948 000c B0F90420 		ldrsh	r2, [r0, #4]
 307:lvgl/src/misc/lv_area.c ****         return true;
 949              		.loc 1 307 51 discriminator 1 view .LVU301
 950 0010 B1F90030 		ldrsh	r3, [r1]
 307:lvgl/src/misc/lv_area.c ****         return true;
 951              		.loc 1 307 31 discriminator 1 view .LVU302
 952 0014 9A42     		cmp	r2, r3
 953 0016 0FDB     		blt	.L36
 307:lvgl/src/misc/lv_area.c ****         return true;
 954              		.loc 1 307 65 discriminator 2 view .LVU303
 955 0018 B0F90220 		ldrsh	r2, [r0, #2]
 307:lvgl/src/misc/lv_area.c ****         return true;
 956              		.loc 1 307 77 discriminator 2 view .LVU304
 957 001c B1F90630 		ldrsh	r3, [r1, #6]
 307:lvgl/src/misc/lv_area.c ****         return true;
 958              		.loc 1 307 57 discriminator 2 view .LVU305
 959 0020 9A42     		cmp	r2, r3
 960 0022 0BDC     		bgt	.L37
 307:lvgl/src/misc/lv_area.c ****         return true;
 961              		.loc 1 307 91 discriminator 3 view .LVU306
 962 0024 B0F90620 		ldrsh	r2, [r0, #6]
ARM GAS  /var/folders/21/t9g5rlb91ys800n5npymflf80000gn/T//ccj8QTAi.s 			page 35


 307:lvgl/src/misc/lv_area.c ****         return true;
 963              		.loc 1 307 103 discriminator 3 view .LVU307
 964 0028 B1F90230 		ldrsh	r3, [r1, #2]
 307:lvgl/src/misc/lv_area.c ****         return true;
 965              		.loc 1 307 83 discriminator 3 view .LVU308
 966 002c 9A42     		cmp	r2, r3
 967 002e 07DA     		bge	.L38
 311:lvgl/src/misc/lv_area.c ****     }
 968              		.loc 1 311 16 view .LVU309
 969 0030 0020     		movs	r0, #0
 970              	.LVL75:
 311:lvgl/src/misc/lv_area.c ****     }
 971              		.loc 1 311 16 view .LVU310
 972 0032 7047     		bx	lr
 973              	.LVL76:
 974              	.L35:
 311:lvgl/src/misc/lv_area.c ****     }
 975              		.loc 1 311 16 view .LVU311
 976 0034 0020     		movs	r0, #0
 977              	.LVL77:
 311:lvgl/src/misc/lv_area.c ****     }
 978              		.loc 1 311 16 view .LVU312
 979 0036 7047     		bx	lr
 980              	.LVL78:
 981              	.L36:
 311:lvgl/src/misc/lv_area.c ****     }
 982              		.loc 1 311 16 view .LVU313
 983 0038 0020     		movs	r0, #0
 984              	.LVL79:
 311:lvgl/src/misc/lv_area.c ****     }
 985              		.loc 1 311 16 view .LVU314
 986 003a 7047     		bx	lr
 987              	.LVL80:
 988              	.L37:
 311:lvgl/src/misc/lv_area.c ****     }
 989              		.loc 1 311 16 view .LVU315
 990 003c 0020     		movs	r0, #0
 991              	.LVL81:
 311:lvgl/src/misc/lv_area.c ****     }
 992              		.loc 1 311 16 view .LVU316
 993 003e 7047     		bx	lr
 994              	.LVL82:
 995              	.L38:
 308:lvgl/src/misc/lv_area.c ****     }
 996              		.loc 1 308 16 view .LVU317
 997 0040 0120     		movs	r0, #1
 998              	.LVL83:
 313:lvgl/src/misc/lv_area.c **** 
 999              		.loc 1 313 1 view .LVU318
 1000 0042 7047     		bx	lr
 1001              		.cfi_endproc
 1002              	.LFE16:
 1004              		.section	.text._lv_area_is_in,"ax",%progbits
 1005              		.align	1
 1006              		.global	_lv_area_is_in
 1007              		.syntax unified
 1008              		.thumb
ARM GAS  /var/folders/21/t9g5rlb91ys800n5npymflf80000gn/T//ccj8QTAi.s 			page 36


 1009              		.thumb_func
 1011              	_lv_area_is_in:
 1012              	.LVL84:
 1013              	.LFB17:
 323:lvgl/src/misc/lv_area.c ****     bool is_in = false;
 1014              		.loc 1 323 1 is_stmt 1 view -0
 1015              		.cfi_startproc
 1016              		@ args = 0, pretend = 0, frame = 8
 1017              		@ frame_needed = 0, uses_anonymous_args = 0
 323:lvgl/src/misc/lv_area.c ****     bool is_in = false;
 1018              		.loc 1 323 1 is_stmt 0 view .LVU320
 1019 0000 2DE9F041 		push	{r4, r5, r6, r7, r8, lr}
 1020              	.LCFI7:
 1021              		.cfi_def_cfa_offset 24
 1022              		.cfi_offset 4, -24
 1023              		.cfi_offset 5, -20
 1024              		.cfi_offset 6, -16
 1025              		.cfi_offset 7, -12
 1026              		.cfi_offset 8, -8
 1027              		.cfi_offset 14, -4
 1028 0004 82B0     		sub	sp, sp, #8
 1029              	.LCFI8:
 1030              		.cfi_def_cfa_offset 32
 1031 0006 0C46     		mov	r4, r1
 324:lvgl/src/misc/lv_area.c **** 
 1032              		.loc 1 324 5 is_stmt 1 view .LVU321
 1033              	.LVL85:
 326:lvgl/src/misc/lv_area.c ****        ain_p->y2 <= aholder_p->y2) {
 1034              		.loc 1 326 5 view .LVU322
 326:lvgl/src/misc/lv_area.c ****        ain_p->y2 <= aholder_p->y2) {
 1035              		.loc 1 326 13 is_stmt 0 view .LVU323
 1036 0008 B0F90030 		ldrsh	r3, [r0]
 326:lvgl/src/misc/lv_area.c ****        ain_p->y2 <= aholder_p->y2) {
 1037              		.loc 1 326 30 view .LVU324
 1038 000c B1F90010 		ldrsh	r1, [r1]
 1039              	.LVL86:
 326:lvgl/src/misc/lv_area.c ****        ain_p->y2 <= aholder_p->y2) {
 1040              		.loc 1 326 7 view .LVU325
 1041 0010 8B42     		cmp	r3, r1
 1042 0012 40DB     		blt	.L41
 1043 0014 0646     		mov	r6, r0
 1044 0016 1546     		mov	r5, r2
 326:lvgl/src/misc/lv_area.c ****        ain_p->y2 <= aholder_p->y2) {
 1045              		.loc 1 326 43 discriminator 1 view .LVU326
 1046 0018 B0F90220 		ldrsh	r2, [r0, #2]
 1047              	.LVL87:
 326:lvgl/src/misc/lv_area.c ****        ain_p->y2 <= aholder_p->y2) {
 1048              		.loc 1 326 60 discriminator 1 view .LVU327
 1049 001c B4F90210 		ldrsh	r1, [r4, #2]
 326:lvgl/src/misc/lv_area.c ****        ain_p->y2 <= aholder_p->y2) {
 1050              		.loc 1 326 35 discriminator 1 view .LVU328
 1051 0020 8A42     		cmp	r2, r1
 1052 0022 3CDB     		blt	.L42
 326:lvgl/src/misc/lv_area.c ****        ain_p->y2 <= aholder_p->y2) {
 1053              		.loc 1 326 73 discriminator 2 view .LVU329
 1054 0024 B0F90470 		ldrsh	r7, [r0, #4]
 326:lvgl/src/misc/lv_area.c ****        ain_p->y2 <= aholder_p->y2) {
ARM GAS  /var/folders/21/t9g5rlb91ys800n5npymflf80000gn/T//ccj8QTAi.s 			page 37


 1055              		.loc 1 326 90 discriminator 2 view .LVU330
 1056 0028 B4F90410 		ldrsh	r1, [r4, #4]
 326:lvgl/src/misc/lv_area.c ****        ain_p->y2 <= aholder_p->y2) {
 1057              		.loc 1 326 65 discriminator 2 view .LVU331
 1058 002c 8F42     		cmp	r7, r1
 1059 002e 38DC     		bgt	.L43
 327:lvgl/src/misc/lv_area.c ****         is_in = true;
 1060              		.loc 1 327 13 discriminator 3 view .LVU332
 1061 0030 B0F90680 		ldrsh	r8, [r0, #6]
 327:lvgl/src/misc/lv_area.c ****         is_in = true;
 1062              		.loc 1 327 30 discriminator 3 view .LVU333
 1063 0034 B4F90610 		ldrsh	r1, [r4, #6]
 326:lvgl/src/misc/lv_area.c ****        ain_p->y2 <= aholder_p->y2) {
 1064              		.loc 1 326 95 discriminator 3 view .LVU334
 1065 0038 8845     		cmp	r8, r1
 1066 003a 34DC     		bgt	.L44
 328:lvgl/src/misc/lv_area.c ****     }
 1067              		.loc 1 328 9 is_stmt 1 view .LVU335
 1068              	.LVL88:
 331:lvgl/src/misc/lv_area.c ****     if(radius == 0) return true;
 1069              		.loc 1 331 5 view .LVU336
 332:lvgl/src/misc/lv_area.c **** 
 1070              		.loc 1 332 5 view .LVU337
 332:lvgl/src/misc/lv_area.c **** 
 1071              		.loc 1 332 7 is_stmt 0 view .LVU338
 1072 003c 0DB9     		cbnz	r5, .L47
 332:lvgl/src/misc/lv_area.c **** 
 1073              		.loc 1 332 28 view .LVU339
 1074 003e 0120     		movs	r0, #1
 1075              	.LVL89:
 332:lvgl/src/misc/lv_area.c **** 
 1076              		.loc 1 332 28 view .LVU340
 1077 0040 2AE0     		b	.L40
 1078              	.LVL90:
 1079              	.L47:
 335:lvgl/src/misc/lv_area.c **** 
 1080              		.loc 1 335 5 is_stmt 1 view .LVU341
 337:lvgl/src/misc/lv_area.c ****     p.y = ain_p->y1;
 1081              		.loc 1 337 5 view .LVU342
 337:lvgl/src/misc/lv_area.c ****     p.y = ain_p->y1;
 1082              		.loc 1 337 9 is_stmt 0 view .LVU343
 1083 0042 ADF80430 		strh	r3, [sp, #4]	@ movhi
 338:lvgl/src/misc/lv_area.c ****     if(_lv_area_is_point_on(aholder_p, &p, radius) == false) return false;
 1084              		.loc 1 338 5 is_stmt 1 view .LVU344
 338:lvgl/src/misc/lv_area.c ****     if(_lv_area_is_point_on(aholder_p, &p, radius) == false) return false;
 1085              		.loc 1 338 9 is_stmt 0 view .LVU345
 1086 0046 ADF80620 		strh	r2, [sp, #6]	@ movhi
 339:lvgl/src/misc/lv_area.c **** 
 1087              		.loc 1 339 5 is_stmt 1 view .LVU346
 339:lvgl/src/misc/lv_area.c **** 
 1088              		.loc 1 339 8 is_stmt 0 view .LVU347
 1089 004a 2A46     		mov	r2, r5
 1090 004c 01A9     		add	r1, sp, #4
 1091 004e 2046     		mov	r0, r4
 1092              	.LVL91:
 339:lvgl/src/misc/lv_area.c **** 
 1093              		.loc 1 339 8 view .LVU348
ARM GAS  /var/folders/21/t9g5rlb91ys800n5npymflf80000gn/T//ccj8QTAi.s 			page 38


 1094 0050 FFF7FEFF 		bl	_lv_area_is_point_on
 1095              	.LVL92:
 339:lvgl/src/misc/lv_area.c **** 
 1096              		.loc 1 339 7 view .LVU349
 1097 0054 00B3     		cbz	r0, .L40
 341:lvgl/src/misc/lv_area.c ****     p.y = ain_p->y1;
 1098              		.loc 1 341 5 is_stmt 1 view .LVU350
 341:lvgl/src/misc/lv_area.c ****     p.y = ain_p->y1;
 1099              		.loc 1 341 9 is_stmt 0 view .LVU351
 1100 0056 ADF80470 		strh	r7, [sp, #4]	@ movhi
 342:lvgl/src/misc/lv_area.c ****     if(_lv_area_is_point_on(aholder_p, &p, radius) == false) return false;
 1101              		.loc 1 342 5 is_stmt 1 view .LVU352
 342:lvgl/src/misc/lv_area.c ****     if(_lv_area_is_point_on(aholder_p, &p, radius) == false) return false;
 1102              		.loc 1 342 16 is_stmt 0 view .LVU353
 1103 005a B6F90230 		ldrsh	r3, [r6, #2]
 342:lvgl/src/misc/lv_area.c ****     if(_lv_area_is_point_on(aholder_p, &p, radius) == false) return false;
 1104              		.loc 1 342 9 view .LVU354
 1105 005e ADF80630 		strh	r3, [sp, #6]	@ movhi
 343:lvgl/src/misc/lv_area.c **** 
 1106              		.loc 1 343 5 is_stmt 1 view .LVU355
 343:lvgl/src/misc/lv_area.c **** 
 1107              		.loc 1 343 8 is_stmt 0 view .LVU356
 1108 0062 2A46     		mov	r2, r5
 1109 0064 01A9     		add	r1, sp, #4
 1110 0066 2046     		mov	r0, r4
 1111 0068 FFF7FEFF 		bl	_lv_area_is_point_on
 1112              	.LVL93:
 343:lvgl/src/misc/lv_area.c **** 
 1113              		.loc 1 343 7 view .LVU357
 1114 006c A0B1     		cbz	r0, .L40
 345:lvgl/src/misc/lv_area.c ****     p.y = ain_p->y2;
 1115              		.loc 1 345 5 is_stmt 1 view .LVU358
 345:lvgl/src/misc/lv_area.c ****     p.y = ain_p->y2;
 1116              		.loc 1 345 16 is_stmt 0 view .LVU359
 1117 006e B6F90030 		ldrsh	r3, [r6]
 345:lvgl/src/misc/lv_area.c ****     p.y = ain_p->y2;
 1118              		.loc 1 345 9 view .LVU360
 1119 0072 ADF80430 		strh	r3, [sp, #4]	@ movhi
 346:lvgl/src/misc/lv_area.c ****     if(_lv_area_is_point_on(aholder_p, &p, radius) == false) return false;
 1120              		.loc 1 346 5 is_stmt 1 view .LVU361
 346:lvgl/src/misc/lv_area.c ****     if(_lv_area_is_point_on(aholder_p, &p, radius) == false) return false;
 1121              		.loc 1 346 9 is_stmt 0 view .LVU362
 1122 0076 ADF80680 		strh	r8, [sp, #6]	@ movhi
 347:lvgl/src/misc/lv_area.c **** 
 1123              		.loc 1 347 5 is_stmt 1 view .LVU363
 347:lvgl/src/misc/lv_area.c **** 
 1124              		.loc 1 347 8 is_stmt 0 view .LVU364
 1125 007a 2A46     		mov	r2, r5
 1126 007c 01A9     		add	r1, sp, #4
 1127 007e 2046     		mov	r0, r4
 1128 0080 FFF7FEFF 		bl	_lv_area_is_point_on
 1129              	.LVL94:
 347:lvgl/src/misc/lv_area.c **** 
 1130              		.loc 1 347 7 view .LVU365
 1131 0084 40B1     		cbz	r0, .L40
 349:lvgl/src/misc/lv_area.c ****     p.y = ain_p->y2;
 1132              		.loc 1 349 5 is_stmt 1 view .LVU366
ARM GAS  /var/folders/21/t9g5rlb91ys800n5npymflf80000gn/T//ccj8QTAi.s 			page 39


 349:lvgl/src/misc/lv_area.c ****     p.y = ain_p->y2;
 1133              		.loc 1 349 9 is_stmt 0 view .LVU367
 1134 0086 ADF80470 		strh	r7, [sp, #4]	@ movhi
 350:lvgl/src/misc/lv_area.c ****     if(_lv_area_is_point_on(aholder_p, &p, radius) == false) return false;
 1135              		.loc 1 350 5 is_stmt 1 view .LVU368
 351:lvgl/src/misc/lv_area.c **** 
 1136              		.loc 1 351 5 view .LVU369
 351:lvgl/src/misc/lv_area.c **** 
 1137              		.loc 1 351 8 is_stmt 0 view .LVU370
 1138 008a 2A46     		mov	r2, r5
 1139 008c 01A9     		add	r1, sp, #4
 1140 008e 2046     		mov	r0, r4
 1141 0090 FFF7FEFF 		bl	_lv_area_is_point_on
 1142              	.LVL95:
 1143 0094 00E0     		b	.L40
 1144              	.LVL96:
 1145              	.L41:
 331:lvgl/src/misc/lv_area.c ****     if(radius == 0) return true;
 1146              		.loc 1 331 23 view .LVU371
 1147 0096 0020     		movs	r0, #0
 1148              	.LVL97:
 1149              	.L40:
 354:lvgl/src/misc/lv_area.c **** 
 1150              		.loc 1 354 1 view .LVU372
 1151 0098 02B0     		add	sp, sp, #8
 1152              	.LCFI9:
 1153              		.cfi_remember_state
 1154              		.cfi_def_cfa_offset 24
 1155              		@ sp needed
 1156 009a BDE8F081 		pop	{r4, r5, r6, r7, r8, pc}
 1157              	.LVL98:
 1158              	.L42:
 1159              	.LCFI10:
 1160              		.cfi_restore_state
 331:lvgl/src/misc/lv_area.c ****     if(radius == 0) return true;
 1161              		.loc 1 331 23 view .LVU373
 1162 009e 0020     		movs	r0, #0
 1163              	.LVL99:
 331:lvgl/src/misc/lv_area.c ****     if(radius == 0) return true;
 1164              		.loc 1 331 23 view .LVU374
 1165 00a0 FAE7     		b	.L40
 1166              	.LVL100:
 1167              	.L43:
 331:lvgl/src/misc/lv_area.c ****     if(radius == 0) return true;
 1168              		.loc 1 331 23 view .LVU375
 1169 00a2 0020     		movs	r0, #0
 1170              	.LVL101:
 331:lvgl/src/misc/lv_area.c ****     if(radius == 0) return true;
 1171              		.loc 1 331 23 view .LVU376
 1172 00a4 F8E7     		b	.L40
 1173              	.LVL102:
 1174              	.L44:
 331:lvgl/src/misc/lv_area.c ****     if(radius == 0) return true;
 1175              		.loc 1 331 23 view .LVU377
 1176 00a6 0020     		movs	r0, #0
 1177              	.LVL103:
 331:lvgl/src/misc/lv_area.c ****     if(radius == 0) return true;
ARM GAS  /var/folders/21/t9g5rlb91ys800n5npymflf80000gn/T//ccj8QTAi.s 			page 40


 1178              		.loc 1 331 23 view .LVU378
 1179 00a8 F6E7     		b	.L40
 1180              		.cfi_endproc
 1181              	.LFE17:
 1183              		.section	.text._lv_area_diff,"ax",%progbits
 1184              		.align	1
 1185              		.global	_lv_area_diff
 1186              		.syntax unified
 1187              		.thumb
 1188              		.thumb_func
 1190              	_lv_area_diff:
 1191              	.LVL104:
 1192              	.LFB13:
 154:lvgl/src/misc/lv_area.c ****     /*Areas have no common parts*/
 1193              		.loc 1 154 1 is_stmt 1 view -0
 1194              		.cfi_startproc
 1195              		@ args = 0, pretend = 0, frame = 8
 1196              		@ frame_needed = 0, uses_anonymous_args = 0
 154:lvgl/src/misc/lv_area.c ****     /*Areas have no common parts*/
 1197              		.loc 1 154 1 is_stmt 0 view .LVU380
 1198 0000 2DE9F043 		push	{r4, r5, r6, r7, r8, r9, lr}
 1199              	.LCFI11:
 1200              		.cfi_def_cfa_offset 28
 1201              		.cfi_offset 4, -28
 1202              		.cfi_offset 5, -24
 1203              		.cfi_offset 6, -20
 1204              		.cfi_offset 7, -16
 1205              		.cfi_offset 8, -12
 1206              		.cfi_offset 9, -8
 1207              		.cfi_offset 14, -4
 1208 0004 83B0     		sub	sp, sp, #12
 1209              	.LCFI12:
 1210              		.cfi_def_cfa_offset 40
 1211 0006 0646     		mov	r6, r0
 1212 0008 0C46     		mov	r4, r1
 1213 000a 1546     		mov	r5, r2
 156:lvgl/src/misc/lv_area.c **** 
 1214              		.loc 1 156 5 is_stmt 1 view .LVU381
 156:lvgl/src/misc/lv_area.c **** 
 1215              		.loc 1 156 9 is_stmt 0 view .LVU382
 1216 000c 1146     		mov	r1, r2
 1217              	.LVL105:
 156:lvgl/src/misc/lv_area.c **** 
 1218              		.loc 1 156 9 view .LVU383
 1219 000e 2046     		mov	r0, r4
 1220              	.LVL106:
 156:lvgl/src/misc/lv_area.c **** 
 1221              		.loc 1 156 9 view .LVU384
 1222 0010 FFF7FEFF 		bl	_lv_area_is_on
 1223              	.LVL107:
 156:lvgl/src/misc/lv_area.c **** 
 1224              		.loc 1 156 7 view .LVU385
 1225 0014 0028     		cmp	r0, #0
 1226 0016 00F0AF80 		beq	.L53
 159:lvgl/src/misc/lv_area.c **** 
 1227              		.loc 1 159 5 is_stmt 1 view .LVU386
 159:lvgl/src/misc/lv_area.c **** 
ARM GAS  /var/folders/21/t9g5rlb91ys800n5npymflf80000gn/T//ccj8QTAi.s 			page 41


 1228              		.loc 1 159 8 is_stmt 0 view .LVU387
 1229 001a 0022     		movs	r2, #0
 1230 001c 2946     		mov	r1, r5
 1231 001e 2046     		mov	r0, r4
 1232 0020 FFF7FEFF 		bl	_lv_area_is_in
 1233              	.LVL108:
 159:lvgl/src/misc/lv_area.c **** 
 1234              		.loc 1 159 7 view .LVU388
 1235 0024 0028     		cmp	r0, #0
 1236 0026 40F0AA80 		bne	.L54
 162:lvgl/src/misc/lv_area.c **** 
 1237              		.loc 1 162 5 is_stmt 1 view .LVU389
 1238              	.LVL109:
 165:lvgl/src/misc/lv_area.c ****     lv_coord_t a1_w = lv_area_get_width(a1_p) - 1;
 1239              		.loc 1 165 5 view .LVU390
 166:lvgl/src/misc/lv_area.c ****     lv_coord_t a1_h = lv_area_get_height(a1_p) - 1;
 1240              		.loc 1 166 5 view .LVU391
 1241              	.LBB130:
 1242              	.LBI130:
 123:lvgl/src/misc/lv_area.h **** {
 1243              		.loc 2 123 26 view .LVU392
 1244              	.LBB131:
 125:lvgl/src/misc/lv_area.h **** }
 1245              		.loc 2 125 5 view .LVU393
 125:lvgl/src/misc/lv_area.h **** }
 1246              		.loc 2 125 31 is_stmt 0 view .LVU394
 1247 002a B4F90400 		ldrsh	r0, [r4, #4]
 1248 002e 83B2     		uxth	r3, r0
 125:lvgl/src/misc/lv_area.h **** }
 1249              		.loc 2 125 44 view .LVU395
 1250 0030 B4F90070 		ldrsh	r7, [r4]
 1251 0034 BAB2     		uxth	r2, r7
 125:lvgl/src/misc/lv_area.h **** }
 1252              		.loc 2 125 36 view .LVU396
 1253 0036 9B1A     		subs	r3, r3, r2
 1254 0038 9BB2     		uxth	r3, r3
 1255              	.LVL110:
 125:lvgl/src/misc/lv_area.h **** }
 1256              		.loc 2 125 36 view .LVU397
 1257              	.LBE131:
 1258              	.LBE130:
 167:lvgl/src/misc/lv_area.c **** 
 1259              		.loc 1 167 5 is_stmt 1 view .LVU398
 1260              	.LBB132:
 1261              	.LBI132:
 133:lvgl/src/misc/lv_area.h **** {
 1262              		.loc 2 133 26 view .LVU399
 1263              	.LBB133:
 1264              		.loc 2 135 5 view .LVU400
 1265              		.loc 2 135 31 is_stmt 0 view .LVU401
 1266 003a E288     		ldrh	r2, [r4, #6]
 1267              		.loc 2 135 44 view .LVU402
 1268 003c B4F902E0 		ldrsh	lr, [r4, #2]
 1269 0040 1FFA8EFC 		uxth	ip, lr
 1270              		.loc 2 135 36 view .LVU403
 1271 0044 A2EB0C02 		sub	r2, r2, ip
 1272 0048 92B2     		uxth	r2, r2
ARM GAS  /var/folders/21/t9g5rlb91ys800n5npymflf80000gn/T//ccj8QTAi.s 			page 42


 1273              	.LVL111:
 1274              		.loc 2 135 36 view .LVU404
 1275              	.LBE133:
 1276              	.LBE132:
 170:lvgl/src/misc/lv_area.c ****     if(th > 0) {
 1277              		.loc 1 170 5 is_stmt 1 view .LVU405
 170:lvgl/src/misc/lv_area.c ****     if(th > 0) {
 1278              		.loc 1 170 25 is_stmt 0 view .LVU406
 1279 004a B5F90280 		ldrsh	r8, [r5, #2]
 1280 004e 1FFA88F1 		uxth	r1, r8
 170:lvgl/src/misc/lv_area.c ****     if(th > 0) {
 1281              		.loc 1 170 30 view .LVU407
 1282 0052 A1EB0C01 		sub	r1, r1, ip
 170:lvgl/src/misc/lv_area.c ****     if(th > 0) {
 1283              		.loc 1 170 16 view .LVU408
 1284 0056 09B2     		sxth	r1, r1
 1285              	.LVL112:
 171:lvgl/src/misc/lv_area.c ****         n.x1 = a1_p->x1;
 1286              		.loc 1 171 5 is_stmt 1 view .LVU409
 171:lvgl/src/misc/lv_area.c ****         n.x1 = a1_p->x1;
 1287              		.loc 1 171 7 is_stmt 0 view .LVU410
 1288 0058 0029     		cmp	r1, #0
 1289 005a 40F38A80 		ble	.L55
 172:lvgl/src/misc/lv_area.c ****         n.y1 = a1_p->y1;
 1290              		.loc 1 172 9 is_stmt 1 view .LVU411
 172:lvgl/src/misc/lv_area.c ****         n.y1 = a1_p->y1;
 1291              		.loc 1 172 14 is_stmt 0 view .LVU412
 1292 005e ADF80070 		strh	r7, [sp]	@ movhi
 173:lvgl/src/misc/lv_area.c ****         n.x2 = a1_p->x2;
 1293              		.loc 1 173 9 is_stmt 1 view .LVU413
 173:lvgl/src/misc/lv_area.c ****         n.x2 = a1_p->x2;
 1294              		.loc 1 173 14 is_stmt 0 view .LVU414
 1295 0062 ADF802E0 		strh	lr, [sp, #2]	@ movhi
 174:lvgl/src/misc/lv_area.c ****         n.y2 = a1_p->y1 + th;
 1296              		.loc 1 174 9 is_stmt 1 view .LVU415
 174:lvgl/src/misc/lv_area.c ****         n.y2 = a1_p->y1 + th;
 1297              		.loc 1 174 14 is_stmt 0 view .LVU416
 1298 0066 ADF80400 		strh	r0, [sp, #4]	@ movhi
 175:lvgl/src/misc/lv_area.c ****         res_p[res_c++] = n;
 1299              		.loc 1 175 9 is_stmt 1 view .LVU417
 175:lvgl/src/misc/lv_area.c ****         res_p[res_c++] = n;
 1300              		.loc 1 175 14 is_stmt 0 view .LVU418
 1301 006a ADF80680 		strh	r8, [sp, #6]	@ movhi
 176:lvgl/src/misc/lv_area.c ****     }
 1302              		.loc 1 176 9 is_stmt 1 view .LVU419
 1303              	.LVL113:
 176:lvgl/src/misc/lv_area.c ****     }
 1304              		.loc 1 176 24 is_stmt 0 view .LVU420
 1305 006e 6F46     		mov	r7, sp
 1306 0070 03CF     		ldmia	r7!, {r0, r1}
 1307              	.LVL114:
 176:lvgl/src/misc/lv_area.c ****     }
 1308              		.loc 1 176 24 view .LVU421
 1309 0072 3060     		str	r0, [r6]	@ unaligned
 1310 0074 7160     		str	r1, [r6, #4]	@ unaligned
 176:lvgl/src/misc/lv_area.c ****     }
 1311              		.loc 1 176 20 view .LVU422
ARM GAS  /var/folders/21/t9g5rlb91ys800n5npymflf80000gn/T//ccj8QTAi.s 			page 43


 1312 0076 4FF0010C 		mov	ip, #1
 1313              	.LVL115:
 1314              	.L50:
 180:lvgl/src/misc/lv_area.c ****     if(bh > 0 && a2_p->y2 < a1_p->y2) {
 1315              		.loc 1 180 5 is_stmt 1 view .LVU423
 180:lvgl/src/misc/lv_area.c ****     if(bh > 0 && a2_p->y2 < a1_p->y2) {
 1316              		.loc 1 180 44 is_stmt 0 view .LVU424
 1317 007a 6188     		ldrh	r1, [r4, #2]
 180:lvgl/src/misc/lv_area.c ****     if(bh > 0 && a2_p->y2 < a1_p->y2) {
 1318              		.loc 1 180 33 view .LVU425
 1319 007c B5F90600 		ldrsh	r0, [r5, #6]
 1320 0080 87B2     		uxth	r7, r0
 180:lvgl/src/misc/lv_area.c ****     if(bh > 0 && a2_p->y2 < a1_p->y2) {
 1321              		.loc 1 180 26 view .LVU426
 1322 0082 C91B     		subs	r1, r1, r7
 1323 0084 0A44     		add	r2, r2, r1
 1324              	.LVL116:
 180:lvgl/src/misc/lv_area.c ****     if(bh > 0 && a2_p->y2 < a1_p->y2) {
 1325              		.loc 1 180 26 view .LVU427
 1326 0086 91B2     		uxth	r1, r2
 180:lvgl/src/misc/lv_area.c ****     if(bh > 0 && a2_p->y2 < a1_p->y2) {
 1327              		.loc 1 180 16 view .LVU428
 1328 0088 12B2     		sxth	r2, r2
 1329              	.LVL117:
 181:lvgl/src/misc/lv_area.c ****         n.x1 = a1_p->x1;
 1330              		.loc 1 181 5 is_stmt 1 view .LVU429
 181:lvgl/src/misc/lv_area.c ****         n.x1 = a1_p->x1;
 1331              		.loc 1 181 7 is_stmt 0 view .LVU430
 1332 008a 002A     		cmp	r2, #0
 1333 008c 1CDD     		ble	.L51
 181:lvgl/src/misc/lv_area.c ****         n.x1 = a1_p->x1;
 1334              		.loc 1 181 33 discriminator 1 view .LVU431
 1335 008e B4F90620 		ldrsh	r2, [r4, #6]
 1336              	.LVL118:
 181:lvgl/src/misc/lv_area.c ****         n.x1 = a1_p->x1;
 1337              		.loc 1 181 15 discriminator 1 view .LVU432
 1338 0092 9042     		cmp	r0, r2
 1339 0094 18DA     		bge	.L51
 182:lvgl/src/misc/lv_area.c ****         n.y1 = a2_p->y2;
 1340              		.loc 1 182 9 is_stmt 1 view .LVU433
 182:lvgl/src/misc/lv_area.c ****         n.y1 = a2_p->y2;
 1341              		.loc 1 182 20 is_stmt 0 view .LVU434
 1342 0096 B4F90020 		ldrsh	r2, [r4]
 182:lvgl/src/misc/lv_area.c ****         n.y1 = a2_p->y2;
 1343              		.loc 1 182 14 view .LVU435
 1344 009a ADF80020 		strh	r2, [sp]	@ movhi
 183:lvgl/src/misc/lv_area.c ****         n.x2 = a1_p->x2;
 1345              		.loc 1 183 9 is_stmt 1 view .LVU436
 183:lvgl/src/misc/lv_area.c ****         n.x2 = a1_p->x2;
 1346              		.loc 1 183 14 is_stmt 0 view .LVU437
 1347 009e ADF80200 		strh	r0, [sp, #2]	@ movhi
 184:lvgl/src/misc/lv_area.c ****         n.y2 = a2_p->y2 + bh;
 1348              		.loc 1 184 9 is_stmt 1 view .LVU438
 184:lvgl/src/misc/lv_area.c ****         n.y2 = a2_p->y2 + bh;
 1349              		.loc 1 184 20 is_stmt 0 view .LVU439
 1350 00a2 B4F90420 		ldrsh	r2, [r4, #4]
 184:lvgl/src/misc/lv_area.c ****         n.y2 = a2_p->y2 + bh;
ARM GAS  /var/folders/21/t9g5rlb91ys800n5npymflf80000gn/T//ccj8QTAi.s 			page 44


 1351              		.loc 1 184 14 view .LVU440
 1352 00a6 ADF80420 		strh	r2, [sp, #4]	@ movhi
 185:lvgl/src/misc/lv_area.c ****         res_p[res_c++] = n;
 1353              		.loc 1 185 9 is_stmt 1 view .LVU441
 185:lvgl/src/misc/lv_area.c ****         res_p[res_c++] = n;
 1354              		.loc 1 185 25 is_stmt 0 view .LVU442
 1355 00aa 0F44     		add	r7, r7, r1
 185:lvgl/src/misc/lv_area.c ****         res_p[res_c++] = n;
 1356              		.loc 1 185 14 view .LVU443
 1357 00ac ADF80670 		strh	r7, [sp, #6]	@ movhi
 186:lvgl/src/misc/lv_area.c ****     }
 1358              		.loc 1 186 9 is_stmt 1 view .LVU444
 186:lvgl/src/misc/lv_area.c ****     }
 1359              		.loc 1 186 20 is_stmt 0 view .LVU445
 1360 00b0 0CF10107 		add	r7, ip, #1
 1361              	.LVL119:
 186:lvgl/src/misc/lv_area.c ****     }
 1362              		.loc 1 186 14 view .LVU446
 1363 00b4 06EBCC0E 		add	lr, r6, ip, lsl #3
 1364              	.LVL120:
 186:lvgl/src/misc/lv_area.c ****     }
 1365              		.loc 1 186 24 view .LVU447
 1366 00b8 6A46     		mov	r2, sp
 1367 00ba 03CA     		ldmia	r2!, {r0, r1}
 1368              	.LVL121:
 186:lvgl/src/misc/lv_area.c ****     }
 1369              		.loc 1 186 24 view .LVU448
 1370 00bc 46F83C00 		str	r0, [r6, ip, lsl #3]	@ unaligned
 1371 00c0 CEF80410 		str	r1, [lr, #4]	@ unaligned
 186:lvgl/src/misc/lv_area.c ****     }
 1372              		.loc 1 186 20 view .LVU449
 1373 00c4 4FFA87FC 		sxtb	ip, r7
 1374              	.LVL122:
 1375              	.L51:
 190:lvgl/src/misc/lv_area.c ****     lv_coord_t y2 = a2_p->y2 < a1_p->y2 ? a2_p->y2 : a1_p->y2;
 1376              		.loc 1 190 5 is_stmt 1 view .LVU450
 190:lvgl/src/misc/lv_area.c ****     lv_coord_t y2 = a2_p->y2 < a1_p->y2 ? a2_p->y2 : a1_p->y2;
 1377              		.loc 1 190 36 is_stmt 0 view .LVU451
 1378 00c8 B4F90270 		ldrsh	r7, [r4, #2]
 190:lvgl/src/misc/lv_area.c ****     lv_coord_t y2 = a2_p->y2 < a1_p->y2 ? a2_p->y2 : a1_p->y2;
 1379              		.loc 1 190 25 view .LVU452
 1380 00cc B5F90220 		ldrsh	r2, [r5, #2]
 190:lvgl/src/misc/lv_area.c ****     lv_coord_t y2 = a2_p->y2 < a1_p->y2 ? a2_p->y2 : a1_p->y2;
 1381              		.loc 1 190 16 view .LVU453
 1382 00d0 9742     		cmp	r7, r2
 1383 00d2 B8BF     		it	lt
 1384 00d4 1746     		movlt	r7, r2
 1385              	.LVL123:
 191:lvgl/src/misc/lv_area.c ****     lv_coord_t sh = y2 - y1;
 1386              		.loc 1 191 5 is_stmt 1 view .LVU454
 191:lvgl/src/misc/lv_area.c ****     lv_coord_t sh = y2 - y1;
 1387              		.loc 1 191 36 is_stmt 0 view .LVU455
 1388 00d6 B4F906E0 		ldrsh	lr, [r4, #6]
 191:lvgl/src/misc/lv_area.c ****     lv_coord_t sh = y2 - y1;
 1389              		.loc 1 191 25 view .LVU456
 1390 00da B5F90620 		ldrsh	r2, [r5, #6]
 191:lvgl/src/misc/lv_area.c ****     lv_coord_t sh = y2 - y1;
ARM GAS  /var/folders/21/t9g5rlb91ys800n5npymflf80000gn/T//ccj8QTAi.s 			page 45


 1391              		.loc 1 191 16 view .LVU457
 1392 00de 9645     		cmp	lr, r2
 1393 00e0 A8BF     		it	ge
 1394 00e2 9646     		movge	lr, r2
 1395              	.LVL124:
 192:lvgl/src/misc/lv_area.c **** 
 1396              		.loc 1 192 5 is_stmt 1 view .LVU458
 192:lvgl/src/misc/lv_area.c **** 
 1397              		.loc 1 192 24 is_stmt 0 view .LVU459
 1398 00e4 AEEB0702 		sub	r2, lr, r7
 192:lvgl/src/misc/lv_area.c **** 
 1399              		.loc 1 192 16 view .LVU460
 1400 00e8 11B2     		sxth	r1, r2
 1401              	.LVL125:
 195:lvgl/src/misc/lv_area.c ****     if(lw > 0 && sh > 0) {
 1402              		.loc 1 195 5 is_stmt 1 view .LVU461
 195:lvgl/src/misc/lv_area.c ****     if(lw > 0 && sh > 0) {
 1403              		.loc 1 195 25 is_stmt 0 view .LVU462
 1404 00ea B5F90000 		ldrsh	r0, [r5]
 1405 00ee 82B2     		uxth	r2, r0
 195:lvgl/src/misc/lv_area.c ****     if(lw > 0 && sh > 0) {
 1406              		.loc 1 195 36 view .LVU463
 1407 00f0 B4F90080 		ldrsh	r8, [r4]
 195:lvgl/src/misc/lv_area.c ****     if(lw > 0 && sh > 0) {
 1408              		.loc 1 195 36 view .LVU464
 1409 00f4 1FFA88F9 		uxth	r9, r8
 195:lvgl/src/misc/lv_area.c ****     if(lw > 0 && sh > 0) {
 1410              		.loc 1 195 30 view .LVU465
 1411 00f8 A2EB0902 		sub	r2, r2, r9
 195:lvgl/src/misc/lv_area.c ****     if(lw > 0 && sh > 0) {
 1412              		.loc 1 195 16 view .LVU466
 1413 00fc 12B2     		sxth	r2, r2
 1414              	.LVL126:
 196:lvgl/src/misc/lv_area.c ****         n.x1 = a1_p->x1;
 1415              		.loc 1 196 5 is_stmt 1 view .LVU467
 196:lvgl/src/misc/lv_area.c ****         n.x1 = a1_p->x1;
 1416              		.loc 1 196 7 is_stmt 0 view .LVU468
 1417 00fe 002A     		cmp	r2, #0
 1418 0100 15DD     		ble	.L52
 196:lvgl/src/misc/lv_area.c ****         n.x1 = a1_p->x1;
 1419              		.loc 1 196 15 discriminator 1 view .LVU469
 1420 0102 0029     		cmp	r1, #0
 1421 0104 13DD     		ble	.L52
 197:lvgl/src/misc/lv_area.c ****         n.y1 = y1;
 1422              		.loc 1 197 9 is_stmt 1 view .LVU470
 197:lvgl/src/misc/lv_area.c ****         n.y1 = y1;
 1423              		.loc 1 197 14 is_stmt 0 view .LVU471
 1424 0106 ADF80080 		strh	r8, [sp]	@ movhi
 198:lvgl/src/misc/lv_area.c ****         n.x2 = a1_p->x1 + lw;
 1425              		.loc 1 198 9 is_stmt 1 view .LVU472
 198:lvgl/src/misc/lv_area.c ****         n.x2 = a1_p->x1 + lw;
 1426              		.loc 1 198 14 is_stmt 0 view .LVU473
 1427 010a ADF80270 		strh	r7, [sp, #2]	@ movhi
 199:lvgl/src/misc/lv_area.c ****         n.y2 = y1 + sh;
 1428              		.loc 1 199 9 is_stmt 1 view .LVU474
 199:lvgl/src/misc/lv_area.c ****         n.y2 = y1 + sh;
 1429              		.loc 1 199 14 is_stmt 0 view .LVU475
ARM GAS  /var/folders/21/t9g5rlb91ys800n5npymflf80000gn/T//ccj8QTAi.s 			page 46


 1430 010e ADF80400 		strh	r0, [sp, #4]	@ movhi
 200:lvgl/src/misc/lv_area.c ****         res_p[res_c++] = n;
 1431              		.loc 1 200 9 is_stmt 1 view .LVU476
 200:lvgl/src/misc/lv_area.c ****         res_p[res_c++] = n;
 1432              		.loc 1 200 14 is_stmt 0 view .LVU477
 1433 0112 ADF806E0 		strh	lr, [sp, #6]	@ movhi
 201:lvgl/src/misc/lv_area.c ****     }
 1434              		.loc 1 201 9 is_stmt 1 view .LVU478
 201:lvgl/src/misc/lv_area.c ****     }
 1435              		.loc 1 201 20 is_stmt 0 view .LVU479
 1436 0116 0CF10108 		add	r8, ip, #1
 1437              	.LVL127:
 201:lvgl/src/misc/lv_area.c ****     }
 1438              		.loc 1 201 14 view .LVU480
 1439 011a 06EBCC09 		add	r9, r6, ip, lsl #3
 201:lvgl/src/misc/lv_area.c ****     }
 1440              		.loc 1 201 24 view .LVU481
 1441 011e 6A46     		mov	r2, sp
 1442              	.LVL128:
 201:lvgl/src/misc/lv_area.c ****     }
 1443              		.loc 1 201 24 view .LVU482
 1444 0120 03CA     		ldmia	r2!, {r0, r1}
 1445              	.LVL129:
 201:lvgl/src/misc/lv_area.c ****     }
 1446              		.loc 1 201 24 view .LVU483
 1447 0122 46F83C00 		str	r0, [r6, ip, lsl #3]	@ unaligned
 1448 0126 C9F80410 		str	r1, [r9, #4]	@ unaligned
 201:lvgl/src/misc/lv_area.c ****     }
 1449              		.loc 1 201 20 view .LVU484
 1450 012a 4FFA88FC 		sxtb	ip, r8
 1451              	.LVL130:
 1452              	.L52:
 205:lvgl/src/misc/lv_area.c ****     if(rw > 0) {
 1453              		.loc 1 205 5 is_stmt 1 view .LVU485
 205:lvgl/src/misc/lv_area.c ****     if(rw > 0) {
 1454              		.loc 1 205 44 is_stmt 0 view .LVU486
 1455 012e 2288     		ldrh	r2, [r4]
 205:lvgl/src/misc/lv_area.c ****     if(rw > 0) {
 1456              		.loc 1 205 33 view .LVU487
 1457 0130 B5F90400 		ldrsh	r0, [r5, #4]
 1458 0134 81B2     		uxth	r1, r0
 205:lvgl/src/misc/lv_area.c ****     if(rw > 0) {
 1459              		.loc 1 205 26 view .LVU488
 1460 0136 521A     		subs	r2, r2, r1
 1461 0138 1344     		add	r3, r3, r2
 1462              	.LVL131:
 205:lvgl/src/misc/lv_area.c ****     if(rw > 0) {
 1463              		.loc 1 205 26 view .LVU489
 1464 013a 9AB2     		uxth	r2, r3
 205:lvgl/src/misc/lv_area.c ****     if(rw > 0) {
 1465              		.loc 1 205 16 view .LVU490
 1466 013c 1BB2     		sxth	r3, r3
 1467              	.LVL132:
 206:lvgl/src/misc/lv_area.c ****         n.x1 = a2_p->x2;
 1468              		.loc 1 206 5 is_stmt 1 view .LVU491
 206:lvgl/src/misc/lv_area.c ****         n.x1 = a2_p->x2;
 1469              		.loc 1 206 7 is_stmt 0 view .LVU492
ARM GAS  /var/folders/21/t9g5rlb91ys800n5npymflf80000gn/T//ccj8QTAi.s 			page 47


 1470 013e 002B     		cmp	r3, #0
 1471 0140 13DD     		ble	.L49
 207:lvgl/src/misc/lv_area.c ****         n.y1 = y1;
 1472              		.loc 1 207 9 is_stmt 1 view .LVU493
 207:lvgl/src/misc/lv_area.c ****         n.y1 = y1;
 1473              		.loc 1 207 14 is_stmt 0 view .LVU494
 1474 0142 ADF80000 		strh	r0, [sp]	@ movhi
 208:lvgl/src/misc/lv_area.c ****         n.x2 = a2_p->x2 + rw;
 1475              		.loc 1 208 9 is_stmt 1 view .LVU495
 208:lvgl/src/misc/lv_area.c ****         n.x2 = a2_p->x2 + rw;
 1476              		.loc 1 208 14 is_stmt 0 view .LVU496
 1477 0146 ADF80270 		strh	r7, [sp, #2]	@ movhi
 209:lvgl/src/misc/lv_area.c ****         n.y2 = y1 + sh;
 1478              		.loc 1 209 9 is_stmt 1 view .LVU497
 209:lvgl/src/misc/lv_area.c ****         n.y2 = y1 + sh;
 1479              		.loc 1 209 25 is_stmt 0 view .LVU498
 1480 014a 1144     		add	r1, r1, r2
 209:lvgl/src/misc/lv_area.c ****         n.y2 = y1 + sh;
 1481              		.loc 1 209 14 view .LVU499
 1482 014c ADF80410 		strh	r1, [sp, #4]	@ movhi
 210:lvgl/src/misc/lv_area.c ****         res_p[res_c++] = n;
 1483              		.loc 1 210 9 is_stmt 1 view .LVU500
 210:lvgl/src/misc/lv_area.c ****         res_p[res_c++] = n;
 1484              		.loc 1 210 14 is_stmt 0 view .LVU501
 1485 0150 ADF806E0 		strh	lr, [sp, #6]	@ movhi
 211:lvgl/src/misc/lv_area.c ****     }
 1486              		.loc 1 211 9 is_stmt 1 view .LVU502
 211:lvgl/src/misc/lv_area.c ****     }
 1487              		.loc 1 211 20 is_stmt 0 view .LVU503
 1488 0154 0CF10102 		add	r2, ip, #1
 1489              	.LVL133:
 211:lvgl/src/misc/lv_area.c ****     }
 1490              		.loc 1 211 14 view .LVU504
 1491 0158 06EBCC04 		add	r4, r6, ip, lsl #3
 1492              	.LVL134:
 211:lvgl/src/misc/lv_area.c ****     }
 1493              		.loc 1 211 24 view .LVU505
 1494 015c 6B46     		mov	r3, sp
 1495              	.LVL135:
 211:lvgl/src/misc/lv_area.c ****     }
 1496              		.loc 1 211 24 view .LVU506
 1497 015e 03CB     		ldmia	r3!, {r0, r1}
 1498 0160 46F83C00 		str	r0, [r6, ip, lsl #3]	@ unaligned
 1499 0164 6160     		str	r1, [r4, #4]	@ unaligned
 211:lvgl/src/misc/lv_area.c ****     }
 1500              		.loc 1 211 20 view .LVU507
 1501 0166 4FFA82FC 		sxtb	ip, r2
 1502              	.LVL136:
 1503              	.L49:
 216:lvgl/src/misc/lv_area.c **** 
 1504              		.loc 1 216 1 view .LVU508
 1505 016a 6046     		mov	r0, ip
 1506 016c 03B0     		add	sp, sp, #12
 1507              	.LCFI13:
 1508              		.cfi_remember_state
 1509              		.cfi_def_cfa_offset 28
 1510              		@ sp needed
ARM GAS  /var/folders/21/t9g5rlb91ys800n5npymflf80000gn/T//ccj8QTAi.s 			page 48


 1511 016e BDE8F083 		pop	{r4, r5, r6, r7, r8, r9, pc}
 1512              	.LVL137:
 1513              	.L55:
 1514              	.LCFI14:
 1515              		.cfi_restore_state
 162:lvgl/src/misc/lv_area.c **** 
 1516              		.loc 1 162 12 view .LVU509
 1517 0172 4FF0000C 		mov	ip, #0
 1518 0176 80E7     		b	.L50
 1519              	.LVL138:
 1520              	.L53:
 156:lvgl/src/misc/lv_area.c **** 
 1521              		.loc 1 156 44 view .LVU510
 1522 0178 4FF0FF3C 		mov	ip, #-1
 1523 017c F5E7     		b	.L49
 1524              	.L54:
 159:lvgl/src/misc/lv_area.c **** 
 1525              		.loc 1 159 46 view .LVU511
 1526 017e 4FF0000C 		mov	ip, #0
 1527 0182 F2E7     		b	.L49
 1528              		.cfi_endproc
 1529              	.LFE13:
 1531              		.section	.text._lv_area_is_out,"ax",%progbits
 1532              		.align	1
 1533              		.global	_lv_area_is_out
 1534              		.syntax unified
 1535              		.thumb
 1536              		.thumb_func
 1538              	_lv_area_is_out:
 1539              	.LVL139:
 1540              	.LFB18:
 364:lvgl/src/misc/lv_area.c ****     if(aout_p->x2 < aholder_p->x1 || aout_p->y2 < aholder_p->y1 || aout_p->x1 > aholder_p->x2 ||
 1541              		.loc 1 364 1 is_stmt 1 view -0
 1542              		.cfi_startproc
 1543              		@ args = 0, pretend = 0, frame = 8
 1544              		@ frame_needed = 0, uses_anonymous_args = 0
 364:lvgl/src/misc/lv_area.c ****     if(aout_p->x2 < aholder_p->x1 || aout_p->y2 < aholder_p->y1 || aout_p->x1 > aholder_p->x2 ||
 1545              		.loc 1 364 1 is_stmt 0 view .LVU513
 1546 0000 2DE9F047 		push	{r4, r5, r6, r7, r8, r9, r10, lr}
 1547              	.LCFI15:
 1548              		.cfi_def_cfa_offset 32
 1549              		.cfi_offset 4, -32
 1550              		.cfi_offset 5, -28
 1551              		.cfi_offset 6, -24
 1552              		.cfi_offset 7, -20
 1553              		.cfi_offset 8, -16
 1554              		.cfi_offset 9, -12
 1555              		.cfi_offset 10, -8
 1556              		.cfi_offset 14, -4
 1557 0004 82B0     		sub	sp, sp, #8
 1558              	.LCFI16:
 1559              		.cfi_def_cfa_offset 40
 365:lvgl/src/misc/lv_area.c ****        aout_p->y1 > aholder_p->y2) {
 1560              		.loc 1 365 5 is_stmt 1 view .LVU514
 365:lvgl/src/misc/lv_area.c ****        aout_p->y1 > aholder_p->y2) {
 1561              		.loc 1 365 14 is_stmt 0 view .LVU515
 1562 0006 B0F90470 		ldrsh	r7, [r0, #4]
ARM GAS  /var/folders/21/t9g5rlb91ys800n5npymflf80000gn/T//ccj8QTAi.s 			page 49


 365:lvgl/src/misc/lv_area.c ****        aout_p->y1 > aholder_p->y2) {
 1563              		.loc 1 365 30 view .LVU516
 1564 000a B1F90030 		ldrsh	r3, [r1]
 365:lvgl/src/misc/lv_area.c ****        aout_p->y1 > aholder_p->y2) {
 1565              		.loc 1 365 7 view .LVU517
 1566 000e 9F42     		cmp	r7, r3
 1567 0010 4ADB     		blt	.L59
 1568 0012 8046     		mov	r8, r0
 1569 0014 0C46     		mov	r4, r1
 1570 0016 1646     		mov	r6, r2
 365:lvgl/src/misc/lv_area.c ****        aout_p->y1 > aholder_p->y2) {
 1571              		.loc 1 365 44 discriminator 1 view .LVU518
 1572 0018 B0F90690 		ldrsh	r9, [r0, #6]
 365:lvgl/src/misc/lv_area.c ****        aout_p->y1 > aholder_p->y2) {
 1573              		.loc 1 365 60 discriminator 1 view .LVU519
 1574 001c B1F90230 		ldrsh	r3, [r1, #2]
 365:lvgl/src/misc/lv_area.c ****        aout_p->y1 > aholder_p->y2) {
 1575              		.loc 1 365 35 discriminator 1 view .LVU520
 1576 0020 9945     		cmp	r9, r3
 1577 0022 46DB     		blt	.L60
 365:lvgl/src/misc/lv_area.c ****        aout_p->y1 > aholder_p->y2) {
 1578              		.loc 1 365 74 discriminator 2 view .LVU521
 1579 0024 B0F90030 		ldrsh	r3, [r0]
 365:lvgl/src/misc/lv_area.c ****        aout_p->y1 > aholder_p->y2) {
 1580              		.loc 1 365 90 discriminator 2 view .LVU522
 1581 0028 B1F90420 		ldrsh	r2, [r1, #4]
 1582              	.LVL140:
 365:lvgl/src/misc/lv_area.c ****        aout_p->y1 > aholder_p->y2) {
 1583              		.loc 1 365 65 discriminator 2 view .LVU523
 1584 002c 9342     		cmp	r3, r2
 1585 002e 42DC     		bgt	.L61
 366:lvgl/src/misc/lv_area.c ****         return true;
 1586              		.loc 1 366 14 discriminator 3 view .LVU524
 1587 0030 B0F90220 		ldrsh	r2, [r0, #2]
 366:lvgl/src/misc/lv_area.c ****         return true;
 1588              		.loc 1 366 30 discriminator 3 view .LVU525
 1589 0034 B1F90610 		ldrsh	r1, [r1, #6]
 1590              	.LVL141:
 365:lvgl/src/misc/lv_area.c ****        aout_p->y1 > aholder_p->y2) {
 1591              		.loc 1 365 95 discriminator 3 view .LVU526
 1592 0038 8A42     		cmp	r2, r1
 1593 003a 3EDC     		bgt	.L62
 370:lvgl/src/misc/lv_area.c **** 
 1594              		.loc 1 370 5 is_stmt 1 view .LVU527
 370:lvgl/src/misc/lv_area.c **** 
 1595              		.loc 1 370 7 is_stmt 0 view .LVU528
 1596 003c 0EB9     		cbnz	r6, .L67
 370:lvgl/src/misc/lv_area.c **** 
 1597              		.loc 1 370 28 view .LVU529
 1598 003e 0025     		movs	r5, #0
 1599 0040 33E0     		b	.L58
 1600              	.L67:
 373:lvgl/src/misc/lv_area.c **** 
 1601              		.loc 1 373 5 is_stmt 1 view .LVU530
 375:lvgl/src/misc/lv_area.c ****     p.y = aout_p->y1;
 1602              		.loc 1 375 5 view .LVU531
 375:lvgl/src/misc/lv_area.c ****     p.y = aout_p->y1;
ARM GAS  /var/folders/21/t9g5rlb91ys800n5npymflf80000gn/T//ccj8QTAi.s 			page 50


 1603              		.loc 1 375 9 is_stmt 0 view .LVU532
 1604 0042 ADF80430 		strh	r3, [sp, #4]	@ movhi
 376:lvgl/src/misc/lv_area.c ****     if(_lv_area_is_point_on(aholder_p, &p, radius)) return false;
 1605              		.loc 1 376 5 is_stmt 1 view .LVU533
 376:lvgl/src/misc/lv_area.c ****     if(_lv_area_is_point_on(aholder_p, &p, radius)) return false;
 1606              		.loc 1 376 9 is_stmt 0 view .LVU534
 1607 0046 ADF80620 		strh	r2, [sp, #6]	@ movhi
 377:lvgl/src/misc/lv_area.c **** 
 1608              		.loc 1 377 5 is_stmt 1 view .LVU535
 377:lvgl/src/misc/lv_area.c **** 
 1609              		.loc 1 377 8 is_stmt 0 view .LVU536
 1610 004a 3246     		mov	r2, r6
 1611 004c 01A9     		add	r1, sp, #4
 1612 004e 2046     		mov	r0, r4
 1613              	.LVL142:
 377:lvgl/src/misc/lv_area.c **** 
 1614              		.loc 1 377 8 view .LVU537
 1615 0050 FFF7FEFF 		bl	_lv_area_is_point_on
 1616              	.LVL143:
 377:lvgl/src/misc/lv_area.c **** 
 1617              		.loc 1 377 7 view .LVU538
 1618 0054 0546     		mov	r5, r0
 1619 0056 08B1     		cbz	r0, .L68
 377:lvgl/src/misc/lv_area.c **** 
 1620              		.loc 1 377 60 view .LVU539
 1621 0058 0025     		movs	r5, #0
 1622 005a 26E0     		b	.L58
 1623              	.L68:
 379:lvgl/src/misc/lv_area.c ****     p.y = aout_p->y1;
 1624              		.loc 1 379 5 is_stmt 1 view .LVU540
 379:lvgl/src/misc/lv_area.c ****     p.y = aout_p->y1;
 1625              		.loc 1 379 9 is_stmt 0 view .LVU541
 1626 005c ADF80470 		strh	r7, [sp, #4]	@ movhi
 380:lvgl/src/misc/lv_area.c ****     if(_lv_area_is_point_on(aholder_p, &p, radius)) return false;
 1627              		.loc 1 380 5 is_stmt 1 view .LVU542
 380:lvgl/src/misc/lv_area.c ****     if(_lv_area_is_point_on(aholder_p, &p, radius)) return false;
 1628              		.loc 1 380 17 is_stmt 0 view .LVU543
 1629 0060 B8F90230 		ldrsh	r3, [r8, #2]
 380:lvgl/src/misc/lv_area.c ****     if(_lv_area_is_point_on(aholder_p, &p, radius)) return false;
 1630              		.loc 1 380 9 view .LVU544
 1631 0064 ADF80630 		strh	r3, [sp, #6]	@ movhi
 381:lvgl/src/misc/lv_area.c **** 
 1632              		.loc 1 381 5 is_stmt 1 view .LVU545
 381:lvgl/src/misc/lv_area.c **** 
 1633              		.loc 1 381 8 is_stmt 0 view .LVU546
 1634 0068 3246     		mov	r2, r6
 1635 006a 01A9     		add	r1, sp, #4
 1636 006c 2046     		mov	r0, r4
 1637 006e FFF7FEFF 		bl	_lv_area_is_point_on
 1638              	.LVL144:
 381:lvgl/src/misc/lv_area.c **** 
 1639              		.loc 1 381 7 view .LVU547
 1640 0072 8246     		mov	r10, r0
 1641 0074 C8B9     		cbnz	r0, .L58
 383:lvgl/src/misc/lv_area.c ****     p.y = aout_p->y2;
 1642              		.loc 1 383 5 is_stmt 1 view .LVU548
 383:lvgl/src/misc/lv_area.c ****     p.y = aout_p->y2;
ARM GAS  /var/folders/21/t9g5rlb91ys800n5npymflf80000gn/T//ccj8QTAi.s 			page 51


 1643              		.loc 1 383 17 is_stmt 0 view .LVU549
 1644 0076 B8F90030 		ldrsh	r3, [r8]
 383:lvgl/src/misc/lv_area.c ****     p.y = aout_p->y2;
 1645              		.loc 1 383 9 view .LVU550
 1646 007a ADF80430 		strh	r3, [sp, #4]	@ movhi
 384:lvgl/src/misc/lv_area.c ****     if(_lv_area_is_point_on(aholder_p, &p, radius)) return false;
 1647              		.loc 1 384 5 is_stmt 1 view .LVU551
 384:lvgl/src/misc/lv_area.c ****     if(_lv_area_is_point_on(aholder_p, &p, radius)) return false;
 1648              		.loc 1 384 9 is_stmt 0 view .LVU552
 1649 007e ADF80690 		strh	r9, [sp, #6]	@ movhi
 385:lvgl/src/misc/lv_area.c **** 
 1650              		.loc 1 385 5 is_stmt 1 view .LVU553
 385:lvgl/src/misc/lv_area.c **** 
 1651              		.loc 1 385 8 is_stmt 0 view .LVU554
 1652 0082 3246     		mov	r2, r6
 1653 0084 01A9     		add	r1, sp, #4
 1654 0086 2046     		mov	r0, r4
 1655 0088 FFF7FEFF 		bl	_lv_area_is_point_on
 1656              	.LVL145:
 385:lvgl/src/misc/lv_area.c **** 
 1657              		.loc 1 385 7 view .LVU555
 1658 008c 0546     		mov	r5, r0
 1659 008e 08B1     		cbz	r0, .L69
 385:lvgl/src/misc/lv_area.c **** 
 1660              		.loc 1 385 60 view .LVU556
 1661 0090 5546     		mov	r5, r10
 1662 0092 0AE0     		b	.L58
 1663              	.L69:
 387:lvgl/src/misc/lv_area.c ****     p.y = aout_p->y2;
 1664              		.loc 1 387 5 is_stmt 1 view .LVU557
 387:lvgl/src/misc/lv_area.c ****     p.y = aout_p->y2;
 1665              		.loc 1 387 9 is_stmt 0 view .LVU558
 1666 0094 ADF80470 		strh	r7, [sp, #4]	@ movhi
 388:lvgl/src/misc/lv_area.c ****     if(_lv_area_is_point_on(aholder_p, &p, radius)) return false;
 1667              		.loc 1 388 5 is_stmt 1 view .LVU559
 389:lvgl/src/misc/lv_area.c **** 
 1668              		.loc 1 389 5 view .LVU560
 389:lvgl/src/misc/lv_area.c **** 
 1669              		.loc 1 389 8 is_stmt 0 view .LVU561
 1670 0098 3246     		mov	r2, r6
 1671 009a 01A9     		add	r1, sp, #4
 1672 009c 2046     		mov	r0, r4
 1673 009e FFF7FEFF 		bl	_lv_area_is_point_on
 1674              	.LVL146:
 389:lvgl/src/misc/lv_area.c **** 
 1675              		.loc 1 389 7 view .LVU562
 1676 00a2 10B9     		cbnz	r0, .L58
 391:lvgl/src/misc/lv_area.c **** }
 1677              		.loc 1 391 12 view .LVU563
 1678 00a4 0125     		movs	r5, #1
 1679 00a6 00E0     		b	.L58
 1680              	.LVL147:
 1681              	.L59:
 367:lvgl/src/misc/lv_area.c ****     }
 1682              		.loc 1 367 16 view .LVU564
 1683 00a8 0125     		movs	r5, #1
 1684              	.LVL148:
ARM GAS  /var/folders/21/t9g5rlb91ys800n5npymflf80000gn/T//ccj8QTAi.s 			page 52


 1685              	.L58:
 392:lvgl/src/misc/lv_area.c **** 
 1686              		.loc 1 392 1 view .LVU565
 1687 00aa 2846     		mov	r0, r5
 1688 00ac 02B0     		add	sp, sp, #8
 1689              	.LCFI17:
 1690              		.cfi_remember_state
 1691              		.cfi_def_cfa_offset 32
 1692              		@ sp needed
 1693 00ae BDE8F087 		pop	{r4, r5, r6, r7, r8, r9, r10, pc}
 1694              	.LVL149:
 1695              	.L60:
 1696              	.LCFI18:
 1697              		.cfi_restore_state
 367:lvgl/src/misc/lv_area.c ****     }
 1698              		.loc 1 367 16 view .LVU566
 1699 00b2 0125     		movs	r5, #1
 1700 00b4 F9E7     		b	.L58
 1701              	.LVL150:
 1702              	.L61:
 367:lvgl/src/misc/lv_area.c ****     }
 1703              		.loc 1 367 16 view .LVU567
 1704 00b6 0125     		movs	r5, #1
 1705 00b8 F7E7     		b	.L58
 1706              	.LVL151:
 1707              	.L62:
 367:lvgl/src/misc/lv_area.c ****     }
 1708              		.loc 1 367 16 view .LVU568
 1709 00ba 0125     		movs	r5, #1
 1710 00bc F5E7     		b	.L58
 1711              		.cfi_endproc
 1712              	.LFE18:
 1714              		.section	.text._lv_area_is_equal,"ax",%progbits
 1715              		.align	1
 1716              		.global	_lv_area_is_equal
 1717              		.syntax unified
 1718              		.thumb
 1719              		.thumb_func
 1721              	_lv_area_is_equal:
 1722              	.LVL152:
 1723              	.LFB19:
 395:lvgl/src/misc/lv_area.c ****     return a->x1 == b->x1 && a->x2 == b->x2 && a->y1 == b->y1 && a->y2 == b->y2;
 1724              		.loc 1 395 1 is_stmt 1 view -0
 1725              		.cfi_startproc
 1726              		@ args = 0, pretend = 0, frame = 0
 1727              		@ frame_needed = 0, uses_anonymous_args = 0
 1728              		@ link register save eliminated.
 396:lvgl/src/misc/lv_area.c **** }
 1729              		.loc 1 396 5 view .LVU570
 396:lvgl/src/misc/lv_area.c **** }
 1730              		.loc 1 396 13 is_stmt 0 view .LVU571
 1731 0000 B0F90020 		ldrsh	r2, [r0]
 396:lvgl/src/misc/lv_area.c **** }
 1732              		.loc 1 396 22 view .LVU572
 1733 0004 B1F90030 		ldrsh	r3, [r1]
 396:lvgl/src/misc/lv_area.c **** }
 1734              		.loc 1 396 63 view .LVU573
ARM GAS  /var/folders/21/t9g5rlb91ys800n5npymflf80000gn/T//ccj8QTAi.s 			page 53


 1735 0008 9A42     		cmp	r2, r3
 1736 000a 01D0     		beq	.L76
 1737 000c 0020     		movs	r0, #0
 1738              	.LVL153:
 396:lvgl/src/misc/lv_area.c **** }
 1739              		.loc 1 396 63 view .LVU574
 1740 000e 7047     		bx	lr
 1741              	.LVL154:
 1742              	.L76:
 396:lvgl/src/misc/lv_area.c **** }
 1743              		.loc 1 396 31 discriminator 1 view .LVU575
 1744 0010 B0F90420 		ldrsh	r2, [r0, #4]
 396:lvgl/src/misc/lv_area.c **** }
 1745              		.loc 1 396 40 discriminator 1 view .LVU576
 1746 0014 B1F90430 		ldrsh	r3, [r1, #4]
 396:lvgl/src/misc/lv_area.c **** }
 1747              		.loc 1 396 27 discriminator 1 view .LVU577
 1748 0018 9A42     		cmp	r2, r3
 1749 001a 01D0     		beq	.L77
 396:lvgl/src/misc/lv_area.c **** }
 1750              		.loc 1 396 63 view .LVU578
 1751 001c 0020     		movs	r0, #0
 1752              	.LVL155:
 396:lvgl/src/misc/lv_area.c **** }
 1753              		.loc 1 396 63 view .LVU579
 1754 001e 7047     		bx	lr
 1755              	.LVL156:
 1756              	.L77:
 396:lvgl/src/misc/lv_area.c **** }
 1757              		.loc 1 396 49 discriminator 3 view .LVU580
 1758 0020 B0F90220 		ldrsh	r2, [r0, #2]
 396:lvgl/src/misc/lv_area.c **** }
 1759              		.loc 1 396 58 discriminator 3 view .LVU581
 1760 0024 B1F90230 		ldrsh	r3, [r1, #2]
 396:lvgl/src/misc/lv_area.c **** }
 1761              		.loc 1 396 45 discriminator 3 view .LVU582
 1762 0028 9A42     		cmp	r2, r3
 1763 002a 01D0     		beq	.L78
 396:lvgl/src/misc/lv_area.c **** }
 1764              		.loc 1 396 63 view .LVU583
 1765 002c 0020     		movs	r0, #0
 1766              	.LVL157:
 396:lvgl/src/misc/lv_area.c **** }
 1767              		.loc 1 396 63 view .LVU584
 1768 002e 7047     		bx	lr
 1769              	.LVL158:
 1770              	.L78:
 396:lvgl/src/misc/lv_area.c **** }
 1771              		.loc 1 396 67 discriminator 5 view .LVU585
 1772 0030 B0F90620 		ldrsh	r2, [r0, #6]
 396:lvgl/src/misc/lv_area.c **** }
 1773              		.loc 1 396 76 discriminator 5 view .LVU586
 1774 0034 B1F90630 		ldrsh	r3, [r1, #6]
 396:lvgl/src/misc/lv_area.c **** }
 1775              		.loc 1 396 63 discriminator 5 view .LVU587
 1776 0038 9A42     		cmp	r2, r3
 1777 003a 01D0     		beq	.L75
ARM GAS  /var/folders/21/t9g5rlb91ys800n5npymflf80000gn/T//ccj8QTAi.s 			page 54


 396:lvgl/src/misc/lv_area.c **** }
 1778              		.loc 1 396 63 view .LVU588
 1779 003c 0020     		movs	r0, #0
 1780              	.LVL159:
 396:lvgl/src/misc/lv_area.c **** }
 1781              		.loc 1 396 63 view .LVU589
 1782 003e 7047     		bx	lr
 1783              	.LVL160:
 1784              	.L75:
 396:lvgl/src/misc/lv_area.c **** }
 1785              		.loc 1 396 63 view .LVU590
 1786 0040 0120     		movs	r0, #1
 1787              	.LVL161:
 397:lvgl/src/misc/lv_area.c **** 
 1788              		.loc 1 397 1 view .LVU591
 1789 0042 7047     		bx	lr
 1790              		.cfi_endproc
 1791              	.LFE19:
 1793              		.section	.text.lv_area_align,"ax",%progbits
 1794              		.align	1
 1795              		.global	lv_area_align
 1796              		.syntax unified
 1797              		.thumb
 1798              		.thumb_func
 1800              	lv_area_align:
 1801              	.LVL162:
 1802              	.LFB20:
 407:lvgl/src/misc/lv_area.c **** 
 1803              		.loc 1 407 1 is_stmt 1 view -0
 1804              		.cfi_startproc
 1805              		@ args = 4, pretend = 0, frame = 0
 1806              		@ frame_needed = 0, uses_anonymous_args = 0
 407:lvgl/src/misc/lv_area.c **** 
 1807              		.loc 1 407 1 is_stmt 0 view .LVU593
 1808 0000 10B5     		push	{r4, lr}
 1809              	.LCFI19:
 1810              		.cfi_def_cfa_offset 8
 1811              		.cfi_offset 4, -8
 1812              		.cfi_offset 14, -4
 409:lvgl/src/misc/lv_area.c ****     lv_coord_t y;
 1813              		.loc 1 409 5 is_stmt 1 view .LVU594
 410:lvgl/src/misc/lv_area.c ****     switch(align) {
 1814              		.loc 1 410 5 view .LVU595
 411:lvgl/src/misc/lv_area.c ****         case LV_ALIGN_CENTER:
 1815              		.loc 1 411 5 view .LVU596
 1816 0002 023A     		subs	r2, r2, #2
 1817              	.LVL163:
 411:lvgl/src/misc/lv_area.c ****         case LV_ALIGN_CENTER:
 1818              		.loc 1 411 5 is_stmt 0 view .LVU597
 1819 0004 132A     		cmp	r2, #19
 1820 0006 00F24082 		bhi	.L102
 1821 000a DFE812F0 		tbh	[pc, r2, lsl #1]
 1822              	.L82:
 1823 000e 7300     		.2byte	(.L101-.L82)/2
 1824 0010 8E00     		.2byte	(.L100-.L82)/2
 1825 0012 9C00     		.2byte	(.L99-.L82)/2
 1826 0014 AA00     		.2byte	(.L98-.L82)/2
ARM GAS  /var/folders/21/t9g5rlb91ys800n5npymflf80000gn/T//ccj8QTAi.s 			page 55


 1827 0016 D100     		.2byte	(.L97-.L82)/2
 1828 0018 EB00     		.2byte	(.L96-.L82)/2
 1829 001a 0701     		.2byte	(.L95-.L82)/2
 1830 001c 1400     		.2byte	(.L94-.L82)/2
 1831 001e 3101     		.2byte	(.L93-.L82)/2
 1832 0020 3C01     		.2byte	(.L92-.L82)/2
 1833 0022 5E01     		.2byte	(.L91-.L82)/2
 1834 0024 7301     		.2byte	(.L90-.L82)/2
 1835 0026 8001     		.2byte	(.L89-.L82)/2
 1836 0028 A401     		.2byte	(.L88-.L82)/2
 1837 002a BB01     		.2byte	(.L87-.L82)/2
 1838 002c C301     		.2byte	(.L86-.L82)/2
 1839 002e E701     		.2byte	(.L85-.L82)/2
 1840 0030 FB01     		.2byte	(.L84-.L82)/2
 1841 0032 0402     		.2byte	(.L83-.L82)/2
 1842 0034 2902     		.2byte	(.L81-.L82)/2
 1843              		.p2align 1
 1844              	.L94:
 413:lvgl/src/misc/lv_area.c ****             y = lv_area_get_height(base) / 2 - lv_area_get_height(to_align) / 2;
 1845              		.loc 1 413 13 is_stmt 1 view .LVU598
 1846              	.LVL164:
 1847              	.LBB134:
 1848              	.LBI134:
 123:lvgl/src/misc/lv_area.h **** {
 1849              		.loc 2 123 26 view .LVU599
 1850              	.LBB135:
 125:lvgl/src/misc/lv_area.h **** }
 1851              		.loc 2 125 5 view .LVU600
 125:lvgl/src/misc/lv_area.h **** }
 1852              		.loc 2 125 31 is_stmt 0 view .LVU601
 1853 0036 8488     		ldrh	r4, [r0, #4]
 125:lvgl/src/misc/lv_area.h **** }
 1854              		.loc 2 125 44 view .LVU602
 1855 0038 0288     		ldrh	r2, [r0]
 125:lvgl/src/misc/lv_area.h **** }
 1856              		.loc 2 125 36 view .LVU603
 1857 003a A41A     		subs	r4, r4, r2
 1858 003c A4B2     		uxth	r4, r4
 125:lvgl/src/misc/lv_area.h **** }
 1859              		.loc 2 125 49 view .LVU604
 1860 003e 0134     		adds	r4, r4, #1
 1861              	.LVL165:
 125:lvgl/src/misc/lv_area.h **** }
 1862              		.loc 2 125 49 view .LVU605
 1863              	.LBE135:
 1864              	.LBE134:
 1865              	.LBB136:
 1866              	.LBI136:
 123:lvgl/src/misc/lv_area.h **** {
 1867              		.loc 2 123 26 is_stmt 1 view .LVU606
 1868              	.LBB137:
 125:lvgl/src/misc/lv_area.h **** }
 1869              		.loc 2 125 5 view .LVU607
 125:lvgl/src/misc/lv_area.h **** }
 1870              		.loc 2 125 31 is_stmt 0 view .LVU608
 1871 0040 8A88     		ldrh	r2, [r1, #4]
 125:lvgl/src/misc/lv_area.h **** }
ARM GAS  /var/folders/21/t9g5rlb91ys800n5npymflf80000gn/T//ccj8QTAi.s 			page 56


 1872              		.loc 2 125 44 view .LVU609
 1873 0042 B1F800C0 		ldrh	ip, [r1]
 125:lvgl/src/misc/lv_area.h **** }
 1874              		.loc 2 125 36 view .LVU610
 1875 0046 A2EB0C02 		sub	r2, r2, ip
 1876 004a 92B2     		uxth	r2, r2
 125:lvgl/src/misc/lv_area.h **** }
 1877              		.loc 2 125 49 view .LVU611
 1878 004c 0132     		adds	r2, r2, #1
 1879              	.LVL166:
 125:lvgl/src/misc/lv_area.h **** }
 1880              		.loc 2 125 49 view .LVU612
 1881              	.LBE137:
 1882              	.LBE136:
 413:lvgl/src/misc/lv_area.c ****             y = lv_area_get_height(base) / 2 - lv_area_get_height(to_align) / 2;
 1883              		.loc 1 413 45 view .LVU613
 1884 004e C4F3C03C 		ubfx	ip, r4, #15, #1
 1885 0052 0CFA84FC 		sxtah	ip, ip, r4
 1886 0056 C2F3C034 		ubfx	r4, r2, #15, #1
 1887 005a 04FA82F4 		sxtah	r4, r4, r2
 1888 005e 6410     		asrs	r4, r4, #1
 1889 0060 C4EB6C04 		rsb	r4, r4, ip, asr #1
 413:lvgl/src/misc/lv_area.c ****             y = lv_area_get_height(base) / 2 - lv_area_get_height(to_align) / 2;
 1890              		.loc 1 413 15 view .LVU614
 1891 0064 24B2     		sxth	r4, r4
 1892              	.LVL167:
 414:lvgl/src/misc/lv_area.c ****             break;
 1893              		.loc 1 414 13 is_stmt 1 view .LVU615
 1894              	.LBB138:
 1895              	.LBI138:
 133:lvgl/src/misc/lv_area.h **** {
 1896              		.loc 2 133 26 view .LVU616
 1897              	.LBB139:
 1898              		.loc 2 135 5 view .LVU617
 1899              		.loc 2 135 31 is_stmt 0 view .LVU618
 1900 0066 B0F806C0 		ldrh	ip, [r0, #6]
 1901              		.loc 2 135 44 view .LVU619
 1902 006a 4288     		ldrh	r2, [r0, #2]
 1903              		.loc 2 135 36 view .LVU620
 1904 006c ACEB020C 		sub	ip, ip, r2
 1905 0070 1FFA8CFC 		uxth	ip, ip
 1906              		.loc 2 135 49 view .LVU621
 1907 0074 0CF1010C 		add	ip, ip, #1
 1908              	.LVL168:
 1909              		.loc 2 135 49 view .LVU622
 1910              	.LBE139:
 1911              	.LBE138:
 1912              	.LBB140:
 1913              	.LBI140:
 133:lvgl/src/misc/lv_area.h **** {
 1914              		.loc 2 133 26 is_stmt 1 view .LVU623
 1915              	.LBB141:
 1916              		.loc 2 135 5 view .LVU624
 1917              		.loc 2 135 31 is_stmt 0 view .LVU625
 1918 0078 CA88     		ldrh	r2, [r1, #6]
 1919              		.loc 2 135 44 view .LVU626
 1920 007a B1F802E0 		ldrh	lr, [r1, #2]
ARM GAS  /var/folders/21/t9g5rlb91ys800n5npymflf80000gn/T//ccj8QTAi.s 			page 57


 1921              		.loc 2 135 36 view .LVU627
 1922 007e A2EB0E02 		sub	r2, r2, lr
 1923 0082 92B2     		uxth	r2, r2
 1924              		.loc 2 135 49 view .LVU628
 1925 0084 0132     		adds	r2, r2, #1
 1926              	.LVL169:
 1927              		.loc 2 135 49 view .LVU629
 1928              	.LBE141:
 1929              	.LBE140:
 414:lvgl/src/misc/lv_area.c ****             break;
 1930              		.loc 1 414 46 view .LVU630
 1931 0086 CCF3C03E 		ubfx	lr, ip, #15, #1
 1932 008a 0EFA8CFC 		sxtah	ip, lr, ip
 1933 008e C2F3C03E 		ubfx	lr, r2, #15, #1
 1934 0092 0EFA82FE 		sxtah	lr, lr, r2
 1935 0096 4FEA6E0E 		asr	lr, lr, #1
 1936 009a CEEB6C0E 		rsb	lr, lr, ip, asr #1
 414:lvgl/src/misc/lv_area.c ****             break;
 1937              		.loc 1 414 15 view .LVU631
 1938 009e 0FFA8EFE 		sxth	lr, lr
 1939              	.LVL170:
 415:lvgl/src/misc/lv_area.c **** 
 1940              		.loc 1 415 13 is_stmt 1 view .LVU632
 1941              	.L80:
 520:lvgl/src/misc/lv_area.c ****     y += base->y1;
 1942              		.loc 1 520 5 view .LVU633
 520:lvgl/src/misc/lv_area.c ****     y += base->y1;
 1943              		.loc 1 520 14 is_stmt 0 view .LVU634
 1944 00a2 B0F800C0 		ldrh	ip, [r0]
 520:lvgl/src/misc/lv_area.c ****     y += base->y1;
 1945              		.loc 1 520 7 view .LVU635
 1946 00a6 A444     		add	ip, ip, r4
 1947              	.LVL171:
 521:lvgl/src/misc/lv_area.c **** 
 1948              		.loc 1 521 5 is_stmt 1 view .LVU636
 521:lvgl/src/misc/lv_area.c **** 
 1949              		.loc 1 521 14 is_stmt 0 view .LVU637
 1950 00a8 4288     		ldrh	r2, [r0, #2]
 521:lvgl/src/misc/lv_area.c **** 
 1951              		.loc 1 521 7 view .LVU638
 1952 00aa 7244     		add	r2, r2, lr
 1953              	.LVL172:
 523:lvgl/src/misc/lv_area.c ****     lv_coord_t h = lv_area_get_height(to_align);
 1954              		.loc 1 523 5 is_stmt 1 view .LVU639
 1955              	.LBB142:
 1956              	.LBI142:
 123:lvgl/src/misc/lv_area.h **** {
 1957              		.loc 2 123 26 view .LVU640
 1958              	.LBB143:
 125:lvgl/src/misc/lv_area.h **** }
 1959              		.loc 2 125 5 view .LVU641
 125:lvgl/src/misc/lv_area.h **** }
 1960              		.loc 2 125 31 is_stmt 0 view .LVU642
 1961 00ac B1F804E0 		ldrh	lr, [r1, #4]
 125:lvgl/src/misc/lv_area.h **** }
 1962              		.loc 2 125 44 view .LVU643
 1963 00b0 0888     		ldrh	r0, [r1]
ARM GAS  /var/folders/21/t9g5rlb91ys800n5npymflf80000gn/T//ccj8QTAi.s 			page 58


 1964              	.LVL173:
 125:lvgl/src/misc/lv_area.h **** }
 1965              		.loc 2 125 36 view .LVU644
 1966 00b2 AEEB000E 		sub	lr, lr, r0
 1967 00b6 1FFA8EFE 		uxth	lr, lr
 125:lvgl/src/misc/lv_area.h **** }
 1968              		.loc 2 125 49 view .LVU645
 1969 00ba 0EF1010E 		add	lr, lr, #1
 1970 00be 1FFA8EFE 		uxth	lr, lr
 1971              	.LVL174:
 125:lvgl/src/misc/lv_area.h **** }
 1972              		.loc 2 125 49 view .LVU646
 1973              	.LBE143:
 1974              	.LBE142:
 524:lvgl/src/misc/lv_area.c ****     to_align->x1 = x + ofs_x;
 1975              		.loc 1 524 5 is_stmt 1 view .LVU647
 1976              	.LBB144:
 1977              	.LBI144:
 133:lvgl/src/misc/lv_area.h **** {
 1978              		.loc 2 133 26 view .LVU648
 1979              	.LBB145:
 1980              		.loc 2 135 5 view .LVU649
 1981              		.loc 2 135 31 is_stmt 0 view .LVU650
 1982 00c2 C888     		ldrh	r0, [r1, #6]
 1983              		.loc 2 135 44 view .LVU651
 1984 00c4 4C88     		ldrh	r4, [r1, #2]
 1985              		.loc 2 135 36 view .LVU652
 1986 00c6 001B     		subs	r0, r0, r4
 1987 00c8 80B2     		uxth	r0, r0
 1988              		.loc 2 135 49 view .LVU653
 1989 00ca 0130     		adds	r0, r0, #1
 1990 00cc 80B2     		uxth	r0, r0
 1991              	.LVL175:
 1992              		.loc 2 135 49 view .LVU654
 1993              	.LBE145:
 1994              	.LBE144:
 525:lvgl/src/misc/lv_area.c ****     to_align->y1 = y + ofs_y;
 1995              		.loc 1 525 5 is_stmt 1 view .LVU655
 525:lvgl/src/misc/lv_area.c ****     to_align->y1 = y + ofs_y;
 1996              		.loc 1 525 22 is_stmt 0 view .LVU656
 1997 00ce 13FA8CF3 		uxtah	r3, r3, ip
 1998              	.LVL176:
 525:lvgl/src/misc/lv_area.c ****     to_align->y1 = y + ofs_y;
 1999              		.loc 1 525 18 view .LVU657
 2000 00d2 0B80     		strh	r3, [r1]	@ movhi
 526:lvgl/src/misc/lv_area.c ****     to_align->x2 = to_align->x1 + w - 1;
 2001              		.loc 1 526 5 is_stmt 1 view .LVU658
 526:lvgl/src/misc/lv_area.c ****     to_align->x2 = to_align->x1 + w - 1;
 2002              		.loc 1 526 22 is_stmt 0 view .LVU659
 2003 00d4 BDF90840 		ldrsh	r4, [sp, #8]
 2004 00d8 14FA82F2 		uxtah	r2, r4, r2
 2005              	.LVL177:
 526:lvgl/src/misc/lv_area.c ****     to_align->x2 = to_align->x1 + w - 1;
 2006              		.loc 1 526 18 view .LVU660
 2007 00dc 4A80     		strh	r2, [r1, #2]	@ movhi
 527:lvgl/src/misc/lv_area.c ****     to_align->y2 = to_align->y1 + h - 1;
 2008              		.loc 1 527 5 is_stmt 1 view .LVU661
ARM GAS  /var/folders/21/t9g5rlb91ys800n5npymflf80000gn/T//ccj8QTAi.s 			page 59


 527:lvgl/src/misc/lv_area.c ****     to_align->y2 = to_align->y1 + h - 1;
 2009              		.loc 1 527 33 is_stmt 0 view .LVU662
 2010 00de 1EFA83F3 		uxtah	r3, lr, r3
 2011 00e2 9BB2     		uxth	r3, r3
 527:lvgl/src/misc/lv_area.c ****     to_align->y2 = to_align->y1 + h - 1;
 2012              		.loc 1 527 37 view .LVU663
 2013 00e4 013B     		subs	r3, r3, #1
 527:lvgl/src/misc/lv_area.c ****     to_align->y2 = to_align->y1 + h - 1;
 2014              		.loc 1 527 18 view .LVU664
 2015 00e6 8B80     		strh	r3, [r1, #4]	@ movhi
 528:lvgl/src/misc/lv_area.c **** }
 2016              		.loc 1 528 5 is_stmt 1 view .LVU665
 528:lvgl/src/misc/lv_area.c **** }
 2017              		.loc 1 528 33 is_stmt 0 view .LVU666
 2018 00e8 10FA82F2 		uxtah	r2, r0, r2
 2019 00ec 92B2     		uxth	r2, r2
 528:lvgl/src/misc/lv_area.c **** }
 2020              		.loc 1 528 37 view .LVU667
 2021 00ee 013A     		subs	r2, r2, #1
 528:lvgl/src/misc/lv_area.c **** }
 2022              		.loc 1 528 18 view .LVU668
 2023 00f0 CA80     		strh	r2, [r1, #6]	@ movhi
 529:lvgl/src/misc/lv_area.c **** 
 2024              		.loc 1 529 1 view .LVU669
 2025 00f2 10BD     		pop	{r4, pc}
 2026              	.LVL178:
 2027              	.L101:
 422:lvgl/src/misc/lv_area.c ****             y = 0;
 2028              		.loc 1 422 13 is_stmt 1 view .LVU670
 2029              	.LBB146:
 2030              	.LBI146:
 123:lvgl/src/misc/lv_area.h **** {
 2031              		.loc 2 123 26 view .LVU671
 2032              	.LBB147:
 125:lvgl/src/misc/lv_area.h **** }
 2033              		.loc 2 125 5 view .LVU672
 125:lvgl/src/misc/lv_area.h **** }
 2034              		.loc 2 125 31 is_stmt 0 view .LVU673
 2035 00f4 8488     		ldrh	r4, [r0, #4]
 125:lvgl/src/misc/lv_area.h **** }
 2036              		.loc 2 125 44 view .LVU674
 2037 00f6 0288     		ldrh	r2, [r0]
 125:lvgl/src/misc/lv_area.h **** }
 2038              		.loc 2 125 36 view .LVU675
 2039 00f8 A41A     		subs	r4, r4, r2
 2040 00fa A4B2     		uxth	r4, r4
 125:lvgl/src/misc/lv_area.h **** }
 2041              		.loc 2 125 49 view .LVU676
 2042 00fc 0134     		adds	r4, r4, #1
 2043              	.LVL179:
 125:lvgl/src/misc/lv_area.h **** }
 2044              		.loc 2 125 49 view .LVU677
 2045              	.LBE147:
 2046              	.LBE146:
 2047              	.LBB148:
 2048              	.LBI148:
 123:lvgl/src/misc/lv_area.h **** {
ARM GAS  /var/folders/21/t9g5rlb91ys800n5npymflf80000gn/T//ccj8QTAi.s 			page 60


 2049              		.loc 2 123 26 is_stmt 1 view .LVU678
 2050              	.LBB149:
 125:lvgl/src/misc/lv_area.h **** }
 2051              		.loc 2 125 5 view .LVU679
 125:lvgl/src/misc/lv_area.h **** }
 2052              		.loc 2 125 31 is_stmt 0 view .LVU680
 2053 00fe 8A88     		ldrh	r2, [r1, #4]
 125:lvgl/src/misc/lv_area.h **** }
 2054              		.loc 2 125 44 view .LVU681
 2055 0100 B1F800C0 		ldrh	ip, [r1]
 125:lvgl/src/misc/lv_area.h **** }
 2056              		.loc 2 125 36 view .LVU682
 2057 0104 A2EB0C02 		sub	r2, r2, ip
 2058 0108 92B2     		uxth	r2, r2
 125:lvgl/src/misc/lv_area.h **** }
 2059              		.loc 2 125 49 view .LVU683
 2060 010a 0132     		adds	r2, r2, #1
 2061              	.LVL180:
 125:lvgl/src/misc/lv_area.h **** }
 2062              		.loc 2 125 49 view .LVU684
 2063              	.LBE149:
 2064              	.LBE148:
 422:lvgl/src/misc/lv_area.c ****             y = 0;
 2065              		.loc 1 422 45 view .LVU685
 2066 010c C4F3C03C 		ubfx	ip, r4, #15, #1
 2067 0110 0CFA84FC 		sxtah	ip, ip, r4
 2068 0114 C2F3C034 		ubfx	r4, r2, #15, #1
 2069 0118 04FA82F4 		sxtah	r4, r4, r2
 2070 011c 6410     		asrs	r4, r4, #1
 2071 011e C4EB6C04 		rsb	r4, r4, ip, asr #1
 422:lvgl/src/misc/lv_area.c ****             y = 0;
 2072              		.loc 1 422 15 view .LVU686
 2073 0122 24B2     		sxth	r4, r4
 2074              	.LVL181:
 423:lvgl/src/misc/lv_area.c ****             break;
 2075              		.loc 1 423 13 is_stmt 1 view .LVU687
 424:lvgl/src/misc/lv_area.c **** 
 2076              		.loc 1 424 13 view .LVU688
 423:lvgl/src/misc/lv_area.c ****             break;
 2077              		.loc 1 423 15 is_stmt 0 view .LVU689
 2078 0124 4FF0000E 		mov	lr, #0
 424:lvgl/src/misc/lv_area.c **** 
 2079              		.loc 1 424 13 view .LVU690
 2080 0128 BBE7     		b	.L80
 2081              	.LVL182:
 2082              	.L100:
 427:lvgl/src/misc/lv_area.c ****             y = 0;
 2083              		.loc 1 427 13 is_stmt 1 view .LVU691
 2084              	.LBB150:
 2085              	.LBI150:
 123:lvgl/src/misc/lv_area.h **** {
 2086              		.loc 2 123 26 view .LVU692
 2087              	.LBB151:
 125:lvgl/src/misc/lv_area.h **** }
 2088              		.loc 2 125 5 view .LVU693
 125:lvgl/src/misc/lv_area.h **** }
 2089              		.loc 2 125 31 is_stmt 0 view .LVU694
ARM GAS  /var/folders/21/t9g5rlb91ys800n5npymflf80000gn/T//ccj8QTAi.s 			page 61


 2090 012a 8488     		ldrh	r4, [r0, #4]
 125:lvgl/src/misc/lv_area.h **** }
 2091              		.loc 2 125 44 view .LVU695
 2092 012c 0288     		ldrh	r2, [r0]
 125:lvgl/src/misc/lv_area.h **** }
 2093              		.loc 2 125 36 view .LVU696
 2094 012e A41A     		subs	r4, r4, r2
 2095              	.LVL183:
 125:lvgl/src/misc/lv_area.h **** }
 2096              		.loc 2 125 36 view .LVU697
 2097              	.LBE151:
 2098              	.LBE150:
 2099              	.LBB152:
 2100              	.LBI152:
 123:lvgl/src/misc/lv_area.h **** {
 2101              		.loc 2 123 26 is_stmt 1 view .LVU698
 2102              	.LBB153:
 125:lvgl/src/misc/lv_area.h **** }
 2103              		.loc 2 125 5 view .LVU699
 125:lvgl/src/misc/lv_area.h **** }
 2104              		.loc 2 125 31 is_stmt 0 view .LVU700
 2105 0130 B1F804C0 		ldrh	ip, [r1, #4]
 125:lvgl/src/misc/lv_area.h **** }
 2106              		.loc 2 125 44 view .LVU701
 2107 0134 0A88     		ldrh	r2, [r1]
 2108              	.LVL184:
 125:lvgl/src/misc/lv_area.h **** }
 2109              		.loc 2 125 44 view .LVU702
 2110              	.LBE153:
 2111              	.LBE152:
 427:lvgl/src/misc/lv_area.c ****             y = 0;
 2112              		.loc 1 427 41 view .LVU703
 2113 0136 A2EB0C02 		sub	r2, r2, ip
 2114 013a 12FA84F4 		uxtah	r4, r2, r4
 427:lvgl/src/misc/lv_area.c ****             y = 0;
 2115              		.loc 1 427 15 view .LVU704
 2116 013e 24B2     		sxth	r4, r4
 2117              	.LVL185:
 428:lvgl/src/misc/lv_area.c ****             break;
 2118              		.loc 1 428 13 is_stmt 1 view .LVU705
 429:lvgl/src/misc/lv_area.c **** 
 2119              		.loc 1 429 13 view .LVU706
 428:lvgl/src/misc/lv_area.c ****             break;
 2120              		.loc 1 428 15 is_stmt 0 view .LVU707
 2121 0140 4FF0000E 		mov	lr, #0
 429:lvgl/src/misc/lv_area.c **** 
 2122              		.loc 1 429 13 view .LVU708
 2123 0144 ADE7     		b	.L80
 2124              	.LVL186:
 2125              	.L99:
 432:lvgl/src/misc/lv_area.c ****             y = lv_area_get_height(base) - lv_area_get_height(to_align);
 2126              		.loc 1 432 13 is_stmt 1 view .LVU709
 433:lvgl/src/misc/lv_area.c ****             break;
 2127              		.loc 1 433 13 view .LVU710
 2128              	.LBB154:
 2129              	.LBI154:
 133:lvgl/src/misc/lv_area.h **** {
ARM GAS  /var/folders/21/t9g5rlb91ys800n5npymflf80000gn/T//ccj8QTAi.s 			page 62


 2130              		.loc 2 133 26 view .LVU711
 2131              	.LBB155:
 2132              		.loc 2 135 5 view .LVU712
 2133              		.loc 2 135 31 is_stmt 0 view .LVU713
 2134 0146 B0F806E0 		ldrh	lr, [r0, #6]
 2135              		.loc 2 135 44 view .LVU714
 2136 014a 4288     		ldrh	r2, [r0, #2]
 2137              		.loc 2 135 36 view .LVU715
 2138 014c AEEB020E 		sub	lr, lr, r2
 2139              	.LVL187:
 2140              		.loc 2 135 36 view .LVU716
 2141              	.LBE155:
 2142              	.LBE154:
 2143              	.LBB156:
 2144              	.LBI156:
 133:lvgl/src/misc/lv_area.h **** {
 2145              		.loc 2 133 26 is_stmt 1 view .LVU717
 2146              	.LBB157:
 2147              		.loc 2 135 5 view .LVU718
 2148              		.loc 2 135 31 is_stmt 0 view .LVU719
 2149 0150 CC88     		ldrh	r4, [r1, #6]
 2150              		.loc 2 135 44 view .LVU720
 2151 0152 4A88     		ldrh	r2, [r1, #2]
 2152              	.LVL188:
 2153              		.loc 2 135 44 view .LVU721
 2154              	.LBE157:
 2155              	.LBE156:
 433:lvgl/src/misc/lv_area.c ****             break;
 2156              		.loc 1 433 42 view .LVU722
 2157 0154 121B     		subs	r2, r2, r4
 2158 0156 12FA8EFE 		uxtah	lr, r2, lr
 433:lvgl/src/misc/lv_area.c ****             break;
 2159              		.loc 1 433 15 view .LVU723
 2160 015a 0FFA8EFE 		sxth	lr, lr
 2161              	.LVL189:
 434:lvgl/src/misc/lv_area.c ****         case LV_ALIGN_BOTTOM_MID:
 2162              		.loc 1 434 13 is_stmt 1 view .LVU724
 432:lvgl/src/misc/lv_area.c ****             y = lv_area_get_height(base) - lv_area_get_height(to_align);
 2163              		.loc 1 432 15 is_stmt 0 view .LVU725
 2164 015e 0024     		movs	r4, #0
 434:lvgl/src/misc/lv_area.c ****         case LV_ALIGN_BOTTOM_MID:
 2165              		.loc 1 434 13 view .LVU726
 2166 0160 9FE7     		b	.L80
 2167              	.LVL190:
 2168              	.L98:
 436:lvgl/src/misc/lv_area.c ****             y = lv_area_get_height(base) - lv_area_get_height(to_align);
 2169              		.loc 1 436 13 is_stmt 1 view .LVU727
 2170              	.LBB158:
 2171              	.LBI158:
 123:lvgl/src/misc/lv_area.h **** {
 2172              		.loc 2 123 26 view .LVU728
 2173              	.LBB159:
 125:lvgl/src/misc/lv_area.h **** }
 2174              		.loc 2 125 5 view .LVU729
 125:lvgl/src/misc/lv_area.h **** }
 2175              		.loc 2 125 31 is_stmt 0 view .LVU730
 2176 0162 8488     		ldrh	r4, [r0, #4]
ARM GAS  /var/folders/21/t9g5rlb91ys800n5npymflf80000gn/T//ccj8QTAi.s 			page 63


 125:lvgl/src/misc/lv_area.h **** }
 2177              		.loc 2 125 44 view .LVU731
 2178 0164 0288     		ldrh	r2, [r0]
 125:lvgl/src/misc/lv_area.h **** }
 2179              		.loc 2 125 36 view .LVU732
 2180 0166 A41A     		subs	r4, r4, r2
 2181 0168 A4B2     		uxth	r4, r4
 125:lvgl/src/misc/lv_area.h **** }
 2182              		.loc 2 125 49 view .LVU733
 2183 016a 0134     		adds	r4, r4, #1
 2184              	.LVL191:
 125:lvgl/src/misc/lv_area.h **** }
 2185              		.loc 2 125 49 view .LVU734
 2186              	.LBE159:
 2187              	.LBE158:
 2188              	.LBB160:
 2189              	.LBI160:
 123:lvgl/src/misc/lv_area.h **** {
 2190              		.loc 2 123 26 is_stmt 1 view .LVU735
 2191              	.LBB161:
 125:lvgl/src/misc/lv_area.h **** }
 2192              		.loc 2 125 5 view .LVU736
 125:lvgl/src/misc/lv_area.h **** }
 2193              		.loc 2 125 31 is_stmt 0 view .LVU737
 2194 016c 8A88     		ldrh	r2, [r1, #4]
 125:lvgl/src/misc/lv_area.h **** }
 2195              		.loc 2 125 44 view .LVU738
 2196 016e B1F800C0 		ldrh	ip, [r1]
 125:lvgl/src/misc/lv_area.h **** }
 2197              		.loc 2 125 36 view .LVU739
 2198 0172 A2EB0C02 		sub	r2, r2, ip
 2199 0176 92B2     		uxth	r2, r2
 125:lvgl/src/misc/lv_area.h **** }
 2200              		.loc 2 125 49 view .LVU740
 2201 0178 0132     		adds	r2, r2, #1
 2202              	.LVL192:
 125:lvgl/src/misc/lv_area.h **** }
 2203              		.loc 2 125 49 view .LVU741
 2204              	.LBE161:
 2205              	.LBE160:
 436:lvgl/src/misc/lv_area.c ****             y = lv_area_get_height(base) - lv_area_get_height(to_align);
 2206              		.loc 1 436 45 view .LVU742
 2207 017a C4F3C03C 		ubfx	ip, r4, #15, #1
 2208 017e 0CFA84FC 		sxtah	ip, ip, r4
 2209 0182 C2F3C034 		ubfx	r4, r2, #15, #1
 2210 0186 04FA82F4 		sxtah	r4, r4, r2
 2211 018a 6410     		asrs	r4, r4, #1
 2212 018c C4EB6C04 		rsb	r4, r4, ip, asr #1
 436:lvgl/src/misc/lv_area.c ****             y = lv_area_get_height(base) - lv_area_get_height(to_align);
 2213              		.loc 1 436 15 view .LVU743
 2214 0190 24B2     		sxth	r4, r4
 2215              	.LVL193:
 437:lvgl/src/misc/lv_area.c ****             break;
 2216              		.loc 1 437 13 is_stmt 1 view .LVU744
 2217              	.LBB162:
 2218              	.LBI162:
 133:lvgl/src/misc/lv_area.h **** {
ARM GAS  /var/folders/21/t9g5rlb91ys800n5npymflf80000gn/T//ccj8QTAi.s 			page 64


 2219              		.loc 2 133 26 view .LVU745
 2220              	.LBB163:
 2221              		.loc 2 135 5 view .LVU746
 2222              		.loc 2 135 31 is_stmt 0 view .LVU747
 2223 0192 B0F806E0 		ldrh	lr, [r0, #6]
 2224              		.loc 2 135 44 view .LVU748
 2225 0196 4288     		ldrh	r2, [r0, #2]
 2226              		.loc 2 135 36 view .LVU749
 2227 0198 AEEB020E 		sub	lr, lr, r2
 2228              	.LVL194:
 2229              		.loc 2 135 36 view .LVU750
 2230              	.LBE163:
 2231              	.LBE162:
 2232              	.LBB164:
 2233              	.LBI164:
 133:lvgl/src/misc/lv_area.h **** {
 2234              		.loc 2 133 26 is_stmt 1 view .LVU751
 2235              	.LBB165:
 2236              		.loc 2 135 5 view .LVU752
 2237              		.loc 2 135 31 is_stmt 0 view .LVU753
 2238 019c B1F806C0 		ldrh	ip, [r1, #6]
 2239              		.loc 2 135 44 view .LVU754
 2240 01a0 4A88     		ldrh	r2, [r1, #2]
 2241              	.LVL195:
 2242              		.loc 2 135 44 view .LVU755
 2243              	.LBE165:
 2244              	.LBE164:
 437:lvgl/src/misc/lv_area.c ****             break;
 2245              		.loc 1 437 42 view .LVU756
 2246 01a2 A2EB0C02 		sub	r2, r2, ip
 2247 01a6 12FA8EFE 		uxtah	lr, r2, lr
 437:lvgl/src/misc/lv_area.c ****             break;
 2248              		.loc 1 437 15 view .LVU757
 2249 01aa 0FFA8EFE 		sxth	lr, lr
 2250              	.LVL196:
 438:lvgl/src/misc/lv_area.c **** 
 2251              		.loc 1 438 13 is_stmt 1 view .LVU758
 2252 01ae 78E7     		b	.L80
 2253              	.LVL197:
 2254              	.L97:
 441:lvgl/src/misc/lv_area.c ****             y = lv_area_get_height(base) - lv_area_get_height(to_align);
 2255              		.loc 1 441 13 view .LVU759
 2256              	.LBB166:
 2257              	.LBI166:
 123:lvgl/src/misc/lv_area.h **** {
 2258              		.loc 2 123 26 view .LVU760
 2259              	.LBB167:
 125:lvgl/src/misc/lv_area.h **** }
 2260              		.loc 2 125 5 view .LVU761
 125:lvgl/src/misc/lv_area.h **** }
 2261              		.loc 2 125 31 is_stmt 0 view .LVU762
 2262 01b0 8488     		ldrh	r4, [r0, #4]
 125:lvgl/src/misc/lv_area.h **** }
 2263              		.loc 2 125 44 view .LVU763
 2264 01b2 0288     		ldrh	r2, [r0]
 125:lvgl/src/misc/lv_area.h **** }
 2265              		.loc 2 125 36 view .LVU764
ARM GAS  /var/folders/21/t9g5rlb91ys800n5npymflf80000gn/T//ccj8QTAi.s 			page 65


 2266 01b4 A41A     		subs	r4, r4, r2
 2267              	.LVL198:
 125:lvgl/src/misc/lv_area.h **** }
 2268              		.loc 2 125 36 view .LVU765
 2269              	.LBE167:
 2270              	.LBE166:
 2271              	.LBB168:
 2272              	.LBI168:
 123:lvgl/src/misc/lv_area.h **** {
 2273              		.loc 2 123 26 is_stmt 1 view .LVU766
 2274              	.LBB169:
 125:lvgl/src/misc/lv_area.h **** }
 2275              		.loc 2 125 5 view .LVU767
 125:lvgl/src/misc/lv_area.h **** }
 2276              		.loc 2 125 31 is_stmt 0 view .LVU768
 2277 01b6 B1F804C0 		ldrh	ip, [r1, #4]
 125:lvgl/src/misc/lv_area.h **** }
 2278              		.loc 2 125 44 view .LVU769
 2279 01ba 0A88     		ldrh	r2, [r1]
 2280              	.LVL199:
 125:lvgl/src/misc/lv_area.h **** }
 2281              		.loc 2 125 44 view .LVU770
 2282              	.LBE169:
 2283              	.LBE168:
 441:lvgl/src/misc/lv_area.c ****             y = lv_area_get_height(base) - lv_area_get_height(to_align);
 2284              		.loc 1 441 41 view .LVU771
 2285 01bc A2EB0C02 		sub	r2, r2, ip
 2286 01c0 12FA84F4 		uxtah	r4, r2, r4
 441:lvgl/src/misc/lv_area.c ****             y = lv_area_get_height(base) - lv_area_get_height(to_align);
 2287              		.loc 1 441 15 view .LVU772
 2288 01c4 24B2     		sxth	r4, r4
 2289              	.LVL200:
 442:lvgl/src/misc/lv_area.c ****             break;
 2290              		.loc 1 442 13 is_stmt 1 view .LVU773
 2291              	.LBB170:
 2292              	.LBI170:
 133:lvgl/src/misc/lv_area.h **** {
 2293              		.loc 2 133 26 view .LVU774
 2294              	.LBB171:
 2295              		.loc 2 135 5 view .LVU775
 2296              		.loc 2 135 31 is_stmt 0 view .LVU776
 2297 01c6 B0F806E0 		ldrh	lr, [r0, #6]
 2298              		.loc 2 135 44 view .LVU777
 2299 01ca 4288     		ldrh	r2, [r0, #2]
 2300              		.loc 2 135 36 view .LVU778
 2301 01cc AEEB020E 		sub	lr, lr, r2
 2302              	.LVL201:
 2303              		.loc 2 135 36 view .LVU779
 2304              	.LBE171:
 2305              	.LBE170:
 2306              	.LBB172:
 2307              	.LBI172:
 133:lvgl/src/misc/lv_area.h **** {
 2308              		.loc 2 133 26 is_stmt 1 view .LVU780
 2309              	.LBB173:
 2310              		.loc 2 135 5 view .LVU781
 2311              		.loc 2 135 31 is_stmt 0 view .LVU782
ARM GAS  /var/folders/21/t9g5rlb91ys800n5npymflf80000gn/T//ccj8QTAi.s 			page 66


 2312 01d0 B1F806C0 		ldrh	ip, [r1, #6]
 2313              		.loc 2 135 44 view .LVU783
 2314 01d4 4A88     		ldrh	r2, [r1, #2]
 2315              	.LVL202:
 2316              		.loc 2 135 44 view .LVU784
 2317              	.LBE173:
 2318              	.LBE172:
 442:lvgl/src/misc/lv_area.c ****             break;
 2319              		.loc 1 442 42 view .LVU785
 2320 01d6 A2EB0C02 		sub	r2, r2, ip
 2321 01da 12FA8EFE 		uxtah	lr, r2, lr
 442:lvgl/src/misc/lv_area.c ****             break;
 2322              		.loc 1 442 15 view .LVU786
 2323 01de 0FFA8EFE 		sxth	lr, lr
 2324              	.LVL203:
 443:lvgl/src/misc/lv_area.c **** 
 2325              		.loc 1 443 13 is_stmt 1 view .LVU787
 2326 01e2 5EE7     		b	.L80
 2327              	.LVL204:
 2328              	.L96:
 446:lvgl/src/misc/lv_area.c ****             y = lv_area_get_height(base) / 2 - lv_area_get_height(to_align) / 2;
 2329              		.loc 1 446 13 view .LVU788
 447:lvgl/src/misc/lv_area.c ****             break;
 2330              		.loc 1 447 13 view .LVU789
 2331              	.LBB174:
 2332              	.LBI174:
 133:lvgl/src/misc/lv_area.h **** {
 2333              		.loc 2 133 26 view .LVU790
 2334              	.LBB175:
 2335              		.loc 2 135 5 view .LVU791
 2336              		.loc 2 135 31 is_stmt 0 view .LVU792
 2337 01e4 C488     		ldrh	r4, [r0, #6]
 2338              		.loc 2 135 44 view .LVU793
 2339 01e6 4288     		ldrh	r2, [r0, #2]
 2340              		.loc 2 135 36 view .LVU794
 2341 01e8 A41A     		subs	r4, r4, r2
 2342 01ea A4B2     		uxth	r4, r4
 2343              		.loc 2 135 49 view .LVU795
 2344 01ec 0134     		adds	r4, r4, #1
 2345              	.LVL205:
 2346              		.loc 2 135 49 view .LVU796
 2347              	.LBE175:
 2348              	.LBE174:
 2349              	.LBB176:
 2350              	.LBI176:
 133:lvgl/src/misc/lv_area.h **** {
 2351              		.loc 2 133 26 is_stmt 1 view .LVU797
 2352              	.LBB177:
 2353              		.loc 2 135 5 view .LVU798
 2354              		.loc 2 135 31 is_stmt 0 view .LVU799
 2355 01ee CA88     		ldrh	r2, [r1, #6]
 2356              		.loc 2 135 44 view .LVU800
 2357 01f0 B1F802C0 		ldrh	ip, [r1, #2]
 2358              		.loc 2 135 36 view .LVU801
 2359 01f4 A2EB0C02 		sub	r2, r2, ip
 2360 01f8 92B2     		uxth	r2, r2
 2361              		.loc 2 135 49 view .LVU802
ARM GAS  /var/folders/21/t9g5rlb91ys800n5npymflf80000gn/T//ccj8QTAi.s 			page 67


 2362 01fa 0132     		adds	r2, r2, #1
 2363              	.LVL206:
 2364              		.loc 2 135 49 view .LVU803
 2365              	.LBE177:
 2366              	.LBE176:
 447:lvgl/src/misc/lv_area.c ****             break;
 2367              		.loc 1 447 46 view .LVU804
 2368 01fc C4F3C03C 		ubfx	ip, r4, #15, #1
 2369 0200 0CFA84F4 		sxtah	r4, ip, r4
 2370 0204 C2F3C03C 		ubfx	ip, r2, #15, #1
 2371 0208 0CFA82FE 		sxtah	lr, ip, r2
 2372 020c 4FEA6E0E 		asr	lr, lr, #1
 2373 0210 CEEB640E 		rsb	lr, lr, r4, asr #1
 447:lvgl/src/misc/lv_area.c ****             break;
 2374              		.loc 1 447 15 view .LVU805
 2375 0214 0FFA8EFE 		sxth	lr, lr
 2376              	.LVL207:
 448:lvgl/src/misc/lv_area.c **** 
 2377              		.loc 1 448 13 is_stmt 1 view .LVU806
 446:lvgl/src/misc/lv_area.c ****             y = lv_area_get_height(base) / 2 - lv_area_get_height(to_align) / 2;
 2378              		.loc 1 446 15 is_stmt 0 view .LVU807
 2379 0218 0024     		movs	r4, #0
 448:lvgl/src/misc/lv_area.c **** 
 2380              		.loc 1 448 13 view .LVU808
 2381 021a 42E7     		b	.L80
 2382              	.LVL208:
 2383              	.L95:
 451:lvgl/src/misc/lv_area.c ****             y = lv_area_get_height(base) / 2 - lv_area_get_height(to_align) / 2;
 2384              		.loc 1 451 13 is_stmt 1 view .LVU809
 2385              	.LBB178:
 2386              	.LBI178:
 123:lvgl/src/misc/lv_area.h **** {
 2387              		.loc 2 123 26 view .LVU810
 2388              	.LBB179:
 125:lvgl/src/misc/lv_area.h **** }
 2389              		.loc 2 125 5 view .LVU811
 125:lvgl/src/misc/lv_area.h **** }
 2390              		.loc 2 125 31 is_stmt 0 view .LVU812
 2391 021c 8488     		ldrh	r4, [r0, #4]
 125:lvgl/src/misc/lv_area.h **** }
 2392              		.loc 2 125 44 view .LVU813
 2393 021e 0288     		ldrh	r2, [r0]
 125:lvgl/src/misc/lv_area.h **** }
 2394              		.loc 2 125 36 view .LVU814
 2395 0220 A41A     		subs	r4, r4, r2
 2396              	.LVL209:
 125:lvgl/src/misc/lv_area.h **** }
 2397              		.loc 2 125 36 view .LVU815
 2398              	.LBE179:
 2399              	.LBE178:
 2400              	.LBB180:
 2401              	.LBI180:
 123:lvgl/src/misc/lv_area.h **** {
 2402              		.loc 2 123 26 is_stmt 1 view .LVU816
 2403              	.LBB181:
 125:lvgl/src/misc/lv_area.h **** }
 2404              		.loc 2 125 5 view .LVU817
ARM GAS  /var/folders/21/t9g5rlb91ys800n5npymflf80000gn/T//ccj8QTAi.s 			page 68


 125:lvgl/src/misc/lv_area.h **** }
 2405              		.loc 2 125 31 is_stmt 0 view .LVU818
 2406 0222 B1F804C0 		ldrh	ip, [r1, #4]
 125:lvgl/src/misc/lv_area.h **** }
 2407              		.loc 2 125 44 view .LVU819
 2408 0226 0A88     		ldrh	r2, [r1]
 2409              	.LVL210:
 125:lvgl/src/misc/lv_area.h **** }
 2410              		.loc 2 125 44 view .LVU820
 2411              	.LBE181:
 2412              	.LBE180:
 451:lvgl/src/misc/lv_area.c ****             y = lv_area_get_height(base) / 2 - lv_area_get_height(to_align) / 2;
 2413              		.loc 1 451 41 view .LVU821
 2414 0228 A2EB0C02 		sub	r2, r2, ip
 2415 022c 12FA84F4 		uxtah	r4, r2, r4
 451:lvgl/src/misc/lv_area.c ****             y = lv_area_get_height(base) / 2 - lv_area_get_height(to_align) / 2;
 2416              		.loc 1 451 15 view .LVU822
 2417 0230 24B2     		sxth	r4, r4
 2418              	.LVL211:
 452:lvgl/src/misc/lv_area.c ****             break;
 2419              		.loc 1 452 13 is_stmt 1 view .LVU823
 2420              	.LBB182:
 2421              	.LBI182:
 133:lvgl/src/misc/lv_area.h **** {
 2422              		.loc 2 133 26 view .LVU824
 2423              	.LBB183:
 2424              		.loc 2 135 5 view .LVU825
 2425              		.loc 2 135 31 is_stmt 0 view .LVU826
 2426 0232 B0F806C0 		ldrh	ip, [r0, #6]
 2427              		.loc 2 135 44 view .LVU827
 2428 0236 4288     		ldrh	r2, [r0, #2]
 2429              		.loc 2 135 36 view .LVU828
 2430 0238 ACEB020C 		sub	ip, ip, r2
 2431 023c 1FFA8CFC 		uxth	ip, ip
 2432              		.loc 2 135 49 view .LVU829
 2433 0240 0CF1010C 		add	ip, ip, #1
 2434              	.LVL212:
 2435              		.loc 2 135 49 view .LVU830
 2436              	.LBE183:
 2437              	.LBE182:
 2438              	.LBB184:
 2439              	.LBI184:
 133:lvgl/src/misc/lv_area.h **** {
 2440              		.loc 2 133 26 is_stmt 1 view .LVU831
 2441              	.LBB185:
 2442              		.loc 2 135 5 view .LVU832
 2443              		.loc 2 135 31 is_stmt 0 view .LVU833
 2444 0244 CA88     		ldrh	r2, [r1, #6]
 2445              		.loc 2 135 44 view .LVU834
 2446 0246 B1F802E0 		ldrh	lr, [r1, #2]
 2447              		.loc 2 135 36 view .LVU835
 2448 024a A2EB0E02 		sub	r2, r2, lr
 2449 024e 92B2     		uxth	r2, r2
 2450              		.loc 2 135 49 view .LVU836
 2451 0250 0132     		adds	r2, r2, #1
 2452              	.LVL213:
 2453              		.loc 2 135 49 view .LVU837
ARM GAS  /var/folders/21/t9g5rlb91ys800n5npymflf80000gn/T//ccj8QTAi.s 			page 69


 2454              	.LBE185:
 2455              	.LBE184:
 452:lvgl/src/misc/lv_area.c ****             break;
 2456              		.loc 1 452 46 view .LVU838
 2457 0252 CCF3C03E 		ubfx	lr, ip, #15, #1
 2458 0256 0EFA8CFC 		sxtah	ip, lr, ip
 2459 025a C2F3C03E 		ubfx	lr, r2, #15, #1
 2460 025e 0EFA82FE 		sxtah	lr, lr, r2
 2461 0262 4FEA6E0E 		asr	lr, lr, #1
 2462 0266 CEEB6C0E 		rsb	lr, lr, ip, asr #1
 452:lvgl/src/misc/lv_area.c ****             break;
 2463              		.loc 1 452 15 view .LVU839
 2464 026a 0FFA8EFE 		sxth	lr, lr
 2465              	.LVL214:
 453:lvgl/src/misc/lv_area.c **** 
 2466              		.loc 1 453 13 is_stmt 1 view .LVU840
 2467 026e 18E7     		b	.L80
 2468              	.LVL215:
 2469              	.L93:
 456:lvgl/src/misc/lv_area.c ****             y = -lv_area_get_height(to_align);
 2470              		.loc 1 456 13 view .LVU841
 457:lvgl/src/misc/lv_area.c ****             break;
 2471              		.loc 1 457 13 view .LVU842
 2472              	.LBB186:
 2473              	.LBI186:
 133:lvgl/src/misc/lv_area.h **** {
 2474              		.loc 2 133 26 view .LVU843
 2475              	.LBB187:
 2476              		.loc 2 135 5 view .LVU844
 2477              		.loc 2 135 31 is_stmt 0 view .LVU845
 2478 0270 CA88     		ldrh	r2, [r1, #6]
 2479              		.loc 2 135 44 view .LVU846
 2480 0272 B1F802E0 		ldrh	lr, [r1, #2]
 2481              	.LVL216:
 2482              		.loc 2 135 44 view .LVU847
 2483              	.LBE187:
 2484              	.LBE186:
 457:lvgl/src/misc/lv_area.c ****             break;
 2485              		.loc 1 457 15 view .LVU848
 2486 0276 AEEB020E 		sub	lr, lr, r2
 2487 027a 0EF1FF3E 		add	lr, lr, #-1
 2488 027e 0FFA8EFE 		sxth	lr, lr
 2489              	.LVL217:
 458:lvgl/src/misc/lv_area.c **** 
 2490              		.loc 1 458 13 is_stmt 1 view .LVU849
 456:lvgl/src/misc/lv_area.c ****             y = -lv_area_get_height(to_align);
 2491              		.loc 1 456 15 is_stmt 0 view .LVU850
 2492 0282 0024     		movs	r4, #0
 458:lvgl/src/misc/lv_area.c **** 
 2493              		.loc 1 458 13 view .LVU851
 2494 0284 0DE7     		b	.L80
 2495              	.LVL218:
 2496              	.L92:
 461:lvgl/src/misc/lv_area.c ****             y = -lv_area_get_height(to_align);
 2497              		.loc 1 461 13 is_stmt 1 view .LVU852
 2498              	.LBB188:
 2499              	.LBI188:
ARM GAS  /var/folders/21/t9g5rlb91ys800n5npymflf80000gn/T//ccj8QTAi.s 			page 70


 123:lvgl/src/misc/lv_area.h **** {
 2500              		.loc 2 123 26 view .LVU853
 2501              	.LBB189:
 125:lvgl/src/misc/lv_area.h **** }
 2502              		.loc 2 125 5 view .LVU854
 125:lvgl/src/misc/lv_area.h **** }
 2503              		.loc 2 125 31 is_stmt 0 view .LVU855
 2504 0286 8488     		ldrh	r4, [r0, #4]
 125:lvgl/src/misc/lv_area.h **** }
 2505              		.loc 2 125 44 view .LVU856
 2506 0288 0288     		ldrh	r2, [r0]
 125:lvgl/src/misc/lv_area.h **** }
 2507              		.loc 2 125 36 view .LVU857
 2508 028a A41A     		subs	r4, r4, r2
 2509 028c A4B2     		uxth	r4, r4
 125:lvgl/src/misc/lv_area.h **** }
 2510              		.loc 2 125 49 view .LVU858
 2511 028e 0134     		adds	r4, r4, #1
 2512              	.LVL219:
 125:lvgl/src/misc/lv_area.h **** }
 2513              		.loc 2 125 49 view .LVU859
 2514              	.LBE189:
 2515              	.LBE188:
 2516              	.LBB190:
 2517              	.LBI190:
 123:lvgl/src/misc/lv_area.h **** {
 2518              		.loc 2 123 26 is_stmt 1 view .LVU860
 2519              	.LBB191:
 125:lvgl/src/misc/lv_area.h **** }
 2520              		.loc 2 125 5 view .LVU861
 125:lvgl/src/misc/lv_area.h **** }
 2521              		.loc 2 125 31 is_stmt 0 view .LVU862
 2522 0290 8A88     		ldrh	r2, [r1, #4]
 125:lvgl/src/misc/lv_area.h **** }
 2523              		.loc 2 125 44 view .LVU863
 2524 0292 B1F800C0 		ldrh	ip, [r1]
 125:lvgl/src/misc/lv_area.h **** }
 2525              		.loc 2 125 36 view .LVU864
 2526 0296 A2EB0C02 		sub	r2, r2, ip
 2527 029a 92B2     		uxth	r2, r2
 125:lvgl/src/misc/lv_area.h **** }
 2528              		.loc 2 125 49 view .LVU865
 2529 029c 0132     		adds	r2, r2, #1
 2530              	.LVL220:
 125:lvgl/src/misc/lv_area.h **** }
 2531              		.loc 2 125 49 view .LVU866
 2532              	.LBE191:
 2533              	.LBE190:
 461:lvgl/src/misc/lv_area.c ****             y = -lv_area_get_height(to_align);
 2534              		.loc 1 461 45 view .LVU867
 2535 029e C4F3C03C 		ubfx	ip, r4, #15, #1
 2536 02a2 0CFA84FC 		sxtah	ip, ip, r4
 2537 02a6 C2F3C034 		ubfx	r4, r2, #15, #1
 2538 02aa 04FA82F4 		sxtah	r4, r4, r2
 2539 02ae 6410     		asrs	r4, r4, #1
 2540 02b0 C4EB6C04 		rsb	r4, r4, ip, asr #1
 461:lvgl/src/misc/lv_area.c ****             y = -lv_area_get_height(to_align);
ARM GAS  /var/folders/21/t9g5rlb91ys800n5npymflf80000gn/T//ccj8QTAi.s 			page 71


 2541              		.loc 1 461 15 view .LVU868
 2542 02b4 24B2     		sxth	r4, r4
 2543              	.LVL221:
 462:lvgl/src/misc/lv_area.c ****             break;
 2544              		.loc 1 462 13 is_stmt 1 view .LVU869
 2545              	.LBB192:
 2546              	.LBI192:
 133:lvgl/src/misc/lv_area.h **** {
 2547              		.loc 2 133 26 view .LVU870
 2548              	.LBB193:
 2549              		.loc 2 135 5 view .LVU871
 2550              		.loc 2 135 31 is_stmt 0 view .LVU872
 2551 02b6 CA88     		ldrh	r2, [r1, #6]
 2552              		.loc 2 135 44 view .LVU873
 2553 02b8 B1F802E0 		ldrh	lr, [r1, #2]
 2554              	.LVL222:
 2555              		.loc 2 135 44 view .LVU874
 2556              	.LBE193:
 2557              	.LBE192:
 462:lvgl/src/misc/lv_area.c ****             break;
 2558              		.loc 1 462 15 view .LVU875
 2559 02bc AEEB020E 		sub	lr, lr, r2
 2560 02c0 0EF1FF3E 		add	lr, lr, #-1
 2561 02c4 0FFA8EFE 		sxth	lr, lr
 2562              	.LVL223:
 463:lvgl/src/misc/lv_area.c **** 
 2563              		.loc 1 463 13 is_stmt 1 view .LVU876
 2564 02c8 EBE6     		b	.L80
 2565              	.LVL224:
 2566              	.L91:
 466:lvgl/src/misc/lv_area.c ****             y = -lv_area_get_height(to_align);
 2567              		.loc 1 466 13 view .LVU877
 2568              	.LBB194:
 2569              	.LBI194:
 123:lvgl/src/misc/lv_area.h **** {
 2570              		.loc 2 123 26 view .LVU878
 2571              	.LBB195:
 125:lvgl/src/misc/lv_area.h **** }
 2572              		.loc 2 125 5 view .LVU879
 125:lvgl/src/misc/lv_area.h **** }
 2573              		.loc 2 125 31 is_stmt 0 view .LVU880
 2574 02ca 8488     		ldrh	r4, [r0, #4]
 125:lvgl/src/misc/lv_area.h **** }
 2575              		.loc 2 125 44 view .LVU881
 2576 02cc 0288     		ldrh	r2, [r0]
 125:lvgl/src/misc/lv_area.h **** }
 2577              		.loc 2 125 36 view .LVU882
 2578 02ce A41A     		subs	r4, r4, r2
 2579              	.LVL225:
 125:lvgl/src/misc/lv_area.h **** }
 2580              		.loc 2 125 36 view .LVU883
 2581              	.LBE195:
 2582              	.LBE194:
 2583              	.LBB196:
 2584              	.LBI196:
 123:lvgl/src/misc/lv_area.h **** {
 2585              		.loc 2 123 26 is_stmt 1 view .LVU884
ARM GAS  /var/folders/21/t9g5rlb91ys800n5npymflf80000gn/T//ccj8QTAi.s 			page 72


 2586              	.LBB197:
 125:lvgl/src/misc/lv_area.h **** }
 2587              		.loc 2 125 5 view .LVU885
 125:lvgl/src/misc/lv_area.h **** }
 2588              		.loc 2 125 31 is_stmt 0 view .LVU886
 2589 02d0 B1F804C0 		ldrh	ip, [r1, #4]
 125:lvgl/src/misc/lv_area.h **** }
 2590              		.loc 2 125 44 view .LVU887
 2591 02d4 0A88     		ldrh	r2, [r1]
 2592              	.LVL226:
 125:lvgl/src/misc/lv_area.h **** }
 2593              		.loc 2 125 44 view .LVU888
 2594              	.LBE197:
 2595              	.LBE196:
 466:lvgl/src/misc/lv_area.c ****             y = -lv_area_get_height(to_align);
 2596              		.loc 1 466 41 view .LVU889
 2597 02d6 A2EB0C02 		sub	r2, r2, ip
 2598 02da 12FA84F4 		uxtah	r4, r2, r4
 466:lvgl/src/misc/lv_area.c ****             y = -lv_area_get_height(to_align);
 2599              		.loc 1 466 15 view .LVU890
 2600 02de 24B2     		sxth	r4, r4
 2601              	.LVL227:
 467:lvgl/src/misc/lv_area.c ****             break;
 2602              		.loc 1 467 13 is_stmt 1 view .LVU891
 2603              	.LBB198:
 2604              	.LBI198:
 133:lvgl/src/misc/lv_area.h **** {
 2605              		.loc 2 133 26 view .LVU892
 2606              	.LBB199:
 2607              		.loc 2 135 5 view .LVU893
 2608              		.loc 2 135 31 is_stmt 0 view .LVU894
 2609 02e0 CA88     		ldrh	r2, [r1, #6]
 2610              		.loc 2 135 44 view .LVU895
 2611 02e2 B1F802E0 		ldrh	lr, [r1, #2]
 2612              	.LVL228:
 2613              		.loc 2 135 44 view .LVU896
 2614              	.LBE199:
 2615              	.LBE198:
 467:lvgl/src/misc/lv_area.c ****             break;
 2616              		.loc 1 467 15 view .LVU897
 2617 02e6 AEEB020E 		sub	lr, lr, r2
 2618 02ea 0EF1FF3E 		add	lr, lr, #-1
 2619 02ee 0FFA8EFE 		sxth	lr, lr
 2620              	.LVL229:
 468:lvgl/src/misc/lv_area.c **** 
 2621              		.loc 1 468 13 is_stmt 1 view .LVU898
 2622 02f2 D6E6     		b	.L80
 2623              	.LVL230:
 2624              	.L90:
 471:lvgl/src/misc/lv_area.c ****             y = lv_area_get_height(base);
 2625              		.loc 1 471 13 view .LVU899
 472:lvgl/src/misc/lv_area.c ****             break;
 2626              		.loc 1 472 13 view .LVU900
 2627              	.LBB200:
 2628              	.LBI200:
 133:lvgl/src/misc/lv_area.h **** {
 2629              		.loc 2 133 26 view .LVU901
ARM GAS  /var/folders/21/t9g5rlb91ys800n5npymflf80000gn/T//ccj8QTAi.s 			page 73


 2630              	.LBB201:
 2631              		.loc 2 135 5 view .LVU902
 2632              		.loc 2 135 31 is_stmt 0 view .LVU903
 2633 02f4 B0F806E0 		ldrh	lr, [r0, #6]
 2634              		.loc 2 135 44 view .LVU904
 2635 02f8 4288     		ldrh	r2, [r0, #2]
 2636              		.loc 2 135 36 view .LVU905
 2637 02fa AEEB020E 		sub	lr, lr, r2
 2638 02fe 1FFA8EFE 		uxth	lr, lr
 2639              		.loc 2 135 49 view .LVU906
 2640 0302 0EF1010E 		add	lr, lr, #1
 2641              		.loc 2 135 12 view .LVU907
 2642 0306 0FFA8EFE 		sxth	lr, lr
 2643              	.LVL231:
 2644              		.loc 2 135 12 view .LVU908
 2645              	.LBE201:
 2646              	.LBE200:
 473:lvgl/src/misc/lv_area.c **** 
 2647              		.loc 1 473 13 is_stmt 1 view .LVU909
 471:lvgl/src/misc/lv_area.c ****             y = lv_area_get_height(base);
 2648              		.loc 1 471 15 is_stmt 0 view .LVU910
 2649 030a 0024     		movs	r4, #0
 473:lvgl/src/misc/lv_area.c **** 
 2650              		.loc 1 473 13 view .LVU911
 2651 030c C9E6     		b	.L80
 2652              	.LVL232:
 2653              	.L89:
 476:lvgl/src/misc/lv_area.c ****             y = lv_area_get_height(base);
 2654              		.loc 1 476 13 is_stmt 1 view .LVU912
 2655              	.LBB202:
 2656              	.LBI202:
 123:lvgl/src/misc/lv_area.h **** {
 2657              		.loc 2 123 26 view .LVU913
 2658              	.LBB203:
 125:lvgl/src/misc/lv_area.h **** }
 2659              		.loc 2 125 5 view .LVU914
 125:lvgl/src/misc/lv_area.h **** }
 2660              		.loc 2 125 31 is_stmt 0 view .LVU915
 2661 030e 8488     		ldrh	r4, [r0, #4]
 125:lvgl/src/misc/lv_area.h **** }
 2662              		.loc 2 125 44 view .LVU916
 2663 0310 0288     		ldrh	r2, [r0]
 125:lvgl/src/misc/lv_area.h **** }
 2664              		.loc 2 125 36 view .LVU917
 2665 0312 A41A     		subs	r4, r4, r2
 2666 0314 A4B2     		uxth	r4, r4
 125:lvgl/src/misc/lv_area.h **** }
 2667              		.loc 2 125 49 view .LVU918
 2668 0316 0134     		adds	r4, r4, #1
 2669              	.LVL233:
 125:lvgl/src/misc/lv_area.h **** }
 2670              		.loc 2 125 49 view .LVU919
 2671              	.LBE203:
 2672              	.LBE202:
 2673              	.LBB204:
 2674              	.LBI204:
 123:lvgl/src/misc/lv_area.h **** {
ARM GAS  /var/folders/21/t9g5rlb91ys800n5npymflf80000gn/T//ccj8QTAi.s 			page 74


 2675              		.loc 2 123 26 is_stmt 1 view .LVU920
 2676              	.LBB205:
 125:lvgl/src/misc/lv_area.h **** }
 2677              		.loc 2 125 5 view .LVU921
 125:lvgl/src/misc/lv_area.h **** }
 2678              		.loc 2 125 31 is_stmt 0 view .LVU922
 2679 0318 8A88     		ldrh	r2, [r1, #4]
 125:lvgl/src/misc/lv_area.h **** }
 2680              		.loc 2 125 44 view .LVU923
 2681 031a B1F800C0 		ldrh	ip, [r1]
 125:lvgl/src/misc/lv_area.h **** }
 2682              		.loc 2 125 36 view .LVU924
 2683 031e A2EB0C02 		sub	r2, r2, ip
 2684 0322 92B2     		uxth	r2, r2
 125:lvgl/src/misc/lv_area.h **** }
 2685              		.loc 2 125 49 view .LVU925
 2686 0324 0132     		adds	r2, r2, #1
 2687              	.LVL234:
 125:lvgl/src/misc/lv_area.h **** }
 2688              		.loc 2 125 49 view .LVU926
 2689              	.LBE205:
 2690              	.LBE204:
 476:lvgl/src/misc/lv_area.c ****             y = lv_area_get_height(base);
 2691              		.loc 1 476 45 view .LVU927
 2692 0326 C4F3C03C 		ubfx	ip, r4, #15, #1
 2693 032a 0CFA84FC 		sxtah	ip, ip, r4
 2694 032e C2F3C034 		ubfx	r4, r2, #15, #1
 2695 0332 04FA82F4 		sxtah	r4, r4, r2
 2696 0336 6410     		asrs	r4, r4, #1
 2697 0338 C4EB6C04 		rsb	r4, r4, ip, asr #1
 476:lvgl/src/misc/lv_area.c ****             y = lv_area_get_height(base);
 2698              		.loc 1 476 15 view .LVU928
 2699 033c 24B2     		sxth	r4, r4
 2700              	.LVL235:
 477:lvgl/src/misc/lv_area.c ****             break;
 2701              		.loc 1 477 13 is_stmt 1 view .LVU929
 2702              	.LBB206:
 2703              	.LBI206:
 133:lvgl/src/misc/lv_area.h **** {
 2704              		.loc 2 133 26 view .LVU930
 2705              	.LBB207:
 2706              		.loc 2 135 5 view .LVU931
 2707              		.loc 2 135 31 is_stmt 0 view .LVU932
 2708 033e B0F806E0 		ldrh	lr, [r0, #6]
 2709              		.loc 2 135 44 view .LVU933
 2710 0342 4288     		ldrh	r2, [r0, #2]
 2711              		.loc 2 135 36 view .LVU934
 2712 0344 AEEB020E 		sub	lr, lr, r2
 2713 0348 1FFA8EFE 		uxth	lr, lr
 2714              		.loc 2 135 49 view .LVU935
 2715 034c 0EF1010E 		add	lr, lr, #1
 2716              		.loc 2 135 12 view .LVU936
 2717 0350 0FFA8EFE 		sxth	lr, lr
 2718              	.LVL236:
 2719              		.loc 2 135 12 view .LVU937
 2720              	.LBE207:
 2721              	.LBE206:
ARM GAS  /var/folders/21/t9g5rlb91ys800n5npymflf80000gn/T//ccj8QTAi.s 			page 75


 478:lvgl/src/misc/lv_area.c **** 
 2722              		.loc 1 478 13 is_stmt 1 view .LVU938
 2723 0354 A5E6     		b	.L80
 2724              	.LVL237:
 2725              	.L88:
 481:lvgl/src/misc/lv_area.c ****             y = lv_area_get_height(base);
 2726              		.loc 1 481 13 view .LVU939
 2727              	.LBB208:
 2728              	.LBI208:
 123:lvgl/src/misc/lv_area.h **** {
 2729              		.loc 2 123 26 view .LVU940
 2730              	.LBB209:
 125:lvgl/src/misc/lv_area.h **** }
 2731              		.loc 2 125 5 view .LVU941
 125:lvgl/src/misc/lv_area.h **** }
 2732              		.loc 2 125 31 is_stmt 0 view .LVU942
 2733 0356 8488     		ldrh	r4, [r0, #4]
 125:lvgl/src/misc/lv_area.h **** }
 2734              		.loc 2 125 44 view .LVU943
 2735 0358 0288     		ldrh	r2, [r0]
 125:lvgl/src/misc/lv_area.h **** }
 2736              		.loc 2 125 36 view .LVU944
 2737 035a A41A     		subs	r4, r4, r2
 2738              	.LVL238:
 125:lvgl/src/misc/lv_area.h **** }
 2739              		.loc 2 125 36 view .LVU945
 2740              	.LBE209:
 2741              	.LBE208:
 2742              	.LBB210:
 2743              	.LBI210:
 123:lvgl/src/misc/lv_area.h **** {
 2744              		.loc 2 123 26 is_stmt 1 view .LVU946
 2745              	.LBB211:
 125:lvgl/src/misc/lv_area.h **** }
 2746              		.loc 2 125 5 view .LVU947
 125:lvgl/src/misc/lv_area.h **** }
 2747              		.loc 2 125 31 is_stmt 0 view .LVU948
 2748 035c B1F804C0 		ldrh	ip, [r1, #4]
 125:lvgl/src/misc/lv_area.h **** }
 2749              		.loc 2 125 44 view .LVU949
 2750 0360 0A88     		ldrh	r2, [r1]
 2751              	.LVL239:
 125:lvgl/src/misc/lv_area.h **** }
 2752              		.loc 2 125 44 view .LVU950
 2753              	.LBE211:
 2754              	.LBE210:
 481:lvgl/src/misc/lv_area.c ****             y = lv_area_get_height(base);
 2755              		.loc 1 481 41 view .LVU951
 2756 0362 A2EB0C02 		sub	r2, r2, ip
 2757 0366 12FA84F4 		uxtah	r4, r2, r4
 481:lvgl/src/misc/lv_area.c ****             y = lv_area_get_height(base);
 2758              		.loc 1 481 15 view .LVU952
 2759 036a 24B2     		sxth	r4, r4
 2760              	.LVL240:
 482:lvgl/src/misc/lv_area.c ****             break;
 2761              		.loc 1 482 13 is_stmt 1 view .LVU953
 2762              	.LBB212:
ARM GAS  /var/folders/21/t9g5rlb91ys800n5npymflf80000gn/T//ccj8QTAi.s 			page 76


 2763              	.LBI212:
 133:lvgl/src/misc/lv_area.h **** {
 2764              		.loc 2 133 26 view .LVU954
 2765              	.LBB213:
 2766              		.loc 2 135 5 view .LVU955
 2767              		.loc 2 135 31 is_stmt 0 view .LVU956
 2768 036c B0F806E0 		ldrh	lr, [r0, #6]
 2769              		.loc 2 135 44 view .LVU957
 2770 0370 4288     		ldrh	r2, [r0, #2]
 2771              		.loc 2 135 36 view .LVU958
 2772 0372 AEEB020E 		sub	lr, lr, r2
 2773 0376 1FFA8EFE 		uxth	lr, lr
 2774              		.loc 2 135 49 view .LVU959
 2775 037a 0EF1010E 		add	lr, lr, #1
 2776              		.loc 2 135 12 view .LVU960
 2777 037e 0FFA8EFE 		sxth	lr, lr
 2778              	.LVL241:
 2779              		.loc 2 135 12 view .LVU961
 2780              	.LBE213:
 2781              	.LBE212:
 483:lvgl/src/misc/lv_area.c **** 
 2782              		.loc 1 483 13 is_stmt 1 view .LVU962
 2783 0382 8EE6     		b	.L80
 2784              	.LVL242:
 2785              	.L87:
 486:lvgl/src/misc/lv_area.c ****             y = 0;
 2786              		.loc 1 486 13 view .LVU963
 2787              	.LBB214:
 2788              	.LBI214:
 123:lvgl/src/misc/lv_area.h **** {
 2789              		.loc 2 123 26 view .LVU964
 2790              	.LBB215:
 125:lvgl/src/misc/lv_area.h **** }
 2791              		.loc 2 125 5 view .LVU965
 125:lvgl/src/misc/lv_area.h **** }
 2792              		.loc 2 125 31 is_stmt 0 view .LVU966
 2793 0384 8A88     		ldrh	r2, [r1, #4]
 125:lvgl/src/misc/lv_area.h **** }
 2794              		.loc 2 125 44 view .LVU967
 2795 0386 0C88     		ldrh	r4, [r1]
 2796              	.LVL243:
 125:lvgl/src/misc/lv_area.h **** }
 2797              		.loc 2 125 44 view .LVU968
 2798              	.LBE215:
 2799              	.LBE214:
 486:lvgl/src/misc/lv_area.c ****             y = 0;
 2800              		.loc 1 486 15 view .LVU969
 2801 0388 A41A     		subs	r4, r4, r2
 2802 038a 013C     		subs	r4, r4, #1
 2803 038c 24B2     		sxth	r4, r4
 2804              	.LVL244:
 487:lvgl/src/misc/lv_area.c ****             break;
 2805              		.loc 1 487 13 is_stmt 1 view .LVU970
 488:lvgl/src/misc/lv_area.c **** 
 2806              		.loc 1 488 13 view .LVU971
 487:lvgl/src/misc/lv_area.c ****             break;
 2807              		.loc 1 487 15 is_stmt 0 view .LVU972
ARM GAS  /var/folders/21/t9g5rlb91ys800n5npymflf80000gn/T//ccj8QTAi.s 			page 77


 2808 038e 4FF0000E 		mov	lr, #0
 488:lvgl/src/misc/lv_area.c **** 
 2809              		.loc 1 488 13 view .LVU973
 2810 0392 86E6     		b	.L80
 2811              	.LVL245:
 2812              	.L86:
 491:lvgl/src/misc/lv_area.c ****             y = lv_area_get_height(base) / 2 - lv_area_get_height(to_align) / 2;
 2813              		.loc 1 491 13 is_stmt 1 view .LVU974
 2814              	.LBB216:
 2815              	.LBI216:
 123:lvgl/src/misc/lv_area.h **** {
 2816              		.loc 2 123 26 view .LVU975
 2817              	.LBB217:
 125:lvgl/src/misc/lv_area.h **** }
 2818              		.loc 2 125 5 view .LVU976
 125:lvgl/src/misc/lv_area.h **** }
 2819              		.loc 2 125 31 is_stmt 0 view .LVU977
 2820 0394 8A88     		ldrh	r2, [r1, #4]
 125:lvgl/src/misc/lv_area.h **** }
 2821              		.loc 2 125 44 view .LVU978
 2822 0396 0C88     		ldrh	r4, [r1]
 2823              	.LVL246:
 125:lvgl/src/misc/lv_area.h **** }
 2824              		.loc 2 125 44 view .LVU979
 2825              	.LBE217:
 2826              	.LBE216:
 491:lvgl/src/misc/lv_area.c ****             y = lv_area_get_height(base) / 2 - lv_area_get_height(to_align) / 2;
 2827              		.loc 1 491 15 view .LVU980
 2828 0398 A41A     		subs	r4, r4, r2
 2829 039a 013C     		subs	r4, r4, #1
 2830 039c 24B2     		sxth	r4, r4
 2831              	.LVL247:
 492:lvgl/src/misc/lv_area.c ****             break;
 2832              		.loc 1 492 13 is_stmt 1 view .LVU981
 2833              	.LBB218:
 2834              	.LBI218:
 133:lvgl/src/misc/lv_area.h **** {
 2835              		.loc 2 133 26 view .LVU982
 2836              	.LBB219:
 2837              		.loc 2 135 5 view .LVU983
 2838              		.loc 2 135 31 is_stmt 0 view .LVU984
 2839 039e B0F806C0 		ldrh	ip, [r0, #6]
 2840              		.loc 2 135 44 view .LVU985
 2841 03a2 4288     		ldrh	r2, [r0, #2]
 2842              		.loc 2 135 36 view .LVU986
 2843 03a4 ACEB020C 		sub	ip, ip, r2
 2844 03a8 1FFA8CFC 		uxth	ip, ip
 2845              		.loc 2 135 49 view .LVU987
 2846 03ac 0CF1010C 		add	ip, ip, #1
 2847              	.LVL248:
 2848              		.loc 2 135 49 view .LVU988
 2849              	.LBE219:
 2850              	.LBE218:
 2851              	.LBB220:
 2852              	.LBI220:
 133:lvgl/src/misc/lv_area.h **** {
 2853              		.loc 2 133 26 is_stmt 1 view .LVU989
ARM GAS  /var/folders/21/t9g5rlb91ys800n5npymflf80000gn/T//ccj8QTAi.s 			page 78


 2854              	.LBB221:
 2855              		.loc 2 135 5 view .LVU990
 2856              		.loc 2 135 31 is_stmt 0 view .LVU991
 2857 03b0 CA88     		ldrh	r2, [r1, #6]
 2858              		.loc 2 135 44 view .LVU992
 2859 03b2 B1F802E0 		ldrh	lr, [r1, #2]
 2860              		.loc 2 135 36 view .LVU993
 2861 03b6 A2EB0E02 		sub	r2, r2, lr
 2862 03ba 92B2     		uxth	r2, r2
 2863              		.loc 2 135 49 view .LVU994
 2864 03bc 0132     		adds	r2, r2, #1
 2865              	.LVL249:
 2866              		.loc 2 135 49 view .LVU995
 2867              	.LBE221:
 2868              	.LBE220:
 492:lvgl/src/misc/lv_area.c ****             break;
 2869              		.loc 1 492 46 view .LVU996
 2870 03be CCF3C03E 		ubfx	lr, ip, #15, #1
 2871 03c2 0EFA8CFC 		sxtah	ip, lr, ip
 2872 03c6 C2F3C03E 		ubfx	lr, r2, #15, #1
 2873 03ca 0EFA82FE 		sxtah	lr, lr, r2
 2874 03ce 4FEA6E0E 		asr	lr, lr, #1
 2875 03d2 CEEB6C0E 		rsb	lr, lr, ip, asr #1
 492:lvgl/src/misc/lv_area.c ****             break;
 2876              		.loc 1 492 15 view .LVU997
 2877 03d6 0FFA8EFE 		sxth	lr, lr
 2878              	.LVL250:
 493:lvgl/src/misc/lv_area.c **** 
 2879              		.loc 1 493 13 is_stmt 1 view .LVU998
 2880 03da 62E6     		b	.L80
 2881              	.LVL251:
 2882              	.L85:
 496:lvgl/src/misc/lv_area.c ****             y = lv_area_get_height(base) - lv_area_get_height(to_align);
 2883              		.loc 1 496 13 view .LVU999
 2884              	.LBB222:
 2885              	.LBI222:
 123:lvgl/src/misc/lv_area.h **** {
 2886              		.loc 2 123 26 view .LVU1000
 2887              	.LBB223:
 125:lvgl/src/misc/lv_area.h **** }
 2888              		.loc 2 125 5 view .LVU1001
 125:lvgl/src/misc/lv_area.h **** }
 2889              		.loc 2 125 31 is_stmt 0 view .LVU1002
 2890 03dc 8A88     		ldrh	r2, [r1, #4]
 125:lvgl/src/misc/lv_area.h **** }
 2891              		.loc 2 125 44 view .LVU1003
 2892 03de 0C88     		ldrh	r4, [r1]
 2893              	.LVL252:
 125:lvgl/src/misc/lv_area.h **** }
 2894              		.loc 2 125 44 view .LVU1004
 2895              	.LBE223:
 2896              	.LBE222:
 496:lvgl/src/misc/lv_area.c ****             y = lv_area_get_height(base) - lv_area_get_height(to_align);
 2897              		.loc 1 496 15 view .LVU1005
 2898 03e0 A41A     		subs	r4, r4, r2
 2899 03e2 013C     		subs	r4, r4, #1
 2900 03e4 24B2     		sxth	r4, r4
ARM GAS  /var/folders/21/t9g5rlb91ys800n5npymflf80000gn/T//ccj8QTAi.s 			page 79


 2901              	.LVL253:
 497:lvgl/src/misc/lv_area.c ****             break;
 2902              		.loc 1 497 13 is_stmt 1 view .LVU1006
 2903              	.LBB224:
 2904              	.LBI224:
 133:lvgl/src/misc/lv_area.h **** {
 2905              		.loc 2 133 26 view .LVU1007
 2906              	.LBB225:
 2907              		.loc 2 135 5 view .LVU1008
 2908              		.loc 2 135 31 is_stmt 0 view .LVU1009
 2909 03e6 B0F806E0 		ldrh	lr, [r0, #6]
 2910              		.loc 2 135 44 view .LVU1010
 2911 03ea 4288     		ldrh	r2, [r0, #2]
 2912              		.loc 2 135 36 view .LVU1011
 2913 03ec AEEB020E 		sub	lr, lr, r2
 2914              	.LVL254:
 2915              		.loc 2 135 36 view .LVU1012
 2916              	.LBE225:
 2917              	.LBE224:
 2918              	.LBB226:
 2919              	.LBI226:
 133:lvgl/src/misc/lv_area.h **** {
 2920              		.loc 2 133 26 is_stmt 1 view .LVU1013
 2921              	.LBB227:
 2922              		.loc 2 135 5 view .LVU1014
 2923              		.loc 2 135 31 is_stmt 0 view .LVU1015
 2924 03f0 B1F806C0 		ldrh	ip, [r1, #6]
 2925              		.loc 2 135 44 view .LVU1016
 2926 03f4 4A88     		ldrh	r2, [r1, #2]
 2927              	.LVL255:
 2928              		.loc 2 135 44 view .LVU1017
 2929              	.LBE227:
 2930              	.LBE226:
 497:lvgl/src/misc/lv_area.c ****             break;
 2931              		.loc 1 497 42 view .LVU1018
 2932 03f6 A2EB0C02 		sub	r2, r2, ip
 2933 03fa 12FA8EFE 		uxtah	lr, r2, lr
 497:lvgl/src/misc/lv_area.c ****             break;
 2934              		.loc 1 497 15 view .LVU1019
 2935 03fe 0FFA8EFE 		sxth	lr, lr
 2936              	.LVL256:
 498:lvgl/src/misc/lv_area.c **** 
 2937              		.loc 1 498 13 is_stmt 1 view .LVU1020
 2938 0402 4EE6     		b	.L80
 2939              	.LVL257:
 2940              	.L84:
 501:lvgl/src/misc/lv_area.c ****             y = 0;
 2941              		.loc 1 501 13 view .LVU1021
 2942              	.LBB228:
 2943              	.LBI228:
 123:lvgl/src/misc/lv_area.h **** {
 2944              		.loc 2 123 26 view .LVU1022
 2945              	.LBB229:
 125:lvgl/src/misc/lv_area.h **** }
 2946              		.loc 2 125 5 view .LVU1023
 125:lvgl/src/misc/lv_area.h **** }
 2947              		.loc 2 125 31 is_stmt 0 view .LVU1024
ARM GAS  /var/folders/21/t9g5rlb91ys800n5npymflf80000gn/T//ccj8QTAi.s 			page 80


 2948 0404 8488     		ldrh	r4, [r0, #4]
 125:lvgl/src/misc/lv_area.h **** }
 2949              		.loc 2 125 44 view .LVU1025
 2950 0406 0288     		ldrh	r2, [r0]
 125:lvgl/src/misc/lv_area.h **** }
 2951              		.loc 2 125 36 view .LVU1026
 2952 0408 A41A     		subs	r4, r4, r2
 2953 040a A4B2     		uxth	r4, r4
 125:lvgl/src/misc/lv_area.h **** }
 2954              		.loc 2 125 49 view .LVU1027
 2955 040c 0134     		adds	r4, r4, #1
 125:lvgl/src/misc/lv_area.h **** }
 2956              		.loc 2 125 12 view .LVU1028
 2957 040e 24B2     		sxth	r4, r4
 2958              	.LVL258:
 125:lvgl/src/misc/lv_area.h **** }
 2959              		.loc 2 125 12 view .LVU1029
 2960              	.LBE229:
 2961              	.LBE228:
 502:lvgl/src/misc/lv_area.c ****             break;
 2962              		.loc 1 502 13 is_stmt 1 view .LVU1030
 503:lvgl/src/misc/lv_area.c **** 
 2963              		.loc 1 503 13 view .LVU1031
 502:lvgl/src/misc/lv_area.c ****             break;
 2964              		.loc 1 502 15 is_stmt 0 view .LVU1032
 2965 0410 4FF0000E 		mov	lr, #0
 503:lvgl/src/misc/lv_area.c **** 
 2966              		.loc 1 503 13 view .LVU1033
 2967 0414 45E6     		b	.L80
 2968              	.LVL259:
 2969              	.L83:
 506:lvgl/src/misc/lv_area.c ****             y = lv_area_get_height(base) / 2 - lv_area_get_height(to_align) / 2;
 2970              		.loc 1 506 13 is_stmt 1 view .LVU1034
 2971              	.LBB230:
 2972              	.LBI230:
 123:lvgl/src/misc/lv_area.h **** {
 2973              		.loc 2 123 26 view .LVU1035
 2974              	.LBB231:
 125:lvgl/src/misc/lv_area.h **** }
 2975              		.loc 2 125 5 view .LVU1036
 125:lvgl/src/misc/lv_area.h **** }
 2976              		.loc 2 125 31 is_stmt 0 view .LVU1037
 2977 0416 8488     		ldrh	r4, [r0, #4]
 125:lvgl/src/misc/lv_area.h **** }
 2978              		.loc 2 125 44 view .LVU1038
 2979 0418 0288     		ldrh	r2, [r0]
 125:lvgl/src/misc/lv_area.h **** }
 2980              		.loc 2 125 36 view .LVU1039
 2981 041a A41A     		subs	r4, r4, r2
 2982 041c A4B2     		uxth	r4, r4
 125:lvgl/src/misc/lv_area.h **** }
 2983              		.loc 2 125 49 view .LVU1040
 2984 041e 0134     		adds	r4, r4, #1
 125:lvgl/src/misc/lv_area.h **** }
 2985              		.loc 2 125 12 view .LVU1041
 2986 0420 24B2     		sxth	r4, r4
 2987              	.LVL260:
ARM GAS  /var/folders/21/t9g5rlb91ys800n5npymflf80000gn/T//ccj8QTAi.s 			page 81


 125:lvgl/src/misc/lv_area.h **** }
 2988              		.loc 2 125 12 view .LVU1042
 2989              	.LBE231:
 2990              	.LBE230:
 507:lvgl/src/misc/lv_area.c ****             break;
 2991              		.loc 1 507 13 is_stmt 1 view .LVU1043
 2992              	.LBB232:
 2993              	.LBI232:
 133:lvgl/src/misc/lv_area.h **** {
 2994              		.loc 2 133 26 view .LVU1044
 2995              	.LBB233:
 2996              		.loc 2 135 5 view .LVU1045
 2997              		.loc 2 135 31 is_stmt 0 view .LVU1046
 2998 0422 B0F806C0 		ldrh	ip, [r0, #6]
 2999              		.loc 2 135 44 view .LVU1047
 3000 0426 4288     		ldrh	r2, [r0, #2]
 3001              		.loc 2 135 36 view .LVU1048
 3002 0428 ACEB020C 		sub	ip, ip, r2
 3003 042c 1FFA8CFC 		uxth	ip, ip
 3004              		.loc 2 135 49 view .LVU1049
 3005 0430 0CF1010C 		add	ip, ip, #1
 3006              	.LVL261:
 3007              		.loc 2 135 49 view .LVU1050
 3008              	.LBE233:
 3009              	.LBE232:
 3010              	.LBB234:
 3011              	.LBI234:
 133:lvgl/src/misc/lv_area.h **** {
 3012              		.loc 2 133 26 is_stmt 1 view .LVU1051
 3013              	.LBB235:
 3014              		.loc 2 135 5 view .LVU1052
 3015              		.loc 2 135 31 is_stmt 0 view .LVU1053
 3016 0434 CA88     		ldrh	r2, [r1, #6]
 3017              		.loc 2 135 44 view .LVU1054
 3018 0436 B1F802E0 		ldrh	lr, [r1, #2]
 3019              		.loc 2 135 36 view .LVU1055
 3020 043a A2EB0E02 		sub	r2, r2, lr
 3021 043e 92B2     		uxth	r2, r2
 3022              		.loc 2 135 49 view .LVU1056
 3023 0440 0132     		adds	r2, r2, #1
 3024              	.LVL262:
 3025              		.loc 2 135 49 view .LVU1057
 3026              	.LBE235:
 3027              	.LBE234:
 507:lvgl/src/misc/lv_area.c ****             break;
 3028              		.loc 1 507 46 view .LVU1058
 3029 0442 CCF3C03E 		ubfx	lr, ip, #15, #1
 3030 0446 0EFA8CFC 		sxtah	ip, lr, ip
 3031 044a C2F3C03E 		ubfx	lr, r2, #15, #1
 3032 044e 0EFA82FE 		sxtah	lr, lr, r2
 3033 0452 4FEA6E0E 		asr	lr, lr, #1
 3034 0456 CEEB6C0E 		rsb	lr, lr, ip, asr #1
 507:lvgl/src/misc/lv_area.c ****             break;
 3035              		.loc 1 507 15 view .LVU1059
 3036 045a 0FFA8EFE 		sxth	lr, lr
 3037              	.LVL263:
 508:lvgl/src/misc/lv_area.c **** 
ARM GAS  /var/folders/21/t9g5rlb91ys800n5npymflf80000gn/T//ccj8QTAi.s 			page 82


 3038              		.loc 1 508 13 is_stmt 1 view .LVU1060
 3039 045e 20E6     		b	.L80
 3040              	.LVL264:
 3041              	.L81:
 511:lvgl/src/misc/lv_area.c ****             y = lv_area_get_height(base) - lv_area_get_height(to_align);
 3042              		.loc 1 511 13 view .LVU1061
 3043              	.LBB236:
 3044              	.LBI236:
 123:lvgl/src/misc/lv_area.h **** {
 3045              		.loc 2 123 26 view .LVU1062
 3046              	.LBB237:
 125:lvgl/src/misc/lv_area.h **** }
 3047              		.loc 2 125 5 view .LVU1063
 125:lvgl/src/misc/lv_area.h **** }
 3048              		.loc 2 125 31 is_stmt 0 view .LVU1064
 3049 0460 8488     		ldrh	r4, [r0, #4]
 125:lvgl/src/misc/lv_area.h **** }
 3050              		.loc 2 125 44 view .LVU1065
 3051 0462 0288     		ldrh	r2, [r0]
 125:lvgl/src/misc/lv_area.h **** }
 3052              		.loc 2 125 36 view .LVU1066
 3053 0464 A41A     		subs	r4, r4, r2
 3054 0466 A4B2     		uxth	r4, r4
 125:lvgl/src/misc/lv_area.h **** }
 3055              		.loc 2 125 49 view .LVU1067
 3056 0468 0134     		adds	r4, r4, #1
 125:lvgl/src/misc/lv_area.h **** }
 3057              		.loc 2 125 12 view .LVU1068
 3058 046a 24B2     		sxth	r4, r4
 3059              	.LVL265:
 125:lvgl/src/misc/lv_area.h **** }
 3060              		.loc 2 125 12 view .LVU1069
 3061              	.LBE237:
 3062              	.LBE236:
 512:lvgl/src/misc/lv_area.c ****             break;
 3063              		.loc 1 512 13 is_stmt 1 view .LVU1070
 3064              	.LBB238:
 3065              	.LBI238:
 133:lvgl/src/misc/lv_area.h **** {
 3066              		.loc 2 133 26 view .LVU1071
 3067              	.LBB239:
 3068              		.loc 2 135 5 view .LVU1072
 3069              		.loc 2 135 31 is_stmt 0 view .LVU1073
 3070 046c B0F806E0 		ldrh	lr, [r0, #6]
 3071              		.loc 2 135 44 view .LVU1074
 3072 0470 4288     		ldrh	r2, [r0, #2]
 3073              		.loc 2 135 36 view .LVU1075
 3074 0472 AEEB020E 		sub	lr, lr, r2
 3075              	.LVL266:
 3076              		.loc 2 135 36 view .LVU1076
 3077              	.LBE239:
 3078              	.LBE238:
 3079              	.LBB240:
 3080              	.LBI240:
 133:lvgl/src/misc/lv_area.h **** {
 3081              		.loc 2 133 26 is_stmt 1 view .LVU1077
 3082              	.LBB241:
ARM GAS  /var/folders/21/t9g5rlb91ys800n5npymflf80000gn/T//ccj8QTAi.s 			page 83


 3083              		.loc 2 135 5 view .LVU1078
 3084              		.loc 2 135 31 is_stmt 0 view .LVU1079
 3085 0476 B1F806C0 		ldrh	ip, [r1, #6]
 3086              		.loc 2 135 44 view .LVU1080
 3087 047a 4A88     		ldrh	r2, [r1, #2]
 3088              	.LVL267:
 3089              		.loc 2 135 44 view .LVU1081
 3090              	.LBE241:
 3091              	.LBE240:
 512:lvgl/src/misc/lv_area.c ****             break;
 3092              		.loc 1 512 42 view .LVU1082
 3093 047c A2EB0C02 		sub	r2, r2, ip
 3094 0480 12FA8EFE 		uxtah	lr, r2, lr
 512:lvgl/src/misc/lv_area.c ****             break;
 3095              		.loc 1 512 15 view .LVU1083
 3096 0484 0FFA8EFE 		sxth	lr, lr
 3097              	.LVL268:
 513:lvgl/src/misc/lv_area.c ****         default:
 3098              		.loc 1 513 13 is_stmt 1 view .LVU1084
 3099 0488 0BE6     		b	.L80
 3100              	.LVL269:
 3101              	.L102:
 411:lvgl/src/misc/lv_area.c ****         case LV_ALIGN_CENTER:
 3102              		.loc 1 411 5 is_stmt 0 view .LVU1085
 3103 048a 4FF0000E 		mov	lr, #0
 3104 048e 7446     		mov	r4, lr
 3105 0490 07E6     		b	.L80
 3106              		.cfi_endproc
 3107              	.LFE20:
 3109              		.section	.text.lv_point_transform,"ax",%progbits
 3110              		.align	1
 3111              		.global	lv_point_transform
 3112              		.syntax unified
 3113              		.thumb
 3114              		.thumb_func
 3116              	lv_point_transform:
 3117              	.LVL270:
 3118              	.LFB21:
 533:lvgl/src/misc/lv_area.c ****     if(angle == 0 && zoom == 256) {
 3119              		.loc 1 533 1 is_stmt 1 view -0
 3120              		.cfi_startproc
 3121              		@ args = 0, pretend = 0, frame = 8
 3122              		@ frame_needed = 0, uses_anonymous_args = 0
 533:lvgl/src/misc/lv_area.c ****     if(angle == 0 && zoom == 256) {
 3123              		.loc 1 533 1 is_stmt 0 view .LVU1087
 3124 0000 2DE9F04F 		push	{r4, r5, r6, r7, r8, r9, r10, fp, lr}
 3125              	.LCFI20:
 3126              		.cfi_def_cfa_offset 36
 3127              		.cfi_offset 4, -36
 3128              		.cfi_offset 5, -32
 3129              		.cfi_offset 6, -28
 3130              		.cfi_offset 7, -24
 3131              		.cfi_offset 8, -20
 3132              		.cfi_offset 9, -16
 3133              		.cfi_offset 10, -12
 3134              		.cfi_offset 11, -8
 3135              		.cfi_offset 14, -4
ARM GAS  /var/folders/21/t9g5rlb91ys800n5npymflf80000gn/T//ccj8QTAi.s 			page 84


 3136 0004 83B0     		sub	sp, sp, #12
 3137              	.LCFI21:
 3138              		.cfi_def_cfa_offset 48
 3139 0006 0446     		mov	r4, r0
 3140 0008 1746     		mov	r7, r2
 3141 000a 1E46     		mov	r6, r3
 534:lvgl/src/misc/lv_area.c ****         return;
 3142              		.loc 1 534 5 is_stmt 1 view .LVU1088
 534:lvgl/src/misc/lv_area.c ****         return;
 3143              		.loc 1 534 7 is_stmt 0 view .LVU1089
 3144 000c 8846     		mov	r8, r1
 3145 000e 11B9     		cbnz	r1, .L105
 534:lvgl/src/misc/lv_area.c ****         return;
 3146              		.loc 1 534 19 discriminator 1 view .LVU1090
 3147 0010 B2F5807F 		cmp	r2, #256
 3148 0014 79D0     		beq	.L104
 3149              	.L105:
 538:lvgl/src/misc/lv_area.c ****     p->y -= pivot->y;
 3150              		.loc 1 538 5 is_stmt 1 view .LVU1091
 538:lvgl/src/misc/lv_area.c ****     p->y -= pivot->y;
 3151              		.loc 1 538 6 is_stmt 0 view .LVU1092
 3152 0016 2288     		ldrh	r2, [r4]
 3153              	.LVL271:
 538:lvgl/src/misc/lv_area.c ****     p->y -= pivot->y;
 3154              		.loc 1 538 18 view .LVU1093
 3155 0018 3388     		ldrh	r3, [r6]
 3156              	.LVL272:
 538:lvgl/src/misc/lv_area.c ****     p->y -= pivot->y;
 3157              		.loc 1 538 10 view .LVU1094
 3158 001a D21A     		subs	r2, r2, r3
 3159 001c 12B2     		sxth	r2, r2
 3160 001e 2280     		strh	r2, [r4]	@ movhi
 539:lvgl/src/misc/lv_area.c **** 
 3161              		.loc 1 539 5 is_stmt 1 view .LVU1095
 539:lvgl/src/misc/lv_area.c **** 
 3162              		.loc 1 539 6 is_stmt 0 view .LVU1096
 3163 0020 6388     		ldrh	r3, [r4, #2]
 539:lvgl/src/misc/lv_area.c **** 
 3164              		.loc 1 539 18 view .LVU1097
 3165 0022 7188     		ldrh	r1, [r6, #2]
 3166              	.LVL273:
 539:lvgl/src/misc/lv_area.c **** 
 3167              		.loc 1 539 10 view .LVU1098
 3168 0024 5B1A     		subs	r3, r3, r1
 3169 0026 1BB2     		sxth	r3, r3
 3170 0028 6380     		strh	r3, [r4, #2]	@ movhi
 541:lvgl/src/misc/lv_area.c ****         p->x = (((int32_t)(p->x) * zoom) >> 8) + pivot->x;
 3171              		.loc 1 541 5 is_stmt 1 view .LVU1099
 541:lvgl/src/misc/lv_area.c ****         p->x = (((int32_t)(p->x) * zoom) >> 8) + pivot->x;
 3172              		.loc 1 541 7 is_stmt 0 view .LVU1100
 3173 002a B8F1000F 		cmp	r8, #0
 3174 002e 6FD0     		beq	.L114
 547:lvgl/src/misc/lv_area.c ****     static int32_t sinma;
 3175              		.loc 1 547 5 is_stmt 1 view .LVU1101
 548:lvgl/src/misc/lv_area.c ****     static int32_t cosma;
 3176              		.loc 1 548 5 view .LVU1102
 549:lvgl/src/misc/lv_area.c ****     if(angle_prev != angle) {
ARM GAS  /var/folders/21/t9g5rlb91ys800n5npymflf80000gn/T//ccj8QTAi.s 			page 85


 3177              		.loc 1 549 5 view .LVU1103
 550:lvgl/src/misc/lv_area.c ****         int32_t angle_limited = angle;
 3178              		.loc 1 550 5 view .LVU1104
 550:lvgl/src/misc/lv_area.c ****         int32_t angle_limited = angle;
 3179              		.loc 1 550 19 is_stmt 0 view .LVU1105
 3180 0030 4C4B     		ldr	r3, .L117
 3181 0032 1B68     		ldr	r3, [r3]
 550:lvgl/src/misc/lv_area.c ****         int32_t angle_limited = angle;
 3182              		.loc 1 550 7 view .LVU1106
 3183 0034 4345     		cmp	r3, r8
 3184 0036 48D0     		beq	.L108
 3185              	.LBB242:
 551:lvgl/src/misc/lv_area.c ****         if(angle_limited > 3600) angle_limited -= 3600;
 3186              		.loc 1 551 9 is_stmt 1 view .LVU1107
 3187              	.LVL274:
 552:lvgl/src/misc/lv_area.c ****         if(angle_limited < 0) angle_limited += 3600;
 3188              		.loc 1 552 9 view .LVU1108
 552:lvgl/src/misc/lv_area.c ****         if(angle_limited < 0) angle_limited += 3600;
 3189              		.loc 1 552 11 is_stmt 0 view .LVU1109
 3190 0038 B8F5616F 		cmp	r8, #3600
 3191 003c 75DD     		ble	.L109
 552:lvgl/src/misc/lv_area.c ****         if(angle_limited < 0) angle_limited += 3600;
 3192              		.loc 1 552 34 is_stmt 1 view .LVU1110
 552:lvgl/src/misc/lv_area.c ****         if(angle_limited < 0) angle_limited += 3600;
 3193              		.loc 1 552 48 is_stmt 0 view .LVU1111
 3194 003e A8F56165 		sub	r5, r8, #3600
 3195              	.LVL275:
 553:lvgl/src/misc/lv_area.c **** 
 3196              		.loc 1 553 9 is_stmt 1 view .LVU1112
 3197              	.L110:
 555:lvgl/src/misc/lv_area.c ****         int32_t angle_high = angle_low + 1;
 3198              		.loc 1 555 9 view .LVU1113
 555:lvgl/src/misc/lv_area.c ****         int32_t angle_high = angle_low + 1;
 3199              		.loc 1 555 17 is_stmt 0 view .LVU1114
 3200 0042 DFF82CA1 		ldr	r10, .L117+12
 3201 0046 8AFB0523 		smull	r2, r3, r10, r5
 3202 004a 4FEAE579 		asr	r9, r5, #31
 3203 004e C9EBA309 		rsb	r9, r9, r3, asr #2
 3204              	.LVL276:
 556:lvgl/src/misc/lv_area.c ****         int32_t angle_rem = angle_limited  - (angle_low * 10);
 3205              		.loc 1 556 9 is_stmt 1 view .LVU1115
 556:lvgl/src/misc/lv_area.c ****         int32_t angle_rem = angle_limited  - (angle_low * 10);
 3206              		.loc 1 556 17 is_stmt 0 view .LVU1116
 3207 0052 09F1010B 		add	fp, r9, #1
 3208              	.LVL277:
 557:lvgl/src/misc/lv_area.c **** 
 3209              		.loc 1 557 9 is_stmt 1 view .LVU1117
 557:lvgl/src/misc/lv_area.c **** 
 3210              		.loc 1 557 17 is_stmt 0 view .LVU1118
 3211 0056 6FF00903 		mvn	r3, #9
 3212 005a 03FB0955 		mla	r5, r3, r9, r5
 3213              	.LVL278:
 559:lvgl/src/misc/lv_area.c ****         int32_t s2 = lv_trigo_sin(angle_high);
 3214              		.loc 1 559 9 is_stmt 1 view .LVU1119
 559:lvgl/src/misc/lv_area.c ****         int32_t s2 = lv_trigo_sin(angle_high);
 3215              		.loc 1 559 22 is_stmt 0 view .LVU1120
 3216 005e 0FFA89F0 		sxth	r0, r9
ARM GAS  /var/folders/21/t9g5rlb91ys800n5npymflf80000gn/T//ccj8QTAi.s 			page 86


 3217              	.LVL279:
 559:lvgl/src/misc/lv_area.c ****         int32_t s2 = lv_trigo_sin(angle_high);
 3218              		.loc 1 559 22 view .LVU1121
 3219 0062 FFF7FEFF 		bl	lv_trigo_sin
 3220              	.LVL280:
 3221 0066 0090     		str	r0, [sp]
 3222              	.LVL281:
 560:lvgl/src/misc/lv_area.c **** 
 3223              		.loc 1 560 9 is_stmt 1 view .LVU1122
 560:lvgl/src/misc/lv_area.c **** 
 3224              		.loc 1 560 22 is_stmt 0 view .LVU1123
 3225 0068 0FFA8BF0 		sxth	r0, fp
 3226              	.LVL282:
 560:lvgl/src/misc/lv_area.c **** 
 3227              		.loc 1 560 22 view .LVU1124
 3228 006c FFF7FEFF 		bl	lv_trigo_sin
 3229              	.LVL283:
 3230 0070 0190     		str	r0, [sp, #4]
 3231              	.LVL284:
 562:lvgl/src/misc/lv_area.c ****         int32_t c2 = lv_trigo_sin(angle_high + 90);
 3232              		.loc 1 562 9 is_stmt 1 view .LVU1125
 562:lvgl/src/misc/lv_area.c ****         int32_t c2 = lv_trigo_sin(angle_high + 90);
 3233              		.loc 1 562 45 is_stmt 0 view .LVU1126
 3234 0072 09F15A00 		add	r0, r9, #90
 3235              	.LVL285:
 562:lvgl/src/misc/lv_area.c ****         int32_t c2 = lv_trigo_sin(angle_high + 90);
 3236              		.loc 1 562 22 view .LVU1127
 3237 0076 00B2     		sxth	r0, r0
 3238 0078 FFF7FEFF 		bl	lv_trigo_sin
 3239              	.LVL286:
 3240 007c 8146     		mov	r9, r0
 3241              	.LVL287:
 563:lvgl/src/misc/lv_area.c **** 
 3242              		.loc 1 563 9 is_stmt 1 view .LVU1128
 563:lvgl/src/misc/lv_area.c **** 
 3243              		.loc 1 563 46 is_stmt 0 view .LVU1129
 3244 007e 0BF15A00 		add	r0, fp, #90
 3245              	.LVL288:
 563:lvgl/src/misc/lv_area.c **** 
 3246              		.loc 1 563 22 view .LVU1130
 3247 0082 00B2     		sxth	r0, r0
 3248 0084 FFF7FEFF 		bl	lv_trigo_sin
 3249              	.LVL289:
 565:lvgl/src/misc/lv_area.c ****         cosma = (c1 * (10 - angle_rem) + c2 * angle_rem) / 10;
 3250              		.loc 1 565 9 is_stmt 1 view .LVU1131
 565:lvgl/src/misc/lv_area.c ****         cosma = (c1 * (10 - angle_rem) + c2 * angle_rem) / 10;
 3251              		.loc 1 565 27 is_stmt 0 view .LVU1132
 3252 0088 C5F10A01 		rsb	r1, r5, #10
 565:lvgl/src/misc/lv_area.c ****         cosma = (c1 * (10 - angle_rem) + c2 * angle_rem) / 10;
 3253              		.loc 1 565 45 view .LVU1133
 3254 008c 019B     		ldr	r3, [sp, #4]
 3255 008e 05FB03F3 		mul	r3, r5, r3
 565:lvgl/src/misc/lv_area.c ****         cosma = (c1 * (10 - angle_rem) + c2 * angle_rem) / 10;
 3256              		.loc 1 565 40 view .LVU1134
 3257 0092 009A     		ldr	r2, [sp]
 3258 0094 02FB0133 		mla	r3, r2, r1, r3
 565:lvgl/src/misc/lv_area.c ****         cosma = (c1 * (10 - angle_rem) + c2 * angle_rem) / 10;
ARM GAS  /var/folders/21/t9g5rlb91ys800n5npymflf80000gn/T//ccj8QTAi.s 			page 87


 3259              		.loc 1 565 58 view .LVU1135
 3260 0098 8AFB03C2 		smull	ip, r2, r10, r3
 3261 009c DB17     		asrs	r3, r3, #31
 3262 009e C3EBA203 		rsb	r3, r3, r2, asr #2
 565:lvgl/src/misc/lv_area.c ****         cosma = (c1 * (10 - angle_rem) + c2 * angle_rem) / 10;
 3263              		.loc 1 565 15 view .LVU1136
 3264 00a2 314A     		ldr	r2, .L117+4
 3265 00a4 1360     		str	r3, [r2]
 566:lvgl/src/misc/lv_area.c ****         sinma = sinma >> (LV_TRIGO_SHIFT - _LV_TRANSFORM_TRIGO_SHIFT);
 3266              		.loc 1 566 9 is_stmt 1 view .LVU1137
 566:lvgl/src/misc/lv_area.c ****         sinma = sinma >> (LV_TRIGO_SHIFT - _LV_TRANSFORM_TRIGO_SHIFT);
 3267              		.loc 1 566 45 is_stmt 0 view .LVU1138
 3268 00a6 00FB05F5 		mul	r5, r0, r5
 3269              	.LVL290:
 566:lvgl/src/misc/lv_area.c ****         sinma = sinma >> (LV_TRIGO_SHIFT - _LV_TRANSFORM_TRIGO_SHIFT);
 3270              		.loc 1 566 40 view .LVU1139
 3271 00aa 09FB0155 		mla	r5, r9, r1, r5
 566:lvgl/src/misc/lv_area.c ****         sinma = sinma >> (LV_TRIGO_SHIFT - _LV_TRANSFORM_TRIGO_SHIFT);
 3272              		.loc 1 566 58 view .LVU1140
 3273 00ae 8AFB051A 		smull	r1, r10, r10, r5
 3274 00b2 ED17     		asrs	r5, r5, #31
 3275 00b4 C5EBAA05 		rsb	r5, r5, r10, asr #2
 566:lvgl/src/misc/lv_area.c ****         sinma = sinma >> (LV_TRIGO_SHIFT - _LV_TRANSFORM_TRIGO_SHIFT);
 3276              		.loc 1 566 15 view .LVU1141
 3277 00b8 2C49     		ldr	r1, .L117+8
 3278 00ba 0D60     		str	r5, [r1]
 567:lvgl/src/misc/lv_area.c ****         cosma = cosma >> (LV_TRIGO_SHIFT - _LV_TRANSFORM_TRIGO_SHIFT);
 3279              		.loc 1 567 9 is_stmt 1 view .LVU1142
 567:lvgl/src/misc/lv_area.c ****         cosma = cosma >> (LV_TRIGO_SHIFT - _LV_TRANSFORM_TRIGO_SHIFT);
 3280              		.loc 1 567 23 is_stmt 0 view .LVU1143
 3281 00bc 5B11     		asrs	r3, r3, #5
 567:lvgl/src/misc/lv_area.c ****         cosma = cosma >> (LV_TRIGO_SHIFT - _LV_TRANSFORM_TRIGO_SHIFT);
 3282              		.loc 1 567 15 view .LVU1144
 3283 00be 1360     		str	r3, [r2]
 568:lvgl/src/misc/lv_area.c ****         angle_prev = angle;
 3284              		.loc 1 568 9 is_stmt 1 view .LVU1145
 568:lvgl/src/misc/lv_area.c ****         angle_prev = angle;
 3285              		.loc 1 568 23 is_stmt 0 view .LVU1146
 3286 00c0 6D11     		asrs	r5, r5, #5
 568:lvgl/src/misc/lv_area.c ****         angle_prev = angle;
 3287              		.loc 1 568 15 view .LVU1147
 3288 00c2 0D60     		str	r5, [r1]
 569:lvgl/src/misc/lv_area.c ****     }
 3289              		.loc 1 569 9 is_stmt 1 view .LVU1148
 569:lvgl/src/misc/lv_area.c ****     }
 3290              		.loc 1 569 20 is_stmt 0 view .LVU1149
 3291 00c4 274B     		ldr	r3, .L117
 3292 00c6 C3F80080 		str	r8, [r3]
 3293              	.LVL291:
 3294              	.L108:
 569:lvgl/src/misc/lv_area.c ****     }
 3295              		.loc 1 569 20 view .LVU1150
 3296              	.LBE242:
 571:lvgl/src/misc/lv_area.c ****     int32_t y = p->y;
 3297              		.loc 1 571 5 is_stmt 1 view .LVU1151
 571:lvgl/src/misc/lv_area.c ****     int32_t y = p->y;
 3298              		.loc 1 571 18 is_stmt 0 view .LVU1152
ARM GAS  /var/folders/21/t9g5rlb91ys800n5npymflf80000gn/T//ccj8QTAi.s 			page 88


 3299 00ca B4F90010 		ldrsh	r1, [r4]
 3300              	.LVL292:
 572:lvgl/src/misc/lv_area.c ****     if(zoom == 256) {
 3301              		.loc 1 572 5 is_stmt 1 view .LVU1153
 572:lvgl/src/misc/lv_area.c ****     if(zoom == 256) {
 3302              		.loc 1 572 18 is_stmt 0 view .LVU1154
 3303 00ce B4F90200 		ldrsh	r0, [r4, #2]
 3304              	.LVL293:
 573:lvgl/src/misc/lv_area.c ****         p->x = ((cosma * x - sinma * y) >> _LV_TRANSFORM_TRIGO_SHIFT) + pivot->x;
 3305              		.loc 1 573 5 is_stmt 1 view .LVU1155
 573:lvgl/src/misc/lv_area.c ****         p->x = ((cosma * x - sinma * y) >> _LV_TRANSFORM_TRIGO_SHIFT) + pivot->x;
 3306              		.loc 1 573 7 is_stmt 0 view .LVU1156
 3307 00d2 B7F5807F 		cmp	r7, #256
 3308 00d6 30D0     		beq	.L115
 578:lvgl/src/misc/lv_area.c ****         p->y = (((sinma * x + cosma * y) * zoom) >> (_LV_TRANSFORM_TRIGO_SHIFT + 8)) + pivot->y;
 3309              		.loc 1 578 9 is_stmt 1 view .LVU1157
 578:lvgl/src/misc/lv_area.c ****         p->y = (((sinma * x + cosma * y) * zoom) >> (_LV_TRANSFORM_TRIGO_SHIFT + 8)) + pivot->y;
 3310              		.loc 1 578 25 is_stmt 0 view .LVU1158
 3311 00d8 244B     		ldr	r3, .L117+8
 3312 00da 1B68     		ldr	r3, [r3]
 3313 00dc 01FB03F2 		mul	r2, r1, r3
 578:lvgl/src/misc/lv_area.c ****         p->y = (((sinma * x + cosma * y) * zoom) >> (_LV_TRANSFORM_TRIGO_SHIFT + 8)) + pivot->y;
 3314              		.loc 1 578 37 view .LVU1159
 3315 00e0 214D     		ldr	r5, .L117+4
 3316 00e2 D5F800C0 		ldr	ip, [r5]
 578:lvgl/src/misc/lv_area.c ****         p->y = (((sinma * x + cosma * y) * zoom) >> (_LV_TRANSFORM_TRIGO_SHIFT + 8)) + pivot->y;
 3317              		.loc 1 578 29 view .LVU1160
 3318 00e6 00FB1C22 		mls	r2, r0, ip, r2
 578:lvgl/src/misc/lv_area.c ****         p->y = (((sinma * x + cosma * y) * zoom) >> (_LV_TRANSFORM_TRIGO_SHIFT + 8)) + pivot->y;
 3319              		.loc 1 578 42 view .LVU1161
 3320 00ea 07FB02F2 		mul	r2, r7, r2
 578:lvgl/src/misc/lv_area.c ****         p->y = (((sinma * x + cosma * y) * zoom) >> (_LV_TRANSFORM_TRIGO_SHIFT + 8)) + pivot->y;
 3321              		.loc 1 578 93 view .LVU1162
 3322 00ee 3588     		ldrh	r5, [r6]
 578:lvgl/src/misc/lv_area.c ****         p->y = (((sinma * x + cosma * y) * zoom) >> (_LV_TRANSFORM_TRIGO_SHIFT + 8)) + pivot->y;
 3323              		.loc 1 578 86 view .LVU1163
 3324 00f0 05EBA242 		add	r2, r5, r2, asr #18
 578:lvgl/src/misc/lv_area.c ****         p->y = (((sinma * x + cosma * y) * zoom) >> (_LV_TRANSFORM_TRIGO_SHIFT + 8)) + pivot->y;
 3325              		.loc 1 578 14 view .LVU1164
 3326 00f4 2280     		strh	r2, [r4]	@ movhi
 579:lvgl/src/misc/lv_area.c ****     }
 3327              		.loc 1 579 9 is_stmt 1 view .LVU1165
 579:lvgl/src/misc/lv_area.c ****     }
 3328              		.loc 1 579 37 is_stmt 0 view .LVU1166
 3329 00f6 00FB03F3 		mul	r3, r0, r3
 579:lvgl/src/misc/lv_area.c ****     }
 3330              		.loc 1 579 29 view .LVU1167
 3331 00fa 01FB0C33 		mla	r3, r1, ip, r3
 579:lvgl/src/misc/lv_area.c ****     }
 3332              		.loc 1 579 42 view .LVU1168
 3333 00fe 07FB03F3 		mul	r3, r7, r3
 579:lvgl/src/misc/lv_area.c ****     }
 3334              		.loc 1 579 93 view .LVU1169
 3335 0102 7288     		ldrh	r2, [r6, #2]
 579:lvgl/src/misc/lv_area.c ****     }
 3336              		.loc 1 579 86 view .LVU1170
 3337 0104 02EBA343 		add	r3, r2, r3, asr #18
ARM GAS  /var/folders/21/t9g5rlb91ys800n5npymflf80000gn/T//ccj8QTAi.s 			page 89


 579:lvgl/src/misc/lv_area.c ****     }
 3338              		.loc 1 579 14 view .LVU1171
 3339 0108 6380     		strh	r3, [r4, #2]	@ movhi
 3340              	.LVL294:
 3341              	.L104:
 581:lvgl/src/misc/lv_area.c **** 
 3342              		.loc 1 581 1 view .LVU1172
 3343 010a 03B0     		add	sp, sp, #12
 3344              	.LCFI22:
 3345              		.cfi_remember_state
 3346              		.cfi_def_cfa_offset 36
 3347              		@ sp needed
 3348 010c BDE8F08F 		pop	{r4, r5, r6, r7, r8, r9, r10, fp, pc}
 3349              	.LVL295:
 3350              	.L114:
 3351              	.LCFI23:
 3352              		.cfi_restore_state
 542:lvgl/src/misc/lv_area.c ****         p->y = (((int32_t)(p->y) * zoom) >> 8) + pivot->y;
 3353              		.loc 1 542 9 is_stmt 1 view .LVU1173
 542:lvgl/src/misc/lv_area.c ****         p->y = (((int32_t)(p->y) * zoom) >> 8) + pivot->y;
 3354              		.loc 1 542 34 is_stmt 0 view .LVU1174
 3355 0110 07FB02F2 		mul	r2, r7, r2
 542:lvgl/src/misc/lv_area.c ****         p->y = (((int32_t)(p->y) * zoom) >> 8) + pivot->y;
 3356              		.loc 1 542 55 view .LVU1175
 3357 0114 3188     		ldrh	r1, [r6]
 542:lvgl/src/misc/lv_area.c ****         p->y = (((int32_t)(p->y) * zoom) >> 8) + pivot->y;
 3358              		.loc 1 542 48 view .LVU1176
 3359 0116 01EB2222 		add	r2, r1, r2, asr #8
 542:lvgl/src/misc/lv_area.c ****         p->y = (((int32_t)(p->y) * zoom) >> 8) + pivot->y;
 3360              		.loc 1 542 14 view .LVU1177
 3361 011a 2280     		strh	r2, [r4]	@ movhi
 543:lvgl/src/misc/lv_area.c ****         return;
 3362              		.loc 1 543 9 is_stmt 1 view .LVU1178
 543:lvgl/src/misc/lv_area.c ****         return;
 3363              		.loc 1 543 34 is_stmt 0 view .LVU1179
 3364 011c 07FB03F3 		mul	r3, r7, r3
 543:lvgl/src/misc/lv_area.c ****         return;
 3365              		.loc 1 543 55 view .LVU1180
 3366 0120 7288     		ldrh	r2, [r6, #2]
 543:lvgl/src/misc/lv_area.c ****         return;
 3367              		.loc 1 543 48 view .LVU1181
 3368 0122 02EB2323 		add	r3, r2, r3, asr #8
 543:lvgl/src/misc/lv_area.c ****         return;
 3369              		.loc 1 543 14 view .LVU1182
 3370 0126 6380     		strh	r3, [r4, #2]	@ movhi
 544:lvgl/src/misc/lv_area.c ****     }
 3371              		.loc 1 544 9 is_stmt 1 view .LVU1183
 3372 0128 EFE7     		b	.L104
 3373              	.LVL296:
 3374              	.L109:
 3375              	.LBB243:
 553:lvgl/src/misc/lv_area.c **** 
 3376              		.loc 1 553 9 view .LVU1184
 553:lvgl/src/misc/lv_area.c **** 
 3377              		.loc 1 553 11 is_stmt 0 view .LVU1185
 3378 012a B8F1000F 		cmp	r8, #0
 3379 012e 01DB     		blt	.L116
ARM GAS  /var/folders/21/t9g5rlb91ys800n5npymflf80000gn/T//ccj8QTAi.s 			page 90


 551:lvgl/src/misc/lv_area.c ****         if(angle_limited > 3600) angle_limited -= 3600;
 3380              		.loc 1 551 17 view .LVU1186
 3381 0130 4546     		mov	r5, r8
 3382 0132 86E7     		b	.L110
 3383              	.L116:
 553:lvgl/src/misc/lv_area.c **** 
 3384              		.loc 1 553 31 is_stmt 1 discriminator 1 view .LVU1187
 553:lvgl/src/misc/lv_area.c **** 
 3385              		.loc 1 553 45 is_stmt 0 discriminator 1 view .LVU1188
 3386 0134 08F56165 		add	r5, r8, #3600
 3387              	.LVL297:
 553:lvgl/src/misc/lv_area.c **** 
 3388              		.loc 1 553 45 discriminator 1 view .LVU1189
 3389 0138 83E7     		b	.L110
 3390              	.LVL298:
 3391              	.L115:
 553:lvgl/src/misc/lv_area.c **** 
 3392              		.loc 1 553 45 discriminator 1 view .LVU1190
 3393              	.LBE243:
 574:lvgl/src/misc/lv_area.c ****         p->y = ((sinma * x + cosma * y) >> _LV_TRANSFORM_TRIGO_SHIFT) + pivot->y;
 3394              		.loc 1 574 9 is_stmt 1 view .LVU1191
 574:lvgl/src/misc/lv_area.c ****         p->y = ((sinma * x + cosma * y) >> _LV_TRANSFORM_TRIGO_SHIFT) + pivot->y;
 3395              		.loc 1 574 24 is_stmt 0 view .LVU1192
 3396 013a 0C4B     		ldr	r3, .L117+8
 3397 013c 1B68     		ldr	r3, [r3]
 3398 013e 01FB03F5 		mul	r5, r1, r3
 574:lvgl/src/misc/lv_area.c ****         p->y = ((sinma * x + cosma * y) >> _LV_TRANSFORM_TRIGO_SHIFT) + pivot->y;
 3399              		.loc 1 574 36 view .LVU1193
 3400 0142 094A     		ldr	r2, .L117+4
 3401 0144 1768     		ldr	r7, [r2]
 3402              	.LVL299:
 574:lvgl/src/misc/lv_area.c ****         p->y = ((sinma * x + cosma * y) >> _LV_TRANSFORM_TRIGO_SHIFT) + pivot->y;
 3403              		.loc 1 574 28 view .LVU1194
 3404 0146 00FB1755 		mls	r5, r0, r7, r5
 574:lvgl/src/misc/lv_area.c ****         p->y = ((sinma * x + cosma * y) >> _LV_TRANSFORM_TRIGO_SHIFT) + pivot->y;
 3405              		.loc 1 574 78 view .LVU1195
 3406 014a 3288     		ldrh	r2, [r6]
 574:lvgl/src/misc/lv_area.c ****         p->y = ((sinma * x + cosma * y) >> _LV_TRANSFORM_TRIGO_SHIFT) + pivot->y;
 3407              		.loc 1 574 71 view .LVU1196
 3408 014c 02EBA522 		add	r2, r2, r5, asr #10
 574:lvgl/src/misc/lv_area.c ****         p->y = ((sinma * x + cosma * y) >> _LV_TRANSFORM_TRIGO_SHIFT) + pivot->y;
 3409              		.loc 1 574 14 view .LVU1197
 3410 0150 2280     		strh	r2, [r4]	@ movhi
 575:lvgl/src/misc/lv_area.c ****     }
 3411              		.loc 1 575 9 is_stmt 1 view .LVU1198
 575:lvgl/src/misc/lv_area.c ****     }
 3412              		.loc 1 575 36 is_stmt 0 view .LVU1199
 3413 0152 00FB03F3 		mul	r3, r0, r3
 575:lvgl/src/misc/lv_area.c ****     }
 3414              		.loc 1 575 28 view .LVU1200
 3415 0156 01FB0733 		mla	r3, r1, r7, r3
 575:lvgl/src/misc/lv_area.c ****     }
 3416              		.loc 1 575 78 view .LVU1201
 3417 015a 7288     		ldrh	r2, [r6, #2]
 575:lvgl/src/misc/lv_area.c ****     }
 3418              		.loc 1 575 71 view .LVU1202
 3419 015c 02EBA323 		add	r3, r2, r3, asr #10
ARM GAS  /var/folders/21/t9g5rlb91ys800n5npymflf80000gn/T//ccj8QTAi.s 			page 91


 575:lvgl/src/misc/lv_area.c ****     }
 3420              		.loc 1 575 14 view .LVU1203
 3421 0160 6380     		strh	r3, [r4, #2]	@ movhi
 3422 0162 D2E7     		b	.L104
 3423              	.L118:
 3424              		.align	2
 3425              	.L117:
 3426 0164 00000000 		.word	angle_prev.2
 3427 0168 00000000 		.word	sinma.1
 3428 016c 00000000 		.word	cosma.0
 3429 0170 67666666 		.word	1717986919
 3430              		.cfi_endproc
 3431              	.LFE21:
 3433              		.section	.bss.cosma.0,"aw",%nobits
 3434              		.align	2
 3437              	cosma.0:
 3438 0000 00000000 		.space	4
 3439              		.section	.bss.sinma.1,"aw",%nobits
 3440              		.align	2
 3443              	sinma.1:
 3444 0000 00000000 		.space	4
 3445              		.section	.data.angle_prev.2,"aw"
 3446              		.align	2
 3449              	angle_prev.2:
 3450 0000 00000080 		.word	-2147483648
 3451              		.text
 3452              	.Letext0:
 3453              		.file 3 "/usr/local/include/sys/_types/_int8_t.h"
 3454              		.file 4 "/usr/local/include/sys/_types/_int16_t.h"
 3455              		.file 5 "/usr/local/include/sys/_types/_int32_t.h"
 3456              		.file 6 "/usr/local/include/_types/_uint8_t.h"
 3457              		.file 7 "/usr/local/include/_types/_uint32_t.h"
 3458              		.file 8 "lvgl/src/misc/lv_math.h"
ARM GAS  /var/folders/21/t9g5rlb91ys800n5npymflf80000gn/T//ccj8QTAi.s 			page 92

