ARM GAS  /var/folders/21/t9g5rlb91ys800n5npymflf80000gn/T//ccRyq8Ko.s 			page 1


   1              		.cpu cortex-m4
   2              		.arch armv7e-m
   3              		.fpu fpv4-sp-d16
   4              		.eabi_attribute 27, 1
   5              		.eabi_attribute 28, 1
   6              		.eabi_attribute 20, 1
   7              		.eabi_attribute 21, 1
   8              		.eabi_attribute 23, 3
   9              		.eabi_attribute 24, 1
  10              		.eabi_attribute 25, 1
  11              		.eabi_attribute 26, 1
  12              		.eabi_attribute 30, 1
  13              		.eabi_attribute 34, 1
  14              		.eabi_attribute 18, 4
  15              		.file	"lv_anim.c"
  16              		.text
  17              	.Ltext0:
  18              		.cfi_sections	.debug_frame
  19              		.file 1 "lvgl/src/misc/lv_anim.c"
  20              		.section	.text.anim_mark_list_change,"ax",%progbits
  21              		.align	1
  22              		.syntax unified
  23              		.thumb
  24              		.thumb_func
  26              	anim_mark_list_change:
  27              	.LFB65:
   1:lvgl/src/misc/lv_anim.c **** /**
   2:lvgl/src/misc/lv_anim.c ****  * @file lv_anim.c
   3:lvgl/src/misc/lv_anim.c ****  *
   4:lvgl/src/misc/lv_anim.c ****  */
   5:lvgl/src/misc/lv_anim.c **** 
   6:lvgl/src/misc/lv_anim.c **** /*********************
   7:lvgl/src/misc/lv_anim.c ****  *      INCLUDES
   8:lvgl/src/misc/lv_anim.c ****  *********************/
   9:lvgl/src/misc/lv_anim.c **** #include "lv_anim.h"
  10:lvgl/src/misc/lv_anim.c **** 
  11:lvgl/src/misc/lv_anim.c **** #include "../hal/lv_hal_tick.h"
  12:lvgl/src/misc/lv_anim.c **** #include "lv_assert.h"
  13:lvgl/src/misc/lv_anim.c **** #include "lv_timer.h"
  14:lvgl/src/misc/lv_anim.c **** #include "lv_math.h"
  15:lvgl/src/misc/lv_anim.c **** #include "lv_mem.h"
  16:lvgl/src/misc/lv_anim.c **** #include "lv_gc.h"
  17:lvgl/src/misc/lv_anim.c **** 
  18:lvgl/src/misc/lv_anim.c **** /*********************
  19:lvgl/src/misc/lv_anim.c ****  *      DEFINES
  20:lvgl/src/misc/lv_anim.c ****  *********************/
  21:lvgl/src/misc/lv_anim.c **** #define LV_ANIM_RESOLUTION 1024
  22:lvgl/src/misc/lv_anim.c **** #define LV_ANIM_RES_SHIFT 10
  23:lvgl/src/misc/lv_anim.c **** 
  24:lvgl/src/misc/lv_anim.c **** /**********************
  25:lvgl/src/misc/lv_anim.c ****  *      TYPEDEFS
  26:lvgl/src/misc/lv_anim.c ****  **********************/
  27:lvgl/src/misc/lv_anim.c **** 
  28:lvgl/src/misc/lv_anim.c **** /**********************
  29:lvgl/src/misc/lv_anim.c ****  *  STATIC PROTOTYPES
  30:lvgl/src/misc/lv_anim.c ****  **********************/
  31:lvgl/src/misc/lv_anim.c **** static void anim_timer(lv_timer_t * param);
ARM GAS  /var/folders/21/t9g5rlb91ys800n5npymflf80000gn/T//ccRyq8Ko.s 			page 2


  32:lvgl/src/misc/lv_anim.c **** static void anim_mark_list_change(void);
  33:lvgl/src/misc/lv_anim.c **** static void anim_ready_handler(lv_anim_t * a);
  34:lvgl/src/misc/lv_anim.c **** 
  35:lvgl/src/misc/lv_anim.c **** /**********************
  36:lvgl/src/misc/lv_anim.c ****  *  STATIC VARIABLES
  37:lvgl/src/misc/lv_anim.c ****  **********************/
  38:lvgl/src/misc/lv_anim.c **** static uint32_t last_timer_run;
  39:lvgl/src/misc/lv_anim.c **** static bool anim_list_changed;
  40:lvgl/src/misc/lv_anim.c **** static bool anim_run_round;
  41:lvgl/src/misc/lv_anim.c **** static lv_timer_t * _lv_anim_tmr;
  42:lvgl/src/misc/lv_anim.c **** 
  43:lvgl/src/misc/lv_anim.c **** /**********************
  44:lvgl/src/misc/lv_anim.c ****  *      MACROS
  45:lvgl/src/misc/lv_anim.c ****  **********************/
  46:lvgl/src/misc/lv_anim.c **** #if LV_LOG_TRACE_ANIM
  47:lvgl/src/misc/lv_anim.c ****     #define TRACE_ANIM(...) LV_LOG_TRACE(__VA_ARGS__)
  48:lvgl/src/misc/lv_anim.c **** #else
  49:lvgl/src/misc/lv_anim.c ****     #define TRACE_ANIM(...)
  50:lvgl/src/misc/lv_anim.c **** #endif
  51:lvgl/src/misc/lv_anim.c **** 
  52:lvgl/src/misc/lv_anim.c **** /**********************
  53:lvgl/src/misc/lv_anim.c ****  *   GLOBAL FUNCTIONS
  54:lvgl/src/misc/lv_anim.c ****  **********************/
  55:lvgl/src/misc/lv_anim.c **** 
  56:lvgl/src/misc/lv_anim.c **** void _lv_anim_core_init(void)
  57:lvgl/src/misc/lv_anim.c **** {
  58:lvgl/src/misc/lv_anim.c ****     _lv_ll_init(&LV_GC_ROOT(_lv_anim_ll), sizeof(lv_anim_t));
  59:lvgl/src/misc/lv_anim.c ****     _lv_anim_tmr = lv_timer_create(anim_timer, LV_DISP_DEF_REFR_PERIOD, NULL);
  60:lvgl/src/misc/lv_anim.c ****     anim_mark_list_change(); /*Turn off the animation timer*/
  61:lvgl/src/misc/lv_anim.c ****     anim_list_changed = false;
  62:lvgl/src/misc/lv_anim.c **** }
  63:lvgl/src/misc/lv_anim.c **** 
  64:lvgl/src/misc/lv_anim.c **** void lv_anim_init(lv_anim_t * a)
  65:lvgl/src/misc/lv_anim.c **** {
  66:lvgl/src/misc/lv_anim.c ****     lv_memset_00(a, sizeof(lv_anim_t));
  67:lvgl/src/misc/lv_anim.c ****     a->time = 500;
  68:lvgl/src/misc/lv_anim.c ****     a->start_value = 0;
  69:lvgl/src/misc/lv_anim.c ****     a->end_value = 100;
  70:lvgl/src/misc/lv_anim.c ****     a->repeat_cnt = 1;
  71:lvgl/src/misc/lv_anim.c ****     a->path_cb = lv_anim_path_linear;
  72:lvgl/src/misc/lv_anim.c ****     a->early_apply = 1;
  73:lvgl/src/misc/lv_anim.c **** }
  74:lvgl/src/misc/lv_anim.c **** 
  75:lvgl/src/misc/lv_anim.c **** lv_anim_t * lv_anim_start(const lv_anim_t * a)
  76:lvgl/src/misc/lv_anim.c **** {
  77:lvgl/src/misc/lv_anim.c ****     TRACE_ANIM("begin");
  78:lvgl/src/misc/lv_anim.c **** 
  79:lvgl/src/misc/lv_anim.c ****     /*Do not let two animations for the same 'var' with the same 'exec_cb'*/
  80:lvgl/src/misc/lv_anim.c ****     if(a->exec_cb != NULL) lv_anim_del(a->var, a->exec_cb); /*exec_cb == NULL would delete all anim
  81:lvgl/src/misc/lv_anim.c **** 
  82:lvgl/src/misc/lv_anim.c ****     /*If the list is empty the anim timer was suspended and it's last run measure is invalid*/
  83:lvgl/src/misc/lv_anim.c ****     if(_lv_ll_is_empty(&LV_GC_ROOT(_lv_anim_ll))) {
  84:lvgl/src/misc/lv_anim.c ****         last_timer_run = lv_tick_get();
  85:lvgl/src/misc/lv_anim.c ****     }
  86:lvgl/src/misc/lv_anim.c **** 
  87:lvgl/src/misc/lv_anim.c ****     /*Add the new animation to the animation linked list*/
  88:lvgl/src/misc/lv_anim.c ****     lv_anim_t * new_anim = _lv_ll_ins_head(&LV_GC_ROOT(_lv_anim_ll));
ARM GAS  /var/folders/21/t9g5rlb91ys800n5npymflf80000gn/T//ccRyq8Ko.s 			page 3


  89:lvgl/src/misc/lv_anim.c ****     LV_ASSERT_MALLOC(new_anim);
  90:lvgl/src/misc/lv_anim.c ****     if(new_anim == NULL) return NULL;
  91:lvgl/src/misc/lv_anim.c **** 
  92:lvgl/src/misc/lv_anim.c ****     /*Initialize the animation descriptor*/
  93:lvgl/src/misc/lv_anim.c ****     lv_memcpy(new_anim, a, sizeof(lv_anim_t));
  94:lvgl/src/misc/lv_anim.c ****     if(a->var == a) new_anim->var = new_anim;
  95:lvgl/src/misc/lv_anim.c ****     new_anim->run_round = anim_run_round;
  96:lvgl/src/misc/lv_anim.c **** 
  97:lvgl/src/misc/lv_anim.c ****     /*Set the start value*/
  98:lvgl/src/misc/lv_anim.c ****     if(new_anim->early_apply) {
  99:lvgl/src/misc/lv_anim.c ****         if(new_anim->get_value_cb) {
 100:lvgl/src/misc/lv_anim.c ****             int32_t v_ofs = new_anim->get_value_cb(new_anim);
 101:lvgl/src/misc/lv_anim.c ****             new_anim->start_value += v_ofs;
 102:lvgl/src/misc/lv_anim.c ****             new_anim->end_value += v_ofs;
 103:lvgl/src/misc/lv_anim.c ****         }
 104:lvgl/src/misc/lv_anim.c **** 
 105:lvgl/src/misc/lv_anim.c ****         if(new_anim->exec_cb && new_anim->var) new_anim->exec_cb(new_anim->var, new_anim->start_val
 106:lvgl/src/misc/lv_anim.c ****     }
 107:lvgl/src/misc/lv_anim.c **** 
 108:lvgl/src/misc/lv_anim.c ****     /*Creating an animation changed the linked list.
 109:lvgl/src/misc/lv_anim.c ****      *It's important if it happens in a ready callback. (see `anim_timer`)*/
 110:lvgl/src/misc/lv_anim.c ****     anim_mark_list_change();
 111:lvgl/src/misc/lv_anim.c **** 
 112:lvgl/src/misc/lv_anim.c ****     TRACE_ANIM("finished");
 113:lvgl/src/misc/lv_anim.c ****     return new_anim;
 114:lvgl/src/misc/lv_anim.c **** }
 115:lvgl/src/misc/lv_anim.c **** 
 116:lvgl/src/misc/lv_anim.c **** uint32_t lv_anim_get_playtime(lv_anim_t * a)
 117:lvgl/src/misc/lv_anim.c **** {
 118:lvgl/src/misc/lv_anim.c ****     uint32_t playtime = LV_ANIM_PLAYTIME_INFINITE;
 119:lvgl/src/misc/lv_anim.c **** 
 120:lvgl/src/misc/lv_anim.c ****     if(a->repeat_cnt == LV_ANIM_REPEAT_INFINITE)
 121:lvgl/src/misc/lv_anim.c ****         return playtime;
 122:lvgl/src/misc/lv_anim.c **** 
 123:lvgl/src/misc/lv_anim.c ****     playtime = a->time - a->act_time;
 124:lvgl/src/misc/lv_anim.c ****     if(a->playback_now == 0)
 125:lvgl/src/misc/lv_anim.c ****         playtime += a->playback_delay + a->playback_time;
 126:lvgl/src/misc/lv_anim.c **** 
 127:lvgl/src/misc/lv_anim.c ****     if(a->repeat_cnt <= 1)
 128:lvgl/src/misc/lv_anim.c ****         return playtime;
 129:lvgl/src/misc/lv_anim.c **** 
 130:lvgl/src/misc/lv_anim.c ****     playtime += (a->repeat_delay + a->time +
 131:lvgl/src/misc/lv_anim.c ****                  a->playback_delay + a->playback_time) *
 132:lvgl/src/misc/lv_anim.c ****                 (a->repeat_cnt - 1);
 133:lvgl/src/misc/lv_anim.c **** 
 134:lvgl/src/misc/lv_anim.c ****     return playtime;
 135:lvgl/src/misc/lv_anim.c **** }
 136:lvgl/src/misc/lv_anim.c **** 
 137:lvgl/src/misc/lv_anim.c **** bool lv_anim_del(void * var, lv_anim_exec_xcb_t exec_cb)
 138:lvgl/src/misc/lv_anim.c **** {
 139:lvgl/src/misc/lv_anim.c ****     lv_anim_t * a;
 140:lvgl/src/misc/lv_anim.c ****     lv_anim_t * a_next;
 141:lvgl/src/misc/lv_anim.c ****     bool del = false;
 142:lvgl/src/misc/lv_anim.c ****     a        = _lv_ll_get_head(&LV_GC_ROOT(_lv_anim_ll));
 143:lvgl/src/misc/lv_anim.c ****     while(a != NULL) {
 144:lvgl/src/misc/lv_anim.c ****         /*'a' might be deleted, so get the next object while 'a' is valid*/
 145:lvgl/src/misc/lv_anim.c ****         a_next = _lv_ll_get_next(&LV_GC_ROOT(_lv_anim_ll), a);
ARM GAS  /var/folders/21/t9g5rlb91ys800n5npymflf80000gn/T//ccRyq8Ko.s 			page 4


 146:lvgl/src/misc/lv_anim.c **** 
 147:lvgl/src/misc/lv_anim.c ****         if((a->var == var || var == NULL) && (a->exec_cb == exec_cb || exec_cb == NULL)) {
 148:lvgl/src/misc/lv_anim.c ****             _lv_ll_remove(&LV_GC_ROOT(_lv_anim_ll), a);
 149:lvgl/src/misc/lv_anim.c ****             if(a->deleted_cb != NULL) a->deleted_cb(a);
 150:lvgl/src/misc/lv_anim.c ****             lv_mem_free(a);
 151:lvgl/src/misc/lv_anim.c ****             anim_mark_list_change(); /*Read by `anim_timer`. It need to know if a delete occurred i
 152:lvgl/src/misc/lv_anim.c ****                                        the linked list*/
 153:lvgl/src/misc/lv_anim.c ****             del = true;
 154:lvgl/src/misc/lv_anim.c ****         }
 155:lvgl/src/misc/lv_anim.c **** 
 156:lvgl/src/misc/lv_anim.c ****         a = a_next;
 157:lvgl/src/misc/lv_anim.c ****     }
 158:lvgl/src/misc/lv_anim.c **** 
 159:lvgl/src/misc/lv_anim.c ****     return del;
 160:lvgl/src/misc/lv_anim.c **** }
 161:lvgl/src/misc/lv_anim.c **** 
 162:lvgl/src/misc/lv_anim.c **** void lv_anim_del_all(void)
 163:lvgl/src/misc/lv_anim.c **** {
 164:lvgl/src/misc/lv_anim.c ****     _lv_ll_clear(&LV_GC_ROOT(_lv_anim_ll));
 165:lvgl/src/misc/lv_anim.c ****     anim_mark_list_change();
 166:lvgl/src/misc/lv_anim.c **** }
 167:lvgl/src/misc/lv_anim.c **** 
 168:lvgl/src/misc/lv_anim.c **** lv_anim_t * lv_anim_get(void * var, lv_anim_exec_xcb_t exec_cb)
 169:lvgl/src/misc/lv_anim.c **** {
 170:lvgl/src/misc/lv_anim.c ****     lv_anim_t * a;
 171:lvgl/src/misc/lv_anim.c ****     _LV_LL_READ(&LV_GC_ROOT(_lv_anim_ll), a) {
 172:lvgl/src/misc/lv_anim.c ****         if(a->var == var && (a->exec_cb == exec_cb || exec_cb == NULL)) {
 173:lvgl/src/misc/lv_anim.c ****             return a;
 174:lvgl/src/misc/lv_anim.c ****         }
 175:lvgl/src/misc/lv_anim.c ****     }
 176:lvgl/src/misc/lv_anim.c **** 
 177:lvgl/src/misc/lv_anim.c ****     return NULL;
 178:lvgl/src/misc/lv_anim.c **** }
 179:lvgl/src/misc/lv_anim.c **** 
 180:lvgl/src/misc/lv_anim.c **** struct _lv_timer_t * lv_anim_get_timer(void)
 181:lvgl/src/misc/lv_anim.c **** {
 182:lvgl/src/misc/lv_anim.c ****     return _lv_anim_tmr;
 183:lvgl/src/misc/lv_anim.c **** }
 184:lvgl/src/misc/lv_anim.c **** 
 185:lvgl/src/misc/lv_anim.c **** uint16_t lv_anim_count_running(void)
 186:lvgl/src/misc/lv_anim.c **** {
 187:lvgl/src/misc/lv_anim.c ****     uint16_t cnt = 0;
 188:lvgl/src/misc/lv_anim.c ****     lv_anim_t * a;
 189:lvgl/src/misc/lv_anim.c ****     _LV_LL_READ(&LV_GC_ROOT(_lv_anim_ll), a) cnt++;
 190:lvgl/src/misc/lv_anim.c **** 
 191:lvgl/src/misc/lv_anim.c ****     return cnt;
 192:lvgl/src/misc/lv_anim.c **** }
 193:lvgl/src/misc/lv_anim.c **** 
 194:lvgl/src/misc/lv_anim.c **** uint32_t lv_anim_speed_to_time(uint32_t speed, int32_t start, int32_t end)
 195:lvgl/src/misc/lv_anim.c **** {
 196:lvgl/src/misc/lv_anim.c ****     uint32_t d    = LV_ABS(start - end);
 197:lvgl/src/misc/lv_anim.c ****     uint32_t time = (d * 1000) / speed;
 198:lvgl/src/misc/lv_anim.c **** 
 199:lvgl/src/misc/lv_anim.c ****     if(time == 0) {
 200:lvgl/src/misc/lv_anim.c ****         time++;
 201:lvgl/src/misc/lv_anim.c ****     }
 202:lvgl/src/misc/lv_anim.c **** 
ARM GAS  /var/folders/21/t9g5rlb91ys800n5npymflf80000gn/T//ccRyq8Ko.s 			page 5


 203:lvgl/src/misc/lv_anim.c ****     return time;
 204:lvgl/src/misc/lv_anim.c **** }
 205:lvgl/src/misc/lv_anim.c **** 
 206:lvgl/src/misc/lv_anim.c **** void lv_anim_refr_now(void)
 207:lvgl/src/misc/lv_anim.c **** {
 208:lvgl/src/misc/lv_anim.c ****     anim_timer(NULL);
 209:lvgl/src/misc/lv_anim.c **** }
 210:lvgl/src/misc/lv_anim.c **** 
 211:lvgl/src/misc/lv_anim.c **** int32_t lv_anim_path_linear(const lv_anim_t * a)
 212:lvgl/src/misc/lv_anim.c **** {
 213:lvgl/src/misc/lv_anim.c ****     /*Calculate the current step*/
 214:lvgl/src/misc/lv_anim.c ****     int32_t step = lv_map(a->act_time, 0, a->time, 0, LV_ANIM_RESOLUTION);
 215:lvgl/src/misc/lv_anim.c **** 
 216:lvgl/src/misc/lv_anim.c ****     /*Get the new value which will be proportional to `step`
 217:lvgl/src/misc/lv_anim.c ****      *and the `start` and `end` values*/
 218:lvgl/src/misc/lv_anim.c ****     int32_t new_value;
 219:lvgl/src/misc/lv_anim.c ****     new_value = step * (a->end_value - a->start_value);
 220:lvgl/src/misc/lv_anim.c ****     new_value = new_value >> LV_ANIM_RES_SHIFT;
 221:lvgl/src/misc/lv_anim.c ****     new_value += a->start_value;
 222:lvgl/src/misc/lv_anim.c **** 
 223:lvgl/src/misc/lv_anim.c ****     return new_value;
 224:lvgl/src/misc/lv_anim.c **** }
 225:lvgl/src/misc/lv_anim.c **** 
 226:lvgl/src/misc/lv_anim.c **** int32_t lv_anim_path_ease_in(const lv_anim_t * a)
 227:lvgl/src/misc/lv_anim.c **** {
 228:lvgl/src/misc/lv_anim.c ****     /*Calculate the current step*/
 229:lvgl/src/misc/lv_anim.c ****     uint32_t t = lv_map(a->act_time, 0, a->time, 0, LV_BEZIER_VAL_MAX);
 230:lvgl/src/misc/lv_anim.c ****     int32_t step = lv_bezier3(t, 0, 50, 100, LV_BEZIER_VAL_MAX);
 231:lvgl/src/misc/lv_anim.c **** 
 232:lvgl/src/misc/lv_anim.c ****     int32_t new_value;
 233:lvgl/src/misc/lv_anim.c ****     new_value = step * (a->end_value - a->start_value);
 234:lvgl/src/misc/lv_anim.c ****     new_value = new_value >> LV_BEZIER_VAL_SHIFT;
 235:lvgl/src/misc/lv_anim.c ****     new_value += a->start_value;
 236:lvgl/src/misc/lv_anim.c **** 
 237:lvgl/src/misc/lv_anim.c ****     return new_value;
 238:lvgl/src/misc/lv_anim.c **** }
 239:lvgl/src/misc/lv_anim.c **** 
 240:lvgl/src/misc/lv_anim.c **** int32_t lv_anim_path_ease_out(const lv_anim_t * a)
 241:lvgl/src/misc/lv_anim.c **** {
 242:lvgl/src/misc/lv_anim.c ****     /*Calculate the current step*/
 243:lvgl/src/misc/lv_anim.c ****     uint32_t t = lv_map(a->act_time, 0, a->time, 0, LV_BEZIER_VAL_MAX);
 244:lvgl/src/misc/lv_anim.c ****     int32_t step = lv_bezier3(t, 0, 900, 950, LV_BEZIER_VAL_MAX);
 245:lvgl/src/misc/lv_anim.c **** 
 246:lvgl/src/misc/lv_anim.c ****     int32_t new_value;
 247:lvgl/src/misc/lv_anim.c ****     new_value = step * (a->end_value - a->start_value);
 248:lvgl/src/misc/lv_anim.c ****     new_value = new_value >> LV_BEZIER_VAL_SHIFT;
 249:lvgl/src/misc/lv_anim.c ****     new_value += a->start_value;
 250:lvgl/src/misc/lv_anim.c **** 
 251:lvgl/src/misc/lv_anim.c ****     return new_value;
 252:lvgl/src/misc/lv_anim.c **** }
 253:lvgl/src/misc/lv_anim.c **** 
 254:lvgl/src/misc/lv_anim.c **** int32_t lv_anim_path_ease_in_out(const lv_anim_t * a)
 255:lvgl/src/misc/lv_anim.c **** {
 256:lvgl/src/misc/lv_anim.c ****     /*Calculate the current step*/
 257:lvgl/src/misc/lv_anim.c ****     uint32_t t = lv_map(a->act_time, 0, a->time, 0, LV_BEZIER_VAL_MAX);
 258:lvgl/src/misc/lv_anim.c ****     int32_t step = lv_bezier3(t, 0, 50, 952, LV_BEZIER_VAL_MAX);
 259:lvgl/src/misc/lv_anim.c **** 
ARM GAS  /var/folders/21/t9g5rlb91ys800n5npymflf80000gn/T//ccRyq8Ko.s 			page 6


 260:lvgl/src/misc/lv_anim.c ****     int32_t new_value;
 261:lvgl/src/misc/lv_anim.c ****     new_value = step * (a->end_value - a->start_value);
 262:lvgl/src/misc/lv_anim.c ****     new_value = new_value >> LV_BEZIER_VAL_SHIFT;
 263:lvgl/src/misc/lv_anim.c ****     new_value += a->start_value;
 264:lvgl/src/misc/lv_anim.c **** 
 265:lvgl/src/misc/lv_anim.c ****     return new_value;
 266:lvgl/src/misc/lv_anim.c **** }
 267:lvgl/src/misc/lv_anim.c **** 
 268:lvgl/src/misc/lv_anim.c **** int32_t lv_anim_path_overshoot(const lv_anim_t * a)
 269:lvgl/src/misc/lv_anim.c **** {
 270:lvgl/src/misc/lv_anim.c ****     /*Calculate the current step*/
 271:lvgl/src/misc/lv_anim.c ****     uint32_t t = lv_map(a->act_time, 0, a->time, 0, LV_BEZIER_VAL_MAX);
 272:lvgl/src/misc/lv_anim.c ****     int32_t step = lv_bezier3(t, 0, 1000, 1300, LV_BEZIER_VAL_MAX);
 273:lvgl/src/misc/lv_anim.c **** 
 274:lvgl/src/misc/lv_anim.c ****     int32_t new_value;
 275:lvgl/src/misc/lv_anim.c ****     new_value = step * (a->end_value - a->start_value);
 276:lvgl/src/misc/lv_anim.c ****     new_value = new_value >> LV_BEZIER_VAL_SHIFT;
 277:lvgl/src/misc/lv_anim.c ****     new_value += a->start_value;
 278:lvgl/src/misc/lv_anim.c **** 
 279:lvgl/src/misc/lv_anim.c ****     return new_value;
 280:lvgl/src/misc/lv_anim.c **** }
 281:lvgl/src/misc/lv_anim.c **** 
 282:lvgl/src/misc/lv_anim.c **** int32_t lv_anim_path_bounce(const lv_anim_t * a)
 283:lvgl/src/misc/lv_anim.c **** {
 284:lvgl/src/misc/lv_anim.c ****     /*Calculate the current step*/
 285:lvgl/src/misc/lv_anim.c ****     int32_t t = lv_map(a->act_time, 0, a->time, 0, LV_BEZIER_VAL_MAX);
 286:lvgl/src/misc/lv_anim.c ****     int32_t diff = (a->end_value - a->start_value);
 287:lvgl/src/misc/lv_anim.c **** 
 288:lvgl/src/misc/lv_anim.c ****     /*3 bounces has 5 parts: 3 down and 2 up. One part is t / 5 long*/
 289:lvgl/src/misc/lv_anim.c **** 
 290:lvgl/src/misc/lv_anim.c ****     if(t < 408) {
 291:lvgl/src/misc/lv_anim.c ****         /*Go down*/
 292:lvgl/src/misc/lv_anim.c ****         t = (t * 2500) >> LV_BEZIER_VAL_SHIFT; /*[0..1024] range*/
 293:lvgl/src/misc/lv_anim.c ****     }
 294:lvgl/src/misc/lv_anim.c ****     else if(t >= 408 && t < 614) {
 295:lvgl/src/misc/lv_anim.c ****         /*First bounce back*/
 296:lvgl/src/misc/lv_anim.c ****         t -= 408;
 297:lvgl/src/misc/lv_anim.c ****         t    = t * 5; /*to [0..1024] range*/
 298:lvgl/src/misc/lv_anim.c ****         t    = LV_BEZIER_VAL_MAX - t;
 299:lvgl/src/misc/lv_anim.c ****         diff = diff / 20;
 300:lvgl/src/misc/lv_anim.c ****     }
 301:lvgl/src/misc/lv_anim.c ****     else if(t >= 614 && t < 819) {
 302:lvgl/src/misc/lv_anim.c ****         /*Fall back*/
 303:lvgl/src/misc/lv_anim.c ****         t -= 614;
 304:lvgl/src/misc/lv_anim.c ****         t    = t * 5; /*to [0..1024] range*/
 305:lvgl/src/misc/lv_anim.c ****         diff = diff / 20;
 306:lvgl/src/misc/lv_anim.c ****     }
 307:lvgl/src/misc/lv_anim.c ****     else if(t >= 819 && t < 921) {
 308:lvgl/src/misc/lv_anim.c ****         /*Second bounce back*/
 309:lvgl/src/misc/lv_anim.c ****         t -= 819;
 310:lvgl/src/misc/lv_anim.c ****         t    = t * 10; /*to [0..1024] range*/
 311:lvgl/src/misc/lv_anim.c ****         t    = LV_BEZIER_VAL_MAX - t;
 312:lvgl/src/misc/lv_anim.c ****         diff = diff / 40;
 313:lvgl/src/misc/lv_anim.c ****     }
 314:lvgl/src/misc/lv_anim.c ****     else if(t >= 921 && t <= LV_BEZIER_VAL_MAX) {
 315:lvgl/src/misc/lv_anim.c ****         /*Fall back*/
 316:lvgl/src/misc/lv_anim.c ****         t -= 921;
ARM GAS  /var/folders/21/t9g5rlb91ys800n5npymflf80000gn/T//ccRyq8Ko.s 			page 7


 317:lvgl/src/misc/lv_anim.c ****         t    = t * 10; /*to [0..1024] range*/
 318:lvgl/src/misc/lv_anim.c ****         diff = diff / 40;
 319:lvgl/src/misc/lv_anim.c ****     }
 320:lvgl/src/misc/lv_anim.c **** 
 321:lvgl/src/misc/lv_anim.c ****     if(t > LV_BEZIER_VAL_MAX) t = LV_BEZIER_VAL_MAX;
 322:lvgl/src/misc/lv_anim.c ****     if(t < 0) t = 0;
 323:lvgl/src/misc/lv_anim.c ****     int32_t step = lv_bezier3(t, LV_BEZIER_VAL_MAX, 800, 500, 0);
 324:lvgl/src/misc/lv_anim.c **** 
 325:lvgl/src/misc/lv_anim.c ****     int32_t new_value;
 326:lvgl/src/misc/lv_anim.c ****     new_value = step * diff;
 327:lvgl/src/misc/lv_anim.c ****     new_value = new_value >> LV_BEZIER_VAL_SHIFT;
 328:lvgl/src/misc/lv_anim.c ****     new_value = a->end_value - new_value;
 329:lvgl/src/misc/lv_anim.c **** 
 330:lvgl/src/misc/lv_anim.c ****     return new_value;
 331:lvgl/src/misc/lv_anim.c **** }
 332:lvgl/src/misc/lv_anim.c **** 
 333:lvgl/src/misc/lv_anim.c **** int32_t lv_anim_path_step(const lv_anim_t * a)
 334:lvgl/src/misc/lv_anim.c **** {
 335:lvgl/src/misc/lv_anim.c ****     if(a->act_time >= a->time)
 336:lvgl/src/misc/lv_anim.c ****         return a->end_value;
 337:lvgl/src/misc/lv_anim.c ****     else
 338:lvgl/src/misc/lv_anim.c ****         return a->start_value;
 339:lvgl/src/misc/lv_anim.c **** }
 340:lvgl/src/misc/lv_anim.c **** 
 341:lvgl/src/misc/lv_anim.c **** /**********************
 342:lvgl/src/misc/lv_anim.c ****  *   STATIC FUNCTIONS
 343:lvgl/src/misc/lv_anim.c ****  **********************/
 344:lvgl/src/misc/lv_anim.c **** 
 345:lvgl/src/misc/lv_anim.c **** /**
 346:lvgl/src/misc/lv_anim.c ****  * Periodically handle the animations.
 347:lvgl/src/misc/lv_anim.c ****  * @param param unused
 348:lvgl/src/misc/lv_anim.c ****  */
 349:lvgl/src/misc/lv_anim.c **** static void anim_timer(lv_timer_t * param)
 350:lvgl/src/misc/lv_anim.c **** {
 351:lvgl/src/misc/lv_anim.c ****     LV_UNUSED(param);
 352:lvgl/src/misc/lv_anim.c **** 
 353:lvgl/src/misc/lv_anim.c ****     uint32_t elaps = lv_tick_elaps(last_timer_run);
 354:lvgl/src/misc/lv_anim.c **** 
 355:lvgl/src/misc/lv_anim.c ****     /*Flip the run round*/
 356:lvgl/src/misc/lv_anim.c ****     anim_run_round = anim_run_round ? false : true;
 357:lvgl/src/misc/lv_anim.c **** 
 358:lvgl/src/misc/lv_anim.c ****     lv_anim_t * a = _lv_ll_get_head(&LV_GC_ROOT(_lv_anim_ll));
 359:lvgl/src/misc/lv_anim.c **** 
 360:lvgl/src/misc/lv_anim.c ****     while(a != NULL) {
 361:lvgl/src/misc/lv_anim.c ****         /*It can be set by `lv_anim_del()` typically in `end_cb`. If set then an animation delete
 362:lvgl/src/misc/lv_anim.c ****          * happened in `anim_ready_handler` which could make this linked list reading corrupt
 363:lvgl/src/misc/lv_anim.c ****          * because the list is changed meanwhile
 364:lvgl/src/misc/lv_anim.c ****          */
 365:lvgl/src/misc/lv_anim.c ****         anim_list_changed = false;
 366:lvgl/src/misc/lv_anim.c **** 
 367:lvgl/src/misc/lv_anim.c ****         if(a->run_round != anim_run_round) {
 368:lvgl/src/misc/lv_anim.c ****             a->run_round = anim_run_round; /*The list readying might be reset so need to know which
 369:lvgl/src/misc/lv_anim.c **** 
 370:lvgl/src/misc/lv_anim.c ****             /*The animation will run now for the first time. Call `start_cb`*/
 371:lvgl/src/misc/lv_anim.c ****             int32_t new_act_time = a->act_time + elaps;
 372:lvgl/src/misc/lv_anim.c ****             if(!a->start_cb_called && a->act_time <= 0 && new_act_time >= 0) {
 373:lvgl/src/misc/lv_anim.c ****                 if(a->early_apply == 0 && a->get_value_cb) {
ARM GAS  /var/folders/21/t9g5rlb91ys800n5npymflf80000gn/T//ccRyq8Ko.s 			page 8


 374:lvgl/src/misc/lv_anim.c ****                     int32_t v_ofs = a->get_value_cb(a);
 375:lvgl/src/misc/lv_anim.c ****                     a->start_value += v_ofs;
 376:lvgl/src/misc/lv_anim.c ****                     a->end_value += v_ofs;
 377:lvgl/src/misc/lv_anim.c ****                 }
 378:lvgl/src/misc/lv_anim.c ****                 if(a->start_cb) a->start_cb(a);
 379:lvgl/src/misc/lv_anim.c ****                 a->start_cb_called = 1;
 380:lvgl/src/misc/lv_anim.c ****             }
 381:lvgl/src/misc/lv_anim.c ****             a->act_time += elaps;
 382:lvgl/src/misc/lv_anim.c ****             if(a->act_time >= 0) {
 383:lvgl/src/misc/lv_anim.c ****                 if(a->act_time > a->time) a->act_time = a->time;
 384:lvgl/src/misc/lv_anim.c **** 
 385:lvgl/src/misc/lv_anim.c ****                 int32_t new_value;
 386:lvgl/src/misc/lv_anim.c ****                 new_value = a->path_cb(a);
 387:lvgl/src/misc/lv_anim.c **** 
 388:lvgl/src/misc/lv_anim.c ****                 if(new_value != a->current_value) {
 389:lvgl/src/misc/lv_anim.c ****                     a->current_value = new_value;
 390:lvgl/src/misc/lv_anim.c ****                     /*Apply the calculated value*/
 391:lvgl/src/misc/lv_anim.c ****                     if(a->exec_cb) a->exec_cb(a->var, new_value);
 392:lvgl/src/misc/lv_anim.c ****                 }
 393:lvgl/src/misc/lv_anim.c **** 
 394:lvgl/src/misc/lv_anim.c ****                 /*If the time is elapsed the animation is ready*/
 395:lvgl/src/misc/lv_anim.c ****                 if(a->act_time >= a->time) {
 396:lvgl/src/misc/lv_anim.c ****                     anim_ready_handler(a);
 397:lvgl/src/misc/lv_anim.c ****                 }
 398:lvgl/src/misc/lv_anim.c ****             }
 399:lvgl/src/misc/lv_anim.c ****         }
 400:lvgl/src/misc/lv_anim.c **** 
 401:lvgl/src/misc/lv_anim.c ****         /*If the linked list changed due to anim. delete then it's not safe to continue
 402:lvgl/src/misc/lv_anim.c ****          *the reading of the list from here -> start from the head*/
 403:lvgl/src/misc/lv_anim.c ****         if(anim_list_changed)
 404:lvgl/src/misc/lv_anim.c ****             a = _lv_ll_get_head(&LV_GC_ROOT(_lv_anim_ll));
 405:lvgl/src/misc/lv_anim.c ****         else
 406:lvgl/src/misc/lv_anim.c ****             a = _lv_ll_get_next(&LV_GC_ROOT(_lv_anim_ll), a);
 407:lvgl/src/misc/lv_anim.c ****     }
 408:lvgl/src/misc/lv_anim.c **** 
 409:lvgl/src/misc/lv_anim.c ****     last_timer_run = lv_tick_get();
 410:lvgl/src/misc/lv_anim.c **** }
 411:lvgl/src/misc/lv_anim.c **** 
 412:lvgl/src/misc/lv_anim.c **** /**
 413:lvgl/src/misc/lv_anim.c ****  * Called when an animation is ready to do the necessary thinks
 414:lvgl/src/misc/lv_anim.c ****  * e.g. repeat, play back, delete etc.
 415:lvgl/src/misc/lv_anim.c ****  * @param a pointer to an animation descriptor
 416:lvgl/src/misc/lv_anim.c ****  */
 417:lvgl/src/misc/lv_anim.c **** static void anim_ready_handler(lv_anim_t * a)
 418:lvgl/src/misc/lv_anim.c **** {
 419:lvgl/src/misc/lv_anim.c ****     /*In the end of a forward anim decrement repeat cnt.*/
 420:lvgl/src/misc/lv_anim.c ****     if(a->playback_now == 0 && a->repeat_cnt > 0 && a->repeat_cnt != LV_ANIM_REPEAT_INFINITE) {
 421:lvgl/src/misc/lv_anim.c ****         a->repeat_cnt--;
 422:lvgl/src/misc/lv_anim.c ****     }
 423:lvgl/src/misc/lv_anim.c **** 
 424:lvgl/src/misc/lv_anim.c ****     /*Delete the animation if
 425:lvgl/src/misc/lv_anim.c ****      * - no repeat left and no play back (simple one shot animation)
 426:lvgl/src/misc/lv_anim.c ****      * - no repeat, play back is enabled and play back is ready*/
 427:lvgl/src/misc/lv_anim.c ****     if(a->repeat_cnt == 0 && (a->playback_time == 0 || a->playback_now == 1)) {
 428:lvgl/src/misc/lv_anim.c **** 
 429:lvgl/src/misc/lv_anim.c ****         /*Delete the animation from the list.
 430:lvgl/src/misc/lv_anim.c ****          * This way the `ready_cb` will see the animations like it's animation is ready deleted*/
ARM GAS  /var/folders/21/t9g5rlb91ys800n5npymflf80000gn/T//ccRyq8Ko.s 			page 9


 431:lvgl/src/misc/lv_anim.c ****         _lv_ll_remove(&LV_GC_ROOT(_lv_anim_ll), a);
 432:lvgl/src/misc/lv_anim.c ****         /*Flag that the list has changed*/
 433:lvgl/src/misc/lv_anim.c ****         anim_mark_list_change();
 434:lvgl/src/misc/lv_anim.c **** 
 435:lvgl/src/misc/lv_anim.c ****         /*Call the callback function at the end*/
 436:lvgl/src/misc/lv_anim.c ****         if(a->ready_cb != NULL) a->ready_cb(a);
 437:lvgl/src/misc/lv_anim.c ****         if(a->deleted_cb != NULL) a->deleted_cb(a);
 438:lvgl/src/misc/lv_anim.c ****         lv_mem_free(a);
 439:lvgl/src/misc/lv_anim.c ****     }
 440:lvgl/src/misc/lv_anim.c ****     /*If the animation is not deleted then restart it*/
 441:lvgl/src/misc/lv_anim.c ****     else {
 442:lvgl/src/misc/lv_anim.c ****         a->act_time = -(int32_t)(a->repeat_delay); /*Restart the animation*/
 443:lvgl/src/misc/lv_anim.c ****         /*Swap the start and end values in play back mode*/
 444:lvgl/src/misc/lv_anim.c ****         if(a->playback_time != 0) {
 445:lvgl/src/misc/lv_anim.c ****             /*If now turning back use the 'playback_pause*/
 446:lvgl/src/misc/lv_anim.c ****             if(a->playback_now == 0) a->act_time = -(int32_t)(a->playback_delay);
 447:lvgl/src/misc/lv_anim.c **** 
 448:lvgl/src/misc/lv_anim.c ****             /*Toggle the play back state*/
 449:lvgl/src/misc/lv_anim.c ****             a->playback_now = a->playback_now == 0 ? 1 : 0;
 450:lvgl/src/misc/lv_anim.c ****             /*Swap the start and end values*/
 451:lvgl/src/misc/lv_anim.c ****             int32_t tmp    = a->start_value;
 452:lvgl/src/misc/lv_anim.c ****             a->start_value = a->end_value;
 453:lvgl/src/misc/lv_anim.c ****             a->end_value   = tmp;
 454:lvgl/src/misc/lv_anim.c ****             /*Swap the time and playback_time*/
 455:lvgl/src/misc/lv_anim.c ****             tmp = a->time;
 456:lvgl/src/misc/lv_anim.c ****             a->time = a->playback_time;
 457:lvgl/src/misc/lv_anim.c ****             a->playback_time = tmp;
 458:lvgl/src/misc/lv_anim.c ****         }
 459:lvgl/src/misc/lv_anim.c ****     }
 460:lvgl/src/misc/lv_anim.c **** }
 461:lvgl/src/misc/lv_anim.c **** 
 462:lvgl/src/misc/lv_anim.c **** static void anim_mark_list_change(void)
 463:lvgl/src/misc/lv_anim.c **** {
  28              		.loc 1 463 1 view -0
  29              		.cfi_startproc
  30              		@ args = 0, pretend = 0, frame = 0
  31              		@ frame_needed = 0, uses_anonymous_args = 0
  32 0000 08B5     		push	{r3, lr}
  33              	.LCFI0:
  34              		.cfi_def_cfa_offset 8
  35              		.cfi_offset 3, -8
  36              		.cfi_offset 14, -4
 464:lvgl/src/misc/lv_anim.c ****     anim_list_changed = true;
  37              		.loc 1 464 5 view .LVU1
  38              		.loc 1 464 23 is_stmt 0 view .LVU2
  39 0002 084B     		ldr	r3, .L6
  40 0004 0122     		movs	r2, #1
  41 0006 1A70     		strb	r2, [r3]
 465:lvgl/src/misc/lv_anim.c ****     if(_lv_ll_get_head(&LV_GC_ROOT(_lv_anim_ll)) == NULL)
  42              		.loc 1 465 5 is_stmt 1 view .LVU3
  43              		.loc 1 465 8 is_stmt 0 view .LVU4
  44 0008 0748     		ldr	r0, .L6+4
  45 000a FFF7FEFF 		bl	_lv_ll_get_head
  46              	.LVL0:
  47              		.loc 1 465 7 view .LVU5
  48 000e 20B1     		cbz	r0, .L5
 466:lvgl/src/misc/lv_anim.c ****         lv_timer_pause(_lv_anim_tmr);
ARM GAS  /var/folders/21/t9g5rlb91ys800n5npymflf80000gn/T//ccRyq8Ko.s 			page 10


 467:lvgl/src/misc/lv_anim.c ****     else
 468:lvgl/src/misc/lv_anim.c ****         lv_timer_resume(_lv_anim_tmr);
  49              		.loc 1 468 9 is_stmt 1 view .LVU6
  50 0010 064B     		ldr	r3, .L6+8
  51 0012 1868     		ldr	r0, [r3]
  52 0014 FFF7FEFF 		bl	lv_timer_resume
  53              	.LVL1:
  54              	.L1:
 469:lvgl/src/misc/lv_anim.c **** }
  55              		.loc 1 469 1 is_stmt 0 view .LVU7
  56 0018 08BD     		pop	{r3, pc}
  57              	.L5:
 466:lvgl/src/misc/lv_anim.c ****         lv_timer_pause(_lv_anim_tmr);
  58              		.loc 1 466 9 is_stmt 1 view .LVU8
  59 001a 044B     		ldr	r3, .L6+8
  60 001c 1868     		ldr	r0, [r3]
  61 001e FFF7FEFF 		bl	lv_timer_pause
  62              	.LVL2:
  63 0022 F9E7     		b	.L1
  64              	.L7:
  65              		.align	2
  66              	.L6:
  67 0024 00000000 		.word	anim_list_changed
  68 0028 00000000 		.word	_lv_anim_ll
  69 002c 00000000 		.word	_lv_anim_tmr
  70              		.cfi_endproc
  71              	.LFE65:
  73              		.section	.text.anim_ready_handler,"ax",%progbits
  74              		.align	1
  75              		.syntax unified
  76              		.thumb
  77              		.thumb_func
  79              	anim_ready_handler:
  80              	.LVL3:
  81              	.LFB64:
 418:lvgl/src/misc/lv_anim.c ****     /*In the end of a forward anim decrement repeat cnt.*/
  82              		.loc 1 418 1 view -0
  83              		.cfi_startproc
  84              		@ args = 0, pretend = 0, frame = 0
  85              		@ frame_needed = 0, uses_anonymous_args = 0
 418:lvgl/src/misc/lv_anim.c ****     /*In the end of a forward anim decrement repeat cnt.*/
  86              		.loc 1 418 1 is_stmt 0 view .LVU10
  87 0000 10B5     		push	{r4, lr}
  88              	.LCFI1:
  89              		.cfi_def_cfa_offset 8
  90              		.cfi_offset 4, -8
  91              		.cfi_offset 14, -4
  92 0002 0446     		mov	r4, r0
 420:lvgl/src/misc/lv_anim.c ****         a->repeat_cnt--;
  93              		.loc 1 420 5 is_stmt 1 view .LVU11
 420:lvgl/src/misc/lv_anim.c ****         a->repeat_cnt--;
  94              		.loc 1 420 24 is_stmt 0 view .LVU12
  95 0004 90F84230 		ldrb	r3, [r0, #66]	@ zero_extendqisi2
 420:lvgl/src/misc/lv_anim.c ****         a->repeat_cnt--;
  96              		.loc 1 420 7 view .LVU13
  97 0008 13F00203 		ands	r3, r3, #2
  98 000c 09D1     		bne	.L9
ARM GAS  /var/folders/21/t9g5rlb91ys800n5npymflf80000gn/T//ccRyq8Ko.s 			page 11


 420:lvgl/src/misc/lv_anim.c ****         a->repeat_cnt--;
  99              		.loc 1 420 33 discriminator 1 view .LVU14
 100 000e B0F84020 		ldrh	r2, [r0, #64]
 420:lvgl/src/misc/lv_anim.c ****         a->repeat_cnt--;
 101              		.loc 1 420 29 discriminator 1 view .LVU15
 102 0012 32B1     		cbz	r2, .L9
 420:lvgl/src/misc/lv_anim.c ****         a->repeat_cnt--;
 103              		.loc 1 420 50 discriminator 2 view .LVU16
 104 0014 4FF6FF71 		movw	r1, #65535
 105 0018 8A42     		cmp	r2, r1
 106 001a 02D0     		beq	.L9
 421:lvgl/src/misc/lv_anim.c ****     }
 107              		.loc 1 421 9 is_stmt 1 view .LVU17
 421:lvgl/src/misc/lv_anim.c ****     }
 108              		.loc 1 421 22 is_stmt 0 view .LVU18
 109 001c 013A     		subs	r2, r2, #1
 110 001e A0F84020 		strh	r2, [r0, #64]	@ movhi
 111              	.L9:
 427:lvgl/src/misc/lv_anim.c **** 
 112              		.loc 1 427 5 is_stmt 1 view .LVU19
 427:lvgl/src/misc/lv_anim.c **** 
 113              		.loc 1 427 9 is_stmt 0 view .LVU20
 114 0022 B4F84020 		ldrh	r2, [r4, #64]
 427:lvgl/src/misc/lv_anim.c **** 
 115              		.loc 1 427 7 view .LVU21
 116 0026 A2B9     		cbnz	r2, .L10
 427:lvgl/src/misc/lv_anim.c **** 
 117              		.loc 1 427 32 discriminator 1 view .LVU22
 118 0028 A26B     		ldr	r2, [r4, #56]
 427:lvgl/src/misc/lv_anim.c **** 
 119              		.loc 1 427 27 discriminator 1 view .LVU23
 120 002a 02B1     		cbz	r2, .L11
 427:lvgl/src/misc/lv_anim.c **** 
 121              		.loc 1 427 53 discriminator 2 view .LVU24
 122 002c 8BB1     		cbz	r3, .L10
 123              	.L11:
 431:lvgl/src/misc/lv_anim.c ****         /*Flag that the list has changed*/
 124              		.loc 1 431 9 is_stmt 1 view .LVU25
 125 002e 2146     		mov	r1, r4
 126 0030 1548     		ldr	r0, .L17
 127              	.LVL4:
 431:lvgl/src/misc/lv_anim.c ****         /*Flag that the list has changed*/
 128              		.loc 1 431 9 is_stmt 0 view .LVU26
 129 0032 FFF7FEFF 		bl	_lv_ll_remove
 130              	.LVL5:
 433:lvgl/src/misc/lv_anim.c **** 
 131              		.loc 1 433 9 is_stmt 1 view .LVU27
 132 0036 FFF7FEFF 		bl	anim_mark_list_change
 133              	.LVL6:
 436:lvgl/src/misc/lv_anim.c ****         if(a->deleted_cb != NULL) a->deleted_cb(a);
 134              		.loc 1 436 9 view .LVU28
 436:lvgl/src/misc/lv_anim.c ****         if(a->deleted_cb != NULL) a->deleted_cb(a);
 135              		.loc 1 436 13 is_stmt 0 view .LVU29
 136 003a E368     		ldr	r3, [r4, #12]
 436:lvgl/src/misc/lv_anim.c ****         if(a->deleted_cb != NULL) a->deleted_cb(a);
 137              		.loc 1 436 11 view .LVU30
 138 003c 0BB1     		cbz	r3, .L12
ARM GAS  /var/folders/21/t9g5rlb91ys800n5npymflf80000gn/T//ccRyq8Ko.s 			page 12


 436:lvgl/src/misc/lv_anim.c ****         if(a->deleted_cb != NULL) a->deleted_cb(a);
 139              		.loc 1 436 33 is_stmt 1 discriminator 1 view .LVU31
 140 003e 2046     		mov	r0, r4
 141 0040 9847     		blx	r3
 142              	.LVL7:
 143              	.L12:
 437:lvgl/src/misc/lv_anim.c ****         lv_mem_free(a);
 144              		.loc 1 437 9 view .LVU32
 437:lvgl/src/misc/lv_anim.c ****         lv_mem_free(a);
 145              		.loc 1 437 13 is_stmt 0 view .LVU33
 146 0042 2369     		ldr	r3, [r4, #16]
 437:lvgl/src/misc/lv_anim.c ****         lv_mem_free(a);
 147              		.loc 1 437 11 view .LVU34
 148 0044 0BB1     		cbz	r3, .L13
 437:lvgl/src/misc/lv_anim.c ****         lv_mem_free(a);
 149              		.loc 1 437 35 is_stmt 1 discriminator 1 view .LVU35
 150 0046 2046     		mov	r0, r4
 151 0048 9847     		blx	r3
 152              	.LVL8:
 153              	.L13:
 438:lvgl/src/misc/lv_anim.c ****     }
 154              		.loc 1 438 9 view .LVU36
 155 004a 2046     		mov	r0, r4
 156 004c FFF7FEFF 		bl	lv_mem_free
 157              	.LVL9:
 158 0050 18E0     		b	.L8
 159              	.LVL10:
 160              	.L10:
 442:lvgl/src/misc/lv_anim.c ****         /*Swap the start and end values in play back mode*/
 161              		.loc 1 442 9 view .LVU37
 442:lvgl/src/misc/lv_anim.c ****         /*Swap the start and end values in play back mode*/
 162              		.loc 1 442 35 is_stmt 0 view .LVU38
 163 0052 E26B     		ldr	r2, [r4, #60]
 442:lvgl/src/misc/lv_anim.c ****         /*Swap the start and end values in play back mode*/
 164              		.loc 1 442 23 view .LVU39
 165 0054 5242     		rsbs	r2, r2, #0
 442:lvgl/src/misc/lv_anim.c ****         /*Swap the start and end values in play back mode*/
 166              		.loc 1 442 21 view .LVU40
 167 0056 2263     		str	r2, [r4, #48]
 444:lvgl/src/misc/lv_anim.c ****             /*If now turning back use the 'playback_pause*/
 168              		.loc 1 444 9 is_stmt 1 view .LVU41
 444:lvgl/src/misc/lv_anim.c ****             /*If now turning back use the 'playback_pause*/
 169              		.loc 1 444 13 is_stmt 0 view .LVU42
 170 0058 A26B     		ldr	r2, [r4, #56]
 444:lvgl/src/misc/lv_anim.c ****             /*If now turning back use the 'playback_pause*/
 171              		.loc 1 444 11 view .LVU43
 172 005a 9AB1     		cbz	r2, .L8
 173              	.LBB2:
 446:lvgl/src/misc/lv_anim.c **** 
 174              		.loc 1 446 13 is_stmt 1 view .LVU44
 446:lvgl/src/misc/lv_anim.c **** 
 175              		.loc 1 446 15 is_stmt 0 view .LVU45
 176 005c 13B9     		cbnz	r3, .L15
 446:lvgl/src/misc/lv_anim.c **** 
 177              		.loc 1 446 38 is_stmt 1 discriminator 1 view .LVU46
 446:lvgl/src/misc/lv_anim.c **** 
 178              		.loc 1 446 64 is_stmt 0 discriminator 1 view .LVU47
ARM GAS  /var/folders/21/t9g5rlb91ys800n5npymflf80000gn/T//ccRyq8Ko.s 			page 13


 179 005e 616B     		ldr	r1, [r4, #52]
 446:lvgl/src/misc/lv_anim.c **** 
 180              		.loc 1 446 52 discriminator 1 view .LVU48
 181 0060 4942     		rsbs	r1, r1, #0
 446:lvgl/src/misc/lv_anim.c **** 
 182              		.loc 1 446 50 discriminator 1 view .LVU49
 183 0062 2163     		str	r1, [r4, #48]
 184              	.L15:
 449:lvgl/src/misc/lv_anim.c ****             /*Swap the start and end values*/
 185              		.loc 1 449 13 is_stmt 1 view .LVU50
 449:lvgl/src/misc/lv_anim.c ****             /*Swap the start and end values*/
 186              		.loc 1 449 56 is_stmt 0 view .LVU51
 187 0064 B3FA83F3 		clz	r3, r3
 188 0068 5B09     		lsrs	r3, r3, #5
 449:lvgl/src/misc/lv_anim.c ****             /*Swap the start and end values*/
 189              		.loc 1 449 29 view .LVU52
 190 006a 94F84210 		ldrb	r1, [r4, #66]	@ zero_extendqisi2
 191 006e 63F34101 		bfi	r1, r3, #1, #1
 192 0072 84F84210 		strb	r1, [r4, #66]
 451:lvgl/src/misc/lv_anim.c ****             a->start_value = a->end_value;
 193              		.loc 1 451 13 is_stmt 1 view .LVU53
 451:lvgl/src/misc/lv_anim.c ****             a->start_value = a->end_value;
 194              		.loc 1 451 21 is_stmt 0 view .LVU54
 195 0076 236A     		ldr	r3, [r4, #32]
 196              	.LVL11:
 452:lvgl/src/misc/lv_anim.c ****             a->end_value   = tmp;
 197              		.loc 1 452 13 is_stmt 1 view .LVU55
 452:lvgl/src/misc/lv_anim.c ****             a->end_value   = tmp;
 198              		.loc 1 452 31 is_stmt 0 view .LVU56
 199 0078 A16A     		ldr	r1, [r4, #40]
 452:lvgl/src/misc/lv_anim.c ****             a->end_value   = tmp;
 200              		.loc 1 452 28 view .LVU57
 201 007a 2162     		str	r1, [r4, #32]
 453:lvgl/src/misc/lv_anim.c ****             /*Swap the time and playback_time*/
 202              		.loc 1 453 13 is_stmt 1 view .LVU58
 453:lvgl/src/misc/lv_anim.c ****             /*Swap the time and playback_time*/
 203              		.loc 1 453 28 is_stmt 0 view .LVU59
 204 007c A362     		str	r3, [r4, #40]
 455:lvgl/src/misc/lv_anim.c ****             a->time = a->playback_time;
 205              		.loc 1 455 13 is_stmt 1 view .LVU60
 455:lvgl/src/misc/lv_anim.c ****             a->time = a->playback_time;
 206              		.loc 1 455 17 is_stmt 0 view .LVU61
 207 007e E36A     		ldr	r3, [r4, #44]
 208              	.LVL12:
 456:lvgl/src/misc/lv_anim.c ****             a->playback_time = tmp;
 209              		.loc 1 456 13 is_stmt 1 view .LVU62
 456:lvgl/src/misc/lv_anim.c ****             a->playback_time = tmp;
 210              		.loc 1 456 21 is_stmt 0 view .LVU63
 211 0080 E262     		str	r2, [r4, #44]
 457:lvgl/src/misc/lv_anim.c ****         }
 212              		.loc 1 457 13 is_stmt 1 view .LVU64
 457:lvgl/src/misc/lv_anim.c ****         }
 213              		.loc 1 457 30 is_stmt 0 view .LVU65
 214 0082 A363     		str	r3, [r4, #56]
 215              	.LVL13:
 216              	.L8:
 457:lvgl/src/misc/lv_anim.c ****         }
ARM GAS  /var/folders/21/t9g5rlb91ys800n5npymflf80000gn/T//ccRyq8Ko.s 			page 14


 217              		.loc 1 457 30 view .LVU66
 218              	.LBE2:
 460:lvgl/src/misc/lv_anim.c **** 
 219              		.loc 1 460 1 view .LVU67
 220 0084 10BD     		pop	{r4, pc}
 221              	.LVL14:
 222              	.L18:
 460:lvgl/src/misc/lv_anim.c **** 
 223              		.loc 1 460 1 view .LVU68
 224 0086 00BF     		.align	2
 225              	.L17:
 226 0088 00000000 		.word	_lv_anim_ll
 227              		.cfi_endproc
 228              	.LFE64:
 230              		.section	.text.anim_timer,"ax",%progbits
 231              		.align	1
 232              		.syntax unified
 233              		.thumb
 234              		.thumb_func
 236              	anim_timer:
 237              	.LVL15:
 238              	.LFB63:
 350:lvgl/src/misc/lv_anim.c ****     LV_UNUSED(param);
 239              		.loc 1 350 1 is_stmt 1 view -0
 240              		.cfi_startproc
 241              		@ args = 0, pretend = 0, frame = 0
 242              		@ frame_needed = 0, uses_anonymous_args = 0
 350:lvgl/src/misc/lv_anim.c ****     LV_UNUSED(param);
 243              		.loc 1 350 1 is_stmt 0 view .LVU70
 244 0000 38B5     		push	{r3, r4, r5, lr}
 245              	.LCFI2:
 246              		.cfi_def_cfa_offset 16
 247              		.cfi_offset 3, -16
 248              		.cfi_offset 4, -12
 249              		.cfi_offset 5, -8
 250              		.cfi_offset 14, -4
 351:lvgl/src/misc/lv_anim.c **** 
 251              		.loc 1 351 5 is_stmt 1 view .LVU71
 353:lvgl/src/misc/lv_anim.c **** 
 252              		.loc 1 353 5 view .LVU72
 353:lvgl/src/misc/lv_anim.c **** 
 253              		.loc 1 353 22 is_stmt 0 view .LVU73
 254 0002 3B4B     		ldr	r3, .L34
 255 0004 1868     		ldr	r0, [r3]
 256              	.LVL16:
 353:lvgl/src/misc/lv_anim.c **** 
 257              		.loc 1 353 22 view .LVU74
 258 0006 FFF7FEFF 		bl	lv_tick_elaps
 259              	.LVL17:
 260 000a 0546     		mov	r5, r0
 261              	.LVL18:
 356:lvgl/src/misc/lv_anim.c **** 
 262              		.loc 1 356 5 is_stmt 1 view .LVU75
 356:lvgl/src/misc/lv_anim.c **** 
 263              		.loc 1 356 45 is_stmt 0 view .LVU76
 264 000c 394A     		ldr	r2, .L34+4
 265 000e 1378     		ldrb	r3, [r2]	@ zero_extendqisi2
ARM GAS  /var/folders/21/t9g5rlb91ys800n5npymflf80000gn/T//ccRyq8Ko.s 			page 15


 266 0010 83F00103 		eor	r3, r3, #1
 356:lvgl/src/misc/lv_anim.c **** 
 267              		.loc 1 356 20 view .LVU77
 268 0014 1370     		strb	r3, [r2]
 358:lvgl/src/misc/lv_anim.c **** 
 269              		.loc 1 358 5 is_stmt 1 view .LVU78
 358:lvgl/src/misc/lv_anim.c **** 
 270              		.loc 1 358 21 is_stmt 0 view .LVU79
 271 0016 3848     		ldr	r0, .L34+8
 272              	.LVL19:
 358:lvgl/src/misc/lv_anim.c **** 
 273              		.loc 1 358 21 view .LVU80
 274 0018 FFF7FEFF 		bl	_lv_ll_get_head
 275              	.LVL20:
 276 001c 0446     		mov	r4, r0
 277              	.LVL21:
 360:lvgl/src/misc/lv_anim.c ****         /*It can be set by `lv_anim_del()` typically in `end_cb`. If set then an animation delete
 278              		.loc 1 360 5 is_stmt 1 view .LVU81
 360:lvgl/src/misc/lv_anim.c ****         /*It can be set by `lv_anim_del()` typically in `end_cb`. If set then an animation delete
 279              		.loc 1 360 10 is_stmt 0 view .LVU82
 280 001e 25E0     		b	.L20
 281              	.LVL22:
 282              	.L33:
 283              	.LBB3:
 372:lvgl/src/misc/lv_anim.c ****                 if(a->early_apply == 0 && a->get_value_cb) {
 284              		.loc 1 372 56 discriminator 2 view .LVU83
 285 0020 0029     		cmp	r1, #0
 286 0022 3FDB     		blt	.L22
 373:lvgl/src/misc/lv_anim.c ****                     int32_t v_ofs = a->get_value_cb(a);
 287              		.loc 1 373 17 is_stmt 1 view .LVU84
 373:lvgl/src/misc/lv_anim.c ****                     int32_t v_ofs = a->get_value_cb(a);
 288              		.loc 1 373 19 is_stmt 0 view .LVU85
 289 0024 12F0010F 		tst	r2, #1
 290 0028 09D1     		bne	.L23
 373:lvgl/src/misc/lv_anim.c ****                     int32_t v_ofs = a->get_value_cb(a);
 291              		.loc 1 373 44 discriminator 1 view .LVU86
 292 002a 6369     		ldr	r3, [r4, #20]
 373:lvgl/src/misc/lv_anim.c ****                     int32_t v_ofs = a->get_value_cb(a);
 293              		.loc 1 373 40 discriminator 1 view .LVU87
 294 002c 3BB1     		cbz	r3, .L23
 295              	.LBB4:
 374:lvgl/src/misc/lv_anim.c ****                     a->start_value += v_ofs;
 296              		.loc 1 374 21 is_stmt 1 view .LVU88
 374:lvgl/src/misc/lv_anim.c ****                     a->start_value += v_ofs;
 297              		.loc 1 374 37 is_stmt 0 view .LVU89
 298 002e 2046     		mov	r0, r4
 374:lvgl/src/misc/lv_anim.c ****                     a->start_value += v_ofs;
 299              		.loc 1 374 37 view .LVU90
 300 0030 9847     		blx	r3
 301              	.LVL23:
 375:lvgl/src/misc/lv_anim.c ****                     a->end_value += v_ofs;
 302              		.loc 1 375 21 is_stmt 1 view .LVU91
 375:lvgl/src/misc/lv_anim.c ****                     a->end_value += v_ofs;
 303              		.loc 1 375 22 is_stmt 0 view .LVU92
 304 0032 236A     		ldr	r3, [r4, #32]
 375:lvgl/src/misc/lv_anim.c ****                     a->end_value += v_ofs;
 305              		.loc 1 375 36 view .LVU93
ARM GAS  /var/folders/21/t9g5rlb91ys800n5npymflf80000gn/T//ccRyq8Ko.s 			page 16


 306 0034 0344     		add	r3, r3, r0
 307 0036 2362     		str	r3, [r4, #32]
 376:lvgl/src/misc/lv_anim.c ****                 }
 308              		.loc 1 376 21 is_stmt 1 view .LVU94
 376:lvgl/src/misc/lv_anim.c ****                 }
 309              		.loc 1 376 22 is_stmt 0 view .LVU95
 310 0038 A36A     		ldr	r3, [r4, #40]
 376:lvgl/src/misc/lv_anim.c ****                 }
 311              		.loc 1 376 34 view .LVU96
 312 003a 0344     		add	r3, r3, r0
 313 003c A362     		str	r3, [r4, #40]
 314              	.LVL24:
 315              	.L23:
 376:lvgl/src/misc/lv_anim.c ****                 }
 316              		.loc 1 376 34 view .LVU97
 317              	.LBE4:
 378:lvgl/src/misc/lv_anim.c ****                 a->start_cb_called = 1;
 318              		.loc 1 378 17 is_stmt 1 view .LVU98
 378:lvgl/src/misc/lv_anim.c ****                 a->start_cb_called = 1;
 319              		.loc 1 378 21 is_stmt 0 view .LVU99
 320 003e A368     		ldr	r3, [r4, #8]
 378:lvgl/src/misc/lv_anim.c ****                 a->start_cb_called = 1;
 321              		.loc 1 378 19 view .LVU100
 322 0040 0BB1     		cbz	r3, .L24
 378:lvgl/src/misc/lv_anim.c ****                 a->start_cb_called = 1;
 323              		.loc 1 378 33 is_stmt 1 discriminator 1 view .LVU101
 324 0042 2046     		mov	r0, r4
 325 0044 9847     		blx	r3
 326              	.LVL25:
 327              	.L24:
 379:lvgl/src/misc/lv_anim.c ****             }
 328              		.loc 1 379 17 view .LVU102
 379:lvgl/src/misc/lv_anim.c ****             }
 329              		.loc 1 379 36 is_stmt 0 view .LVU103
 330 0046 94F84230 		ldrb	r3, [r4, #66]	@ zero_extendqisi2
 331 004a 43F00803 		orr	r3, r3, #8
 332 004e 84F84230 		strb	r3, [r4, #66]
 333 0052 27E0     		b	.L22
 334              	.LVL26:
 335              	.L26:
 336              	.LBB5:
 395:lvgl/src/misc/lv_anim.c ****                     anim_ready_handler(a);
 337              		.loc 1 395 17 is_stmt 1 view .LVU104
 395:lvgl/src/misc/lv_anim.c ****                     anim_ready_handler(a);
 338              		.loc 1 395 21 is_stmt 0 view .LVU105
 339 0054 226B     		ldr	r2, [r4, #48]
 395:lvgl/src/misc/lv_anim.c ****                     anim_ready_handler(a);
 340              		.loc 1 395 36 view .LVU106
 341 0056 E36A     		ldr	r3, [r4, #44]
 395:lvgl/src/misc/lv_anim.c ****                     anim_ready_handler(a);
 342              		.loc 1 395 19 view .LVU107
 343 0058 9A42     		cmp	r2, r3
 344 005a 3ADA     		bge	.L31
 345              	.LVL27:
 346              	.L21:
 395:lvgl/src/misc/lv_anim.c ****                     anim_ready_handler(a);
 347              		.loc 1 395 19 view .LVU108
ARM GAS  /var/folders/21/t9g5rlb91ys800n5npymflf80000gn/T//ccRyq8Ko.s 			page 17


 348              	.LBE5:
 349              	.LBE3:
 403:lvgl/src/misc/lv_anim.c ****             a = _lv_ll_get_head(&LV_GC_ROOT(_lv_anim_ll));
 350              		.loc 1 403 9 is_stmt 1 view .LVU109
 403:lvgl/src/misc/lv_anim.c ****             a = _lv_ll_get_head(&LV_GC_ROOT(_lv_anim_ll));
 351              		.loc 1 403 12 is_stmt 0 view .LVU110
 352 005c 274B     		ldr	r3, .L34+12
 353 005e 1B78     		ldrb	r3, [r3]	@ zero_extendqisi2
 403:lvgl/src/misc/lv_anim.c ****             a = _lv_ll_get_head(&LV_GC_ROOT(_lv_anim_ll));
 354              		.loc 1 403 11 view .LVU111
 355 0060 002B     		cmp	r3, #0
 356 0062 3AD0     		beq	.L27
 404:lvgl/src/misc/lv_anim.c ****         else
 357              		.loc 1 404 13 is_stmt 1 view .LVU112
 404:lvgl/src/misc/lv_anim.c ****         else
 358              		.loc 1 404 17 is_stmt 0 view .LVU113
 359 0064 2448     		ldr	r0, .L34+8
 360 0066 FFF7FEFF 		bl	_lv_ll_get_head
 361              	.LVL28:
 362 006a 0446     		mov	r4, r0
 363              	.LVL29:
 364              	.L20:
 360:lvgl/src/misc/lv_anim.c ****         /*It can be set by `lv_anim_del()` typically in `end_cb`. If set then an animation delete
 365              		.loc 1 360 13 is_stmt 1 view .LVU114
 366 006c 002C     		cmp	r4, #0
 367 006e 3AD0     		beq	.L32
 365:lvgl/src/misc/lv_anim.c **** 
 368              		.loc 1 365 9 view .LVU115
 365:lvgl/src/misc/lv_anim.c **** 
 369              		.loc 1 365 27 is_stmt 0 view .LVU116
 370 0070 224B     		ldr	r3, .L34+12
 371 0072 0022     		movs	r2, #0
 372 0074 1A70     		strb	r2, [r3]
 367:lvgl/src/misc/lv_anim.c ****             a->run_round = anim_run_round; /*The list readying might be reset so need to know which
 373              		.loc 1 367 9 is_stmt 1 view .LVU117
 367:lvgl/src/misc/lv_anim.c ****             a->run_round = anim_run_round; /*The list readying might be reset so need to know which
 374              		.loc 1 367 13 is_stmt 0 view .LVU118
 375 0076 94F84230 		ldrb	r3, [r4, #66]	@ zero_extendqisi2
 376 007a C3F38003 		ubfx	r3, r3, #2, #1
 367:lvgl/src/misc/lv_anim.c ****             a->run_round = anim_run_round; /*The list readying might be reset so need to know which
 377              		.loc 1 367 25 view .LVU119
 378 007e 1D4A     		ldr	r2, .L34+4
 379 0080 1278     		ldrb	r2, [r2]	@ zero_extendqisi2
 367:lvgl/src/misc/lv_anim.c ****             a->run_round = anim_run_round; /*The list readying might be reset so need to know which
 380              		.loc 1 367 11 view .LVU120
 381 0082 9342     		cmp	r3, r2
 382 0084 EAD0     		beq	.L21
 383              	.LBB7:
 368:lvgl/src/misc/lv_anim.c **** 
 384              		.loc 1 368 13 is_stmt 1 view .LVU121
 368:lvgl/src/misc/lv_anim.c **** 
 385              		.loc 1 368 26 is_stmt 0 view .LVU122
 386 0086 94F84230 		ldrb	r3, [r4, #66]	@ zero_extendqisi2
 387 008a 62F38203 		bfi	r3, r2, #2, #1
 388 008e 84F84230 		strb	r3, [r4, #66]
 371:lvgl/src/misc/lv_anim.c ****             if(!a->start_cb_called && a->act_time <= 0 && new_act_time >= 0) {
 389              		.loc 1 371 13 is_stmt 1 view .LVU123
ARM GAS  /var/folders/21/t9g5rlb91ys800n5npymflf80000gn/T//ccRyq8Ko.s 			page 18


 371:lvgl/src/misc/lv_anim.c ****             if(!a->start_cb_called && a->act_time <= 0 && new_act_time >= 0) {
 390              		.loc 1 371 37 is_stmt 0 view .LVU124
 391 0092 236B     		ldr	r3, [r4, #48]
 371:lvgl/src/misc/lv_anim.c ****             if(!a->start_cb_called && a->act_time <= 0 && new_act_time >= 0) {
 392              		.loc 1 371 48 view .LVU125
 393 0094 5919     		adds	r1, r3, r5
 394              	.LVL30:
 372:lvgl/src/misc/lv_anim.c ****                 if(a->early_apply == 0 && a->get_value_cb) {
 395              		.loc 1 372 13 is_stmt 1 view .LVU126
 372:lvgl/src/misc/lv_anim.c ****                 if(a->early_apply == 0 && a->get_value_cb) {
 396              		.loc 1 372 16 is_stmt 0 view .LVU127
 397 0096 94F84220 		ldrb	r2, [r4, #66]	@ zero_extendqisi2
 372:lvgl/src/misc/lv_anim.c ****                 if(a->early_apply == 0 && a->get_value_cb) {
 398              		.loc 1 372 15 view .LVU128
 399 009a 12F0080F 		tst	r2, #8
 400 009e 01D1     		bne	.L22
 372:lvgl/src/misc/lv_anim.c ****                 if(a->early_apply == 0 && a->get_value_cb) {
 401              		.loc 1 372 36 discriminator 1 view .LVU129
 402 00a0 002B     		cmp	r3, #0
 403 00a2 BDDD     		ble	.L33
 404              	.LVL31:
 405              	.L22:
 381:lvgl/src/misc/lv_anim.c ****             if(a->act_time >= 0) {
 406              		.loc 1 381 13 is_stmt 1 view .LVU130
 381:lvgl/src/misc/lv_anim.c ****             if(a->act_time >= 0) {
 407              		.loc 1 381 14 is_stmt 0 view .LVU131
 408 00a4 236B     		ldr	r3, [r4, #48]
 381:lvgl/src/misc/lv_anim.c ****             if(a->act_time >= 0) {
 409              		.loc 1 381 25 view .LVU132
 410 00a6 2B44     		add	r3, r3, r5
 411 00a8 2363     		str	r3, [r4, #48]
 382:lvgl/src/misc/lv_anim.c ****                 if(a->act_time > a->time) a->act_time = a->time;
 412              		.loc 1 382 13 is_stmt 1 view .LVU133
 382:lvgl/src/misc/lv_anim.c ****                 if(a->act_time > a->time) a->act_time = a->time;
 413              		.loc 1 382 15 is_stmt 0 view .LVU134
 414 00aa 002B     		cmp	r3, #0
 415 00ac D6DB     		blt	.L21
 416              	.LBB6:
 383:lvgl/src/misc/lv_anim.c **** 
 417              		.loc 1 383 17 is_stmt 1 view .LVU135
 383:lvgl/src/misc/lv_anim.c **** 
 418              		.loc 1 383 35 is_stmt 0 view .LVU136
 419 00ae E26A     		ldr	r2, [r4, #44]
 383:lvgl/src/misc/lv_anim.c **** 
 420              		.loc 1 383 19 view .LVU137
 421 00b0 9342     		cmp	r3, r2
 422 00b2 00DD     		ble	.L25
 383:lvgl/src/misc/lv_anim.c **** 
 423              		.loc 1 383 43 is_stmt 1 discriminator 1 view .LVU138
 383:lvgl/src/misc/lv_anim.c **** 
 424              		.loc 1 383 55 is_stmt 0 discriminator 1 view .LVU139
 425 00b4 2263     		str	r2, [r4, #48]
 426              	.L25:
 385:lvgl/src/misc/lv_anim.c ****                 new_value = a->path_cb(a);
 427              		.loc 1 385 17 is_stmt 1 view .LVU140
 386:lvgl/src/misc/lv_anim.c **** 
 428              		.loc 1 386 17 view .LVU141
ARM GAS  /var/folders/21/t9g5rlb91ys800n5npymflf80000gn/T//ccRyq8Ko.s 			page 19


 386:lvgl/src/misc/lv_anim.c **** 
 429              		.loc 1 386 30 is_stmt 0 view .LVU142
 430 00b6 E369     		ldr	r3, [r4, #28]
 386:lvgl/src/misc/lv_anim.c **** 
 431              		.loc 1 386 29 view .LVU143
 432 00b8 2046     		mov	r0, r4
 433 00ba 9847     		blx	r3
 434              	.LVL32:
 388:lvgl/src/misc/lv_anim.c ****                     a->current_value = new_value;
 435              		.loc 1 388 17 is_stmt 1 view .LVU144
 388:lvgl/src/misc/lv_anim.c ****                     a->current_value = new_value;
 436              		.loc 1 388 34 is_stmt 0 view .LVU145
 437 00bc 636A     		ldr	r3, [r4, #36]
 388:lvgl/src/misc/lv_anim.c ****                     a->current_value = new_value;
 438              		.loc 1 388 19 view .LVU146
 439 00be 8342     		cmp	r3, r0
 440 00c0 C8D0     		beq	.L26
 389:lvgl/src/misc/lv_anim.c ****                     /*Apply the calculated value*/
 441              		.loc 1 389 21 is_stmt 1 view .LVU147
 389:lvgl/src/misc/lv_anim.c ****                     /*Apply the calculated value*/
 442              		.loc 1 389 38 is_stmt 0 view .LVU148
 443 00c2 6062     		str	r0, [r4, #36]
 391:lvgl/src/misc/lv_anim.c ****                 }
 444              		.loc 1 391 21 is_stmt 1 view .LVU149
 391:lvgl/src/misc/lv_anim.c ****                 }
 445              		.loc 1 391 25 is_stmt 0 view .LVU150
 446 00c4 6368     		ldr	r3, [r4, #4]
 391:lvgl/src/misc/lv_anim.c ****                 }
 447              		.loc 1 391 23 view .LVU151
 448 00c6 002B     		cmp	r3, #0
 449 00c8 C4D0     		beq	.L26
 391:lvgl/src/misc/lv_anim.c ****                 }
 450              		.loc 1 391 36 is_stmt 1 discriminator 1 view .LVU152
 451 00ca 0146     		mov	r1, r0
 452 00cc 2068     		ldr	r0, [r4]
 453              	.LVL33:
 391:lvgl/src/misc/lv_anim.c ****                 }
 454              		.loc 1 391 36 is_stmt 0 discriminator 1 view .LVU153
 455 00ce 9847     		blx	r3
 456              	.LVL34:
 391:lvgl/src/misc/lv_anim.c ****                 }
 457              		.loc 1 391 36 discriminator 1 view .LVU154
 458 00d0 C0E7     		b	.L26
 459              	.L31:
 396:lvgl/src/misc/lv_anim.c ****                 }
 460              		.loc 1 396 21 is_stmt 1 view .LVU155
 461 00d2 2046     		mov	r0, r4
 462 00d4 FFF7FEFF 		bl	anim_ready_handler
 463              	.LVL35:
 464 00d8 C0E7     		b	.L21
 465              	.LVL36:
 466              	.L27:
 396:lvgl/src/misc/lv_anim.c ****                 }
 467              		.loc 1 396 21 is_stmt 0 view .LVU156
 468              	.LBE6:
 469              	.LBE7:
 406:lvgl/src/misc/lv_anim.c ****     }
ARM GAS  /var/folders/21/t9g5rlb91ys800n5npymflf80000gn/T//ccRyq8Ko.s 			page 20


 470              		.loc 1 406 13 is_stmt 1 view .LVU157
 406:lvgl/src/misc/lv_anim.c ****     }
 471              		.loc 1 406 17 is_stmt 0 view .LVU158
 472 00da 2146     		mov	r1, r4
 473 00dc 0648     		ldr	r0, .L34+8
 474 00de FFF7FEFF 		bl	_lv_ll_get_next
 475              	.LVL37:
 476 00e2 0446     		mov	r4, r0
 477              	.LVL38:
 406:lvgl/src/misc/lv_anim.c ****     }
 478              		.loc 1 406 17 view .LVU159
 479 00e4 C2E7     		b	.L20
 480              	.L32:
 409:lvgl/src/misc/lv_anim.c **** }
 481              		.loc 1 409 5 is_stmt 1 view .LVU160
 409:lvgl/src/misc/lv_anim.c **** }
 482              		.loc 1 409 22 is_stmt 0 view .LVU161
 483 00e6 FFF7FEFF 		bl	lv_tick_get
 484              	.LVL39:
 409:lvgl/src/misc/lv_anim.c **** }
 485              		.loc 1 409 20 view .LVU162
 486 00ea 014B     		ldr	r3, .L34
 487 00ec 1860     		str	r0, [r3]
 410:lvgl/src/misc/lv_anim.c **** 
 488              		.loc 1 410 1 view .LVU163
 489 00ee 38BD     		pop	{r3, r4, r5, pc}
 490              	.LVL40:
 491              	.L35:
 410:lvgl/src/misc/lv_anim.c **** 
 492              		.loc 1 410 1 view .LVU164
 493              		.align	2
 494              	.L34:
 495 00f0 00000000 		.word	last_timer_run
 496 00f4 00000000 		.word	anim_run_round
 497 00f8 00000000 		.word	_lv_anim_ll
 498 00fc 00000000 		.word	anim_list_changed
 499              		.cfi_endproc
 500              	.LFE63:
 502              		.section	.text.lv_anim_path_linear,"ax",%progbits
 503              		.align	1
 504              		.global	lv_anim_path_linear
 505              		.syntax unified
 506              		.thumb
 507              		.thumb_func
 509              	lv_anim_path_linear:
 510              	.LVL41:
 511              	.LFB56:
 212:lvgl/src/misc/lv_anim.c ****     /*Calculate the current step*/
 512              		.loc 1 212 1 is_stmt 1 view -0
 513              		.cfi_startproc
 514              		@ args = 0, pretend = 0, frame = 0
 515              		@ frame_needed = 0, uses_anonymous_args = 0
 212:lvgl/src/misc/lv_anim.c ****     /*Calculate the current step*/
 516              		.loc 1 212 1 is_stmt 0 view .LVU166
 517 0000 10B5     		push	{r4, lr}
 518              	.LCFI3:
 519              		.cfi_def_cfa_offset 8
ARM GAS  /var/folders/21/t9g5rlb91ys800n5npymflf80000gn/T//ccRyq8Ko.s 			page 21


 520              		.cfi_offset 4, -8
 521              		.cfi_offset 14, -4
 522 0002 82B0     		sub	sp, sp, #8
 523              	.LCFI4:
 524              		.cfi_def_cfa_offset 16
 525 0004 0446     		mov	r4, r0
 214:lvgl/src/misc/lv_anim.c **** 
 526              		.loc 1 214 5 is_stmt 1 view .LVU167
 214:lvgl/src/misc/lv_anim.c **** 
 527              		.loc 1 214 20 is_stmt 0 view .LVU168
 528 0006 4FF48063 		mov	r3, #1024
 529 000a 0093     		str	r3, [sp]
 530 000c 0023     		movs	r3, #0
 531 000e C26A     		ldr	r2, [r0, #44]
 532 0010 1946     		mov	r1, r3
 533 0012 006B     		ldr	r0, [r0, #48]
 534              	.LVL42:
 214:lvgl/src/misc/lv_anim.c **** 
 535              		.loc 1 214 20 view .LVU169
 536 0014 FFF7FEFF 		bl	lv_map
 537              	.LVL43:
 218:lvgl/src/misc/lv_anim.c ****     new_value = step * (a->end_value - a->start_value);
 538              		.loc 1 218 5 is_stmt 1 view .LVU170
 219:lvgl/src/misc/lv_anim.c ****     new_value = new_value >> LV_ANIM_RES_SHIFT;
 539              		.loc 1 219 5 view .LVU171
 219:lvgl/src/misc/lv_anim.c ****     new_value = new_value >> LV_ANIM_RES_SHIFT;
 540              		.loc 1 219 26 is_stmt 0 view .LVU172
 541 0018 A36A     		ldr	r3, [r4, #40]
 219:lvgl/src/misc/lv_anim.c ****     new_value = new_value >> LV_ANIM_RES_SHIFT;
 542              		.loc 1 219 41 view .LVU173
 543 001a 226A     		ldr	r2, [r4, #32]
 219:lvgl/src/misc/lv_anim.c ****     new_value = new_value >> LV_ANIM_RES_SHIFT;
 544              		.loc 1 219 38 view .LVU174
 545 001c 9B1A     		subs	r3, r3, r2
 219:lvgl/src/misc/lv_anim.c ****     new_value = new_value >> LV_ANIM_RES_SHIFT;
 546              		.loc 1 219 15 view .LVU175
 547 001e 03FB00F0 		mul	r0, r3, r0
 548              	.LVL44:
 220:lvgl/src/misc/lv_anim.c ****     new_value += a->start_value;
 549              		.loc 1 220 5 is_stmt 1 view .LVU176
 221:lvgl/src/misc/lv_anim.c **** 
 550              		.loc 1 221 5 view .LVU177
 223:lvgl/src/misc/lv_anim.c **** }
 551              		.loc 1 223 5 view .LVU178
 224:lvgl/src/misc/lv_anim.c **** 
 552              		.loc 1 224 1 is_stmt 0 view .LVU179
 553 0022 02EBA020 		add	r0, r2, r0, asr #10
 554              	.LVL45:
 224:lvgl/src/misc/lv_anim.c **** 
 555              		.loc 1 224 1 view .LVU180
 556 0026 02B0     		add	sp, sp, #8
 557              	.LCFI5:
 558              		.cfi_def_cfa_offset 8
 559              		@ sp needed
 560 0028 10BD     		pop	{r4, pc}
 224:lvgl/src/misc/lv_anim.c **** 
 561              		.loc 1 224 1 view .LVU181
ARM GAS  /var/folders/21/t9g5rlb91ys800n5npymflf80000gn/T//ccRyq8Ko.s 			page 22


 562              		.cfi_endproc
 563              	.LFE56:
 565              		.section	.text._lv_anim_core_init,"ax",%progbits
 566              		.align	1
 567              		.global	_lv_anim_core_init
 568              		.syntax unified
 569              		.thumb
 570              		.thumb_func
 572              	_lv_anim_core_init:
 573              	.LFB45:
  57:lvgl/src/misc/lv_anim.c ****     _lv_ll_init(&LV_GC_ROOT(_lv_anim_ll), sizeof(lv_anim_t));
 574              		.loc 1 57 1 is_stmt 1 view -0
 575              		.cfi_startproc
 576              		@ args = 0, pretend = 0, frame = 0
 577              		@ frame_needed = 0, uses_anonymous_args = 0
 578 0000 08B5     		push	{r3, lr}
 579              	.LCFI6:
 580              		.cfi_def_cfa_offset 8
 581              		.cfi_offset 3, -8
 582              		.cfi_offset 14, -4
  58:lvgl/src/misc/lv_anim.c ****     _lv_anim_tmr = lv_timer_create(anim_timer, LV_DISP_DEF_REFR_PERIOD, NULL);
 583              		.loc 1 58 5 view .LVU183
 584 0002 4421     		movs	r1, #68
 585 0004 0748     		ldr	r0, .L40
 586 0006 FFF7FEFF 		bl	_lv_ll_init
 587              	.LVL46:
  59:lvgl/src/misc/lv_anim.c ****     anim_mark_list_change(); /*Turn off the animation timer*/
 588              		.loc 1 59 5 view .LVU184
  59:lvgl/src/misc/lv_anim.c ****     anim_mark_list_change(); /*Turn off the animation timer*/
 589              		.loc 1 59 20 is_stmt 0 view .LVU185
 590 000a 0022     		movs	r2, #0
 591 000c 1E21     		movs	r1, #30
 592 000e 0648     		ldr	r0, .L40+4
 593 0010 FFF7FEFF 		bl	lv_timer_create
 594              	.LVL47:
  59:lvgl/src/misc/lv_anim.c ****     anim_mark_list_change(); /*Turn off the animation timer*/
 595              		.loc 1 59 18 view .LVU186
 596 0014 054B     		ldr	r3, .L40+8
 597 0016 1860     		str	r0, [r3]
  60:lvgl/src/misc/lv_anim.c ****     anim_list_changed = false;
 598              		.loc 1 60 5 is_stmt 1 view .LVU187
 599 0018 FFF7FEFF 		bl	anim_mark_list_change
 600              	.LVL48:
  61:lvgl/src/misc/lv_anim.c **** }
 601              		.loc 1 61 5 view .LVU188
  61:lvgl/src/misc/lv_anim.c **** }
 602              		.loc 1 61 23 is_stmt 0 view .LVU189
 603 001c 044B     		ldr	r3, .L40+12
 604 001e 0022     		movs	r2, #0
 605 0020 1A70     		strb	r2, [r3]
  62:lvgl/src/misc/lv_anim.c **** 
 606              		.loc 1 62 1 view .LVU190
 607 0022 08BD     		pop	{r3, pc}
 608              	.L41:
 609              		.align	2
 610              	.L40:
 611 0024 00000000 		.word	_lv_anim_ll
ARM GAS  /var/folders/21/t9g5rlb91ys800n5npymflf80000gn/T//ccRyq8Ko.s 			page 23


 612 0028 00000000 		.word	anim_timer
 613 002c 00000000 		.word	_lv_anim_tmr
 614 0030 00000000 		.word	anim_list_changed
 615              		.cfi_endproc
 616              	.LFE45:
 618              		.section	.text.lv_anim_init,"ax",%progbits
 619              		.align	1
 620              		.global	lv_anim_init
 621              		.syntax unified
 622              		.thumb
 623              		.thumb_func
 625              	lv_anim_init:
 626              	.LVL49:
 627              	.LFB46:
  65:lvgl/src/misc/lv_anim.c ****     lv_memset_00(a, sizeof(lv_anim_t));
 628              		.loc 1 65 1 is_stmt 1 view -0
 629              		.cfi_startproc
 630              		@ args = 0, pretend = 0, frame = 0
 631              		@ frame_needed = 0, uses_anonymous_args = 0
  65:lvgl/src/misc/lv_anim.c ****     lv_memset_00(a, sizeof(lv_anim_t));
 632              		.loc 1 65 1 is_stmt 0 view .LVU192
 633 0000 10B5     		push	{r4, lr}
 634              	.LCFI7:
 635              		.cfi_def_cfa_offset 8
 636              		.cfi_offset 4, -8
 637              		.cfi_offset 14, -4
 638 0002 0446     		mov	r4, r0
  66:lvgl/src/misc/lv_anim.c ****     a->time = 500;
 639              		.loc 1 66 5 is_stmt 1 view .LVU193
 640 0004 4421     		movs	r1, #68
 641 0006 FFF7FEFF 		bl	lv_memset_00
 642              	.LVL50:
  67:lvgl/src/misc/lv_anim.c ****     a->start_value = 0;
 643              		.loc 1 67 5 view .LVU194
  67:lvgl/src/misc/lv_anim.c ****     a->start_value = 0;
 644              		.loc 1 67 13 is_stmt 0 view .LVU195
 645 000a 4FF4FA73 		mov	r3, #500
 646 000e E362     		str	r3, [r4, #44]
  68:lvgl/src/misc/lv_anim.c ****     a->end_value = 100;
 647              		.loc 1 68 5 is_stmt 1 view .LVU196
  68:lvgl/src/misc/lv_anim.c ****     a->end_value = 100;
 648              		.loc 1 68 20 is_stmt 0 view .LVU197
 649 0010 0023     		movs	r3, #0
 650 0012 2362     		str	r3, [r4, #32]
  69:lvgl/src/misc/lv_anim.c ****     a->repeat_cnt = 1;
 651              		.loc 1 69 5 is_stmt 1 view .LVU198
  69:lvgl/src/misc/lv_anim.c ****     a->repeat_cnt = 1;
 652              		.loc 1 69 18 is_stmt 0 view .LVU199
 653 0014 6423     		movs	r3, #100
 654 0016 A362     		str	r3, [r4, #40]
  70:lvgl/src/misc/lv_anim.c ****     a->path_cb = lv_anim_path_linear;
 655              		.loc 1 70 5 is_stmt 1 view .LVU200
  70:lvgl/src/misc/lv_anim.c ****     a->path_cb = lv_anim_path_linear;
 656              		.loc 1 70 19 is_stmt 0 view .LVU201
 657 0018 0123     		movs	r3, #1
 658 001a A4F84030 		strh	r3, [r4, #64]	@ movhi
  71:lvgl/src/misc/lv_anim.c ****     a->early_apply = 1;
ARM GAS  /var/folders/21/t9g5rlb91ys800n5npymflf80000gn/T//ccRyq8Ko.s 			page 24


 659              		.loc 1 71 5 is_stmt 1 view .LVU202
  71:lvgl/src/misc/lv_anim.c ****     a->early_apply = 1;
 660              		.loc 1 71 16 is_stmt 0 view .LVU203
 661 001e 044B     		ldr	r3, .L44
 662 0020 E361     		str	r3, [r4, #28]
  72:lvgl/src/misc/lv_anim.c **** }
 663              		.loc 1 72 5 is_stmt 1 view .LVU204
  72:lvgl/src/misc/lv_anim.c **** }
 664              		.loc 1 72 20 is_stmt 0 view .LVU205
 665 0022 94F84230 		ldrb	r3, [r4, #66]	@ zero_extendqisi2
 666 0026 43F00103 		orr	r3, r3, #1
 667 002a 84F84230 		strb	r3, [r4, #66]
  73:lvgl/src/misc/lv_anim.c **** 
 668              		.loc 1 73 1 view .LVU206
 669 002e 10BD     		pop	{r4, pc}
 670              	.LVL51:
 671              	.L45:
  73:lvgl/src/misc/lv_anim.c **** 
 672              		.loc 1 73 1 view .LVU207
 673              		.align	2
 674              	.L44:
 675 0030 00000000 		.word	lv_anim_path_linear
 676              		.cfi_endproc
 677              	.LFE46:
 679              		.section	.text.lv_anim_get_playtime,"ax",%progbits
 680              		.align	1
 681              		.global	lv_anim_get_playtime
 682              		.syntax unified
 683              		.thumb
 684              		.thumb_func
 686              	lv_anim_get_playtime:
 687              	.LVL52:
 688              	.LFB48:
 117:lvgl/src/misc/lv_anim.c ****     uint32_t playtime = LV_ANIM_PLAYTIME_INFINITE;
 689              		.loc 1 117 1 is_stmt 1 view -0
 690              		.cfi_startproc
 691              		@ args = 0, pretend = 0, frame = 0
 692              		@ frame_needed = 0, uses_anonymous_args = 0
 693              		@ link register save eliminated.
 118:lvgl/src/misc/lv_anim.c **** 
 694              		.loc 1 118 5 view .LVU209
 120:lvgl/src/misc/lv_anim.c ****         return playtime;
 695              		.loc 1 120 5 view .LVU210
 120:lvgl/src/misc/lv_anim.c ****         return playtime;
 696              		.loc 1 120 9 is_stmt 0 view .LVU211
 697 0000 B0F840C0 		ldrh	ip, [r0, #64]
 120:lvgl/src/misc/lv_anim.c ****         return playtime;
 698              		.loc 1 120 7 view .LVU212
 699 0004 4FF6FF72 		movw	r2, #65535
 700 0008 9445     		cmp	ip, r2
 701 000a 1DD0     		beq	.L49
 117:lvgl/src/misc/lv_anim.c ****     uint32_t playtime = LV_ANIM_PLAYTIME_INFINITE;
 702              		.loc 1 117 1 view .LVU213
 703 000c 10B4     		push	{r4}
 704              	.LCFI8:
 705              		.cfi_def_cfa_offset 4
 706              		.cfi_offset 4, -4
ARM GAS  /var/folders/21/t9g5rlb91ys800n5npymflf80000gn/T//ccRyq8Ko.s 			page 25


 707 000e 0346     		mov	r3, r0
 123:lvgl/src/misc/lv_anim.c ****     if(a->playback_now == 0)
 708              		.loc 1 123 5 is_stmt 1 view .LVU214
 123:lvgl/src/misc/lv_anim.c ****     if(a->playback_now == 0)
 709              		.loc 1 123 17 is_stmt 0 view .LVU215
 710 0010 C16A     		ldr	r1, [r0, #44]
 123:lvgl/src/misc/lv_anim.c ****     if(a->playback_now == 0)
 711              		.loc 1 123 27 view .LVU216
 712 0012 006B     		ldr	r0, [r0, #48]
 713              	.LVL53:
 123:lvgl/src/misc/lv_anim.c ****     if(a->playback_now == 0)
 714              		.loc 1 123 24 view .LVU217
 715 0014 081A     		subs	r0, r1, r0
 716              	.LVL54:
 124:lvgl/src/misc/lv_anim.c ****         playtime += a->playback_delay + a->playback_time;
 717              		.loc 1 124 5 is_stmt 1 view .LVU218
 124:lvgl/src/misc/lv_anim.c ****         playtime += a->playback_delay + a->playback_time;
 718              		.loc 1 124 24 is_stmt 0 view .LVU219
 719 0016 93F84220 		ldrb	r2, [r3, #66]	@ zero_extendqisi2
 124:lvgl/src/misc/lv_anim.c ****         playtime += a->playback_delay + a->playback_time;
 720              		.loc 1 124 7 view .LVU220
 721 001a 12F0020F 		tst	r2, #2
 722 001e 03D1     		bne	.L48
 125:lvgl/src/misc/lv_anim.c **** 
 723              		.loc 1 125 9 is_stmt 1 view .LVU221
 125:lvgl/src/misc/lv_anim.c **** 
 724              		.loc 1 125 22 is_stmt 0 view .LVU222
 725 0020 5A6B     		ldr	r2, [r3, #52]
 125:lvgl/src/misc/lv_anim.c **** 
 726              		.loc 1 125 39 view .LVU223
 727 0022 9C6B     		ldr	r4, [r3, #56]
 728 0024 2244     		add	r2, r2, r4
 125:lvgl/src/misc/lv_anim.c **** 
 729              		.loc 1 125 18 view .LVU224
 730 0026 1044     		add	r0, r0, r2
 731              	.LVL55:
 732              	.L48:
 127:lvgl/src/misc/lv_anim.c ****         return playtime;
 733              		.loc 1 127 5 is_stmt 1 view .LVU225
 127:lvgl/src/misc/lv_anim.c ****         return playtime;
 734              		.loc 1 127 7 is_stmt 0 view .LVU226
 735 0028 BCF1010F 		cmp	ip, #1
 736 002c 09D9     		bls	.L46
 130:lvgl/src/misc/lv_anim.c ****                  a->playback_delay + a->playback_time) *
 737              		.loc 1 130 5 is_stmt 1 view .LVU227
 130:lvgl/src/misc/lv_anim.c ****                  a->playback_delay + a->playback_time) *
 738              		.loc 1 130 19 is_stmt 0 view .LVU228
 739 002e DA6B     		ldr	r2, [r3, #60]
 130:lvgl/src/misc/lv_anim.c ****                  a->playback_delay + a->playback_time) *
 740              		.loc 1 130 34 view .LVU229
 741 0030 0A44     		add	r2, r2, r1
 131:lvgl/src/misc/lv_anim.c ****                 (a->repeat_cnt - 1);
 742              		.loc 1 131 19 view .LVU230
 743 0032 596B     		ldr	r1, [r3, #52]
 130:lvgl/src/misc/lv_anim.c ****                  a->playback_delay + a->playback_time) *
 744              		.loc 1 130 44 view .LVU231
 745 0034 0A44     		add	r2, r2, r1
ARM GAS  /var/folders/21/t9g5rlb91ys800n5npymflf80000gn/T//ccRyq8Ko.s 			page 26


 131:lvgl/src/misc/lv_anim.c ****                 (a->repeat_cnt - 1);
 746              		.loc 1 131 39 view .LVU232
 747 0036 9B6B     		ldr	r3, [r3, #56]
 748              	.LVL56:
 131:lvgl/src/misc/lv_anim.c ****                 (a->repeat_cnt - 1);
 749              		.loc 1 131 36 view .LVU233
 750 0038 1A44     		add	r2, r2, r3
 132:lvgl/src/misc/lv_anim.c **** 
 751              		.loc 1 132 32 view .LVU234
 752 003a 0CF1FF33 		add	r3, ip, #-1
 130:lvgl/src/misc/lv_anim.c ****                  a->playback_delay + a->playback_time) *
 753              		.loc 1 130 14 view .LVU235
 754 003e 03FB0200 		mla	r0, r3, r2, r0
 755              	.LVL57:
 134:lvgl/src/misc/lv_anim.c **** }
 756              		.loc 1 134 5 is_stmt 1 view .LVU236
 757              	.L46:
 135:lvgl/src/misc/lv_anim.c **** 
 758              		.loc 1 135 1 is_stmt 0 view .LVU237
 759 0042 5DF8044B 		ldr	r4, [sp], #4
 760              	.LCFI9:
 761              		.cfi_restore 4
 762              		.cfi_def_cfa_offset 0
 763 0046 7047     		bx	lr
 764              	.LVL58:
 765              	.L49:
 121:lvgl/src/misc/lv_anim.c **** 
 766              		.loc 1 121 16 view .LVU238
 767 0048 4FF0FF30 		mov	r0, #-1
 768              	.LVL59:
 135:lvgl/src/misc/lv_anim.c **** 
 769              		.loc 1 135 1 view .LVU239
 770 004c 7047     		bx	lr
 771              		.cfi_endproc
 772              	.LFE48:
 774              		.section	.text.lv_anim_del,"ax",%progbits
 775              		.align	1
 776              		.global	lv_anim_del
 777              		.syntax unified
 778              		.thumb
 779              		.thumb_func
 781              	lv_anim_del:
 782              	.LVL60:
 783              	.LFB49:
 138:lvgl/src/misc/lv_anim.c ****     lv_anim_t * a;
 784              		.loc 1 138 1 is_stmt 1 view -0
 785              		.cfi_startproc
 786              		@ args = 0, pretend = 0, frame = 0
 787              		@ frame_needed = 0, uses_anonymous_args = 0
 138:lvgl/src/misc/lv_anim.c ****     lv_anim_t * a;
 788              		.loc 1 138 1 is_stmt 0 view .LVU241
 789 0000 2DE9F041 		push	{r4, r5, r6, r7, r8, lr}
 790              	.LCFI10:
 791              		.cfi_def_cfa_offset 24
 792              		.cfi_offset 4, -24
 793              		.cfi_offset 5, -20
 794              		.cfi_offset 6, -16
ARM GAS  /var/folders/21/t9g5rlb91ys800n5npymflf80000gn/T//ccRyq8Ko.s 			page 27


 795              		.cfi_offset 7, -12
 796              		.cfi_offset 8, -8
 797              		.cfi_offset 14, -4
 798 0004 0646     		mov	r6, r0
 799 0006 0F46     		mov	r7, r1
 139:lvgl/src/misc/lv_anim.c ****     lv_anim_t * a_next;
 800              		.loc 1 139 5 is_stmt 1 view .LVU242
 140:lvgl/src/misc/lv_anim.c ****     bool del = false;
 801              		.loc 1 140 5 view .LVU243
 141:lvgl/src/misc/lv_anim.c ****     a        = _lv_ll_get_head(&LV_GC_ROOT(_lv_anim_ll));
 802              		.loc 1 141 5 view .LVU244
 803              	.LVL61:
 142:lvgl/src/misc/lv_anim.c ****     while(a != NULL) {
 804              		.loc 1 142 5 view .LVU245
 142:lvgl/src/misc/lv_anim.c ****     while(a != NULL) {
 805              		.loc 1 142 16 is_stmt 0 view .LVU246
 806 0008 1548     		ldr	r0, .L63
 807              	.LVL62:
 142:lvgl/src/misc/lv_anim.c ****     while(a != NULL) {
 808              		.loc 1 142 16 view .LVU247
 809 000a FFF7FEFF 		bl	_lv_ll_get_head
 810              	.LVL63:
 142:lvgl/src/misc/lv_anim.c ****     while(a != NULL) {
 811              		.loc 1 142 16 view .LVU248
 812 000e 0446     		mov	r4, r0
 813              	.LVL64:
 143:lvgl/src/misc/lv_anim.c ****         /*'a' might be deleted, so get the next object while 'a' is valid*/
 814              		.loc 1 143 5 is_stmt 1 view .LVU249
 141:lvgl/src/misc/lv_anim.c ****     a        = _lv_ll_get_head(&LV_GC_ROOT(_lv_anim_ll));
 815              		.loc 1 141 10 is_stmt 0 view .LVU250
 816 0010 4FF00008 		mov	r8, #0
 143:lvgl/src/misc/lv_anim.c ****         /*'a' might be deleted, so get the next object while 'a' is valid*/
 817              		.loc 1 143 10 view .LVU251
 818 0014 04E0     		b	.L55
 819              	.LVL65:
 820              	.L56:
 147:lvgl/src/misc/lv_anim.c ****             _lv_ll_remove(&LV_GC_ROOT(_lv_anim_ll), a);
 821              		.loc 1 147 48 discriminator 3 view .LVU252
 822 0016 6368     		ldr	r3, [r4, #4]
 147:lvgl/src/misc/lv_anim.c ****             _lv_ll_remove(&LV_GC_ROOT(_lv_anim_ll), a);
 823              		.loc 1 147 43 discriminator 3 view .LVU253
 824 0018 BB42     		cmp	r3, r7
 825 001a 0DD0     		beq	.L58
 147:lvgl/src/misc/lv_anim.c ****             _lv_ll_remove(&LV_GC_ROOT(_lv_anim_ll), a);
 826              		.loc 1 147 69 discriminator 4 view .LVU254
 827 001c 67B1     		cbz	r7, .L58
 828              	.LVL66:
 829              	.L57:
 153:lvgl/src/misc/lv_anim.c ****         }
 830              		.loc 1 153 17 view .LVU255
 831 001e 2C46     		mov	r4, r5
 832              	.LVL67:
 833              	.L55:
 143:lvgl/src/misc/lv_anim.c ****         /*'a' might be deleted, so get the next object while 'a' is valid*/
 834              		.loc 1 143 13 is_stmt 1 view .LVU256
 835 0020 D4B1     		cbz	r4, .L62
 145:lvgl/src/misc/lv_anim.c **** 
ARM GAS  /var/folders/21/t9g5rlb91ys800n5npymflf80000gn/T//ccRyq8Ko.s 			page 28


 836              		.loc 1 145 9 view .LVU257
 145:lvgl/src/misc/lv_anim.c **** 
 837              		.loc 1 145 18 is_stmt 0 view .LVU258
 838 0022 2146     		mov	r1, r4
 839 0024 0E48     		ldr	r0, .L63
 840 0026 FFF7FEFF 		bl	_lv_ll_get_next
 841              	.LVL68:
 842 002a 0546     		mov	r5, r0
 843              	.LVL69:
 147:lvgl/src/misc/lv_anim.c ****             _lv_ll_remove(&LV_GC_ROOT(_lv_anim_ll), a);
 844              		.loc 1 147 9 is_stmt 1 view .LVU259
 147:lvgl/src/misc/lv_anim.c ****             _lv_ll_remove(&LV_GC_ROOT(_lv_anim_ll), a);
 845              		.loc 1 147 14 is_stmt 0 view .LVU260
 846 002c 2368     		ldr	r3, [r4]
 147:lvgl/src/misc/lv_anim.c ****             _lv_ll_remove(&LV_GC_ROOT(_lv_anim_ll), a);
 847              		.loc 1 147 11 view .LVU261
 848 002e B342     		cmp	r3, r6
 849 0030 F1D0     		beq	.L56
 147:lvgl/src/misc/lv_anim.c ****             _lv_ll_remove(&LV_GC_ROOT(_lv_anim_ll), a);
 850              		.loc 1 147 27 discriminator 2 view .LVU262
 851 0032 002E     		cmp	r6, #0
 852 0034 F3D1     		bne	.L57
 853 0036 EEE7     		b	.L56
 854              	.L58:
 148:lvgl/src/misc/lv_anim.c ****             if(a->deleted_cb != NULL) a->deleted_cb(a);
 855              		.loc 1 148 13 is_stmt 1 view .LVU263
 856 0038 2146     		mov	r1, r4
 857 003a 0948     		ldr	r0, .L63
 858              	.LVL70:
 148:lvgl/src/misc/lv_anim.c ****             if(a->deleted_cb != NULL) a->deleted_cb(a);
 859              		.loc 1 148 13 is_stmt 0 view .LVU264
 860 003c FFF7FEFF 		bl	_lv_ll_remove
 861              	.LVL71:
 149:lvgl/src/misc/lv_anim.c ****             lv_mem_free(a);
 862              		.loc 1 149 13 is_stmt 1 view .LVU265
 149:lvgl/src/misc/lv_anim.c ****             lv_mem_free(a);
 863              		.loc 1 149 17 is_stmt 0 view .LVU266
 864 0040 2369     		ldr	r3, [r4, #16]
 149:lvgl/src/misc/lv_anim.c ****             lv_mem_free(a);
 865              		.loc 1 149 15 view .LVU267
 866 0042 0BB1     		cbz	r3, .L59
 149:lvgl/src/misc/lv_anim.c ****             lv_mem_free(a);
 867              		.loc 1 149 39 is_stmt 1 discriminator 1 view .LVU268
 868 0044 2046     		mov	r0, r4
 869 0046 9847     		blx	r3
 870              	.LVL72:
 871              	.L59:
 150:lvgl/src/misc/lv_anim.c ****             anim_mark_list_change(); /*Read by `anim_timer`. It need to know if a delete occurred i
 872              		.loc 1 150 13 view .LVU269
 873 0048 2046     		mov	r0, r4
 874 004a FFF7FEFF 		bl	lv_mem_free
 875              	.LVL73:
 151:lvgl/src/misc/lv_anim.c ****                                        the linked list*/
 876              		.loc 1 151 13 view .LVU270
 877 004e FFF7FEFF 		bl	anim_mark_list_change
 878              	.LVL74:
 153:lvgl/src/misc/lv_anim.c ****         }
ARM GAS  /var/folders/21/t9g5rlb91ys800n5npymflf80000gn/T//ccRyq8Ko.s 			page 29


 879              		.loc 1 153 13 view .LVU271
 153:lvgl/src/misc/lv_anim.c ****         }
 880              		.loc 1 153 17 is_stmt 0 view .LVU272
 881 0052 4FF00108 		mov	r8, #1
 882 0056 E2E7     		b	.L57
 883              	.LVL75:
 884              	.L62:
 159:lvgl/src/misc/lv_anim.c **** }
 885              		.loc 1 159 5 is_stmt 1 view .LVU273
 160:lvgl/src/misc/lv_anim.c **** 
 886              		.loc 1 160 1 is_stmt 0 view .LVU274
 887 0058 4046     		mov	r0, r8
 888 005a BDE8F081 		pop	{r4, r5, r6, r7, r8, pc}
 889              	.LVL76:
 890              	.L64:
 160:lvgl/src/misc/lv_anim.c **** 
 891              		.loc 1 160 1 view .LVU275
 892 005e 00BF     		.align	2
 893              	.L63:
 894 0060 00000000 		.word	_lv_anim_ll
 895              		.cfi_endproc
 896              	.LFE49:
 898              		.section	.text.lv_anim_start,"ax",%progbits
 899              		.align	1
 900              		.global	lv_anim_start
 901              		.syntax unified
 902              		.thumb
 903              		.thumb_func
 905              	lv_anim_start:
 906              	.LVL77:
 907              	.LFB47:
  76:lvgl/src/misc/lv_anim.c ****     TRACE_ANIM("begin");
 908              		.loc 1 76 1 is_stmt 1 view -0
 909              		.cfi_startproc
 910              		@ args = 0, pretend = 0, frame = 0
 911              		@ frame_needed = 0, uses_anonymous_args = 0
  76:lvgl/src/misc/lv_anim.c ****     TRACE_ANIM("begin");
 912              		.loc 1 76 1 is_stmt 0 view .LVU277
 913 0000 38B5     		push	{r3, r4, r5, lr}
 914              	.LCFI11:
 915              		.cfi_def_cfa_offset 16
 916              		.cfi_offset 3, -16
 917              		.cfi_offset 4, -12
 918              		.cfi_offset 5, -8
 919              		.cfi_offset 14, -4
 920 0002 0446     		mov	r4, r0
  77:lvgl/src/misc/lv_anim.c **** 
 921              		.loc 1 77 24 is_stmt 1 view .LVU278
  80:lvgl/src/misc/lv_anim.c **** 
 922              		.loc 1 80 5 view .LVU279
  80:lvgl/src/misc/lv_anim.c **** 
 923              		.loc 1 80 9 is_stmt 0 view .LVU280
 924 0004 4168     		ldr	r1, [r0, #4]
  80:lvgl/src/misc/lv_anim.c **** 
 925              		.loc 1 80 7 view .LVU281
 926 0006 11B1     		cbz	r1, .L66
  80:lvgl/src/misc/lv_anim.c **** 
ARM GAS  /var/folders/21/t9g5rlb91ys800n5npymflf80000gn/T//ccRyq8Ko.s 			page 30


 927              		.loc 1 80 28 is_stmt 1 discriminator 1 view .LVU282
 928 0008 0068     		ldr	r0, [r0]
 929              	.LVL78:
  80:lvgl/src/misc/lv_anim.c **** 
 930              		.loc 1 80 28 is_stmt 0 discriminator 1 view .LVU283
 931 000a FFF7FEFF 		bl	lv_anim_del
 932              	.LVL79:
 933              	.L66:
  83:lvgl/src/misc/lv_anim.c ****         last_timer_run = lv_tick_get();
 934              		.loc 1 83 5 is_stmt 1 view .LVU284
  83:lvgl/src/misc/lv_anim.c ****         last_timer_run = lv_tick_get();
 935              		.loc 1 83 8 is_stmt 0 view .LVU285
 936 000e 1C48     		ldr	r0, .L76
 937 0010 FFF7FEFF 		bl	_lv_ll_is_empty
 938              	.LVL80:
  83:lvgl/src/misc/lv_anim.c ****         last_timer_run = lv_tick_get();
 939              		.loc 1 83 7 view .LVU286
 940 0014 58BB     		cbnz	r0, .L74
 941              	.L67:
  88:lvgl/src/misc/lv_anim.c ****     LV_ASSERT_MALLOC(new_anim);
 942              		.loc 1 88 5 is_stmt 1 view .LVU287
  88:lvgl/src/misc/lv_anim.c ****     LV_ASSERT_MALLOC(new_anim);
 943              		.loc 1 88 28 is_stmt 0 view .LVU288
 944 0016 1A48     		ldr	r0, .L76
 945 0018 FFF7FEFF 		bl	_lv_ll_ins_head
 946              	.LVL81:
  89:lvgl/src/misc/lv_anim.c ****     if(new_anim == NULL) return NULL;
 947              		.loc 1 89 5 is_stmt 1 view .LVU289
  89:lvgl/src/misc/lv_anim.c ****     if(new_anim == NULL) return NULL;
 948              		.loc 1 89 5 view .LVU290
 949 001c 0546     		mov	r5, r0
 950 001e 58B3     		cbz	r0, .L69
  89:lvgl/src/misc/lv_anim.c ****     if(new_anim == NULL) return NULL;
 951              		.loc 1 89 5 view .LVU291
  89:lvgl/src/misc/lv_anim.c ****     if(new_anim == NULL) return NULL;
 952              		.loc 1 89 31 view .LVU292
  90:lvgl/src/misc/lv_anim.c **** 
 953              		.loc 1 90 5 view .LVU293
  93:lvgl/src/misc/lv_anim.c ****     if(a->var == a) new_anim->var = new_anim;
 954              		.loc 1 93 5 view .LVU294
 955 0020 4422     		movs	r2, #68
 956 0022 2146     		mov	r1, r4
 957 0024 FFF7FEFF 		bl	lv_memcpy
 958              	.LVL82:
  94:lvgl/src/misc/lv_anim.c ****     new_anim->run_round = anim_run_round;
 959              		.loc 1 94 5 view .LVU295
  94:lvgl/src/misc/lv_anim.c ****     new_anim->run_round = anim_run_round;
 960              		.loc 1 94 9 is_stmt 0 view .LVU296
 961 0028 2368     		ldr	r3, [r4]
  94:lvgl/src/misc/lv_anim.c ****     new_anim->run_round = anim_run_round;
 962              		.loc 1 94 7 view .LVU297
 963 002a A342     		cmp	r3, r4
 964 002c 25D0     		beq	.L75
 965              	.L70:
  95:lvgl/src/misc/lv_anim.c **** 
 966              		.loc 1 95 5 is_stmt 1 view .LVU298
  95:lvgl/src/misc/lv_anim.c **** 
ARM GAS  /var/folders/21/t9g5rlb91ys800n5npymflf80000gn/T//ccRyq8Ko.s 			page 31


 967              		.loc 1 95 25 is_stmt 0 view .LVU299
 968 002e 95F84230 		ldrb	r3, [r5, #66]	@ zero_extendqisi2
 969 0032 144A     		ldr	r2, .L76+4
 970 0034 1278     		ldrb	r2, [r2]	@ zero_extendqisi2
 971 0036 62F38203 		bfi	r3, r2, #2, #1
 972 003a 85F84230 		strb	r3, [r5, #66]
  98:lvgl/src/misc/lv_anim.c ****         if(new_anim->get_value_cb) {
 973              		.loc 1 98 5 is_stmt 1 view .LVU300
  98:lvgl/src/misc/lv_anim.c ****         if(new_anim->get_value_cb) {
 974              		.loc 1 98 8 is_stmt 0 view .LVU301
 975 003e DBB2     		uxtb	r3, r3
  98:lvgl/src/misc/lv_anim.c ****         if(new_anim->get_value_cb) {
 976              		.loc 1 98 7 view .LVU302
 977 0040 13F0010F 		tst	r3, #1
 978 0044 0FD0     		beq	.L71
  99:lvgl/src/misc/lv_anim.c ****             int32_t v_ofs = new_anim->get_value_cb(new_anim);
 979              		.loc 1 99 9 is_stmt 1 view .LVU303
  99:lvgl/src/misc/lv_anim.c ****             int32_t v_ofs = new_anim->get_value_cb(new_anim);
 980              		.loc 1 99 20 is_stmt 0 view .LVU304
 981 0046 6B69     		ldr	r3, [r5, #20]
  99:lvgl/src/misc/lv_anim.c ****             int32_t v_ofs = new_anim->get_value_cb(new_anim);
 982              		.loc 1 99 11 view .LVU305
 983 0048 3BB1     		cbz	r3, .L72
 984              	.LBB8:
 100:lvgl/src/misc/lv_anim.c ****             new_anim->start_value += v_ofs;
 985              		.loc 1 100 13 is_stmt 1 view .LVU306
 100:lvgl/src/misc/lv_anim.c ****             new_anim->start_value += v_ofs;
 986              		.loc 1 100 29 is_stmt 0 view .LVU307
 987 004a 2846     		mov	r0, r5
 988 004c 9847     		blx	r3
 989              	.LVL83:
 101:lvgl/src/misc/lv_anim.c ****             new_anim->end_value += v_ofs;
 990              		.loc 1 101 13 is_stmt 1 view .LVU308
 101:lvgl/src/misc/lv_anim.c ****             new_anim->end_value += v_ofs;
 991              		.loc 1 101 21 is_stmt 0 view .LVU309
 992 004e 2B6A     		ldr	r3, [r5, #32]
 101:lvgl/src/misc/lv_anim.c ****             new_anim->end_value += v_ofs;
 993              		.loc 1 101 35 view .LVU310
 994 0050 0344     		add	r3, r3, r0
 995 0052 2B62     		str	r3, [r5, #32]
 102:lvgl/src/misc/lv_anim.c ****         }
 996              		.loc 1 102 13 is_stmt 1 view .LVU311
 102:lvgl/src/misc/lv_anim.c ****         }
 997              		.loc 1 102 21 is_stmt 0 view .LVU312
 998 0054 AB6A     		ldr	r3, [r5, #40]
 102:lvgl/src/misc/lv_anim.c ****         }
 999              		.loc 1 102 33 view .LVU313
 1000 0056 0344     		add	r3, r3, r0
 1001 0058 AB62     		str	r3, [r5, #40]
 1002              	.LVL84:
 1003              	.L72:
 102:lvgl/src/misc/lv_anim.c ****         }
 1004              		.loc 1 102 33 view .LVU314
 1005              	.LBE8:
 105:lvgl/src/misc/lv_anim.c ****     }
 1006              		.loc 1 105 9 is_stmt 1 view .LVU315
 105:lvgl/src/misc/lv_anim.c ****     }
ARM GAS  /var/folders/21/t9g5rlb91ys800n5npymflf80000gn/T//ccRyq8Ko.s 			page 32


 1007              		.loc 1 105 20 is_stmt 0 view .LVU316
 1008 005a 6B68     		ldr	r3, [r5, #4]
 105:lvgl/src/misc/lv_anim.c ****     }
 1009              		.loc 1 105 11 view .LVU317
 1010 005c 1BB1     		cbz	r3, .L71
 105:lvgl/src/misc/lv_anim.c ****     }
 1011              		.loc 1 105 41 discriminator 1 view .LVU318
 1012 005e 2868     		ldr	r0, [r5]
 105:lvgl/src/misc/lv_anim.c ****     }
 1013              		.loc 1 105 30 discriminator 1 view .LVU319
 1014 0060 08B1     		cbz	r0, .L71
 105:lvgl/src/misc/lv_anim.c ****     }
 1015              		.loc 1 105 48 is_stmt 1 discriminator 2 view .LVU320
 1016 0062 296A     		ldr	r1, [r5, #32]
 1017 0064 9847     		blx	r3
 1018              	.LVL85:
 1019              	.L71:
 110:lvgl/src/misc/lv_anim.c **** 
 1020              		.loc 1 110 5 view .LVU321
 1021 0066 FFF7FEFF 		bl	anim_mark_list_change
 1022              	.LVL86:
 112:lvgl/src/misc/lv_anim.c ****     return new_anim;
 1023              		.loc 1 112 27 view .LVU322
 113:lvgl/src/misc/lv_anim.c **** }
 1024              		.loc 1 113 5 view .LVU323
 114:lvgl/src/misc/lv_anim.c **** 
 1025              		.loc 1 114 1 is_stmt 0 view .LVU324
 1026 006a 2846     		mov	r0, r5
 1027 006c 38BD     		pop	{r3, r4, r5, pc}
 1028              	.LVL87:
 1029              	.L74:
  84:lvgl/src/misc/lv_anim.c ****     }
 1030              		.loc 1 84 9 is_stmt 1 view .LVU325
  84:lvgl/src/misc/lv_anim.c ****     }
 1031              		.loc 1 84 26 is_stmt 0 view .LVU326
 1032 006e FFF7FEFF 		bl	lv_tick_get
 1033              	.LVL88:
  84:lvgl/src/misc/lv_anim.c ****     }
 1034              		.loc 1 84 24 view .LVU327
 1035 0072 054B     		ldr	r3, .L76+8
 1036 0074 1860     		str	r0, [r3]
 1037 0076 CEE7     		b	.L67
 1038              	.LVL89:
 1039              	.L69:
  89:lvgl/src/misc/lv_anim.c ****     if(new_anim == NULL) return NULL;
 1040              		.loc 1 89 5 is_stmt 1 discriminator 1 view .LVU328
  89:lvgl/src/misc/lv_anim.c ****     if(new_anim == NULL) return NULL;
 1041              		.loc 1 89 5 discriminator 1 view .LVU329
  89:lvgl/src/misc/lv_anim.c ****     if(new_anim == NULL) return NULL;
 1042              		.loc 1 89 5 discriminator 1 view .LVU330
  89:lvgl/src/misc/lv_anim.c ****     if(new_anim == NULL) return NULL;
 1043              		.loc 1 89 5 discriminator 1 view .LVU331
  89:lvgl/src/misc/lv_anim.c ****     if(new_anim == NULL) return NULL;
 1044              		.loc 1 89 5 discriminator 1 view .LVU332
 1045 0078 FEE7     		b	.L69
 1046              	.LVL90:
 1047              	.L75:
ARM GAS  /var/folders/21/t9g5rlb91ys800n5npymflf80000gn/T//ccRyq8Ko.s 			page 33


  94:lvgl/src/misc/lv_anim.c ****     new_anim->run_round = anim_run_round;
 1048              		.loc 1 94 21 discriminator 1 view .LVU333
  94:lvgl/src/misc/lv_anim.c ****     new_anim->run_round = anim_run_round;
 1049              		.loc 1 94 35 is_stmt 0 discriminator 1 view .LVU334
 1050 007a 2D60     		str	r5, [r5]
 1051 007c D7E7     		b	.L70
 1052              	.L77:
 1053 007e 00BF     		.align	2
 1054              	.L76:
 1055 0080 00000000 		.word	_lv_anim_ll
 1056 0084 00000000 		.word	anim_run_round
 1057 0088 00000000 		.word	last_timer_run
 1058              		.cfi_endproc
 1059              	.LFE47:
 1061              		.section	.text.lv_anim_del_all,"ax",%progbits
 1062              		.align	1
 1063              		.global	lv_anim_del_all
 1064              		.syntax unified
 1065              		.thumb
 1066              		.thumb_func
 1068              	lv_anim_del_all:
 1069              	.LFB50:
 163:lvgl/src/misc/lv_anim.c ****     _lv_ll_clear(&LV_GC_ROOT(_lv_anim_ll));
 1070              		.loc 1 163 1 is_stmt 1 view -0
 1071              		.cfi_startproc
 1072              		@ args = 0, pretend = 0, frame = 0
 1073              		@ frame_needed = 0, uses_anonymous_args = 0
 1074 0000 08B5     		push	{r3, lr}
 1075              	.LCFI12:
 1076              		.cfi_def_cfa_offset 8
 1077              		.cfi_offset 3, -8
 1078              		.cfi_offset 14, -4
 164:lvgl/src/misc/lv_anim.c ****     anim_mark_list_change();
 1079              		.loc 1 164 5 view .LVU336
 1080 0002 0348     		ldr	r0, .L80
 1081 0004 FFF7FEFF 		bl	_lv_ll_clear
 1082              	.LVL91:
 165:lvgl/src/misc/lv_anim.c **** }
 1083              		.loc 1 165 5 view .LVU337
 1084 0008 FFF7FEFF 		bl	anim_mark_list_change
 1085              	.LVL92:
 166:lvgl/src/misc/lv_anim.c **** 
 1086              		.loc 1 166 1 is_stmt 0 view .LVU338
 1087 000c 08BD     		pop	{r3, pc}
 1088              	.L81:
 1089 000e 00BF     		.align	2
 1090              	.L80:
 1091 0010 00000000 		.word	_lv_anim_ll
 1092              		.cfi_endproc
 1093              	.LFE50:
 1095              		.section	.text.lv_anim_get,"ax",%progbits
 1096              		.align	1
 1097              		.global	lv_anim_get
 1098              		.syntax unified
 1099              		.thumb
 1100              		.thumb_func
 1102              	lv_anim_get:
ARM GAS  /var/folders/21/t9g5rlb91ys800n5npymflf80000gn/T//ccRyq8Ko.s 			page 34


 1103              	.LVL93:
 1104              	.LFB51:
 169:lvgl/src/misc/lv_anim.c ****     lv_anim_t * a;
 1105              		.loc 1 169 1 is_stmt 1 view -0
 1106              		.cfi_startproc
 1107              		@ args = 0, pretend = 0, frame = 0
 1108              		@ frame_needed = 0, uses_anonymous_args = 0
 169:lvgl/src/misc/lv_anim.c ****     lv_anim_t * a;
 1109              		.loc 1 169 1 is_stmt 0 view .LVU340
 1110 0000 38B5     		push	{r3, r4, r5, lr}
 1111              	.LCFI13:
 1112              		.cfi_def_cfa_offset 16
 1113              		.cfi_offset 3, -16
 1114              		.cfi_offset 4, -12
 1115              		.cfi_offset 5, -8
 1116              		.cfi_offset 14, -4
 1117 0002 0446     		mov	r4, r0
 1118 0004 0D46     		mov	r5, r1
 170:lvgl/src/misc/lv_anim.c ****     _LV_LL_READ(&LV_GC_ROOT(_lv_anim_ll), a) {
 1119              		.loc 1 170 5 is_stmt 1 view .LVU341
 171:lvgl/src/misc/lv_anim.c ****         if(a->var == var && (a->exec_cb == exec_cb || exec_cb == NULL)) {
 1120              		.loc 1 171 5 view .LVU342
 1121 0006 0A48     		ldr	r0, .L88
 1122              	.LVL94:
 171:lvgl/src/misc/lv_anim.c ****         if(a->var == var && (a->exec_cb == exec_cb || exec_cb == NULL)) {
 1123              		.loc 1 171 5 is_stmt 0 view .LVU343
 1124 0008 FFF7FEFF 		bl	_lv_ll_get_head
 1125              	.LVL95:
 171:lvgl/src/misc/lv_anim.c ****         if(a->var == var && (a->exec_cb == exec_cb || exec_cb == NULL)) {
 1126              		.loc 1 171 5 view .LVU344
 1127 000c 0146     		mov	r1, r0
 1128              	.LVL96:
 171:lvgl/src/misc/lv_anim.c ****         if(a->var == var && (a->exec_cb == exec_cb || exec_cb == NULL)) {
 1129              		.loc 1 171 5 view .LVU345
 1130 000e 03E0     		b	.L83
 1131              	.L84:
 171:lvgl/src/misc/lv_anim.c ****         if(a->var == var && (a->exec_cb == exec_cb || exec_cb == NULL)) {
 1132              		.loc 1 171 5 is_stmt 1 discriminator 2 view .LVU346
 1133 0010 0748     		ldr	r0, .L88
 1134              	.LVL97:
 171:lvgl/src/misc/lv_anim.c ****         if(a->var == var && (a->exec_cb == exec_cb || exec_cb == NULL)) {
 1135              		.loc 1 171 5 is_stmt 0 discriminator 2 view .LVU347
 1136 0012 FFF7FEFF 		bl	_lv_ll_get_next
 1137              	.LVL98:
 171:lvgl/src/misc/lv_anim.c ****         if(a->var == var && (a->exec_cb == exec_cb || exec_cb == NULL)) {
 1138              		.loc 1 171 5 discriminator 2 view .LVU348
 1139 0016 0146     		mov	r1, r0
 1140              	.LVL99:
 1141              	.L83:
 171:lvgl/src/misc/lv_anim.c ****         if(a->var == var && (a->exec_cb == exec_cb || exec_cb == NULL)) {
 1142              		.loc 1 171 5 is_stmt 1 discriminator 1 view .LVU349
 1143 0018 39B1     		cbz	r1, .L82
 172:lvgl/src/misc/lv_anim.c ****             return a;
 1144              		.loc 1 172 9 view .LVU350
 172:lvgl/src/misc/lv_anim.c ****             return a;
 1145              		.loc 1 172 13 is_stmt 0 view .LVU351
 1146 001a 0B68     		ldr	r3, [r1]
ARM GAS  /var/folders/21/t9g5rlb91ys800n5npymflf80000gn/T//ccRyq8Ko.s 			page 35


 172:lvgl/src/misc/lv_anim.c ****             return a;
 1147              		.loc 1 172 11 view .LVU352
 1148 001c A342     		cmp	r3, r4
 1149 001e F7D1     		bne	.L84
 172:lvgl/src/misc/lv_anim.c ****             return a;
 1150              		.loc 1 172 31 discriminator 1 view .LVU353
 1151 0020 4B68     		ldr	r3, [r1, #4]
 172:lvgl/src/misc/lv_anim.c ****             return a;
 1152              		.loc 1 172 26 discriminator 1 view .LVU354
 1153 0022 AB42     		cmp	r3, r5
 1154 0024 01D0     		beq	.L82
 172:lvgl/src/misc/lv_anim.c ****             return a;
 1155              		.loc 1 172 52 discriminator 2 view .LVU355
 1156 0026 002D     		cmp	r5, #0
 1157 0028 F2D1     		bne	.L84
 1158              	.L82:
 178:lvgl/src/misc/lv_anim.c **** 
 1159              		.loc 1 178 1 view .LVU356
 1160 002a 0846     		mov	r0, r1
 1161              	.LVL100:
 178:lvgl/src/misc/lv_anim.c **** 
 1162              		.loc 1 178 1 view .LVU357
 1163 002c 38BD     		pop	{r3, r4, r5, pc}
 1164              	.LVL101:
 1165              	.L89:
 178:lvgl/src/misc/lv_anim.c **** 
 1166              		.loc 1 178 1 view .LVU358
 1167 002e 00BF     		.align	2
 1168              	.L88:
 1169 0030 00000000 		.word	_lv_anim_ll
 1170              		.cfi_endproc
 1171              	.LFE51:
 1173              		.section	.text.lv_anim_get_timer,"ax",%progbits
 1174              		.align	1
 1175              		.global	lv_anim_get_timer
 1176              		.syntax unified
 1177              		.thumb
 1178              		.thumb_func
 1180              	lv_anim_get_timer:
 1181              	.LFB52:
 181:lvgl/src/misc/lv_anim.c ****     return _lv_anim_tmr;
 1182              		.loc 1 181 1 is_stmt 1 view -0
 1183              		.cfi_startproc
 1184              		@ args = 0, pretend = 0, frame = 0
 1185              		@ frame_needed = 0, uses_anonymous_args = 0
 1186              		@ link register save eliminated.
 182:lvgl/src/misc/lv_anim.c **** }
 1187              		.loc 1 182 5 view .LVU360
 183:lvgl/src/misc/lv_anim.c **** 
 1188              		.loc 1 183 1 is_stmt 0 view .LVU361
 1189 0000 014B     		ldr	r3, .L91
 1190 0002 1868     		ldr	r0, [r3]
 1191 0004 7047     		bx	lr
 1192              	.L92:
 1193 0006 00BF     		.align	2
 1194              	.L91:
 1195 0008 00000000 		.word	_lv_anim_tmr
ARM GAS  /var/folders/21/t9g5rlb91ys800n5npymflf80000gn/T//ccRyq8Ko.s 			page 36


 1196              		.cfi_endproc
 1197              	.LFE52:
 1199              		.section	.text.lv_anim_count_running,"ax",%progbits
 1200              		.align	1
 1201              		.global	lv_anim_count_running
 1202              		.syntax unified
 1203              		.thumb
 1204              		.thumb_func
 1206              	lv_anim_count_running:
 1207              	.LFB53:
 186:lvgl/src/misc/lv_anim.c ****     uint16_t cnt = 0;
 1208              		.loc 1 186 1 is_stmt 1 view -0
 1209              		.cfi_startproc
 1210              		@ args = 0, pretend = 0, frame = 0
 1211              		@ frame_needed = 0, uses_anonymous_args = 0
 1212 0000 10B5     		push	{r4, lr}
 1213              	.LCFI14:
 1214              		.cfi_def_cfa_offset 8
 1215              		.cfi_offset 4, -8
 1216              		.cfi_offset 14, -4
 187:lvgl/src/misc/lv_anim.c ****     lv_anim_t * a;
 1217              		.loc 1 187 5 view .LVU363
 1218              	.LVL102:
 188:lvgl/src/misc/lv_anim.c ****     _LV_LL_READ(&LV_GC_ROOT(_lv_anim_ll), a) cnt++;
 1219              		.loc 1 188 5 view .LVU364
 189:lvgl/src/misc/lv_anim.c **** 
 1220              		.loc 1 189 5 view .LVU365
 1221 0002 0848     		ldr	r0, .L97
 1222 0004 FFF7FEFF 		bl	_lv_ll_get_head
 1223              	.LVL103:
 1224 0008 0146     		mov	r1, r0
 1225              	.LVL104:
 187:lvgl/src/misc/lv_anim.c ****     lv_anim_t * a;
 1226              		.loc 1 187 14 is_stmt 0 view .LVU366
 1227 000a 0024     		movs	r4, #0
 189:lvgl/src/misc/lv_anim.c **** 
 1228              		.loc 1 189 5 view .LVU367
 1229 000c 05E0     		b	.L94
 1230              	.LVL105:
 1231              	.L95:
 189:lvgl/src/misc/lv_anim.c **** 
 1232              		.loc 1 189 46 is_stmt 1 discriminator 3 view .LVU368
 189:lvgl/src/misc/lv_anim.c **** 
 1233              		.loc 1 189 49 is_stmt 0 discriminator 3 view .LVU369
 1234 000e 0134     		adds	r4, r4, #1
 1235              	.LVL106:
 189:lvgl/src/misc/lv_anim.c **** 
 1236              		.loc 1 189 49 discriminator 3 view .LVU370
 1237 0010 A4B2     		uxth	r4, r4
 1238              	.LVL107:
 189:lvgl/src/misc/lv_anim.c **** 
 1239              		.loc 1 189 5 is_stmt 1 discriminator 3 view .LVU371
 1240 0012 0448     		ldr	r0, .L97
 1241              	.LVL108:
 189:lvgl/src/misc/lv_anim.c **** 
 1242              		.loc 1 189 5 is_stmt 0 discriminator 3 view .LVU372
 1243 0014 FFF7FEFF 		bl	_lv_ll_get_next
ARM GAS  /var/folders/21/t9g5rlb91ys800n5npymflf80000gn/T//ccRyq8Ko.s 			page 37


 1244              	.LVL109:
 189:lvgl/src/misc/lv_anim.c **** 
 1245              		.loc 1 189 5 discriminator 3 view .LVU373
 1246 0018 0146     		mov	r1, r0
 1247              	.LVL110:
 1248              	.L94:
 189:lvgl/src/misc/lv_anim.c **** 
 1249              		.loc 1 189 5 is_stmt 1 discriminator 1 view .LVU374
 1250 001a 0029     		cmp	r1, #0
 1251 001c F7D1     		bne	.L95
 191:lvgl/src/misc/lv_anim.c **** }
 1252              		.loc 1 191 5 view .LVU375
 192:lvgl/src/misc/lv_anim.c **** 
 1253              		.loc 1 192 1 is_stmt 0 view .LVU376
 1254 001e 2046     		mov	r0, r4
 1255              	.LVL111:
 192:lvgl/src/misc/lv_anim.c **** 
 1256              		.loc 1 192 1 view .LVU377
 1257 0020 10BD     		pop	{r4, pc}
 1258              	.LVL112:
 1259              	.L98:
 192:lvgl/src/misc/lv_anim.c **** 
 1260              		.loc 1 192 1 view .LVU378
 1261 0022 00BF     		.align	2
 1262              	.L97:
 1263 0024 00000000 		.word	_lv_anim_ll
 1264              		.cfi_endproc
 1265              	.LFE53:
 1267              		.section	.text.lv_anim_speed_to_time,"ax",%progbits
 1268              		.align	1
 1269              		.global	lv_anim_speed_to_time
 1270              		.syntax unified
 1271              		.thumb
 1272              		.thumb_func
 1274              	lv_anim_speed_to_time:
 1275              	.LVL113:
 1276              	.LFB54:
 195:lvgl/src/misc/lv_anim.c ****     uint32_t d    = LV_ABS(start - end);
 1277              		.loc 1 195 1 is_stmt 1 view -0
 1278              		.cfi_startproc
 1279              		@ args = 0, pretend = 0, frame = 0
 1280              		@ frame_needed = 0, uses_anonymous_args = 0
 1281              		@ link register save eliminated.
 195:lvgl/src/misc/lv_anim.c ****     uint32_t d    = LV_ABS(start - end);
 1282              		.loc 1 195 1 is_stmt 0 view .LVU380
 1283 0000 0346     		mov	r3, r0
 196:lvgl/src/misc/lv_anim.c ****     uint32_t time = (d * 1000) / speed;
 1284              		.loc 1 196 5 is_stmt 1 view .LVU381
 196:lvgl/src/misc/lv_anim.c ****     uint32_t time = (d * 1000) / speed;
 1285              		.loc 1 196 21 is_stmt 0 view .LVU382
 1286 0002 891A     		subs	r1, r1, r2
 1287              	.LVL114:
 196:lvgl/src/misc/lv_anim.c ****     uint32_t time = (d * 1000) / speed;
 1288              		.loc 1 196 21 view .LVU383
 1289 0004 0029     		cmp	r1, #0
 1290 0006 B8BF     		it	lt
 1291 0008 4942     		rsblt	r1, r1, #0
ARM GAS  /var/folders/21/t9g5rlb91ys800n5npymflf80000gn/T//ccRyq8Ko.s 			page 38


 1292              	.LVL115:
 197:lvgl/src/misc/lv_anim.c **** 
 1293              		.loc 1 197 5 is_stmt 1 view .LVU384
 197:lvgl/src/misc/lv_anim.c **** 
 1294              		.loc 1 197 24 is_stmt 0 view .LVU385
 1295 000a 4FF47A72 		mov	r2, #1000
 1296              	.LVL116:
 197:lvgl/src/misc/lv_anim.c **** 
 1297              		.loc 1 197 24 view .LVU386
 1298 000e 02FB01F1 		mul	r1, r2, r1
 1299              	.LVL117:
 197:lvgl/src/misc/lv_anim.c **** 
 1300              		.loc 1 197 14 view .LVU387
 1301 0012 B1FBF0F0 		udiv	r0, r1, r0
 1302              	.LVL118:
 199:lvgl/src/misc/lv_anim.c ****         time++;
 1303              		.loc 1 199 5 is_stmt 1 view .LVU388
 199:lvgl/src/misc/lv_anim.c ****         time++;
 1304              		.loc 1 199 7 is_stmt 0 view .LVU389
 1305 0016 9942     		cmp	r1, r3
 1306              	.LVL119:
 199:lvgl/src/misc/lv_anim.c ****         time++;
 1307              		.loc 1 199 7 view .LVU390
 1308 0018 00D2     		bcs	.L99
 200:lvgl/src/misc/lv_anim.c ****     }
 1309              		.loc 1 200 9 is_stmt 1 view .LVU391
 200:lvgl/src/misc/lv_anim.c ****     }
 1310              		.loc 1 200 13 is_stmt 0 view .LVU392
 1311 001a 0130     		adds	r0, r0, #1
 1312              	.LVL120:
 203:lvgl/src/misc/lv_anim.c **** }
 1313              		.loc 1 203 5 is_stmt 1 view .LVU393
 1314              	.L99:
 204:lvgl/src/misc/lv_anim.c **** 
 1315              		.loc 1 204 1 is_stmt 0 view .LVU394
 1316 001c 7047     		bx	lr
 1317              		.cfi_endproc
 1318              	.LFE54:
 1320              		.section	.text.lv_anim_refr_now,"ax",%progbits
 1321              		.align	1
 1322              		.global	lv_anim_refr_now
 1323              		.syntax unified
 1324              		.thumb
 1325              		.thumb_func
 1327              	lv_anim_refr_now:
 1328              	.LFB55:
 207:lvgl/src/misc/lv_anim.c ****     anim_timer(NULL);
 1329              		.loc 1 207 1 is_stmt 1 view -0
 1330              		.cfi_startproc
 1331              		@ args = 0, pretend = 0, frame = 0
 1332              		@ frame_needed = 0, uses_anonymous_args = 0
 1333 0000 08B5     		push	{r3, lr}
 1334              	.LCFI15:
 1335              		.cfi_def_cfa_offset 8
 1336              		.cfi_offset 3, -8
 1337              		.cfi_offset 14, -4
 208:lvgl/src/misc/lv_anim.c **** }
ARM GAS  /var/folders/21/t9g5rlb91ys800n5npymflf80000gn/T//ccRyq8Ko.s 			page 39


 1338              		.loc 1 208 5 view .LVU396
 1339 0002 0020     		movs	r0, #0
 1340 0004 FFF7FEFF 		bl	anim_timer
 1341              	.LVL121:
 209:lvgl/src/misc/lv_anim.c **** 
 1342              		.loc 1 209 1 is_stmt 0 view .LVU397
 1343 0008 08BD     		pop	{r3, pc}
 1344              		.cfi_endproc
 1345              	.LFE55:
 1347              		.section	.text.lv_anim_path_ease_in,"ax",%progbits
 1348              		.align	1
 1349              		.global	lv_anim_path_ease_in
 1350              		.syntax unified
 1351              		.thumb
 1352              		.thumb_func
 1354              	lv_anim_path_ease_in:
 1355              	.LVL122:
 1356              	.LFB57:
 227:lvgl/src/misc/lv_anim.c ****     /*Calculate the current step*/
 1357              		.loc 1 227 1 is_stmt 1 view -0
 1358              		.cfi_startproc
 1359              		@ args = 0, pretend = 0, frame = 0
 1360              		@ frame_needed = 0, uses_anonymous_args = 0
 227:lvgl/src/misc/lv_anim.c ****     /*Calculate the current step*/
 1361              		.loc 1 227 1 is_stmt 0 view .LVU399
 1362 0000 30B5     		push	{r4, r5, lr}
 1363              	.LCFI16:
 1364              		.cfi_def_cfa_offset 12
 1365              		.cfi_offset 4, -12
 1366              		.cfi_offset 5, -8
 1367              		.cfi_offset 14, -4
 1368 0002 83B0     		sub	sp, sp, #12
 1369              	.LCFI17:
 1370              		.cfi_def_cfa_offset 24
 1371 0004 0446     		mov	r4, r0
 229:lvgl/src/misc/lv_anim.c ****     int32_t step = lv_bezier3(t, 0, 50, 100, LV_BEZIER_VAL_MAX);
 1372              		.loc 1 229 5 is_stmt 1 view .LVU400
 229:lvgl/src/misc/lv_anim.c ****     int32_t step = lv_bezier3(t, 0, 50, 100, LV_BEZIER_VAL_MAX);
 1373              		.loc 1 229 18 is_stmt 0 view .LVU401
 1374 0006 4FF48065 		mov	r5, #1024
 1375 000a 0095     		str	r5, [sp]
 1376 000c 0023     		movs	r3, #0
 1377 000e C26A     		ldr	r2, [r0, #44]
 1378 0010 1946     		mov	r1, r3
 1379 0012 006B     		ldr	r0, [r0, #48]
 1380              	.LVL123:
 229:lvgl/src/misc/lv_anim.c ****     int32_t step = lv_bezier3(t, 0, 50, 100, LV_BEZIER_VAL_MAX);
 1381              		.loc 1 229 18 view .LVU402
 1382 0014 FFF7FEFF 		bl	lv_map
 1383              	.LVL124:
 230:lvgl/src/misc/lv_anim.c **** 
 1384              		.loc 1 230 5 is_stmt 1 view .LVU403
 230:lvgl/src/misc/lv_anim.c **** 
 1385              		.loc 1 230 20 is_stmt 0 view .LVU404
 1386 0018 0095     		str	r5, [sp]
 1387 001a 6423     		movs	r3, #100
 1388 001c 3222     		movs	r2, #50
ARM GAS  /var/folders/21/t9g5rlb91ys800n5npymflf80000gn/T//ccRyq8Ko.s 			page 40


 1389 001e 0021     		movs	r1, #0
 1390 0020 FFF7FEFF 		bl	lv_bezier3
 1391              	.LVL125:
 232:lvgl/src/misc/lv_anim.c ****     new_value = step * (a->end_value - a->start_value);
 1392              		.loc 1 232 5 is_stmt 1 view .LVU405
 233:lvgl/src/misc/lv_anim.c ****     new_value = new_value >> LV_BEZIER_VAL_SHIFT;
 1393              		.loc 1 233 5 view .LVU406
 233:lvgl/src/misc/lv_anim.c ****     new_value = new_value >> LV_BEZIER_VAL_SHIFT;
 1394              		.loc 1 233 26 is_stmt 0 view .LVU407
 1395 0024 A36A     		ldr	r3, [r4, #40]
 233:lvgl/src/misc/lv_anim.c ****     new_value = new_value >> LV_BEZIER_VAL_SHIFT;
 1396              		.loc 1 233 41 view .LVU408
 1397 0026 226A     		ldr	r2, [r4, #32]
 233:lvgl/src/misc/lv_anim.c ****     new_value = new_value >> LV_BEZIER_VAL_SHIFT;
 1398              		.loc 1 233 38 view .LVU409
 1399 0028 9B1A     		subs	r3, r3, r2
 233:lvgl/src/misc/lv_anim.c ****     new_value = new_value >> LV_BEZIER_VAL_SHIFT;
 1400              		.loc 1 233 15 view .LVU410
 1401 002a 03FB00F0 		mul	r0, r3, r0
 1402              	.LVL126:
 234:lvgl/src/misc/lv_anim.c ****     new_value += a->start_value;
 1403              		.loc 1 234 5 is_stmt 1 view .LVU411
 235:lvgl/src/misc/lv_anim.c **** 
 1404              		.loc 1 235 5 view .LVU412
 237:lvgl/src/misc/lv_anim.c **** }
 1405              		.loc 1 237 5 view .LVU413
 238:lvgl/src/misc/lv_anim.c **** 
 1406              		.loc 1 238 1 is_stmt 0 view .LVU414
 1407 002e 02EBA020 		add	r0, r2, r0, asr #10
 1408              	.LVL127:
 238:lvgl/src/misc/lv_anim.c **** 
 1409              		.loc 1 238 1 view .LVU415
 1410 0032 03B0     		add	sp, sp, #12
 1411              	.LCFI18:
 1412              		.cfi_def_cfa_offset 12
 1413              		@ sp needed
 1414 0034 30BD     		pop	{r4, r5, pc}
 238:lvgl/src/misc/lv_anim.c **** 
 1415              		.loc 1 238 1 view .LVU416
 1416              		.cfi_endproc
 1417              	.LFE57:
 1419              		.section	.text.lv_anim_path_ease_out,"ax",%progbits
 1420              		.align	1
 1421              		.global	lv_anim_path_ease_out
 1422              		.syntax unified
 1423              		.thumb
 1424              		.thumb_func
 1426              	lv_anim_path_ease_out:
 1427              	.LVL128:
 1428              	.LFB58:
 241:lvgl/src/misc/lv_anim.c ****     /*Calculate the current step*/
 1429              		.loc 1 241 1 is_stmt 1 view -0
 1430              		.cfi_startproc
 1431              		@ args = 0, pretend = 0, frame = 0
 1432              		@ frame_needed = 0, uses_anonymous_args = 0
 241:lvgl/src/misc/lv_anim.c ****     /*Calculate the current step*/
 1433              		.loc 1 241 1 is_stmt 0 view .LVU418
ARM GAS  /var/folders/21/t9g5rlb91ys800n5npymflf80000gn/T//ccRyq8Ko.s 			page 41


 1434 0000 30B5     		push	{r4, r5, lr}
 1435              	.LCFI19:
 1436              		.cfi_def_cfa_offset 12
 1437              		.cfi_offset 4, -12
 1438              		.cfi_offset 5, -8
 1439              		.cfi_offset 14, -4
 1440 0002 83B0     		sub	sp, sp, #12
 1441              	.LCFI20:
 1442              		.cfi_def_cfa_offset 24
 1443 0004 0446     		mov	r4, r0
 243:lvgl/src/misc/lv_anim.c ****     int32_t step = lv_bezier3(t, 0, 900, 950, LV_BEZIER_VAL_MAX);
 1444              		.loc 1 243 5 is_stmt 1 view .LVU419
 243:lvgl/src/misc/lv_anim.c ****     int32_t step = lv_bezier3(t, 0, 900, 950, LV_BEZIER_VAL_MAX);
 1445              		.loc 1 243 18 is_stmt 0 view .LVU420
 1446 0006 4FF48065 		mov	r5, #1024
 1447 000a 0095     		str	r5, [sp]
 1448 000c 0023     		movs	r3, #0
 1449 000e C26A     		ldr	r2, [r0, #44]
 1450 0010 1946     		mov	r1, r3
 1451 0012 006B     		ldr	r0, [r0, #48]
 1452              	.LVL129:
 243:lvgl/src/misc/lv_anim.c ****     int32_t step = lv_bezier3(t, 0, 900, 950, LV_BEZIER_VAL_MAX);
 1453              		.loc 1 243 18 view .LVU421
 1454 0014 FFF7FEFF 		bl	lv_map
 1455              	.LVL130:
 244:lvgl/src/misc/lv_anim.c **** 
 1456              		.loc 1 244 5 is_stmt 1 view .LVU422
 244:lvgl/src/misc/lv_anim.c **** 
 1457              		.loc 1 244 20 is_stmt 0 view .LVU423
 1458 0018 0095     		str	r5, [sp]
 1459 001a 40F2B633 		movw	r3, #950
 1460 001e 4FF46172 		mov	r2, #900
 1461 0022 0021     		movs	r1, #0
 1462 0024 FFF7FEFF 		bl	lv_bezier3
 1463              	.LVL131:
 246:lvgl/src/misc/lv_anim.c ****     new_value = step * (a->end_value - a->start_value);
 1464              		.loc 1 246 5 is_stmt 1 view .LVU424
 247:lvgl/src/misc/lv_anim.c ****     new_value = new_value >> LV_BEZIER_VAL_SHIFT;
 1465              		.loc 1 247 5 view .LVU425
 247:lvgl/src/misc/lv_anim.c ****     new_value = new_value >> LV_BEZIER_VAL_SHIFT;
 1466              		.loc 1 247 26 is_stmt 0 view .LVU426
 1467 0028 A36A     		ldr	r3, [r4, #40]
 247:lvgl/src/misc/lv_anim.c ****     new_value = new_value >> LV_BEZIER_VAL_SHIFT;
 1468              		.loc 1 247 41 view .LVU427
 1469 002a 226A     		ldr	r2, [r4, #32]
 247:lvgl/src/misc/lv_anim.c ****     new_value = new_value >> LV_BEZIER_VAL_SHIFT;
 1470              		.loc 1 247 38 view .LVU428
 1471 002c 9B1A     		subs	r3, r3, r2
 247:lvgl/src/misc/lv_anim.c ****     new_value = new_value >> LV_BEZIER_VAL_SHIFT;
 1472              		.loc 1 247 15 view .LVU429
 1473 002e 03FB00F0 		mul	r0, r3, r0
 1474              	.LVL132:
 248:lvgl/src/misc/lv_anim.c ****     new_value += a->start_value;
 1475              		.loc 1 248 5 is_stmt 1 view .LVU430
 249:lvgl/src/misc/lv_anim.c **** 
 1476              		.loc 1 249 5 view .LVU431
 251:lvgl/src/misc/lv_anim.c **** }
ARM GAS  /var/folders/21/t9g5rlb91ys800n5npymflf80000gn/T//ccRyq8Ko.s 			page 42


 1477              		.loc 1 251 5 view .LVU432
 252:lvgl/src/misc/lv_anim.c **** 
 1478              		.loc 1 252 1 is_stmt 0 view .LVU433
 1479 0032 02EBA020 		add	r0, r2, r0, asr #10
 1480              	.LVL133:
 252:lvgl/src/misc/lv_anim.c **** 
 1481              		.loc 1 252 1 view .LVU434
 1482 0036 03B0     		add	sp, sp, #12
 1483              	.LCFI21:
 1484              		.cfi_def_cfa_offset 12
 1485              		@ sp needed
 1486 0038 30BD     		pop	{r4, r5, pc}
 252:lvgl/src/misc/lv_anim.c **** 
 1487              		.loc 1 252 1 view .LVU435
 1488              		.cfi_endproc
 1489              	.LFE58:
 1491              		.section	.text.lv_anim_path_ease_in_out,"ax",%progbits
 1492              		.align	1
 1493              		.global	lv_anim_path_ease_in_out
 1494              		.syntax unified
 1495              		.thumb
 1496              		.thumb_func
 1498              	lv_anim_path_ease_in_out:
 1499              	.LVL134:
 1500              	.LFB59:
 255:lvgl/src/misc/lv_anim.c ****     /*Calculate the current step*/
 1501              		.loc 1 255 1 is_stmt 1 view -0
 1502              		.cfi_startproc
 1503              		@ args = 0, pretend = 0, frame = 0
 1504              		@ frame_needed = 0, uses_anonymous_args = 0
 255:lvgl/src/misc/lv_anim.c ****     /*Calculate the current step*/
 1505              		.loc 1 255 1 is_stmt 0 view .LVU437
 1506 0000 30B5     		push	{r4, r5, lr}
 1507              	.LCFI22:
 1508              		.cfi_def_cfa_offset 12
 1509              		.cfi_offset 4, -12
 1510              		.cfi_offset 5, -8
 1511              		.cfi_offset 14, -4
 1512 0002 83B0     		sub	sp, sp, #12
 1513              	.LCFI23:
 1514              		.cfi_def_cfa_offset 24
 1515 0004 0446     		mov	r4, r0
 257:lvgl/src/misc/lv_anim.c ****     int32_t step = lv_bezier3(t, 0, 50, 952, LV_BEZIER_VAL_MAX);
 1516              		.loc 1 257 5 is_stmt 1 view .LVU438
 257:lvgl/src/misc/lv_anim.c ****     int32_t step = lv_bezier3(t, 0, 50, 952, LV_BEZIER_VAL_MAX);
 1517              		.loc 1 257 18 is_stmt 0 view .LVU439
 1518 0006 4FF48065 		mov	r5, #1024
 1519 000a 0095     		str	r5, [sp]
 1520 000c 0023     		movs	r3, #0
 1521 000e C26A     		ldr	r2, [r0, #44]
 1522 0010 1946     		mov	r1, r3
 1523 0012 006B     		ldr	r0, [r0, #48]
 1524              	.LVL135:
 257:lvgl/src/misc/lv_anim.c ****     int32_t step = lv_bezier3(t, 0, 50, 952, LV_BEZIER_VAL_MAX);
 1525              		.loc 1 257 18 view .LVU440
 1526 0014 FFF7FEFF 		bl	lv_map
 1527              	.LVL136:
ARM GAS  /var/folders/21/t9g5rlb91ys800n5npymflf80000gn/T//ccRyq8Ko.s 			page 43


 258:lvgl/src/misc/lv_anim.c **** 
 1528              		.loc 1 258 5 is_stmt 1 view .LVU441
 258:lvgl/src/misc/lv_anim.c **** 
 1529              		.loc 1 258 20 is_stmt 0 view .LVU442
 1530 0018 0095     		str	r5, [sp]
 1531 001a 4FF46E73 		mov	r3, #952
 1532 001e 3222     		movs	r2, #50
 1533 0020 0021     		movs	r1, #0
 1534 0022 FFF7FEFF 		bl	lv_bezier3
 1535              	.LVL137:
 260:lvgl/src/misc/lv_anim.c ****     new_value = step * (a->end_value - a->start_value);
 1536              		.loc 1 260 5 is_stmt 1 view .LVU443
 261:lvgl/src/misc/lv_anim.c ****     new_value = new_value >> LV_BEZIER_VAL_SHIFT;
 1537              		.loc 1 261 5 view .LVU444
 261:lvgl/src/misc/lv_anim.c ****     new_value = new_value >> LV_BEZIER_VAL_SHIFT;
 1538              		.loc 1 261 26 is_stmt 0 view .LVU445
 1539 0026 A36A     		ldr	r3, [r4, #40]
 261:lvgl/src/misc/lv_anim.c ****     new_value = new_value >> LV_BEZIER_VAL_SHIFT;
 1540              		.loc 1 261 41 view .LVU446
 1541 0028 226A     		ldr	r2, [r4, #32]
 261:lvgl/src/misc/lv_anim.c ****     new_value = new_value >> LV_BEZIER_VAL_SHIFT;
 1542              		.loc 1 261 38 view .LVU447
 1543 002a 9B1A     		subs	r3, r3, r2
 261:lvgl/src/misc/lv_anim.c ****     new_value = new_value >> LV_BEZIER_VAL_SHIFT;
 1544              		.loc 1 261 15 view .LVU448
 1545 002c 03FB00F0 		mul	r0, r3, r0
 1546              	.LVL138:
 262:lvgl/src/misc/lv_anim.c ****     new_value += a->start_value;
 1547              		.loc 1 262 5 is_stmt 1 view .LVU449
 263:lvgl/src/misc/lv_anim.c **** 
 1548              		.loc 1 263 5 view .LVU450
 265:lvgl/src/misc/lv_anim.c **** }
 1549              		.loc 1 265 5 view .LVU451
 266:lvgl/src/misc/lv_anim.c **** 
 1550              		.loc 1 266 1 is_stmt 0 view .LVU452
 1551 0030 02EBA020 		add	r0, r2, r0, asr #10
 1552              	.LVL139:
 266:lvgl/src/misc/lv_anim.c **** 
 1553              		.loc 1 266 1 view .LVU453
 1554 0034 03B0     		add	sp, sp, #12
 1555              	.LCFI24:
 1556              		.cfi_def_cfa_offset 12
 1557              		@ sp needed
 1558 0036 30BD     		pop	{r4, r5, pc}
 266:lvgl/src/misc/lv_anim.c **** 
 1559              		.loc 1 266 1 view .LVU454
 1560              		.cfi_endproc
 1561              	.LFE59:
 1563              		.section	.text.lv_anim_path_overshoot,"ax",%progbits
 1564              		.align	1
 1565              		.global	lv_anim_path_overshoot
 1566              		.syntax unified
 1567              		.thumb
 1568              		.thumb_func
 1570              	lv_anim_path_overshoot:
 1571              	.LVL140:
 1572              	.LFB60:
ARM GAS  /var/folders/21/t9g5rlb91ys800n5npymflf80000gn/T//ccRyq8Ko.s 			page 44


 269:lvgl/src/misc/lv_anim.c ****     /*Calculate the current step*/
 1573              		.loc 1 269 1 is_stmt 1 view -0
 1574              		.cfi_startproc
 1575              		@ args = 0, pretend = 0, frame = 0
 1576              		@ frame_needed = 0, uses_anonymous_args = 0
 269:lvgl/src/misc/lv_anim.c ****     /*Calculate the current step*/
 1577              		.loc 1 269 1 is_stmt 0 view .LVU456
 1578 0000 30B5     		push	{r4, r5, lr}
 1579              	.LCFI25:
 1580              		.cfi_def_cfa_offset 12
 1581              		.cfi_offset 4, -12
 1582              		.cfi_offset 5, -8
 1583              		.cfi_offset 14, -4
 1584 0002 83B0     		sub	sp, sp, #12
 1585              	.LCFI26:
 1586              		.cfi_def_cfa_offset 24
 1587 0004 0446     		mov	r4, r0
 271:lvgl/src/misc/lv_anim.c ****     int32_t step = lv_bezier3(t, 0, 1000, 1300, LV_BEZIER_VAL_MAX);
 1588              		.loc 1 271 5 is_stmt 1 view .LVU457
 271:lvgl/src/misc/lv_anim.c ****     int32_t step = lv_bezier3(t, 0, 1000, 1300, LV_BEZIER_VAL_MAX);
 1589              		.loc 1 271 18 is_stmt 0 view .LVU458
 1590 0006 4FF48065 		mov	r5, #1024
 1591 000a 0095     		str	r5, [sp]
 1592 000c 0023     		movs	r3, #0
 1593 000e C26A     		ldr	r2, [r0, #44]
 1594 0010 1946     		mov	r1, r3
 1595 0012 006B     		ldr	r0, [r0, #48]
 1596              	.LVL141:
 271:lvgl/src/misc/lv_anim.c ****     int32_t step = lv_bezier3(t, 0, 1000, 1300, LV_BEZIER_VAL_MAX);
 1597              		.loc 1 271 18 view .LVU459
 1598 0014 FFF7FEFF 		bl	lv_map
 1599              	.LVL142:
 272:lvgl/src/misc/lv_anim.c **** 
 1600              		.loc 1 272 5 is_stmt 1 view .LVU460
 272:lvgl/src/misc/lv_anim.c **** 
 1601              		.loc 1 272 20 is_stmt 0 view .LVU461
 1602 0018 0095     		str	r5, [sp]
 1603 001a 40F21453 		movw	r3, #1300
 1604 001e 4FF47A72 		mov	r2, #1000
 1605 0022 0021     		movs	r1, #0
 1606 0024 FFF7FEFF 		bl	lv_bezier3
 1607              	.LVL143:
 274:lvgl/src/misc/lv_anim.c ****     new_value = step * (a->end_value - a->start_value);
 1608              		.loc 1 274 5 is_stmt 1 view .LVU462
 275:lvgl/src/misc/lv_anim.c ****     new_value = new_value >> LV_BEZIER_VAL_SHIFT;
 1609              		.loc 1 275 5 view .LVU463
 275:lvgl/src/misc/lv_anim.c ****     new_value = new_value >> LV_BEZIER_VAL_SHIFT;
 1610              		.loc 1 275 26 is_stmt 0 view .LVU464
 1611 0028 A36A     		ldr	r3, [r4, #40]
 275:lvgl/src/misc/lv_anim.c ****     new_value = new_value >> LV_BEZIER_VAL_SHIFT;
 1612              		.loc 1 275 41 view .LVU465
 1613 002a 226A     		ldr	r2, [r4, #32]
 275:lvgl/src/misc/lv_anim.c ****     new_value = new_value >> LV_BEZIER_VAL_SHIFT;
 1614              		.loc 1 275 38 view .LVU466
 1615 002c 9B1A     		subs	r3, r3, r2
 275:lvgl/src/misc/lv_anim.c ****     new_value = new_value >> LV_BEZIER_VAL_SHIFT;
 1616              		.loc 1 275 15 view .LVU467
ARM GAS  /var/folders/21/t9g5rlb91ys800n5npymflf80000gn/T//ccRyq8Ko.s 			page 45


 1617 002e 03FB00F0 		mul	r0, r3, r0
 1618              	.LVL144:
 276:lvgl/src/misc/lv_anim.c ****     new_value += a->start_value;
 1619              		.loc 1 276 5 is_stmt 1 view .LVU468
 277:lvgl/src/misc/lv_anim.c **** 
 1620              		.loc 1 277 5 view .LVU469
 279:lvgl/src/misc/lv_anim.c **** }
 1621              		.loc 1 279 5 view .LVU470
 280:lvgl/src/misc/lv_anim.c **** 
 1622              		.loc 1 280 1 is_stmt 0 view .LVU471
 1623 0032 02EBA020 		add	r0, r2, r0, asr #10
 1624              	.LVL145:
 280:lvgl/src/misc/lv_anim.c **** 
 1625              		.loc 1 280 1 view .LVU472
 1626 0036 03B0     		add	sp, sp, #12
 1627              	.LCFI27:
 1628              		.cfi_def_cfa_offset 12
 1629              		@ sp needed
 1630 0038 30BD     		pop	{r4, r5, pc}
 280:lvgl/src/misc/lv_anim.c **** 
 1631              		.loc 1 280 1 view .LVU473
 1632              		.cfi_endproc
 1633              	.LFE60:
 1635              		.section	.text.lv_anim_path_bounce,"ax",%progbits
 1636              		.align	1
 1637              		.global	lv_anim_path_bounce
 1638              		.syntax unified
 1639              		.thumb
 1640              		.thumb_func
 1642              	lv_anim_path_bounce:
 1643              	.LVL146:
 1644              	.LFB61:
 283:lvgl/src/misc/lv_anim.c ****     /*Calculate the current step*/
 1645              		.loc 1 283 1 is_stmt 1 view -0
 1646              		.cfi_startproc
 1647              		@ args = 0, pretend = 0, frame = 0
 1648              		@ frame_needed = 0, uses_anonymous_args = 0
 283:lvgl/src/misc/lv_anim.c ****     /*Calculate the current step*/
 1649              		.loc 1 283 1 is_stmt 0 view .LVU475
 1650 0000 30B5     		push	{r4, r5, lr}
 1651              	.LCFI28:
 1652              		.cfi_def_cfa_offset 12
 1653              		.cfi_offset 4, -12
 1654              		.cfi_offset 5, -8
 1655              		.cfi_offset 14, -4
 1656 0002 83B0     		sub	sp, sp, #12
 1657              	.LCFI29:
 1658              		.cfi_def_cfa_offset 24
 1659 0004 0446     		mov	r4, r0
 285:lvgl/src/misc/lv_anim.c ****     int32_t diff = (a->end_value - a->start_value);
 1660              		.loc 1 285 5 is_stmt 1 view .LVU476
 285:lvgl/src/misc/lv_anim.c ****     int32_t diff = (a->end_value - a->start_value);
 1661              		.loc 1 285 17 is_stmt 0 view .LVU477
 1662 0006 4FF48063 		mov	r3, #1024
 1663 000a 0093     		str	r3, [sp]
 1664 000c 0023     		movs	r3, #0
 1665 000e C26A     		ldr	r2, [r0, #44]
ARM GAS  /var/folders/21/t9g5rlb91ys800n5npymflf80000gn/T//ccRyq8Ko.s 			page 46


 1666 0010 1946     		mov	r1, r3
 1667 0012 006B     		ldr	r0, [r0, #48]
 1668              	.LVL147:
 285:lvgl/src/misc/lv_anim.c ****     int32_t diff = (a->end_value - a->start_value);
 1669              		.loc 1 285 17 view .LVU478
 1670 0014 FFF7FEFF 		bl	lv_map
 1671              	.LVL148:
 286:lvgl/src/misc/lv_anim.c **** 
 1672              		.loc 1 286 5 is_stmt 1 view .LVU479
 286:lvgl/src/misc/lv_anim.c **** 
 1673              		.loc 1 286 22 is_stmt 0 view .LVU480
 1674 0018 A36A     		ldr	r3, [r4, #40]
 286:lvgl/src/misc/lv_anim.c **** 
 1675              		.loc 1 286 37 view .LVU481
 1676 001a 226A     		ldr	r2, [r4, #32]
 286:lvgl/src/misc/lv_anim.c **** 
 1677              		.loc 1 286 13 view .LVU482
 1678 001c 9D1A     		subs	r5, r3, r2
 1679              	.LVL149:
 290:lvgl/src/misc/lv_anim.c ****         /*Go down*/
 1680              		.loc 1 290 5 is_stmt 1 view .LVU483
 290:lvgl/src/misc/lv_anim.c ****         /*Go down*/
 1681              		.loc 1 290 7 is_stmt 0 view .LVU484
 1682 001e B0F5CC7F 		cmp	r0, #408
 1683 0022 0BDA     		bge	.L112
 292:lvgl/src/misc/lv_anim.c ****     }
 1684              		.loc 1 292 9 is_stmt 1 view .LVU485
 292:lvgl/src/misc/lv_anim.c ****     }
 1685              		.loc 1 292 16 is_stmt 0 view .LVU486
 1686 0024 40F6C413 		movw	r3, #2500
 1687 0028 00FB03F3 		mul	r3, r0, r3
 292:lvgl/src/misc/lv_anim.c ****     }
 1688              		.loc 1 292 11 view .LVU487
 1689 002c 9812     		asrs	r0, r3, #10
 1690              	.LVL150:
 1691              	.L113:
 321:lvgl/src/misc/lv_anim.c ****     if(t < 0) t = 0;
 1692              		.loc 1 321 5 is_stmt 1 view .LVU488
 321:lvgl/src/misc/lv_anim.c ****     if(t < 0) t = 0;
 1693              		.loc 1 321 7 is_stmt 0 view .LVU489
 1694 002e B0F5806F 		cmp	r0, #1024
 1695 0032 41DC     		bgt	.L118
 322:lvgl/src/misc/lv_anim.c ****     int32_t step = lv_bezier3(t, LV_BEZIER_VAL_MAX, 800, 500, 0);
 1696              		.loc 1 322 5 is_stmt 1 view .LVU490
 322:lvgl/src/misc/lv_anim.c ****     int32_t step = lv_bezier3(t, LV_BEZIER_VAL_MAX, 800, 500, 0);
 1697              		.loc 1 322 7 is_stmt 0 view .LVU491
 1698 0034 0028     		cmp	r0, #0
 1699 0036 41DA     		bge	.L117
 322:lvgl/src/misc/lv_anim.c ****     int32_t step = lv_bezier3(t, LV_BEZIER_VAL_MAX, 800, 500, 0);
 1700              		.loc 1 322 17 view .LVU492
 1701 0038 0020     		movs	r0, #0
 1702              	.LVL151:
 322:lvgl/src/misc/lv_anim.c ****     int32_t step = lv_bezier3(t, LV_BEZIER_VAL_MAX, 800, 500, 0);
 1703              		.loc 1 322 17 view .LVU493
 1704 003a 3FE0     		b	.L117
 1705              	.LVL152:
 1706              	.L112:
ARM GAS  /var/folders/21/t9g5rlb91ys800n5npymflf80000gn/T//ccRyq8Ko.s 			page 47


 294:lvgl/src/misc/lv_anim.c ****         /*First bounce back*/
 1707              		.loc 1 294 10 is_stmt 1 view .LVU494
 294:lvgl/src/misc/lv_anim.c ****         /*First bounce back*/
 1708              		.loc 1 294 22 is_stmt 0 view .LVU495
 1709 003c A0F5CC73 		sub	r3, r0, #408
 294:lvgl/src/misc/lv_anim.c ****         /*First bounce back*/
 1710              		.loc 1 294 12 view .LVU496
 1711 0040 CD2B     		cmp	r3, #205
 1712 0042 0AD8     		bhi	.L114
 296:lvgl/src/misc/lv_anim.c ****         t    = t * 5; /*to [0..1024] range*/
 1713              		.loc 1 296 9 is_stmt 1 view .LVU497
 1714              	.LVL153:
 297:lvgl/src/misc/lv_anim.c ****         t    = LV_BEZIER_VAL_MAX - t;
 1715              		.loc 1 297 9 view .LVU498
 297:lvgl/src/misc/lv_anim.c ****         t    = LV_BEZIER_VAL_MAX - t;
 1716              		.loc 1 297 14 is_stmt 0 view .LVU499
 1717 0044 03EB8300 		add	r0, r3, r3, lsl #2
 1718              	.LVL154:
 298:lvgl/src/misc/lv_anim.c ****         diff = diff / 20;
 1719              		.loc 1 298 9 is_stmt 1 view .LVU500
 298:lvgl/src/misc/lv_anim.c ****         diff = diff / 20;
 1720              		.loc 1 298 14 is_stmt 0 view .LVU501
 1721 0048 C0F58060 		rsb	r0, r0, #1024
 1722              	.LVL155:
 299:lvgl/src/misc/lv_anim.c ****     }
 1723              		.loc 1 299 9 is_stmt 1 view .LVU502
 299:lvgl/src/misc/lv_anim.c ****     }
 1724              		.loc 1 299 14 is_stmt 0 view .LVU503
 1725 004c 244A     		ldr	r2, .L121
 1726 004e 82FB0532 		smull	r3, r2, r2, r5
 1727 0052 EB17     		asrs	r3, r5, #31
 1728 0054 C3EBE205 		rsb	r5, r3, r2, asr #3
 1729              	.LVL156:
 299:lvgl/src/misc/lv_anim.c ****     }
 1730              		.loc 1 299 14 view .LVU504
 1731 0058 E9E7     		b	.L113
 1732              	.L114:
 301:lvgl/src/misc/lv_anim.c ****         /*Fall back*/
 1733              		.loc 1 301 10 is_stmt 1 view .LVU505
 301:lvgl/src/misc/lv_anim.c ****         /*Fall back*/
 1734              		.loc 1 301 22 is_stmt 0 view .LVU506
 1735 005a A0F26623 		subw	r3, r0, #614
 301:lvgl/src/misc/lv_anim.c ****         /*Fall back*/
 1736              		.loc 1 301 12 view .LVU507
 1737 005e CC2B     		cmp	r3, #204
 1738 0060 08D8     		bhi	.L115
 303:lvgl/src/misc/lv_anim.c ****         t    = t * 5; /*to [0..1024] range*/
 1739              		.loc 1 303 9 is_stmt 1 view .LVU508
 1740              	.LVL157:
 304:lvgl/src/misc/lv_anim.c ****         diff = diff / 20;
 1741              		.loc 1 304 9 view .LVU509
 304:lvgl/src/misc/lv_anim.c ****         diff = diff / 20;
 1742              		.loc 1 304 14 is_stmt 0 view .LVU510
 1743 0062 03EB8300 		add	r0, r3, r3, lsl #2
 1744              	.LVL158:
 305:lvgl/src/misc/lv_anim.c ****     }
 1745              		.loc 1 305 9 is_stmt 1 view .LVU511
ARM GAS  /var/folders/21/t9g5rlb91ys800n5npymflf80000gn/T//ccRyq8Ko.s 			page 48


 305:lvgl/src/misc/lv_anim.c ****     }
 1746              		.loc 1 305 14 is_stmt 0 view .LVU512
 1747 0066 1E4A     		ldr	r2, .L121
 1748 0068 82FB0532 		smull	r3, r2, r2, r5
 1749 006c EB17     		asrs	r3, r5, #31
 1750 006e C3EBE205 		rsb	r5, r3, r2, asr #3
 1751              	.LVL159:
 305:lvgl/src/misc/lv_anim.c ****     }
 1752              		.loc 1 305 14 view .LVU513
 1753 0072 DCE7     		b	.L113
 1754              	.L115:
 307:lvgl/src/misc/lv_anim.c ****         /*Second bounce back*/
 1755              		.loc 1 307 10 is_stmt 1 view .LVU514
 307:lvgl/src/misc/lv_anim.c ****         /*Second bounce back*/
 1756              		.loc 1 307 22 is_stmt 0 view .LVU515
 1757 0074 A0F23333 		subw	r3, r0, #819
 307:lvgl/src/misc/lv_anim.c ****         /*Second bounce back*/
 1758              		.loc 1 307 12 view .LVU516
 1759 0078 652B     		cmp	r3, #101
 1760 007a 0DD8     		bhi	.L116
 309:lvgl/src/misc/lv_anim.c ****         t    = t * 10; /*to [0..1024] range*/
 1761              		.loc 1 309 9 is_stmt 1 view .LVU517
 309:lvgl/src/misc/lv_anim.c ****         t    = t * 10; /*to [0..1024] range*/
 1762              		.loc 1 309 11 is_stmt 0 view .LVU518
 1763 007c A0F23330 		subw	r0, r0, #819
 1764              	.LVL160:
 310:lvgl/src/misc/lv_anim.c ****         t    = LV_BEZIER_VAL_MAX - t;
 1765              		.loc 1 310 9 is_stmt 1 view .LVU519
 310:lvgl/src/misc/lv_anim.c ****         t    = LV_BEZIER_VAL_MAX - t;
 1766              		.loc 1 310 14 is_stmt 0 view .LVU520
 1767 0080 00EB8000 		add	r0, r0, r0, lsl #2
 1768              	.LVL161:
 310:lvgl/src/misc/lv_anim.c ****         t    = LV_BEZIER_VAL_MAX - t;
 1769              		.loc 1 310 14 view .LVU521
 1770 0084 4000     		lsls	r0, r0, #1
 1771              	.LVL162:
 311:lvgl/src/misc/lv_anim.c ****         diff = diff / 40;
 1772              		.loc 1 311 9 is_stmt 1 view .LVU522
 311:lvgl/src/misc/lv_anim.c ****         diff = diff / 40;
 1773              		.loc 1 311 14 is_stmt 0 view .LVU523
 1774 0086 C0F58060 		rsb	r0, r0, #1024
 1775              	.LVL163:
 312:lvgl/src/misc/lv_anim.c ****     }
 1776              		.loc 1 312 9 is_stmt 1 view .LVU524
 312:lvgl/src/misc/lv_anim.c ****     }
 1777              		.loc 1 312 14 is_stmt 0 view .LVU525
 1778 008a 154A     		ldr	r2, .L121
 1779 008c 82FB0532 		smull	r3, r2, r2, r5
 1780 0090 EB17     		asrs	r3, r5, #31
 1781 0092 C3EB2215 		rsb	r5, r3, r2, asr #4
 1782              	.LVL164:
 312:lvgl/src/misc/lv_anim.c ****     }
 1783              		.loc 1 312 14 view .LVU526
 1784 0096 CAE7     		b	.L113
 1785              	.L116:
 314:lvgl/src/misc/lv_anim.c ****         /*Fall back*/
 1786              		.loc 1 314 10 is_stmt 1 view .LVU527
ARM GAS  /var/folders/21/t9g5rlb91ys800n5npymflf80000gn/T//ccRyq8Ko.s 			page 49


 314:lvgl/src/misc/lv_anim.c ****         /*Fall back*/
 1787              		.loc 1 314 22 is_stmt 0 view .LVU528
 1788 0098 A0F29932 		subw	r2, r0, #921
 314:lvgl/src/misc/lv_anim.c ****         /*Fall back*/
 1789              		.loc 1 314 12 view .LVU529
 1790 009c 672A     		cmp	r2, #103
 1791 009e C6D8     		bhi	.L113
 316:lvgl/src/misc/lv_anim.c ****         t    = t * 10; /*to [0..1024] range*/
 1792              		.loc 1 316 9 is_stmt 1 view .LVU530
 316:lvgl/src/misc/lv_anim.c ****         t    = t * 10; /*to [0..1024] range*/
 1793              		.loc 1 316 11 is_stmt 0 view .LVU531
 1794 00a0 A0F29930 		subw	r0, r0, #921
 1795              	.LVL165:
 317:lvgl/src/misc/lv_anim.c ****         diff = diff / 40;
 1796              		.loc 1 317 9 is_stmt 1 view .LVU532
 317:lvgl/src/misc/lv_anim.c ****         diff = diff / 40;
 1797              		.loc 1 317 14 is_stmt 0 view .LVU533
 1798 00a4 00EB8000 		add	r0, r0, r0, lsl #2
 1799              	.LVL166:
 317:lvgl/src/misc/lv_anim.c ****         diff = diff / 40;
 1800              		.loc 1 317 14 view .LVU534
 1801 00a8 4000     		lsls	r0, r0, #1
 1802              	.LVL167:
 318:lvgl/src/misc/lv_anim.c ****     }
 1803              		.loc 1 318 9 is_stmt 1 view .LVU535
 318:lvgl/src/misc/lv_anim.c ****     }
 1804              		.loc 1 318 14 is_stmt 0 view .LVU536
 1805 00aa 0D4A     		ldr	r2, .L121
 1806 00ac 82FB0532 		smull	r3, r2, r2, r5
 1807 00b0 EB17     		asrs	r3, r5, #31
 1808 00b2 C3EB2215 		rsb	r5, r3, r2, asr #4
 1809              	.LVL168:
 318:lvgl/src/misc/lv_anim.c ****     }
 1810              		.loc 1 318 14 view .LVU537
 1811 00b6 BAE7     		b	.L113
 1812              	.L118:
 321:lvgl/src/misc/lv_anim.c ****     if(t < 0) t = 0;
 1813              		.loc 1 321 33 view .LVU538
 1814 00b8 4FF48060 		mov	r0, #1024
 1815              	.LVL169:
 1816              	.L117:
 323:lvgl/src/misc/lv_anim.c **** 
 1817              		.loc 1 323 5 is_stmt 1 view .LVU539
 323:lvgl/src/misc/lv_anim.c **** 
 1818              		.loc 1 323 20 is_stmt 0 view .LVU540
 1819 00bc 0023     		movs	r3, #0
 1820 00be 0093     		str	r3, [sp]
 1821 00c0 4FF4FA73 		mov	r3, #500
 1822 00c4 4FF44872 		mov	r2, #800
 1823 00c8 4FF48061 		mov	r1, #1024
 1824 00cc FFF7FEFF 		bl	lv_bezier3
 1825              	.LVL170:
 325:lvgl/src/misc/lv_anim.c ****     new_value = step * diff;
 1826              		.loc 1 325 5 is_stmt 1 view .LVU541
 326:lvgl/src/misc/lv_anim.c ****     new_value = new_value >> LV_BEZIER_VAL_SHIFT;
 1827              		.loc 1 326 5 view .LVU542
 326:lvgl/src/misc/lv_anim.c ****     new_value = new_value >> LV_BEZIER_VAL_SHIFT;
ARM GAS  /var/folders/21/t9g5rlb91ys800n5npymflf80000gn/T//ccRyq8Ko.s 			page 50


 1828              		.loc 1 326 15 is_stmt 0 view .LVU543
 1829 00d0 00FB05F5 		mul	r5, r0, r5
 1830              	.LVL171:
 327:lvgl/src/misc/lv_anim.c ****     new_value = a->end_value - new_value;
 1831              		.loc 1 327 5 is_stmt 1 view .LVU544
 328:lvgl/src/misc/lv_anim.c **** 
 1832              		.loc 1 328 5 view .LVU545
 328:lvgl/src/misc/lv_anim.c **** 
 1833              		.loc 1 328 18 is_stmt 0 view .LVU546
 1834 00d4 A06A     		ldr	r0, [r4, #40]
 1835              	.LVL172:
 330:lvgl/src/misc/lv_anim.c **** }
 1836              		.loc 1 330 5 is_stmt 1 view .LVU547
 331:lvgl/src/misc/lv_anim.c **** 
 1837              		.loc 1 331 1 is_stmt 0 view .LVU548
 1838 00d6 A0EBA520 		sub	r0, r0, r5, asr #10
 1839              	.LVL173:
 331:lvgl/src/misc/lv_anim.c **** 
 1840              		.loc 1 331 1 view .LVU549
 1841 00da 03B0     		add	sp, sp, #12
 1842              	.LCFI30:
 1843              		.cfi_def_cfa_offset 12
 1844              		@ sp needed
 1845 00dc 30BD     		pop	{r4, r5, pc}
 1846              	.LVL174:
 1847              	.L122:
 331:lvgl/src/misc/lv_anim.c **** 
 1848              		.loc 1 331 1 view .LVU550
 1849 00de 00BF     		.align	2
 1850              	.L121:
 1851 00e0 67666666 		.word	1717986919
 1852              		.cfi_endproc
 1853              	.LFE61:
 1855              		.section	.text.lv_anim_path_step,"ax",%progbits
 1856              		.align	1
 1857              		.global	lv_anim_path_step
 1858              		.syntax unified
 1859              		.thumb
 1860              		.thumb_func
 1862              	lv_anim_path_step:
 1863              	.LVL175:
 1864              	.LFB62:
 334:lvgl/src/misc/lv_anim.c ****     if(a->act_time >= a->time)
 1865              		.loc 1 334 1 is_stmt 1 view -0
 1866              		.cfi_startproc
 1867              		@ args = 0, pretend = 0, frame = 0
 1868              		@ frame_needed = 0, uses_anonymous_args = 0
 1869              		@ link register save eliminated.
 335:lvgl/src/misc/lv_anim.c ****         return a->end_value;
 1870              		.loc 1 335 5 view .LVU552
 335:lvgl/src/misc/lv_anim.c ****         return a->end_value;
 1871              		.loc 1 335 9 is_stmt 0 view .LVU553
 1872 0000 026B     		ldr	r2, [r0, #48]
 335:lvgl/src/misc/lv_anim.c ****         return a->end_value;
 1873              		.loc 1 335 24 view .LVU554
 1874 0002 C36A     		ldr	r3, [r0, #44]
 335:lvgl/src/misc/lv_anim.c ****         return a->end_value;
ARM GAS  /var/folders/21/t9g5rlb91ys800n5npymflf80000gn/T//ccRyq8Ko.s 			page 51


 1875              		.loc 1 335 7 view .LVU555
 1876 0004 9A42     		cmp	r2, r3
 1877 0006 01DB     		blt	.L124
 336:lvgl/src/misc/lv_anim.c ****     else
 1878              		.loc 1 336 9 is_stmt 1 view .LVU556
 336:lvgl/src/misc/lv_anim.c ****     else
 1879              		.loc 1 336 17 is_stmt 0 view .LVU557
 1880 0008 806A     		ldr	r0, [r0, #40]
 1881              	.LVL176:
 336:lvgl/src/misc/lv_anim.c ****     else
 1882              		.loc 1 336 17 view .LVU558
 1883 000a 7047     		bx	lr
 1884              	.LVL177:
 1885              	.L124:
 338:lvgl/src/misc/lv_anim.c **** }
 1886              		.loc 1 338 9 is_stmt 1 view .LVU559
 338:lvgl/src/misc/lv_anim.c **** }
 1887              		.loc 1 338 17 is_stmt 0 view .LVU560
 1888 000c 006A     		ldr	r0, [r0, #32]
 1889              	.LVL178:
 339:lvgl/src/misc/lv_anim.c **** 
 1890              		.loc 1 339 1 view .LVU561
 1891 000e 7047     		bx	lr
 1892              		.cfi_endproc
 1893              	.LFE62:
 1895              		.section	.bss._lv_anim_tmr,"aw",%nobits
 1896              		.align	2
 1899              	_lv_anim_tmr:
 1900 0000 00000000 		.space	4
 1901              		.section	.bss.anim_run_round,"aw",%nobits
 1904              	anim_run_round:
 1905 0000 00       		.space	1
 1906              		.section	.bss.anim_list_changed,"aw",%nobits
 1909              	anim_list_changed:
 1910 0000 00       		.space	1
 1911              		.section	.bss.last_timer_run,"aw",%nobits
 1912              		.align	2
 1915              	last_timer_run:
 1916 0000 00000000 		.space	4
 1917              		.text
 1918              	.Letext0:
 1919              		.file 2 "/usr/local/include/sys/_types/_int32_t.h"
 1920              		.file 3 "/usr/local/include/_types/_uint8_t.h"
 1921              		.file 4 "/usr/local/include/_types/_uint16_t.h"
 1922              		.file 5 "/usr/local/include/_types/_uint32_t.h"
 1923              		.file 6 "/usr/local/include/arm/_types.h"
 1924              		.file 7 "/usr/local/include/sys/_types/_size_t.h"
 1925              		.file 8 "lvgl/src/misc/lv_anim.h"
 1926              		.file 9 "lvgl/src/misc/lv_timer.h"
 1927              		.file 10 "lvgl/src/misc/lv_ll.h"
 1928              		.file 11 "lvgl/src/misc/lv_math.h"
 1929              		.file 12 "lvgl/src/misc/lv_mem.h"
 1930              		.file 13 "lvgl/src/misc/../hal/lv_hal_tick.h"
 1931              		.file 14 "lvgl/src/misc/lv_gc.h"
ARM GAS  /var/folders/21/t9g5rlb91ys800n5npymflf80000gn/T//ccRyq8Ko.s 			page 52

