ARM GAS  /var/folders/21/t9g5rlb91ys800n5npymflf80000gn/T//ccWhqKje.s 			page 1


   1              		.cpu cortex-m4
   2              		.arch armv7e-m
   3              		.fpu fpv4-sp-d16
   4              		.eabi_attribute 27, 1
   5              		.eabi_attribute 28, 1
   6              		.eabi_attribute 20, 1
   7              		.eabi_attribute 21, 1
   8              		.eabi_attribute 23, 3
   9              		.eabi_attribute 24, 1
  10              		.eabi_attribute 25, 1
  11              		.eabi_attribute 26, 1
  12              		.eabi_attribute 30, 1
  13              		.eabi_attribute 34, 1
  14              		.eabi_attribute 18, 4
  15              		.file	"lv_btn.c"
  16              		.text
  17              	.Ltext0:
  18              		.cfi_sections	.debug_frame
  19              		.file 1 "lvgl/src/widgets/lv_btn.c"
  20              		.section	.text.lv_btn_constructor,"ax",%progbits
  21              		.align	1
  22              		.syntax unified
  23              		.thumb
  24              		.thumb_func
  26              	lv_btn_constructor:
  27              	.LVL0:
  28              	.LFB167:
   1:lvgl/src/widgets/lv_btn.c **** /**
   2:lvgl/src/widgets/lv_btn.c ****  * @file lv_btn.c
   3:lvgl/src/widgets/lv_btn.c ****  *
   4:lvgl/src/widgets/lv_btn.c ****  */
   5:lvgl/src/widgets/lv_btn.c **** 
   6:lvgl/src/widgets/lv_btn.c **** /*********************
   7:lvgl/src/widgets/lv_btn.c ****  *      INCLUDES
   8:lvgl/src/widgets/lv_btn.c ****  *********************/
   9:lvgl/src/widgets/lv_btn.c **** 
  10:lvgl/src/widgets/lv_btn.c **** #include "lv_btn.h"
  11:lvgl/src/widgets/lv_btn.c **** #if LV_USE_BTN != 0
  12:lvgl/src/widgets/lv_btn.c **** 
  13:lvgl/src/widgets/lv_btn.c **** #include "../extra/layouts/flex/lv_flex.h"
  14:lvgl/src/widgets/lv_btn.c **** 
  15:lvgl/src/widgets/lv_btn.c **** /*********************
  16:lvgl/src/widgets/lv_btn.c ****  *      DEFINES
  17:lvgl/src/widgets/lv_btn.c ****  *********************/
  18:lvgl/src/widgets/lv_btn.c **** #define MY_CLASS &lv_btn_class
  19:lvgl/src/widgets/lv_btn.c **** 
  20:lvgl/src/widgets/lv_btn.c **** /**********************
  21:lvgl/src/widgets/lv_btn.c ****  *      TYPEDEFS
  22:lvgl/src/widgets/lv_btn.c ****  **********************/
  23:lvgl/src/widgets/lv_btn.c **** 
  24:lvgl/src/widgets/lv_btn.c **** /**********************
  25:lvgl/src/widgets/lv_btn.c ****  *  STATIC PROTOTYPES
  26:lvgl/src/widgets/lv_btn.c ****  **********************/
  27:lvgl/src/widgets/lv_btn.c **** static void lv_btn_constructor(const lv_obj_class_t * class_p, lv_obj_t * obj);
  28:lvgl/src/widgets/lv_btn.c **** 
  29:lvgl/src/widgets/lv_btn.c **** /**********************
  30:lvgl/src/widgets/lv_btn.c ****  *  STATIC VARIABLES
ARM GAS  /var/folders/21/t9g5rlb91ys800n5npymflf80000gn/T//ccWhqKje.s 			page 2


  31:lvgl/src/widgets/lv_btn.c ****  **********************/
  32:lvgl/src/widgets/lv_btn.c **** const lv_obj_class_t lv_btn_class  = {
  33:lvgl/src/widgets/lv_btn.c ****     .constructor_cb = lv_btn_constructor,
  34:lvgl/src/widgets/lv_btn.c ****     .width_def = LV_SIZE_CONTENT,
  35:lvgl/src/widgets/lv_btn.c ****     .height_def = LV_SIZE_CONTENT,
  36:lvgl/src/widgets/lv_btn.c ****     .group_def = LV_OBJ_CLASS_GROUP_DEF_TRUE,
  37:lvgl/src/widgets/lv_btn.c ****     .instance_size = sizeof(lv_btn_t),
  38:lvgl/src/widgets/lv_btn.c ****     .base_class = &lv_obj_class
  39:lvgl/src/widgets/lv_btn.c **** };
  40:lvgl/src/widgets/lv_btn.c **** 
  41:lvgl/src/widgets/lv_btn.c **** /**********************
  42:lvgl/src/widgets/lv_btn.c ****  *      MACROS
  43:lvgl/src/widgets/lv_btn.c ****  **********************/
  44:lvgl/src/widgets/lv_btn.c **** 
  45:lvgl/src/widgets/lv_btn.c **** /**********************
  46:lvgl/src/widgets/lv_btn.c ****  *   GLOBAL FUNCTIONS
  47:lvgl/src/widgets/lv_btn.c ****  **********************/
  48:lvgl/src/widgets/lv_btn.c **** 
  49:lvgl/src/widgets/lv_btn.c **** lv_obj_t * lv_btn_create(lv_obj_t * parent)
  50:lvgl/src/widgets/lv_btn.c **** {
  51:lvgl/src/widgets/lv_btn.c ****     LV_LOG_INFO("begin");
  52:lvgl/src/widgets/lv_btn.c ****     lv_obj_t * obj = lv_obj_class_create_obj(MY_CLASS, parent);
  53:lvgl/src/widgets/lv_btn.c ****     lv_obj_class_init_obj(obj);
  54:lvgl/src/widgets/lv_btn.c ****     return obj;
  55:lvgl/src/widgets/lv_btn.c **** }
  56:lvgl/src/widgets/lv_btn.c **** 
  57:lvgl/src/widgets/lv_btn.c **** /**********************
  58:lvgl/src/widgets/lv_btn.c ****  *   STATIC FUNCTIONS
  59:lvgl/src/widgets/lv_btn.c ****  **********************/
  60:lvgl/src/widgets/lv_btn.c **** 
  61:lvgl/src/widgets/lv_btn.c **** static void lv_btn_constructor(const lv_obj_class_t * class_p, lv_obj_t * obj)
  62:lvgl/src/widgets/lv_btn.c **** {
  29              		.loc 1 62 1 view -0
  30              		.cfi_startproc
  31              		@ args = 0, pretend = 0, frame = 0
  32              		@ frame_needed = 0, uses_anonymous_args = 0
  33              		.loc 1 62 1 is_stmt 0 view .LVU1
  34 0000 10B5     		push	{r4, lr}
  35              	.LCFI0:
  36              		.cfi_def_cfa_offset 8
  37              		.cfi_offset 4, -8
  38              		.cfi_offset 14, -4
  39 0002 0C46     		mov	r4, r1
  63:lvgl/src/widgets/lv_btn.c ****     LV_UNUSED(class_p);
  40              		.loc 1 63 5 is_stmt 1 view .LVU2
  64:lvgl/src/widgets/lv_btn.c ****     LV_TRACE_OBJ_CREATE("begin");
  41              		.loc 1 64 33 view .LVU3
  65:lvgl/src/widgets/lv_btn.c **** 
  66:lvgl/src/widgets/lv_btn.c ****     lv_obj_clear_flag(obj, LV_OBJ_FLAG_SCROLLABLE);
  42              		.loc 1 66 5 view .LVU4
  43 0004 1021     		movs	r1, #16
  44              	.LVL1:
  45              		.loc 1 66 5 is_stmt 0 view .LVU5
  46 0006 2046     		mov	r0, r4
  47              	.LVL2:
  48              		.loc 1 66 5 view .LVU6
  49 0008 FFF7FEFF 		bl	lv_obj_clear_flag
ARM GAS  /var/folders/21/t9g5rlb91ys800n5npymflf80000gn/T//ccWhqKje.s 			page 3


  50              	.LVL3:
  67:lvgl/src/widgets/lv_btn.c ****     lv_obj_add_flag(obj, LV_OBJ_FLAG_SCROLL_ON_FOCUS);
  51              		.loc 1 67 5 is_stmt 1 view .LVU7
  52 000c 4FF48061 		mov	r1, #1024
  53 0010 2046     		mov	r0, r4
  54 0012 FFF7FEFF 		bl	lv_obj_add_flag
  55              	.LVL4:
  68:lvgl/src/widgets/lv_btn.c **** 
  69:lvgl/src/widgets/lv_btn.c ****     LV_TRACE_OBJ_CREATE("finished");
  56              		.loc 1 69 36 view .LVU8
  70:lvgl/src/widgets/lv_btn.c **** }
  57              		.loc 1 70 1 is_stmt 0 view .LVU9
  58 0016 10BD     		pop	{r4, pc}
  59              		.loc 1 70 1 view .LVU10
  60              		.cfi_endproc
  61              	.LFE167:
  63              		.section	.text.lv_btn_create,"ax",%progbits
  64              		.align	1
  65              		.global	lv_btn_create
  66              		.syntax unified
  67              		.thumb
  68              		.thumb_func
  70              	lv_btn_create:
  71              	.LVL5:
  72              	.LFB166:
  50:lvgl/src/widgets/lv_btn.c ****     LV_LOG_INFO("begin");
  73              		.loc 1 50 1 is_stmt 1 view -0
  74              		.cfi_startproc
  75              		@ args = 0, pretend = 0, frame = 0
  76              		@ frame_needed = 0, uses_anonymous_args = 0
  50:lvgl/src/widgets/lv_btn.c ****     LV_LOG_INFO("begin");
  77              		.loc 1 50 1 is_stmt 0 view .LVU12
  78 0000 10B5     		push	{r4, lr}
  79              	.LCFI1:
  80              		.cfi_def_cfa_offset 8
  81              		.cfi_offset 4, -8
  82              		.cfi_offset 14, -4
  83 0002 0146     		mov	r1, r0
  51:lvgl/src/widgets/lv_btn.c ****     lv_obj_t * obj = lv_obj_class_create_obj(MY_CLASS, parent);
  84              		.loc 1 51 5 is_stmt 1 view .LVU13
  51:lvgl/src/widgets/lv_btn.c ****     lv_obj_t * obj = lv_obj_class_create_obj(MY_CLASS, parent);
  85              		.loc 1 51 5 view .LVU14
  51:lvgl/src/widgets/lv_btn.c ****     lv_obj_t * obj = lv_obj_class_create_obj(MY_CLASS, parent);
  86              		.loc 1 51 5 view .LVU15
  52:lvgl/src/widgets/lv_btn.c ****     lv_obj_class_init_obj(obj);
  87              		.loc 1 52 5 view .LVU16
  52:lvgl/src/widgets/lv_btn.c ****     lv_obj_class_init_obj(obj);
  88              		.loc 1 52 22 is_stmt 0 view .LVU17
  89 0004 0348     		ldr	r0, .L5
  90              	.LVL6:
  52:lvgl/src/widgets/lv_btn.c ****     lv_obj_class_init_obj(obj);
  91              		.loc 1 52 22 view .LVU18
  92 0006 FFF7FEFF 		bl	lv_obj_class_create_obj
  93              	.LVL7:
  52:lvgl/src/widgets/lv_btn.c ****     lv_obj_class_init_obj(obj);
  94              		.loc 1 52 22 view .LVU19
  95 000a 0446     		mov	r4, r0
ARM GAS  /var/folders/21/t9g5rlb91ys800n5npymflf80000gn/T//ccWhqKje.s 			page 4


  96              	.LVL8:
  53:lvgl/src/widgets/lv_btn.c ****     return obj;
  97              		.loc 1 53 5 is_stmt 1 view .LVU20
  98 000c FFF7FEFF 		bl	lv_obj_class_init_obj
  99              	.LVL9:
  54:lvgl/src/widgets/lv_btn.c **** }
 100              		.loc 1 54 5 view .LVU21
  55:lvgl/src/widgets/lv_btn.c **** 
 101              		.loc 1 55 1 is_stmt 0 view .LVU22
 102 0010 2046     		mov	r0, r4
 103 0012 10BD     		pop	{r4, pc}
 104              	.LVL10:
 105              	.L6:
  55:lvgl/src/widgets/lv_btn.c **** 
 106              		.loc 1 55 1 view .LVU23
 107              		.align	2
 108              	.L5:
 109 0014 00000000 		.word	lv_btn_class
 110              		.cfi_endproc
 111              	.LFE166:
 113              		.global	lv_btn_class
 114              		.section	.rodata.lv_btn_class,"a"
 115              		.align	2
 118              	lv_btn_class:
 119 0000 00000000 		.word	lv_obj_class
 120 0004 00000000 		.word	lv_btn_constructor
 121 0008 00000000 		.space	12
 121      00000000 
 121      00000000 
 122 0014 D127     		.short	10193
 123 0016 D127     		.short	10193
 124 0018 44       		.byte	68
 125 0019 02       		.byte	2
 126 001a 00       		.byte	0
 127 001b 00       		.space	1
 128              		.text
 129              	.Letext0:
 130              		.file 2 "/usr/local/include/sys/_types/_int16_t.h"
 131              		.file 3 "/usr/local/include/sys/_types/_int32_t.h"
 132              		.file 4 "/usr/local/include/_types/_uint8_t.h"
 133              		.file 5 "/usr/local/include/_types/_uint16_t.h"
 134              		.file 6 "/usr/local/include/_types/_uint32_t.h"
 135              		.file 7 "lvgl/src/widgets/../core/../misc/../font/../misc/lv_area.h"
 136              		.file 8 "lvgl/src/widgets/../core/../misc/lv_color.h"
 137              		.file 9 "lvgl/src/widgets/../core/../misc/lv_style.h"
 138              		.file 10 "lvgl/src/widgets/../core/lv_obj.h"
 139              		.file 11 "lvgl/src/widgets/../core/../hal/../misc/lv_ll.h"
 140              		.file 12 "lvgl/src/widgets/../core/lv_group.h"
 141              		.file 13 "lvgl/src/widgets/../core/lv_obj_scroll.h"
 142              		.file 14 "lvgl/src/widgets/../core/lv_obj_style.h"
 143              		.file 15 "lvgl/src/widgets/../core/lv_obj_class.h"
 144              		.file 16 "lvgl/src/widgets/../core/lv_event.h"
 145              		.file 17 "lvgl/src/widgets/lv_btn.h"
ARM GAS  /var/folders/21/t9g5rlb91ys800n5npymflf80000gn/T//ccWhqKje.s 			page 5

