ARM GAS  /var/folders/21/t9g5rlb91ys800n5npymflf80000gn/T//ccSbQiFP.s 			page 1


   1              		.cpu cortex-m4
   2              		.arch armv7e-m
   3              		.fpu fpv4-sp-d16
   4              		.eabi_attribute 27, 1
   5              		.eabi_attribute 28, 1
   6              		.eabi_attribute 20, 1
   7              		.eabi_attribute 21, 1
   8              		.eabi_attribute 23, 3
   9              		.eabi_attribute 24, 1
  10              		.eabi_attribute 25, 1
  11              		.eabi_attribute 26, 1
  12              		.eabi_attribute 30, 1
  13              		.eabi_attribute 34, 1
  14              		.eabi_attribute 18, 4
  15              		.file	"lv_btnmatrix.c"
  16              		.text
  17              	.Ltext0:
  18              		.cfi_sections	.debug_frame
  19              		.file 1 "lvgl/src/widgets/lv_btnmatrix.c"
  20              		.section	.text.get_button_width,"ax",%progbits
  21              		.align	1
  22              		.syntax unified
  23              		.thumb
  24              		.thumb_func
  26              	get_button_width:
  27              	.LVL0:
  28              	.LFB181:
   1:lvgl/src/widgets/lv_btnmatrix.c **** /**
   2:lvgl/src/widgets/lv_btnmatrix.c ****  * @file lv_btnmatrix.c
   3:lvgl/src/widgets/lv_btnmatrix.c ****  *
   4:lvgl/src/widgets/lv_btnmatrix.c ****  */
   5:lvgl/src/widgets/lv_btnmatrix.c **** 
   6:lvgl/src/widgets/lv_btnmatrix.c **** /*********************
   7:lvgl/src/widgets/lv_btnmatrix.c ****  *      INCLUDES
   8:lvgl/src/widgets/lv_btnmatrix.c ****  *********************/
   9:lvgl/src/widgets/lv_btnmatrix.c **** #include "lv_btnmatrix.h"
  10:lvgl/src/widgets/lv_btnmatrix.c **** #if LV_USE_BTNMATRIX != 0
  11:lvgl/src/widgets/lv_btnmatrix.c **** 
  12:lvgl/src/widgets/lv_btnmatrix.c **** #include "../misc/lv_assert.h"
  13:lvgl/src/widgets/lv_btnmatrix.c **** #include "../core/lv_indev.h"
  14:lvgl/src/widgets/lv_btnmatrix.c **** #include "../core/lv_group.h"
  15:lvgl/src/widgets/lv_btnmatrix.c **** #include "../draw/lv_draw.h"
  16:lvgl/src/widgets/lv_btnmatrix.c **** #include "../core/lv_refr.h"
  17:lvgl/src/widgets/lv_btnmatrix.c **** #include "../misc/lv_txt.h"
  18:lvgl/src/widgets/lv_btnmatrix.c **** #include "../misc/lv_txt_ap.h"
  19:lvgl/src/widgets/lv_btnmatrix.c **** 
  20:lvgl/src/widgets/lv_btnmatrix.c **** /*********************
  21:lvgl/src/widgets/lv_btnmatrix.c ****  *      DEFINES
  22:lvgl/src/widgets/lv_btnmatrix.c ****  *********************/
  23:lvgl/src/widgets/lv_btnmatrix.c **** #define MY_CLASS &lv_btnmatrix_class
  24:lvgl/src/widgets/lv_btnmatrix.c **** 
  25:lvgl/src/widgets/lv_btnmatrix.c **** #define BTN_EXTRA_CLICK_AREA_MAX (LV_DPI_DEF / 10)
  26:lvgl/src/widgets/lv_btnmatrix.c **** #define LV_BTNMATRIX_WIDTH_MASK 0x000F
  27:lvgl/src/widgets/lv_btnmatrix.c **** 
  28:lvgl/src/widgets/lv_btnmatrix.c **** /**********************
  29:lvgl/src/widgets/lv_btnmatrix.c ****  *      TYPEDEFS
  30:lvgl/src/widgets/lv_btnmatrix.c ****  **********************/
ARM GAS  /var/folders/21/t9g5rlb91ys800n5npymflf80000gn/T//ccSbQiFP.s 			page 2


  31:lvgl/src/widgets/lv_btnmatrix.c **** 
  32:lvgl/src/widgets/lv_btnmatrix.c **** /**********************
  33:lvgl/src/widgets/lv_btnmatrix.c ****  *  STATIC PROTOTYPES
  34:lvgl/src/widgets/lv_btnmatrix.c ****  **********************/
  35:lvgl/src/widgets/lv_btnmatrix.c **** static void lv_btnmatrix_constructor(const lv_obj_class_t * class_p, lv_obj_t * obj);
  36:lvgl/src/widgets/lv_btnmatrix.c **** static void lv_btnmatrix_destructor(const lv_obj_class_t * class_p, lv_obj_t * obj);
  37:lvgl/src/widgets/lv_btnmatrix.c **** static void lv_btnmatrix_event(const lv_obj_class_t * class_p, lv_event_t * e);
  38:lvgl/src/widgets/lv_btnmatrix.c **** static void draw_main(lv_event_t * e);
  39:lvgl/src/widgets/lv_btnmatrix.c **** 
  40:lvgl/src/widgets/lv_btnmatrix.c **** static uint8_t get_button_width(lv_btnmatrix_ctrl_t ctrl_bits);
  41:lvgl/src/widgets/lv_btnmatrix.c **** static bool button_is_hidden(lv_btnmatrix_ctrl_t ctrl_bits);
  42:lvgl/src/widgets/lv_btnmatrix.c **** static bool button_is_checked(lv_btnmatrix_ctrl_t ctrl_bits);
  43:lvgl/src/widgets/lv_btnmatrix.c **** static bool button_is_repeat_disabled(lv_btnmatrix_ctrl_t ctrl_bits);
  44:lvgl/src/widgets/lv_btnmatrix.c **** static bool button_is_inactive(lv_btnmatrix_ctrl_t ctrl_bits);
  45:lvgl/src/widgets/lv_btnmatrix.c **** static bool button_is_click_trig(lv_btnmatrix_ctrl_t ctrl_bits);
  46:lvgl/src/widgets/lv_btnmatrix.c **** static bool button_is_popover(lv_btnmatrix_ctrl_t ctrl_bits);
  47:lvgl/src/widgets/lv_btnmatrix.c **** static bool button_is_checkable(lv_btnmatrix_ctrl_t ctrl_bits);
  48:lvgl/src/widgets/lv_btnmatrix.c **** static bool button_is_recolor(lv_btnmatrix_ctrl_t ctrl_bits);
  49:lvgl/src/widgets/lv_btnmatrix.c **** static bool button_get_checked(lv_btnmatrix_ctrl_t ctrl_bits);
  50:lvgl/src/widgets/lv_btnmatrix.c **** static uint16_t get_button_from_point(lv_obj_t * obj, lv_point_t * p);
  51:lvgl/src/widgets/lv_btnmatrix.c **** static void allocate_btn_areas_and_controls(const lv_obj_t * obj, const char ** map);
  52:lvgl/src/widgets/lv_btnmatrix.c **** static void invalidate_button_area(const lv_obj_t * obj, uint16_t btn_idx);
  53:lvgl/src/widgets/lv_btnmatrix.c **** static void make_one_button_checked(lv_obj_t * obj, uint16_t btn_idx);
  54:lvgl/src/widgets/lv_btnmatrix.c **** static bool has_popovers_in_top_row(lv_obj_t * obj);
  55:lvgl/src/widgets/lv_btnmatrix.c **** 
  56:lvgl/src/widgets/lv_btnmatrix.c **** /**********************
  57:lvgl/src/widgets/lv_btnmatrix.c ****  *  STATIC VARIABLES
  58:lvgl/src/widgets/lv_btnmatrix.c ****  **********************/
  59:lvgl/src/widgets/lv_btnmatrix.c **** static const char * lv_btnmatrix_def_map[] = {"Btn1", "Btn2", "Btn3", "\n", "Btn4", "Btn5", ""};
  60:lvgl/src/widgets/lv_btnmatrix.c **** 
  61:lvgl/src/widgets/lv_btnmatrix.c **** const lv_obj_class_t lv_btnmatrix_class = {
  62:lvgl/src/widgets/lv_btnmatrix.c ****     .constructor_cb = lv_btnmatrix_constructor,
  63:lvgl/src/widgets/lv_btnmatrix.c ****     .destructor_cb = lv_btnmatrix_destructor,
  64:lvgl/src/widgets/lv_btnmatrix.c ****     .event_cb = lv_btnmatrix_event,
  65:lvgl/src/widgets/lv_btnmatrix.c ****     .width_def = LV_DPI_DEF * 2,
  66:lvgl/src/widgets/lv_btnmatrix.c ****     .height_def = LV_DPI_DEF,
  67:lvgl/src/widgets/lv_btnmatrix.c ****     .instance_size = sizeof(lv_btnmatrix_t),
  68:lvgl/src/widgets/lv_btnmatrix.c ****     .editable = LV_OBJ_CLASS_EDITABLE_TRUE,
  69:lvgl/src/widgets/lv_btnmatrix.c ****     .group_def = LV_OBJ_CLASS_GROUP_DEF_TRUE,
  70:lvgl/src/widgets/lv_btnmatrix.c ****     .base_class = &lv_obj_class
  71:lvgl/src/widgets/lv_btnmatrix.c **** };
  72:lvgl/src/widgets/lv_btnmatrix.c **** 
  73:lvgl/src/widgets/lv_btnmatrix.c **** /**********************
  74:lvgl/src/widgets/lv_btnmatrix.c ****  *      MACROS
  75:lvgl/src/widgets/lv_btnmatrix.c ****  **********************/
  76:lvgl/src/widgets/lv_btnmatrix.c **** 
  77:lvgl/src/widgets/lv_btnmatrix.c **** /**********************
  78:lvgl/src/widgets/lv_btnmatrix.c ****  *   GLOBAL FUNCTIONS
  79:lvgl/src/widgets/lv_btnmatrix.c ****  **********************/
  80:lvgl/src/widgets/lv_btnmatrix.c **** 
  81:lvgl/src/widgets/lv_btnmatrix.c **** lv_obj_t * lv_btnmatrix_create(lv_obj_t * parent)
  82:lvgl/src/widgets/lv_btnmatrix.c **** {
  83:lvgl/src/widgets/lv_btnmatrix.c ****     LV_LOG_INFO("begin");
  84:lvgl/src/widgets/lv_btnmatrix.c ****     lv_obj_t * obj = lv_obj_class_create_obj(MY_CLASS, parent);
  85:lvgl/src/widgets/lv_btnmatrix.c ****     lv_obj_class_init_obj(obj);
  86:lvgl/src/widgets/lv_btnmatrix.c ****     return obj;
  87:lvgl/src/widgets/lv_btnmatrix.c **** }
ARM GAS  /var/folders/21/t9g5rlb91ys800n5npymflf80000gn/T//ccSbQiFP.s 			page 3


  88:lvgl/src/widgets/lv_btnmatrix.c **** 
  89:lvgl/src/widgets/lv_btnmatrix.c **** /*=====================
  90:lvgl/src/widgets/lv_btnmatrix.c ****  * Setter functions
  91:lvgl/src/widgets/lv_btnmatrix.c ****  *====================*/
  92:lvgl/src/widgets/lv_btnmatrix.c **** 
  93:lvgl/src/widgets/lv_btnmatrix.c **** void lv_btnmatrix_set_map(lv_obj_t * obj, const char * map[])
  94:lvgl/src/widgets/lv_btnmatrix.c **** {
  95:lvgl/src/widgets/lv_btnmatrix.c ****     LV_ASSERT_OBJ(obj, MY_CLASS);
  96:lvgl/src/widgets/lv_btnmatrix.c ****     if(map == NULL) return;
  97:lvgl/src/widgets/lv_btnmatrix.c **** 
  98:lvgl/src/widgets/lv_btnmatrix.c ****     lv_btnmatrix_t * btnm = (lv_btnmatrix_t *)obj;
  99:lvgl/src/widgets/lv_btnmatrix.c **** 
 100:lvgl/src/widgets/lv_btnmatrix.c ****     /*Analyze the map and create the required number of buttons*/
 101:lvgl/src/widgets/lv_btnmatrix.c ****     allocate_btn_areas_and_controls(obj, map);
 102:lvgl/src/widgets/lv_btnmatrix.c ****     btnm->map_p = map;
 103:lvgl/src/widgets/lv_btnmatrix.c **** 
 104:lvgl/src/widgets/lv_btnmatrix.c ****     lv_base_dir_t base_dir = lv_obj_get_style_base_dir(obj, LV_PART_MAIN);
 105:lvgl/src/widgets/lv_btnmatrix.c **** 
 106:lvgl/src/widgets/lv_btnmatrix.c ****     /*Set size and positions of the buttons*/
 107:lvgl/src/widgets/lv_btnmatrix.c ****     lv_coord_t pleft = lv_obj_get_style_pad_left(obj, LV_PART_MAIN);
 108:lvgl/src/widgets/lv_btnmatrix.c ****     lv_coord_t ptop = lv_obj_get_style_pad_top(obj, LV_PART_MAIN);
 109:lvgl/src/widgets/lv_btnmatrix.c ****     lv_coord_t prow = lv_obj_get_style_pad_row(obj, LV_PART_MAIN);
 110:lvgl/src/widgets/lv_btnmatrix.c ****     lv_coord_t pcol = lv_obj_get_style_pad_column(obj, LV_PART_MAIN);
 111:lvgl/src/widgets/lv_btnmatrix.c **** 
 112:lvgl/src/widgets/lv_btnmatrix.c ****     lv_coord_t max_w            = lv_obj_get_content_width(obj);
 113:lvgl/src/widgets/lv_btnmatrix.c ****     lv_coord_t max_h            = lv_obj_get_content_height(obj);
 114:lvgl/src/widgets/lv_btnmatrix.c **** 
 115:lvgl/src/widgets/lv_btnmatrix.c ****     /*Calculate the position of each row*/
 116:lvgl/src/widgets/lv_btnmatrix.c ****     lv_coord_t max_h_no_gap = max_h - (prow * (btnm->row_cnt - 1));
 117:lvgl/src/widgets/lv_btnmatrix.c **** 
 118:lvgl/src/widgets/lv_btnmatrix.c ****     /*Count the units and the buttons in a line
 119:lvgl/src/widgets/lv_btnmatrix.c ****      *(A button can be 1,2,3... unit wide)*/
 120:lvgl/src/widgets/lv_btnmatrix.c ****     uint32_t txt_tot_i = 0; /*Act. index in the str map*/
 121:lvgl/src/widgets/lv_btnmatrix.c ****     uint32_t btn_tot_i = 0; /*Act. index of button areas*/
 122:lvgl/src/widgets/lv_btnmatrix.c ****     const char ** map_row = map;
 123:lvgl/src/widgets/lv_btnmatrix.c **** 
 124:lvgl/src/widgets/lv_btnmatrix.c ****     /*Count the units and the buttons in a line*/
 125:lvgl/src/widgets/lv_btnmatrix.c ****     uint32_t row;
 126:lvgl/src/widgets/lv_btnmatrix.c ****     for(row = 0; row < btnm->row_cnt; row++) {
 127:lvgl/src/widgets/lv_btnmatrix.c ****         uint16_t unit_cnt = 0;           /*Number of units in a row*/
 128:lvgl/src/widgets/lv_btnmatrix.c ****         uint16_t btn_cnt = 0;            /*Number of buttons in a row*/
 129:lvgl/src/widgets/lv_btnmatrix.c ****         /*Count the buttons and units in this row*/
 130:lvgl/src/widgets/lv_btnmatrix.c ****         while(map_row[btn_cnt] && strcmp(map_row[btn_cnt], "\n") != 0 && map_row[btn_cnt][0] != '\0
 131:lvgl/src/widgets/lv_btnmatrix.c ****             unit_cnt += get_button_width(btnm->ctrl_bits[btn_tot_i + btn_cnt]);
 132:lvgl/src/widgets/lv_btnmatrix.c ****             btn_cnt++;
 133:lvgl/src/widgets/lv_btnmatrix.c ****         }
 134:lvgl/src/widgets/lv_btnmatrix.c **** 
 135:lvgl/src/widgets/lv_btnmatrix.c ****         /*Only deal with the non empty lines*/
 136:lvgl/src/widgets/lv_btnmatrix.c ****         if(btn_cnt == 0) {
 137:lvgl/src/widgets/lv_btnmatrix.c ****             map_row = &map_row[btn_cnt + 1];       /*Set the map to the next row*/
 138:lvgl/src/widgets/lv_btnmatrix.c ****             continue;
 139:lvgl/src/widgets/lv_btnmatrix.c ****         }
 140:lvgl/src/widgets/lv_btnmatrix.c **** 
 141:lvgl/src/widgets/lv_btnmatrix.c ****         lv_coord_t row_y1 = ptop + (max_h_no_gap * row) / btnm->row_cnt + row * prow;
 142:lvgl/src/widgets/lv_btnmatrix.c ****         lv_coord_t row_y2 = ptop + (max_h_no_gap * (row + 1)) / btnm->row_cnt + row * prow - 1;
 143:lvgl/src/widgets/lv_btnmatrix.c **** 
 144:lvgl/src/widgets/lv_btnmatrix.c ****         /*Set the button size and positions*/
ARM GAS  /var/folders/21/t9g5rlb91ys800n5npymflf80000gn/T//ccSbQiFP.s 			page 4


 145:lvgl/src/widgets/lv_btnmatrix.c ****         lv_coord_t max_w_no_gap = max_w - (pcol * (btn_cnt - 1));
 146:lvgl/src/widgets/lv_btnmatrix.c ****         if(max_w_no_gap < 0) max_w_no_gap = 0;
 147:lvgl/src/widgets/lv_btnmatrix.c **** 
 148:lvgl/src/widgets/lv_btnmatrix.c ****         uint32_t row_unit_cnt = 0;  /*The current unit position in the row*/
 149:lvgl/src/widgets/lv_btnmatrix.c ****         uint32_t btn;
 150:lvgl/src/widgets/lv_btnmatrix.c ****         for(btn = 0; btn < btn_cnt; btn++, btn_tot_i++, txt_tot_i++) {
 151:lvgl/src/widgets/lv_btnmatrix.c ****             uint32_t btn_u = get_button_width(btnm->ctrl_bits[btn_tot_i]);
 152:lvgl/src/widgets/lv_btnmatrix.c **** 
 153:lvgl/src/widgets/lv_btnmatrix.c ****             lv_coord_t btn_x1 = (max_w_no_gap * row_unit_cnt) / unit_cnt + btn * pcol;
 154:lvgl/src/widgets/lv_btnmatrix.c ****             lv_coord_t btn_x2 = (max_w_no_gap * (row_unit_cnt + btn_u)) / unit_cnt + btn * pcol - 1
 155:lvgl/src/widgets/lv_btnmatrix.c **** 
 156:lvgl/src/widgets/lv_btnmatrix.c ****             /*If RTL start from the right*/
 157:lvgl/src/widgets/lv_btnmatrix.c ****             if(base_dir == LV_BASE_DIR_RTL) {
 158:lvgl/src/widgets/lv_btnmatrix.c ****                 lv_coord_t tmp = btn_x1;
 159:lvgl/src/widgets/lv_btnmatrix.c ****                 btn_x1 = btn_x2;
 160:lvgl/src/widgets/lv_btnmatrix.c ****                 btn_x2 = tmp;
 161:lvgl/src/widgets/lv_btnmatrix.c **** 
 162:lvgl/src/widgets/lv_btnmatrix.c ****                 btn_x1 = max_w - btn_x1;
 163:lvgl/src/widgets/lv_btnmatrix.c ****                 btn_x2 = max_w - btn_x2;
 164:lvgl/src/widgets/lv_btnmatrix.c ****             }
 165:lvgl/src/widgets/lv_btnmatrix.c **** 
 166:lvgl/src/widgets/lv_btnmatrix.c ****             btn_x1 += pleft;
 167:lvgl/src/widgets/lv_btnmatrix.c ****             btn_x2 += pleft;
 168:lvgl/src/widgets/lv_btnmatrix.c **** 
 169:lvgl/src/widgets/lv_btnmatrix.c ****             lv_area_set(&btnm->button_areas[btn_tot_i], btn_x1, row_y1, btn_x2, row_y2);
 170:lvgl/src/widgets/lv_btnmatrix.c **** 
 171:lvgl/src/widgets/lv_btnmatrix.c ****             row_unit_cnt += btn_u;
 172:lvgl/src/widgets/lv_btnmatrix.c ****         }
 173:lvgl/src/widgets/lv_btnmatrix.c **** 
 174:lvgl/src/widgets/lv_btnmatrix.c ****         map_row = &map_row[btn_cnt + 1];       /*Set the map to the next line*/
 175:lvgl/src/widgets/lv_btnmatrix.c ****     }
 176:lvgl/src/widgets/lv_btnmatrix.c **** 
 177:lvgl/src/widgets/lv_btnmatrix.c ****     /*Popovers in the top row will draw outside the widget and the extended draw size depends on
 178:lvgl/src/widgets/lv_btnmatrix.c ****      *the row height which may have changed when setting the new map*/
 179:lvgl/src/widgets/lv_btnmatrix.c ****     lv_obj_refresh_ext_draw_size(obj);
 180:lvgl/src/widgets/lv_btnmatrix.c **** 
 181:lvgl/src/widgets/lv_btnmatrix.c ****     lv_obj_invalidate(obj);
 182:lvgl/src/widgets/lv_btnmatrix.c **** }
 183:lvgl/src/widgets/lv_btnmatrix.c **** 
 184:lvgl/src/widgets/lv_btnmatrix.c **** void lv_btnmatrix_set_ctrl_map(lv_obj_t * obj, const lv_btnmatrix_ctrl_t ctrl_map[])
 185:lvgl/src/widgets/lv_btnmatrix.c **** {
 186:lvgl/src/widgets/lv_btnmatrix.c ****     LV_ASSERT_OBJ(obj, MY_CLASS);
 187:lvgl/src/widgets/lv_btnmatrix.c **** 
 188:lvgl/src/widgets/lv_btnmatrix.c ****     lv_btnmatrix_t * btnm = (lv_btnmatrix_t *)obj;
 189:lvgl/src/widgets/lv_btnmatrix.c ****     lv_memcpy(btnm->ctrl_bits, ctrl_map, sizeof(lv_btnmatrix_ctrl_t) * btnm->btn_cnt);
 190:lvgl/src/widgets/lv_btnmatrix.c **** 
 191:lvgl/src/widgets/lv_btnmatrix.c ****     lv_btnmatrix_set_map(obj, btnm->map_p);
 192:lvgl/src/widgets/lv_btnmatrix.c **** }
 193:lvgl/src/widgets/lv_btnmatrix.c **** 
 194:lvgl/src/widgets/lv_btnmatrix.c **** void lv_btnmatrix_set_selected_btn(lv_obj_t * obj, uint16_t btn_id)
 195:lvgl/src/widgets/lv_btnmatrix.c **** {
 196:lvgl/src/widgets/lv_btnmatrix.c ****     LV_ASSERT_OBJ(obj, MY_CLASS);
 197:lvgl/src/widgets/lv_btnmatrix.c **** 
 198:lvgl/src/widgets/lv_btnmatrix.c ****     lv_btnmatrix_t * btnm = (lv_btnmatrix_t *)obj;
 199:lvgl/src/widgets/lv_btnmatrix.c **** 
 200:lvgl/src/widgets/lv_btnmatrix.c ****     if(btn_id >= btnm->btn_cnt && btn_id != LV_BTNMATRIX_BTN_NONE) return;
 201:lvgl/src/widgets/lv_btnmatrix.c **** 
ARM GAS  /var/folders/21/t9g5rlb91ys800n5npymflf80000gn/T//ccSbQiFP.s 			page 5


 202:lvgl/src/widgets/lv_btnmatrix.c ****     invalidate_button_area(obj, btnm->btn_id_sel);
 203:lvgl/src/widgets/lv_btnmatrix.c ****     btnm->btn_id_sel = btn_id;
 204:lvgl/src/widgets/lv_btnmatrix.c ****     invalidate_button_area(obj, btn_id);
 205:lvgl/src/widgets/lv_btnmatrix.c **** }
 206:lvgl/src/widgets/lv_btnmatrix.c **** 
 207:lvgl/src/widgets/lv_btnmatrix.c **** void lv_btnmatrix_set_btn_ctrl(lv_obj_t * obj, uint16_t btn_id, lv_btnmatrix_ctrl_t ctrl)
 208:lvgl/src/widgets/lv_btnmatrix.c **** {
 209:lvgl/src/widgets/lv_btnmatrix.c ****     LV_ASSERT_OBJ(obj, MY_CLASS);
 210:lvgl/src/widgets/lv_btnmatrix.c **** 
 211:lvgl/src/widgets/lv_btnmatrix.c ****     lv_btnmatrix_t * btnm = (lv_btnmatrix_t *)obj;
 212:lvgl/src/widgets/lv_btnmatrix.c **** 
 213:lvgl/src/widgets/lv_btnmatrix.c ****     if(btn_id >= btnm->btn_cnt) return;
 214:lvgl/src/widgets/lv_btnmatrix.c **** 
 215:lvgl/src/widgets/lv_btnmatrix.c ****     if(btnm->one_check && (ctrl & LV_BTNMATRIX_CTRL_CHECKED)) {
 216:lvgl/src/widgets/lv_btnmatrix.c ****         lv_btnmatrix_clear_btn_ctrl_all(obj, LV_BTNMATRIX_CTRL_CHECKED);
 217:lvgl/src/widgets/lv_btnmatrix.c ****     }
 218:lvgl/src/widgets/lv_btnmatrix.c **** 
 219:lvgl/src/widgets/lv_btnmatrix.c ****     /* If we hide a button if all buttons are now hidden hide the whole button matrix to make focus
 220:lvgl/src/widgets/lv_btnmatrix.c ****     if(ctrl & LV_BTNMATRIX_CTRL_HIDDEN) {
 221:lvgl/src/widgets/lv_btnmatrix.c ****         bool all_buttons_hidden = true;
 222:lvgl/src/widgets/lv_btnmatrix.c ****         if(btnm->btn_cnt > 1) {
 223:lvgl/src/widgets/lv_btnmatrix.c ****             for(uint16_t btn_idx = 0; btn_idx < btnm->btn_cnt; btn_idx++) {
 224:lvgl/src/widgets/lv_btnmatrix.c ****                 if(btn_idx == btn_id) continue;
 225:lvgl/src/widgets/lv_btnmatrix.c ****                 if(!(btnm->ctrl_bits[btn_idx] & LV_BTNMATRIX_CTRL_HIDDEN)) all_buttons_hidden = fal
 226:lvgl/src/widgets/lv_btnmatrix.c ****             }
 227:lvgl/src/widgets/lv_btnmatrix.c **** 
 228:lvgl/src/widgets/lv_btnmatrix.c ****         }
 229:lvgl/src/widgets/lv_btnmatrix.c ****         if(all_buttons_hidden) lv_obj_add_flag(obj, LV_OBJ_FLAG_HIDDEN);
 230:lvgl/src/widgets/lv_btnmatrix.c ****     }
 231:lvgl/src/widgets/lv_btnmatrix.c **** 
 232:lvgl/src/widgets/lv_btnmatrix.c ****     btnm->ctrl_bits[btn_id] |= ctrl;
 233:lvgl/src/widgets/lv_btnmatrix.c ****     invalidate_button_area(obj, btn_id);
 234:lvgl/src/widgets/lv_btnmatrix.c **** 
 235:lvgl/src/widgets/lv_btnmatrix.c ****     if(ctrl & LV_BTNMATRIX_CTRL_POPOVER) {
 236:lvgl/src/widgets/lv_btnmatrix.c ****         lv_obj_refresh_ext_draw_size(obj);
 237:lvgl/src/widgets/lv_btnmatrix.c ****     }
 238:lvgl/src/widgets/lv_btnmatrix.c **** }
 239:lvgl/src/widgets/lv_btnmatrix.c **** 
 240:lvgl/src/widgets/lv_btnmatrix.c **** void lv_btnmatrix_clear_btn_ctrl(lv_obj_t * obj, uint16_t btn_id, lv_btnmatrix_ctrl_t ctrl)
 241:lvgl/src/widgets/lv_btnmatrix.c **** {
 242:lvgl/src/widgets/lv_btnmatrix.c ****     LV_ASSERT_OBJ(obj, MY_CLASS);
 243:lvgl/src/widgets/lv_btnmatrix.c **** 
 244:lvgl/src/widgets/lv_btnmatrix.c ****     lv_btnmatrix_t * btnm = (lv_btnmatrix_t *)obj;
 245:lvgl/src/widgets/lv_btnmatrix.c **** 
 246:lvgl/src/widgets/lv_btnmatrix.c ****     if(btn_id >= btnm->btn_cnt) return;
 247:lvgl/src/widgets/lv_btnmatrix.c **** 
 248:lvgl/src/widgets/lv_btnmatrix.c ****     /* If all buttons were hidden the whole button matrix is hidden so we need to check and remove 
 249:lvgl/src/widgets/lv_btnmatrix.c ****     if(ctrl & LV_BTNMATRIX_CTRL_HIDDEN) {
 250:lvgl/src/widgets/lv_btnmatrix.c ****         if(lv_obj_has_flag(obj, LV_OBJ_FLAG_HIDDEN)) lv_obj_clear_flag(obj, LV_OBJ_FLAG_HIDDEN);
 251:lvgl/src/widgets/lv_btnmatrix.c ****     }
 252:lvgl/src/widgets/lv_btnmatrix.c **** 
 253:lvgl/src/widgets/lv_btnmatrix.c ****     btnm->ctrl_bits[btn_id] &= (~ctrl);
 254:lvgl/src/widgets/lv_btnmatrix.c ****     invalidate_button_area(obj, btn_id);
 255:lvgl/src/widgets/lv_btnmatrix.c **** 
 256:lvgl/src/widgets/lv_btnmatrix.c ****     if(ctrl & LV_BTNMATRIX_CTRL_POPOVER) {
 257:lvgl/src/widgets/lv_btnmatrix.c ****         lv_obj_refresh_ext_draw_size(obj);
 258:lvgl/src/widgets/lv_btnmatrix.c ****     }
ARM GAS  /var/folders/21/t9g5rlb91ys800n5npymflf80000gn/T//ccSbQiFP.s 			page 6


 259:lvgl/src/widgets/lv_btnmatrix.c **** }
 260:lvgl/src/widgets/lv_btnmatrix.c **** 
 261:lvgl/src/widgets/lv_btnmatrix.c **** void lv_btnmatrix_set_btn_ctrl_all(lv_obj_t * obj, lv_btnmatrix_ctrl_t ctrl)
 262:lvgl/src/widgets/lv_btnmatrix.c **** {
 263:lvgl/src/widgets/lv_btnmatrix.c ****     LV_ASSERT_OBJ(obj, MY_CLASS);
 264:lvgl/src/widgets/lv_btnmatrix.c **** 
 265:lvgl/src/widgets/lv_btnmatrix.c ****     lv_btnmatrix_t * btnm = (lv_btnmatrix_t *)obj;;
 266:lvgl/src/widgets/lv_btnmatrix.c ****     uint16_t i;
 267:lvgl/src/widgets/lv_btnmatrix.c ****     for(i = 0; i < btnm->btn_cnt; i++) {
 268:lvgl/src/widgets/lv_btnmatrix.c ****         lv_btnmatrix_set_btn_ctrl(obj, i, ctrl);
 269:lvgl/src/widgets/lv_btnmatrix.c ****     }
 270:lvgl/src/widgets/lv_btnmatrix.c **** }
 271:lvgl/src/widgets/lv_btnmatrix.c **** 
 272:lvgl/src/widgets/lv_btnmatrix.c **** void lv_btnmatrix_clear_btn_ctrl_all(lv_obj_t * obj, lv_btnmatrix_ctrl_t ctrl)
 273:lvgl/src/widgets/lv_btnmatrix.c **** {
 274:lvgl/src/widgets/lv_btnmatrix.c ****     LV_ASSERT_OBJ(obj, MY_CLASS);
 275:lvgl/src/widgets/lv_btnmatrix.c **** 
 276:lvgl/src/widgets/lv_btnmatrix.c ****     lv_btnmatrix_t * btnm = (lv_btnmatrix_t *)obj;;
 277:lvgl/src/widgets/lv_btnmatrix.c ****     uint16_t i;
 278:lvgl/src/widgets/lv_btnmatrix.c ****     for(i = 0; i < btnm->btn_cnt; i++) {
 279:lvgl/src/widgets/lv_btnmatrix.c ****         lv_btnmatrix_clear_btn_ctrl(obj, i, ctrl);
 280:lvgl/src/widgets/lv_btnmatrix.c ****     }
 281:lvgl/src/widgets/lv_btnmatrix.c **** }
 282:lvgl/src/widgets/lv_btnmatrix.c **** 
 283:lvgl/src/widgets/lv_btnmatrix.c **** void lv_btnmatrix_set_btn_width(lv_obj_t * obj, uint16_t btn_id, uint8_t width)
 284:lvgl/src/widgets/lv_btnmatrix.c **** {
 285:lvgl/src/widgets/lv_btnmatrix.c ****     LV_ASSERT_OBJ(obj, MY_CLASS);
 286:lvgl/src/widgets/lv_btnmatrix.c **** 
 287:lvgl/src/widgets/lv_btnmatrix.c ****     lv_btnmatrix_t * btnm = (lv_btnmatrix_t *)obj;;
 288:lvgl/src/widgets/lv_btnmatrix.c ****     if(btn_id >= btnm->btn_cnt) return;
 289:lvgl/src/widgets/lv_btnmatrix.c ****     btnm->ctrl_bits[btn_id] &= (~LV_BTNMATRIX_WIDTH_MASK);
 290:lvgl/src/widgets/lv_btnmatrix.c ****     btnm->ctrl_bits[btn_id] |= (LV_BTNMATRIX_WIDTH_MASK & width);
 291:lvgl/src/widgets/lv_btnmatrix.c **** 
 292:lvgl/src/widgets/lv_btnmatrix.c ****     lv_btnmatrix_set_map(obj, btnm->map_p);
 293:lvgl/src/widgets/lv_btnmatrix.c **** }
 294:lvgl/src/widgets/lv_btnmatrix.c **** 
 295:lvgl/src/widgets/lv_btnmatrix.c **** void lv_btnmatrix_set_one_checked(lv_obj_t * obj, bool en)
 296:lvgl/src/widgets/lv_btnmatrix.c **** {
 297:lvgl/src/widgets/lv_btnmatrix.c ****     LV_ASSERT_OBJ(obj, MY_CLASS);
 298:lvgl/src/widgets/lv_btnmatrix.c **** 
 299:lvgl/src/widgets/lv_btnmatrix.c ****     lv_btnmatrix_t * btnm = (lv_btnmatrix_t *)obj;;
 300:lvgl/src/widgets/lv_btnmatrix.c ****     btnm->one_check     = en;
 301:lvgl/src/widgets/lv_btnmatrix.c **** 
 302:lvgl/src/widgets/lv_btnmatrix.c ****     /*If more than one button is toggled only the first one should be*/
 303:lvgl/src/widgets/lv_btnmatrix.c ****     make_one_button_checked(obj, 0);
 304:lvgl/src/widgets/lv_btnmatrix.c **** }
 305:lvgl/src/widgets/lv_btnmatrix.c **** 
 306:lvgl/src/widgets/lv_btnmatrix.c **** /*=====================
 307:lvgl/src/widgets/lv_btnmatrix.c ****  * Getter functions
 308:lvgl/src/widgets/lv_btnmatrix.c ****  *====================*/
 309:lvgl/src/widgets/lv_btnmatrix.c **** 
 310:lvgl/src/widgets/lv_btnmatrix.c **** const char ** lv_btnmatrix_get_map(const lv_obj_t * obj)
 311:lvgl/src/widgets/lv_btnmatrix.c **** {
 312:lvgl/src/widgets/lv_btnmatrix.c ****     LV_ASSERT_OBJ(obj, MY_CLASS);
 313:lvgl/src/widgets/lv_btnmatrix.c **** 
 314:lvgl/src/widgets/lv_btnmatrix.c ****     lv_btnmatrix_t * btnm = (lv_btnmatrix_t *)obj;;
 315:lvgl/src/widgets/lv_btnmatrix.c ****     return btnm->map_p;
ARM GAS  /var/folders/21/t9g5rlb91ys800n5npymflf80000gn/T//ccSbQiFP.s 			page 7


 316:lvgl/src/widgets/lv_btnmatrix.c **** }
 317:lvgl/src/widgets/lv_btnmatrix.c **** 
 318:lvgl/src/widgets/lv_btnmatrix.c **** uint16_t lv_btnmatrix_get_selected_btn(const lv_obj_t * obj)
 319:lvgl/src/widgets/lv_btnmatrix.c **** {
 320:lvgl/src/widgets/lv_btnmatrix.c ****     LV_ASSERT_OBJ(obj, MY_CLASS);
 321:lvgl/src/widgets/lv_btnmatrix.c **** 
 322:lvgl/src/widgets/lv_btnmatrix.c ****     lv_btnmatrix_t * btnm = (lv_btnmatrix_t *)obj;;
 323:lvgl/src/widgets/lv_btnmatrix.c ****     return btnm->btn_id_sel;
 324:lvgl/src/widgets/lv_btnmatrix.c **** }
 325:lvgl/src/widgets/lv_btnmatrix.c **** 
 326:lvgl/src/widgets/lv_btnmatrix.c **** const char * lv_btnmatrix_get_btn_text(const lv_obj_t * obj, uint16_t btn_id)
 327:lvgl/src/widgets/lv_btnmatrix.c **** {
 328:lvgl/src/widgets/lv_btnmatrix.c ****     LV_ASSERT_OBJ(obj, MY_CLASS);
 329:lvgl/src/widgets/lv_btnmatrix.c **** 
 330:lvgl/src/widgets/lv_btnmatrix.c ****     if(btn_id == LV_BTNMATRIX_BTN_NONE) return NULL;
 331:lvgl/src/widgets/lv_btnmatrix.c **** 
 332:lvgl/src/widgets/lv_btnmatrix.c ****     lv_btnmatrix_t * btnm = (lv_btnmatrix_t *)obj;
 333:lvgl/src/widgets/lv_btnmatrix.c ****     if(btn_id > btnm->btn_cnt) return NULL;
 334:lvgl/src/widgets/lv_btnmatrix.c **** 
 335:lvgl/src/widgets/lv_btnmatrix.c ****     uint16_t txt_i = 0;
 336:lvgl/src/widgets/lv_btnmatrix.c ****     uint16_t btn_i = 0;
 337:lvgl/src/widgets/lv_btnmatrix.c **** 
 338:lvgl/src/widgets/lv_btnmatrix.c ****     /*Search the text of btnm->btn_pr the buttons text in the map
 339:lvgl/src/widgets/lv_btnmatrix.c ****      *Skip "\n"-s*/
 340:lvgl/src/widgets/lv_btnmatrix.c ****     while(btn_i != btn_id) {
 341:lvgl/src/widgets/lv_btnmatrix.c ****         btn_i++;
 342:lvgl/src/widgets/lv_btnmatrix.c ****         txt_i++;
 343:lvgl/src/widgets/lv_btnmatrix.c ****         if(strcmp(btnm->map_p[txt_i], "\n") == 0) txt_i++;
 344:lvgl/src/widgets/lv_btnmatrix.c ****     }
 345:lvgl/src/widgets/lv_btnmatrix.c **** 
 346:lvgl/src/widgets/lv_btnmatrix.c ****     if(btn_i == btnm->btn_cnt) return NULL;
 347:lvgl/src/widgets/lv_btnmatrix.c **** 
 348:lvgl/src/widgets/lv_btnmatrix.c ****     return btnm->map_p[txt_i];
 349:lvgl/src/widgets/lv_btnmatrix.c **** }
 350:lvgl/src/widgets/lv_btnmatrix.c **** 
 351:lvgl/src/widgets/lv_btnmatrix.c **** bool lv_btnmatrix_has_btn_ctrl(lv_obj_t * obj, uint16_t btn_id, lv_btnmatrix_ctrl_t ctrl)
 352:lvgl/src/widgets/lv_btnmatrix.c **** {
 353:lvgl/src/widgets/lv_btnmatrix.c ****     LV_ASSERT_OBJ(obj, MY_CLASS);
 354:lvgl/src/widgets/lv_btnmatrix.c **** 
 355:lvgl/src/widgets/lv_btnmatrix.c ****     lv_btnmatrix_t * btnm = (lv_btnmatrix_t *)obj;;
 356:lvgl/src/widgets/lv_btnmatrix.c ****     if(btn_id >= btnm->btn_cnt) return false;
 357:lvgl/src/widgets/lv_btnmatrix.c **** 
 358:lvgl/src/widgets/lv_btnmatrix.c ****     return ((btnm->ctrl_bits[btn_id] & ctrl) == ctrl) ? true : false;
 359:lvgl/src/widgets/lv_btnmatrix.c **** }
 360:lvgl/src/widgets/lv_btnmatrix.c **** 
 361:lvgl/src/widgets/lv_btnmatrix.c **** bool lv_btnmatrix_get_one_checked(const lv_obj_t * obj)
 362:lvgl/src/widgets/lv_btnmatrix.c **** {
 363:lvgl/src/widgets/lv_btnmatrix.c ****     LV_ASSERT_OBJ(obj, MY_CLASS);
 364:lvgl/src/widgets/lv_btnmatrix.c **** 
 365:lvgl/src/widgets/lv_btnmatrix.c ****     lv_btnmatrix_t * btnm = (lv_btnmatrix_t *)obj;;
 366:lvgl/src/widgets/lv_btnmatrix.c **** 
 367:lvgl/src/widgets/lv_btnmatrix.c ****     return btnm->one_check;
 368:lvgl/src/widgets/lv_btnmatrix.c **** }
 369:lvgl/src/widgets/lv_btnmatrix.c **** 
 370:lvgl/src/widgets/lv_btnmatrix.c **** /**********************
 371:lvgl/src/widgets/lv_btnmatrix.c ****  *   STATIC FUNCTIONS
 372:lvgl/src/widgets/lv_btnmatrix.c ****  **********************/
ARM GAS  /var/folders/21/t9g5rlb91ys800n5npymflf80000gn/T//ccSbQiFP.s 			page 8


 373:lvgl/src/widgets/lv_btnmatrix.c **** 
 374:lvgl/src/widgets/lv_btnmatrix.c **** static void lv_btnmatrix_constructor(const lv_obj_class_t * class_p, lv_obj_t * obj)
 375:lvgl/src/widgets/lv_btnmatrix.c **** {
 376:lvgl/src/widgets/lv_btnmatrix.c ****     LV_UNUSED(class_p);
 377:lvgl/src/widgets/lv_btnmatrix.c ****     LV_TRACE_OBJ_CREATE("begin");
 378:lvgl/src/widgets/lv_btnmatrix.c ****     lv_btnmatrix_t * btnm = (lv_btnmatrix_t *)obj;
 379:lvgl/src/widgets/lv_btnmatrix.c ****     btnm->btn_cnt        = 0;
 380:lvgl/src/widgets/lv_btnmatrix.c ****     btnm->row_cnt        = 0;
 381:lvgl/src/widgets/lv_btnmatrix.c ****     btnm->btn_id_sel     = LV_BTNMATRIX_BTN_NONE;
 382:lvgl/src/widgets/lv_btnmatrix.c ****     btnm->button_areas   = NULL;
 383:lvgl/src/widgets/lv_btnmatrix.c ****     btnm->ctrl_bits      = NULL;
 384:lvgl/src/widgets/lv_btnmatrix.c ****     btnm->map_p          = NULL;
 385:lvgl/src/widgets/lv_btnmatrix.c ****     btnm->one_check      = 0;
 386:lvgl/src/widgets/lv_btnmatrix.c **** 
 387:lvgl/src/widgets/lv_btnmatrix.c ****     lv_btnmatrix_set_map(obj, lv_btnmatrix_def_map);
 388:lvgl/src/widgets/lv_btnmatrix.c **** 
 389:lvgl/src/widgets/lv_btnmatrix.c ****     LV_TRACE_OBJ_CREATE("finished");
 390:lvgl/src/widgets/lv_btnmatrix.c **** }
 391:lvgl/src/widgets/lv_btnmatrix.c **** 
 392:lvgl/src/widgets/lv_btnmatrix.c **** static void lv_btnmatrix_destructor(const lv_obj_class_t * class_p, lv_obj_t * obj)
 393:lvgl/src/widgets/lv_btnmatrix.c **** {
 394:lvgl/src/widgets/lv_btnmatrix.c ****     LV_TRACE_OBJ_CREATE("begin");
 395:lvgl/src/widgets/lv_btnmatrix.c ****     LV_UNUSED(class_p);
 396:lvgl/src/widgets/lv_btnmatrix.c ****     lv_btnmatrix_t * btnm = (lv_btnmatrix_t *)obj;
 397:lvgl/src/widgets/lv_btnmatrix.c ****     lv_mem_free(btnm->button_areas);
 398:lvgl/src/widgets/lv_btnmatrix.c ****     lv_mem_free(btnm->ctrl_bits);
 399:lvgl/src/widgets/lv_btnmatrix.c ****     btnm->button_areas = NULL;
 400:lvgl/src/widgets/lv_btnmatrix.c ****     btnm->ctrl_bits = NULL;
 401:lvgl/src/widgets/lv_btnmatrix.c ****     LV_TRACE_OBJ_CREATE("finished");
 402:lvgl/src/widgets/lv_btnmatrix.c **** }
 403:lvgl/src/widgets/lv_btnmatrix.c **** 
 404:lvgl/src/widgets/lv_btnmatrix.c **** static void lv_btnmatrix_event(const lv_obj_class_t * class_p, lv_event_t * e)
 405:lvgl/src/widgets/lv_btnmatrix.c **** {
 406:lvgl/src/widgets/lv_btnmatrix.c ****     LV_UNUSED(class_p);
 407:lvgl/src/widgets/lv_btnmatrix.c **** 
 408:lvgl/src/widgets/lv_btnmatrix.c ****     lv_res_t res;
 409:lvgl/src/widgets/lv_btnmatrix.c **** 
 410:lvgl/src/widgets/lv_btnmatrix.c ****     /*Call the ancestor's event handler*/
 411:lvgl/src/widgets/lv_btnmatrix.c ****     res = lv_obj_event_base(MY_CLASS, e);
 412:lvgl/src/widgets/lv_btnmatrix.c ****     if(res != LV_RES_OK) return;
 413:lvgl/src/widgets/lv_btnmatrix.c **** 
 414:lvgl/src/widgets/lv_btnmatrix.c ****     lv_event_code_t code = lv_event_get_code(e);
 415:lvgl/src/widgets/lv_btnmatrix.c ****     lv_obj_t * obj = lv_event_get_target(e);
 416:lvgl/src/widgets/lv_btnmatrix.c ****     lv_btnmatrix_t * btnm = (lv_btnmatrix_t *)obj;
 417:lvgl/src/widgets/lv_btnmatrix.c ****     lv_point_t p;
 418:lvgl/src/widgets/lv_btnmatrix.c **** 
 419:lvgl/src/widgets/lv_btnmatrix.c ****     if(code == LV_EVENT_REFR_EXT_DRAW_SIZE) {
 420:lvgl/src/widgets/lv_btnmatrix.c ****         if(has_popovers_in_top_row(obj)) {
 421:lvgl/src/widgets/lv_btnmatrix.c ****             /*reserve one row worth of extra space to account for popovers in the top row*/
 422:lvgl/src/widgets/lv_btnmatrix.c ****             lv_coord_t s = btnm->row_cnt > 0 ? lv_obj_get_content_height(obj) / btnm->row_cnt : 0;
 423:lvgl/src/widgets/lv_btnmatrix.c ****             lv_event_set_ext_draw_size(e, s);
 424:lvgl/src/widgets/lv_btnmatrix.c ****         }
 425:lvgl/src/widgets/lv_btnmatrix.c ****     }
 426:lvgl/src/widgets/lv_btnmatrix.c ****     if(code == LV_EVENT_STYLE_CHANGED) {
 427:lvgl/src/widgets/lv_btnmatrix.c ****         lv_btnmatrix_set_map(obj, btnm->map_p);
 428:lvgl/src/widgets/lv_btnmatrix.c ****     }
 429:lvgl/src/widgets/lv_btnmatrix.c ****     else if(code == LV_EVENT_SIZE_CHANGED) {
ARM GAS  /var/folders/21/t9g5rlb91ys800n5npymflf80000gn/T//ccSbQiFP.s 			page 9


 430:lvgl/src/widgets/lv_btnmatrix.c ****         lv_btnmatrix_set_map(obj, btnm->map_p);
 431:lvgl/src/widgets/lv_btnmatrix.c ****     }
 432:lvgl/src/widgets/lv_btnmatrix.c ****     else if(code == LV_EVENT_PRESSED) {
 433:lvgl/src/widgets/lv_btnmatrix.c ****         void * param = lv_event_get_param(e);
 434:lvgl/src/widgets/lv_btnmatrix.c ****         invalidate_button_area(obj, btnm->btn_id_sel);
 435:lvgl/src/widgets/lv_btnmatrix.c **** 
 436:lvgl/src/widgets/lv_btnmatrix.c ****         lv_indev_type_t indev_type = lv_indev_get_type(lv_indev_get_act());
 437:lvgl/src/widgets/lv_btnmatrix.c ****         if(indev_type == LV_INDEV_TYPE_POINTER || indev_type == LV_INDEV_TYPE_BUTTON) {
 438:lvgl/src/widgets/lv_btnmatrix.c ****             uint16_t btn_pr;
 439:lvgl/src/widgets/lv_btnmatrix.c ****             /*Search the pressed area*/
 440:lvgl/src/widgets/lv_btnmatrix.c ****             lv_indev_get_point(param, &p);
 441:lvgl/src/widgets/lv_btnmatrix.c ****             btn_pr = get_button_from_point(obj, &p);
 442:lvgl/src/widgets/lv_btnmatrix.c ****             /*Handle the case where there is no button there*/
 443:lvgl/src/widgets/lv_btnmatrix.c ****             btnm->btn_id_sel = LV_BTNMATRIX_BTN_NONE;
 444:lvgl/src/widgets/lv_btnmatrix.c ****             if(btn_pr != LV_BTNMATRIX_BTN_NONE) {
 445:lvgl/src/widgets/lv_btnmatrix.c ****                 if(button_is_inactive(btnm->ctrl_bits[btn_pr]) == false &&
 446:lvgl/src/widgets/lv_btnmatrix.c ****                    button_is_hidden(btnm->ctrl_bits[btn_pr]) == false) {
 447:lvgl/src/widgets/lv_btnmatrix.c ****                     btnm->btn_id_sel = btn_pr;
 448:lvgl/src/widgets/lv_btnmatrix.c ****                     invalidate_button_area(obj, btnm->btn_id_sel); /*Invalidate the new area*/
 449:lvgl/src/widgets/lv_btnmatrix.c ****                 }
 450:lvgl/src/widgets/lv_btnmatrix.c ****             }
 451:lvgl/src/widgets/lv_btnmatrix.c ****             else {
 452:lvgl/src/widgets/lv_btnmatrix.c ****                 btnm->btn_id_sel = LV_BTNMATRIX_BTN_NONE;
 453:lvgl/src/widgets/lv_btnmatrix.c ****             }
 454:lvgl/src/widgets/lv_btnmatrix.c ****         }
 455:lvgl/src/widgets/lv_btnmatrix.c **** 
 456:lvgl/src/widgets/lv_btnmatrix.c ****         if(btnm->btn_id_sel != LV_BTNMATRIX_BTN_NONE) {
 457:lvgl/src/widgets/lv_btnmatrix.c ****             if(button_is_click_trig(btnm->ctrl_bits[btnm->btn_id_sel]) == false &&
 458:lvgl/src/widgets/lv_btnmatrix.c ****                button_is_popover(btnm->ctrl_bits[btnm->btn_id_sel]) == false &&
 459:lvgl/src/widgets/lv_btnmatrix.c ****                button_is_inactive(btnm->ctrl_bits[btnm->btn_id_sel]) == false &&
 460:lvgl/src/widgets/lv_btnmatrix.c ****                button_is_hidden(btnm->ctrl_bits[btnm->btn_id_sel]) == false) {
 461:lvgl/src/widgets/lv_btnmatrix.c ****                 uint32_t b = btnm->btn_id_sel;
 462:lvgl/src/widgets/lv_btnmatrix.c ****                 res        = lv_event_send(obj, LV_EVENT_VALUE_CHANGED, &b);
 463:lvgl/src/widgets/lv_btnmatrix.c ****                 if(res != LV_RES_OK) return;
 464:lvgl/src/widgets/lv_btnmatrix.c ****             }
 465:lvgl/src/widgets/lv_btnmatrix.c ****         }
 466:lvgl/src/widgets/lv_btnmatrix.c ****     }
 467:lvgl/src/widgets/lv_btnmatrix.c ****     else if(code == LV_EVENT_PRESSING) {
 468:lvgl/src/widgets/lv_btnmatrix.c ****         void * param = lv_event_get_param(e);
 469:lvgl/src/widgets/lv_btnmatrix.c ****         uint16_t btn_pr = LV_BTNMATRIX_BTN_NONE;
 470:lvgl/src/widgets/lv_btnmatrix.c ****         /*Search the pressed area*/
 471:lvgl/src/widgets/lv_btnmatrix.c ****         lv_indev_t * indev = lv_indev_get_act();
 472:lvgl/src/widgets/lv_btnmatrix.c ****         lv_indev_type_t indev_type = lv_indev_get_type(indev);
 473:lvgl/src/widgets/lv_btnmatrix.c ****         if(indev_type == LV_INDEV_TYPE_ENCODER || indev_type == LV_INDEV_TYPE_KEYPAD) return;
 474:lvgl/src/widgets/lv_btnmatrix.c **** 
 475:lvgl/src/widgets/lv_btnmatrix.c ****         lv_indev_get_point(indev, &p);
 476:lvgl/src/widgets/lv_btnmatrix.c ****         btn_pr = get_button_from_point(obj, &p);
 477:lvgl/src/widgets/lv_btnmatrix.c ****         /*Invalidate to old and the new areas*/
 478:lvgl/src/widgets/lv_btnmatrix.c ****         if(btn_pr != btnm->btn_id_sel) {
 479:lvgl/src/widgets/lv_btnmatrix.c ****             if(btnm->btn_id_sel != LV_BTNMATRIX_BTN_NONE) {
 480:lvgl/src/widgets/lv_btnmatrix.c ****                 invalidate_button_area(obj, btnm->btn_id_sel);
 481:lvgl/src/widgets/lv_btnmatrix.c ****             }
 482:lvgl/src/widgets/lv_btnmatrix.c **** 
 483:lvgl/src/widgets/lv_btnmatrix.c ****             btnm->btn_id_sel = btn_pr;
 484:lvgl/src/widgets/lv_btnmatrix.c **** 
 485:lvgl/src/widgets/lv_btnmatrix.c ****             lv_indev_reset_long_press(param); /*Start the log press time again on the new button*/
 486:lvgl/src/widgets/lv_btnmatrix.c ****             if(btn_pr != LV_BTNMATRIX_BTN_NONE &&
ARM GAS  /var/folders/21/t9g5rlb91ys800n5npymflf80000gn/T//ccSbQiFP.s 			page 10


 487:lvgl/src/widgets/lv_btnmatrix.c ****                button_is_inactive(btnm->ctrl_bits[btn_pr]) == false &&
 488:lvgl/src/widgets/lv_btnmatrix.c ****                button_is_hidden(btnm->ctrl_bits[btn_pr]) == false) {
 489:lvgl/src/widgets/lv_btnmatrix.c ****                 invalidate_button_area(obj, btn_pr);
 490:lvgl/src/widgets/lv_btnmatrix.c ****                 /*Send VALUE_CHANGED for the newly pressed button*/
 491:lvgl/src/widgets/lv_btnmatrix.c ****                 if(button_is_click_trig(btnm->ctrl_bits[btn_pr]) == false &&
 492:lvgl/src/widgets/lv_btnmatrix.c ****                    button_is_popover(btnm->ctrl_bits[btnm->btn_id_sel]) == false) {
 493:lvgl/src/widgets/lv_btnmatrix.c ****                     uint32_t b = btn_pr;
 494:lvgl/src/widgets/lv_btnmatrix.c ****                     res = lv_event_send(obj, LV_EVENT_VALUE_CHANGED, &b);
 495:lvgl/src/widgets/lv_btnmatrix.c ****                     if(res != LV_RES_OK) return;
 496:lvgl/src/widgets/lv_btnmatrix.c ****                 }
 497:lvgl/src/widgets/lv_btnmatrix.c ****             }
 498:lvgl/src/widgets/lv_btnmatrix.c ****         }
 499:lvgl/src/widgets/lv_btnmatrix.c ****     }
 500:lvgl/src/widgets/lv_btnmatrix.c ****     else if(code == LV_EVENT_RELEASED) {
 501:lvgl/src/widgets/lv_btnmatrix.c ****         if(btnm->btn_id_sel != LV_BTNMATRIX_BTN_NONE) {
 502:lvgl/src/widgets/lv_btnmatrix.c ****             /*Toggle the button if enabled*/
 503:lvgl/src/widgets/lv_btnmatrix.c ****             if(button_is_checkable(btnm->ctrl_bits[btnm->btn_id_sel]) &&
 504:lvgl/src/widgets/lv_btnmatrix.c ****                !button_is_inactive(btnm->ctrl_bits[btnm->btn_id_sel])) {
 505:lvgl/src/widgets/lv_btnmatrix.c ****                 if(button_get_checked(btnm->ctrl_bits[btnm->btn_id_sel]) && !btnm->one_check) {
 506:lvgl/src/widgets/lv_btnmatrix.c ****                     btnm->ctrl_bits[btnm->btn_id_sel] &= (~LV_BTNMATRIX_CTRL_CHECKED);
 507:lvgl/src/widgets/lv_btnmatrix.c ****                 }
 508:lvgl/src/widgets/lv_btnmatrix.c ****                 else {
 509:lvgl/src/widgets/lv_btnmatrix.c ****                     btnm->ctrl_bits[btnm->btn_id_sel] |= LV_BTNMATRIX_CTRL_CHECKED;
 510:lvgl/src/widgets/lv_btnmatrix.c ****                 }
 511:lvgl/src/widgets/lv_btnmatrix.c ****                 if(btnm->one_check) make_one_button_checked(obj, btnm->btn_id_sel);
 512:lvgl/src/widgets/lv_btnmatrix.c ****             }
 513:lvgl/src/widgets/lv_btnmatrix.c **** 
 514:lvgl/src/widgets/lv_btnmatrix.c ****             if((button_is_click_trig(btnm->ctrl_bits[btnm->btn_id_sel]) == true ||
 515:lvgl/src/widgets/lv_btnmatrix.c ****                 button_is_popover(btnm->ctrl_bits[btnm->btn_id_sel]) == true) &&
 516:lvgl/src/widgets/lv_btnmatrix.c ****                button_is_inactive(btnm->ctrl_bits[btnm->btn_id_sel]) == false &&
 517:lvgl/src/widgets/lv_btnmatrix.c ****                button_is_hidden(btnm->ctrl_bits[btnm->btn_id_sel]) == false) {
 518:lvgl/src/widgets/lv_btnmatrix.c ****                 uint32_t b = btnm->btn_id_sel;
 519:lvgl/src/widgets/lv_btnmatrix.c ****                 res        = lv_event_send(obj, LV_EVENT_VALUE_CHANGED, &b);
 520:lvgl/src/widgets/lv_btnmatrix.c ****                 if(res != LV_RES_OK) return;
 521:lvgl/src/widgets/lv_btnmatrix.c ****             }
 522:lvgl/src/widgets/lv_btnmatrix.c ****         }
 523:lvgl/src/widgets/lv_btnmatrix.c **** 
 524:lvgl/src/widgets/lv_btnmatrix.c ****         /*Invalidate to old pressed area*/;
 525:lvgl/src/widgets/lv_btnmatrix.c ****         invalidate_button_area(obj, btnm->btn_id_sel);
 526:lvgl/src/widgets/lv_btnmatrix.c **** 
 527:lvgl/src/widgets/lv_btnmatrix.c ****     }
 528:lvgl/src/widgets/lv_btnmatrix.c ****     else if(code == LV_EVENT_LONG_PRESSED_REPEAT) {
 529:lvgl/src/widgets/lv_btnmatrix.c ****         if(btnm->btn_id_sel != LV_BTNMATRIX_BTN_NONE) {
 530:lvgl/src/widgets/lv_btnmatrix.c ****             if(button_is_repeat_disabled(btnm->ctrl_bits[btnm->btn_id_sel]) == false &&
 531:lvgl/src/widgets/lv_btnmatrix.c ****                button_is_inactive(btnm->ctrl_bits[btnm->btn_id_sel]) == false &&
 532:lvgl/src/widgets/lv_btnmatrix.c ****                button_is_hidden(btnm->ctrl_bits[btnm->btn_id_sel]) == false) {
 533:lvgl/src/widgets/lv_btnmatrix.c ****                 uint32_t b = btnm->btn_id_sel;
 534:lvgl/src/widgets/lv_btnmatrix.c ****                 res        = lv_event_send(obj, LV_EVENT_VALUE_CHANGED, &b);
 535:lvgl/src/widgets/lv_btnmatrix.c ****                 if(res != LV_RES_OK) return;
 536:lvgl/src/widgets/lv_btnmatrix.c ****             }
 537:lvgl/src/widgets/lv_btnmatrix.c ****         }
 538:lvgl/src/widgets/lv_btnmatrix.c ****     }
 539:lvgl/src/widgets/lv_btnmatrix.c ****     else if(code == LV_EVENT_PRESS_LOST) {
 540:lvgl/src/widgets/lv_btnmatrix.c ****         invalidate_button_area(obj, btnm->btn_id_sel);
 541:lvgl/src/widgets/lv_btnmatrix.c ****         btnm->btn_id_sel = LV_BTNMATRIX_BTN_NONE;
 542:lvgl/src/widgets/lv_btnmatrix.c ****     }
 543:lvgl/src/widgets/lv_btnmatrix.c ****     else if(code == LV_EVENT_FOCUSED) {
ARM GAS  /var/folders/21/t9g5rlb91ys800n5npymflf80000gn/T//ccSbQiFP.s 			page 11


 544:lvgl/src/widgets/lv_btnmatrix.c ****         if(btnm->btn_cnt == 0) return;
 545:lvgl/src/widgets/lv_btnmatrix.c **** 
 546:lvgl/src/widgets/lv_btnmatrix.c ****         lv_indev_t * indev = lv_event_get_param(e);
 547:lvgl/src/widgets/lv_btnmatrix.c ****         lv_indev_type_t indev_type = lv_indev_get_type(indev);
 548:lvgl/src/widgets/lv_btnmatrix.c **** 
 549:lvgl/src/widgets/lv_btnmatrix.c ****         /*If not focused by an input device assume the last input device*/
 550:lvgl/src/widgets/lv_btnmatrix.c ****         if(indev == NULL) {
 551:lvgl/src/widgets/lv_btnmatrix.c ****             indev = lv_indev_get_next(NULL);
 552:lvgl/src/widgets/lv_btnmatrix.c ****             indev_type = lv_indev_get_type(indev);
 553:lvgl/src/widgets/lv_btnmatrix.c ****         }
 554:lvgl/src/widgets/lv_btnmatrix.c **** 
 555:lvgl/src/widgets/lv_btnmatrix.c ****         bool editing = lv_group_get_editing(lv_obj_get_group(obj));
 556:lvgl/src/widgets/lv_btnmatrix.c ****         /*Focus the first button if there is not selected button*/
 557:lvgl/src/widgets/lv_btnmatrix.c ****         if(btnm->btn_id_sel == LV_BTNMATRIX_BTN_NONE) {
 558:lvgl/src/widgets/lv_btnmatrix.c ****             if(indev_type == LV_INDEV_TYPE_KEYPAD || (indev_type == LV_INDEV_TYPE_ENCODER && editin
 559:lvgl/src/widgets/lv_btnmatrix.c ****                 uint32_t b = 0;
 560:lvgl/src/widgets/lv_btnmatrix.c ****                 if(btnm->one_check) {
 561:lvgl/src/widgets/lv_btnmatrix.c ****                     while(button_is_hidden(btnm->ctrl_bits[b]) || button_is_inactive(btnm->ctrl_bit
 562:lvgl/src/widgets/lv_btnmatrix.c ****                           button_is_checked(btnm->ctrl_bits[b]) == false) b++;
 563:lvgl/src/widgets/lv_btnmatrix.c ****                 }
 564:lvgl/src/widgets/lv_btnmatrix.c ****                 else {
 565:lvgl/src/widgets/lv_btnmatrix.c ****                     while(button_is_hidden(btnm->ctrl_bits[b]) || button_is_inactive(btnm->ctrl_bit
 566:lvgl/src/widgets/lv_btnmatrix.c ****                 }
 567:lvgl/src/widgets/lv_btnmatrix.c **** 
 568:lvgl/src/widgets/lv_btnmatrix.c ****                 btnm->btn_id_sel = b;
 569:lvgl/src/widgets/lv_btnmatrix.c ****             }
 570:lvgl/src/widgets/lv_btnmatrix.c ****             else {
 571:lvgl/src/widgets/lv_btnmatrix.c ****                 btnm->btn_id_sel = LV_BTNMATRIX_BTN_NONE;
 572:lvgl/src/widgets/lv_btnmatrix.c ****             }
 573:lvgl/src/widgets/lv_btnmatrix.c ****         }
 574:lvgl/src/widgets/lv_btnmatrix.c ****     }
 575:lvgl/src/widgets/lv_btnmatrix.c ****     else if(code == LV_EVENT_DEFOCUSED || code == LV_EVENT_LEAVE) {
 576:lvgl/src/widgets/lv_btnmatrix.c ****         if(btnm->btn_id_sel != LV_BTNMATRIX_BTN_NONE) invalidate_button_area(obj, btnm->btn_id_sel)
 577:lvgl/src/widgets/lv_btnmatrix.c ****         btnm->btn_id_sel = LV_BTNMATRIX_BTN_NONE;
 578:lvgl/src/widgets/lv_btnmatrix.c ****     }
 579:lvgl/src/widgets/lv_btnmatrix.c ****     else if(code == LV_EVENT_KEY) {
 580:lvgl/src/widgets/lv_btnmatrix.c **** 
 581:lvgl/src/widgets/lv_btnmatrix.c ****         invalidate_button_area(obj, btnm->btn_id_sel);
 582:lvgl/src/widgets/lv_btnmatrix.c **** 
 583:lvgl/src/widgets/lv_btnmatrix.c ****         char c = *((char *)lv_event_get_param(e));
 584:lvgl/src/widgets/lv_btnmatrix.c ****         if(c == LV_KEY_RIGHT) {
 585:lvgl/src/widgets/lv_btnmatrix.c ****             if(btnm->btn_id_sel == LV_BTNMATRIX_BTN_NONE)  btnm->btn_id_sel = 0;
 586:lvgl/src/widgets/lv_btnmatrix.c ****             else btnm->btn_id_sel++;
 587:lvgl/src/widgets/lv_btnmatrix.c ****             if(btnm->btn_id_sel >= btnm->btn_cnt) btnm->btn_id_sel = 0;
 588:lvgl/src/widgets/lv_btnmatrix.c **** 
 589:lvgl/src/widgets/lv_btnmatrix.c ****             uint16_t btn_id_start = btnm->btn_id_sel;
 590:lvgl/src/widgets/lv_btnmatrix.c ****             while(button_is_hidden(btnm->ctrl_bits[btnm->btn_id_sel]) || button_is_inactive(btnm->c
 591:lvgl/src/widgets/lv_btnmatrix.c ****                 btnm->btn_id_sel++;
 592:lvgl/src/widgets/lv_btnmatrix.c ****                 if(btnm->btn_id_sel >= btnm->btn_cnt) btnm->btn_id_sel = 0;
 593:lvgl/src/widgets/lv_btnmatrix.c **** 
 594:lvgl/src/widgets/lv_btnmatrix.c ****                 if(btnm->btn_id_sel == btn_id_start) {
 595:lvgl/src/widgets/lv_btnmatrix.c ****                     btnm->btn_id_sel = LV_BTNMATRIX_BTN_NONE;
 596:lvgl/src/widgets/lv_btnmatrix.c ****                     break;
 597:lvgl/src/widgets/lv_btnmatrix.c ****                 }
 598:lvgl/src/widgets/lv_btnmatrix.c ****             }
 599:lvgl/src/widgets/lv_btnmatrix.c ****         }
 600:lvgl/src/widgets/lv_btnmatrix.c ****         else if(c == LV_KEY_LEFT) {
ARM GAS  /var/folders/21/t9g5rlb91ys800n5npymflf80000gn/T//ccSbQiFP.s 			page 12


 601:lvgl/src/widgets/lv_btnmatrix.c ****             if(btnm->btn_id_sel == LV_BTNMATRIX_BTN_NONE) btnm->btn_id_sel = 0;
 602:lvgl/src/widgets/lv_btnmatrix.c **** 
 603:lvgl/src/widgets/lv_btnmatrix.c ****             if(btnm->btn_id_sel == 0) btnm->btn_id_sel = btnm->btn_cnt - 1;
 604:lvgl/src/widgets/lv_btnmatrix.c ****             else if(btnm->btn_id_sel > 0) btnm->btn_id_sel--;
 605:lvgl/src/widgets/lv_btnmatrix.c **** 
 606:lvgl/src/widgets/lv_btnmatrix.c ****             uint16_t btn_id_start = btnm->btn_id_sel;
 607:lvgl/src/widgets/lv_btnmatrix.c ****             while(button_is_hidden(btnm->ctrl_bits[btnm->btn_id_sel]) || button_is_inactive(btnm->c
 608:lvgl/src/widgets/lv_btnmatrix.c ****                 if(btnm->btn_id_sel > 0) btnm->btn_id_sel--;
 609:lvgl/src/widgets/lv_btnmatrix.c ****                 else btnm->btn_id_sel = btnm->btn_cnt - 1;
 610:lvgl/src/widgets/lv_btnmatrix.c **** 
 611:lvgl/src/widgets/lv_btnmatrix.c ****                 if(btnm->btn_id_sel == btn_id_start) {
 612:lvgl/src/widgets/lv_btnmatrix.c ****                     btnm->btn_id_sel = LV_BTNMATRIX_BTN_NONE;
 613:lvgl/src/widgets/lv_btnmatrix.c ****                     break;
 614:lvgl/src/widgets/lv_btnmatrix.c ****                 }
 615:lvgl/src/widgets/lv_btnmatrix.c ****             }
 616:lvgl/src/widgets/lv_btnmatrix.c ****         }
 617:lvgl/src/widgets/lv_btnmatrix.c ****         else if(c == LV_KEY_DOWN) {
 618:lvgl/src/widgets/lv_btnmatrix.c ****             lv_coord_t col_gap = lv_obj_get_style_pad_column(obj, LV_PART_MAIN);
 619:lvgl/src/widgets/lv_btnmatrix.c ****             /*Find the area below the current*/
 620:lvgl/src/widgets/lv_btnmatrix.c ****             if(btnm->btn_id_sel == LV_BTNMATRIX_BTN_NONE) {
 621:lvgl/src/widgets/lv_btnmatrix.c ****                 btnm->btn_id_sel = 0;
 622:lvgl/src/widgets/lv_btnmatrix.c ****                 while(button_is_hidden(btnm->ctrl_bits[btnm->btn_id_sel]) || button_is_inactive(btn
 623:lvgl/src/widgets/lv_btnmatrix.c ****                     btnm->btn_id_sel++;
 624:lvgl/src/widgets/lv_btnmatrix.c ****                     if(btnm->btn_id_sel >= btnm->btn_cnt) {
 625:lvgl/src/widgets/lv_btnmatrix.c ****                         btnm->btn_id_sel = LV_BTNMATRIX_BTN_NONE;
 626:lvgl/src/widgets/lv_btnmatrix.c ****                         break;
 627:lvgl/src/widgets/lv_btnmatrix.c ****                     }
 628:lvgl/src/widgets/lv_btnmatrix.c ****                 }
 629:lvgl/src/widgets/lv_btnmatrix.c ****             }
 630:lvgl/src/widgets/lv_btnmatrix.c ****             else {
 631:lvgl/src/widgets/lv_btnmatrix.c ****                 uint16_t area_below;
 632:lvgl/src/widgets/lv_btnmatrix.c ****                 lv_coord_t pr_center =
 633:lvgl/src/widgets/lv_btnmatrix.c ****                     btnm->button_areas[btnm->btn_id_sel].x1 + (lv_area_get_width(&btnm->button_area
 634:lvgl/src/widgets/lv_btnmatrix.c **** 
 635:lvgl/src/widgets/lv_btnmatrix.c ****                 for(area_below = btnm->btn_id_sel; area_below < btnm->btn_cnt; area_below++) {
 636:lvgl/src/widgets/lv_btnmatrix.c ****                     if(btnm->button_areas[area_below].y1 > btnm->button_areas[btnm->btn_id_sel].y1 
 637:lvgl/src/widgets/lv_btnmatrix.c ****                        pr_center >= btnm->button_areas[area_below].x1 &&
 638:lvgl/src/widgets/lv_btnmatrix.c ****                        pr_center <= btnm->button_areas[area_below].x2 + col_gap &&
 639:lvgl/src/widgets/lv_btnmatrix.c ****                        button_is_inactive(btnm->ctrl_bits[area_below]) == false &&
 640:lvgl/src/widgets/lv_btnmatrix.c ****                        button_is_hidden(btnm->ctrl_bits[area_below]) == false) {
 641:lvgl/src/widgets/lv_btnmatrix.c ****                         break;
 642:lvgl/src/widgets/lv_btnmatrix.c ****                     }
 643:lvgl/src/widgets/lv_btnmatrix.c ****                 }
 644:lvgl/src/widgets/lv_btnmatrix.c **** 
 645:lvgl/src/widgets/lv_btnmatrix.c ****                 if(area_below < btnm->btn_cnt) btnm->btn_id_sel = area_below;
 646:lvgl/src/widgets/lv_btnmatrix.c ****             }
 647:lvgl/src/widgets/lv_btnmatrix.c ****         }
 648:lvgl/src/widgets/lv_btnmatrix.c ****         else if(c == LV_KEY_UP) {
 649:lvgl/src/widgets/lv_btnmatrix.c ****             lv_coord_t col_gap = lv_obj_get_style_pad_column(obj, LV_PART_MAIN);
 650:lvgl/src/widgets/lv_btnmatrix.c ****             /*Find the area below the current*/
 651:lvgl/src/widgets/lv_btnmatrix.c ****             if(btnm->btn_id_sel == LV_BTNMATRIX_BTN_NONE) {
 652:lvgl/src/widgets/lv_btnmatrix.c ****                 btnm->btn_id_sel = 0;
 653:lvgl/src/widgets/lv_btnmatrix.c ****                 while(button_is_hidden(btnm->ctrl_bits[btnm->btn_id_sel]) || button_is_inactive(btn
 654:lvgl/src/widgets/lv_btnmatrix.c ****                     btnm->btn_id_sel++;
 655:lvgl/src/widgets/lv_btnmatrix.c ****                     if(btnm->btn_id_sel >= btnm->btn_cnt) {
 656:lvgl/src/widgets/lv_btnmatrix.c ****                         btnm->btn_id_sel = LV_BTNMATRIX_BTN_NONE;
 657:lvgl/src/widgets/lv_btnmatrix.c ****                         break;
ARM GAS  /var/folders/21/t9g5rlb91ys800n5npymflf80000gn/T//ccSbQiFP.s 			page 13


 658:lvgl/src/widgets/lv_btnmatrix.c ****                     }
 659:lvgl/src/widgets/lv_btnmatrix.c ****                 }
 660:lvgl/src/widgets/lv_btnmatrix.c ****             }
 661:lvgl/src/widgets/lv_btnmatrix.c ****             else {
 662:lvgl/src/widgets/lv_btnmatrix.c ****                 int16_t area_above;
 663:lvgl/src/widgets/lv_btnmatrix.c ****                 lv_coord_t pr_center =
 664:lvgl/src/widgets/lv_btnmatrix.c ****                     btnm->button_areas[btnm->btn_id_sel].x1 + (lv_area_get_width(&btnm->button_area
 665:lvgl/src/widgets/lv_btnmatrix.c **** 
 666:lvgl/src/widgets/lv_btnmatrix.c ****                 for(area_above = btnm->btn_id_sel; area_above >= 0; area_above--) {
 667:lvgl/src/widgets/lv_btnmatrix.c ****                     if(btnm->button_areas[area_above].y1 < btnm->button_areas[btnm->btn_id_sel].y1 
 668:lvgl/src/widgets/lv_btnmatrix.c ****                        pr_center >= btnm->button_areas[area_above].x1 - col_gap &&
 669:lvgl/src/widgets/lv_btnmatrix.c ****                        pr_center <= btnm->button_areas[area_above].x2 &&
 670:lvgl/src/widgets/lv_btnmatrix.c ****                        button_is_inactive(btnm->ctrl_bits[area_above]) == false &&
 671:lvgl/src/widgets/lv_btnmatrix.c ****                        button_is_hidden(btnm->ctrl_bits[area_above]) == false) {
 672:lvgl/src/widgets/lv_btnmatrix.c ****                         break;
 673:lvgl/src/widgets/lv_btnmatrix.c ****                     }
 674:lvgl/src/widgets/lv_btnmatrix.c ****                 }
 675:lvgl/src/widgets/lv_btnmatrix.c ****                 if(area_above >= 0) btnm->btn_id_sel = area_above;
 676:lvgl/src/widgets/lv_btnmatrix.c ****             }
 677:lvgl/src/widgets/lv_btnmatrix.c ****         }
 678:lvgl/src/widgets/lv_btnmatrix.c **** 
 679:lvgl/src/widgets/lv_btnmatrix.c ****         invalidate_button_area(obj, btnm->btn_id_sel);
 680:lvgl/src/widgets/lv_btnmatrix.c ****     }
 681:lvgl/src/widgets/lv_btnmatrix.c ****     else if(code == LV_EVENT_DRAW_MAIN) {
 682:lvgl/src/widgets/lv_btnmatrix.c ****         draw_main(e);
 683:lvgl/src/widgets/lv_btnmatrix.c ****     }
 684:lvgl/src/widgets/lv_btnmatrix.c **** 
 685:lvgl/src/widgets/lv_btnmatrix.c **** }
 686:lvgl/src/widgets/lv_btnmatrix.c **** 
 687:lvgl/src/widgets/lv_btnmatrix.c **** static void draw_main(lv_event_t * e)
 688:lvgl/src/widgets/lv_btnmatrix.c **** {
 689:lvgl/src/widgets/lv_btnmatrix.c ****     lv_obj_t * obj = lv_event_get_target(e);
 690:lvgl/src/widgets/lv_btnmatrix.c ****     lv_btnmatrix_t * btnm = (lv_btnmatrix_t *)obj;
 691:lvgl/src/widgets/lv_btnmatrix.c ****     if(btnm->btn_cnt == 0) return;
 692:lvgl/src/widgets/lv_btnmatrix.c **** 
 693:lvgl/src/widgets/lv_btnmatrix.c ****     lv_draw_ctx_t * draw_ctx = lv_event_get_draw_ctx(e);
 694:lvgl/src/widgets/lv_btnmatrix.c ****     obj->skip_trans = 1;
 695:lvgl/src/widgets/lv_btnmatrix.c **** 
 696:lvgl/src/widgets/lv_btnmatrix.c ****     lv_area_t area_obj;
 697:lvgl/src/widgets/lv_btnmatrix.c ****     lv_obj_get_coords(obj, &area_obj);
 698:lvgl/src/widgets/lv_btnmatrix.c **** 
 699:lvgl/src/widgets/lv_btnmatrix.c ****     lv_area_t btn_area;
 700:lvgl/src/widgets/lv_btnmatrix.c **** 
 701:lvgl/src/widgets/lv_btnmatrix.c ****     uint16_t btn_i = 0;
 702:lvgl/src/widgets/lv_btnmatrix.c ****     uint16_t txt_i = 0;
 703:lvgl/src/widgets/lv_btnmatrix.c **** 
 704:lvgl/src/widgets/lv_btnmatrix.c ****     lv_draw_rect_dsc_t draw_rect_dsc_act;
 705:lvgl/src/widgets/lv_btnmatrix.c ****     lv_draw_label_dsc_t draw_label_dsc_act;
 706:lvgl/src/widgets/lv_btnmatrix.c **** 
 707:lvgl/src/widgets/lv_btnmatrix.c ****     lv_draw_rect_dsc_t draw_rect_dsc_def;
 708:lvgl/src/widgets/lv_btnmatrix.c ****     lv_draw_label_dsc_t draw_label_dsc_def;
 709:lvgl/src/widgets/lv_btnmatrix.c **** 
 710:lvgl/src/widgets/lv_btnmatrix.c ****     lv_state_t state_ori = obj->state;
 711:lvgl/src/widgets/lv_btnmatrix.c ****     obj->state = LV_STATE_DEFAULT;
 712:lvgl/src/widgets/lv_btnmatrix.c ****     obj->skip_trans = 1;
 713:lvgl/src/widgets/lv_btnmatrix.c ****     lv_draw_rect_dsc_init(&draw_rect_dsc_def);
 714:lvgl/src/widgets/lv_btnmatrix.c ****     lv_draw_label_dsc_init(&draw_label_dsc_def);
ARM GAS  /var/folders/21/t9g5rlb91ys800n5npymflf80000gn/T//ccSbQiFP.s 			page 14


 715:lvgl/src/widgets/lv_btnmatrix.c ****     lv_obj_init_draw_rect_dsc(obj, LV_PART_ITEMS, &draw_rect_dsc_def);
 716:lvgl/src/widgets/lv_btnmatrix.c ****     lv_obj_init_draw_label_dsc(obj, LV_PART_ITEMS, &draw_label_dsc_def);
 717:lvgl/src/widgets/lv_btnmatrix.c ****     obj->skip_trans = 0;
 718:lvgl/src/widgets/lv_btnmatrix.c ****     obj->state = state_ori;
 719:lvgl/src/widgets/lv_btnmatrix.c **** 
 720:lvgl/src/widgets/lv_btnmatrix.c ****     lv_coord_t ptop = lv_obj_get_style_pad_top(obj, LV_PART_MAIN);
 721:lvgl/src/widgets/lv_btnmatrix.c ****     lv_coord_t pbottom = lv_obj_get_style_pad_bottom(obj, LV_PART_MAIN);
 722:lvgl/src/widgets/lv_btnmatrix.c ****     lv_coord_t pleft = lv_obj_get_style_pad_left(obj, LV_PART_MAIN);
 723:lvgl/src/widgets/lv_btnmatrix.c ****     lv_coord_t pright = lv_obj_get_style_pad_right(obj, LV_PART_MAIN);
 724:lvgl/src/widgets/lv_btnmatrix.c **** 
 725:lvgl/src/widgets/lv_btnmatrix.c **** #if LV_USE_ARABIC_PERSIAN_CHARS
 726:lvgl/src/widgets/lv_btnmatrix.c ****     const size_t txt_ap_size = 256 ;
 727:lvgl/src/widgets/lv_btnmatrix.c ****     char * txt_ap = lv_mem_buf_get(txt_ap_size);
 728:lvgl/src/widgets/lv_btnmatrix.c **** #endif
 729:lvgl/src/widgets/lv_btnmatrix.c **** 
 730:lvgl/src/widgets/lv_btnmatrix.c ****     lv_obj_draw_part_dsc_t part_draw_dsc;
 731:lvgl/src/widgets/lv_btnmatrix.c ****     lv_obj_draw_dsc_init(&part_draw_dsc, draw_ctx);
 732:lvgl/src/widgets/lv_btnmatrix.c ****     part_draw_dsc.part = LV_PART_ITEMS;
 733:lvgl/src/widgets/lv_btnmatrix.c ****     part_draw_dsc.class_p = MY_CLASS;
 734:lvgl/src/widgets/lv_btnmatrix.c ****     part_draw_dsc.type = LV_BTNMATRIX_DRAW_PART_BTN;
 735:lvgl/src/widgets/lv_btnmatrix.c ****     part_draw_dsc.rect_dsc = &draw_rect_dsc_act;
 736:lvgl/src/widgets/lv_btnmatrix.c ****     part_draw_dsc.label_dsc = &draw_label_dsc_act;
 737:lvgl/src/widgets/lv_btnmatrix.c **** 
 738:lvgl/src/widgets/lv_btnmatrix.c ****     for(btn_i = 0; btn_i < btnm->btn_cnt; btn_i++, txt_i++) {
 739:lvgl/src/widgets/lv_btnmatrix.c ****         /*Search the next valid text in the map*/
 740:lvgl/src/widgets/lv_btnmatrix.c ****         while(strcmp(btnm->map_p[txt_i], "\n") == 0) {
 741:lvgl/src/widgets/lv_btnmatrix.c ****             txt_i++;
 742:lvgl/src/widgets/lv_btnmatrix.c ****         }
 743:lvgl/src/widgets/lv_btnmatrix.c **** 
 744:lvgl/src/widgets/lv_btnmatrix.c ****         /*Skip hidden buttons*/
 745:lvgl/src/widgets/lv_btnmatrix.c ****         if(button_is_hidden(btnm->ctrl_bits[btn_i])) continue;
 746:lvgl/src/widgets/lv_btnmatrix.c **** 
 747:lvgl/src/widgets/lv_btnmatrix.c ****         /*Get the state of the button*/
 748:lvgl/src/widgets/lv_btnmatrix.c ****         lv_state_t btn_state = LV_STATE_DEFAULT;
 749:lvgl/src/widgets/lv_btnmatrix.c ****         if(button_get_checked(btnm->ctrl_bits[btn_i])) btn_state |= LV_STATE_CHECKED;
 750:lvgl/src/widgets/lv_btnmatrix.c **** 
 751:lvgl/src/widgets/lv_btnmatrix.c ****         if(button_is_inactive(btnm->ctrl_bits[btn_i])) btn_state |= LV_STATE_DISABLED;
 752:lvgl/src/widgets/lv_btnmatrix.c ****         else if(btn_i == btnm->btn_id_sel) {
 753:lvgl/src/widgets/lv_btnmatrix.c ****             if(state_ori & LV_STATE_PRESSED) btn_state |= LV_STATE_PRESSED;
 754:lvgl/src/widgets/lv_btnmatrix.c ****             if(state_ori & LV_STATE_FOCUSED) btn_state |= LV_STATE_FOCUSED;
 755:lvgl/src/widgets/lv_btnmatrix.c ****             if(state_ori & LV_STATE_FOCUS_KEY) btn_state |= LV_STATE_FOCUS_KEY;
 756:lvgl/src/widgets/lv_btnmatrix.c ****             if(state_ori & LV_STATE_EDITED) btn_state |= LV_STATE_EDITED;
 757:lvgl/src/widgets/lv_btnmatrix.c ****         }
 758:lvgl/src/widgets/lv_btnmatrix.c **** 
 759:lvgl/src/widgets/lv_btnmatrix.c ****         /*Get the button's area*/
 760:lvgl/src/widgets/lv_btnmatrix.c ****         lv_area_copy(&btn_area, &btnm->button_areas[btn_i]);
 761:lvgl/src/widgets/lv_btnmatrix.c ****         btn_area.x1 += area_obj.x1;
 762:lvgl/src/widgets/lv_btnmatrix.c ****         btn_area.y1 += area_obj.y1;
 763:lvgl/src/widgets/lv_btnmatrix.c ****         btn_area.x2 += area_obj.x1;
 764:lvgl/src/widgets/lv_btnmatrix.c ****         btn_area.y2 += area_obj.y1;
 765:lvgl/src/widgets/lv_btnmatrix.c **** 
 766:lvgl/src/widgets/lv_btnmatrix.c ****         /*Set up the draw descriptors*/
 767:lvgl/src/widgets/lv_btnmatrix.c ****         if(btn_state == LV_STATE_DEFAULT) {
 768:lvgl/src/widgets/lv_btnmatrix.c ****             lv_memcpy(&draw_rect_dsc_act, &draw_rect_dsc_def, sizeof(lv_draw_rect_dsc_t));
 769:lvgl/src/widgets/lv_btnmatrix.c ****             lv_memcpy(&draw_label_dsc_act, &draw_label_dsc_def, sizeof(lv_draw_label_dsc_t));
 770:lvgl/src/widgets/lv_btnmatrix.c ****         }
 771:lvgl/src/widgets/lv_btnmatrix.c ****         /*In other cases get the styles directly without caching them*/
ARM GAS  /var/folders/21/t9g5rlb91ys800n5npymflf80000gn/T//ccSbQiFP.s 			page 15


 772:lvgl/src/widgets/lv_btnmatrix.c ****         else {
 773:lvgl/src/widgets/lv_btnmatrix.c ****             obj->state = btn_state;
 774:lvgl/src/widgets/lv_btnmatrix.c ****             obj->skip_trans = 1;
 775:lvgl/src/widgets/lv_btnmatrix.c ****             lv_draw_rect_dsc_init(&draw_rect_dsc_act);
 776:lvgl/src/widgets/lv_btnmatrix.c ****             lv_draw_label_dsc_init(&draw_label_dsc_act);
 777:lvgl/src/widgets/lv_btnmatrix.c ****             lv_obj_init_draw_rect_dsc(obj, LV_PART_ITEMS, &draw_rect_dsc_act);
 778:lvgl/src/widgets/lv_btnmatrix.c ****             lv_obj_init_draw_label_dsc(obj, LV_PART_ITEMS, &draw_label_dsc_act);
 779:lvgl/src/widgets/lv_btnmatrix.c ****             obj->state = state_ori;
 780:lvgl/src/widgets/lv_btnmatrix.c ****             obj->skip_trans = 0;
 781:lvgl/src/widgets/lv_btnmatrix.c ****         }
 782:lvgl/src/widgets/lv_btnmatrix.c **** 
 783:lvgl/src/widgets/lv_btnmatrix.c ****         bool recolor = button_is_recolor(btnm->ctrl_bits[btn_i]);
 784:lvgl/src/widgets/lv_btnmatrix.c ****         if(recolor) draw_label_dsc_act.flag |= LV_TEXT_FLAG_RECOLOR;
 785:lvgl/src/widgets/lv_btnmatrix.c ****         else draw_label_dsc_act.flag &= ~LV_TEXT_FLAG_RECOLOR;
 786:lvgl/src/widgets/lv_btnmatrix.c **** 
 787:lvgl/src/widgets/lv_btnmatrix.c ****         part_draw_dsc.draw_area = &btn_area;
 788:lvgl/src/widgets/lv_btnmatrix.c ****         part_draw_dsc.id = btn_i;
 789:lvgl/src/widgets/lv_btnmatrix.c ****         lv_event_send(obj, LV_EVENT_DRAW_PART_BEGIN, &part_draw_dsc);
 790:lvgl/src/widgets/lv_btnmatrix.c **** 
 791:lvgl/src/widgets/lv_btnmatrix.c ****         /*Remove borders on the edges if `LV_BORDER_SIDE_INTERNAL`*/
 792:lvgl/src/widgets/lv_btnmatrix.c ****         if(draw_rect_dsc_act.border_side & LV_BORDER_SIDE_INTERNAL) {
 793:lvgl/src/widgets/lv_btnmatrix.c ****             draw_rect_dsc_act.border_side = LV_BORDER_SIDE_FULL;
 794:lvgl/src/widgets/lv_btnmatrix.c ****             if(btn_area.x1 == obj->coords.x1 + pleft) draw_rect_dsc_act.border_side &= ~LV_BORDER_S
 795:lvgl/src/widgets/lv_btnmatrix.c ****             if(btn_area.x2 == obj->coords.x2 - pright) draw_rect_dsc_act.border_side &= ~LV_BORDER_
 796:lvgl/src/widgets/lv_btnmatrix.c ****             if(btn_area.y1 == obj->coords.y1 + ptop) draw_rect_dsc_act.border_side &= ~LV_BORDER_SI
 797:lvgl/src/widgets/lv_btnmatrix.c ****             if(btn_area.y2 == obj->coords.y2 - pbottom) draw_rect_dsc_act.border_side &= ~LV_BORDER
 798:lvgl/src/widgets/lv_btnmatrix.c ****         }
 799:lvgl/src/widgets/lv_btnmatrix.c **** 
 800:lvgl/src/widgets/lv_btnmatrix.c ****         lv_coord_t btn_height = lv_area_get_height(&btn_area);
 801:lvgl/src/widgets/lv_btnmatrix.c **** 
 802:lvgl/src/widgets/lv_btnmatrix.c ****         if((btn_state & LV_STATE_PRESSED) && (btnm->ctrl_bits[btn_i] & LV_BTNMATRIX_CTRL_POPOVER)) 
 803:lvgl/src/widgets/lv_btnmatrix.c ****             /*Push up the upper boundary of the btn area to create the popover*/
 804:lvgl/src/widgets/lv_btnmatrix.c ****             btn_area.y1 -= btn_height;
 805:lvgl/src/widgets/lv_btnmatrix.c ****         }
 806:lvgl/src/widgets/lv_btnmatrix.c **** 
 807:lvgl/src/widgets/lv_btnmatrix.c ****         /*Draw the background*/
 808:lvgl/src/widgets/lv_btnmatrix.c ****         lv_draw_rect(draw_ctx, &draw_rect_dsc_act, &btn_area);
 809:lvgl/src/widgets/lv_btnmatrix.c **** 
 810:lvgl/src/widgets/lv_btnmatrix.c ****         /*Calculate the size of the text*/
 811:lvgl/src/widgets/lv_btnmatrix.c ****         const lv_font_t * font = draw_label_dsc_act.font;
 812:lvgl/src/widgets/lv_btnmatrix.c ****         lv_coord_t letter_space = draw_label_dsc_act.letter_space;
 813:lvgl/src/widgets/lv_btnmatrix.c ****         lv_coord_t line_space = draw_label_dsc_act.line_space;
 814:lvgl/src/widgets/lv_btnmatrix.c ****         const char * txt = btnm->map_p[txt_i];
 815:lvgl/src/widgets/lv_btnmatrix.c **** 
 816:lvgl/src/widgets/lv_btnmatrix.c **** #if LV_USE_ARABIC_PERSIAN_CHARS
 817:lvgl/src/widgets/lv_btnmatrix.c ****         /*Get the size of the Arabic text and process it*/
 818:lvgl/src/widgets/lv_btnmatrix.c ****         size_t len_ap = _lv_txt_ap_calc_bytes_cnt(txt);
 819:lvgl/src/widgets/lv_btnmatrix.c ****         if(len_ap < txt_ap_size) {
 820:lvgl/src/widgets/lv_btnmatrix.c ****             _lv_txt_ap_proc(txt, txt_ap);
 821:lvgl/src/widgets/lv_btnmatrix.c ****             txt = txt_ap;
 822:lvgl/src/widgets/lv_btnmatrix.c ****         }
 823:lvgl/src/widgets/lv_btnmatrix.c **** #endif
 824:lvgl/src/widgets/lv_btnmatrix.c ****         lv_point_t txt_size;
 825:lvgl/src/widgets/lv_btnmatrix.c ****         lv_txt_get_size(&txt_size, txt, font, letter_space,
 826:lvgl/src/widgets/lv_btnmatrix.c ****                         line_space, lv_area_get_width(&area_obj), draw_label_dsc_act.flag);
 827:lvgl/src/widgets/lv_btnmatrix.c **** 
 828:lvgl/src/widgets/lv_btnmatrix.c ****         btn_area.x1 += (lv_area_get_width(&btn_area) - txt_size.x) / 2;
ARM GAS  /var/folders/21/t9g5rlb91ys800n5npymflf80000gn/T//ccSbQiFP.s 			page 16


 829:lvgl/src/widgets/lv_btnmatrix.c ****         btn_area.y1 += (lv_area_get_height(&btn_area) - txt_size.y) / 2;
 830:lvgl/src/widgets/lv_btnmatrix.c ****         btn_area.x2 = btn_area.x1 + txt_size.x;
 831:lvgl/src/widgets/lv_btnmatrix.c ****         btn_area.y2 = btn_area.y1 + txt_size.y;
 832:lvgl/src/widgets/lv_btnmatrix.c **** 
 833:lvgl/src/widgets/lv_btnmatrix.c ****         if((btn_state & LV_STATE_PRESSED) && (btnm->ctrl_bits[btn_i] & LV_BTNMATRIX_CTRL_POPOVER)) 
 834:lvgl/src/widgets/lv_btnmatrix.c ****             /*Push up the button text into the popover*/
 835:lvgl/src/widgets/lv_btnmatrix.c ****             btn_area.y1 -= btn_height / 2;
 836:lvgl/src/widgets/lv_btnmatrix.c ****             btn_area.y2 -= btn_height / 2;
 837:lvgl/src/widgets/lv_btnmatrix.c ****         }
 838:lvgl/src/widgets/lv_btnmatrix.c **** 
 839:lvgl/src/widgets/lv_btnmatrix.c ****         /*Draw the text*/
 840:lvgl/src/widgets/lv_btnmatrix.c ****         lv_draw_label(draw_ctx, &draw_label_dsc_act, &btn_area, txt, NULL);
 841:lvgl/src/widgets/lv_btnmatrix.c **** 
 842:lvgl/src/widgets/lv_btnmatrix.c ****         lv_event_send(obj, LV_EVENT_DRAW_PART_END, &part_draw_dsc);
 843:lvgl/src/widgets/lv_btnmatrix.c ****     }
 844:lvgl/src/widgets/lv_btnmatrix.c **** 
 845:lvgl/src/widgets/lv_btnmatrix.c ****     obj->skip_trans = 0;
 846:lvgl/src/widgets/lv_btnmatrix.c **** #if LV_USE_ARABIC_PERSIAN_CHARS
 847:lvgl/src/widgets/lv_btnmatrix.c ****     lv_mem_buf_release(txt_ap);
 848:lvgl/src/widgets/lv_btnmatrix.c **** #endif
 849:lvgl/src/widgets/lv_btnmatrix.c **** }
 850:lvgl/src/widgets/lv_btnmatrix.c **** /**
 851:lvgl/src/widgets/lv_btnmatrix.c ****  * Create the required number of buttons and control bytes according to a map
 852:lvgl/src/widgets/lv_btnmatrix.c ****  * @param obj pointer to button matrix object
 853:lvgl/src/widgets/lv_btnmatrix.c ****  * @param map_p pointer to a string array
 854:lvgl/src/widgets/lv_btnmatrix.c ****  */
 855:lvgl/src/widgets/lv_btnmatrix.c **** static void allocate_btn_areas_and_controls(const lv_obj_t * obj, const char ** map)
 856:lvgl/src/widgets/lv_btnmatrix.c **** {
 857:lvgl/src/widgets/lv_btnmatrix.c ****     lv_btnmatrix_t * btnm = (lv_btnmatrix_t *)obj;
 858:lvgl/src/widgets/lv_btnmatrix.c ****     btnm->row_cnt = 1;
 859:lvgl/src/widgets/lv_btnmatrix.c ****     /*Count the buttons in the map*/
 860:lvgl/src/widgets/lv_btnmatrix.c ****     uint16_t btn_cnt = 0;
 861:lvgl/src/widgets/lv_btnmatrix.c ****     uint16_t i       = 0;
 862:lvgl/src/widgets/lv_btnmatrix.c ****     while(map[i] && map[i][0] != '\0') {
 863:lvgl/src/widgets/lv_btnmatrix.c ****         if(strcmp(map[i], "\n") != 0) { /*Do not count line breaks*/
 864:lvgl/src/widgets/lv_btnmatrix.c ****             btn_cnt++;
 865:lvgl/src/widgets/lv_btnmatrix.c ****         }
 866:lvgl/src/widgets/lv_btnmatrix.c ****         else {
 867:lvgl/src/widgets/lv_btnmatrix.c ****             btnm->row_cnt++;
 868:lvgl/src/widgets/lv_btnmatrix.c ****         }
 869:lvgl/src/widgets/lv_btnmatrix.c ****         i++;
 870:lvgl/src/widgets/lv_btnmatrix.c ****     }
 871:lvgl/src/widgets/lv_btnmatrix.c **** 
 872:lvgl/src/widgets/lv_btnmatrix.c ****     /*Do not allocate memory for the same amount of buttons*/
 873:lvgl/src/widgets/lv_btnmatrix.c ****     if(btn_cnt == btnm->btn_cnt) return;
 874:lvgl/src/widgets/lv_btnmatrix.c **** 
 875:lvgl/src/widgets/lv_btnmatrix.c ****     if(btnm->button_areas != NULL) {
 876:lvgl/src/widgets/lv_btnmatrix.c ****         lv_mem_free(btnm->button_areas);
 877:lvgl/src/widgets/lv_btnmatrix.c ****         btnm->button_areas = NULL;
 878:lvgl/src/widgets/lv_btnmatrix.c ****     }
 879:lvgl/src/widgets/lv_btnmatrix.c ****     if(btnm->ctrl_bits != NULL) {
 880:lvgl/src/widgets/lv_btnmatrix.c ****         lv_mem_free(btnm->ctrl_bits);
 881:lvgl/src/widgets/lv_btnmatrix.c ****         btnm->ctrl_bits = NULL;
 882:lvgl/src/widgets/lv_btnmatrix.c ****     }
 883:lvgl/src/widgets/lv_btnmatrix.c **** 
 884:lvgl/src/widgets/lv_btnmatrix.c ****     btnm->button_areas = lv_mem_alloc(sizeof(lv_area_t) * btn_cnt);
 885:lvgl/src/widgets/lv_btnmatrix.c ****     LV_ASSERT_MALLOC(btnm->button_areas);
ARM GAS  /var/folders/21/t9g5rlb91ys800n5npymflf80000gn/T//ccSbQiFP.s 			page 17


 886:lvgl/src/widgets/lv_btnmatrix.c ****     btnm->ctrl_bits = lv_mem_alloc(sizeof(lv_btnmatrix_ctrl_t) * btn_cnt);
 887:lvgl/src/widgets/lv_btnmatrix.c ****     LV_ASSERT_MALLOC(btnm->ctrl_bits);
 888:lvgl/src/widgets/lv_btnmatrix.c ****     if(btnm->button_areas == NULL || btnm->ctrl_bits == NULL) btn_cnt = 0;
 889:lvgl/src/widgets/lv_btnmatrix.c **** 
 890:lvgl/src/widgets/lv_btnmatrix.c ****     lv_memset_00(btnm->ctrl_bits, sizeof(lv_btnmatrix_ctrl_t) * btn_cnt);
 891:lvgl/src/widgets/lv_btnmatrix.c **** 
 892:lvgl/src/widgets/lv_btnmatrix.c ****     btnm->btn_cnt = btn_cnt;
 893:lvgl/src/widgets/lv_btnmatrix.c **** }
 894:lvgl/src/widgets/lv_btnmatrix.c **** 
 895:lvgl/src/widgets/lv_btnmatrix.c **** /**
 896:lvgl/src/widgets/lv_btnmatrix.c ****  * Get the width of a button in units (default is 1).
 897:lvgl/src/widgets/lv_btnmatrix.c ****  * @param ctrl_bits least significant 3 bits used (1..7 valid values)
 898:lvgl/src/widgets/lv_btnmatrix.c ****  * @return the width of the button in units
 899:lvgl/src/widgets/lv_btnmatrix.c ****  */
 900:lvgl/src/widgets/lv_btnmatrix.c **** static uint8_t get_button_width(lv_btnmatrix_ctrl_t ctrl_bits)
 901:lvgl/src/widgets/lv_btnmatrix.c **** {
  29              		.loc 1 901 1 view -0
  30              		.cfi_startproc
  31              		@ args = 0, pretend = 0, frame = 0
  32              		@ frame_needed = 0, uses_anonymous_args = 0
  33              		@ link register save eliminated.
 902:lvgl/src/widgets/lv_btnmatrix.c ****     uint8_t w = ctrl_bits & LV_BTNMATRIX_WIDTH_MASK;
  34              		.loc 1 902 5 view .LVU1
 903:lvgl/src/widgets/lv_btnmatrix.c ****     return w != 0 ? w : 1;
  35              		.loc 1 903 5 view .LVU2
  36              		.loc 1 903 23 is_stmt 0 view .LVU3
  37 0000 10F00F00 		ands	r0, r0, #15
  38              	.LVL1:
  39              		.loc 1 903 23 view .LVU4
  40 0004 00D1     		bne	.L2
  41 0006 0120     		movs	r0, #1
  42              	.L2:
 904:lvgl/src/widgets/lv_btnmatrix.c **** }
  43              		.loc 1 904 1 discriminator 4 view .LVU5
  44 0008 7047     		bx	lr
  45              		.cfi_endproc
  46              	.LFE181:
  48              		.section	.text.button_is_hidden,"ax",%progbits
  49              		.align	1
  50              		.syntax unified
  51              		.thumb
  52              		.thumb_func
  54              	button_is_hidden:
  55              	.LVL2:
  56              	.LFB182:
 905:lvgl/src/widgets/lv_btnmatrix.c **** 
 906:lvgl/src/widgets/lv_btnmatrix.c **** static bool button_is_hidden(lv_btnmatrix_ctrl_t ctrl_bits)
 907:lvgl/src/widgets/lv_btnmatrix.c **** {
  57              		.loc 1 907 1 is_stmt 1 view -0
  58              		.cfi_startproc
  59              		@ args = 0, pretend = 0, frame = 0
  60              		@ frame_needed = 0, uses_anonymous_args = 0
  61              		@ link register save eliminated.
 908:lvgl/src/widgets/lv_btnmatrix.c ****     return (ctrl_bits & LV_BTNMATRIX_CTRL_HIDDEN) ? true : false;
  62              		.loc 1 908 5 view .LVU7
 909:lvgl/src/widgets/lv_btnmatrix.c **** }
  63              		.loc 1 909 1 is_stmt 0 view .LVU8
ARM GAS  /var/folders/21/t9g5rlb91ys800n5npymflf80000gn/T//ccSbQiFP.s 			page 18


  64 0000 C0F30010 		ubfx	r0, r0, #4, #1
  65              	.LVL3:
  66              		.loc 1 909 1 view .LVU9
  67 0004 7047     		bx	lr
  68              		.cfi_endproc
  69              	.LFE182:
  71              		.section	.text.button_is_checked,"ax",%progbits
  72              		.align	1
  73              		.syntax unified
  74              		.thumb
  75              		.thumb_func
  77              	button_is_checked:
  78              	.LVL4:
  79              	.LFB183:
 910:lvgl/src/widgets/lv_btnmatrix.c **** 
 911:lvgl/src/widgets/lv_btnmatrix.c **** static bool button_is_checked(lv_btnmatrix_ctrl_t ctrl_bits)
 912:lvgl/src/widgets/lv_btnmatrix.c **** {
  80              		.loc 1 912 1 is_stmt 1 view -0
  81              		.cfi_startproc
  82              		@ args = 0, pretend = 0, frame = 0
  83              		@ frame_needed = 0, uses_anonymous_args = 0
  84              		@ link register save eliminated.
 913:lvgl/src/widgets/lv_btnmatrix.c ****     return (ctrl_bits & LV_BTNMATRIX_CTRL_CHECKED) ? true : false;
  85              		.loc 1 913 5 view .LVU11
 914:lvgl/src/widgets/lv_btnmatrix.c **** }
  86              		.loc 1 914 1 is_stmt 0 view .LVU12
  87 0000 C0F30020 		ubfx	r0, r0, #8, #1
  88              	.LVL5:
  89              		.loc 1 914 1 view .LVU13
  90 0004 7047     		bx	lr
  91              		.cfi_endproc
  92              	.LFE183:
  94              		.section	.text.button_is_repeat_disabled,"ax",%progbits
  95              		.align	1
  96              		.syntax unified
  97              		.thumb
  98              		.thumb_func
 100              	button_is_repeat_disabled:
 101              	.LVL6:
 102              	.LFB184:
 915:lvgl/src/widgets/lv_btnmatrix.c **** 
 916:lvgl/src/widgets/lv_btnmatrix.c **** static bool button_is_repeat_disabled(lv_btnmatrix_ctrl_t ctrl_bits)
 917:lvgl/src/widgets/lv_btnmatrix.c **** {
 103              		.loc 1 917 1 is_stmt 1 view -0
 104              		.cfi_startproc
 105              		@ args = 0, pretend = 0, frame = 0
 106              		@ frame_needed = 0, uses_anonymous_args = 0
 107              		@ link register save eliminated.
 918:lvgl/src/widgets/lv_btnmatrix.c ****     return (ctrl_bits & LV_BTNMATRIX_CTRL_NO_REPEAT) ? true : false;
 108              		.loc 1 918 5 view .LVU15
 919:lvgl/src/widgets/lv_btnmatrix.c **** }
 109              		.loc 1 919 1 is_stmt 0 view .LVU16
 110 0000 C0F34010 		ubfx	r0, r0, #5, #1
 111              	.LVL7:
 112              		.loc 1 919 1 view .LVU17
 113 0004 7047     		bx	lr
 114              		.cfi_endproc
ARM GAS  /var/folders/21/t9g5rlb91ys800n5npymflf80000gn/T//ccSbQiFP.s 			page 19


 115              	.LFE184:
 117              		.section	.text.button_is_inactive,"ax",%progbits
 118              		.align	1
 119              		.syntax unified
 120              		.thumb
 121              		.thumb_func
 123              	button_is_inactive:
 124              	.LVL8:
 125              	.LFB185:
 920:lvgl/src/widgets/lv_btnmatrix.c **** 
 921:lvgl/src/widgets/lv_btnmatrix.c **** static bool button_is_inactive(lv_btnmatrix_ctrl_t ctrl_bits)
 922:lvgl/src/widgets/lv_btnmatrix.c **** {
 126              		.loc 1 922 1 is_stmt 1 view -0
 127              		.cfi_startproc
 128              		@ args = 0, pretend = 0, frame = 0
 129              		@ frame_needed = 0, uses_anonymous_args = 0
 130              		@ link register save eliminated.
 923:lvgl/src/widgets/lv_btnmatrix.c ****     return (ctrl_bits & LV_BTNMATRIX_CTRL_DISABLED) ? true : false;
 131              		.loc 1 923 5 view .LVU19
 924:lvgl/src/widgets/lv_btnmatrix.c **** }
 132              		.loc 1 924 1 is_stmt 0 view .LVU20
 133 0000 C0F38010 		ubfx	r0, r0, #6, #1
 134              	.LVL9:
 135              		.loc 1 924 1 view .LVU21
 136 0004 7047     		bx	lr
 137              		.cfi_endproc
 138              	.LFE185:
 140              		.section	.text.button_is_click_trig,"ax",%progbits
 141              		.align	1
 142              		.syntax unified
 143              		.thumb
 144              		.thumb_func
 146              	button_is_click_trig:
 147              	.LVL10:
 148              	.LFB186:
 925:lvgl/src/widgets/lv_btnmatrix.c **** 
 926:lvgl/src/widgets/lv_btnmatrix.c **** static bool button_is_click_trig(lv_btnmatrix_ctrl_t ctrl_bits)
 927:lvgl/src/widgets/lv_btnmatrix.c **** {
 149              		.loc 1 927 1 is_stmt 1 view -0
 150              		.cfi_startproc
 151              		@ args = 0, pretend = 0, frame = 0
 152              		@ frame_needed = 0, uses_anonymous_args = 0
 153              		@ link register save eliminated.
 928:lvgl/src/widgets/lv_btnmatrix.c ****     return (ctrl_bits & LV_BTNMATRIX_CTRL_CLICK_TRIG) ? true : false;
 154              		.loc 1 928 5 view .LVU23
 929:lvgl/src/widgets/lv_btnmatrix.c **** }
 155              		.loc 1 929 1 is_stmt 0 view .LVU24
 156 0000 C0F34020 		ubfx	r0, r0, #9, #1
 157              	.LVL11:
 158              		.loc 1 929 1 view .LVU25
 159 0004 7047     		bx	lr
 160              		.cfi_endproc
 161              	.LFE186:
 163              		.section	.text.button_is_popover,"ax",%progbits
 164              		.align	1
 165              		.syntax unified
 166              		.thumb
ARM GAS  /var/folders/21/t9g5rlb91ys800n5npymflf80000gn/T//ccSbQiFP.s 			page 20


 167              		.thumb_func
 169              	button_is_popover:
 170              	.LVL12:
 171              	.LFB187:
 930:lvgl/src/widgets/lv_btnmatrix.c **** 
 931:lvgl/src/widgets/lv_btnmatrix.c **** static bool button_is_popover(lv_btnmatrix_ctrl_t ctrl_bits)
 932:lvgl/src/widgets/lv_btnmatrix.c **** {
 172              		.loc 1 932 1 is_stmt 1 view -0
 173              		.cfi_startproc
 174              		@ args = 0, pretend = 0, frame = 0
 175              		@ frame_needed = 0, uses_anonymous_args = 0
 176              		@ link register save eliminated.
 933:lvgl/src/widgets/lv_btnmatrix.c ****     return (ctrl_bits & LV_BTNMATRIX_CTRL_POPOVER) ? true : false;
 177              		.loc 1 933 5 view .LVU27
 934:lvgl/src/widgets/lv_btnmatrix.c **** }
 178              		.loc 1 934 1 is_stmt 0 view .LVU28
 179 0000 C0F38020 		ubfx	r0, r0, #10, #1
 180              	.LVL13:
 181              		.loc 1 934 1 view .LVU29
 182 0004 7047     		bx	lr
 183              		.cfi_endproc
 184              	.LFE187:
 186              		.section	.text.button_is_checkable,"ax",%progbits
 187              		.align	1
 188              		.syntax unified
 189              		.thumb
 190              		.thumb_func
 192              	button_is_checkable:
 193              	.LVL14:
 194              	.LFB188:
 935:lvgl/src/widgets/lv_btnmatrix.c **** 
 936:lvgl/src/widgets/lv_btnmatrix.c **** static bool button_is_checkable(lv_btnmatrix_ctrl_t ctrl_bits)
 937:lvgl/src/widgets/lv_btnmatrix.c **** {
 195              		.loc 1 937 1 is_stmt 1 view -0
 196              		.cfi_startproc
 197              		@ args = 0, pretend = 0, frame = 0
 198              		@ frame_needed = 0, uses_anonymous_args = 0
 199              		@ link register save eliminated.
 938:lvgl/src/widgets/lv_btnmatrix.c ****     return (ctrl_bits & LV_BTNMATRIX_CTRL_CHECKABLE) ? true : false;
 200              		.loc 1 938 5 view .LVU31
 939:lvgl/src/widgets/lv_btnmatrix.c **** }
 201              		.loc 1 939 1 is_stmt 0 view .LVU32
 202 0000 C0F3C010 		ubfx	r0, r0, #7, #1
 203              	.LVL15:
 204              		.loc 1 939 1 view .LVU33
 205 0004 7047     		bx	lr
 206              		.cfi_endproc
 207              	.LFE188:
 209              		.section	.text.button_get_checked,"ax",%progbits
 210              		.align	1
 211              		.syntax unified
 212              		.thumb
 213              		.thumb_func
 215              	button_get_checked:
 216              	.LVL16:
 217              	.LFB189:
 940:lvgl/src/widgets/lv_btnmatrix.c **** 
ARM GAS  /var/folders/21/t9g5rlb91ys800n5npymflf80000gn/T//ccSbQiFP.s 			page 21


 941:lvgl/src/widgets/lv_btnmatrix.c **** static bool button_get_checked(lv_btnmatrix_ctrl_t ctrl_bits)
 942:lvgl/src/widgets/lv_btnmatrix.c **** {
 218              		.loc 1 942 1 is_stmt 1 view -0
 219              		.cfi_startproc
 220              		@ args = 0, pretend = 0, frame = 0
 221              		@ frame_needed = 0, uses_anonymous_args = 0
 222              		@ link register save eliminated.
 943:lvgl/src/widgets/lv_btnmatrix.c ****     return (ctrl_bits & LV_BTNMATRIX_CTRL_CHECKED) ? true : false;
 223              		.loc 1 943 5 view .LVU35
 944:lvgl/src/widgets/lv_btnmatrix.c **** }
 224              		.loc 1 944 1 is_stmt 0 view .LVU36
 225 0000 C0F30020 		ubfx	r0, r0, #8, #1
 226              	.LVL17:
 227              		.loc 1 944 1 view .LVU37
 228 0004 7047     		bx	lr
 229              		.cfi_endproc
 230              	.LFE189:
 232              		.section	.text.button_is_recolor,"ax",%progbits
 233              		.align	1
 234              		.syntax unified
 235              		.thumb
 236              		.thumb_func
 238              	button_is_recolor:
 239              	.LVL18:
 240              	.LFB190:
 945:lvgl/src/widgets/lv_btnmatrix.c **** 
 946:lvgl/src/widgets/lv_btnmatrix.c **** static bool button_is_recolor(lv_btnmatrix_ctrl_t ctrl_bits)
 947:lvgl/src/widgets/lv_btnmatrix.c **** {
 241              		.loc 1 947 1 is_stmt 1 view -0
 242              		.cfi_startproc
 243              		@ args = 0, pretend = 0, frame = 0
 244              		@ frame_needed = 0, uses_anonymous_args = 0
 245              		@ link register save eliminated.
 948:lvgl/src/widgets/lv_btnmatrix.c ****     return (ctrl_bits & LV_BTNMATRIX_CTRL_RECOLOR) ? true : false;
 246              		.loc 1 948 5 view .LVU39
 949:lvgl/src/widgets/lv_btnmatrix.c **** }
 247              		.loc 1 949 1 is_stmt 0 view .LVU40
 248 0000 C0F3C020 		ubfx	r0, r0, #11, #1
 249              	.LVL19:
 250              		.loc 1 949 1 view .LVU41
 251 0004 7047     		bx	lr
 252              		.cfi_endproc
 253              	.LFE190:
 255              		.section	.rodata.has_popovers_in_top_row.str1.4,"aMS",%progbits,1
 256              		.align	2
 257              	.LC0:
 258 0000 0A00     		.ascii	"\012\000"
 259              		.section	.text.has_popovers_in_top_row,"ax",%progbits
 260              		.align	1
 261              		.syntax unified
 262              		.thumb
 263              		.thumb_func
 265              	has_popovers_in_top_row:
 266              	.LVL20:
 267              	.LFB194:
 950:lvgl/src/widgets/lv_btnmatrix.c **** /**
 951:lvgl/src/widgets/lv_btnmatrix.c ****  * Gives the button id of a button under a given point
ARM GAS  /var/folders/21/t9g5rlb91ys800n5npymflf80000gn/T//ccSbQiFP.s 			page 22


 952:lvgl/src/widgets/lv_btnmatrix.c ****  * @param obj pointer to a button matrix object
 953:lvgl/src/widgets/lv_btnmatrix.c ****  * @param p a point with absolute coordinates
 954:lvgl/src/widgets/lv_btnmatrix.c ****  * @return the id of the button or LV_BTNMATRIX_BTN_NONE.
 955:lvgl/src/widgets/lv_btnmatrix.c ****  */
 956:lvgl/src/widgets/lv_btnmatrix.c **** static uint16_t get_button_from_point(lv_obj_t * obj, lv_point_t * p)
 957:lvgl/src/widgets/lv_btnmatrix.c **** {
 958:lvgl/src/widgets/lv_btnmatrix.c ****     lv_area_t obj_cords;
 959:lvgl/src/widgets/lv_btnmatrix.c ****     lv_area_t btn_area;
 960:lvgl/src/widgets/lv_btnmatrix.c ****     lv_btnmatrix_t * btnm = (lv_btnmatrix_t *)obj;;
 961:lvgl/src/widgets/lv_btnmatrix.c ****     uint16_t i;
 962:lvgl/src/widgets/lv_btnmatrix.c ****     lv_obj_get_coords(obj, &obj_cords);
 963:lvgl/src/widgets/lv_btnmatrix.c **** 
 964:lvgl/src/widgets/lv_btnmatrix.c ****     lv_coord_t w = lv_obj_get_width(obj);
 965:lvgl/src/widgets/lv_btnmatrix.c ****     lv_coord_t h = lv_obj_get_height(obj);
 966:lvgl/src/widgets/lv_btnmatrix.c ****     lv_coord_t pleft = lv_obj_get_style_pad_left(obj, LV_PART_MAIN);
 967:lvgl/src/widgets/lv_btnmatrix.c ****     lv_coord_t pright = lv_obj_get_style_pad_right(obj, LV_PART_MAIN);
 968:lvgl/src/widgets/lv_btnmatrix.c ****     lv_coord_t ptop = lv_obj_get_style_pad_top(obj, LV_PART_MAIN);
 969:lvgl/src/widgets/lv_btnmatrix.c ****     lv_coord_t pbottom = lv_obj_get_style_pad_bottom(obj, LV_PART_MAIN);
 970:lvgl/src/widgets/lv_btnmatrix.c ****     lv_coord_t prow = lv_obj_get_style_pad_row(obj, LV_PART_MAIN);
 971:lvgl/src/widgets/lv_btnmatrix.c ****     lv_coord_t pcol = lv_obj_get_style_pad_column(obj, LV_PART_MAIN);
 972:lvgl/src/widgets/lv_btnmatrix.c **** 
 973:lvgl/src/widgets/lv_btnmatrix.c ****     /*Get the half gap. Button look larger with this value. (+1 for rounding error)*/
 974:lvgl/src/widgets/lv_btnmatrix.c ****     prow = (prow / 2) + 1 + (prow & 1);
 975:lvgl/src/widgets/lv_btnmatrix.c ****     pcol = (pcol / 2) + 1 + (pcol & 1);
 976:lvgl/src/widgets/lv_btnmatrix.c **** 
 977:lvgl/src/widgets/lv_btnmatrix.c ****     prow = LV_MIN(prow, BTN_EXTRA_CLICK_AREA_MAX);
 978:lvgl/src/widgets/lv_btnmatrix.c ****     pcol = LV_MIN(pcol, BTN_EXTRA_CLICK_AREA_MAX);
 979:lvgl/src/widgets/lv_btnmatrix.c ****     pright = LV_MIN(pright, BTN_EXTRA_CLICK_AREA_MAX);
 980:lvgl/src/widgets/lv_btnmatrix.c ****     ptop = LV_MIN(ptop, BTN_EXTRA_CLICK_AREA_MAX);
 981:lvgl/src/widgets/lv_btnmatrix.c ****     pbottom = LV_MIN(pbottom, BTN_EXTRA_CLICK_AREA_MAX);
 982:lvgl/src/widgets/lv_btnmatrix.c **** 
 983:lvgl/src/widgets/lv_btnmatrix.c ****     for(i = 0; i < btnm->btn_cnt; i++) {
 984:lvgl/src/widgets/lv_btnmatrix.c ****         lv_area_copy(&btn_area, &btnm->button_areas[i]);
 985:lvgl/src/widgets/lv_btnmatrix.c ****         if(btn_area.x1 <= pleft) btn_area.x1 += obj_cords.x1 - LV_MIN(pleft, BTN_EXTRA_CLICK_AREA_M
 986:lvgl/src/widgets/lv_btnmatrix.c ****         else btn_area.x1 += obj_cords.x1 - pcol;
 987:lvgl/src/widgets/lv_btnmatrix.c **** 
 988:lvgl/src/widgets/lv_btnmatrix.c ****         if(btn_area.y1 <= ptop) btn_area.y1 += obj_cords.y1 - LV_MIN(ptop, BTN_EXTRA_CLICK_AREA_MAX
 989:lvgl/src/widgets/lv_btnmatrix.c ****         else btn_area.y1 += obj_cords.y1 - prow;
 990:lvgl/src/widgets/lv_btnmatrix.c **** 
 991:lvgl/src/widgets/lv_btnmatrix.c ****         if(btn_area.x2 >= w - pright - 2) btn_area.x2 += obj_cords.x1 + LV_MIN(pright,
 992:lvgl/src/widgets/lv_btnmatrix.c ****                                                                                    BTN_EXTRA_CLICK_
 993:lvgl/src/widgets/lv_btnmatrix.c ****         else btn_area.x2 += obj_cords.x1 + pcol;
 994:lvgl/src/widgets/lv_btnmatrix.c **** 
 995:lvgl/src/widgets/lv_btnmatrix.c ****         if(btn_area.y2 >= h - pbottom - 2) btn_area.y2 += obj_cords.y1 + LV_MIN(pbottom,
 996:lvgl/src/widgets/lv_btnmatrix.c ****                                                                                     BTN_EXTRA_CLICK
 997:lvgl/src/widgets/lv_btnmatrix.c ****         else btn_area.y2 += obj_cords.y1 + prow;
 998:lvgl/src/widgets/lv_btnmatrix.c **** 
 999:lvgl/src/widgets/lv_btnmatrix.c ****         if(_lv_area_is_point_on(&btn_area, p, 0) != false) {
1000:lvgl/src/widgets/lv_btnmatrix.c ****             break;
1001:lvgl/src/widgets/lv_btnmatrix.c ****         }
1002:lvgl/src/widgets/lv_btnmatrix.c ****     }
1003:lvgl/src/widgets/lv_btnmatrix.c **** 
1004:lvgl/src/widgets/lv_btnmatrix.c ****     if(i == btnm->btn_cnt) i = LV_BTNMATRIX_BTN_NONE;
1005:lvgl/src/widgets/lv_btnmatrix.c **** 
1006:lvgl/src/widgets/lv_btnmatrix.c ****     return i;
1007:lvgl/src/widgets/lv_btnmatrix.c **** }
1008:lvgl/src/widgets/lv_btnmatrix.c **** 
ARM GAS  /var/folders/21/t9g5rlb91ys800n5npymflf80000gn/T//ccSbQiFP.s 			page 23


1009:lvgl/src/widgets/lv_btnmatrix.c **** static void invalidate_button_area(const lv_obj_t * obj, uint16_t btn_idx)
1010:lvgl/src/widgets/lv_btnmatrix.c **** {
1011:lvgl/src/widgets/lv_btnmatrix.c ****     if(btn_idx == LV_BTNMATRIX_BTN_NONE) return;
1012:lvgl/src/widgets/lv_btnmatrix.c **** 
1013:lvgl/src/widgets/lv_btnmatrix.c ****     lv_area_t btn_area;
1014:lvgl/src/widgets/lv_btnmatrix.c ****     lv_area_t obj_area;
1015:lvgl/src/widgets/lv_btnmatrix.c **** 
1016:lvgl/src/widgets/lv_btnmatrix.c ****     lv_btnmatrix_t * btnm = (lv_btnmatrix_t *)obj;;
1017:lvgl/src/widgets/lv_btnmatrix.c ****     if(btn_idx >= btnm->btn_cnt) return;
1018:lvgl/src/widgets/lv_btnmatrix.c **** 
1019:lvgl/src/widgets/lv_btnmatrix.c ****     lv_area_copy(&btn_area, &btnm->button_areas[btn_idx]);
1020:lvgl/src/widgets/lv_btnmatrix.c ****     lv_obj_get_coords(obj, &obj_area);
1021:lvgl/src/widgets/lv_btnmatrix.c **** 
1022:lvgl/src/widgets/lv_btnmatrix.c ****     /*The buttons might have outline and shadow so make the invalidation larger with the gaps betwe
1023:lvgl/src/widgets/lv_btnmatrix.c ****      *It assumes that the outline or shadow is smaller than the gaps*/
1024:lvgl/src/widgets/lv_btnmatrix.c ****     lv_coord_t row_gap = lv_obj_get_style_pad_row(obj, LV_PART_MAIN);
1025:lvgl/src/widgets/lv_btnmatrix.c ****     lv_coord_t col_gap = lv_obj_get_style_pad_column(obj, LV_PART_MAIN);
1026:lvgl/src/widgets/lv_btnmatrix.c **** 
1027:lvgl/src/widgets/lv_btnmatrix.c ****     /*Be sure to have a minimal extra space if row/col_gap is small*/
1028:lvgl/src/widgets/lv_btnmatrix.c ****     lv_coord_t dpi = lv_disp_get_dpi(lv_obj_get_disp(obj));
1029:lvgl/src/widgets/lv_btnmatrix.c ****     row_gap = LV_MAX(row_gap, dpi / 10);
1030:lvgl/src/widgets/lv_btnmatrix.c ****     col_gap = LV_MAX(col_gap, dpi / 10);
1031:lvgl/src/widgets/lv_btnmatrix.c **** 
1032:lvgl/src/widgets/lv_btnmatrix.c ****     /*Convert relative coordinates to absolute*/
1033:lvgl/src/widgets/lv_btnmatrix.c ****     btn_area.x1 += obj_area.x1 - row_gap;
1034:lvgl/src/widgets/lv_btnmatrix.c ****     btn_area.y1 += obj_area.y1 - col_gap;
1035:lvgl/src/widgets/lv_btnmatrix.c ****     btn_area.x2 += obj_area.x1 + row_gap;
1036:lvgl/src/widgets/lv_btnmatrix.c ****     btn_area.y2 += obj_area.y1 + col_gap;
1037:lvgl/src/widgets/lv_btnmatrix.c **** 
1038:lvgl/src/widgets/lv_btnmatrix.c ****     if((btn_idx == btnm->btn_id_sel) && (btnm->ctrl_bits[btn_idx] & LV_BTNMATRIX_CTRL_POPOVER)) {
1039:lvgl/src/widgets/lv_btnmatrix.c ****         /*Push up the upper boundary of the btn area to also invalidate the popover*/
1040:lvgl/src/widgets/lv_btnmatrix.c ****         btn_area.y1 -= lv_area_get_height(&btn_area);
1041:lvgl/src/widgets/lv_btnmatrix.c ****     }
1042:lvgl/src/widgets/lv_btnmatrix.c **** 
1043:lvgl/src/widgets/lv_btnmatrix.c ****     lv_obj_invalidate_area(obj, &btn_area);
1044:lvgl/src/widgets/lv_btnmatrix.c **** }
1045:lvgl/src/widgets/lv_btnmatrix.c **** 
1046:lvgl/src/widgets/lv_btnmatrix.c **** /**
1047:lvgl/src/widgets/lv_btnmatrix.c ****  * Enforces a single button being toggled on the button matrix.
1048:lvgl/src/widgets/lv_btnmatrix.c ****  * It simply clears the toggle flag on other buttons.
1049:lvgl/src/widgets/lv_btnmatrix.c ****  * @param obj Button matrix object
1050:lvgl/src/widgets/lv_btnmatrix.c ****  * @param btn_idx Button that should remain toggled
1051:lvgl/src/widgets/lv_btnmatrix.c ****  */
1052:lvgl/src/widgets/lv_btnmatrix.c **** static void make_one_button_checked(lv_obj_t * obj, uint16_t btn_idx)
1053:lvgl/src/widgets/lv_btnmatrix.c **** {
1054:lvgl/src/widgets/lv_btnmatrix.c ****     /*Save whether the button was toggled*/
1055:lvgl/src/widgets/lv_btnmatrix.c ****     bool was_toggled = lv_btnmatrix_has_btn_ctrl(obj, btn_idx, LV_BTNMATRIX_CTRL_CHECKED);
1056:lvgl/src/widgets/lv_btnmatrix.c **** 
1057:lvgl/src/widgets/lv_btnmatrix.c ****     lv_btnmatrix_clear_btn_ctrl_all(obj, LV_BTNMATRIX_CTRL_CHECKED);
1058:lvgl/src/widgets/lv_btnmatrix.c **** 
1059:lvgl/src/widgets/lv_btnmatrix.c ****     if(was_toggled) lv_btnmatrix_set_btn_ctrl(obj, btn_idx, LV_BTNMATRIX_CTRL_CHECKED);
1060:lvgl/src/widgets/lv_btnmatrix.c **** }
1061:lvgl/src/widgets/lv_btnmatrix.c **** 
1062:lvgl/src/widgets/lv_btnmatrix.c **** /**
1063:lvgl/src/widgets/lv_btnmatrix.c ****  * Check if any of the buttons in the first row has the LV_BTNMATRIX_CTRL_POPOVER control flag set.
1064:lvgl/src/widgets/lv_btnmatrix.c ****  * @param obj Button matrix object
1065:lvgl/src/widgets/lv_btnmatrix.c ****  * @return true if at least one button has the flag, false otherwise
ARM GAS  /var/folders/21/t9g5rlb91ys800n5npymflf80000gn/T//ccSbQiFP.s 			page 24


1066:lvgl/src/widgets/lv_btnmatrix.c ****  */
1067:lvgl/src/widgets/lv_btnmatrix.c **** static bool has_popovers_in_top_row(lv_obj_t * obj)
1068:lvgl/src/widgets/lv_btnmatrix.c **** {
 268              		.loc 1 1068 1 is_stmt 1 view -0
 269              		.cfi_startproc
 270              		@ args = 0, pretend = 0, frame = 0
 271              		@ frame_needed = 0, uses_anonymous_args = 0
1069:lvgl/src/widgets/lv_btnmatrix.c ****     lv_btnmatrix_t * btnm = (lv_btnmatrix_t *)obj;
 272              		.loc 1 1069 5 view .LVU43
1070:lvgl/src/widgets/lv_btnmatrix.c **** 
1071:lvgl/src/widgets/lv_btnmatrix.c ****     if(btnm->row_cnt <= 0) {
 273              		.loc 1 1071 5 view .LVU44
 274              		.loc 1 1071 12 is_stmt 0 view .LVU45
 275 0000 438E     		ldrh	r3, [r0, #50]
 276              		.loc 1 1071 7 view .LVU46
 277 0002 D3B1     		cbz	r3, .L17
1068:lvgl/src/widgets/lv_btnmatrix.c ****     lv_btnmatrix_t * btnm = (lv_btnmatrix_t *)obj;
 278              		.loc 1 1068 1 view .LVU47
 279 0004 2DE9F041 		push	{r4, r5, r6, r7, r8, lr}
 280              	.LCFI0:
 281              		.cfi_def_cfa_offset 24
 282              		.cfi_offset 4, -24
 283              		.cfi_offset 5, -20
 284              		.cfi_offset 6, -16
 285              		.cfi_offset 7, -12
 286              		.cfi_offset 8, -8
 287              		.cfi_offset 14, -4
 288 0008 0746     		mov	r7, r0
1072:lvgl/src/widgets/lv_btnmatrix.c ****         return false;
1073:lvgl/src/widgets/lv_btnmatrix.c ****     }
1074:lvgl/src/widgets/lv_btnmatrix.c **** 
1075:lvgl/src/widgets/lv_btnmatrix.c ****     const char ** map_row = btnm->map_p;
 289              		.loc 1 1075 5 is_stmt 1 view .LVU48
 290              		.loc 1 1075 19 is_stmt 0 view .LVU49
 291 000a D0F82480 		ldr	r8, [r0, #36]
 292              	.LVL21:
1076:lvgl/src/widgets/lv_btnmatrix.c ****     uint16_t btn_cnt = 0;
 293              		.loc 1 1076 5 is_stmt 1 view .LVU50
1077:lvgl/src/widgets/lv_btnmatrix.c **** 
1078:lvgl/src/widgets/lv_btnmatrix.c ****     while(map_row[btn_cnt] && strcmp(map_row[btn_cnt], "\n") != 0 && map_row[btn_cnt][0] != '\0') {
 294              		.loc 1 1078 5 view .LVU51
1076:lvgl/src/widgets/lv_btnmatrix.c ****     uint16_t btn_cnt = 0;
 295              		.loc 1 1076 14 is_stmt 0 view .LVU52
 296 000e 0024     		movs	r4, #0
 297              	.LVL22:
 298              	.L15:
 299              		.loc 1 1078 67 is_stmt 1 view .LVU53
 300              		.loc 1 1078 18 is_stmt 0 view .LVU54
 301 0010 2646     		mov	r6, r4
 302 0012 58F82450 		ldr	r5, [r8, r4, lsl #2]
 303              		.loc 1 1078 67 view .LVU55
 304 0016 9DB1     		cbz	r5, .L18
 305              		.loc 1 1078 31 discriminator 1 view .LVU56
 306 0018 0C49     		ldr	r1, .L24
 307 001a 2846     		mov	r0, r5
 308 001c FFF7FEFF 		bl	strcmp
 309              	.LVL23:
ARM GAS  /var/folders/21/t9g5rlb91ys800n5npymflf80000gn/T//ccSbQiFP.s 			page 25


 310              		.loc 1 1078 28 discriminator 1 view .LVU57
 311 0020 90B1     		cbz	r0, .L19
 312              		.loc 1 1078 86 discriminator 2 view .LVU58
 313 0022 2B78     		ldrb	r3, [r5]	@ zero_extendqisi2
 314              		.loc 1 1078 67 discriminator 2 view .LVU59
 315 0024 6BB1     		cbz	r3, .L14
1079:lvgl/src/widgets/lv_btnmatrix.c ****         if(button_is_popover(btnm->ctrl_bits[btn_cnt])) {
 316              		.loc 1 1079 9 is_stmt 1 view .LVU60
 317              		.loc 1 1079 34 is_stmt 0 view .LVU61
 318 0026 FB6A     		ldr	r3, [r7, #44]
 319              		.loc 1 1079 12 view .LVU62
 320 0028 33F81600 		ldrh	r0, [r3, r6, lsl #1]
 321 002c FFF7FEFF 		bl	button_is_popover
 322              	.LVL24:
 323              		.loc 1 1079 11 view .LVU63
 324 0030 0346     		mov	r3, r0
 325 0032 30B9     		cbnz	r0, .L14
1080:lvgl/src/widgets/lv_btnmatrix.c ****             return true;
1081:lvgl/src/widgets/lv_btnmatrix.c ****         }
1082:lvgl/src/widgets/lv_btnmatrix.c ****         btn_cnt++;
 326              		.loc 1 1082 9 is_stmt 1 view .LVU64
 327              		.loc 1 1082 16 is_stmt 0 view .LVU65
 328 0034 0134     		adds	r4, r4, #1
 329              	.LVL25:
 330              		.loc 1 1082 16 view .LVU66
 331 0036 A4B2     		uxth	r4, r4
 332              	.LVL26:
 333              		.loc 1 1082 16 view .LVU67
 334 0038 EAE7     		b	.L15
 335              	.LVL27:
 336              	.L17:
 337              	.LCFI1:
 338              		.cfi_def_cfa_offset 0
 339              		.cfi_restore 4
 340              		.cfi_restore 5
 341              		.cfi_restore 6
 342              		.cfi_restore 7
 343              		.cfi_restore 8
 344              		.cfi_restore 14
1072:lvgl/src/widgets/lv_btnmatrix.c ****     }
 345              		.loc 1 1072 16 view .LVU68
 346 003a 0023     		movs	r3, #0
1083:lvgl/src/widgets/lv_btnmatrix.c ****     }
1084:lvgl/src/widgets/lv_btnmatrix.c **** 
1085:lvgl/src/widgets/lv_btnmatrix.c ****     return false;
1086:lvgl/src/widgets/lv_btnmatrix.c **** }
 347              		.loc 1 1086 1 view .LVU69
 348 003c 1846     		mov	r0, r3
 349              	.LVL28:
 350              		.loc 1 1086 1 view .LVU70
 351 003e 7047     		bx	lr
 352              	.LVL29:
 353              	.L18:
 354              	.LCFI2:
 355              		.cfi_def_cfa_offset 24
 356              		.cfi_offset 4, -24
 357              		.cfi_offset 5, -20
ARM GAS  /var/folders/21/t9g5rlb91ys800n5npymflf80000gn/T//ccSbQiFP.s 			page 26


 358              		.cfi_offset 6, -16
 359              		.cfi_offset 7, -12
 360              		.cfi_offset 8, -8
 361              		.cfi_offset 14, -4
1085:lvgl/src/widgets/lv_btnmatrix.c **** }
 362              		.loc 1 1085 12 view .LVU71
 363 0040 0023     		movs	r3, #0
 364              	.L14:
 365              		.loc 1 1086 1 view .LVU72
 366 0042 1846     		mov	r0, r3
 367 0044 BDE8F081 		pop	{r4, r5, r6, r7, r8, pc}
 368              	.LVL30:
 369              	.L19:
1085:lvgl/src/widgets/lv_btnmatrix.c **** }
 370              		.loc 1 1085 12 view .LVU73
 371 0048 0023     		movs	r3, #0
 372 004a FAE7     		b	.L14
 373              	.L25:
 374              		.align	2
 375              	.L24:
 376 004c 00000000 		.word	.LC0
 377              		.cfi_endproc
 378              	.LFE194:
 380              		.section	.text.get_button_from_point,"ax",%progbits
 381              		.align	1
 382              		.syntax unified
 383              		.thumb
 384              		.thumb_func
 386              	get_button_from_point:
 387              	.LVL31:
 388              	.LFB191:
 957:lvgl/src/widgets/lv_btnmatrix.c ****     lv_area_t obj_cords;
 389              		.loc 1 957 1 is_stmt 1 view -0
 390              		.cfi_startproc
 391              		@ args = 0, pretend = 0, frame = 32
 392              		@ frame_needed = 0, uses_anonymous_args = 0
 957:lvgl/src/widgets/lv_btnmatrix.c ****     lv_area_t obj_cords;
 393              		.loc 1 957 1 is_stmt 0 view .LVU75
 394 0000 2DE9F04F 		push	{r4, r5, r6, r7, r8, r9, r10, fp, lr}
 395              	.LCFI3:
 396              		.cfi_def_cfa_offset 36
 397              		.cfi_offset 4, -36
 398              		.cfi_offset 5, -32
 399              		.cfi_offset 6, -28
 400              		.cfi_offset 7, -24
 401              		.cfi_offset 8, -20
 402              		.cfi_offset 9, -16
 403              		.cfi_offset 10, -12
 404              		.cfi_offset 11, -8
 405              		.cfi_offset 14, -4
 406 0004 89B0     		sub	sp, sp, #36
 407              	.LCFI4:
 408              		.cfi_def_cfa_offset 72
 409 0006 0546     		mov	r5, r0
 410 0008 0391     		str	r1, [sp, #12]
 958:lvgl/src/widgets/lv_btnmatrix.c ****     lv_area_t btn_area;
 411              		.loc 1 958 5 is_stmt 1 view .LVU76
ARM GAS  /var/folders/21/t9g5rlb91ys800n5npymflf80000gn/T//ccSbQiFP.s 			page 27


 959:lvgl/src/widgets/lv_btnmatrix.c ****     lv_btnmatrix_t * btnm = (lv_btnmatrix_t *)obj;;
 412              		.loc 1 959 5 view .LVU77
 960:lvgl/src/widgets/lv_btnmatrix.c ****     uint16_t i;
 413              		.loc 1 960 5 view .LVU78
 414              	.LVL32:
 960:lvgl/src/widgets/lv_btnmatrix.c ****     uint16_t i;
 415              		.loc 1 960 51 view .LVU79
 961:lvgl/src/widgets/lv_btnmatrix.c ****     lv_obj_get_coords(obj, &obj_cords);
 416              		.loc 1 961 5 view .LVU80
 962:lvgl/src/widgets/lv_btnmatrix.c **** 
 417              		.loc 1 962 5 view .LVU81
 418 000a 06A9     		add	r1, sp, #24
 419              	.LVL33:
 962:lvgl/src/widgets/lv_btnmatrix.c **** 
 420              		.loc 1 962 5 is_stmt 0 view .LVU82
 421 000c FFF7FEFF 		bl	lv_obj_get_coords
 422              	.LVL34:
 964:lvgl/src/widgets/lv_btnmatrix.c ****     lv_coord_t h = lv_obj_get_height(obj);
 423              		.loc 1 964 5 is_stmt 1 view .LVU83
 964:lvgl/src/widgets/lv_btnmatrix.c ****     lv_coord_t h = lv_obj_get_height(obj);
 424              		.loc 1 964 20 is_stmt 0 view .LVU84
 425 0010 2846     		mov	r0, r5
 426 0012 FFF7FEFF 		bl	lv_obj_get_width
 427              	.LVL35:
 428 0016 0190     		str	r0, [sp, #4]
 429              	.LVL36:
 965:lvgl/src/widgets/lv_btnmatrix.c ****     lv_coord_t pleft = lv_obj_get_style_pad_left(obj, LV_PART_MAIN);
 430              		.loc 1 965 5 is_stmt 1 view .LVU85
 965:lvgl/src/widgets/lv_btnmatrix.c ****     lv_coord_t pleft = lv_obj_get_style_pad_left(obj, LV_PART_MAIN);
 431              		.loc 1 965 20 is_stmt 0 view .LVU86
 432 0018 2846     		mov	r0, r5
 433 001a FFF7FEFF 		bl	lv_obj_get_height
 434              	.LVL37:
 435 001e 0290     		str	r0, [sp, #8]
 436              	.LVL38:
 966:lvgl/src/widgets/lv_btnmatrix.c ****     lv_coord_t pright = lv_obj_get_style_pad_right(obj, LV_PART_MAIN);
 437              		.loc 1 966 5 is_stmt 1 view .LVU87
 438              	.LBB81:
 439              	.LBI81:
 440              		.file 2 "lvgl/src/widgets/../core/lv_obj_style_gen.h"
   1:lvgl/src/widgets/../core/lv_obj_style_gen.h **** static inline lv_coord_t lv_obj_get_style_width(const struct _lv_obj_t * obj, uint32_t part)
   2:lvgl/src/widgets/../core/lv_obj_style_gen.h **** {
   3:lvgl/src/widgets/../core/lv_obj_style_gen.h ****     lv_style_value_t v = lv_obj_get_style_prop(obj, part, LV_STYLE_WIDTH);
   4:lvgl/src/widgets/../core/lv_obj_style_gen.h ****     return (lv_coord_t)v.num;
   5:lvgl/src/widgets/../core/lv_obj_style_gen.h **** }
   6:lvgl/src/widgets/../core/lv_obj_style_gen.h **** 
   7:lvgl/src/widgets/../core/lv_obj_style_gen.h **** static inline lv_coord_t lv_obj_get_style_min_width(const struct _lv_obj_t * obj, uint32_t part)
   8:lvgl/src/widgets/../core/lv_obj_style_gen.h **** {
   9:lvgl/src/widgets/../core/lv_obj_style_gen.h ****     lv_style_value_t v = lv_obj_get_style_prop(obj, part, LV_STYLE_MIN_WIDTH);
  10:lvgl/src/widgets/../core/lv_obj_style_gen.h ****     return (lv_coord_t)v.num;
  11:lvgl/src/widgets/../core/lv_obj_style_gen.h **** }
  12:lvgl/src/widgets/../core/lv_obj_style_gen.h **** 
  13:lvgl/src/widgets/../core/lv_obj_style_gen.h **** static inline lv_coord_t lv_obj_get_style_max_width(const struct _lv_obj_t * obj, uint32_t part)
  14:lvgl/src/widgets/../core/lv_obj_style_gen.h **** {
  15:lvgl/src/widgets/../core/lv_obj_style_gen.h ****     lv_style_value_t v = lv_obj_get_style_prop(obj, part, LV_STYLE_MAX_WIDTH);
  16:lvgl/src/widgets/../core/lv_obj_style_gen.h ****     return (lv_coord_t)v.num;
  17:lvgl/src/widgets/../core/lv_obj_style_gen.h **** }
ARM GAS  /var/folders/21/t9g5rlb91ys800n5npymflf80000gn/T//ccSbQiFP.s 			page 28


  18:lvgl/src/widgets/../core/lv_obj_style_gen.h **** 
  19:lvgl/src/widgets/../core/lv_obj_style_gen.h **** static inline lv_coord_t lv_obj_get_style_height(const struct _lv_obj_t * obj, uint32_t part)
  20:lvgl/src/widgets/../core/lv_obj_style_gen.h **** {
  21:lvgl/src/widgets/../core/lv_obj_style_gen.h ****     lv_style_value_t v = lv_obj_get_style_prop(obj, part, LV_STYLE_HEIGHT);
  22:lvgl/src/widgets/../core/lv_obj_style_gen.h ****     return (lv_coord_t)v.num;
  23:lvgl/src/widgets/../core/lv_obj_style_gen.h **** }
  24:lvgl/src/widgets/../core/lv_obj_style_gen.h **** 
  25:lvgl/src/widgets/../core/lv_obj_style_gen.h **** static inline lv_coord_t lv_obj_get_style_min_height(const struct _lv_obj_t * obj, uint32_t part)
  26:lvgl/src/widgets/../core/lv_obj_style_gen.h **** {
  27:lvgl/src/widgets/../core/lv_obj_style_gen.h ****     lv_style_value_t v = lv_obj_get_style_prop(obj, part, LV_STYLE_MIN_HEIGHT);
  28:lvgl/src/widgets/../core/lv_obj_style_gen.h ****     return (lv_coord_t)v.num;
  29:lvgl/src/widgets/../core/lv_obj_style_gen.h **** }
  30:lvgl/src/widgets/../core/lv_obj_style_gen.h **** 
  31:lvgl/src/widgets/../core/lv_obj_style_gen.h **** static inline lv_coord_t lv_obj_get_style_max_height(const struct _lv_obj_t * obj, uint32_t part)
  32:lvgl/src/widgets/../core/lv_obj_style_gen.h **** {
  33:lvgl/src/widgets/../core/lv_obj_style_gen.h ****     lv_style_value_t v = lv_obj_get_style_prop(obj, part, LV_STYLE_MAX_HEIGHT);
  34:lvgl/src/widgets/../core/lv_obj_style_gen.h ****     return (lv_coord_t)v.num;
  35:lvgl/src/widgets/../core/lv_obj_style_gen.h **** }
  36:lvgl/src/widgets/../core/lv_obj_style_gen.h **** 
  37:lvgl/src/widgets/../core/lv_obj_style_gen.h **** static inline lv_coord_t lv_obj_get_style_x(const struct _lv_obj_t * obj, uint32_t part)
  38:lvgl/src/widgets/../core/lv_obj_style_gen.h **** {
  39:lvgl/src/widgets/../core/lv_obj_style_gen.h ****     lv_style_value_t v = lv_obj_get_style_prop(obj, part, LV_STYLE_X);
  40:lvgl/src/widgets/../core/lv_obj_style_gen.h ****     return (lv_coord_t)v.num;
  41:lvgl/src/widgets/../core/lv_obj_style_gen.h **** }
  42:lvgl/src/widgets/../core/lv_obj_style_gen.h **** 
  43:lvgl/src/widgets/../core/lv_obj_style_gen.h **** static inline lv_coord_t lv_obj_get_style_y(const struct _lv_obj_t * obj, uint32_t part)
  44:lvgl/src/widgets/../core/lv_obj_style_gen.h **** {
  45:lvgl/src/widgets/../core/lv_obj_style_gen.h ****     lv_style_value_t v = lv_obj_get_style_prop(obj, part, LV_STYLE_Y);
  46:lvgl/src/widgets/../core/lv_obj_style_gen.h ****     return (lv_coord_t)v.num;
  47:lvgl/src/widgets/../core/lv_obj_style_gen.h **** }
  48:lvgl/src/widgets/../core/lv_obj_style_gen.h **** 
  49:lvgl/src/widgets/../core/lv_obj_style_gen.h **** static inline lv_align_t lv_obj_get_style_align(const struct _lv_obj_t * obj, uint32_t part)
  50:lvgl/src/widgets/../core/lv_obj_style_gen.h **** {
  51:lvgl/src/widgets/../core/lv_obj_style_gen.h ****     lv_style_value_t v = lv_obj_get_style_prop(obj, part, LV_STYLE_ALIGN);
  52:lvgl/src/widgets/../core/lv_obj_style_gen.h ****     return (lv_align_t)v.num;
  53:lvgl/src/widgets/../core/lv_obj_style_gen.h **** }
  54:lvgl/src/widgets/../core/lv_obj_style_gen.h **** 
  55:lvgl/src/widgets/../core/lv_obj_style_gen.h **** static inline lv_coord_t lv_obj_get_style_transform_width(const struct _lv_obj_t * obj, uint32_t pa
  56:lvgl/src/widgets/../core/lv_obj_style_gen.h **** {
  57:lvgl/src/widgets/../core/lv_obj_style_gen.h ****     lv_style_value_t v = lv_obj_get_style_prop(obj, part, LV_STYLE_TRANSFORM_WIDTH);
  58:lvgl/src/widgets/../core/lv_obj_style_gen.h ****     return (lv_coord_t)v.num;
  59:lvgl/src/widgets/../core/lv_obj_style_gen.h **** }
  60:lvgl/src/widgets/../core/lv_obj_style_gen.h **** 
  61:lvgl/src/widgets/../core/lv_obj_style_gen.h **** static inline lv_coord_t lv_obj_get_style_transform_height(const struct _lv_obj_t * obj, uint32_t p
  62:lvgl/src/widgets/../core/lv_obj_style_gen.h **** {
  63:lvgl/src/widgets/../core/lv_obj_style_gen.h ****     lv_style_value_t v = lv_obj_get_style_prop(obj, part, LV_STYLE_TRANSFORM_HEIGHT);
  64:lvgl/src/widgets/../core/lv_obj_style_gen.h ****     return (lv_coord_t)v.num;
  65:lvgl/src/widgets/../core/lv_obj_style_gen.h **** }
  66:lvgl/src/widgets/../core/lv_obj_style_gen.h **** 
  67:lvgl/src/widgets/../core/lv_obj_style_gen.h **** static inline lv_coord_t lv_obj_get_style_translate_x(const struct _lv_obj_t * obj, uint32_t part)
  68:lvgl/src/widgets/../core/lv_obj_style_gen.h **** {
  69:lvgl/src/widgets/../core/lv_obj_style_gen.h ****     lv_style_value_t v = lv_obj_get_style_prop(obj, part, LV_STYLE_TRANSLATE_X);
  70:lvgl/src/widgets/../core/lv_obj_style_gen.h ****     return (lv_coord_t)v.num;
  71:lvgl/src/widgets/../core/lv_obj_style_gen.h **** }
  72:lvgl/src/widgets/../core/lv_obj_style_gen.h **** 
  73:lvgl/src/widgets/../core/lv_obj_style_gen.h **** static inline lv_coord_t lv_obj_get_style_translate_y(const struct _lv_obj_t * obj, uint32_t part)
  74:lvgl/src/widgets/../core/lv_obj_style_gen.h **** {
ARM GAS  /var/folders/21/t9g5rlb91ys800n5npymflf80000gn/T//ccSbQiFP.s 			page 29


  75:lvgl/src/widgets/../core/lv_obj_style_gen.h ****     lv_style_value_t v = lv_obj_get_style_prop(obj, part, LV_STYLE_TRANSLATE_Y);
  76:lvgl/src/widgets/../core/lv_obj_style_gen.h ****     return (lv_coord_t)v.num;
  77:lvgl/src/widgets/../core/lv_obj_style_gen.h **** }
  78:lvgl/src/widgets/../core/lv_obj_style_gen.h **** 
  79:lvgl/src/widgets/../core/lv_obj_style_gen.h **** static inline lv_coord_t lv_obj_get_style_transform_zoom(const struct _lv_obj_t * obj, uint32_t par
  80:lvgl/src/widgets/../core/lv_obj_style_gen.h **** {
  81:lvgl/src/widgets/../core/lv_obj_style_gen.h ****     lv_style_value_t v = lv_obj_get_style_prop(obj, part, LV_STYLE_TRANSFORM_ZOOM);
  82:lvgl/src/widgets/../core/lv_obj_style_gen.h ****     return (lv_coord_t)v.num;
  83:lvgl/src/widgets/../core/lv_obj_style_gen.h **** }
  84:lvgl/src/widgets/../core/lv_obj_style_gen.h **** 
  85:lvgl/src/widgets/../core/lv_obj_style_gen.h **** static inline lv_coord_t lv_obj_get_style_transform_angle(const struct _lv_obj_t * obj, uint32_t pa
  86:lvgl/src/widgets/../core/lv_obj_style_gen.h **** {
  87:lvgl/src/widgets/../core/lv_obj_style_gen.h ****     lv_style_value_t v = lv_obj_get_style_prop(obj, part, LV_STYLE_TRANSFORM_ANGLE);
  88:lvgl/src/widgets/../core/lv_obj_style_gen.h ****     return (lv_coord_t)v.num;
  89:lvgl/src/widgets/../core/lv_obj_style_gen.h **** }
  90:lvgl/src/widgets/../core/lv_obj_style_gen.h **** 
  91:lvgl/src/widgets/../core/lv_obj_style_gen.h **** static inline lv_coord_t lv_obj_get_style_transform_pivot_x(const struct _lv_obj_t * obj, uint32_t 
  92:lvgl/src/widgets/../core/lv_obj_style_gen.h **** {
  93:lvgl/src/widgets/../core/lv_obj_style_gen.h ****     lv_style_value_t v = lv_obj_get_style_prop(obj, part, LV_STYLE_TRANSFORM_PIVOT_X);
  94:lvgl/src/widgets/../core/lv_obj_style_gen.h ****     return (lv_coord_t)v.num;
  95:lvgl/src/widgets/../core/lv_obj_style_gen.h **** }
  96:lvgl/src/widgets/../core/lv_obj_style_gen.h **** 
  97:lvgl/src/widgets/../core/lv_obj_style_gen.h **** static inline lv_coord_t lv_obj_get_style_transform_pivot_y(const struct _lv_obj_t * obj, uint32_t 
  98:lvgl/src/widgets/../core/lv_obj_style_gen.h **** {
  99:lvgl/src/widgets/../core/lv_obj_style_gen.h ****     lv_style_value_t v = lv_obj_get_style_prop(obj, part, LV_STYLE_TRANSFORM_PIVOT_Y);
 100:lvgl/src/widgets/../core/lv_obj_style_gen.h ****     return (lv_coord_t)v.num;
 101:lvgl/src/widgets/../core/lv_obj_style_gen.h **** }
 102:lvgl/src/widgets/../core/lv_obj_style_gen.h **** 
 103:lvgl/src/widgets/../core/lv_obj_style_gen.h **** static inline lv_coord_t lv_obj_get_style_pad_top(const struct _lv_obj_t * obj, uint32_t part)
 104:lvgl/src/widgets/../core/lv_obj_style_gen.h **** {
 105:lvgl/src/widgets/../core/lv_obj_style_gen.h ****     lv_style_value_t v = lv_obj_get_style_prop(obj, part, LV_STYLE_PAD_TOP);
 106:lvgl/src/widgets/../core/lv_obj_style_gen.h ****     return (lv_coord_t)v.num;
 107:lvgl/src/widgets/../core/lv_obj_style_gen.h **** }
 108:lvgl/src/widgets/../core/lv_obj_style_gen.h **** 
 109:lvgl/src/widgets/../core/lv_obj_style_gen.h **** static inline lv_coord_t lv_obj_get_style_pad_bottom(const struct _lv_obj_t * obj, uint32_t part)
 110:lvgl/src/widgets/../core/lv_obj_style_gen.h **** {
 111:lvgl/src/widgets/../core/lv_obj_style_gen.h ****     lv_style_value_t v = lv_obj_get_style_prop(obj, part, LV_STYLE_PAD_BOTTOM);
 112:lvgl/src/widgets/../core/lv_obj_style_gen.h ****     return (lv_coord_t)v.num;
 113:lvgl/src/widgets/../core/lv_obj_style_gen.h **** }
 114:lvgl/src/widgets/../core/lv_obj_style_gen.h **** 
 115:lvgl/src/widgets/../core/lv_obj_style_gen.h **** static inline lv_coord_t lv_obj_get_style_pad_left(const struct _lv_obj_t * obj, uint32_t part)
 441              		.loc 2 115 26 view .LVU88
 442              	.LBB82:
 116:lvgl/src/widgets/../core/lv_obj_style_gen.h **** {
 117:lvgl/src/widgets/../core/lv_obj_style_gen.h ****     lv_style_value_t v = lv_obj_get_style_prop(obj, part, LV_STYLE_PAD_LEFT);
 443              		.loc 2 117 5 view .LVU89
 444              		.loc 2 117 26 is_stmt 0 view .LVU90
 445 0020 1222     		movs	r2, #18
 446 0022 0021     		movs	r1, #0
 447 0024 2846     		mov	r0, r5
 448 0026 FFF7FEFF 		bl	lv_obj_get_style_prop
 449              	.LVL39:
 118:lvgl/src/widgets/../core/lv_obj_style_gen.h ****     return (lv_coord_t)v.num;
 450              		.loc 2 118 5 is_stmt 1 view .LVU91
 451              		.loc 2 118 12 is_stmt 0 view .LVU92
 452 002a 0FFA80FB 		sxth	fp, r0
 453              	.LVL40:
ARM GAS  /var/folders/21/t9g5rlb91ys800n5npymflf80000gn/T//ccSbQiFP.s 			page 30


 454              		.loc 2 118 12 view .LVU93
 455              	.LBE82:
 456              	.LBE81:
 967:lvgl/src/widgets/lv_btnmatrix.c ****     lv_coord_t ptop = lv_obj_get_style_pad_top(obj, LV_PART_MAIN);
 457              		.loc 1 967 5 is_stmt 1 view .LVU94
 458              	.LBB83:
 459              	.LBI83:
 119:lvgl/src/widgets/../core/lv_obj_style_gen.h **** }
 120:lvgl/src/widgets/../core/lv_obj_style_gen.h **** 
 121:lvgl/src/widgets/../core/lv_obj_style_gen.h **** static inline lv_coord_t lv_obj_get_style_pad_right(const struct _lv_obj_t * obj, uint32_t part)
 460              		.loc 2 121 26 view .LVU95
 461              	.LBB84:
 122:lvgl/src/widgets/../core/lv_obj_style_gen.h **** {
 123:lvgl/src/widgets/../core/lv_obj_style_gen.h ****     lv_style_value_t v = lv_obj_get_style_prop(obj, part, LV_STYLE_PAD_RIGHT);
 462              		.loc 2 123 5 view .LVU96
 463              		.loc 2 123 26 is_stmt 0 view .LVU97
 464 002e 1322     		movs	r2, #19
 465 0030 0021     		movs	r1, #0
 466 0032 2846     		mov	r0, r5
 467 0034 FFF7FEFF 		bl	lv_obj_get_style_prop
 468              	.LVL41:
 124:lvgl/src/widgets/../core/lv_obj_style_gen.h ****     return (lv_coord_t)v.num;
 469              		.loc 2 124 5 is_stmt 1 view .LVU98
 470              		.loc 2 124 12 is_stmt 0 view .LVU99
 471 0038 0FFA80F9 		sxth	r9, r0
 472              	.LVL42:
 473              		.loc 2 124 12 view .LVU100
 474              	.LBE84:
 475              	.LBE83:
 968:lvgl/src/widgets/lv_btnmatrix.c ****     lv_coord_t pbottom = lv_obj_get_style_pad_bottom(obj, LV_PART_MAIN);
 476              		.loc 1 968 5 is_stmt 1 view .LVU101
 477              	.LBB85:
 478              	.LBI85:
 103:lvgl/src/widgets/../core/lv_obj_style_gen.h **** {
 479              		.loc 2 103 26 view .LVU102
 480              	.LBB86:
 105:lvgl/src/widgets/../core/lv_obj_style_gen.h ****     return (lv_coord_t)v.num;
 481              		.loc 2 105 5 view .LVU103
 105:lvgl/src/widgets/../core/lv_obj_style_gen.h ****     return (lv_coord_t)v.num;
 482              		.loc 2 105 26 is_stmt 0 view .LVU104
 483 003c 1022     		movs	r2, #16
 484 003e 0021     		movs	r1, #0
 485 0040 2846     		mov	r0, r5
 486 0042 FFF7FEFF 		bl	lv_obj_get_style_prop
 487              	.LVL43:
 106:lvgl/src/widgets/../core/lv_obj_style_gen.h **** }
 488              		.loc 2 106 5 is_stmt 1 view .LVU105
 106:lvgl/src/widgets/../core/lv_obj_style_gen.h **** }
 489              		.loc 2 106 12 is_stmt 0 view .LVU106
 490 0046 0FFA80F8 		sxth	r8, r0
 491              	.LVL44:
 106:lvgl/src/widgets/../core/lv_obj_style_gen.h **** }
 492              		.loc 2 106 12 view .LVU107
 493              	.LBE86:
 494              	.LBE85:
 969:lvgl/src/widgets/lv_btnmatrix.c ****     lv_coord_t prow = lv_obj_get_style_pad_row(obj, LV_PART_MAIN);
 495              		.loc 1 969 5 is_stmt 1 view .LVU108
ARM GAS  /var/folders/21/t9g5rlb91ys800n5npymflf80000gn/T//ccSbQiFP.s 			page 31


 496              	.LBB87:
 497              	.LBI87:
 109:lvgl/src/widgets/../core/lv_obj_style_gen.h **** {
 498              		.loc 2 109 26 view .LVU109
 499              	.LBB88:
 111:lvgl/src/widgets/../core/lv_obj_style_gen.h ****     return (lv_coord_t)v.num;
 500              		.loc 2 111 5 view .LVU110
 111:lvgl/src/widgets/../core/lv_obj_style_gen.h ****     return (lv_coord_t)v.num;
 501              		.loc 2 111 26 is_stmt 0 view .LVU111
 502 004a 1122     		movs	r2, #17
 503 004c 0021     		movs	r1, #0
 504 004e 2846     		mov	r0, r5
 505 0050 FFF7FEFF 		bl	lv_obj_get_style_prop
 506              	.LVL45:
 112:lvgl/src/widgets/../core/lv_obj_style_gen.h **** }
 507              		.loc 2 112 5 is_stmt 1 view .LVU112
 112:lvgl/src/widgets/../core/lv_obj_style_gen.h **** }
 508              		.loc 2 112 12 is_stmt 0 view .LVU113
 509 0054 07B2     		sxth	r7, r0
 510              	.LVL46:
 112:lvgl/src/widgets/../core/lv_obj_style_gen.h **** }
 511              		.loc 2 112 12 view .LVU114
 512              	.LBE88:
 513              	.LBE87:
 970:lvgl/src/widgets/lv_btnmatrix.c ****     lv_coord_t pcol = lv_obj_get_style_pad_column(obj, LV_PART_MAIN);
 514              		.loc 1 970 5 is_stmt 1 view .LVU115
 515              	.LBB89:
 516              	.LBI89:
 125:lvgl/src/widgets/../core/lv_obj_style_gen.h **** }
 126:lvgl/src/widgets/../core/lv_obj_style_gen.h **** 
 127:lvgl/src/widgets/../core/lv_obj_style_gen.h **** static inline lv_coord_t lv_obj_get_style_pad_row(const struct _lv_obj_t * obj, uint32_t part)
 517              		.loc 2 127 26 view .LVU116
 518              	.LBB90:
 128:lvgl/src/widgets/../core/lv_obj_style_gen.h **** {
 129:lvgl/src/widgets/../core/lv_obj_style_gen.h ****     lv_style_value_t v = lv_obj_get_style_prop(obj, part, LV_STYLE_PAD_ROW);
 519              		.loc 2 129 5 view .LVU117
 520              		.loc 2 129 26 is_stmt 0 view .LVU118
 521 0056 1422     		movs	r2, #20
 522 0058 0021     		movs	r1, #0
 523 005a 2846     		mov	r0, r5
 524 005c FFF7FEFF 		bl	lv_obj_get_style_prop
 525              	.LVL47:
 526 0060 0446     		mov	r4, r0
 527              	.LVL48:
 130:lvgl/src/widgets/../core/lv_obj_style_gen.h ****     return (lv_coord_t)v.num;
 528              		.loc 2 130 5 is_stmt 1 view .LVU119
 529              		.loc 2 130 12 is_stmt 0 view .LVU120
 530 0062 06B2     		sxth	r6, r0
 531              	.LVL49:
 532              		.loc 2 130 12 view .LVU121
 533              	.LBE90:
 534              	.LBE89:
 971:lvgl/src/widgets/lv_btnmatrix.c **** 
 535              		.loc 1 971 5 is_stmt 1 view .LVU122
 536              	.LBB91:
 537              	.LBI91:
 131:lvgl/src/widgets/../core/lv_obj_style_gen.h **** }
ARM GAS  /var/folders/21/t9g5rlb91ys800n5npymflf80000gn/T//ccSbQiFP.s 			page 32


 132:lvgl/src/widgets/../core/lv_obj_style_gen.h **** 
 133:lvgl/src/widgets/../core/lv_obj_style_gen.h **** static inline lv_coord_t lv_obj_get_style_pad_column(const struct _lv_obj_t * obj, uint32_t part)
 538              		.loc 2 133 26 view .LVU123
 539              	.LBB92:
 134:lvgl/src/widgets/../core/lv_obj_style_gen.h **** {
 135:lvgl/src/widgets/../core/lv_obj_style_gen.h ****     lv_style_value_t v = lv_obj_get_style_prop(obj, part, LV_STYLE_PAD_COLUMN);
 540              		.loc 2 135 5 view .LVU124
 541              		.loc 2 135 26 is_stmt 0 view .LVU125
 542 0064 1522     		movs	r2, #21
 543 0066 0021     		movs	r1, #0
 544 0068 2846     		mov	r0, r5
 545              		.loc 2 135 26 view .LVU126
 546 006a FFF7FEFF 		bl	lv_obj_get_style_prop
 547              	.LVL50:
 136:lvgl/src/widgets/../core/lv_obj_style_gen.h ****     return (lv_coord_t)v.num;
 548              		.loc 2 136 5 is_stmt 1 view .LVU127
 549              		.loc 2 136 5 is_stmt 0 view .LVU128
 550              	.LBE92:
 551              	.LBE91:
 974:lvgl/src/widgets/lv_btnmatrix.c ****     pcol = (pcol / 2) + 1 + (pcol & 1);
 552              		.loc 1 974 5 is_stmt 1 view .LVU129
 974:lvgl/src/widgets/lv_btnmatrix.c ****     pcol = (pcol / 2) + 1 + (pcol & 1);
 553              		.loc 1 974 35 is_stmt 0 view .LVU130
 554 006e 04F00104 		and	r4, r4, #1
 555              	.LVL51:
 974:lvgl/src/widgets/lv_btnmatrix.c ****     pcol = (pcol / 2) + 1 + (pcol & 1);
 556              		.loc 1 974 27 view .LVU131
 557 0072 06EBD676 		add	r6, r6, r6, lsr #31
 558              	.LVL52:
 974:lvgl/src/widgets/lv_btnmatrix.c ****     pcol = (pcol / 2) + 1 + (pcol & 1);
 559              		.loc 1 974 27 view .LVU132
 560 0076 04EB6606 		add	r6, r4, r6, asr #1
 561 007a 0136     		adds	r6, r6, #1
 974:lvgl/src/widgets/lv_btnmatrix.c ****     pcol = (pcol / 2) + 1 + (pcol & 1);
 562              		.loc 1 974 10 view .LVU133
 563 007c 36B2     		sxth	r6, r6
 564              	.LVL53:
 975:lvgl/src/widgets/lv_btnmatrix.c **** 
 565              		.loc 1 975 5 is_stmt 1 view .LVU134
 975:lvgl/src/widgets/lv_btnmatrix.c **** 
 566              		.loc 1 975 35 is_stmt 0 view .LVU135
 567 007e 00F0010A 		and	r10, r0, #1
 975:lvgl/src/widgets/lv_btnmatrix.c **** 
 568              		.loc 1 975 27 view .LVU136
 569 0082 C0F3C033 		ubfx	r3, r0, #15, #1
 570 0086 03FA80F0 		sxtah	r0, r3, r0
 571              	.LVL54:
 975:lvgl/src/widgets/lv_btnmatrix.c **** 
 572              		.loc 1 975 27 view .LVU137
 573 008a 0AEB600A 		add	r10, r10, r0, asr #1
 574 008e 0AF1010A 		add	r10, r10, #1
 975:lvgl/src/widgets/lv_btnmatrix.c **** 
 575              		.loc 1 975 10 view .LVU138
 576 0092 0FFA8AFA 		sxth	r10, r10
 577              	.LVL55:
 977:lvgl/src/widgets/lv_btnmatrix.c ****     pcol = LV_MIN(pcol, BTN_EXTRA_CLICK_AREA_MAX);
 578              		.loc 1 977 5 is_stmt 1 view .LVU139
ARM GAS  /var/folders/21/t9g5rlb91ys800n5npymflf80000gn/T//ccSbQiFP.s 			page 33


 977:lvgl/src/widgets/lv_btnmatrix.c ****     pcol = LV_MIN(pcol, BTN_EXTRA_CLICK_AREA_MAX);
 579              		.loc 1 977 10 is_stmt 0 view .LVU140
 580 0096 0D2E     		cmp	r6, #13
 581 0098 A8BF     		it	ge
 582 009a 0D26     		movge	r6, #13
 583              	.LVL56:
 978:lvgl/src/widgets/lv_btnmatrix.c ****     pright = LV_MIN(pright, BTN_EXTRA_CLICK_AREA_MAX);
 584              		.loc 1 978 5 is_stmt 1 view .LVU141
 978:lvgl/src/widgets/lv_btnmatrix.c ****     pright = LV_MIN(pright, BTN_EXTRA_CLICK_AREA_MAX);
 585              		.loc 1 978 10 is_stmt 0 view .LVU142
 586 009c BAF10D0F 		cmp	r10, #13
 587 00a0 A8BF     		it	ge
 588 00a2 4FF00D0A 		movge	r10, #13
 589              	.LVL57:
 979:lvgl/src/widgets/lv_btnmatrix.c ****     ptop = LV_MIN(ptop, BTN_EXTRA_CLICK_AREA_MAX);
 590              		.loc 1 979 5 is_stmt 1 view .LVU143
 979:lvgl/src/widgets/lv_btnmatrix.c ****     ptop = LV_MIN(ptop, BTN_EXTRA_CLICK_AREA_MAX);
 591              		.loc 1 979 12 is_stmt 0 view .LVU144
 592 00a6 B9F10D0F 		cmp	r9, #13
 593 00aa A8BF     		it	ge
 594 00ac 4FF00D09 		movge	r9, #13
 595              	.LVL58:
 980:lvgl/src/widgets/lv_btnmatrix.c ****     pbottom = LV_MIN(pbottom, BTN_EXTRA_CLICK_AREA_MAX);
 596              		.loc 1 980 5 is_stmt 1 view .LVU145
 980:lvgl/src/widgets/lv_btnmatrix.c ****     pbottom = LV_MIN(pbottom, BTN_EXTRA_CLICK_AREA_MAX);
 597              		.loc 1 980 10 is_stmt 0 view .LVU146
 598 00b0 B8F10D0F 		cmp	r8, #13
 599 00b4 A8BF     		it	ge
 600 00b6 4FF00D08 		movge	r8, #13
 601              	.LVL59:
 981:lvgl/src/widgets/lv_btnmatrix.c **** 
 602              		.loc 1 981 5 is_stmt 1 view .LVU147
 981:lvgl/src/widgets/lv_btnmatrix.c **** 
 603              		.loc 1 981 13 is_stmt 0 view .LVU148
 604 00ba 0D2F     		cmp	r7, #13
 605 00bc A8BF     		it	ge
 606 00be 0D27     		movge	r7, #13
 607              	.LVL60:
 983:lvgl/src/widgets/lv_btnmatrix.c ****         lv_area_copy(&btn_area, &btnm->button_areas[i]);
 608              		.loc 1 983 5 is_stmt 1 view .LVU149
 983:lvgl/src/widgets/lv_btnmatrix.c ****         lv_area_copy(&btn_area, &btnm->button_areas[i]);
 609              		.loc 1 983 11 is_stmt 0 view .LVU150
 610 00c0 0024     		movs	r4, #0
 983:lvgl/src/widgets/lv_btnmatrix.c ****         lv_area_copy(&btn_area, &btnm->button_areas[i]);
 611              		.loc 1 983 5 view .LVU151
 612 00c2 2DE0     		b	.L27
 613              	.LVL61:
 614              	.L28:
 986:lvgl/src/widgets/lv_btnmatrix.c **** 
 615              		.loc 1 986 14 is_stmt 1 view .LVU152
 986:lvgl/src/widgets/lv_btnmatrix.c **** 
 616              		.loc 1 986 38 is_stmt 0 view .LVU153
 617 00c4 BDF818C0 		ldrh	ip, [sp, #24]
 986:lvgl/src/widgets/lv_btnmatrix.c **** 
 618              		.loc 1 986 42 view .LVU154
 619 00c8 ACEB0A0C 		sub	ip, ip, r10
 620 00cc 1FFA8CFC 		uxth	ip, ip
ARM GAS  /var/folders/21/t9g5rlb91ys800n5npymflf80000gn/T//ccSbQiFP.s 			page 34


 986:lvgl/src/widgets/lv_btnmatrix.c **** 
 621              		.loc 1 986 26 view .LVU155
 622 00d0 1CFA80F0 		uxtah	r0, ip, r0
 623 00d4 ADF81000 		strh	r0, [sp, #16]	@ movhi
 624 00d8 4CE0     		b	.L29
 625              	.L30:
 989:lvgl/src/widgets/lv_btnmatrix.c **** 
 626              		.loc 1 989 14 is_stmt 1 view .LVU156
 989:lvgl/src/widgets/lv_btnmatrix.c **** 
 627              		.loc 1 989 38 is_stmt 0 view .LVU157
 628 00da BDF81A00 		ldrh	r0, [sp, #26]
 989:lvgl/src/widgets/lv_btnmatrix.c **** 
 629              		.loc 1 989 42 view .LVU158
 630 00de 801B     		subs	r0, r0, r6
 631 00e0 80B2     		uxth	r0, r0
 989:lvgl/src/widgets/lv_btnmatrix.c **** 
 632              		.loc 1 989 26 view .LVU159
 633 00e2 10FA81F1 		uxtah	r1, r0, r1
 634 00e6 ADF81210 		strh	r1, [sp, #18]	@ movhi
 635 00ea 56E0     		b	.L31
 636              	.L32:
 993:lvgl/src/widgets/lv_btnmatrix.c **** 
 637              		.loc 1 993 14 is_stmt 1 view .LVU160
 993:lvgl/src/widgets/lv_btnmatrix.c **** 
 638              		.loc 1 993 38 is_stmt 0 view .LVU161
 639 00ec BDF81810 		ldrh	r1, [sp, #24]
 993:lvgl/src/widgets/lv_btnmatrix.c **** 
 640              		.loc 1 993 42 view .LVU162
 641 00f0 5144     		add	r1, r1, r10
 642 00f2 89B2     		uxth	r1, r1
 993:lvgl/src/widgets/lv_btnmatrix.c **** 
 643              		.loc 1 993 26 view .LVU163
 644 00f4 11FA82F2 		uxtah	r2, r1, r2
 645 00f8 ADF81420 		strh	r2, [sp, #20]	@ movhi
 646 00fc 60E0     		b	.L33
 647              	.L34:
 997:lvgl/src/widgets/lv_btnmatrix.c **** 
 648              		.loc 1 997 14 is_stmt 1 view .LVU164
 997:lvgl/src/widgets/lv_btnmatrix.c **** 
 649              		.loc 1 997 38 is_stmt 0 view .LVU165
 650 00fe BDF81A20 		ldrh	r2, [sp, #26]
 997:lvgl/src/widgets/lv_btnmatrix.c **** 
 651              		.loc 1 997 42 view .LVU166
 652 0102 3244     		add	r2, r2, r6
 653 0104 92B2     		uxth	r2, r2
 997:lvgl/src/widgets/lv_btnmatrix.c **** 
 654              		.loc 1 997 26 view .LVU167
 655 0106 12FA83F3 		uxtah	r3, r2, r3
 656 010a ADF81630 		strh	r3, [sp, #22]	@ movhi
 657              	.L35:
 999:lvgl/src/widgets/lv_btnmatrix.c ****             break;
 658              		.loc 1 999 9 is_stmt 1 view .LVU168
 999:lvgl/src/widgets/lv_btnmatrix.c ****             break;
 659              		.loc 1 999 12 is_stmt 0 view .LVU169
 660 010e 0022     		movs	r2, #0
 661 0110 0399     		ldr	r1, [sp, #12]
 662 0112 04A8     		add	r0, sp, #16
ARM GAS  /var/folders/21/t9g5rlb91ys800n5npymflf80000gn/T//ccSbQiFP.s 			page 35


 663 0114 FFF7FEFF 		bl	_lv_area_is_point_on
 664              	.LVL62:
 999:lvgl/src/widgets/lv_btnmatrix.c ****             break;
 665              		.loc 1 999 11 view .LVU170
 666 0118 0028     		cmp	r0, #0
 667 011a 64D1     		bne	.L36
 983:lvgl/src/widgets/lv_btnmatrix.c ****         lv_area_copy(&btn_area, &btnm->button_areas[i]);
 668              		.loc 1 983 36 is_stmt 1 discriminator 2 view .LVU171
 669 011c 0134     		adds	r4, r4, #1
 670              	.LVL63:
 983:lvgl/src/widgets/lv_btnmatrix.c ****         lv_area_copy(&btn_area, &btnm->button_areas[i]);
 671              		.loc 1 983 36 is_stmt 0 discriminator 2 view .LVU172
 672 011e A4B2     		uxth	r4, r4
 673              	.LVL64:
 674              	.L27:
 983:lvgl/src/widgets/lv_btnmatrix.c ****         lv_area_copy(&btn_area, &btnm->button_areas[i]);
 675              		.loc 1 983 18 is_stmt 1 discriminator 1 view .LVU173
 983:lvgl/src/widgets/lv_btnmatrix.c ****         lv_area_copy(&btn_area, &btnm->button_areas[i]);
 676              		.loc 1 983 24 is_stmt 0 discriminator 1 view .LVU174
 677 0120 2B8E     		ldrh	r3, [r5, #48]
 983:lvgl/src/widgets/lv_btnmatrix.c ****         lv_area_copy(&btn_area, &btnm->button_areas[i]);
 678              		.loc 1 983 18 discriminator 1 view .LVU175
 679 0122 A342     		cmp	r3, r4
 680 0124 5FD9     		bls	.L36
 984:lvgl/src/widgets/lv_btnmatrix.c ****         if(btn_area.x1 <= pleft) btn_area.x1 += obj_cords.x1 - LV_MIN(pleft, BTN_EXTRA_CLICK_AREA_M
 681              		.loc 1 984 9 is_stmt 1 view .LVU176
 984:lvgl/src/widgets/lv_btnmatrix.c ****         if(btn_area.x1 <= pleft) btn_area.x1 += obj_cords.x1 - LV_MIN(pleft, BTN_EXTRA_CLICK_AREA_M
 682              		.loc 1 984 38 is_stmt 0 view .LVU177
 683 0126 AA6A     		ldr	r2, [r5, #40]
 984:lvgl/src/widgets/lv_btnmatrix.c ****         if(btn_area.x1 <= pleft) btn_area.x1 += obj_cords.x1 - LV_MIN(pleft, BTN_EXTRA_CLICK_AREA_M
 684              		.loc 1 984 33 view .LVU178
 685 0128 02EBC403 		add	r3, r2, r4, lsl #3
 686              	.LVL65:
 687              	.LBB93:
 688              	.LBI93:
 689              		.file 3 "lvgl/src/widgets/../core/../misc/../font/../misc/lv_area.h"
   1:lvgl/src/widgets/../core/../misc/../font/../misc/lv_area.h **** /**
   2:lvgl/src/widgets/../core/../misc/../font/../misc/lv_area.h ****  * @file lv_area.h
   3:lvgl/src/widgets/../core/../misc/../font/../misc/lv_area.h ****  *
   4:lvgl/src/widgets/../core/../misc/../font/../misc/lv_area.h ****  */
   5:lvgl/src/widgets/../core/../misc/../font/../misc/lv_area.h **** 
   6:lvgl/src/widgets/../core/../misc/../font/../misc/lv_area.h **** #ifndef LV_AREA_H
   7:lvgl/src/widgets/../core/../misc/../font/../misc/lv_area.h **** #define LV_AREA_H
   8:lvgl/src/widgets/../core/../misc/../font/../misc/lv_area.h **** 
   9:lvgl/src/widgets/../core/../misc/../font/../misc/lv_area.h **** #ifdef __cplusplus
  10:lvgl/src/widgets/../core/../misc/../font/../misc/lv_area.h **** extern "C" {
  11:lvgl/src/widgets/../core/../misc/../font/../misc/lv_area.h **** #endif
  12:lvgl/src/widgets/../core/../misc/../font/../misc/lv_area.h **** 
  13:lvgl/src/widgets/../core/../misc/../font/../misc/lv_area.h **** /*********************
  14:lvgl/src/widgets/../core/../misc/../font/../misc/lv_area.h ****  *      INCLUDES
  15:lvgl/src/widgets/../core/../misc/../font/../misc/lv_area.h ****  *********************/
  16:lvgl/src/widgets/../core/../misc/../font/../misc/lv_area.h **** #include "../lv_conf_internal.h"
  17:lvgl/src/widgets/../core/../misc/../font/../misc/lv_area.h **** #include <stdbool.h>
  18:lvgl/src/widgets/../core/../misc/../font/../misc/lv_area.h **** #include <stdint.h>
  19:lvgl/src/widgets/../core/../misc/../font/../misc/lv_area.h **** 
  20:lvgl/src/widgets/../core/../misc/../font/../misc/lv_area.h **** /*********************
  21:lvgl/src/widgets/../core/../misc/../font/../misc/lv_area.h ****  *      DEFINES
ARM GAS  /var/folders/21/t9g5rlb91ys800n5npymflf80000gn/T//ccSbQiFP.s 			page 36


  22:lvgl/src/widgets/../core/../misc/../font/../misc/lv_area.h ****  *********************/
  23:lvgl/src/widgets/../core/../misc/../font/../misc/lv_area.h **** 
  24:lvgl/src/widgets/../core/../misc/../font/../misc/lv_area.h **** #if LV_USE_LARGE_COORD
  25:lvgl/src/widgets/../core/../misc/../font/../misc/lv_area.h **** typedef int32_t lv_coord_t;
  26:lvgl/src/widgets/../core/../misc/../font/../misc/lv_area.h **** #else
  27:lvgl/src/widgets/../core/../misc/../font/../misc/lv_area.h **** typedef int16_t lv_coord_t;
  28:lvgl/src/widgets/../core/../misc/../font/../misc/lv_area.h **** #endif
  29:lvgl/src/widgets/../core/../misc/../font/../misc/lv_area.h **** 
  30:lvgl/src/widgets/../core/../misc/../font/../misc/lv_area.h **** /**********************
  31:lvgl/src/widgets/../core/../misc/../font/../misc/lv_area.h ****  *      TYPEDEFS
  32:lvgl/src/widgets/../core/../misc/../font/../misc/lv_area.h ****  **********************/
  33:lvgl/src/widgets/../core/../misc/../font/../misc/lv_area.h **** 
  34:lvgl/src/widgets/../core/../misc/../font/../misc/lv_area.h **** /**
  35:lvgl/src/widgets/../core/../misc/../font/../misc/lv_area.h ****  * Represents a point on the screen.
  36:lvgl/src/widgets/../core/../misc/../font/../misc/lv_area.h ****  */
  37:lvgl/src/widgets/../core/../misc/../font/../misc/lv_area.h **** typedef struct {
  38:lvgl/src/widgets/../core/../misc/../font/../misc/lv_area.h ****     lv_coord_t x;
  39:lvgl/src/widgets/../core/../misc/../font/../misc/lv_area.h ****     lv_coord_t y;
  40:lvgl/src/widgets/../core/../misc/../font/../misc/lv_area.h **** } lv_point_t;
  41:lvgl/src/widgets/../core/../misc/../font/../misc/lv_area.h **** 
  42:lvgl/src/widgets/../core/../misc/../font/../misc/lv_area.h **** /** Represents an area of the screen.*/
  43:lvgl/src/widgets/../core/../misc/../font/../misc/lv_area.h **** typedef struct {
  44:lvgl/src/widgets/../core/../misc/../font/../misc/lv_area.h ****     lv_coord_t x1;
  45:lvgl/src/widgets/../core/../misc/../font/../misc/lv_area.h ****     lv_coord_t y1;
  46:lvgl/src/widgets/../core/../misc/../font/../misc/lv_area.h ****     lv_coord_t x2;
  47:lvgl/src/widgets/../core/../misc/../font/../misc/lv_area.h ****     lv_coord_t y2;
  48:lvgl/src/widgets/../core/../misc/../font/../misc/lv_area.h **** } lv_area_t;
  49:lvgl/src/widgets/../core/../misc/../font/../misc/lv_area.h **** 
  50:lvgl/src/widgets/../core/../misc/../font/../misc/lv_area.h **** /** Alignments*/
  51:lvgl/src/widgets/../core/../misc/../font/../misc/lv_area.h **** enum {
  52:lvgl/src/widgets/../core/../misc/../font/../misc/lv_area.h ****     LV_ALIGN_DEFAULT = 0,
  53:lvgl/src/widgets/../core/../misc/../font/../misc/lv_area.h ****     LV_ALIGN_TOP_LEFT,
  54:lvgl/src/widgets/../core/../misc/../font/../misc/lv_area.h ****     LV_ALIGN_TOP_MID,
  55:lvgl/src/widgets/../core/../misc/../font/../misc/lv_area.h ****     LV_ALIGN_TOP_RIGHT,
  56:lvgl/src/widgets/../core/../misc/../font/../misc/lv_area.h ****     LV_ALIGN_BOTTOM_LEFT,
  57:lvgl/src/widgets/../core/../misc/../font/../misc/lv_area.h ****     LV_ALIGN_BOTTOM_MID,
  58:lvgl/src/widgets/../core/../misc/../font/../misc/lv_area.h ****     LV_ALIGN_BOTTOM_RIGHT,
  59:lvgl/src/widgets/../core/../misc/../font/../misc/lv_area.h ****     LV_ALIGN_LEFT_MID,
  60:lvgl/src/widgets/../core/../misc/../font/../misc/lv_area.h ****     LV_ALIGN_RIGHT_MID,
  61:lvgl/src/widgets/../core/../misc/../font/../misc/lv_area.h ****     LV_ALIGN_CENTER,
  62:lvgl/src/widgets/../core/../misc/../font/../misc/lv_area.h **** 
  63:lvgl/src/widgets/../core/../misc/../font/../misc/lv_area.h ****     LV_ALIGN_OUT_TOP_LEFT,
  64:lvgl/src/widgets/../core/../misc/../font/../misc/lv_area.h ****     LV_ALIGN_OUT_TOP_MID,
  65:lvgl/src/widgets/../core/../misc/../font/../misc/lv_area.h ****     LV_ALIGN_OUT_TOP_RIGHT,
  66:lvgl/src/widgets/../core/../misc/../font/../misc/lv_area.h ****     LV_ALIGN_OUT_BOTTOM_LEFT,
  67:lvgl/src/widgets/../core/../misc/../font/../misc/lv_area.h ****     LV_ALIGN_OUT_BOTTOM_MID,
  68:lvgl/src/widgets/../core/../misc/../font/../misc/lv_area.h ****     LV_ALIGN_OUT_BOTTOM_RIGHT,
  69:lvgl/src/widgets/../core/../misc/../font/../misc/lv_area.h ****     LV_ALIGN_OUT_LEFT_TOP,
  70:lvgl/src/widgets/../core/../misc/../font/../misc/lv_area.h ****     LV_ALIGN_OUT_LEFT_MID,
  71:lvgl/src/widgets/../core/../misc/../font/../misc/lv_area.h ****     LV_ALIGN_OUT_LEFT_BOTTOM,
  72:lvgl/src/widgets/../core/../misc/../font/../misc/lv_area.h ****     LV_ALIGN_OUT_RIGHT_TOP,
  73:lvgl/src/widgets/../core/../misc/../font/../misc/lv_area.h ****     LV_ALIGN_OUT_RIGHT_MID,
  74:lvgl/src/widgets/../core/../misc/../font/../misc/lv_area.h ****     LV_ALIGN_OUT_RIGHT_BOTTOM,
  75:lvgl/src/widgets/../core/../misc/../font/../misc/lv_area.h **** };
  76:lvgl/src/widgets/../core/../misc/../font/../misc/lv_area.h **** typedef uint8_t lv_align_t;
  77:lvgl/src/widgets/../core/../misc/../font/../misc/lv_area.h **** 
  78:lvgl/src/widgets/../core/../misc/../font/../misc/lv_area.h **** enum {
ARM GAS  /var/folders/21/t9g5rlb91ys800n5npymflf80000gn/T//ccSbQiFP.s 			page 37


  79:lvgl/src/widgets/../core/../misc/../font/../misc/lv_area.h ****     LV_DIR_NONE     = 0x00,
  80:lvgl/src/widgets/../core/../misc/../font/../misc/lv_area.h ****     LV_DIR_LEFT     = (1 << 0),
  81:lvgl/src/widgets/../core/../misc/../font/../misc/lv_area.h ****     LV_DIR_RIGHT    = (1 << 1),
  82:lvgl/src/widgets/../core/../misc/../font/../misc/lv_area.h ****     LV_DIR_TOP      = (1 << 2),
  83:lvgl/src/widgets/../core/../misc/../font/../misc/lv_area.h ****     LV_DIR_BOTTOM   = (1 << 3),
  84:lvgl/src/widgets/../core/../misc/../font/../misc/lv_area.h ****     LV_DIR_HOR      = LV_DIR_LEFT | LV_DIR_RIGHT,
  85:lvgl/src/widgets/../core/../misc/../font/../misc/lv_area.h ****     LV_DIR_VER      = LV_DIR_TOP | LV_DIR_BOTTOM,
  86:lvgl/src/widgets/../core/../misc/../font/../misc/lv_area.h ****     LV_DIR_ALL      = LV_DIR_HOR | LV_DIR_VER,
  87:lvgl/src/widgets/../core/../misc/../font/../misc/lv_area.h **** };
  88:lvgl/src/widgets/../core/../misc/../font/../misc/lv_area.h **** 
  89:lvgl/src/widgets/../core/../misc/../font/../misc/lv_area.h **** typedef uint8_t lv_dir_t;
  90:lvgl/src/widgets/../core/../misc/../font/../misc/lv_area.h **** 
  91:lvgl/src/widgets/../core/../misc/../font/../misc/lv_area.h **** /**********************
  92:lvgl/src/widgets/../core/../misc/../font/../misc/lv_area.h ****  * GLOBAL PROTOTYPES
  93:lvgl/src/widgets/../core/../misc/../font/../misc/lv_area.h ****  **********************/
  94:lvgl/src/widgets/../core/../misc/../font/../misc/lv_area.h **** 
  95:lvgl/src/widgets/../core/../misc/../font/../misc/lv_area.h **** /**
  96:lvgl/src/widgets/../core/../misc/../font/../misc/lv_area.h ****  * Initialize an area
  97:lvgl/src/widgets/../core/../misc/../font/../misc/lv_area.h ****  * @param area_p pointer to an area
  98:lvgl/src/widgets/../core/../misc/../font/../misc/lv_area.h ****  * @param x1 left coordinate of the area
  99:lvgl/src/widgets/../core/../misc/../font/../misc/lv_area.h ****  * @param y1 top coordinate of the area
 100:lvgl/src/widgets/../core/../misc/../font/../misc/lv_area.h ****  * @param x2 right coordinate of the area
 101:lvgl/src/widgets/../core/../misc/../font/../misc/lv_area.h ****  * @param y2 bottom coordinate of the area
 102:lvgl/src/widgets/../core/../misc/../font/../misc/lv_area.h ****  */
 103:lvgl/src/widgets/../core/../misc/../font/../misc/lv_area.h **** void lv_area_set(lv_area_t * area_p, lv_coord_t x1, lv_coord_t y1, lv_coord_t x2, lv_coord_t y2);
 104:lvgl/src/widgets/../core/../misc/../font/../misc/lv_area.h **** 
 105:lvgl/src/widgets/../core/../misc/../font/../misc/lv_area.h **** /**
 106:lvgl/src/widgets/../core/../misc/../font/../misc/lv_area.h ****  * Copy an area
 107:lvgl/src/widgets/../core/../misc/../font/../misc/lv_area.h ****  * @param dest pointer to the destination area
 108:lvgl/src/widgets/../core/../misc/../font/../misc/lv_area.h ****  * @param src pointer to the source area
 109:lvgl/src/widgets/../core/../misc/../font/../misc/lv_area.h ****  */
 110:lvgl/src/widgets/../core/../misc/../font/../misc/lv_area.h **** inline static void lv_area_copy(lv_area_t * dest, const lv_area_t * src)
 690              		.loc 3 110 20 is_stmt 1 view .LVU179
 691              	.LBB94:
 111:lvgl/src/widgets/../core/../misc/../font/../misc/lv_area.h **** {
 112:lvgl/src/widgets/../core/../misc/../font/../misc/lv_area.h ****     dest->x1 = src->x1;
 692              		.loc 3 112 5 view .LVU180
 693              		.loc 3 112 19 is_stmt 0 view .LVU181
 694 012c 32F93400 		ldrsh	r0, [r2, r4, lsl #3]
 695              		.loc 3 112 14 view .LVU182
 696 0130 ADF81000 		strh	r0, [sp, #16]	@ movhi
 113:lvgl/src/widgets/../core/../misc/../font/../misc/lv_area.h ****     dest->y1 = src->y1;
 697              		.loc 3 113 5 is_stmt 1 view .LVU183
 698              		.loc 3 113 19 is_stmt 0 view .LVU184
 699 0134 B3F90210 		ldrsh	r1, [r3, #2]
 700              		.loc 3 113 14 view .LVU185
 701 0138 ADF81210 		strh	r1, [sp, #18]	@ movhi
 114:lvgl/src/widgets/../core/../misc/../font/../misc/lv_area.h ****     dest->x2 = src->x2;
 702              		.loc 3 114 5 is_stmt 1 view .LVU186
 703              		.loc 3 114 19 is_stmt 0 view .LVU187
 704 013c B3F90420 		ldrsh	r2, [r3, #4]
 705              		.loc 3 114 14 view .LVU188
 706 0140 ADF81420 		strh	r2, [sp, #20]	@ movhi
 115:lvgl/src/widgets/../core/../misc/../font/../misc/lv_area.h ****     dest->y2 = src->y2;
 707              		.loc 3 115 5 is_stmt 1 view .LVU189
 708              		.loc 3 115 19 is_stmt 0 view .LVU190
 709 0144 B3F90630 		ldrsh	r3, [r3, #6]
ARM GAS  /var/folders/21/t9g5rlb91ys800n5npymflf80000gn/T//ccSbQiFP.s 			page 38


 710              	.LVL66:
 711              		.loc 3 115 14 view .LVU191
 712 0148 ADF81630 		strh	r3, [sp, #22]	@ movhi
 713              	.LVL67:
 714              		.loc 3 115 14 view .LVU192
 715              	.LBE94:
 716              	.LBE93:
 985:lvgl/src/widgets/lv_btnmatrix.c ****         else btn_area.x1 += obj_cords.x1 - pcol;
 717              		.loc 1 985 9 is_stmt 1 view .LVU193
 985:lvgl/src/widgets/lv_btnmatrix.c ****         else btn_area.x1 += obj_cords.x1 - pcol;
 718              		.loc 1 985 11 is_stmt 0 view .LVU194
 719 014c 8345     		cmp	fp, r0
 720 014e B9DB     		blt	.L28
 985:lvgl/src/widgets/lv_btnmatrix.c ****         else btn_area.x1 += obj_cords.x1 - pcol;
 721              		.loc 1 985 34 is_stmt 1 discriminator 1 view .LVU195
 985:lvgl/src/widgets/lv_btnmatrix.c ****         else btn_area.x1 += obj_cords.x1 - pcol;
 722              		.loc 1 985 58 is_stmt 0 discriminator 1 view .LVU196
 723 0150 BDF818C0 		ldrh	ip, [sp, #24]
 985:lvgl/src/widgets/lv_btnmatrix.c ****         else btn_area.x1 += obj_cords.x1 - pcol;
 724              		.loc 1 985 64 discriminator 1 view .LVU197
 725 0154 DE46     		mov	lr, fp
 726 0156 BBF10D0F 		cmp	fp, #13
 727 015a A8BF     		it	ge
 728 015c 4FF00D0E 		movge	lr, #13
 729 0160 1FFA8EFE 		uxth	lr, lr
 985:lvgl/src/widgets/lv_btnmatrix.c ****         else btn_area.x1 += obj_cords.x1 - pcol;
 730              		.loc 1 985 62 discriminator 1 view .LVU198
 731 0164 ACEB0E0C 		sub	ip, ip, lr
 732 0168 1FFA8CFC 		uxth	ip, ip
 985:lvgl/src/widgets/lv_btnmatrix.c ****         else btn_area.x1 += obj_cords.x1 - pcol;
 733              		.loc 1 985 46 discriminator 1 view .LVU199
 734 016c 1CFA80F0 		uxtah	r0, ip, r0
 735 0170 ADF81000 		strh	r0, [sp, #16]	@ movhi
 736              	.L29:
 988:lvgl/src/widgets/lv_btnmatrix.c ****         else btn_area.y1 += obj_cords.y1 - prow;
 737              		.loc 1 988 9 is_stmt 1 view .LVU200
 988:lvgl/src/widgets/lv_btnmatrix.c ****         else btn_area.y1 += obj_cords.y1 - prow;
 738              		.loc 1 988 11 is_stmt 0 view .LVU201
 739 0174 8845     		cmp	r8, r1
 740 0176 B0DB     		blt	.L30
 988:lvgl/src/widgets/lv_btnmatrix.c ****         else btn_area.y1 += obj_cords.y1 - prow;
 741              		.loc 1 988 33 is_stmt 1 discriminator 1 view .LVU202
 988:lvgl/src/widgets/lv_btnmatrix.c ****         else btn_area.y1 += obj_cords.y1 - prow;
 742              		.loc 1 988 57 is_stmt 0 discriminator 1 view .LVU203
 743 0178 BDF81A00 		ldrh	r0, [sp, #26]
 988:lvgl/src/widgets/lv_btnmatrix.c ****         else btn_area.y1 += obj_cords.y1 - prow;
 744              		.loc 1 988 63 discriminator 1 view .LVU204
 745 017c C446     		mov	ip, r8
 746 017e B8F10D0F 		cmp	r8, #13
 747 0182 A8BF     		it	ge
 748 0184 4FF00D0C 		movge	ip, #13
 749 0188 1FFA8CFC 		uxth	ip, ip
 988:lvgl/src/widgets/lv_btnmatrix.c ****         else btn_area.y1 += obj_cords.y1 - prow;
 750              		.loc 1 988 61 discriminator 1 view .LVU205
 751 018c A0EB0C00 		sub	r0, r0, ip
 752 0190 80B2     		uxth	r0, r0
 988:lvgl/src/widgets/lv_btnmatrix.c ****         else btn_area.y1 += obj_cords.y1 - prow;
ARM GAS  /var/folders/21/t9g5rlb91ys800n5npymflf80000gn/T//ccSbQiFP.s 			page 39


 753              		.loc 1 988 45 discriminator 1 view .LVU206
 754 0192 10FA81F1 		uxtah	r1, r0, r1
 755 0196 ADF81210 		strh	r1, [sp, #18]	@ movhi
 756              	.L31:
 991:lvgl/src/widgets/lv_btnmatrix.c ****                                                                                    BTN_EXTRA_CLICK_
 757              		.loc 1 991 9 is_stmt 1 view .LVU207
 991:lvgl/src/widgets/lv_btnmatrix.c ****                                                                                    BTN_EXTRA_CLICK_
 758              		.loc 1 991 29 is_stmt 0 view .LVU208
 759 019a 0199     		ldr	r1, [sp, #4]
 760 019c A1EB0901 		sub	r1, r1, r9
 991:lvgl/src/widgets/lv_btnmatrix.c ****                                                                                    BTN_EXTRA_CLICK_
 761              		.loc 1 991 38 view .LVU209
 762 01a0 0239     		subs	r1, r1, #2
 991:lvgl/src/widgets/lv_btnmatrix.c ****                                                                                    BTN_EXTRA_CLICK_
 763              		.loc 1 991 11 view .LVU210
 764 01a2 8A42     		cmp	r2, r1
 765 01a4 A2DB     		blt	.L32
 991:lvgl/src/widgets/lv_btnmatrix.c ****                                                                                    BTN_EXTRA_CLICK_
 766              		.loc 1 991 43 is_stmt 1 discriminator 1 view .LVU211
 991:lvgl/src/widgets/lv_btnmatrix.c ****                                                                                    BTN_EXTRA_CLICK_
 767              		.loc 1 991 67 is_stmt 0 discriminator 1 view .LVU212
 768 01a6 BDF81800 		ldrh	r0, [sp, #24]
 991:lvgl/src/widgets/lv_btnmatrix.c ****                                                                                    BTN_EXTRA_CLICK_
 769              		.loc 1 991 73 discriminator 1 view .LVU213
 770 01aa 4946     		mov	r1, r9
 771 01ac 0D29     		cmp	r1, #13
 772 01ae A8BF     		it	ge
 773 01b0 0D21     		movge	r1, #13
 991:lvgl/src/widgets/lv_btnmatrix.c ****                                                                                    BTN_EXTRA_CLICK_
 774              		.loc 1 991 71 discriminator 1 view .LVU214
 775 01b2 10FA81F1 		uxtah	r1, r0, r1
 776 01b6 89B2     		uxth	r1, r1
 991:lvgl/src/widgets/lv_btnmatrix.c ****                                                                                    BTN_EXTRA_CLICK_
 777              		.loc 1 991 55 discriminator 1 view .LVU215
 778 01b8 11FA82F2 		uxtah	r2, r1, r2
 779 01bc ADF81420 		strh	r2, [sp, #20]	@ movhi
 780              	.L33:
 995:lvgl/src/widgets/lv_btnmatrix.c ****                                                                                     BTN_EXTRA_CLICK
 781              		.loc 1 995 9 is_stmt 1 view .LVU216
 995:lvgl/src/widgets/lv_btnmatrix.c ****                                                                                     BTN_EXTRA_CLICK
 782              		.loc 1 995 29 is_stmt 0 view .LVU217
 783 01c0 029A     		ldr	r2, [sp, #8]
 784 01c2 D21B     		subs	r2, r2, r7
 995:lvgl/src/widgets/lv_btnmatrix.c ****                                                                                     BTN_EXTRA_CLICK
 785              		.loc 1 995 39 view .LVU218
 786 01c4 023A     		subs	r2, r2, #2
 995:lvgl/src/widgets/lv_btnmatrix.c ****                                                                                     BTN_EXTRA_CLICK
 787              		.loc 1 995 11 view .LVU219
 788 01c6 9342     		cmp	r3, r2
 789 01c8 99DB     		blt	.L34
 995:lvgl/src/widgets/lv_btnmatrix.c ****                                                                                     BTN_EXTRA_CLICK
 790              		.loc 1 995 44 is_stmt 1 discriminator 1 view .LVU220
 995:lvgl/src/widgets/lv_btnmatrix.c ****                                                                                     BTN_EXTRA_CLICK
 791              		.loc 1 995 68 is_stmt 0 discriminator 1 view .LVU221
 792 01ca BDF81A10 		ldrh	r1, [sp, #26]
 995:lvgl/src/widgets/lv_btnmatrix.c ****                                                                                     BTN_EXTRA_CLICK
 793              		.loc 1 995 74 discriminator 1 view .LVU222
ARM GAS  /var/folders/21/t9g5rlb91ys800n5npymflf80000gn/T//ccSbQiFP.s 			page 40


 794 01ce 3A46     		mov	r2, r7
 795 01d0 0D2F     		cmp	r7, #13
 796 01d2 A8BF     		it	ge
 797 01d4 0D22     		movge	r2, #13
 995:lvgl/src/widgets/lv_btnmatrix.c ****                                                                                     BTN_EXTRA_CLICK
 798              		.loc 1 995 72 discriminator 1 view .LVU223
 799 01d6 11FA82F2 		uxtah	r2, r1, r2
 800 01da 92B2     		uxth	r2, r2
 995:lvgl/src/widgets/lv_btnmatrix.c ****                                                                                     BTN_EXTRA_CLICK
 801              		.loc 1 995 56 discriminator 1 view .LVU224
 802 01dc 12FA83F3 		uxtah	r3, r2, r3
 803 01e0 ADF81630 		strh	r3, [sp, #22]	@ movhi
 804 01e4 93E7     		b	.L35
 805              	.L36:
1004:lvgl/src/widgets/lv_btnmatrix.c **** 
 806              		.loc 1 1004 5 is_stmt 1 view .LVU225
1004:lvgl/src/widgets/lv_btnmatrix.c **** 
 807              		.loc 1 1004 17 is_stmt 0 view .LVU226
 808 01e6 2B8E     		ldrh	r3, [r5, #48]
1004:lvgl/src/widgets/lv_btnmatrix.c **** 
 809              		.loc 1 1004 7 view .LVU227
 810 01e8 A342     		cmp	r3, r4
 811 01ea 03D0     		beq	.L41
 812              	.LVL68:
 813              	.L38:
1006:lvgl/src/widgets/lv_btnmatrix.c **** }
 814              		.loc 1 1006 5 is_stmt 1 view .LVU228
1007:lvgl/src/widgets/lv_btnmatrix.c **** 
 815              		.loc 1 1007 1 is_stmt 0 view .LVU229
 816 01ec 2046     		mov	r0, r4
 817 01ee 09B0     		add	sp, sp, #36
 818              	.LCFI5:
 819              		.cfi_remember_state
 820              		.cfi_def_cfa_offset 36
 821              		@ sp needed
 822 01f0 BDE8F08F 		pop	{r4, r5, r6, r7, r8, r9, r10, fp, pc}
 823              	.LVL69:
 824              	.L41:
 825              	.LCFI6:
 826              		.cfi_restore_state
1004:lvgl/src/widgets/lv_btnmatrix.c **** 
 827              		.loc 1 1004 30 view .LVU230
 828 01f4 4FF6FF74 		movw	r4, #65535
 829              	.LVL70:
1004:lvgl/src/widgets/lv_btnmatrix.c **** 
 830              		.loc 1 1004 30 view .LVU231
 831 01f8 F8E7     		b	.L38
 832              		.cfi_endproc
 833              	.LFE191:
 835              		.section	.text.invalidate_button_area,"ax",%progbits
 836              		.align	1
 837              		.syntax unified
 838              		.thumb
 839              		.thumb_func
 841              	invalidate_button_area:
 842              	.LVL71:
 843              	.LFB192:
ARM GAS  /var/folders/21/t9g5rlb91ys800n5npymflf80000gn/T//ccSbQiFP.s 			page 41


1010:lvgl/src/widgets/lv_btnmatrix.c ****     if(btn_idx == LV_BTNMATRIX_BTN_NONE) return;
 844              		.loc 1 1010 1 is_stmt 1 view -0
 845              		.cfi_startproc
 846              		@ args = 0, pretend = 0, frame = 16
 847              		@ frame_needed = 0, uses_anonymous_args = 0
1011:lvgl/src/widgets/lv_btnmatrix.c **** 
 848              		.loc 1 1011 5 view .LVU233
1011:lvgl/src/widgets/lv_btnmatrix.c **** 
 849              		.loc 1 1011 7 is_stmt 0 view .LVU234
 850 0000 4FF6FF73 		movw	r3, #65535
 851 0004 9942     		cmp	r1, r3
 852 0006 76D0     		beq	.L47
1010:lvgl/src/widgets/lv_btnmatrix.c ****     if(btn_idx == LV_BTNMATRIX_BTN_NONE) return;
 853              		.loc 1 1010 1 view .LVU235
 854 0008 F0B5     		push	{r4, r5, r6, r7, lr}
 855              	.LCFI7:
 856              		.cfi_def_cfa_offset 20
 857              		.cfi_offset 4, -20
 858              		.cfi_offset 5, -16
 859              		.cfi_offset 6, -12
 860              		.cfi_offset 7, -8
 861              		.cfi_offset 14, -4
 862 000a 85B0     		sub	sp, sp, #20
 863              	.LCFI8:
 864              		.cfi_def_cfa_offset 40
 865 000c 0446     		mov	r4, r0
 866 000e 0D46     		mov	r5, r1
1013:lvgl/src/widgets/lv_btnmatrix.c ****     lv_area_t obj_area;
 867              		.loc 1 1013 5 is_stmt 1 view .LVU236
1014:lvgl/src/widgets/lv_btnmatrix.c **** 
 868              		.loc 1 1014 5 view .LVU237
1016:lvgl/src/widgets/lv_btnmatrix.c ****     if(btn_idx >= btnm->btn_cnt) return;
 869              		.loc 1 1016 5 view .LVU238
 870              	.LVL72:
1016:lvgl/src/widgets/lv_btnmatrix.c ****     if(btn_idx >= btnm->btn_cnt) return;
 871              		.loc 1 1016 51 view .LVU239
1017:lvgl/src/widgets/lv_btnmatrix.c **** 
 872              		.loc 1 1017 5 view .LVU240
1017:lvgl/src/widgets/lv_btnmatrix.c **** 
 873              		.loc 1 1017 23 is_stmt 0 view .LVU241
 874 0010 038E     		ldrh	r3, [r0, #48]
1017:lvgl/src/widgets/lv_btnmatrix.c **** 
 875              		.loc 1 1017 7 view .LVU242
 876 0012 8B42     		cmp	r3, r1
 877 0014 01D8     		bhi	.L50
 878              	.LVL73:
 879              	.L42:
1044:lvgl/src/widgets/lv_btnmatrix.c **** 
 880              		.loc 1 1044 1 view .LVU243
 881 0016 05B0     		add	sp, sp, #20
 882              	.LCFI9:
 883              		.cfi_remember_state
 884              		.cfi_def_cfa_offset 20
 885              		@ sp needed
 886 0018 F0BD     		pop	{r4, r5, r6, r7, pc}
 887              	.LVL74:
 888              	.L50:
ARM GAS  /var/folders/21/t9g5rlb91ys800n5npymflf80000gn/T//ccSbQiFP.s 			page 42


 889              	.LCFI10:
 890              		.cfi_restore_state
1019:lvgl/src/widgets/lv_btnmatrix.c ****     lv_obj_get_coords(obj, &obj_area);
 891              		.loc 1 1019 5 is_stmt 1 view .LVU244
1019:lvgl/src/widgets/lv_btnmatrix.c ****     lv_obj_get_coords(obj, &obj_area);
 892              		.loc 1 1019 34 is_stmt 0 view .LVU245
 893 001a 826A     		ldr	r2, [r0, #40]
1019:lvgl/src/widgets/lv_btnmatrix.c ****     lv_obj_get_coords(obj, &obj_area);
 894              		.loc 1 1019 29 view .LVU246
 895 001c 02EBC103 		add	r3, r2, r1, lsl #3
 896              	.LVL75:
 897              	.LBB95:
 898              	.LBI95:
 110:lvgl/src/widgets/../core/../misc/../font/../misc/lv_area.h **** {
 899              		.loc 3 110 20 is_stmt 1 view .LVU247
 900              	.LBB96:
 112:lvgl/src/widgets/../core/../misc/../font/../misc/lv_area.h ****     dest->y1 = src->y1;
 901              		.loc 3 112 5 view .LVU248
 112:lvgl/src/widgets/../core/../misc/../font/../misc/lv_area.h ****     dest->y1 = src->y1;
 902              		.loc 3 112 19 is_stmt 0 view .LVU249
 903 0020 32F93120 		ldrsh	r2, [r2, r1, lsl #3]
 112:lvgl/src/widgets/../core/../misc/../font/../misc/lv_area.h ****     dest->y1 = src->y1;
 904              		.loc 3 112 14 view .LVU250
 905 0024 ADF80820 		strh	r2, [sp, #8]	@ movhi
 113:lvgl/src/widgets/../core/../misc/../font/../misc/lv_area.h ****     dest->x2 = src->x2;
 906              		.loc 3 113 5 is_stmt 1 view .LVU251
 113:lvgl/src/widgets/../core/../misc/../font/../misc/lv_area.h ****     dest->x2 = src->x2;
 907              		.loc 3 113 19 is_stmt 0 view .LVU252
 908 0028 B3F90220 		ldrsh	r2, [r3, #2]
 113:lvgl/src/widgets/../core/../misc/../font/../misc/lv_area.h ****     dest->x2 = src->x2;
 909              		.loc 3 113 14 view .LVU253
 910 002c ADF80A20 		strh	r2, [sp, #10]	@ movhi
 114:lvgl/src/widgets/../core/../misc/../font/../misc/lv_area.h ****     dest->y2 = src->y2;
 911              		.loc 3 114 5 is_stmt 1 view .LVU254
 114:lvgl/src/widgets/../core/../misc/../font/../misc/lv_area.h ****     dest->y2 = src->y2;
 912              		.loc 3 114 19 is_stmt 0 view .LVU255
 913 0030 B3F90420 		ldrsh	r2, [r3, #4]
 114:lvgl/src/widgets/../core/../misc/../font/../misc/lv_area.h ****     dest->y2 = src->y2;
 914              		.loc 3 114 14 view .LVU256
 915 0034 ADF80C20 		strh	r2, [sp, #12]	@ movhi
 916              		.loc 3 115 5 is_stmt 1 view .LVU257
 917              		.loc 3 115 19 is_stmt 0 view .LVU258
 918 0038 B3F90630 		ldrsh	r3, [r3, #6]
 919              	.LVL76:
 920              		.loc 3 115 14 view .LVU259
 921 003c ADF80E30 		strh	r3, [sp, #14]	@ movhi
 922              	.LVL77:
 923              		.loc 3 115 14 view .LVU260
 924              	.LBE96:
 925              	.LBE95:
1020:lvgl/src/widgets/lv_btnmatrix.c **** 
 926              		.loc 1 1020 5 is_stmt 1 view .LVU261
 927 0040 6946     		mov	r1, sp
 928              	.LVL78:
1020:lvgl/src/widgets/lv_btnmatrix.c **** 
 929              		.loc 1 1020 5 is_stmt 0 view .LVU262
 930 0042 FFF7FEFF 		bl	lv_obj_get_coords
ARM GAS  /var/folders/21/t9g5rlb91ys800n5npymflf80000gn/T//ccSbQiFP.s 			page 43


 931              	.LVL79:
1024:lvgl/src/widgets/lv_btnmatrix.c ****     lv_coord_t col_gap = lv_obj_get_style_pad_column(obj, LV_PART_MAIN);
 932              		.loc 1 1024 5 is_stmt 1 view .LVU263
 933              	.LBB97:
 934              	.LBI97:
 127:lvgl/src/widgets/../core/lv_obj_style_gen.h **** {
 935              		.loc 2 127 26 view .LVU264
 936              	.LBB98:
 129:lvgl/src/widgets/../core/lv_obj_style_gen.h ****     return (lv_coord_t)v.num;
 937              		.loc 2 129 5 view .LVU265
 129:lvgl/src/widgets/../core/lv_obj_style_gen.h ****     return (lv_coord_t)v.num;
 938              		.loc 2 129 26 is_stmt 0 view .LVU266
 939 0046 1422     		movs	r2, #20
 940 0048 0021     		movs	r1, #0
 941 004a 2046     		mov	r0, r4
 942 004c FFF7FEFF 		bl	lv_obj_get_style_prop
 943              	.LVL80:
 130:lvgl/src/widgets/../core/lv_obj_style_gen.h **** }
 944              		.loc 2 130 5 is_stmt 1 view .LVU267
 130:lvgl/src/widgets/../core/lv_obj_style_gen.h **** }
 945              		.loc 2 130 12 is_stmt 0 view .LVU268
 946 0050 06B2     		sxth	r6, r0
 947              	.LVL81:
 130:lvgl/src/widgets/../core/lv_obj_style_gen.h **** }
 948              		.loc 2 130 12 view .LVU269
 949              	.LBE98:
 950              	.LBE97:
1025:lvgl/src/widgets/lv_btnmatrix.c **** 
 951              		.loc 1 1025 5 is_stmt 1 view .LVU270
 952              	.LBB99:
 953              	.LBI99:
 133:lvgl/src/widgets/../core/lv_obj_style_gen.h **** {
 954              		.loc 2 133 26 view .LVU271
 955              	.LBB100:
 135:lvgl/src/widgets/../core/lv_obj_style_gen.h ****     return (lv_coord_t)v.num;
 956              		.loc 2 135 5 view .LVU272
 135:lvgl/src/widgets/../core/lv_obj_style_gen.h ****     return (lv_coord_t)v.num;
 957              		.loc 2 135 26 is_stmt 0 view .LVU273
 958 0052 1522     		movs	r2, #21
 959 0054 0021     		movs	r1, #0
 960 0056 2046     		mov	r0, r4
 961 0058 FFF7FEFF 		bl	lv_obj_get_style_prop
 962              	.LVL82:
 963              		.loc 2 136 5 is_stmt 1 view .LVU274
 964              		.loc 2 136 12 is_stmt 0 view .LVU275
 965 005c 07B2     		sxth	r7, r0
 966              	.LVL83:
 967              		.loc 2 136 12 view .LVU276
 968              	.LBE100:
 969              	.LBE99:
1028:lvgl/src/widgets/lv_btnmatrix.c ****     row_gap = LV_MAX(row_gap, dpi / 10);
 970              		.loc 1 1028 5 is_stmt 1 view .LVU277
1028:lvgl/src/widgets/lv_btnmatrix.c ****     row_gap = LV_MAX(row_gap, dpi / 10);
 971              		.loc 1 1028 38 is_stmt 0 view .LVU278
 972 005e 2046     		mov	r0, r4
 973 0060 FFF7FEFF 		bl	lv_obj_get_disp
 974              	.LVL84:
ARM GAS  /var/folders/21/t9g5rlb91ys800n5npymflf80000gn/T//ccSbQiFP.s 			page 44


1028:lvgl/src/widgets/lv_btnmatrix.c ****     row_gap = LV_MAX(row_gap, dpi / 10);
 975              		.loc 1 1028 22 view .LVU279
 976 0064 FFF7FEFF 		bl	lv_disp_get_dpi
 977              	.LVL85:
1029:lvgl/src/widgets/lv_btnmatrix.c ****     col_gap = LV_MAX(col_gap, dpi / 10);
 978              		.loc 1 1029 5 is_stmt 1 view .LVU280
1029:lvgl/src/widgets/lv_btnmatrix.c ****     col_gap = LV_MAX(col_gap, dpi / 10);
 979              		.loc 1 1029 15 is_stmt 0 view .LVU281
 980 0068 234A     		ldr	r2, .L52
 981 006a 82FB0032 		smull	r3, r2, r2, r0
 982 006e C317     		asrs	r3, r0, #31
 983 0070 C3EBA203 		rsb	r3, r3, r2, asr #2
 984 0074 1BB2     		sxth	r3, r3
1029:lvgl/src/widgets/lv_btnmatrix.c ****     col_gap = LV_MAX(col_gap, dpi / 10);
 985              		.loc 1 1029 13 view .LVU282
 986 0076 9E42     		cmp	r6, r3
 987 0078 B8BF     		it	lt
 988 007a 1E46     		movlt	r6, r3
 989              	.LVL86:
1030:lvgl/src/widgets/lv_btnmatrix.c **** 
 990              		.loc 1 1030 5 is_stmt 1 view .LVU283
1030:lvgl/src/widgets/lv_btnmatrix.c **** 
 991              		.loc 1 1030 13 is_stmt 0 view .LVU284
 992 007c BB42     		cmp	r3, r7
 993 007e B8BF     		it	lt
 994 0080 3B46     		movlt	r3, r7
 995              	.LVL87:
1033:lvgl/src/widgets/lv_btnmatrix.c ****     btn_area.y1 += obj_area.y1 - col_gap;
 996              		.loc 1 1033 5 is_stmt 1 view .LVU285
1033:lvgl/src/widgets/lv_btnmatrix.c ****     btn_area.y1 += obj_area.y1 - col_gap;
 997              		.loc 1 1033 13 is_stmt 0 view .LVU286
 998 0082 BDF80800 		ldrh	r0, [sp, #8]
 999              	.LVL88:
1033:lvgl/src/widgets/lv_btnmatrix.c ****     btn_area.y1 += obj_area.y1 - col_gap;
 1000              		.loc 1 1033 28 view .LVU287
 1001 0086 BDF80010 		ldrh	r1, [sp]
1033:lvgl/src/widgets/lv_btnmatrix.c ****     btn_area.y1 += obj_area.y1 - col_gap;
 1002              		.loc 1 1033 32 view .LVU288
 1003 008a B6B2     		uxth	r6, r6
1033:lvgl/src/widgets/lv_btnmatrix.c ****     btn_area.y1 += obj_area.y1 - col_gap;
 1004              		.loc 1 1033 32 view .LVU289
 1005 008c 8A1B     		subs	r2, r1, r6
1033:lvgl/src/widgets/lv_btnmatrix.c ****     btn_area.y1 += obj_area.y1 - col_gap;
 1006              		.loc 1 1033 17 view .LVU290
 1007 008e 10FA82F2 		uxtah	r2, r0, r2
 1008 0092 ADF80820 		strh	r2, [sp, #8]	@ movhi
1034:lvgl/src/widgets/lv_btnmatrix.c ****     btn_area.x2 += obj_area.x1 + row_gap;
 1009              		.loc 1 1034 5 is_stmt 1 view .LVU291
1034:lvgl/src/widgets/lv_btnmatrix.c ****     btn_area.x2 += obj_area.x1 + row_gap;
 1010              		.loc 1 1034 13 is_stmt 0 view .LVU292
 1011 0096 BDF80A70 		ldrh	r7, [sp, #10]
1034:lvgl/src/widgets/lv_btnmatrix.c ****     btn_area.x2 += obj_area.x1 + row_gap;
 1012              		.loc 1 1034 28 view .LVU293
 1013 009a BDF80220 		ldrh	r2, [sp, #2]
1034:lvgl/src/widgets/lv_btnmatrix.c ****     btn_area.x2 += obj_area.x1 + row_gap;
 1014              		.loc 1 1034 32 view .LVU294
 1015 009e 9BB2     		uxth	r3, r3
ARM GAS  /var/folders/21/t9g5rlb91ys800n5npymflf80000gn/T//ccSbQiFP.s 			page 45


1034:lvgl/src/widgets/lv_btnmatrix.c ****     btn_area.x2 += obj_area.x1 + row_gap;
 1016              		.loc 1 1034 32 view .LVU295
 1017 00a0 D01A     		subs	r0, r2, r3
1034:lvgl/src/widgets/lv_btnmatrix.c ****     btn_area.x2 += obj_area.x1 + row_gap;
 1018              		.loc 1 1034 17 view .LVU296
 1019 00a2 17FA80F0 		uxtah	r0, r7, r0
 1020 00a6 80B2     		uxth	r0, r0
 1021 00a8 ADF80A00 		strh	r0, [sp, #10]	@ movhi
1035:lvgl/src/widgets/lv_btnmatrix.c ****     btn_area.y2 += obj_area.y1 + col_gap;
 1022              		.loc 1 1035 5 is_stmt 1 view .LVU297
1035:lvgl/src/widgets/lv_btnmatrix.c ****     btn_area.y2 += obj_area.y1 + col_gap;
 1023              		.loc 1 1035 13 is_stmt 0 view .LVU298
 1024 00ac BDF80C70 		ldrh	r7, [sp, #12]
1035:lvgl/src/widgets/lv_btnmatrix.c ****     btn_area.y2 += obj_area.y1 + col_gap;
 1025              		.loc 1 1035 32 view .LVU299
 1026 00b0 3144     		add	r1, r1, r6
1035:lvgl/src/widgets/lv_btnmatrix.c ****     btn_area.y2 += obj_area.y1 + col_gap;
 1027              		.loc 1 1035 17 view .LVU300
 1028 00b2 17FA81F1 		uxtah	r1, r7, r1
 1029 00b6 ADF80C10 		strh	r1, [sp, #12]	@ movhi
1036:lvgl/src/widgets/lv_btnmatrix.c **** 
 1030              		.loc 1 1036 5 is_stmt 1 view .LVU301
1036:lvgl/src/widgets/lv_btnmatrix.c **** 
 1031              		.loc 1 1036 13 is_stmt 0 view .LVU302
 1032 00ba BDF80E10 		ldrh	r1, [sp, #14]
1036:lvgl/src/widgets/lv_btnmatrix.c **** 
 1033              		.loc 1 1036 32 view .LVU303
 1034 00be 1A44     		add	r2, r2, r3
1036:lvgl/src/widgets/lv_btnmatrix.c **** 
 1035              		.loc 1 1036 17 view .LVU304
 1036 00c0 11FA82F2 		uxtah	r2, r1, r2
 1037 00c4 92B2     		uxth	r2, r2
 1038 00c6 ADF80E20 		strh	r2, [sp, #14]	@ movhi
1038:lvgl/src/widgets/lv_btnmatrix.c ****         /*Push up the upper boundary of the btn area to also invalidate the popover*/
 1039              		.loc 1 1038 5 is_stmt 1 view .LVU305
1038:lvgl/src/widgets/lv_btnmatrix.c ****         /*Push up the upper boundary of the btn area to also invalidate the popover*/
 1040              		.loc 1 1038 24 is_stmt 0 view .LVU306
 1041 00ca A38E     		ldrh	r3, [r4, #52]
 1042              	.LVL89:
1038:lvgl/src/widgets/lv_btnmatrix.c ****         /*Push up the upper boundary of the btn area to also invalidate the popover*/
 1043              		.loc 1 1038 7 view .LVU307
 1044 00cc AB42     		cmp	r3, r5
1038:lvgl/src/widgets/lv_btnmatrix.c ****         /*Push up the upper boundary of the btn area to also invalidate the popover*/
 1045              		.loc 1 1038 7 view .LVU308
 1046 00ce 04D0     		beq	.L51
 1047              	.L44:
1043:lvgl/src/widgets/lv_btnmatrix.c **** }
 1048              		.loc 1 1043 5 is_stmt 1 view .LVU309
 1049 00d0 02A9     		add	r1, sp, #8
 1050 00d2 2046     		mov	r0, r4
 1051 00d4 FFF7FEFF 		bl	lv_obj_invalidate_area
 1052              	.LVL90:
 1053 00d8 9DE7     		b	.L42
 1054              	.L51:
1038:lvgl/src/widgets/lv_btnmatrix.c ****         /*Push up the upper boundary of the btn area to also invalidate the popover*/
 1055              		.loc 1 1038 46 is_stmt 0 discriminator 1 view .LVU310
 1056 00da E36A     		ldr	r3, [r4, #44]
ARM GAS  /var/folders/21/t9g5rlb91ys800n5npymflf80000gn/T//ccSbQiFP.s 			page 46


1038:lvgl/src/widgets/lv_btnmatrix.c ****         /*Push up the upper boundary of the btn area to also invalidate the popover*/
 1057              		.loc 1 1038 57 discriminator 1 view .LVU311
 1058 00dc 33F81530 		ldrh	r3, [r3, r5, lsl #1]
1038:lvgl/src/widgets/lv_btnmatrix.c ****         /*Push up the upper boundary of the btn area to also invalidate the popover*/
 1059              		.loc 1 1038 38 discriminator 1 view .LVU312
 1060 00e0 13F4806F 		tst	r3, #1024
 1061 00e4 F4D0     		beq	.L44
1040:lvgl/src/widgets/lv_btnmatrix.c ****     }
 1062              		.loc 1 1040 9 is_stmt 1 view .LVU313
 1063              	.LVL91:
 1064              	.LBB101:
 1065              	.LBI101:
 116:lvgl/src/widgets/../core/../misc/../font/../misc/lv_area.h **** }
 117:lvgl/src/widgets/../core/../misc/../font/../misc/lv_area.h **** 
 118:lvgl/src/widgets/../core/../misc/../font/../misc/lv_area.h **** /**
 119:lvgl/src/widgets/../core/../misc/../font/../misc/lv_area.h ****  * Get the width of an area
 120:lvgl/src/widgets/../core/../misc/../font/../misc/lv_area.h ****  * @param area_p pointer to an area
 121:lvgl/src/widgets/../core/../misc/../font/../misc/lv_area.h ****  * @return the width of the area (if x1 == x2 -> width = 1)
 122:lvgl/src/widgets/../core/../misc/../font/../misc/lv_area.h ****  */
 123:lvgl/src/widgets/../core/../misc/../font/../misc/lv_area.h **** static inline lv_coord_t lv_area_get_width(const lv_area_t * area_p)
 124:lvgl/src/widgets/../core/../misc/../font/../misc/lv_area.h **** {
 125:lvgl/src/widgets/../core/../misc/../font/../misc/lv_area.h ****     return (lv_coord_t)(area_p->x2 - area_p->x1 + 1);
 126:lvgl/src/widgets/../core/../misc/../font/../misc/lv_area.h **** }
 127:lvgl/src/widgets/../core/../misc/../font/../misc/lv_area.h **** 
 128:lvgl/src/widgets/../core/../misc/../font/../misc/lv_area.h **** /**
 129:lvgl/src/widgets/../core/../misc/../font/../misc/lv_area.h ****  * Get the height of an area
 130:lvgl/src/widgets/../core/../misc/../font/../misc/lv_area.h ****  * @param area_p pointer to an area
 131:lvgl/src/widgets/../core/../misc/../font/../misc/lv_area.h ****  * @return the height of the area (if y1 == y2 -> height = 1)
 132:lvgl/src/widgets/../core/../misc/../font/../misc/lv_area.h ****  */
 133:lvgl/src/widgets/../core/../misc/../font/../misc/lv_area.h **** static inline lv_coord_t lv_area_get_height(const lv_area_t * area_p)
 1066              		.loc 3 133 26 view .LVU314
 1067              	.LBB102:
 134:lvgl/src/widgets/../core/../misc/../font/../misc/lv_area.h **** {
 135:lvgl/src/widgets/../core/../misc/../font/../misc/lv_area.h ****     return (lv_coord_t)(area_p->y2 - area_p->y1 + 1);
 1068              		.loc 3 135 5 view .LVU315
 1069              		.loc 3 135 36 is_stmt 0 view .LVU316
 1070 00e6 131A     		subs	r3, r2, r0
 1071 00e8 9BB2     		uxth	r3, r3
 1072              		.loc 3 135 49 view .LVU317
 1073 00ea 0133     		adds	r3, r3, #1
 1074 00ec 9BB2     		uxth	r3, r3
 1075              	.LVL92:
 1076              		.loc 3 135 49 view .LVU318
 1077              	.LBE102:
 1078              	.LBE101:
1040:lvgl/src/widgets/lv_btnmatrix.c ****     }
 1079              		.loc 1 1040 21 view .LVU319
 1080 00ee C01A     		subs	r0, r0, r3
 1081 00f0 ADF80A00 		strh	r0, [sp, #10]	@ movhi
 1082 00f4 ECE7     		b	.L44
 1083              	.LVL93:
 1084              	.L47:
 1085              	.LCFI11:
 1086              		.cfi_def_cfa_offset 0
 1087              		.cfi_restore 4
 1088              		.cfi_restore 5
 1089              		.cfi_restore 6
ARM GAS  /var/folders/21/t9g5rlb91ys800n5npymflf80000gn/T//ccSbQiFP.s 			page 47


 1090              		.cfi_restore 7
 1091              		.cfi_restore 14
1040:lvgl/src/widgets/lv_btnmatrix.c ****     }
 1092              		.loc 1 1040 21 view .LVU320
 1093 00f6 7047     		bx	lr
 1094              	.L53:
 1095              		.align	2
 1096              	.L52:
 1097 00f8 67666666 		.word	1717986919
 1098              		.cfi_endproc
 1099              	.LFE192:
 1101              		.section	.text.draw_main,"ax",%progbits
 1102              		.align	1
 1103              		.syntax unified
 1104              		.thumb
 1105              		.thumb_func
 1107              	draw_main:
 1108              	.LVL94:
 1109              	.LFB179:
 688:lvgl/src/widgets/lv_btnmatrix.c ****     lv_obj_t * obj = lv_event_get_target(e);
 1110              		.loc 1 688 1 is_stmt 1 view -0
 1111              		.cfi_startproc
 1112              		@ args = 0, pretend = 0, frame = 296
 1113              		@ frame_needed = 0, uses_anonymous_args = 0
 688:lvgl/src/widgets/lv_btnmatrix.c ****     lv_obj_t * obj = lv_event_get_target(e);
 1114              		.loc 1 688 1 is_stmt 0 view .LVU322
 1115 0000 2DE9F04F 		push	{r4, r5, r6, r7, r8, r9, r10, fp, lr}
 1116              	.LCFI12:
 1117              		.cfi_def_cfa_offset 36
 1118              		.cfi_offset 4, -36
 1119              		.cfi_offset 5, -32
 1120              		.cfi_offset 6, -28
 1121              		.cfi_offset 7, -24
 1122              		.cfi_offset 8, -20
 1123              		.cfi_offset 9, -16
 1124              		.cfi_offset 10, -12
 1125              		.cfi_offset 11, -8
 1126              		.cfi_offset 14, -4
 1127 0004 CFB0     		sub	sp, sp, #316
 1128              	.LCFI13:
 1129              		.cfi_def_cfa_offset 352
 1130 0006 0446     		mov	r4, r0
 689:lvgl/src/widgets/lv_btnmatrix.c ****     lv_btnmatrix_t * btnm = (lv_btnmatrix_t *)obj;
 1131              		.loc 1 689 5 is_stmt 1 view .LVU323
 689:lvgl/src/widgets/lv_btnmatrix.c ****     lv_btnmatrix_t * btnm = (lv_btnmatrix_t *)obj;
 1132              		.loc 1 689 22 is_stmt 0 view .LVU324
 1133 0008 FFF7FEFF 		bl	lv_event_get_target
 1134              	.LVL95:
 690:lvgl/src/widgets/lv_btnmatrix.c ****     if(btnm->btn_cnt == 0) return;
 1135              		.loc 1 690 5 is_stmt 1 view .LVU325
 691:lvgl/src/widgets/lv_btnmatrix.c **** 
 1136              		.loc 1 691 5 view .LVU326
 691:lvgl/src/widgets/lv_btnmatrix.c **** 
 1137              		.loc 1 691 12 is_stmt 0 view .LVU327
 1138 000c 038E     		ldrh	r3, [r0, #48]
 691:lvgl/src/widgets/lv_btnmatrix.c **** 
 1139              		.loc 1 691 7 view .LVU328
ARM GAS  /var/folders/21/t9g5rlb91ys800n5npymflf80000gn/T//ccSbQiFP.s 			page 48


 1140 000e 13B9     		cbnz	r3, .L81
 1141              	.LVL96:
 1142              	.L54:
 849:lvgl/src/widgets/lv_btnmatrix.c **** /**
 1143              		.loc 1 849 1 view .LVU329
 1144 0010 4FB0     		add	sp, sp, #316
 1145              	.LCFI14:
 1146              		.cfi_remember_state
 1147              		.cfi_def_cfa_offset 36
 1148              		@ sp needed
 1149 0012 BDE8F08F 		pop	{r4, r5, r6, r7, r8, r9, r10, fp, pc}
 1150              	.LVL97:
 1151              	.L81:
 1152              	.LCFI15:
 1153              		.cfi_restore_state
 849:lvgl/src/widgets/lv_btnmatrix.c **** /**
 1154              		.loc 1 849 1 view .LVU330
 1155 0016 0546     		mov	r5, r0
 693:lvgl/src/widgets/lv_btnmatrix.c ****     obj->skip_trans = 1;
 1156              		.loc 1 693 5 is_stmt 1 view .LVU331
 693:lvgl/src/widgets/lv_btnmatrix.c ****     obj->skip_trans = 1;
 1157              		.loc 1 693 32 is_stmt 0 view .LVU332
 1158 0018 2046     		mov	r0, r4
 1159              	.LVL98:
 693:lvgl/src/widgets/lv_btnmatrix.c ****     obj->skip_trans = 1;
 1160              		.loc 1 693 32 view .LVU333
 1161 001a FFF7FEFF 		bl	lv_event_get_draw_ctx
 1162              	.LVL99:
 1163 001e 0646     		mov	r6, r0
 1164 0020 0490     		str	r0, [sp, #16]
 1165              	.LVL100:
 694:lvgl/src/widgets/lv_btnmatrix.c **** 
 1166              		.loc 1 694 5 is_stmt 1 view .LVU334
 694:lvgl/src/widgets/lv_btnmatrix.c **** 
 1167              		.loc 1 694 21 is_stmt 0 view .LVU335
 1168 0022 95F82230 		ldrb	r3, [r5, #34]	@ zero_extendqisi2
 1169 0026 43F00803 		orr	r3, r3, #8
 1170 002a 85F82230 		strb	r3, [r5, #34]
 696:lvgl/src/widgets/lv_btnmatrix.c ****     lv_obj_get_coords(obj, &area_obj);
 1171              		.loc 1 696 5 is_stmt 1 view .LVU336
 697:lvgl/src/widgets/lv_btnmatrix.c **** 
 1172              		.loc 1 697 5 view .LVU337
 1173 002e 4CA9     		add	r1, sp, #304
 1174 0030 2846     		mov	r0, r5
 1175              	.LVL101:
 697:lvgl/src/widgets/lv_btnmatrix.c **** 
 1176              		.loc 1 697 5 is_stmt 0 view .LVU338
 1177 0032 FFF7FEFF 		bl	lv_obj_get_coords
 1178              	.LVL102:
 699:lvgl/src/widgets/lv_btnmatrix.c **** 
 1179              		.loc 1 699 5 is_stmt 1 view .LVU339
 701:lvgl/src/widgets/lv_btnmatrix.c ****     uint16_t txt_i = 0;
 1180              		.loc 1 701 5 view .LVU340
 702:lvgl/src/widgets/lv_btnmatrix.c **** 
 1181              		.loc 1 702 5 view .LVU341
 704:lvgl/src/widgets/lv_btnmatrix.c ****     lv_draw_label_dsc_t draw_label_dsc_act;
 1182              		.loc 1 704 5 view .LVU342
ARM GAS  /var/folders/21/t9g5rlb91ys800n5npymflf80000gn/T//ccSbQiFP.s 			page 49


 705:lvgl/src/widgets/lv_btnmatrix.c **** 
 1183              		.loc 1 705 5 view .LVU343
 707:lvgl/src/widgets/lv_btnmatrix.c ****     lv_draw_label_dsc_t draw_label_dsc_def;
 1184              		.loc 1 707 5 view .LVU344
 708:lvgl/src/widgets/lv_btnmatrix.c **** 
 1185              		.loc 1 708 5 view .LVU345
 710:lvgl/src/widgets/lv_btnmatrix.c ****     obj->state = LV_STATE_DEFAULT;
 1186              		.loc 1 710 5 view .LVU346
 710:lvgl/src/widgets/lv_btnmatrix.c ****     obj->state = LV_STATE_DEFAULT;
 1187              		.loc 1 710 16 is_stmt 0 view .LVU347
 1188 0036 2C8C     		ldrh	r4, [r5, #32]
 1189              	.LVL103:
 710:lvgl/src/widgets/lv_btnmatrix.c ****     obj->state = LV_STATE_DEFAULT;
 1190              		.loc 1 710 16 view .LVU348
 1191 0038 0594     		str	r4, [sp, #20]
 1192              	.LVL104:
 711:lvgl/src/widgets/lv_btnmatrix.c ****     obj->skip_trans = 1;
 1193              		.loc 1 711 5 is_stmt 1 view .LVU349
 711:lvgl/src/widgets/lv_btnmatrix.c ****     obj->skip_trans = 1;
 1194              		.loc 1 711 16 is_stmt 0 view .LVU350
 1195 003a 0027     		movs	r7, #0
 1196 003c 2F84     		strh	r7, [r5, #32]	@ movhi
 712:lvgl/src/widgets/lv_btnmatrix.c ****     lv_draw_rect_dsc_init(&draw_rect_dsc_def);
 1197              		.loc 1 712 5 is_stmt 1 view .LVU351
 712:lvgl/src/widgets/lv_btnmatrix.c ****     lv_draw_rect_dsc_init(&draw_rect_dsc_def);
 1198              		.loc 1 712 21 is_stmt 0 view .LVU352
 1199 003e 95F82230 		ldrb	r3, [r5, #34]	@ zero_extendqisi2
 1200 0042 43F00803 		orr	r3, r3, #8
 1201 0046 85F82230 		strb	r3, [r5, #34]
 713:lvgl/src/widgets/lv_btnmatrix.c ****     lv_draw_label_dsc_init(&draw_label_dsc_def);
 1202              		.loc 1 713 5 is_stmt 1 view .LVU353
 1203 004a 26A8     		add	r0, sp, #152
 1204 004c FFF7FEFF 		bl	lv_draw_rect_dsc_init
 1205              	.LVL105:
 714:lvgl/src/widgets/lv_btnmatrix.c ****     lv_obj_init_draw_rect_dsc(obj, LV_PART_ITEMS, &draw_rect_dsc_def);
 1206              		.loc 1 714 5 view .LVU354
 1207 0050 1EA8     		add	r0, sp, #120
 1208 0052 FFF7FEFF 		bl	lv_draw_label_dsc_init
 1209              	.LVL106:
 715:lvgl/src/widgets/lv_btnmatrix.c ****     lv_obj_init_draw_label_dsc(obj, LV_PART_ITEMS, &draw_label_dsc_def);
 1210              		.loc 1 715 5 view .LVU355
 1211 0056 26AA     		add	r2, sp, #152
 1212 0058 4FF4A021 		mov	r1, #327680
 1213 005c 2846     		mov	r0, r5
 1214 005e FFF7FEFF 		bl	lv_obj_init_draw_rect_dsc
 1215              	.LVL107:
 716:lvgl/src/widgets/lv_btnmatrix.c ****     obj->skip_trans = 0;
 1216              		.loc 1 716 5 view .LVU356
 1217 0062 1EAA     		add	r2, sp, #120
 1218 0064 4FF4A021 		mov	r1, #327680
 1219 0068 2846     		mov	r0, r5
 1220 006a FFF7FEFF 		bl	lv_obj_init_draw_label_dsc
 1221              	.LVL108:
 717:lvgl/src/widgets/lv_btnmatrix.c ****     obj->state = state_ori;
 1222              		.loc 1 717 5 view .LVU357
 717:lvgl/src/widgets/lv_btnmatrix.c ****     obj->state = state_ori;
 1223              		.loc 1 717 21 is_stmt 0 view .LVU358
ARM GAS  /var/folders/21/t9g5rlb91ys800n5npymflf80000gn/T//ccSbQiFP.s 			page 50


 1224 006e 95F82230 		ldrb	r3, [r5, #34]	@ zero_extendqisi2
 1225 0072 67F3C303 		bfi	r3, r7, #3, #1
 1226 0076 85F82230 		strb	r3, [r5, #34]
 718:lvgl/src/widgets/lv_btnmatrix.c **** 
 1227              		.loc 1 718 5 is_stmt 1 view .LVU359
 718:lvgl/src/widgets/lv_btnmatrix.c **** 
 1228              		.loc 1 718 16 is_stmt 0 view .LVU360
 1229 007a 2C84     		strh	r4, [r5, #32]	@ movhi
 720:lvgl/src/widgets/lv_btnmatrix.c ****     lv_coord_t pbottom = lv_obj_get_style_pad_bottom(obj, LV_PART_MAIN);
 1230              		.loc 1 720 5 is_stmt 1 view .LVU361
 1231              	.LVL109:
 1232              	.LBB103:
 1233              	.LBI103:
 103:lvgl/src/widgets/../core/lv_obj_style_gen.h **** {
 1234              		.loc 2 103 26 view .LVU362
 1235              	.LBB104:
 105:lvgl/src/widgets/../core/lv_obj_style_gen.h ****     return (lv_coord_t)v.num;
 1236              		.loc 2 105 5 view .LVU363
 105:lvgl/src/widgets/../core/lv_obj_style_gen.h ****     return (lv_coord_t)v.num;
 1237              		.loc 2 105 26 is_stmt 0 view .LVU364
 1238 007c 1022     		movs	r2, #16
 1239 007e 3946     		mov	r1, r7
 1240 0080 2846     		mov	r0, r5
 1241 0082 FFF7FEFF 		bl	lv_obj_get_style_prop
 1242              	.LVL110:
 106:lvgl/src/widgets/../core/lv_obj_style_gen.h **** }
 1243              		.loc 2 106 5 is_stmt 1 view .LVU365
 106:lvgl/src/widgets/../core/lv_obj_style_gen.h **** }
 1244              		.loc 2 106 12 is_stmt 0 view .LVU366
 1245 0086 03B2     		sxth	r3, r0
 1246 0088 0693     		str	r3, [sp, #24]
 1247              	.LVL111:
 106:lvgl/src/widgets/../core/lv_obj_style_gen.h **** }
 1248              		.loc 2 106 12 view .LVU367
 1249              	.LBE104:
 1250              	.LBE103:
 721:lvgl/src/widgets/lv_btnmatrix.c ****     lv_coord_t pleft = lv_obj_get_style_pad_left(obj, LV_PART_MAIN);
 1251              		.loc 1 721 5 is_stmt 1 view .LVU368
 1252              	.LBB105:
 1253              	.LBI105:
 109:lvgl/src/widgets/../core/lv_obj_style_gen.h **** {
 1254              		.loc 2 109 26 view .LVU369
 1255              	.LBB106:
 111:lvgl/src/widgets/../core/lv_obj_style_gen.h ****     return (lv_coord_t)v.num;
 1256              		.loc 2 111 5 view .LVU370
 111:lvgl/src/widgets/../core/lv_obj_style_gen.h ****     return (lv_coord_t)v.num;
 1257              		.loc 2 111 26 is_stmt 0 view .LVU371
 1258 008a 1122     		movs	r2, #17
 1259 008c 3946     		mov	r1, r7
 1260 008e 2846     		mov	r0, r5
 1261 0090 FFF7FEFF 		bl	lv_obj_get_style_prop
 1262              	.LVL112:
 112:lvgl/src/widgets/../core/lv_obj_style_gen.h **** }
 1263              		.loc 2 112 5 is_stmt 1 view .LVU372
 112:lvgl/src/widgets/../core/lv_obj_style_gen.h **** }
 1264              		.loc 2 112 12 is_stmt 0 view .LVU373
 1265 0094 03B2     		sxth	r3, r0
ARM GAS  /var/folders/21/t9g5rlb91ys800n5npymflf80000gn/T//ccSbQiFP.s 			page 51


 1266 0096 0793     		str	r3, [sp, #28]
 1267              	.LVL113:
 112:lvgl/src/widgets/../core/lv_obj_style_gen.h **** }
 1268              		.loc 2 112 12 view .LVU374
 1269              	.LBE106:
 1270              	.LBE105:
 722:lvgl/src/widgets/lv_btnmatrix.c ****     lv_coord_t pright = lv_obj_get_style_pad_right(obj, LV_PART_MAIN);
 1271              		.loc 1 722 5 is_stmt 1 view .LVU375
 1272              	.LBB107:
 1273              	.LBI107:
 115:lvgl/src/widgets/../core/lv_obj_style_gen.h **** {
 1274              		.loc 2 115 26 view .LVU376
 1275              	.LBB108:
 117:lvgl/src/widgets/../core/lv_obj_style_gen.h ****     return (lv_coord_t)v.num;
 1276              		.loc 2 117 5 view .LVU377
 117:lvgl/src/widgets/../core/lv_obj_style_gen.h ****     return (lv_coord_t)v.num;
 1277              		.loc 2 117 26 is_stmt 0 view .LVU378
 1278 0098 1222     		movs	r2, #18
 1279 009a 3946     		mov	r1, r7
 1280 009c 2846     		mov	r0, r5
 1281 009e FFF7FEFF 		bl	lv_obj_get_style_prop
 1282              	.LVL114:
 118:lvgl/src/widgets/../core/lv_obj_style_gen.h **** }
 1283              		.loc 2 118 5 is_stmt 1 view .LVU379
 118:lvgl/src/widgets/../core/lv_obj_style_gen.h **** }
 1284              		.loc 2 118 12 is_stmt 0 view .LVU380
 1285 00a2 03B2     		sxth	r3, r0
 1286 00a4 0893     		str	r3, [sp, #32]
 1287              	.LVL115:
 118:lvgl/src/widgets/../core/lv_obj_style_gen.h **** }
 1288              		.loc 2 118 12 view .LVU381
 1289              	.LBE108:
 1290              	.LBE107:
 723:lvgl/src/widgets/lv_btnmatrix.c **** 
 1291              		.loc 1 723 5 is_stmt 1 view .LVU382
 1292              	.LBB109:
 1293              	.LBI109:
 121:lvgl/src/widgets/../core/lv_obj_style_gen.h **** {
 1294              		.loc 2 121 26 view .LVU383
 1295              	.LBB110:
 123:lvgl/src/widgets/../core/lv_obj_style_gen.h ****     return (lv_coord_t)v.num;
 1296              		.loc 2 123 5 view .LVU384
 123:lvgl/src/widgets/../core/lv_obj_style_gen.h ****     return (lv_coord_t)v.num;
 1297              		.loc 2 123 26 is_stmt 0 view .LVU385
 1298 00a6 1322     		movs	r2, #19
 1299 00a8 3946     		mov	r1, r7
 1300 00aa 2846     		mov	r0, r5
 1301 00ac FFF7FEFF 		bl	lv_obj_get_style_prop
 1302              	.LVL116:
 124:lvgl/src/widgets/../core/lv_obj_style_gen.h **** }
 1303              		.loc 2 124 5 is_stmt 1 view .LVU386
 124:lvgl/src/widgets/../core/lv_obj_style_gen.h **** }
 1304              		.loc 2 124 12 is_stmt 0 view .LVU387
 1305 00b0 03B2     		sxth	r3, r0
 1306 00b2 0993     		str	r3, [sp, #36]
 1307              	.LVL117:
 124:lvgl/src/widgets/../core/lv_obj_style_gen.h **** }
ARM GAS  /var/folders/21/t9g5rlb91ys800n5npymflf80000gn/T//ccSbQiFP.s 			page 52


 1308              		.loc 2 124 12 view .LVU388
 1309              	.LBE110:
 1310              	.LBE109:
 730:lvgl/src/widgets/lv_btnmatrix.c ****     lv_obj_draw_dsc_init(&part_draw_dsc, draw_ctx);
 1311              		.loc 1 730 5 is_stmt 1 view .LVU389
 731:lvgl/src/widgets/lv_btnmatrix.c ****     part_draw_dsc.part = LV_PART_ITEMS;
 1312              		.loc 1 731 5 view .LVU390
 1313 00b4 3146     		mov	r1, r6
 1314 00b6 0CA8     		add	r0, sp, #48
 1315 00b8 FFF7FEFF 		bl	lv_obj_draw_dsc_init
 1316              	.LVL118:
 732:lvgl/src/widgets/lv_btnmatrix.c ****     part_draw_dsc.class_p = MY_CLASS;
 1317              		.loc 1 732 5 view .LVU391
 732:lvgl/src/widgets/lv_btnmatrix.c ****     part_draw_dsc.class_p = MY_CLASS;
 1318              		.loc 1 732 24 is_stmt 0 view .LVU392
 1319 00bc 4FF4A023 		mov	r3, #327680
 1320 00c0 1993     		str	r3, [sp, #100]
 733:lvgl/src/widgets/lv_btnmatrix.c ****     part_draw_dsc.type = LV_BTNMATRIX_DRAW_PART_BTN;
 1321              		.loc 1 733 5 is_stmt 1 view .LVU393
 733:lvgl/src/widgets/lv_btnmatrix.c ****     part_draw_dsc.type = LV_BTNMATRIX_DRAW_PART_BTN;
 1322              		.loc 1 733 27 is_stmt 0 view .LVU394
 1323 00c2 CB4B     		ldr	r3, .L86
 1324 00c4 0D93     		str	r3, [sp, #52]
 734:lvgl/src/widgets/lv_btnmatrix.c ****     part_draw_dsc.rect_dsc = &draw_rect_dsc_act;
 1325              		.loc 1 734 5 is_stmt 1 view .LVU395
 734:lvgl/src/widgets/lv_btnmatrix.c ****     part_draw_dsc.rect_dsc = &draw_rect_dsc_act;
 1326              		.loc 1 734 24 is_stmt 0 view .LVU396
 1327 00c6 0E97     		str	r7, [sp, #56]
 735:lvgl/src/widgets/lv_btnmatrix.c ****     part_draw_dsc.label_dsc = &draw_label_dsc_act;
 1328              		.loc 1 735 5 is_stmt 1 view .LVU397
 735:lvgl/src/widgets/lv_btnmatrix.c ****     part_draw_dsc.label_dsc = &draw_label_dsc_act;
 1329              		.loc 1 735 28 is_stmt 0 view .LVU398
 1330 00c8 3CAB     		add	r3, sp, #240
 1331 00ca 1093     		str	r3, [sp, #64]
 736:lvgl/src/widgets/lv_btnmatrix.c **** 
 1332              		.loc 1 736 5 is_stmt 1 view .LVU399
 736:lvgl/src/widgets/lv_btnmatrix.c **** 
 1333              		.loc 1 736 29 is_stmt 0 view .LVU400
 1334 00cc 34AB     		add	r3, sp, #208
 1335 00ce 1193     		str	r3, [sp, #68]
 738:lvgl/src/widgets/lv_btnmatrix.c ****         /*Search the next valid text in the map*/
 1336              		.loc 1 738 5 is_stmt 1 view .LVU401
 702:lvgl/src/widgets/lv_btnmatrix.c **** 
 1337              		.loc 1 702 14 is_stmt 0 view .LVU402
 1338 00d0 3C46     		mov	r4, r7
 1339              	.LVL119:
 738:lvgl/src/widgets/lv_btnmatrix.c ****         /*Search the next valid text in the map*/
 1340              		.loc 1 738 5 view .LVU403
 1341 00d2 2EE1     		b	.L57
 1342              	.LVL120:
 1343              	.L58:
 1344              	.LBB111:
 741:lvgl/src/widgets/lv_btnmatrix.c ****         }
 1345              		.loc 1 741 13 is_stmt 1 view .LVU404
 741:lvgl/src/widgets/lv_btnmatrix.c ****         }
 1346              		.loc 1 741 18 is_stmt 0 view .LVU405
 1347 00d4 0134     		adds	r4, r4, #1
ARM GAS  /var/folders/21/t9g5rlb91ys800n5npymflf80000gn/T//ccSbQiFP.s 			page 53


 1348              	.LVL121:
 741:lvgl/src/widgets/lv_btnmatrix.c ****         }
 1349              		.loc 1 741 18 view .LVU406
 1350 00d6 A4B2     		uxth	r4, r4
 1351              	.LVL122:
 1352              	.L77:
 740:lvgl/src/widgets/lv_btnmatrix.c ****             txt_i++;
 1353              		.loc 1 740 48 is_stmt 1 view .LVU407
 740:lvgl/src/widgets/lv_btnmatrix.c ****             txt_i++;
 1354              		.loc 1 740 26 is_stmt 0 view .LVU408
 1355 00d8 6B6A     		ldr	r3, [r5, #36]
 740:lvgl/src/widgets/lv_btnmatrix.c ****             txt_i++;
 1356              		.loc 1 740 33 view .LVU409
 1357 00da A600     		lsls	r6, r4, #2
 740:lvgl/src/widgets/lv_btnmatrix.c ****             txt_i++;
 1358              		.loc 1 740 15 view .LVU410
 1359 00dc C549     		ldr	r1, .L86+4
 1360 00de 53F82400 		ldr	r0, [r3, r4, lsl #2]
 1361 00e2 FFF7FEFF 		bl	strcmp
 1362              	.LVL123:
 740:lvgl/src/widgets/lv_btnmatrix.c ****             txt_i++;
 1363              		.loc 1 740 48 view .LVU411
 1364 00e6 0028     		cmp	r0, #0
 1365 00e8 F4D0     		beq	.L58
 745:lvgl/src/widgets/lv_btnmatrix.c **** 
 1366              		.loc 1 745 9 is_stmt 1 view .LVU412
 745:lvgl/src/widgets/lv_btnmatrix.c **** 
 1367              		.loc 1 745 33 is_stmt 0 view .LVU413
 1368 00ea EB6A     		ldr	r3, [r5, #44]
 745:lvgl/src/widgets/lv_btnmatrix.c **** 
 1369              		.loc 1 745 44 view .LVU414
 1370 00ec BA46     		mov	r10, r7
 1371 00ee 4FEA470B 		lsl	fp, r7, #1
 745:lvgl/src/widgets/lv_btnmatrix.c **** 
 1372              		.loc 1 745 12 view .LVU415
 1373 00f2 33F81790 		ldrh	r9, [r3, r7, lsl #1]
 1374 00f6 4846     		mov	r0, r9
 1375 00f8 FFF7FEFF 		bl	button_is_hidden
 1376              	.LVL124:
 745:lvgl/src/widgets/lv_btnmatrix.c **** 
 1377              		.loc 1 745 11 view .LVU416
 1378 00fc 0028     		cmp	r0, #0
 1379 00fe 40F01481 		bne	.L60
 748:lvgl/src/widgets/lv_btnmatrix.c ****         if(button_get_checked(btnm->ctrl_bits[btn_i])) btn_state |= LV_STATE_CHECKED;
 1380              		.loc 1 748 9 is_stmt 1 view .LVU417
 1381              	.LVL125:
 749:lvgl/src/widgets/lv_btnmatrix.c **** 
 1382              		.loc 1 749 9 view .LVU418
 749:lvgl/src/widgets/lv_btnmatrix.c **** 
 1383              		.loc 1 749 12 is_stmt 0 view .LVU419
 1384 0102 4846     		mov	r0, r9
 1385 0104 FFF7FEFF 		bl	button_get_checked
 1386              	.LVL126:
 749:lvgl/src/widgets/lv_btnmatrix.c **** 
 1387              		.loc 1 749 11 view .LVU420
 1388 0108 0028     		cmp	r0, #0
 1389 010a 40F01D81 		bne	.L78
ARM GAS  /var/folders/21/t9g5rlb91ys800n5npymflf80000gn/T//ccSbQiFP.s 			page 54


 748:lvgl/src/widgets/lv_btnmatrix.c ****         if(button_get_checked(btnm->ctrl_bits[btn_i])) btn_state |= LV_STATE_CHECKED;
 1390              		.loc 1 748 20 view .LVU421
 1391 010e 4FF00008 		mov	r8, #0
 1392              	.L61:
 1393              	.LVL127:
 751:lvgl/src/widgets/lv_btnmatrix.c ****         else if(btn_i == btnm->btn_id_sel) {
 1394              		.loc 1 751 9 is_stmt 1 view .LVU422
 751:lvgl/src/widgets/lv_btnmatrix.c ****         else if(btn_i == btnm->btn_id_sel) {
 1395              		.loc 1 751 12 is_stmt 0 view .LVU423
 1396 0112 4846     		mov	r0, r9
 1397 0114 FFF7FEFF 		bl	button_is_inactive
 1398              	.LVL128:
 751:lvgl/src/widgets/lv_btnmatrix.c ****         else if(btn_i == btnm->btn_id_sel) {
 1399              		.loc 1 751 11 view .LVU424
 1400 0118 0028     		cmp	r0, #0
 1401 011a 00F01881 		beq	.L62
 751:lvgl/src/widgets/lv_btnmatrix.c ****         else if(btn_i == btnm->btn_id_sel) {
 1402              		.loc 1 751 56 is_stmt 1 discriminator 1 view .LVU425
 751:lvgl/src/widgets/lv_btnmatrix.c ****         else if(btn_i == btnm->btn_id_sel) {
 1403              		.loc 1 751 66 is_stmt 0 discriminator 1 view .LVU426
 1404 011e 48F08008 		orr	r8, r8, #128
 1405              	.LVL129:
 1406              	.L63:
 760:lvgl/src/widgets/lv_btnmatrix.c ****         btn_area.x1 += area_obj.x1;
 1407              		.loc 1 760 9 is_stmt 1 view .LVU427
 760:lvgl/src/widgets/lv_btnmatrix.c ****         btn_area.x1 += area_obj.x1;
 1408              		.loc 1 760 38 is_stmt 0 view .LVU428
 1409 0122 AA6A     		ldr	r2, [r5, #40]
 760:lvgl/src/widgets/lv_btnmatrix.c ****         btn_area.x1 += area_obj.x1;
 1410              		.loc 1 760 33 view .LVU429
 1411 0124 02EBCA03 		add	r3, r2, r10, lsl #3
 1412              	.LVL130:
 1413              	.LBB112:
 1414              	.LBI112:
 110:lvgl/src/widgets/../core/../misc/../font/../misc/lv_area.h **** {
 1415              		.loc 3 110 20 is_stmt 1 view .LVU430
 1416              	.LBB113:
 112:lvgl/src/widgets/../core/../misc/../font/../misc/lv_area.h ****     dest->y1 = src->y1;
 1417              		.loc 3 112 5 view .LVU431
 112:lvgl/src/widgets/../core/../misc/../font/../misc/lv_area.h ****     dest->y1 = src->y1;
 1418              		.loc 3 112 19 is_stmt 0 view .LVU432
 1419 0128 32F93A00 		ldrsh	r0, [r2, r10, lsl #3]
 112:lvgl/src/widgets/../core/../misc/../font/../misc/lv_area.h ****     dest->y1 = src->y1;
 1420              		.loc 3 112 14 view .LVU433
 1421 012c ADF82801 		strh	r0, [sp, #296]	@ movhi
 113:lvgl/src/widgets/../core/../misc/../font/../misc/lv_area.h ****     dest->x2 = src->x2;
 1422              		.loc 3 113 5 is_stmt 1 view .LVU434
 113:lvgl/src/widgets/../core/../misc/../font/../misc/lv_area.h ****     dest->x2 = src->x2;
 1423              		.loc 3 113 19 is_stmt 0 view .LVU435
 1424 0130 B3F90210 		ldrsh	r1, [r3, #2]
 113:lvgl/src/widgets/../core/../misc/../font/../misc/lv_area.h ****     dest->x2 = src->x2;
 1425              		.loc 3 113 14 view .LVU436
 1426 0134 ADF82A11 		strh	r1, [sp, #298]	@ movhi
 114:lvgl/src/widgets/../core/../misc/../font/../misc/lv_area.h ****     dest->y2 = src->y2;
 1427              		.loc 3 114 5 is_stmt 1 view .LVU437
 114:lvgl/src/widgets/../core/../misc/../font/../misc/lv_area.h ****     dest->y2 = src->y2;
 1428              		.loc 3 114 19 is_stmt 0 view .LVU438
ARM GAS  /var/folders/21/t9g5rlb91ys800n5npymflf80000gn/T//ccSbQiFP.s 			page 55


 1429 0138 B3F90420 		ldrsh	r2, [r3, #4]
 114:lvgl/src/widgets/../core/../misc/../font/../misc/lv_area.h ****     dest->y2 = src->y2;
 1430              		.loc 3 114 14 view .LVU439
 1431 013c ADF82C21 		strh	r2, [sp, #300]	@ movhi
 115:lvgl/src/widgets/../core/../misc/../font/../misc/lv_area.h **** }
 1432              		.loc 3 115 5 is_stmt 1 view .LVU440
 115:lvgl/src/widgets/../core/../misc/../font/../misc/lv_area.h **** }
 1433              		.loc 3 115 19 is_stmt 0 view .LVU441
 1434 0140 B3F90630 		ldrsh	r3, [r3, #6]
 1435              	.LVL131:
 115:lvgl/src/widgets/../core/../misc/../font/../misc/lv_area.h **** }
 1436              		.loc 3 115 14 view .LVU442
 1437 0144 ADF82E31 		strh	r3, [sp, #302]	@ movhi
 1438              	.LVL132:
 115:lvgl/src/widgets/../core/../misc/../font/../misc/lv_area.h **** }
 1439              		.loc 3 115 14 view .LVU443
 1440              	.LBE113:
 1441              	.LBE112:
 761:lvgl/src/widgets/lv_btnmatrix.c ****         btn_area.y1 += area_obj.y1;
 1442              		.loc 1 761 9 is_stmt 1 view .LVU444
 761:lvgl/src/widgets/lv_btnmatrix.c ****         btn_area.y1 += area_obj.y1;
 1443              		.loc 1 761 32 is_stmt 0 view .LVU445
 1444 0148 BDF830C1 		ldrh	ip, [sp, #304]
 761:lvgl/src/widgets/lv_btnmatrix.c ****         btn_area.y1 += area_obj.y1;
 1445              		.loc 1 761 21 view .LVU446
 1446 014c 1CFA80F0 		uxtah	r0, ip, r0
 1447 0150 ADF82801 		strh	r0, [sp, #296]	@ movhi
 762:lvgl/src/widgets/lv_btnmatrix.c ****         btn_area.x2 += area_obj.x1;
 1448              		.loc 1 762 9 is_stmt 1 view .LVU447
 762:lvgl/src/widgets/lv_btnmatrix.c ****         btn_area.x2 += area_obj.x1;
 1449              		.loc 1 762 32 is_stmt 0 view .LVU448
 1450 0154 BDF83201 		ldrh	r0, [sp, #306]
 762:lvgl/src/widgets/lv_btnmatrix.c ****         btn_area.x2 += area_obj.x1;
 1451              		.loc 1 762 21 view .LVU449
 1452 0158 10FA81F1 		uxtah	r1, r0, r1
 1453 015c ADF82A11 		strh	r1, [sp, #298]	@ movhi
 763:lvgl/src/widgets/lv_btnmatrix.c ****         btn_area.y2 += area_obj.y1;
 1454              		.loc 1 763 9 is_stmt 1 view .LVU450
 763:lvgl/src/widgets/lv_btnmatrix.c ****         btn_area.y2 += area_obj.y1;
 1455              		.loc 1 763 21 is_stmt 0 view .LVU451
 1456 0160 1CFA82F2 		uxtah	r2, ip, r2
 1457 0164 ADF82C21 		strh	r2, [sp, #300]	@ movhi
 764:lvgl/src/widgets/lv_btnmatrix.c **** 
 1458              		.loc 1 764 9 is_stmt 1 view .LVU452
 764:lvgl/src/widgets/lv_btnmatrix.c **** 
 1459              		.loc 1 764 21 is_stmt 0 view .LVU453
 1460 0168 10FA83F3 		uxtah	r3, r0, r3
 1461 016c ADF82E31 		strh	r3, [sp, #302]	@ movhi
 767:lvgl/src/widgets/lv_btnmatrix.c ****             lv_memcpy(&draw_rect_dsc_act, &draw_rect_dsc_def, sizeof(lv_draw_rect_dsc_t));
 1462              		.loc 1 767 9 is_stmt 1 view .LVU454
 767:lvgl/src/widgets/lv_btnmatrix.c ****             lv_memcpy(&draw_rect_dsc_act, &draw_rect_dsc_def, sizeof(lv_draw_rect_dsc_t));
 1463              		.loc 1 767 11 is_stmt 0 view .LVU455
 1464 0170 B8F1000F 		cmp	r8, #0
 1465 0174 40F00981 		bne	.L67
 768:lvgl/src/widgets/lv_btnmatrix.c ****             lv_memcpy(&draw_label_dsc_act, &draw_label_dsc_def, sizeof(lv_draw_label_dsc_t));
 1466              		.loc 1 768 13 is_stmt 1 view .LVU456
 1467 0178 3822     		movs	r2, #56
ARM GAS  /var/folders/21/t9g5rlb91ys800n5npymflf80000gn/T//ccSbQiFP.s 			page 56


 1468 017a 26A9     		add	r1, sp, #152
 1469 017c 3CA8     		add	r0, sp, #240
 1470 017e FFF7FEFF 		bl	lv_memcpy
 1471              	.LVL133:
 769:lvgl/src/widgets/lv_btnmatrix.c ****         }
 1472              		.loc 1 769 13 view .LVU457
 1473 0182 2022     		movs	r2, #32
 1474 0184 1EA9     		add	r1, sp, #120
 1475 0186 34A8     		add	r0, sp, #208
 1476 0188 FFF7FEFF 		bl	lv_memcpy
 1477              	.LVL134:
 1478              	.L68:
 783:lvgl/src/widgets/lv_btnmatrix.c ****         if(recolor) draw_label_dsc_act.flag |= LV_TEXT_FLAG_RECOLOR;
 1479              		.loc 1 783 9 view .LVU458
 783:lvgl/src/widgets/lv_btnmatrix.c ****         if(recolor) draw_label_dsc_act.flag |= LV_TEXT_FLAG_RECOLOR;
 1480              		.loc 1 783 46 is_stmt 0 view .LVU459
 1481 018c EB6A     		ldr	r3, [r5, #44]
 783:lvgl/src/widgets/lv_btnmatrix.c ****         if(recolor) draw_label_dsc_act.flag |= LV_TEXT_FLAG_RECOLOR;
 1482              		.loc 1 783 24 view .LVU460
 1483 018e 33F80B00 		ldrh	r0, [r3, fp]
 1484 0192 FFF7FEFF 		bl	button_is_recolor
 1485              	.LVL135:
 784:lvgl/src/widgets/lv_btnmatrix.c ****         else draw_label_dsc_act.flag &= ~LV_TEXT_FLAG_RECOLOR;
 1486              		.loc 1 784 9 is_stmt 1 view .LVU461
 784:lvgl/src/widgets/lv_btnmatrix.c ****         else draw_label_dsc_act.flag &= ~LV_TEXT_FLAG_RECOLOR;
 1487              		.loc 1 784 11 is_stmt 0 view .LVU462
 1488 0196 0028     		cmp	r0, #0
 1489 0198 00F01A81 		beq	.L69
 784:lvgl/src/widgets/lv_btnmatrix.c ****         else draw_label_dsc_act.flag &= ~LV_TEXT_FLAG_RECOLOR;
 1490              		.loc 1 784 21 is_stmt 1 discriminator 1 view .LVU463
 784:lvgl/src/widgets/lv_btnmatrix.c ****         else draw_label_dsc_act.flag &= ~LV_TEXT_FLAG_RECOLOR;
 1491              		.loc 1 784 39 is_stmt 0 discriminator 1 view .LVU464
 1492 019c 9DF8ED30 		ldrb	r3, [sp, #237]	@ zero_extendqisi2
 784:lvgl/src/widgets/lv_btnmatrix.c ****         else draw_label_dsc_act.flag &= ~LV_TEXT_FLAG_RECOLOR;
 1493              		.loc 1 784 45 discriminator 1 view .LVU465
 1494 01a0 43F00103 		orr	r3, r3, #1
 1495 01a4 8DF8ED30 		strb	r3, [sp, #237]
 1496              	.L70:
 787:lvgl/src/widgets/lv_btnmatrix.c ****         part_draw_dsc.id = btn_i;
 1497              		.loc 1 787 9 is_stmt 1 view .LVU466
 787:lvgl/src/widgets/lv_btnmatrix.c ****         part_draw_dsc.id = btn_i;
 1498              		.loc 1 787 33 is_stmt 0 view .LVU467
 1499 01a8 4AAB     		add	r3, sp, #296
 1500 01aa 0F93     		str	r3, [sp, #60]
 788:lvgl/src/widgets/lv_btnmatrix.c ****         lv_event_send(obj, LV_EVENT_DRAW_PART_BEGIN, &part_draw_dsc);
 1501              		.loc 1 788 9 is_stmt 1 view .LVU468
 788:lvgl/src/widgets/lv_btnmatrix.c ****         lv_event_send(obj, LV_EVENT_DRAW_PART_BEGIN, &part_draw_dsc);
 1502              		.loc 1 788 26 is_stmt 0 view .LVU469
 1503 01ac CDF868A0 		str	r10, [sp, #104]
 789:lvgl/src/widgets/lv_btnmatrix.c **** 
 1504              		.loc 1 789 9 is_stmt 1 view .LVU470
 1505 01b0 0CAA     		add	r2, sp, #48
 1506 01b2 1A21     		movs	r1, #26
 1507 01b4 2846     		mov	r0, r5
 1508              	.LVL136:
 789:lvgl/src/widgets/lv_btnmatrix.c **** 
 1509              		.loc 1 789 9 is_stmt 0 view .LVU471
ARM GAS  /var/folders/21/t9g5rlb91ys800n5npymflf80000gn/T//ccSbQiFP.s 			page 57


 1510 01b6 FFF7FEFF 		bl	lv_event_send
 1511              	.LVL137:
 792:lvgl/src/widgets/lv_btnmatrix.c ****             draw_rect_dsc_act.border_side = LV_BORDER_SIDE_FULL;
 1512              		.loc 1 792 9 is_stmt 1 view .LVU472
 792:lvgl/src/widgets/lv_btnmatrix.c ****             draw_rect_dsc_act.border_side = LV_BORDER_SIDE_FULL;
 1513              		.loc 1 792 29 is_stmt 0 view .LVU473
 1514 01ba 9DF81331 		ldrb	r3, [sp, #275]	@ zero_extendqisi2
 1515 01be C3F34403 		ubfx	r3, r3, #1, #5
 792:lvgl/src/widgets/lv_btnmatrix.c ****             draw_rect_dsc_act.border_side = LV_BORDER_SIDE_FULL;
 1516              		.loc 1 792 11 view .LVU474
 1517 01c2 0F2B     		cmp	r3, #15
 1518 01c4 2AD9     		bls	.L71
 793:lvgl/src/widgets/lv_btnmatrix.c ****             if(btn_area.x1 == obj->coords.x1 + pleft) draw_rect_dsc_act.border_side &= ~LV_BORDER_S
 1519              		.loc 1 793 13 is_stmt 1 view .LVU475
 793:lvgl/src/widgets/lv_btnmatrix.c ****             if(btn_area.x1 == obj->coords.x1 + pleft) draw_rect_dsc_act.border_side &= ~LV_BORDER_S
 1520              		.loc 1 793 43 is_stmt 0 view .LVU476
 1521 01c6 9DF81331 		ldrb	r3, [sp, #275]	@ zero_extendqisi2
 1522 01ca 0F22     		movs	r2, #15
 1523 01cc 62F34503 		bfi	r3, r2, #1, #5
 1524 01d0 8DF81331 		strb	r3, [sp, #275]
 794:lvgl/src/widgets/lv_btnmatrix.c ****             if(btn_area.x2 == obj->coords.x2 - pright) draw_rect_dsc_act.border_side &= ~LV_BORDER_
 1525              		.loc 1 794 13 is_stmt 1 view .LVU477
 794:lvgl/src/widgets/lv_btnmatrix.c ****             if(btn_area.x2 == obj->coords.x2 - pright) draw_rect_dsc_act.border_side &= ~LV_BORDER_
 1526              		.loc 1 794 24 is_stmt 0 view .LVU478
 1527 01d4 BDF92821 		ldrsh	r2, [sp, #296]
 794:lvgl/src/widgets/lv_btnmatrix.c ****             if(btn_area.x2 == obj->coords.x2 - pright) draw_rect_dsc_act.border_side &= ~LV_BORDER_
 1528              		.loc 1 794 42 view .LVU479
 1529 01d8 B5F91430 		ldrsh	r3, [r5, #20]
 794:lvgl/src/widgets/lv_btnmatrix.c ****             if(btn_area.x2 == obj->coords.x2 - pright) draw_rect_dsc_act.border_side &= ~LV_BORDER_
 1530              		.loc 1 794 46 view .LVU480
 1531 01dc 0899     		ldr	r1, [sp, #32]
 1532 01de 0B44     		add	r3, r3, r1
 794:lvgl/src/widgets/lv_btnmatrix.c ****             if(btn_area.x2 == obj->coords.x2 - pright) draw_rect_dsc_act.border_side &= ~LV_BORDER_
 1533              		.loc 1 794 15 view .LVU481
 1534 01e0 9A42     		cmp	r2, r3
 1535 01e2 00F0FC80 		beq	.L82
 1536              	.L72:
 795:lvgl/src/widgets/lv_btnmatrix.c ****             if(btn_area.y1 == obj->coords.y1 + ptop) draw_rect_dsc_act.border_side &= ~LV_BORDER_SI
 1537              		.loc 1 795 13 is_stmt 1 view .LVU482
 795:lvgl/src/widgets/lv_btnmatrix.c ****             if(btn_area.y1 == obj->coords.y1 + ptop) draw_rect_dsc_act.border_side &= ~LV_BORDER_SI
 1538              		.loc 1 795 24 is_stmt 0 view .LVU483
 1539 01e6 BDF92C21 		ldrsh	r2, [sp, #300]
 795:lvgl/src/widgets/lv_btnmatrix.c ****             if(btn_area.y1 == obj->coords.y1 + ptop) draw_rect_dsc_act.border_side &= ~LV_BORDER_SI
 1540              		.loc 1 795 42 view .LVU484
 1541 01ea B5F91830 		ldrsh	r3, [r5, #24]
 795:lvgl/src/widgets/lv_btnmatrix.c ****             if(btn_area.y1 == obj->coords.y1 + ptop) draw_rect_dsc_act.border_side &= ~LV_BORDER_SI
 1542              		.loc 1 795 46 view .LVU485
 1543 01ee 0999     		ldr	r1, [sp, #36]
 1544 01f0 5B1A     		subs	r3, r3, r1
 795:lvgl/src/widgets/lv_btnmatrix.c ****             if(btn_area.y1 == obj->coords.y1 + ptop) draw_rect_dsc_act.border_side &= ~LV_BORDER_SI
 1545              		.loc 1 795 15 view .LVU486
 1546 01f2 9A42     		cmp	r2, r3
 1547 01f4 00F00081 		beq	.L83
 1548              	.L73:
 796:lvgl/src/widgets/lv_btnmatrix.c ****             if(btn_area.y2 == obj->coords.y2 - pbottom) draw_rect_dsc_act.border_side &= ~LV_BORDER
 1549              		.loc 1 796 13 is_stmt 1 view .LVU487
 796:lvgl/src/widgets/lv_btnmatrix.c ****             if(btn_area.y2 == obj->coords.y2 - pbottom) draw_rect_dsc_act.border_side &= ~LV_BORDER
ARM GAS  /var/folders/21/t9g5rlb91ys800n5npymflf80000gn/T//ccSbQiFP.s 			page 58


 1550              		.loc 1 796 24 is_stmt 0 view .LVU488
 1551 01f8 BDF92A21 		ldrsh	r2, [sp, #298]
 796:lvgl/src/widgets/lv_btnmatrix.c ****             if(btn_area.y2 == obj->coords.y2 - pbottom) draw_rect_dsc_act.border_side &= ~LV_BORDER
 1552              		.loc 1 796 42 view .LVU489
 1553 01fc B5F91630 		ldrsh	r3, [r5, #22]
 796:lvgl/src/widgets/lv_btnmatrix.c ****             if(btn_area.y2 == obj->coords.y2 - pbottom) draw_rect_dsc_act.border_side &= ~LV_BORDER
 1554              		.loc 1 796 46 view .LVU490
 1555 0200 0699     		ldr	r1, [sp, #24]
 1556 0202 0B44     		add	r3, r3, r1
 796:lvgl/src/widgets/lv_btnmatrix.c ****             if(btn_area.y2 == obj->coords.y2 - pbottom) draw_rect_dsc_act.border_side &= ~LV_BORDER
 1557              		.loc 1 796 15 view .LVU491
 1558 0204 9A42     		cmp	r2, r3
 1559 0206 00F00281 		beq	.L84
 1560              	.L74:
 797:lvgl/src/widgets/lv_btnmatrix.c ****         }
 1561              		.loc 1 797 13 is_stmt 1 view .LVU492
 797:lvgl/src/widgets/lv_btnmatrix.c ****         }
 1562              		.loc 1 797 24 is_stmt 0 view .LVU493
 1563 020a BDF92E21 		ldrsh	r2, [sp, #302]
 797:lvgl/src/widgets/lv_btnmatrix.c ****         }
 1564              		.loc 1 797 42 view .LVU494
 1565 020e B5F91A30 		ldrsh	r3, [r5, #26]
 797:lvgl/src/widgets/lv_btnmatrix.c ****         }
 1566              		.loc 1 797 46 view .LVU495
 1567 0212 0799     		ldr	r1, [sp, #28]
 1568 0214 5B1A     		subs	r3, r3, r1
 797:lvgl/src/widgets/lv_btnmatrix.c ****         }
 1569              		.loc 1 797 15 view .LVU496
 1570 0216 9A42     		cmp	r2, r3
 1571 0218 00F00481 		beq	.L85
 1572              	.L71:
 800:lvgl/src/widgets/lv_btnmatrix.c **** 
 1573              		.loc 1 800 9 is_stmt 1 view .LVU497
 1574              	.LVL138:
 1575              	.LBB114:
 1576              	.LBI114:
 133:lvgl/src/widgets/../core/../misc/../font/../misc/lv_area.h **** {
 1577              		.loc 3 133 26 view .LVU498
 1578              	.LBB115:
 1579              		.loc 3 135 5 view .LVU499
 1580              		.loc 3 135 31 is_stmt 0 view .LVU500
 1581 021c BDF82E91 		ldrh	r9, [sp, #302]
 1582              		.loc 3 135 44 view .LVU501
 1583 0220 BDF82A31 		ldrh	r3, [sp, #298]
 1584              		.loc 3 135 36 view .LVU502
 1585 0224 A9EB0309 		sub	r9, r9, r3
 1586 0228 1FFA89F9 		uxth	r9, r9
 1587              		.loc 3 135 49 view .LVU503
 1588 022c 09F10109 		add	r9, r9, #1
 1589 0230 1FFA89F2 		uxth	r2, r9
 1590              		.loc 3 135 12 view .LVU504
 1591 0234 0FFA89F9 		sxth	r9, r9
 1592              	.LVL139:
 1593              		.loc 3 135 12 view .LVU505
 1594              	.LBE115:
 1595              	.LBE114:
 802:lvgl/src/widgets/lv_btnmatrix.c ****             /*Push up the upper boundary of the btn area to create the popover*/
ARM GAS  /var/folders/21/t9g5rlb91ys800n5npymflf80000gn/T//ccSbQiFP.s 			page 59


 1596              		.loc 1 802 9 is_stmt 1 view .LVU506
 802:lvgl/src/widgets/lv_btnmatrix.c ****             /*Push up the upper boundary of the btn area to create the popover*/
 1597              		.loc 1 802 11 is_stmt 0 view .LVU507
 1598 0238 18F02008 		ands	r8, r8, #32
 1599              	.LVL140:
 802:lvgl/src/widgets/lv_btnmatrix.c ****             /*Push up the upper boundary of the btn area to create the popover*/
 1600              		.loc 1 802 11 view .LVU508
 1601 023c 08D0     		beq	.L75
 802:lvgl/src/widgets/lv_btnmatrix.c ****             /*Push up the upper boundary of the btn area to create the popover*/
 1602              		.loc 1 802 51 discriminator 1 view .LVU509
 1603 023e E96A     		ldr	r1, [r5, #44]
 802:lvgl/src/widgets/lv_btnmatrix.c ****             /*Push up the upper boundary of the btn area to create the popover*/
 1604              		.loc 1 802 62 discriminator 1 view .LVU510
 1605 0240 31F80B10 		ldrh	r1, [r1, fp]
 802:lvgl/src/widgets/lv_btnmatrix.c ****             /*Push up the upper boundary of the btn area to create the popover*/
 1606              		.loc 1 802 43 discriminator 1 view .LVU511
 1607 0244 11F4806F 		tst	r1, #1024
 1608 0248 02D0     		beq	.L75
 804:lvgl/src/widgets/lv_btnmatrix.c ****         }
 1609              		.loc 1 804 13 is_stmt 1 view .LVU512
 804:lvgl/src/widgets/lv_btnmatrix.c ****         }
 1610              		.loc 1 804 25 is_stmt 0 view .LVU513
 1611 024a 9B1A     		subs	r3, r3, r2
 1612 024c ADF82A31 		strh	r3, [sp, #298]	@ movhi
 1613              	.L75:
 808:lvgl/src/widgets/lv_btnmatrix.c **** 
 1614              		.loc 1 808 9 is_stmt 1 view .LVU514
 1615 0250 4AAA     		add	r2, sp, #296
 1616 0252 3CA9     		add	r1, sp, #240
 1617 0254 0498     		ldr	r0, [sp, #16]
 1618 0256 FFF7FEFF 		bl	lv_draw_rect
 1619              	.LVL141:
 811:lvgl/src/widgets/lv_btnmatrix.c ****         lv_coord_t letter_space = draw_label_dsc_act.letter_space;
 1620              		.loc 1 811 9 view .LVU515
 812:lvgl/src/widgets/lv_btnmatrix.c ****         lv_coord_t line_space = draw_label_dsc_act.line_space;
 1621              		.loc 1 812 9 view .LVU516
 813:lvgl/src/widgets/lv_btnmatrix.c ****         const char * txt = btnm->map_p[txt_i];
 1622              		.loc 1 813 9 view .LVU517
 813:lvgl/src/widgets/lv_btnmatrix.c ****         const char * txt = btnm->map_p[txt_i];
 1623              		.loc 1 813 20 is_stmt 0 view .LVU518
 1624 025a BDF9E220 		ldrsh	r2, [sp, #226]
 1625              	.LVL142:
 814:lvgl/src/widgets/lv_btnmatrix.c **** 
 1626              		.loc 1 814 9 is_stmt 1 view .LVU519
 814:lvgl/src/widgets/lv_btnmatrix.c **** 
 1627              		.loc 1 814 32 is_stmt 0 view .LVU520
 1628 025e 6B6A     		ldr	r3, [r5, #36]
 814:lvgl/src/widgets/lv_btnmatrix.c **** 
 1629              		.loc 1 814 22 view .LVU521
 1630 0260 9E59     		ldr	r6, [r3, r6]
 1631              	.LVL143:
 824:lvgl/src/widgets/lv_btnmatrix.c ****         lv_txt_get_size(&txt_size, txt, font, letter_space,
 1632              		.loc 1 824 9 is_stmt 1 view .LVU522
 825:lvgl/src/widgets/lv_btnmatrix.c ****                         line_space, lv_area_get_width(&area_obj), draw_label_dsc_act.flag);
 1633              		.loc 1 825 9 view .LVU523
 1634              	.LBB116:
 1635              	.LBI116:
ARM GAS  /var/folders/21/t9g5rlb91ys800n5npymflf80000gn/T//ccSbQiFP.s 			page 60


 123:lvgl/src/widgets/../core/../misc/../font/../misc/lv_area.h **** {
 1636              		.loc 3 123 26 view .LVU524
 1637              	.LBB117:
 125:lvgl/src/widgets/../core/../misc/../font/../misc/lv_area.h **** }
 1638              		.loc 3 125 5 view .LVU525
 125:lvgl/src/widgets/../core/../misc/../font/../misc/lv_area.h **** }
 1639              		.loc 3 125 31 is_stmt 0 view .LVU526
 1640 0262 BDF83431 		ldrh	r3, [sp, #308]
 125:lvgl/src/widgets/../core/../misc/../font/../misc/lv_area.h **** }
 1641              		.loc 3 125 44 view .LVU527
 1642 0266 BDF83011 		ldrh	r1, [sp, #304]
 125:lvgl/src/widgets/../core/../misc/../font/../misc/lv_area.h **** }
 1643              		.loc 3 125 36 view .LVU528
 1644 026a 5B1A     		subs	r3, r3, r1
 1645 026c 9BB2     		uxth	r3, r3
 125:lvgl/src/widgets/../core/../misc/../font/../misc/lv_area.h **** }
 1646              		.loc 3 125 49 view .LVU529
 1647 026e 0133     		adds	r3, r3, #1
 125:lvgl/src/widgets/../core/../misc/../font/../misc/lv_area.h **** }
 1648              		.loc 3 125 12 view .LVU530
 1649 0270 1BB2     		sxth	r3, r3
 1650              	.LVL144:
 125:lvgl/src/widgets/../core/../misc/../font/../misc/lv_area.h **** }
 1651              		.loc 3 125 12 view .LVU531
 1652              	.LBE117:
 1653              	.LBE116:
 825:lvgl/src/widgets/lv_btnmatrix.c ****                         line_space, lv_area_get_width(&area_obj), draw_label_dsc_act.flag);
 1654              		.loc 1 825 9 view .LVU532
 1655 0272 9DF8ED10 		ldrb	r1, [sp, #237]	@ zero_extendqisi2
 1656 0276 0291     		str	r1, [sp, #8]
 1657 0278 0193     		str	r3, [sp, #4]
 1658 027a 0092     		str	r2, [sp]
 1659 027c BDF9E430 		ldrsh	r3, [sp, #228]
 1660 0280 349A     		ldr	r2, [sp, #208]
 1661 0282 3146     		mov	r1, r6
 1662 0284 0BA8     		add	r0, sp, #44
 1663 0286 FFF7FEFF 		bl	lv_txt_get_size
 1664              	.LVL145:
 828:lvgl/src/widgets/lv_btnmatrix.c ****         btn_area.y1 += (lv_area_get_height(&btn_area) - txt_size.y) / 2;
 1665              		.loc 1 828 9 is_stmt 1 view .LVU533
 1666              	.LBB118:
 1667              	.LBI118:
 123:lvgl/src/widgets/../core/../misc/../font/../misc/lv_area.h **** {
 1668              		.loc 3 123 26 view .LVU534
 1669              	.LBB119:
 125:lvgl/src/widgets/../core/../misc/../font/../misc/lv_area.h **** }
 1670              		.loc 3 125 5 view .LVU535
 125:lvgl/src/widgets/../core/../misc/../font/../misc/lv_area.h **** }
 1671              		.loc 3 125 31 is_stmt 0 view .LVU536
 1672 028a BDF82C31 		ldrh	r3, [sp, #300]
 125:lvgl/src/widgets/../core/../misc/../font/../misc/lv_area.h **** }
 1673              		.loc 3 125 44 view .LVU537
 1674 028e BDF82811 		ldrh	r1, [sp, #296]
 125:lvgl/src/widgets/../core/../misc/../font/../misc/lv_area.h **** }
 1675              		.loc 3 125 36 view .LVU538
 1676 0292 5B1A     		subs	r3, r3, r1
 1677 0294 9BB2     		uxth	r3, r3
ARM GAS  /var/folders/21/t9g5rlb91ys800n5npymflf80000gn/T//ccSbQiFP.s 			page 61


 125:lvgl/src/widgets/../core/../misc/../font/../misc/lv_area.h **** }
 1678              		.loc 3 125 49 view .LVU539
 1679 0296 0133     		adds	r3, r3, #1
 125:lvgl/src/widgets/../core/../misc/../font/../misc/lv_area.h **** }
 1680              		.loc 3 125 12 view .LVU540
 1681 0298 1BB2     		sxth	r3, r3
 1682              	.LVL146:
 125:lvgl/src/widgets/../core/../misc/../font/../misc/lv_area.h **** }
 1683              		.loc 3 125 12 view .LVU541
 1684              	.LBE119:
 1685              	.LBE118:
 828:lvgl/src/widgets/lv_btnmatrix.c ****         btn_area.y1 += (lv_area_get_height(&btn_area) - txt_size.y) / 2;
 1686              		.loc 1 828 64 view .LVU542
 1687 029a BDF92CC0 		ldrsh	ip, [sp, #44]
 828:lvgl/src/widgets/lv_btnmatrix.c ****         btn_area.y1 += (lv_area_get_height(&btn_area) - txt_size.y) / 2;
 1688              		.loc 1 828 54 view .LVU543
 1689 029e A3EB0C03 		sub	r3, r3, ip
 828:lvgl/src/widgets/lv_btnmatrix.c ****         btn_area.y1 += (lv_area_get_height(&btn_area) - txt_size.y) / 2;
 1690              		.loc 1 828 68 view .LVU544
 1691 02a2 03EBD373 		add	r3, r3, r3, lsr #31
 828:lvgl/src/widgets/lv_btnmatrix.c ****         btn_area.y1 += (lv_area_get_height(&btn_area) - txt_size.y) / 2;
 1692              		.loc 1 828 21 view .LVU545
 1693 02a6 01EB6301 		add	r1, r1, r3, asr #1
 1694 02aa 89B2     		uxth	r1, r1
 1695 02ac ADF82811 		strh	r1, [sp, #296]	@ movhi
 829:lvgl/src/widgets/lv_btnmatrix.c ****         btn_area.x2 = btn_area.x1 + txt_size.x;
 1696              		.loc 1 829 9 is_stmt 1 view .LVU546
 1697              	.LVL147:
 1698              	.LBB120:
 1699              	.LBI120:
 133:lvgl/src/widgets/../core/../misc/../font/../misc/lv_area.h **** {
 1700              		.loc 3 133 26 view .LVU547
 1701              	.LBB121:
 1702              		.loc 3 135 5 view .LVU548
 1703              		.loc 3 135 31 is_stmt 0 view .LVU549
 1704 02b0 BDF82E31 		ldrh	r3, [sp, #302]
 1705              		.loc 3 135 44 view .LVU550
 1706 02b4 BDF82A21 		ldrh	r2, [sp, #298]
 1707              		.loc 3 135 36 view .LVU551
 1708 02b8 9B1A     		subs	r3, r3, r2
 1709 02ba 9BB2     		uxth	r3, r3
 1710              		.loc 3 135 49 view .LVU552
 1711 02bc 0133     		adds	r3, r3, #1
 1712              		.loc 3 135 12 view .LVU553
 1713 02be 1BB2     		sxth	r3, r3
 1714              	.LVL148:
 1715              		.loc 3 135 12 view .LVU554
 1716              	.LBE121:
 1717              	.LBE120:
 829:lvgl/src/widgets/lv_btnmatrix.c ****         btn_area.x2 = btn_area.x1 + txt_size.x;
 1718              		.loc 1 829 65 view .LVU555
 1719 02c0 BDF92E00 		ldrsh	r0, [sp, #46]
 829:lvgl/src/widgets/lv_btnmatrix.c ****         btn_area.x2 = btn_area.x1 + txt_size.x;
 1720              		.loc 1 829 55 view .LVU556
 1721 02c4 1B1A     		subs	r3, r3, r0
 829:lvgl/src/widgets/lv_btnmatrix.c ****         btn_area.x2 = btn_area.x1 + txt_size.x;
 1722              		.loc 1 829 69 view .LVU557
ARM GAS  /var/folders/21/t9g5rlb91ys800n5npymflf80000gn/T//ccSbQiFP.s 			page 62


 1723 02c6 03EBD373 		add	r3, r3, r3, lsr #31
 829:lvgl/src/widgets/lv_btnmatrix.c ****         btn_area.x2 = btn_area.x1 + txt_size.x;
 1724              		.loc 1 829 21 view .LVU558
 1725 02ca 02EB6302 		add	r2, r2, r3, asr #1
 1726 02ce 92B2     		uxth	r2, r2
 1727 02d0 ADF82A21 		strh	r2, [sp, #298]	@ movhi
 830:lvgl/src/widgets/lv_btnmatrix.c ****         btn_area.y2 = btn_area.y1 + txt_size.y;
 1728              		.loc 1 830 9 is_stmt 1 view .LVU559
 830:lvgl/src/widgets/lv_btnmatrix.c ****         btn_area.y2 = btn_area.y1 + txt_size.y;
 1729              		.loc 1 830 35 is_stmt 0 view .LVU560
 1730 02d4 11FA8CFC 		uxtah	ip, r1, ip
 830:lvgl/src/widgets/lv_btnmatrix.c ****         btn_area.y2 = btn_area.y1 + txt_size.y;
 1731              		.loc 1 830 21 view .LVU561
 1732 02d8 ADF82CC1 		strh	ip, [sp, #300]	@ movhi
 831:lvgl/src/widgets/lv_btnmatrix.c **** 
 1733              		.loc 1 831 9 is_stmt 1 view .LVU562
 831:lvgl/src/widgets/lv_btnmatrix.c **** 
 1734              		.loc 1 831 35 is_stmt 0 view .LVU563
 1735 02dc 12FA80F0 		uxtah	r0, r2, r0
 1736 02e0 83B2     		uxth	r3, r0
 831:lvgl/src/widgets/lv_btnmatrix.c **** 
 1737              		.loc 1 831 21 view .LVU564
 1738 02e2 ADF82E01 		strh	r0, [sp, #302]	@ movhi
 833:lvgl/src/widgets/lv_btnmatrix.c ****             /*Push up the button text into the popover*/
 1739              		.loc 1 833 9 is_stmt 1 view .LVU565
 833:lvgl/src/widgets/lv_btnmatrix.c ****             /*Push up the button text into the popover*/
 1740              		.loc 1 833 11 is_stmt 0 view .LVU566
 1741 02e6 B8F1000F 		cmp	r8, #0
 1742 02ea 11D0     		beq	.L76
 833:lvgl/src/widgets/lv_btnmatrix.c ****             /*Push up the button text into the popover*/
 1743              		.loc 1 833 51 discriminator 1 view .LVU567
 1744 02ec E96A     		ldr	r1, [r5, #44]
 833:lvgl/src/widgets/lv_btnmatrix.c ****             /*Push up the button text into the popover*/
 1745              		.loc 1 833 62 discriminator 1 view .LVU568
 1746 02ee 31F80B10 		ldrh	r1, [r1, fp]
 833:lvgl/src/widgets/lv_btnmatrix.c ****             /*Push up the button text into the popover*/
 1747              		.loc 1 833 43 discriminator 1 view .LVU569
 1748 02f2 11F4806F 		tst	r1, #1024
 1749 02f6 0BD0     		beq	.L76
 835:lvgl/src/widgets/lv_btnmatrix.c ****             btn_area.y2 -= btn_height / 2;
 1750              		.loc 1 835 13 is_stmt 1 view .LVU570
 835:lvgl/src/widgets/lv_btnmatrix.c ****             btn_area.y2 -= btn_height / 2;
 1751              		.loc 1 835 25 is_stmt 0 view .LVU571
 1752 02f8 09EBD979 		add	r9, r9, r9, lsr #31
 1753              	.LVL149:
 835:lvgl/src/widgets/lv_btnmatrix.c ****             btn_area.y2 -= btn_height / 2;
 1754              		.loc 1 835 25 view .LVU572
 1755 02fc C9F34F09 		ubfx	r9, r9, #1, #16
 1756 0300 A2EB0902 		sub	r2, r2, r9
 1757 0304 ADF82A21 		strh	r2, [sp, #298]	@ movhi
 836:lvgl/src/widgets/lv_btnmatrix.c ****         }
 1758              		.loc 1 836 13 is_stmt 1 view .LVU573
 836:lvgl/src/widgets/lv_btnmatrix.c ****         }
 1759              		.loc 1 836 25 is_stmt 0 view .LVU574
 1760 0308 A3EB0903 		sub	r3, r3, r9
 1761 030c ADF82E31 		strh	r3, [sp, #302]	@ movhi
 1762              	.L76:
ARM GAS  /var/folders/21/t9g5rlb91ys800n5npymflf80000gn/T//ccSbQiFP.s 			page 63


 840:lvgl/src/widgets/lv_btnmatrix.c **** 
 1763              		.loc 1 840 9 is_stmt 1 view .LVU575
 1764 0310 0023     		movs	r3, #0
 1765 0312 0093     		str	r3, [sp]
 1766 0314 3346     		mov	r3, r6
 1767 0316 4AAA     		add	r2, sp, #296
 1768 0318 34A9     		add	r1, sp, #208
 1769 031a 0498     		ldr	r0, [sp, #16]
 1770 031c FFF7FEFF 		bl	lv_draw_label
 1771              	.LVL150:
 842:lvgl/src/widgets/lv_btnmatrix.c ****     }
 1772              		.loc 1 842 9 view .LVU576
 1773 0320 0CAA     		add	r2, sp, #48
 1774 0322 1B21     		movs	r1, #27
 1775 0324 2846     		mov	r0, r5
 1776 0326 FFF7FEFF 		bl	lv_event_send
 1777              	.LVL151:
 1778              	.L60:
 842:lvgl/src/widgets/lv_btnmatrix.c ****     }
 1779              		.loc 1 842 9 is_stmt 0 view .LVU577
 1780              	.LBE111:
 738:lvgl/src/widgets/lv_btnmatrix.c ****         /*Search the next valid text in the map*/
 1781              		.loc 1 738 50 is_stmt 1 discriminator 2 view .LVU578
 738:lvgl/src/widgets/lv_btnmatrix.c ****         /*Search the next valid text in the map*/
 1782              		.loc 1 738 48 is_stmt 0 discriminator 2 view .LVU579
 1783 032a 0137     		adds	r7, r7, #1
 1784              	.LVL152:
 738:lvgl/src/widgets/lv_btnmatrix.c ****         /*Search the next valid text in the map*/
 1785              		.loc 1 738 48 discriminator 2 view .LVU580
 1786 032c BFB2     		uxth	r7, r7
 1787              	.LVL153:
 738:lvgl/src/widgets/lv_btnmatrix.c ****         /*Search the next valid text in the map*/
 1788              		.loc 1 738 57 discriminator 2 view .LVU581
 1789 032e 0134     		adds	r4, r4, #1
 1790              	.LVL154:
 738:lvgl/src/widgets/lv_btnmatrix.c ****         /*Search the next valid text in the map*/
 1791              		.loc 1 738 57 discriminator 2 view .LVU582
 1792 0330 A4B2     		uxth	r4, r4
 1793              	.LVL155:
 1794              	.L57:
 738:lvgl/src/widgets/lv_btnmatrix.c ****         /*Search the next valid text in the map*/
 1795              		.loc 1 738 26 is_stmt 1 discriminator 1 view .LVU583
 738:lvgl/src/widgets/lv_btnmatrix.c ****         /*Search the next valid text in the map*/
 1796              		.loc 1 738 32 is_stmt 0 discriminator 1 view .LVU584
 1797 0332 2B8E     		ldrh	r3, [r5, #48]
 738:lvgl/src/widgets/lv_btnmatrix.c ****         /*Search the next valid text in the map*/
 1798              		.loc 1 738 26 discriminator 1 view .LVU585
 1799 0334 BB42     		cmp	r3, r7
 1800 0336 3FF6CFAE 		bhi	.L77
 845:lvgl/src/widgets/lv_btnmatrix.c **** #if LV_USE_ARABIC_PERSIAN_CHARS
 1801              		.loc 1 845 5 is_stmt 1 view .LVU586
 845:lvgl/src/widgets/lv_btnmatrix.c **** #if LV_USE_ARABIC_PERSIAN_CHARS
 1802              		.loc 1 845 21 is_stmt 0 view .LVU587
 1803 033a 95F82230 		ldrb	r3, [r5, #34]	@ zero_extendqisi2
 1804 033e 6FF3C303 		bfc	r3, #3, #1
 1805 0342 85F82230 		strb	r3, [r5, #34]
 1806 0346 63E6     		b	.L54
ARM GAS  /var/folders/21/t9g5rlb91ys800n5npymflf80000gn/T//ccSbQiFP.s 			page 64


 1807              	.LVL156:
 1808              	.L78:
 1809              	.LBB122:
 749:lvgl/src/widgets/lv_btnmatrix.c **** 
 1810              		.loc 1 749 66 view .LVU588
 1811 0348 4FF00108 		mov	r8, #1
 1812 034c E1E6     		b	.L61
 1813              	.LVL157:
 1814              	.L62:
 752:lvgl/src/widgets/lv_btnmatrix.c ****             if(state_ori & LV_STATE_PRESSED) btn_state |= LV_STATE_PRESSED;
 1815              		.loc 1 752 14 is_stmt 1 view .LVU589
 752:lvgl/src/widgets/lv_btnmatrix.c ****             if(state_ori & LV_STATE_PRESSED) btn_state |= LV_STATE_PRESSED;
 1816              		.loc 1 752 30 is_stmt 0 view .LVU590
 1817 034e AB8E     		ldrh	r3, [r5, #52]
 752:lvgl/src/widgets/lv_btnmatrix.c ****             if(state_ori & LV_STATE_PRESSED) btn_state |= LV_STATE_PRESSED;
 1818              		.loc 1 752 16 view .LVU591
 1819 0350 BB42     		cmp	r3, r7
 1820 0352 7FF4E6AE 		bne	.L63
 753:lvgl/src/widgets/lv_btnmatrix.c ****             if(state_ori & LV_STATE_FOCUSED) btn_state |= LV_STATE_FOCUSED;
 1821              		.loc 1 753 13 is_stmt 1 view .LVU592
 753:lvgl/src/widgets/lv_btnmatrix.c ****             if(state_ori & LV_STATE_FOCUSED) btn_state |= LV_STATE_FOCUSED;
 1822              		.loc 1 753 15 is_stmt 0 view .LVU593
 1823 0356 059B     		ldr	r3, [sp, #20]
 1824 0358 13F0200F 		tst	r3, #32
 1825 035c 01D0     		beq	.L64
 753:lvgl/src/widgets/lv_btnmatrix.c ****             if(state_ori & LV_STATE_FOCUSED) btn_state |= LV_STATE_FOCUSED;
 1826              		.loc 1 753 46 is_stmt 1 discriminator 1 view .LVU594
 753:lvgl/src/widgets/lv_btnmatrix.c ****             if(state_ori & LV_STATE_FOCUSED) btn_state |= LV_STATE_FOCUSED;
 1827              		.loc 1 753 56 is_stmt 0 discriminator 1 view .LVU595
 1828 035e 48F02008 		orr	r8, r8, #32
 1829              	.LVL158:
 1830              	.L64:
 754:lvgl/src/widgets/lv_btnmatrix.c ****             if(state_ori & LV_STATE_FOCUS_KEY) btn_state |= LV_STATE_FOCUS_KEY;
 1831              		.loc 1 754 13 is_stmt 1 view .LVU596
 754:lvgl/src/widgets/lv_btnmatrix.c ****             if(state_ori & LV_STATE_FOCUS_KEY) btn_state |= LV_STATE_FOCUS_KEY;
 1832              		.loc 1 754 15 is_stmt 0 view .LVU597
 1833 0362 059B     		ldr	r3, [sp, #20]
 1834 0364 13F0020F 		tst	r3, #2
 1835 0368 01D0     		beq	.L65
 754:lvgl/src/widgets/lv_btnmatrix.c ****             if(state_ori & LV_STATE_FOCUS_KEY) btn_state |= LV_STATE_FOCUS_KEY;
 1836              		.loc 1 754 46 is_stmt 1 discriminator 1 view .LVU598
 754:lvgl/src/widgets/lv_btnmatrix.c ****             if(state_ori & LV_STATE_FOCUS_KEY) btn_state |= LV_STATE_FOCUS_KEY;
 1837              		.loc 1 754 56 is_stmt 0 discriminator 1 view .LVU599
 1838 036a 48F00208 		orr	r8, r8, #2
 1839              	.LVL159:
 1840              	.L65:
 755:lvgl/src/widgets/lv_btnmatrix.c ****             if(state_ori & LV_STATE_EDITED) btn_state |= LV_STATE_EDITED;
 1841              		.loc 1 755 13 is_stmt 1 view .LVU600
 755:lvgl/src/widgets/lv_btnmatrix.c ****             if(state_ori & LV_STATE_EDITED) btn_state |= LV_STATE_EDITED;
 1842              		.loc 1 755 15 is_stmt 0 view .LVU601
 1843 036e 059B     		ldr	r3, [sp, #20]
 1844 0370 13F0040F 		tst	r3, #4
 1845 0374 01D0     		beq	.L66
 755:lvgl/src/widgets/lv_btnmatrix.c ****             if(state_ori & LV_STATE_EDITED) btn_state |= LV_STATE_EDITED;
 1846              		.loc 1 755 48 is_stmt 1 discriminator 1 view .LVU602
 755:lvgl/src/widgets/lv_btnmatrix.c ****             if(state_ori & LV_STATE_EDITED) btn_state |= LV_STATE_EDITED;
 1847              		.loc 1 755 58 is_stmt 0 discriminator 1 view .LVU603
ARM GAS  /var/folders/21/t9g5rlb91ys800n5npymflf80000gn/T//ccSbQiFP.s 			page 65


 1848 0376 48F00408 		orr	r8, r8, #4
 1849              	.LVL160:
 1850              	.L66:
 756:lvgl/src/widgets/lv_btnmatrix.c ****         }
 1851              		.loc 1 756 13 is_stmt 1 view .LVU604
 756:lvgl/src/widgets/lv_btnmatrix.c ****         }
 1852              		.loc 1 756 15 is_stmt 0 view .LVU605
 1853 037a 059B     		ldr	r3, [sp, #20]
 1854 037c 13F0080F 		tst	r3, #8
 1855 0380 3FF4CFAE 		beq	.L63
 756:lvgl/src/widgets/lv_btnmatrix.c ****         }
 1856              		.loc 1 756 45 is_stmt 1 discriminator 1 view .LVU606
 756:lvgl/src/widgets/lv_btnmatrix.c ****         }
 1857              		.loc 1 756 55 is_stmt 0 discriminator 1 view .LVU607
 1858 0384 48F00808 		orr	r8, r8, #8
 1859              	.LVL161:
 756:lvgl/src/widgets/lv_btnmatrix.c ****         }
 1860              		.loc 1 756 55 discriminator 1 view .LVU608
 1861 0388 CBE6     		b	.L63
 1862              	.L67:
 773:lvgl/src/widgets/lv_btnmatrix.c ****             obj->skip_trans = 1;
 1863              		.loc 1 773 13 is_stmt 1 view .LVU609
 773:lvgl/src/widgets/lv_btnmatrix.c ****             obj->skip_trans = 1;
 1864              		.loc 1 773 24 is_stmt 0 view .LVU610
 1865 038a A5F82080 		strh	r8, [r5, #32]	@ movhi
 774:lvgl/src/widgets/lv_btnmatrix.c ****             lv_draw_rect_dsc_init(&draw_rect_dsc_act);
 1866              		.loc 1 774 13 is_stmt 1 view .LVU611
 774:lvgl/src/widgets/lv_btnmatrix.c ****             lv_draw_rect_dsc_init(&draw_rect_dsc_act);
 1867              		.loc 1 774 29 is_stmt 0 view .LVU612
 1868 038e 95F82230 		ldrb	r3, [r5, #34]	@ zero_extendqisi2
 1869 0392 43F00803 		orr	r3, r3, #8
 1870 0396 85F82230 		strb	r3, [r5, #34]
 775:lvgl/src/widgets/lv_btnmatrix.c ****             lv_draw_label_dsc_init(&draw_label_dsc_act);
 1871              		.loc 1 775 13 is_stmt 1 view .LVU613
 1872 039a 3CA8     		add	r0, sp, #240
 1873 039c FFF7FEFF 		bl	lv_draw_rect_dsc_init
 1874              	.LVL162:
 776:lvgl/src/widgets/lv_btnmatrix.c ****             lv_obj_init_draw_rect_dsc(obj, LV_PART_ITEMS, &draw_rect_dsc_act);
 1875              		.loc 1 776 13 view .LVU614
 1876 03a0 34A8     		add	r0, sp, #208
 1877 03a2 FFF7FEFF 		bl	lv_draw_label_dsc_init
 1878              	.LVL163:
 777:lvgl/src/widgets/lv_btnmatrix.c ****             lv_obj_init_draw_label_dsc(obj, LV_PART_ITEMS, &draw_label_dsc_act);
 1879              		.loc 1 777 13 view .LVU615
 1880 03a6 3CAA     		add	r2, sp, #240
 1881 03a8 4FF4A021 		mov	r1, #327680
 1882 03ac 2846     		mov	r0, r5
 1883 03ae FFF7FEFF 		bl	lv_obj_init_draw_rect_dsc
 1884              	.LVL164:
 778:lvgl/src/widgets/lv_btnmatrix.c ****             obj->state = state_ori;
 1885              		.loc 1 778 13 view .LVU616
 1886 03b2 34AA     		add	r2, sp, #208
 1887 03b4 4FF4A021 		mov	r1, #327680
 1888 03b8 2846     		mov	r0, r5
 1889 03ba FFF7FEFF 		bl	lv_obj_init_draw_label_dsc
 1890              	.LVL165:
 779:lvgl/src/widgets/lv_btnmatrix.c ****             obj->skip_trans = 0;
ARM GAS  /var/folders/21/t9g5rlb91ys800n5npymflf80000gn/T//ccSbQiFP.s 			page 66


 1891              		.loc 1 779 13 view .LVU617
 779:lvgl/src/widgets/lv_btnmatrix.c ****             obj->skip_trans = 0;
 1892              		.loc 1 779 24 is_stmt 0 view .LVU618
 1893 03be 059B     		ldr	r3, [sp, #20]
 1894 03c0 2B84     		strh	r3, [r5, #32]	@ movhi
 780:lvgl/src/widgets/lv_btnmatrix.c ****         }
 1895              		.loc 1 780 13 is_stmt 1 view .LVU619
 780:lvgl/src/widgets/lv_btnmatrix.c ****         }
 1896              		.loc 1 780 29 is_stmt 0 view .LVU620
 1897 03c2 95F82230 		ldrb	r3, [r5, #34]	@ zero_extendqisi2
 1898 03c6 6FF3C303 		bfc	r3, #3, #1
 1899 03ca 85F82230 		strb	r3, [r5, #34]
 1900 03ce DDE6     		b	.L68
 1901              	.LVL166:
 1902              	.L69:
 785:lvgl/src/widgets/lv_btnmatrix.c **** 
 1903              		.loc 1 785 14 is_stmt 1 view .LVU621
 785:lvgl/src/widgets/lv_btnmatrix.c **** 
 1904              		.loc 1 785 32 is_stmt 0 view .LVU622
 1905 03d0 9DF8ED30 		ldrb	r3, [sp, #237]	@ zero_extendqisi2
 785:lvgl/src/widgets/lv_btnmatrix.c **** 
 1906              		.loc 1 785 38 view .LVU623
 1907 03d4 23F00103 		bic	r3, r3, #1
 1908 03d8 8DF8ED30 		strb	r3, [sp, #237]
 1909 03dc E4E6     		b	.L70
 1910              	.LVL167:
 1911              	.L82:
 794:lvgl/src/widgets/lv_btnmatrix.c ****             if(btn_area.x2 == obj->coords.x2 - pright) draw_rect_dsc_act.border_side &= ~LV_BORDER_
 1912              		.loc 1 794 55 is_stmt 1 discriminator 1 view .LVU624
 794:lvgl/src/widgets/lv_btnmatrix.c ****             if(btn_area.x2 == obj->coords.x2 - pright) draw_rect_dsc_act.border_side &= ~LV_BORDER_
 1913              		.loc 1 794 85 is_stmt 0 discriminator 1 view .LVU625
 1914 03de 9DF81331 		ldrb	r3, [sp, #275]	@ zero_extendqisi2
 1915 03e2 0B22     		movs	r2, #11
 1916 03e4 62F34503 		bfi	r3, r2, #1, #5
 1917 03e8 8DF81331 		strb	r3, [sp, #275]
 1918 03ec FBE6     		b	.L72
 1919              	.L87:
 1920 03ee 00BF     		.align	2
 1921              	.L86:
 1922 03f0 00000000 		.word	lv_btnmatrix_class
 1923 03f4 00000000 		.word	.LC0
 1924              	.L83:
 795:lvgl/src/widgets/lv_btnmatrix.c ****             if(btn_area.y1 == obj->coords.y1 + ptop) draw_rect_dsc_act.border_side &= ~LV_BORDER_SI
 1925              		.loc 1 795 56 is_stmt 1 discriminator 1 view .LVU626
 795:lvgl/src/widgets/lv_btnmatrix.c ****             if(btn_area.y1 == obj->coords.y1 + ptop) draw_rect_dsc_act.border_side &= ~LV_BORDER_SI
 1926              		.loc 1 795 73 is_stmt 0 discriminator 1 view .LVU627
 1927 03f8 9DF81331 		ldrb	r3, [sp, #275]	@ zero_extendqisi2
 1928 03fc C3F34402 		ubfx	r2, r3, #1, #5
 795:lvgl/src/widgets/lv_btnmatrix.c ****             if(btn_area.y1 == obj->coords.y1 + ptop) draw_rect_dsc_act.border_side &= ~LV_BORDER_SI
 1929              		.loc 1 795 86 discriminator 1 view .LVU628
 1930 0400 02F01702 		and	r2, r2, #23
 1931 0404 62F34503 		bfi	r3, r2, #1, #5
 1932 0408 8DF81331 		strb	r3, [sp, #275]
 1933 040c F4E6     		b	.L73
 1934              	.L84:
 796:lvgl/src/widgets/lv_btnmatrix.c ****             if(btn_area.y2 == obj->coords.y2 - pbottom) draw_rect_dsc_act.border_side &= ~LV_BORDER
 1935              		.loc 1 796 54 is_stmt 1 discriminator 1 view .LVU629
ARM GAS  /var/folders/21/t9g5rlb91ys800n5npymflf80000gn/T//ccSbQiFP.s 			page 67


 796:lvgl/src/widgets/lv_btnmatrix.c ****             if(btn_area.y2 == obj->coords.y2 - pbottom) draw_rect_dsc_act.border_side &= ~LV_BORDER
 1936              		.loc 1 796 71 is_stmt 0 discriminator 1 view .LVU630
 1937 040e 9DF81331 		ldrb	r3, [sp, #275]	@ zero_extendqisi2
 1938 0412 C3F34402 		ubfx	r2, r3, #1, #5
 796:lvgl/src/widgets/lv_btnmatrix.c ****             if(btn_area.y2 == obj->coords.y2 - pbottom) draw_rect_dsc_act.border_side &= ~LV_BORDER
 1939              		.loc 1 796 84 discriminator 1 view .LVU631
 1940 0416 02F01D02 		and	r2, r2, #29
 1941 041a 62F34503 		bfi	r3, r2, #1, #5
 1942 041e 8DF81331 		strb	r3, [sp, #275]
 1943 0422 F2E6     		b	.L74
 1944              	.L85:
 797:lvgl/src/widgets/lv_btnmatrix.c ****         }
 1945              		.loc 1 797 57 is_stmt 1 discriminator 1 view .LVU632
 797:lvgl/src/widgets/lv_btnmatrix.c ****         }
 1946              		.loc 1 797 74 is_stmt 0 discriminator 1 view .LVU633
 1947 0424 9DF81331 		ldrb	r3, [sp, #275]	@ zero_extendqisi2
 1948 0428 C3F34402 		ubfx	r2, r3, #1, #5
 797:lvgl/src/widgets/lv_btnmatrix.c ****         }
 1949              		.loc 1 797 87 discriminator 1 view .LVU634
 1950 042c 02F01E02 		and	r2, r2, #30
 1951 0430 62F34503 		bfi	r3, r2, #1, #5
 1952 0434 8DF81331 		strb	r3, [sp, #275]
 1953 0438 F0E6     		b	.L71
 1954              	.LBE122:
 1955              		.cfi_endproc
 1956              	.LFE179:
 1958 043a 00BF     		.section	.text.lv_btnmatrix_destructor,"ax",%progbits
 1959              		.align	1
 1960              		.syntax unified
 1961              		.thumb
 1962              		.thumb_func
 1964              	lv_btnmatrix_destructor:
 1965              	.LVL168:
 1966              	.LFB177:
 393:lvgl/src/widgets/lv_btnmatrix.c ****     LV_TRACE_OBJ_CREATE("begin");
 1967              		.loc 1 393 1 is_stmt 1 view -0
 1968              		.cfi_startproc
 1969              		@ args = 0, pretend = 0, frame = 0
 1970              		@ frame_needed = 0, uses_anonymous_args = 0
 393:lvgl/src/widgets/lv_btnmatrix.c ****     LV_TRACE_OBJ_CREATE("begin");
 1971              		.loc 1 393 1 is_stmt 0 view .LVU636
 1972 0000 10B5     		push	{r4, lr}
 1973              	.LCFI16:
 1974              		.cfi_def_cfa_offset 8
 1975              		.cfi_offset 4, -8
 1976              		.cfi_offset 14, -4
 1977 0002 0C46     		mov	r4, r1
 394:lvgl/src/widgets/lv_btnmatrix.c ****     LV_UNUSED(class_p);
 1978              		.loc 1 394 33 is_stmt 1 view .LVU637
 395:lvgl/src/widgets/lv_btnmatrix.c ****     lv_btnmatrix_t * btnm = (lv_btnmatrix_t *)obj;
 1979              		.loc 1 395 5 view .LVU638
 396:lvgl/src/widgets/lv_btnmatrix.c ****     lv_mem_free(btnm->button_areas);
 1980              		.loc 1 396 5 view .LVU639
 1981              	.LVL169:
 397:lvgl/src/widgets/lv_btnmatrix.c ****     lv_mem_free(btnm->ctrl_bits);
 1982              		.loc 1 397 5 view .LVU640
 1983 0004 886A     		ldr	r0, [r1, #40]
ARM GAS  /var/folders/21/t9g5rlb91ys800n5npymflf80000gn/T//ccSbQiFP.s 			page 68


 1984              	.LVL170:
 397:lvgl/src/widgets/lv_btnmatrix.c ****     lv_mem_free(btnm->ctrl_bits);
 1985              		.loc 1 397 5 is_stmt 0 view .LVU641
 1986 0006 FFF7FEFF 		bl	lv_mem_free
 1987              	.LVL171:
 398:lvgl/src/widgets/lv_btnmatrix.c ****     btnm->button_areas = NULL;
 1988              		.loc 1 398 5 is_stmt 1 view .LVU642
 1989 000a E06A     		ldr	r0, [r4, #44]
 1990 000c FFF7FEFF 		bl	lv_mem_free
 1991              	.LVL172:
 399:lvgl/src/widgets/lv_btnmatrix.c ****     btnm->ctrl_bits = NULL;
 1992              		.loc 1 399 5 view .LVU643
 399:lvgl/src/widgets/lv_btnmatrix.c ****     btnm->ctrl_bits = NULL;
 1993              		.loc 1 399 24 is_stmt 0 view .LVU644
 1994 0010 0023     		movs	r3, #0
 1995 0012 A362     		str	r3, [r4, #40]
 400:lvgl/src/widgets/lv_btnmatrix.c ****     LV_TRACE_OBJ_CREATE("finished");
 1996              		.loc 1 400 5 is_stmt 1 view .LVU645
 400:lvgl/src/widgets/lv_btnmatrix.c ****     LV_TRACE_OBJ_CREATE("finished");
 1997              		.loc 1 400 21 is_stmt 0 view .LVU646
 1998 0014 E362     		str	r3, [r4, #44]
 401:lvgl/src/widgets/lv_btnmatrix.c **** }
 1999              		.loc 1 401 36 is_stmt 1 view .LVU647
 402:lvgl/src/widgets/lv_btnmatrix.c **** 
 2000              		.loc 1 402 1 is_stmt 0 view .LVU648
 2001 0016 10BD     		pop	{r4, pc}
 402:lvgl/src/widgets/lv_btnmatrix.c **** 
 2002              		.loc 1 402 1 view .LVU649
 2003              		.cfi_endproc
 2004              	.LFE177:
 2006              		.section	.text.allocate_btn_areas_and_controls,"ax",%progbits
 2007              		.align	1
 2008              		.syntax unified
 2009              		.thumb
 2010              		.thumb_func
 2012              	allocate_btn_areas_and_controls:
 2013              	.LVL173:
 2014              	.LFB180:
 856:lvgl/src/widgets/lv_btnmatrix.c ****     lv_btnmatrix_t * btnm = (lv_btnmatrix_t *)obj;
 2015              		.loc 1 856 1 is_stmt 1 view -0
 2016              		.cfi_startproc
 2017              		@ args = 0, pretend = 0, frame = 0
 2018              		@ frame_needed = 0, uses_anonymous_args = 0
 856:lvgl/src/widgets/lv_btnmatrix.c ****     lv_btnmatrix_t * btnm = (lv_btnmatrix_t *)obj;
 2019              		.loc 1 856 1 is_stmt 0 view .LVU651
 2020 0000 F8B5     		push	{r3, r4, r5, r6, r7, lr}
 2021              	.LCFI17:
 2022              		.cfi_def_cfa_offset 24
 2023              		.cfi_offset 3, -24
 2024              		.cfi_offset 4, -20
 2025              		.cfi_offset 5, -16
 2026              		.cfi_offset 6, -12
 2027              		.cfi_offset 7, -8
 2028              		.cfi_offset 14, -4
 2029 0002 0646     		mov	r6, r0
 2030 0004 0F46     		mov	r7, r1
 857:lvgl/src/widgets/lv_btnmatrix.c ****     btnm->row_cnt = 1;
ARM GAS  /var/folders/21/t9g5rlb91ys800n5npymflf80000gn/T//ccSbQiFP.s 			page 69


 2031              		.loc 1 857 5 is_stmt 1 view .LVU652
 2032              	.LVL174:
 858:lvgl/src/widgets/lv_btnmatrix.c ****     /*Count the buttons in the map*/
 2033              		.loc 1 858 5 view .LVU653
 858:lvgl/src/widgets/lv_btnmatrix.c ****     /*Count the buttons in the map*/
 2034              		.loc 1 858 19 is_stmt 0 view .LVU654
 2035 0006 0123     		movs	r3, #1
 2036 0008 4386     		strh	r3, [r0, #50]	@ movhi
 860:lvgl/src/widgets/lv_btnmatrix.c ****     uint16_t i       = 0;
 2037              		.loc 1 860 5 is_stmt 1 view .LVU655
 2038              	.LVL175:
 861:lvgl/src/widgets/lv_btnmatrix.c ****     while(map[i] && map[i][0] != '\0') {
 2039              		.loc 1 861 5 view .LVU656
 862:lvgl/src/widgets/lv_btnmatrix.c ****         if(strcmp(map[i], "\n") != 0) { /*Do not count line breaks*/
 2040              		.loc 1 862 5 view .LVU657
 861:lvgl/src/widgets/lv_btnmatrix.c ****     while(map[i] && map[i][0] != '\0') {
 2041              		.loc 1 861 14 is_stmt 0 view .LVU658
 2042 000a 0024     		movs	r4, #0
 860:lvgl/src/widgets/lv_btnmatrix.c ****     uint16_t i       = 0;
 2043              		.loc 1 860 14 view .LVU659
 2044 000c 2546     		mov	r5, r4
 862:lvgl/src/widgets/lv_btnmatrix.c ****         if(strcmp(map[i], "\n") != 0) { /*Do not count line breaks*/
 2045              		.loc 1 862 10 view .LVU660
 2046 000e 04E0     		b	.L91
 2047              	.LVL176:
 2048              	.L92:
 867:lvgl/src/widgets/lv_btnmatrix.c ****         }
 2049              		.loc 1 867 13 is_stmt 1 view .LVU661
 867:lvgl/src/widgets/lv_btnmatrix.c ****         }
 2050              		.loc 1 867 17 is_stmt 0 view .LVU662
 2051 0010 738E     		ldrh	r3, [r6, #50]
 867:lvgl/src/widgets/lv_btnmatrix.c ****         }
 2052              		.loc 1 867 26 view .LVU663
 2053 0012 0133     		adds	r3, r3, #1
 2054 0014 7386     		strh	r3, [r6, #50]	@ movhi
 2055              	.L93:
 869:lvgl/src/widgets/lv_btnmatrix.c ****     }
 2056              		.loc 1 869 9 is_stmt 1 view .LVU664
 869:lvgl/src/widgets/lv_btnmatrix.c ****     }
 2057              		.loc 1 869 10 is_stmt 0 view .LVU665
 2058 0016 0134     		adds	r4, r4, #1
 2059              	.LVL177:
 869:lvgl/src/widgets/lv_btnmatrix.c ****     }
 2060              		.loc 1 869 10 view .LVU666
 2061 0018 A4B2     		uxth	r4, r4
 2062              	.LVL178:
 2063              	.L91:
 862:lvgl/src/widgets/lv_btnmatrix.c ****         if(strcmp(map[i], "\n") != 0) { /*Do not count line breaks*/
 2064              		.loc 1 862 18 is_stmt 1 view .LVU667
 862:lvgl/src/widgets/lv_btnmatrix.c ****         if(strcmp(map[i], "\n") != 0) { /*Do not count line breaks*/
 2065              		.loc 1 862 14 is_stmt 0 view .LVU668
 2066 001a 57F82400 		ldr	r0, [r7, r4, lsl #2]
 862:lvgl/src/widgets/lv_btnmatrix.c ****         if(strcmp(map[i], "\n") != 0) { /*Do not count line breaks*/
 2067              		.loc 1 862 18 view .LVU669
 2068 001e 48B1     		cbz	r0, .L94
 862:lvgl/src/widgets/lv_btnmatrix.c ****         if(strcmp(map[i], "\n") != 0) { /*Do not count line breaks*/
 2069              		.loc 1 862 27 discriminator 1 view .LVU670
ARM GAS  /var/folders/21/t9g5rlb91ys800n5npymflf80000gn/T//ccSbQiFP.s 			page 70


 2070 0020 0378     		ldrb	r3, [r0]	@ zero_extendqisi2
 862:lvgl/src/widgets/lv_btnmatrix.c ****         if(strcmp(map[i], "\n") != 0) { /*Do not count line breaks*/
 2071              		.loc 1 862 18 discriminator 1 view .LVU671
 2072 0022 3BB1     		cbz	r3, .L94
 863:lvgl/src/widgets/lv_btnmatrix.c ****             btn_cnt++;
 2073              		.loc 1 863 9 is_stmt 1 view .LVU672
 863:lvgl/src/widgets/lv_btnmatrix.c ****             btn_cnt++;
 2074              		.loc 1 863 12 is_stmt 0 view .LVU673
 2075 0024 1549     		ldr	r1, .L107
 2076 0026 FFF7FEFF 		bl	strcmp
 2077              	.LVL179:
 863:lvgl/src/widgets/lv_btnmatrix.c ****             btn_cnt++;
 2078              		.loc 1 863 11 view .LVU674
 2079 002a 0028     		cmp	r0, #0
 2080 002c F0D0     		beq	.L92
 864:lvgl/src/widgets/lv_btnmatrix.c ****         }
 2081              		.loc 1 864 13 is_stmt 1 view .LVU675
 864:lvgl/src/widgets/lv_btnmatrix.c ****         }
 2082              		.loc 1 864 20 is_stmt 0 view .LVU676
 2083 002e 0135     		adds	r5, r5, #1
 2084              	.LVL180:
 864:lvgl/src/widgets/lv_btnmatrix.c ****         }
 2085              		.loc 1 864 20 view .LVU677
 2086 0030 ADB2     		uxth	r5, r5
 2087              	.LVL181:
 864:lvgl/src/widgets/lv_btnmatrix.c ****         }
 2088              		.loc 1 864 20 view .LVU678
 2089 0032 F0E7     		b	.L93
 2090              	.L94:
 873:lvgl/src/widgets/lv_btnmatrix.c **** 
 2091              		.loc 1 873 5 is_stmt 1 view .LVU679
 873:lvgl/src/widgets/lv_btnmatrix.c **** 
 2092              		.loc 1 873 23 is_stmt 0 view .LVU680
 2093 0034 338E     		ldrh	r3, [r6, #48]
 873:lvgl/src/widgets/lv_btnmatrix.c **** 
 2094              		.loc 1 873 7 view .LVU681
 2095 0036 AB42     		cmp	r3, r5
 2096 0038 1BD0     		beq	.L90
 875:lvgl/src/widgets/lv_btnmatrix.c ****         lv_mem_free(btnm->button_areas);
 2097              		.loc 1 875 5 is_stmt 1 view .LVU682
 875:lvgl/src/widgets/lv_btnmatrix.c ****         lv_mem_free(btnm->button_areas);
 2098              		.loc 1 875 12 is_stmt 0 view .LVU683
 2099 003a B06A     		ldr	r0, [r6, #40]
 875:lvgl/src/widgets/lv_btnmatrix.c ****         lv_mem_free(btnm->button_areas);
 2100              		.loc 1 875 7 view .LVU684
 2101 003c 18B1     		cbz	r0, .L97
 876:lvgl/src/widgets/lv_btnmatrix.c ****         btnm->button_areas = NULL;
 2102              		.loc 1 876 9 is_stmt 1 view .LVU685
 2103 003e FFF7FEFF 		bl	lv_mem_free
 2104              	.LVL182:
 877:lvgl/src/widgets/lv_btnmatrix.c ****     }
 2105              		.loc 1 877 9 view .LVU686
 877:lvgl/src/widgets/lv_btnmatrix.c ****     }
 2106              		.loc 1 877 28 is_stmt 0 view .LVU687
 2107 0042 0023     		movs	r3, #0
 2108 0044 B362     		str	r3, [r6, #40]
 2109              	.L97:
ARM GAS  /var/folders/21/t9g5rlb91ys800n5npymflf80000gn/T//ccSbQiFP.s 			page 71


 879:lvgl/src/widgets/lv_btnmatrix.c ****         lv_mem_free(btnm->ctrl_bits);
 2110              		.loc 1 879 5 is_stmt 1 view .LVU688
 879:lvgl/src/widgets/lv_btnmatrix.c ****         lv_mem_free(btnm->ctrl_bits);
 2111              		.loc 1 879 12 is_stmt 0 view .LVU689
 2112 0046 F06A     		ldr	r0, [r6, #44]
 879:lvgl/src/widgets/lv_btnmatrix.c ****         lv_mem_free(btnm->ctrl_bits);
 2113              		.loc 1 879 7 view .LVU690
 2114 0048 18B1     		cbz	r0, .L98
 880:lvgl/src/widgets/lv_btnmatrix.c ****         btnm->ctrl_bits = NULL;
 2115              		.loc 1 880 9 is_stmt 1 view .LVU691
 2116 004a FFF7FEFF 		bl	lv_mem_free
 2117              	.LVL183:
 881:lvgl/src/widgets/lv_btnmatrix.c ****     }
 2118              		.loc 1 881 9 view .LVU692
 881:lvgl/src/widgets/lv_btnmatrix.c ****     }
 2119              		.loc 1 881 25 is_stmt 0 view .LVU693
 2120 004e 0023     		movs	r3, #0
 2121 0050 F362     		str	r3, [r6, #44]
 2122              	.L98:
 884:lvgl/src/widgets/lv_btnmatrix.c ****     LV_ASSERT_MALLOC(btnm->button_areas);
 2123              		.loc 1 884 5 is_stmt 1 view .LVU694
 884:lvgl/src/widgets/lv_btnmatrix.c ****     LV_ASSERT_MALLOC(btnm->button_areas);
 2124              		.loc 1 884 26 is_stmt 0 view .LVU695
 2125 0052 E800     		lsls	r0, r5, #3
 2126 0054 FFF7FEFF 		bl	lv_mem_alloc
 2127              	.LVL184:
 884:lvgl/src/widgets/lv_btnmatrix.c ****     LV_ASSERT_MALLOC(btnm->button_areas);
 2128              		.loc 1 884 24 view .LVU696
 2129 0058 B062     		str	r0, [r6, #40]
 885:lvgl/src/widgets/lv_btnmatrix.c ****     btnm->ctrl_bits = lv_mem_alloc(sizeof(lv_btnmatrix_ctrl_t) * btn_cnt);
 2130              		.loc 1 885 5 is_stmt 1 view .LVU697
 885:lvgl/src/widgets/lv_btnmatrix.c ****     btnm->ctrl_bits = lv_mem_alloc(sizeof(lv_btnmatrix_ctrl_t) * btn_cnt);
 2131              		.loc 1 885 5 view .LVU698
 2132 005a 58B1     		cbz	r0, .L100
 885:lvgl/src/widgets/lv_btnmatrix.c ****     btnm->ctrl_bits = lv_mem_alloc(sizeof(lv_btnmatrix_ctrl_t) * btn_cnt);
 2133              		.loc 1 885 5 discriminator 2 view .LVU699
 885:lvgl/src/widgets/lv_btnmatrix.c ****     btnm->ctrl_bits = lv_mem_alloc(sizeof(lv_btnmatrix_ctrl_t) * btn_cnt);
