ARM GAS  /var/folders/21/t9g5rlb91ys800n5npymflf80000gn/T//ccSbQiFP.s 			page 1


   1              		.cpu cortex-m4
   2              		.arch armv7e-m
   3              		.fpu fpv4-sp-d16
   4              		.eabi_attribute 27, 1
   5              		.eabi_attribute 28, 1
   6              		.eabi_attribute 20, 1
   7              		.eabi_attribute 21, 1
   8              		.eabi_attribute 23, 3
   9              		.eabi_attribute 24, 1
  10              		.eabi_attribute 25, 1
  11              		.eabi_attribute 26, 1
  12              		.eabi_attribute 30, 1
  13              		.eabi_attribute 34, 1
  14              		.eabi_attribute 18, 4
  15              		.file	"lv_btnmatrix.c"
  16              		.text
  17              	.Ltext0:
  18              		.cfi_sections	.debug_frame
  19              		.file 1 "lvgl/src/widgets/lv_btnmatrix.c"
  20              		.section	.text.get_button_width,"ax",%progbits
  21              		.align	1
  22              		.syntax unified
  23              		.thumb
  24              		.thumb_func
  26              	get_button_width:
  27              	.LVL0:
  28              	.LFB181:
   1:lvgl/src/widgets/lv_btnmatrix.c **** /**
   2:lvgl/src/widgets/lv_btnmatrix.c ****  * @file lv_btnmatrix.c
   3:lvgl/src/widgets/lv_btnmatrix.c ****  *
   4:lvgl/src/widgets/lv_btnmatrix.c ****  */
   5:lvgl/src/widgets/lv_btnmatrix.c **** 
   6:lvgl/src/widgets/lv_btnmatrix.c **** /*********************
   7:lvgl/src/widgets/lv_btnmatrix.c ****  *      INCLUDES
   8:lvgl/src/widgets/lv_btnmatrix.c ****  *********************/
   9:lvgl/src/widgets/lv_btnmatrix.c **** #include "lv_btnmatrix.h"
  10:lvgl/src/widgets/lv_btnmatrix.c **** #if LV_USE_BTNMATRIX != 0
  11:lvgl/src/widgets/lv_btnmatrix.c **** 
  12:lvgl/src/widgets/lv_btnmatrix.c **** #include "../misc/lv_assert.h"
  13:lvgl/src/widgets/lv_btnmatrix.c **** #include "../core/lv_indev.h"
  14:lvgl/src/widgets/lv_btnmatrix.c **** #include "../core/lv_group.h"
  15:lvgl/src/widgets/lv_btnmatrix.c **** #include "../draw/lv_draw.h"
  16:lvgl/src/widgets/lv_btnmatrix.c **** #include "../core/lv_refr.h"
  17:lvgl/src/widgets/lv_btnmatrix.c **** #include "../misc/lv_txt.h"
  18:lvgl/src/widgets/lv_btnmatrix.c **** #include "../misc/lv_txt_ap.h"
  19:lvgl/src/widgets/lv_btnmatrix.c **** 
  20:lvgl/src/widgets/lv_btnmatrix.c **** /*********************
  21:lvgl/src/widgets/lv_btnmatrix.c ****  *      DEFINES
  22:lvgl/src/widgets/lv_btnmatrix.c ****  *********************/
  23:lvgl/src/widgets/lv_btnmatrix.c **** #define MY_CLASS &lv_btnmatrix_class
  24:lvgl/src/widgets/lv_btnmatrix.c **** 
  25:lvgl/src/widgets/lv_btnmatrix.c **** #define BTN_EXTRA_CLICK_AREA_MAX (LV_DPI_DEF / 10)
  26:lvgl/src/widgets/lv_btnmatrix.c **** #define LV_BTNMATRIX_WIDTH_MASK 0x000F
  27:lvgl/src/widgets/lv_btnmatrix.c **** 
  28:lvgl/src/widgets/lv_btnmatrix.c **** /**********************
  29:lvgl/src/widgets/lv_btnmatrix.c ****  *      TYPEDEFS
  30:lvgl/src/widgets/lv_btnmatrix.c ****  **********************/
ARM GAS  /var/folders/21/t9g5rlb91ys800n5npymflf80000gn/T//ccSbQiFP.s 			page 2


  31:lvgl/src/widgets/lv_btnmatrix.c **** 
  32:lvgl/src/widgets/lv_btnmatrix.c **** /**********************
  33:lvgl/src/widgets/lv_btnmatrix.c ****  *  STATIC PROTOTYPES
  34:lvgl/src/widgets/lv_btnmatrix.c ****  **********************/
  35:lvgl/src/widgets/lv_btnmatrix.c **** static void lv_btnmatrix_constructor(const lv_obj_class_t * class_p, lv_obj_t * obj);
  36:lvgl/src/widgets/lv_btnmatrix.c **** static void lv_btnmatrix_destructor(const lv_obj_class_t * class_p, lv_obj_t * obj);
  37:lvgl/src/widgets/lv_btnmatrix.c **** static void lv_btnmatrix_event(const lv_obj_class_t * class_p, lv_event_t * e);
  38:lvgl/src/widgets/lv_btnmatrix.c **** static void draw_main(lv_event_t * e);
  39:lvgl/src/widgets/lv_btnmatrix.c **** 
  40:lvgl/src/widgets/lv_btnmatrix.c **** static uint8_t get_button_width(lv_btnmatrix_ctrl_t ctrl_bits);
  41:lvgl/src/widgets/lv_btnmatrix.c **** static bool button_is_hidden(lv_btnmatrix_ctrl_t ctrl_bits);
  42:lvgl/src/widgets/lv_btnmatrix.c **** static bool button_is_checked(lv_btnmatrix_ctrl_t ctrl_bits);
  43:lvgl/src/widgets/lv_btnmatrix.c **** static bool button_is_repeat_disabled(lv_btnmatrix_ctrl_t ctrl_bits);
  44:lvgl/src/widgets/lv_btnmatrix.c **** static bool button_is_inactive(lv_btnmatrix_ctrl_t ctrl_bits);
  45:lvgl/src/widgets/lv_btnmatrix.c **** static bool button_is_click_trig(lv_btnmatrix_ctrl_t ctrl_bits);
  46:lvgl/src/widgets/lv_btnmatrix.c **** static bool button_is_popover(lv_btnmatrix_ctrl_t ctrl_bits);
  47:lvgl/src/widgets/lv_btnmatrix.c **** static bool button_is_checkable(lv_btnmatrix_ctrl_t ctrl_bits);
  48:lvgl/src/widgets/lv_btnmatrix.c **** static bool button_is_recolor(lv_btnmatrix_ctrl_t ctrl_bits);
  49:lvgl/src/widgets/lv_btnmatrix.c **** static bool button_get_checked(lv_btnmatrix_ctrl_t ctrl_bits);
  50:lvgl/src/widgets/lv_btnmatrix.c **** static uint16_t get_button_from_point(lv_obj_t * obj, lv_point_t * p);
  51:lvgl/src/widgets/lv_btnmatrix.c **** static void allocate_btn_areas_and_controls(const lv_obj_t * obj, const char ** map);
  52:lvgl/src/widgets/lv_btnmatrix.c **** static void invalidate_button_area(const lv_obj_t * obj, uint16_t btn_idx);
  53:lvgl/src/widgets/lv_btnmatrix.c **** static void make_one_button_checked(lv_obj_t * obj, uint16_t btn_idx);
  54:lvgl/src/widgets/lv_btnmatrix.c **** static bool has_popovers_in_top_row(lv_obj_t * obj);
  55:lvgl/src/widgets/lv_btnmatrix.c **** 
  56:lvgl/src/widgets/lv_btnmatrix.c **** /**********************
  57:lvgl/src/widgets/lv_btnmatrix.c ****  *  STATIC VARIABLES
  58:lvgl/src/widgets/lv_btnmatrix.c ****  **********************/
  59:lvgl/src/widgets/lv_btnmatrix.c **** static const char * lv_btnmatrix_def_map[] = {"Btn1", "Btn2", "Btn3", "\n", "Btn4", "Btn5", ""};
  60:lvgl/src/widgets/lv_btnmatrix.c **** 
  61:lvgl/src/widgets/lv_btnmatrix.c **** const lv_obj_class_t lv_btnmatrix_class = {
  62:lvgl/src/widgets/lv_btnmatrix.c ****     .constructor_cb = lv_btnmatrix_constructor,
  63:lvgl/src/widgets/lv_btnmatrix.c ****     .destructor_cb = lv_btnmatrix_destructor,
  64:lvgl/src/widgets/lv_btnmatrix.c ****     .event_cb = lv_btnmatrix_event,
  65:lvgl/src/widgets/lv_btnmatrix.c ****     .width_def = LV_DPI_DEF * 2,
  66:lvgl/src/widgets/lv_btnmatrix.c ****     .height_def = LV_DPI_DEF,
  67:lvgl/src/widgets/lv_btnmatrix.c ****     .instance_size = sizeof(lv_btnmatrix_t),
  68:lvgl/src/widgets/lv_btnmatrix.c ****     .editable = LV_OBJ_CLASS_EDITABLE_TRUE,
  69:lvgl/src/widgets/lv_btnmatrix.c ****     .group_def = LV_OBJ_CLASS_GROUP_DEF_TRUE,
  70:lvgl/src/widgets/lv_btnmatrix.c ****     .base_class = &lv_obj_class
  71:lvgl/src/widgets/lv_btnmatrix.c **** };
  72:lvgl/src/widgets/lv_btnmatrix.c **** 
  73:lvgl/src/widgets/lv_btnmatrix.c **** /**********************
  74:lvgl/src/widgets/lv_btnmatrix.c ****  *      MACROS
  75:lvgl/src/widgets/lv_btnmatrix.c ****  **********************/
  76:lvgl/src/widgets/lv_btnmatrix.c **** 
  77:lvgl/src/widgets/lv_btnmatrix.c **** /**********************
  78:lvgl/src/widgets/lv_btnmatrix.c ****  *   GLOBAL FUNCTIONS
  79:lvgl/src/widgets/lv_btnmatrix.c ****  **********************/
  80:lvgl/src/widgets/lv_btnmatrix.c **** 
  81:lvgl/src/widgets/lv_btnmatrix.c **** lv_obj_t * lv_btnmatrix_create(lv_obj_t * parent)
  82:lvgl/src/widgets/lv_btnmatrix.c **** {
  83:lvgl/src/widgets/lv_btnmatrix.c ****     LV_LOG_INFO("begin");
  84:lvgl/src/widgets/lv_btnmatrix.c ****     lv_obj_t * obj = lv_obj_class_create_obj(MY_CLASS, parent);
  85:lvgl/src/widgets/lv_btnmatrix.c ****     lv_obj_class_init_obj(obj);
  86:lvgl/src/widgets/lv_btnmatrix.c ****     return obj;
  87:lvgl/src/widgets/lv_btnmatrix.c **** }
ARM GAS  /var/folders/21/t9g5rlb91ys800n5npymflf80000gn/T//ccSbQiFP.s 			page 3


  88:lvgl/src/widgets/lv_btnmatrix.c **** 
  89:lvgl/src/widgets/lv_btnmatrix.c **** /*=====================
  90:lvgl/src/widgets/lv_btnmatrix.c ****  * Setter functions
  91:lvgl/src/widgets/lv_btnmatrix.c ****  *====================*/
  92:lvgl/src/widgets/lv_btnmatrix.c **** 
  93:lvgl/src/widgets/lv_btnmatrix.c **** void lv_btnmatrix_set_map(lv_obj_t * obj, const char * map[])
  94:lvgl/src/widgets/lv_btnmatrix.c **** {
  95:lvgl/src/widgets/lv_btnmatrix.c ****     LV_ASSERT_OBJ(obj, MY_CLASS);
  96:lvgl/src/widgets/lv_btnmatrix.c ****     if(map == NULL) return;
  97:lvgl/src/widgets/lv_btnmatrix.c **** 
  98:lvgl/src/widgets/lv_btnmatrix.c ****     lv_btnmatrix_t * btnm = (lv_btnmatrix_t *)obj;
  99:lvgl/src/widgets/lv_btnmatrix.c **** 
 100:lvgl/src/widgets/lv_btnmatrix.c ****     /*Analyze the map and create the required number of buttons*/
 101:lvgl/src/widgets/lv_btnmatrix.c ****     allocate_btn_areas_and_controls(obj, map);
 102:lvgl/src/widgets/lv_btnmatrix.c ****     btnm->map_p = map;
 103:lvgl/src/widgets/lv_btnmatrix.c **** 
 104:lvgl/src/widgets/lv_btnmatrix.c ****     lv_base_dir_t base_dir = lv_obj_get_style_base_dir(obj, LV_PART_MAIN);
 105:lvgl/src/widgets/lv_btnmatrix.c **** 
 106:lvgl/src/widgets/lv_btnmatrix.c ****     /*Set size and positions of the buttons*/
 107:lvgl/src/widgets/lv_btnmatrix.c ****     lv_coord_t pleft = lv_obj_get_style_pad_left(obj, LV_PART_MAIN);
 108:lvgl/src/widgets/lv_btnmatrix.c ****     lv_coord_t ptop = lv_obj_get_style_pad_top(obj, LV_PART_MAIN);
 109:lvgl/src/widgets/lv_btnmatrix.c ****     lv_coord_t prow = lv_obj_get_style_pad_row(obj, LV_PART_MAIN);
 110:lvgl/src/widgets/lv_btnmatrix.c ****     lv_coord_t pcol = lv_obj_get_style_pad_column(obj, LV_PART_MAIN);
 111:lvgl/src/widgets/lv_btnmatrix.c **** 
 112:lvgl/src/widgets/lv_btnmatrix.c ****     lv_coord_t max_w            = lv_obj_get_content_width(obj);
 113:lvgl/src/widgets/lv_btnmatrix.c ****     lv_coord_t max_h            = lv_obj_get_content_height(obj);
 114:lvgl/src/widgets/lv_btnmatrix.c **** 
 115:lvgl/src/widgets/lv_btnmatrix.c ****     /*Calculate the position of each row*/
 116:lvgl/src/widgets/lv_btnmatrix.c ****     lv_coord_t max_h_no_gap = max_h - (prow * (btnm->row_cnt - 1));
 117:lvgl/src/widgets/lv_btnmatrix.c **** 
 118:lvgl/src/widgets/lv_btnmatrix.c ****     /*Count the units and the buttons in a line
 119:lvgl/src/widgets/lv_btnmatrix.c ****      *(A button can be 1,2,3... unit wide)*/
 120:lvgl/src/widgets/lv_btnmatrix.c ****     uint32_t txt_tot_i = 0; /*Act. index in the str map*/
 121:lvgl/src/widgets/lv_btnmatrix.c ****     uint32_t btn_tot_i = 0; /*Act. index of button areas*/
 122:lvgl/src/widgets/lv_btnmatrix.c ****     const char ** map_row = map;
 123:lvgl/src/widgets/lv_btnmatrix.c **** 
 124:lvgl/src/widgets/lv_btnmatrix.c ****     /*Count the units and the buttons in a line*/
 125:lvgl/src/widgets/lv_btnmatrix.c ****     uint32_t row;
 126:lvgl/src/widgets/lv_btnmatrix.c ****     for(row = 0; row < btnm->row_cnt; row++) {
 127:lvgl/src/widgets/lv_btnmatrix.c ****         uint16_t unit_cnt = 0;           /*Number of units in a row*/
 128:lvgl/src/widgets/lv_btnmatrix.c ****         uint16_t btn_cnt = 0;            /*Number of buttons in a row*/
 129:lvgl/src/widgets/lv_btnmatrix.c ****         /*Count the buttons and units in this row*/
 130:lvgl/src/widgets/lv_btnmatrix.c ****         while(map_row[btn_cnt] && strcmp(map_row[btn_cnt], "\n") != 0 && map_row[btn_cnt][0] != '\0
 131:lvgl/src/widgets/lv_btnmatrix.c ****             unit_cnt += get_button_width(btnm->ctrl_bits[btn_tot_i + btn_cnt]);
 132:lvgl/src/widgets/lv_btnmatrix.c ****             btn_cnt++;
 133:lvgl/src/widgets/lv_btnmatrix.c ****         }
 134:lvgl/src/widgets/lv_btnmatrix.c **** 
 135:lvgl/src/widgets/lv_btnmatrix.c ****         /*Only deal with the non empty lines*/
 136:lvgl/src/widgets/lv_btnmatrix.c ****         if(btn_cnt == 0) {
 137:lvgl/src/widgets/lv_btnmatrix.c ****             map_row = &map_row[btn_cnt + 1];       /*Set the map to the next row*/
 138:lvgl/src/widgets/lv_btnmatrix.c ****             continue;
 139:lvgl/src/widgets/lv_btnmatrix.c ****         }
 140:lvgl/src/widgets/lv_btnmatrix.c **** 
 141:lvgl/src/widgets/lv_btnmatrix.c ****         lv_coord_t row_y1 = ptop + (max_h_no_gap * row) / btnm->row_cnt + row * prow;
 142:lvgl/src/widgets/lv_btnmatrix.c ****         lv_coord_t row_y2 = ptop + (max_h_no_gap * (row + 1)) / btnm->row_cnt + row * prow - 1;
 143:lvgl/src/widgets/lv_btnmatrix.c **** 
 144:lvgl/src/widgets/lv_btnmatrix.c ****         /*Set the button size and positions*/
ARM GAS  /var/folders/21/t9g5rlb91ys800n5npymflf80000gn/T//ccSbQiFP.s 			page 4


 145:lvgl/src/widgets/lv_btnmatrix.c ****         lv_coord_t max_w_no_gap = max_w - (pcol * (btn_cnt - 1));
 146:lvgl/src/widgets/lv_btnmatrix.c ****         if(max_w_no_gap < 0) max_w_no_gap = 0;
 147:lvgl/src/widgets/lv_btnmatrix.c **** 
 148:lvgl/src/widgets/lv_btnmatrix.c ****         uint32_t row_unit_cnt = 0;  /*The current unit position in the row*/
 149:lvgl/src/widgets/lv_btnmatrix.c ****         uint32_t btn;
 150:lvgl/src/widgets/lv_btnmatrix.c ****         for(btn = 0; btn < btn_cnt; btn++, btn_tot_i++, txt_tot_i++) {
 151:lvgl/src/widgets/lv_btnmatrix.c ****             uint32_t btn_u = get_button_width(btnm->ctrl_bits[btn_tot_i]);
 152:lvgl/src/widgets/lv_btnmatrix.c **** 
 153:lvgl/src/widgets/lv_btnmatrix.c ****             lv_coord_t btn_x1 = (max_w_no_gap * row_unit_cnt) / unit_cnt + btn * pcol;
 154:lvgl/src/widgets/lv_btnmatrix.c ****             lv_coord_t btn_x2 = (max_w_no_gap * (row_unit_cnt + btn_u)) / unit_cnt + btn * pcol - 1
 155:lvgl/src/widgets/lv_btnmatrix.c **** 
 156:lvgl/src/widgets/lv_btnmatrix.c ****             /*If RTL start from the right*/
 157:lvgl/src/widgets/lv_btnmatrix.c ****             if(base_dir == LV_BASE_DIR_RTL) {
 158:lvgl/src/widgets/lv_btnmatrix.c ****                 lv_coord_t tmp = btn_x1;
 159:lvgl/src/widgets/lv_btnmatrix.c ****                 btn_x1 = btn_x2;
 160:lvgl/src/widgets/lv_btnmatrix.c ****                 btn_x2 = tmp;
 161:lvgl/src/widgets/lv_btnmatrix.c **** 
 162:lvgl/src/widgets/lv_btnmatrix.c ****                 btn_x1 = max_w - btn_x1;
 163:lvgl/src/widgets/lv_btnmatrix.c ****                 btn_x2 = max_w - btn_x2;
 164:lvgl/src/widgets/lv_btnmatrix.c ****             }
 165:lvgl/src/widgets/lv_btnmatrix.c **** 
 166:lvgl/src/widgets/lv_btnmatrix.c ****             btn_x1 += pleft;
 167:lvgl/src/widgets/lv_btnmatrix.c ****             btn_x2 += pleft;
 168:lvgl/src/widgets/lv_btnmatrix.c **** 
 169:lvgl/src/widgets/lv_btnmatrix.c ****             lv_area_set(&btnm->button_areas[btn_tot_i], btn_x1, row_y1, btn_x2, row_y2);
 170:lvgl/src/widgets/lv_btnmatrix.c **** 
 171:lvgl/src/widgets/lv_btnmatrix.c ****             row_unit_cnt += btn_u;
 172:lvgl/src/widgets/lv_btnmatrix.c ****         }
 173:lvgl/src/widgets/lv_btnmatrix.c **** 
 174:lvgl/src/widgets/lv_btnmatrix.c ****         map_row = &map_row[btn_cnt + 1];       /*Set the map to the next line*/
 175:lvgl/src/widgets/lv_btnmatrix.c ****     }
 176:lvgl/src/widgets/lv_btnmatrix.c **** 
 177:lvgl/src/widgets/lv_btnmatrix.c ****     /*Popovers in the top row will draw outside the widget and the extended draw size depends on
 178:lvgl/src/widgets/lv_btnmatrix.c ****      *the row height which may have changed when setting the new map*/
 179:lvgl/src/widgets/lv_btnmatrix.c ****     lv_obj_refresh_ext_draw_size(obj);
 180:lvgl/src/widgets/lv_btnmatrix.c **** 
 181:lvgl/src/widgets/lv_btnmatrix.c ****     lv_obj_invalidate(obj);
 182:lvgl/src/widgets/lv_btnmatrix.c **** }
 183:lvgl/src/widgets/lv_btnmatrix.c **** 
 184:lvgl/src/widgets/lv_btnmatrix.c **** void lv_btnmatrix_set_ctrl_map(lv_obj_t * obj, const lv_btnmatrix_ctrl_t ctrl_map[])
 185:lvgl/src/widgets/lv_btnmatrix.c **** {
 186:lvgl/src/widgets/lv_btnmatrix.c ****     LV_ASSERT_OBJ(obj, MY_CLASS);
 187:lvgl/src/widgets/lv_btnmatrix.c **** 
 188:lvgl/src/widgets/lv_btnmatrix.c ****     lv_btnmatrix_t * btnm = (lv_btnmatrix_t *)obj;
 189:lvgl/src/widgets/lv_btnmatrix.c ****     lv_memcpy(btnm->ctrl_bits, ctrl_map, sizeof(lv_btnmatrix_ctrl_t) * btnm->btn_cnt);
 190:lvgl/src/widgets/lv_btnmatrix.c **** 
 191:lvgl/src/widgets/lv_btnmatrix.c ****     lv_btnmatrix_set_map(obj, btnm->map_p);
 192:lvgl/src/widgets/lv_btnmatrix.c **** }
 193:lvgl/src/widgets/lv_btnmatrix.c **** 
 194:lvgl/src/widgets/lv_btnmatrix.c **** void lv_btnmatrix_set_selected_btn(lv_obj_t * obj, uint16_t btn_id)
 195:lvgl/src/widgets/lv_btnmatrix.c **** {
 196:lvgl/src/widgets/lv_btnmatrix.c ****     LV_ASSERT_OBJ(obj, MY_CLASS);
 197:lvgl/src/widgets/lv_btnmatrix.c **** 
 198:lvgl/src/widgets/lv_btnmatrix.c ****     lv_btnmatrix_t * btnm = (lv_btnmatrix_t *)obj;
 199:lvgl/src/widgets/lv_btnmatrix.c **** 
 200:lvgl/src/widgets/lv_btnmatrix.c ****     if(btn_id >= btnm->btn_cnt && btn_id != LV_BTNMATRIX_BTN_NONE) return;
 201:lvgl/src/widgets/lv_btnmatrix.c **** 
ARM GAS  /var/folders/21/t9g5rlb91ys800n5npymflf80000gn/T//ccSbQiFP.s 			page 5


 202:lvgl/src/widgets/lv_btnmatrix.c ****     invalidate_button_area(obj, btnm->btn_id_sel);
 203:lvgl/src/widgets/lv_btnmatrix.c ****     btnm->btn_id_sel = btn_id;
 204:lvgl/src/widgets/lv_btnmatrix.c ****     invalidate_button_area(obj, btn_id);
 205:lvgl/src/widgets/lv_btnmatrix.c **** }
 206:lvgl/src/widgets/lv_btnmatrix.c **** 
 207:lvgl/src/widgets/lv_btnmatrix.c **** void lv_btnmatrix_set_btn_ctrl(lv_obj_t * obj, uint16_t btn_id, lv_btnmatrix_ctrl_t ctrl)
 208:lvgl/src/widgets/lv_btnmatrix.c **** {
 209:lvgl/src/widgets/lv_btnmatrix.c ****     LV_ASSERT_OBJ(obj, MY_CLASS);
 210:lvgl/src/widgets/lv_btnmatrix.c **** 
 211:lvgl/src/widgets/lv_btnmatrix.c ****     lv_btnmatrix_t * btnm = (lv_btnmatrix_t *)obj;
 212:lvgl/src/widgets/lv_btnmatrix.c **** 
 213:lvgl/src/widgets/lv_btnmatrix.c ****     if(btn_id >= btnm->btn_cnt) return;
 214:lvgl/src/widgets/lv_btnmatrix.c **** 
 215:lvgl/src/widgets/lv_btnmatrix.c ****     if(btnm->one_check && (ctrl & LV_BTNMATRIX_CTRL_CHECKED)) {
 216:lvgl/src/widgets/lv_btnmatrix.c ****         lv_btnmatrix_clear_btn_ctrl_all(obj, LV_BTNMATRIX_CTRL_CHECKED);
 217:lvgl/src/widgets/lv_btnmatrix.c ****     }
 218:lvgl/src/widgets/lv_btnmatrix.c **** 
 219:lvgl/src/widgets/lv_btnmatrix.c ****     /* If we hide a button if all buttons are now hidden hide the whole button matrix to make focus
 220:lvgl/src/widgets/lv_btnmatrix.c ****     if(ctrl & LV_BTNMATRIX_CTRL_HIDDEN) {
 221:lvgl/src/widgets/lv_btnmatrix.c ****         bool all_buttons_hidden = true;
 222:lvgl/src/widgets/lv_btnmatrix.c ****         if(btnm->btn_cnt > 1) {
 223:lvgl/src/widgets/lv_btnmatrix.c ****             for(uint16_t btn_idx = 0; btn_idx < btnm->btn_cnt; btn_idx++) {
 224:lvgl/src/widgets/lv_btnmatrix.c ****                 if(btn_idx == btn_id) continue;
 225:lvgl/src/widgets/lv_btnmatrix.c ****                 if(!(btnm->ctrl_bits[btn_idx] & LV_BTNMATRIX_CTRL_HIDDEN)) all_buttons_hidden = fal
 226:lvgl/src/widgets/lv_btnmatrix.c ****             }
 227:lvgl/src/widgets/lv_btnmatrix.c **** 
 228:lvgl/src/widgets/lv_btnmatrix.c ****         }
 229:lvgl/src/widgets/lv_btnmatrix.c ****         if(all_buttons_hidden) lv_obj_add_flag(obj, LV_OBJ_FLAG_HIDDEN);
 230:lvgl/src/widgets/lv_btnmatrix.c ****     }
 231:lvgl/src/widgets/lv_btnmatrix.c **** 
 232:lvgl/src/widgets/lv_btnmatrix.c ****     btnm->ctrl_bits[btn_id] |= ctrl;
 233:lvgl/src/widgets/lv_btnmatrix.c ****     invalidate_button_area(obj, btn_id);
 234:lvgl/src/widgets/lv_btnmatrix.c **** 
 235:lvgl/src/widgets/lv_btnmatrix.c ****     if(ctrl & LV_BTNMATRIX_CTRL_POPOVER) {
 236:lvgl/src/widgets/lv_btnmatrix.c ****         lv_obj_refresh_ext_draw_size(obj);
 237:lvgl/src/widgets/lv_btnmatrix.c ****     }
 238:lvgl/src/widgets/lv_btnmatrix.c **** }
 239:lvgl/src/widgets/lv_btnmatrix.c **** 
 240:lvgl/src/widgets/lv_btnmatrix.c **** void lv_btnmatrix_clear_btn_ctrl(lv_obj_t * obj, uint16_t btn_id, lv_btnmatrix_ctrl_t ctrl)
 241:lvgl/src/widgets/lv_btnmatrix.c **** {
 242:lvgl/src/widgets/lv_btnmatrix.c ****     LV_ASSERT_OBJ(obj, MY_CLASS);
 243:lvgl/src/widgets/lv_btnmatrix.c **** 
 244:lvgl/src/widgets/lv_btnmatrix.c ****     lv_btnmatrix_t * btnm = (lv_btnmatrix_t *)obj;
 245:lvgl/src/widgets/lv_btnmatrix.c **** 
 246:lvgl/src/widgets/lv_btnmatrix.c ****     if(btn_id >= btnm->btn_cnt) return;
 247:lvgl/src/widgets/lv_btnmatrix.c **** 
 248:lvgl/src/widgets/lv_btnmatrix.c ****     /* If all buttons were hidden the whole button matrix is hidden so we need to check and remove 
 249:lvgl/src/widgets/lv_btnmatrix.c ****     if(ctrl & LV_BTNMATRIX_CTRL_HIDDEN) {
 250:lvgl/src/widgets/lv_btnmatrix.c ****         if(lv_obj_has_flag(obj, LV_OBJ_FLAG_HIDDEN)) lv_obj_clear_flag(obj, LV_OBJ_FLAG_HIDDEN);
 251:lvgl/src/widgets/lv_btnmatrix.c ****     }
 252:lvgl/src/widgets/lv_btnmatrix.c **** 
 253:lvgl/src/widgets/lv_btnmatrix.c ****     btnm->ctrl_bits[btn_id] &= (~ctrl);
 254:lvgl/src/widgets/lv_btnmatrix.c ****     invalidate_button_area(obj, btn_id);
 255:lvgl/src/widgets/lv_btnmatrix.c **** 
 256:lvgl/src/widgets/lv_btnmatrix.c ****     if(ctrl & LV_BTNMATRIX_CTRL_POPOVER) {
 257:lvgl/src/widgets/lv_btnmatrix.c ****         lv_obj_refresh_ext_draw_size(obj);
 258:lvgl/src/widgets/lv_btnmatrix.c ****     }
ARM GAS  /var/folders/21/t9g5rlb91ys800n5npymflf80000gn/T//ccSbQiFP.s 			page 6


 259:lvgl/src/widgets/lv_btnmatrix.c **** }
 260:lvgl/src/widgets/lv_btnmatrix.c **** 
 261:lvgl/src/widgets/lv_btnmatrix.c **** void lv_btnmatrix_set_btn_ctrl_all(lv_obj_t * obj, lv_btnmatrix_ctrl_t ctrl)
 262:lvgl/src/widgets/lv_btnmatrix.c **** {
 263:lvgl/src/widgets/lv_btnmatrix.c ****     LV_ASSERT_OBJ(obj, MY_CLASS);
 264:lvgl/src/widgets/lv_btnmatrix.c **** 
 265:lvgl/src/widgets/lv_btnmatrix.c ****     lv_btnmatrix_t * btnm = (lv_btnmatrix_t *)obj;;
 266:lvgl/src/widgets/lv_btnmatrix.c ****     uint16_t i;
 267:lvgl/src/widgets/lv_btnmatrix.c ****     for(i = 0; i < btnm->btn_cnt; i++) {
 268:lvgl/src/widgets/lv_btnmatrix.c ****         lv_btnmatrix_set_btn_ctrl(obj, i, ctrl);
 269:lvgl/src/widgets/lv_btnmatrix.c ****     }
 270:lvgl/src/widgets/lv_btnmatrix.c **** }
 271:lvgl/src/widgets/lv_btnmatrix.c **** 
 272:lvgl/src/widgets/lv_btnmatrix.c **** void lv_btnmatrix_clear_btn_ctrl_all(lv_obj_t * obj, lv_btnmatrix_ctrl_t ctrl)
 273:lvgl/src/widgets/lv_btnmatrix.c **** {
 274:lvgl/src/widgets/lv_btnmatrix.c ****     LV_ASSERT_OBJ(obj, MY_CLASS);
 275:lvgl/src/widgets/lv_btnmatrix.c **** 
 276:lvgl/src/widgets/lv_btnmatrix.c ****     lv_btnmatrix_t * btnm = (lv_btnmatrix_t *)obj;;
 277:lvgl/src/widgets/lv_btnmatrix.c ****     uint16_t i;
 278:lvgl/src/widgets/lv_btnmatrix.c ****     for(i = 0; i < btnm->btn_cnt; i++) {
 279:lvgl/src/widgets/lv_btnmatrix.c ****         lv_btnmatrix_clear_btn_ctrl(obj, i, ctrl);
 280:lvgl/src/widgets/lv_btnmatrix.c ****     }
 281:lvgl/src/widgets/lv_btnmatrix.c **** }
 282:lvgl/src/widgets/lv_btnmatrix.c **** 
 283:lvgl/src/widgets/lv_btnmatrix.c **** void lv_btnmatrix_set_btn_width(lv_obj_t * obj, uint16_t btn_id, uint8_t width)
 284:lvgl/src/widgets/lv_btnmatrix.c **** {
 285:lvgl/src/widgets/lv_btnmatrix.c ****     LV_ASSERT_OBJ(obj, MY_CLASS);
 286:lvgl/src/widgets/lv_btnmatrix.c **** 
 287:lvgl/src/widgets/lv_btnmatrix.c ****     lv_btnmatrix_t * btnm = (lv_btnmatrix_t *)obj;;
 288:lvgl/src/widgets/lv_btnmatrix.c ****     if(btn_id >= btnm->btn_cnt) return;
 289:lvgl/src/widgets/lv_btnmatrix.c ****     btnm->ctrl_bits[btn_id] &= (~LV_BTNMATRIX_WIDTH_MASK);
 290:lvgl/src/widgets/lv_btnmatrix.c ****     btnm->ctrl_bits[btn_id] |= (LV_BTNMATRIX_WIDTH_MASK & width);
 291:lvgl/src/widgets/lv_btnmatrix.c **** 
 292:lvgl/src/widgets/lv_btnmatrix.c ****     lv_btnmatrix_set_map(obj, btnm->map_p);
 293:lvgl/src/widgets/lv_btnmatrix.c **** }
 294:lvgl/src/widgets/lv_btnmatrix.c **** 
 295:lvgl/src/widgets/lv_btnmatrix.c **** void lv_btnmatrix_set_one_checked(lv_obj_t * obj, bool en)
 296:lvgl/src/widgets/lv_btnmatrix.c **** {
 297:lvgl/src/widgets/lv_btnmatrix.c ****     LV_ASSERT_OBJ(obj, MY_CLASS);
 298:lvgl/src/widgets/lv_btnmatrix.c **** 
 299:lvgl/src/widgets/lv_btnmatrix.c ****     lv_btnmatrix_t * btnm = (lv_btnmatrix_t *)obj;;
 300:lvgl/src/widgets/lv_btnmatrix.c ****     btnm->one_check     = en;
 301:lvgl/src/widgets/lv_btnmatrix.c **** 
 302:lvgl/src/widgets/lv_btnmatrix.c ****     /*If more than one button is toggled only the first one should be*/
 303:lvgl/src/widgets/lv_btnmatrix.c ****     make_one_button_checked(obj, 0);
 304:lvgl/src/widgets/lv_btnmatrix.c **** }
 305:lvgl/src/widgets/lv_btnmatrix.c **** 
 306:lvgl/src/widgets/lv_btnmatrix.c **** /*=====================
 307:lvgl/src/widgets/lv_btnmatrix.c ****  * Getter functions
 308:lvgl/src/widgets/lv_btnmatrix.c ****  *====================*/
 309:lvgl/src/widgets/lv_btnmatrix.c **** 
 310:lvgl/src/widgets/lv_btnmatrix.c **** const char ** lv_btnmatrix_get_map(const lv_obj_t * obj)
 311:lvgl/src/widgets/lv_btnmatrix.c **** {
 312:lvgl/src/widgets/lv_btnmatrix.c ****     LV_ASSERT_OBJ(obj, MY_CLASS);
 313:lvgl/src/widgets/lv_btnmatrix.c **** 
 314:lvgl/src/widgets/lv_btnmatrix.c ****     lv_btnmatrix_t * btnm = (lv_btnmatrix_t *)obj;;
 315:lvgl/src/widgets/lv_btnmatrix.c ****     return btnm->map_p;
ARM GAS  /var/folders/21/t9g5rlb91ys800n5npymflf80000gn/T//ccSbQiFP.s 			page 7


 316:lvgl/src/widgets/lv_btnmatrix.c **** }
 317:lvgl/src/widgets/lv_btnmatrix.c **** 
 318:lvgl/src/widgets/lv_btnmatrix.c **** uint16_t lv_btnmatrix_get_selected_btn(const lv_obj_t * obj)
 319:lvgl/src/widgets/lv_btnmatrix.c **** {
 320:lvgl/src/widgets/lv_btnmatrix.c ****     LV_ASSERT_OBJ(obj, MY_CLASS);
 321:lvgl/src/widgets/lv_btnmatrix.c **** 
 322:lvgl/src/widgets/lv_btnmatrix.c ****     lv_btnmatrix_t * btnm = (lv_btnmatrix_t *)obj;;
 323:lvgl/src/widgets/lv_btnmatrix.c ****     return btnm->btn_id_sel;
 324:lvgl/src/widgets/lv_btnmatrix.c **** }
 325:lvgl/src/widgets/lv_btnmatrix.c **** 
 326:lvgl/src/widgets/lv_btnmatrix.c **** const char * lv_btnmatrix_get_btn_text(const lv_obj_t * obj, uint16_t btn_id)
 327:lvgl/src/widgets/lv_btnmatrix.c **** {
 328:lvgl/src/widgets/lv_btnmatrix.c ****     LV_ASSERT_OBJ(obj, MY_CLASS);
 329:lvgl/src/widgets/lv_btnmatrix.c **** 
 330:lvgl/src/widgets/lv_btnmatrix.c ****     if(btn_id == LV_BTNMATRIX_BTN_NONE) return NULL;
 331:lvgl/src/widgets/lv_btnmatrix.c **** 
 332:lvgl/src/widgets/lv_btnmatrix.c ****     lv_btnmatrix_t * btnm = (lv_btnmatrix_t *)obj;
 333:lvgl/src/widgets/lv_btnmatrix.c ****     if(btn_id > btnm->btn_cnt) return NULL;
 334:lvgl/src/widgets/lv_btnmatrix.c **** 
 335:lvgl/src/widgets/lv_btnmatrix.c ****     uint16_t txt_i = 0;
 336:lvgl/src/widgets/lv_btnmatrix.c ****     uint16_t btn_i = 0;
 337:lvgl/src/widgets/lv_btnmatrix.c **** 
 338:lvgl/src/widgets/lv_btnmatrix.c ****     /*Search the text of btnm->btn_pr the buttons text in the map
 339:lvgl/src/widgets/lv_btnmatrix.c ****      *Skip "\n"-s*/
 340:lvgl/src/widgets/lv_btnmatrix.c ****     while(btn_i != btn_id) {
 341:lvgl/src/widgets/lv_btnmatrix.c ****         btn_i++;
 342:lvgl/src/widgets/lv_btnmatrix.c ****         txt_i++;
 343:lvgl/src/widgets/lv_btnmatrix.c ****         if(strcmp(btnm->map_p[txt_i], "\n") == 0) txt_i++;
 344:lvgl/src/widgets/lv_btnmatrix.c ****     }
 345:lvgl/src/widgets/lv_btnmatrix.c **** 
 346:lvgl/src/widgets/lv_btnmatrix.c ****     if(btn_i == btnm->btn_cnt) return NULL;
 347:lvgl/src/widgets/lv_btnmatrix.c **** 
 348:lvgl/src/widgets/lv_btnmatrix.c ****     return btnm->map_p[txt_i];
 349:lvgl/src/widgets/lv_btnmatrix.c **** }
 350:lvgl/src/widgets/lv_btnmatrix.c **** 
 351:lvgl/src/widgets/lv_btnmatrix.c **** bool lv_btnmatrix_has_btn_ctrl(lv_obj_t * obj, uint16_t btn_id, lv_btnmatrix_ctrl_t ctrl)
 352:lvgl/src/widgets/lv_btnmatrix.c **** {
 353:lvgl/src/widgets/lv_btnmatrix.c ****     LV_ASSERT_OBJ(obj, MY_CLASS);
 354:lvgl/src/widgets/lv_btnmatrix.c **** 
 355:lvgl/src/widgets/lv_btnmatrix.c ****     lv_btnmatrix_t * btnm = (lv_btnmatrix_t *)obj;;
 356:lvgl/src/widgets/lv_btnmatrix.c ****     if(btn_id >= btnm->btn_cnt) return false;
 357:lvgl/src/widgets/lv_btnmatrix.c **** 
 358:lvgl/src/widgets/lv_btnmatrix.c ****     return ((btnm->ctrl_bits[btn_id] & ctrl) == ctrl) ? true : false;
 359:lvgl/src/widgets/lv_btnmatrix.c **** }
 360:lvgl/src/widgets/lv_btnmatrix.c **** 
 361:lvgl/src/widgets/lv_btnmatrix.c **** bool lv_btnmatrix_get_one_checked(const lv_obj_t * obj)
 362:lvgl/src/widgets/lv_btnmatrix.c **** {
 363:lvgl/src/widgets/lv_btnmatrix.c ****     LV_ASSERT_OBJ(obj, MY_CLASS);
 364:lvgl/src/widgets/lv_btnmatrix.c **** 
 365:lvgl/src/widgets/lv_btnmatrix.c ****     lv_btnmatrix_t * btnm = (lv_btnmatrix_t *)obj;;
 366:lvgl/src/widgets/lv_btnmatrix.c **** 
 367:lvgl/src/widgets/lv_btnmatrix.c ****     return btnm->one_check;
 368:lvgl/src/widgets/lv_btnmatrix.c **** }
 369:lvgl/src/widgets/lv_btnmatrix.c **** 
 370:lvgl/src/widgets/lv_btnmatrix.c **** /**********************
 371:lvgl/src/widgets/lv_btnmatrix.c ****  *   STATIC FUNCTIONS
 372:lvgl/src/widgets/lv_btnmatrix.c ****  **********************/
ARM GAS  /var/folders/21/t9g5rlb91ys800n5npymflf80000gn/T//ccSbQiFP.s 			page 8


 373:lvgl/src/widgets/lv_btnmatrix.c **** 
 374:lvgl/src/widgets/lv_btnmatrix.c **** static void lv_btnmatrix_constructor(const lv_obj_class_t * class_p, lv_obj_t * obj)
 375:lvgl/src/widgets/lv_btnmatrix.c **** {
 376:lvgl/src/widgets/lv_btnmatrix.c ****     LV_UNUSED(class_p);
 377:lvgl/src/widgets/lv_btnmatrix.c ****     LV_TRACE_OBJ_CREATE("begin");
 378:lvgl/src/widgets/lv_btnmatrix.c ****     lv_btnmatrix_t * btnm = (lv_btnmatrix_t *)obj;
 379:lvgl/src/widgets/lv_btnmatrix.c ****     btnm->btn_cnt        = 0;
 380:lvgl/src/widgets/lv_btnmatrix.c ****     btnm->row_cnt        = 0;
 381:lvgl/src/widgets/lv_btnmatrix.c ****     btnm->btn_id_sel     = LV_BTNMATRIX_BTN_NONE;
 382:lvgl/src/widgets/lv_btnmatrix.c ****     btnm->button_areas   = NULL;
 383:lvgl/src/widgets/lv_btnmatrix.c ****     btnm->ctrl_bits      = NULL;
 384:lvgl/src/widgets/lv_btnmatrix.c ****     btnm->map_p          = NULL;
 385:lvgl/src/widgets/lv_btnmatrix.c ****     btnm->one_check      = 0;
 386:lvgl/src/widgets/lv_btnmatrix.c **** 
 387:lvgl/src/widgets/lv_btnmatrix.c ****     lv_btnmatrix_set_map(obj, lv_btnmatrix_def_map);
 388:lvgl/src/widgets/lv_btnmatrix.c **** 
 389:lvgl/src/widgets/lv_btnmatrix.c ****     LV_TRACE_OBJ_CREATE("finished");
 390:lvgl/src/widgets/lv_btnmatrix.c **** }
 391:lvgl/src/widgets/lv_btnmatrix.c **** 
 392:lvgl/src/widgets/lv_btnmatrix.c **** static void lv_btnmatrix_destructor(const lv_obj_class_t * class_p, lv_obj_t * obj)
 393:lvgl/src/widgets/lv_btnmatrix.c **** {
 394:lvgl/src/widgets/lv_btnmatrix.c ****     LV_TRACE_OBJ_CREATE("begin");
 395:lvgl/src/widgets/lv_btnmatrix.c ****     LV_UNUSED(class_p);
 396:lvgl/src/widgets/lv_btnmatrix.c ****     lv_btnmatrix_t * btnm = (lv_btnmatrix_t *)obj;
 397:lvgl/src/widgets/lv_btnmatrix.c ****     lv_mem_free(btnm->button_areas);
 398:lvgl/src/widgets/lv_btnmatrix.c ****     lv_mem_free(btnm->ctrl_bits);
 399:lvgl/src/widgets/lv_btnmatrix.c ****     btnm->button_areas = NULL;
 400:lvgl/src/widgets/lv_btnmatrix.c ****     btnm->ctrl_bits = NULL;
 401:lvgl/src/widgets/lv_btnmatrix.c ****     LV_TRACE_OBJ_CREATE("finished");
 402:lvgl/src/widgets/lv_btnmatrix.c **** }
 403:lvgl/src/widgets/lv_btnmatrix.c **** 
 404:lvgl/src/widgets/lv_btnmatrix.c **** static void lv_btnmatrix_event(const lv_obj_class_t * class_p, lv_event_t * e)
 405:lvgl/src/widgets/lv_btnmatrix.c **** {
 406:lvgl/src/widgets/lv_btnmatrix.c ****     LV_UNUSED(class_p);
 407:lvgl/src/widgets/lv_btnmatrix.c **** 
 408:lvgl/src/widgets/lv_btnmatrix.c ****     lv_res_t res;
 409:lvgl/src/widgets/lv_btnmatrix.c **** 
 410:lvgl/src/widgets/lv_btnmatrix.c ****     /*Call the ancestor's event handler*/
 411:lvgl/src/widgets/lv_btnmatrix.c ****     res = lv_obj_event_base(MY_CLASS, e);
 412:lvgl/src/widgets/lv_btnmatrix.c ****     if(res != LV_RES_OK) return;
 413:lvgl/src/widgets/lv_btnmatrix.c **** 
 414:lvgl/src/widgets/lv_btnmatrix.c ****     lv_event_code_t code = lv_event_get_code(e);
 415:lvgl/src/widgets/lv_btnmatrix.c ****     lv_obj_t * obj = lv_event_get_target(e);
 416:lvgl/src/widgets/lv_btnmatrix.c ****     lv_btnmatrix_t * btnm = (lv_btnmatrix_t *)obj;
 417:lvgl/src/widgets/lv_btnmatrix.c ****     lv_point_t p;
 418:lvgl/src/widgets/lv_btnmatrix.c **** 
 419:lvgl/src/widgets/lv_btnmatrix.c ****     if(code == LV_EVENT_REFR_EXT_DRAW_SIZE) {
 420:lvgl/src/widgets/lv_btnmatrix.c ****         if(has_popovers_in_top_row(obj)) {
 421:lvgl/src/widgets/lv_btnmatrix.c ****             /*reserve one row worth of extra space to account for popovers in the top row*/
 422:lvgl/src/widgets/lv_btnmatrix.c ****             lv_coord_t s = btnm->row_cnt > 0 ? lv_obj_get_content_height(obj) / btnm->row_cnt : 0;
 423:lvgl/src/widgets/lv_btnmatrix.c ****             lv_event_set_ext_draw_size(e, s);
 424:lvgl/src/widgets/lv_btnmatrix.c ****         }
 425:lvgl/src/widgets/lv_btnmatrix.c ****     }
 426:lvgl/src/widgets/lv_btnmatrix.c ****     if(code == LV_EVENT_STYLE_CHANGED) {
 427:lvgl/src/widgets/lv_btnmatrix.c ****         lv_btnmatrix_set_map(obj, btnm->map_p);
 428:lvgl/src/widgets/lv_btnmatrix.c ****     }
 429:lvgl/src/widgets/lv_btnmatrix.c ****     else if(code == LV_EVENT_SIZE_CHANGED) {
ARM GAS  /var/folders/21/t9g5rlb91ys800n5npymflf80000gn/T//ccSbQiFP.s 			page 9


 430:lvgl/src/widgets/lv_btnmatrix.c ****         lv_btnmatrix_set_map(obj, btnm->map_p);
 431:lvgl/src/widgets/lv_btnmatrix.c ****     }
 432:lvgl/src/widgets/lv_btnmatrix.c ****     else if(code == LV_EVENT_PRESSED) {
 433:lvgl/src/widgets/lv_btnmatrix.c ****         void * param = lv_event_get_param(e);
 434:lvgl/src/widgets/lv_btnmatrix.c ****         invalidate_button_area(obj, btnm->btn_id_sel);
 435:lvgl/src/widgets/lv_btnmatrix.c **** 
 436:lvgl/src/widgets/lv_btnmatrix.c ****         lv_indev_type_t indev_type = lv_indev_get_type(lv_indev_get_act());
 437:lvgl/src/widgets/lv_btnmatrix.c ****         if(indev_type == LV_INDEV_TYPE_POINTER || indev_type == LV_INDEV_TYPE_BUTTON) {
 438:lvgl/src/widgets/lv_btnmatrix.c ****             uint16_t btn_pr;
 439:lvgl/src/widgets/lv_btnmatrix.c ****             /*Search the pressed area*/
 440:lvgl/src/widgets/lv_btnmatrix.c ****             lv_indev_get_point(param, &p);
 441:lvgl/src/widgets/lv_btnmatrix.c ****             btn_pr = get_button_from_point(obj, &p);
 442:lvgl/src/widgets/lv_btnmatrix.c ****             /*Handle the case where there is no button there*/
 443:lvgl/src/widgets/lv_btnmatrix.c ****             btnm->btn_id_sel = LV_BTNMATRIX_BTN_NONE;
 444:lvgl/src/widgets/lv_btnmatrix.c ****             if(btn_pr != LV_BTNMATRIX_BTN_NONE) {
 445:lvgl/src/widgets/lv_btnmatrix.c ****                 if(button_is_inactive(btnm->ctrl_bits[btn_pr]) == false &&
 446:lvgl/src/widgets/lv_btnmatrix.c ****                    button_is_hidden(btnm->ctrl_bits[btn_pr]) == false) {
 447:lvgl/src/widgets/lv_btnmatrix.c ****                     btnm->btn_id_sel = btn_pr;
 448:lvgl/src/widgets/lv_btnmatrix.c ****                     invalidate_button_area(obj, btnm->btn_id_sel); /*Invalidate the new area*/
 449:lvgl/src/widgets/lv_btnmatrix.c ****                 }
 450:lvgl/src/widgets/lv_btnmatrix.c ****             }
 451:lvgl/src/widgets/lv_btnmatrix.c ****             else {
 452:lvgl/src/widgets/lv_btnmatrix.c ****                 btnm->btn_id_sel = LV_BTNMATRIX_BTN_NONE;
 453:lvgl/src/widgets/lv_btnmatrix.c ****             }
 454:lvgl/src/widgets/lv_btnmatrix.c ****         }
 455:lvgl/src/widgets/lv_btnmatrix.c **** 
 456:lvgl/src/widgets/lv_btnmatrix.c ****         if(btnm->btn_id_sel != LV_BTNMATRIX_BTN_NONE) {
 457:lvgl/src/widgets/lv_btnmatrix.c ****             if(button_is_click_trig(btnm->ctrl_bits[btnm->btn_id_sel]) == false &&
 458:lvgl/src/widgets/lv_btnmatrix.c ****                button_is_popover(btnm->ctrl_bits[btnm->btn_id_sel]) == false &&
 459:lvgl/src/widgets/lv_btnmatrix.c ****                button_is_inactive(btnm->ctrl_bits[btnm->btn_id_sel]) == false &&
 460:lvgl/src/widgets/lv_btnmatrix.c ****                button_is_hidden(btnm->ctrl_bits[btnm->btn_id_sel]) == false) {
 461:lvgl/src/widgets/lv_btnmatrix.c ****                 uint32_t b = btnm->btn_id_sel;
 462:lvgl/src/widgets/lv_btnmatrix.c ****                 res        = lv_event_send(obj, LV_EVENT_VALUE_CHANGED, &b);
 463:lvgl/src/widgets/lv_btnmatrix.c ****                 if(res != LV_RES_OK) return;
 464:lvgl/src/widgets/lv_btnmatrix.c ****             }
 465:lvgl/src/widgets/lv_btnmatrix.c ****         }
 466:lvgl/src/widgets/lv_btnmatrix.c ****     }
 467:lvgl/src/widgets/lv_btnmatrix.c ****     else if(code == LV_EVENT_PRESSING) {
 468:lvgl/src/widgets/lv_btnmatrix.c ****         void * param = lv_event_get_param(e);
 469:lvgl/src/widgets/lv_btnmatrix.c ****         uint16_t btn_pr = LV_BTNMATRIX_BTN_NONE;
 470:lvgl/src/widgets/lv_btnmatrix.c ****         /*Search the pressed area*/
 471:lvgl/src/widgets/lv_btnmatrix.c ****         lv_indev_t * indev = lv_indev_get_act();
 472:lvgl/src/widgets/lv_btnmatrix.c ****         lv_indev_type_t indev_type = lv_indev_get_type(indev);
 473:lvgl/src/widgets/lv_btnmatrix.c ****         if(indev_type == LV_INDEV_TYPE_ENCODER || indev_type == LV_INDEV_TYPE_KEYPAD) return;
 474:lvgl/src/widgets/lv_btnmatrix.c **** 
 475:lvgl/src/widgets/lv_btnmatrix.c ****         lv_indev_get_point(indev, &p);
 476:lvgl/src/widgets/lv_btnmatrix.c ****         btn_pr = get_button_from_point(obj, &p);
 477:lvgl/src/widgets/lv_btnmatrix.c ****         /*Invalidate to old and the new areas*/
 478:lvgl/src/widgets/lv_btnmatrix.c ****         if(btn_pr != btnm->btn_id_sel) {
 479:lvgl/src/widgets/lv_btnmatrix.c ****             if(btnm->btn_id_sel != LV_BTNMATRIX_BTN_NONE) {
 480:lvgl/src/widgets/lv_btnmatrix.c ****                 invalidate_button_area(obj, btnm->btn_id_sel);
 481:lvgl/src/widgets/lv_btnmatrix.c ****             }
 482:lvgl/src/widgets/lv_btnmatrix.c **** 
 483:lvgl/src/widgets/lv_btnmatrix.c ****             btnm->btn_id_sel = btn_pr;
 484:lvgl/src/widgets/lv_btnmatrix.c **** 
 485:lvgl/src/widgets/lv_btnmatrix.c ****             lv_indev_reset_long_press(param); /*Start the log press time again on the new button*/
 486:lvgl/src/widgets/lv_btnmatrix.c ****             if(btn_pr != LV_BTNMATRIX_BTN_NONE &&
ARM GAS  /var/folders/21/t9g5rlb91ys800n5npymflf80000gn/T//ccSbQiFP.s 			page 10


 487:lvgl/src/widgets/lv_btnmatrix.c ****                button_is_inactive(btnm->ctrl_bits[btn_pr]) == false &&
 488:lvgl/src/widgets/lv_btnmatrix.c ****                button_is_hidden(btnm->ctrl_bits[btn_pr]) == false) {
 489:lvgl/src/widgets/lv_btnmatrix.c ****                 invalidate_button_area(obj, btn_pr);
 490:lvgl/src/widgets/lv_btnmatrix.c ****                 /*Send VALUE_CHANGED for the newly pressed button*/
 491:lvgl/src/widgets/lv_btnmatrix.c ****                 if(button_is_click_trig(btnm->ctrl_bits[btn_pr]) == false &&
 492:lvgl/src/widgets/lv_btnmatrix.c ****                    button_is_popover(btnm->ctrl_bits[btnm->btn_id_sel]) == false) {
 493:lvgl/src/widgets/lv_btnmatrix.c ****                     uint32_t b = btn_pr;
 494:lvgl/src/widgets/lv_btnmatrix.c ****                     res = lv_event_send(obj, LV_EVENT_VALUE_CHANGED, &b);
 495:lvgl/src/widgets/lv_btnmatrix.c ****                     if(res != LV_RES_OK) return;
 496:lvgl/src/widgets/lv_btnmatrix.c ****                 }
 497:lvgl/src/widgets/lv_btnmatrix.c ****             }
 498:lvgl/src/widgets/lv_btnmatrix.c ****         }
 499:lvgl/src/widgets/lv_btnmatrix.c ****     }
 500:lvgl/src/widgets/lv_btnmatrix.c ****     else if(code == LV_EVENT_RELEASED) {
 501:lvgl/src/widgets/lv_btnmatrix.c ****         if(btnm->btn_id_sel != LV_BTNMATRIX_BTN_NONE) {
 502:lvgl/src/widgets/lv_btnmatrix.c ****             /*Toggle the button if enabled*/
 503:lvgl/src/widgets/lv_btnmatrix.c ****             if(button_is_checkable(btnm->ctrl_bits[btnm->btn_id_sel]) &&
 504:lvgl/src/widgets/lv_btnmatrix.c ****                !button_is_inactive(btnm->ctrl_bits[btnm->btn_id_sel])) {
 505:lvgl/src/widgets/lv_btnmatrix.c ****                 if(button_get_checked(btnm->ctrl_bits[btnm->btn_id_sel]) && !btnm->one_check) {
 506:lvgl/src/widgets/lv_btnmatrix.c ****                     btnm->ctrl_bits[btnm->btn_id_sel] &= (~LV_BTNMATRIX_CTRL_CHECKED);
 507:lvgl/src/widgets/lv_btnmatrix.c ****                 }
 508:lvgl/src/widgets/lv_btnmatrix.c ****                 else {
 509:lvgl/src/widgets/lv_btnmatrix.c ****                     btnm->ctrl_bits[btnm->btn_id_sel] |= LV_BTNMATRIX_CTRL_CHECKED;
 510:lvgl/src/widgets/lv_btnmatrix.c ****                 }
 511:lvgl/src/widgets/lv_btnmatrix.c ****                 if(btnm->one_check) make_one_button_checked(obj, btnm->btn_id_sel);
 512:lvgl/src/widgets/lv_btnmatrix.c ****             }
 513:lvgl/src/widgets/lv_btnmatrix.c **** 
 514:lvgl/src/widgets/lv_btnmatrix.c ****             if((button_is_click_trig(btnm->ctrl_bits[btnm->btn_id_sel]) == true ||
 515:lvgl/src/widgets/lv_btnmatrix.c ****                 button_is_popover(btnm->ctrl_bits[btnm->btn_id_sel]) == true) &&
 516:lvgl/src/widgets/lv_btnmatrix.c ****                button_is_inactive(btnm->ctrl_bits[btnm->btn_id_sel]) == false &&
 517:lvgl/src/widgets/lv_btnmatrix.c ****                button_is_hidden(btnm->ctrl_bits[btnm->btn_id_sel]) == false) {
 518:lvgl/src/widgets/lv_btnmatrix.c ****                 uint32_t b = btnm->btn_id_sel;
 519:lvgl/src/widgets/lv_btnmatrix.c ****                 res        = lv_event_send(obj, LV_EVENT_VALUE_CHANGED, &b);
 520:lvgl/src/widgets/lv_btnmatrix.c ****                 if(res != LV_RES_OK) return;
 521:lvgl/src/widgets/lv_btnmatrix.c ****             }
 522:lvgl/src/widgets/lv_btnmatrix.c ****         }
 523:lvgl/src/widgets/lv_btnmatrix.c **** 
 524:lvgl/src/widgets/lv_btnmatrix.c ****         /*Invalidate to old pressed area*/;
 525:lvgl/src/widgets/lv_btnmatrix.c ****         invalidate_button_area(obj, btnm->btn_id_sel);
 526:lvgl/src/widgets/lv_btnmatrix.c **** 
 527:lvgl/src/widgets/lv_btnmatrix.c ****     }
 528:lvgl/src/widgets/lv_btnmatrix.c ****     else if(code == LV_EVENT_LONG_PRESSED_REPEAT) {
 529:lvgl/src/widgets/lv_btnmatrix.c ****         if(btnm->btn_id_sel != LV_BTNMATRIX_BTN_NONE) {
 530:lvgl/src/widgets/lv_btnmatrix.c ****             if(button_is_repeat_disabled(btnm->ctrl_bits[btnm->btn_id_sel]) == false &&
 531:lvgl/src/widgets/lv_btnmatrix.c ****                button_is_inactive(btnm->ctrl_bits[btnm->btn_id_sel]) == false &&
 532:lvgl/src/widgets/lv_btnmatrix.c ****                button_is_hidden(btnm->ctrl_bits[btnm->btn_id_sel]) == false) {
 533:lvgl/src/widgets/lv_btnmatrix.c ****                 uint32_t b = btnm->btn_id_sel;
 534:lvgl/src/widgets/lv_btnmatrix.c ****                 res        = lv_event_send(obj, LV_EVENT_VALUE_CHANGED, &b);
 535:lvgl/src/widgets/lv_btnmatrix.c ****                 if(res != LV_RES_OK) return;
 536:lvgl/src/widgets/lv_btnmatrix.c ****             }
 537:lvgl/src/widgets/lv_btnmatrix.c ****         }
 538:lvgl/src/widgets/lv_btnmatrix.c ****     }
 539:lvgl/src/widgets/lv_btnmatrix.c ****     else if(code == LV_EVENT_PRESS_LOST) {
 540:lvgl/src/widgets/lv_btnmatrix.c ****         invalidate_button_area(obj, btnm->btn_id_sel);
 541:lvgl/src/widgets/lv_btnmatrix.c ****         btnm->btn_id_sel = LV_BTNMATRIX_BTN_NONE;
 542:lvgl/src/widgets/lv_btnmatrix.c ****     }
 543:lvgl/src/widgets/lv_btnmatrix.c ****     else if(code == LV_EVENT_FOCUSED) {
ARM GAS  /var/folders/21/t9g5rlb91ys800n5npymflf80000gn/T//ccSbQiFP.s 			page 11


 544:lvgl/src/widgets/lv_btnmatrix.c ****         if(btnm->btn_cnt == 0) return;
 545:lvgl/src/widgets/lv_btnmatrix.c **** 
 546:lvgl/src/widgets/lv_btnmatrix.c ****         lv_indev_t * indev = lv_event_get_param(e);
 547:lvgl/src/widgets/lv_btnmatrix.c ****         lv_indev_type_t indev_type = lv_indev_get_type(indev);
 548:lvgl/src/widgets/lv_btnmatrix.c **** 
 549:lvgl/src/widgets/lv_btnmatrix.c ****         /*If not focused by an input device assume the last input device*/
 550:lvgl/src/widgets/lv_btnmatrix.c ****         if(indev == NULL) {
 551:lvgl/src/widgets/lv_btnmatrix.c ****             indev = lv_indev_get_next(NULL);
 552:lvgl/src/widgets/lv_btnmatrix.c ****             indev_type = lv_indev_get_type(indev);
 553:lvgl/src/widgets/lv_btnmatrix.c ****         }
 554:lvgl/src/widgets/lv_btnmatrix.c **** 
 555:lvgl/src/widgets/lv_btnmatrix.c ****         bool editing = lv_group_get_editing(lv_obj_get_group(obj));
 556:lvgl/src/widgets/lv_btnmatrix.c ****         /*Focus the first button if there is not selected button*/
 557:lvgl/src/widgets/lv_btnmatrix.c ****         if(btnm->btn_id_sel == LV_BTNMATRIX_BTN_NONE) {
 558:lvgl/src/widgets/lv_btnmatrix.c ****             if(indev_type == LV_INDEV_TYPE_KEYPAD || (indev_type == LV_INDEV_TYPE_ENCODER && editin
 559:lvgl/src/widgets/lv_btnmatrix.c ****                 uint32_t b = 0;
 560:lvgl/src/widgets/lv_btnmatrix.c ****                 if(btnm->one_check) {
 561:lvgl/src/widgets/lv_btnmatrix.c ****                     while(button_is_hidden(btnm->ctrl_bits[b]) || button_is_inactive(btnm->ctrl_bit
 562:lvgl/src/widgets/lv_btnmatrix.c ****                           button_is_checked(btnm->ctrl_bits[b]) == false) b++;
 563:lvgl/src/widgets/lv_btnmatrix.c ****                 }
 564:lvgl/src/widgets/lv_btnmatrix.c ****                 else {
 565:lvgl/src/widgets/lv_btnmatrix.c ****                     while(button_is_hidden(btnm->ctrl_bits[b]) || button_is_inactive(btnm->ctrl_bit
 566:lvgl/src/widgets/lv_btnmatrix.c ****                 }
 567:lvgl/src/widgets/lv_btnmatrix.c **** 
 568:lvgl/src/widgets/lv_btnmatrix.c ****                 btnm->btn_id_sel = b;
 569:lvgl/src/widgets/lv_btnmatrix.c ****             }
 570:lvgl/src/widgets/lv_btnmatrix.c ****             else {
 571:lvgl/src/widgets/lv_btnmatrix.c ****                 btnm->btn_id_sel = LV_BTNMATRIX_BTN_NONE;
 572:lvgl/src/widgets/lv_btnmatrix.c ****             }
 573:lvgl/src/widgets/lv_btnmatrix.c ****         }
 574:lvgl/src/widgets/lv_btnmatrix.c ****     }
 575:lvgl/src/widgets/lv_btnmatrix.c ****     else if(code == LV_EVENT_DEFOCUSED || code == LV_EVENT_LEAVE) {
 576:lvgl/src/widgets/lv_btnmatrix.c ****         if(btnm->btn_id_sel != LV_BTNMATRIX_BTN_NONE) invalidate_button_area(obj, btnm->btn_id_sel)
 577:lvgl/src/widgets/lv_btnmatrix.c ****         btnm->btn_id_sel = LV_BTNMATRIX_BTN_NONE;
 578:lvgl/src/widgets/lv_btnmatrix.c ****     }
 579:lvgl/src/widgets/lv_btnmatrix.c ****     else if(code == LV_EVENT_KEY) {
 580:lvgl/src/widgets/lv_btnmatrix.c **** 
 581:lvgl/src/widgets/lv_btnmatrix.c ****         invalidate_button_area(obj, btnm->btn_id_sel);
 582:lvgl/src/widgets/lv_btnmatrix.c **** 
 583:lvgl/src/widgets/lv_btnmatrix.c ****         char c = *((char *)lv_event_get_param(e));
 584:lvgl/src/widgets/lv_btnmatrix.c ****         if(c == LV_KEY_RIGHT) {
 585:lvgl/src/widgets/lv_btnmatrix.c ****             if(btnm->btn_id_sel == LV_BTNMATRIX_BTN_NONE)  btnm->btn_id_sel = 0;
 586:lvgl/src/widgets/lv_btnmatrix.c ****             else btnm->btn_id_sel++;
 587:lvgl/src/widgets/lv_btnmatrix.c ****             if(btnm->btn_id_sel >= btnm->btn_cnt) btnm->btn_id_sel = 0;
 588:lvgl/src/widgets/lv_btnmatrix.c **** 
 589:lvgl/src/widgets/lv_btnmatrix.c ****             uint16_t btn_id_start = btnm->btn_id_sel;
 590:lvgl/src/widgets/lv_btnmatrix.c ****             while(button_is_hidden(btnm->ctrl_bits[btnm->btn_id_sel]) || button_is_inactive(btnm->c
 591:lvgl/src/widgets/lv_btnmatrix.c ****                 btnm->btn_id_sel++;
 592:lvgl/src/widgets/lv_btnmatrix.c ****                 if(btnm->btn_id_sel >= btnm->btn_cnt) btnm->btn_id_sel = 0;
 593:lvgl/src/widgets/lv_btnmatrix.c **** 
 594:lvgl/src/widgets/lv_btnmatrix.c ****                 if(btnm->btn_id_sel == btn_id_start) {
 595:lvgl/src/widgets/lv_btnmatrix.c ****                     btnm->btn_id_sel = LV_BTNMATRIX_BTN_NONE;
 596:lvgl/src/widgets/lv_btnmatrix.c ****                     break;
 597:lvgl/src/widgets/lv_btnmatrix.c ****                 }
 598:lvgl/src/widgets/lv_btnmatrix.c ****             }
 599:lvgl/src/widgets/lv_btnmatrix.c ****         }
 600:lvgl/src/widgets/lv_btnmatrix.c ****         else if(c == LV_KEY_LEFT) {
ARM GAS  /var/folders/21/t9g5rlb91ys800n5npymflf80000gn/T//ccSbQiFP.s 			page 12


 601:lvgl/src/widgets/lv_btnmatrix.c ****             if(btnm->btn_id_sel == LV_BTNMATRIX_BTN_NONE) btnm->btn_id_sel = 0;
 602:lvgl/src/widgets/lv_btnmatrix.c **** 
 603:lvgl/src/widgets/lv_btnmatrix.c ****             if(btnm->btn_id_sel == 0) btnm->btn_id_sel = btnm->btn_cnt - 1;
 604:lvgl/src/widgets/lv_btnmatrix.c ****             else if(btnm->btn_id_sel > 0) btnm->btn_id_sel--;
 605:lvgl/src/widgets/lv_btnmatrix.c **** 
 606:lvgl/src/widgets/lv_btnmatrix.c ****             uint16_t btn_id_start = btnm->btn_id_sel;
 607:lvgl/src/widgets/lv_btnmatrix.c ****             while(button_is_hidden(btnm->ctrl_bits[btnm->btn_id_sel]) || button_is_inactive(btnm->c
 608:lvgl/src/widgets/lv_btnmatrix.c ****                 if(btnm->btn_id_sel > 0) btnm->btn_id_sel--;
 609:lvgl/src/widgets/lv_btnmatrix.c ****                 else btnm->btn_id_sel = btnm->btn_cnt - 1;
 610:lvgl/src/widgets/lv_btnmatrix.c **** 
 611:lvgl/src/widgets/lv_btnmatrix.c ****                 if(btnm->btn_id_sel == btn_id_start) {
 612:lvgl/src/widgets/lv_btnmatrix.c ****                     btnm->btn_id_sel = LV_BTNMATRIX_BTN_NONE;
 613:lvgl/src/widgets/lv_btnmatrix.c ****                     break;
 614:lvgl/src/widgets/lv_btnmatrix.c ****                 }
 615:lvgl/src/widgets/lv_btnmatrix.c ****             }
 616:lvgl/src/widgets/lv_btnmatrix.c ****         }
 617:lvgl/src/widgets/lv_btnmatrix.c ****         else if(c == LV_KEY_DOWN) {
 618:lvgl/src/widgets/lv_btnmatrix.c ****             lv_coord_t col_gap = lv_obj_get_style_pad_column(obj, LV_PART_MAIN);
 619:lvgl/src/widgets/lv_btnmatrix.c ****             /*Find the area below the current*/
 620:lvgl/src/widgets/lv_btnmatrix.c ****             if(btnm->btn_id_sel == LV_BTNMATRIX_BTN_NONE) {
 621:lvgl/src/widgets/lv_btnmatrix.c ****                 btnm->btn_id_sel = 0;
 622:lvgl/src/widgets/lv_btnmatrix.c ****                 while(button_is_hidden(btnm->ctrl_bits[btnm->btn_id_sel]) || button_is_inactive(btn
 623:lvgl/src/widgets/lv_btnmatrix.c ****                     btnm->btn_id_sel++;
 624:lvgl/src/widgets/lv_btnmatrix.c ****                     if(btnm->btn_id_sel >= btnm->btn_cnt) {
 625:lvgl/src/widgets/lv_btnmatrix.c ****                         btnm->btn_id_sel = LV_BTNMATRIX_BTN_NONE;
 626:lvgl/src/widgets/lv_btnmatrix.c ****                         break;
 627:lvgl/src/widgets/lv_btnmatrix.c ****                     }
 628:lvgl/src/widgets/lv_btnmatrix.c ****                 }
 629:lvgl/src/widgets/lv_btnmatrix.c ****             }
 630:lvgl/src/widgets/lv_btnmatrix.c ****             else {
 631:lvgl/src/widgets/lv_btnmatrix.c ****                 uint16_t area_below;
 632:lvgl/src/widgets/lv_btnmatrix.c ****                 lv_coord_t pr_center =
 633:lvgl/src/widgets/lv_btnmatrix.c ****                     btnm->button_areas[btnm->btn_id_sel].x1 + (lv_area_get_width(&btnm->button_area
 634:lvgl/src/widgets/lv_btnmatrix.c **** 
 635:lvgl/src/widgets/lv_btnmatrix.c ****                 for(area_below = btnm->btn_id_sel; area_below < btnm->btn_cnt; area_below++) {
 636:lvgl/src/widgets/lv_btnmatrix.c ****                     if(btnm->button_areas[area_below].y1 > btnm->button_areas[btnm->btn_id_sel].y1 
 637:lvgl/src/widgets/lv_btnmatrix.c ****                        pr_center >= btnm->button_areas[area_below].x1 &&
 638:lvgl/src/widgets/lv_btnmatrix.c ****                        pr_center <= btnm->button_areas[area_below].x2 + col_gap &&
 639:lvgl/src/widgets/lv_btnmatrix.c ****                        button_is_inactive(btnm->ctrl_bits[area_below]) == false &&
 640:lvgl/src/widgets/lv_btnmatrix.c ****                        button_is_hidden(btnm->ctrl_bits[area_below]) == false) {
 641:lvgl/src/widgets/lv_btnmatrix.c ****                         break;
 642:lvgl/src/widgets/lv_btnmatrix.c ****                     }
 643:lvgl/src/widgets/lv_btnmatrix.c ****                 }
 644:lvgl/src/widgets/lv_btnmatrix.c **** 
 645:lvgl/src/widgets/lv_btnmatrix.c ****                 if(area_below < btnm->btn_cnt) btnm->btn_id_sel = area_below;
 646:lvgl/src/widgets/lv_btnmatrix.c ****             }
 647:lvgl/src/widgets/lv_btnmatrix.c ****         }
 648:lvgl/src/widgets/lv_btnmatrix.c ****         else if(c == LV_KEY_UP) {
 649:lvgl/src/widgets/lv_btnmatrix.c ****             lv_coord_t col_gap = lv_obj_get_style_pad_column(obj, LV_PART_MAIN);
 650:lvgl/src/widgets/lv_btnmatrix.c ****             /*Find the area below the current*/
 651:lvgl/src/widgets/lv_btnmatrix.c ****             if(btnm->btn_id_sel == LV_BTNMATRIX_BTN_NONE) {
 652:lvgl/src/widgets/lv_btnmatrix.c ****                 btnm->btn_id_sel = 0;
 653:lvgl/src/widgets/lv_btnmatrix.c ****                 while(button_is_hidden(btnm->ctrl_bits[btnm->btn_id_sel]) || button_is_inactive(btn
 654:lvgl/src/widgets/lv_btnmatrix.c ****                     btnm->btn_id_sel++;
 655:lvgl/src/widgets/lv_btnmatrix.c ****                     if(btnm->btn_id_sel >= btnm->btn_cnt) {
 656:lvgl/src/widgets/lv_btnmatrix.c ****                         btnm->btn_id_sel = LV_BTNMATRIX_BTN_NONE;
 657:lvgl/src/widgets/lv_btnmatrix.c ****                         break;
ARM GAS  /var/folders/21/t9g5rlb91ys800n5npymflf80000gn/T//ccSbQiFP.s 			page 13


 658:lvgl/src/widgets/lv_btnmatrix.c ****                     }
 659:lvgl/src/widgets/lv_btnmatrix.c ****                 }
 660:lvgl/src/widgets/lv_btnmatrix.c ****             }
 661:lvgl/src/widgets/lv_btnmatrix.c ****             else {
 662:lvgl/src/widgets/lv_btnmatrix.c ****                 int16_t area_above;
 663:lvgl/src/widgets/lv_btnmatrix.c ****                 lv_coord_t pr_center =
 664:lvgl/src/widgets/lv_btnmatrix.c ****                     btnm->button_areas[btnm->btn_id_sel].x1 + (lv_area_get_width(&btnm->button_area
 665:lvgl/src/widgets/lv_btnmatrix.c **** 
 666:lvgl/src/widgets/lv_btnmatrix.c ****                 for(area_above = btnm->btn_id_sel; area_above >= 0; area_above--) {
 667:lvgl/src/widgets/lv_btnmatrix.c ****                     if(btnm->button_areas[area_above].y1 < btnm->button_areas[btnm->btn_id_sel].y1 
 668:lvgl/src/widgets/lv_btnmatrix.c ****                        pr_center >= btnm->button_areas[area_above].x1 - col_gap &&
 669:lvgl/src/widgets/lv_btnmatrix.c ****                        pr_center <= btnm->button_areas[area_above].x2 &&
 670:lvgl/src/widgets/lv_btnmatrix.c ****                        button_is_inactive(btnm->ctrl_bits[area_above]) == false &&
 671:lvgl/src/widgets/lv_btnmatrix.c ****                        button_is_hidden(btnm->ctrl_bits[area_above]) == false) {
 672:lvgl/src/widgets/lv_btnmatrix.c ****                         break;
 673:lvgl/src/widgets/lv_btnmatrix.c ****                     }
 674:lvgl/src/widgets/lv_btnmatrix.c ****                 }
 675:lvgl/src/widgets/lv_btnmatrix.c ****                 if(area_above >= 0) btnm->btn_id_sel = area_above;
 676:lvgl/src/widgets/lv_btnmatrix.c ****             }
 677:lvgl/src/widgets/lv_btnmatrix.c ****         }
 678:lvgl/src/widgets/lv_btnmatrix.c **** 
 679:lvgl/src/widgets/lv_btnmatrix.c ****         invalidate_button_area(obj, btnm->btn_id_sel);
 680:lvgl/src/widgets/lv_btnmatrix.c ****     }
 681:lvgl/src/widgets/lv_btnmatrix.c ****     else if(code == LV_EVENT_DRAW_MAIN) {
 682:lvgl/src/widgets/lv_btnmatrix.c ****         draw_main(e);
 683:lvgl/src/widgets/lv_btnmatrix.c ****     }
 684:lvgl/src/widgets/lv_btnmatrix.c **** 
 685:lvgl/src/widgets/lv_btnmatrix.c **** }
 686:lvgl/src/widgets/lv_btnmatrix.c **** 
 687:lvgl/src/widgets/lv_btnmatrix.c **** static void draw_main(lv_event_t * e)
 688:lvgl/src/widgets/lv_btnmatrix.c **** {
 689:lvgl/src/widgets/lv_btnmatrix.c ****     lv_obj_t * obj = lv_event_get_target(e);
 690:lvgl/src/widgets/lv_btnmatrix.c ****     lv_btnmatrix_t * btnm = (lv_btnmatrix_t *)obj;
 691:lvgl/src/widgets/lv_btnmatrix.c ****     if(btnm->btn_cnt == 0) return;
 692:lvgl/src/widgets/lv_btnmatrix.c **** 
 693:lvgl/src/widgets/lv_btnmatrix.c ****     lv_draw_ctx_t * draw_ctx = lv_event_get_draw_ctx(e);
 694:lvgl/src/widgets/lv_btnmatrix.c ****     obj->skip_trans = 1;
 695:lvgl/src/widgets/lv_btnmatrix.c **** 
 696:lvgl/src/widgets/lv_btnmatrix.c ****     lv_area_t area_obj;
 697:lvgl/src/widgets/lv_btnmatrix.c ****     lv_obj_get_coords(obj, &area_obj);
 698:lvgl/src/widgets/lv_btnmatrix.c **** 
 699:lvgl/src/widgets/lv_btnmatrix.c ****     lv_area_t btn_area;
 700:lvgl/src/widgets/lv_btnmatrix.c **** 
 701:lvgl/src/widgets/lv_btnmatrix.c ****     uint16_t btn_i = 0;
 702:lvgl/src/widgets/lv_btnmatrix.c ****     uint16_t txt_i = 0;
 703:lvgl/src/widgets/lv_btnmatrix.c **** 
 704:lvgl/src/widgets/lv_btnmatrix.c ****     lv_draw_rect_dsc_t draw_rect_dsc_act;
 705:lvgl/src/widgets/lv_btnmatrix.c ****     lv_draw_label_dsc_t draw_label_dsc_act;
 706:lvgl/src/widgets/lv_btnmatrix.c **** 
 707:lvgl/src/widgets/lv_btnmatrix.c ****     lv_draw_rect_dsc_t draw_rect_dsc_def;
 708:lvgl/src/widgets/lv_btnmatrix.c ****     lv_draw_label_dsc_t draw_label_dsc_def;
 709:lvgl/src/widgets/lv_btnmatrix.c **** 
 710:lvgl/src/widgets/lv_btnmatrix.c ****     lv_state_t state_ori = obj->state;
 711:lvgl/src/widgets/lv_btnmatrix.c ****     obj->state = LV_STATE_DEFAULT;
 712:lvgl/src/widgets/lv_btnmatrix.c ****     obj->skip_trans = 1;
 713:lvgl/src/widgets/lv_btnmatrix.c ****     lv_draw_rect_dsc_init(&draw_rect_dsc_def);
 714:lvgl/src/widgets/lv_btnmatrix.c ****     lv_draw_label_dsc_init(&draw_label_dsc_def);
ARM GAS  /var/folders/21/t9g5rlb91ys800n5npymflf80000gn/T//ccSbQiFP.s 			page 14


 715:lvgl/src/widgets/lv_btnmatrix.c ****     lv_obj_init_draw_rect_dsc(obj, LV_PART_ITEMS, &draw_rect_dsc_def);
 716:lvgl/src/widgets/lv_btnmatrix.c ****     lv_obj_init_draw_label_dsc(obj, LV_PART_ITEMS, &draw_label_dsc_def);
 717:lvgl/src/widgets/lv_btnmatrix.c ****     obj->skip_trans = 0;
 718:lvgl/src/widgets/lv_btnmatrix.c ****     obj->state = state_ori;
 719:lvgl/src/widgets/lv_btnmatrix.c **** 
 720:lvgl/src/widgets/lv_btnmatrix.c ****     lv_coord_t ptop = lv_obj_get_style_pad_top(obj, LV_PART_MAIN);
 721:lvgl/src/widgets/lv_btnmatrix.c ****     lv_coord_t pbottom = lv_obj_get_style_pad_bottom(obj, LV_PART_MAIN);
 722:lvgl/src/widgets/lv_btnmatrix.c ****     lv_coord_t pleft = lv_obj_get_style_pad_left(obj, LV_PART_MAIN);
 723:lvgl/src/widgets/lv_btnmatrix.c ****     lv_coord_t pright = lv_obj_get_style_pad_right(obj, LV_PART_MAIN);
 724:lvgl/src/widgets/lv_btnmatrix.c **** 
 725:lvgl/src/widgets/lv_btnmatrix.c **** #if LV_USE_ARABIC_PERSIAN_CHARS
 726:lvgl/src/widgets/lv_btnmatrix.c ****     const size_t txt_ap_size = 256 ;
 727:lvgl/src/widgets/lv_btnmatrix.c ****     char * txt_ap = lv_mem_buf_get(txt_ap_size);
 728:lvgl/src/widgets/lv_btnmatrix.c **** #endif
 729:lvgl/src/widgets/lv_btnmatrix.c **** 
 730:lvgl/src/widgets/lv_btnmatrix.c ****     lv_obj_draw_part_dsc_t part_draw_dsc;
 731:lvgl/src/widgets/lv_btnmatrix.c ****     lv_obj_draw_dsc_init(&part_draw_dsc, draw_ctx);
 732:lvgl/src/widgets/lv_btnmatrix.c ****     part_draw_dsc.part = LV_PART_ITEMS;
 733:lvgl/src/widgets/lv_btnmatrix.c ****     part_draw_dsc.class_p = MY_CLASS;
 734:lvgl/src/widgets/lv_btnmatrix.c ****     part_draw_dsc.type = LV_BTNMATRIX_DRAW_PART_BTN;
 735:lvgl/src/widgets/lv_btnmatrix.c ****     part_draw_dsc.rect_dsc = &draw_rect_dsc_act;
 736:lvgl/src/widgets/lv_btnmatrix.c ****     part_draw_dsc.label_dsc = &draw_label_dsc_act;
 737:lvgl/src/widgets/lv_btnmatrix.c **** 
 738:lvgl/src/widgets/lv_btnmatrix.c ****     for(btn_i = 0; btn_i < btnm->btn_cnt; btn_i++, txt_i++) {
 739:lvgl/src/widgets/lv_btnmatrix.c ****         /*Search the next valid text in the map*/
 740:lvgl/src/widgets/lv_btnmatrix.c ****         while(strcmp(btnm->map_p[txt_i], "\n") == 0) {
 741:lvgl/src/widgets/lv_btnmatrix.c ****             txt_i++;
 742:lvgl/src/widgets/lv_btnmatrix.c ****         }
 743:lvgl/src/widgets/lv_btnmatrix.c **** 
 744:lvgl/src/widgets/lv_btnmatrix.c ****         /*Skip hidden buttons*/
 745:lvgl/src/widgets/lv_btnmatrix.c ****         if(button_is_hidden(btnm->ctrl_bits[btn_i])) continue;
 746:lvgl/src/widgets/lv_btnmatrix.c **** 
 747:lvgl/src/widgets/lv_btnmatrix.c ****         /*Get the state of the button*/
 748:lvgl/src/widgets/lv_btnmatrix.c ****         lv_state_t btn_state = LV_STATE_DEFAULT;
 749:lvgl/src/widgets/lv_btnmatrix.c ****         if(button_get_checked(btnm->ctrl_bits[btn_i])) btn_state |= LV_STATE_CHECKED;
 750:lvgl/src/widgets/lv_btnmatrix.c **** 
 751:lvgl/src/widgets/lv_btnmatrix.c ****         if(button_is_inactive(btnm->ctrl_bits[btn_i])) btn_state |= LV_STATE_DISABLED;
 752:lvgl/src/widgets/lv_btnmatrix.c ****         else if(btn_i == btnm->btn_id_sel) {
 753:lvgl/src/widgets/lv_btnmatrix.c ****             if(state_ori & LV_STATE_PRESSED) btn_state |= LV_STATE_PRESSED;
 754:lvgl/src/widgets/lv_btnmatrix.c ****             if(state_ori & LV_STATE_FOCUSED) btn_state |= LV_STATE_FOCUSED;
 755:lvgl/src/widgets/lv_btnmatrix.c ****             if(state_ori & LV_STATE_FOCUS_KEY) btn_state |= LV_STATE_FOCUS_KEY;
 756:lvgl/src/widgets/lv_btnmatrix.c ****             if(state_ori & LV_STATE_EDITED) btn_state |= LV_STATE_EDITED;
 757:lvgl/src/widgets/lv_btnmatrix.c ****         }
 758:lvgl/src/widgets/lv_btnmatrix.c **** 
 759:lvgl/src/widgets/lv_btnmatrix.c ****         /*Get the button's area*/
 760:lvgl/src/widgets/lv_btnmatrix.c ****         lv_area_copy(&btn_area, &btnm->button_areas[btn_i]);
 761:lvgl/src/widgets/lv_btnmatrix.c ****         btn_area.x1 += area_obj.x1;
 762:lvgl/src/widgets/lv_btnmatrix.c ****         btn_area.y1 += area_obj.y1;
 763:lvgl/src/widgets/lv_btnmatrix.c ****         btn_area.x2 += area_obj.x1;
 764:lvgl/src/widgets/lv_btnmatrix.c ****         btn_area.y2 += area_obj.y1;
 765:lvgl/src/widgets/lv_btnmatrix.c **** 
 766:lvgl/src/widgets/lv_btnmatrix.c ****         /*Set up the draw descriptors*/
 767:lvgl/src/widgets/lv_btnmatrix.c ****         if(btn_state == LV_STATE_DEFAULT) {
 768:lvgl/src/widgets/lv_btnmatrix.c ****             lv_memcpy(&draw_rect_dsc_act, &draw_rect_dsc_def, sizeof(lv_draw_rect_dsc_t));
 769:lvgl/src/widgets/lv_btnmatrix.c ****             lv_memcpy(&draw_label_dsc_act, &draw_label_dsc_def, sizeof(lv_draw_label_dsc_t));
 770:lvgl/src/widgets/lv_btnmatrix.c ****         }
 771:lvgl/src/widgets/lv_btnmatrix.c ****         /*In other cases get the styles directly without caching them*/
ARM GAS  /var/folders/21/t9g5rlb91ys800n5npymflf80000gn/T//ccSbQiFP.s 			page 15


 772:lvgl/src/widgets/lv_btnmatrix.c ****         else {
 773:lvgl/src/widgets/lv_btnmatrix.c ****             obj->state = btn_state;
 774:lvgl/src/widgets/lv_btnmatrix.c ****             obj->skip_trans = 1;
 775:lvgl/src/widgets/lv_btnmatrix.c ****             lv_draw_rect_dsc_init(&draw_rect_dsc_act);
 776:lvgl/src/widgets/lv_btnmatrix.c ****             lv_draw_label_dsc_init(&draw_label_dsc_act);
 777:lvgl/src/widgets/lv_btnmatrix.c ****             lv_obj_init_draw_rect_dsc(obj, LV_PART_ITEMS, &draw_rect_dsc_act);
 778:lvgl/src/widgets/lv_btnmatrix.c ****             lv_obj_init_draw_label_dsc(obj, LV_PART_ITEMS, &draw_label_dsc_act);
 779:lvgl/src/widgets/lv_btnmatrix.c ****             obj->state = state_ori;
 780:lvgl/src/widgets/lv_btnmatrix.c ****             obj->skip_trans = 0;
 781:lvgl/src/widgets/lv_btnmatrix.c ****         }
 782:lvgl/src/widgets/lv_btnmatrix.c **** 
 783:lvgl/src/widgets/lv_btnmatrix.c ****         bool recolor = button_is_recolor(btnm->ctrl_bits[btn_i]);
 784:lvgl/src/widgets/lv_btnmatrix.c ****         if(recolor) draw_label_dsc_act.flag |= LV_TEXT_FLAG_RECOLOR;
 785:lvgl/src/widgets/lv_btnmatrix.c ****         else draw_label_dsc_act.flag &= ~LV_TEXT_FLAG_RECOLOR;
 786:lvgl/src/widgets/lv_btnmatrix.c **** 
 787:lvgl/src/widgets/lv_btnmatrix.c ****         part_draw_dsc.draw_area = &btn_area;
 788:lvgl/src/widgets/lv_btnmatrix.c ****         part_draw_dsc.id = btn_i;
 789:lvgl/src/widgets/lv_btnmatrix.c ****         lv_event_send(obj, LV_EVENT_DRAW_PART_BEGIN, &part_draw_dsc);
 790:lvgl/src/widgets/lv_btnmatrix.c **** 
 791:lvgl/src/widgets/lv_btnmatrix.c ****         /*Remove borders on the edges if `LV_BORDER_SIDE_INTERNAL`*/
 792:lvgl/src/widgets/lv_btnmatrix.c ****         if(draw_rect_dsc_act.border_side & LV_BORDER_SIDE_INTERNAL) {
 793:lvgl/src/widgets/lv_btnmatrix.c ****             draw_rect_dsc_act.border_side = LV_BORDER_SIDE_FULL;
 794:lvgl/src/widgets/lv_btnmatrix.c ****             if(btn_area.x1 == obj->coords.x1 + pleft) draw_rect_dsc_act.border_side &= ~LV_BORDER_S
 795:lvgl/src/widgets/lv_btnmatrix.c ****             if(btn_area.x2 == obj->coords.x2 - pright) draw_rect_dsc_act.border_side &= ~LV_BORDER_
 796:lvgl/src/widgets/lv_btnmatrix.c ****             if(btn_area.y1 == obj->coords.y1 + ptop) draw_rect_dsc_act.border_side &= ~LV_BORDER_SI
 797:lvgl/src/widgets/lv_btnmatrix.c ****             if(btn_area.y2 == obj->coords.y2 - pbottom) draw_rect_dsc_act.border_side &= ~LV_BORDER
 798:lvgl/src/widgets/lv_btnmatrix.c ****         }
 799:lvgl/src/widgets/lv_btnmatrix.c **** 
 800:lvgl/src/widgets/lv_btnmatrix.c ****         lv_coord_t btn_height = lv_area_get_height(&btn_area);
 801:lvgl/src/widgets/lv_btnmatrix.c **** 
 802:lvgl/src/widgets/lv_btnmatrix.c ****         if((btn_state & LV_STATE_PRESSED) && (btnm->ctrl_bits[btn_i] & LV_BTNMATRIX_CTRL_POPOVER)) 
 803:lvgl/src/widgets/lv_btnmatrix.c ****             /*Push up the upper boundary of the btn area to create the popover*/
 804:lvgl/src/widgets/lv_btnmatrix.c ****             btn_area.y1 -= btn_height;
 805:lvgl/src/widgets/lv_btnmatrix.c ****         }
 806:lvgl/src/widgets/lv_btnmatrix.c **** 
 807:lvgl/src/widgets/lv_btnmatrix.c ****         /*Draw the background*/
 808:lvgl/src/widgets/lv_btnmatrix.c ****         lv_draw_rect(draw_ctx, &draw_rect_dsc_act, &btn_area);
 809:lvgl/src/widgets/lv_btnmatrix.c **** 
 810:lvgl/src/widgets/lv_btnmatrix.c ****         /*Calculate the size of the text*/
 811:lvgl/src/widgets/lv_btnmatrix.c ****         const lv_font_t * font = draw_label_dsc_act.font;
 812:lvgl/src/widgets/lv_btnmatrix.c ****         lv_coord_t letter_space = draw_label_dsc_act.letter_space;
 813:lvgl/src/widgets/lv_btnmatrix.c ****         lv_coord_t line_space = draw_label_dsc_act.line_space;
 814:lvgl/src/widgets/lv_btnmatrix.c ****         const char * txt = btnm->map_p[txt_i];
 815:lvgl/src/widgets/lv_btnmatrix.c **** 
 816:lvgl/src/widgets/lv_btnmatrix.c **** #if LV_USE_ARABIC_PERSIAN_CHARS
 817:lvgl/src/widgets/lv_btnmatrix.c ****         /*Get the size of the Arabic text and process it*/
 818:lvgl/src/widgets/lv_btnmatrix.c ****         size_t len_ap = _lv_txt_ap_calc_bytes_cnt(txt);
 819:lvgl/src/widgets/lv_btnmatrix.c ****         if(len_ap < txt_ap_size) {
 820:lvgl/src/widgets/lv_btnmatrix.c ****             _lv_txt_ap_proc(txt, txt_ap);
 821:lvgl/src/widgets/lv_btnmatrix.c ****             txt = txt_ap;
 822:lvgl/src/widgets/lv_btnmatrix.c ****         }
 823:lvgl/src/widgets/lv_btnmatrix.c **** #endif
 824:lvgl/src/widgets/lv_btnmatrix.c ****         lv_point_t txt_size;
 825:lvgl/src/widgets/lv_btnmatrix.c ****         lv_txt_get_size(&txt_size, txt, font, letter_space,
 826:lvgl/src/widgets/lv_btnmatrix.c ****                         line_space, lv_area_get_width(&area_obj), draw_label_dsc_act.flag);
 827:lvgl/src/widgets/lv_btnmatrix.c **** 
 828:lvgl/src/widgets/lv_btnmatrix.c ****         btn_area.x1 += (lv_area_get_width(&btn_area) - txt_size.x) / 2;
ARM GAS  /var/folders/21/t9g5rlb91ys800n5npymflf80000gn/T//ccSbQiFP.s 			page 16


 829:lvgl/src/widgets/lv_btnmatrix.c ****         btn_area.y1 += (lv_area_get_height(&btn_area) - txt_size.y) / 2;
 830:lvgl/src/widgets/lv_btnmatrix.c ****         btn_area.x2 = btn_area.x1 + txt_size.x;
 831:lvgl/src/widgets/lv_btnmatrix.c ****         btn_area.y2 = btn_area.y1 + txt_size.y;
 832:lvgl/src/widgets/lv_btnmatrix.c **** 
 833:lvgl/src/widgets/lv_btnmatrix.c ****         if((btn_state & LV_STATE_PRESSED) && (btnm->ctrl_bits[btn_i] & LV_BTNMATRIX_CTRL_POPOVER)) 
 834:lvgl/src/widgets/lv_btnmatrix.c ****             /*Push up the button text into the popover*/
 835:lvgl/src/widgets/lv_btnmatrix.c ****             btn_area.y1 -= btn_height / 2;
 836:lvgl/src/widgets/lv_btnmatrix.c ****             btn_area.y2 -= btn_height / 2;
 837:lvgl/src/widgets/lv_btnmatrix.c ****         }
 838:lvgl/src/widgets/lv_btnmatrix.c **** 
 839:lvgl/src/widgets/lv_btnmatrix.c ****         /*Draw the text*/
 840:lvgl/src/widgets/lv_btnmatrix.c ****         lv_draw_label(draw_ctx, &draw_label_dsc_act, &btn_area, txt, NULL);
 841:lvgl/src/widgets/lv_btnmatrix.c **** 
 842:lvgl/src/widgets/lv_btnmatrix.c ****         lv_event_send(obj, LV_EVENT_DRAW_PART_END, &part_draw_dsc);
 843:lvgl/src/widgets/lv_btnmatrix.c ****     }
 844:lvgl/src/widgets/lv_btnmatrix.c **** 
 845:lvgl/src/widgets/lv_btnmatrix.c ****     obj->skip_trans = 0;
 846:lvgl/src/widgets/lv_btnmatrix.c **** #if LV_USE_ARABIC_PERSIAN_CHARS
 847:lvgl/src/widgets/lv_btnmatrix.c ****     lv_mem_buf_release(txt_ap);
 848:lvgl/src/widgets/lv_btnmatrix.c **** #endif
 849:lvgl/src/widgets/lv_btnmatrix.c **** }
 850:lvgl/src/widgets/lv_btnmatrix.c **** /**
 851:lvgl/src/widgets/lv_btnmatrix.c ****  * Create the required number of buttons and control bytes according to a map
 852:lvgl/src/widgets/lv_btnmatrix.c ****  * @param obj pointer to button matrix object
 853:lvgl/src/widgets/lv_btnmatrix.c ****  * @param map_p pointer to a string array
 854:lvgl/src/widgets/lv_btnmatrix.c ****  */
 855:lvgl/src/widgets/lv_btnmatrix.c **** static void allocate_btn_areas_and_controls(const lv_obj_t * obj, const char ** map)
 856:lvgl/src/widgets/lv_btnmatrix.c **** {
 857:lvgl/src/widgets/lv_btnmatrix.c ****     lv_btnmatrix_t * btnm = (lv_btnmatrix_t *)obj;
 858:lvgl/src/widgets/lv_btnmatrix.c ****     btnm->row_cnt = 1;
 859:lvgl/src/widgets/lv_btnmatrix.c ****     /*Count the buttons in the map*/
 860:lvgl/src/widgets/lv_btnmatrix.c ****     uint16_t btn_cnt = 0;
 861:lvgl/src/widgets/lv_btnmatrix.c ****     uint16_t i       = 0;
 862:lvgl/src/widgets/lv_btnmatrix.c ****     while(map[i] && map[i][0] != '\0') {
 863:lvgl/src/widgets/lv_btnmatrix.c ****         if(strcmp(map[i], "\n") != 0) { /*Do not count line breaks*/
 864:lvgl/src/widgets/lv_btnmatrix.c ****             btn_cnt++;
 865:lvgl/src/widgets/lv_btnmatrix.c ****         }
 866:lvgl/src/widgets/lv_btnmatrix.c ****         else {
 867:lvgl/src/widgets/lv_btnmatrix.c ****             btnm->row_cnt++;
 868:lvgl/src/widgets/lv_btnmatrix.c ****         }
 869:lvgl/src/widgets/lv_btnmatrix.c ****         i++;
 870:lvgl/src/widgets/lv_btnmatrix.c ****     }
 871:lvgl/src/widgets/lv_btnmatrix.c **** 
 872:lvgl/src/widgets/lv_btnmatrix.c ****     /*Do not allocate memory for the same amount of buttons*/
 873:lvgl/src/widgets/lv_btnmatrix.c ****     if(btn_cnt == btnm->btn_cnt) return;
 874:lvgl/src/widgets/lv_btnmatrix.c **** 
 875:lvgl/src/widgets/lv_btnmatrix.c ****     if(btnm->button_areas != NULL) {
 876:lvgl/src/widgets/lv_btnmatrix.c ****         lv_mem_free(btnm->button_areas);
 877:lvgl/src/widgets/lv_btnmatrix.c ****         btnm->button_areas = NULL;
 878:lvgl/src/widgets/lv_btnmatrix.c ****     }
 879:lvgl/src/widgets/lv_btnmatrix.c ****     if(btnm->ctrl_bits != NULL) {
 880:lvgl/src/widgets/lv_btnmatrix.c ****         lv_mem_free(btnm->ctrl_bits);
 881:lvgl/src/widgets/lv_btnmatrix.c ****         btnm->ctrl_bits = NULL;
 882:lvgl/src/widgets/lv_btnmatrix.c ****     }
 883:lvgl/src/widgets/lv_btnmatrix.c **** 
 884:lvgl/src/widgets/lv_btnmatrix.c ****     btnm->button_areas = lv_mem_alloc(sizeof(lv_area_t) * btn_cnt);
 885:lvgl/src/widgets/lv_btnmatrix.c ****     LV_ASSERT_MALLOC(btnm->button_areas);
ARM GAS  /var/folders/21/t9g5rlb91ys800n5npymflf80000gn/T//ccSbQiFP.s 			page 17


 886:lvgl/src/widgets/lv_btnmatrix.c ****     btnm->ctrl_bits = lv_mem_alloc(sizeof(lv_btnmatrix_ctrl_t) * btn_cnt);
 887:lvgl/src/widgets/lv_btnmatrix.c ****     LV_ASSERT_MALLOC(btnm->ctrl_bits);
 888:lvgl/src/widgets/lv_btnmatrix.c ****     if(btnm->button_areas == NULL || btnm->ctrl_bits == NULL) btn_cnt = 0;
 889:lvgl/src/widgets/lv_btnmatrix.c **** 
 890:lvgl/src/widgets/lv_btnmatrix.c ****     lv_memset_00(btnm->ctrl_bits, sizeof(lv_btnmatrix_ctrl_t) * btn_cnt);
 891:lvgl/src/widgets/lv_btnmatrix.c **** 
 892:lvgl/src/widgets/lv_btnmatrix.c ****     btnm->btn_cnt = btn_cnt;
 893:lvgl/src/widgets/lv_btnmatrix.c **** }
 894:lvgl/src/widgets/lv_btnmatrix.c **** 
 895:lvgl/src/widgets/lv_btnmatrix.c **** /**
 896:lvgl/src/widgets/lv_btnmatrix.c ****  * Get the width of a button in units (default is 1).
 897:lvgl/src/widgets/lv_btnmatrix.c ****  * @param ctrl_bits least significant 3 bits used (1..7 valid values)
 898:lvgl/src/widgets/lv_btnmatrix.c ****  * @return the width of the button in units
 899:lvgl/src/widgets/lv_btnmatrix.c ****  */
 900:lvgl/src/widgets/lv_btnmatrix.c **** static uint8_t get_button_width(lv_btnmatrix_ctrl_t ctrl_bits)
 901:lvgl/src/widgets/lv_btnmatrix.c **** {
  29              		.loc 1 901 1 view -0
  30              		.cfi_startproc
  31              		@ args = 0, pretend = 0, frame = 0
  32              		@ frame_needed = 0, uses_anonymous_args = 0
  33              		@ link register save eliminated.
 902:lvgl/src/widgets/lv_btnmatrix.c ****     uint8_t w = ctrl_bits & LV_BTNMATRIX_WIDTH_MASK;
  34              		.loc 1 902 5 view .LVU1
 903:lvgl/src/widgets/lv_btnmatrix.c ****     return w != 0 ? w : 1;
  35              		.loc 1 903 5 view .LVU2
  36              		.loc 1 903 23 is_stmt 0 view .LVU3
  37 0000 10F00F00 		ands	r0, r0, #15
  38              	.LVL1:
  39              		.loc 1 903 23 view .LVU4
  40 0004 00D1     		bne	.L2
  41 0006 0120     		movs	r0, #1
  42              	.L2:
 904:lvgl/src/widgets/lv_btnmatrix.c **** }
  43              		.loc 1 904 1 discriminator 4 view .LVU5
  44 0008 7047     		bx	lr
  45              		.cfi_endproc
  46              	.LFE181:
  48              		.section	.text.button_is_hidden,"ax",%progbits
  49              		.align	1
  50              		.syntax unified
  51              		.thumb
  52              		.thumb_func
  54              	button_is_hidden:
  55              	.LVL2:
  56              	.LFB182:
 905:lvgl/src/widgets/lv_btnmatrix.c **** 
 906:lvgl/src/widgets/lv_btnmatrix.c **** static bool button_is_hidden(lv_btnmatrix_ctrl_t ctrl_bits)
 907:lvgl/src/widgets/lv_btnmatrix.c **** {
  57              		.loc 1 907 1 is_stmt 1 view -0
  58              		.cfi_startproc
  59              		@ args = 0, pretend = 0, frame = 0
  60              		@ frame_needed = 0, uses_anonymous_args = 0
  61              		@ link register save eliminated.
 908:lvgl/src/widgets/lv_btnmatrix.c ****     return (ctrl_bits & LV_BTNMATRIX_CTRL_HIDDEN) ? true : false;
  62              		.loc 1 908 5 view .LVU7
 909:lvgl/src/widgets/lv_btnmatrix.c **** }
  63              		.loc 1 909 1 is_stmt 0 view .LVU8
ARM GAS  /var/folders/21/t9g5rlb91ys800n5npymflf80000gn/T//ccSbQiFP.s 			page 18


  64 0000 C0F30010 		ubfx	r0, r0, #4, #1
  65              	.LVL3:
  66              		.loc 1 909 1 view .LVU9
  67 0004 7047     		bx	lr
  68              		.cfi_endproc
  69              	.LFE182:
  71              		.section	.text.button_is_checked,"ax",%progbits
  72              		.align	1
  73              		.syntax unified
  74              		.thumb
  75              		.thumb_func
  77              	button_is_checked:
  78              	.LVL4:
  79              	.LFB183:
 910:lvgl/src/widgets/lv_btnmatrix.c **** 
 911:lvgl/src/widgets/lv_btnmatrix.c **** static bool button_is_checked(lv_btnmatrix_ctrl_t ctrl_bits)
 912:lvgl/src/widgets/lv_btnmatrix.c **** {
  80              		.loc 1 912 1 is_stmt 1 view -0
  81              		.cfi_startproc
  82              		@ args = 0, pretend = 0, frame = 0
  83              		@ frame_needed = 0, uses_anonymous_args = 0
  84              		@ link register save eliminated.
 913:lvgl/src/widgets/lv_btnmatrix.c ****     return (ctrl_bits & LV_BTNMATRIX_CTRL_CHECKED) ? true : false;
  85              		.loc 1 913 5 view .LVU11
 914:lvgl/src/widgets/lv_btnmatrix.c **** }
  86              		.loc 1 914 1 is_stmt 0 view .LVU12
  87 0000 C0F30020 		ubfx	r0, r0, #8, #1
  88              	.LVL5:
  89              		.loc 1 914 1 view .LVU13
  90 0004 7047     		bx	lr
  91              		.cfi_endproc
  92              	.LFE183:
  94              		.section	.text.button_is_repeat_disabled,"ax",%progbits
  95              		.align	1
  96              		.syntax unified
  97              		.thumb
  98              		.thumb_func
 100              	button_is_repeat_disabled:
 101              	.LVL6:
 102              	.LFB184:
 915:lvgl/src/widgets/lv_btnmatrix.c **** 
 916:lvgl/src/widgets/lv_btnmatrix.c **** static bool button_is_repeat_disabled(lv_btnmatrix_ctrl_t ctrl_bits)
 917:lvgl/src/widgets/lv_btnmatrix.c **** {
 103              		.loc 1 917 1 is_stmt 1 view -0
 104              		.cfi_startproc
 105              		@ args = 0, pretend = 0, frame = 0
 106              		@ frame_needed = 0, uses_anonymous_args = 0
 107              		@ link register save eliminated.
 918:lvgl/src/widgets/lv_btnmatrix.c ****     return (ctrl_bits & LV_BTNMATRIX_CTRL_NO_REPEAT) ? true : false;
 108              		.loc 1 918 5 view .LVU15
 919:lvgl/src/widgets/lv_btnmatrix.c **** }
 109              		.loc 1 919 1 is_stmt 0 view .LVU16
 110 0000 C0F34010 		ubfx	r0, r0, #5, #1
 111              	.LVL7:
 112              		.loc 1 919 1 view .LVU17
 113 0004 7047     		bx	lr
 114              		.cfi_endproc
ARM GAS  /var/folders/21/t9g5rlb91ys800n5npymflf80000gn/T//ccSbQiFP.s 			page 19


 115              	.LFE184:
 117              		.section	.text.button_is_inactive,"ax",%progbits
 118              		.align	1
 119              		.syntax unified
 120              		.thumb
 121              		.thumb_func
 123              	button_is_inactive:
 124              	.LVL8:
 125              	.LFB185:
 920:lvgl/src/widgets/lv_btnmatrix.c **** 
 921:lvgl/src/widgets/lv_btnmatrix.c **** static bool button_is_inactive(lv_btnmatrix_ctrl_t ctrl_bits)
 922:lvgl/src/widgets/lv_btnmatrix.c **** {
 126              		.loc 1 922 1 is_stmt 1 view -0
 127              		.cfi_startproc
 128              		@ args = 0, pretend = 0, frame = 0
 129              		@ frame_needed = 0, uses_anonymous_args = 0
 130              		@ link register save eliminated.
 923:lvgl/src/widgets/lv_btnmatrix.c ****     return (ctrl_bits & LV_BTNMATRIX_CTRL_DISABLED) ? true : false;
 131              		.loc 1 923 5 view .LVU19
 924:lvgl/src/widgets/lv_btnmatrix.c **** }
 132              		.loc 1 924 1 is_stmt 0 view .LVU20
 133 0000 C0F38010 		ubfx	r0, r0, #6, #1
 134              	.LVL9:
 135              		.loc 1 924 1 view .LVU21
 136 0004 7047     		bx	lr
 137              		.cfi_endproc
 138              	.LFE185:
 140              		.section	.text.button_is_click_trig,"ax",%progbits
 141              		.align	1
 142              		.syntax unified
 143              		.thumb
 144              		.thumb_func
 146              	button_is_click_trig:
 147              	.LVL10:
 148              	.LFB186:
 925:lvgl/src/widgets/lv_btnmatrix.c **** 
 926:lvgl/src/widgets/lv_btnmatrix.c **** static bool button_is_click_trig(lv_btnmatrix_ctrl_t ctrl_bits)
 927:lvgl/src/widgets/lv_btnmatrix.c **** {
 149              		.loc 1 927 1 is_stmt 1 view -0
 150              		.cfi_startproc
 151              		@ args = 0, pretend = 0, frame = 0
 152              		@ frame_needed = 0, uses_anonymous_args = 0
 153              		@ link register save eliminated.
 928:lvgl/src/widgets/lv_btnmatrix.c ****     return (ctrl_bits & LV_BTNMATRIX_CTRL_CLICK_TRIG) ? true : false;
 154              		.loc 1 928 5 view .LVU23
 929:lvgl/src/widgets/lv_btnmatrix.c **** }
 155              		.loc 1 929 1 is_stmt 0 view .LVU24
 156 0000 C0F34020 		ubfx	r0, r0, #9, #1
 157              	.LVL11:
 158              		.loc 1 929 1 view .LVU25
 159 0004 7047     		bx	lr
 160              		.cfi_endproc
 161              	.LFE186:
 163              		.section	.text.button_is_popover,"ax",%progbits
 164              		.align	1
 165              		.syntax unified
 166              		.thumb
ARM GAS  /var/folders/21/t9g5rlb91ys800n5npymflf80000gn/T//ccSbQiFP.s 			page 20


 167              		.thumb_func
 169              	button_is_popover:
 170              	.LVL12:
 171              	.LFB187:
 930:lvgl/src/widgets/lv_btnmatrix.c **** 
 931:lvgl/src/widgets/lv_btnmatrix.c **** static bool button_is_popover(lv_btnmatrix_ctrl_t ctrl_bits)
 932:lvgl/src/widgets/lv_btnmatrix.c **** {
 172              		.loc 1 932 1 is_stmt 1 view -0
 173              		.cfi_startproc
 174              		@ args = 0, pretend = 0, frame = 0
 175              		@ frame_needed = 0, uses_anonymous_args = 0
 176              		@ link register save eliminated.
 933:lvgl/src/widgets/lv_btnmatrix.c ****     return (ctrl_bits & LV_BTNMATRIX_CTRL_POPOVER) ? true : false;
 177              		.loc 1 933 5 view .LVU27
 934:lvgl/src/widgets/lv_btnmatrix.c **** }
 178              		.loc 1 934 1 is_stmt 0 view .LVU28
 179 0000 C0F38020 		ubfx	r0, r0, #10, #1
 180              	.LVL13:
 181              		.loc 1 934 1 view .LVU29
 182 0004 7047     		bx	lr
 183              		.cfi_endproc
 184              	.LFE187:
 186              		.section	.text.button_is_checkable,"ax",%progbits
 187              		.align	1
 188              		.syntax unified
 189              		.thumb
 190              		.thumb_func
 192              	button_is_checkable:
 193              	.LVL14:
 194              	.LFB188:
 935:lvgl/src/widgets/lv_btnmatrix.c **** 
 936:lvgl/src/widgets/lv_btnmatrix.c **** static bool button_is_checkable(lv_btnmatrix_ctrl_t ctrl_bits)
 937:lvgl/src/widgets/lv_btnmatrix.c **** {
 195              		.loc 1 937 1 is_stmt 1 view -0
 196              		.cfi_startproc
 197              		@ args = 0, pretend = 0, frame = 0
 198              		@ frame_needed = 0, uses_anonymous_args = 0
 199              		@ link register save eliminated.
 938:lvgl/src/widgets/lv_btnmatrix.c ****     return (ctrl_bits & LV_BTNMATRIX_CTRL_CHECKABLE) ? true : false;
 200              		.loc 1 938 5 view .LVU31
 939:lvgl/src/widgets/lv_btnmatrix.c **** }
 201              		.loc 1 939 1 is_stmt 0 view .LVU32
 202 0000 C0F3C010 		ubfx	r0, r0, #7, #1
 203              	.LVL15:
 204              		.loc 1 939 1 view .LVU33
 205 0004 7047     		bx	lr
 206              		.cfi_endproc
 207              	.LFE188:
 209              		.section	.text.button_get_checked,"ax",%progbits
 210              		.align	1
 211              		.syntax unified
 212              		.thumb
 213              		.thumb_func
 215              	button_get_checked:
 216              	.LVL16:
 217              	.LFB189:
 940:lvgl/src/widgets/lv_btnmatrix.c **** 
ARM GAS  /var/folders/21/t9g5rlb91ys800n5npymflf80000gn/T//ccSbQiFP.s 			page 21


 941:lvgl/src/widgets/lv_btnmatrix.c **** static bool button_get_checked(lv_btnmatrix_ctrl_t ctrl_bits)
 942:lvgl/src/widgets/lv_btnmatrix.c **** {
 218              		.loc 1 942 1 is_stmt 1 view -0
 219              		.cfi_startproc
 220              		@ args = 0, pretend = 0, frame = 0
 221              		@ frame_needed = 0, uses_anonymous_args = 0
 222              		@ link register save eliminated.
 943:lvgl/src/widgets/lv_btnmatrix.c ****     return (ctrl_bits & LV_BTNMATRIX_CTRL_CHECKED) ? true : false;
 223              		.loc 1 943 5 view .LVU35
 944:lvgl/src/widgets/lv_btnmatrix.c **** }
 224              		.loc 1 944 1 is_stmt 0 view .LVU36
 225 0000 C0F30020 		ubfx	r0, r0, #8, #1
 226              	.LVL17:
 227              		.loc 1 944 1 view .LVU37
 228 0004 7047     		bx	lr
 229              		.cfi_endproc
 230              	.LFE189:
 232              		.section	.text.button_is_recolor,"ax",%progbits
 233              		.align	1
 234              		.syntax unified
 235              		.thumb
 236              		.thumb_func
 238              	button_is_recolor:
 239              	.LVL18:
 240              	.LFB190:
 945:lvgl/src/widgets/lv_btnmatrix.c **** 
 946:lvgl/src/widgets/lv_btnmatrix.c **** static bool button_is_recolor(lv_btnmatrix_ctrl_t ctrl_bits)
 947:lvgl/src/widgets/lv_btnmatrix.c **** {
 241              		.loc 1 947 1 is_stmt 1 view -0
 242              		.cfi_startproc
 243              		@ args = 0, pretend = 0, frame = 0
 244              		@ frame_needed = 0, uses_anonymous_args = 0
 245              		@ link register save eliminated.
 948:lvgl/src/widgets/lv_btnmatrix.c ****     return (ctrl_bits & LV_BTNMATRIX_CTRL_RECOLOR) ? true : false;
 246              		.loc 1 948 5 view .LVU39
 949:lvgl/src/widgets/lv_btnmatrix.c **** }
 247              		.loc 1 949 1 is_stmt 0 view .LVU40
 248 0000 C0F3C020 		ubfx	r0, r0, #11, #1
 249              	.LVL19:
 250              		.loc 1 949 1 view .LVU41
 251 0004 7047     		bx	lr
 252              		.cfi_endproc
 253              	.LFE190:
 255              		.section	.rodata.has_popovers_in_top_row.str1.4,"aMS",%progbits,1
 256              		.align	2
 257              	.LC0:
 258 0000 0A00     		.ascii	"\012\000"
 259              		.section	.text.has_popovers_in_top_row,"ax",%progbits
 260              		.align	1
 261              		.syntax unified
 262              		.thumb
 263              		.thumb_func
 265              	has_popovers_in_top_row:
 266              	.LVL20:
 267              	.LFB194:
 950:lvgl/src/widgets/lv_btnmatrix.c **** /**
 951:lvgl/src/widgets/lv_btnmatrix.c ****  * Gives the button id of a button under a given point
ARM GAS  /var/folders/21/t9g5rlb91ys800n5npymflf80000gn/T//ccSbQiFP.s 			page 22


 952:lvgl/src/widgets/lv_btnmatrix.c ****  * @param obj pointer to a button matrix object
 953:lvgl/src/widgets/lv_btnmatrix.c ****  * @param p a point with absolute coordinates
 954:lvgl/src/widgets/lv_btnmatrix.c ****  * @return the id of the button or LV_BTNMATRIX_BTN_NONE.
 955:lvgl/src/widgets/lv_btnmatrix.c ****  */
 956:lvgl/src/widgets/lv_btnmatrix.c **** static uint16_t get_button_from_point(lv_obj_t * obj, lv_point_t * p)
 957:lvgl/src/widgets/lv_btnmatrix.c **** {
 958:lvgl/src/widgets/lv_btnmatrix.c ****     lv_area_t obj_cords;
 959:lvgl/src/widgets/lv_btnmatrix.c ****     lv_area_t btn_area;
 960:lvgl/src/widgets/lv_btnmatrix.c ****     lv_btnmatrix_t * btnm = (lv_btnmatrix_t *)obj;;
 961:lvgl/src/widgets/lv_btnmatrix.c ****     uint16_t i;
 962:lvgl/src/widgets/lv_btnmatrix.c ****     lv_obj_get_coords(obj, &obj_cords);
 963:lvgl/src/widgets/lv_btnmatrix.c **** 
 964:lvgl/src/widgets/lv_btnmatrix.c ****     lv_coord_t w = lv_obj_get_width(obj);
 965:lvgl/src/widgets/lv_btnmatrix.c ****     lv_coord_t h = lv_obj_get_height(obj);
 966:lvgl/src/widgets/lv_btnmatrix.c ****     lv_coord_t pleft = lv_obj_get_style_pad_left(obj, LV_PART_MAIN);
 967:lvgl/src/widgets/lv_btnmatrix.c ****     lv_coord_t pright = lv_obj_get_style_pad_right(obj, LV_PART_MAIN);
 968:lvgl/src/widgets/lv_btnmatrix.c ****     lv_coord_t ptop = lv_obj_get_style_pad_top(obj, LV_PART_MAIN);
 969:lvgl/src/widgets/lv_btnmatrix.c ****     lv_coord_t pbottom = lv_obj_get_style_pad_bottom(obj, LV_PART_MAIN);
 970:lvgl/src/widgets/lv_btnmatrix.c ****     lv_coord_t prow = lv_obj_get_style_pad_row(obj, LV_PART_MAIN);
 971:lvgl/src/widgets/lv_btnmatrix.c ****     lv_coord_t pcol = lv_obj_get_style_pad_column(obj, LV_PART_MAIN);
 972:lvgl/src/widgets/lv_btnmatrix.c **** 
 973:lvgl/src/widgets/lv_btnmatrix.c ****     /*Get the half gap. Button look larger with this value. (+1 for rounding error)*/
 974:lvgl/src/widgets/lv_btnmatrix.c ****     prow = (prow / 2) + 1 + (prow & 1);
 975:lvgl/src/widgets/lv_btnmatrix.c ****     pcol = (pcol / 2) + 1 + (pcol & 1);
 976:lvgl/src/widgets/lv_btnmatrix.c **** 
 977:lvgl/src/widgets/lv_btnmatrix.c ****     prow = LV_MIN(prow, BTN_EXTRA_CLICK_AREA_MAX);
 978:lvgl/src/widgets/lv_btnmatrix.c ****     pcol = LV_MIN(pcol, BTN_EXTRA_CLICK_AREA_MAX);
 979:lvgl/src/widgets/lv_btnmatrix.c ****     pright = LV_MIN(pright, BTN_EXTRA_CLICK_AREA_MAX);
 980:lvgl/src/widgets/lv_btnmatrix.c ****     ptop = LV_MIN(ptop, BTN_EXTRA_CLICK_AREA_MAX);
 981:lvgl/src/widgets/lv_btnmatrix.c ****     pbottom = LV_MIN(pbottom, BTN_EXTRA_CLICK_AREA_MAX);
 982:lvgl/src/widgets/lv_btnmatrix.c **** 
 983:lvgl/src/widgets/lv_btnmatrix.c ****     for(i = 0; i < btnm->btn_cnt; i++) {
 984:lvgl/src/widgets/lv_btnmatrix.c ****         lv_area_copy(&btn_area, &btnm->button_areas[i]);
 985:lvgl/src/widgets/lv_btnmatrix.c ****         if(btn_area.x1 <= pleft) btn_area.x1 += obj_cords.x1 - LV_MIN(pleft, BTN_EXTRA_CLICK_AREA_M
 986:lvgl/src/widgets/lv_btnmatrix.c ****         else btn_area.x1 += obj_cords.x1 - pcol;
 987:lvgl/src/widgets/lv_btnmatrix.c **** 
 988:lvgl/src/widgets/lv_btnmatrix.c ****         if(btn_area.y1 <= ptop) btn_area.y1 += obj_cords.y1 - LV_MIN(ptop, BTN_EXTRA_CLICK_AREA_MAX
 989:lvgl/src/widgets/lv_btnmatrix.c ****         else btn_area.y1 += obj_cords.y1 - prow;
 990:lvgl/src/widgets/lv_btnmatrix.c **** 
 991:lvgl/src/widgets/lv_btnmatrix.c ****         if(btn_area.x2 >= w - pright - 2) btn_area.x2 += obj_cords.x1 + LV_MIN(pright,
 992:lvgl/src/widgets/lv_btnmatrix.c ****                                                                                    BTN_EXTRA_CLICK_
 993:lvgl/src/widgets/lv_btnmatrix.c ****         else btn_area.x2 += obj_cords.x1 + pcol;
 994:lvgl/src/widgets/lv_btnmatrix.c **** 
 995:lvgl/src/widgets/lv_btnmatrix.c ****         if(btn_area.y2 >= h - pbottom - 2) btn_area.y2 += obj_cords.y1 + LV_MIN(pbottom,
 996:lvgl/src/widgets/lv_btnmatrix.c ****                                                                                     BTN_EXTRA_CLICK
 997:lvgl/src/widgets/lv_btnmatrix.c ****         else btn_area.y2 += obj_cords.y1 + prow;
 998:lvgl/src/widgets/lv_btnmatrix.c **** 
 999:lvgl/src/widgets/lv_btnmatrix.c ****         if(_lv_area_is_point_on(&btn_area, p, 0) != false) {
1000:lvgl/src/widgets/lv_btnmatrix.c ****             break;
1001:lvgl/src/widgets/lv_btnmatrix.c ****         }
1002:lvgl/src/widgets/lv_btnmatrix.c ****     }
1003:lvgl/src/widgets/lv_btnmatrix.c **** 
1004:lvgl/src/widgets/lv_btnmatrix.c ****     if(i == btnm->btn_cnt) i = LV_BTNMATRIX_BTN_NONE;
1005:lvgl/src/widgets/lv_btnmatrix.c **** 
1006:lvgl/src/widgets/lv_btnmatrix.c ****     return i;
1007:lvgl/src/widgets/lv_btnmatrix.c **** }
1008:lvgl/src/widgets/lv_btnmatrix.c **** 
ARM GAS  /var/folders/21/t9g5rlb91ys800n5npymflf80000gn/T//ccSbQiFP.s 			page 23


1009:lvgl/src/widgets/lv_btnmatrix.c **** static void invalidate_button_area(const lv_obj_t * obj, uint16_t btn_idx)
1010:lvgl/src/widgets/lv_btnmatrix.c **** {
1011:lvgl/src/widgets/lv_btnmatrix.c ****     if(btn_idx == LV_BTNMATRIX_BTN_NONE) return;
1012:lvgl/src/widgets/lv_btnmatrix.c **** 
1013:lvgl/src/widgets/lv_btnmatrix.c ****     lv_area_t btn_area;
1014:lvgl/src/widgets/lv_btnmatrix.c ****     lv_area_t obj_area;
1015:lvgl/src/widgets/lv_btnmatrix.c **** 
1016:lvgl/src/widgets/lv_btnmatrix.c ****     lv_btnmatrix_t * btnm = (lv_btnmatrix_t *)obj;;
1017:lvgl/src/widgets/lv_btnmatrix.c ****     if(btn_idx >= btnm->btn_cnt) return;
1018:lvgl/src/widgets/lv_btnmatrix.c **** 
1019:lvgl/src/widgets/lv_btnmatrix.c ****     lv_area_copy(&btn_area, &btnm->button_areas[btn_idx]);
1020:lvgl/src/widgets/lv_btnmatrix.c ****     lv_obj_get_coords(obj, &obj_area);
1021:lvgl/src/widgets/lv_btnmatrix.c **** 
1022:lvgl/src/widgets/lv_btnmatrix.c ****     /*The buttons might have outline and shadow so make the invalidation larger with the gaps betwe
1023:lvgl/src/widgets/lv_btnmatrix.c ****      *It assumes that the outline or shadow is smaller than the gaps*/
1024:lvgl/src/widgets/lv_btnmatrix.c ****     lv_coord_t row_gap = lv_obj_get_style_pad_row(obj, LV_PART_MAIN);
1025:lvgl/src/widgets/lv_btnmatrix.c ****     lv_coord_t col_gap = lv_obj_get_style_pad_column(obj, LV_PART_MAIN);
1026:lvgl/src/widgets/lv_btnmatrix.c **** 
1027:lvgl/src/widgets/lv_btnmatrix.c ****     /*Be sure to have a minimal extra space if row/col_gap is small*/
1028:lvgl/src/widgets/lv_btnmatrix.c ****     lv_coord_t dpi = lv_disp_get_dpi(lv_obj_get_disp(obj));
1029:lvgl/src/widgets/lv_btnmatrix.c ****     row_gap = LV_MAX(row_gap, dpi / 10);
1030:lvgl/src/widgets/lv_btnmatrix.c ****     col_gap = LV_MAX(col_gap, dpi / 10);
1031:lvgl/src/widgets/lv_btnmatrix.c **** 
1032:lvgl/src/widgets/lv_btnmatrix.c ****     /*Convert relative coordinates to absolute*/
1033:lvgl/src/widgets/lv_btnmatrix.c ****     btn_area.x1 += obj_area.x1 - row_gap;
1034:lvgl/src/widgets/lv_btnmatrix.c ****     btn_area.y1 += obj_area.y1 - col_gap;
1035:lvgl/src/widgets/lv_btnmatrix.c ****     btn_area.x2 += obj_area.x1 + row_gap;
1036:lvgl/src/widgets/lv_btnmatrix.c ****     btn_area.y2 += obj_area.y1 + col_gap;
1037:lvgl/src/widgets/lv_btnmatrix.c **** 
1038:lvgl/src/widgets/lv_btnmatrix.c ****     if((btn_idx == btnm->btn_id_sel) && (btnm->ctrl_bits[btn_idx] & LV_BTNMATRIX_CTRL_POPOVER)) {
1039:lvgl/src/widgets/lv_btnmatrix.c ****         /*Push up the upper boundary of the btn area to also invalidate the popover*/
1040:lvgl/src/widgets/lv_btnmatrix.c ****         btn_area.y1 -= lv_area_get_height(&btn_area);
1041:lvgl/src/widgets/lv_btnmatrix.c ****     }
1042:lvgl/src/widgets/lv_btnmatrix.c **** 
1043:lvgl/src/widgets/lv_btnmatrix.c ****     lv_obj_invalidate_area(obj, &btn_area);
1044:lvgl/src/widgets/lv_btnmatrix.c **** }
1045:lvgl/src/widgets/lv_btnmatrix.c **** 
1046:lvgl/src/widgets/lv_btnmatrix.c **** /**
1047:lvgl/src/widgets/lv_btnmatrix.c ****  * Enforces a single button being toggled on the button matrix.
1048:lvgl/src/widgets/lv_btnmatrix.c ****  * It simply clears the toggle flag on other buttons.
1049:lvgl/src/widgets/lv_btnmatrix.c ****  * @param obj Button matrix object
1050:lvgl/src/widgets/lv_btnmatrix.c ****  * @param btn_idx Button that should remain toggled
1051:lvgl/src/widgets/lv_btnmatrix.c ****  */
1052:lvgl/src/widgets/lv_btnmatrix.c **** static void make_one_button_checked(lv_obj_t * obj, uint16_t btn_idx)
1053:lvgl/src/widgets/lv_btnmatrix.c **** {
1054:lvgl/src/widgets/lv_btnmatrix.c ****     /*Save whether the button was toggled*/
1055:lvgl/src/widgets/lv_btnmatrix.c ****     bool was_toggled = lv_btnmatrix_has_btn_ctrl(obj, btn_idx, LV_BTNMATRIX_CTRL_CHECKED);
1056:lvgl/src/widgets/lv_btnmatrix.c **** 
1057:lvgl/src/widgets/lv_btnmatrix.c ****     lv_btnmatrix_clear_btn_ctrl_all(obj, LV_BTNMATRIX_CTRL_CHECKED);
1058:lvgl/src/widgets/lv_btnmatrix.c **** 
1059:lvgl/src/widgets/lv_btnmatrix.c ****     if(was_toggled) lv_btnmatrix_set_btn_ctrl(obj, btn_idx, LV_BTNMATRIX_CTRL_CHECKED);
1060:lvgl/src/widgets/lv_btnmatrix.c **** }
1061:lvgl/src/widgets/lv_btnmatrix.c **** 
1062:lvgl/src/widgets/lv_btnmatrix.c **** /**
1063:lvgl/src/widgets/lv_btnmatrix.c ****  * Check if any of the buttons in the first row has the LV_BTNMATRIX_CTRL_POPOVER control flag set.
1064:lvgl/src/widgets/lv_btnmatrix.c ****  * @param obj Button matrix object
1065:lvgl/src/widgets/lv_btnmatrix.c ****  * @return true if at least one button has the flag, false otherwise
ARM GAS  /var/folders/21/t9g5rlb91ys800n5npymflf80000gn/T//ccSbQiFP.s 			page 24


1066:lvgl/src/widgets/lv_btnmatrix.c ****  */
1067:lvgl/src/widgets/lv_btnmatrix.c **** static bool has_popovers_in_top_row(lv_obj_t * obj)
1068:lvgl/src/widgets/lv_btnmatrix.c **** {
 268              		.loc 1 1068 1 is_stmt 1 view -0
 269              		.cfi_startproc
 270              		@ args = 0, pretend = 0, frame = 0
 271              		@ frame_needed = 0, uses_anonymous_args = 0
1069:lvgl/src/widgets/lv_btnmatrix.c ****     lv_btnmatrix_t * btnm = (lv_btnmatrix_t *)obj;
 272              		.loc 1 1069 5 view .LVU43
1070:lvgl/src/widgets/lv_btnmatrix.c **** 
1071:lvgl/src/widgets/lv_btnmatrix.c ****     if(btnm->row_cnt <= 0) {
 273              		.loc 1 1071 5 view .LVU44
 274              		.loc 1 1071 12 is_stmt 0 view .LVU45
 275 0000 438E     		ldrh	r3, [r0, #50]
 276              		.loc 1 1071 7 view .LVU46
 277 0002 D3B1     		cbz	r3, .L17
1068:lvgl/src/widgets/lv_btnmatrix.c ****     lv_btnmatrix_t * btnm = (lv_btnmatrix_t *)obj;
 278              		.loc 1 1068 1 view .LVU47
 279 0004 2DE9F041 		push	{r4, r5, r6, r7, r8, lr}
 280              	.LCFI0:
 281              		.cfi_def_cfa_offset 24
 282              		.cfi_offset 4, -24
 283              		.cfi_offset 5, -20
 284              		.cfi_offset 6, -16
 285              		.cfi_offset 7, -12
 286              		.cfi_offset 8, -8
 287              		.cfi_offset 14, -4
 288 0008 0746     		mov	r7, r0
1072:lvgl/src/widgets/lv_btnmatrix.c ****         return false;
1073:lvgl/src/widgets/lv_btnmatrix.c ****     }
1074:lvgl/src/widgets/lv_btnmatrix.c **** 
1075:lvgl/src/widgets/lv_btnmatrix.c ****     const char ** map_row = btnm->map_p;
 289              		.loc 1 1075 5 is_stmt 1 view .LVU48
 290              		.loc 1 1075 19 is_stmt 0 view .LVU49
 291 000a D0F82480 		ldr	r8, [r0, #36]
 292              	.LVL21:
1076:lvgl/src/widgets/lv_btnmatrix.c ****     uint16_t btn_cnt = 0;
 293              		.loc 1 1076 5 is_stmt 1 view .LVU50
1077:lvgl/src/widgets/lv_btnmatrix.c **** 
1078:lvgl/src/widgets/lv_btnmatrix.c ****     while(map_row[btn_cnt] && strcmp(map_row[btn_cnt], "\n") != 0 && map_row[btn_cnt][0] != '\0') {
 294              		.loc 1 1078 5 view .LVU51
1076:lvgl/src/widgets/lv_btnmatrix.c ****     uint16_t btn_cnt = 0;
 295              		.loc 1 1076 14 is_stmt 0 view .LVU52
 296 000e 0024     		movs	r4, #0
 297              	.LVL22:
 298              	.L15:
 299              		.loc 1 1078 67 is_stmt 1 view .LVU53
 300              		.loc 1 1078 18 is_stmt 0 view .LVU54
 301 0010 2646     		mov	r6, r4
 302 0012 58F82450 		ldr	r5, [r8, r4, lsl #2]
 303              		.loc 1 1078 67 view .LVU55
 304 0016 9DB1     		cbz	r5, .L18
 305              		.loc 1 1078 31 discriminator 1 view .LVU56
 306 0018 0C49     		ldr	r1, .L24
 307 001a 2846     		mov	r0, r5
 308 001c FFF7FEFF 		bl	strcmp
 309              	.LVL23:
ARM GAS  /var/folders/21/t9g5rlb91ys800n5npymflf80000gn/T//ccSbQiFP.s 			page 25


 310              		.loc 1 1078 28 discriminator 1 view .LVU57
 311 0020 90B1     		cbz	r0, .L19
 312              		.loc 1 1078 86 discriminator 2 view .LVU58
 313 0022 2B78     		ldrb	r3, [r5]	@ zero_extendqisi2
 314              		.loc 1 1078 67 discriminator 2 view .LVU59
 315 0024 6BB1     		cbz	r3, .L14
1079:lvgl/src/widgets/lv_btnmatrix.c ****         if(button_is_popover(btnm->ctrl_bits[btn_cnt])) {
 316              		.loc 1 1079 9 is_stmt 1 view .LVU60
 317              		.loc 1 1079 34 is_stmt 0 view .LVU61
 318 0026 FB6A     		ldr	r3, [r7, #44]
 319              		.loc 1 1079 12 view .LVU62
 320 0028 33F81600 		ldrh	r0, [r3, r6, lsl #1]
 321 002c FFF7FEFF 		bl	button_is_popover
 322              	.LVL24:
 323              		.loc 1 1079 11 view .LVU63
 324 0030 0346     		mov	r3, r0
 325 0032 30B9     		cbnz	r0, .L14
1080:lvgl/src/widgets/lv_btnmatrix.c ****             return true;
1081:lvgl/src/widgets/lv_btnmatrix.c ****         }
1082:lvgl/src/widgets/lv_btnmatrix.c ****         btn_cnt++;
 326              		.loc 1 1082 9 is_stmt 1 view .LVU64
 327              		.loc 1 1082 16 is_stmt 0 view .LVU65
 328 0034 0134     		adds	r4, r4, #1
 329              	.LVL25:
 330              		.loc 1 1082 16 view .LVU66
 331 0036 A4B2     		uxth	r4, r4
 332              	.LVL26:
 333              		.loc 1 1082 16 view .LVU67
 334 0038 EAE7     		b	.L15
 335              	.LVL27:
 336              	.L17:
 337              	.LCFI1:
 338              		.cfi_def_cfa_offset 0
 339              		.cfi_restore 4
 340              		.cfi_restore 5
 341              		.cfi_restore 6
 342              		.cfi_restore 7
 343              		.cfi_restore 8
 344              		.cfi_restore 14
1072:lvgl/src/widgets/lv_btnmatrix.c ****     }
 345              		.loc 1 1072 16 view .LVU68
 346 003a 0023     		movs	r3, #0
1083:lvgl/src/widgets/lv_btnmatrix.c ****     }
1084:lvgl/src/widgets/lv_btnmatrix.c **** 
1085:lvgl/src/widgets/lv_btnmatrix.c ****     return false;
1086:lvgl/src/widgets/lv_btnmatrix.c **** }
 347              		.loc 1 1086 1 view .LVU69
 348 003c 1846     		mov	r0, r3
 349              	.LVL28:
 350              		.loc 1 1086 1 view .LVU70
 351 003e 7047     		bx	lr
 352              	.LVL29:
 353              	.L18:
 354              	.LCFI2:
 355              		.cfi_def_cfa_offset 24
 356              		.cfi_offset 4, -24
 357              		.cfi_offset 5, -20
ARM GAS  /var/folders/21/t9g5rlb91ys800n5npymflf80000gn/T//ccSbQiFP.s 			page 26


 358              		.cfi_offset 6, -16
 359              		.cfi_offset 7, -12
 360              		.cfi_offset 8, -8
 361              		.cfi_offset 14, -4
1085:lvgl/src/widgets/lv_btnmatrix.c **** }
 362              		.loc 1 1085 12 view .LVU71
 363 0040 0023     		movs	r3, #0
 364              	.L14:
 365              		.loc 1 1086 1 view .LVU72
 366 0042 1846     		mov	r0, r3
 367 0044 BDE8F081 		pop	{r4, r5, r6, r7, r8, pc}
 368              	.LVL30:
 369              	.L19:
1085:lvgl/src/widgets/lv_btnmatrix.c **** }
 370              		.loc 1 1085 12 view .LVU73
 371 0048 0023     		movs	r3, #0
 372 004a FAE7     		b	.L14
 373              	.L25:
 374              		.align	2
 375              	.L24:
 376 004c 00000000 		.word	.LC0
 377              		.cfi_endproc
 378              	.LFE194:
 380              		.section	.text.get_button_from_point,"ax",%progbits
 381              		.align	1
 382              		.syntax unified
 383              		.thumb
 384              		.thumb_func
 386              	get_button_from_point:
 387              	.LVL31:
 388              	.LFB191:
 957:lvgl/src/widgets/lv_btnmatrix.c ****     lv_area_t obj_cords;
 389              		.loc 1 957 1 is_stmt 1 view -0
 390              		.cfi_startproc
 391              		@ args = 0, pretend = 0, frame = 32
 392              		@ frame_needed = 0, uses_anonymous_args = 0
 957:lvgl/src/widgets/lv_btnmatrix.c ****     lv_area_t obj_cords;
 393              		.loc 1 957 1 is_stmt 0 view .LVU75
 394 0000 2DE9F04F 		push	{r4, r5, r6, r7, r8, r9, r10, fp, lr}
 395              	.LCFI3:
 396              		.cfi_def_cfa_offset 36
 397              		.cfi_offset 4, -36
 398              		.cfi_offset 5, -32
 399              		.cfi_offset 6, -28
 400              		.cfi_offset 7, -24
 401              		.cfi_offset 8, -20
 402              		.cfi_offset 9, -16
 403              		.cfi_offset 10, -12
 404              		.cfi_offset 11, -8
 405              		.cfi_offset 14, -4
 406 0004 89B0     		sub	sp, sp, #36
 407              	.LCFI4:
 408              		.cfi_def_cfa_offset 72
 409 0006 0546     		mov	r5, r0
 410 0008 0391     		str	r1, [sp, #12]
 958:lvgl/src/widgets/lv_btnmatrix.c ****     lv_area_t btn_area;
 411              		.loc 1 958 5 is_stmt 1 view .LVU76
ARM GAS  /var/folders/21/t9g5rlb91ys800n5npymflf80000gn/T//ccSbQiFP.s 			page 27


 959:lvgl/src/widgets/lv_btnmatrix.c ****     lv_btnmatrix_t * btnm = (lv_btnmatrix_t *)obj;;
 412              		.loc 1 959 5 view .LVU77
 960:lvgl/src/widgets/lv_btnmatrix.c ****     uint16_t i;
 413              		.loc 1 960 5 view .LVU78
 414              	.LVL32:
 960:lvgl/src/widgets/lv_btnmatrix.c ****     uint16_t i;
 415              		.loc 1 960 51 view .LVU79
 961:lvgl/src/widgets/lv_btnmatrix.c ****     lv_obj_get_coords(obj, &obj_cords);
 416              		.loc 1 961 5 view .LVU80
 962:lvgl/src/widgets/lv_btnmatrix.c **** 
 417              		.loc 1 962 5 view .LVU81
 418 000a 06A9     		add	r1, sp, #24
 419              	.LVL33:
 962:lvgl/src/widgets/lv_btnmatrix.c **** 
 420              		.loc 1 962 5 is_stmt 0 view .LVU82
 421 000c FFF7FEFF 		bl	lv_obj_get_coords
 422              	.LVL34:
 964:lvgl/src/widgets/lv_btnmatrix.c ****     lv_coord_t h = lv_obj_get_height(obj);
 423              		.loc 1 964 5 is_stmt 1 view .LVU83
 964:lvgl/src/widgets/lv_btnmatrix.c ****     lv_coord_t h = lv_obj_get_height(obj);
 424              		.loc 1 964 20 is_stmt 0 view .LVU84
 425 0010 2846     		mov	r0, r5
 426 0012 FFF7FEFF 		bl	lv_obj_get_width
 427              	.LVL35:
 428 0016 0190     		str	r0, [sp, #4]
 429              	.LVL36:
 965:lvgl/src/widgets/lv_btnmatrix.c ****     lv_coord_t pleft = lv_obj_get_style_pad_left(obj, LV_PART_MAIN);
 430              		.loc 1 965 5 is_stmt 1 view .LVU85
 965:lvgl/src/widgets/lv_btnmatrix.c ****     lv_coord_t pleft = lv_obj_get_style_pad_left(obj, LV_PART_MAIN);
 431              		.loc 1 965 20 is_stmt 0 view .LVU86
 432 0018 2846     		mov	r0, r5
 433 001a FFF7FEFF 		bl	lv_obj_get_height
 434              	.LVL37:
 435 001e 0290     		str	r0, [sp, #8]
 436              	.LVL38:
 966:lvgl/src/widgets/lv_btnmatrix.c ****     lv_coord_t pright = lv_obj_get_style_pad_right(obj, LV_PART_MAIN);
 437              		.loc 1 966 5 is_stmt 1 view .LVU87
 438              	.LBB81:
 439              	.LBI81:
 440              		.file 2 "lvgl/src/widgets/../core/lv_obj_style_gen.h"
   1:lvgl/src/widgets/../core/lv_obj_style_gen.h **** static inline lv_coord_t lv_obj_get_style_width(const struct _lv_obj_t * obj, uint32_t part)
   2:lvgl/src/widgets/../core/lv_obj_style_gen.h **** {
   3:lvgl/src/widgets/../core/lv_obj_style_gen.h ****     lv_style_value_t v = lv_obj_get_style_prop(obj, part, LV_STYLE_WIDTH);
   4:lvgl/src/widgets/../core/lv_obj_style_gen.h ****     return (lv_coord_t)v.num;
   5:lvgl/src/widgets/../core/lv_obj_style_gen.h **** }
   6:lvgl/src/widgets/../core/lv_obj_style_gen.h **** 
   7:lvgl/src/widgets/../core/lv_obj_style_gen.h **** static inline lv_coord_t lv_obj_get_style_min_width(const struct _lv_obj_t * obj, uint32_t part)
   8:lvgl/src/widgets/../core/lv_obj_style_gen.h **** {
   9:lvgl/src/widgets/../core/lv_obj_style_gen.h ****     lv_style_value_t v = lv_obj_get_style_prop(obj, part, LV_STYLE_MIN_WIDTH);
  10:lvgl/src/widgets/../core/lv_obj_style_gen.h ****     return (lv_coord_t)v.num;
  11:lvgl/src/widgets/../core/lv_obj_style_gen.h **** }
  12:lvgl/src/widgets/../core/lv_obj_style_gen.h **** 
  13:lvgl/src/widgets/../core/lv_obj_style_gen.h **** static inline lv_coord_t lv_obj_get_style_max_width(const struct _lv_obj_t * obj, uint32_t part)
  14:lvgl/src/widgets/../core/lv_obj_style_gen.h **** {
  15:lvgl/src/widgets/../core/lv_obj_style_gen.h ****     lv_style_value_t v = lv_obj_get_style_prop(obj, part, LV_STYLE_MAX_WIDTH);
  16:lvgl/src/widgets/../core/lv_obj_style_gen.h ****     return (lv_coord_t)v.num;
  17:lvgl/src/widgets/../core/lv_obj_style_gen.h **** }
ARM GAS  /var/folders/21/t9g5rlb91ys800n5npymflf80000gn/T//ccSbQiFP.s 			page 28


  18:lvgl/src/widgets/../core/lv_obj_style_gen.h **** 
  19:lvgl/src/widgets/../core/lv_obj_style_gen.h **** static inline lv_coord_t lv_obj_get_style_height(const struct _lv_obj_t * obj, uint32_t part)
  20:lvgl/src/widgets/../core/lv_obj_style_gen.h **** {
  21:lvgl/src/widgets/../core/lv_obj_style_gen.h ****     lv_style_value_t v = lv_obj_get_style_prop(obj, part, LV_STYLE_HEIGHT);
  22:lvgl/src/widgets/../core/lv_obj_style_gen.h ****     return (lv_coord_t)v.num;
  23:lvgl/src/widgets/../core/lv_obj_style_gen.h **** }
  24:lvgl/src/widgets/../core/lv_obj_style_gen.h **** 
  25:lvgl/src/widgets/../core/lv_obj_style_gen.h **** static inline lv_coord_t lv_obj_get_style_min_height(const struct _lv_obj_t * obj, uint32_t part)
  26:lvgl/src/widgets/../core/lv_obj_style_gen.h **** {
  27:lvgl/src/widgets/../core/lv_obj_style_gen.h ****     lv_style_value_t v = lv_obj_get_style_prop(obj, part, LV_STYLE_MIN_HEIGHT);
  28:lvgl/src/widgets/../core/lv_obj_style_gen.h ****     return (lv_coord_t)v.num;
  29:lvgl/src/widgets/../core/lv_obj_style_gen.h **** }
  30:lvgl/src/widgets/../core/lv_obj_style_gen.h **** 
  31:lvgl/src/widgets/../core/lv_obj_style_gen.h **** static inline lv_coord_t lv_obj_get_style_max_height(const struct _lv_obj_t * obj, uint32_t part)
  32:lvgl/src/widgets/../core/lv_obj_style_gen.h **** {
  33:lvgl/src/widgets/../core/lv_obj_style_gen.h ****     lv_style_value_t v = lv_obj_get_style_prop(obj, part, LV_STYLE_MAX_HEIGHT);
  34:lvgl/src/widgets/../core/lv_obj_style_gen.h ****     return (lv_coord_t)v.num;
  35:lvgl/src/widgets/../core/lv_obj_style_gen.h **** }
  36:lvgl/src/widgets/../core/lv_obj_style_gen.h **** 
  37:lvgl/src/widgets/../core/lv_obj_style_gen.h **** static inline lv_coord_t lv_obj_get_style_x(const struct _lv_obj_t * obj, uint32_t part)
  38:lvgl/src/widgets/../core/lv_obj_style_gen.h **** {
  39:lvgl/src/widgets/../core/lv_obj_style_gen.h ****     lv_style_value_t v = lv_obj_get_style_prop(obj, part, LV_STYLE_X);
  40:lvgl/src/widgets/../core/lv_obj_style_gen.h ****     return (lv_coord_t)v.num;
  41:lvgl/src/widgets/../core/lv_obj_style_gen.h **** }
  42:lvgl/src/widgets/../core/lv_obj_style_gen.h **** 
  43:lvgl/src/widgets/../core/lv_obj_style_gen.h **** static inline lv_coord_t lv_obj_get_style_y(const struct _lv_obj_t * obj, uint32_t part)
  44:lvgl/src/widgets/../core/lv_obj_style_gen.h **** {
  45:lvgl/src/widgets/../core/lv_obj_style_gen.h ****     lv_style_value_t v = lv_obj_get_style_prop(obj, part, LV_STYLE_Y);
  46:lvgl/src/widgets/../core/lv_obj_style_gen.h ****     return (lv_coord_t)v.num;
  47:lvgl/src/widgets/../core/lv_obj_style_gen.h **** }
  48:lvgl/src/widgets/../core/lv_obj_style_gen.h **** 
  49:lvgl/src/widgets/../core/lv_obj_style_gen.h **** static inline lv_align_t lv_obj_get_style_align(const struct _lv_obj_t * obj, uint32_t part)
  50:lvgl/src/widgets/../core/lv_obj_style_gen.h **** {
  51:lvgl/src/widgets/../core/lv_obj_style_gen.h ****     lv_style_value_t v = lv_obj_get_style_prop(obj, part, LV_STYLE_ALIGN);
  52:lvgl/src/widgets/../core/lv_obj_style_gen.h ****     return (lv_align_t)v.num;
  53:lvgl/src/widgets/../core/lv_obj_style_gen.h **** }
  54:lvgl/src/widgets/../core/lv_obj_style_gen.h **** 
  55:lvgl/src/widgets/../core/lv_obj_style_gen.h **** static inline lv_coord_t lv_obj_get_style_transform_width(const struct _lv_obj_t * obj, uint32_t pa
  56:lvgl/src/widgets/../core/lv_obj_style_gen.h **** {
  57:lvgl/src/widgets/../core/lv_obj_style_gen.h ****     lv_style_value_t v = lv_obj_get_style_prop(obj, part, LV_STYLE_TRANSFORM_WIDTH);
  58:lvgl/src/widgets/../core/lv_obj_style_gen.h ****     return (lv_coord_t)v.num;
  59:lvgl/src/widgets/../core/lv_obj_style_gen.h **** }
  60:lvgl/src/widgets/../core/lv_obj_style_gen.h **** 
  61:lvgl/src/widgets/../core/lv_obj_style_gen.h **** static inline lv_coord_t lv_obj_get_style_transform_height(const struct _lv_obj_t * obj, uint32_t p
  62:lvgl/src/widgets/../core/lv_obj_style_gen.h **** {
  63:lvgl/src/widgets/../core/lv_obj_style_gen.h ****     lv_style_value_t v = lv_obj_get_style_prop(obj, part, LV_STYLE_TRANSFORM_HEIGHT);
  64:lvgl/src/widgets/../core/lv_obj_style_gen.h ****     return (lv_coord_t)v.num;
  65:lvgl/src/widgets/../core/lv_obj_style_gen.h **** }
  66:lvgl/src/widgets/../core/lv_obj_style_gen.h **** 
  67:lvgl/src/widgets/../core/lv_obj_style_gen.h **** static inline lv_coord_t lv_obj_get_style_translate_x(const struct _lv_obj_t * obj, uint32_t part)
  68:lvgl/src/widgets/../core/lv_obj_style_gen.h **** {
  69:lvgl/src/widgets/../core/lv_obj_style_gen.h ****     lv_style_value_t v = lv_obj_get_style_prop(obj, part, LV_STYLE_TRANSLATE_X);
  70:lvgl/src/widgets/../core/lv_obj_style_gen.h ****     return (lv_coord_t)v.num;
  71:lvgl/src/widgets/../core/lv_obj_style_gen.h **** }
  72:lvgl/src/widgets/../core/lv_obj_style_gen.h **** 
  73:lvgl/src/widgets/../core/lv_obj_style_gen.h **** static inline lv_coord_t lv_obj_get_style_translate_y(const struct _lv_obj_t * obj, uint32_t part)
  74:lvgl/src/widgets/../core/lv_obj_style_gen.h **** {
ARM GAS  /var/folders/21/t9g5rlb91ys800n5npymflf80000gn/T//ccSbQiFP.s 			page 29


  75:lvgl/src/widgets/../core/lv_obj_style_gen.h ****     lv_style_value_t v = lv_obj_get_style_prop(obj, part, LV_STYLE_TRANSLATE_Y);
  76:lvgl/src/widgets/../core/lv_obj_style_gen.h ****     return (lv_coord_t)v.num;
  77:lvgl/src/widgets/../core/lv_obj_style_gen.h **** }
  78:lvgl/src/widgets/../core/lv_obj_style_gen.h **** 
  79:lvgl/src/widgets/../core/lv_obj_style_gen.h **** static inline lv_coord_t lv_obj_get_style_transform_zoom(const struct _lv_obj_t * obj, uint32_t par
  80:lvgl/src/widgets/../core/lv_obj_style_gen.h **** {
  81:lvgl/src/widgets/../core/lv_obj_style_gen.h ****     lv_style_value_t v = lv_obj_get_style_prop(obj, part, LV_STYLE_TRANSFORM_ZOOM);
  82:lvgl/src/widgets/../core/lv_obj_style_gen.h ****     return (lv_coord_t)v.num;
  83:lvgl/src/widgets/../core/lv_obj_style_gen.h **** }
  84:lvgl/src/widgets/../core/lv_obj_style_gen.h **** 
  85:lvgl/src/widgets/../core/lv_obj_style_gen.h **** static inline lv_coord_t lv_obj_get_style_transform_angle(const struct _lv_obj_t * obj, uint32_t pa
  86:lvgl/src/widgets/../core/lv_obj_style_gen.h **** {
  87:lvgl/src/widgets/../core/lv_obj_style_gen.h ****     lv_style_value_t v = lv_obj_get_style_prop(obj, part, LV_STYLE_TRANSFORM_ANGLE);
  88:lvgl/src/widgets/../core/lv_obj_style_gen.h ****     return (lv_coord_t)v.num;
  89:lvgl/src/widgets/../core/lv_obj_style_gen.h **** }
  90:lvgl/src/widgets/../core/lv_obj_style_gen.h **** 
  91:lvgl/src/widgets/../core/lv_obj_style_gen.h **** static inline lv_coord_t lv_obj_get_style_transform_pivot_x(const struct _lv_obj_t * obj, uint32_t 
  92:lvgl/src/widgets/../core/lv_obj_style_gen.h **** {
  93:lvgl/src/widgets/../core/lv_obj_style_gen.h ****     lv_style_value_t v = lv_obj_get_style_prop(obj, part, LV_STYLE_TRANSFORM_PIVOT_X);
  94:lvgl/src/widgets/../core/lv_obj_style_gen.h ****     return (lv_coord_t)v.num;
  95:lvgl/src/widgets/../core/lv_obj_style_gen.h **** }
  96:lvgl/src/widgets/../core/lv_obj_style_gen.h **** 
  97:lvgl/src/widgets/../core/lv_obj_style_gen.h **** static inline lv_coord_t lv_obj_get_style_transform_pivot_y(const struct _lv_obj_t * obj, uint32_t 
  98:lvgl/src/widgets/../core/lv_obj_style_gen.h **** {
  99:lvgl/src/widgets/../core/lv_obj_style_gen.h ****     lv_style_value_t v = lv_obj_get_style_prop(obj, part, LV_STYLE_TRANSFORM_PIVOT_Y);
 100:lvgl/src/widgets/../core/lv_obj_style_gen.h ****     return (lv_coord_t)v.num;
 101:lvgl/src/widgets/../core/lv_obj_style_gen.h **** }
 102:lvgl/src/widgets/../core/lv_obj_style_gen.h **** 
 103:lvgl/src/widgets/../core/lv_obj_style_gen.h **** static inline lv_coord_t lv_obj_get_style_pad_top(const struct _lv_obj_t * obj, uint32_t part)
 104:lvgl/src/widgets/../core/lv_obj_style_gen.h **** {
 105:lvgl/src/widgets/../core/lv_obj_style_gen.h ****     lv_style_value_t v = lv_obj_get_style_prop(obj, part, LV_STYLE_PAD_TOP);
 106:lvgl/src/widgets/../core/lv_obj_style_gen.h ****     return (lv_coord_t)v.num;
 107:lvgl/src/widgets/../core/lv_obj_style_gen.h **** }
 108:lvgl/src/widgets/../core/lv_obj_style_gen.h **** 
 109:lvgl/src/widgets/../core/lv_obj_style_gen.h **** static inline lv_coord_t lv_obj_get_style_pad_bottom(const struct _lv_obj_t * obj, uint32_t part)
 110:lvgl/src/widgets/../core/lv_obj_style_gen.h **** {
 111:lvgl/src/widgets/../core/lv_obj_style_gen.h ****     lv_style_value_t v = lv_obj_get_style_prop(obj, part, LV_STYLE_PAD_BOTTOM);
 112:lvgl/src/widgets/../core/lv_obj_style_gen.h ****     return (lv_coord_t)v.num;
 113:lvgl/src/widgets/../core/lv_obj_style_gen.h **** }
 114:lvgl/src/widgets/../core/lv_obj_style_gen.h **** 
 115:lvgl/src/widgets/../core/lv_obj_style_gen.h **** static inline lv_coord_t lv_obj_get_style_pad_left(const struct _lv_obj_t * obj, uint32_t part)
 441              		.loc 2 115 26 view .LVU88
 442              	.LBB82:
 116:lvgl/src/widgets/../core/lv_obj_style_gen.h **** {
 117:lvgl/src/widgets/../core/lv_obj_style_gen.h ****     lv_style_value_t v = lv_obj_get_style_prop(obj, part, LV_STYLE_PAD_LEFT);
 443              		.loc 2 117 5 view .LVU89
 444              		.loc 2 117 26 is_stmt 0 view .LVU90
 445 0020 1222     		movs	r2, #18
 446 0022 0021     		movs	r1, #0
 447 0024 2846     		mov	r0, r5
 448 0026 FFF7FEFF 		bl	lv_obj_get_style_prop
 449              	.LVL39:
 118:lvgl/src/widgets/../core/lv_obj_style_gen.h ****     return (lv_coord_t)v.num;
 450              		.loc 2 118 5 is_stmt 1 view .LVU91
 451              		.loc 2 118 12 is_stmt 0 view .LVU92
 452 002a 0FFA80FB 		sxth	fp, r0
 453              	.LVL40:
ARM GAS  /var/folders/21/t9g5rlb91ys800n5npymflf80000gn/T//ccSbQiFP.s 			page 30


 454              		.loc 2 118 12 view .LVU93
 455              	.LBE82:
 456              	.LBE81:
 967:lvgl/src/widgets/lv_btnmatrix.c ****     lv_coord_t ptop = lv_obj_get_style_pad_top(obj, LV_PART_MAIN);
 457              		.loc 1 967 5 is_stmt 1 view .LVU94
 458              	.LBB83:
 459              	.LBI83:
 119:lvgl/src/widgets/../core/lv_obj_style_gen.h **** }
 120:lvgl/src/widgets/../core/lv_obj_style_gen.h **** 
 121:lvgl/src/widgets/../core/lv_obj_style_gen.h **** static inline lv_coord_t lv_obj_get_style_pad_right(const struct _lv_obj_t * obj, uint32_t part)
 460              		.loc 2 121 26 view .LVU95
 461              	.LBB84:
 122:lvgl/src/widgets/../core/lv_obj_style_gen.h **** {
 123:lvgl/src/widgets/../core/lv_obj_style_gen.h ****     lv_style_value_t v = lv_obj_get_style_prop(obj, part, LV_STYLE_PAD_RIGHT);
 462              		.loc 2 123 5 view .LVU96
 463              		.loc 2 123 26 is_stmt 0 view .LVU97
 464 002e 1322     		movs	r2, #19
 465 0030 0021     		movs	r1, #0
 466 0032 2846     		mov	r0, r5
 467 0034 FFF7FEFF 		bl	lv_obj_get_style_prop
 468              	.LVL41:
 124:lvgl/src/widgets/../core/lv_obj_style_gen.h ****     return (lv_coord_t)v.num;
 469              		.loc 2 124 5 is_stmt 1 view .LVU98
 470              		.loc 2 124 12 is_stmt 0 view .LVU99
 471 0038 0FFA80F9 		sxth	r9, r0
 472              	.LVL42:
 473              		.loc 2 124 12 view .LVU100
 474              	.LBE84:
 475              	.LBE83:
 968:lvgl/src/widgets/lv_btnmatrix.c ****     lv_coord_t pbottom = lv_obj_get_style_pad_bottom(obj, LV_PART_MAIN);
 476              		.loc 1 968 5 is_stmt 1 view .LVU101
 477              	.LBB85:
 478              	.LBI85:
 103:lvgl/src/widgets/../core/lv_obj_style_gen.h **** {
 479              		.loc 2 103 26 view .LVU102
 480              	.LBB86:
 105:lvgl/src/widgets/../core/lv_obj_style_gen.h ****     return (lv_coord_t)v.num;
 481              		.loc 2 105 5 view .LVU103
 105:lvgl/src/widgets/../core/lv_obj_style_gen.h ****     return (lv_coord_t)v.num;
 482              		.loc 2 105 26 is_stmt 0 view .LVU104
 483 003c 1022     		movs	r2, #16
 484 003e 0021     		movs	r1, #0
 485 0040 2846     		mov	r0, r5
 486 0042 FFF7FEFF 		bl	lv_obj_get_style_prop
 487              	.LVL43:
 106:lvgl/src/widgets/../core/lv_obj_style_gen.h **** }
 488              		.loc 2 106 5 is_stmt 1 view .LVU105
 106:lvgl/src/widgets/../core/lv_obj_style_gen.h **** }
 489              		.loc 2 106 12 is_stmt 0 view .LVU106
 490 0046 0FFA80F8 		sxth	r8, r0
 491              	.LVL44:
 106:lvgl/src/widgets/../core/lv_obj_style_gen.h **** }
 492              		.loc 2 106 12 view .LVU107
 493              	.LBE86:
 494              	.LBE85:
 969:lvgl/src/widgets/lv_btnmatrix.c ****     lv_coord_t prow = lv_obj_get_style_pad_row(obj, LV_PART_MAIN);
 495              		.loc 1 969 5 is_stmt 1 view .LVU108
ARM GAS  /var/folders/21/t9g5rlb91ys800n5npymflf80000gn/T//ccSbQiFP.s 			page 31


 496              	.LBB87:
 497              	.LBI87:
 109:lvgl/src/widgets/../core/lv_obj_style_gen.h **** {
 498              		.loc 2 109 26 view .LVU109
 499              	.LBB88:
 111:lvgl/src/widgets/../core/lv_obj_style_gen.h ****     return (lv_coord_t)v.num;
 500              		.loc 2 111 5 view .LVU110
 111:lvgl/src/widgets/../core/lv_obj_style_gen.h ****     return (lv_coord_t)v.num;
 501              		.loc 2 111 26 is_stmt 0 view .LVU111
 502 004a 1122     		movs	r2, #17
 503 004c 0021     		movs	r1, #0
 504 004e 2846     		mov	r0, r5
 505 0050 FFF7FEFF 		bl	lv_obj_get_style_prop
 506              	.LVL45:
 112:lvgl/src/widgets/../core/lv_obj_style_gen.h **** }
 507              		.loc 2 112 5 is_stmt 1 view .LVU112
 112:lvgl/src/widgets/../core/lv_obj_style_gen.h **** }
 508              		.loc 2 112 12 is_stmt 0 view .LVU113
 509 0054 07B2     		sxth	r7, r0
 510              	.LVL46:
 112:lvgl/src/widgets/../core/lv_obj_style_gen.h **** }
 511              		.loc 2 112 12 view .LVU114
 512              	.LBE88:
 513              	.LBE87:
 970:lvgl/src/widgets/lv_btnmatrix.c ****     lv_coord_t pcol = lv_obj_get_style_pad_column(obj, LV_PART_MAIN);
 514              		.loc 1 970 5 is_stmt 1 view .LVU115
 515              	.LBB89:
 516              	.LBI89:
 125:lvgl/src/widgets/../core/lv_obj_style_gen.h **** }
 126:lvgl/src/widgets/../core/lv_obj_style_gen.h **** 
 127:lvgl/src/widgets/../core/lv_obj_style_gen.h **** static inline lv_coord_t lv_obj_get_style_pad_row(const struct _lv_obj_t * obj, uint32_t part)
 517              		.loc 2 127 26 view .LVU116
 518              	.LBB90:
 128:lvgl/src/widgets/../core/lv_obj_style_gen.h **** {
 129:lvgl/src/widgets/../core/lv_obj_style_gen.h ****     lv_style_value_t v = lv_obj_get_style_prop(obj, part, LV_STYLE_PAD_ROW);
 519              		.loc 2 129 5 view .LVU117
 520              		.loc 2 129 26 is_stmt 0 view .LVU118
 521 0056 1422     		movs	r2, #20
 522 0058 0021     		movs	r1, #0
 523 005a 2846     		mov	r0, r5
 524 005c FFF7FEFF 		bl	lv_obj_get_style_prop
 525              	.LVL47:
 526 0060 0446     		mov	r4, r0
 527              	.LVL48:
 130:lvgl/src/widgets/../core/lv_obj_style_gen.h ****     return (lv_coord_t)v.num;
 528              		.loc 2 130 5 is_stmt 1 view .LVU119
 529              		.loc 2 130 12 is_stmt 0 view .LVU120
 530 0062 06B2     		sxth	r6, r0
 531              	.LVL49:
 532              		.loc 2 130 12 view .LVU121
 533              	.LBE90:
 534              	.LBE89:
 971:lvgl/src/widgets/lv_btnmatrix.c **** 
 535              		.loc 1 971 5 is_stmt 1 view .LVU122
 536              	.LBB91:
 537              	.LBI91:
 131:lvgl/src/widgets/../core/lv_obj_style_gen.h **** }
ARM GAS  /var/folders/21/t9g5rlb91ys800n5npymflf80000gn/T//ccSbQiFP.s 			page 32


 132:lvgl/src/widgets/../core/lv_obj_style_gen.h **** 
 133:lvgl/src/widgets/../core/lv_obj_style_gen.h **** static inline lv_coord_t lv_obj_get_style_pad_column(const struct _lv_obj_t * obj, uint32_t part)
 538              		.loc 2 133 26 view .LVU123
 539              	.LBB92:
 134:lvgl/src/widgets/../core/lv_obj_style_gen.h **** {
 135:lvgl/src/widgets/../core/lv_obj_style_gen.h ****     lv_style_value_t v = lv_obj_get_style_prop(obj, part, LV_STYLE_PAD_COLUMN);
 540              		.loc 2 135 5 view .LVU124
 541              		.loc 2 135 26 is_stmt 0 view .LVU125
 542 0064 1522     		movs	r2, #21
 543 0066 0021     		movs	r1, #0
 544 0068 2846     		mov	r0, r5
 545              		.loc 2 135 26 view .LVU126
 546 006a FFF7FEFF 		bl	lv_obj_get_style_prop
 547              	.LVL50:
 136:lvgl/src/widgets/../core/lv_obj_style_gen.h ****     return (lv_coord_t)v.num;
 548              		.loc 2 136 5 is_stmt 1 view .LVU127
 549              		.loc 2 136 5 is_stmt 0 view .LVU128
 550              	.LBE92:
 551              	.LBE91:
 974:lvgl/src/widgets/lv_btnmatrix.c ****     pcol = (pcol / 2) + 1 + (pcol & 1);
 552              		.loc 1 974 5 is_stmt 1 view .LVU129
 974:lvgl/src/widgets/lv_btnmatrix.c ****     pcol = (pcol / 2) + 1 + (pcol & 1);
 553              		.loc 1 974 35 is_stmt 0 view .LVU130
 554 006e 04F00104 		and	r4, r4, #1
 555              	.LVL51:
 974:lvgl/src/widgets/lv_btnmatrix.c ****     pcol = (pcol / 2) + 1 + (pcol & 1);
 556              		.loc 1 974 27 view .LVU131
 557 0072 06EBD676 		add	r6, r6, r6, lsr #31
 558              	.LVL52:
 974:lvgl/src/widgets/lv_btnmatrix.c ****     pcol = (pcol / 2) + 1 + (pcol & 1);
 559              		.loc 1 974 27 view .LVU132
 560 0076 04EB6606 		add	r6, r4, r6, asr #1
 561 007a 0136     		adds	r6, r6, #1
 974:lvgl/src/widgets/lv_btnmatrix.c ****     pcol = (pcol / 2) + 1 + (pcol & 1);
 562              		.loc 1 974 10 view .LVU133
 563 007c 36B2     		sxth	r6, r6
 564              	.LVL53:
 975:lvgl/src/widgets/lv_btnmatrix.c **** 
 565              		.loc 1 975 5 is_stmt 1 view .LVU134
 975:lvgl/src/widgets/lv_btnmatrix.c **** 
 566              		.loc 1 975 35 is_stmt 0 view .LVU135
 567 007e 00F0010A 		and	r10, r0, #1
 975:lvgl/src/widgets/lv_btnmatrix.c **** 
 568              		.loc 1 975 27 view .LVU136
 569 0082 C0F3C033 		ubfx	r3, r0, #15, #1
 570 0086 03FA80F0 		sxtah	r0, r3, r0
 571              	.LVL54:
 975:lvgl/src/widgets/lv_btnmatrix.c **** 
 572              		.loc 1 975 27 view .LVU137
 573 008a 0AEB600A 		add	r10, r10, r0, asr #1
 574 008e 0AF1010A 		add	r10, r10, #1
 975:lvgl/src/widgets/lv_btnmatrix.c **** 
 575              		.loc 1 975 10 view .LVU138
 576 0092 0FFA8AFA 		sxth	r10, r10
 577              	.LVL55:
 977:lvgl/src/widgets/lv_btnmatrix.c ****     pcol = LV_MIN(pcol, BTN_EXTRA_CLICK_AREA_MAX);
 578              		.loc 1 977 5 is_stmt 1 view .LVU139
ARM GAS  /var/folders/21/t9g5rlb91ys800n5npymflf80000gn/T//ccSbQiFP.s 			page 33


 977:lvgl/src/widgets/lv_btnmatrix.c ****     pcol = LV_MIN(pcol, BTN_EXTRA_CLICK_AREA_MAX);
 579              		.loc 1 977 10 is_stmt 0 view .LVU140
 580 0096 0D2E     		cmp	r6, #13
 581 0098 A8BF     		it	ge
 582 009a 0D26     		movge	r6, #13
 583              	.LVL56:
 978:lvgl/src/widgets/lv_btnmatrix.c ****     pright = LV_MIN(pright, BTN_EXTRA_CLICK_AREA_MAX);
 584              		.loc 1 978 5 is_stmt 1 view .LVU141
 978:lvgl/src/widgets/lv_btnmatrix.c ****     pright = LV_MIN(pright, BTN_EXTRA_CLICK_AREA_MAX);
 585              		.loc 1 978 10 is_stmt 0 view .LVU142
 586 009c BAF10D0F 		cmp	r10, #13
 587 00a0 A8BF     		it	ge
 588 00a2 4FF00D0A 		movge	r10, #13
 589              	.LVL57:
 979:lvgl/src/widgets/lv_btnmatrix.c ****     ptop = LV_MIN(ptop, BTN_EXTRA_CLICK_AREA_MAX);
 590              		.loc 1 979 5 is_stmt 1 view .LVU143
 979:lvgl/src/widgets/lv_btnmatrix.c ****     ptop = LV_MIN(ptop, BTN_EXTRA_CLICK_AREA_MAX);
 591              		.loc 1 979 12 is_stmt 0 view .LVU144
 592 00a6 B9F10D0F 		cmp	r9, #13
 593 00aa A8BF     		it	ge
 594 00ac 4FF00D09 		movge	r9, #13
 595              	.LVL58:
 980:lvgl/src/widgets/lv_btnmatrix.c ****     pbottom = LV_MIN(pbottom, BTN_EXTRA_CLICK_AREA_MAX);
 596              		.loc 1 980 5 is_stmt 1 view .LVU145
 980:lvgl/src/widgets/lv_btnmatrix.c ****     pbottom = LV_MIN(pbottom, BTN_EXTRA_CLICK_AREA_MAX);
 597              		.loc 1 980 10 is_stmt 0 view .LVU146
 598 00b0 B8F10D0F 		cmp	r8, #13
 599 00b4 A8BF     		it	ge
 600 00b6 4FF00D08 		movge	r8, #13
 601              	.LVL59:
 981:lvgl/src/widgets/lv_btnmatrix.c **** 
 602              		.loc 1 981 5 is_stmt 1 view .LVU147
 981:lvgl/src/widgets/lv_btnmatrix.c **** 
 603              		.loc 1 981 13 is_stmt 0 view .LVU148
 604 00ba 0D2F     		cmp	r7, #13
 605 00bc A8BF     		it	ge
 606 00be 0D27     		movge	r7, #13
 607              	.LVL60:
 983:lvgl/src/widgets/lv_btnmatrix.c ****         lv_area_copy(&btn_area, &btnm->button_areas[i]);
 608              		.loc 1 983 5 is_stmt 1 view .LVU149
 983:lvgl/src/widgets/lv_btnmatrix.c ****         lv_area_copy(&btn_area, &btnm->button_areas[i]);
 609              		.loc 1 983 11 is_stmt 0 view .LVU150
 610 00c0 0024     		movs	r4, #0
 983:lvgl/src/widgets/lv_btnmatrix.c ****         lv_area_copy(&btn_area, &btnm->button_areas[i]);
 611              		.loc 1 983 5 view .LVU151
 612 00c2 2DE0     		b	.L27
 613              	.LVL61:
 614              	.L28:
 986:lvgl/src/widgets/lv_btnmatrix.c **** 
 615              		.loc 1 986 14 is_stmt 1 view .LVU152
 986:lvgl/src/widgets/lv_btnmatrix.c **** 
 616              		.loc 1 986 38 is_stmt 0 view .LVU153
 617 00c4 BDF818C0 		ldrh	ip, [sp, #24]
 986:lvgl/src/widgets/lv_btnmatrix.c **** 
 618              		.loc 1 986 42 view .LVU154
 619 00c8 ACEB0A0C 		sub	ip, ip, r10
 620 00cc 1FFA8CFC 		uxth	ip, ip
ARM GAS  /var/folders/21/t9g5rlb91ys800n5npymflf80000gn/T//ccSbQiFP.s 			page 34


 986:lvgl/src/widgets/lv_btnmatrix.c **** 
 621              		.loc 1 986 26 view .LVU155
 622 00d0 1CFA80F0 		uxtah	r0, ip, r0
 623 00d4 ADF81000 		strh	r0, [sp, #16]	@ movhi
 624 00d8 4CE0     		b	.L29
 625              	.L30:
 989:lvgl/src/widgets/lv_btnmatrix.c **** 
 626              		.loc 1 989 14 is_stmt 1 view .LVU156
 989:lvgl/src/widgets/lv_btnmatrix.c **** 
 627              		.loc 1 989 38 is_stmt 0 view .LVU157
 628 00da BDF81A00 		ldrh	r0, [sp, #26]
 989:lvgl/src/widgets/lv_btnmatrix.c **** 
 629              		.loc 1 989 42 view .LVU158
 630 00de 801B     		subs	r0, r0, r6
 631 00e0 80B2     		uxth	r0, r0
 989:lvgl/src/widgets/lv_btnmatrix.c **** 
 632              		.loc 1 989 26 view .LVU159
 633 00e2 10FA81F1 		uxtah	r1, r0, r1
 634 00e6 ADF81210 		strh	r1, [sp, #18]	@ movhi
 635 00ea 56E0     		b	.L31
 636              	.L32:
 993:lvgl/src/widgets/lv_btnmatrix.c **** 
 637              		.loc 1 993 14 is_stmt 1 view .LVU160
 993:lvgl/src/widgets/lv_btnmatrix.c **** 
 638              		.loc 1 993 38 is_stmt 0 view .LVU161
 639 00ec BDF81810 		ldrh	r1, [sp, #24]
 993:lvgl/src/widgets/lv_btnmatrix.c **** 
 640              		.loc 1 993 42 view .LVU162
 641 00f0 5144     		add	r1, r1, r10
 642 00f2 89B2     		uxth	r1, r1
 993:lvgl/src/widgets/lv_btnmatrix.c **** 
 643              		.loc 1 993 26 view .LVU163
 644 00f4 11FA82F2 		uxtah	r2, r1, r2
 645 00f8 ADF81420 		strh	r2, [sp, #20]	@ movhi
 646 00fc 60E0     		b	.L33
 647              	.L34:
 997:lvgl/src/widgets/lv_btnmatrix.c **** 
 648              		.loc 1 997 14 is_stmt 1 view .LVU164
 997:lvgl/src/widgets/lv_btnmatrix.c **** 
 649              		.loc 1 997 38 is_stmt 0 view .LVU165
 650 00fe BDF81A20 		ldrh	r2, [sp, #26]
 997:lvgl/src/widgets/lv_btnmatrix.c **** 
 651              		.loc 1 997 42 view .LVU166
 652 0102 3244     		add	r2, r2, r6
 653 0104 92B2     		uxth	r2, r2
 997:lvgl/src/widgets/lv_btnmatrix.c **** 
 654              		.loc 1 997 26 view .LVU167
 655 0106 12FA83F3 		uxtah	r3, r2, r3
 656 010a ADF81630 		strh	r3, [sp, #22]	@ movhi
 657              	.L35:
 999:lvgl/src/widgets/lv_btnmatrix.c ****             break;
 658              		.loc 1 999 9 is_stmt 1 view .LVU168
 999:lvgl/src/widgets/lv_btnmatrix.c ****             break;
 659              		.loc 1 999 12 is_stmt 0 view .LVU169
 660 010e 0022     		movs	r2, #0
 661 0110 0399     		ldr	r1, [sp, #12]
 662 0112 04A8     		add	r0, sp, #16
ARM GAS  /var/folders/21/t9g5rlb91ys800n5npymflf80000gn/T//ccSbQiFP.s 			page 35


 663 0114 FFF7FEFF 		bl	_lv_area_is_point_on
 664              	.LVL62:
 999:lvgl/src/widgets/lv_btnmatrix.c ****             break;
 665              		.loc 1 999 11 view .LVU170
 666 0118 0028     		cmp	r0, #0
 667 011a 64D1     		bne	.L36
 983:lvgl/src/widgets/lv_btnmatrix.c ****         lv_area_copy(&btn_area, &btnm->button_areas[i]);
 668              		.loc 1 983 36 is_stmt 1 discriminator 2 view .LVU171
 669 011c 0134     		adds	r4, r4, #1
 670              	.LVL63:
 983:lvgl/src/widgets/lv_btnmatrix.c ****         lv_area_copy(&btn_area, &btnm->button_areas[i]);
 671              		.loc 1 983 36 is_stmt 0 discriminator 2 view .LVU172
 672 011e A4B2     		uxth	r4, r4
 673              	.LVL64:
 674              	.L27:
 983:lvgl/src/widgets/lv_btnmatrix.c ****         lv_area_copy(&btn_area, &btnm->button_areas[i]);
 675              		.loc 1 983 18 is_stmt 1 discriminator 1 view .LVU173
 983:lvgl/src/widgets/lv_btnmatrix.c ****         lv_area_copy(&btn_area, &btnm->button_areas[i]);
 676              		.loc 1 983 24 is_stmt 0 discriminator 1 view .LVU174
 677 0120 2B8E     		ldrh	r3, [r5, #48]
 983:lvgl/src/widgets/lv_btnmatrix.c ****         lv_area_copy(&btn_area, &btnm->button_areas[i]);
 678              		.loc 1 983 18 discriminator 1 view .LVU175
 679 0122 A342     		cmp	r3, r4
 680 0124 5FD9     		bls	.L36
 984:lvgl/src/widgets/lv_btnmatrix.c ****         if(btn_area.x1 <= pleft) btn_area.x1 += obj_cords.x1 - LV_MIN(pleft, BTN_EXTRA_CLICK_AREA_M
 681              		.loc 1 984 9 is_stmt 1 view .LVU176
 984:lvgl/src/widgets/lv_btnmatrix.c ****         if(btn_area.x1 <= pleft) btn_area.x1 += obj_cords.x1 - LV_MIN(pleft, BTN_EXTRA_CLICK_AREA_M
 682              		.loc 1 984 38 is_stmt 0 view .LVU177
 683 0126 AA6A     		ldr	r2, [r5, #40]
 984:lvgl/src/widgets/lv_btnmatrix.c ****         if(btn_area.x1 <= pleft) btn_area.x1 += obj_cords.x1 - LV_MIN(pleft, BTN_EXTRA_CLICK_AREA_M
 684              		.loc 1 984 33 view .LVU178
 685 0128 02EBC403 		add	r3, r2, r4, lsl #3
 686              	.LVL65:
 687              	.LBB93:
 688              	.LBI93:
 689              		.file 3 "lvgl/src/widgets/../core/../misc/../font/../misc/lv_area.h"
   1:lvgl/src/widgets/../core/../misc/../font/../misc/lv_area.h **** /**
   2:lvgl/src/widgets/../core/../misc/../font/../misc/lv_area.h ****  * @file lv_area.h
   3:lvgl/src/widgets/../core/../misc/../font/../misc/lv_area.h ****  *
   4:lvgl/src/widgets/../core/../misc/../font/../misc/lv_area.h ****  */
   5:lvgl/src/widgets/../core/../misc/../font/../misc/lv_area.h **** 
   6:lvgl/src/widgets/../core/../misc/../font/../misc/lv_area.h **** #ifndef LV_AREA_H
   7:lvgl/src/widgets/../core/../misc/../font/../misc/lv_area.h **** #define LV_AREA_H
   8:lvgl/src/widgets/../core/../misc/../font/../misc/lv_area.h **** 
   9:lvgl/src/widgets/../core/../misc/../font/../misc/lv_area.h **** #ifdef __cplusplus
  10:lvgl/src/widgets/../core/../misc/../font/../misc/lv_area.h **** extern "C" {
  11:lvgl/src/widgets/../core/../misc/../font/../misc/lv_area.h **** #endif
  12:lvgl/src/widgets/../core/../misc/../font/../misc/lv_area.h **** 
  13:lvgl/src/widgets/../core/../misc/../font/../misc/lv_area.h **** /*********************
  14:lvgl/src/widgets/../core/../misc/../font/../misc/lv_area.h ****  *      INCLUDES
  15:lvgl/src/widgets/../core/../misc/../font/../misc/lv_area.h ****  *********************/
  16:lvgl/src/widgets/../core/../misc/../font/../misc/lv_area.h **** #include "../lv_conf_internal.h"
  17:lvgl/src/widgets/../core/../misc/../font/../misc/lv_area.h **** #include <stdbool.h>
  18:lvgl/src/widgets/../core/../misc/../font/../misc/lv_area.h **** #include <stdint.h>
  19:lvgl/src/widgets/../core/../misc/../font/../misc/lv_area.h **** 
  20:lvgl/src/widgets/../core/../misc/../font/../misc/lv_area.h **** /*********************
  21:lvgl/src/widgets/../core/../misc/../font/../misc/lv_area.h ****  *      DEFINES
ARM GAS  /var/folders/21/t9g5rlb91ys800n5npymflf80000gn/T//ccSbQiFP.s 			page 36


  22:lvgl/src/widgets/../core/../misc/../font/../misc/lv_area.h ****  *********************/
  23:lvgl/src/widgets/../core/../misc/../font/../misc/lv_area.h **** 
  24:lvgl/src/widgets/../core/../misc/../font/../misc/lv_area.h **** #if LV_USE_LARGE_COORD
  25:lvgl/src/widgets/../core/../misc/../font/../misc/lv_area.h **** typedef int32_t lv_coord_t;
  26:lvgl/src/widgets/../core/../misc/../font/../misc/lv_area.h **** #else
  27:lvgl/src/widgets/../core/../misc/../font/../misc/lv_area.h **** typedef int16_t lv_coord_t;
  28:lvgl/src/widgets/../core/../misc/../font/../misc/lv_area.h **** #endif
  29:lvgl/src/widgets/../core/../misc/../font/../misc/lv_area.h **** 
  30:lvgl/src/widgets/../core/../misc/../font/../misc/lv_area.h **** /**********************
  31:lvgl/src/widgets/../core/../misc/../font/../misc/lv_area.h ****  *      TYPEDEFS
  32:lvgl/src/widgets/../core/../misc/../font/../misc/lv_area.h ****  **********************/
  33:lvgl/src/widgets/../core/../misc/../font/../misc/lv_area.h **** 
  34:lvgl/src/widgets/../core/../misc/../font/../misc/lv_area.h **** /**
  35:lvgl/src/widgets/../core/../misc/../font/../misc/lv_area.h ****  * Represents a point on the screen.
  36:lvgl/src/widgets/../core/../misc/../font/../misc/lv_area.h ****  */
  37:lvgl/src/widgets/../core/../misc/../font/../misc/lv_area.h **** typedef struct {
  38:lvgl/src/widgets/../core/../misc/../font/../misc/lv_area.h ****     lv_coord_t x;
  39:lvgl/src/widgets/../core/../misc/../font/../misc/lv_area.h ****     lv_coord_t y;
  40:lvgl/src/widgets/../core/../misc/../font/../misc/lv_area.h **** } lv_point_t;
  41:lvgl/src/widgets/../core/../misc/../font/../misc/lv_area.h **** 
  42:lvgl/src/widgets/../core/../misc/../font/../misc/lv_area.h **** /** Represents an area of the screen.*/
  43:lvgl/src/widgets/../core/../misc/../font/../misc/lv_area.h **** typedef struct {
  44:lvgl/src/widgets/../core/../misc/../font/../misc/lv_area.h ****     lv_coord_t x1;
  45:lvgl/src/widgets/../core/../misc/../font/../misc/lv_area.h ****     lv_coord_t y1;
  46:lvgl/src/widgets/../core/../misc/../font/../misc/lv_area.h ****     lv_coord_t x2;
  47:lvgl/src/widgets/../core/../misc/../font/../misc/lv_area.h ****     lv_coord_t y2;
  48:lvgl/src/widgets/../core/../misc/../font/../misc/lv_area.h **** } lv_area_t;
  49:lvgl/src/widgets/../core/../misc/../font/../misc/lv_area.h **** 
  50:lvgl/src/widgets/../core/../misc/../font/../misc/lv_area.h **** /** Alignments*/
  51:lvgl/src/widgets/../core/../misc/../font/../misc/lv_area.h **** enum {
  52:lvgl/src/widgets/../core/../misc/../font/../misc/lv_area.h ****     LV_ALIGN_DEFAULT = 0,
  53:lvgl/src/widgets/../core/../misc/../font/../misc/lv_area.h ****     LV_ALIGN_TOP_LEFT,
  54:lvgl/src/widgets/../core/../misc/../font/../misc/lv_area.h ****     LV_ALIGN_TOP_MID,
  55:lvgl/src/widgets/../core/../misc/../font/../misc/lv_area.h ****     LV_ALIGN_TOP_RIGHT,
  56:lvgl/src/widgets/../core/../misc/../font/../misc/lv_area.h ****     LV_ALIGN_BOTTOM_LEFT,
  57:lvgl/src/widgets/../core/../misc/../font/../misc/lv_area.h ****     LV_ALIGN_BOTTOM_MID,
  58:lvgl/src/widgets/../core/../misc/../font/../misc/lv_area.h ****     LV_ALIGN_BOTTOM_RIGHT,
  59:lvgl/src/widgets/../core/../misc/../font/../misc/lv_area.h ****     LV_ALIGN_LEFT_MID,
  60:lvgl/src/widgets/../core/../misc/../font/../misc/lv_area.h ****     LV_ALIGN_RIGHT_MID,
  61:lvgl/src/widgets/../core/../misc/../font/../misc/lv_area.h ****     LV_ALIGN_CENTER,
  62:lvgl/src/widgets/../core/../misc/../font/../misc/lv_area.h **** 
  63:lvgl/src/widgets/../core/../misc/../font/../misc/lv_area.h ****     LV_ALIGN_OUT_TOP_LEFT,
  64:lvgl/src/widgets/../core/../misc/../font/../misc/lv_area.h ****     LV_ALIGN_OUT_TOP_MID,
  65:lvgl/src/widgets/../core/../misc/../font/../misc/lv_area.h ****     LV_ALIGN_OUT_TOP_RIGHT,
  66:lvgl/src/widgets/../core/../misc/../font/../misc/lv_area.h ****     LV_ALIGN_OUT_BOTTOM_LEFT,
  67:lvgl/src/widgets/../core/../misc/../font/../misc/lv_area.h ****     LV_ALIGN_OUT_BOTTOM_MID,
  68:lvgl/src/widgets/../core/../misc/../font/../misc/lv_area.h ****     LV_ALIGN_OUT_BOTTOM_RIGHT,
  69:lvgl/src/widgets/../core/../misc/../font/../misc/lv_area.h ****     LV_ALIGN_OUT_LEFT_TOP,
  70:lvgl/src/widgets/../core/../misc/../font/../misc/lv_area.h ****     LV_ALIGN_OUT_LEFT_MID,
  71:lvgl/src/widgets/../core/../misc/../font/../misc/lv_area.h ****     LV_ALIGN_OUT_LEFT_BOTTOM,
  72:lvgl/src/widgets/../core/../misc/../font/../misc/lv_area.h ****     LV_ALIGN_OUT_RIGHT_TOP,
  73:lvgl/src/widgets/../core/../misc/../font/../misc/lv_area.h ****     LV_ALIGN_OUT_RIGHT_MID,
  74:lvgl/src/widgets/../core/../misc/../font/../misc/lv_area.h ****     LV_ALIGN_OUT_RIGHT_BOTTOM,
  75:lvgl/src/widgets/../core/../misc/../font/../misc/lv_area.h **** };
  76:lvgl/src/widgets/../core/../misc/../font/../misc/lv_area.h **** typedef uint8_t lv_align_t;
  77:lvgl/src/widgets/../core/../misc/../font/../misc/lv_area.h **** 
  78:lvgl/src/widgets/../core/../misc/../font/../misc/lv_area.h **** enum {
ARM GAS  /var/folders/21/t9g5rlb91ys800n5npymflf80000gn/T//ccSbQiFP.s 			page 37


  79:lvgl/src/widgets/../core/../misc/../font/../misc/lv_area.h ****     LV_DIR_NONE     = 0x00,
  80:lvgl/src/widgets/../core/../misc/../font/../misc/lv_area.h ****     LV_DIR_LEFT     = (1 << 0),
  81:lvgl/src/widgets/../core/../misc/../font/../misc/lv_area.h ****     LV_DIR_RIGHT    = (1 << 1),
  82:lvgl/src/widgets/../core/../misc/../font/../misc/lv_area.h ****     LV_DIR_TOP      = (1 << 2),
  83:lvgl/src/widgets/../core/../misc/../font/../misc/lv_area.h ****     LV_DIR_BOTTOM   = (1 << 3),
  84:lvgl/src/widgets/../core/../misc/../font/../misc/lv_area.h ****     LV_DIR_HOR      = LV_DIR_LEFT | LV_DIR_RIGHT,
  85:lvgl/src/widgets/../core/../misc/../font/../misc/lv_area.h ****     LV_DIR_VER      = LV_DIR_TOP | LV_DIR_BOTTOM,
  86:lvgl/src/widgets/../core/../misc/../font/../misc/lv_area.h ****     LV_DIR_ALL      = LV_DIR_HOR | LV_DIR_VER,
  87:lvgl/src/widgets/../core/../misc/../font/../misc/lv_area.h **** };
  88:lvgl/src/widgets/../core/../misc/../font/../misc/lv_area.h **** 
  89:lvgl/src/widgets/../core/../misc/../font/../misc/lv_area.h **** typedef uint8_t lv_dir_t;
  90:lvgl/src/widgets/../core/../misc/../font/../misc/lv_area.h **** 
  91:lvgl/src/widgets/../core/../misc/../font/../misc/lv_area.h **** /**********************
  92:lvgl/src/widgets/../core/../misc/../font/../misc/lv_area.h ****  * GLOBAL PROTOTYPES
  93:lvgl/src/widgets/../core/../misc/../font/../misc/lv_area.h ****  **********************/
  94:lvgl/src/widgets/../core/../misc/../font/../misc/lv_area.h **** 
  95:lvgl/src/widgets/../core/../misc/../font/../misc/lv_area.h **** /**
  96:lvgl/src/widgets/../core/../misc/../font/../misc/lv_area.h ****  * Initialize an area
  97:lvgl/src/widgets/../core/../misc/../font/../misc/lv_area.h ****  * @param area_p pointer to an area
  98:lvgl/src/widgets/../core/../misc/../font/../misc/lv_area.h ****  * @param x1 left coordinate of the area
  99:lvgl/src/widgets/../core/../misc/../font/../misc/lv_area.h ****  * @param y1 top coordinate of the area
 100:lvgl/src/widgets/../core/../misc/../font/../misc/lv_area.h ****  * @param x2 right coordinate of the area
 101:lvgl/src/widgets/../core/../misc/../font/../misc/lv_area.h ****  * @param y2 bottom coordinate of the area
 102:lvgl/src/widgets/../core/../misc/../font/../misc/lv_area.h ****  */
 103:lvgl/src/widgets/../core/../misc/../font/../misc/lv_area.h **** void lv_area_set(lv_area_t * area_p, lv_coord_t x1, lv_coord_t y1, lv_coord_t x2, lv_coord_t y2);
 104:lvgl/src/widgets/../core/../misc/../font/../misc/lv_area.h **** 
 105:lvgl/src/widgets/../core/../misc/../font/../misc/lv_area.h **** /**
 106:lvgl/src/widgets/../core/../misc/../font/../misc/lv_area.h ****  * Copy an area
 107:lvgl/src/widgets/../core/../misc/../font/../misc/lv_area.h ****  * @param dest pointer to the destination area
 108:lvgl/src/widgets/../core/../misc/../font/../misc/lv_area.h ****  * @param src pointer to the source area
 109:lvgl/src/widgets/../core/../misc/../font/../misc/lv_area.h ****  */
 110:lvgl/src/widgets/../core/../misc/../font/../misc/lv_area.h **** inline static void lv_area_copy(lv_area_t * dest, const lv_area_t * src)
 690              		.loc 3 110 20 is_stmt 1 view .LVU179
 691              	.LBB94:
 111:lvgl/src/widgets/../core/../misc/../font/../misc/lv_area.h **** {
 112:lvgl/src/widgets/../core/../misc/../font/../misc/lv_area.h ****     dest->x1 = src->x1;
 692              		.loc 3 112 5 view .LVU180
 693              		.loc 3 112 19 is_stmt 0 view .LVU181
 694 012c 32F93400 		ldrsh	r0, [r2, r4, lsl #3]
 695              		.loc 3 112 14 view .LVU182
 696 0130 ADF81000 		strh	r0, [sp, #16]	@ movhi
 113:lvgl/src/widgets/../core/../misc/../font/../misc/lv_area.h ****     dest->y1 = src->y1;
 697              		.loc 3 113 5 is_stmt 1 view .LVU183
 698              		.loc 3 113 19 is_stmt 0 view .LVU184
 699 0134 B3F90210 		ldrsh	r1, [r3, #2]
 700              		.loc 3 113 14 view .LVU185
 701 0138 ADF81210 		strh	r1, [sp, #18]	@ movhi
 114:lvgl/src/widgets/../core/../misc/../font/../misc/lv_area.h ****     dest->x2 = src->x2;
 702              		.loc 3 114 5 is_stmt 1 view .LVU186
 703              		.loc 3 114 19 is_stmt 0 view .LVU187
 704 013c B3F90420 		ldrsh	r2, [r3, #4]
 705              		.loc 3 114 14 view .LVU188
 706 0140 ADF81420 		strh	r2, [sp, #20]	@ movhi
 115:lvgl/src/widgets/../core/../misc/../font/../misc/lv_area.h ****     dest->y2 = src->y2;
 707              		.loc 3 115 5 is_stmt 1 view .LVU189
 708              		.loc 3 115 19 is_stmt 0 view .LVU190
 709 0144 B3F90630 		ldrsh	r3, [r3, #6]
ARM GAS  /var/folders/21/t9g5rlb91ys800n5npymflf80000gn/T//ccSbQiFP.s 			page 38


 710              	.LVL66:
 711              		.loc 3 115 14 view .LVU191
 712 0148 ADF81630 		strh	r3, [sp, #22]	@ movhi
 713              	.LVL67:
 714              		.loc 3 115 14 view .LVU192
 715              	.LBE94:
 716              	.LBE93:
 985:lvgl/src/widgets/lv_btnmatrix.c ****         else btn_area.x1 += obj_cords.x1 - pcol;
 717              		.loc 1 985 9 is_stmt 1 view .LVU193
 985:lvgl/src/widgets/lv_btnmatrix.c ****         else btn_area.x1 += obj_cords.x1 - pcol;
 718              		.loc 1 985 11 is_stmt 0 view .LVU194
 719 014c 8345     		cmp	fp, r0
 720 014e B9DB     		blt	.L28
 985:lvgl/src/widgets/lv_btnmatrix.c ****         else btn_area.x1 += obj_cords.x1 - pcol;
 721              		.loc 1 985 34 is_stmt 1 discriminator 1 view .LVU195
 985:lvgl/src/widgets/lv_btnmatrix.c ****         else btn_area.x1 += obj_cords.x1 - pcol;
 722              		.loc 1 985 58 is_stmt 0 discriminator 1 view .LVU196
 723 0150 BDF818C0 		ldrh	ip, [sp, #24]
 985:lvgl/src/widgets/lv_btnmatrix.c ****         else btn_area.x1 += obj_cords.x1 - pcol;
 724              		.loc 1 985 64 discriminator 1 view .LVU197
 725 0154 DE46     		mov	lr, fp
 726 0156 BBF10D0F 		cmp	fp, #13
 727 015a A8BF     		it	ge
 728 015c 4FF00D0E 		movge	lr, #13
 729 0160 1FFA8EFE 		uxth	lr, lr
 985:lvgl/src/widgets/lv_btnmatrix.c ****         else btn_area.x1 += obj_cords.x1 - pcol;
 730              		.loc 1 985 62 discriminator 1 view .LVU198
 731 0164 ACEB0E0C 		sub	ip, ip, lr
 732 0168 1FFA8CFC 		uxth	ip, ip
 985:lvgl/src/widgets/lv_btnmatrix.c ****         else btn_area.x1 += obj_cords.x1 - pcol;
 733              		.loc 1 985 46 discriminator 1 view .LVU199
 734 016c 1CFA80F0 		uxtah	r0, ip, r0
 735 0170 ADF81000 		strh	r0, [sp, #16]	@ movhi
 736              	.L29:
 988:lvgl/src/widgets/lv_btnmatrix.c ****         else btn_area.y1 += obj_cords.y1 - prow;
 737              		.loc 1 988 9 is_stmt 1 view .LVU200
 988:lvgl/src/widgets/lv_btnmatrix.c ****         else btn_area.y1 += obj_cords.y1 - prow;
 738              		.loc 1 988 11 is_stmt 0 view .LVU201
 739 0174 8845     		cmp	r8, r1
 740 0176 B0DB     		blt	.L30
 988:lvgl/src/widgets/lv_btnmatrix.c ****         else btn_area.y1 += obj_cords.y1 - prow;
 741              		.loc 1 988 33 is_stmt 1 discriminator 1 view .LVU202
 988:lvgl/src/widgets/lv_btnmatrix.c ****         else btn_area.y1 += obj_cords.y1 - prow;
 742              		.loc 1 988 57 is_stmt 0 discriminator 1 view .LVU203
 743 0178 BDF81A00 		ldrh	r0, [sp, #26]
 988:lvgl/src/widgets/lv_btnmatrix.c ****         else btn_area.y1 += obj_cords.y1 - prow;
 744              		.loc 1 988 63 discriminator 1 view .LVU204
 745 017c C446     		mov	ip, r8
 746 017e B8F10D0F 		cmp	r8, #13
 747 0182 A8BF     		it	ge
 748 0184 4FF00D0C 		movge	ip, #13
 749 0188 1FFA8CFC 		uxth	ip, ip
 988:lvgl/src/widgets/lv_btnmatrix.c ****         else btn_area.y1 += obj_cords.y1 - prow;
 750              		.loc 1 988 61 discriminator 1 view .LVU205
 751 018c A0EB0C00 		sub	r0, r0, ip
 752 0190 80B2     		uxth	r0, r0
 988:lvgl/src/widgets/lv_btnmatrix.c ****         else btn_area.y1 += obj_cords.y1 - prow;
ARM GAS  /var/folders/21/t9g5rlb91ys800n5npymflf80000gn/T//ccSbQiFP.s 			page 39


 753              		.loc 1 988 45 discriminator 1 view .LVU206
 754 0192 10FA81F1 		uxtah	r1, r0, r1
 755 0196 ADF81210 		strh	r1, [sp, #18]	@ movhi
 756              	.L31:
 991:lvgl/src/widgets/lv_btnmatrix.c ****                                                                                    BTN_EXTRA_CLICK_
 757              		.loc 1 991 9 is_stmt 1 view .LVU207
 991:lvgl/src/widgets/lv_btnmatrix.c ****                                                                                    BTN_EXTRA_CLICK_
 758              		.loc 1 991 29 is_stmt 0 view .LVU208
 759 019a 0199     		ldr	r1, [sp, #4]
 760 019c A1EB0901 		sub	r1, r1, r9
 991:lvgl/src/widgets/lv_btnmatrix.c ****                                                                                    BTN_EXTRA_CLICK_
 761              		.loc 1 991 38 view .LVU209
 762 01a0 0239     		subs	r1, r1, #2
 991:lvgl/src/widgets/lv_btnmatrix.c ****                                                                                    BTN_EXTRA_CLICK_
 763              		.loc 1 991 11 view .LVU210
 764 01a2 8A42     		cmp	r2, r1
 765 01a4 A2DB     		blt	.L32
 991:lvgl/src/widgets/lv_btnmatrix.c ****                                                                                    BTN_EXTRA_CLICK_
 766              		.loc 1 991 43 is_stmt 1 discriminator 1 view .LVU211
 991:lvgl/src/widgets/lv_btnmatrix.c ****                                                                                    BTN_EXTRA_CLICK_
 767              		.loc 1 991 67 is_stmt 0 discriminator 1 view .LVU212
 768 01a6 BDF81800 		ldrh	r0, [sp, #24]
 991:lvgl/src/widgets/lv_btnmatrix.c ****                                                                                    BTN_EXTRA_CLICK_
 769              		.loc 1 991 73 discriminator 1 view .LVU213
 770 01aa 4946     		mov	r1, r9
 771 01ac 0D29     		cmp	r1, #13
 772 01ae A8BF     		it	ge
 773 01b0 0D21     		movge	r1, #13
 991:lvgl/src/widgets/lv_btnmatrix.c ****                                                                                    BTN_EXTRA_CLICK_
 774              		.loc 1 991 71 discriminator 1 view .LVU214
 775 01b2 10FA81F1 		uxtah	r1, r0, r1
 776 01b6 89B2     		uxth	r1, r1
 991:lvgl/src/widgets/lv_btnmatrix.c ****                                                                                    BTN_EXTRA_CLICK_
 777              		.loc 1 991 55 discriminator 1 view .LVU215
 778 01b8 11FA82F2 		uxtah	r2, r1, r2
 779 01bc ADF81420 		strh	r2, [sp, #20]	@ movhi
 780              	.L33:
 995:lvgl/src/widgets/lv_btnmatrix.c ****                                                                                     BTN_EXTRA_CLICK
 781              		.loc 1 995 9 is_stmt 1 view .LVU216
 995:lvgl/src/widgets/lv_btnmatrix.c ****                                                                                     BTN_EXTRA_CLICK
 782              		.loc 1 995 29 is_stmt 0 view .LVU217
 783 01c0 029A     		ldr	r2, [sp, #8]
 784 01c2 D21B     		subs	r2, r2, r7
 995:lvgl/src/widgets/lv_btnmatrix.c ****                                                                                     BTN_EXTRA_CLICK
 785              		.loc 1 995 39 view .LVU218
 786 01c4 023A     		subs	r2, r2, #2
 995:lvgl/src/widgets/lv_btnmatrix.c ****                                                                                     BTN_EXTRA_CLICK
 787              		.loc 1 995 11 view .LVU219
 788 01c6 9342     		cmp	r3, r2
 789 01c8 99DB     		blt	.L34
 995:lvgl/src/widgets/lv_btnmatrix.c ****                                                                                     BTN_EXTRA_CLICK
 790              		.loc 1 995 44 is_stmt 1 discriminator 1 view .LVU220
 995:lvgl/src/widgets/lv_btnmatrix.c ****                                                                                     BTN_EXTRA_CLICK
 791              		.loc 1 995 68 is_stmt 0 discriminator 1 view .LVU221
 792 01ca BDF81A10 		ldrh	r1, [sp, #26]
 995:lvgl/src/widgets/lv_btnmatrix.c ****                                                                                     BTN_EXTRA_CLICK
 793              		.loc 1 995 74 discriminator 1 view .LVU222
ARM GAS  /var/folders/21/t9g5rlb91ys800n5npymflf80000gn/T//ccSbQiFP.s 			page 40


 794 01ce 3A46     		mov	r2, r7
 795 01d0 0D2F     		cmp	r7, #13
 796 01d2 A8BF     		it	ge
 797 01d4 0D22     		movge	r2, #13
 995:lvgl/src/widgets/lv_btnmatrix.c ****                                                                                     BTN_EXTRA_CLICK
 798              		.loc 1 995 72 discriminator 1 view .LVU223
 799 01d6 11FA82F2 		uxtah	r2, r1, r2
 800 01da 92B2     		uxth	r2, r2
 995:lvgl/src/widgets/lv_btnmatrix.c ****                                                                                     BTN_EXTRA_CLICK
 801              		.loc 1 995 56 discriminator 1 view .LVU224
 802 01dc 12FA83F3 		uxtah	r3, r2, r3
 803 01e0 ADF81630 		strh	r3, [sp, #22]	@ movhi
 804 01e4 93E7     		b	.L35
 805              	.L36:
1004:lvgl/src/widgets/lv_btnmatrix.c **** 
 806              		.loc 1 1004 5 is_stmt 1 view .LVU225
1004:lvgl/src/widgets/lv_btnmatrix.c **** 
 807              		.loc 1 1004 17 is_stmt 0 view .LVU226
 808 01e6 2B8E     		ldrh	r3, [r5, #48]
1004:lvgl/src/widgets/lv_btnmatrix.c **** 
 809              		.loc 1 1004 7 view .LVU227
 810 01e8 A342     		cmp	r3, r4
 811 01ea 03D0     		beq	.L41
 812              	.LVL68:
 813              	.L38:
1006:lvgl/src/widgets/lv_btnmatrix.c **** }
 814              		.loc 1 1006 5 is_stmt 1 view .LVU228
1007:lvgl/src/widgets/lv_btnmatrix.c **** 
 815              		.loc 1 1007 1 is_stmt 0 view .LVU229
 816 01ec 2046     		mov	r0, r4
 817 01ee 09B0     		add	sp, sp, #36
 818              	.LCFI5:
 819              		.cfi_remember_state
 820              		.cfi_def_cfa_offset 36
 821              		@ sp needed
 822 01f0 BDE8F08F 		pop	{r4, r5, r6, r7, r8, r9, r10, fp, pc}
 823              	.LVL69:
 824              	.L41:
 825              	.LCFI6:
 826              		.cfi_restore_state
1004:lvgl/src/widgets/lv_btnmatrix.c **** 
 827              		.loc 1 1004 30 view .LVU230
 828 01f4 4FF6FF74 		movw	r4, #65535
 829              	.LVL70:
1004:lvgl/src/widgets/lv_btnmatrix.c **** 
 830              		.loc 1 1004 30 view .LVU231
 831 01f8 F8E7     		b	.L38
 832              		.cfi_endproc
 833              	.LFE191:
 835              		.section	.text.invalidate_button_area,"ax",%progbits
 836              		.align	1
 837              		.syntax unified
 838              		.thumb
 839              		.thumb_func
 841              	invalidate_button_area:
 842              	.LVL71:
 843              	.LFB192:
ARM GAS  /var/folders/21/t9g5rlb91ys800n5npymflf80000gn/T//ccSbQiFP.s 			page 41


1010:lvgl/src/widgets/lv_btnmatrix.c ****     if(btn_idx == LV_BTNMATRIX_BTN_NONE) return;
 844              		.loc 1 1010 1 is_stmt 1 view -0
 845              		.cfi_startproc
 846              		@ args = 0, pretend = 0, frame = 16
 847              		@ frame_needed = 0, uses_anonymous_args = 0
1011:lvgl/src/widgets/lv_btnmatrix.c **** 
 848              		.loc 1 1011 5 view .LVU233
1011:lvgl/src/widgets/lv_btnmatrix.c **** 
 849              		.loc 1 1011 7 is_stmt 0 view .LVU234
 850 0000 4FF6FF73 		movw	r3, #65535
 851 0004 9942     		cmp	r1, r3
 852 0006 76D0     		beq	.L47
1010:lvgl/src/widgets/lv_btnmatrix.c ****     if(btn_idx == LV_BTNMATRIX_BTN_NONE) return;
 853              		.loc 1 1010 1 view .LVU235
 854 0008 F0B5     		push	{r4, r5, r6, r7, lr}
 855              	.LCFI7:
 856              		.cfi_def_cfa_offset 20
 857              		.cfi_offset 4, -20
 858              		.cfi_offset 5, -16
 859              		.cfi_offset 6, -12
 860              		.cfi_offset 7, -8
 861              		.cfi_offset 14, -4
 862 000a 85B0     		sub	sp, sp, #20
 863              	.LCFI8:
 864              		.cfi_def_cfa_offset 40
 865 000c 0446     		mov	r4, r0
 866 000e 0D46     		mov	r5, r1
1013:lvgl/src/widgets/lv_btnmatrix.c ****     lv_area_t obj_area;
 867              		.loc 1 1013 5 is_stmt 1 view .LVU236
1014:lvgl/src/widgets/lv_btnmatrix.c **** 
 868              		.loc 1 1014 5 view .LVU237
1016:lvgl/src/widgets/lv_btnmatrix.c ****     if(btn_idx >= btnm->btn_cnt) return;
 869              		.loc 1 1016 5 view .LVU238
 870              	.LVL72:
1016:lvgl/src/widgets/lv_btnmatrix.c ****     if(btn_idx >= btnm->btn_cnt) return;
 871              		.loc 1 1016 51 view .LVU239
1017:lvgl/src/widgets/lv_btnmatrix.c **** 
 872              		.loc 1 1017 5 view .LVU240
1017:lvgl/src/widgets/lv_btnmatrix.c **** 
 873              		.loc 1 1017 23 is_stmt 0 view .LVU241
 874 0010 038E     		ldrh	r3, [r0, #48]
1017:lvgl/src/widgets/lv_btnmatrix.c **** 
 875              		.loc 1 1017 7 view .LVU242
 876 0012 8B42     		cmp	r3, r1
 877 0014 01D8     		bhi	.L50
 878              	.LVL73:
 879              	.L42:
1044:lvgl/src/widgets/lv_btnmatrix.c **** 
 880              		.loc 1 1044 1 view .LVU243
 881 0016 05B0     		add	sp, sp, #20
 882              	.LCFI9:
 883              		.cfi_remember_state
 884              		.cfi_def_cfa_offset 20
 885              		@ sp needed
 886 0018 F0BD     		pop	{r4, r5, r6, r7, pc}
 887              	.LVL74:
 888              	.L50:
ARM GAS  /var/folders/21/t9g5rlb91ys800n5npymflf80000gn/T//ccSbQiFP.s 			page 42


 889              	.LCFI10:
 890              		.cfi_restore_state
1019:lvgl/src/widgets/lv_btnmatrix.c ****     lv_obj_get_coords(obj, &obj_area);
 891              		.loc 1 1019 5 is_stmt 1 view .LVU244
1019:lvgl/src/widgets/lv_btnmatrix.c ****     lv_obj_get_coords(obj, &obj_area);
 892              		.loc 1 1019 34 is_stmt 0 view .LVU245
 893 001a 826A     		ldr	r2, [r0, #40]
1019:lvgl/src/widgets/lv_btnmatrix.c ****     lv_obj_get_coords(obj, &obj_area);
 894              		.loc 1 1019 29 view .LVU246
 895 001c 02EBC103 		add	r3, r2, r1, lsl #3
 896              	.LVL75:
 897              	.LBB95:
 898              	.LBI95:
 110:lvgl/src/widgets/../core/../misc/../font/../misc/lv_area.h **** {
 899              		.loc 3 110 20 is_stmt 1 view .LVU247
 900              	.LBB96:
 112:lvgl/src/widgets/../core/../misc/../font/../misc/lv_area.h ****     dest->y1 = src->y1;
 901              		.loc 3 112 5 view .LVU248
 112:lvgl/src/widgets/../core/../misc/../font/../misc/lv_area.h ****     dest->y1 = src->y1;
 902              		.loc 3 112 19 is_stmt 0 view .LVU249
 903 0020 32F93120 		ldrsh	r2, [r2, r1, lsl #3]
 112:lvgl/src/widgets/../core/../misc/../font/../misc/lv_area.h ****     dest->y1 = src->y1;
 904              		.loc 3 112 14 view .LVU250
 905 0024 ADF80820 		strh	r2, [sp, #8]	@ movhi
 113:lvgl/src/widgets/../core/../misc/../font/../misc/lv_area.h ****     dest->x2 = src->x2;
 906              		.loc 3 113 5 is_stmt 1 view .LVU251
 113:lvgl/src/widgets/../core/../misc/../font/../misc/lv_area.h ****     dest->x2 = src->x2;
 907              		.loc 3 113 19 is_stmt 0 view .LVU252
 908 0028 B3F90220 		ldrsh	r2, [r3, #2]
 113:lvgl/src/widgets/../core/../misc/../font/../misc/lv_area.h ****     dest->x2 = src->x2;
 909              		.loc 3 113 14 view .LVU253
 910 002c ADF80A20 		strh	r2, [sp, #10]	@ movhi
 114:lvgl/src/widgets/../core/../misc/../font/../misc/lv_area.h ****     dest->y2 = src->y2;
 911              		.loc 3 114 5 is_stmt 1 view .LVU254
 114:lvgl/src/widgets/../core/../misc/../font/../misc/lv_area.h ****     dest->y2 = src->y2;
 912              		.loc 3 114 19 is_stmt 0 view .LVU255
 913 0030 B3F90420 		ldrsh	r2, [r3, #4]
 114:lvgl/src/widgets/../core/../misc/../font/../misc/lv_area.h ****     dest->y2 = src->y2;
 914              		.loc 3 114 14 view .LVU256
 915 0034 ADF80C20 		strh	r2, [sp, #12]	@ movhi
 916              		.loc 3 115 5 is_stmt 1 view .LVU257
 917              		.loc 3 115 19 is_stmt 0 view .LVU258
 918 0038 B3F90630 		ldrsh	r3, [r3, #6]
 919              	.LVL76:
 920              		.loc 3 115 14 view .LVU259
 921 003c ADF80E30 		strh	r3, [sp, #14]	@ movhi
 922              	.LVL77:
 923              		.loc 3 115 14 view .LVU260
 924              	.LBE96:
 925              	.LBE95:
1020:lvgl/src/widgets/lv_btnmatrix.c **** 
 926              		.loc 1 1020 5 is_stmt 1 view .LVU261
 927 0040 6946     		mov	r1, sp
 928              	.LVL78:
1020:lvgl/src/widgets/lv_btnmatrix.c **** 
 929              		.loc 1 1020 5 is_stmt 0 view .LVU262
 930 0042 FFF7FEFF 		bl	lv_obj_get_coords
ARM GAS  /var/folders/21/t9g5rlb91ys800n5npymflf80000gn/T//ccSbQiFP.s 			page 43


 931              	.LVL79:
1024:lvgl/src/widgets/lv_btnmatrix.c ****     lv_coord_t col_gap = lv_obj_get_style_pad_column(obj, LV_PART_MAIN);
 932              		.loc 1 1024 5 is_stmt 1 view .LVU263
 933              	.LBB97:
 934              	.LBI97:
 127:lvgl/src/widgets/../core/lv_obj_style_gen.h **** {
 935              		.loc 2 127 26 view .LVU264
 936              	.LBB98:
 129:lvgl/src/widgets/../core/lv_obj_style_gen.h ****     return (lv_coord_t)v.num;
 937              		.loc 2 129 5 view .LVU265
 129:lvgl/src/widgets/../core/lv_obj_style_gen.h ****     return (lv_coord_t)v.num;
 938              		.loc 2 129 26 is_stmt 0 view .LVU266
 939 0046 1422     		movs	r2, #20
 940 0048 0021     		movs	r1, #0
 941 004a 2046     		mov	r0, r4
 942 004c FFF7FEFF 		bl	lv_obj_get_style_prop
 943              	.LVL80:
 130:lvgl/src/widgets/../core/lv_obj_style_gen.h **** }
 944              		.loc 2 130 5 is_stmt 1 view .LVU267
 130:lvgl/src/widgets/../core/lv_obj_style_gen.h **** }
 945              		.loc 2 130 12 is_stmt 0 view .LVU268
 946 0050 06B2     		sxth	r6, r0
 947              	.LVL81:
 130:lvgl/src/widgets/../core/lv_obj_style_gen.h **** }
 948              		.loc 2 130 12 view .LVU269
 949              	.LBE98:
 950              	.LBE97:
1025:lvgl/src/widgets/lv_btnmatrix.c **** 
 951              		.loc 1 1025 5 is_stmt 1 view .LVU270
 952              	.LBB99:
 953              	.LBI99:
 133:lvgl/src/widgets/../core/lv_obj_style_gen.h **** {
 954              		.loc 2 133 26 view .LVU271
 955              	.LBB100:
 135:lvgl/src/widgets/../core/lv_obj_style_gen.h ****     return (lv_coord_t)v.num;
 956              		.loc 2 135 5 view .LVU272
 135:lvgl/src/widgets/../core/lv_obj_style_gen.h ****     return (lv_coord_t)v.num;
 957              		.loc 2 135 26 is_stmt 0 view .LVU273
 958 0052 1522     		movs	r2, #21
 959 0054 0021     		movs	r1, #0
 960 0056 2046     		mov	r0, r4
 961 0058 FFF7FEFF 		bl	lv_obj_get_style_prop
 962              	.LVL82:
 963              		.loc 2 136 5 is_stmt 1 view .LVU274
 964              		.loc 2 136 12 is_stmt 0 view .LVU275
 965 005c 07B2     		sxth	r7, r0
 966              	.LVL83:
 967              		.loc 2 136 12 view .LVU276
 968              	.LBE100:
 969              	.LBE99:
1028:lvgl/src/widgets/lv_btnmatrix.c ****     row_gap = LV_MAX(row_gap, dpi / 10);
 970              		.loc 1 1028 5 is_stmt 1 view .LVU277
1028:lvgl/src/widgets/lv_btnmatrix.c ****     row_gap = LV_MAX(row_gap, dpi / 10);
 971              		.loc 1 1028 38 is_stmt 0 view .LVU278
 972 005e 2046     		mov	r0, r4
 973 0060 FFF7FEFF 		bl	lv_obj_get_disp
 974              	.LVL84:
ARM GAS  /var/folders/21/t9g5rlb91ys800n5npymflf80000gn/T//ccSbQiFP.s 			page 44


1028:lvgl/src/widgets/lv_btnmatrix.c ****     row_gap = LV_MAX(row_gap, dpi / 10);
 975              		.loc 1 1028 22 view .LVU279
 976 0064 FFF7FEFF 		bl	lv_disp_get_dpi
 977              	.LVL85:
1029:lvgl/src/widgets/lv_btnmatrix.c ****     col_gap = LV_MAX(col_gap, dpi / 10);
 978              		.loc 1 1029 5 is_stmt 1 view .LVU280
1029:lvgl/src/widgets/lv_btnmatrix.c ****     col_gap = LV_MAX(col_gap, dpi / 10);
 979              		.loc 1 1029 15 is_stmt 0 view .LVU281
 980 0068 234A     		ldr	r2, .L52
 981 006a 82FB0032 		smull	r3, r2, r2, r0
 982 006e C317     		asrs	r3, r0, #31
 983 0070 C3EBA203 		rsb	r3, r3, r2, asr #2
 984 0074 1BB2     		sxth	r3, r3
1029:lvgl/src/widgets/lv_btnmatrix.c ****     col_gap = LV_MAX(col_gap, dpi / 10);
 985              		.loc 1 1029 13 view .LVU282
 986 0076 9E42     		cmp	r6, r3
 987 0078 B8BF     		it	lt
 988 007a 1E46     		movlt	r6, r3
 989              	.LVL86:
1030:lvgl/src/widgets/lv_btnmatrix.c **** 
 990              		.loc 1 1030 5 is_stmt 1 view .LVU283
1030:lvgl/src/widgets/lv_btnmatrix.c **** 
 991              		.loc 1 1030 13 is_stmt 0 view .LVU284
 992 007c BB42     		cmp	r3, r7
 993 007e B8BF     		it	lt
 994 0080 3B46     		movlt	r3, r7
 995              	.LVL87:
1033:lvgl/src/widgets/lv_btnmatrix.c ****     btn_area.y1 += obj_area.y1 - col_gap;
 996              		.loc 1 1033 5 is_stmt 1 view .LVU285
1033:lvgl/src/widgets/lv_btnmatrix.c ****     btn_area.y1 += obj_area.y1 - col_gap;
 997              		.loc 1 1033 13 is_stmt 0 view .LVU286
 998 0082 BDF80800 		ldrh	r0, [sp, #8]
 999              	.LVL88:
1033:lvgl/src/widgets/lv_btnmatrix.c ****     btn_area.y1 += obj_area.y1 - col_gap;
 1000              		.loc 1 1033 28 view .LVU287
 1001 0086 BDF80010 		ldrh	r1, [sp]
1033:lvgl/src/widgets/lv_btnmatrix.c ****     btn_area.y1 += obj_area.y1 - col_gap;
 1002              		.loc 1 1033 32 view .LVU288
 1003 008a B6B2     		uxth	r6, r6
1033:lvgl/src/widgets/lv_btnmatrix.c ****     btn_area.y1 += obj_area.y1 - col_gap;
 1004              		.loc 1 1033 32 view .LVU289
 1005 008c 8A1B     		subs	r2, r1, r6
1033:lvgl/src/widgets/lv_btnmatrix.c ****     btn_area.y1 += obj_area.y1 - col_gap;
 1006              		.loc 1 1033 17 view .LVU290
 1007 008e 10FA82F2 		uxtah	r2, r0, r2
 1008 0092 ADF80820 		strh	r2, [sp, #8]	@ movhi
1034:lvgl/src/widgets/lv_btnmatrix.c ****     btn_area.x2 += obj_area.x1 + row_gap;
 1009              		.loc 1 1034 5 is_stmt 1 view .LVU291
1034:lvgl/src/widgets/lv_btnmatrix.c ****     btn_area.x2 += obj_area.x1 + row_gap;
 1010              		.loc 1 1034 13 is_stmt 0 view .LVU292
 1011 0096 BDF80A70 		ldrh	r7, [sp, #10]
1034:lvgl/src/widgets/lv_btnmatrix.c ****     btn_area.x2 += obj_area.x1 + row_gap;
 1012              		.loc 1 1034 28 view .LVU293
 1013 009a BDF80220 		ldrh	r2, [sp, #2]
1034:lvgl/src/widgets/lv_btnmatrix.c ****     btn_area.x2 += obj_area.x1 + row_gap;
 1014              		.loc 1 1034 32 view .LVU294
 1015 009e 9BB2     		uxth	r3, r3
ARM GAS  /var/folders/21/t9g5rlb91ys800n5npymflf80000gn/T//ccSbQiFP.s 			page 45


1034:lvgl/src/widgets/lv_btnmatrix.c ****     btn_area.x2 += obj_area.x1 + row_gap;
 1016              		.loc 1 1034 32 view .LVU295
 1017 00a0 D01A     		subs	r0, r2, r3
1034:lvgl/src/widgets/lv_btnmatrix.c ****     btn_area.x2 += obj_area.x1 + row_gap;
 1018              		.loc 1 1034 17 view .LVU296
 1019 00a2 17FA80F0 		uxtah	r0, r7, r0
 1020 00a6 80B2     		uxth	r0, r0
 1021 00a8 ADF80A00 		strh	r0, [sp, #10]	@ movhi
1035:lvgl/src/widgets/lv_btnmatrix.c ****     btn_area.y2 += obj_area.y1 + col_gap;
 1022              		.loc 1 1035 5 is_stmt 1 view .LVU297
1035:lvgl/src/widgets/lv_btnmatrix.c ****     btn_area.y2 += obj_area.y1 + col_gap;
 1023              		.loc 1 1035 13 is_stmt 0 view .LVU298
 1024 00ac BDF80C70 		ldrh	r7, [sp, #12]
1035:lvgl/src/widgets/lv_btnmatrix.c ****     btn_area.y2 += obj_area.y1 + col_gap;
 1025              		.loc 1 1035 32 view .LVU299
 1026 00b0 3144     		add	r1, r1, r6
1035:lvgl/src/widgets/lv_btnmatrix.c ****     btn_area.y2 += obj_area.y1 + col_gap;
 1027              		.loc 1 1035 17 view .LVU300
 1028 00b2 17FA81F1 		uxtah	r1, r7, r1
 1029 00b6 ADF80C10 		strh	r1, [sp, #12]	@ movhi
1036:lvgl/src/widgets/lv_btnmatrix.c **** 
 1030              		.loc 1 1036 5 is_stmt 1 view .LVU301
1036:lvgl/src/widgets/lv_btnmatrix.c **** 
 1031              		.loc 1 1036 13 is_stmt 0 view .LVU302
 1032 00ba BDF80E10 		ldrh	r1, [sp, #14]
1036:lvgl/src/widgets/lv_btnmatrix.c **** 
 1033              		.loc 1 1036 32 view .LVU303
 1034 00be 1A44     		add	r2, r2, r3
1036:lvgl/src/widgets/lv_btnmatrix.c **** 
 1035              		.loc 1 1036 17 view .LVU304
 1036 00c0 11FA82F2 		uxtah	r2, r1, r2
 1037 00c4 92B2     		uxth	r2, r2
 1038 00c6 ADF80E20 		strh	r2, [sp, #14]	@ movhi
1038:lvgl/src/widgets/lv_btnmatrix.c ****         /*Push up the upper boundary of the btn area to also invalidate the popover*/
 1039              		.loc 1 1038 5 is_stmt 1 view .LVU305
1038:lvgl/src/widgets/lv_btnmatrix.c ****         /*Push up the upper boundary of the btn area to also invalidate the popover*/
 1040              		.loc 1 1038 24 is_stmt 0 view .LVU306
 1041 00ca A38E     		ldrh	r3, [r4, #52]
 1042              	.LVL89:
1038:lvgl/src/widgets/lv_btnmatrix.c ****         /*Push up the upper boundary of the btn area to also invalidate the popover*/
 1043              		.loc 1 1038 7 view .LVU307
 1044 00cc AB42     		cmp	r3, r5
1038:lvgl/src/widgets/lv_btnmatrix.c ****         /*Push up the upper boundary of the btn area to also invalidate the popover*/
 1045              		.loc 1 1038 7 view .LVU308
 1046 00ce 04D0     		beq	.L51
 1047              	.L44:
1043:lvgl/src/widgets/lv_btnmatrix.c **** }
 1048              		.loc 1 1043 5 is_stmt 1 view .LVU309
 1049 00d0 02A9     		add	r1, sp, #8
 1050 00d2 2046     		mov	r0, r4
 1051 00d4 FFF7FEFF 		bl	lv_obj_invalidate_area
 1052              	.LVL90:
 1053 00d8 9DE7     		b	.L42
 1054              	.L51:
1038:lvgl/src/widgets/lv_btnmatrix.c ****         /*Push up the upper boundary of the btn area to also invalidate the popover*/
 1055              		.loc 1 1038 46 is_stmt 0 discriminator 1 view .LVU310
 1056 00da E36A     		ldr	r3, [r4, #44]
ARM GAS  /var/folders/21/t9g5rlb91ys800n5npymflf80000gn/T//ccSbQiFP.s 			page 46


1038:lvgl/src/widgets/lv_btnmatrix.c ****         /*Push up the upper boundary of the btn area to also invalidate the popover*/
 1057              		.loc 1 1038 57 discriminator 1 view .LVU311
 1058 00dc 33F81530 		ldrh	r3, [r3, r5, lsl #1]
1038:lvgl/src/widgets/lv_btnmatrix.c ****         /*Push up the upper boundary of the btn area to also invalidate the popover*/
 1059              		.loc 1 1038 38 discriminator 1 view .LVU312
 1060 00e0 13F4806F 		tst	r3, #1024
 1061 00e4 F4D0     		beq	.L44
1040:lvgl/src/widgets/lv_btnmatrix.c ****     }
 1062              		.loc 1 1040 9 is_stmt 1 view .LVU313
 1063              	.LVL91:
 1064              	.LBB101:
 1065              	.LBI101:
 116:lvgl/src/widgets/../core/../misc/../font/../misc/lv_area.h **** }
 117:lvgl/src/widgets/../core/../misc/../font/../misc/lv_area.h **** 
 118:lvgl/src/widgets/../core/../misc/../font/../misc/lv_area.h **** /**
 119:lvgl/src/widgets/../core/../misc/../font/../misc/lv_area.h ****  * Get the width of an area
 120:lvgl/src/widgets/../core/../misc/../font/../misc/lv_area.h ****  * @param area_p pointer to an area
 121:lvgl/src/widgets/../core/../misc/../font/../misc/lv_area.h ****  * @return the width of the area (if x1 == x2 -> width = 1)
 122:lvgl/src/widgets/../core/../misc/../font/../misc/lv_area.h ****  */
 123:lvgl/src/widgets/../core/../misc/../font/../misc/lv_area.h **** static inline lv_coord_t lv_area_get_width(const lv_area_t * area_p)
 124:lvgl/src/widgets/../core/../misc/../font/../misc/lv_area.h **** {
 125:lvgl/src/widgets/../core/../misc/../font/../misc/lv_area.h ****     return (lv_coord_t)(area_p->x2 - area_p->x1 + 1);
 126:lvgl/src/widgets/../core/../misc/../font/../misc/lv_area.h **** }
 127:lvgl/src/widgets/../core/../misc/../font/../misc/lv_area.h **** 
 128:lvgl/src/widgets/../core/../misc/../font/../misc/lv_area.h **** /**
 129:lvgl/src/widgets/../core/../misc/../font/../misc/lv_area.h ****  * Get the height of an area
 130:lvgl/src/widgets/../core/../misc/../font/../misc/lv_area.h ****  * @param area_p pointer to an area
 131:lvgl/src/widgets/../core/../misc/../font/../misc/lv_area.h ****  * @return the height of the area (if y1 == y2 -> height = 1)
 132:lvgl/src/widgets/../core/../misc/../font/../misc/lv_area.h ****  */
 133:lvgl/src/widgets/../core/../misc/../font/../misc/lv_area.h **** static inline lv_coord_t lv_area_get_height(const lv_area_t * area_p)
 1066              		.loc 3 133 26 view .LVU314
 1067              	.LBB102:
 134:lvgl/src/widgets/../core/../misc/../font/../misc/lv_area.h **** {
 135:lvgl/src/widgets/../core/../misc/../font/../misc/lv_area.h ****     return (lv_coord_t)(area_p->y2 - area_p->y1 + 1);
 1068              		.loc 3 135 5 view .LVU315
 1069              		.loc 3 135 36 is_stmt 0 view .LVU316
 1070 00e6 131A     		subs	r3, r2, r0
 1071 00e8 9BB2     		uxth	r3, r3
 1072              		.loc 3 135 49 view .LVU317
 1073 00ea 0133     		adds	r3, r3, #1
 1074 00ec 9BB2     		uxth	r3, r3
 1075              	.LVL92:
 1076              		.loc 3 135 49 view .LVU318
 1077              	.LBE102:
 1078              	.LBE101:
1040:lvgl/src/widgets/lv_btnmatrix.c ****     }
 1079              		.loc 1 1040 21 view .LVU319
 1080 00ee C01A     		subs	r0, r0, r3
 1081 00f0 ADF80A00 		strh	r0, [sp, #10]	@ movhi
 1082 00f4 ECE7     		b	.L44
 1083              	.LVL93:
 1084              	.L47:
 1085              	.LCFI11:
 1086              		.cfi_def_cfa_offset 0
 1087              		.cfi_restore 4
 1088              		.cfi_restore 5
 1089              		.cfi_restore 6
ARM GAS  /var/folders/21/t9g5rlb91ys800n5npymflf80000gn/T//ccSbQiFP.s 			page 47


 1090              		.cfi_restore 7
 1091              		.cfi_restore 14
1040:lvgl/src/widgets/lv_btnmatrix.c ****     }
 1092              		.loc 1 1040 21 view .LVU320
 1093 00f6 7047     		bx	lr
 1094              	.L53:
 1095              		.align	2
 1096              	.L52:
 1097 00f8 67666666 		.word	1717986919
 1098              		.cfi_endproc
 1099              	.LFE192:
 1101              		.section	.text.draw_main,"ax",%progbits
 1102              		.align	1
 1103              		.syntax unified
 1104              		.thumb
 1105              		.thumb_func
 1107              	draw_main:
 1108              	.LVL94:
 1109              	.LFB179:
 688:lvgl/src/widgets/lv_btnmatrix.c ****     lv_obj_t * obj = lv_event_get_target(e);
 1110              		.loc 1 688 1 is_stmt 1 view -0
 1111              		.cfi_startproc
 1112              		@ args = 0, pretend = 0, frame = 296
 1113              		@ frame_needed = 0, uses_anonymous_args = 0
 688:lvgl/src/widgets/lv_btnmatrix.c ****     lv_obj_t * obj = lv_event_get_target(e);
 1114              		.loc 1 688 1 is_stmt 0 view .LVU322
 1115 0000 2DE9F04F 		push	{r4, r5, r6, r7, r8, r9, r10, fp, lr}
 1116              	.LCFI12:
 1117              		.cfi_def_cfa_offset 36
 1118              		.cfi_offset 4, -36
 1119              		.cfi_offset 5, -32
 1120              		.cfi_offset 6, -28
 1121              		.cfi_offset 7, -24
 1122              		.cfi_offset 8, -20
 1123              		.cfi_offset 9, -16
 1124              		.cfi_offset 10, -12
 1125              		.cfi_offset 11, -8
 1126              		.cfi_offset 14, -4
 1127 0004 CFB0     		sub	sp, sp, #316
 1128              	.LCFI13:
 1129              		.cfi_def_cfa_offset 352
 1130 0006 0446     		mov	r4, r0
 689:lvgl/src/widgets/lv_btnmatrix.c ****     lv_btnmatrix_t * btnm = (lv_btnmatrix_t *)obj;
 1131              		.loc 1 689 5 is_stmt 1 view .LVU323
 689:lvgl/src/widgets/lv_btnmatrix.c ****     lv_btnmatrix_t * btnm = (lv_btnmatrix_t *)obj;
 1132              		.loc 1 689 22 is_stmt 0 view .LVU324
 1133 0008 FFF7FEFF 		bl	lv_event_get_target
 1134              	.LVL95:
 690:lvgl/src/widgets/lv_btnmatrix.c ****     if(btnm->btn_cnt == 0) return;
 1135              		.loc 1 690 5 is_stmt 1 view .LVU325
 691:lvgl/src/widgets/lv_btnmatrix.c **** 
 1136              		.loc 1 691 5 view .LVU326
 691:lvgl/src/widgets/lv_btnmatrix.c **** 
 1137              		.loc 1 691 12 is_stmt 0 view .LVU327
 1138 000c 038E     		ldrh	r3, [r0, #48]
 691:lvgl/src/widgets/lv_btnmatrix.c **** 
 1139              		.loc 1 691 7 view .LVU328
ARM GAS  /var/folders/21/t9g5rlb91ys800n5npymflf80000gn/T//ccSbQiFP.s 			page 48


 1140 000e 13B9     		cbnz	r3, .L81
 1141              	.LVL96:
 1142              	.L54:
 849:lvgl/src/widgets/lv_btnmatrix.c **** /**
 1143              		.loc 1 849 1 view .LVU329
 1144 0010 4FB0     		add	sp, sp, #316
 1145              	.LCFI14:
 1146              		.cfi_remember_state
 1147              		.cfi_def_cfa_offset 36
 1148              		@ sp needed
 1149 0012 BDE8F08F 		pop	{r4, r5, r6, r7, r8, r9, r10, fp, pc}
 1150              	.LVL97:
 1151              	.L81:
 1152              	.LCFI15:
 1153              		.cfi_restore_state
 849:lvgl/src/widgets/lv_btnmatrix.c **** /**
 1154              		.loc 1 849 1 view .LVU330
 1155 0016 0546     		mov	r5, r0
 693:lvgl/src/widgets/lv_btnmatrix.c ****     obj->skip_trans = 1;
 1156              		.loc 1 693 5 is_stmt 1 view .LVU331
 693:lvgl/src/widgets/lv_btnmatrix.c ****     obj->skip_trans = 1;
 1157              		.loc 1 693 32 is_stmt 0 view .LVU332
 1158 0018 2046     		mov	r0, r4
 1159              	.LVL98:
 693:lvgl/src/widgets/lv_btnmatrix.c ****     obj->skip_trans = 1;
 1160              		.loc 1 693 32 view .LVU333
 1161 001a FFF7FEFF 		bl	lv_event_get_draw_ctx
 1162              	.LVL99:
 1163 001e 0646     		mov	r6, r0
 1164 0020 0490     		str	r0, [sp, #16]
 1165              	.LVL100:
 694:lvgl/src/widgets/lv_btnmatrix.c **** 
 1166              		.loc 1 694 5 is_stmt 1 view .LVU334
 694:lvgl/src/widgets/lv_btnmatrix.c **** 
 1167              		.loc 1 694 21 is_stmt 0 view .LVU335
 1168 0022 95F82230 		ldrb	r3, [r5, #34]	@ zero_extendqisi2
 1169 0026 43F00803 		orr	r3, r3, #8
 1170 002a 85F82230 		strb	r3, [r5, #34]
 696:lvgl/src/widgets/lv_btnmatrix.c ****     lv_obj_get_coords(obj, &area_obj);
 1171              		.loc 1 696 5 is_stmt 1 view .LVU336
 697:lvgl/src/widgets/lv_btnmatrix.c **** 
 1172              		.loc 1 697 5 view .LVU337
 1173 002e 4CA9     		add	r1, sp, #304
 1174 0030 2846     		mov	r0, r5
 1175              	.LVL101:
 697:lvgl/src/widgets/lv_btnmatrix.c **** 
 1176              		.loc 1 697 5 is_stmt 0 view .LVU338
 1177 0032 FFF7FEFF 		bl	lv_obj_get_coords
 1178              	.LVL102:
 699:lvgl/src/widgets/lv_btnmatrix.c **** 
 1179              		.loc 1 699 5 is_stmt 1 view .LVU339
 701:lvgl/src/widgets/lv_btnmatrix.c ****     uint16_t txt_i = 0;
 1180              		.loc 1 701 5 view .LVU340
 702:lvgl/src/widgets/lv_btnmatrix.c **** 
 1181              		.loc 1 702 5 view .LVU341
 704:lvgl/src/widgets/lv_btnmatrix.c ****     lv_draw_label_dsc_t draw_label_dsc_act;
 1182              		.loc 1 704 5 view .LVU342
ARM GAS  /var/folders/21/t9g5rlb91ys800n5npymflf80000gn/T//ccSbQiFP.s 			page 49


 705:lvgl/src/widgets/lv_btnmatrix.c **** 
 1183              		.loc 1 705 5 view .LVU343
 707:lvgl/src/widgets/lv_btnmatrix.c ****     lv_draw_label_dsc_t draw_label_dsc_def;
 1184              		.loc 1 707 5 view .LVU344
 708:lvgl/src/widgets/lv_btnmatrix.c **** 
 1185              		.loc 1 708 5 view .LVU345
 710:lvgl/src/widgets/lv_btnmatrix.c ****     obj->state = LV_STATE_DEFAULT;
 1186              		.loc 1 710 5 view .LVU346
 710:lvgl/src/widgets/lv_btnmatrix.c ****     obj->state = LV_STATE_DEFAULT;
 1187              		.loc 1 710 16 is_stmt 0 view .LVU347
 1188 0036 2C8C     		ldrh	r4, [r5, #32]
 1189              	.LVL103:
 710:lvgl/src/widgets/lv_btnmatrix.c ****     obj->state = LV_STATE_DEFAULT;
 1190              		.loc 1 710 16 view .LVU348
 1191 0038 0594     		str	r4, [sp, #20]
 1192              	.LVL104:
 711:lvgl/src/widgets/lv_btnmatrix.c ****     obj->skip_trans = 1;
 1193              		.loc 1 711 5 is_stmt 1 view .LVU349
 711:lvgl/src/widgets/lv_btnmatrix.c ****     obj->skip_trans = 1;
 1194              		.loc 1 711 16 is_stmt 0 view .LVU350
 1195 003a 0027     		movs	r7, #0
 1196 003c 2F84     		strh	r7, [r5, #32]	@ movhi
 712:lvgl/src/widgets/lv_btnmatrix.c ****     lv_draw_rect_dsc_init(&draw_rect_dsc_def);
 1197              		.loc 1 712 5 is_stmt 1 view .LVU351
 712:lvgl/src/widgets/lv_btnmatrix.c ****     lv_draw_rect_dsc_init(&draw_rect_dsc_def);
 1198              		.loc 1 712 21 is_stmt 0 view .LVU352
 1199 003e 95F82230 		ldrb	r3, [r5, #34]	@ zero_extendqisi2
 1200 0042 43F00803 		orr	r3, r3, #8
 1201 0046 85F82230 		strb	r3, [r5, #34]
 713:lvgl/src/widgets/lv_btnmatrix.c ****     lv_draw_label_dsc_init(&draw_label_dsc_def);
 1202              		.loc 1 713 5 is_stmt 1 view .LVU353
 1203 004a 26A8     		add	r0, sp, #152
 1204 004c FFF7FEFF 		bl	lv_draw_rect_dsc_init
 1205              	.LVL105:
 714:lvgl/src/widgets/lv_btnmatrix.c ****     lv_obj_init_draw_rect_dsc(obj, LV_PART_ITEMS, &draw_rect_dsc_def);
 1206              		.loc 1 714 5 view .LVU354
 1207 0050 1EA8     		add	r0, sp, #120
 1208 0052 FFF7FEFF 		bl	lv_draw_label_dsc_init
 1209              	.LVL106:
 715:lvgl/src/widgets/lv_btnmatrix.c ****     lv_obj_init_draw_label_dsc(obj, LV_PART_ITEMS, &draw_label_dsc_def);
 1210              		.loc 1 715 5 view .LVU355
 1211 0056 26AA     		add	r2, sp, #152
 1212 0058 4FF4A021 		mov	r1, #327680
 1213 005c 2846     		mov	r0, r5
 1214 005e FFF7FEFF 		bl	lv_obj_init_draw_rect_dsc
 1215              	.LVL107:
 716:lvgl/src/widgets/lv_btnmatrix.c ****     obj->skip_trans = 0;
 1216              		.loc 1 716 5 view .LVU356
 1217 0062 1EAA     		add	r2, sp, #120
 1218 0064 4FF4A021 		mov	r1, #327680
 1219 0068 2846     		mov	r0, r5
 1220 006a FFF7FEFF 		bl	lv_obj_init_draw_label_dsc
 1221              	.LVL108:
 717:lvgl/src/widgets/lv_btnmatrix.c ****     obj->state = state_ori;
 1222              		.loc 1 717 5 view .LVU357
 717:lvgl/src/widgets/lv_btnmatrix.c ****     obj->state = state_ori;
 1223              		.loc 1 717 21 is_stmt 0 view .LVU358
ARM GAS  /var/folders/21/t9g5rlb91ys800n5npymflf80000gn/T//ccSbQiFP.s 			page 50


 1224 006e 95F82230 		ldrb	r3, [r5, #34]	@ zero_extendqisi2
 1225 0072 67F3C303 		bfi	r3, r7, #3, #1
 1226 0076 85F82230 		strb	r3, [r5, #34]
 718:lvgl/src/widgets/lv_btnmatrix.c **** 
 1227              		.loc 1 718 5 is_stmt 1 view .LVU359
 718:lvgl/src/widgets/lv_btnmatrix.c **** 
 1228              		.loc 1 718 16 is_stmt 0 view .LVU360
 1229 007a 2C84     		strh	r4, [r5, #32]	@ movhi
 720:lvgl/src/widgets/lv_btnmatrix.c ****     lv_coord_t pbottom = lv_obj_get_style_pad_bottom(obj, LV_PART_MAIN);
 1230              		.loc 1 720 5 is_stmt 1 view .LVU361
 1231              	.LVL109:
 1232              	.LBB103:
 1233              	.LBI103:
 103:lvgl/src/widgets/../core/lv_obj_style_gen.h **** {
 1234              		.loc 2 103 26 view .LVU362
 1235              	.LBB104:
 105:lvgl/src/widgets/../core/lv_obj_style_gen.h ****     return (lv_coord_t)v.num;
 1236              		.loc 2 105 5 view .LVU363
 105:lvgl/src/widgets/../core/lv_obj_style_gen.h ****     return (lv_coord_t)v.num;
 1237              		.loc 2 105 26 is_stmt 0 view .LVU364
 1238 007c 1022     		movs	r2, #16
 1239 007e 3946     		mov	r1, r7
 1240 0080 2846     		mov	r0, r5
 1241 0082 FFF7FEFF 		bl	lv_obj_get_style_prop
 1242              	.LVL110:
 106:lvgl/src/widgets/../core/lv_obj_style_gen.h **** }
 1243              		.loc 2 106 5 is_stmt 1 view .LVU365
 106:lvgl/src/widgets/../core/lv_obj_style_gen.h **** }
 1244              		.loc 2 106 12 is_stmt 0 view .LVU366
 1245 0086 03B2     		sxth	r3, r0
 1246 0088 0693     		str	r3, [sp, #24]
 1247              	.LVL111:
 106:lvgl/src/widgets/../core/lv_obj_style_gen.h **** }
 1248              		.loc 2 106 12 view .LVU367
 1249              	.LBE104:
 1250              	.LBE103:
 721:lvgl/src/widgets/lv_btnmatrix.c ****     lv_coord_t pleft = lv_obj_get_style_pad_left(obj, LV_PART_MAIN);
 1251              		.loc 1 721 5 is_stmt 1 view .LVU368
 1252              	.LBB105:
 1253              	.LBI105:
 109:lvgl/src/widgets/../core/lv_obj_style_gen.h **** {
 1254              		.loc 2 109 26 view .LVU369
 1255              	.LBB106:
 111:lvgl/src/widgets/../core/lv_obj_style_gen.h ****     return (lv_coord_t)v.num;
 1256              		.loc 2 111 5 view .LVU370
 111:lvgl/src/widgets/../core/lv_obj_style_gen.h ****     return (lv_coord_t)v.num;
 1257              		.loc 2 111 26 is_stmt 0 view .LVU371
 1258 008a 1122     		movs	r2, #17
 1259 008c 3946     		mov	r1, r7
 1260 008e 2846     		mov	r0, r5
 1261 0090 FFF7FEFF 		bl	lv_obj_get_style_prop
 1262              	.LVL112:
 112:lvgl/src/widgets/../core/lv_obj_style_gen.h **** }
 1263              		.loc 2 112 5 is_stmt 1 view .LVU372
 112:lvgl/src/widgets/../core/lv_obj_style_gen.h **** }
 1264              		.loc 2 112 12 is_stmt 0 view .LVU373
 1265 0094 03B2     		sxth	r3, r0
ARM GAS  /var/folders/21/t9g5rlb91ys800n5npymflf80000gn/T//ccSbQiFP.s 			page 51


 1266 0096 0793     		str	r3, [sp, #28]
 1267              	.LVL113:
 112:lvgl/src/widgets/../core/lv_obj_style_gen.h **** }
 1268              		.loc 2 112 12 view .LVU374
 1269              	.LBE106:
 1270              	.LBE105:
 722:lvgl/src/widgets/lv_btnmatrix.c ****     lv_coord_t pright = lv_obj_get_style_pad_right(obj, LV_PART_MAIN);
 1271              		.loc 1 722 5 is_stmt 1 view .LVU375
 1272              	.LBB107:
 1273              	.LBI107:
 115:lvgl/src/widgets/../core/lv_obj_style_gen.h **** {
 1274              		.loc 2 115 26 view .LVU376
 1275              	.LBB108:
 117:lvgl/src/widgets/../core/lv_obj_style_gen.h ****     return (lv_coord_t)v.num;
 1276              		.loc 2 117 5 view .LVU377
 117:lvgl/src/widgets/../core/lv_obj_style_gen.h ****     return (lv_coord_t)v.num;
 1277              		.loc 2 117 26 is_stmt 0 view .LVU378
 1278 0098 1222     		movs	r2, #18
 1279 009a 3946     		mov	r1, r7
 1280 009c 2846     		mov	r0, r5
 1281 009e FFF7FEFF 		bl	lv_obj_get_style_prop
 1282              	.LVL114:
 118:lvgl/src/widgets/../core/lv_obj_style_gen.h **** }
 1283              		.loc 2 118 5 is_stmt 1 view .LVU379
 118:lvgl/src/widgets/../core/lv_obj_style_gen.h **** }
 1284              		.loc 2 118 12 is_stmt 0 view .LVU380
 1285 00a2 03B2     		sxth	r3, r0
 1286 00a4 0893     		str	r3, [sp, #32]
 1287              	.LVL115:
 118:lvgl/src/widgets/../core/lv_obj_style_gen.h **** }
 1288              		.loc 2 118 12 view .LVU381
 1289              	.LBE108:
 1290              	.LBE107:
 723:lvgl/src/widgets/lv_btnmatrix.c **** 
 1291              		.loc 1 723 5 is_stmt 1 view .LVU382
 1292              	.LBB109:
 1293              	.LBI109:
 121:lvgl/src/widgets/../core/lv_obj_style_gen.h **** {
 1294              		.loc 2 121 26 view .LVU383
 1295              	.LBB110:
 123:lvgl/src/widgets/../core/lv_obj_style_gen.h ****     return (lv_coord_t)v.num;
 1296              		.loc 2 123 5 view .LVU384
 123:lvgl/src/widgets/../core/lv_obj_style_gen.h ****     return (lv_coord_t)v.num;
 1297              		.loc 2 123 26 is_stmt 0 view .LVU385
 1298 00a6 1322     		movs	r2, #19
 1299 00a8 3946     		mov	r1, r7
 1300 00aa 2846     		mov	r0, r5
 1301 00ac FFF7FEFF 		bl	lv_obj_get_style_prop
 1302              	.LVL116:
 124:lvgl/src/widgets/../core/lv_obj_style_gen.h **** }
 1303              		.loc 2 124 5 is_stmt 1 view .LVU386
 124:lvgl/src/widgets/../core/lv_obj_style_gen.h **** }
 1304              		.loc 2 124 12 is_stmt 0 view .LVU387
 1305 00b0 03B2     		sxth	r3, r0
 1306 00b2 0993     		str	r3, [sp, #36]
 1307              	.LVL117:
 124:lvgl/src/widgets/../core/lv_obj_style_gen.h **** }
ARM GAS  /var/folders/21/t9g5rlb91ys800n5npymflf80000gn/T//ccSbQiFP.s 			page 52


 1308              		.loc 2 124 12 view .LVU388
 1309              	.LBE110:
 1310              	.LBE109:
 730:lvgl/src/widgets/lv_btnmatrix.c ****     lv_obj_draw_dsc_init(&part_draw_dsc, draw_ctx);
 1311              		.loc 1 730 5 is_stmt 1 view .LVU389
 731:lvgl/src/widgets/lv_btnmatrix.c ****     part_draw_dsc.part = LV_PART_ITEMS;
 1312              		.loc 1 731 5 view .LVU390
 1313 00b4 3146     		mov	r1, r6
 1314 00b6 0CA8     		add	r0, sp, #48
 1315 00b8 FFF7FEFF 		bl	lv_obj_draw_dsc_init
 1316              	.LVL118:
 732:lvgl/src/widgets/lv_btnmatrix.c ****     part_draw_dsc.class_p = MY_CLASS;
 1317              		.loc 1 732 5 view .LVU391
 732:lvgl/src/widgets/lv_btnmatrix.c ****     part_draw_dsc.class_p = MY_CLASS;
 1318              		.loc 1 732 24 is_stmt 0 view .LVU392
 1319 00bc 4FF4A023 		mov	r3, #327680
 1320 00c0 1993     		str	r3, [sp, #100]
 733:lvgl/src/widgets/lv_btnmatrix.c ****     part_draw_dsc.type = LV_BTNMATRIX_DRAW_PART_BTN;
 1321              		.loc 1 733 5 is_stmt 1 view .LVU393
 733:lvgl/src/widgets/lv_btnmatrix.c ****     part_draw_dsc.type = LV_BTNMATRIX_DRAW_PART_BTN;
 1322              		.loc 1 733 27 is_stmt 0 view .LVU394
 1323 00c2 CB4B     		ldr	r3, .L86
 1324 00c4 0D93     		str	r3, [sp, #52]
 734:lvgl/src/widgets/lv_btnmatrix.c ****     part_draw_dsc.rect_dsc = &draw_rect_dsc_act;
 1325              		.loc 1 734 5 is_stmt 1 view .LVU395
 734:lvgl/src/widgets/lv_btnmatrix.c ****     part_draw_dsc.rect_dsc = &draw_rect_dsc_act;
 1326              		.loc 1 734 24 is_stmt 0 view .LVU396
 1327 00c6 0E97     		str	r7, [sp, #56]
 735:lvgl/src/widgets/lv_btnmatrix.c ****     part_draw_dsc.label_dsc = &draw_label_dsc_act;
 1328              		.loc 1 735 5 is_stmt 1 view .LVU397
 735:lvgl/src/widgets/lv_btnmatrix.c ****     part_draw_dsc.label_dsc = &draw_label_dsc_act;
 1329              		.loc 1 735 28 is_stmt 0 view .LVU398
 1330 00c8 3CAB     		add	r3, sp, #240
 1331 00ca 1093     		str	r3, [sp, #64]
 736:lvgl/src/widgets/lv_btnmatrix.c **** 
 1332              		.loc 1 736 5 is_stmt 1 view .LVU399
 736:lvgl/src/widgets/lv_btnmatrix.c **** 
 1333              		.loc 1 736 29 is_stmt 0 view .LVU400
 1334 00cc 34AB     		add	r3, sp, #208
 1335 00ce 1193     		str	r3, [sp, #68]
 738:lvgl/src/widgets/lv_btnmatrix.c ****         /*Search the next valid text in the map*/
 1336              		.loc 1 738 5 is_stmt 1 view .LVU401
 702:lvgl/src/widgets/lv_btnmatrix.c **** 
 1337              		.loc 1 702 14 is_stmt 0 view .LVU402
 1338 00d0 3C46     		mov	r4, r7
 1339              	.LVL119:
 738:lvgl/src/widgets/lv_btnmatrix.c ****         /*Search the next valid text in the map*/
 1340              		.loc 1 738 5 view .LVU403
 1341 00d2 2EE1     		b	.L57
 1342              	.LVL120:
 1343              	.L58:
 1344              	.LBB111:
 741:lvgl/src/widgets/lv_btnmatrix.c ****         }
 1345              		.loc 1 741 13 is_stmt 1 view .LVU404
 741:lvgl/src/widgets/lv_btnmatrix.c ****         }
 1346              		.loc 1 741 18 is_stmt 0 view .LVU405
 1347 00d4 0134     		adds	r4, r4, #1
ARM GAS  /var/folders/21/t9g5rlb91ys800n5npymflf80000gn/T//ccSbQiFP.s 			page 53


 1348              	.LVL121:
 741:lvgl/src/widgets/lv_btnmatrix.c ****         }
 1349              		.loc 1 741 18 view .LVU406
 1350 00d6 A4B2     		uxth	r4, r4
 1351              	.LVL122:
 1352              	.L77:
 740:lvgl/src/widgets/lv_btnmatrix.c ****             txt_i++;
 1353              		.loc 1 740 48 is_stmt 1 view .LVU407
 740:lvgl/src/widgets/lv_btnmatrix.c ****             txt_i++;
 1354              		.loc 1 740 26 is_stmt 0 view .LVU408
 1355 00d8 6B6A     		ldr	r3, [r5, #36]
 740:lvgl/src/widgets/lv_btnmatrix.c ****             txt_i++;
 1356              		.loc 1 740 33 view .LVU409
 1357 00da A600     		lsls	r6, r4, #2
 740:lvgl/src/widgets/lv_btnmatrix.c ****             txt_i++;
 1358              		.loc 1 740 15 view .LVU410
 1359 00dc C549     		ldr	r1, .L86+4
 1360 00de 53F82400 		ldr	r0, [r3, r4, lsl #2]
 1361 00e2 FFF7FEFF 		bl	strcmp
 1362              	.LVL123:
 740:lvgl/src/widgets/lv_btnmatrix.c ****             txt_i++;
 1363              		.loc 1 740 48 view .LVU411
 1364 00e6 0028     		cmp	r0, #0
 1365 00e8 F4D0     		beq	.L58
 745:lvgl/src/widgets/lv_btnmatrix.c **** 
 1366              		.loc 1 745 9 is_stmt 1 view .LVU412
 745:lvgl/src/widgets/lv_btnmatrix.c **** 
 1367              		.loc 1 745 33 is_stmt 0 view .LVU413
 1368 00ea EB6A     		ldr	r3, [r5, #44]
 745:lvgl/src/widgets/lv_btnmatrix.c **** 
 1369              		.loc 1 745 44 view .LVU414
 1370 00ec BA46     		mov	r10, r7
 1371 00ee 4FEA470B 		lsl	fp, r7, #1
 745:lvgl/src/widgets/lv_btnmatrix.c **** 
 1372              		.loc 1 745 12 view .LVU415
 1373 00f2 33F81790 		ldrh	r9, [r3, r7, lsl #1]
 1374 00f6 4846     		mov	r0, r9
 1375 00f8 FFF7FEFF 		bl	button_is_hidden
 1376              	.LVL124:
 745:lvgl/src/widgets/lv_btnmatrix.c **** 
 1377              		.loc 1 745 11 view .LVU416
 1378 00fc 0028     		cmp	r0, #0
 1379 00fe 40F01481 		bne	.L60
 748:lvgl/src/widgets/lv_btnmatrix.c ****         if(button_get_checked(btnm->ctrl_bits[btn_i])) btn_state |= LV_STATE_CHECKED;
 1380              		.loc 1 748 9 is_stmt 1 view .LVU417
 1381              	.LVL125:
 749:lvgl/src/widgets/lv_btnmatrix.c **** 
 1382              		.loc 1 749 9 view .LVU418
 749:lvgl/src/widgets/lv_btnmatrix.c **** 
 1383              		.loc 1 749 12 is_stmt 0 view .LVU419
 1384 0102 4846     		mov	r0, r9
 1385 0104 FFF7FEFF 		bl	button_get_checked
 1386              	.LVL126:
 749:lvgl/src/widgets/lv_btnmatrix.c **** 
 1387              		.loc 1 749 11 view .LVU420
 1388 0108 0028     		cmp	r0, #0
 1389 010a 40F01D81 		bne	.L78
ARM GAS  /var/folders/21/t9g5rlb91ys800n5npymflf80000gn/T//ccSbQiFP.s 			page 54


 748:lvgl/src/widgets/lv_btnmatrix.c ****         if(button_get_checked(btnm->ctrl_bits[btn_i])) btn_state |= LV_STATE_CHECKED;
 1390              		.loc 1 748 20 view .LVU421
 1391 010e 4FF00008 		mov	r8, #0
 1392              	.L61:
 1393              	.LVL127:
 751:lvgl/src/widgets/lv_btnmatrix.c ****         else if(btn_i == btnm->btn_id_sel) {
 1394              		.loc 1 751 9 is_stmt 1 view .LVU422
 751:lvgl/src/widgets/lv_btnmatrix.c ****         else if(btn_i == btnm->btn_id_sel) {
 1395              		.loc 1 751 12 is_stmt 0 view .LVU423
 1396 0112 4846     		mov	r0, r9
 1397 0114 FFF7FEFF 		bl	button_is_inactive
 1398              	.LVL128:
 751:lvgl/src/widgets/lv_btnmatrix.c ****         else if(btn_i == btnm->btn_id_sel) {
 1399              		.loc 1 751 11 view .LVU424
 1400 0118 0028     		cmp	r0, #0
 1401 011a 00F01881 		beq	.L62
 751:lvgl/src/widgets/lv_btnmatrix.c ****         else if(btn_i == btnm->btn_id_sel) {
 1402              		.loc 1 751 56 is_stmt 1 discriminator 1 view .LVU425
 751:lvgl/src/widgets/lv_btnmatrix.c ****         else if(btn_i == btnm->btn_id_sel) {
 1403              		.loc 1 751 66 is_stmt 0 discriminator 1 view .LVU426
 1404 011e 48F08008 		orr	r8, r8, #128
 1405              	.LVL129:
 1406              	.L63:
 760:lvgl/src/widgets/lv_btnmatrix.c ****         btn_area.x1 += area_obj.x1;
 1407              		.loc 1 760 9 is_stmt 1 view .LVU427
 760:lvgl/src/widgets/lv_btnmatrix.c ****         btn_area.x1 += area_obj.x1;
 1408              		.loc 1 760 38 is_stmt 0 view .LVU428
 1409 0122 AA6A     		ldr	r2, [r5, #40]
 760:lvgl/src/widgets/lv_btnmatrix.c ****         btn_area.x1 += area_obj.x1;
 1410              		.loc 1 760 33 view .LVU429
 1411 0124 02EBCA03 		add	r3, r2, r10, lsl #3
 1412              	.LVL130:
 1413              	.LBB112:
 1414              	.LBI112:
 110:lvgl/src/widgets/../core/../misc/../font/../misc/lv_area.h **** {
 1415              		.loc 3 110 20 is_stmt 1 view .LVU430
 1416              	.LBB113:
 112:lvgl/src/widgets/../core/../misc/../font/../misc/lv_area.h ****     dest->y1 = src->y1;
 1417              		.loc 3 112 5 view .LVU431
 112:lvgl/src/widgets/../core/../misc/../font/../misc/lv_area.h ****     dest->y1 = src->y1;
 1418              		.loc 3 112 19 is_stmt 0 view .LVU432
 1419 0128 32F93A00 		ldrsh	r0, [r2, r10, lsl #3]
 112:lvgl/src/widgets/../core/../misc/../font/../misc/lv_area.h ****     dest->y1 = src->y1;
 1420              		.loc 3 112 14 view .LVU433
 1421 012c ADF82801 		strh	r0, [sp, #296]	@ movhi
 113:lvgl/src/widgets/../core/../misc/../font/../misc/lv_area.h ****     dest->x2 = src->x2;
 1422              		.loc 3 113 5 is_stmt 1 view .LVU434
 113:lvgl/src/widgets/../core/../misc/../font/../misc/lv_area.h ****     dest->x2 = src->x2;
 1423              		.loc 3 113 19 is_stmt 0 view .LVU435
 1424 0130 B3F90210 		ldrsh	r1, [r3, #2]
 113:lvgl/src/widgets/../core/../misc/../font/../misc/lv_area.h ****     dest->x2 = src->x2;
 1425              		.loc 3 113 14 view .LVU436
 1426 0134 ADF82A11 		strh	r1, [sp, #298]	@ movhi
 114:lvgl/src/widgets/../core/../misc/../font/../misc/lv_area.h ****     dest->y2 = src->y2;
 1427              		.loc 3 114 5 is_stmt 1 view .LVU437
 114:lvgl/src/widgets/../core/../misc/../font/../misc/lv_area.h ****     dest->y2 = src->y2;
 1428              		.loc 3 114 19 is_stmt 0 view .LVU438
ARM GAS  /var/folders/21/t9g5rlb91ys800n5npymflf80000gn/T//ccSbQiFP.s 			page 55


 1429 0138 B3F90420 		ldrsh	r2, [r3, #4]
 114:lvgl/src/widgets/../core/../misc/../font/../misc/lv_area.h ****     dest->y2 = src->y2;
 1430              		.loc 3 114 14 view .LVU439
 1431 013c ADF82C21 		strh	r2, [sp, #300]	@ movhi
 115:lvgl/src/widgets/../core/../misc/../font/../misc/lv_area.h **** }
 1432              		.loc 3 115 5 is_stmt 1 view .LVU440
 115:lvgl/src/widgets/../core/../misc/../font/../misc/lv_area.h **** }
 1433              		.loc 3 115 19 is_stmt 0 view .LVU441
 1434 0140 B3F90630 		ldrsh	r3, [r3, #6]
 1435              	.LVL131:
 115:lvgl/src/widgets/../core/../misc/../font/../misc/lv_area.h **** }
 1436              		.loc 3 115 14 view .LVU442
 1437 0144 ADF82E31 		strh	r3, [sp, #302]	@ movhi
 1438              	.LVL132:
 115:lvgl/src/widgets/../core/../misc/../font/../misc/lv_area.h **** }
 1439              		.loc 3 115 14 view .LVU443
 1440              	.LBE113:
 1441              	.LBE112:
 761:lvgl/src/widgets/lv_btnmatrix.c ****         btn_area.y1 += area_obj.y1;
 1442              		.loc 1 761 9 is_stmt 1 view .LVU444
 761:lvgl/src/widgets/lv_btnmatrix.c ****         btn_area.y1 += area_obj.y1;
 1443              		.loc 1 761 32 is_stmt 0 view .LVU445
 1444 0148 BDF830C1 		ldrh	ip, [sp, #304]
 761:lvgl/src/widgets/lv_btnmatrix.c ****         btn_area.y1 += area_obj.y1;
 1445              		.loc 1 761 21 view .LVU446
 1446 014c 1CFA80F0 		uxtah	r0, ip, r0
 1447 0150 ADF82801 		strh	r0, [sp, #296]	@ movhi
 762:lvgl/src/widgets/lv_btnmatrix.c ****         btn_area.x2 += area_obj.x1;
 1448              		.loc 1 762 9 is_stmt 1 view .LVU447
 762:lvgl/src/widgets/lv_btnmatrix.c ****         btn_area.x2 += area_obj.x1;
 1449              		.loc 1 762 32 is_stmt 0 view .LVU448
 1450 0154 BDF83201 		ldrh	r0, [sp, #306]
 762:lvgl/src/widgets/lv_btnmatrix.c ****         btn_area.x2 += area_obj.x1;
 1451              		.loc 1 762 21 view .LVU449
 1452 0158 10FA81F1 		uxtah	r1, r0, r1
 1453 015c ADF82A11 		strh	r1, [sp, #298]	@ movhi
 763:lvgl/src/widgets/lv_btnmatrix.c ****         btn_area.y2 += area_obj.y1;
 1454              		.loc 1 763 9 is_stmt 1 view .LVU450
 763:lvgl/src/widgets/lv_btnmatrix.c ****         btn_area.y2 += area_obj.y1;
 1455              		.loc 1 763 21 is_stmt 0 view .LVU451
 1456 0160 1CFA82F2 		uxtah	r2, ip, r2
 1457 0164 ADF82C21 		strh	r2, [sp, #300]	@ movhi
 764:lvgl/src/widgets/lv_btnmatrix.c **** 
 1458              		.loc 1 764 9 is_stmt 1 view .LVU452
 764:lvgl/src/widgets/lv_btnmatrix.c **** 
 1459              		.loc 1 764 21 is_stmt 0 view .LVU453
 1460 0168 10FA83F3 		uxtah	r3, r0, r3
 1461 016c ADF82E31 		strh	r3, [sp, #302]	@ movhi
 767:lvgl/src/widgets/lv_btnmatrix.c ****             lv_memcpy(&draw_rect_dsc_act, &draw_rect_dsc_def, sizeof(lv_draw_rect_dsc_t));
 1462              		.loc 1 767 9 is_stmt 1 view .LVU454
 767:lvgl/src/widgets/lv_btnmatrix.c ****             lv_memcpy(&draw_rect_dsc_act, &draw_rect_dsc_def, sizeof(lv_draw_rect_dsc_t));
 1463              		.loc 1 767 11 is_stmt 0 view .LVU455
 1464 0170 B8F1000F 		cmp	r8, #0
 1465 0174 40F00981 		bne	.L67
 768:lvgl/src/widgets/lv_btnmatrix.c ****             lv_memcpy(&draw_label_dsc_act, &draw_label_dsc_def, sizeof(lv_draw_label_dsc_t));
 1466              		.loc 1 768 13 is_stmt 1 view .LVU456
 1467 0178 3822     		movs	r2, #56
ARM GAS  /var/folders/21/t9g5rlb91ys800n5npymflf80000gn/T//ccSbQiFP.s 			page 56


 1468 017a 26A9     		add	r1, sp, #152
 1469 017c 3CA8     		add	r0, sp, #240
 1470 017e FFF7FEFF 		bl	lv_memcpy
 1471              	.LVL133:
 769:lvgl/src/widgets/lv_btnmatrix.c ****         }
 1472              		.loc 1 769 13 view .LVU457
 1473 0182 2022     		movs	r2, #32
 1474 0184 1EA9     		add	r1, sp, #120
 1475 0186 34A8     		add	r0, sp, #208
 1476 0188 FFF7FEFF 		bl	lv_memcpy
 1477              	.LVL134:
 1478              	.L68:
 783:lvgl/src/widgets/lv_btnmatrix.c ****         if(recolor) draw_label_dsc_act.flag |= LV_TEXT_FLAG_RECOLOR;
 1479              		.loc 1 783 9 view .LVU458
 783:lvgl/src/widgets/lv_btnmatrix.c ****         if(recolor) draw_label_dsc_act.flag |= LV_TEXT_FLAG_RECOLOR;
 1480              		.loc 1 783 46 is_stmt 0 view .LVU459
 1481 018c EB6A     		ldr	r3, [r5, #44]
 783:lvgl/src/widgets/lv_btnmatrix.c ****         if(recolor) draw_label_dsc_act.flag |= LV_TEXT_FLAG_RECOLOR;
 1482              		.loc 1 783 24 view .LVU460
 1483 018e 33F80B00 		ldrh	r0, [r3, fp]
 1484 0192 FFF7FEFF 		bl	button_is_recolor
 1485              	.LVL135:
 784:lvgl/src/widgets/lv_btnmatrix.c ****         else draw_label_dsc_act.flag &= ~LV_TEXT_FLAG_RECOLOR;
 1486              		.loc 1 784 9 is_stmt 1 view .LVU461
 784:lvgl/src/widgets/lv_btnmatrix.c ****         else draw_label_dsc_act.flag &= ~LV_TEXT_FLAG_RECOLOR;
 1487              		.loc 1 784 11 is_stmt 0 view .LVU462
 1488 0196 0028     		cmp	r0, #0
 1489 0198 00F01A81 		beq	.L69
 784:lvgl/src/widgets/lv_btnmatrix.c ****         else draw_label_dsc_act.flag &= ~LV_TEXT_FLAG_RECOLOR;
 1490              		.loc 1 784 21 is_stmt 1 discriminator 1 view .LVU463
 784:lvgl/src/widgets/lv_btnmatrix.c ****         else draw_label_dsc_act.flag &= ~LV_TEXT_FLAG_RECOLOR;
 1491              		.loc 1 784 39 is_stmt 0 discriminator 1 view .LVU464
 1492 019c 9DF8ED30 		ldrb	r3, [sp, #237]	@ zero_extendqisi2
 784:lvgl/src/widgets/lv_btnmatrix.c ****         else draw_label_dsc_act.flag &= ~LV_TEXT_FLAG_RECOLOR;
 1493              		.loc 1 784 45 discriminator 1 view .LVU465
 1494 01a0 43F00103 		orr	r3, r3, #1
 1495 01a4 8DF8ED30 		strb	r3, [sp, #237]
 1496              	.L70:
 787:lvgl/src/widgets/lv_btnmatrix.c ****         part_draw_dsc.id = btn_i;
 1497              		.loc 1 787 9 is_stmt 1 view .LVU466
 787:lvgl/src/widgets/lv_btnmatrix.c ****         part_draw_dsc.id = btn_i;
 1498              		.loc 1 787 33 is_stmt 0 view .LVU467
 1499 01a8 4AAB     		add	r3, sp, #296
 1500 01aa 0F93     		str	r3, [sp, #60]
 788:lvgl/src/widgets/lv_btnmatrix.c ****         lv_event_send(obj, LV_EVENT_DRAW_PART_BEGIN, &part_draw_dsc);
 1501              		.loc 1 788 9 is_stmt 1 view .LVU468
 788:lvgl/src/widgets/lv_btnmatrix.c ****         lv_event_send(obj, LV_EVENT_DRAW_PART_BEGIN, &part_draw_dsc);
 1502              		.loc 1 788 26 is_stmt 0 view .LVU469
 1503 01ac CDF868A0 		str	r10, [sp, #104]
 789:lvgl/src/widgets/lv_btnmatrix.c **** 
 1504              		.loc 1 789 9 is_stmt 1 view .LVU470
 1505 01b0 0CAA     		add	r2, sp, #48
 1506 01b2 1A21     		movs	r1, #26
 1507 01b4 2846     		mov	r0, r5
 1508              	.LVL136:
 789:lvgl/src/widgets/lv_btnmatrix.c **** 
 1509              		.loc 1 789 9 is_stmt 0 view .LVU471
ARM GAS  /var/folders/21/t9g5rlb91ys800n5npymflf80000gn/T//ccSbQiFP.s 			page 57


 1510 01b6 FFF7FEFF 		bl	lv_event_send
 1511              	.LVL137:
 792:lvgl/src/widgets/lv_btnmatrix.c ****             draw_rect_dsc_act.border_side = LV_BORDER_SIDE_FULL;
 1512              		.loc 1 792 9 is_stmt 1 view .LVU472
 792:lvgl/src/widgets/lv_btnmatrix.c ****             draw_rect_dsc_act.border_side = LV_BORDER_SIDE_FULL;
 1513              		.loc 1 792 29 is_stmt 0 view .LVU473
 1514 01ba 9DF81331 		ldrb	r3, [sp, #275]	@ zero_extendqisi2
 1515 01be C3F34403 		ubfx	r3, r3, #1, #5
 792:lvgl/src/widgets/lv_btnmatrix.c ****             draw_rect_dsc_act.border_side = LV_BORDER_SIDE_FULL;
 1516              		.loc 1 792 11 view .LVU474
 1517 01c2 0F2B     		cmp	r3, #15
 1518 01c4 2AD9     		bls	.L71
 793:lvgl/src/widgets/lv_btnmatrix.c ****             if(btn_area.x1 == obj->coords.x1 + pleft) draw_rect_dsc_act.border_side &= ~LV_BORDER_S
 1519              		.loc 1 793 13 is_stmt 1 view .LVU475
 793:lvgl/src/widgets/lv_btnmatrix.c ****             if(btn_area.x1 == obj->coords.x1 + pleft) draw_rect_dsc_act.border_side &= ~LV_BORDER_S
 1520              		.loc 1 793 43 is_stmt 0 view .LVU476
 1521 01c6 9DF81331 		ldrb	r3, [sp, #275]	@ zero_extendqisi2
 1522 01ca 0F22     		movs	r2, #15
 1523 01cc 62F34503 		bfi	r3, r2, #1, #5
 1524 01d0 8DF81331 		strb	r3, [sp, #275]
 794:lvgl/src/widgets/lv_btnmatrix.c ****             if(btn_area.x2 == obj->coords.x2 - pright) draw_rect_dsc_act.border_side &= ~LV_BORDER_
 1525              		.loc 1 794 13 is_stmt 1 view .LVU477
 794:lvgl/src/widgets/lv_btnmatrix.c ****             if(btn_area.x2 == obj->coords.x2 - pright) draw_rect_dsc_act.border_side &= ~LV_BORDER_
 1526              		.loc 1 794 24 is_stmt 0 view .LVU478
 1527 01d4 BDF92821 		ldrsh	r2, [sp, #296]
 794:lvgl/src/widgets/lv_btnmatrix.c ****             if(btn_area.x2 == obj->coords.x2 - pright) draw_rect_dsc_act.border_side &= ~LV_BORDER_
 1528              		.loc 1 794 42 view .LVU479
 1529 01d8 B5F91430 		ldrsh	r3, [r5, #20]
 794:lvgl/src/widgets/lv_btnmatrix.c ****             if(btn_area.x2 == obj->coords.x2 - pright) draw_rect_dsc_act.border_side &= ~LV_BORDER_
 1530              		.loc 1 794 46 view .LVU480
 1531 01dc 0899     		ldr	r1, [sp, #32]
 1532 01de 0B44     		add	r3, r3, r1
 794:lvgl/src/widgets/lv_btnmatrix.c ****             if(btn_area.x2 == obj->coords.x2 - pright) draw_rect_dsc_act.border_side &= ~LV_BORDER_
 1533              		.loc 1 794 15 view .LVU481
 1534 01e0 9A42     		cmp	r2, r3
 1535 01e2 00F0FC80 		beq	.L82
 1536              	.L72:
 795:lvgl/src/widgets/lv_btnmatrix.c ****             if(btn_area.y1 == obj->coords.y1 + ptop) draw_rect_dsc_act.border_side &= ~LV_BORDER_SI
 1537              		.loc 1 795 13 is_stmt 1 view .LVU482
 795:lvgl/src/widgets/lv_btnmatrix.c ****             if(btn_area.y1 == obj->coords.y1 + ptop) draw_rect_dsc_act.border_side &= ~LV_BORDER_SI
 1538              		.loc 1 795 24 is_stmt 0 view .LVU483
 1539 01e6 BDF92C21 		ldrsh	r2, [sp, #300]
 795:lvgl/src/widgets/lv_btnmatrix.c ****             if(btn_area.y1 == obj->coords.y1 + ptop) draw_rect_dsc_act.border_side &= ~LV_BORDER_SI
 1540              		.loc 1 795 42 view .LVU484
 1541 01ea B5F91830 		ldrsh	r3, [r5, #24]
 795:lvgl/src/widgets/lv_btnmatrix.c ****             if(btn_area.y1 == obj->coords.y1 + ptop) draw_rect_dsc_act.border_side &= ~LV_BORDER_SI
 1542              		.loc 1 795 46 view .LVU485
 1543 01ee 0999     		ldr	r1, [sp, #36]
 1544 01f0 5B1A     		subs	r3, r3, r1
 795:lvgl/src/widgets/lv_btnmatrix.c ****             if(btn_area.y1 == obj->coords.y1 + ptop) draw_rect_dsc_act.border_side &= ~LV_BORDER_SI
 1545              		.loc 1 795 15 view .LVU486
 1546 01f2 9A42     		cmp	r2, r3
 1547 01f4 00F00081 		beq	.L83
 1548              	.L73:
 796:lvgl/src/widgets/lv_btnmatrix.c ****             if(btn_area.y2 == obj->coords.y2 - pbottom) draw_rect_dsc_act.border_side &= ~LV_BORDER
 1549              		.loc 1 796 13 is_stmt 1 view .LVU487
 796:lvgl/src/widgets/lv_btnmatrix.c ****             if(btn_area.y2 == obj->coords.y2 - pbottom) draw_rect_dsc_act.border_side &= ~LV_BORDER
ARM GAS  /var/folders/21/t9g5rlb91ys800n5npymflf80000gn/T//ccSbQiFP.s 			page 58


 1550              		.loc 1 796 24 is_stmt 0 view .LVU488
 1551 01f8 BDF92A21 		ldrsh	r2, [sp, #298]
 796:lvgl/src/widgets/lv_btnmatrix.c ****             if(btn_area.y2 == obj->coords.y2 - pbottom) draw_rect_dsc_act.border_side &= ~LV_BORDER
 1552              		.loc 1 796 42 view .LVU489
 1553 01fc B5F91630 		ldrsh	r3, [r5, #22]
 796:lvgl/src/widgets/lv_btnmatrix.c ****             if(btn_area.y2 == obj->coords.y2 - pbottom) draw_rect_dsc_act.border_side &= ~LV_BORDER
 1554              		.loc 1 796 46 view .LVU490
 1555 0200 0699     		ldr	r1, [sp, #24]
 1556 0202 0B44     		add	r3, r3, r1
 796:lvgl/src/widgets/lv_btnmatrix.c ****             if(btn_area.y2 == obj->coords.y2 - pbottom) draw_rect_dsc_act.border_side &= ~LV_BORDER
 1557              		.loc 1 796 15 view .LVU491
 1558 0204 9A42     		cmp	r2, r3
 1559 0206 00F00281 		beq	.L84
 1560              	.L74:
 797:lvgl/src/widgets/lv_btnmatrix.c ****         }
 1561              		.loc 1 797 13 is_stmt 1 view .LVU492
 797:lvgl/src/widgets/lv_btnmatrix.c ****         }
 1562              		.loc 1 797 24 is_stmt 0 view .LVU493
 1563 020a BDF92E21 		ldrsh	r2, [sp, #302]
 797:lvgl/src/widgets/lv_btnmatrix.c ****         }
 1564              		.loc 1 797 42 view .LVU494
 1565 020e B5F91A30 		ldrsh	r3, [r5, #26]
 797:lvgl/src/widgets/lv_btnmatrix.c ****         }
 1566              		.loc 1 797 46 view .LVU495
 1567 0212 0799     		ldr	r1, [sp, #28]
 1568 0214 5B1A     		subs	r3, r3, r1
 797:lvgl/src/widgets/lv_btnmatrix.c ****         }
 1569              		.loc 1 797 15 view .LVU496
 1570 0216 9A42     		cmp	r2, r3
 1571 0218 00F00481 		beq	.L85
 1572              	.L71:
 800:lvgl/src/widgets/lv_btnmatrix.c **** 
 1573              		.loc 1 800 9 is_stmt 1 view .LVU497
 1574              	.LVL138:
 1575              	.LBB114:
 1576              	.LBI114:
 133:lvgl/src/widgets/../core/../misc/../font/../misc/lv_area.h **** {
 1577              		.loc 3 133 26 view .LVU498
 1578              	.LBB115:
 1579              		.loc 3 135 5 view .LVU499
 1580              		.loc 3 135 31 is_stmt 0 view .LVU500
 1581 021c BDF82E91 		ldrh	r9, [sp, #302]
 1582              		.loc 3 135 44 view .LVU501
 1583 0220 BDF82A31 		ldrh	r3, [sp, #298]
 1584              		.loc 3 135 36 view .LVU502
 1585 0224 A9EB0309 		sub	r9, r9, r3
 1586 0228 1FFA89F9 		uxth	r9, r9
 1587              		.loc 3 135 49 view .LVU503
 1588 022c 09F10109 		add	r9, r9, #1
 1589 0230 1FFA89F2 		uxth	r2, r9
 1590              		.loc 3 135 12 view .LVU504
 1591 0234 0FFA89F9 		sxth	r9, r9
 1592              	.LVL139:
 1593              		.loc 3 135 12 view .LVU505
 1594              	.LBE115:
 1595              	.LBE114:
 802:lvgl/src/widgets/lv_btnmatrix.c ****             /*Push up the upper boundary of the btn area to create the popover*/
ARM GAS  /var/folders/21/t9g5rlb91ys800n5npymflf80000gn/T//ccSbQiFP.s 			page 59


 1596              		.loc 1 802 9 is_stmt 1 view .LVU506
 802:lvgl/src/widgets/lv_btnmatrix.c ****             /*Push up the upper boundary of the btn area to create the popover*/
 1597              		.loc 1 802 11 is_stmt 0 view .LVU507
 1598 0238 18F02008 		ands	r8, r8, #32
 1599              	.LVL140:
 802:lvgl/src/widgets/lv_btnmatrix.c ****             /*Push up the upper boundary of the btn area to create the popover*/
 1600              		.loc 1 802 11 view .LVU508
 1601 023c 08D0     		beq	.L75
 802:lvgl/src/widgets/lv_btnmatrix.c ****             /*Push up the upper boundary of the btn area to create the popover*/
 1602              		.loc 1 802 51 discriminator 1 view .LVU509
 1603 023e E96A     		ldr	r1, [r5, #44]
 802:lvgl/src/widgets/lv_btnmatrix.c ****             /*Push up the upper boundary of the btn area to create the popover*/
 1604              		.loc 1 802 62 discriminator 1 view .LVU510
 1605 0240 31F80B10 		ldrh	r1, [r1, fp]
 802:lvgl/src/widgets/lv_btnmatrix.c ****             /*Push up the upper boundary of the btn area to create the popover*/
 1606              		.loc 1 802 43 discriminator 1 view .LVU511
 1607 0244 11F4806F 		tst	r1, #1024
 1608 0248 02D0     		beq	.L75
 804:lvgl/src/widgets/lv_btnmatrix.c ****         }
 1609              		.loc 1 804 13 is_stmt 1 view .LVU512
 804:lvgl/src/widgets/lv_btnmatrix.c ****         }
 1610              		.loc 1 804 25 is_stmt 0 view .LVU513
 1611 024a 9B1A     		subs	r3, r3, r2
 1612 024c ADF82A31 		strh	r3, [sp, #298]	@ movhi
 1613              	.L75:
 808:lvgl/src/widgets/lv_btnmatrix.c **** 
 1614              		.loc 1 808 9 is_stmt 1 view .LVU514
 1615 0250 4AAA     		add	r2, sp, #296
 1616 0252 3CA9     		add	r1, sp, #240
 1617 0254 0498     		ldr	r0, [sp, #16]
 1618 0256 FFF7FEFF 		bl	lv_draw_rect
 1619              	.LVL141:
 811:lvgl/src/widgets/lv_btnmatrix.c ****         lv_coord_t letter_space = draw_label_dsc_act.letter_space;
 1620              		.loc 1 811 9 view .LVU515
 812:lvgl/src/widgets/lv_btnmatrix.c ****         lv_coord_t line_space = draw_label_dsc_act.line_space;
 1621              		.loc 1 812 9 view .LVU516
 813:lvgl/src/widgets/lv_btnmatrix.c ****         const char * txt = btnm->map_p[txt_i];
 1622              		.loc 1 813 9 view .LVU517
 813:lvgl/src/widgets/lv_btnmatrix.c ****         const char * txt = btnm->map_p[txt_i];
 1623              		.loc 1 813 20 is_stmt 0 view .LVU518
 1624 025a BDF9E220 		ldrsh	r2, [sp, #226]
 1625              	.LVL142:
 814:lvgl/src/widgets/lv_btnmatrix.c **** 
 1626              		.loc 1 814 9 is_stmt 1 view .LVU519
 814:lvgl/src/widgets/lv_btnmatrix.c **** 
 1627              		.loc 1 814 32 is_stmt 0 view .LVU520
 1628 025e 6B6A     		ldr	r3, [r5, #36]
 814:lvgl/src/widgets/lv_btnmatrix.c **** 
 1629              		.loc 1 814 22 view .LVU521
 1630 0260 9E59     		ldr	r6, [r3, r6]
 1631              	.LVL143:
 824:lvgl/src/widgets/lv_btnmatrix.c ****         lv_txt_get_size(&txt_size, txt, font, letter_space,
 1632              		.loc 1 824 9 is_stmt 1 view .LVU522
 825:lvgl/src/widgets/lv_btnmatrix.c ****                         line_space, lv_area_get_width(&area_obj), draw_label_dsc_act.flag);
 1633              		.loc 1 825 9 view .LVU523
 1634              	.LBB116:
 1635              	.LBI116:
ARM GAS  /var/folders/21/t9g5rlb91ys800n5npymflf80000gn/T//ccSbQiFP.s 			page 60


 123:lvgl/src/widgets/../core/../misc/../font/../misc/lv_area.h **** {
 1636              		.loc 3 123 26 view .LVU524
 1637              	.LBB117:
 125:lvgl/src/widgets/../core/../misc/../font/../misc/lv_area.h **** }
 1638              		.loc 3 125 5 view .LVU525
 125:lvgl/src/widgets/../core/../misc/../font/../misc/lv_area.h **** }
 1639              		.loc 3 125 31 is_stmt 0 view .LVU526
 1640 0262 BDF83431 		ldrh	r3, [sp, #308]
 125:lvgl/src/widgets/../core/../misc/../font/../misc/lv_area.h **** }
 1641              		.loc 3 125 44 view .LVU527
 1642 0266 BDF83011 		ldrh	r1, [sp, #304]
 125:lvgl/src/widgets/../core/../misc/../font/../misc/lv_area.h **** }
 1643              		.loc 3 125 36 view .LVU528
 1644 026a 5B1A     		subs	r3, r3, r1
 1645 026c 9BB2     		uxth	r3, r3
 125:lvgl/src/widgets/../core/../misc/../font/../misc/lv_area.h **** }
 1646              		.loc 3 125 49 view .LVU529
 1647 026e 0133     		adds	r3, r3, #1
 125:lvgl/src/widgets/../core/../misc/../font/../misc/lv_area.h **** }
 1648              		.loc 3 125 12 view .LVU530
 1649 0270 1BB2     		sxth	r3, r3
 1650              	.LVL144:
 125:lvgl/src/widgets/../core/../misc/../font/../misc/lv_area.h **** }
 1651              		.loc 3 125 12 view .LVU531
 1652              	.LBE117:
 1653              	.LBE116:
 825:lvgl/src/widgets/lv_btnmatrix.c ****                         line_space, lv_area_get_width(&area_obj), draw_label_dsc_act.flag);
 1654              		.loc 1 825 9 view .LVU532
 1655 0272 9DF8ED10 		ldrb	r1, [sp, #237]	@ zero_extendqisi2
 1656 0276 0291     		str	r1, [sp, #8]
 1657 0278 0193     		str	r3, [sp, #4]
 1658 027a 0092     		str	r2, [sp]
 1659 027c BDF9E430 		ldrsh	r3, [sp, #228]
 1660 0280 349A     		ldr	r2, [sp, #208]
 1661 0282 3146     		mov	r1, r6
 1662 0284 0BA8     		add	r0, sp, #44
 1663 0286 FFF7FEFF 		bl	lv_txt_get_size
 1664              	.LVL145:
 828:lvgl/src/widgets/lv_btnmatrix.c ****         btn_area.y1 += (lv_area_get_height(&btn_area) - txt_size.y) / 2;
 1665              		.loc 1 828 9 is_stmt 1 view .LVU533
 1666              	.LBB118:
 1667              	.LBI118:
 123:lvgl/src/widgets/../core/../misc/../font/../misc/lv_area.h **** {
 1668              		.loc 3 123 26 view .LVU534
 1669              	.LBB119:
 125:lvgl/src/widgets/../core/../misc/../font/../misc/lv_area.h **** }
 1670              		.loc 3 125 5 view .LVU535
 125:lvgl/src/widgets/../core/../misc/../font/../misc/lv_area.h **** }
 1671              		.loc 3 125 31 is_stmt 0 view .LVU536
 1672 028a BDF82C31 		ldrh	r3, [sp, #300]
 125:lvgl/src/widgets/../core/../misc/../font/../misc/lv_area.h **** }
 1673              		.loc 3 125 44 view .LVU537
 1674 028e BDF82811 		ldrh	r1, [sp, #296]
 125:lvgl/src/widgets/../core/../misc/../font/../misc/lv_area.h **** }
 1675              		.loc 3 125 36 view .LVU538
 1676 0292 5B1A     		subs	r3, r3, r1
 1677 0294 9BB2     		uxth	r3, r3
ARM GAS  /var/folders/21/t9g5rlb91ys800n5npymflf80000gn/T//ccSbQiFP.s 			page 61


 125:lvgl/src/widgets/../core/../misc/../font/../misc/lv_area.h **** }
 1678              		.loc 3 125 49 view .LVU539
 1679 0296 0133     		adds	r3, r3, #1
 125:lvgl/src/widgets/../core/../misc/../font/../misc/lv_area.h **** }
 1680              		.loc 3 125 12 view .LVU540
 1681 0298 1BB2     		sxth	r3, r3
 1682              	.LVL146:
 125:lvgl/src/widgets/../core/../misc/../font/../misc/lv_area.h **** }
 1683              		.loc 3 125 12 view .LVU541
 1684              	.LBE119:
 1685              	.LBE118:
 828:lvgl/src/widgets/lv_btnmatrix.c ****         btn_area.y1 += (lv_area_get_height(&btn_area) - txt_size.y) / 2;
 1686              		.loc 1 828 64 view .LVU542
 1687 029a BDF92CC0 		ldrsh	ip, [sp, #44]
 828:lvgl/src/widgets/lv_btnmatrix.c ****         btn_area.y1 += (lv_area_get_height(&btn_area) - txt_size.y) / 2;
 1688              		.loc 1 828 54 view .LVU543
 1689 029e A3EB0C03 		sub	r3, r3, ip
 828:lvgl/src/widgets/lv_btnmatrix.c ****         btn_area.y1 += (lv_area_get_height(&btn_area) - txt_size.y) / 2;
 1690              		.loc 1 828 68 view .LVU544
 1691 02a2 03EBD373 		add	r3, r3, r3, lsr #31
 828:lvgl/src/widgets/lv_btnmatrix.c ****         btn_area.y1 += (lv_area_get_height(&btn_area) - txt_size.y) / 2;
 1692              		.loc 1 828 21 view .LVU545
 1693 02a6 01EB6301 		add	r1, r1, r3, asr #1
 1694 02aa 89B2     		uxth	r1, r1
 1695 02ac ADF82811 		strh	r1, [sp, #296]	@ movhi
 829:lvgl/src/widgets/lv_btnmatrix.c ****         btn_area.x2 = btn_area.x1 + txt_size.x;
 1696              		.loc 1 829 9 is_stmt 1 view .LVU546
 1697              	.LVL147:
 1698              	.LBB120:
 1699              	.LBI120:
 133:lvgl/src/widgets/../core/../misc/../font/../misc/lv_area.h **** {
 1700              		.loc 3 133 26 view .LVU547
 1701              	.LBB121:
 1702              		.loc 3 135 5 view .LVU548
 1703              		.loc 3 135 31 is_stmt 0 view .LVU549
 1704 02b0 BDF82E31 		ldrh	r3, [sp, #302]
 1705              		.loc 3 135 44 view .LVU550
 1706 02b4 BDF82A21 		ldrh	r2, [sp, #298]
 1707              		.loc 3 135 36 view .LVU551
 1708 02b8 9B1A     		subs	r3, r3, r2
 1709 02ba 9BB2     		uxth	r3, r3
 1710              		.loc 3 135 49 view .LVU552
 1711 02bc 0133     		adds	r3, r3, #1
 1712              		.loc 3 135 12 view .LVU553
 1713 02be 1BB2     		sxth	r3, r3
 1714              	.LVL148:
 1715              		.loc 3 135 12 view .LVU554
 1716              	.LBE121:
 1717              	.LBE120:
 829:lvgl/src/widgets/lv_btnmatrix.c ****         btn_area.x2 = btn_area.x1 + txt_size.x;
 1718              		.loc 1 829 65 view .LVU555
 1719 02c0 BDF92E00 		ldrsh	r0, [sp, #46]
 829:lvgl/src/widgets/lv_btnmatrix.c ****         btn_area.x2 = btn_area.x1 + txt_size.x;
 1720              		.loc 1 829 55 view .LVU556
 1721 02c4 1B1A     		subs	r3, r3, r0
 829:lvgl/src/widgets/lv_btnmatrix.c ****         btn_area.x2 = btn_area.x1 + txt_size.x;
 1722              		.loc 1 829 69 view .LVU557
ARM GAS  /var/folders/21/t9g5rlb91ys800n5npymflf80000gn/T//ccSbQiFP.s 			page 62


 1723 02c6 03EBD373 		add	r3, r3, r3, lsr #31
 829:lvgl/src/widgets/lv_btnmatrix.c ****         btn_area.x2 = btn_area.x1 + txt_size.x;
 1724              		.loc 1 829 21 view .LVU558
 1725 02ca 02EB6302 		add	r2, r2, r3, asr #1
 1726 02ce 92B2     		uxth	r2, r2
 1727 02d0 ADF82A21 		strh	r2, [sp, #298]	@ movhi
 830:lvgl/src/widgets/lv_btnmatrix.c ****         btn_area.y2 = btn_area.y1 + txt_size.y;
 1728              		.loc 1 830 9 is_stmt 1 view .LVU559
 830:lvgl/src/widgets/lv_btnmatrix.c ****         btn_area.y2 = btn_area.y1 + txt_size.y;
 1729              		.loc 1 830 35 is_stmt 0 view .LVU560
 1730 02d4 11FA8CFC 		uxtah	ip, r1, ip
 830:lvgl/src/widgets/lv_btnmatrix.c ****         btn_area.y2 = btn_area.y1 + txt_size.y;
 1731              		.loc 1 830 21 view .LVU561
 1732 02d8 ADF82CC1 		strh	ip, [sp, #300]	@ movhi
 831:lvgl/src/widgets/lv_btnmatrix.c **** 
 1733              		.loc 1 831 9 is_stmt 1 view .LVU562
 831:lvgl/src/widgets/lv_btnmatrix.c **** 
 1734              		.loc 1 831 35 is_stmt 0 view .LVU563
 1735 02dc 12FA80F0 		uxtah	r0, r2, r0
 1736 02e0 83B2     		uxth	r3, r0
 831:lvgl/src/widgets/lv_btnmatrix.c **** 
 1737              		.loc 1 831 21 view .LVU564
 1738 02e2 ADF82E01 		strh	r0, [sp, #302]	@ movhi
 833:lvgl/src/widgets/lv_btnmatrix.c ****             /*Push up the button text into the popover*/
 1739              		.loc 1 833 9 is_stmt 1 view .LVU565
 833:lvgl/src/widgets/lv_btnmatrix.c ****             /*Push up the button text into the popover*/
 1740              		.loc 1 833 11 is_stmt 0 view .LVU566
 1741 02e6 B8F1000F 		cmp	r8, #0
 1742 02ea 11D0     		beq	.L76
 833:lvgl/src/widgets/lv_btnmatrix.c ****             /*Push up the button text into the popover*/
 1743              		.loc 1 833 51 discriminator 1 view .LVU567
 1744 02ec E96A     		ldr	r1, [r5, #44]
 833:lvgl/src/widgets/lv_btnmatrix.c ****             /*Push up the button text into the popover*/
 1745              		.loc 1 833 62 discriminator 1 view .LVU568
 1746 02ee 31F80B10 		ldrh	r1, [r1, fp]
 833:lvgl/src/widgets/lv_btnmatrix.c ****             /*Push up the button text into the popover*/
 1747              		.loc 1 833 43 discriminator 1 view .LVU569
 1748 02f2 11F4806F 		tst	r1, #1024
 1749 02f6 0BD0     		beq	.L76
 835:lvgl/src/widgets/lv_btnmatrix.c ****             btn_area.y2 -= btn_height / 2;
 1750              		.loc 1 835 13 is_stmt 1 view .LVU570
 835:lvgl/src/widgets/lv_btnmatrix.c ****             btn_area.y2 -= btn_height / 2;
 1751              		.loc 1 835 25 is_stmt 0 view .LVU571
 1752 02f8 09EBD979 		add	r9, r9, r9, lsr #31
 1753              	.LVL149:
 835:lvgl/src/widgets/lv_btnmatrix.c ****             btn_area.y2 -= btn_height / 2;
 1754              		.loc 1 835 25 view .LVU572
 1755 02fc C9F34F09 		ubfx	r9, r9, #1, #16
 1756 0300 A2EB0902 		sub	r2, r2, r9
 1757 0304 ADF82A21 		strh	r2, [sp, #298]	@ movhi
 836:lvgl/src/widgets/lv_btnmatrix.c ****         }
 1758              		.loc 1 836 13 is_stmt 1 view .LVU573
 836:lvgl/src/widgets/lv_btnmatrix.c ****         }
 1759              		.loc 1 836 25 is_stmt 0 view .LVU574
 1760 0308 A3EB0903 		sub	r3, r3, r9
 1761 030c ADF82E31 		strh	r3, [sp, #302]	@ movhi
 1762              	.L76:
ARM GAS  /var/folders/21/t9g5rlb91ys800n5npymflf80000gn/T//ccSbQiFP.s 			page 63


 840:lvgl/src/widgets/lv_btnmatrix.c **** 
 1763              		.loc 1 840 9 is_stmt 1 view .LVU575
 1764 0310 0023     		movs	r3, #0
 1765 0312 0093     		str	r3, [sp]
 1766 0314 3346     		mov	r3, r6
 1767 0316 4AAA     		add	r2, sp, #296
 1768 0318 34A9     		add	r1, sp, #208
 1769 031a 0498     		ldr	r0, [sp, #16]
 1770 031c FFF7FEFF 		bl	lv_draw_label
 1771              	.LVL150:
 842:lvgl/src/widgets/lv_btnmatrix.c ****     }
 1772              		.loc 1 842 9 view .LVU576
 1773 0320 0CAA     		add	r2, sp, #48
 1774 0322 1B21     		movs	r1, #27
 1775 0324 2846     		mov	r0, r5
 1776 0326 FFF7FEFF 		bl	lv_event_send
 1777              	.LVL151:
 1778              	.L60:
 842:lvgl/src/widgets/lv_btnmatrix.c ****     }
 1779              		.loc 1 842 9 is_stmt 0 view .LVU577
 1780              	.LBE111:
 738:lvgl/src/widgets/lv_btnmatrix.c ****         /*Search the next valid text in the map*/
 1781              		.loc 1 738 50 is_stmt 1 discriminator 2 view .LVU578
 738:lvgl/src/widgets/lv_btnmatrix.c ****         /*Search the next valid text in the map*/
 1782              		.loc 1 738 48 is_stmt 0 discriminator 2 view .LVU579
 1783 032a 0137     		adds	r7, r7, #1
 1784              	.LVL152:
 738:lvgl/src/widgets/lv_btnmatrix.c ****         /*Search the next valid text in the map*/
 1785              		.loc 1 738 48 discriminator 2 view .LVU580
 1786 032c BFB2     		uxth	r7, r7
 1787              	.LVL153:
 738:lvgl/src/widgets/lv_btnmatrix.c ****         /*Search the next valid text in the map*/
 1788              		.loc 1 738 57 discriminator 2 view .LVU581
 1789 032e 0134     		adds	r4, r4, #1
 1790              	.LVL154:
 738:lvgl/src/widgets/lv_btnmatrix.c ****         /*Search the next valid text in the map*/
 1791              		.loc 1 738 57 discriminator 2 view .LVU582
 1792 0330 A4B2     		uxth	r4, r4
 1793              	.LVL155:
 1794              	.L57:
 738:lvgl/src/widgets/lv_btnmatrix.c ****         /*Search the next valid text in the map*/
 1795              		.loc 1 738 26 is_stmt 1 discriminator 1 view .LVU583
 738:lvgl/src/widgets/lv_btnmatrix.c ****         /*Search the next valid text in the map*/
 1796              		.loc 1 738 32 is_stmt 0 discriminator 1 view .LVU584
 1797 0332 2B8E     		ldrh	r3, [r5, #48]
 738:lvgl/src/widgets/lv_btnmatrix.c ****         /*Search the next valid text in the map*/
 1798              		.loc 1 738 26 discriminator 1 view .LVU585
 1799 0334 BB42     		cmp	r3, r7
 1800 0336 3FF6CFAE 		bhi	.L77
 845:lvgl/src/widgets/lv_btnmatrix.c **** #if LV_USE_ARABIC_PERSIAN_CHARS
 1801              		.loc 1 845 5 is_stmt 1 view .LVU586
 845:lvgl/src/widgets/lv_btnmatrix.c **** #if LV_USE_ARABIC_PERSIAN_CHARS
 1802              		.loc 1 845 21 is_stmt 0 view .LVU587
 1803 033a 95F82230 		ldrb	r3, [r5, #34]	@ zero_extendqisi2
 1804 033e 6FF3C303 		bfc	r3, #3, #1
 1805 0342 85F82230 		strb	r3, [r5, #34]
 1806 0346 63E6     		b	.L54
ARM GAS  /var/folders/21/t9g5rlb91ys800n5npymflf80000gn/T//ccSbQiFP.s 			page 64


 1807              	.LVL156:
 1808              	.L78:
 1809              	.LBB122:
 749:lvgl/src/widgets/lv_btnmatrix.c **** 
 1810              		.loc 1 749 66 view .LVU588
 1811 0348 4FF00108 		mov	r8, #1
 1812 034c E1E6     		b	.L61
 1813              	.LVL157:
 1814              	.L62:
 752:lvgl/src/widgets/lv_btnmatrix.c ****             if(state_ori & LV_STATE_PRESSED) btn_state |= LV_STATE_PRESSED;
 1815              		.loc 1 752 14 is_stmt 1 view .LVU589
 752:lvgl/src/widgets/lv_btnmatrix.c ****             if(state_ori & LV_STATE_PRESSED) btn_state |= LV_STATE_PRESSED;
 1816              		.loc 1 752 30 is_stmt 0 view .LVU590
 1817 034e AB8E     		ldrh	r3, [r5, #52]
 752:lvgl/src/widgets/lv_btnmatrix.c ****             if(state_ori & LV_STATE_PRESSED) btn_state |= LV_STATE_PRESSED;
 1818              		.loc 1 752 16 view .LVU591
 1819 0350 BB42     		cmp	r3, r7
 1820 0352 7FF4E6AE 		bne	.L63
 753:lvgl/src/widgets/lv_btnmatrix.c ****             if(state_ori & LV_STATE_FOCUSED) btn_state |= LV_STATE_FOCUSED;
 1821              		.loc 1 753 13 is_stmt 1 view .LVU592
 753:lvgl/src/widgets/lv_btnmatrix.c ****             if(state_ori & LV_STATE_FOCUSED) btn_state |= LV_STATE_FOCUSED;
 1822              		.loc 1 753 15 is_stmt 0 view .LVU593
 1823 0356 059B     		ldr	r3, [sp, #20]
 1824 0358 13F0200F 		tst	r3, #32
 1825 035c 01D0     		beq	.L64
 753:lvgl/src/widgets/lv_btnmatrix.c ****             if(state_ori & LV_STATE_FOCUSED) btn_state |= LV_STATE_FOCUSED;
 1826              		.loc 1 753 46 is_stmt 1 discriminator 1 view .LVU594
 753:lvgl/src/widgets/lv_btnmatrix.c ****             if(state_ori & LV_STATE_FOCUSED) btn_state |= LV_STATE_FOCUSED;
 1827              		.loc 1 753 56 is_stmt 0 discriminator 1 view .LVU595
 1828 035e 48F02008 		orr	r8, r8, #32
 1829              	.LVL158:
 1830              	.L64:
 754:lvgl/src/widgets/lv_btnmatrix.c ****             if(state_ori & LV_STATE_FOCUS_KEY) btn_state |= LV_STATE_FOCUS_KEY;
 1831              		.loc 1 754 13 is_stmt 1 view .LVU596
 754:lvgl/src/widgets/lv_btnmatrix.c ****             if(state_ori & LV_STATE_FOCUS_KEY) btn_state |= LV_STATE_FOCUS_KEY;
 1832              		.loc 1 754 15 is_stmt 0 view .LVU597
 1833 0362 059B     		ldr	r3, [sp, #20]
 1834 0364 13F0020F 		tst	r3, #2
 1835 0368 01D0     		beq	.L65
 754:lvgl/src/widgets/lv_btnmatrix.c ****             if(state_ori & LV_STATE_FOCUS_KEY) btn_state |= LV_STATE_FOCUS_KEY;
 1836              		.loc 1 754 46 is_stmt 1 discriminator 1 view .LVU598
 754:lvgl/src/widgets/lv_btnmatrix.c ****             if(state_ori & LV_STATE_FOCUS_KEY) btn_state |= LV_STATE_FOCUS_KEY;
 1837              		.loc 1 754 56 is_stmt 0 discriminator 1 view .LVU599
 1838 036a 48F00208 		orr	r8, r8, #2
 1839              	.LVL159:
 1840              	.L65:
 755:lvgl/src/widgets/lv_btnmatrix.c ****             if(state_ori & LV_STATE_EDITED) btn_state |= LV_STATE_EDITED;
 1841              		.loc 1 755 13 is_stmt 1 view .LVU600
 755:lvgl/src/widgets/lv_btnmatrix.c ****             if(state_ori & LV_STATE_EDITED) btn_state |= LV_STATE_EDITED;
 1842              		.loc 1 755 15 is_stmt 0 view .LVU601
 1843 036e 059B     		ldr	r3, [sp, #20]
 1844 0370 13F0040F 		tst	r3, #4
 1845 0374 01D0     		beq	.L66
 755:lvgl/src/widgets/lv_btnmatrix.c ****             if(state_ori & LV_STATE_EDITED) btn_state |= LV_STATE_EDITED;
 1846              		.loc 1 755 48 is_stmt 1 discriminator 1 view .LVU602
 755:lvgl/src/widgets/lv_btnmatrix.c ****             if(state_ori & LV_STATE_EDITED) btn_state |= LV_STATE_EDITED;
 1847              		.loc 1 755 58 is_stmt 0 discriminator 1 view .LVU603
ARM GAS  /var/folders/21/t9g5rlb91ys800n5npymflf80000gn/T//ccSbQiFP.s 			page 65


 1848 0376 48F00408 		orr	r8, r8, #4
 1849              	.LVL160:
 1850              	.L66:
 756:lvgl/src/widgets/lv_btnmatrix.c ****         }
 1851              		.loc 1 756 13 is_stmt 1 view .LVU604
 756:lvgl/src/widgets/lv_btnmatrix.c ****         }
 1852              		.loc 1 756 15 is_stmt 0 view .LVU605
 1853 037a 059B     		ldr	r3, [sp, #20]
 1854 037c 13F0080F 		tst	r3, #8
 1855 0380 3FF4CFAE 		beq	.L63
 756:lvgl/src/widgets/lv_btnmatrix.c ****         }
 1856              		.loc 1 756 45 is_stmt 1 discriminator 1 view .LVU606
 756:lvgl/src/widgets/lv_btnmatrix.c ****         }
 1857              		.loc 1 756 55 is_stmt 0 discriminator 1 view .LVU607
 1858 0384 48F00808 		orr	r8, r8, #8
 1859              	.LVL161:
 756:lvgl/src/widgets/lv_btnmatrix.c ****         }
 1860              		.loc 1 756 55 discriminator 1 view .LVU608
 1861 0388 CBE6     		b	.L63
 1862              	.L67:
 773:lvgl/src/widgets/lv_btnmatrix.c ****             obj->skip_trans = 1;
 1863              		.loc 1 773 13 is_stmt 1 view .LVU609
 773:lvgl/src/widgets/lv_btnmatrix.c ****             obj->skip_trans = 1;
 1864              		.loc 1 773 24 is_stmt 0 view .LVU610
 1865 038a A5F82080 		strh	r8, [r5, #32]	@ movhi
 774:lvgl/src/widgets/lv_btnmatrix.c ****             lv_draw_rect_dsc_init(&draw_rect_dsc_act);
 1866              		.loc 1 774 13 is_stmt 1 view .LVU611
 774:lvgl/src/widgets/lv_btnmatrix.c ****             lv_draw_rect_dsc_init(&draw_rect_dsc_act);
 1867              		.loc 1 774 29 is_stmt 0 view .LVU612
 1868 038e 95F82230 		ldrb	r3, [r5, #34]	@ zero_extendqisi2
 1869 0392 43F00803 		orr	r3, r3, #8
 1870 0396 85F82230 		strb	r3, [r5, #34]
 775:lvgl/src/widgets/lv_btnmatrix.c ****             lv_draw_label_dsc_init(&draw_label_dsc_act);
 1871              		.loc 1 775 13 is_stmt 1 view .LVU613
 1872 039a 3CA8     		add	r0, sp, #240
 1873 039c FFF7FEFF 		bl	lv_draw_rect_dsc_init
 1874              	.LVL162:
 776:lvgl/src/widgets/lv_btnmatrix.c ****             lv_obj_init_draw_rect_dsc(obj, LV_PART_ITEMS, &draw_rect_dsc_act);
 1875              		.loc 1 776 13 view .LVU614
 1876 03a0 34A8     		add	r0, sp, #208
 1877 03a2 FFF7FEFF 		bl	lv_draw_label_dsc_init
 1878              	.LVL163:
 777:lvgl/src/widgets/lv_btnmatrix.c ****             lv_obj_init_draw_label_dsc(obj, LV_PART_ITEMS, &draw_label_dsc_act);
 1879              		.loc 1 777 13 view .LVU615
 1880 03a6 3CAA     		add	r2, sp, #240
 1881 03a8 4FF4A021 		mov	r1, #327680
 1882 03ac 2846     		mov	r0, r5
 1883 03ae FFF7FEFF 		bl	lv_obj_init_draw_rect_dsc
 1884              	.LVL164:
 778:lvgl/src/widgets/lv_btnmatrix.c ****             obj->state = state_ori;
 1885              		.loc 1 778 13 view .LVU616
 1886 03b2 34AA     		add	r2, sp, #208
 1887 03b4 4FF4A021 		mov	r1, #327680
 1888 03b8 2846     		mov	r0, r5
 1889 03ba FFF7FEFF 		bl	lv_obj_init_draw_label_dsc
 1890              	.LVL165:
 779:lvgl/src/widgets/lv_btnmatrix.c ****             obj->skip_trans = 0;
ARM GAS  /var/folders/21/t9g5rlb91ys800n5npymflf80000gn/T//ccSbQiFP.s 			page 66


 1891              		.loc 1 779 13 view .LVU617
 779:lvgl/src/widgets/lv_btnmatrix.c ****             obj->skip_trans = 0;
 1892              		.loc 1 779 24 is_stmt 0 view .LVU618
 1893 03be 059B     		ldr	r3, [sp, #20]
 1894 03c0 2B84     		strh	r3, [r5, #32]	@ movhi
 780:lvgl/src/widgets/lv_btnmatrix.c ****         }
 1895              		.loc 1 780 13 is_stmt 1 view .LVU619
 780:lvgl/src/widgets/lv_btnmatrix.c ****         }
 1896              		.loc 1 780 29 is_stmt 0 view .LVU620
 1897 03c2 95F82230 		ldrb	r3, [r5, #34]	@ zero_extendqisi2
 1898 03c6 6FF3C303 		bfc	r3, #3, #1
 1899 03ca 85F82230 		strb	r3, [r5, #34]
 1900 03ce DDE6     		b	.L68
 1901              	.LVL166:
 1902              	.L69:
 785:lvgl/src/widgets/lv_btnmatrix.c **** 
 1903              		.loc 1 785 14 is_stmt 1 view .LVU621
 785:lvgl/src/widgets/lv_btnmatrix.c **** 
 1904              		.loc 1 785 32 is_stmt 0 view .LVU622
 1905 03d0 9DF8ED30 		ldrb	r3, [sp, #237]	@ zero_extendqisi2
 785:lvgl/src/widgets/lv_btnmatrix.c **** 
 1906              		.loc 1 785 38 view .LVU623
 1907 03d4 23F00103 		bic	r3, r3, #1
 1908 03d8 8DF8ED30 		strb	r3, [sp, #237]
 1909 03dc E4E6     		b	.L70
 1910              	.LVL167:
 1911              	.L82:
 794:lvgl/src/widgets/lv_btnmatrix.c ****             if(btn_area.x2 == obj->coords.x2 - pright) draw_rect_dsc_act.border_side &= ~LV_BORDER_
 1912              		.loc 1 794 55 is_stmt 1 discriminator 1 view .LVU624
 794:lvgl/src/widgets/lv_btnmatrix.c ****             if(btn_area.x2 == obj->coords.x2 - pright) draw_rect_dsc_act.border_side &= ~LV_BORDER_
 1913              		.loc 1 794 85 is_stmt 0 discriminator 1 view .LVU625
 1914 03de 9DF81331 		ldrb	r3, [sp, #275]	@ zero_extendqisi2
 1915 03e2 0B22     		movs	r2, #11
 1916 03e4 62F34503 		bfi	r3, r2, #1, #5
 1917 03e8 8DF81331 		strb	r3, [sp, #275]
 1918 03ec FBE6     		b	.L72
 1919              	.L87:
 1920 03ee 00BF     		.align	2
 1921              	.L86:
 1922 03f0 00000000 		.word	lv_btnmatrix_class
 1923 03f4 00000000 		.word	.LC0
 1924              	.L83:
 795:lvgl/src/widgets/lv_btnmatrix.c ****             if(btn_area.y1 == obj->coords.y1 + ptop) draw_rect_dsc_act.border_side &= ~LV_BORDER_SI
 1925              		.loc 1 795 56 is_stmt 1 discriminator 1 view .LVU626
 795:lvgl/src/widgets/lv_btnmatrix.c ****             if(btn_area.y1 == obj->coords.y1 + ptop) draw_rect_dsc_act.border_side &= ~LV_BORDER_SI
 1926              		.loc 1 795 73 is_stmt 0 discriminator 1 view .LVU627
 1927 03f8 9DF81331 		ldrb	r3, [sp, #275]	@ zero_extendqisi2
 1928 03fc C3F34402 		ubfx	r2, r3, #1, #5
 795:lvgl/src/widgets/lv_btnmatrix.c ****             if(btn_area.y1 == obj->coords.y1 + ptop) draw_rect_dsc_act.border_side &= ~LV_BORDER_SI
 1929              		.loc 1 795 86 discriminator 1 view .LVU628
 1930 0400 02F01702 		and	r2, r2, #23
 1931 0404 62F34503 		bfi	r3, r2, #1, #5
 1932 0408 8DF81331 		strb	r3, [sp, #275]
 1933 040c F4E6     		b	.L73
 1934              	.L84:
 796:lvgl/src/widgets/lv_btnmatrix.c ****             if(btn_area.y2 == obj->coords.y2 - pbottom) draw_rect_dsc_act.border_side &= ~LV_BORDER
 1935              		.loc 1 796 54 is_stmt 1 discriminator 1 view .LVU629
ARM GAS  /var/folders/21/t9g5rlb91ys800n5npymflf80000gn/T//ccSbQiFP.s 			page 67


 796:lvgl/src/widgets/lv_btnmatrix.c ****             if(btn_area.y2 == obj->coords.y2 - pbottom) draw_rect_dsc_act.border_side &= ~LV_BORDER
 1936              		.loc 1 796 71 is_stmt 0 discriminator 1 view .LVU630
 1937 040e 9DF81331 		ldrb	r3, [sp, #275]	@ zero_extendqisi2
 1938 0412 C3F34402 		ubfx	r2, r3, #1, #5
 796:lvgl/src/widgets/lv_btnmatrix.c ****             if(btn_area.y2 == obj->coords.y2 - pbottom) draw_rect_dsc_act.border_side &= ~LV_BORDER
 1939              		.loc 1 796 84 discriminator 1 view .LVU631
 1940 0416 02F01D02 		and	r2, r2, #29
 1941 041a 62F34503 		bfi	r3, r2, #1, #5
 1942 041e 8DF81331 		strb	r3, [sp, #275]
 1943 0422 F2E6     		b	.L74
 1944              	.L85:
 797:lvgl/src/widgets/lv_btnmatrix.c ****         }
 1945              		.loc 1 797 57 is_stmt 1 discriminator 1 view .LVU632
 797:lvgl/src/widgets/lv_btnmatrix.c ****         }
 1946              		.loc 1 797 74 is_stmt 0 discriminator 1 view .LVU633
 1947 0424 9DF81331 		ldrb	r3, [sp, #275]	@ zero_extendqisi2
 1948 0428 C3F34402 		ubfx	r2, r3, #1, #5
 797:lvgl/src/widgets/lv_btnmatrix.c ****         }
 1949              		.loc 1 797 87 discriminator 1 view .LVU634
 1950 042c 02F01E02 		and	r2, r2, #30
 1951 0430 62F34503 		bfi	r3, r2, #1, #5
 1952 0434 8DF81331 		strb	r3, [sp, #275]
 1953 0438 F0E6     		b	.L71
 1954              	.LBE122:
 1955              		.cfi_endproc
 1956              	.LFE179:
 1958 043a 00BF     		.section	.text.lv_btnmatrix_destructor,"ax",%progbits
 1959              		.align	1
 1960              		.syntax unified
 1961              		.thumb
 1962              		.thumb_func
 1964              	lv_btnmatrix_destructor:
 1965              	.LVL168:
 1966              	.LFB177:
 393:lvgl/src/widgets/lv_btnmatrix.c ****     LV_TRACE_OBJ_CREATE("begin");
 1967              		.loc 1 393 1 is_stmt 1 view -0
 1968              		.cfi_startproc
 1969              		@ args = 0, pretend = 0, frame = 0
 1970              		@ frame_needed = 0, uses_anonymous_args = 0
 393:lvgl/src/widgets/lv_btnmatrix.c ****     LV_TRACE_OBJ_CREATE("begin");
 1971              		.loc 1 393 1 is_stmt 0 view .LVU636
 1972 0000 10B5     		push	{r4, lr}
 1973              	.LCFI16:
 1974              		.cfi_def_cfa_offset 8
 1975              		.cfi_offset 4, -8
 1976              		.cfi_offset 14, -4
 1977 0002 0C46     		mov	r4, r1
 394:lvgl/src/widgets/lv_btnmatrix.c ****     LV_UNUSED(class_p);
 1978              		.loc 1 394 33 is_stmt 1 view .LVU637
 395:lvgl/src/widgets/lv_btnmatrix.c ****     lv_btnmatrix_t * btnm = (lv_btnmatrix_t *)obj;
 1979              		.loc 1 395 5 view .LVU638
 396:lvgl/src/widgets/lv_btnmatrix.c ****     lv_mem_free(btnm->button_areas);
 1980              		.loc 1 396 5 view .LVU639
 1981              	.LVL169:
 397:lvgl/src/widgets/lv_btnmatrix.c ****     lv_mem_free(btnm->ctrl_bits);
 1982              		.loc 1 397 5 view .LVU640
 1983 0004 886A     		ldr	r0, [r1, #40]
ARM GAS  /var/folders/21/t9g5rlb91ys800n5npymflf80000gn/T//ccSbQiFP.s 			page 68


 1984              	.LVL170:
 397:lvgl/src/widgets/lv_btnmatrix.c ****     lv_mem_free(btnm->ctrl_bits);
 1985              		.loc 1 397 5 is_stmt 0 view .LVU641
 1986 0006 FFF7FEFF 		bl	lv_mem_free
 1987              	.LVL171:
 398:lvgl/src/widgets/lv_btnmatrix.c ****     btnm->button_areas = NULL;
 1988              		.loc 1 398 5 is_stmt 1 view .LVU642
 1989 000a E06A     		ldr	r0, [r4, #44]
 1990 000c FFF7FEFF 		bl	lv_mem_free
 1991              	.LVL172:
 399:lvgl/src/widgets/lv_btnmatrix.c ****     btnm->ctrl_bits = NULL;
 1992              		.loc 1 399 5 view .LVU643
 399:lvgl/src/widgets/lv_btnmatrix.c ****     btnm->ctrl_bits = NULL;
 1993              		.loc 1 399 24 is_stmt 0 view .LVU644
 1994 0010 0023     		movs	r3, #0
 1995 0012 A362     		str	r3, [r4, #40]
 400:lvgl/src/widgets/lv_btnmatrix.c ****     LV_TRACE_OBJ_CREATE("finished");
 1996              		.loc 1 400 5 is_stmt 1 view .LVU645
 400:lvgl/src/widgets/lv_btnmatrix.c ****     LV_TRACE_OBJ_CREATE("finished");
 1997              		.loc 1 400 21 is_stmt 0 view .LVU646
 1998 0014 E362     		str	r3, [r4, #44]
 401:lvgl/src/widgets/lv_btnmatrix.c **** }
 1999              		.loc 1 401 36 is_stmt 1 view .LVU647
 402:lvgl/src/widgets/lv_btnmatrix.c **** 
 2000              		.loc 1 402 1 is_stmt 0 view .LVU648
 2001 0016 10BD     		pop	{r4, pc}
 402:lvgl/src/widgets/lv_btnmatrix.c **** 
 2002              		.loc 1 402 1 view .LVU649
 2003              		.cfi_endproc
 2004              	.LFE177:
 2006              		.section	.text.allocate_btn_areas_and_controls,"ax",%progbits
 2007              		.align	1
 2008              		.syntax unified
 2009              		.thumb
 2010              		.thumb_func
 2012              	allocate_btn_areas_and_controls:
 2013              	.LVL173:
 2014              	.LFB180:
 856:lvgl/src/widgets/lv_btnmatrix.c ****     lv_btnmatrix_t * btnm = (lv_btnmatrix_t *)obj;
 2015              		.loc 1 856 1 is_stmt 1 view -0
 2016              		.cfi_startproc
 2017              		@ args = 0, pretend = 0, frame = 0
 2018              		@ frame_needed = 0, uses_anonymous_args = 0
 856:lvgl/src/widgets/lv_btnmatrix.c ****     lv_btnmatrix_t * btnm = (lv_btnmatrix_t *)obj;
 2019              		.loc 1 856 1 is_stmt 0 view .LVU651
 2020 0000 F8B5     		push	{r3, r4, r5, r6, r7, lr}
 2021              	.LCFI17:
 2022              		.cfi_def_cfa_offset 24
 2023              		.cfi_offset 3, -24
 2024              		.cfi_offset 4, -20
 2025              		.cfi_offset 5, -16
 2026              		.cfi_offset 6, -12
 2027              		.cfi_offset 7, -8
 2028              		.cfi_offset 14, -4
 2029 0002 0646     		mov	r6, r0
 2030 0004 0F46     		mov	r7, r1
 857:lvgl/src/widgets/lv_btnmatrix.c ****     btnm->row_cnt = 1;
ARM GAS  /var/folders/21/t9g5rlb91ys800n5npymflf80000gn/T//ccSbQiFP.s 			page 69


 2031              		.loc 1 857 5 is_stmt 1 view .LVU652
 2032              	.LVL174:
 858:lvgl/src/widgets/lv_btnmatrix.c ****     /*Count the buttons in the map*/
 2033              		.loc 1 858 5 view .LVU653
 858:lvgl/src/widgets/lv_btnmatrix.c ****     /*Count the buttons in the map*/
 2034              		.loc 1 858 19 is_stmt 0 view .LVU654
 2035 0006 0123     		movs	r3, #1
 2036 0008 4386     		strh	r3, [r0, #50]	@ movhi
 860:lvgl/src/widgets/lv_btnmatrix.c ****     uint16_t i       = 0;
 2037              		.loc 1 860 5 is_stmt 1 view .LVU655
 2038              	.LVL175:
 861:lvgl/src/widgets/lv_btnmatrix.c ****     while(map[i] && map[i][0] != '\0') {
 2039              		.loc 1 861 5 view .LVU656
 862:lvgl/src/widgets/lv_btnmatrix.c ****         if(strcmp(map[i], "\n") != 0) { /*Do not count line breaks*/
 2040              		.loc 1 862 5 view .LVU657
 861:lvgl/src/widgets/lv_btnmatrix.c ****     while(map[i] && map[i][0] != '\0') {
 2041              		.loc 1 861 14 is_stmt 0 view .LVU658
 2042 000a 0024     		movs	r4, #0
 860:lvgl/src/widgets/lv_btnmatrix.c ****     uint16_t i       = 0;
 2043              		.loc 1 860 14 view .LVU659
 2044 000c 2546     		mov	r5, r4
 862:lvgl/src/widgets/lv_btnmatrix.c ****         if(strcmp(map[i], "\n") != 0) { /*Do not count line breaks*/
 2045              		.loc 1 862 10 view .LVU660
 2046 000e 04E0     		b	.L91
 2047              	.LVL176:
 2048              	.L92:
 867:lvgl/src/widgets/lv_btnmatrix.c ****         }
 2049              		.loc 1 867 13 is_stmt 1 view .LVU661
 867:lvgl/src/widgets/lv_btnmatrix.c ****         }
 2050              		.loc 1 867 17 is_stmt 0 view .LVU662
 2051 0010 738E     		ldrh	r3, [r6, #50]
 867:lvgl/src/widgets/lv_btnmatrix.c ****         }
 2052              		.loc 1 867 26 view .LVU663
 2053 0012 0133     		adds	r3, r3, #1
 2054 0014 7386     		strh	r3, [r6, #50]	@ movhi
 2055              	.L93:
 869:lvgl/src/widgets/lv_btnmatrix.c ****     }
 2056              		.loc 1 869 9 is_stmt 1 view .LVU664
 869:lvgl/src/widgets/lv_btnmatrix.c ****     }
 2057              		.loc 1 869 10 is_stmt 0 view .LVU665
 2058 0016 0134     		adds	r4, r4, #1
 2059              	.LVL177:
 869:lvgl/src/widgets/lv_btnmatrix.c ****     }
 2060              		.loc 1 869 10 view .LVU666
 2061 0018 A4B2     		uxth	r4, r4
 2062              	.LVL178:
 2063              	.L91:
 862:lvgl/src/widgets/lv_btnmatrix.c ****         if(strcmp(map[i], "\n") != 0) { /*Do not count line breaks*/
 2064              		.loc 1 862 18 is_stmt 1 view .LVU667
 862:lvgl/src/widgets/lv_btnmatrix.c ****         if(strcmp(map[i], "\n") != 0) { /*Do not count line breaks*/
 2065              		.loc 1 862 14 is_stmt 0 view .LVU668
 2066 001a 57F82400 		ldr	r0, [r7, r4, lsl #2]
 862:lvgl/src/widgets/lv_btnmatrix.c ****         if(strcmp(map[i], "\n") != 0) { /*Do not count line breaks*/
 2067              		.loc 1 862 18 view .LVU669
 2068 001e 48B1     		cbz	r0, .L94
 862:lvgl/src/widgets/lv_btnmatrix.c ****         if(strcmp(map[i], "\n") != 0) { /*Do not count line breaks*/
 2069              		.loc 1 862 27 discriminator 1 view .LVU670
ARM GAS  /var/folders/21/t9g5rlb91ys800n5npymflf80000gn/T//ccSbQiFP.s 			page 70


 2070 0020 0378     		ldrb	r3, [r0]	@ zero_extendqisi2
 862:lvgl/src/widgets/lv_btnmatrix.c ****         if(strcmp(map[i], "\n") != 0) { /*Do not count line breaks*/
 2071              		.loc 1 862 18 discriminator 1 view .LVU671
 2072 0022 3BB1     		cbz	r3, .L94
 863:lvgl/src/widgets/lv_btnmatrix.c ****             btn_cnt++;
 2073              		.loc 1 863 9 is_stmt 1 view .LVU672
 863:lvgl/src/widgets/lv_btnmatrix.c ****             btn_cnt++;
 2074              		.loc 1 863 12 is_stmt 0 view .LVU673
 2075 0024 1549     		ldr	r1, .L107
 2076 0026 FFF7FEFF 		bl	strcmp
 2077              	.LVL179:
 863:lvgl/src/widgets/lv_btnmatrix.c ****             btn_cnt++;
 2078              		.loc 1 863 11 view .LVU674
 2079 002a 0028     		cmp	r0, #0
 2080 002c F0D0     		beq	.L92
 864:lvgl/src/widgets/lv_btnmatrix.c ****         }
 2081              		.loc 1 864 13 is_stmt 1 view .LVU675
 864:lvgl/src/widgets/lv_btnmatrix.c ****         }
 2082              		.loc 1 864 20 is_stmt 0 view .LVU676
 2083 002e 0135     		adds	r5, r5, #1
 2084              	.LVL180:
 864:lvgl/src/widgets/lv_btnmatrix.c ****         }
 2085              		.loc 1 864 20 view .LVU677
 2086 0030 ADB2     		uxth	r5, r5
 2087              	.LVL181:
 864:lvgl/src/widgets/lv_btnmatrix.c ****         }
 2088              		.loc 1 864 20 view .LVU678
 2089 0032 F0E7     		b	.L93
 2090              	.L94:
 873:lvgl/src/widgets/lv_btnmatrix.c **** 
 2091              		.loc 1 873 5 is_stmt 1 view .LVU679
 873:lvgl/src/widgets/lv_btnmatrix.c **** 
 2092              		.loc 1 873 23 is_stmt 0 view .LVU680
 2093 0034 338E     		ldrh	r3, [r6, #48]
 873:lvgl/src/widgets/lv_btnmatrix.c **** 
 2094              		.loc 1 873 7 view .LVU681
 2095 0036 AB42     		cmp	r3, r5
 2096 0038 1BD0     		beq	.L90
 875:lvgl/src/widgets/lv_btnmatrix.c ****         lv_mem_free(btnm->button_areas);
 2097              		.loc 1 875 5 is_stmt 1 view .LVU682
 875:lvgl/src/widgets/lv_btnmatrix.c ****         lv_mem_free(btnm->button_areas);
 2098              		.loc 1 875 12 is_stmt 0 view .LVU683
 2099 003a B06A     		ldr	r0, [r6, #40]
 875:lvgl/src/widgets/lv_btnmatrix.c ****         lv_mem_free(btnm->button_areas);
 2100              		.loc 1 875 7 view .LVU684
 2101 003c 18B1     		cbz	r0, .L97
 876:lvgl/src/widgets/lv_btnmatrix.c ****         btnm->button_areas = NULL;
 2102              		.loc 1 876 9 is_stmt 1 view .LVU685
 2103 003e FFF7FEFF 		bl	lv_mem_free
 2104              	.LVL182:
 877:lvgl/src/widgets/lv_btnmatrix.c ****     }
 2105              		.loc 1 877 9 view .LVU686
 877:lvgl/src/widgets/lv_btnmatrix.c ****     }
 2106              		.loc 1 877 28 is_stmt 0 view .LVU687
 2107 0042 0023     		movs	r3, #0
 2108 0044 B362     		str	r3, [r6, #40]
 2109              	.L97:
ARM GAS  /var/folders/21/t9g5rlb91ys800n5npymflf80000gn/T//ccSbQiFP.s 			page 71


 879:lvgl/src/widgets/lv_btnmatrix.c ****         lv_mem_free(btnm->ctrl_bits);
 2110              		.loc 1 879 5 is_stmt 1 view .LVU688
 879:lvgl/src/widgets/lv_btnmatrix.c ****         lv_mem_free(btnm->ctrl_bits);
 2111              		.loc 1 879 12 is_stmt 0 view .LVU689
 2112 0046 F06A     		ldr	r0, [r6, #44]
 879:lvgl/src/widgets/lv_btnmatrix.c ****         lv_mem_free(btnm->ctrl_bits);
 2113              		.loc 1 879 7 view .LVU690
 2114 0048 18B1     		cbz	r0, .L98
 880:lvgl/src/widgets/lv_btnmatrix.c ****         btnm->ctrl_bits = NULL;
 2115              		.loc 1 880 9 is_stmt 1 view .LVU691
 2116 004a FFF7FEFF 		bl	lv_mem_free
 2117              	.LVL183:
 881:lvgl/src/widgets/lv_btnmatrix.c ****     }
 2118              		.loc 1 881 9 view .LVU692
 881:lvgl/src/widgets/lv_btnmatrix.c ****     }
 2119              		.loc 1 881 25 is_stmt 0 view .LVU693
 2120 004e 0023     		movs	r3, #0
 2121 0050 F362     		str	r3, [r6, #44]
 2122              	.L98:
 884:lvgl/src/widgets/lv_btnmatrix.c ****     LV_ASSERT_MALLOC(btnm->button_areas);
 2123              		.loc 1 884 5 is_stmt 1 view .LVU694
 884:lvgl/src/widgets/lv_btnmatrix.c ****     LV_ASSERT_MALLOC(btnm->button_areas);
 2124              		.loc 1 884 26 is_stmt 0 view .LVU695
 2125 0052 E800     		lsls	r0, r5, #3
 2126 0054 FFF7FEFF 		bl	lv_mem_alloc
 2127              	.LVL184:
 884:lvgl/src/widgets/lv_btnmatrix.c ****     LV_ASSERT_MALLOC(btnm->button_areas);
 2128              		.loc 1 884 24 view .LVU696
 2129 0058 B062     		str	r0, [r6, #40]
 885:lvgl/src/widgets/lv_btnmatrix.c ****     btnm->ctrl_bits = lv_mem_alloc(sizeof(lv_btnmatrix_ctrl_t) * btn_cnt);
 2130              		.loc 1 885 5 is_stmt 1 view .LVU697
 885:lvgl/src/widgets/lv_btnmatrix.c ****     btnm->ctrl_bits = lv_mem_alloc(sizeof(lv_btnmatrix_ctrl_t) * btn_cnt);
 2131              		.loc 1 885 5 view .LVU698
 2132 005a 58B1     		cbz	r0, .L100
 885:lvgl/src/widgets/lv_btnmatrix.c ****     btnm->ctrl_bits = lv_mem_alloc(sizeof(lv_btnmatrix_ctrl_t) * btn_cnt);
 2133              		.loc 1 885 5 discriminator 2 view .LVU699
 885:lvgl/src/widgets/lv_btnmatrix.c ****     btnm->ctrl_bits = lv_mem_alloc(sizeof(lv_btnmatrix_ctrl_t) * btn_cnt);
 2134              		.loc 1 885 41 discriminator 2 view .LVU700
 886:lvgl/src/widgets/lv_btnmatrix.c ****     LV_ASSERT_MALLOC(btnm->ctrl_bits);
 2135              		.loc 1 886 5 discriminator 2 view .LVU701
 886:lvgl/src/widgets/lv_btnmatrix.c ****     LV_ASSERT_MALLOC(btnm->ctrl_bits);
 2136              		.loc 1 886 23 is_stmt 0 discriminator 2 view .LVU702
 2137 005c 6800     		lsls	r0, r5, #1
 2138 005e FFF7FEFF 		bl	lv_mem_alloc
 2139              	.LVL185:
 886:lvgl/src/widgets/lv_btnmatrix.c ****     LV_ASSERT_MALLOC(btnm->ctrl_bits);
 2140              		.loc 1 886 21 discriminator 2 view .LVU703
 2141 0062 F062     		str	r0, [r6, #44]
 887:lvgl/src/widgets/lv_btnmatrix.c ****     if(btnm->button_areas == NULL || btnm->ctrl_bits == NULL) btn_cnt = 0;
 2142              		.loc 1 887 5 is_stmt 1 discriminator 2 view .LVU704
 887:lvgl/src/widgets/lv_btnmatrix.c ****     if(btnm->button_areas == NULL || btnm->ctrl_bits == NULL) btn_cnt = 0;
 2143              		.loc 1 887 5 discriminator 2 view .LVU705
 2144 0064 38B1     		cbz	r0, .L102
 887:lvgl/src/widgets/lv_btnmatrix.c ****     if(btnm->button_areas == NULL || btnm->ctrl_bits == NULL) btn_cnt = 0;
 2145              		.loc 1 887 5 discriminator 2 view .LVU706
 887:lvgl/src/widgets/lv_btnmatrix.c ****     if(btnm->button_areas == NULL || btnm->ctrl_bits == NULL) btn_cnt = 0;
 2146              		.loc 1 887 38 discriminator 2 view .LVU707
ARM GAS  /var/folders/21/t9g5rlb91ys800n5npymflf80000gn/T//ccSbQiFP.s 			page 72


 888:lvgl/src/widgets/lv_btnmatrix.c **** 
 2147              		.loc 1 888 5 discriminator 2 view .LVU708
 888:lvgl/src/widgets/lv_btnmatrix.c **** 
 2148              		.loc 1 888 12 is_stmt 0 discriminator 2 view .LVU709
 2149 0066 B36A     		ldr	r3, [r6, #40]
 888:lvgl/src/widgets/lv_btnmatrix.c **** 
 2150              		.loc 1 888 7 discriminator 2 view .LVU710
 2151 0068 33B1     		cbz	r3, .L106
 2152              	.LVL186:
 2153              	.L103:
 890:lvgl/src/widgets/lv_btnmatrix.c **** 
 2154              		.loc 1 890 5 is_stmt 1 view .LVU711
 2155 006a 6900     		lsls	r1, r5, #1
 2156 006c FFF7FEFF 		bl	lv_memset_00
 2157              	.LVL187:
 892:lvgl/src/widgets/lv_btnmatrix.c **** }
 2158              		.loc 1 892 5 view .LVU712
 892:lvgl/src/widgets/lv_btnmatrix.c **** }
 2159              		.loc 1 892 19 is_stmt 0 view .LVU713
 2160 0070 3586     		strh	r5, [r6, #48]	@ movhi
 2161              	.L90:
 893:lvgl/src/widgets/lv_btnmatrix.c **** 
 2162              		.loc 1 893 1 view .LVU714
 2163 0072 F8BD     		pop	{r3, r4, r5, r6, r7, pc}
 2164              	.LVL188:
 2165              	.L100:
 885:lvgl/src/widgets/lv_btnmatrix.c ****     btnm->ctrl_bits = lv_mem_alloc(sizeof(lv_btnmatrix_ctrl_t) * btn_cnt);
 2166              		.loc 1 885 5 is_stmt 1 discriminator 1 view .LVU715
 885:lvgl/src/widgets/lv_btnmatrix.c ****     btnm->ctrl_bits = lv_mem_alloc(sizeof(lv_btnmatrix_ctrl_t) * btn_cnt);
 2167              		.loc 1 885 5 discriminator 1 view .LVU716
 885:lvgl/src/widgets/lv_btnmatrix.c ****     btnm->ctrl_bits = lv_mem_alloc(sizeof(lv_btnmatrix_ctrl_t) * btn_cnt);
 2168              		.loc 1 885 5 discriminator 1 view .LVU717
 885:lvgl/src/widgets/lv_btnmatrix.c ****     btnm->ctrl_bits = lv_mem_alloc(sizeof(lv_btnmatrix_ctrl_t) * btn_cnt);
 2169              		.loc 1 885 5 discriminator 1 view .LVU718
 885:lvgl/src/widgets/lv_btnmatrix.c ****     btnm->ctrl_bits = lv_mem_alloc(sizeof(lv_btnmatrix_ctrl_t) * btn_cnt);
 2170              		.loc 1 885 5 discriminator 1 view .LVU719
 2171 0074 FEE7     		b	.L100
 2172              	.L102:
 887:lvgl/src/widgets/lv_btnmatrix.c ****     if(btnm->button_areas == NULL || btnm->ctrl_bits == NULL) btn_cnt = 0;
 2173              		.loc 1 887 5 discriminator 2 view .LVU720
 887:lvgl/src/widgets/lv_btnmatrix.c ****     if(btnm->button_areas == NULL || btnm->ctrl_bits == NULL) btn_cnt = 0;
 2174              		.loc 1 887 5 discriminator 2 view .LVU721
 887:lvgl/src/widgets/lv_btnmatrix.c ****     if(btnm->button_areas == NULL || btnm->ctrl_bits == NULL) btn_cnt = 0;
 2175              		.loc 1 887 5 discriminator 2 view .LVU722
 887:lvgl/src/widgets/lv_btnmatrix.c ****     if(btnm->button_areas == NULL || btnm->ctrl_bits == NULL) btn_cnt = 0;
 2176              		.loc 1 887 5 discriminator 2 view .LVU723
 887:lvgl/src/widgets/lv_btnmatrix.c ****     if(btnm->button_areas == NULL || btnm->ctrl_bits == NULL) btn_cnt = 0;
 2177              		.loc 1 887 5 discriminator 2 view .LVU724
 2178 0076 FEE7     		b	.L102
 2179              	.L106:
 888:lvgl/src/widgets/lv_btnmatrix.c **** 
 2180              		.loc 1 888 71 is_stmt 0 view .LVU725
 2181 0078 0025     		movs	r5, #0
 2182              	.LVL189:
 888:lvgl/src/widgets/lv_btnmatrix.c **** 
 2183              		.loc 1 888 71 view .LVU726
 2184 007a F6E7     		b	.L103
ARM GAS  /var/folders/21/t9g5rlb91ys800n5npymflf80000gn/T//ccSbQiFP.s 			page 73


 2185              	.L108:
 2186              		.align	2
 2187              	.L107:
 2188 007c 00000000 		.word	.LC0
 2189              		.cfi_endproc
 2190              	.LFE180:
 2192              		.section	.text.lv_btnmatrix_create,"ax",%progbits
 2193              		.align	1
 2194              		.global	lv_btnmatrix_create
 2195              		.syntax unified
 2196              		.thumb
 2197              		.thumb_func
 2199              	lv_btnmatrix_create:
 2200              	.LVL190:
 2201              	.LFB161:
  82:lvgl/src/widgets/lv_btnmatrix.c ****     LV_LOG_INFO("begin");
 2202              		.loc 1 82 1 is_stmt 1 view -0
 2203              		.cfi_startproc
 2204              		@ args = 0, pretend = 0, frame = 0
 2205              		@ frame_needed = 0, uses_anonymous_args = 0
  82:lvgl/src/widgets/lv_btnmatrix.c ****     LV_LOG_INFO("begin");
 2206              		.loc 1 82 1 is_stmt 0 view .LVU728
 2207 0000 10B5     		push	{r4, lr}
 2208              	.LCFI18:
 2209              		.cfi_def_cfa_offset 8
 2210              		.cfi_offset 4, -8
 2211              		.cfi_offset 14, -4
 2212 0002 0146     		mov	r1, r0
  83:lvgl/src/widgets/lv_btnmatrix.c ****     lv_obj_t * obj = lv_obj_class_create_obj(MY_CLASS, parent);
 2213              		.loc 1 83 5 is_stmt 1 view .LVU729
  83:lvgl/src/widgets/lv_btnmatrix.c ****     lv_obj_t * obj = lv_obj_class_create_obj(MY_CLASS, parent);
 2214              		.loc 1 83 5 view .LVU730
  83:lvgl/src/widgets/lv_btnmatrix.c ****     lv_obj_t * obj = lv_obj_class_create_obj(MY_CLASS, parent);
 2215              		.loc 1 83 5 view .LVU731
  84:lvgl/src/widgets/lv_btnmatrix.c ****     lv_obj_class_init_obj(obj);
 2216              		.loc 1 84 5 view .LVU732
  84:lvgl/src/widgets/lv_btnmatrix.c ****     lv_obj_class_init_obj(obj);
 2217              		.loc 1 84 22 is_stmt 0 view .LVU733
 2218 0004 0348     		ldr	r0, .L111
 2219              	.LVL191:
  84:lvgl/src/widgets/lv_btnmatrix.c ****     lv_obj_class_init_obj(obj);
 2220              		.loc 1 84 22 view .LVU734
 2221 0006 FFF7FEFF 		bl	lv_obj_class_create_obj
 2222              	.LVL192:
  84:lvgl/src/widgets/lv_btnmatrix.c ****     lv_obj_class_init_obj(obj);
 2223              		.loc 1 84 22 view .LVU735
 2224 000a 0446     		mov	r4, r0
 2225              	.LVL193:
  85:lvgl/src/widgets/lv_btnmatrix.c ****     return obj;
 2226              		.loc 1 85 5 is_stmt 1 view .LVU736
 2227 000c FFF7FEFF 		bl	lv_obj_class_init_obj
 2228              	.LVL194:
  86:lvgl/src/widgets/lv_btnmatrix.c **** }
 2229              		.loc 1 86 5 view .LVU737
  87:lvgl/src/widgets/lv_btnmatrix.c **** 
 2230              		.loc 1 87 1 is_stmt 0 view .LVU738
 2231 0010 2046     		mov	r0, r4
ARM GAS  /var/folders/21/t9g5rlb91ys800n5npymflf80000gn/T//ccSbQiFP.s 			page 74


 2232 0012 10BD     		pop	{r4, pc}
 2233              	.LVL195:
 2234              	.L112:
  87:lvgl/src/widgets/lv_btnmatrix.c **** 
 2235              		.loc 1 87 1 view .LVU739
 2236              		.align	2
 2237              	.L111:
 2238 0014 00000000 		.word	lv_btnmatrix_class
 2239              		.cfi_endproc
 2240              	.LFE161:
 2242              		.section	.text.lv_btnmatrix_set_map,"ax",%progbits
 2243              		.align	1
 2244              		.global	lv_btnmatrix_set_map
 2245              		.syntax unified
 2246              		.thumb
 2247              		.thumb_func
 2249              	lv_btnmatrix_set_map:
 2250              	.LVL196:
 2251              	.LFB162:
  94:lvgl/src/widgets/lv_btnmatrix.c ****     LV_ASSERT_OBJ(obj, MY_CLASS);
 2252              		.loc 1 94 1 is_stmt 1 view -0
 2253              		.cfi_startproc
 2254              		@ args = 0, pretend = 0, frame = 48
 2255              		@ frame_needed = 0, uses_anonymous_args = 0
  95:lvgl/src/widgets/lv_btnmatrix.c ****     if(map == NULL) return;
 2256              		.loc 1 95 5 view .LVU741
  95:lvgl/src/widgets/lv_btnmatrix.c ****     if(map == NULL) return;
 2257              		.loc 1 95 5 view .LVU742
  95:lvgl/src/widgets/lv_btnmatrix.c ****     if(map == NULL) return;
 2258              		.loc 1 95 5 view .LVU743
  96:lvgl/src/widgets/lv_btnmatrix.c **** 
 2259              		.loc 1 96 5 view .LVU744
  96:lvgl/src/widgets/lv_btnmatrix.c **** 
 2260              		.loc 1 96 7 is_stmt 0 view .LVU745
 2261 0000 0029     		cmp	r1, #0
 2262 0002 00F0EF80 		beq	.L128
  94:lvgl/src/widgets/lv_btnmatrix.c ****     LV_ASSERT_OBJ(obj, MY_CLASS);
 2263              		.loc 1 94 1 view .LVU746
 2264 0006 2DE9F04F 		push	{r4, r5, r6, r7, r8, r9, r10, fp, lr}
 2265              	.LCFI19:
 2266              		.cfi_def_cfa_offset 36
 2267              		.cfi_offset 4, -36
 2268              		.cfi_offset 5, -32
 2269              		.cfi_offset 6, -28
 2270              		.cfi_offset 7, -24
 2271              		.cfi_offset 8, -20
 2272              		.cfi_offset 9, -16
 2273              		.cfi_offset 10, -12
 2274              		.cfi_offset 11, -8
 2275              		.cfi_offset 14, -4
 2276 000a 8FB0     		sub	sp, sp, #60
 2277              	.LCFI20:
 2278              		.cfi_def_cfa_offset 96
 2279 000c 0746     		mov	r7, r0
 2280 000e 8A46     		mov	r10, r1
  98:lvgl/src/widgets/lv_btnmatrix.c **** 
 2281              		.loc 1 98 5 is_stmt 1 view .LVU747
ARM GAS  /var/folders/21/t9g5rlb91ys800n5npymflf80000gn/T//ccSbQiFP.s 			page 75


 2282              	.LVL197:
 101:lvgl/src/widgets/lv_btnmatrix.c ****     btnm->map_p = map;
 2283              		.loc 1 101 5 view .LVU748
 2284 0010 FFF7FEFF 		bl	allocate_btn_areas_and_controls
 2285              	.LVL198:
 102:lvgl/src/widgets/lv_btnmatrix.c **** 
 2286              		.loc 1 102 5 view .LVU749
 102:lvgl/src/widgets/lv_btnmatrix.c **** 
 2287              		.loc 1 102 17 is_stmt 0 view .LVU750
 2288 0014 C7F824A0 		str	r10, [r7, #36]
 104:lvgl/src/widgets/lv_btnmatrix.c **** 
 2289              		.loc 1 104 5 is_stmt 1 view .LVU751
 2290              	.LVL199:
 2291              	.LBB123:
 2292              	.LBI123:
 137:lvgl/src/widgets/../core/lv_obj_style_gen.h **** }
 138:lvgl/src/widgets/../core/lv_obj_style_gen.h **** 
 139:lvgl/src/widgets/../core/lv_obj_style_gen.h **** static inline lv_color_t lv_obj_get_style_bg_color(const struct _lv_obj_t * obj, uint32_t part)
 140:lvgl/src/widgets/../core/lv_obj_style_gen.h **** {
 141:lvgl/src/widgets/../core/lv_obj_style_gen.h ****     lv_style_value_t v = lv_obj_get_style_prop(obj, part, LV_STYLE_BG_COLOR);
 142:lvgl/src/widgets/../core/lv_obj_style_gen.h ****     return v.color;
 143:lvgl/src/widgets/../core/lv_obj_style_gen.h **** }
 144:lvgl/src/widgets/../core/lv_obj_style_gen.h **** 
 145:lvgl/src/widgets/../core/lv_obj_style_gen.h **** static inline lv_color_t lv_obj_get_style_bg_color_filtered(const struct _lv_obj_t * obj, uint32_t 
 146:lvgl/src/widgets/../core/lv_obj_style_gen.h **** {
 147:lvgl/src/widgets/../core/lv_obj_style_gen.h ****     lv_style_value_t v = _lv_obj_style_apply_color_filter(obj, part, lv_obj_get_style_prop(obj, par
 148:lvgl/src/widgets/../core/lv_obj_style_gen.h ****     return v.color;
 149:lvgl/src/widgets/../core/lv_obj_style_gen.h **** }
 150:lvgl/src/widgets/../core/lv_obj_style_gen.h **** 
 151:lvgl/src/widgets/../core/lv_obj_style_gen.h **** static inline lv_opa_t lv_obj_get_style_bg_opa(const struct _lv_obj_t * obj, uint32_t part)
 152:lvgl/src/widgets/../core/lv_obj_style_gen.h **** {
 153:lvgl/src/widgets/../core/lv_obj_style_gen.h ****     lv_style_value_t v = lv_obj_get_style_prop(obj, part, LV_STYLE_BG_OPA);
 154:lvgl/src/widgets/../core/lv_obj_style_gen.h ****     return (lv_opa_t)v.num;
 155:lvgl/src/widgets/../core/lv_obj_style_gen.h **** }
 156:lvgl/src/widgets/../core/lv_obj_style_gen.h **** 
 157:lvgl/src/widgets/../core/lv_obj_style_gen.h **** static inline lv_color_t lv_obj_get_style_bg_grad_color(const struct _lv_obj_t * obj, uint32_t part
 158:lvgl/src/widgets/../core/lv_obj_style_gen.h **** {
 159:lvgl/src/widgets/../core/lv_obj_style_gen.h ****     lv_style_value_t v = lv_obj_get_style_prop(obj, part, LV_STYLE_BG_GRAD_COLOR);
 160:lvgl/src/widgets/../core/lv_obj_style_gen.h ****     return v.color;
 161:lvgl/src/widgets/../core/lv_obj_style_gen.h **** }
 162:lvgl/src/widgets/../core/lv_obj_style_gen.h **** 
 163:lvgl/src/widgets/../core/lv_obj_style_gen.h **** static inline lv_color_t lv_obj_get_style_bg_grad_color_filtered(const struct _lv_obj_t * obj, uint
 164:lvgl/src/widgets/../core/lv_obj_style_gen.h **** {
 165:lvgl/src/widgets/../core/lv_obj_style_gen.h ****     lv_style_value_t v = _lv_obj_style_apply_color_filter(obj, part, lv_obj_get_style_prop(obj, par
 166:lvgl/src/widgets/../core/lv_obj_style_gen.h ****     return v.color;
 167:lvgl/src/widgets/../core/lv_obj_style_gen.h **** }
 168:lvgl/src/widgets/../core/lv_obj_style_gen.h **** 
 169:lvgl/src/widgets/../core/lv_obj_style_gen.h **** static inline lv_grad_dir_t lv_obj_get_style_bg_grad_dir(const struct _lv_obj_t * obj, uint32_t par
 170:lvgl/src/widgets/../core/lv_obj_style_gen.h **** {
 171:lvgl/src/widgets/../core/lv_obj_style_gen.h ****     lv_style_value_t v = lv_obj_get_style_prop(obj, part, LV_STYLE_BG_GRAD_DIR);
 172:lvgl/src/widgets/../core/lv_obj_style_gen.h ****     return (lv_grad_dir_t)v.num;
 173:lvgl/src/widgets/../core/lv_obj_style_gen.h **** }
 174:lvgl/src/widgets/../core/lv_obj_style_gen.h **** 
 175:lvgl/src/widgets/../core/lv_obj_style_gen.h **** static inline lv_coord_t lv_obj_get_style_bg_main_stop(const struct _lv_obj_t * obj, uint32_t part)
 176:lvgl/src/widgets/../core/lv_obj_style_gen.h **** {
 177:lvgl/src/widgets/../core/lv_obj_style_gen.h ****     lv_style_value_t v = lv_obj_get_style_prop(obj, part, LV_STYLE_BG_MAIN_STOP);
 178:lvgl/src/widgets/../core/lv_obj_style_gen.h ****     return (lv_coord_t)v.num;
ARM GAS  /var/folders/21/t9g5rlb91ys800n5npymflf80000gn/T//ccSbQiFP.s 			page 76


 179:lvgl/src/widgets/../core/lv_obj_style_gen.h **** }
 180:lvgl/src/widgets/../core/lv_obj_style_gen.h **** 
 181:lvgl/src/widgets/../core/lv_obj_style_gen.h **** static inline lv_coord_t lv_obj_get_style_bg_grad_stop(const struct _lv_obj_t * obj, uint32_t part)
 182:lvgl/src/widgets/../core/lv_obj_style_gen.h **** {
 183:lvgl/src/widgets/../core/lv_obj_style_gen.h ****     lv_style_value_t v = lv_obj_get_style_prop(obj, part, LV_STYLE_BG_GRAD_STOP);
 184:lvgl/src/widgets/../core/lv_obj_style_gen.h ****     return (lv_coord_t)v.num;
 185:lvgl/src/widgets/../core/lv_obj_style_gen.h **** }
 186:lvgl/src/widgets/../core/lv_obj_style_gen.h **** 
 187:lvgl/src/widgets/../core/lv_obj_style_gen.h **** static inline const lv_grad_dsc_t * lv_obj_get_style_bg_grad(const struct _lv_obj_t * obj, uint32_t
 188:lvgl/src/widgets/../core/lv_obj_style_gen.h **** {
 189:lvgl/src/widgets/../core/lv_obj_style_gen.h ****     lv_style_value_t v = lv_obj_get_style_prop(obj, part, LV_STYLE_BG_GRAD);
 190:lvgl/src/widgets/../core/lv_obj_style_gen.h ****     return (const lv_grad_dsc_t *)v.ptr;
 191:lvgl/src/widgets/../core/lv_obj_style_gen.h **** }
 192:lvgl/src/widgets/../core/lv_obj_style_gen.h **** 
 193:lvgl/src/widgets/../core/lv_obj_style_gen.h **** static inline lv_dither_mode_t lv_obj_get_style_bg_dither_mode(const struct _lv_obj_t * obj, uint32
 194:lvgl/src/widgets/../core/lv_obj_style_gen.h **** {
 195:lvgl/src/widgets/../core/lv_obj_style_gen.h ****     lv_style_value_t v = lv_obj_get_style_prop(obj, part, LV_STYLE_BG_DITHER_MODE);
 196:lvgl/src/widgets/../core/lv_obj_style_gen.h ****     return (lv_dither_mode_t)v.num;
 197:lvgl/src/widgets/../core/lv_obj_style_gen.h **** }
 198:lvgl/src/widgets/../core/lv_obj_style_gen.h **** 
 199:lvgl/src/widgets/../core/lv_obj_style_gen.h **** static inline const void * lv_obj_get_style_bg_img_src(const struct _lv_obj_t * obj, uint32_t part)
 200:lvgl/src/widgets/../core/lv_obj_style_gen.h **** {
 201:lvgl/src/widgets/../core/lv_obj_style_gen.h ****     lv_style_value_t v = lv_obj_get_style_prop(obj, part, LV_STYLE_BG_IMG_SRC);
 202:lvgl/src/widgets/../core/lv_obj_style_gen.h ****     return (const void *)v.ptr;
 203:lvgl/src/widgets/../core/lv_obj_style_gen.h **** }
 204:lvgl/src/widgets/../core/lv_obj_style_gen.h **** 
 205:lvgl/src/widgets/../core/lv_obj_style_gen.h **** static inline lv_opa_t lv_obj_get_style_bg_img_opa(const struct _lv_obj_t * obj, uint32_t part)
 206:lvgl/src/widgets/../core/lv_obj_style_gen.h **** {
 207:lvgl/src/widgets/../core/lv_obj_style_gen.h ****     lv_style_value_t v = lv_obj_get_style_prop(obj, part, LV_STYLE_BG_IMG_OPA);
 208:lvgl/src/widgets/../core/lv_obj_style_gen.h ****     return (lv_opa_t)v.num;
 209:lvgl/src/widgets/../core/lv_obj_style_gen.h **** }
 210:lvgl/src/widgets/../core/lv_obj_style_gen.h **** 
 211:lvgl/src/widgets/../core/lv_obj_style_gen.h **** static inline lv_color_t lv_obj_get_style_bg_img_recolor(const struct _lv_obj_t * obj, uint32_t par
 212:lvgl/src/widgets/../core/lv_obj_style_gen.h **** {
 213:lvgl/src/widgets/../core/lv_obj_style_gen.h ****     lv_style_value_t v = lv_obj_get_style_prop(obj, part, LV_STYLE_BG_IMG_RECOLOR);
 214:lvgl/src/widgets/../core/lv_obj_style_gen.h ****     return v.color;
 215:lvgl/src/widgets/../core/lv_obj_style_gen.h **** }
 216:lvgl/src/widgets/../core/lv_obj_style_gen.h **** 
 217:lvgl/src/widgets/../core/lv_obj_style_gen.h **** static inline lv_color_t lv_obj_get_style_bg_img_recolor_filtered(const struct _lv_obj_t * obj, uin
 218:lvgl/src/widgets/../core/lv_obj_style_gen.h **** {
 219:lvgl/src/widgets/../core/lv_obj_style_gen.h ****     lv_style_value_t v = _lv_obj_style_apply_color_filter(obj, part, lv_obj_get_style_prop(obj, par
 220:lvgl/src/widgets/../core/lv_obj_style_gen.h ****     return v.color;
 221:lvgl/src/widgets/../core/lv_obj_style_gen.h **** }
 222:lvgl/src/widgets/../core/lv_obj_style_gen.h **** 
 223:lvgl/src/widgets/../core/lv_obj_style_gen.h **** static inline lv_opa_t lv_obj_get_style_bg_img_recolor_opa(const struct _lv_obj_t * obj, uint32_t p
 224:lvgl/src/widgets/../core/lv_obj_style_gen.h **** {
 225:lvgl/src/widgets/../core/lv_obj_style_gen.h ****     lv_style_value_t v = lv_obj_get_style_prop(obj, part, LV_STYLE_BG_IMG_RECOLOR_OPA);
 226:lvgl/src/widgets/../core/lv_obj_style_gen.h ****     return (lv_opa_t)v.num;
 227:lvgl/src/widgets/../core/lv_obj_style_gen.h **** }
 228:lvgl/src/widgets/../core/lv_obj_style_gen.h **** 
 229:lvgl/src/widgets/../core/lv_obj_style_gen.h **** static inline bool lv_obj_get_style_bg_img_tiled(const struct _lv_obj_t * obj, uint32_t part)
 230:lvgl/src/widgets/../core/lv_obj_style_gen.h **** {
 231:lvgl/src/widgets/../core/lv_obj_style_gen.h ****     lv_style_value_t v = lv_obj_get_style_prop(obj, part, LV_STYLE_BG_IMG_TILED);
 232:lvgl/src/widgets/../core/lv_obj_style_gen.h ****     return (bool)v.num;
 233:lvgl/src/widgets/../core/lv_obj_style_gen.h **** }
 234:lvgl/src/widgets/../core/lv_obj_style_gen.h **** 
 235:lvgl/src/widgets/../core/lv_obj_style_gen.h **** static inline lv_color_t lv_obj_get_style_border_color(const struct _lv_obj_t * obj, uint32_t part)
ARM GAS  /var/folders/21/t9g5rlb91ys800n5npymflf80000gn/T//ccSbQiFP.s 			page 77


 236:lvgl/src/widgets/../core/lv_obj_style_gen.h **** {
 237:lvgl/src/widgets/../core/lv_obj_style_gen.h ****     lv_style_value_t v = lv_obj_get_style_prop(obj, part, LV_STYLE_BORDER_COLOR);
 238:lvgl/src/widgets/../core/lv_obj_style_gen.h ****     return v.color;
 239:lvgl/src/widgets/../core/lv_obj_style_gen.h **** }
 240:lvgl/src/widgets/../core/lv_obj_style_gen.h **** 
 241:lvgl/src/widgets/../core/lv_obj_style_gen.h **** static inline lv_color_t lv_obj_get_style_border_color_filtered(const struct _lv_obj_t * obj, uint3
 242:lvgl/src/widgets/../core/lv_obj_style_gen.h **** {
 243:lvgl/src/widgets/../core/lv_obj_style_gen.h ****     lv_style_value_t v = _lv_obj_style_apply_color_filter(obj, part, lv_obj_get_style_prop(obj, par
 244:lvgl/src/widgets/../core/lv_obj_style_gen.h ****     return v.color;
 245:lvgl/src/widgets/../core/lv_obj_style_gen.h **** }
 246:lvgl/src/widgets/../core/lv_obj_style_gen.h **** 
 247:lvgl/src/widgets/../core/lv_obj_style_gen.h **** static inline lv_opa_t lv_obj_get_style_border_opa(const struct _lv_obj_t * obj, uint32_t part)
 248:lvgl/src/widgets/../core/lv_obj_style_gen.h **** {
 249:lvgl/src/widgets/../core/lv_obj_style_gen.h ****     lv_style_value_t v = lv_obj_get_style_prop(obj, part, LV_STYLE_BORDER_OPA);
 250:lvgl/src/widgets/../core/lv_obj_style_gen.h ****     return (lv_opa_t)v.num;
 251:lvgl/src/widgets/../core/lv_obj_style_gen.h **** }
 252:lvgl/src/widgets/../core/lv_obj_style_gen.h **** 
 253:lvgl/src/widgets/../core/lv_obj_style_gen.h **** static inline lv_coord_t lv_obj_get_style_border_width(const struct _lv_obj_t * obj, uint32_t part)
 254:lvgl/src/widgets/../core/lv_obj_style_gen.h **** {
 255:lvgl/src/widgets/../core/lv_obj_style_gen.h ****     lv_style_value_t v = lv_obj_get_style_prop(obj, part, LV_STYLE_BORDER_WIDTH);
 256:lvgl/src/widgets/../core/lv_obj_style_gen.h ****     return (lv_coord_t)v.num;
 257:lvgl/src/widgets/../core/lv_obj_style_gen.h **** }
 258:lvgl/src/widgets/../core/lv_obj_style_gen.h **** 
 259:lvgl/src/widgets/../core/lv_obj_style_gen.h **** static inline lv_border_side_t lv_obj_get_style_border_side(const struct _lv_obj_t * obj, uint32_t 
 260:lvgl/src/widgets/../core/lv_obj_style_gen.h **** {
 261:lvgl/src/widgets/../core/lv_obj_style_gen.h ****     lv_style_value_t v = lv_obj_get_style_prop(obj, part, LV_STYLE_BORDER_SIDE);
 262:lvgl/src/widgets/../core/lv_obj_style_gen.h ****     return (lv_border_side_t)v.num;
 263:lvgl/src/widgets/../core/lv_obj_style_gen.h **** }
 264:lvgl/src/widgets/../core/lv_obj_style_gen.h **** 
 265:lvgl/src/widgets/../core/lv_obj_style_gen.h **** static inline bool lv_obj_get_style_border_post(const struct _lv_obj_t * obj, uint32_t part)
 266:lvgl/src/widgets/../core/lv_obj_style_gen.h **** {
 267:lvgl/src/widgets/../core/lv_obj_style_gen.h ****     lv_style_value_t v = lv_obj_get_style_prop(obj, part, LV_STYLE_BORDER_POST);
 268:lvgl/src/widgets/../core/lv_obj_style_gen.h ****     return (bool)v.num;
 269:lvgl/src/widgets/../core/lv_obj_style_gen.h **** }
 270:lvgl/src/widgets/../core/lv_obj_style_gen.h **** 
 271:lvgl/src/widgets/../core/lv_obj_style_gen.h **** static inline lv_coord_t lv_obj_get_style_outline_width(const struct _lv_obj_t * obj, uint32_t part
 272:lvgl/src/widgets/../core/lv_obj_style_gen.h **** {
 273:lvgl/src/widgets/../core/lv_obj_style_gen.h ****     lv_style_value_t v = lv_obj_get_style_prop(obj, part, LV_STYLE_OUTLINE_WIDTH);
 274:lvgl/src/widgets/../core/lv_obj_style_gen.h ****     return (lv_coord_t)v.num;
 275:lvgl/src/widgets/../core/lv_obj_style_gen.h **** }
 276:lvgl/src/widgets/../core/lv_obj_style_gen.h **** 
 277:lvgl/src/widgets/../core/lv_obj_style_gen.h **** static inline lv_color_t lv_obj_get_style_outline_color(const struct _lv_obj_t * obj, uint32_t part
 278:lvgl/src/widgets/../core/lv_obj_style_gen.h **** {
 279:lvgl/src/widgets/../core/lv_obj_style_gen.h ****     lv_style_value_t v = lv_obj_get_style_prop(obj, part, LV_STYLE_OUTLINE_COLOR);
 280:lvgl/src/widgets/../core/lv_obj_style_gen.h ****     return v.color;
 281:lvgl/src/widgets/../core/lv_obj_style_gen.h **** }
 282:lvgl/src/widgets/../core/lv_obj_style_gen.h **** 
 283:lvgl/src/widgets/../core/lv_obj_style_gen.h **** static inline lv_color_t lv_obj_get_style_outline_color_filtered(const struct _lv_obj_t * obj, uint
 284:lvgl/src/widgets/../core/lv_obj_style_gen.h **** {
 285:lvgl/src/widgets/../core/lv_obj_style_gen.h ****     lv_style_value_t v = _lv_obj_style_apply_color_filter(obj, part, lv_obj_get_style_prop(obj, par
 286:lvgl/src/widgets/../core/lv_obj_style_gen.h ****     return v.color;
 287:lvgl/src/widgets/../core/lv_obj_style_gen.h **** }
 288:lvgl/src/widgets/../core/lv_obj_style_gen.h **** 
 289:lvgl/src/widgets/../core/lv_obj_style_gen.h **** static inline lv_opa_t lv_obj_get_style_outline_opa(const struct _lv_obj_t * obj, uint32_t part)
 290:lvgl/src/widgets/../core/lv_obj_style_gen.h **** {
 291:lvgl/src/widgets/../core/lv_obj_style_gen.h ****     lv_style_value_t v = lv_obj_get_style_prop(obj, part, LV_STYLE_OUTLINE_OPA);
 292:lvgl/src/widgets/../core/lv_obj_style_gen.h ****     return (lv_opa_t)v.num;
ARM GAS  /var/folders/21/t9g5rlb91ys800n5npymflf80000gn/T//ccSbQiFP.s 			page 78


 293:lvgl/src/widgets/../core/lv_obj_style_gen.h **** }
 294:lvgl/src/widgets/../core/lv_obj_style_gen.h **** 
 295:lvgl/src/widgets/../core/lv_obj_style_gen.h **** static inline lv_coord_t lv_obj_get_style_outline_pad(const struct _lv_obj_t * obj, uint32_t part)
 296:lvgl/src/widgets/../core/lv_obj_style_gen.h **** {
 297:lvgl/src/widgets/../core/lv_obj_style_gen.h ****     lv_style_value_t v = lv_obj_get_style_prop(obj, part, LV_STYLE_OUTLINE_PAD);
 298:lvgl/src/widgets/../core/lv_obj_style_gen.h ****     return (lv_coord_t)v.num;
 299:lvgl/src/widgets/../core/lv_obj_style_gen.h **** }
 300:lvgl/src/widgets/../core/lv_obj_style_gen.h **** 
 301:lvgl/src/widgets/../core/lv_obj_style_gen.h **** static inline lv_coord_t lv_obj_get_style_shadow_width(const struct _lv_obj_t * obj, uint32_t part)
 302:lvgl/src/widgets/../core/lv_obj_style_gen.h **** {
 303:lvgl/src/widgets/../core/lv_obj_style_gen.h ****     lv_style_value_t v = lv_obj_get_style_prop(obj, part, LV_STYLE_SHADOW_WIDTH);
 304:lvgl/src/widgets/../core/lv_obj_style_gen.h ****     return (lv_coord_t)v.num;
 305:lvgl/src/widgets/../core/lv_obj_style_gen.h **** }
 306:lvgl/src/widgets/../core/lv_obj_style_gen.h **** 
 307:lvgl/src/widgets/../core/lv_obj_style_gen.h **** static inline lv_coord_t lv_obj_get_style_shadow_ofs_x(const struct _lv_obj_t * obj, uint32_t part)
 308:lvgl/src/widgets/../core/lv_obj_style_gen.h **** {
 309:lvgl/src/widgets/../core/lv_obj_style_gen.h ****     lv_style_value_t v = lv_obj_get_style_prop(obj, part, LV_STYLE_SHADOW_OFS_X);
 310:lvgl/src/widgets/../core/lv_obj_style_gen.h ****     return (lv_coord_t)v.num;
 311:lvgl/src/widgets/../core/lv_obj_style_gen.h **** }
 312:lvgl/src/widgets/../core/lv_obj_style_gen.h **** 
 313:lvgl/src/widgets/../core/lv_obj_style_gen.h **** static inline lv_coord_t lv_obj_get_style_shadow_ofs_y(const struct _lv_obj_t * obj, uint32_t part)
 314:lvgl/src/widgets/../core/lv_obj_style_gen.h **** {
 315:lvgl/src/widgets/../core/lv_obj_style_gen.h ****     lv_style_value_t v = lv_obj_get_style_prop(obj, part, LV_STYLE_SHADOW_OFS_Y);
 316:lvgl/src/widgets/../core/lv_obj_style_gen.h ****     return (lv_coord_t)v.num;
 317:lvgl/src/widgets/../core/lv_obj_style_gen.h **** }
 318:lvgl/src/widgets/../core/lv_obj_style_gen.h **** 
 319:lvgl/src/widgets/../core/lv_obj_style_gen.h **** static inline lv_coord_t lv_obj_get_style_shadow_spread(const struct _lv_obj_t * obj, uint32_t part
 320:lvgl/src/widgets/../core/lv_obj_style_gen.h **** {
 321:lvgl/src/widgets/../core/lv_obj_style_gen.h ****     lv_style_value_t v = lv_obj_get_style_prop(obj, part, LV_STYLE_SHADOW_SPREAD);
 322:lvgl/src/widgets/../core/lv_obj_style_gen.h ****     return (lv_coord_t)v.num;
 323:lvgl/src/widgets/../core/lv_obj_style_gen.h **** }
 324:lvgl/src/widgets/../core/lv_obj_style_gen.h **** 
 325:lvgl/src/widgets/../core/lv_obj_style_gen.h **** static inline lv_color_t lv_obj_get_style_shadow_color(const struct _lv_obj_t * obj, uint32_t part)
 326:lvgl/src/widgets/../core/lv_obj_style_gen.h **** {
 327:lvgl/src/widgets/../core/lv_obj_style_gen.h ****     lv_style_value_t v = lv_obj_get_style_prop(obj, part, LV_STYLE_SHADOW_COLOR);
 328:lvgl/src/widgets/../core/lv_obj_style_gen.h ****     return v.color;
 329:lvgl/src/widgets/../core/lv_obj_style_gen.h **** }
 330:lvgl/src/widgets/../core/lv_obj_style_gen.h **** 
 331:lvgl/src/widgets/../core/lv_obj_style_gen.h **** static inline lv_color_t lv_obj_get_style_shadow_color_filtered(const struct _lv_obj_t * obj, uint3
 332:lvgl/src/widgets/../core/lv_obj_style_gen.h **** {
 333:lvgl/src/widgets/../core/lv_obj_style_gen.h ****     lv_style_value_t v = _lv_obj_style_apply_color_filter(obj, part, lv_obj_get_style_prop(obj, par
 334:lvgl/src/widgets/../core/lv_obj_style_gen.h ****     return v.color;
 335:lvgl/src/widgets/../core/lv_obj_style_gen.h **** }
 336:lvgl/src/widgets/../core/lv_obj_style_gen.h **** 
 337:lvgl/src/widgets/../core/lv_obj_style_gen.h **** static inline lv_opa_t lv_obj_get_style_shadow_opa(const struct _lv_obj_t * obj, uint32_t part)
 338:lvgl/src/widgets/../core/lv_obj_style_gen.h **** {
 339:lvgl/src/widgets/../core/lv_obj_style_gen.h ****     lv_style_value_t v = lv_obj_get_style_prop(obj, part, LV_STYLE_SHADOW_OPA);
 340:lvgl/src/widgets/../core/lv_obj_style_gen.h ****     return (lv_opa_t)v.num;
 341:lvgl/src/widgets/../core/lv_obj_style_gen.h **** }
 342:lvgl/src/widgets/../core/lv_obj_style_gen.h **** 
 343:lvgl/src/widgets/../core/lv_obj_style_gen.h **** static inline lv_opa_t lv_obj_get_style_img_opa(const struct _lv_obj_t * obj, uint32_t part)
 344:lvgl/src/widgets/../core/lv_obj_style_gen.h **** {
 345:lvgl/src/widgets/../core/lv_obj_style_gen.h ****     lv_style_value_t v = lv_obj_get_style_prop(obj, part, LV_STYLE_IMG_OPA);
 346:lvgl/src/widgets/../core/lv_obj_style_gen.h ****     return (lv_opa_t)v.num;
 347:lvgl/src/widgets/../core/lv_obj_style_gen.h **** }
 348:lvgl/src/widgets/../core/lv_obj_style_gen.h **** 
 349:lvgl/src/widgets/../core/lv_obj_style_gen.h **** static inline lv_color_t lv_obj_get_style_img_recolor(const struct _lv_obj_t * obj, uint32_t part)
ARM GAS  /var/folders/21/t9g5rlb91ys800n5npymflf80000gn/T//ccSbQiFP.s 			page 79


 350:lvgl/src/widgets/../core/lv_obj_style_gen.h **** {
 351:lvgl/src/widgets/../core/lv_obj_style_gen.h ****     lv_style_value_t v = lv_obj_get_style_prop(obj, part, LV_STYLE_IMG_RECOLOR);
 352:lvgl/src/widgets/../core/lv_obj_style_gen.h ****     return v.color;
 353:lvgl/src/widgets/../core/lv_obj_style_gen.h **** }
 354:lvgl/src/widgets/../core/lv_obj_style_gen.h **** 
 355:lvgl/src/widgets/../core/lv_obj_style_gen.h **** static inline lv_color_t lv_obj_get_style_img_recolor_filtered(const struct _lv_obj_t * obj, uint32
 356:lvgl/src/widgets/../core/lv_obj_style_gen.h **** {
 357:lvgl/src/widgets/../core/lv_obj_style_gen.h ****     lv_style_value_t v = _lv_obj_style_apply_color_filter(obj, part, lv_obj_get_style_prop(obj, par
 358:lvgl/src/widgets/../core/lv_obj_style_gen.h ****     return v.color;
 359:lvgl/src/widgets/../core/lv_obj_style_gen.h **** }
 360:lvgl/src/widgets/../core/lv_obj_style_gen.h **** 
 361:lvgl/src/widgets/../core/lv_obj_style_gen.h **** static inline lv_opa_t lv_obj_get_style_img_recolor_opa(const struct _lv_obj_t * obj, uint32_t part
 362:lvgl/src/widgets/../core/lv_obj_style_gen.h **** {
 363:lvgl/src/widgets/../core/lv_obj_style_gen.h ****     lv_style_value_t v = lv_obj_get_style_prop(obj, part, LV_STYLE_IMG_RECOLOR_OPA);
 364:lvgl/src/widgets/../core/lv_obj_style_gen.h ****     return (lv_opa_t)v.num;
 365:lvgl/src/widgets/../core/lv_obj_style_gen.h **** }
 366:lvgl/src/widgets/../core/lv_obj_style_gen.h **** 
 367:lvgl/src/widgets/../core/lv_obj_style_gen.h **** static inline lv_coord_t lv_obj_get_style_line_width(const struct _lv_obj_t * obj, uint32_t part)
 368:lvgl/src/widgets/../core/lv_obj_style_gen.h **** {
 369:lvgl/src/widgets/../core/lv_obj_style_gen.h ****     lv_style_value_t v = lv_obj_get_style_prop(obj, part, LV_STYLE_LINE_WIDTH);
 370:lvgl/src/widgets/../core/lv_obj_style_gen.h ****     return (lv_coord_t)v.num;
 371:lvgl/src/widgets/../core/lv_obj_style_gen.h **** }
 372:lvgl/src/widgets/../core/lv_obj_style_gen.h **** 
 373:lvgl/src/widgets/../core/lv_obj_style_gen.h **** static inline lv_coord_t lv_obj_get_style_line_dash_width(const struct _lv_obj_t * obj, uint32_t pa
 374:lvgl/src/widgets/../core/lv_obj_style_gen.h **** {
 375:lvgl/src/widgets/../core/lv_obj_style_gen.h ****     lv_style_value_t v = lv_obj_get_style_prop(obj, part, LV_STYLE_LINE_DASH_WIDTH);
 376:lvgl/src/widgets/../core/lv_obj_style_gen.h ****     return (lv_coord_t)v.num;
 377:lvgl/src/widgets/../core/lv_obj_style_gen.h **** }
 378:lvgl/src/widgets/../core/lv_obj_style_gen.h **** 
 379:lvgl/src/widgets/../core/lv_obj_style_gen.h **** static inline lv_coord_t lv_obj_get_style_line_dash_gap(const struct _lv_obj_t * obj, uint32_t part
 380:lvgl/src/widgets/../core/lv_obj_style_gen.h **** {
 381:lvgl/src/widgets/../core/lv_obj_style_gen.h ****     lv_style_value_t v = lv_obj_get_style_prop(obj, part, LV_STYLE_LINE_DASH_GAP);
 382:lvgl/src/widgets/../core/lv_obj_style_gen.h ****     return (lv_coord_t)v.num;
 383:lvgl/src/widgets/../core/lv_obj_style_gen.h **** }
 384:lvgl/src/widgets/../core/lv_obj_style_gen.h **** 
 385:lvgl/src/widgets/../core/lv_obj_style_gen.h **** static inline bool lv_obj_get_style_line_rounded(const struct _lv_obj_t * obj, uint32_t part)
 386:lvgl/src/widgets/../core/lv_obj_style_gen.h **** {
 387:lvgl/src/widgets/../core/lv_obj_style_gen.h ****     lv_style_value_t v = lv_obj_get_style_prop(obj, part, LV_STYLE_LINE_ROUNDED);
 388:lvgl/src/widgets/../core/lv_obj_style_gen.h ****     return (bool)v.num;
 389:lvgl/src/widgets/../core/lv_obj_style_gen.h **** }
 390:lvgl/src/widgets/../core/lv_obj_style_gen.h **** 
 391:lvgl/src/widgets/../core/lv_obj_style_gen.h **** static inline lv_color_t lv_obj_get_style_line_color(const struct _lv_obj_t * obj, uint32_t part)
 392:lvgl/src/widgets/../core/lv_obj_style_gen.h **** {
 393:lvgl/src/widgets/../core/lv_obj_style_gen.h ****     lv_style_value_t v = lv_obj_get_style_prop(obj, part, LV_STYLE_LINE_COLOR);
 394:lvgl/src/widgets/../core/lv_obj_style_gen.h ****     return v.color;
 395:lvgl/src/widgets/../core/lv_obj_style_gen.h **** }
 396:lvgl/src/widgets/../core/lv_obj_style_gen.h **** 
 397:lvgl/src/widgets/../core/lv_obj_style_gen.h **** static inline lv_color_t lv_obj_get_style_line_color_filtered(const struct _lv_obj_t * obj, uint32_
 398:lvgl/src/widgets/../core/lv_obj_style_gen.h **** {
 399:lvgl/src/widgets/../core/lv_obj_style_gen.h ****     lv_style_value_t v = _lv_obj_style_apply_color_filter(obj, part, lv_obj_get_style_prop(obj, par
 400:lvgl/src/widgets/../core/lv_obj_style_gen.h ****     return v.color;
 401:lvgl/src/widgets/../core/lv_obj_style_gen.h **** }
 402:lvgl/src/widgets/../core/lv_obj_style_gen.h **** 
 403:lvgl/src/widgets/../core/lv_obj_style_gen.h **** static inline lv_opa_t lv_obj_get_style_line_opa(const struct _lv_obj_t * obj, uint32_t part)
 404:lvgl/src/widgets/../core/lv_obj_style_gen.h **** {
 405:lvgl/src/widgets/../core/lv_obj_style_gen.h ****     lv_style_value_t v = lv_obj_get_style_prop(obj, part, LV_STYLE_LINE_OPA);
 406:lvgl/src/widgets/../core/lv_obj_style_gen.h ****     return (lv_opa_t)v.num;
ARM GAS  /var/folders/21/t9g5rlb91ys800n5npymflf80000gn/T//ccSbQiFP.s 			page 80


 407:lvgl/src/widgets/../core/lv_obj_style_gen.h **** }
 408:lvgl/src/widgets/../core/lv_obj_style_gen.h **** 
 409:lvgl/src/widgets/../core/lv_obj_style_gen.h **** static inline lv_coord_t lv_obj_get_style_arc_width(const struct _lv_obj_t * obj, uint32_t part)
 410:lvgl/src/widgets/../core/lv_obj_style_gen.h **** {
 411:lvgl/src/widgets/../core/lv_obj_style_gen.h ****     lv_style_value_t v = lv_obj_get_style_prop(obj, part, LV_STYLE_ARC_WIDTH);
 412:lvgl/src/widgets/../core/lv_obj_style_gen.h ****     return (lv_coord_t)v.num;
 413:lvgl/src/widgets/../core/lv_obj_style_gen.h **** }
 414:lvgl/src/widgets/../core/lv_obj_style_gen.h **** 
 415:lvgl/src/widgets/../core/lv_obj_style_gen.h **** static inline bool lv_obj_get_style_arc_rounded(const struct _lv_obj_t * obj, uint32_t part)
 416:lvgl/src/widgets/../core/lv_obj_style_gen.h **** {
 417:lvgl/src/widgets/../core/lv_obj_style_gen.h ****     lv_style_value_t v = lv_obj_get_style_prop(obj, part, LV_STYLE_ARC_ROUNDED);
 418:lvgl/src/widgets/../core/lv_obj_style_gen.h ****     return (bool)v.num;
 419:lvgl/src/widgets/../core/lv_obj_style_gen.h **** }
 420:lvgl/src/widgets/../core/lv_obj_style_gen.h **** 
 421:lvgl/src/widgets/../core/lv_obj_style_gen.h **** static inline lv_color_t lv_obj_get_style_arc_color(const struct _lv_obj_t * obj, uint32_t part)
 422:lvgl/src/widgets/../core/lv_obj_style_gen.h **** {
 423:lvgl/src/widgets/../core/lv_obj_style_gen.h ****     lv_style_value_t v = lv_obj_get_style_prop(obj, part, LV_STYLE_ARC_COLOR);
 424:lvgl/src/widgets/../core/lv_obj_style_gen.h ****     return v.color;
 425:lvgl/src/widgets/../core/lv_obj_style_gen.h **** }
 426:lvgl/src/widgets/../core/lv_obj_style_gen.h **** 
 427:lvgl/src/widgets/../core/lv_obj_style_gen.h **** static inline lv_color_t lv_obj_get_style_arc_color_filtered(const struct _lv_obj_t * obj, uint32_t
 428:lvgl/src/widgets/../core/lv_obj_style_gen.h **** {
 429:lvgl/src/widgets/../core/lv_obj_style_gen.h ****     lv_style_value_t v = _lv_obj_style_apply_color_filter(obj, part, lv_obj_get_style_prop(obj, par
 430:lvgl/src/widgets/../core/lv_obj_style_gen.h ****     return v.color;
 431:lvgl/src/widgets/../core/lv_obj_style_gen.h **** }
 432:lvgl/src/widgets/../core/lv_obj_style_gen.h **** 
 433:lvgl/src/widgets/../core/lv_obj_style_gen.h **** static inline lv_opa_t lv_obj_get_style_arc_opa(const struct _lv_obj_t * obj, uint32_t part)
 434:lvgl/src/widgets/../core/lv_obj_style_gen.h **** {
 435:lvgl/src/widgets/../core/lv_obj_style_gen.h ****     lv_style_value_t v = lv_obj_get_style_prop(obj, part, LV_STYLE_ARC_OPA);
 436:lvgl/src/widgets/../core/lv_obj_style_gen.h ****     return (lv_opa_t)v.num;
 437:lvgl/src/widgets/../core/lv_obj_style_gen.h **** }
 438:lvgl/src/widgets/../core/lv_obj_style_gen.h **** 
 439:lvgl/src/widgets/../core/lv_obj_style_gen.h **** static inline const void * lv_obj_get_style_arc_img_src(const struct _lv_obj_t * obj, uint32_t part
 440:lvgl/src/widgets/../core/lv_obj_style_gen.h **** {
 441:lvgl/src/widgets/../core/lv_obj_style_gen.h ****     lv_style_value_t v = lv_obj_get_style_prop(obj, part, LV_STYLE_ARC_IMG_SRC);
 442:lvgl/src/widgets/../core/lv_obj_style_gen.h ****     return (const void *)v.ptr;
 443:lvgl/src/widgets/../core/lv_obj_style_gen.h **** }
 444:lvgl/src/widgets/../core/lv_obj_style_gen.h **** 
 445:lvgl/src/widgets/../core/lv_obj_style_gen.h **** static inline lv_color_t lv_obj_get_style_text_color(const struct _lv_obj_t * obj, uint32_t part)
 446:lvgl/src/widgets/../core/lv_obj_style_gen.h **** {
 447:lvgl/src/widgets/../core/lv_obj_style_gen.h ****     lv_style_value_t v = lv_obj_get_style_prop(obj, part, LV_STYLE_TEXT_COLOR);
 448:lvgl/src/widgets/../core/lv_obj_style_gen.h ****     return v.color;
 449:lvgl/src/widgets/../core/lv_obj_style_gen.h **** }
 450:lvgl/src/widgets/../core/lv_obj_style_gen.h **** 
 451:lvgl/src/widgets/../core/lv_obj_style_gen.h **** static inline lv_color_t lv_obj_get_style_text_color_filtered(const struct _lv_obj_t * obj, uint32_
 452:lvgl/src/widgets/../core/lv_obj_style_gen.h **** {
 453:lvgl/src/widgets/../core/lv_obj_style_gen.h ****     lv_style_value_t v = _lv_obj_style_apply_color_filter(obj, part, lv_obj_get_style_prop(obj, par
 454:lvgl/src/widgets/../core/lv_obj_style_gen.h ****     return v.color;
 455:lvgl/src/widgets/../core/lv_obj_style_gen.h **** }
 456:lvgl/src/widgets/../core/lv_obj_style_gen.h **** 
 457:lvgl/src/widgets/../core/lv_obj_style_gen.h **** static inline lv_opa_t lv_obj_get_style_text_opa(const struct _lv_obj_t * obj, uint32_t part)
 458:lvgl/src/widgets/../core/lv_obj_style_gen.h **** {
 459:lvgl/src/widgets/../core/lv_obj_style_gen.h ****     lv_style_value_t v = lv_obj_get_style_prop(obj, part, LV_STYLE_TEXT_OPA);
 460:lvgl/src/widgets/../core/lv_obj_style_gen.h ****     return (lv_opa_t)v.num;
 461:lvgl/src/widgets/../core/lv_obj_style_gen.h **** }
 462:lvgl/src/widgets/../core/lv_obj_style_gen.h **** 
 463:lvgl/src/widgets/../core/lv_obj_style_gen.h **** static inline const lv_font_t * lv_obj_get_style_text_font(const struct _lv_obj_t * obj, uint32_t p
ARM GAS  /var/folders/21/t9g5rlb91ys800n5npymflf80000gn/T//ccSbQiFP.s 			page 81


 464:lvgl/src/widgets/../core/lv_obj_style_gen.h **** {
 465:lvgl/src/widgets/../core/lv_obj_style_gen.h ****     lv_style_value_t v = lv_obj_get_style_prop(obj, part, LV_STYLE_TEXT_FONT);
 466:lvgl/src/widgets/../core/lv_obj_style_gen.h ****     return (const lv_font_t *)v.ptr;
 467:lvgl/src/widgets/../core/lv_obj_style_gen.h **** }
 468:lvgl/src/widgets/../core/lv_obj_style_gen.h **** 
 469:lvgl/src/widgets/../core/lv_obj_style_gen.h **** static inline lv_coord_t lv_obj_get_style_text_letter_space(const struct _lv_obj_t * obj, uint32_t 
 470:lvgl/src/widgets/../core/lv_obj_style_gen.h **** {
 471:lvgl/src/widgets/../core/lv_obj_style_gen.h ****     lv_style_value_t v = lv_obj_get_style_prop(obj, part, LV_STYLE_TEXT_LETTER_SPACE);
 472:lvgl/src/widgets/../core/lv_obj_style_gen.h ****     return (lv_coord_t)v.num;
 473:lvgl/src/widgets/../core/lv_obj_style_gen.h **** }
 474:lvgl/src/widgets/../core/lv_obj_style_gen.h **** 
 475:lvgl/src/widgets/../core/lv_obj_style_gen.h **** static inline lv_coord_t lv_obj_get_style_text_line_space(const struct _lv_obj_t * obj, uint32_t pa
 476:lvgl/src/widgets/../core/lv_obj_style_gen.h **** {
 477:lvgl/src/widgets/../core/lv_obj_style_gen.h ****     lv_style_value_t v = lv_obj_get_style_prop(obj, part, LV_STYLE_TEXT_LINE_SPACE);
 478:lvgl/src/widgets/../core/lv_obj_style_gen.h ****     return (lv_coord_t)v.num;
 479:lvgl/src/widgets/../core/lv_obj_style_gen.h **** }
 480:lvgl/src/widgets/../core/lv_obj_style_gen.h **** 
 481:lvgl/src/widgets/../core/lv_obj_style_gen.h **** static inline lv_text_decor_t lv_obj_get_style_text_decor(const struct _lv_obj_t * obj, uint32_t pa
 482:lvgl/src/widgets/../core/lv_obj_style_gen.h **** {
 483:lvgl/src/widgets/../core/lv_obj_style_gen.h ****     lv_style_value_t v = lv_obj_get_style_prop(obj, part, LV_STYLE_TEXT_DECOR);
 484:lvgl/src/widgets/../core/lv_obj_style_gen.h ****     return (lv_text_decor_t)v.num;
 485:lvgl/src/widgets/../core/lv_obj_style_gen.h **** }
 486:lvgl/src/widgets/../core/lv_obj_style_gen.h **** 
 487:lvgl/src/widgets/../core/lv_obj_style_gen.h **** static inline lv_text_align_t lv_obj_get_style_text_align(const struct _lv_obj_t * obj, uint32_t pa
 488:lvgl/src/widgets/../core/lv_obj_style_gen.h **** {
 489:lvgl/src/widgets/../core/lv_obj_style_gen.h ****     lv_style_value_t v = lv_obj_get_style_prop(obj, part, LV_STYLE_TEXT_ALIGN);
 490:lvgl/src/widgets/../core/lv_obj_style_gen.h ****     return (lv_text_align_t)v.num;
 491:lvgl/src/widgets/../core/lv_obj_style_gen.h **** }
 492:lvgl/src/widgets/../core/lv_obj_style_gen.h **** 
 493:lvgl/src/widgets/../core/lv_obj_style_gen.h **** static inline lv_coord_t lv_obj_get_style_radius(const struct _lv_obj_t * obj, uint32_t part)
 494:lvgl/src/widgets/../core/lv_obj_style_gen.h **** {
 495:lvgl/src/widgets/../core/lv_obj_style_gen.h ****     lv_style_value_t v = lv_obj_get_style_prop(obj, part, LV_STYLE_RADIUS);
 496:lvgl/src/widgets/../core/lv_obj_style_gen.h ****     return (lv_coord_t)v.num;
 497:lvgl/src/widgets/../core/lv_obj_style_gen.h **** }
 498:lvgl/src/widgets/../core/lv_obj_style_gen.h **** 
 499:lvgl/src/widgets/../core/lv_obj_style_gen.h **** static inline bool lv_obj_get_style_clip_corner(const struct _lv_obj_t * obj, uint32_t part)
 500:lvgl/src/widgets/../core/lv_obj_style_gen.h **** {
 501:lvgl/src/widgets/../core/lv_obj_style_gen.h ****     lv_style_value_t v = lv_obj_get_style_prop(obj, part, LV_STYLE_CLIP_CORNER);
 502:lvgl/src/widgets/../core/lv_obj_style_gen.h ****     return (bool)v.num;
 503:lvgl/src/widgets/../core/lv_obj_style_gen.h **** }
 504:lvgl/src/widgets/../core/lv_obj_style_gen.h **** 
 505:lvgl/src/widgets/../core/lv_obj_style_gen.h **** static inline lv_opa_t lv_obj_get_style_opa(const struct _lv_obj_t * obj, uint32_t part)
 506:lvgl/src/widgets/../core/lv_obj_style_gen.h **** {
 507:lvgl/src/widgets/../core/lv_obj_style_gen.h ****     lv_style_value_t v = lv_obj_get_style_prop(obj, part, LV_STYLE_OPA);
 508:lvgl/src/widgets/../core/lv_obj_style_gen.h ****     return (lv_opa_t)v.num;
 509:lvgl/src/widgets/../core/lv_obj_style_gen.h **** }
 510:lvgl/src/widgets/../core/lv_obj_style_gen.h **** 
 511:lvgl/src/widgets/../core/lv_obj_style_gen.h **** static inline lv_opa_t lv_obj_get_style_opa_layered(const struct _lv_obj_t * obj, uint32_t part)
 512:lvgl/src/widgets/../core/lv_obj_style_gen.h **** {
 513:lvgl/src/widgets/../core/lv_obj_style_gen.h ****     lv_style_value_t v = lv_obj_get_style_prop(obj, part, LV_STYLE_OPA_LAYERED);
 514:lvgl/src/widgets/../core/lv_obj_style_gen.h ****     return (lv_opa_t)v.num;
 515:lvgl/src/widgets/../core/lv_obj_style_gen.h **** }
 516:lvgl/src/widgets/../core/lv_obj_style_gen.h **** 
 517:lvgl/src/widgets/../core/lv_obj_style_gen.h **** static inline const lv_color_filter_dsc_t * lv_obj_get_style_color_filter_dsc(const struct _lv_obj_
 518:lvgl/src/widgets/../core/lv_obj_style_gen.h **** {
 519:lvgl/src/widgets/../core/lv_obj_style_gen.h ****     lv_style_value_t v = lv_obj_get_style_prop(obj, part, LV_STYLE_COLOR_FILTER_DSC);
 520:lvgl/src/widgets/../core/lv_obj_style_gen.h ****     return (const lv_color_filter_dsc_t *)v.ptr;
ARM GAS  /var/folders/21/t9g5rlb91ys800n5npymflf80000gn/T//ccSbQiFP.s 			page 82


 521:lvgl/src/widgets/../core/lv_obj_style_gen.h **** }
 522:lvgl/src/widgets/../core/lv_obj_style_gen.h **** 
 523:lvgl/src/widgets/../core/lv_obj_style_gen.h **** static inline lv_opa_t lv_obj_get_style_color_filter_opa(const struct _lv_obj_t * obj, uint32_t par
 524:lvgl/src/widgets/../core/lv_obj_style_gen.h **** {
 525:lvgl/src/widgets/../core/lv_obj_style_gen.h ****     lv_style_value_t v = lv_obj_get_style_prop(obj, part, LV_STYLE_COLOR_FILTER_OPA);
 526:lvgl/src/widgets/../core/lv_obj_style_gen.h ****     return (lv_opa_t)v.num;
 527:lvgl/src/widgets/../core/lv_obj_style_gen.h **** }
 528:lvgl/src/widgets/../core/lv_obj_style_gen.h **** 
 529:lvgl/src/widgets/../core/lv_obj_style_gen.h **** static inline const lv_anim_t * lv_obj_get_style_anim(const struct _lv_obj_t * obj, uint32_t part)
 530:lvgl/src/widgets/../core/lv_obj_style_gen.h **** {
 531:lvgl/src/widgets/../core/lv_obj_style_gen.h ****     lv_style_value_t v = lv_obj_get_style_prop(obj, part, LV_STYLE_ANIM);
 532:lvgl/src/widgets/../core/lv_obj_style_gen.h ****     return (const lv_anim_t *)v.ptr;
 533:lvgl/src/widgets/../core/lv_obj_style_gen.h **** }
 534:lvgl/src/widgets/../core/lv_obj_style_gen.h **** 
 535:lvgl/src/widgets/../core/lv_obj_style_gen.h **** static inline uint32_t lv_obj_get_style_anim_time(const struct _lv_obj_t * obj, uint32_t part)
 536:lvgl/src/widgets/../core/lv_obj_style_gen.h **** {
 537:lvgl/src/widgets/../core/lv_obj_style_gen.h ****     lv_style_value_t v = lv_obj_get_style_prop(obj, part, LV_STYLE_ANIM_TIME);
 538:lvgl/src/widgets/../core/lv_obj_style_gen.h ****     return (uint32_t)v.num;
 539:lvgl/src/widgets/../core/lv_obj_style_gen.h **** }
 540:lvgl/src/widgets/../core/lv_obj_style_gen.h **** 
 541:lvgl/src/widgets/../core/lv_obj_style_gen.h **** static inline uint32_t lv_obj_get_style_anim_speed(const struct _lv_obj_t * obj, uint32_t part)
 542:lvgl/src/widgets/../core/lv_obj_style_gen.h **** {
 543:lvgl/src/widgets/../core/lv_obj_style_gen.h ****     lv_style_value_t v = lv_obj_get_style_prop(obj, part, LV_STYLE_ANIM_SPEED);
 544:lvgl/src/widgets/../core/lv_obj_style_gen.h ****     return (uint32_t)v.num;
 545:lvgl/src/widgets/../core/lv_obj_style_gen.h **** }
 546:lvgl/src/widgets/../core/lv_obj_style_gen.h **** 
 547:lvgl/src/widgets/../core/lv_obj_style_gen.h **** static inline const lv_style_transition_dsc_t * lv_obj_get_style_transition(const struct _lv_obj_t 
 548:lvgl/src/widgets/../core/lv_obj_style_gen.h **** {
 549:lvgl/src/widgets/../core/lv_obj_style_gen.h ****     lv_style_value_t v = lv_obj_get_style_prop(obj, part, LV_STYLE_TRANSITION);
 550:lvgl/src/widgets/../core/lv_obj_style_gen.h ****     return (const lv_style_transition_dsc_t *)v.ptr;
 551:lvgl/src/widgets/../core/lv_obj_style_gen.h **** }
 552:lvgl/src/widgets/../core/lv_obj_style_gen.h **** 
 553:lvgl/src/widgets/../core/lv_obj_style_gen.h **** static inline lv_blend_mode_t lv_obj_get_style_blend_mode(const struct _lv_obj_t * obj, uint32_t pa
 554:lvgl/src/widgets/../core/lv_obj_style_gen.h **** {
 555:lvgl/src/widgets/../core/lv_obj_style_gen.h ****     lv_style_value_t v = lv_obj_get_style_prop(obj, part, LV_STYLE_BLEND_MODE);
 556:lvgl/src/widgets/../core/lv_obj_style_gen.h ****     return (lv_blend_mode_t)v.num;
 557:lvgl/src/widgets/../core/lv_obj_style_gen.h **** }
 558:lvgl/src/widgets/../core/lv_obj_style_gen.h **** 
 559:lvgl/src/widgets/../core/lv_obj_style_gen.h **** static inline uint16_t lv_obj_get_style_layout(const struct _lv_obj_t * obj, uint32_t part)
 560:lvgl/src/widgets/../core/lv_obj_style_gen.h **** {
 561:lvgl/src/widgets/../core/lv_obj_style_gen.h ****     lv_style_value_t v = lv_obj_get_style_prop(obj, part, LV_STYLE_LAYOUT);
 562:lvgl/src/widgets/../core/lv_obj_style_gen.h ****     return (uint16_t)v.num;
 563:lvgl/src/widgets/../core/lv_obj_style_gen.h **** }
 564:lvgl/src/widgets/../core/lv_obj_style_gen.h **** 
 565:lvgl/src/widgets/../core/lv_obj_style_gen.h **** static inline lv_base_dir_t lv_obj_get_style_base_dir(const struct _lv_obj_t * obj, uint32_t part)
 2293              		.loc 2 565 29 view .LVU752
 2294              	.LBB124:
 566:lvgl/src/widgets/../core/lv_obj_style_gen.h **** {
 567:lvgl/src/widgets/../core/lv_obj_style_gen.h ****     lv_style_value_t v = lv_obj_get_style_prop(obj, part, LV_STYLE_BASE_DIR);
 2295              		.loc 2 567 5 view .LVU753
 2296              		.loc 2 567 26 is_stmt 0 view .LVU754
 2297 0018 1622     		movs	r2, #22
 2298 001a 0021     		movs	r1, #0
 2299 001c 3846     		mov	r0, r7
 2300 001e FFF7FEFF 		bl	lv_obj_get_style_prop
 2301              	.LVL200:
 568:lvgl/src/widgets/../core/lv_obj_style_gen.h ****     return (lv_base_dir_t)v.num;
ARM GAS  /var/folders/21/t9g5rlb91ys800n5npymflf80000gn/T//ccSbQiFP.s 			page 83


 2302              		.loc 2 568 5 is_stmt 1 view .LVU755
 2303              		.loc 2 568 12 is_stmt 0 view .LVU756
 2304 0022 C3B2     		uxtb	r3, r0
 2305 0024 0693     		str	r3, [sp, #24]
 2306              	.LVL201:
 2307              		.loc 2 568 12 view .LVU757
 2308              	.LBE124:
 2309              	.LBE123:
 107:lvgl/src/widgets/lv_btnmatrix.c ****     lv_coord_t ptop = lv_obj_get_style_pad_top(obj, LV_PART_MAIN);
 2310              		.loc 1 107 5 is_stmt 1 view .LVU758
 2311              	.LBB125:
 2312              	.LBI125:
 115:lvgl/src/widgets/../core/lv_obj_style_gen.h **** {
 2313              		.loc 2 115 26 view .LVU759
 2314              	.LBB126:
 117:lvgl/src/widgets/../core/lv_obj_style_gen.h ****     return (lv_coord_t)v.num;
 2315              		.loc 2 117 5 view .LVU760
 117:lvgl/src/widgets/../core/lv_obj_style_gen.h ****     return (lv_coord_t)v.num;
 2316              		.loc 2 117 26 is_stmt 0 view .LVU761
 2317 0026 1222     		movs	r2, #18
 2318 0028 0021     		movs	r1, #0
 2319 002a 3846     		mov	r0, r7
 2320 002c FFF7FEFF 		bl	lv_obj_get_style_prop
 2321              	.LVL202:
 2322 0030 0590     		str	r0, [sp, #20]
 118:lvgl/src/widgets/../core/lv_obj_style_gen.h **** }
 2323              		.loc 2 118 5 is_stmt 1 view .LVU762
 2324              	.LVL203:
 118:lvgl/src/widgets/../core/lv_obj_style_gen.h **** }
 2325              		.loc 2 118 5 is_stmt 0 view .LVU763
 2326              	.LBE126:
 2327              	.LBE125:
 108:lvgl/src/widgets/lv_btnmatrix.c ****     lv_coord_t prow = lv_obj_get_style_pad_row(obj, LV_PART_MAIN);
 2328              		.loc 1 108 5 is_stmt 1 view .LVU764
 2329              	.LBB127:
 2330              	.LBI127:
 103:lvgl/src/widgets/../core/lv_obj_style_gen.h **** {
 2331              		.loc 2 103 26 view .LVU765
 2332              	.LBB128:
 105:lvgl/src/widgets/../core/lv_obj_style_gen.h ****     return (lv_coord_t)v.num;
 2333              		.loc 2 105 5 view .LVU766
 105:lvgl/src/widgets/../core/lv_obj_style_gen.h ****     return (lv_coord_t)v.num;
 2334              		.loc 2 105 26 is_stmt 0 view .LVU767
 2335 0032 1022     		movs	r2, #16
 2336 0034 0021     		movs	r1, #0
 2337 0036 3846     		mov	r0, r7
 2338 0038 FFF7FEFF 		bl	lv_obj_get_style_prop
 2339              	.LVL204:
 2340 003c 0D90     		str	r0, [sp, #52]
 106:lvgl/src/widgets/../core/lv_obj_style_gen.h **** }
 2341              		.loc 2 106 5 is_stmt 1 view .LVU768
 2342              	.LVL205:
 106:lvgl/src/widgets/../core/lv_obj_style_gen.h **** }
 2343              		.loc 2 106 5 is_stmt 0 view .LVU769
 2344              	.LBE128:
 2345              	.LBE127:
 109:lvgl/src/widgets/lv_btnmatrix.c ****     lv_coord_t pcol = lv_obj_get_style_pad_column(obj, LV_PART_MAIN);
ARM GAS  /var/folders/21/t9g5rlb91ys800n5npymflf80000gn/T//ccSbQiFP.s 			page 84


 2346              		.loc 1 109 5 is_stmt 1 view .LVU770
 2347              	.LBB129:
 2348              	.LBI129:
 127:lvgl/src/widgets/../core/lv_obj_style_gen.h **** {
 2349              		.loc 2 127 26 view .LVU771
 2350              	.LBB130:
 129:lvgl/src/widgets/../core/lv_obj_style_gen.h ****     return (lv_coord_t)v.num;
 2351              		.loc 2 129 5 view .LVU772
 129:lvgl/src/widgets/../core/lv_obj_style_gen.h ****     return (lv_coord_t)v.num;
 2352              		.loc 2 129 26 is_stmt 0 view .LVU773
 2353 003e 1422     		movs	r2, #20
 2354 0040 0021     		movs	r1, #0
 2355 0042 3846     		mov	r0, r7
 2356 0044 FFF7FEFF 		bl	lv_obj_get_style_prop
 2357              	.LVL206:
 2358 0048 0446     		mov	r4, r0
 2359              	.LVL207:
 130:lvgl/src/widgets/../core/lv_obj_style_gen.h **** }
 2360              		.loc 2 130 5 is_stmt 1 view .LVU774
 130:lvgl/src/widgets/../core/lv_obj_style_gen.h **** }
 2361              		.loc 2 130 12 is_stmt 0 view .LVU775
 2362 004a 03B2     		sxth	r3, r0
 2363 004c 0C93     		str	r3, [sp, #48]
 2364              	.LVL208:
 130:lvgl/src/widgets/../core/lv_obj_style_gen.h **** }
 2365              		.loc 2 130 12 view .LVU776
 2366              	.LBE130:
 2367              	.LBE129:
 110:lvgl/src/widgets/lv_btnmatrix.c **** 
 2368              		.loc 1 110 5 is_stmt 1 view .LVU777
 2369              	.LBB131:
 2370              	.LBI131:
 133:lvgl/src/widgets/../core/lv_obj_style_gen.h **** {
 2371              		.loc 2 133 26 view .LVU778
 2372              	.LBB132:
 135:lvgl/src/widgets/../core/lv_obj_style_gen.h ****     return (lv_coord_t)v.num;
 2373              		.loc 2 135 5 view .LVU779
 135:lvgl/src/widgets/../core/lv_obj_style_gen.h ****     return (lv_coord_t)v.num;
 2374              		.loc 2 135 26 is_stmt 0 view .LVU780
 2375 004e 1522     		movs	r2, #21
 2376 0050 0021     		movs	r1, #0
 2377 0052 3846     		mov	r0, r7
 135:lvgl/src/widgets/../core/lv_obj_style_gen.h ****     return (lv_coord_t)v.num;
 2378              		.loc 2 135 26 view .LVU781
 2379 0054 FFF7FEFF 		bl	lv_obj_get_style_prop
 2380              	.LVL209:
 2381 0058 0B90     		str	r0, [sp, #44]
 136:lvgl/src/widgets/../core/lv_obj_style_gen.h **** }
 2382              		.loc 2 136 5 is_stmt 1 view .LVU782
 136:lvgl/src/widgets/../core/lv_obj_style_gen.h **** }
 2383              		.loc 2 136 12 is_stmt 0 view .LVU783
 2384 005a 03B2     		sxth	r3, r0
 2385 005c 0493     		str	r3, [sp, #16]
 2386              	.LVL210:
 136:lvgl/src/widgets/../core/lv_obj_style_gen.h **** }
 2387              		.loc 2 136 12 view .LVU784
 2388              	.LBE132:
ARM GAS  /var/folders/21/t9g5rlb91ys800n5npymflf80000gn/T//ccSbQiFP.s 			page 85


 2389              	.LBE131:
 112:lvgl/src/widgets/lv_btnmatrix.c ****     lv_coord_t max_h            = lv_obj_get_content_height(obj);
 2390              		.loc 1 112 5 is_stmt 1 view .LVU785
 112:lvgl/src/widgets/lv_btnmatrix.c ****     lv_coord_t max_h            = lv_obj_get_content_height(obj);
 2391              		.loc 1 112 35 is_stmt 0 view .LVU786
 2392 005e 3846     		mov	r0, r7
 2393 0060 FFF7FEFF 		bl	lv_obj_get_content_width
 2394              	.LVL211:
 2395 0064 0990     		str	r0, [sp, #36]
 2396              	.LVL212:
 113:lvgl/src/widgets/lv_btnmatrix.c **** 
 2397              		.loc 1 113 5 is_stmt 1 view .LVU787
 113:lvgl/src/widgets/lv_btnmatrix.c **** 
 2398              		.loc 1 113 35 is_stmt 0 view .LVU788
 2399 0066 3846     		mov	r0, r7
 2400 0068 FFF7FEFF 		bl	lv_obj_get_content_height
 2401              	.LVL213:
 116:lvgl/src/widgets/lv_btnmatrix.c **** 
 2402              		.loc 1 116 5 is_stmt 1 view .LVU789
 116:lvgl/src/widgets/lv_btnmatrix.c **** 
 2403              		.loc 1 116 52 is_stmt 0 view .LVU790
 2404 006c 7B8E     		ldrh	r3, [r7, #50]
 116:lvgl/src/widgets/lv_btnmatrix.c **** 
 2405              		.loc 1 116 37 view .LVU791
 2406 006e 013B     		subs	r3, r3, #1
 116:lvgl/src/widgets/lv_btnmatrix.c **** 
 2407              		.loc 1 116 37 view .LVU792
 2408 0070 13FB04F3 		smulbb	r3, r3, r4
 2409 0074 C31A     		subs	r3, r0, r3
 116:lvgl/src/widgets/lv_btnmatrix.c **** 
 2410              		.loc 1 116 16 view .LVU793
 2411 0076 1BB2     		sxth	r3, r3
 2412 0078 0A93     		str	r3, [sp, #40]
 2413              	.LVL214:
 120:lvgl/src/widgets/lv_btnmatrix.c ****     uint32_t btn_tot_i = 0; /*Act. index of button areas*/
 2414              		.loc 1 120 5 is_stmt 1 view .LVU794
 121:lvgl/src/widgets/lv_btnmatrix.c ****     const char ** map_row = map;
 2415              		.loc 1 121 5 view .LVU795
 122:lvgl/src/widgets/lv_btnmatrix.c **** 
 2416              		.loc 1 122 5 view .LVU796
 125:lvgl/src/widgets/lv_btnmatrix.c ****     for(row = 0; row < btnm->row_cnt; row++) {
 2417              		.loc 1 125 5 view .LVU797
 126:lvgl/src/widgets/lv_btnmatrix.c ****         uint16_t unit_cnt = 0;           /*Number of units in a row*/
 2418              		.loc 1 126 5 view .LVU798
 126:lvgl/src/widgets/lv_btnmatrix.c ****         uint16_t unit_cnt = 0;           /*Number of units in a row*/
 2419              		.loc 1 126 13 is_stmt 0 view .LVU799
 2420 007a 4FF0000E 		mov	lr, #0
 121:lvgl/src/widgets/lv_btnmatrix.c ****     const char ** map_row = map;
 2421              		.loc 1 121 14 view .LVU800
 2422 007e 7646     		mov	r6, lr
 126:lvgl/src/widgets/lv_btnmatrix.c ****         uint16_t unit_cnt = 0;           /*Number of units in a row*/
 2423              		.loc 1 126 5 view .LVU801
 2424 0080 23E0     		b	.L115
 2425              	.LVL215:
 2426              	.L117:
 2427              	.LBB133:
 131:lvgl/src/widgets/lv_btnmatrix.c ****             btn_cnt++;
ARM GAS  /var/folders/21/t9g5rlb91ys800n5npymflf80000gn/T//ccSbQiFP.s 			page 86


 2428              		.loc 1 131 13 is_stmt 1 view .LVU802
 131:lvgl/src/widgets/lv_btnmatrix.c ****             btn_cnt++;
 2429              		.loc 1 131 46 is_stmt 0 view .LVU803
 2430 0082 FB6A     		ldr	r3, [r7, #44]
 131:lvgl/src/widgets/lv_btnmatrix.c ****             btn_cnt++;
 2431              		.loc 1 131 68 view .LVU804
 2432 0084 B044     		add	r8, r8, r6
 131:lvgl/src/widgets/lv_btnmatrix.c ****             btn_cnt++;
 2433              		.loc 1 131 25 view .LVU805
 2434 0086 33F81800 		ldrh	r0, [r3, r8, lsl #1]
 2435 008a FFF7FEFF 		bl	get_button_width
 2436              	.LVL216:
 131:lvgl/src/widgets/lv_btnmatrix.c ****             btn_cnt++;
 2437              		.loc 1 131 22 view .LVU806
 2438 008e 2044     		add	r0, r0, r4
 2439 0090 84B2     		uxth	r4, r0
 2440              	.LVL217:
 132:lvgl/src/widgets/lv_btnmatrix.c ****         }
 2441              		.loc 1 132 13 is_stmt 1 view .LVU807
 132:lvgl/src/widgets/lv_btnmatrix.c ****         }
 2442              		.loc 1 132 20 is_stmt 0 view .LVU808
 2443 0092 09F10109 		add	r9, r9, #1
 2444              	.LVL218:
 132:lvgl/src/widgets/lv_btnmatrix.c ****         }
 2445              		.loc 1 132 20 view .LVU809
 2446 0096 1FFA89F9 		uxth	r9, r9
 2447              	.LVL219:
 2448              	.L124:
 130:lvgl/src/widgets/lv_btnmatrix.c ****             unit_cnt += get_button_width(btnm->ctrl_bits[btn_tot_i + btn_cnt]);
 2449              		.loc 1 130 71 is_stmt 1 view .LVU810
 130:lvgl/src/widgets/lv_btnmatrix.c ****             unit_cnt += get_button_width(btnm->ctrl_bits[btn_tot_i + btn_cnt]);
 2450              		.loc 1 130 22 is_stmt 0 view .LVU811
 2451 009a C846     		mov	r8, r9
 2452 009c 5AF82950 		ldr	r5, [r10, r9, lsl #2]
 130:lvgl/src/widgets/lv_btnmatrix.c ****             unit_cnt += get_button_width(btnm->ctrl_bits[btn_tot_i + btn_cnt]);
 2453              		.loc 1 130 71 view .LVU812
 2454 00a0 3DB1     		cbz	r5, .L116
 130:lvgl/src/widgets/lv_btnmatrix.c ****             unit_cnt += get_button_width(btnm->ctrl_bits[btn_tot_i + btn_cnt]);
 2455              		.loc 1 130 35 discriminator 1 view .LVU813
 2456 00a2 5149     		ldr	r1, .L134
 2457 00a4 2846     		mov	r0, r5
 2458 00a6 FFF7FEFF 		bl	strcmp
 2459              	.LVL220:
 130:lvgl/src/widgets/lv_btnmatrix.c ****             unit_cnt += get_button_width(btnm->ctrl_bits[btn_tot_i + btn_cnt]);
 2460              		.loc 1 130 32 discriminator 1 view .LVU814
 2461 00aa 10B1     		cbz	r0, .L116
 130:lvgl/src/widgets/lv_btnmatrix.c ****             unit_cnt += get_button_width(btnm->ctrl_bits[btn_tot_i + btn_cnt]);
 2462              		.loc 1 130 90 discriminator 2 view .LVU815
 2463 00ac 2B78     		ldrb	r3, [r5]	@ zero_extendqisi2
 130:lvgl/src/widgets/lv_btnmatrix.c ****             unit_cnt += get_button_width(btnm->ctrl_bits[btn_tot_i + btn_cnt]);
 2464              		.loc 1 130 71 discriminator 2 view .LVU816
 2465 00ae 002B     		cmp	r3, #0
 2466 00b0 E7D1     		bne	.L117
 2467              	.L116:
 136:lvgl/src/widgets/lv_btnmatrix.c ****             map_row = &map_row[btn_cnt + 1];       /*Set the map to the next row*/
 2468              		.loc 1 136 11 view .LVU817
 2469 00b2 4546     		mov	r5, r8
ARM GAS  /var/folders/21/t9g5rlb91ys800n5npymflf80000gn/T//ccSbQiFP.s 			page 87


 2470 00b4 DDF80880 		ldr	r8, [sp, #8]
 2471 00b8 DE46     		mov	lr, fp
 136:lvgl/src/widgets/lv_btnmatrix.c ****             map_row = &map_row[btn_cnt + 1];       /*Set the map to the next row*/
 2472              		.loc 1 136 9 is_stmt 1 view .LVU818
 136:lvgl/src/widgets/lv_btnmatrix.c ****             map_row = &map_row[btn_cnt + 1];       /*Set the map to the next row*/
 2473              		.loc 1 136 11 is_stmt 0 view .LVU819
 2474 00ba B9F1000F 		cmp	r9, #0
 2475 00be 0FD1     		bne	.L118
 137:lvgl/src/widgets/lv_btnmatrix.c ****             continue;
 2476              		.loc 1 137 13 is_stmt 1 discriminator 1 view .LVU820
 137:lvgl/src/widgets/lv_btnmatrix.c ****             continue;
 2477              		.loc 1 137 31 is_stmt 0 discriminator 1 view .LVU821
 2478 00c0 0135     		adds	r5, r5, #1
 137:lvgl/src/widgets/lv_btnmatrix.c ****             continue;
 2479              		.loc 1 137 21 discriminator 1 view .LVU822
 2480 00c2 0AEB850A 		add	r10, r10, r5, lsl #2
 2481              	.LVL221:
 138:lvgl/src/widgets/lv_btnmatrix.c ****         }
 2482              		.loc 1 138 13 is_stmt 1 discriminator 1 view .LVU823
 2483              	.L119:
 138:lvgl/src/widgets/lv_btnmatrix.c ****         }
 2484              		.loc 1 138 13 is_stmt 0 discriminator 1 view .LVU824
 2485              	.LBE133:
 126:lvgl/src/widgets/lv_btnmatrix.c ****         uint16_t unit_cnt = 0;           /*Number of units in a row*/
 2486              		.loc 1 126 42 is_stmt 1 discriminator 2 view .LVU825
 2487 00c6 0EF1010E 		add	lr, lr, #1
 2488              	.LVL222:
 2489              	.L115:
 126:lvgl/src/widgets/lv_btnmatrix.c ****         uint16_t unit_cnt = 0;           /*Number of units in a row*/
 2490              		.loc 1 126 22 discriminator 1 view .LVU826
 126:lvgl/src/widgets/lv_btnmatrix.c ****         uint16_t unit_cnt = 0;           /*Number of units in a row*/
 2491              		.loc 1 126 28 is_stmt 0 discriminator 1 view .LVU827
 2492 00ca B7F83280 		ldrh	r8, [r7, #50]
 126:lvgl/src/widgets/lv_btnmatrix.c ****         uint16_t unit_cnt = 0;           /*Number of units in a row*/
 2493              		.loc 1 126 22 discriminator 1 view .LVU828
 2494 00ce F045     		cmp	r8, lr
 2495 00d0 7FD9     		bls	.L131
 2496              	.LBB137:
 128:lvgl/src/widgets/lv_btnmatrix.c ****         /*Count the buttons and units in this row*/
 2497              		.loc 1 128 18 view .LVU829
 2498 00d2 4FF00009 		mov	r9, #0
 127:lvgl/src/widgets/lv_btnmatrix.c ****         uint16_t btn_cnt = 0;            /*Number of buttons in a row*/
 2499              		.loc 1 127 18 view .LVU830
 2500 00d6 4C46     		mov	r4, r9
 127:lvgl/src/widgets/lv_btnmatrix.c ****         uint16_t btn_cnt = 0;            /*Number of buttons in a row*/
 2501              		.loc 1 127 18 view .LVU831
 2502 00d8 CDF80880 		str	r8, [sp, #8]
 2503 00dc F346     		mov	fp, lr
 2504 00de DCE7     		b	.L124
 2505              	.LVL223:
 2506              	.L118:
 141:lvgl/src/widgets/lv_btnmatrix.c ****         lv_coord_t row_y2 = ptop + (max_h_no_gap * (row + 1)) / btnm->row_cnt + row * prow - 1;
 2507              		.loc 1 141 9 is_stmt 1 view .LVU832
 141:lvgl/src/widgets/lv_btnmatrix.c ****         lv_coord_t row_y2 = ptop + (max_h_no_gap * (row + 1)) / btnm->row_cnt + row * prow - 1;
 2508              		.loc 1 141 50 is_stmt 0 view .LVU833
 2509 00e0 0A98     		ldr	r0, [sp, #40]
 2510 00e2 0BFB00F1 		mul	r1, fp, r0
ARM GAS  /var/folders/21/t9g5rlb91ys800n5npymflf80000gn/T//ccSbQiFP.s 			page 88


 141:lvgl/src/widgets/lv_btnmatrix.c ****         lv_coord_t row_y2 = ptop + (max_h_no_gap * (row + 1)) / btnm->row_cnt + row * prow - 1;
 2511              		.loc 1 141 57 view .LVU834
 2512 00e6 B1FBF8F1 		udiv	r1, r1, r8
 141:lvgl/src/widgets/lv_btnmatrix.c ****         lv_coord_t row_y2 = ptop + (max_h_no_gap * (row + 1)) / btnm->row_cnt + row * prow - 1;
 2513              		.loc 1 141 34 view .LVU835
 2514 00ea BDF83430 		ldrh	r3, [sp, #52]
 2515 00ee 1944     		add	r1, r1, r3
 141:lvgl/src/widgets/lv_btnmatrix.c ****         lv_coord_t row_y2 = ptop + (max_h_no_gap * (row + 1)) / btnm->row_cnt + row * prow - 1;
 2516              		.loc 1 141 73 view .LVU836
 2517 00f0 0C9A     		ldr	r2, [sp, #48]
 2518 00f2 12FB0BF2 		smulbb	r2, r2, fp
 2519 00f6 92B2     		uxth	r2, r2
 2520 00f8 12FA81F1 		uxtah	r1, r2, r1
 141:lvgl/src/widgets/lv_btnmatrix.c ****         lv_coord_t row_y2 = ptop + (max_h_no_gap * (row + 1)) / btnm->row_cnt + row * prow - 1;
 2521              		.loc 1 141 20 view .LVU837
 2522 00fc 09B2     		sxth	r1, r1
 2523 00fe 0291     		str	r1, [sp, #8]
 2524              	.LVL224:
 142:lvgl/src/widgets/lv_btnmatrix.c **** 
 2525              		.loc 1 142 9 is_stmt 1 view .LVU838
 142:lvgl/src/widgets/lv_btnmatrix.c **** 
 2526              		.loc 1 142 50 is_stmt 0 view .LVU839
 2527 0100 0BFB0001 		mla	r1, fp, r0, r0
 142:lvgl/src/widgets/lv_btnmatrix.c **** 
 2528              		.loc 1 142 63 view .LVU840
 2529 0104 B1FBF8F1 		udiv	r1, r1, r8
 142:lvgl/src/widgets/lv_btnmatrix.c **** 
 2530              		.loc 1 142 34 view .LVU841
 2531 0108 03EB010B 		add	fp, r3, r1
 2532              	.LVL225:
 142:lvgl/src/widgets/lv_btnmatrix.c **** 
 2533              		.loc 1 142 79 view .LVU842
 2534 010c 12FA8BFB 		uxtah	fp, r2, fp
 2535 0110 1FFA8BFB 		uxth	fp, fp
 142:lvgl/src/widgets/lv_btnmatrix.c **** 
 2536              		.loc 1 142 92 view .LVU843
 2537 0114 0BF1FF3B 		add	fp, fp, #-1
 142:lvgl/src/widgets/lv_btnmatrix.c **** 
 2538              		.loc 1 142 20 view .LVU844
 2539 0118 0FFA8BF3 		sxth	r3, fp
 2540 011c 0393     		str	r3, [sp, #12]
 2541              	.LVL226:
 145:lvgl/src/widgets/lv_btnmatrix.c ****         if(max_w_no_gap < 0) max_w_no_gap = 0;
 2542              		.loc 1 145 9 is_stmt 1 view .LVU845
 145:lvgl/src/widgets/lv_btnmatrix.c ****         if(max_w_no_gap < 0) max_w_no_gap = 0;
 2543              		.loc 1 145 41 is_stmt 0 view .LVU846
 2544 011e BDF824C0 		ldrh	ip, [sp, #36]
 2545 0122 09F1FF32 		add	r2, r9, #-1
 2546 0126 0B9B     		ldr	r3, [sp, #44]
 2547 0128 12FB03F2 		smulbb	r2, r2, r3
 2548 012c ACEB0202 		sub	r2, ip, r2
 145:lvgl/src/widgets/lv_btnmatrix.c ****         if(max_w_no_gap < 0) max_w_no_gap = 0;
 2549              		.loc 1 145 20 view .LVU847
 2550 0130 0FFA82FB 		sxth	fp, r2
 2551              	.LVL227:
 146:lvgl/src/widgets/lv_btnmatrix.c **** 
 2552              		.loc 1 146 9 is_stmt 1 view .LVU848
ARM GAS  /var/folders/21/t9g5rlb91ys800n5npymflf80000gn/T//ccSbQiFP.s 			page 89


 146:lvgl/src/widgets/lv_btnmatrix.c **** 
 2553              		.loc 1 146 11 is_stmt 0 view .LVU849
 2554 0134 BBF1000F 		cmp	fp, #0
 2555 0138 08DB     		blt	.L132
 2556              	.LVL228:
 2557              	.L120:
 148:lvgl/src/widgets/lv_btnmatrix.c ****         uint32_t btn;
 2558              		.loc 1 148 9 is_stmt 1 view .LVU850
 149:lvgl/src/widgets/lv_btnmatrix.c ****         for(btn = 0; btn < btn_cnt; btn++, btn_tot_i++, txt_tot_i++) {
 2559              		.loc 1 149 9 view .LVU851
 150:lvgl/src/widgets/lv_btnmatrix.c ****             uint32_t btn_u = get_button_width(btnm->ctrl_bits[btn_tot_i]);
 2560              		.loc 1 150 9 view .LVU852
 150:lvgl/src/widgets/lv_btnmatrix.c ****             uint32_t btn_u = get_button_width(btnm->ctrl_bits[btn_tot_i]);
 2561              		.loc 1 150 17 is_stmt 0 view .LVU853
 2562 013a 4FF00008 		mov	r8, #0
 148:lvgl/src/widgets/lv_btnmatrix.c ****         uint32_t btn;
 2563              		.loc 1 148 18 view .LVU854
 2564 013e C146     		mov	r9, r8
 2565              	.LVL229:
 148:lvgl/src/widgets/lv_btnmatrix.c ****         uint32_t btn;
 2566              		.loc 1 148 18 view .LVU855
 2567 0140 CDF81CE0 		str	lr, [sp, #28]
 2568 0144 CDF820A0 		str	r10, [sp, #32]
 2569 0148 E246     		mov	r10, ip
 2570              	.LVL230:
 150:lvgl/src/widgets/lv_btnmatrix.c ****             uint32_t btn_u = get_button_width(btnm->ctrl_bits[btn_tot_i]);
 2571              		.loc 1 150 9 view .LVU856
 2572 014a 13E0     		b	.L121
 2573              	.LVL231:
 2574              	.L132:
 146:lvgl/src/widgets/lv_btnmatrix.c **** 
 2575              		.loc 1 146 43 view .LVU857
 2576 014c 4FF0000B 		mov	fp, #0
 2577              	.LVL232:
 146:lvgl/src/widgets/lv_btnmatrix.c **** 
 2578              		.loc 1 146 43 view .LVU858
 2579 0150 F3E7     		b	.L120
 2580              	.LVL233:
 2581              	.L122:
 2582              	.LBB134:
 166:lvgl/src/widgets/lv_btnmatrix.c ****             btn_x2 += pleft;
 2583              		.loc 1 166 13 is_stmt 1 discriminator 2 view .LVU859
 166:lvgl/src/widgets/lv_btnmatrix.c ****             btn_x2 += pleft;
 2584              		.loc 1 166 20 is_stmt 0 discriminator 2 view .LVU860
 2585 0152 BDF81420 		ldrh	r2, [sp, #20]
 2586 0156 1144     		add	r1, r1, r2
 2587              	.LVL234:
 167:lvgl/src/widgets/lv_btnmatrix.c **** 
 2588              		.loc 1 167 13 is_stmt 1 discriminator 2 view .LVU861
 167:lvgl/src/widgets/lv_btnmatrix.c **** 
 2589              		.loc 1 167 20 is_stmt 0 discriminator 2 view .LVU862
 2590 0158 1344     		add	r3, r3, r2
 2591              	.LVL235:
 169:lvgl/src/widgets/lv_btnmatrix.c **** 
 2592              		.loc 1 169 13 is_stmt 1 discriminator 2 view .LVU863
 169:lvgl/src/widgets/lv_btnmatrix.c **** 
 2593              		.loc 1 169 30 is_stmt 0 discriminator 2 view .LVU864
ARM GAS  /var/folders/21/t9g5rlb91ys800n5npymflf80000gn/T//ccSbQiFP.s 			page 90


 2594 015a B86A     		ldr	r0, [r7, #40]
 169:lvgl/src/widgets/lv_btnmatrix.c **** 
 2595              		.loc 1 169 13 discriminator 2 view .LVU865
 2596 015c 039A     		ldr	r2, [sp, #12]
 2597 015e 0092     		str	r2, [sp]
 2598 0160 1BB2     		sxth	r3, r3
 169:lvgl/src/widgets/lv_btnmatrix.c **** 
 2599              		.loc 1 169 13 discriminator 2 view .LVU866
 2600 0162 029A     		ldr	r2, [sp, #8]
 2601 0164 09B2     		sxth	r1, r1
 169:lvgl/src/widgets/lv_btnmatrix.c **** 
 2602              		.loc 1 169 13 discriminator 2 view .LVU867
 2603 0166 00EBC600 		add	r0, r0, r6, lsl #3
 2604 016a FFF7FEFF 		bl	lv_area_set
 2605              	.LVL236:
 171:lvgl/src/widgets/lv_btnmatrix.c ****         }
 2606              		.loc 1 171 13 is_stmt 1 discriminator 2 view .LVU868
 171:lvgl/src/widgets/lv_btnmatrix.c ****         }
 2607              		.loc 1 171 13 is_stmt 0 discriminator 2 view .LVU869
 2608              	.LBE134:
 150:lvgl/src/widgets/lv_btnmatrix.c ****             uint32_t btn_u = get_button_width(btnm->ctrl_bits[btn_tot_i]);
 2609              		.loc 1 150 55 is_stmt 1 discriminator 2 view .LVU870
 150:lvgl/src/widgets/lv_btnmatrix.c ****             uint32_t btn_u = get_button_width(btnm->ctrl_bits[btn_tot_i]);
 2610              		.loc 1 150 40 is_stmt 0 discriminator 2 view .LVU871
 2611 016e 08F10108 		add	r8, r8, #1
 2612              	.LVL237:
 150:lvgl/src/widgets/lv_btnmatrix.c ****             uint32_t btn_u = get_button_width(btnm->ctrl_bits[btn_tot_i]);
 2613              		.loc 1 150 53 discriminator 2 view .LVU872
 2614 0172 0136     		adds	r6, r6, #1
 2615              	.LVL238:
 2616              	.L121:
 150:lvgl/src/widgets/lv_btnmatrix.c ****             uint32_t btn_u = get_button_width(btnm->ctrl_bits[btn_tot_i]);
 2617              		.loc 1 150 26 is_stmt 1 discriminator 1 view .LVU873
 2618 0174 4545     		cmp	r5, r8
 2619 0176 24D9     		bls	.L133
 2620              	.LBB136:
 151:lvgl/src/widgets/lv_btnmatrix.c **** 
 2621              		.loc 1 151 13 view .LVU874
 151:lvgl/src/widgets/lv_btnmatrix.c **** 
 2622              		.loc 1 151 51 is_stmt 0 view .LVU875
 2623 0178 FB6A     		ldr	r3, [r7, #44]
 151:lvgl/src/widgets/lv_btnmatrix.c **** 
 2624              		.loc 1 151 30 view .LVU876
 2625 017a 33F81600 		ldrh	r0, [r3, r6, lsl #1]
 2626 017e FFF7FEFF 		bl	get_button_width
 2627              	.LVL239:
 153:lvgl/src/widgets/lv_btnmatrix.c ****             lv_coord_t btn_x2 = (max_w_no_gap * (row_unit_cnt + btn_u)) / unit_cnt + btn * pcol - 1
 2628              		.loc 1 153 13 is_stmt 1 view .LVU877
 153:lvgl/src/widgets/lv_btnmatrix.c ****             lv_coord_t btn_x2 = (max_w_no_gap * (row_unit_cnt + btn_u)) / unit_cnt + btn * pcol - 1
 2629              		.loc 1 153 47 is_stmt 0 view .LVU878
 2630 0182 09FB0BF1 		mul	r1, r9, fp
 153:lvgl/src/widgets/lv_btnmatrix.c ****             lv_coord_t btn_x2 = (max_w_no_gap * (row_unit_cnt + btn_u)) / unit_cnt + btn * pcol - 1
 2631              		.loc 1 153 63 view .LVU879
 2632 0186 B1FBF4F1 		udiv	r1, r1, r4
 153:lvgl/src/widgets/lv_btnmatrix.c ****             lv_coord_t btn_x2 = (max_w_no_gap * (row_unit_cnt + btn_u)) / unit_cnt + btn * pcol - 1
 2633              		.loc 1 153 74 view .LVU880
 2634 018a 049B     		ldr	r3, [sp, #16]
ARM GAS  /var/folders/21/t9g5rlb91ys800n5npymflf80000gn/T//ccSbQiFP.s 			page 91


 2635 018c 13FB08F3 		smulbb	r3, r3, r8
 2636 0190 9BB2     		uxth	r3, r3
 2637 0192 1944     		add	r1, r1, r3
 2638 0194 1FFA81FC 		uxth	ip, r1
 153:lvgl/src/widgets/lv_btnmatrix.c ****             lv_coord_t btn_x2 = (max_w_no_gap * (row_unit_cnt + btn_u)) / unit_cnt + btn * pcol - 1
 2639              		.loc 1 153 24 view .LVU881
 2640 0198 09B2     		sxth	r1, r1
 2641              	.LVL240:
 154:lvgl/src/widgets/lv_btnmatrix.c **** 
 2642              		.loc 1 154 13 is_stmt 1 view .LVU882
 154:lvgl/src/widgets/lv_btnmatrix.c **** 
 2643              		.loc 1 154 63 is_stmt 0 view .LVU883
 2644 019a 8144     		add	r9, r9, r0
 2645              	.LVL241:
 154:lvgl/src/widgets/lv_btnmatrix.c **** 
 2646              		.loc 1 154 47 view .LVU884
 2647 019c 09FB0BF0 		mul	r0, r9, fp
 2648              	.LVL242:
 154:lvgl/src/widgets/lv_btnmatrix.c **** 
 2649              		.loc 1 154 73 view .LVU885
 2650 01a0 B0FBF4F0 		udiv	r0, r0, r4
 154:lvgl/src/widgets/lv_btnmatrix.c **** 
 2651              		.loc 1 154 84 view .LVU886
 2652 01a4 0344     		add	r3, r3, r0
 2653 01a6 9BB2     		uxth	r3, r3
 154:lvgl/src/widgets/lv_btnmatrix.c **** 
 2654              		.loc 1 154 97 view .LVU887
 2655 01a8 013B     		subs	r3, r3, #1
 2656 01aa 98B2     		uxth	r0, r3
 154:lvgl/src/widgets/lv_btnmatrix.c **** 
 2657              		.loc 1 154 24 view .LVU888
 2658 01ac 1BB2     		sxth	r3, r3
 2659              	.LVL243:
 157:lvgl/src/widgets/lv_btnmatrix.c ****                 lv_coord_t tmp = btn_x1;
 2660              		.loc 1 157 13 is_stmt 1 view .LVU889
 157:lvgl/src/widgets/lv_btnmatrix.c ****                 lv_coord_t tmp = btn_x1;
 2661              		.loc 1 157 15 is_stmt 0 view .LVU890
 2662 01ae 069A     		ldr	r2, [sp, #24]
 2663 01b0 012A     		cmp	r2, #1
 2664 01b2 CED1     		bne	.L122
 2665              	.LBB135:
 158:lvgl/src/widgets/lv_btnmatrix.c ****                 btn_x1 = btn_x2;
 2666              		.loc 1 158 17 is_stmt 1 view .LVU891
 2667              	.LVL244:
 159:lvgl/src/widgets/lv_btnmatrix.c ****                 btn_x2 = tmp;
 2668              		.loc 1 159 17 view .LVU892
 160:lvgl/src/widgets/lv_btnmatrix.c **** 
 2669              		.loc 1 160 17 view .LVU893
 162:lvgl/src/widgets/lv_btnmatrix.c ****                 btn_x2 = max_w - btn_x2;
 2670              		.loc 1 162 17 view .LVU894
 162:lvgl/src/widgets/lv_btnmatrix.c ****                 btn_x2 = max_w - btn_x2;
 2671              		.loc 1 162 32 is_stmt 0 view .LVU895
 2672 01b4 AAEB0000 		sub	r0, r10, r0
 2673              	.LVL245:
 162:lvgl/src/widgets/lv_btnmatrix.c ****                 btn_x2 = max_w - btn_x2;
 2674              		.loc 1 162 24 view .LVU896
 2675 01b8 01B2     		sxth	r1, r0
ARM GAS  /var/folders/21/t9g5rlb91ys800n5npymflf80000gn/T//ccSbQiFP.s 			page 92


 2676              	.LVL246:
 163:lvgl/src/widgets/lv_btnmatrix.c ****             }
 2677              		.loc 1 163 17 is_stmt 1 view .LVU897
 163:lvgl/src/widgets/lv_btnmatrix.c ****             }
 2678              		.loc 1 163 32 is_stmt 0 view .LVU898
 2679 01ba AAEB0C02 		sub	r2, r10, ip
 163:lvgl/src/widgets/lv_btnmatrix.c ****             }
 2680              		.loc 1 163 24 view .LVU899
 2681 01be 13B2     		sxth	r3, r2
 2682              	.LVL247:
 163:lvgl/src/widgets/lv_btnmatrix.c ****             }
 2683              		.loc 1 163 24 view .LVU900
 2684 01c0 C7E7     		b	.L122
 2685              	.LVL248:
 2686              	.L133:
 163:lvgl/src/widgets/lv_btnmatrix.c ****             }
 2687              		.loc 1 163 24 view .LVU901
 2688              	.LBE135:
 2689              	.LBE136:
 174:lvgl/src/widgets/lv_btnmatrix.c ****     }
 2690              		.loc 1 174 27 view .LVU902
 2691 01c2 DDF81CE0 		ldr	lr, [sp, #28]
 2692 01c6 DDF820A0 		ldr	r10, [sp, #32]
 174:lvgl/src/widgets/lv_btnmatrix.c ****     }
 2693              		.loc 1 174 9 is_stmt 1 view .LVU903
 174:lvgl/src/widgets/lv_btnmatrix.c ****     }
 2694              		.loc 1 174 27 is_stmt 0 view .LVU904
 2695 01ca 0135     		adds	r5, r5, #1
 174:lvgl/src/widgets/lv_btnmatrix.c ****     }
 2696              		.loc 1 174 17 view .LVU905
 2697 01cc 0AEB850A 		add	r10, r10, r5, lsl #2
 2698              	.LVL249:
 174:lvgl/src/widgets/lv_btnmatrix.c ****     }
 2699              		.loc 1 174 17 view .LVU906
 2700 01d0 79E7     		b	.L119
 2701              	.LVL250:
 2702              	.L131:
 174:lvgl/src/widgets/lv_btnmatrix.c ****     }
 2703              		.loc 1 174 17 view .LVU907
 2704              	.LBE137:
 179:lvgl/src/widgets/lv_btnmatrix.c **** 
 2705              		.loc 1 179 5 is_stmt 1 view .LVU908
 2706 01d2 3846     		mov	r0, r7
 2707 01d4 FFF7FEFF 		bl	lv_obj_refresh_ext_draw_size
 2708              	.LVL251:
 181:lvgl/src/widgets/lv_btnmatrix.c **** }
 2709              		.loc 1 181 5 view .LVU909
 2710 01d8 3846     		mov	r0, r7
 2711 01da FFF7FEFF 		bl	lv_obj_invalidate
 2712              	.LVL252:
 182:lvgl/src/widgets/lv_btnmatrix.c **** 
 2713              		.loc 1 182 1 is_stmt 0 view .LVU910
 2714 01de 0FB0     		add	sp, sp, #60
 2715              	.LCFI21:
 2716              		.cfi_def_cfa_offset 36
 2717              		@ sp needed
 2718 01e0 BDE8F08F 		pop	{r4, r5, r6, r7, r8, r9, r10, fp, pc}
ARM GAS  /var/folders/21/t9g5rlb91ys800n5npymflf80000gn/T//ccSbQiFP.s 			page 93


 2719              	.LVL253:
 2720              	.L128:
 2721              	.LCFI22:
 2722              		.cfi_def_cfa_offset 0
 2723              		.cfi_restore 4
 2724              		.cfi_restore 5
 2725              		.cfi_restore 6
 2726              		.cfi_restore 7
 2727              		.cfi_restore 8
 2728              		.cfi_restore 9
 2729              		.cfi_restore 10
 2730              		.cfi_restore 11
 2731              		.cfi_restore 14
 182:lvgl/src/widgets/lv_btnmatrix.c **** 
 2732              		.loc 1 182 1 view .LVU911
 2733 01e4 7047     		bx	lr
 2734              	.L135:
 2735 01e6 00BF     		.align	2
 2736              	.L134:
 2737 01e8 00000000 		.word	.LC0
 2738              		.cfi_endproc
 2739              	.LFE162:
 2741              		.section	.text.lv_btnmatrix_constructor,"ax",%progbits
 2742              		.align	1
 2743              		.syntax unified
 2744              		.thumb
 2745              		.thumb_func
 2747              	lv_btnmatrix_constructor:
 2748              	.LVL254:
 2749              	.LFB176:
 375:lvgl/src/widgets/lv_btnmatrix.c ****     LV_UNUSED(class_p);
 2750              		.loc 1 375 1 is_stmt 1 view -0
 2751              		.cfi_startproc
 2752              		@ args = 0, pretend = 0, frame = 0
 2753              		@ frame_needed = 0, uses_anonymous_args = 0
 375:lvgl/src/widgets/lv_btnmatrix.c ****     LV_UNUSED(class_p);
 2754              		.loc 1 375 1 is_stmt 0 view .LVU913
 2755 0000 08B5     		push	{r3, lr}
 2756              	.LCFI23:
 2757              		.cfi_def_cfa_offset 8
 2758              		.cfi_offset 3, -8
 2759              		.cfi_offset 14, -4
 2760 0002 0846     		mov	r0, r1
 2761              	.LVL255:
 376:lvgl/src/widgets/lv_btnmatrix.c ****     LV_TRACE_OBJ_CREATE("begin");
 2762              		.loc 1 376 5 is_stmt 1 view .LVU914
 377:lvgl/src/widgets/lv_btnmatrix.c ****     lv_btnmatrix_t * btnm = (lv_btnmatrix_t *)obj;
 2763              		.loc 1 377 33 view .LVU915
 378:lvgl/src/widgets/lv_btnmatrix.c ****     btnm->btn_cnt        = 0;
 2764              		.loc 1 378 5 view .LVU916
 379:lvgl/src/widgets/lv_btnmatrix.c ****     btnm->row_cnt        = 0;
 2765              		.loc 1 379 5 view .LVU917
 379:lvgl/src/widgets/lv_btnmatrix.c ****     btnm->row_cnt        = 0;
 2766              		.loc 1 379 26 is_stmt 0 view .LVU918
 2767 0004 0023     		movs	r3, #0
 2768 0006 0B86     		strh	r3, [r1, #48]	@ movhi
 380:lvgl/src/widgets/lv_btnmatrix.c ****     btnm->btn_id_sel     = LV_BTNMATRIX_BTN_NONE;
ARM GAS  /var/folders/21/t9g5rlb91ys800n5npymflf80000gn/T//ccSbQiFP.s 			page 94


 2769              		.loc 1 380 5 is_stmt 1 view .LVU919
 380:lvgl/src/widgets/lv_btnmatrix.c ****     btnm->btn_id_sel     = LV_BTNMATRIX_BTN_NONE;
 2770              		.loc 1 380 26 is_stmt 0 view .LVU920
 2771 0008 4B86     		strh	r3, [r1, #50]	@ movhi
 381:lvgl/src/widgets/lv_btnmatrix.c ****     btnm->button_areas   = NULL;
 2772              		.loc 1 381 5 is_stmt 1 view .LVU921
 381:lvgl/src/widgets/lv_btnmatrix.c ****     btnm->button_areas   = NULL;
 2773              		.loc 1 381 26 is_stmt 0 view .LVU922
 2774 000a 4FF6FF72 		movw	r2, #65535
 2775 000e 8A86     		strh	r2, [r1, #52]	@ movhi
 382:lvgl/src/widgets/lv_btnmatrix.c ****     btnm->ctrl_bits      = NULL;
 2776              		.loc 1 382 5 is_stmt 1 view .LVU923
 382:lvgl/src/widgets/lv_btnmatrix.c ****     btnm->ctrl_bits      = NULL;
 2777              		.loc 1 382 26 is_stmt 0 view .LVU924
 2778 0010 8B62     		str	r3, [r1, #40]
 383:lvgl/src/widgets/lv_btnmatrix.c ****     btnm->map_p          = NULL;
 2779              		.loc 1 383 5 is_stmt 1 view .LVU925
 383:lvgl/src/widgets/lv_btnmatrix.c ****     btnm->map_p          = NULL;
 2780              		.loc 1 383 26 is_stmt 0 view .LVU926
 2781 0012 CB62     		str	r3, [r1, #44]
 384:lvgl/src/widgets/lv_btnmatrix.c ****     btnm->one_check      = 0;
 2782              		.loc 1 384 5 is_stmt 1 view .LVU927
 384:lvgl/src/widgets/lv_btnmatrix.c ****     btnm->one_check      = 0;
 2783              		.loc 1 384 26 is_stmt 0 view .LVU928
 2784 0014 4B62     		str	r3, [r1, #36]
 385:lvgl/src/widgets/lv_btnmatrix.c **** 
 2785              		.loc 1 385 5 is_stmt 1 view .LVU929
 385:lvgl/src/widgets/lv_btnmatrix.c **** 
 2786              		.loc 1 385 26 is_stmt 0 view .LVU930
 2787 0016 91F83620 		ldrb	r2, [r1, #54]	@ zero_extendqisi2
 2788 001a 63F30002 		bfi	r2, r3, #0, #1
 2789 001e 81F83620 		strb	r2, [r1, #54]
 387:lvgl/src/widgets/lv_btnmatrix.c **** 
 2790              		.loc 1 387 5 is_stmt 1 view .LVU931
 2791 0022 0249     		ldr	r1, .L138
 2792              	.LVL256:
 387:lvgl/src/widgets/lv_btnmatrix.c **** 
 2793              		.loc 1 387 5 is_stmt 0 view .LVU932
 2794 0024 FFF7FEFF 		bl	lv_btnmatrix_set_map
 2795              	.LVL257:
 389:lvgl/src/widgets/lv_btnmatrix.c **** }
 2796              		.loc 1 389 36 is_stmt 1 view .LVU933
 390:lvgl/src/widgets/lv_btnmatrix.c **** 
 2797              		.loc 1 390 1 is_stmt 0 view .LVU934
 2798 0028 08BD     		pop	{r3, pc}
 2799              	.L139:
 2800 002a 00BF     		.align	2
 2801              	.L138:
 2802 002c 00000000 		.word	lv_btnmatrix_def_map
 2803              		.cfi_endproc
 2804              	.LFE176:
 2806              		.section	.text.lv_btnmatrix_set_ctrl_map,"ax",%progbits
 2807              		.align	1
 2808              		.global	lv_btnmatrix_set_ctrl_map
 2809              		.syntax unified
 2810              		.thumb
 2811              		.thumb_func
ARM GAS  /var/folders/21/t9g5rlb91ys800n5npymflf80000gn/T//ccSbQiFP.s 			page 95


 2813              	lv_btnmatrix_set_ctrl_map:
 2814              	.LVL258:
 2815              	.LFB163:
 185:lvgl/src/widgets/lv_btnmatrix.c ****     LV_ASSERT_OBJ(obj, MY_CLASS);
 2816              		.loc 1 185 1 is_stmt 1 view -0
 2817              		.cfi_startproc
 2818              		@ args = 0, pretend = 0, frame = 0
 2819              		@ frame_needed = 0, uses_anonymous_args = 0
 185:lvgl/src/widgets/lv_btnmatrix.c ****     LV_ASSERT_OBJ(obj, MY_CLASS);
 2820              		.loc 1 185 1 is_stmt 0 view .LVU936
 2821 0000 10B5     		push	{r4, lr}
 2822              	.LCFI24:
 2823              		.cfi_def_cfa_offset 8
 2824              		.cfi_offset 4, -8
 2825              		.cfi_offset 14, -4
 2826 0002 0446     		mov	r4, r0
 186:lvgl/src/widgets/lv_btnmatrix.c **** 
 2827              		.loc 1 186 5 is_stmt 1 view .LVU937
 186:lvgl/src/widgets/lv_btnmatrix.c **** 
 2828              		.loc 1 186 5 view .LVU938
 186:lvgl/src/widgets/lv_btnmatrix.c **** 
 2829              		.loc 1 186 5 view .LVU939
 188:lvgl/src/widgets/lv_btnmatrix.c ****     lv_memcpy(btnm->ctrl_bits, ctrl_map, sizeof(lv_btnmatrix_ctrl_t) * btnm->btn_cnt);
 2830              		.loc 1 188 5 view .LVU940
 2831              	.LVL259:
 189:lvgl/src/widgets/lv_btnmatrix.c **** 
 2832              		.loc 1 189 5 view .LVU941
 189:lvgl/src/widgets/lv_btnmatrix.c **** 
 2833              		.loc 1 189 76 is_stmt 0 view .LVU942
 2834 0004 028E     		ldrh	r2, [r0, #48]
 189:lvgl/src/widgets/lv_btnmatrix.c **** 
 2835              		.loc 1 189 5 view .LVU943
 2836 0006 5200     		lsls	r2, r2, #1
 2837 0008 C06A     		ldr	r0, [r0, #44]
 2838              	.LVL260:
 189:lvgl/src/widgets/lv_btnmatrix.c **** 
 2839              		.loc 1 189 5 view .LVU944
 2840 000a FFF7FEFF 		bl	lv_memcpy
 2841              	.LVL261:
 191:lvgl/src/widgets/lv_btnmatrix.c **** }
 2842              		.loc 1 191 5 is_stmt 1 view .LVU945
 2843 000e 616A     		ldr	r1, [r4, #36]
 2844 0010 2046     		mov	r0, r4
 2845 0012 FFF7FEFF 		bl	lv_btnmatrix_set_map
 2846              	.LVL262:
 192:lvgl/src/widgets/lv_btnmatrix.c **** 
 2847              		.loc 1 192 1 is_stmt 0 view .LVU946
 2848 0016 10BD     		pop	{r4, pc}
 192:lvgl/src/widgets/lv_btnmatrix.c **** 
 2849              		.loc 1 192 1 view .LVU947
 2850              		.cfi_endproc
 2851              	.LFE163:
 2853              		.section	.text.lv_btnmatrix_set_selected_btn,"ax",%progbits
 2854              		.align	1
 2855              		.global	lv_btnmatrix_set_selected_btn
 2856              		.syntax unified
 2857              		.thumb
ARM GAS  /var/folders/21/t9g5rlb91ys800n5npymflf80000gn/T//ccSbQiFP.s 			page 96


 2858              		.thumb_func
 2860              	lv_btnmatrix_set_selected_btn:
 2861              	.LVL263:
 2862              	.LFB164:
 195:lvgl/src/widgets/lv_btnmatrix.c ****     LV_ASSERT_OBJ(obj, MY_CLASS);
 2863              		.loc 1 195 1 is_stmt 1 view -0
 2864              		.cfi_startproc
 2865              		@ args = 0, pretend = 0, frame = 0
 2866              		@ frame_needed = 0, uses_anonymous_args = 0
 195:lvgl/src/widgets/lv_btnmatrix.c ****     LV_ASSERT_OBJ(obj, MY_CLASS);
 2867              		.loc 1 195 1 is_stmt 0 view .LVU949
 2868 0000 38B5     		push	{r3, r4, r5, lr}
 2869              	.LCFI25:
 2870              		.cfi_def_cfa_offset 16
 2871              		.cfi_offset 3, -16
 2872              		.cfi_offset 4, -12
 2873              		.cfi_offset 5, -8
 2874              		.cfi_offset 14, -4
 2875 0002 0446     		mov	r4, r0
 2876 0004 0D46     		mov	r5, r1
 196:lvgl/src/widgets/lv_btnmatrix.c **** 
 2877              		.loc 1 196 5 is_stmt 1 view .LVU950
 196:lvgl/src/widgets/lv_btnmatrix.c **** 
 2878              		.loc 1 196 5 view .LVU951
 196:lvgl/src/widgets/lv_btnmatrix.c **** 
 2879              		.loc 1 196 5 view .LVU952
 198:lvgl/src/widgets/lv_btnmatrix.c **** 
 2880              		.loc 1 198 5 view .LVU953
 2881              	.LVL264:
 200:lvgl/src/widgets/lv_btnmatrix.c **** 
 2882              		.loc 1 200 5 view .LVU954
 200:lvgl/src/widgets/lv_btnmatrix.c **** 
 2883              		.loc 1 200 22 is_stmt 0 view .LVU955
 2884 0006 038E     		ldrh	r3, [r0, #48]
 200:lvgl/src/widgets/lv_btnmatrix.c **** 
 2885              		.loc 1 200 7 view .LVU956
 2886 0008 8B42     		cmp	r3, r1
 2887 000a 03D8     		bhi	.L143
 200:lvgl/src/widgets/lv_btnmatrix.c **** 
 2888              		.loc 1 200 32 discriminator 1 view .LVU957
 2889 000c 4FF6FF73 		movw	r3, #65535
 2890 0010 9942     		cmp	r1, r3
 2891 0012 08D1     		bne	.L142
 2892              	.L143:
 202:lvgl/src/widgets/lv_btnmatrix.c ****     btnm->btn_id_sel = btn_id;
 2893              		.loc 1 202 5 is_stmt 1 view .LVU958
 2894 0014 A18E     		ldrh	r1, [r4, #52]
 2895              	.LVL265:
 202:lvgl/src/widgets/lv_btnmatrix.c ****     btnm->btn_id_sel = btn_id;
 2896              		.loc 1 202 5 is_stmt 0 view .LVU959
 2897 0016 2046     		mov	r0, r4
 2898              	.LVL266:
 202:lvgl/src/widgets/lv_btnmatrix.c ****     btnm->btn_id_sel = btn_id;
 2899              		.loc 1 202 5 view .LVU960
 2900 0018 FFF7FEFF 		bl	invalidate_button_area
 2901              	.LVL267:
 203:lvgl/src/widgets/lv_btnmatrix.c ****     invalidate_button_area(obj, btn_id);
ARM GAS  /var/folders/21/t9g5rlb91ys800n5npymflf80000gn/T//ccSbQiFP.s 			page 97


 2902              		.loc 1 203 5 is_stmt 1 view .LVU961
 203:lvgl/src/widgets/lv_btnmatrix.c ****     invalidate_button_area(obj, btn_id);
 2903              		.loc 1 203 22 is_stmt 0 view .LVU962
 2904 001c A586     		strh	r5, [r4, #52]	@ movhi
 204:lvgl/src/widgets/lv_btnmatrix.c **** }
 2905              		.loc 1 204 5 is_stmt 1 view .LVU963
 2906 001e 2946     		mov	r1, r5
 2907 0020 2046     		mov	r0, r4
 2908 0022 FFF7FEFF 		bl	invalidate_button_area
 2909              	.LVL268:
 2910              	.L142:
 205:lvgl/src/widgets/lv_btnmatrix.c **** 
 2911              		.loc 1 205 1 is_stmt 0 view .LVU964
 2912 0026 38BD     		pop	{r3, r4, r5, pc}
 205:lvgl/src/widgets/lv_btnmatrix.c **** 
 2913              		.loc 1 205 1 view .LVU965
 2914              		.cfi_endproc
 2915              	.LFE164:
 2917              		.section	.text.lv_btnmatrix_clear_btn_ctrl,"ax",%progbits
 2918              		.align	1
 2919              		.global	lv_btnmatrix_clear_btn_ctrl
 2920              		.syntax unified
 2921              		.thumb
 2922              		.thumb_func
 2924              	lv_btnmatrix_clear_btn_ctrl:
 2925              	.LVL269:
 2926              	.LFB166:
 241:lvgl/src/widgets/lv_btnmatrix.c ****     LV_ASSERT_OBJ(obj, MY_CLASS);
 2927              		.loc 1 241 1 is_stmt 1 view -0
 2928              		.cfi_startproc
 2929              		@ args = 0, pretend = 0, frame = 0
 2930              		@ frame_needed = 0, uses_anonymous_args = 0
 242:lvgl/src/widgets/lv_btnmatrix.c **** 
 2931              		.loc 1 242 5 view .LVU967
 242:lvgl/src/widgets/lv_btnmatrix.c **** 
 2932              		.loc 1 242 5 view .LVU968
 242:lvgl/src/widgets/lv_btnmatrix.c **** 
 2933              		.loc 1 242 5 view .LVU969
 244:lvgl/src/widgets/lv_btnmatrix.c **** 
 2934              		.loc 1 244 5 view .LVU970
 246:lvgl/src/widgets/lv_btnmatrix.c **** 
 2935              		.loc 1 246 5 view .LVU971
 246:lvgl/src/widgets/lv_btnmatrix.c **** 
 2936              		.loc 1 246 22 is_stmt 0 view .LVU972
 2937 0000 038E     		ldrh	r3, [r0, #48]
 246:lvgl/src/widgets/lv_btnmatrix.c **** 
 2938              		.loc 1 246 7 view .LVU973
 2939 0002 8B42     		cmp	r3, r1
 2940 0004 24D9     		bls	.L150
 241:lvgl/src/widgets/lv_btnmatrix.c ****     LV_ASSERT_OBJ(obj, MY_CLASS);
 2941              		.loc 1 241 1 view .LVU974
 2942 0006 70B5     		push	{r4, r5, r6, lr}
 2943              	.LCFI26:
 2944              		.cfi_def_cfa_offset 16
 2945              		.cfi_offset 4, -16
 2946              		.cfi_offset 5, -12
 2947              		.cfi_offset 6, -8
ARM GAS  /var/folders/21/t9g5rlb91ys800n5npymflf80000gn/T//ccSbQiFP.s 			page 98


 2948              		.cfi_offset 14, -4
 2949 0008 0546     		mov	r5, r0
 2950 000a 0C46     		mov	r4, r1
 2951 000c 1646     		mov	r6, r2
 249:lvgl/src/widgets/lv_btnmatrix.c ****         if(lv_obj_has_flag(obj, LV_OBJ_FLAG_HIDDEN)) lv_obj_clear_flag(obj, LV_OBJ_FLAG_HIDDEN);
 2952              		.loc 1 249 5 is_stmt 1 view .LVU975
 249:lvgl/src/widgets/lv_btnmatrix.c ****         if(lv_obj_has_flag(obj, LV_OBJ_FLAG_HIDDEN)) lv_obj_clear_flag(obj, LV_OBJ_FLAG_HIDDEN);
 2953              		.loc 1 249 7 is_stmt 0 view .LVU976
 2954 000e 12F0100F 		tst	r2, #16
 2955 0012 0FD1     		bne	.L153
 2956              	.LVL270:
 2957              	.L148:
 253:lvgl/src/widgets/lv_btnmatrix.c ****     invalidate_button_area(obj, btn_id);
 2958              		.loc 1 253 5 is_stmt 1 view .LVU977
 253:lvgl/src/widgets/lv_btnmatrix.c ****     invalidate_button_area(obj, btn_id);
 2959              		.loc 1 253 9 is_stmt 0 view .LVU978
 2960 0014 E96A     		ldr	r1, [r5, #44]
 253:lvgl/src/widgets/lv_btnmatrix.c ****     invalidate_button_area(obj, btn_id);
 2961              		.loc 1 253 20 view .LVU979
 2962 0016 31F81430 		ldrh	r3, [r1, r4, lsl #1]
 253:lvgl/src/widgets/lv_btnmatrix.c ****     invalidate_button_area(obj, btn_id);
 2963              		.loc 1 253 29 view .LVU980
 2964 001a F243     		mvns	r2, r6
 2965 001c 12B2     		sxth	r2, r2
 2966 001e 1340     		ands	r3, r3, r2
 2967 0020 21F81430 		strh	r3, [r1, r4, lsl #1]	@ movhi
 254:lvgl/src/widgets/lv_btnmatrix.c **** 
 2968              		.loc 1 254 5 is_stmt 1 view .LVU981
 2969 0024 2146     		mov	r1, r4
 2970 0026 2846     		mov	r0, r5
 2971 0028 FFF7FEFF 		bl	invalidate_button_area
 2972              	.LVL271:
 256:lvgl/src/widgets/lv_btnmatrix.c ****         lv_obj_refresh_ext_draw_size(obj);
 2973              		.loc 1 256 5 view .LVU982
 256:lvgl/src/widgets/lv_btnmatrix.c ****         lv_obj_refresh_ext_draw_size(obj);
 2974              		.loc 1 256 7 is_stmt 0 view .LVU983
 2975 002c 16F4806F 		tst	r6, #1024
 2976 0030 0AD1     		bne	.L154
 2977              	.L146:
 259:lvgl/src/widgets/lv_btnmatrix.c **** 
 2978              		.loc 1 259 1 view .LVU984
 2979 0032 70BD     		pop	{r4, r5, r6, pc}
 2980              	.LVL272:
 2981              	.L153:
 250:lvgl/src/widgets/lv_btnmatrix.c ****     }
 2982              		.loc 1 250 9 is_stmt 1 view .LVU985
 250:lvgl/src/widgets/lv_btnmatrix.c ****     }
 2983              		.loc 1 250 12 is_stmt 0 view .LVU986
 2984 0034 0121     		movs	r1, #1
 2985              	.LVL273:
 250:lvgl/src/widgets/lv_btnmatrix.c ****     }
 2986              		.loc 1 250 12 view .LVU987
 2987 0036 FFF7FEFF 		bl	lv_obj_has_flag
 2988              	.LVL274:
 250:lvgl/src/widgets/lv_btnmatrix.c ****     }
 2989              		.loc 1 250 11 view .LVU988
 2990 003a 0028     		cmp	r0, #0
ARM GAS  /var/folders/21/t9g5rlb91ys800n5npymflf80000gn/T//ccSbQiFP.s 			page 99


 2991 003c EAD0     		beq	.L148
 250:lvgl/src/widgets/lv_btnmatrix.c ****     }
 2992              		.loc 1 250 54 is_stmt 1 discriminator 1 view .LVU989
 2993 003e 0121     		movs	r1, #1
 2994 0040 2846     		mov	r0, r5
 2995 0042 FFF7FEFF 		bl	lv_obj_clear_flag
 2996              	.LVL275:
 2997 0046 E5E7     		b	.L148
 2998              	.L154:
 257:lvgl/src/widgets/lv_btnmatrix.c ****     }
 2999              		.loc 1 257 9 view .LVU990
 3000 0048 2846     		mov	r0, r5
 3001 004a FFF7FEFF 		bl	lv_obj_refresh_ext_draw_size
 3002              	.LVL276:
 3003 004e F0E7     		b	.L146
 3004              	.LVL277:
 3005              	.L150:
 3006              	.LCFI27:
 3007              		.cfi_def_cfa_offset 0
 3008              		.cfi_restore 4
 3009              		.cfi_restore 5
 3010              		.cfi_restore 6
 3011              		.cfi_restore 14
 257:lvgl/src/widgets/lv_btnmatrix.c ****     }
 3012              		.loc 1 257 9 is_stmt 0 view .LVU991
 3013 0050 7047     		bx	lr
 3014              		.cfi_endproc
 3015              	.LFE166:
 3017              		.section	.text.lv_btnmatrix_clear_btn_ctrl_all,"ax",%progbits
 3018              		.align	1
 3019              		.global	lv_btnmatrix_clear_btn_ctrl_all
 3020              		.syntax unified
 3021              		.thumb
 3022              		.thumb_func
 3024              	lv_btnmatrix_clear_btn_ctrl_all:
 3025              	.LVL278:
 3026              	.LFB168:
 273:lvgl/src/widgets/lv_btnmatrix.c ****     LV_ASSERT_OBJ(obj, MY_CLASS);
 3027              		.loc 1 273 1 is_stmt 1 view -0
 3028              		.cfi_startproc
 3029              		@ args = 0, pretend = 0, frame = 0
 3030              		@ frame_needed = 0, uses_anonymous_args = 0
 273:lvgl/src/widgets/lv_btnmatrix.c ****     LV_ASSERT_OBJ(obj, MY_CLASS);
 3031              		.loc 1 273 1 is_stmt 0 view .LVU993
 3032 0000 70B5     		push	{r4, r5, r6, lr}
 3033              	.LCFI28:
 3034              		.cfi_def_cfa_offset 16
 3035              		.cfi_offset 4, -16
 3036              		.cfi_offset 5, -12
 3037              		.cfi_offset 6, -8
 3038              		.cfi_offset 14, -4
 3039 0002 0546     		mov	r5, r0
 3040 0004 0E46     		mov	r6, r1
 274:lvgl/src/widgets/lv_btnmatrix.c **** 
 3041              		.loc 1 274 5 is_stmt 1 view .LVU994
 274:lvgl/src/widgets/lv_btnmatrix.c **** 
 3042              		.loc 1 274 5 view .LVU995
ARM GAS  /var/folders/21/t9g5rlb91ys800n5npymflf80000gn/T//ccSbQiFP.s 			page 100


 274:lvgl/src/widgets/lv_btnmatrix.c **** 
 3043              		.loc 1 274 5 view .LVU996
 276:lvgl/src/widgets/lv_btnmatrix.c ****     uint16_t i;
 3044              		.loc 1 276 5 view .LVU997
 3045              	.LVL279:
 276:lvgl/src/widgets/lv_btnmatrix.c ****     uint16_t i;
 3046              		.loc 1 276 51 view .LVU998
 277:lvgl/src/widgets/lv_btnmatrix.c ****     for(i = 0; i < btnm->btn_cnt; i++) {
 3047              		.loc 1 277 5 view .LVU999
 278:lvgl/src/widgets/lv_btnmatrix.c ****         lv_btnmatrix_clear_btn_ctrl(obj, i, ctrl);
 3048              		.loc 1 278 5 view .LVU1000
 278:lvgl/src/widgets/lv_btnmatrix.c ****         lv_btnmatrix_clear_btn_ctrl(obj, i, ctrl);
 3049              		.loc 1 278 11 is_stmt 0 view .LVU1001
 3050 0006 0024     		movs	r4, #0
 278:lvgl/src/widgets/lv_btnmatrix.c ****         lv_btnmatrix_clear_btn_ctrl(obj, i, ctrl);
 3051              		.loc 1 278 5 view .LVU1002
 3052 0008 06E0     		b	.L156
 3053              	.LVL280:
 3054              	.L157:
 279:lvgl/src/widgets/lv_btnmatrix.c ****     }
 3055              		.loc 1 279 9 is_stmt 1 discriminator 3 view .LVU1003
 3056 000a 3246     		mov	r2, r6
 3057 000c 2146     		mov	r1, r4
 3058 000e 2846     		mov	r0, r5
 3059 0010 FFF7FEFF 		bl	lv_btnmatrix_clear_btn_ctrl
 3060              	.LVL281:
 278:lvgl/src/widgets/lv_btnmatrix.c ****         lv_btnmatrix_clear_btn_ctrl(obj, i, ctrl);
 3061              		.loc 1 278 36 discriminator 3 view .LVU1004
 3062 0014 0134     		adds	r4, r4, #1
 3063              	.LVL282:
 278:lvgl/src/widgets/lv_btnmatrix.c ****         lv_btnmatrix_clear_btn_ctrl(obj, i, ctrl);
 3064              		.loc 1 278 36 is_stmt 0 discriminator 3 view .LVU1005
 3065 0016 A4B2     		uxth	r4, r4
 3066              	.LVL283:
 3067              	.L156:
 278:lvgl/src/widgets/lv_btnmatrix.c ****         lv_btnmatrix_clear_btn_ctrl(obj, i, ctrl);
 3068              		.loc 1 278 18 is_stmt 1 discriminator 1 view .LVU1006
 278:lvgl/src/widgets/lv_btnmatrix.c ****         lv_btnmatrix_clear_btn_ctrl(obj, i, ctrl);
 3069              		.loc 1 278 24 is_stmt 0 discriminator 1 view .LVU1007
 3070 0018 2B8E     		ldrh	r3, [r5, #48]
 278:lvgl/src/widgets/lv_btnmatrix.c ****         lv_btnmatrix_clear_btn_ctrl(obj, i, ctrl);
 3071              		.loc 1 278 18 discriminator 1 view .LVU1008
 3072 001a A342     		cmp	r3, r4
 3073 001c F5D8     		bhi	.L157
 281:lvgl/src/widgets/lv_btnmatrix.c **** 
 3074              		.loc 1 281 1 view .LVU1009
 3075 001e 70BD     		pop	{r4, r5, r6, pc}
 281:lvgl/src/widgets/lv_btnmatrix.c **** 
 3076              		.loc 1 281 1 view .LVU1010
 3077              		.cfi_endproc
 3078              	.LFE168:
 3080              		.section	.text.lv_btnmatrix_set_btn_ctrl,"ax",%progbits
 3081              		.align	1
 3082              		.global	lv_btnmatrix_set_btn_ctrl
 3083              		.syntax unified
 3084              		.thumb
 3085              		.thumb_func
ARM GAS  /var/folders/21/t9g5rlb91ys800n5npymflf80000gn/T//ccSbQiFP.s 			page 101


 3087              	lv_btnmatrix_set_btn_ctrl:
 3088              	.LVL284:
 3089              	.LFB165:
 208:lvgl/src/widgets/lv_btnmatrix.c ****     LV_ASSERT_OBJ(obj, MY_CLASS);
 3090              		.loc 1 208 1 is_stmt 1 view -0
 3091              		.cfi_startproc
 3092              		@ args = 0, pretend = 0, frame = 0
 3093              		@ frame_needed = 0, uses_anonymous_args = 0
 209:lvgl/src/widgets/lv_btnmatrix.c **** 
 3094              		.loc 1 209 5 view .LVU1012
 209:lvgl/src/widgets/lv_btnmatrix.c **** 
 3095              		.loc 1 209 5 view .LVU1013
 209:lvgl/src/widgets/lv_btnmatrix.c **** 
 3096              		.loc 1 209 5 view .LVU1014
 211:lvgl/src/widgets/lv_btnmatrix.c **** 
 3097              		.loc 1 211 5 view .LVU1015
 213:lvgl/src/widgets/lv_btnmatrix.c **** 
 3098              		.loc 1 213 5 view .LVU1016
 213:lvgl/src/widgets/lv_btnmatrix.c **** 
 3099              		.loc 1 213 22 is_stmt 0 view .LVU1017
 3100 0000 038E     		ldrh	r3, [r0, #48]
 213:lvgl/src/widgets/lv_btnmatrix.c **** 
 3101              		.loc 1 213 7 view .LVU1018
 3102 0002 8B42     		cmp	r3, r1
 3103 0004 3ED9     		bls	.L170
 208:lvgl/src/widgets/lv_btnmatrix.c ****     LV_ASSERT_OBJ(obj, MY_CLASS);
 3104              		.loc 1 208 1 view .LVU1019
 3105 0006 70B5     		push	{r4, r5, r6, lr}
 3106              	.LCFI29:
 3107              		.cfi_def_cfa_offset 16
 3108              		.cfi_offset 4, -16
 3109              		.cfi_offset 5, -12
 3110              		.cfi_offset 6, -8
 3111              		.cfi_offset 14, -4
 3112 0008 0446     		mov	r4, r0
 3113 000a 0D46     		mov	r5, r1
 3114 000c 1646     		mov	r6, r2
 215:lvgl/src/widgets/lv_btnmatrix.c ****         lv_btnmatrix_clear_btn_ctrl_all(obj, LV_BTNMATRIX_CTRL_CHECKED);
 3115              		.loc 1 215 5 is_stmt 1 view .LVU1020
 215:lvgl/src/widgets/lv_btnmatrix.c ****         lv_btnmatrix_clear_btn_ctrl_all(obj, LV_BTNMATRIX_CTRL_CHECKED);
 3116              		.loc 1 215 8 is_stmt 0 view .LVU1021
 3117 000e 90F83630 		ldrb	r3, [r0, #54]	@ zero_extendqisi2
 215:lvgl/src/widgets/lv_btnmatrix.c ****         lv_btnmatrix_clear_btn_ctrl_all(obj, LV_BTNMATRIX_CTRL_CHECKED);
 3118              		.loc 1 215 7 view .LVU1022
 3119 0012 13F0010F 		tst	r3, #1
 3120 0016 02D0     		beq	.L161
 215:lvgl/src/widgets/lv_btnmatrix.c ****         lv_btnmatrix_clear_btn_ctrl_all(obj, LV_BTNMATRIX_CTRL_CHECKED);
 3121              		.loc 1 215 24 discriminator 1 view .LVU1023
 3122 0018 12F4807F 		tst	r2, #256
 3123 001c 08D1     		bne	.L173
 3124              	.LVL285:
 3125              	.L161:
 220:lvgl/src/widgets/lv_btnmatrix.c ****         bool all_buttons_hidden = true;
 3126              		.loc 1 220 5 is_stmt 1 view .LVU1024
 220:lvgl/src/widgets/lv_btnmatrix.c ****         bool all_buttons_hidden = true;
 3127              		.loc 1 220 7 is_stmt 0 view .LVU1025
 3128 001e 16F0100F 		tst	r6, #16
ARM GAS  /var/folders/21/t9g5rlb91ys800n5npymflf80000gn/T//ccSbQiFP.s 			page 102


 3129 0022 1DD0     		beq	.L162
 3130              	.LBB138:
 221:lvgl/src/widgets/lv_btnmatrix.c ****         if(btnm->btn_cnt > 1) {
 3131              		.loc 1 221 9 is_stmt 1 view .LVU1026
 3132              	.LVL286:
 222:lvgl/src/widgets/lv_btnmatrix.c ****             for(uint16_t btn_idx = 0; btn_idx < btnm->btn_cnt; btn_idx++) {
 3133              		.loc 1 222 9 view .LVU1027
 222:lvgl/src/widgets/lv_btnmatrix.c ****             for(uint16_t btn_idx = 0; btn_idx < btnm->btn_cnt; btn_idx++) {
 3134              		.loc 1 222 16 is_stmt 0 view .LVU1028
 3135 0024 218E     		ldrh	r1, [r4, #48]
 222:lvgl/src/widgets/lv_btnmatrix.c ****             for(uint16_t btn_idx = 0; btn_idx < btnm->btn_cnt; btn_idx++) {
 3136              		.loc 1 222 11 view .LVU1029
 3137 0026 0129     		cmp	r1, #1
 3138 0028 16D9     		bls	.L164
 3139              	.LBB139:
 223:lvgl/src/widgets/lv_btnmatrix.c ****                 if(btn_idx == btn_id) continue;
 3140              		.loc 1 223 26 view .LVU1030
 3141 002a 0023     		movs	r3, #0
 3142              	.LBE139:
 221:lvgl/src/widgets/lv_btnmatrix.c ****         if(btnm->btn_cnt > 1) {
 3143              		.loc 1 221 14 view .LVU1031
 3144 002c 0120     		movs	r0, #1
 3145 002e 06E0     		b	.L163
 3146              	.LVL287:
 3147              	.L173:
 221:lvgl/src/widgets/lv_btnmatrix.c ****         if(btnm->btn_cnt > 1) {
 3148              		.loc 1 221 14 view .LVU1032
 3149              	.LBE138:
 216:lvgl/src/widgets/lv_btnmatrix.c ****     }
 3150              		.loc 1 216 9 is_stmt 1 view .LVU1033
 3151 0030 4FF48071 		mov	r1, #256
 3152              	.LVL288:
 216:lvgl/src/widgets/lv_btnmatrix.c ****     }
 3153              		.loc 1 216 9 is_stmt 0 view .LVU1034
 3154 0034 FFF7FEFF 		bl	lv_btnmatrix_clear_btn_ctrl_all
 3155              	.LVL289:
 216:lvgl/src/widgets/lv_btnmatrix.c ****     }
 3156              		.loc 1 216 9 view .LVU1035
 3157 0038 F1E7     		b	.L161
 3158              	.LVL290:
 3159              	.L165:
 3160              	.LBB141:
 3161              	.LBB140:
 223:lvgl/src/widgets/lv_btnmatrix.c ****                 if(btn_idx == btn_id) continue;
 3162              		.loc 1 223 71 is_stmt 1 discriminator 2 view .LVU1036
 3163 003a 0133     		adds	r3, r3, #1
 3164              	.LVL291:
 223:lvgl/src/widgets/lv_btnmatrix.c ****                 if(btn_idx == btn_id) continue;
 3165              		.loc 1 223 71 is_stmt 0 discriminator 2 view .LVU1037
 3166 003c 9BB2     		uxth	r3, r3
 3167              	.LVL292:
 3168              	.L163:
 223:lvgl/src/widgets/lv_btnmatrix.c ****                 if(btn_idx == btn_id) continue;
 3169              		.loc 1 223 47 is_stmt 1 discriminator 1 view .LVU1038
 3170 003e 9942     		cmp	r1, r3
 3171 0040 09D9     		bls	.L174
 224:lvgl/src/widgets/lv_btnmatrix.c ****                 if(!(btnm->ctrl_bits[btn_idx] & LV_BTNMATRIX_CTRL_HIDDEN)) all_buttons_hidden = fal
ARM GAS  /var/folders/21/t9g5rlb91ys800n5npymflf80000gn/T//ccSbQiFP.s 			page 103


 3172              		.loc 1 224 17 view .LVU1039
 224:lvgl/src/widgets/lv_btnmatrix.c ****                 if(!(btnm->ctrl_bits[btn_idx] & LV_BTNMATRIX_CTRL_HIDDEN)) all_buttons_hidden = fal
 3173              		.loc 1 224 19 is_stmt 0 view .LVU1040
 3174 0042 AB42     		cmp	r3, r5
 3175 0044 F9D0     		beq	.L165
 225:lvgl/src/widgets/lv_btnmatrix.c ****             }
 3176              		.loc 1 225 17 is_stmt 1 view .LVU1041
 225:lvgl/src/widgets/lv_btnmatrix.c ****             }
 3177              		.loc 1 225 26 is_stmt 0 view .LVU1042
 3178 0046 E26A     		ldr	r2, [r4, #44]
 225:lvgl/src/widgets/lv_btnmatrix.c ****             }
 3179              		.loc 1 225 37 view .LVU1043
 3180 0048 32F81320 		ldrh	r2, [r2, r3, lsl #1]
 225:lvgl/src/widgets/lv_btnmatrix.c ****             }
 3181              		.loc 1 225 19 view .LVU1044
 3182 004c 12F0100F 		tst	r2, #16
 3183 0050 F3D1     		bne	.L165
 225:lvgl/src/widgets/lv_btnmatrix.c ****             }
 3184              		.loc 1 225 95 view .LVU1045
 3185 0052 0020     		movs	r0, #0
 3186              	.LVL293:
 225:lvgl/src/widgets/lv_btnmatrix.c ****             }
 3187              		.loc 1 225 95 view .LVU1046
 3188 0054 F1E7     		b	.L165
 3189              	.LVL294:
 3190              	.L174:
 225:lvgl/src/widgets/lv_btnmatrix.c ****             }
 3191              		.loc 1 225 95 view .LVU1047
 3192              	.LBE140:
 229:lvgl/src/widgets/lv_btnmatrix.c ****     }
 3193              		.loc 1 229 9 is_stmt 1 view .LVU1048
 229:lvgl/src/widgets/lv_btnmatrix.c ****     }
 3194              		.loc 1 229 11 is_stmt 0 view .LVU1049
 3195 0056 18B1     		cbz	r0, .L162
 3196              	.LVL295:
 3197              	.L164:
 229:lvgl/src/widgets/lv_btnmatrix.c ****     }
 3198              		.loc 1 229 32 is_stmt 1 discriminator 1 view .LVU1050
 3199 0058 0121     		movs	r1, #1
 3200 005a 2046     		mov	r0, r4
 3201 005c FFF7FEFF 		bl	lv_obj_add_flag
 3202              	.LVL296:
 3203              	.L162:
 229:lvgl/src/widgets/lv_btnmatrix.c ****     }
 3204              		.loc 1 229 32 is_stmt 0 discriminator 1 view .LVU1051
 3205              	.LBE141:
 232:lvgl/src/widgets/lv_btnmatrix.c ****     invalidate_button_area(obj, btn_id);
 3206              		.loc 1 232 5 is_stmt 1 view .LVU1052
 232:lvgl/src/widgets/lv_btnmatrix.c ****     invalidate_button_area(obj, btn_id);
 3207              		.loc 1 232 9 is_stmt 0 view .LVU1053
 3208 0060 E26A     		ldr	r2, [r4, #44]
 232:lvgl/src/widgets/lv_btnmatrix.c ****     invalidate_button_area(obj, btn_id);
 3209              		.loc 1 232 20 view .LVU1054
 3210 0062 32F81530 		ldrh	r3, [r2, r5, lsl #1]
 232:lvgl/src/widgets/lv_btnmatrix.c ****     invalidate_button_area(obj, btn_id);
 3211              		.loc 1 232 29 view .LVU1055
 3212 0066 3343     		orrs	r3, r3, r6
ARM GAS  /var/folders/21/t9g5rlb91ys800n5npymflf80000gn/T//ccSbQiFP.s 			page 104


 3213 0068 22F81530 		strh	r3, [r2, r5, lsl #1]	@ movhi
 233:lvgl/src/widgets/lv_btnmatrix.c **** 
 3214              		.loc 1 233 5 is_stmt 1 view .LVU1056
 3215 006c 2946     		mov	r1, r5
 3216 006e 2046     		mov	r0, r4
 3217 0070 FFF7FEFF 		bl	invalidate_button_area
 3218              	.LVL297:
 235:lvgl/src/widgets/lv_btnmatrix.c ****         lv_obj_refresh_ext_draw_size(obj);
 3219              		.loc 1 235 5 view .LVU1057
 235:lvgl/src/widgets/lv_btnmatrix.c ****         lv_obj_refresh_ext_draw_size(obj);
 3220              		.loc 1 235 7 is_stmt 0 view .LVU1058
 3221 0074 16F4806F 		tst	r6, #1024
 3222 0078 00D1     		bne	.L175
 3223              	.L159:
 238:lvgl/src/widgets/lv_btnmatrix.c **** 
 3224              		.loc 1 238 1 view .LVU1059
 3225 007a 70BD     		pop	{r4, r5, r6, pc}
 3226              	.LVL298:
 3227              	.L175:
 236:lvgl/src/widgets/lv_btnmatrix.c ****     }
 3228              		.loc 1 236 9 is_stmt 1 view .LVU1060
 3229 007c 2046     		mov	r0, r4
 3230 007e FFF7FEFF 		bl	lv_obj_refresh_ext_draw_size
 3231              	.LVL299:
 3232 0082 FAE7     		b	.L159
 3233              	.LVL300:
 3234              	.L170:
 3235              	.LCFI30:
 3236              		.cfi_def_cfa_offset 0
 3237              		.cfi_restore 4
 3238              		.cfi_restore 5
 3239              		.cfi_restore 6
 3240              		.cfi_restore 14
 236:lvgl/src/widgets/lv_btnmatrix.c ****     }
 3241              		.loc 1 236 9 is_stmt 0 view .LVU1061
 3242 0084 7047     		bx	lr
 3243              		.cfi_endproc
 3244              	.LFE165:
 3246              		.section	.text.lv_btnmatrix_set_btn_ctrl_all,"ax",%progbits
 3247              		.align	1
 3248              		.global	lv_btnmatrix_set_btn_ctrl_all
 3249              		.syntax unified
 3250              		.thumb
 3251              		.thumb_func
 3253              	lv_btnmatrix_set_btn_ctrl_all:
 3254              	.LVL301:
 3255              	.LFB167:
 262:lvgl/src/widgets/lv_btnmatrix.c ****     LV_ASSERT_OBJ(obj, MY_CLASS);
 3256              		.loc 1 262 1 is_stmt 1 view -0
 3257              		.cfi_startproc
 3258              		@ args = 0, pretend = 0, frame = 0
 3259              		@ frame_needed = 0, uses_anonymous_args = 0
 262:lvgl/src/widgets/lv_btnmatrix.c ****     LV_ASSERT_OBJ(obj, MY_CLASS);
 3260              		.loc 1 262 1 is_stmt 0 view .LVU1063
 3261 0000 70B5     		push	{r4, r5, r6, lr}
 3262              	.LCFI31:
 3263              		.cfi_def_cfa_offset 16
ARM GAS  /var/folders/21/t9g5rlb91ys800n5npymflf80000gn/T//ccSbQiFP.s 			page 105


 3264              		.cfi_offset 4, -16
 3265              		.cfi_offset 5, -12
 3266              		.cfi_offset 6, -8
 3267              		.cfi_offset 14, -4
 3268 0002 0546     		mov	r5, r0
 3269 0004 0E46     		mov	r6, r1
 263:lvgl/src/widgets/lv_btnmatrix.c **** 
 3270              		.loc 1 263 5 is_stmt 1 view .LVU1064
 263:lvgl/src/widgets/lv_btnmatrix.c **** 
 3271              		.loc 1 263 5 view .LVU1065
 263:lvgl/src/widgets/lv_btnmatrix.c **** 
 3272              		.loc 1 263 5 view .LVU1066
 265:lvgl/src/widgets/lv_btnmatrix.c ****     uint16_t i;
 3273              		.loc 1 265 5 view .LVU1067
 3274              	.LVL302:
 265:lvgl/src/widgets/lv_btnmatrix.c ****     uint16_t i;
 3275              		.loc 1 265 51 view .LVU1068
 266:lvgl/src/widgets/lv_btnmatrix.c ****     for(i = 0; i < btnm->btn_cnt; i++) {
 3276              		.loc 1 266 5 view .LVU1069
 267:lvgl/src/widgets/lv_btnmatrix.c ****         lv_btnmatrix_set_btn_ctrl(obj, i, ctrl);
 3277              		.loc 1 267 5 view .LVU1070
 267:lvgl/src/widgets/lv_btnmatrix.c ****         lv_btnmatrix_set_btn_ctrl(obj, i, ctrl);
 3278              		.loc 1 267 11 is_stmt 0 view .LVU1071
 3279 0006 0024     		movs	r4, #0
 267:lvgl/src/widgets/lv_btnmatrix.c ****         lv_btnmatrix_set_btn_ctrl(obj, i, ctrl);
 3280              		.loc 1 267 5 view .LVU1072
 3281 0008 06E0     		b	.L177
 3282              	.LVL303:
 3283              	.L178:
 268:lvgl/src/widgets/lv_btnmatrix.c ****     }
 3284              		.loc 1 268 9 is_stmt 1 discriminator 3 view .LVU1073
 3285 000a 3246     		mov	r2, r6
 3286 000c 2146     		mov	r1, r4
 3287 000e 2846     		mov	r0, r5
 3288 0010 FFF7FEFF 		bl	lv_btnmatrix_set_btn_ctrl
 3289              	.LVL304:
 267:lvgl/src/widgets/lv_btnmatrix.c ****         lv_btnmatrix_set_btn_ctrl(obj, i, ctrl);
 3290              		.loc 1 267 36 discriminator 3 view .LVU1074
 3291 0014 0134     		adds	r4, r4, #1
 3292              	.LVL305:
 267:lvgl/src/widgets/lv_btnmatrix.c ****         lv_btnmatrix_set_btn_ctrl(obj, i, ctrl);
 3293              		.loc 1 267 36 is_stmt 0 discriminator 3 view .LVU1075
 3294 0016 A4B2     		uxth	r4, r4
 3295              	.LVL306:
 3296              	.L177:
 267:lvgl/src/widgets/lv_btnmatrix.c ****         lv_btnmatrix_set_btn_ctrl(obj, i, ctrl);
 3297              		.loc 1 267 18 is_stmt 1 discriminator 1 view .LVU1076
 267:lvgl/src/widgets/lv_btnmatrix.c ****         lv_btnmatrix_set_btn_ctrl(obj, i, ctrl);
 3298              		.loc 1 267 24 is_stmt 0 discriminator 1 view .LVU1077
 3299 0018 2B8E     		ldrh	r3, [r5, #48]
 267:lvgl/src/widgets/lv_btnmatrix.c ****         lv_btnmatrix_set_btn_ctrl(obj, i, ctrl);
 3300              		.loc 1 267 18 discriminator 1 view .LVU1078
 3301 001a A342     		cmp	r3, r4
 3302 001c F5D8     		bhi	.L178
 270:lvgl/src/widgets/lv_btnmatrix.c **** 
 3303              		.loc 1 270 1 view .LVU1079
 3304 001e 70BD     		pop	{r4, r5, r6, pc}
ARM GAS  /var/folders/21/t9g5rlb91ys800n5npymflf80000gn/T//ccSbQiFP.s 			page 106


 270:lvgl/src/widgets/lv_btnmatrix.c **** 
 3305              		.loc 1 270 1 view .LVU1080
 3306              		.cfi_endproc
 3307              	.LFE167:
 3309              		.section	.text.lv_btnmatrix_set_btn_width,"ax",%progbits
 3310              		.align	1
 3311              		.global	lv_btnmatrix_set_btn_width
 3312              		.syntax unified
 3313              		.thumb
 3314              		.thumb_func
 3316              	lv_btnmatrix_set_btn_width:
 3317              	.LVL307:
 3318              	.LFB169:
 284:lvgl/src/widgets/lv_btnmatrix.c ****     LV_ASSERT_OBJ(obj, MY_CLASS);
 3319              		.loc 1 284 1 is_stmt 1 view -0
 3320              		.cfi_startproc
 3321              		@ args = 0, pretend = 0, frame = 0
 3322              		@ frame_needed = 0, uses_anonymous_args = 0
 285:lvgl/src/widgets/lv_btnmatrix.c **** 
 3323              		.loc 1 285 5 view .LVU1082
 285:lvgl/src/widgets/lv_btnmatrix.c **** 
 3324              		.loc 1 285 5 view .LVU1083
 285:lvgl/src/widgets/lv_btnmatrix.c **** 
 3325              		.loc 1 285 5 view .LVU1084
 287:lvgl/src/widgets/lv_btnmatrix.c ****     if(btn_id >= btnm->btn_cnt) return;
 3326              		.loc 1 287 5 view .LVU1085
 287:lvgl/src/widgets/lv_btnmatrix.c ****     if(btn_id >= btnm->btn_cnt) return;
 3327              		.loc 1 287 51 view .LVU1086
 288:lvgl/src/widgets/lv_btnmatrix.c ****     btnm->ctrl_bits[btn_id] &= (~LV_BTNMATRIX_WIDTH_MASK);
 3328              		.loc 1 288 5 view .LVU1087
 288:lvgl/src/widgets/lv_btnmatrix.c ****     btnm->ctrl_bits[btn_id] &= (~LV_BTNMATRIX_WIDTH_MASK);
 3329              		.loc 1 288 22 is_stmt 0 view .LVU1088
 3330 0000 038E     		ldrh	r3, [r0, #48]
 288:lvgl/src/widgets/lv_btnmatrix.c ****     btnm->ctrl_bits[btn_id] &= (~LV_BTNMATRIX_WIDTH_MASK);
 3331              		.loc 1 288 7 view .LVU1089
 3332 0002 8B42     		cmp	r3, r1
 3333 0004 00D8     		bhi	.L186
 3334 0006 7047     		bx	lr
 3335              	.L186:
 284:lvgl/src/widgets/lv_btnmatrix.c ****     LV_ASSERT_OBJ(obj, MY_CLASS);
 3336              		.loc 1 284 1 view .LVU1090
 3337 0008 10B5     		push	{r4, lr}
 3338              	.LCFI32:
 3339              		.cfi_def_cfa_offset 8
 3340              		.cfi_offset 4, -8
 3341              		.cfi_offset 14, -4
 289:lvgl/src/widgets/lv_btnmatrix.c ****     btnm->ctrl_bits[btn_id] |= (LV_BTNMATRIX_WIDTH_MASK & width);
 3342              		.loc 1 289 5 is_stmt 1 view .LVU1091
 289:lvgl/src/widgets/lv_btnmatrix.c ****     btnm->ctrl_bits[btn_id] |= (LV_BTNMATRIX_WIDTH_MASK & width);
 3343              		.loc 1 289 9 is_stmt 0 view .LVU1092
 3344 000a C46A     		ldr	r4, [r0, #44]
 289:lvgl/src/widgets/lv_btnmatrix.c ****     btnm->ctrl_bits[btn_id] |= (LV_BTNMATRIX_WIDTH_MASK & width);
 3345              		.loc 1 289 20 view .LVU1093
 3346 000c 34F81130 		ldrh	r3, [r4, r1, lsl #1]
 289:lvgl/src/widgets/lv_btnmatrix.c ****     btnm->ctrl_bits[btn_id] |= (LV_BTNMATRIX_WIDTH_MASK & width);
 3347              		.loc 1 289 29 view .LVU1094
 3348 0010 23F00F03 		bic	r3, r3, #15
ARM GAS  /var/folders/21/t9g5rlb91ys800n5npymflf80000gn/T//ccSbQiFP.s 			page 107


 3349 0014 24F81130 		strh	r3, [r4, r1, lsl #1]	@ movhi
 290:lvgl/src/widgets/lv_btnmatrix.c **** 
 3350              		.loc 1 290 5 is_stmt 1 view .LVU1095
 290:lvgl/src/widgets/lv_btnmatrix.c **** 
 3351              		.loc 1 290 9 is_stmt 0 view .LVU1096
 3352 0018 C46A     		ldr	r4, [r0, #44]
 290:lvgl/src/widgets/lv_btnmatrix.c **** 
 3353              		.loc 1 290 20 view .LVU1097
 3354 001a 34F81130 		ldrh	r3, [r4, r1, lsl #1]
 290:lvgl/src/widgets/lv_btnmatrix.c **** 
 3355              		.loc 1 290 29 view .LVU1098
 3356 001e 02F00F02 		and	r2, r2, #15
 3357              	.LVL308:
 290:lvgl/src/widgets/lv_btnmatrix.c **** 
 3358              		.loc 1 290 29 view .LVU1099
 3359 0022 1343     		orrs	r3, r3, r2
 3360 0024 24F81130 		strh	r3, [r4, r1, lsl #1]	@ movhi
 292:lvgl/src/widgets/lv_btnmatrix.c **** }
 3361              		.loc 1 292 5 is_stmt 1 view .LVU1100
 3362 0028 416A     		ldr	r1, [r0, #36]
 3363              	.LVL309:
 292:lvgl/src/widgets/lv_btnmatrix.c **** }
 3364              		.loc 1 292 5 is_stmt 0 view .LVU1101
 3365 002a FFF7FEFF 		bl	lv_btnmatrix_set_map
 3366              	.LVL310:
 293:lvgl/src/widgets/lv_btnmatrix.c **** 
 3367              		.loc 1 293 1 view .LVU1102
 3368 002e 10BD     		pop	{r4, pc}
 3369              		.cfi_endproc
 3370              	.LFE169:
 3372              		.section	.text.lv_btnmatrix_get_map,"ax",%progbits
 3373              		.align	1
 3374              		.global	lv_btnmatrix_get_map
 3375              		.syntax unified
 3376              		.thumb
 3377              		.thumb_func
 3379              	lv_btnmatrix_get_map:
 3380              	.LVL311:
 3381              	.LFB171:
 311:lvgl/src/widgets/lv_btnmatrix.c ****     LV_ASSERT_OBJ(obj, MY_CLASS);
 3382              		.loc 1 311 1 is_stmt 1 view -0
 3383              		.cfi_startproc
 3384              		@ args = 0, pretend = 0, frame = 0
 3385              		@ frame_needed = 0, uses_anonymous_args = 0
 3386              		@ link register save eliminated.
 312:lvgl/src/widgets/lv_btnmatrix.c **** 
 3387              		.loc 1 312 5 view .LVU1104
 312:lvgl/src/widgets/lv_btnmatrix.c **** 
 3388              		.loc 1 312 5 view .LVU1105
 312:lvgl/src/widgets/lv_btnmatrix.c **** 
 3389              		.loc 1 312 5 view .LVU1106
 314:lvgl/src/widgets/lv_btnmatrix.c ****     return btnm->map_p;
 3390              		.loc 1 314 5 view .LVU1107
 314:lvgl/src/widgets/lv_btnmatrix.c ****     return btnm->map_p;
 3391              		.loc 1 314 51 view .LVU1108
 315:lvgl/src/widgets/lv_btnmatrix.c **** }
 3392              		.loc 1 315 5 view .LVU1109
ARM GAS  /var/folders/21/t9g5rlb91ys800n5npymflf80000gn/T//ccSbQiFP.s 			page 108


 316:lvgl/src/widgets/lv_btnmatrix.c **** 
 3393              		.loc 1 316 1 is_stmt 0 view .LVU1110
 3394 0000 406A     		ldr	r0, [r0, #36]
 3395              	.LVL312:
 316:lvgl/src/widgets/lv_btnmatrix.c **** 
 3396              		.loc 1 316 1 view .LVU1111
 3397 0002 7047     		bx	lr
 3398              		.cfi_endproc
 3399              	.LFE171:
 3401              		.section	.text.lv_btnmatrix_get_selected_btn,"ax",%progbits
 3402              		.align	1
 3403              		.global	lv_btnmatrix_get_selected_btn
 3404              		.syntax unified
 3405              		.thumb
 3406              		.thumb_func
 3408              	lv_btnmatrix_get_selected_btn:
 3409              	.LVL313:
 3410              	.LFB172:
 319:lvgl/src/widgets/lv_btnmatrix.c ****     LV_ASSERT_OBJ(obj, MY_CLASS);
 3411              		.loc 1 319 1 is_stmt 1 view -0
 3412              		.cfi_startproc
 3413              		@ args = 0, pretend = 0, frame = 0
 3414              		@ frame_needed = 0, uses_anonymous_args = 0
 3415              		@ link register save eliminated.
 320:lvgl/src/widgets/lv_btnmatrix.c **** 
 3416              		.loc 1 320 5 view .LVU1113
 320:lvgl/src/widgets/lv_btnmatrix.c **** 
 3417              		.loc 1 320 5 view .LVU1114
 320:lvgl/src/widgets/lv_btnmatrix.c **** 
 3418              		.loc 1 320 5 view .LVU1115
 322:lvgl/src/widgets/lv_btnmatrix.c ****     return btnm->btn_id_sel;
 3419              		.loc 1 322 5 view .LVU1116
 322:lvgl/src/widgets/lv_btnmatrix.c ****     return btnm->btn_id_sel;
 3420              		.loc 1 322 51 view .LVU1117
 323:lvgl/src/widgets/lv_btnmatrix.c **** }
 3421              		.loc 1 323 5 view .LVU1118
 324:lvgl/src/widgets/lv_btnmatrix.c **** 
 3422              		.loc 1 324 1 is_stmt 0 view .LVU1119
 3423 0000 808E     		ldrh	r0, [r0, #52]
 3424              	.LVL314:
 324:lvgl/src/widgets/lv_btnmatrix.c **** 
 3425              		.loc 1 324 1 view .LVU1120
 3426 0002 7047     		bx	lr
 3427              		.cfi_endproc
 3428              	.LFE172:
 3430              		.section	.text.lv_btnmatrix_get_btn_text,"ax",%progbits
 3431              		.align	1
 3432              		.global	lv_btnmatrix_get_btn_text
 3433              		.syntax unified
 3434              		.thumb
 3435              		.thumb_func
 3437              	lv_btnmatrix_get_btn_text:
 3438              	.LVL315:
 3439              	.LFB173:
 327:lvgl/src/widgets/lv_btnmatrix.c ****     LV_ASSERT_OBJ(obj, MY_CLASS);
 3440              		.loc 1 327 1 is_stmt 1 view -0
 3441              		.cfi_startproc
ARM GAS  /var/folders/21/t9g5rlb91ys800n5npymflf80000gn/T//ccSbQiFP.s 			page 109


 3442              		@ args = 0, pretend = 0, frame = 0
 3443              		@ frame_needed = 0, uses_anonymous_args = 0
 327:lvgl/src/widgets/lv_btnmatrix.c ****     LV_ASSERT_OBJ(obj, MY_CLASS);
 3444              		.loc 1 327 1 is_stmt 0 view .LVU1122
 3445 0000 2DE9F843 		push	{r3, r4, r5, r6, r7, r8, r9, lr}
 3446              	.LCFI33:
 3447              		.cfi_def_cfa_offset 32
 3448              		.cfi_offset 3, -32
 3449              		.cfi_offset 4, -28
 3450              		.cfi_offset 5, -24
 3451              		.cfi_offset 6, -20
 3452              		.cfi_offset 7, -16
 3453              		.cfi_offset 8, -12
 3454              		.cfi_offset 9, -8
 3455              		.cfi_offset 14, -4
 328:lvgl/src/widgets/lv_btnmatrix.c **** 
 3456              		.loc 1 328 5 is_stmt 1 view .LVU1123
 328:lvgl/src/widgets/lv_btnmatrix.c **** 
 3457              		.loc 1 328 5 view .LVU1124
 328:lvgl/src/widgets/lv_btnmatrix.c **** 
 3458              		.loc 1 328 5 view .LVU1125
 330:lvgl/src/widgets/lv_btnmatrix.c **** 
 3459              		.loc 1 330 5 view .LVU1126
 330:lvgl/src/widgets/lv_btnmatrix.c **** 
 3460              		.loc 1 330 7 is_stmt 0 view .LVU1127
 3461 0004 4FF6FF73 		movw	r3, #65535
 3462 0008 9942     		cmp	r1, r3
 3463 000a 23D0     		beq	.L194
 3464 000c 8046     		mov	r8, r0
 3465 000e 0F46     		mov	r7, r1
 332:lvgl/src/widgets/lv_btnmatrix.c ****     if(btn_id > btnm->btn_cnt) return NULL;
 3466              		.loc 1 332 5 is_stmt 1 view .LVU1128
 3467              	.LVL316:
 333:lvgl/src/widgets/lv_btnmatrix.c **** 
 3468              		.loc 1 333 5 view .LVU1129
 333:lvgl/src/widgets/lv_btnmatrix.c **** 
 3469              		.loc 1 333 21 is_stmt 0 view .LVU1130
 3470 0010 B0F83090 		ldrh	r9, [r0, #48]
 333:lvgl/src/widgets/lv_btnmatrix.c **** 
 3471              		.loc 1 333 7 view .LVU1131
 3472 0014 8945     		cmp	r9, r1
 3473 0016 1FD3     		bcc	.L195
 336:lvgl/src/widgets/lv_btnmatrix.c **** 
 3474              		.loc 1 336 14 view .LVU1132
 3475 0018 0025     		movs	r5, #0
 335:lvgl/src/widgets/lv_btnmatrix.c ****     uint16_t btn_i = 0;
 3476              		.loc 1 335 14 view .LVU1133
 3477 001a 2E46     		mov	r6, r5
 3478 001c 00E0     		b	.L191
 3479              	.LVL317:
 3480              	.L192:
 327:lvgl/src/widgets/lv_btnmatrix.c ****     LV_ASSERT_OBJ(obj, MY_CLASS);
 3481              		.loc 1 327 1 view .LVU1134
 3482 001e 2646     		mov	r6, r4
 3483              	.LVL318:
 3484              	.L191:
 340:lvgl/src/widgets/lv_btnmatrix.c ****         btn_i++;
ARM GAS  /var/folders/21/t9g5rlb91ys800n5npymflf80000gn/T//ccSbQiFP.s 			page 110


 3485              		.loc 1 340 17 is_stmt 1 view .LVU1135
 3486 0020 BD42     		cmp	r5, r7
 3487 0022 0FD0     		beq	.L198
 341:lvgl/src/widgets/lv_btnmatrix.c ****         txt_i++;
 3488              		.loc 1 341 9 view .LVU1136
 341:lvgl/src/widgets/lv_btnmatrix.c ****         txt_i++;
 3489              		.loc 1 341 14 is_stmt 0 view .LVU1137
 3490 0024 0135     		adds	r5, r5, #1
 3491              	.LVL319:
 341:lvgl/src/widgets/lv_btnmatrix.c ****         txt_i++;
 3492              		.loc 1 341 14 view .LVU1138
 3493 0026 ADB2     		uxth	r5, r5
 3494              	.LVL320:
 342:lvgl/src/widgets/lv_btnmatrix.c ****         if(strcmp(btnm->map_p[txt_i], "\n") == 0) txt_i++;
 3495              		.loc 1 342 9 is_stmt 1 view .LVU1139
 342:lvgl/src/widgets/lv_btnmatrix.c ****         if(strcmp(btnm->map_p[txt_i], "\n") == 0) txt_i++;
 3496              		.loc 1 342 14 is_stmt 0 view .LVU1140
 3497 0028 741C     		adds	r4, r6, #1
 3498 002a A4B2     		uxth	r4, r4
 3499              	.LVL321:
 343:lvgl/src/widgets/lv_btnmatrix.c ****     }
 3500              		.loc 1 343 9 is_stmt 1 view .LVU1141
 343:lvgl/src/widgets/lv_btnmatrix.c ****     }
 3501              		.loc 1 343 23 is_stmt 0 view .LVU1142
 3502 002c D8F82430 		ldr	r3, [r8, #36]
 343:lvgl/src/widgets/lv_btnmatrix.c ****     }
 3503              		.loc 1 343 12 view .LVU1143
 3504 0030 0B49     		ldr	r1, .L199
 3505 0032 53F82400 		ldr	r0, [r3, r4, lsl #2]
 3506 0036 FFF7FEFF 		bl	strcmp
 3507              	.LVL322:
 343:lvgl/src/widgets/lv_btnmatrix.c ****     }
 3508              		.loc 1 343 11 view .LVU1144
 3509 003a 0028     		cmp	r0, #0
 3510 003c EFD1     		bne	.L192
 343:lvgl/src/widgets/lv_btnmatrix.c ****     }
 3511              		.loc 1 343 51 is_stmt 1 discriminator 1 view .LVU1145
 343:lvgl/src/widgets/lv_btnmatrix.c ****     }
 3512              		.loc 1 343 56 is_stmt 0 discriminator 1 view .LVU1146
 3513 003e B41C     		adds	r4, r6, #2
 3514              	.LVL323:
 343:lvgl/src/widgets/lv_btnmatrix.c ****     }
 3515              		.loc 1 343 56 discriminator 1 view .LVU1147
 3516 0040 A4B2     		uxth	r4, r4
 3517              	.LVL324:
 343:lvgl/src/widgets/lv_btnmatrix.c ****     }
 3518              		.loc 1 343 56 discriminator 1 view .LVU1148
 3519 0042 ECE7     		b	.L192
 3520              	.LVL325:
 3521              	.L198:
 346:lvgl/src/widgets/lv_btnmatrix.c **** 
 3522              		.loc 1 346 5 is_stmt 1 view .LVU1149
 346:lvgl/src/widgets/lv_btnmatrix.c **** 
 3523              		.loc 1 346 7 is_stmt 0 view .LVU1150
 3524 0044 A945     		cmp	r9, r5
 3525 0046 09D0     		beq	.L196
 348:lvgl/src/widgets/lv_btnmatrix.c **** }
ARM GAS  /var/folders/21/t9g5rlb91ys800n5npymflf80000gn/T//ccSbQiFP.s 			page 111


 3526              		.loc 1 348 5 is_stmt 1 view .LVU1151
 348:lvgl/src/widgets/lv_btnmatrix.c **** }
 3527              		.loc 1 348 16 is_stmt 0 view .LVU1152
 3528 0048 D8F82430 		ldr	r3, [r8, #36]
 348:lvgl/src/widgets/lv_btnmatrix.c **** }
 3529              		.loc 1 348 23 view .LVU1153
 3530 004c 53F82600 		ldr	r0, [r3, r6, lsl #2]
 3531              	.LVL326:
 3532              	.L189:
 349:lvgl/src/widgets/lv_btnmatrix.c **** 
 3533              		.loc 1 349 1 view .LVU1154
 3534 0050 BDE8F883 		pop	{r3, r4, r5, r6, r7, r8, r9, pc}
 3535              	.LVL327:
 3536              	.L194:
 330:lvgl/src/widgets/lv_btnmatrix.c **** 
 3537              		.loc 1 330 48 view .LVU1155
 3538 0054 0020     		movs	r0, #0
 3539              	.LVL328:
 330:lvgl/src/widgets/lv_btnmatrix.c **** 
 3540              		.loc 1 330 48 view .LVU1156
 3541 0056 FBE7     		b	.L189
 3542              	.LVL329:
 3543              	.L195:
 333:lvgl/src/widgets/lv_btnmatrix.c **** 
 3544              		.loc 1 333 39 view .LVU1157
 3545 0058 0020     		movs	r0, #0
 3546              	.LVL330:
 333:lvgl/src/widgets/lv_btnmatrix.c **** 
 3547              		.loc 1 333 39 view .LVU1158
 3548 005a F9E7     		b	.L189
 3549              	.LVL331:
 3550              	.L196:
 346:lvgl/src/widgets/lv_btnmatrix.c **** 
 3551              		.loc 1 346 39 view .LVU1159
 3552 005c 0020     		movs	r0, #0
 3553 005e F7E7     		b	.L189
 3554              	.L200:
 3555              		.align	2
 3556              	.L199:
 3557 0060 00000000 		.word	.LC0
 3558              		.cfi_endproc
 3559              	.LFE173:
 3561              		.section	.text.lv_btnmatrix_has_btn_ctrl,"ax",%progbits
 3562              		.align	1
 3563              		.global	lv_btnmatrix_has_btn_ctrl
 3564              		.syntax unified
 3565              		.thumb
 3566              		.thumb_func
 3568              	lv_btnmatrix_has_btn_ctrl:
 3569              	.LVL332:
 3570              	.LFB174:
 352:lvgl/src/widgets/lv_btnmatrix.c ****     LV_ASSERT_OBJ(obj, MY_CLASS);
 3571              		.loc 1 352 1 is_stmt 1 view -0
 3572              		.cfi_startproc
 3573              		@ args = 0, pretend = 0, frame = 0
 3574              		@ frame_needed = 0, uses_anonymous_args = 0
 3575              		@ link register save eliminated.
ARM GAS  /var/folders/21/t9g5rlb91ys800n5npymflf80000gn/T//ccSbQiFP.s 			page 112


 353:lvgl/src/widgets/lv_btnmatrix.c **** 
 3576              		.loc 1 353 5 view .LVU1161
 353:lvgl/src/widgets/lv_btnmatrix.c **** 
 3577              		.loc 1 353 5 view .LVU1162
 353:lvgl/src/widgets/lv_btnmatrix.c **** 
 3578              		.loc 1 353 5 view .LVU1163
 355:lvgl/src/widgets/lv_btnmatrix.c ****     if(btn_id >= btnm->btn_cnt) return false;
 3579              		.loc 1 355 5 view .LVU1164
 355:lvgl/src/widgets/lv_btnmatrix.c ****     if(btn_id >= btnm->btn_cnt) return false;
 3580              		.loc 1 355 51 view .LVU1165
 356:lvgl/src/widgets/lv_btnmatrix.c **** 
 3581              		.loc 1 356 5 view .LVU1166
 356:lvgl/src/widgets/lv_btnmatrix.c **** 
 3582              		.loc 1 356 22 is_stmt 0 view .LVU1167
 3583 0000 038E     		ldrh	r3, [r0, #48]
 356:lvgl/src/widgets/lv_btnmatrix.c **** 
 3584              		.loc 1 356 7 view .LVU1168
 3585 0002 8B42     		cmp	r3, r1
 3586 0004 07D9     		bls	.L203
 358:lvgl/src/widgets/lv_btnmatrix.c **** }
 3587              		.loc 1 358 5 is_stmt 1 view .LVU1169
 358:lvgl/src/widgets/lv_btnmatrix.c **** }
 3588              		.loc 1 358 18 is_stmt 0 view .LVU1170
 3589 0006 C36A     		ldr	r3, [r0, #44]
 358:lvgl/src/widgets/lv_btnmatrix.c **** }
 3590              		.loc 1 358 29 view .LVU1171
 3591 0008 33F81130 		ldrh	r3, [r3, r1, lsl #1]
 358:lvgl/src/widgets/lv_btnmatrix.c **** }
 3592              		.loc 1 358 62 view .LVU1172
 3593 000c 9A43     		bics	r2, r2, r3
 3594              	.LVL333:
 358:lvgl/src/widgets/lv_btnmatrix.c **** }
 3595              		.loc 1 358 62 view .LVU1173
 3596 000e 0CBF     		ite	eq
 3597 0010 0120     		moveq	r0, #1
 3598              	.LVL334:
 358:lvgl/src/widgets/lv_btnmatrix.c **** }
 3599              		.loc 1 358 62 view .LVU1174
 3600 0012 0020     		movne	r0, #0
 3601 0014 7047     		bx	lr
 3602              	.LVL335:
 3603              	.L203:
 356:lvgl/src/widgets/lv_btnmatrix.c **** 
 3604              		.loc 1 356 40 view .LVU1175
 3605 0016 0020     		movs	r0, #0
 3606              	.LVL336:
 359:lvgl/src/widgets/lv_btnmatrix.c **** 
 3607              		.loc 1 359 1 view .LVU1176
 3608 0018 7047     		bx	lr
 3609              		.cfi_endproc
 3610              	.LFE174:
 3612              		.section	.text.make_one_button_checked,"ax",%progbits
 3613              		.align	1
 3614              		.syntax unified
 3615              		.thumb
 3616              		.thumb_func
 3618              	make_one_button_checked:
ARM GAS  /var/folders/21/t9g5rlb91ys800n5npymflf80000gn/T//ccSbQiFP.s 			page 113


 3619              	.LVL337:
 3620              	.LFB193:
1053:lvgl/src/widgets/lv_btnmatrix.c ****     /*Save whether the button was toggled*/
 3621              		.loc 1 1053 1 is_stmt 1 view -0
 3622              		.cfi_startproc
 3623              		@ args = 0, pretend = 0, frame = 0
 3624              		@ frame_needed = 0, uses_anonymous_args = 0
1053:lvgl/src/widgets/lv_btnmatrix.c ****     /*Save whether the button was toggled*/
 3625              		.loc 1 1053 1 is_stmt 0 view .LVU1178
 3626 0000 70B5     		push	{r4, r5, r6, lr}
 3627              	.LCFI34:
 3628              		.cfi_def_cfa_offset 16
 3629              		.cfi_offset 4, -16
 3630              		.cfi_offset 5, -12
 3631              		.cfi_offset 6, -8
 3632              		.cfi_offset 14, -4
 3633 0002 0446     		mov	r4, r0
 3634 0004 0E46     		mov	r6, r1
1055:lvgl/src/widgets/lv_btnmatrix.c **** 
 3635              		.loc 1 1055 5 is_stmt 1 view .LVU1179
1055:lvgl/src/widgets/lv_btnmatrix.c **** 
 3636              		.loc 1 1055 24 is_stmt 0 view .LVU1180
 3637 0006 4FF48072 		mov	r2, #256
 3638 000a FFF7FEFF 		bl	lv_btnmatrix_has_btn_ctrl
 3639              	.LVL338:
1055:lvgl/src/widgets/lv_btnmatrix.c **** 
 3640              		.loc 1 1055 24 view .LVU1181
 3641 000e 0546     		mov	r5, r0
 3642              	.LVL339:
1057:lvgl/src/widgets/lv_btnmatrix.c **** 
 3643              		.loc 1 1057 5 is_stmt 1 view .LVU1182
 3644 0010 4FF48071 		mov	r1, #256
 3645 0014 2046     		mov	r0, r4
 3646 0016 FFF7FEFF 		bl	lv_btnmatrix_clear_btn_ctrl_all
 3647              	.LVL340:
1059:lvgl/src/widgets/lv_btnmatrix.c **** }
 3648              		.loc 1 1059 5 view .LVU1183
1059:lvgl/src/widgets/lv_btnmatrix.c **** }
 3649              		.loc 1 1059 7 is_stmt 0 view .LVU1184
 3650 001a 05B9     		cbnz	r5, .L207
 3651              	.L204:
1060:lvgl/src/widgets/lv_btnmatrix.c **** 
 3652              		.loc 1 1060 1 view .LVU1185
 3653 001c 70BD     		pop	{r4, r5, r6, pc}
 3654              	.LVL341:
 3655              	.L207:
1059:lvgl/src/widgets/lv_btnmatrix.c **** }
 3656              		.loc 1 1059 21 is_stmt 1 discriminator 1 view .LVU1186
 3657 001e 4FF48072 		mov	r2, #256
 3658 0022 3146     		mov	r1, r6
 3659 0024 2046     		mov	r0, r4
 3660 0026 FFF7FEFF 		bl	lv_btnmatrix_set_btn_ctrl
 3661              	.LVL342:
1060:lvgl/src/widgets/lv_btnmatrix.c **** 
 3662              		.loc 1 1060 1 is_stmt 0 discriminator 1 view .LVU1187
 3663 002a F7E7     		b	.L204
 3664              		.cfi_endproc
ARM GAS  /var/folders/21/t9g5rlb91ys800n5npymflf80000gn/T//ccSbQiFP.s 			page 114


 3665              	.LFE193:
 3667              		.section	.text.lv_btnmatrix_event,"ax",%progbits
 3668              		.align	1
 3669              		.syntax unified
 3670              		.thumb
 3671              		.thumb_func
 3673              	lv_btnmatrix_event:
 3674              	.LVL343:
 3675              	.LFB178:
 405:lvgl/src/widgets/lv_btnmatrix.c ****     LV_UNUSED(class_p);
 3676              		.loc 1 405 1 is_stmt 1 view -0
 3677              		.cfi_startproc
 3678              		@ args = 0, pretend = 0, frame = 8
 3679              		@ frame_needed = 0, uses_anonymous_args = 0
 405:lvgl/src/widgets/lv_btnmatrix.c ****     LV_UNUSED(class_p);
 3680              		.loc 1 405 1 is_stmt 0 view .LVU1189
 3681 0000 2DE9F04F 		push	{r4, r5, r6, r7, r8, r9, r10, fp, lr}
 3682              	.LCFI35:
 3683              		.cfi_def_cfa_offset 36
 3684              		.cfi_offset 4, -36
 3685              		.cfi_offset 5, -32
 3686              		.cfi_offset 6, -28
 3687              		.cfi_offset 7, -24
 3688              		.cfi_offset 8, -20
 3689              		.cfi_offset 9, -16
 3690              		.cfi_offset 10, -12
 3691              		.cfi_offset 11, -8
 3692              		.cfi_offset 14, -4
 3693 0004 83B0     		sub	sp, sp, #12
 3694              	.LCFI36:
 3695              		.cfi_def_cfa_offset 48
 3696 0006 0D46     		mov	r5, r1
 406:lvgl/src/widgets/lv_btnmatrix.c **** 
 3697              		.loc 1 406 5 is_stmt 1 view .LVU1190
 408:lvgl/src/widgets/lv_btnmatrix.c **** 
 3698              		.loc 1 408 5 view .LVU1191
 411:lvgl/src/widgets/lv_btnmatrix.c ****     if(res != LV_RES_OK) return;
 3699              		.loc 1 411 5 view .LVU1192
 411:lvgl/src/widgets/lv_btnmatrix.c ****     if(res != LV_RES_OK) return;
 3700              		.loc 1 411 11 is_stmt 0 view .LVU1193
 3701 0008 C348     		ldr	r0, .L304
 3702              	.LVL344:
 411:lvgl/src/widgets/lv_btnmatrix.c ****     if(res != LV_RES_OK) return;
 3703              		.loc 1 411 11 view .LVU1194
 3704 000a FFF7FEFF 		bl	lv_obj_event_base
 3705              	.LVL345:
 412:lvgl/src/widgets/lv_btnmatrix.c **** 
 3706              		.loc 1 412 5 is_stmt 1 view .LVU1195
 412:lvgl/src/widgets/lv_btnmatrix.c **** 
 3707              		.loc 1 412 7 is_stmt 0 view .LVU1196
 3708 000e 0128     		cmp	r0, #1
 3709 0010 02D0     		beq	.L282
 3710              	.LVL346:
 3711              	.L208:
 685:lvgl/src/widgets/lv_btnmatrix.c **** 
 3712              		.loc 1 685 1 view .LVU1197
 3713 0012 03B0     		add	sp, sp, #12
ARM GAS  /var/folders/21/t9g5rlb91ys800n5npymflf80000gn/T//ccSbQiFP.s 			page 115


 3714              	.LCFI37:
 3715              		.cfi_remember_state
 3716              		.cfi_def_cfa_offset 36
 3717              		@ sp needed
 3718 0014 BDE8F08F 		pop	{r4, r5, r6, r7, r8, r9, r10, fp, pc}
 3719              	.LVL347:
 3720              	.L282:
 3721              	.LCFI38:
 3722              		.cfi_restore_state
 414:lvgl/src/widgets/lv_btnmatrix.c ****     lv_obj_t * obj = lv_event_get_target(e);
 3723              		.loc 1 414 5 is_stmt 1 view .LVU1198
 414:lvgl/src/widgets/lv_btnmatrix.c ****     lv_obj_t * obj = lv_event_get_target(e);
 3724              		.loc 1 414 28 is_stmt 0 view .LVU1199
 3725 0018 2846     		mov	r0, r5
 3726              	.LVL348:
 414:lvgl/src/widgets/lv_btnmatrix.c ****     lv_obj_t * obj = lv_event_get_target(e);
 3727              		.loc 1 414 28 view .LVU1200
 3728 001a FFF7FEFF 		bl	lv_event_get_code
 3729              	.LVL349:
 3730 001e 0446     		mov	r4, r0
 3731              	.LVL350:
 415:lvgl/src/widgets/lv_btnmatrix.c ****     lv_btnmatrix_t * btnm = (lv_btnmatrix_t *)obj;
 3732              		.loc 1 415 5 is_stmt 1 view .LVU1201
 415:lvgl/src/widgets/lv_btnmatrix.c ****     lv_btnmatrix_t * btnm = (lv_btnmatrix_t *)obj;
 3733              		.loc 1 415 22 is_stmt 0 view .LVU1202
 3734 0020 2846     		mov	r0, r5
 3735 0022 FFF7FEFF 		bl	lv_event_get_target
 3736              	.LVL351:
 3737 0026 0646     		mov	r6, r0
 3738              	.LVL352:
 416:lvgl/src/widgets/lv_btnmatrix.c ****     lv_point_t p;
 3739              		.loc 1 416 5 is_stmt 1 view .LVU1203
 417:lvgl/src/widgets/lv_btnmatrix.c **** 
 3740              		.loc 1 417 5 view .LVU1204
 419:lvgl/src/widgets/lv_btnmatrix.c ****         if(has_popovers_in_top_row(obj)) {
 3741              		.loc 1 419 5 view .LVU1205
 419:lvgl/src/widgets/lv_btnmatrix.c ****         if(has_popovers_in_top_row(obj)) {
 3742              		.loc 1 419 7 is_stmt 0 view .LVU1206
 3743 0028 132C     		cmp	r4, #19
 3744 002a 59D0     		beq	.L283
 3745              	.LVL353:
 3746              	.L210:
 426:lvgl/src/widgets/lv_btnmatrix.c ****         lv_btnmatrix_set_map(obj, btnm->map_p);
 3747              		.loc 1 426 5 is_stmt 1 view .LVU1207
 426:lvgl/src/widgets/lv_btnmatrix.c ****         lv_btnmatrix_set_map(obj, btnm->map_p);
 3748              		.loc 1 426 7 is_stmt 0 view .LVU1208
 3749 002c 2A2C     		cmp	r4, #42
 3750 002e 6AD0     		beq	.L284
 429:lvgl/src/widgets/lv_btnmatrix.c ****         lv_btnmatrix_set_map(obj, btnm->map_p);
 3751              		.loc 1 429 10 is_stmt 1 view .LVU1209
 3752 0030 013C     		subs	r4, r4, #1
 3753              	.LVL354:
 429:lvgl/src/widgets/lv_btnmatrix.c ****         lv_btnmatrix_set_map(obj, btnm->map_p);
 3754              		.loc 1 429 10 is_stmt 0 view .LVU1210
 3755 0032 282C     		cmp	r4, #40
 3756 0034 EDD8     		bhi	.L208
 3757 0036 01A3     		adr	r3, .L215
ARM GAS  /var/folders/21/t9g5rlb91ys800n5npymflf80000gn/T//ccSbQiFP.s 			page 116


 3758 0038 53F824F0 		ldr	pc, [r3, r4, lsl #2]
 3759              		.p2align 2
 3760              	.L215:
 3761 003c 1B010000 		.word	.L224+1
 3762 0040 CD010000 		.word	.L223+1
 3763 0044 61030000 		.word	.L222+1
 3764 0048 13000000 		.word	.L208+1
 3765 004c 13000000 		.word	.L208+1
 3766 0050 1D030000 		.word	.L221+1
 3767 0054 13000000 		.word	.L208+1
 3768 0058 7B020000 		.word	.L220+1
 3769 005c 13000000 		.word	.L208+1
 3770 0060 13000000 		.word	.L208+1
 3771 0064 13000000 		.word	.L208+1
 3772 0068 13000000 		.word	.L208+1
 3773 006c 35040000 		.word	.L219+1
 3774 0070 71030000 		.word	.L218+1
 3775 0074 1B040000 		.word	.L217+1
 3776 0078 1B040000 		.word	.L217+1
 3777 007c 13000000 		.word	.L208+1
 3778 0080 13000000 		.word	.L208+1
 3779 0084 13000000 		.word	.L208+1
 3780 0088 13000000 		.word	.L208+1
 3781 008c 9F060000 		.word	.L216+1
 3782 0090 13000000 		.word	.L208+1
 3783 0094 13000000 		.word	.L208+1
 3784 0098 13000000 		.word	.L208+1
 3785 009c 13000000 		.word	.L208+1
 3786 00a0 13000000 		.word	.L208+1
 3787 00a4 13000000 		.word	.L208+1
 3788 00a8 13000000 		.word	.L208+1
 3789 00ac 13000000 		.word	.L208+1
 3790 00b0 13000000 		.word	.L208+1
 3791 00b4 13000000 		.word	.L208+1
 3792 00b8 13000000 		.word	.L208+1
 3793 00bc 13000000 		.word	.L208+1
 3794 00c0 13000000 		.word	.L208+1
 3795 00c4 13000000 		.word	.L208+1
 3796 00c8 13000000 		.word	.L208+1
 3797 00cc 13000000 		.word	.L208+1
 3798 00d0 13000000 		.word	.L208+1
 3799 00d4 13000000 		.word	.L208+1
 3800 00d8 13000000 		.word	.L208+1
 3801 00dc 11010000 		.word	.L214+1
 3802              	.LVL355:
 3803              		.p2align 1
 3804              	.L283:
 420:lvgl/src/widgets/lv_btnmatrix.c ****             /*reserve one row worth of extra space to account for popovers in the top row*/
 3805              		.loc 1 420 9 is_stmt 1 view .LVU1211
 420:lvgl/src/widgets/lv_btnmatrix.c ****             /*reserve one row worth of extra space to account for popovers in the top row*/
 3806              		.loc 1 420 12 is_stmt 0 view .LVU1212
 3807 00e0 FFF7FEFF 		bl	has_popovers_in_top_row
 3808              	.LVL356:
 420:lvgl/src/widgets/lv_btnmatrix.c ****             /*reserve one row worth of extra space to account for popovers in the top row*/
 3809              		.loc 1 420 11 view .LVU1213
 3810 00e4 0028     		cmp	r0, #0
 3811 00e6 A1D0     		beq	.L210
ARM GAS  /var/folders/21/t9g5rlb91ys800n5npymflf80000gn/T//ccSbQiFP.s 			page 117


 3812              	.LBB142:
 422:lvgl/src/widgets/lv_btnmatrix.c ****             lv_event_set_ext_draw_size(e, s);
 3813              		.loc 1 422 13 is_stmt 1 view .LVU1214
 422:lvgl/src/widgets/lv_btnmatrix.c ****             lv_event_set_ext_draw_size(e, s);
 3814              		.loc 1 422 32 is_stmt 0 view .LVU1215
 3815 00e8 738E     		ldrh	r3, [r6, #50]
 422:lvgl/src/widgets/lv_btnmatrix.c ****             lv_event_set_ext_draw_size(e, s);
 3816              		.loc 1 422 24 view .LVU1216
 3817 00ea 23B9     		cbnz	r3, .L285
 3818 00ec 0021     		movs	r1, #0
 3819              	.L211:
 3820              	.LVL357:
 423:lvgl/src/widgets/lv_btnmatrix.c ****         }
 3821              		.loc 1 423 13 is_stmt 1 discriminator 4 view .LVU1217
 3822 00ee 2846     		mov	r0, r5
 3823 00f0 FFF7FEFF 		bl	lv_event_set_ext_draw_size
 3824              	.LVL358:
 423:lvgl/src/widgets/lv_btnmatrix.c ****         }
 3825              		.loc 1 423 13 is_stmt 0 discriminator 4 view .LVU1218
 3826 00f4 9AE7     		b	.L210
 3827              	.LVL359:
 3828              	.L285:
 422:lvgl/src/widgets/lv_btnmatrix.c ****             lv_event_set_ext_draw_size(e, s);
 3829              		.loc 1 422 48 discriminator 1 view .LVU1219
 3830 00f6 3046     		mov	r0, r6
 3831 00f8 FFF7FEFF 		bl	lv_obj_get_content_height
 3832              	.LVL360:
 422:lvgl/src/widgets/lv_btnmatrix.c ****             lv_event_set_ext_draw_size(e, s);
 3833              		.loc 1 422 85 discriminator 1 view .LVU1220
 3834 00fc 738E     		ldrh	r3, [r6, #50]
 422:lvgl/src/widgets/lv_btnmatrix.c ****             lv_event_set_ext_draw_size(e, s);
 3835              		.loc 1 422 79 discriminator 1 view .LVU1221
 3836 00fe 90FBF3F1 		sdiv	r1, r0, r3
 422:lvgl/src/widgets/lv_btnmatrix.c ****             lv_event_set_ext_draw_size(e, s);
 3837              		.loc 1 422 24 discriminator 1 view .LVU1222
 3838 0102 09B2     		sxth	r1, r1
 3839 0104 F3E7     		b	.L211
 3840              	.L284:
 422:lvgl/src/widgets/lv_btnmatrix.c ****             lv_event_set_ext_draw_size(e, s);
 3841              		.loc 1 422 24 discriminator 1 view .LVU1223
 3842              	.LBE142:
 427:lvgl/src/widgets/lv_btnmatrix.c ****     }
 3843              		.loc 1 427 9 is_stmt 1 view .LVU1224
 3844 0106 716A     		ldr	r1, [r6, #36]
 3845 0108 3046     		mov	r0, r6
 3846 010a FFF7FEFF 		bl	lv_btnmatrix_set_map
 3847              	.LVL361:
 3848 010e 80E7     		b	.L208
 3849              	.LVL362:
 3850              	.L214:
 430:lvgl/src/widgets/lv_btnmatrix.c ****     }
 3851              		.loc 1 430 9 view .LVU1225
 3852 0110 716A     		ldr	r1, [r6, #36]
 3853 0112 3046     		mov	r0, r6
 3854 0114 FFF7FEFF 		bl	lv_btnmatrix_set_map
 3855              	.LVL363:
 3856 0118 7BE7     		b	.L208
ARM GAS  /var/folders/21/t9g5rlb91ys800n5npymflf80000gn/T//ccSbQiFP.s 			page 118


 3857              	.L224:
 3858              	.LBB143:
 433:lvgl/src/widgets/lv_btnmatrix.c ****         invalidate_button_area(obj, btnm->btn_id_sel);
 3859              		.loc 1 433 9 view .LVU1226
 433:lvgl/src/widgets/lv_btnmatrix.c ****         invalidate_button_area(obj, btnm->btn_id_sel);
 3860              		.loc 1 433 24 is_stmt 0 view .LVU1227
 3861 011a 2846     		mov	r0, r5
 3862 011c FFF7FEFF 		bl	lv_event_get_param
 3863              	.LVL364:
 3864 0120 0446     		mov	r4, r0
 3865              	.LVL365:
 434:lvgl/src/widgets/lv_btnmatrix.c **** 
 3866              		.loc 1 434 9 is_stmt 1 view .LVU1228
 3867 0122 B18E     		ldrh	r1, [r6, #52]
 3868 0124 3046     		mov	r0, r6
 3869              	.LVL366:
 434:lvgl/src/widgets/lv_btnmatrix.c **** 
 3870              		.loc 1 434 9 is_stmt 0 view .LVU1229
 3871 0126 FFF7FEFF 		bl	invalidate_button_area
 3872              	.LVL367:
 436:lvgl/src/widgets/lv_btnmatrix.c ****         if(indev_type == LV_INDEV_TYPE_POINTER || indev_type == LV_INDEV_TYPE_BUTTON) {
 3873              		.loc 1 436 9 is_stmt 1 view .LVU1230
 436:lvgl/src/widgets/lv_btnmatrix.c ****         if(indev_type == LV_INDEV_TYPE_POINTER || indev_type == LV_INDEV_TYPE_BUTTON) {
 3874              		.loc 1 436 56 is_stmt 0 view .LVU1231
 3875 012a FFF7FEFF 		bl	lv_indev_get_act
 3876              	.LVL368:
 436:lvgl/src/widgets/lv_btnmatrix.c ****         if(indev_type == LV_INDEV_TYPE_POINTER || indev_type == LV_INDEV_TYPE_BUTTON) {
 3877              		.loc 1 436 38 view .LVU1232
 3878 012e FFF7FEFF 		bl	lv_indev_get_type
 3879              	.LVL369:
 437:lvgl/src/widgets/lv_btnmatrix.c ****             uint16_t btn_pr;
 3880              		.loc 1 437 9 is_stmt 1 view .LVU1233
 437:lvgl/src/widgets/lv_btnmatrix.c ****             uint16_t btn_pr;
 3881              		.loc 1 437 11 is_stmt 0 view .LVU1234
 3882 0132 0128     		cmp	r0, #1
 3883 0134 29D0     		beq	.L225
 437:lvgl/src/widgets/lv_btnmatrix.c ****             uint16_t btn_pr;
 3884              		.loc 1 437 48 discriminator 1 view .LVU1235
 3885 0136 0328     		cmp	r0, #3
 3886 0138 27D0     		beq	.L225
 3887              	.LVL370:
 3888              	.L226:
 456:lvgl/src/widgets/lv_btnmatrix.c ****             if(button_is_click_trig(btnm->ctrl_bits[btnm->btn_id_sel]) == false &&
 3889              		.loc 1 456 9 is_stmt 1 view .LVU1236
 456:lvgl/src/widgets/lv_btnmatrix.c ****             if(button_is_click_trig(btnm->ctrl_bits[btnm->btn_id_sel]) == false &&
 3890              		.loc 1 456 16 is_stmt 0 view .LVU1237
 3891 013a B48E     		ldrh	r4, [r6, #52]
 456:lvgl/src/widgets/lv_btnmatrix.c ****             if(button_is_click_trig(btnm->ctrl_bits[btnm->btn_id_sel]) == false &&
 3892              		.loc 1 456 11 view .LVU1238
 3893 013c 4FF6FF73 		movw	r3, #65535
 3894 0140 9C42     		cmp	r4, r3
 3895 0142 3FF466AF 		beq	.L208
 457:lvgl/src/widgets/lv_btnmatrix.c ****                button_is_popover(btnm->ctrl_bits[btnm->btn_id_sel]) == false &&
 3896              		.loc 1 457 13 is_stmt 1 view .LVU1239
 457:lvgl/src/widgets/lv_btnmatrix.c ****                button_is_popover(btnm->ctrl_bits[btnm->btn_id_sel]) == false &&
 3897              		.loc 1 457 41 is_stmt 0 view .LVU1240
 3898 0146 F36A     		ldr	r3, [r6, #44]
ARM GAS  /var/folders/21/t9g5rlb91ys800n5npymflf80000gn/T//ccSbQiFP.s 			page 119


 457:lvgl/src/widgets/lv_btnmatrix.c ****                button_is_popover(btnm->ctrl_bits[btnm->btn_id_sel]) == false &&
 3899              		.loc 1 457 16 view .LVU1241
 3900 0148 33F81450 		ldrh	r5, [r3, r4, lsl #1]
 3901 014c 2846     		mov	r0, r5
 3902 014e FFF7FEFF 		bl	button_is_click_trig
 3903              	.LVL371:
 457:lvgl/src/widgets/lv_btnmatrix.c ****                button_is_popover(btnm->ctrl_bits[btnm->btn_id_sel]) == false &&
 3904              		.loc 1 457 15 view .LVU1242
 3905 0152 0028     		cmp	r0, #0
 3906 0154 7FF45DAF 		bne	.L208
 458:lvgl/src/widgets/lv_btnmatrix.c ****                button_is_inactive(btnm->ctrl_bits[btnm->btn_id_sel]) == false &&
 3907              		.loc 1 458 16 discriminator 1 view .LVU1243
 3908 0158 2846     		mov	r0, r5
 3909 015a FFF7FEFF 		bl	button_is_popover
 3910              	.LVL372:
 457:lvgl/src/widgets/lv_btnmatrix.c ****                button_is_popover(btnm->ctrl_bits[btnm->btn_id_sel]) == false &&
 3911              		.loc 1 457 81 discriminator 1 view .LVU1244
 3912 015e 0028     		cmp	r0, #0
 3913 0160 7FF457AF 		bne	.L208
 459:lvgl/src/widgets/lv_btnmatrix.c ****                button_is_hidden(btnm->ctrl_bits[btnm->btn_id_sel]) == false) {
 3914              		.loc 1 459 16 view .LVU1245
 3915 0164 2846     		mov	r0, r5
 3916 0166 FFF7FEFF 		bl	button_is_inactive
 3917              	.LVL373:
 458:lvgl/src/widgets/lv_btnmatrix.c ****                button_is_inactive(btnm->ctrl_bits[btnm->btn_id_sel]) == false &&
 3918              		.loc 1 458 78 view .LVU1246
 3919 016a 0028     		cmp	r0, #0
 3920 016c 7FF451AF 		bne	.L208
 460:lvgl/src/widgets/lv_btnmatrix.c ****                 uint32_t b = btnm->btn_id_sel;
 3921              		.loc 1 460 16 view .LVU1247
 3922 0170 2846     		mov	r0, r5
 3923 0172 FFF7FEFF 		bl	button_is_hidden
 3924              	.LVL374:
 459:lvgl/src/widgets/lv_btnmatrix.c ****                button_is_hidden(btnm->ctrl_bits[btnm->btn_id_sel]) == false) {
 3925              		.loc 1 459 79 view .LVU1248
 3926 0176 0028     		cmp	r0, #0
 3927 0178 7FF44BAF 		bne	.L208
 3928              	.LBB144:
 461:lvgl/src/widgets/lv_btnmatrix.c ****                 res        = lv_event_send(obj, LV_EVENT_VALUE_CHANGED, &b);
 3929              		.loc 1 461 17 is_stmt 1 view .LVU1249
 461:lvgl/src/widgets/lv_btnmatrix.c ****                 res        = lv_event_send(obj, LV_EVENT_VALUE_CHANGED, &b);
 3930              		.loc 1 461 26 is_stmt 0 view .LVU1250
 3931 017c 0094     		str	r4, [sp]
 462:lvgl/src/widgets/lv_btnmatrix.c ****                 if(res != LV_RES_OK) return;
 3932              		.loc 1 462 17 is_stmt 1 view .LVU1251
 462:lvgl/src/widgets/lv_btnmatrix.c ****                 if(res != LV_RES_OK) return;
 3933              		.loc 1 462 30 is_stmt 0 view .LVU1252
 3934 017e 6A46     		mov	r2, sp
 3935 0180 1C21     		movs	r1, #28
 3936 0182 3046     		mov	r0, r6
 3937 0184 FFF7FEFF 		bl	lv_event_send
 3938              	.LVL375:
 463:lvgl/src/widgets/lv_btnmatrix.c ****             }
 3939              		.loc 1 463 17 is_stmt 1 view .LVU1253
 3940 0188 43E7     		b	.L208
 3941              	.LVL376:
 3942              	.L225:
ARM GAS  /var/folders/21/t9g5rlb91ys800n5npymflf80000gn/T//ccSbQiFP.s 			page 120


 463:lvgl/src/widgets/lv_btnmatrix.c ****             }
 3943              		.loc 1 463 17 is_stmt 0 view .LVU1254
 3944              	.LBE144:
 3945              	.LBB145:
 438:lvgl/src/widgets/lv_btnmatrix.c ****             /*Search the pressed area*/
 3946              		.loc 1 438 13 is_stmt 1 view .LVU1255
 440:lvgl/src/widgets/lv_btnmatrix.c ****             btn_pr = get_button_from_point(obj, &p);
 3947              		.loc 1 440 13 view .LVU1256
 3948 018a 01A9     		add	r1, sp, #4
 3949 018c 2046     		mov	r0, r4
 3950              	.LVL377:
 440:lvgl/src/widgets/lv_btnmatrix.c ****             btn_pr = get_button_from_point(obj, &p);
 3951              		.loc 1 440 13 is_stmt 0 view .LVU1257
 3952 018e FFF7FEFF 		bl	lv_indev_get_point
 3953              	.LVL378:
 441:lvgl/src/widgets/lv_btnmatrix.c ****             /*Handle the case where there is no button there*/
 3954              		.loc 1 441 13 is_stmt 1 view .LVU1258
 441:lvgl/src/widgets/lv_btnmatrix.c ****             /*Handle the case where there is no button there*/
 3955              		.loc 1 441 22 is_stmt 0 view .LVU1259
 3956 0192 01A9     		add	r1, sp, #4
 3957 0194 3046     		mov	r0, r6
 3958 0196 FFF7FEFF 		bl	get_button_from_point
 3959              	.LVL379:
 3960 019a 0446     		mov	r4, r0
 3961              	.LVL380:
 443:lvgl/src/widgets/lv_btnmatrix.c ****             if(btn_pr != LV_BTNMATRIX_BTN_NONE) {
 3962              		.loc 1 443 13 is_stmt 1 view .LVU1260
 443:lvgl/src/widgets/lv_btnmatrix.c ****             if(btn_pr != LV_BTNMATRIX_BTN_NONE) {
 3963              		.loc 1 443 30 is_stmt 0 view .LVU1261
 3964 019c 4FF6FF73 		movw	r3, #65535
 3965 01a0 B386     		strh	r3, [r6, #52]	@ movhi
 444:lvgl/src/widgets/lv_btnmatrix.c ****                 if(button_is_inactive(btnm->ctrl_bits[btn_pr]) == false &&
 3966              		.loc 1 444 13 is_stmt 1 view .LVU1262
 444:lvgl/src/widgets/lv_btnmatrix.c ****                 if(button_is_inactive(btnm->ctrl_bits[btn_pr]) == false &&
 3967              		.loc 1 444 15 is_stmt 0 view .LVU1263
 3968 01a2 9842     		cmp	r0, r3
 3969 01a4 C9D0     		beq	.L226
 445:lvgl/src/widgets/lv_btnmatrix.c ****                    button_is_hidden(btnm->ctrl_bits[btn_pr]) == false) {
 3970              		.loc 1 445 17 is_stmt 1 view .LVU1264
 445:lvgl/src/widgets/lv_btnmatrix.c ****                    button_is_hidden(btnm->ctrl_bits[btn_pr]) == false) {
 3971              		.loc 1 445 43 is_stmt 0 view .LVU1265
 3972 01a6 F36A     		ldr	r3, [r6, #44]
 445:lvgl/src/widgets/lv_btnmatrix.c ****                    button_is_hidden(btnm->ctrl_bits[btn_pr]) == false) {
 3973              		.loc 1 445 20 view .LVU1266
 3974 01a8 33F81050 		ldrh	r5, [r3, r0, lsl #1]
 3975              	.LVL381:
 445:lvgl/src/widgets/lv_btnmatrix.c ****                    button_is_hidden(btnm->ctrl_bits[btn_pr]) == false) {
 3976              		.loc 1 445 20 view .LVU1267
 3977 01ac 2846     		mov	r0, r5
 3978              	.LVL382:
 445:lvgl/src/widgets/lv_btnmatrix.c ****                    button_is_hidden(btnm->ctrl_bits[btn_pr]) == false) {
 3979              		.loc 1 445 20 view .LVU1268
 3980 01ae FFF7FEFF 		bl	button_is_inactive
 3981              	.LVL383:
 445:lvgl/src/widgets/lv_btnmatrix.c ****                    button_is_hidden(btnm->ctrl_bits[btn_pr]) == false) {
 3982              		.loc 1 445 19 view .LVU1269
 3983 01b2 0028     		cmp	r0, #0
ARM GAS  /var/folders/21/t9g5rlb91ys800n5npymflf80000gn/T//ccSbQiFP.s 			page 121


 3984 01b4 C1D1     		bne	.L226
 446:lvgl/src/widgets/lv_btnmatrix.c ****                     btnm->btn_id_sel = btn_pr;
 3985              		.loc 1 446 20 discriminator 1 view .LVU1270
 3986 01b6 2846     		mov	r0, r5
 3987 01b8 FFF7FEFF 		bl	button_is_hidden
 3988              	.LVL384:
 445:lvgl/src/widgets/lv_btnmatrix.c ****                    button_is_hidden(btnm->ctrl_bits[btn_pr]) == false) {
 3989              		.loc 1 445 73 discriminator 1 view .LVU1271
 3990 01bc 0028     		cmp	r0, #0
 3991 01be BCD1     		bne	.L226
 447:lvgl/src/widgets/lv_btnmatrix.c ****                     invalidate_button_area(obj, btnm->btn_id_sel); /*Invalidate the new area*/
 3992              		.loc 1 447 21 is_stmt 1 view .LVU1272
 447:lvgl/src/widgets/lv_btnmatrix.c ****                     invalidate_button_area(obj, btnm->btn_id_sel); /*Invalidate the new area*/
 3993              		.loc 1 447 38 is_stmt 0 view .LVU1273
 3994 01c0 B486     		strh	r4, [r6, #52]	@ movhi
 448:lvgl/src/widgets/lv_btnmatrix.c ****                 }
 3995              		.loc 1 448 21 is_stmt 1 view .LVU1274
 3996 01c2 2146     		mov	r1, r4
 3997 01c4 3046     		mov	r0, r6
 3998 01c6 FFF7FEFF 		bl	invalidate_button_area
 3999              	.LVL385:
 4000 01ca B6E7     		b	.L226
 4001              	.LVL386:
 4002              	.L223:
 448:lvgl/src/widgets/lv_btnmatrix.c ****                 }
 4003              		.loc 1 448 21 is_stmt 0 view .LVU1275
 4004              	.LBE145:
 4005              	.LBE143:
 4006              	.LBB146:
 468:lvgl/src/widgets/lv_btnmatrix.c ****         uint16_t btn_pr = LV_BTNMATRIX_BTN_NONE;
 4007              		.loc 1 468 9 is_stmt 1 view .LVU1276
 468:lvgl/src/widgets/lv_btnmatrix.c ****         uint16_t btn_pr = LV_BTNMATRIX_BTN_NONE;
 4008              		.loc 1 468 24 is_stmt 0 view .LVU1277
 4009 01cc 2846     		mov	r0, r5
 4010 01ce FFF7FEFF 		bl	lv_event_get_param
 4011              	.LVL387:
 4012 01d2 0546     		mov	r5, r0
 4013              	.LVL388:
 469:lvgl/src/widgets/lv_btnmatrix.c ****         /*Search the pressed area*/
 4014              		.loc 1 469 9 is_stmt 1 view .LVU1278
 471:lvgl/src/widgets/lv_btnmatrix.c ****         lv_indev_type_t indev_type = lv_indev_get_type(indev);
 4015              		.loc 1 471 9 view .LVU1279
 471:lvgl/src/widgets/lv_btnmatrix.c ****         lv_indev_type_t indev_type = lv_indev_get_type(indev);
 4016              		.loc 1 471 30 is_stmt 0 view .LVU1280
 4017 01d4 FFF7FEFF 		bl	lv_indev_get_act
 4018              	.LVL389:
 471:lvgl/src/widgets/lv_btnmatrix.c ****         lv_indev_type_t indev_type = lv_indev_get_type(indev);
 4019              		.loc 1 471 30 view .LVU1281
 4020 01d8 0446     		mov	r4, r0
 4021              	.LVL390:
 472:lvgl/src/widgets/lv_btnmatrix.c ****         if(indev_type == LV_INDEV_TYPE_ENCODER || indev_type == LV_INDEV_TYPE_KEYPAD) return;
 4022              		.loc 1 472 9 is_stmt 1 view .LVU1282
 472:lvgl/src/widgets/lv_btnmatrix.c ****         if(indev_type == LV_INDEV_TYPE_ENCODER || indev_type == LV_INDEV_TYPE_KEYPAD) return;
 4023              		.loc 1 472 38 is_stmt 0 view .LVU1283
 4024 01da FFF7FEFF 		bl	lv_indev_get_type
 4025              	.LVL391:
 473:lvgl/src/widgets/lv_btnmatrix.c **** 
ARM GAS  /var/folders/21/t9g5rlb91ys800n5npymflf80000gn/T//ccSbQiFP.s 			page 122


 4026              		.loc 1 473 9 is_stmt 1 view .LVU1284
 473:lvgl/src/widgets/lv_btnmatrix.c **** 
 4027              		.loc 1 473 11 is_stmt 0 view .LVU1285
 4028 01de 0428     		cmp	r0, #4
 4029 01e0 3FF417AF 		beq	.L208
 473:lvgl/src/widgets/lv_btnmatrix.c **** 
 4030              		.loc 1 473 48 discriminator 2 view .LVU1286
 4031 01e4 0228     		cmp	r0, #2
 4032 01e6 3FF414AF 		beq	.L208
 475:lvgl/src/widgets/lv_btnmatrix.c ****         btn_pr = get_button_from_point(obj, &p);
 4033              		.loc 1 475 9 is_stmt 1 view .LVU1287
 4034 01ea 01A9     		add	r1, sp, #4
 4035 01ec 2046     		mov	r0, r4
 4036              	.LVL392:
 475:lvgl/src/widgets/lv_btnmatrix.c ****         btn_pr = get_button_from_point(obj, &p);
 4037              		.loc 1 475 9 is_stmt 0 view .LVU1288
 4038 01ee FFF7FEFF 		bl	lv_indev_get_point
 4039              	.LVL393:
 476:lvgl/src/widgets/lv_btnmatrix.c ****         /*Invalidate to old and the new areas*/
 4040              		.loc 1 476 9 is_stmt 1 view .LVU1289
 476:lvgl/src/widgets/lv_btnmatrix.c ****         /*Invalidate to old and the new areas*/
 4041              		.loc 1 476 18 is_stmt 0 view .LVU1290
 4042 01f2 01A9     		add	r1, sp, #4
 4043 01f4 3046     		mov	r0, r6
 4044 01f6 FFF7FEFF 		bl	get_button_from_point
 4045              	.LVL394:
 4046 01fa 0446     		mov	r4, r0
 4047              	.LVL395:
 478:lvgl/src/widgets/lv_btnmatrix.c ****             if(btnm->btn_id_sel != LV_BTNMATRIX_BTN_NONE) {
 4048              		.loc 1 478 9 is_stmt 1 view .LVU1291
 478:lvgl/src/widgets/lv_btnmatrix.c ****             if(btnm->btn_id_sel != LV_BTNMATRIX_BTN_NONE) {
 4049              		.loc 1 478 26 is_stmt 0 view .LVU1292
 4050 01fc B18E     		ldrh	r1, [r6, #52]
 478:lvgl/src/widgets/lv_btnmatrix.c ****             if(btnm->btn_id_sel != LV_BTNMATRIX_BTN_NONE) {
 4051              		.loc 1 478 11 view .LVU1293
 4052 01fe 8142     		cmp	r1, r0
 4053 0200 3FF407AF 		beq	.L208
 479:lvgl/src/widgets/lv_btnmatrix.c ****                 invalidate_button_area(obj, btnm->btn_id_sel);
 4054              		.loc 1 479 13 is_stmt 1 view .LVU1294
 479:lvgl/src/widgets/lv_btnmatrix.c ****                 invalidate_button_area(obj, btnm->btn_id_sel);
 4055              		.loc 1 479 15 is_stmt 0 view .LVU1295
 4056 0204 4FF6FF73 		movw	r3, #65535
 4057 0208 9942     		cmp	r1, r3
 4058 020a 32D1     		bne	.L286
 4059              	.LVL396:
 4060              	.L228:
 483:lvgl/src/widgets/lv_btnmatrix.c **** 
 4061              		.loc 1 483 13 is_stmt 1 view .LVU1296
 483:lvgl/src/widgets/lv_btnmatrix.c **** 
 4062              		.loc 1 483 30 is_stmt 0 view .LVU1297
 4063 020c B486     		strh	r4, [r6, #52]	@ movhi
 485:lvgl/src/widgets/lv_btnmatrix.c ****             if(btn_pr != LV_BTNMATRIX_BTN_NONE &&
 4064              		.loc 1 485 13 is_stmt 1 view .LVU1298
 4065 020e 2846     		mov	r0, r5
 4066 0210 FFF7FEFF 		bl	lv_indev_reset_long_press
 4067              	.LVL397:
 486:lvgl/src/widgets/lv_btnmatrix.c ****                button_is_inactive(btnm->ctrl_bits[btn_pr]) == false &&
ARM GAS  /var/folders/21/t9g5rlb91ys800n5npymflf80000gn/T//ccSbQiFP.s 			page 123


 4068              		.loc 1 486 13 view .LVU1299
 486:lvgl/src/widgets/lv_btnmatrix.c ****                button_is_inactive(btnm->ctrl_bits[btn_pr]) == false &&
 4069              		.loc 1 486 15 is_stmt 0 view .LVU1300
 4070 0214 4FF6FF73 		movw	r3, #65535
 4071 0218 9C42     		cmp	r4, r3
 4072 021a 3FF4FAAE 		beq	.L208
 487:lvgl/src/widgets/lv_btnmatrix.c ****                button_is_hidden(btnm->ctrl_bits[btn_pr]) == false) {
 4073              		.loc 1 487 39 discriminator 1 view .LVU1301
 4074 021e F36A     		ldr	r3, [r6, #44]
 487:lvgl/src/widgets/lv_btnmatrix.c ****                button_is_hidden(btnm->ctrl_bits[btn_pr]) == false) {
 4075              		.loc 1 487 16 discriminator 1 view .LVU1302
 4076 0220 33F81450 		ldrh	r5, [r3, r4, lsl #1]
 4077              	.LVL398:
 487:lvgl/src/widgets/lv_btnmatrix.c ****                button_is_hidden(btnm->ctrl_bits[btn_pr]) == false) {
 4078              		.loc 1 487 16 discriminator 1 view .LVU1303
 4079 0224 2846     		mov	r0, r5
 4080 0226 FFF7FEFF 		bl	button_is_inactive
 4081              	.LVL399:
 486:lvgl/src/widgets/lv_btnmatrix.c ****                button_is_inactive(btnm->ctrl_bits[btn_pr]) == false &&
 4082              		.loc 1 486 48 discriminator 1 view .LVU1304
 4083 022a 0028     		cmp	r0, #0
 4084 022c 7FF4F1AE 		bne	.L208
 488:lvgl/src/widgets/lv_btnmatrix.c ****                 invalidate_button_area(obj, btn_pr);
 4085              		.loc 1 488 16 view .LVU1305
 4086 0230 2846     		mov	r0, r5
 4087 0232 FFF7FEFF 		bl	button_is_hidden
 4088              	.LVL400:
 487:lvgl/src/widgets/lv_btnmatrix.c ****                button_is_hidden(btnm->ctrl_bits[btn_pr]) == false) {
 4089              		.loc 1 487 69 view .LVU1306
 4090 0236 0028     		cmp	r0, #0
 4091 0238 7FF4EBAE 		bne	.L208
 489:lvgl/src/widgets/lv_btnmatrix.c ****                 /*Send VALUE_CHANGED for the newly pressed button*/
 4092              		.loc 1 489 17 is_stmt 1 view .LVU1307
 4093 023c 2146     		mov	r1, r4
 4094 023e 3046     		mov	r0, r6
 4095 0240 FFF7FEFF 		bl	invalidate_button_area
 4096              	.LVL401:
 491:lvgl/src/widgets/lv_btnmatrix.c ****                    button_is_popover(btnm->ctrl_bits[btnm->btn_id_sel]) == false) {
 4097              		.loc 1 491 17 view .LVU1308
 491:lvgl/src/widgets/lv_btnmatrix.c ****                    button_is_popover(btnm->ctrl_bits[btnm->btn_id_sel]) == false) {
 4098              		.loc 1 491 45 is_stmt 0 view .LVU1309
 4099 0244 F56A     		ldr	r5, [r6, #44]
 491:lvgl/src/widgets/lv_btnmatrix.c ****                    button_is_popover(btnm->ctrl_bits[btnm->btn_id_sel]) == false) {
 4100              		.loc 1 491 20 view .LVU1310
 4101 0246 35F81400 		ldrh	r0, [r5, r4, lsl #1]
 4102 024a FFF7FEFF 		bl	button_is_click_trig
 4103              	.LVL402:
 491:lvgl/src/widgets/lv_btnmatrix.c ****                    button_is_popover(btnm->ctrl_bits[btnm->btn_id_sel]) == false) {
 4104              		.loc 1 491 19 view .LVU1311
 4105 024e 0028     		cmp	r0, #0
 4106 0250 7FF4DFAE 		bne	.L208
 492:lvgl/src/widgets/lv_btnmatrix.c ****                     uint32_t b = btn_pr;
 4107              		.loc 1 492 58 discriminator 1 view .LVU1312
 4108 0254 B38E     		ldrh	r3, [r6, #52]
 492:lvgl/src/widgets/lv_btnmatrix.c ****                     uint32_t b = btn_pr;
 4109              		.loc 1 492 20 discriminator 1 view .LVU1313
 4110 0256 35F81300 		ldrh	r0, [r5, r3, lsl #1]
ARM GAS  /var/folders/21/t9g5rlb91ys800n5npymflf80000gn/T//ccSbQiFP.s 			page 124


 4111 025a FFF7FEFF 		bl	button_is_popover
 4112              	.LVL403:
 491:lvgl/src/widgets/lv_btnmatrix.c ****                    button_is_popover(btnm->ctrl_bits[btnm->btn_id_sel]) == false) {
 4113              		.loc 1 491 75 discriminator 1 view .LVU1314
 4114 025e 0028     		cmp	r0, #0
 4115 0260 7FF4D7AE 		bne	.L208
 4116              	.LBB147:
 493:lvgl/src/widgets/lv_btnmatrix.c ****                     res = lv_event_send(obj, LV_EVENT_VALUE_CHANGED, &b);
 4117              		.loc 1 493 21 is_stmt 1 view .LVU1315
 493:lvgl/src/widgets/lv_btnmatrix.c ****                     res = lv_event_send(obj, LV_EVENT_VALUE_CHANGED, &b);
 4118              		.loc 1 493 30 is_stmt 0 view .LVU1316
 4119 0264 0094     		str	r4, [sp]
 494:lvgl/src/widgets/lv_btnmatrix.c ****                     if(res != LV_RES_OK) return;
 4120              		.loc 1 494 21 is_stmt 1 view .LVU1317
 494:lvgl/src/widgets/lv_btnmatrix.c ****                     if(res != LV_RES_OK) return;
 4121              		.loc 1 494 27 is_stmt 0 view .LVU1318
 4122 0266 6A46     		mov	r2, sp
 4123 0268 1C21     		movs	r1, #28
 4124 026a 3046     		mov	r0, r6
 4125 026c FFF7FEFF 		bl	lv_event_send
 4126              	.LVL404:
 495:lvgl/src/widgets/lv_btnmatrix.c ****                 }
 4127              		.loc 1 495 21 is_stmt 1 view .LVU1319
 4128 0270 CFE6     		b	.L208
 4129              	.LVL405:
 4130              	.L286:
 495:lvgl/src/widgets/lv_btnmatrix.c ****                 }
 4131              		.loc 1 495 21 is_stmt 0 view .LVU1320
 4132              	.LBE147:
 480:lvgl/src/widgets/lv_btnmatrix.c ****             }
 4133              		.loc 1 480 17 is_stmt 1 view .LVU1321
 4134 0272 3046     		mov	r0, r6
 4135              	.LVL406:
 480:lvgl/src/widgets/lv_btnmatrix.c ****             }
 4136              		.loc 1 480 17 is_stmt 0 view .LVU1322
 4137 0274 FFF7FEFF 		bl	invalidate_button_area
 4138              	.LVL407:
 4139 0278 C8E7     		b	.L228
 4140              	.LVL408:
 4141              	.L220:
 480:lvgl/src/widgets/lv_btnmatrix.c ****             }
 4142              		.loc 1 480 17 view .LVU1323
 4143              	.LBE146:
 501:lvgl/src/widgets/lv_btnmatrix.c ****             /*Toggle the button if enabled*/
 4144              		.loc 1 501 9 is_stmt 1 view .LVU1324
 501:lvgl/src/widgets/lv_btnmatrix.c ****             /*Toggle the button if enabled*/
 4145              		.loc 1 501 16 is_stmt 0 view .LVU1325
 4146 027a B78E     		ldrh	r7, [r6, #52]
 501:lvgl/src/widgets/lv_btnmatrix.c ****             /*Toggle the button if enabled*/
 4147              		.loc 1 501 11 view .LVU1326
 4148 027c 4FF6FF73 		movw	r3, #65535
 4149 0280 9F42     		cmp	r7, r3
 4150 0282 35D0     		beq	.L230
 503:lvgl/src/widgets/lv_btnmatrix.c ****                !button_is_inactive(btnm->ctrl_bits[btnm->btn_id_sel])) {
 4151              		.loc 1 503 13 is_stmt 1 view .LVU1327
 503:lvgl/src/widgets/lv_btnmatrix.c ****                !button_is_inactive(btnm->ctrl_bits[btnm->btn_id_sel])) {
 4152              		.loc 1 503 40 is_stmt 0 view .LVU1328
ARM GAS  /var/folders/21/t9g5rlb91ys800n5npymflf80000gn/T//ccSbQiFP.s 			page 125


 4153 0284 F56A     		ldr	r5, [r6, #44]
 4154              	.LVL409:
 503:lvgl/src/widgets/lv_btnmatrix.c ****                !button_is_inactive(btnm->ctrl_bits[btnm->btn_id_sel])) {
 4155              		.loc 1 503 16 view .LVU1329
 4156 0286 35F81740 		ldrh	r4, [r5, r7, lsl #1]
 4157 028a 2046     		mov	r0, r4
 4158 028c FFF7FEFF 		bl	button_is_checkable
 4159              	.LVL410:
 503:lvgl/src/widgets/lv_btnmatrix.c ****                !button_is_inactive(btnm->ctrl_bits[btnm->btn_id_sel])) {
 4160              		.loc 1 503 15 view .LVU1330
 4161 0290 D0B1     		cbz	r0, .L231
 504:lvgl/src/widgets/lv_btnmatrix.c ****                 if(button_get_checked(btnm->ctrl_bits[btnm->btn_id_sel]) && !btnm->one_check) {
 4162              		.loc 1 504 17 discriminator 1 view .LVU1331
 4163 0292 2046     		mov	r0, r4
 4164 0294 FFF7FEFF 		bl	button_is_inactive
 4165              	.LVL411:
 503:lvgl/src/widgets/lv_btnmatrix.c ****                !button_is_inactive(btnm->ctrl_bits[btnm->btn_id_sel])) {
 4166              		.loc 1 503 71 discriminator 1 view .LVU1332
 4167 0298 B0B9     		cbnz	r0, .L231
 505:lvgl/src/widgets/lv_btnmatrix.c ****                     btnm->ctrl_bits[btnm->btn_id_sel] &= (~LV_BTNMATRIX_CTRL_CHECKED);
 4168              		.loc 1 505 17 is_stmt 1 view .LVU1333
 505:lvgl/src/widgets/lv_btnmatrix.c ****                     btnm->ctrl_bits[btnm->btn_id_sel] &= (~LV_BTNMATRIX_CTRL_CHECKED);
 4169              		.loc 1 505 20 is_stmt 0 view .LVU1334
 4170 029a 2046     		mov	r0, r4
 4171 029c FFF7FEFF 		bl	button_get_checked
 4172              	.LVL412:
 505:lvgl/src/widgets/lv_btnmatrix.c ****                     btnm->ctrl_bits[btnm->btn_id_sel] &= (~LV_BTNMATRIX_CTRL_CHECKED);
 4173              		.loc 1 505 19 view .LVU1335
 4174 02a0 48B1     		cbz	r0, .L232
 505:lvgl/src/widgets/lv_btnmatrix.c ****                     btnm->ctrl_bits[btnm->btn_id_sel] &= (~LV_BTNMATRIX_CTRL_CHECKED);
 4175              		.loc 1 505 77 discriminator 1 view .LVU1336
 4176 02a2 96F83630 		ldrb	r3, [r6, #54]	@ zero_extendqisi2
 505:lvgl/src/widgets/lv_btnmatrix.c ****                     btnm->ctrl_bits[btnm->btn_id_sel] &= (~LV_BTNMATRIX_CTRL_CHECKED);
 4177              		.loc 1 505 74 discriminator 1 view .LVU1337
 4178 02a6 13F0010F 		tst	r3, #1
 4179 02aa 04D1     		bne	.L232
 506:lvgl/src/widgets/lv_btnmatrix.c ****                 }
 4180              		.loc 1 506 21 is_stmt 1 view .LVU1338
 506:lvgl/src/widgets/lv_btnmatrix.c ****                 }
 4181              		.loc 1 506 55 is_stmt 0 view .LVU1339
 4182 02ac 24F48074 		bic	r4, r4, #256
 4183 02b0 25F81740 		strh	r4, [r5, r7, lsl #1]	@ movhi
 4184 02b4 03E0     		b	.L233
 4185              	.L232:
 509:lvgl/src/widgets/lv_btnmatrix.c ****                 }
 4186              		.loc 1 509 21 is_stmt 1 view .LVU1340
 509:lvgl/src/widgets/lv_btnmatrix.c ****                 }
 4187              		.loc 1 509 55 is_stmt 0 view .LVU1341
 4188 02b6 44F48074 		orr	r4, r4, #256
 4189 02ba 25F81740 		strh	r4, [r5, r7, lsl #1]	@ movhi
 4190              	.L233:
 511:lvgl/src/widgets/lv_btnmatrix.c ****             }
 4191              		.loc 1 511 17 is_stmt 1 view .LVU1342
 511:lvgl/src/widgets/lv_btnmatrix.c ****             }
 4192              		.loc 1 511 20 is_stmt 0 view .LVU1343
 4193 02be 96F83630 		ldrb	r3, [r6, #54]	@ zero_extendqisi2
 511:lvgl/src/widgets/lv_btnmatrix.c ****             }
ARM GAS  /var/folders/21/t9g5rlb91ys800n5npymflf80000gn/T//ccSbQiFP.s 			page 126


 4194              		.loc 1 511 19 view .LVU1344
 4195 02c2 13F0010F 		tst	r3, #1
 4196 02c6 18D1     		bne	.L287
 4197              	.L231:
 514:lvgl/src/widgets/lv_btnmatrix.c ****                 button_is_popover(btnm->ctrl_bits[btnm->btn_id_sel]) == true) &&
 4198              		.loc 1 514 13 is_stmt 1 view .LVU1345
 514:lvgl/src/widgets/lv_btnmatrix.c ****                 button_is_popover(btnm->ctrl_bits[btnm->btn_id_sel]) == true) &&
 4199              		.loc 1 514 42 is_stmt 0 view .LVU1346
 4200 02c8 F36A     		ldr	r3, [r6, #44]
 514:lvgl/src/widgets/lv_btnmatrix.c ****                 button_is_popover(btnm->ctrl_bits[btnm->btn_id_sel]) == true) &&
 4201              		.loc 1 514 58 view .LVU1347
 4202 02ca B58E     		ldrh	r5, [r6, #52]
 514:lvgl/src/widgets/lv_btnmatrix.c ****                 button_is_popover(btnm->ctrl_bits[btnm->btn_id_sel]) == true) &&
 4203              		.loc 1 514 17 view .LVU1348
 4204 02cc 33F81540 		ldrh	r4, [r3, r5, lsl #1]
 4205 02d0 2046     		mov	r0, r4
 4206 02d2 FFF7FEFF 		bl	button_is_click_trig
 4207              	.LVL413:
 514:lvgl/src/widgets/lv_btnmatrix.c ****                 button_is_popover(btnm->ctrl_bits[btnm->btn_id_sel]) == true) &&
 4208              		.loc 1 514 15 view .LVU1349
 4209 02d6 18B9     		cbnz	r0, .L234
 515:lvgl/src/widgets/lv_btnmatrix.c ****                button_is_inactive(btnm->ctrl_bits[btnm->btn_id_sel]) == false &&
 4210              		.loc 1 515 17 discriminator 1 view .LVU1350
 4211 02d8 2046     		mov	r0, r4
 4212 02da FFF7FEFF 		bl	button_is_popover
 4213              	.LVL414:
 514:lvgl/src/widgets/lv_btnmatrix.c ****                 button_is_popover(btnm->ctrl_bits[btnm->btn_id_sel]) == true) &&
 4214              		.loc 1 514 81 discriminator 1 view .LVU1351
 4215 02de 38B1     		cbz	r0, .L230
 4216              	.L234:
 516:lvgl/src/widgets/lv_btnmatrix.c ****                button_is_hidden(btnm->ctrl_bits[btnm->btn_id_sel]) == false) {
 4217              		.loc 1 516 16 view .LVU1352
 4218 02e0 2046     		mov	r0, r4
 4219 02e2 FFF7FEFF 		bl	button_is_inactive
 4220              	.LVL415:
 515:lvgl/src/widgets/lv_btnmatrix.c ****                button_is_inactive(btnm->ctrl_bits[btnm->btn_id_sel]) == false &&
 4221              		.loc 1 515 79 view .LVU1353
 4222 02e6 18B9     		cbnz	r0, .L230
 517:lvgl/src/widgets/lv_btnmatrix.c ****                 uint32_t b = btnm->btn_id_sel;
 4223              		.loc 1 517 16 view .LVU1354
 4224 02e8 2046     		mov	r0, r4
 4225 02ea FFF7FEFF 		bl	button_is_hidden
 4226              	.LVL416:
 516:lvgl/src/widgets/lv_btnmatrix.c ****                button_is_hidden(btnm->ctrl_bits[btnm->btn_id_sel]) == false) {
 4227              		.loc 1 516 79 view .LVU1355
 4228 02ee 48B1     		cbz	r0, .L288
 4229              	.LVL417:
 4230              	.L230:
 524:lvgl/src/widgets/lv_btnmatrix.c ****         invalidate_button_area(obj, btnm->btn_id_sel);
 4231              		.loc 1 524 43 is_stmt 1 view .LVU1356
 525:lvgl/src/widgets/lv_btnmatrix.c **** 
 4232              		.loc 1 525 9 view .LVU1357
 4233 02f0 B18E     		ldrh	r1, [r6, #52]
 4234 02f2 3046     		mov	r0, r6
 4235 02f4 FFF7FEFF 		bl	invalidate_button_area
 4236              	.LVL418:
 4237 02f8 8BE6     		b	.L208
ARM GAS  /var/folders/21/t9g5rlb91ys800n5npymflf80000gn/T//ccSbQiFP.s 			page 127


 4238              	.LVL419:
 4239              	.L287:
 511:lvgl/src/widgets/lv_btnmatrix.c ****             }
 4240              		.loc 1 511 37 discriminator 1 view .LVU1358
 4241 02fa B18E     		ldrh	r1, [r6, #52]
 4242 02fc 3046     		mov	r0, r6
 4243 02fe FFF7FEFF 		bl	make_one_button_checked
 4244              	.LVL420:
 4245 0302 E1E7     		b	.L231
 4246              	.L288:
 4247              	.LBB148:
 518:lvgl/src/widgets/lv_btnmatrix.c ****                 res        = lv_event_send(obj, LV_EVENT_VALUE_CHANGED, &b);
 4248              		.loc 1 518 17 view .LVU1359
 518:lvgl/src/widgets/lv_btnmatrix.c ****                 res        = lv_event_send(obj, LV_EVENT_VALUE_CHANGED, &b);
 4249              		.loc 1 518 26 is_stmt 0 view .LVU1360
 4250 0304 0095     		str	r5, [sp]
 519:lvgl/src/widgets/lv_btnmatrix.c ****                 if(res != LV_RES_OK) return;
 4251              		.loc 1 519 17 is_stmt 1 view .LVU1361
 519:lvgl/src/widgets/lv_btnmatrix.c ****                 if(res != LV_RES_OK) return;
 4252              		.loc 1 519 30 is_stmt 0 view .LVU1362
 4253 0306 6A46     		mov	r2, sp
 4254 0308 1C21     		movs	r1, #28
 4255 030a 3046     		mov	r0, r6
 4256 030c FFF7FEFF 		bl	lv_event_send
 4257              	.LVL421:
 520:lvgl/src/widgets/lv_btnmatrix.c ****             }
 4258              		.loc 1 520 17 is_stmt 1 view .LVU1363
 520:lvgl/src/widgets/lv_btnmatrix.c ****             }
 4259              		.loc 1 520 19 is_stmt 0 view .LVU1364
 4260 0310 0128     		cmp	r0, #1
 4261 0312 7FF47EAE 		bne	.L208
 4262 0316 EBE7     		b	.L230
 4263              	.L305:
 4264              		.align	2
 4265              	.L304:
 4266 0318 00000000 		.word	lv_btnmatrix_class
 4267              	.LVL422:
 4268              	.L221:
 520:lvgl/src/widgets/lv_btnmatrix.c ****             }
 4269              		.loc 1 520 19 view .LVU1365
 4270              	.LBE148:
 529:lvgl/src/widgets/lv_btnmatrix.c ****             if(button_is_repeat_disabled(btnm->ctrl_bits[btnm->btn_id_sel]) == false &&
 4271              		.loc 1 529 9 is_stmt 1 view .LVU1366
 529:lvgl/src/widgets/lv_btnmatrix.c ****             if(button_is_repeat_disabled(btnm->ctrl_bits[btnm->btn_id_sel]) == false &&
 4272              		.loc 1 529 16 is_stmt 0 view .LVU1367
 4273 031c B48E     		ldrh	r4, [r6, #52]
 529:lvgl/src/widgets/lv_btnmatrix.c ****             if(button_is_repeat_disabled(btnm->ctrl_bits[btnm->btn_id_sel]) == false &&
 4274              		.loc 1 529 11 view .LVU1368
 4275 031e 4FF6FF73 		movw	r3, #65535
 4276 0322 9C42     		cmp	r4, r3
 4277 0324 3FF475AE 		beq	.L208
 530:lvgl/src/widgets/lv_btnmatrix.c ****                button_is_inactive(btnm->ctrl_bits[btnm->btn_id_sel]) == false &&
 4278              		.loc 1 530 13 is_stmt 1 view .LVU1369
 530:lvgl/src/widgets/lv_btnmatrix.c ****                button_is_inactive(btnm->ctrl_bits[btnm->btn_id_sel]) == false &&
 4279              		.loc 1 530 46 is_stmt 0 view .LVU1370
 4280 0328 F36A     		ldr	r3, [r6, #44]
 530:lvgl/src/widgets/lv_btnmatrix.c ****                button_is_inactive(btnm->ctrl_bits[btnm->btn_id_sel]) == false &&
ARM GAS  /var/folders/21/t9g5rlb91ys800n5npymflf80000gn/T//ccSbQiFP.s 			page 128


 4281              		.loc 1 530 16 view .LVU1371
 4282 032a 33F81450 		ldrh	r5, [r3, r4, lsl #1]
 4283              	.LVL423:
 530:lvgl/src/widgets/lv_btnmatrix.c ****                button_is_inactive(btnm->ctrl_bits[btnm->btn_id_sel]) == false &&
 4284              		.loc 1 530 16 view .LVU1372
 4285 032e 2846     		mov	r0, r5
 4286 0330 FFF7FEFF 		bl	button_is_repeat_disabled
 4287              	.LVL424:
 530:lvgl/src/widgets/lv_btnmatrix.c ****                button_is_inactive(btnm->ctrl_bits[btnm->btn_id_sel]) == false &&
 4288              		.loc 1 530 15 view .LVU1373
 4289 0334 0028     		cmp	r0, #0
 4290 0336 7FF46CAE 		bne	.L208
 531:lvgl/src/widgets/lv_btnmatrix.c ****                button_is_hidden(btnm->ctrl_bits[btnm->btn_id_sel]) == false) {
 4291              		.loc 1 531 16 discriminator 1 view .LVU1374
 4292 033a 2846     		mov	r0, r5
 4293 033c FFF7FEFF 		bl	button_is_inactive
 4294              	.LVL425:
 530:lvgl/src/widgets/lv_btnmatrix.c ****                button_is_inactive(btnm->ctrl_bits[btnm->btn_id_sel]) == false &&
 4295              		.loc 1 530 86 discriminator 1 view .LVU1375
 4296 0340 0028     		cmp	r0, #0
 4297 0342 7FF466AE 		bne	.L208
 532:lvgl/src/widgets/lv_btnmatrix.c ****                 uint32_t b = btnm->btn_id_sel;
 4298              		.loc 1 532 16 view .LVU1376
 4299 0346 2846     		mov	r0, r5
 4300 0348 FFF7FEFF 		bl	button_is_hidden
 4301              	.LVL426:
 531:lvgl/src/widgets/lv_btnmatrix.c ****                button_is_hidden(btnm->ctrl_bits[btnm->btn_id_sel]) == false) {
 4302              		.loc 1 531 79 view .LVU1377
 4303 034c 0028     		cmp	r0, #0
 4304 034e 7FF460AE 		bne	.L208
 4305              	.LBB149:
 533:lvgl/src/widgets/lv_btnmatrix.c ****                 res        = lv_event_send(obj, LV_EVENT_VALUE_CHANGED, &b);
 4306              		.loc 1 533 17 is_stmt 1 view .LVU1378
 533:lvgl/src/widgets/lv_btnmatrix.c ****                 res        = lv_event_send(obj, LV_EVENT_VALUE_CHANGED, &b);
 4307              		.loc 1 533 26 is_stmt 0 view .LVU1379
 4308 0352 0094     		str	r4, [sp]
 534:lvgl/src/widgets/lv_btnmatrix.c ****                 if(res != LV_RES_OK) return;
 4309              		.loc 1 534 17 is_stmt 1 view .LVU1380
 534:lvgl/src/widgets/lv_btnmatrix.c ****                 if(res != LV_RES_OK) return;
 4310              		.loc 1 534 30 is_stmt 0 view .LVU1381
 4311 0354 6A46     		mov	r2, sp
 4312 0356 1C21     		movs	r1, #28
 4313 0358 3046     		mov	r0, r6
 4314 035a FFF7FEFF 		bl	lv_event_send
 4315              	.LVL427:
 535:lvgl/src/widgets/lv_btnmatrix.c ****             }
 4316              		.loc 1 535 17 is_stmt 1 view .LVU1382
 4317 035e 58E6     		b	.L208
 4318              	.LVL428:
 4319              	.L222:
 535:lvgl/src/widgets/lv_btnmatrix.c ****             }
 4320              		.loc 1 535 17 is_stmt 0 view .LVU1383
 4321              	.LBE149:
 540:lvgl/src/widgets/lv_btnmatrix.c ****         btnm->btn_id_sel = LV_BTNMATRIX_BTN_NONE;
 4322              		.loc 1 540 9 is_stmt 1 view .LVU1384
 4323 0360 B18E     		ldrh	r1, [r6, #52]
 4324 0362 3046     		mov	r0, r6
ARM GAS  /var/folders/21/t9g5rlb91ys800n5npymflf80000gn/T//ccSbQiFP.s 			page 129


 4325 0364 FFF7FEFF 		bl	invalidate_button_area
 4326              	.LVL429:
 541:lvgl/src/widgets/lv_btnmatrix.c ****     }
 4327              		.loc 1 541 9 view .LVU1385
 541:lvgl/src/widgets/lv_btnmatrix.c ****     }
 4328              		.loc 1 541 26 is_stmt 0 view .LVU1386
 4329 0368 4FF6FF73 		movw	r3, #65535
 4330 036c B386     		strh	r3, [r6, #52]	@ movhi
 4331 036e 50E6     		b	.L208
 4332              	.L218:
 4333              	.LBB150:
 544:lvgl/src/widgets/lv_btnmatrix.c **** 
 4334              		.loc 1 544 9 is_stmt 1 view .LVU1387
 544:lvgl/src/widgets/lv_btnmatrix.c **** 
 4335              		.loc 1 544 16 is_stmt 0 view .LVU1388
 4336 0370 338E     		ldrh	r3, [r6, #48]
 544:lvgl/src/widgets/lv_btnmatrix.c **** 
 4337              		.loc 1 544 11 view .LVU1389
 4338 0372 002B     		cmp	r3, #0
 4339 0374 3FF44DAE 		beq	.L208
 546:lvgl/src/widgets/lv_btnmatrix.c ****         lv_indev_type_t indev_type = lv_indev_get_type(indev);
 4340              		.loc 1 546 9 is_stmt 1 view .LVU1390
 546:lvgl/src/widgets/lv_btnmatrix.c ****         lv_indev_type_t indev_type = lv_indev_get_type(indev);
 4341              		.loc 1 546 30 is_stmt 0 view .LVU1391
 4342 0378 2846     		mov	r0, r5
 4343 037a FFF7FEFF 		bl	lv_event_get_param
 4344              	.LVL430:
 4345 037e 0546     		mov	r5, r0
 4346              	.LVL431:
 547:lvgl/src/widgets/lv_btnmatrix.c **** 
 4347              		.loc 1 547 9 is_stmt 1 view .LVU1392
 547:lvgl/src/widgets/lv_btnmatrix.c **** 
 4348              		.loc 1 547 38 is_stmt 0 view .LVU1393
 4349 0380 FFF7FEFF 		bl	lv_indev_get_type
 4350              	.LVL432:
 547:lvgl/src/widgets/lv_btnmatrix.c **** 
 4351              		.loc 1 547 38 view .LVU1394
 4352 0384 0446     		mov	r4, r0
 4353              	.LVL433:
 550:lvgl/src/widgets/lv_btnmatrix.c ****             indev = lv_indev_get_next(NULL);
 4354              		.loc 1 550 9 is_stmt 1 view .LVU1395
 550:lvgl/src/widgets/lv_btnmatrix.c ****             indev = lv_indev_get_next(NULL);
 4355              		.loc 1 550 11 is_stmt 0 view .LVU1396
 4356 0386 95B1     		cbz	r5, .L289
 4357              	.LVL434:
 4358              	.L237:
 555:lvgl/src/widgets/lv_btnmatrix.c ****         /*Focus the first button if there is not selected button*/
 4359              		.loc 1 555 9 is_stmt 1 view .LVU1397
 555:lvgl/src/widgets/lv_btnmatrix.c ****         /*Focus the first button if there is not selected button*/
 4360              		.loc 1 555 45 is_stmt 0 view .LVU1398
 4361 0388 3046     		mov	r0, r6
 4362 038a FFF7FEFF 		bl	lv_obj_get_group
 4363              	.LVL435:
 555:lvgl/src/widgets/lv_btnmatrix.c ****         /*Focus the first button if there is not selected button*/
 4364              		.loc 1 555 24 view .LVU1399
 4365 038e FFF7FEFF 		bl	lv_group_get_editing
 4366              	.LVL436:
ARM GAS  /var/folders/21/t9g5rlb91ys800n5npymflf80000gn/T//ccSbQiFP.s 			page 130


 557:lvgl/src/widgets/lv_btnmatrix.c ****             if(indev_type == LV_INDEV_TYPE_KEYPAD || (indev_type == LV_INDEV_TYPE_ENCODER && editin
 4367              		.loc 1 557 9 is_stmt 1 view .LVU1400
 557:lvgl/src/widgets/lv_btnmatrix.c ****             if(indev_type == LV_INDEV_TYPE_KEYPAD || (indev_type == LV_INDEV_TYPE_ENCODER && editin
 4368              		.loc 1 557 16 is_stmt 0 view .LVU1401
 4369 0392 B28E     		ldrh	r2, [r6, #52]
 557:lvgl/src/widgets/lv_btnmatrix.c ****             if(indev_type == LV_INDEV_TYPE_KEYPAD || (indev_type == LV_INDEV_TYPE_ENCODER && editin
 4370              		.loc 1 557 11 view .LVU1402
 4371 0394 4FF6FF73 		movw	r3, #65535
 4372 0398 9A42     		cmp	r2, r3
 4373 039a 7FF43AAE 		bne	.L208
 558:lvgl/src/widgets/lv_btnmatrix.c ****                 uint32_t b = 0;
 4374              		.loc 1 558 13 is_stmt 1 view .LVU1403
 558:lvgl/src/widgets/lv_btnmatrix.c ****                 uint32_t b = 0;
 4375              		.loc 1 558 15 is_stmt 0 view .LVU1404
 4376 039e 022C     		cmp	r4, #2
 4377 03a0 0ED0     		beq	.L238
 558:lvgl/src/widgets/lv_btnmatrix.c ****                 uint32_t b = 0;
 4378              		.loc 1 558 51 discriminator 1 view .LVU1405
 4379 03a2 042C     		cmp	r4, #4
 4380 03a4 0AD0     		beq	.L290
 4381              	.L239:
 571:lvgl/src/widgets/lv_btnmatrix.c ****             }
 4382              		.loc 1 571 17 is_stmt 1 view .LVU1406
 571:lvgl/src/widgets/lv_btnmatrix.c ****             }
 4383              		.loc 1 571 34 is_stmt 0 view .LVU1407
 4384 03a6 4FF6FF73 		movw	r3, #65535
 4385 03aa B386     		strh	r3, [r6, #52]	@ movhi
 4386 03ac 31E6     		b	.L208
 4387              	.LVL437:
 4388              	.L289:
 551:lvgl/src/widgets/lv_btnmatrix.c ****             indev_type = lv_indev_get_type(indev);
 4389              		.loc 1 551 13 is_stmt 1 view .LVU1408
 551:lvgl/src/widgets/lv_btnmatrix.c ****             indev_type = lv_indev_get_type(indev);
 4390              		.loc 1 551 21 is_stmt 0 view .LVU1409
 4391 03ae 0020     		movs	r0, #0
 4392 03b0 FFF7FEFF 		bl	lv_indev_get_next
 4393              	.LVL438:
 552:lvgl/src/widgets/lv_btnmatrix.c ****         }
 4394              		.loc 1 552 13 is_stmt 1 view .LVU1410
 552:lvgl/src/widgets/lv_btnmatrix.c ****         }
 4395              		.loc 1 552 26 is_stmt 0 view .LVU1411
 4396 03b4 FFF7FEFF 		bl	lv_indev_get_type
 4397              	.LVL439:
 552:lvgl/src/widgets/lv_btnmatrix.c ****         }
 4398              		.loc 1 552 26 view .LVU1412
 4399 03b8 0446     		mov	r4, r0
 4400              	.LVL440:
 552:lvgl/src/widgets/lv_btnmatrix.c ****         }
 4401              		.loc 1 552 26 view .LVU1413
 4402 03ba E5E7     		b	.L237
 4403              	.LVL441:
 4404              	.L290:
 558:lvgl/src/widgets/lv_btnmatrix.c ****                 uint32_t b = 0;
 4405              		.loc 1 558 91 discriminator 2 view .LVU1414
 4406 03bc 0028     		cmp	r0, #0
 4407 03be F2D0     		beq	.L239
 4408              	.L238:
ARM GAS  /var/folders/21/t9g5rlb91ys800n5npymflf80000gn/T//ccSbQiFP.s 			page 131


 4409              	.LBB151:
 559:lvgl/src/widgets/lv_btnmatrix.c ****                 if(btnm->one_check) {
 4410              		.loc 1 559 17 is_stmt 1 view .LVU1415
 4411              	.LVL442:
 560:lvgl/src/widgets/lv_btnmatrix.c ****                     while(button_is_hidden(btnm->ctrl_bits[b]) || button_is_inactive(btnm->ctrl_bit
 4412              		.loc 1 560 17 view .LVU1416
 560:lvgl/src/widgets/lv_btnmatrix.c ****                     while(button_is_hidden(btnm->ctrl_bits[b]) || button_is_inactive(btnm->ctrl_bit
 4413              		.loc 1 560 20 is_stmt 0 view .LVU1417
 4414 03c0 96F83630 		ldrb	r3, [r6, #54]	@ zero_extendqisi2
 560:lvgl/src/widgets/lv_btnmatrix.c ****                     while(button_is_hidden(btnm->ctrl_bits[b]) || button_is_inactive(btnm->ctrl_bit
 4415              		.loc 1 560 19 view .LVU1418
 4416 03c4 13F0010F 		tst	r3, #1
 4417 03c8 16D1     		bne	.L279
 559:lvgl/src/widgets/lv_btnmatrix.c ****                 if(btnm->one_check) {
 4418              		.loc 1 559 26 view .LVU1419
 4419 03ca 0024     		movs	r4, #0
 4420              	.LVL443:
 559:lvgl/src/widgets/lv_btnmatrix.c ****                 if(btnm->one_check) {
 4421              		.loc 1 559 26 view .LVU1420
 4422 03cc 17E0     		b	.L241
 4423              	.LVL444:
 4424              	.L242:
 562:lvgl/src/widgets/lv_btnmatrix.c ****                 }
 4425              		.loc 1 562 75 is_stmt 1 view .LVU1421
 562:lvgl/src/widgets/lv_btnmatrix.c ****                 }
 4426              		.loc 1 562 76 is_stmt 0 view .LVU1422
 4427 03ce 0134     		adds	r4, r4, #1
 4428              	.LVL445:
 4429              	.L240:
 561:lvgl/src/widgets/lv_btnmatrix.c ****                           button_is_checked(btnm->ctrl_bits[b]) == false) b++;
 4430              		.loc 1 561 106 is_stmt 1 view .LVU1423
 561:lvgl/src/widgets/lv_btnmatrix.c ****                           button_is_checked(btnm->ctrl_bits[b]) == false) b++;
 4431              		.loc 1 561 48 is_stmt 0 view .LVU1424
 4432 03d0 F36A     		ldr	r3, [r6, #44]
 561:lvgl/src/widgets/lv_btnmatrix.c ****                           button_is_checked(btnm->ctrl_bits[b]) == false) b++;
 4433              		.loc 1 561 27 view .LVU1425
 4434 03d2 33F81450 		ldrh	r5, [r3, r4, lsl #1]
 4435 03d6 2846     		mov	r0, r5
 4436 03d8 FFF7FEFF 		bl	button_is_hidden
 4437              	.LVL446:
 561:lvgl/src/widgets/lv_btnmatrix.c ****                           button_is_checked(btnm->ctrl_bits[b]) == false) b++;
 4438              		.loc 1 561 106 view .LVU1426
 4439 03dc 0028     		cmp	r0, #0
 4440 03de F6D1     		bne	.L242
 561:lvgl/src/widgets/lv_btnmatrix.c ****                           button_is_checked(btnm->ctrl_bits[b]) == false) b++;
 4441              		.loc 1 561 67 discriminator 1 view .LVU1427
 4442 03e0 2846     		mov	r0, r5
 4443 03e2 FFF7FEFF 		bl	button_is_inactive
 4444              	.LVL447:
 561:lvgl/src/widgets/lv_btnmatrix.c ****                           button_is_checked(btnm->ctrl_bits[b]) == false) b++;
 4445              		.loc 1 561 64 discriminator 1 view .LVU1428
 4446 03e6 0028     		cmp	r0, #0
 4447 03e8 F1D1     		bne	.L242
 562:lvgl/src/widgets/lv_btnmatrix.c ****                 }
 4448              		.loc 1 562 27 discriminator 2 view .LVU1429
 4449 03ea 2846     		mov	r0, r5
 4450 03ec FFF7FEFF 		bl	button_is_checked
ARM GAS  /var/folders/21/t9g5rlb91ys800n5npymflf80000gn/T//ccSbQiFP.s 			page 132


 4451              	.LVL448:
 561:lvgl/src/widgets/lv_btnmatrix.c ****                           button_is_checked(btnm->ctrl_bits[b]) == false) b++;
 4452              		.loc 1 561 106 discriminator 2 view .LVU1430
 4453 03f0 0028     		cmp	r0, #0
 4454 03f2 ECD0     		beq	.L242
 4455              	.L243:
 568:lvgl/src/widgets/lv_btnmatrix.c ****             }
 4456              		.loc 1 568 17 is_stmt 1 view .LVU1431
 568:lvgl/src/widgets/lv_btnmatrix.c ****             }
 4457              		.loc 1 568 34 is_stmt 0 view .LVU1432
 4458 03f4 B486     		strh	r4, [r6, #52]	@ movhi
 4459              	.LBE151:
 558:lvgl/src/widgets/lv_btnmatrix.c ****                 uint32_t b = 0;
 4460              		.loc 1 558 104 view .LVU1433
 4461 03f6 0CE6     		b	.L208
 4462              	.LVL449:
 4463              	.L279:
 4464              	.LBB152:
 559:lvgl/src/widgets/lv_btnmatrix.c ****                 if(btnm->one_check) {
 4465              		.loc 1 559 26 view .LVU1434
 4466 03f8 0024     		movs	r4, #0
 4467              	.LVL450:
 559:lvgl/src/widgets/lv_btnmatrix.c ****                 if(btnm->one_check) {
 4468              		.loc 1 559 26 view .LVU1435
 4469 03fa E9E7     		b	.L240
 4470              	.LVL451:
 4471              	.L244:
 565:lvgl/src/widgets/lv_btnmatrix.c ****                 }
 4472              		.loc 1 565 107 is_stmt 1 discriminator 4 view .LVU1436
 565:lvgl/src/widgets/lv_btnmatrix.c ****                 }
 4473              		.loc 1 565 108 is_stmt 0 discriminator 4 view .LVU1437
 4474 03fc 0134     		adds	r4, r4, #1
 4475              	.LVL452:
 4476              	.L241:
 565:lvgl/src/widgets/lv_btnmatrix.c ****                 }
 4477              		.loc 1 565 64 is_stmt 1 discriminator 1 view .LVU1438
 565:lvgl/src/widgets/lv_btnmatrix.c ****                 }
 4478              		.loc 1 565 48 is_stmt 0 discriminator 1 view .LVU1439
 4479 03fe F36A     		ldr	r3, [r6, #44]
 565:lvgl/src/widgets/lv_btnmatrix.c ****                 }
 4480              		.loc 1 565 27 discriminator 1 view .LVU1440
 4481 0400 33F81450 		ldrh	r5, [r3, r4, lsl #1]
 4482 0404 2846     		mov	r0, r5
 4483 0406 FFF7FEFF 		bl	button_is_hidden
 4484              	.LVL453:
 565:lvgl/src/widgets/lv_btnmatrix.c ****                 }
 4485              		.loc 1 565 64 discriminator 1 view .LVU1441
 4486 040a 0028     		cmp	r0, #0
 4487 040c F6D1     		bne	.L244
 565:lvgl/src/widgets/lv_btnmatrix.c ****                 }
 4488              		.loc 1 565 67 discriminator 3 view .LVU1442
 4489 040e 2846     		mov	r0, r5
 4490 0410 FFF7FEFF 		bl	button_is_inactive
 4491              	.LVL454:
 565:lvgl/src/widgets/lv_btnmatrix.c ****                 }
 4492              		.loc 1 565 64 discriminator 3 view .LVU1443
 4493 0414 0028     		cmp	r0, #0
ARM GAS  /var/folders/21/t9g5rlb91ys800n5npymflf80000gn/T//ccSbQiFP.s 			page 133


 4494 0416 F1D1     		bne	.L244
 4495 0418 ECE7     		b	.L243
 4496              	.LVL455:
 4497              	.L217:
 565:lvgl/src/widgets/lv_btnmatrix.c ****                 }
 4498              		.loc 1 565 64 discriminator 3 view .LVU1444
 4499              	.LBE152:
 4500              	.LBE150:
 576:lvgl/src/widgets/lv_btnmatrix.c ****         btnm->btn_id_sel = LV_BTNMATRIX_BTN_NONE;
 4501              		.loc 1 576 9 is_stmt 1 view .LVU1445
 576:lvgl/src/widgets/lv_btnmatrix.c ****         btnm->btn_id_sel = LV_BTNMATRIX_BTN_NONE;
 4502              		.loc 1 576 16 is_stmt 0 view .LVU1446
 4503 041a B18E     		ldrh	r1, [r6, #52]
 576:lvgl/src/widgets/lv_btnmatrix.c ****         btnm->btn_id_sel = LV_BTNMATRIX_BTN_NONE;
 4504              		.loc 1 576 11 view .LVU1447
 4505 041c 4FF6FF73 		movw	r3, #65535
 4506 0420 9942     		cmp	r1, r3
 4507 0422 03D1     		bne	.L291
 4508              	.L245:
 577:lvgl/src/widgets/lv_btnmatrix.c ****     }
 4509              		.loc 1 577 9 is_stmt 1 view .LVU1448
 577:lvgl/src/widgets/lv_btnmatrix.c ****     }
 4510              		.loc 1 577 26 is_stmt 0 view .LVU1449
 4511 0424 4FF6FF73 		movw	r3, #65535
 4512 0428 B386     		strh	r3, [r6, #52]	@ movhi
 4513 042a F2E5     		b	.L208
 4514              	.L291:
 576:lvgl/src/widgets/lv_btnmatrix.c ****         btnm->btn_id_sel = LV_BTNMATRIX_BTN_NONE;
 4515              		.loc 1 576 55 is_stmt 1 discriminator 1 view .LVU1450
 4516 042c 3046     		mov	r0, r6
 4517 042e FFF7FEFF 		bl	invalidate_button_area
 4518              	.LVL456:
 4519 0432 F7E7     		b	.L245
 4520              	.L219:
 4521              	.LBB153:
 581:lvgl/src/widgets/lv_btnmatrix.c **** 
 4522              		.loc 1 581 9 view .LVU1451
 4523 0434 B18E     		ldrh	r1, [r6, #52]
 4524 0436 3046     		mov	r0, r6
 4525 0438 FFF7FEFF 		bl	invalidate_button_area
 4526              	.LVL457:
 583:lvgl/src/widgets/lv_btnmatrix.c ****         if(c == LV_KEY_RIGHT) {
 4527              		.loc 1 583 9 view .LVU1452
 583:lvgl/src/widgets/lv_btnmatrix.c ****         if(c == LV_KEY_RIGHT) {
 4528              		.loc 1 583 28 is_stmt 0 view .LVU1453
 4529 043c 2846     		mov	r0, r5
 4530 043e FFF7FEFF 		bl	lv_event_get_param
 4531              	.LVL458:
 583:lvgl/src/widgets/lv_btnmatrix.c ****         if(c == LV_KEY_RIGHT) {
 4532              		.loc 1 583 14 view .LVU1454
 4533 0442 0378     		ldrb	r3, [r0]	@ zero_extendqisi2
 4534              	.LVL459:
 584:lvgl/src/widgets/lv_btnmatrix.c ****             if(btnm->btn_id_sel == LV_BTNMATRIX_BTN_NONE)  btnm->btn_id_sel = 0;
 4535              		.loc 1 584 9 is_stmt 1 view .LVU1455
 584:lvgl/src/widgets/lv_btnmatrix.c ****             if(btnm->btn_id_sel == LV_BTNMATRIX_BTN_NONE)  btnm->btn_id_sel = 0;
 4536              		.loc 1 584 11 is_stmt 0 view .LVU1456
 4537 0444 132B     		cmp	r3, #19
ARM GAS  /var/folders/21/t9g5rlb91ys800n5npymflf80000gn/T//ccSbQiFP.s 			page 134


 4538 0446 0BD0     		beq	.L292
 600:lvgl/src/widgets/lv_btnmatrix.c ****             if(btnm->btn_id_sel == LV_BTNMATRIX_BTN_NONE) btnm->btn_id_sel = 0;
 4539              		.loc 1 600 14 is_stmt 1 view .LVU1457
 600:lvgl/src/widgets/lv_btnmatrix.c ****             if(btnm->btn_id_sel == LV_BTNMATRIX_BTN_NONE) btnm->btn_id_sel = 0;
 4540              		.loc 1 600 16 is_stmt 0 view .LVU1458
 4541 0448 142B     		cmp	r3, #20
 4542 044a 39D0     		beq	.L293
 617:lvgl/src/widgets/lv_btnmatrix.c ****             lv_coord_t col_gap = lv_obj_get_style_pad_column(obj, LV_PART_MAIN);
 4543              		.loc 1 617 14 is_stmt 1 view .LVU1459
 617:lvgl/src/widgets/lv_btnmatrix.c ****             lv_coord_t col_gap = lv_obj_get_style_pad_column(obj, LV_PART_MAIN);
 4544              		.loc 1 617 16 is_stmt 0 view .LVU1460
 4545 044c 122B     		cmp	r3, #18
 4546 044e 66D0     		beq	.L294
 648:lvgl/src/widgets/lv_btnmatrix.c ****             lv_coord_t col_gap = lv_obj_get_style_pad_column(obj, LV_PART_MAIN);
 4547              		.loc 1 648 14 is_stmt 1 view .LVU1461
 648:lvgl/src/widgets/lv_btnmatrix.c ****             lv_coord_t col_gap = lv_obj_get_style_pad_column(obj, LV_PART_MAIN);
 4548              		.loc 1 648 16 is_stmt 0 view .LVU1462
 4549 0450 112B     		cmp	r3, #17
 4550 0452 00F0C480 		beq	.L295
 4551              	.LVL460:
 4552              	.L252:
 679:lvgl/src/widgets/lv_btnmatrix.c ****     }
 4553              		.loc 1 679 9 is_stmt 1 view .LVU1463
 4554 0456 B18E     		ldrh	r1, [r6, #52]
 4555 0458 3046     		mov	r0, r6
 4556 045a FFF7FEFF 		bl	invalidate_button_area
 4557              	.LVL461:
 4558              	.LBE153:
 4559 045e D8E5     		b	.L208
 4560              	.LVL462:
 4561              	.L292:
 4562              	.LBB170:
 4563              	.LBB154:
 585:lvgl/src/widgets/lv_btnmatrix.c ****             else btnm->btn_id_sel++;
 4564              		.loc 1 585 13 view .LVU1464
 585:lvgl/src/widgets/lv_btnmatrix.c ****             else btnm->btn_id_sel++;
 4565              		.loc 1 585 20 is_stmt 0 view .LVU1465
 4566 0460 B38E     		ldrh	r3, [r6, #52]
 4567              	.LVL463:
 585:lvgl/src/widgets/lv_btnmatrix.c ****             else btnm->btn_id_sel++;
 4568              		.loc 1 585 15 view .LVU1466
 4569 0462 4FF6FF72 		movw	r2, #65535
 4570 0466 9342     		cmp	r3, r2
 4571 0468 0AD0     		beq	.L296
 586:lvgl/src/widgets/lv_btnmatrix.c ****             if(btnm->btn_id_sel >= btnm->btn_cnt) btnm->btn_id_sel = 0;
 4572              		.loc 1 586 18 is_stmt 1 view .LVU1467
 586:lvgl/src/widgets/lv_btnmatrix.c ****             if(btnm->btn_id_sel >= btnm->btn_cnt) btnm->btn_id_sel = 0;
 4573              		.loc 1 586 34 is_stmt 0 view .LVU1468
 4574 046a 0133     		adds	r3, r3, #1
 4575 046c B386     		strh	r3, [r6, #52]	@ movhi
 4576              	.LVL464:
 4577              	.L248:
 587:lvgl/src/widgets/lv_btnmatrix.c **** 
 4578              		.loc 1 587 13 is_stmt 1 view .LVU1469
 587:lvgl/src/widgets/lv_btnmatrix.c **** 
 4579              		.loc 1 587 20 is_stmt 0 view .LVU1470
 4580 046e B38E     		ldrh	r3, [r6, #52]
ARM GAS  /var/folders/21/t9g5rlb91ys800n5npymflf80000gn/T//ccSbQiFP.s 			page 135


 587:lvgl/src/widgets/lv_btnmatrix.c **** 
 4581              		.loc 1 587 40 view .LVU1471
 4582 0470 378E     		ldrh	r7, [r6, #48]
 587:lvgl/src/widgets/lv_btnmatrix.c **** 
 4583              		.loc 1 587 15 view .LVU1472
 4584 0472 BB42     		cmp	r3, r7
 4585 0474 01D3     		bcc	.L249
 587:lvgl/src/widgets/lv_btnmatrix.c **** 
 4586              		.loc 1 587 51 is_stmt 1 discriminator 1 view .LVU1473
 587:lvgl/src/widgets/lv_btnmatrix.c **** 
 4587              		.loc 1 587 68 is_stmt 0 discriminator 1 view .LVU1474
 4588 0476 0023     		movs	r3, #0
 4589 0478 B386     		strh	r3, [r6, #52]	@ movhi
 4590              	.L249:
 589:lvgl/src/widgets/lv_btnmatrix.c ****             while(button_is_hidden(btnm->ctrl_bits[btnm->btn_id_sel]) || button_is_inactive(btnm->c
 4591              		.loc 1 589 13 is_stmt 1 view .LVU1475
 589:lvgl/src/widgets/lv_btnmatrix.c ****             while(button_is_hidden(btnm->ctrl_bits[btnm->btn_id_sel]) || button_is_inactive(btnm->c
 4592              		.loc 1 589 22 is_stmt 0 view .LVU1476
 4593 047a B6F83480 		ldrh	r8, [r6, #52]
 4594              	.LVL465:
 590:lvgl/src/widgets/lv_btnmatrix.c ****                 btnm->btn_id_sel++;
 4595              		.loc 1 590 13 is_stmt 1 view .LVU1477
 590:lvgl/src/widgets/lv_btnmatrix.c ****                 btnm->btn_id_sel++;
 4596              		.loc 1 590 18 is_stmt 0 view .LVU1478
 4597 047e 0CE0     		b	.L250
 4598              	.LVL466:
 4599              	.L296:
 585:lvgl/src/widgets/lv_btnmatrix.c ****             else btnm->btn_id_sel++;
 4600              		.loc 1 585 60 is_stmt 1 discriminator 1 view .LVU1479
 585:lvgl/src/widgets/lv_btnmatrix.c ****             else btnm->btn_id_sel++;
 4601              		.loc 1 585 77 is_stmt 0 discriminator 1 view .LVU1480
 4602 0480 0023     		movs	r3, #0
 4603 0482 B386     		strh	r3, [r6, #52]	@ movhi
 4604              	.LVL467:
 585:lvgl/src/widgets/lv_btnmatrix.c ****             else btnm->btn_id_sel++;
 4605              		.loc 1 585 77 discriminator 1 view .LVU1481
 4606 0484 F3E7     		b	.L248
 4607              	.LVL468:
 4608              	.L253:
 591:lvgl/src/widgets/lv_btnmatrix.c ****                 if(btnm->btn_id_sel >= btnm->btn_cnt) btnm->btn_id_sel = 0;
 4609              		.loc 1 591 17 is_stmt 1 view .LVU1482
 591:lvgl/src/widgets/lv_btnmatrix.c ****                 if(btnm->btn_id_sel >= btnm->btn_cnt) btnm->btn_id_sel = 0;
 4610              		.loc 1 591 33 is_stmt 0 view .LVU1483
 4611 0486 0134     		adds	r4, r4, #1
 4612 0488 A4B2     		uxth	r4, r4
 4613 048a B486     		strh	r4, [r6, #52]	@ movhi
 592:lvgl/src/widgets/lv_btnmatrix.c **** 
 4614              		.loc 1 592 17 is_stmt 1 view .LVU1484
 592:lvgl/src/widgets/lv_btnmatrix.c **** 
 4615              		.loc 1 592 19 is_stmt 0 view .LVU1485
 4616 048c A742     		cmp	r7, r4
 4617 048e 01D8     		bhi	.L251
 592:lvgl/src/widgets/lv_btnmatrix.c **** 
 4618              		.loc 1 592 55 is_stmt 1 discriminator 1 view .LVU1486
 592:lvgl/src/widgets/lv_btnmatrix.c **** 
 4619              		.loc 1 592 72 is_stmt 0 discriminator 1 view .LVU1487
 4620 0490 0023     		movs	r3, #0
ARM GAS  /var/folders/21/t9g5rlb91ys800n5npymflf80000gn/T//ccSbQiFP.s 			page 136


 4621 0492 B386     		strh	r3, [r6, #52]	@ movhi
 4622              	.L251:
 594:lvgl/src/widgets/lv_btnmatrix.c ****                     btnm->btn_id_sel = LV_BTNMATRIX_BTN_NONE;
 4623              		.loc 1 594 17 is_stmt 1 view .LVU1488
 594:lvgl/src/widgets/lv_btnmatrix.c ****                     btnm->btn_id_sel = LV_BTNMATRIX_BTN_NONE;
 4624              		.loc 1 594 24 is_stmt 0 view .LVU1489
 4625 0494 B38E     		ldrh	r3, [r6, #52]
 594:lvgl/src/widgets/lv_btnmatrix.c ****                     btnm->btn_id_sel = LV_BTNMATRIX_BTN_NONE;
 4626              		.loc 1 594 19 view .LVU1490
 4627 0496 4345     		cmp	r3, r8
 4628 0498 0ED0     		beq	.L297
 4629              	.L250:
 590:lvgl/src/widgets/lv_btnmatrix.c ****                 btnm->btn_id_sel++;
 4630              		.loc 1 590 71 is_stmt 1 view .LVU1491
 590:lvgl/src/widgets/lv_btnmatrix.c ****                 btnm->btn_id_sel++;
 4631              		.loc 1 590 40 is_stmt 0 view .LVU1492
 4632 049a F36A     		ldr	r3, [r6, #44]
 590:lvgl/src/widgets/lv_btnmatrix.c ****                 btnm->btn_id_sel++;
 4633              		.loc 1 590 56 view .LVU1493
 4634 049c B48E     		ldrh	r4, [r6, #52]
 590:lvgl/src/widgets/lv_btnmatrix.c ****                 btnm->btn_id_sel++;
 4635              		.loc 1 590 19 view .LVU1494
 4636 049e 33F81450 		ldrh	r5, [r3, r4, lsl #1]
 4637 04a2 2846     		mov	r0, r5
 4638 04a4 FFF7FEFF 		bl	button_is_hidden
 4639              	.LVL469:
 590:lvgl/src/widgets/lv_btnmatrix.c ****                 btnm->btn_id_sel++;
 4640              		.loc 1 590 71 view .LVU1495
 4641 04a8 0028     		cmp	r0, #0
 4642 04aa ECD1     		bne	.L253
 590:lvgl/src/widgets/lv_btnmatrix.c ****                 btnm->btn_id_sel++;
 4643              		.loc 1 590 74 discriminator 1 view .LVU1496
 4644 04ac 2846     		mov	r0, r5
 4645 04ae FFF7FEFF 		bl	button_is_inactive
 4646              	.LVL470:
 590:lvgl/src/widgets/lv_btnmatrix.c ****                 btnm->btn_id_sel++;
 4647              		.loc 1 590 71 discriminator 1 view .LVU1497
 4648 04b2 0028     		cmp	r0, #0
 4649 04b4 E7D1     		bne	.L253
 4650 04b6 CEE7     		b	.L252
 4651              	.L297:
 595:lvgl/src/widgets/lv_btnmatrix.c ****                     break;
 4652              		.loc 1 595 21 is_stmt 1 view .LVU1498
 595:lvgl/src/widgets/lv_btnmatrix.c ****                     break;
 4653              		.loc 1 595 38 is_stmt 0 view .LVU1499
 4654 04b8 4FF6FF73 		movw	r3, #65535
 4655 04bc B386     		strh	r3, [r6, #52]	@ movhi
 596:lvgl/src/widgets/lv_btnmatrix.c ****                 }
 4656              		.loc 1 596 21 is_stmt 1 view .LVU1500
 4657 04be CAE7     		b	.L252
 4658              	.LVL471:
 4659              	.L293:
 596:lvgl/src/widgets/lv_btnmatrix.c ****                 }
 4660              		.loc 1 596 21 is_stmt 0 view .LVU1501
 4661              	.LBE154:
 4662              	.LBB155:
 601:lvgl/src/widgets/lv_btnmatrix.c **** 
ARM GAS  /var/folders/21/t9g5rlb91ys800n5npymflf80000gn/T//ccSbQiFP.s 			page 137


 4663              		.loc 1 601 13 is_stmt 1 view .LVU1502
 601:lvgl/src/widgets/lv_btnmatrix.c **** 
 4664              		.loc 1 601 20 is_stmt 0 view .LVU1503
 4665 04c0 B28E     		ldrh	r2, [r6, #52]
 601:lvgl/src/widgets/lv_btnmatrix.c **** 
 4666              		.loc 1 601 15 view .LVU1504
 4667 04c2 4FF6FF73 		movw	r3, #65535
 4668              	.LVL472:
 601:lvgl/src/widgets/lv_btnmatrix.c **** 
 4669              		.loc 1 601 15 view .LVU1505
 4670 04c6 9A42     		cmp	r2, r3
 4671 04c8 06D0     		beq	.L298
 4672              	.LVL473:
 4673              	.L255:
 603:lvgl/src/widgets/lv_btnmatrix.c ****             else if(btnm->btn_id_sel > 0) btnm->btn_id_sel--;
 4674              		.loc 1 603 13 is_stmt 1 view .LVU1506
 603:lvgl/src/widgets/lv_btnmatrix.c ****             else if(btnm->btn_id_sel > 0) btnm->btn_id_sel--;
 4675              		.loc 1 603 20 is_stmt 0 view .LVU1507
 4676 04ca B38E     		ldrh	r3, [r6, #52]
 603:lvgl/src/widgets/lv_btnmatrix.c ****             else if(btnm->btn_id_sel > 0) btnm->btn_id_sel--;
 4677              		.loc 1 603 15 view .LVU1508
 4678 04cc 3BB9     		cbnz	r3, .L256
 603:lvgl/src/widgets/lv_btnmatrix.c ****             else if(btnm->btn_id_sel > 0) btnm->btn_id_sel--;
 4679              		.loc 1 603 39 is_stmt 1 discriminator 1 view .LVU1509
 603:lvgl/src/widgets/lv_btnmatrix.c ****             else if(btnm->btn_id_sel > 0) btnm->btn_id_sel--;
 4680              		.loc 1 603 62 is_stmt 0 discriminator 1 view .LVU1510
 4681 04ce 338E     		ldrh	r3, [r6, #48]
 603:lvgl/src/widgets/lv_btnmatrix.c ****             else if(btnm->btn_id_sel > 0) btnm->btn_id_sel--;
 4682              		.loc 1 603 72 discriminator 1 view .LVU1511
 4683 04d0 013B     		subs	r3, r3, #1
 603:lvgl/src/widgets/lv_btnmatrix.c ****             else if(btnm->btn_id_sel > 0) btnm->btn_id_sel--;
 4684              		.loc 1 603 56 discriminator 1 view .LVU1512
 4685 04d2 B386     		strh	r3, [r6, #52]	@ movhi
 4686              	.L257:
 606:lvgl/src/widgets/lv_btnmatrix.c ****             while(button_is_hidden(btnm->ctrl_bits[btnm->btn_id_sel]) || button_is_inactive(btnm->c
 4687              		.loc 1 606 13 is_stmt 1 view .LVU1513
 606:lvgl/src/widgets/lv_btnmatrix.c ****             while(button_is_hidden(btnm->ctrl_bits[btnm->btn_id_sel]) || button_is_inactive(btnm->c
 4688              		.loc 1 606 22 is_stmt 0 view .LVU1514
 4689 04d4 B78E     		ldrh	r7, [r6, #52]
 4690              	.LVL474:
 607:lvgl/src/widgets/lv_btnmatrix.c ****                 if(btnm->btn_id_sel > 0) btnm->btn_id_sel--;
 4691              		.loc 1 607 13 is_stmt 1 view .LVU1515
 607:lvgl/src/widgets/lv_btnmatrix.c ****                 if(btnm->btn_id_sel > 0) btnm->btn_id_sel--;
 4692              		.loc 1 607 18 is_stmt 0 view .LVU1516
 4693 04d6 0BE0     		b	.L258
 4694              	.LVL475:
 4695              	.L298:
 601:lvgl/src/widgets/lv_btnmatrix.c **** 
 4696              		.loc 1 601 59 is_stmt 1 discriminator 1 view .LVU1517
 601:lvgl/src/widgets/lv_btnmatrix.c **** 
 4697              		.loc 1 601 76 is_stmt 0 discriminator 1 view .LVU1518
 4698 04d8 0023     		movs	r3, #0
 4699 04da B386     		strh	r3, [r6, #52]	@ movhi
 4700              	.LVL476:
 601:lvgl/src/widgets/lv_btnmatrix.c **** 
 4701              		.loc 1 601 76 discriminator 1 view .LVU1519
 4702 04dc F5E7     		b	.L255
ARM GAS  /var/folders/21/t9g5rlb91ys800n5npymflf80000gn/T//ccSbQiFP.s 			page 138


 4703              	.L256:
 604:lvgl/src/widgets/lv_btnmatrix.c **** 
 4704              		.loc 1 604 18 is_stmt 1 discriminator 1 view .LVU1520
 604:lvgl/src/widgets/lv_btnmatrix.c **** 
 4705              		.loc 1 604 43 discriminator 1 view .LVU1521
 604:lvgl/src/widgets/lv_btnmatrix.c **** 
 4706              		.loc 1 604 59 is_stmt 0 discriminator 1 view .LVU1522
 4707 04de 013B     		subs	r3, r3, #1
 4708 04e0 B386     		strh	r3, [r6, #52]	@ movhi
 4709 04e2 F7E7     		b	.L257
 4710              	.LVL477:
 4711              	.L261:
 608:lvgl/src/widgets/lv_btnmatrix.c ****                 else btnm->btn_id_sel = btnm->btn_cnt - 1;
 4712              		.loc 1 608 17 is_stmt 1 view .LVU1523
 608:lvgl/src/widgets/lv_btnmatrix.c ****                 else btnm->btn_id_sel = btnm->btn_cnt - 1;
 4713              		.loc 1 608 19 is_stmt 0 view .LVU1524
 4714 04e4 9CB1     		cbz	r4, .L259
 608:lvgl/src/widgets/lv_btnmatrix.c ****                 else btnm->btn_id_sel = btnm->btn_cnt - 1;
 4715              		.loc 1 608 42 is_stmt 1 discriminator 1 view .LVU1525
 608:lvgl/src/widgets/lv_btnmatrix.c ****                 else btnm->btn_id_sel = btnm->btn_cnt - 1;
 4716              		.loc 1 608 58 is_stmt 0 discriminator 1 view .LVU1526
 4717 04e6 013C     		subs	r4, r4, #1
 4718 04e8 B486     		strh	r4, [r6, #52]	@ movhi
 4719              	.L260:
 611:lvgl/src/widgets/lv_btnmatrix.c ****                     btnm->btn_id_sel = LV_BTNMATRIX_BTN_NONE;
 4720              		.loc 1 611 17 is_stmt 1 view .LVU1527
 611:lvgl/src/widgets/lv_btnmatrix.c ****                     btnm->btn_id_sel = LV_BTNMATRIX_BTN_NONE;
 4721              		.loc 1 611 24 is_stmt 0 view .LVU1528
 4722 04ea B38E     		ldrh	r3, [r6, #52]
 611:lvgl/src/widgets/lv_btnmatrix.c ****                     btnm->btn_id_sel = LV_BTNMATRIX_BTN_NONE;
 4723              		.loc 1 611 19 view .LVU1529
 4724 04ec BB42     		cmp	r3, r7
 4725 04ee 12D0     		beq	.L299
 4726              	.L258:
 607:lvgl/src/widgets/lv_btnmatrix.c ****                 if(btnm->btn_id_sel > 0) btnm->btn_id_sel--;
 4727              		.loc 1 607 71 is_stmt 1 view .LVU1530
 607:lvgl/src/widgets/lv_btnmatrix.c ****                 if(btnm->btn_id_sel > 0) btnm->btn_id_sel--;
 4728              		.loc 1 607 40 is_stmt 0 view .LVU1531
 4729 04f0 F36A     		ldr	r3, [r6, #44]
 607:lvgl/src/widgets/lv_btnmatrix.c ****                 if(btnm->btn_id_sel > 0) btnm->btn_id_sel--;
 4730              		.loc 1 607 56 view .LVU1532
 4731 04f2 B48E     		ldrh	r4, [r6, #52]
 607:lvgl/src/widgets/lv_btnmatrix.c ****                 if(btnm->btn_id_sel > 0) btnm->btn_id_sel--;
 4732              		.loc 1 607 19 view .LVU1533
 4733 04f4 33F81450 		ldrh	r5, [r3, r4, lsl #1]
 4734 04f8 2846     		mov	r0, r5
 4735 04fa FFF7FEFF 		bl	button_is_hidden
 4736              	.LVL478:
 607:lvgl/src/widgets/lv_btnmatrix.c ****                 if(btnm->btn_id_sel > 0) btnm->btn_id_sel--;
 4737              		.loc 1 607 71 view .LVU1534
 4738 04fe 0028     		cmp	r0, #0
 4739 0500 F0D1     		bne	.L261
 607:lvgl/src/widgets/lv_btnmatrix.c ****                 if(btnm->btn_id_sel > 0) btnm->btn_id_sel--;
 4740              		.loc 1 607 74 discriminator 1 view .LVU1535
 4741 0502 2846     		mov	r0, r5
 4742 0504 FFF7FEFF 		bl	button_is_inactive
 4743              	.LVL479:
ARM GAS  /var/folders/21/t9g5rlb91ys800n5npymflf80000gn/T//ccSbQiFP.s 			page 139


 607:lvgl/src/widgets/lv_btnmatrix.c ****                 if(btnm->btn_id_sel > 0) btnm->btn_id_sel--;
 4744              		.loc 1 607 71 discriminator 1 view .LVU1536
 4745 0508 0028     		cmp	r0, #0
 4746 050a EBD1     		bne	.L261
 4747 050c A3E7     		b	.L252
 4748              	.L259:
 609:lvgl/src/widgets/lv_btnmatrix.c **** 
 4749              		.loc 1 609 22 is_stmt 1 view .LVU1537
 609:lvgl/src/widgets/lv_btnmatrix.c **** 
 4750              		.loc 1 609 45 is_stmt 0 view .LVU1538
 4751 050e 338E     		ldrh	r3, [r6, #48]
 609:lvgl/src/widgets/lv_btnmatrix.c **** 
 4752              		.loc 1 609 55 view .LVU1539
 4753 0510 013B     		subs	r3, r3, #1
 609:lvgl/src/widgets/lv_btnmatrix.c **** 
 4754              		.loc 1 609 39 view .LVU1540
 4755 0512 B386     		strh	r3, [r6, #52]	@ movhi
 4756 0514 E9E7     		b	.L260
 4757              	.L299:
 612:lvgl/src/widgets/lv_btnmatrix.c ****                     break;
 4758              		.loc 1 612 21 is_stmt 1 view .LVU1541
 612:lvgl/src/widgets/lv_btnmatrix.c ****                     break;
 4759              		.loc 1 612 38 is_stmt 0 view .LVU1542
 4760 0516 4FF6FF73 		movw	r3, #65535
 4761 051a B386     		strh	r3, [r6, #52]	@ movhi
 613:lvgl/src/widgets/lv_btnmatrix.c ****                 }
 4762              		.loc 1 613 21 is_stmt 1 view .LVU1543
 4763 051c 9BE7     		b	.L252
 4764              	.LVL480:
 4765              	.L294:
 613:lvgl/src/widgets/lv_btnmatrix.c ****                 }
 4766              		.loc 1 613 21 is_stmt 0 view .LVU1544
 4767              	.LBE155:
 4768              	.LBB156:
 618:lvgl/src/widgets/lv_btnmatrix.c ****             /*Find the area below the current*/
 4769              		.loc 1 618 13 is_stmt 1 view .LVU1545
 4770              	.LBB157:
 4771              	.LBI157:
 133:lvgl/src/widgets/../core/lv_obj_style_gen.h **** {
 4772              		.loc 2 133 26 view .LVU1546
 4773              	.LBB158:
 135:lvgl/src/widgets/../core/lv_obj_style_gen.h ****     return (lv_coord_t)v.num;
 4774              		.loc 2 135 5 view .LVU1547
 135:lvgl/src/widgets/../core/lv_obj_style_gen.h ****     return (lv_coord_t)v.num;
 4775              		.loc 2 135 26 is_stmt 0 view .LVU1548
 4776 051e 1522     		movs	r2, #21
 4777 0520 0021     		movs	r1, #0
 4778 0522 3046     		mov	r0, r6
 4779 0524 FFF7FEFF 		bl	lv_obj_get_style_prop
 4780              	.LVL481:
 136:lvgl/src/widgets/../core/lv_obj_style_gen.h **** }
 4781              		.loc 2 136 5 is_stmt 1 view .LVU1549
 136:lvgl/src/widgets/../core/lv_obj_style_gen.h **** }
 4782              		.loc 2 136 12 is_stmt 0 view .LVU1550
 4783 0528 0FFA80F9 		sxth	r9, r0
 4784              	.LVL482:
 136:lvgl/src/widgets/../core/lv_obj_style_gen.h **** }
ARM GAS  /var/folders/21/t9g5rlb91ys800n5npymflf80000gn/T//ccSbQiFP.s 			page 140


 4785              		.loc 2 136 12 view .LVU1551
 4786              	.LBE158:
 4787              	.LBE157:
 620:lvgl/src/widgets/lv_btnmatrix.c ****                 btnm->btn_id_sel = 0;
 4788              		.loc 1 620 13 is_stmt 1 view .LVU1552
 620:lvgl/src/widgets/lv_btnmatrix.c ****                 btnm->btn_id_sel = 0;
 4789              		.loc 1 620 20 is_stmt 0 view .LVU1553
 4790 052c B48E     		ldrh	r4, [r6, #52]
 620:lvgl/src/widgets/lv_btnmatrix.c ****                 btnm->btn_id_sel = 0;
 4791              		.loc 1 620 15 view .LVU1554
 4792 052e 4FF6FF73 		movw	r3, #65535
 4793 0532 9C42     		cmp	r4, r3
 4794 0534 0ED0     		beq	.L300
 4795              	.LBB159:
 631:lvgl/src/widgets/lv_btnmatrix.c ****                 lv_coord_t pr_center =
 4796              		.loc 1 631 17 is_stmt 1 view .LVU1555
 632:lvgl/src/widgets/lv_btnmatrix.c ****                     btnm->button_areas[btnm->btn_id_sel].x1 + (lv_area_get_width(&btnm->button_area
 4797              		.loc 1 632 17 view .LVU1556
 633:lvgl/src/widgets/lv_btnmatrix.c **** 
 4798              		.loc 1 633 25 is_stmt 0 view .LVU1557
 4799 0536 B56A     		ldr	r5, [r6, #40]
 4800              	.LVL483:
 633:lvgl/src/widgets/lv_btnmatrix.c **** 
 4801              		.loc 1 633 39 view .LVU1558
 4802 0538 05EBC407 		add	r7, r5, r4, lsl #3
 633:lvgl/src/widgets/lv_btnmatrix.c **** 
 4803              		.loc 1 633 57 view .LVU1559
 4804 053c 35F83420 		ldrh	r2, [r5, r4, lsl #3]
 4805              	.LVL484:
 4806              	.LBB160:
 4807              	.LBI160:
 123:lvgl/src/widgets/../core/../misc/../font/../misc/lv_area.h **** {
 4808              		.loc 3 123 26 is_stmt 1 view .LVU1560
 4809              	.LBB161:
 125:lvgl/src/widgets/../core/../misc/../font/../misc/lv_area.h **** }
 4810              		.loc 3 125 5 view .LVU1561
 125:lvgl/src/widgets/../core/../misc/../font/../misc/lv_area.h **** }
 4811              		.loc 3 125 31 is_stmt 0 view .LVU1562
 4812 0540 BB88     		ldrh	r3, [r7, #4]
 125:lvgl/src/widgets/../core/../misc/../font/../misc/lv_area.h **** }
 4813              		.loc 3 125 36 view .LVU1563
 4814 0542 9B1A     		subs	r3, r3, r2
 4815 0544 9BB2     		uxth	r3, r3
 125:lvgl/src/widgets/../core/../misc/../font/../misc/lv_area.h **** }
 4816              		.loc 3 125 49 view .LVU1564
 4817 0546 0133     		adds	r3, r3, #1
 4818              	.LVL485:
 125:lvgl/src/widgets/../core/../misc/../font/../misc/lv_area.h **** }
 4819              		.loc 3 125 49 view .LVU1565
 4820              	.LBE161:
 4821              	.LBE160:
 633:lvgl/src/widgets/lv_btnmatrix.c **** 
 4822              		.loc 1 633 61 view .LVU1566
 4823 0548 43F34E03 		sbfx	r3, r3, #1, #15
 4824 054c 1A44     		add	r2, r2, r3
 632:lvgl/src/widgets/lv_btnmatrix.c ****                     btnm->button_areas[btnm->btn_id_sel].x1 + (lv_area_get_width(&btnm->button_area
 4825              		.loc 1 632 28 view .LVU1567
ARM GAS  /var/folders/21/t9g5rlb91ys800n5npymflf80000gn/T//ccSbQiFP.s 			page 141


 4826 054e 0FFA82F8 		sxth	r8, r2
 4827              	.LVL486:
 635:lvgl/src/widgets/lv_btnmatrix.c ****                     if(btnm->button_areas[area_below].y1 > btnm->button_areas[btnm->btn_id_sel].y1 
 4828              		.loc 1 635 17 is_stmt 1 view .LVU1568
 635:lvgl/src/widgets/lv_btnmatrix.c ****                     if(btnm->button_areas[area_below].y1 > btnm->button_areas[btnm->btn_id_sel].y1 
 4829              		.loc 1 635 17 is_stmt 0 view .LVU1569
 4830 0552 1DE0     		b	.L266
 4831              	.LVL487:
 4832              	.L300:
 635:lvgl/src/widgets/lv_btnmatrix.c ****                     if(btnm->button_areas[area_below].y1 > btnm->button_areas[btnm->btn_id_sel].y1 
 4833              		.loc 1 635 17 view .LVU1570
 4834              	.LBE159:
 621:lvgl/src/widgets/lv_btnmatrix.c ****                 while(button_is_hidden(btnm->ctrl_bits[btnm->btn_id_sel]) || button_is_inactive(btn
 4835              		.loc 1 621 17 is_stmt 1 view .LVU1571
 621:lvgl/src/widgets/lv_btnmatrix.c ****                 while(button_is_hidden(btnm->ctrl_bits[btnm->btn_id_sel]) || button_is_inactive(btn
 4836              		.loc 1 621 34 is_stmt 0 view .LVU1572
 4837 0554 0023     		movs	r3, #0
 4838 0556 B386     		strh	r3, [r6, #52]	@ movhi
 622:lvgl/src/widgets/lv_btnmatrix.c ****                     btnm->btn_id_sel++;
 4839              		.loc 1 622 17 is_stmt 1 view .LVU1573
 622:lvgl/src/widgets/lv_btnmatrix.c ****                     btnm->btn_id_sel++;
 4840              		.loc 1 622 22 is_stmt 0 view .LVU1574
 4841 0558 05E0     		b	.L264
 4842              	.LVL488:
 4843              	.L265:
 623:lvgl/src/widgets/lv_btnmatrix.c ****                     if(btnm->btn_id_sel >= btnm->btn_cnt) {
 4844              		.loc 1 623 21 is_stmt 1 view .LVU1575
 623:lvgl/src/widgets/lv_btnmatrix.c ****                     if(btnm->btn_id_sel >= btnm->btn_cnt) {
 4845              		.loc 1 623 37 is_stmt 0 view .LVU1576
 4846 055a 631C     		adds	r3, r4, #1
 4847 055c 9BB2     		uxth	r3, r3
 4848 055e B386     		strh	r3, [r6, #52]	@ movhi
 624:lvgl/src/widgets/lv_btnmatrix.c ****                         btnm->btn_id_sel = LV_BTNMATRIX_BTN_NONE;
 4849              		.loc 1 624 21 is_stmt 1 view .LVU1577
 624:lvgl/src/widgets/lv_btnmatrix.c ****                         btnm->btn_id_sel = LV_BTNMATRIX_BTN_NONE;
 4850              		.loc 1 624 48 is_stmt 0 view .LVU1578
 4851 0560 328E     		ldrh	r2, [r6, #48]
 624:lvgl/src/widgets/lv_btnmatrix.c ****                         btnm->btn_id_sel = LV_BTNMATRIX_BTN_NONE;
 4852              		.loc 1 624 23 view .LVU1579
 4853 0562 9342     		cmp	r3, r2
 4854 0564 0ED2     		bcs	.L301
 4855              	.L264:
 622:lvgl/src/widgets/lv_btnmatrix.c ****                     btnm->btn_id_sel++;
 4856              		.loc 1 622 75 is_stmt 1 view .LVU1580
 622:lvgl/src/widgets/lv_btnmatrix.c ****                     btnm->btn_id_sel++;
 4857              		.loc 1 622 44 is_stmt 0 view .LVU1581
 4858 0566 F36A     		ldr	r3, [r6, #44]
 622:lvgl/src/widgets/lv_btnmatrix.c ****                     btnm->btn_id_sel++;
 4859              		.loc 1 622 60 view .LVU1582
 4860 0568 B48E     		ldrh	r4, [r6, #52]
 622:lvgl/src/widgets/lv_btnmatrix.c ****                     btnm->btn_id_sel++;
 4861              		.loc 1 622 23 view .LVU1583
 4862 056a 33F81450 		ldrh	r5, [r3, r4, lsl #1]
 4863 056e 2846     		mov	r0, r5
 4864 0570 FFF7FEFF 		bl	button_is_hidden
 4865              	.LVL489:
 622:lvgl/src/widgets/lv_btnmatrix.c ****                     btnm->btn_id_sel++;
ARM GAS  /var/folders/21/t9g5rlb91ys800n5npymflf80000gn/T//ccSbQiFP.s 			page 142


 4866              		.loc 1 622 75 view .LVU1584
 4867 0574 0028     		cmp	r0, #0
 4868 0576 F0D1     		bne	.L265
 622:lvgl/src/widgets/lv_btnmatrix.c ****                     btnm->btn_id_sel++;
 4869              		.loc 1 622 78 discriminator 1 view .LVU1585
 4870 0578 2846     		mov	r0, r5
 4871 057a FFF7FEFF 		bl	button_is_inactive
 4872              	.LVL490:
 622:lvgl/src/widgets/lv_btnmatrix.c ****                     btnm->btn_id_sel++;
 4873              		.loc 1 622 75 discriminator 1 view .LVU1586
 4874 057e 0028     		cmp	r0, #0
 4875 0580 EBD1     		bne	.L265
 4876 0582 68E7     		b	.L252
 4877              	.L301:
 625:lvgl/src/widgets/lv_btnmatrix.c ****                         break;
 4878              		.loc 1 625 25 is_stmt 1 view .LVU1587
 625:lvgl/src/widgets/lv_btnmatrix.c ****                         break;
 4879              		.loc 1 625 42 is_stmt 0 view .LVU1588
 4880 0584 4FF6FF73 		movw	r3, #65535
 4881 0588 B386     		strh	r3, [r6, #52]	@ movhi
 626:lvgl/src/widgets/lv_btnmatrix.c ****                     }
 4882              		.loc 1 626 25 is_stmt 1 view .LVU1589
 4883 058a 64E7     		b	.L252
 4884              	.LVL491:
 4885              	.L267:
 4886              	.LBB162:
 635:lvgl/src/widgets/lv_btnmatrix.c ****                     if(btnm->button_areas[area_below].y1 > btnm->button_areas[btnm->btn_id_sel].y1 
 4887              		.loc 1 635 90 discriminator 2 view .LVU1590
 4888 058c 0134     		adds	r4, r4, #1
 4889              	.LVL492:
 635:lvgl/src/widgets/lv_btnmatrix.c ****                     if(btnm->button_areas[area_below].y1 > btnm->button_areas[btnm->btn_id_sel].y1 
 4890              		.loc 1 635 90 is_stmt 0 discriminator 2 view .LVU1591
 4891 058e A4B2     		uxth	r4, r4
 4892              	.LVL493:
 4893              	.L266:
 635:lvgl/src/widgets/lv_btnmatrix.c ****                     if(btnm->button_areas[area_below].y1 > btnm->button_areas[btnm->btn_id_sel].y1 
 4894              		.loc 1 635 63 is_stmt 1 discriminator 1 view .LVU1592
 635:lvgl/src/widgets/lv_btnmatrix.c ****                     if(btnm->button_areas[area_below].y1 > btnm->button_areas[btnm->btn_id_sel].y1 
 4895              		.loc 1 635 69 is_stmt 0 discriminator 1 view .LVU1593
 4896 0590 B6F830A0 		ldrh	r10, [r6, #48]
 635:lvgl/src/widgets/lv_btnmatrix.c ****                     if(btnm->button_areas[area_below].y1 > btnm->button_areas[btnm->btn_id_sel].y1 
 4897              		.loc 1 635 63 discriminator 1 view .LVU1594
 4898 0594 A245     		cmp	r10, r4
 4899 0596 1DD9     		bls	.L268
 636:lvgl/src/widgets/lv_btnmatrix.c ****                        pr_center >= btnm->button_areas[area_below].x1 &&
 4900              		.loc 1 636 21 is_stmt 1 view .LVU1595
 636:lvgl/src/widgets/lv_btnmatrix.c ****                        pr_center >= btnm->button_areas[area_below].x1 &&
 4901              		.loc 1 636 42 is_stmt 0 view .LVU1596
 4902 0598 05EBC403 		add	r3, r5, r4, lsl #3
 636:lvgl/src/widgets/lv_btnmatrix.c ****                        pr_center >= btnm->button_areas[area_below].x1 &&
 4903              		.loc 1 636 54 view .LVU1597
 4904 059c B3F90210 		ldrsh	r1, [r3, #2]
 636:lvgl/src/widgets/lv_btnmatrix.c ****                        pr_center >= btnm->button_areas[area_below].x1 &&
 4905              		.loc 1 636 96 view .LVU1598
 4906 05a0 B7F90220 		ldrsh	r2, [r7, #2]
 636:lvgl/src/widgets/lv_btnmatrix.c ****                        pr_center >= btnm->button_areas[area_below].x1 &&
 4907              		.loc 1 636 23 view .LVU1599
ARM GAS  /var/folders/21/t9g5rlb91ys800n5npymflf80000gn/T//ccSbQiFP.s 			page 143


 4908 05a4 9142     		cmp	r1, r2
 4909 05a6 F1DD     		ble	.L267
 637:lvgl/src/widgets/lv_btnmatrix.c ****                        pr_center <= btnm->button_areas[area_below].x2 + col_gap &&
 4910              		.loc 1 637 67 discriminator 1 view .LVU1600
 4911 05a8 35F93420 		ldrsh	r2, [r5, r4, lsl #3]
 636:lvgl/src/widgets/lv_btnmatrix.c ****                        pr_center >= btnm->button_areas[area_below].x1 &&
 4912              		.loc 1 636 100 discriminator 1 view .LVU1601
 4913 05ac 4245     		cmp	r2, r8
 4914 05ae EDDC     		bgt	.L267
 638:lvgl/src/widgets/lv_btnmatrix.c ****                        button_is_inactive(btnm->ctrl_bits[area_below]) == false &&
 4915              		.loc 1 638 67 view .LVU1602
 4916 05b0 B3F90430 		ldrsh	r3, [r3, #4]
 638:lvgl/src/widgets/lv_btnmatrix.c ****                        button_is_inactive(btnm->ctrl_bits[area_below]) == false &&
 4917              		.loc 1 638 71 view .LVU1603
 4918 05b4 4B44     		add	r3, r3, r9
 637:lvgl/src/widgets/lv_btnmatrix.c ****                        pr_center <= btnm->button_areas[area_below].x2 + col_gap &&
 4919              		.loc 1 637 71 view .LVU1604
 4920 05b6 9845     		cmp	r8, r3
 4921 05b8 E8DC     		bgt	.L267
 639:lvgl/src/widgets/lv_btnmatrix.c ****                        button_is_hidden(btnm->ctrl_bits[area_below]) == false) {
 4922              		.loc 1 639 47 view .LVU1605
 4923 05ba F36A     		ldr	r3, [r6, #44]
 639:lvgl/src/widgets/lv_btnmatrix.c ****                        button_is_hidden(btnm->ctrl_bits[area_below]) == false) {
 4924              		.loc 1 639 24 view .LVU1606
 4925 05bc 33F814B0 		ldrh	fp, [r3, r4, lsl #1]
 4926 05c0 5846     		mov	r0, fp
 4927 05c2 FFF7FEFF 		bl	button_is_inactive
 4928              	.LVL494:
 638:lvgl/src/widgets/lv_btnmatrix.c ****                        button_is_inactive(btnm->ctrl_bits[area_below]) == false &&
 4929              		.loc 1 638 81 view .LVU1607
 4930 05c6 0028     		cmp	r0, #0
 4931 05c8 E0D1     		bne	.L267
 640:lvgl/src/widgets/lv_btnmatrix.c ****                         break;
 4932              		.loc 1 640 24 view .LVU1608
 4933 05ca 5846     		mov	r0, fp
 4934 05cc FFF7FEFF 		bl	button_is_hidden
 4935              	.LVL495:
 639:lvgl/src/widgets/lv_btnmatrix.c ****                        button_is_hidden(btnm->ctrl_bits[area_below]) == false) {
 4936              		.loc 1 639 81 view .LVU1609
 4937 05d0 0028     		cmp	r0, #0
 4938 05d2 DBD1     		bne	.L267
 4939              	.L268:
 645:lvgl/src/widgets/lv_btnmatrix.c ****             }
 4940              		.loc 1 645 17 is_stmt 1 view .LVU1610
 645:lvgl/src/widgets/lv_btnmatrix.c ****             }
 4941              		.loc 1 645 19 is_stmt 0 view .LVU1611
 4942 05d4 A245     		cmp	r10, r4
 4943 05d6 7FF63EAF 		bls	.L252
 645:lvgl/src/widgets/lv_btnmatrix.c ****             }
 4944              		.loc 1 645 48 is_stmt 1 discriminator 1 view .LVU1612
 645:lvgl/src/widgets/lv_btnmatrix.c ****             }
 4945              		.loc 1 645 65 is_stmt 0 discriminator 1 view .LVU1613
 4946 05da B486     		strh	r4, [r6, #52]	@ movhi
 4947 05dc 3BE7     		b	.L252
 4948              	.LVL496:
 4949              	.L295:
 645:lvgl/src/widgets/lv_btnmatrix.c ****             }
ARM GAS  /var/folders/21/t9g5rlb91ys800n5npymflf80000gn/T//ccSbQiFP.s 			page 144


 4950              		.loc 1 645 65 discriminator 1 view .LVU1614
 4951              	.LBE162:
 4952              	.LBE156:
 4953              	.LBB163:
 649:lvgl/src/widgets/lv_btnmatrix.c ****             /*Find the area below the current*/
 4954              		.loc 1 649 13 is_stmt 1 view .LVU1615
 4955              	.LBB164:
 4956              	.LBI164:
 133:lvgl/src/widgets/../core/lv_obj_style_gen.h **** {
 4957              		.loc 2 133 26 view .LVU1616
 4958              	.LBB165:
 135:lvgl/src/widgets/../core/lv_obj_style_gen.h ****     return (lv_coord_t)v.num;
 4959              		.loc 2 135 5 view .LVU1617
 135:lvgl/src/widgets/../core/lv_obj_style_gen.h ****     return (lv_coord_t)v.num;
 4960              		.loc 2 135 26 is_stmt 0 view .LVU1618
 4961 05de 1522     		movs	r2, #21
 4962 05e0 0021     		movs	r1, #0
 4963 05e2 3046     		mov	r0, r6
 4964 05e4 FFF7FEFF 		bl	lv_obj_get_style_prop
 4965              	.LVL497:
 136:lvgl/src/widgets/../core/lv_obj_style_gen.h **** }
 4966              		.loc 2 136 5 is_stmt 1 view .LVU1619
 136:lvgl/src/widgets/../core/lv_obj_style_gen.h **** }
 4967              		.loc 2 136 12 is_stmt 0 view .LVU1620
 4968 05e8 0FFA80F9 		sxth	r9, r0
 4969              	.LVL498:
 136:lvgl/src/widgets/../core/lv_obj_style_gen.h **** }
 4970              		.loc 2 136 12 view .LVU1621
 4971              	.LBE165:
 4972              	.LBE164:
 651:lvgl/src/widgets/lv_btnmatrix.c ****                 btnm->btn_id_sel = 0;
 4973              		.loc 1 651 13 is_stmt 1 view .LVU1622
 651:lvgl/src/widgets/lv_btnmatrix.c ****                 btnm->btn_id_sel = 0;
 4974              		.loc 1 651 20 is_stmt 0 view .LVU1623
 4975 05ec B48E     		ldrh	r4, [r6, #52]
 651:lvgl/src/widgets/lv_btnmatrix.c ****                 btnm->btn_id_sel = 0;
 4976              		.loc 1 651 15 view .LVU1624
 4977 05ee 4FF6FF73 		movw	r3, #65535
 4978 05f2 9C42     		cmp	r4, r3
 4979 05f4 0FD0     		beq	.L302
 4980              	.LBB166:
 662:lvgl/src/widgets/lv_btnmatrix.c ****                 lv_coord_t pr_center =
 4981              		.loc 1 662 17 is_stmt 1 view .LVU1625
 663:lvgl/src/widgets/lv_btnmatrix.c ****                     btnm->button_areas[btnm->btn_id_sel].x1 + (lv_area_get_width(&btnm->button_area
 4982              		.loc 1 663 17 view .LVU1626
 664:lvgl/src/widgets/lv_btnmatrix.c **** 
 4983              		.loc 1 664 25 is_stmt 0 view .LVU1627
 4984 05f6 B56A     		ldr	r5, [r6, #40]
 4985              	.LVL499:
 664:lvgl/src/widgets/lv_btnmatrix.c **** 
 4986              		.loc 1 664 39 view .LVU1628
 4987 05f8 05EBC407 		add	r7, r5, r4, lsl #3
 664:lvgl/src/widgets/lv_btnmatrix.c **** 
 4988              		.loc 1 664 57 view .LVU1629
 4989 05fc 35F83420 		ldrh	r2, [r5, r4, lsl #3]
 4990              	.LVL500:
 4991              	.LBB167:
ARM GAS  /var/folders/21/t9g5rlb91ys800n5npymflf80000gn/T//ccSbQiFP.s 			page 145


 4992              	.LBI167:
 123:lvgl/src/widgets/../core/../misc/../font/../misc/lv_area.h **** {
 4993              		.loc 3 123 26 is_stmt 1 view .LVU1630
 4994              	.LBB168:
 125:lvgl/src/widgets/../core/../misc/../font/../misc/lv_area.h **** }
 4995              		.loc 3 125 5 view .LVU1631
 125:lvgl/src/widgets/../core/../misc/../font/../misc/lv_area.h **** }
 4996              		.loc 3 125 31 is_stmt 0 view .LVU1632
 4997 0600 BB88     		ldrh	r3, [r7, #4]
 125:lvgl/src/widgets/../core/../misc/../font/../misc/lv_area.h **** }
 4998              		.loc 3 125 36 view .LVU1633
 4999 0602 9B1A     		subs	r3, r3, r2
 5000 0604 9BB2     		uxth	r3, r3
 125:lvgl/src/widgets/../core/../misc/../font/../misc/lv_area.h **** }
 5001              		.loc 3 125 49 view .LVU1634
 5002 0606 0133     		adds	r3, r3, #1
 5003              	.LVL501:
 125:lvgl/src/widgets/../core/../misc/../font/../misc/lv_area.h **** }
 5004              		.loc 3 125 49 view .LVU1635
 5005              	.LBE168:
 5006              	.LBE167:
 664:lvgl/src/widgets/lv_btnmatrix.c **** 
 5007              		.loc 1 664 61 view .LVU1636
 5008 0608 43F34E03 		sbfx	r3, r3, #1, #15
 5009 060c 1A44     		add	r2, r2, r3
 663:lvgl/src/widgets/lv_btnmatrix.c ****                     btnm->button_areas[btnm->btn_id_sel].x1 + (lv_area_get_width(&btnm->button_area
 5010              		.loc 1 663 28 view .LVU1637
 5011 060e 0FFA82F8 		sxth	r8, r2
 5012              	.LVL502:
 666:lvgl/src/widgets/lv_btnmatrix.c ****                     if(btnm->button_areas[area_above].y1 < btnm->button_areas[btnm->btn_id_sel].y1 
 5013              		.loc 1 666 17 is_stmt 1 view .LVU1638
 666:lvgl/src/widgets/lv_btnmatrix.c ****                     if(btnm->button_areas[area_above].y1 < btnm->button_areas[btnm->btn_id_sel].y1 
 5014              		.loc 1 666 32 is_stmt 0 view .LVU1639
 5015 0612 24B2     		sxth	r4, r4
 5016              	.LVL503:
 666:lvgl/src/widgets/lv_btnmatrix.c ****                     if(btnm->button_areas[area_above].y1 < btnm->button_areas[btnm->btn_id_sel].y1 
 5017              		.loc 1 666 17 view .LVU1640
 5018 0614 1DE0     		b	.L273
 5019              	.LVL504:
 5020              	.L302:
 666:lvgl/src/widgets/lv_btnmatrix.c ****                     if(btnm->button_areas[area_above].y1 < btnm->button_areas[btnm->btn_id_sel].y1 
 5021              		.loc 1 666 17 view .LVU1641
 5022              	.LBE166:
 652:lvgl/src/widgets/lv_btnmatrix.c ****                 while(button_is_hidden(btnm->ctrl_bits[btnm->btn_id_sel]) || button_is_inactive(btn
 5023              		.loc 1 652 17 is_stmt 1 view .LVU1642
 652:lvgl/src/widgets/lv_btnmatrix.c ****                 while(button_is_hidden(btnm->ctrl_bits[btnm->btn_id_sel]) || button_is_inactive(btn
 5024              		.loc 1 652 34 is_stmt 0 view .LVU1643
 5025 0616 0023     		movs	r3, #0
 5026 0618 B386     		strh	r3, [r6, #52]	@ movhi
 653:lvgl/src/widgets/lv_btnmatrix.c ****                     btnm->btn_id_sel++;
 5027              		.loc 1 653 17 is_stmt 1 view .LVU1644
 653:lvgl/src/widgets/lv_btnmatrix.c ****                     btnm->btn_id_sel++;
 5028              		.loc 1 653 22 is_stmt 0 view .LVU1645
 5029 061a 05E0     		b	.L271
 5030              	.LVL505:
 5031              	.L272:
 654:lvgl/src/widgets/lv_btnmatrix.c ****                     if(btnm->btn_id_sel >= btnm->btn_cnt) {
ARM GAS  /var/folders/21/t9g5rlb91ys800n5npymflf80000gn/T//ccSbQiFP.s 			page 146


 5032              		.loc 1 654 21 is_stmt 1 view .LVU1646
 654:lvgl/src/widgets/lv_btnmatrix.c ****                     if(btnm->btn_id_sel >= btnm->btn_cnt) {
 5033              		.loc 1 654 37 is_stmt 0 view .LVU1647
 5034 061c 631C     		adds	r3, r4, #1
 5035 061e 9BB2     		uxth	r3, r3
 5036 0620 B386     		strh	r3, [r6, #52]	@ movhi
 655:lvgl/src/widgets/lv_btnmatrix.c ****                         btnm->btn_id_sel = LV_BTNMATRIX_BTN_NONE;
 5037              		.loc 1 655 21 is_stmt 1 view .LVU1648
 655:lvgl/src/widgets/lv_btnmatrix.c ****                         btnm->btn_id_sel = LV_BTNMATRIX_BTN_NONE;
 5038              		.loc 1 655 48 is_stmt 0 view .LVU1649
 5039 0622 328E     		ldrh	r2, [r6, #48]
 655:lvgl/src/widgets/lv_btnmatrix.c ****                         btnm->btn_id_sel = LV_BTNMATRIX_BTN_NONE;
 5040              		.loc 1 655 23 view .LVU1650
 5041 0624 9342     		cmp	r3, r2
 5042 0626 0ED2     		bcs	.L303
 5043              	.L271:
 653:lvgl/src/widgets/lv_btnmatrix.c ****                     btnm->btn_id_sel++;
 5044              		.loc 1 653 75 is_stmt 1 view .LVU1651
 653:lvgl/src/widgets/lv_btnmatrix.c ****                     btnm->btn_id_sel++;
 5045              		.loc 1 653 44 is_stmt 0 view .LVU1652
 5046 0628 F36A     		ldr	r3, [r6, #44]
 653:lvgl/src/widgets/lv_btnmatrix.c ****                     btnm->btn_id_sel++;
 5047              		.loc 1 653 60 view .LVU1653
 5048 062a B48E     		ldrh	r4, [r6, #52]
 653:lvgl/src/widgets/lv_btnmatrix.c ****                     btnm->btn_id_sel++;
 5049              		.loc 1 653 23 view .LVU1654
 5050 062c 33F81450 		ldrh	r5, [r3, r4, lsl #1]
 5051 0630 2846     		mov	r0, r5
 5052 0632 FFF7FEFF 		bl	button_is_hidden
 5053              	.LVL506:
 653:lvgl/src/widgets/lv_btnmatrix.c ****                     btnm->btn_id_sel++;
 5054              		.loc 1 653 75 view .LVU1655
 5055 0636 0028     		cmp	r0, #0
 5056 0638 F0D1     		bne	.L272
 653:lvgl/src/widgets/lv_btnmatrix.c ****                     btnm->btn_id_sel++;
 5057              		.loc 1 653 78 discriminator 1 view .LVU1656
 5058 063a 2846     		mov	r0, r5
 5059 063c FFF7FEFF 		bl	button_is_inactive
 5060              	.LVL507:
 653:lvgl/src/widgets/lv_btnmatrix.c ****                     btnm->btn_id_sel++;
 5061              		.loc 1 653 75 discriminator 1 view .LVU1657
 5062 0640 0028     		cmp	r0, #0
 5063 0642 EBD1     		bne	.L272
 5064 0644 07E7     		b	.L252
 5065              	.L303:
 656:lvgl/src/widgets/lv_btnmatrix.c ****                         break;
 5066              		.loc 1 656 25 is_stmt 1 view .LVU1658
 656:lvgl/src/widgets/lv_btnmatrix.c ****                         break;
 5067              		.loc 1 656 42 is_stmt 0 view .LVU1659
 5068 0646 4FF6FF73 		movw	r3, #65535
 5069 064a B386     		strh	r3, [r6, #52]	@ movhi
 657:lvgl/src/widgets/lv_btnmatrix.c ****                     }
 5070              		.loc 1 657 25 is_stmt 1 view .LVU1660
 5071 064c 03E7     		b	.L252
 5072              	.LVL508:
 5073              	.L274:
 5074              	.LBB169:
ARM GAS  /var/folders/21/t9g5rlb91ys800n5npymflf80000gn/T//ccSbQiFP.s 			page 147


 666:lvgl/src/widgets/lv_btnmatrix.c ****                     if(btnm->button_areas[area_above].y1 < btnm->button_areas[btnm->btn_id_sel].y1 
 5075              		.loc 1 666 79 discriminator 2 view .LVU1661
 5076 064e 013C     		subs	r4, r4, #1
 5077              	.LVL509:
 666:lvgl/src/widgets/lv_btnmatrix.c ****                     if(btnm->button_areas[area_above].y1 < btnm->button_areas[btnm->btn_id_sel].y1 
 5078              		.loc 1 666 79 is_stmt 0 discriminator 2 view .LVU1662
 5079 0650 24B2     		sxth	r4, r4
 5080              	.LVL510:
 5081              	.L273:
 666:lvgl/src/widgets/lv_btnmatrix.c ****                     if(btnm->button_areas[area_above].y1 < btnm->button_areas[btnm->btn_id_sel].y1 
 5082              		.loc 1 666 63 is_stmt 1 discriminator 1 view .LVU1663
 5083 0652 002C     		cmp	r4, #0
 5084 0654 1EDB     		blt	.L275
 667:lvgl/src/widgets/lv_btnmatrix.c ****                        pr_center >= btnm->button_areas[area_above].x1 - col_gap &&
 5085              		.loc 1 667 21 view .LVU1664
 667:lvgl/src/widgets/lv_btnmatrix.c ****                        pr_center >= btnm->button_areas[area_above].x1 - col_gap &&
 5086              		.loc 1 667 42 is_stmt 0 view .LVU1665
 5087 0656 05EBC403 		add	r3, r5, r4, lsl #3
 667:lvgl/src/widgets/lv_btnmatrix.c ****                        pr_center >= btnm->button_areas[area_above].x1 - col_gap &&
 5088              		.loc 1 667 54 view .LVU1666
 5089 065a B3F90210 		ldrsh	r1, [r3, #2]
 667:lvgl/src/widgets/lv_btnmatrix.c ****                        pr_center >= btnm->button_areas[area_above].x1 - col_gap &&
 5090              		.loc 1 667 96 view .LVU1667
 5091 065e B7F90220 		ldrsh	r2, [r7, #2]
 667:lvgl/src/widgets/lv_btnmatrix.c ****                        pr_center >= btnm->button_areas[area_above].x1 - col_gap &&
 5092              		.loc 1 667 23 view .LVU1668
 5093 0662 9142     		cmp	r1, r2
 5094 0664 F3DA     		bge	.L274
 668:lvgl/src/widgets/lv_btnmatrix.c ****                        pr_center <= btnm->button_areas[area_above].x2 &&
 5095              		.loc 1 668 67 discriminator 1 view .LVU1669
 5096 0666 35F93420 		ldrsh	r2, [r5, r4, lsl #3]
 668:lvgl/src/widgets/lv_btnmatrix.c ****                        pr_center <= btnm->button_areas[area_above].x2 &&
 5097              		.loc 1 668 71 discriminator 1 view .LVU1670
 5098 066a A2EB0902 		sub	r2, r2, r9
 667:lvgl/src/widgets/lv_btnmatrix.c ****                        pr_center >= btnm->button_areas[area_above].x1 - col_gap &&
 5099              		.loc 1 667 100 discriminator 1 view .LVU1671
 5100 066e 9045     		cmp	r8, r2
 5101 0670 EDDB     		blt	.L274
 669:lvgl/src/widgets/lv_btnmatrix.c ****                        button_is_inactive(btnm->ctrl_bits[area_above]) == false &&
 5102              		.loc 1 669 67 view .LVU1672
 5103 0672 B3F90430 		ldrsh	r3, [r3, #4]
 668:lvgl/src/widgets/lv_btnmatrix.c ****                        pr_center <= btnm->button_areas[area_above].x2 &&
 5104              		.loc 1 668 81 view .LVU1673
 5105 0676 4345     		cmp	r3, r8
 5106 0678 E9DB     		blt	.L274
 670:lvgl/src/widgets/lv_btnmatrix.c ****                        button_is_hidden(btnm->ctrl_bits[area_above]) == false) {
 5107              		.loc 1 670 47 view .LVU1674
 5108 067a F36A     		ldr	r3, [r6, #44]
 670:lvgl/src/widgets/lv_btnmatrix.c ****                        button_is_hidden(btnm->ctrl_bits[area_above]) == false) {
 5109              		.loc 1 670 24 view .LVU1675
 5110 067c 33F814A0 		ldrh	r10, [r3, r4, lsl #1]
 5111 0680 5046     		mov	r0, r10
 5112 0682 FFF7FEFF 		bl	button_is_inactive
 5113              	.LVL511:
 669:lvgl/src/widgets/lv_btnmatrix.c ****                        button_is_inactive(btnm->ctrl_bits[area_above]) == false &&
 5114              		.loc 1 669 71 view .LVU1676
 5115 0686 0028     		cmp	r0, #0
ARM GAS  /var/folders/21/t9g5rlb91ys800n5npymflf80000gn/T//ccSbQiFP.s 			page 148


 5116 0688 E1D1     		bne	.L274
 671:lvgl/src/widgets/lv_btnmatrix.c ****                         break;
 5117              		.loc 1 671 24 view .LVU1677
 5118 068a 5046     		mov	r0, r10
 5119 068c FFF7FEFF 		bl	button_is_hidden
 5120              	.LVL512:
 670:lvgl/src/widgets/lv_btnmatrix.c ****                        button_is_hidden(btnm->ctrl_bits[area_above]) == false) {
 5121              		.loc 1 670 81 view .LVU1678
 5122 0690 0028     		cmp	r0, #0
 5123 0692 DCD1     		bne	.L274
 5124              	.L275:
 675:lvgl/src/widgets/lv_btnmatrix.c ****             }
 5125              		.loc 1 675 17 is_stmt 1 view .LVU1679
 675:lvgl/src/widgets/lv_btnmatrix.c ****             }
 5126              		.loc 1 675 19 is_stmt 0 view .LVU1680
 5127 0694 002C     		cmp	r4, #0
 5128 0696 FFF6DEAE 		blt	.L252
 675:lvgl/src/widgets/lv_btnmatrix.c ****             }
 5129              		.loc 1 675 37 is_stmt 1 discriminator 1 view .LVU1681
 675:lvgl/src/widgets/lv_btnmatrix.c ****             }
 5130              		.loc 1 675 54 is_stmt 0 discriminator 1 view .LVU1682
 5131 069a B486     		strh	r4, [r6, #52]	@ movhi
 5132 069c DBE6     		b	.L252
 5133              	.LVL513:
 5134              	.L216:
 675:lvgl/src/widgets/lv_btnmatrix.c ****             }
 5135              		.loc 1 675 54 discriminator 1 view .LVU1683
 5136              	.LBE169:
 5137              	.LBE163:
 5138              	.LBE170:
 682:lvgl/src/widgets/lv_btnmatrix.c ****     }
 5139              		.loc 1 682 9 is_stmt 1 view .LVU1684
 5140 069e 2846     		mov	r0, r5
 5141 06a0 FFF7FEFF 		bl	draw_main
 5142              	.LVL514:
 5143 06a4 B5E4     		b	.L208
 5144              		.cfi_endproc
 5145              	.LFE178:
 5147 06a6 00BF     		.section	.text.lv_btnmatrix_set_one_checked,"ax",%progbits
 5148              		.align	1
 5149              		.global	lv_btnmatrix_set_one_checked
 5150              		.syntax unified
 5151              		.thumb
 5152              		.thumb_func
 5154              	lv_btnmatrix_set_one_checked:
 5155              	.LVL515:
 5156              	.LFB170:
 296:lvgl/src/widgets/lv_btnmatrix.c ****     LV_ASSERT_OBJ(obj, MY_CLASS);
 5157              		.loc 1 296 1 view -0
 5158              		.cfi_startproc
 5159              		@ args = 0, pretend = 0, frame = 0
 5160              		@ frame_needed = 0, uses_anonymous_args = 0
 296:lvgl/src/widgets/lv_btnmatrix.c ****     LV_ASSERT_OBJ(obj, MY_CLASS);
 5161              		.loc 1 296 1 is_stmt 0 view .LVU1686
 5162 0000 08B5     		push	{r3, lr}
 5163              	.LCFI39:
 5164              		.cfi_def_cfa_offset 8
ARM GAS  /var/folders/21/t9g5rlb91ys800n5npymflf80000gn/T//ccSbQiFP.s 			page 149


 5165              		.cfi_offset 3, -8
 5166              		.cfi_offset 14, -4
 297:lvgl/src/widgets/lv_btnmatrix.c **** 
 5167              		.loc 1 297 5 is_stmt 1 view .LVU1687
 297:lvgl/src/widgets/lv_btnmatrix.c **** 
 5168              		.loc 1 297 5 view .LVU1688
 297:lvgl/src/widgets/lv_btnmatrix.c **** 
 5169              		.loc 1 297 5 view .LVU1689
 299:lvgl/src/widgets/lv_btnmatrix.c ****     btnm->one_check     = en;
 5170              		.loc 1 299 5 view .LVU1690
 5171              	.LVL516:
 299:lvgl/src/widgets/lv_btnmatrix.c ****     btnm->one_check     = en;
 5172              		.loc 1 299 51 view .LVU1691
 300:lvgl/src/widgets/lv_btnmatrix.c **** 
 5173              		.loc 1 300 5 view .LVU1692
 300:lvgl/src/widgets/lv_btnmatrix.c **** 
 5174              		.loc 1 300 25 is_stmt 0 view .LVU1693
 5175 0002 90F83620 		ldrb	r2, [r0, #54]	@ zero_extendqisi2
 5176 0006 61F30002 		bfi	r2, r1, #0, #1
 5177 000a 80F83620 		strb	r2, [r0, #54]
 303:lvgl/src/widgets/lv_btnmatrix.c **** }
 5178              		.loc 1 303 5 is_stmt 1 view .LVU1694
 5179 000e 0021     		movs	r1, #0
 5180              	.LVL517:
 303:lvgl/src/widgets/lv_btnmatrix.c **** }
 5181              		.loc 1 303 5 is_stmt 0 view .LVU1695
 5182 0010 FFF7FEFF 		bl	make_one_button_checked
 5183              	.LVL518:
 304:lvgl/src/widgets/lv_btnmatrix.c **** 
 5184              		.loc 1 304 1 view .LVU1696
 5185 0014 08BD     		pop	{r3, pc}
 5186              		.cfi_endproc
 5187              	.LFE170:
 5189              		.section	.text.lv_btnmatrix_get_one_checked,"ax",%progbits
 5190              		.align	1
 5191              		.global	lv_btnmatrix_get_one_checked
 5192              		.syntax unified
 5193              		.thumb
 5194              		.thumb_func
 5196              	lv_btnmatrix_get_one_checked:
 5197              	.LVL519:
 5198              	.LFB175:
 362:lvgl/src/widgets/lv_btnmatrix.c ****     LV_ASSERT_OBJ(obj, MY_CLASS);
 5199              		.loc 1 362 1 is_stmt 1 view -0
 5200              		.cfi_startproc
 5201              		@ args = 0, pretend = 0, frame = 0
 5202              		@ frame_needed = 0, uses_anonymous_args = 0
 5203              		@ link register save eliminated.
 363:lvgl/src/widgets/lv_btnmatrix.c **** 
 5204              		.loc 1 363 5 view .LVU1698
 363:lvgl/src/widgets/lv_btnmatrix.c **** 
 5205              		.loc 1 363 5 view .LVU1699
 363:lvgl/src/widgets/lv_btnmatrix.c **** 
 5206              		.loc 1 363 5 view .LVU1700
 365:lvgl/src/widgets/lv_btnmatrix.c **** 
 5207              		.loc 1 365 5 view .LVU1701
 365:lvgl/src/widgets/lv_btnmatrix.c **** 
ARM GAS  /var/folders/21/t9g5rlb91ys800n5npymflf80000gn/T//ccSbQiFP.s 			page 150


 5208              		.loc 1 365 51 view .LVU1702
 367:lvgl/src/widgets/lv_btnmatrix.c **** }
 5209              		.loc 1 367 5 view .LVU1703
 367:lvgl/src/widgets/lv_btnmatrix.c **** }
 5210              		.loc 1 367 16 is_stmt 0 view .LVU1704
 5211 0000 90F83600 		ldrb	r0, [r0, #54]	@ zero_extendqisi2
 5212              	.LVL520:
 368:lvgl/src/widgets/lv_btnmatrix.c **** 
 5213              		.loc 1 368 1 view .LVU1705
 5214 0004 00F00100 		and	r0, r0, #1
 5215 0008 7047     		bx	lr
 5216              		.cfi_endproc
 5217              	.LFE175:
 5219              		.global	lv_btnmatrix_class
 5220              		.section	.rodata.lv_btnmatrix_class,"a"
 5221              		.align	2
 5224              	lv_btnmatrix_class:
 5225 0000 00000000 		.word	lv_obj_class
 5226 0004 00000000 		.word	lv_btnmatrix_constructor
 5227 0008 00000000 		.word	lv_btnmatrix_destructor
 5228 000c 00000000 		.space	4
 5229 0010 00000000 		.word	lv_btnmatrix_event
 5230 0014 0401     		.short	260
 5231 0016 8200     		.short	130
 5232 0018 85       		.byte	133
 5233 0019 03       		.byte	3
 5234 001a 00       		.byte	0
 5235 001b 00       		.space	1
 5236              		.section	.rodata.str1.4,"aMS",%progbits,1
 5237              		.align	2
 5238              	.LC1:
 5239 0000 42746E31 		.ascii	"Btn1\000"
 5239      00
 5240 0005 000000   		.align	2
 5241              	.LC2:
 5242 0008 42746E32 		.ascii	"Btn2\000"
 5242      00
 5243 000d 000000   		.align	2
 5244              	.LC3:
 5245 0010 42746E33 		.ascii	"Btn3\000"
 5245      00
 5246 0015 000000   		.align	2
 5247              	.LC4:
 5248 0018 42746E34 		.ascii	"Btn4\000"
 5248      00
 5249 001d 000000   		.align	2
 5250              	.LC5:
 5251 0020 42746E35 		.ascii	"Btn5\000"
 5251      00
 5252 0025 000000   		.align	2
 5253              	.LC6:
 5254 0028 00       		.ascii	"\000"
 5255              		.section	.data.lv_btnmatrix_def_map,"aw"
 5256              		.align	2
 5259              	lv_btnmatrix_def_map:
 5260 0000 00000000 		.word	.LC1
 5261 0004 08000000 		.word	.LC2
ARM GAS  /var/folders/21/t9g5rlb91ys800n5npymflf80000gn/T//ccSbQiFP.s 			page 151


 5262 0008 10000000 		.word	.LC3
 5263 000c 00000000 		.word	.LC0
 5264 0010 18000000 		.word	.LC4
 5265 0014 20000000 		.word	.LC5
 5266 0018 28000000 		.word	.LC6
 5267              		.text
 5268              	.Letext0:
 5269              		.file 4 "/usr/local/include/sys/_types/_int8_t.h"
 5270              		.file 5 "/usr/local/include/sys/_types/_int16_t.h"
 5271              		.file 6 "/usr/local/include/sys/_types/_int32_t.h"
 5272              		.file 7 "/usr/local/include/_types/_uint8_t.h"
 5273              		.file 8 "/usr/local/include/_types/_uint16_t.h"
 5274              		.file 9 "/usr/local/include/_types/_uint32_t.h"
 5275              		.file 10 "/usr/local/include/arm/_types.h"
 5276              		.file 11 "/usr/local/include/sys/_types/_size_t.h"
 5277              		.file 12 "lvgl/src/widgets/../core/../misc/../font/lv_font.h"
 5278              		.file 13 "lvgl/src/widgets/../core/../misc/lv_types.h"
 5279              		.file 14 "lvgl/src/widgets/../core/../misc/lv_color.h"
 5280              		.file 15 "lvgl/src/widgets/../core/../misc/lv_txt.h"
 5281              		.file 16 "lvgl/src/widgets/../core/../misc/lv_bidi.h"
 5282              		.file 17 "lvgl/src/widgets/../core/../misc/lv_style.h"
 5283              		.file 18 "lvgl/src/widgets/../core/../hal/../draw/lv_img_buf.h"
 5284              		.file 19 "lvgl/src/widgets/../core/lv_obj.h"
 5285              		.file 20 "lvgl/src/widgets/../core/../hal/../draw/lv_draw_rect.h"
 5286              		.file 21 "lvgl/src/widgets/../core/../hal/../draw/lv_draw_label.h"
 5287              		.file 22 "lvgl/src/widgets/../core/../hal/../draw/lv_draw_img.h"
 5288              		.file 23 "lvgl/src/widgets/../core/../hal/../draw/lv_draw_line.h"
 5289              		.file 24 "lvgl/src/widgets/../core/../hal/../draw/lv_draw_arc.h"
 5290              		.file 25 "lvgl/src/widgets/../core/../hal/../draw/lv_draw_layer.h"
 5291              		.file 26 "lvgl/src/widgets/../core/../hal/../draw/lv_draw.h"
 5292              		.file 27 "lvgl/src/widgets/../core/../hal/../misc/lv_ll.h"
 5293              		.file 28 "lvgl/src/widgets/../core/../hal/../misc/lv_timer.h"
 5294              		.file 29 "lvgl/src/widgets/../core/../hal/lv_hal_disp.h"
 5295              		.file 30 "lvgl/src/widgets/../core/../hal/lv_hal_indev.h"
 5296              		.file 31 "lvgl/src/widgets/../core/lv_group.h"
 5297              		.file 32 "lvgl/src/widgets/../core/lv_obj_scroll.h"
 5298              		.file 33 "lvgl/src/widgets/../core/lv_obj_style.h"
 5299              		.file 34 "lvgl/src/widgets/../core/lv_obj_draw.h"
 5300              		.file 35 "lvgl/src/widgets/../core/lv_obj_class.h"
 5301              		.file 36 "lvgl/src/widgets/../core/lv_event.h"
 5302              		.file 37 "lvgl/src/widgets/lv_btnmatrix.h"
 5303              		.file 38 "lvgl/src/widgets/../core/../misc/lv_mem.h"
 5304              		.file 39 "lvgl/src/widgets/../core/../hal/../draw/sw/../../core/lv_obj_pos.h"
 5305              		.file 40 "lvgl/src/widgets/../core/lv_obj_tree.h"
 5306              		.file 41 "/usr/local/include/string.h"
 5307              		.file 42 "lvgl/src/widgets/../core/lv_indev.h"
ARM GAS  /var/folders/21/t9g5rlb91ys800n5npymflf80000gn/T//ccSbQiFP.s 			page 152


DEFINED SYMBOLS
                            *ABS*:00000000 lv_btnmatrix.c
/var/folders/21/t9g5rlb91ys800n5npymflf80000gn/T//ccSbQiFP.s:21     .text.get_button_width:00000000 $t
/var/folders/21/t9g5rlb91ys800n5npymflf80000gn/T//ccSbQiFP.s:26     .text.get_button_width:00000000 get_button_width
/var/folders/21/t9g5rlb91ys800n5npymflf80000gn/T//ccSbQiFP.s:49     .text.button_is_hidden:00000000 $t
/var/folders/21/t9g5rlb91ys800n5npymflf80000gn/T//ccSbQiFP.s:54     .text.button_is_hidden:00000000 button_is_hidden
/var/folders/21/t9g5rlb91ys800n5npymflf80000gn/T//ccSbQiFP.s:72     .text.button_is_checked:00000000 $t
/var/folders/21/t9g5rlb91ys800n5npymflf80000gn/T//ccSbQiFP.s:77     .text.button_is_checked:00000000 button_is_checked
/var/folders/21/t9g5rlb91ys800n5npymflf80000gn/T//ccSbQiFP.s:95     .text.button_is_repeat_disabled:00000000 $t
/var/folders/21/t9g5rlb91ys800n5npymflf80000gn/T//ccSbQiFP.s:100    .text.button_is_repeat_disabled:00000000 button_is_repeat_disabled
/var/folders/21/t9g5rlb91ys800n5npymflf80000gn/T//ccSbQiFP.s:118    .text.button_is_inactive:00000000 $t
/var/folders/21/t9g5rlb91ys800n5npymflf80000gn/T//ccSbQiFP.s:123    .text.button_is_inactive:00000000 button_is_inactive
/var/folders/21/t9g5rlb91ys800n5npymflf80000gn/T//ccSbQiFP.s:141    .text.button_is_click_trig:00000000 $t
/var/folders/21/t9g5rlb91ys800n5npymflf80000gn/T//ccSbQiFP.s:146    .text.button_is_click_trig:00000000 button_is_click_trig
/var/folders/21/t9g5rlb91ys800n5npymflf80000gn/T//ccSbQiFP.s:164    .text.button_is_popover:00000000 $t
/var/folders/21/t9g5rlb91ys800n5npymflf80000gn/T//ccSbQiFP.s:169    .text.button_is_popover:00000000 button_is_popover
/var/folders/21/t9g5rlb91ys800n5npymflf80000gn/T//ccSbQiFP.s:187    .text.button_is_checkable:00000000 $t
/var/folders/21/t9g5rlb91ys800n5npymflf80000gn/T//ccSbQiFP.s:192    .text.button_is_checkable:00000000 button_is_checkable
/var/folders/21/t9g5rlb91ys800n5npymflf80000gn/T//ccSbQiFP.s:210    .text.button_get_checked:00000000 $t
/var/folders/21/t9g5rlb91ys800n5npymflf80000gn/T//ccSbQiFP.s:215    .text.button_get_checked:00000000 button_get_checked
/var/folders/21/t9g5rlb91ys800n5npymflf80000gn/T//ccSbQiFP.s:233    .text.button_is_recolor:00000000 $t
/var/folders/21/t9g5rlb91ys800n5npymflf80000gn/T//ccSbQiFP.s:238    .text.button_is_recolor:00000000 button_is_recolor
/var/folders/21/t9g5rlb91ys800n5npymflf80000gn/T//ccSbQiFP.s:256    .rodata.has_popovers_in_top_row.str1.4:00000000 $d
/var/folders/21/t9g5rlb91ys800n5npymflf80000gn/T//ccSbQiFP.s:260    .text.has_popovers_in_top_row:00000000 $t
/var/folders/21/t9g5rlb91ys800n5npymflf80000gn/T//ccSbQiFP.s:265    .text.has_popovers_in_top_row:00000000 has_popovers_in_top_row
/var/folders/21/t9g5rlb91ys800n5npymflf80000gn/T//ccSbQiFP.s:376    .text.has_popovers_in_top_row:0000004c $d
/var/folders/21/t9g5rlb91ys800n5npymflf80000gn/T//ccSbQiFP.s:381    .text.get_button_from_point:00000000 $t
/var/folders/21/t9g5rlb91ys800n5npymflf80000gn/T//ccSbQiFP.s:386    .text.get_button_from_point:00000000 get_button_from_point
/var/folders/21/t9g5rlb91ys800n5npymflf80000gn/T//ccSbQiFP.s:836    .text.invalidate_button_area:00000000 $t
/var/folders/21/t9g5rlb91ys800n5npymflf80000gn/T//ccSbQiFP.s:841    .text.invalidate_button_area:00000000 invalidate_button_area
/var/folders/21/t9g5rlb91ys800n5npymflf80000gn/T//ccSbQiFP.s:1097   .text.invalidate_button_area:000000f8 $d
/var/folders/21/t9g5rlb91ys800n5npymflf80000gn/T//ccSbQiFP.s:1102   .text.draw_main:00000000 $t
/var/folders/21/t9g5rlb91ys800n5npymflf80000gn/T//ccSbQiFP.s:1107   .text.draw_main:00000000 draw_main
/var/folders/21/t9g5rlb91ys800n5npymflf80000gn/T//ccSbQiFP.s:1922   .text.draw_main:000003f0 $d
/var/folders/21/t9g5rlb91ys800n5npymflf80000gn/T//ccSbQiFP.s:5224   .rodata.lv_btnmatrix_class:00000000 lv_btnmatrix_class
/var/folders/21/t9g5rlb91ys800n5npymflf80000gn/T//ccSbQiFP.s:1927   .text.draw_main:000003f8 $t
/var/folders/21/t9g5rlb91ys800n5npymflf80000gn/T//ccSbQiFP.s:1959   .text.lv_btnmatrix_destructor:00000000 $t
/var/folders/21/t9g5rlb91ys800n5npymflf80000gn/T//ccSbQiFP.s:1964   .text.lv_btnmatrix_destructor:00000000 lv_btnmatrix_destructor
/var/folders/21/t9g5rlb91ys800n5npymflf80000gn/T//ccSbQiFP.s:2007   .text.allocate_btn_areas_and_controls:00000000 $t
/var/folders/21/t9g5rlb91ys800n5npymflf80000gn/T//ccSbQiFP.s:2012   .text.allocate_btn_areas_and_controls:00000000 allocate_btn_areas_and_controls
/var/folders/21/t9g5rlb91ys800n5npymflf80000gn/T//ccSbQiFP.s:2188   .text.allocate_btn_areas_and_controls:0000007c $d
/var/folders/21/t9g5rlb91ys800n5npymflf80000gn/T//ccSbQiFP.s:2193   .text.lv_btnmatrix_create:00000000 $t
/var/folders/21/t9g5rlb91ys800n5npymflf80000gn/T//ccSbQiFP.s:2199   .text.lv_btnmatrix_create:00000000 lv_btnmatrix_create
/var/folders/21/t9g5rlb91ys800n5npymflf80000gn/T//ccSbQiFP.s:2238   .text.lv_btnmatrix_create:00000014 $d
/var/folders/21/t9g5rlb91ys800n5npymflf80000gn/T//ccSbQiFP.s:2243   .text.lv_btnmatrix_set_map:00000000 $t
/var/folders/21/t9g5rlb91ys800n5npymflf80000gn/T//ccSbQiFP.s:2249   .text.lv_btnmatrix_set_map:00000000 lv_btnmatrix_set_map
/var/folders/21/t9g5rlb91ys800n5npymflf80000gn/T//ccSbQiFP.s:2737   .text.lv_btnmatrix_set_map:000001e8 $d
/var/folders/21/t9g5rlb91ys800n5npymflf80000gn/T//ccSbQiFP.s:2742   .text.lv_btnmatrix_constructor:00000000 $t
/var/folders/21/t9g5rlb91ys800n5npymflf80000gn/T//ccSbQiFP.s:2747   .text.lv_btnmatrix_constructor:00000000 lv_btnmatrix_constructor
/var/folders/21/t9g5rlb91ys800n5npymflf80000gn/T//ccSbQiFP.s:2802   .text.lv_btnmatrix_constructor:0000002c $d
/var/folders/21/t9g5rlb91ys800n5npymflf80000gn/T//ccSbQiFP.s:5259   .data.lv_btnmatrix_def_map:00000000 lv_btnmatrix_def_map
/var/folders/21/t9g5rlb91ys800n5npymflf80000gn/T//ccSbQiFP.s:2807   .text.lv_btnmatrix_set_ctrl_map:00000000 $t
/var/folders/21/t9g5rlb91ys800n5npymflf80000gn/T//ccSbQiFP.s:2813   .text.lv_btnmatrix_set_ctrl_map:00000000 lv_btnmatrix_set_ctrl_map
/var/folders/21/t9g5rlb91ys800n5npymflf80000gn/T//ccSbQiFP.s:2854   .text.lv_btnmatrix_set_selected_btn:00000000 $t
/var/folders/21/t9g5rlb91ys800n5npymflf80000gn/T//ccSbQiFP.s:2860   .text.lv_btnmatrix_set_selected_btn:00000000 lv_btnmatrix_set_selected_btn
/var/folders/21/t9g5rlb91ys800n5npymflf80000gn/T//ccSbQiFP.s:2918   .text.lv_btnmatrix_clear_btn_ctrl:00000000 $t
/var/folders/21/t9g5rlb91ys800n5npymflf80000gn/T//ccSbQiFP.s:2924   .text.lv_btnmatrix_clear_btn_ctrl:00000000 lv_btnmatrix_clear_btn_ctrl
ARM GAS  /var/folders/21/t9g5rlb91ys800n5npymflf80000gn/T//ccSbQiFP.s 			page 153


/var/folders/21/t9g5rlb91ys800n5npymflf80000gn/T//ccSbQiFP.s:3018   .text.lv_btnmatrix_clear_btn_ctrl_all:00000000 $t
/var/folders/21/t9g5rlb91ys800n5npymflf80000gn/T//ccSbQiFP.s:3024   .text.lv_btnmatrix_clear_btn_ctrl_all:00000000 lv_btnmatrix_clear_btn_ctrl_all
/var/folders/21/t9g5rlb91ys800n5npymflf80000gn/T//ccSbQiFP.s:3081   .text.lv_btnmatrix_set_btn_ctrl:00000000 $t
/var/folders/21/t9g5rlb91ys800n5npymflf80000gn/T//ccSbQiFP.s:3087   .text.lv_btnmatrix_set_btn_ctrl:00000000 lv_btnmatrix_set_btn_ctrl
/var/folders/21/t9g5rlb91ys800n5npymflf80000gn/T//ccSbQiFP.s:3247   .text.lv_btnmatrix_set_btn_ctrl_all:00000000 $t
/var/folders/21/t9g5rlb91ys800n5npymflf80000gn/T//ccSbQiFP.s:3253   .text.lv_btnmatrix_set_btn_ctrl_all:00000000 lv_btnmatrix_set_btn_ctrl_all
/var/folders/21/t9g5rlb91ys800n5npymflf80000gn/T//ccSbQiFP.s:3310   .text.lv_btnmatrix_set_btn_width:00000000 $t
/var/folders/21/t9g5rlb91ys800n5npymflf80000gn/T//ccSbQiFP.s:3316   .text.lv_btnmatrix_set_btn_width:00000000 lv_btnmatrix_set_btn_width
/var/folders/21/t9g5rlb91ys800n5npymflf80000gn/T//ccSbQiFP.s:3373   .text.lv_btnmatrix_get_map:00000000 $t
/var/folders/21/t9g5rlb91ys800n5npymflf80000gn/T//ccSbQiFP.s:3379   .text.lv_btnmatrix_get_map:00000000 lv_btnmatrix_get_map
/var/folders/21/t9g5rlb91ys800n5npymflf80000gn/T//ccSbQiFP.s:3402   .text.lv_btnmatrix_get_selected_btn:00000000 $t
/var/folders/21/t9g5rlb91ys800n5npymflf80000gn/T//ccSbQiFP.s:3408   .text.lv_btnmatrix_get_selected_btn:00000000 lv_btnmatrix_get_selected_btn
/var/folders/21/t9g5rlb91ys800n5npymflf80000gn/T//ccSbQiFP.s:3431   .text.lv_btnmatrix_get_btn_text:00000000 $t
/var/folders/21/t9g5rlb91ys800n5npymflf80000gn/T//ccSbQiFP.s:3437   .text.lv_btnmatrix_get_btn_text:00000000 lv_btnmatrix_get_btn_text
/var/folders/21/t9g5rlb91ys800n5npymflf80000gn/T//ccSbQiFP.s:3557   .text.lv_btnmatrix_get_btn_text:00000060 $d
/var/folders/21/t9g5rlb91ys800n5npymflf80000gn/T//ccSbQiFP.s:3562   .text.lv_btnmatrix_has_btn_ctrl:00000000 $t
/var/folders/21/t9g5rlb91ys800n5npymflf80000gn/T//ccSbQiFP.s:3568   .text.lv_btnmatrix_has_btn_ctrl:00000000 lv_btnmatrix_has_btn_ctrl
/var/folders/21/t9g5rlb91ys800n5npymflf80000gn/T//ccSbQiFP.s:3613   .text.make_one_button_checked:00000000 $t
/var/folders/21/t9g5rlb91ys800n5npymflf80000gn/T//ccSbQiFP.s:3618   .text.make_one_button_checked:00000000 make_one_button_checked
/var/folders/21/t9g5rlb91ys800n5npymflf80000gn/T//ccSbQiFP.s:3668   .text.lv_btnmatrix_event:00000000 $t
/var/folders/21/t9g5rlb91ys800n5npymflf80000gn/T//ccSbQiFP.s:3673   .text.lv_btnmatrix_event:00000000 lv_btnmatrix_event
/var/folders/21/t9g5rlb91ys800n5npymflf80000gn/T//ccSbQiFP.s:3761   .text.lv_btnmatrix_event:0000003c $d
/var/folders/21/t9g5rlb91ys800n5npymflf80000gn/T//ccSbQiFP.s:3803   .text.lv_btnmatrix_event:000000e0 $t
/var/folders/21/t9g5rlb91ys800n5npymflf80000gn/T//ccSbQiFP.s:4266   .text.lv_btnmatrix_event:00000318 $d
/var/folders/21/t9g5rlb91ys800n5npymflf80000gn/T//ccSbQiFP.s:4273   .text.lv_btnmatrix_event:0000031c $t
/var/folders/21/t9g5rlb91ys800n5npymflf80000gn/T//ccSbQiFP.s:5148   .text.lv_btnmatrix_set_one_checked:00000000 $t
/var/folders/21/t9g5rlb91ys800n5npymflf80000gn/T//ccSbQiFP.s:5154   .text.lv_btnmatrix_set_one_checked:00000000 lv_btnmatrix_set_one_checked
/var/folders/21/t9g5rlb91ys800n5npymflf80000gn/T//ccSbQiFP.s:5190   .text.lv_btnmatrix_get_one_checked:00000000 $t
/var/folders/21/t9g5rlb91ys800n5npymflf80000gn/T//ccSbQiFP.s:5196   .text.lv_btnmatrix_get_one_checked:00000000 lv_btnmatrix_get_one_checked
/var/folders/21/t9g5rlb91ys800n5npymflf80000gn/T//ccSbQiFP.s:5221   .rodata.lv_btnmatrix_class:00000000 $d
/var/folders/21/t9g5rlb91ys800n5npymflf80000gn/T//ccSbQiFP.s:5237   .rodata.str1.4:00000000 $d
/var/folders/21/t9g5rlb91ys800n5npymflf80000gn/T//ccSbQiFP.s:5256   .data.lv_btnmatrix_def_map:00000000 $d

UNDEFINED SYMBOLS
strcmp
lv_obj_get_coords
lv_obj_get_width
lv_obj_get_height
lv_obj_get_style_prop
_lv_area_is_point_on
lv_obj_get_disp
lv_disp_get_dpi
lv_obj_invalidate_area
lv_event_get_target
lv_event_get_draw_ctx
lv_draw_rect_dsc_init
lv_draw_label_dsc_init
lv_obj_init_draw_rect_dsc
lv_obj_init_draw_label_dsc
lv_obj_draw_dsc_init
lv_memcpy
lv_event_send
lv_draw_rect
lv_txt_get_size
lv_draw_label
lv_mem_free
lv_mem_alloc
ARM GAS  /var/folders/21/t9g5rlb91ys800n5npymflf80000gn/T//ccSbQiFP.s 			page 154


lv_memset_00
lv_obj_class_create_obj
lv_obj_class_init_obj
lv_obj_get_content_width
lv_obj_get_content_height
lv_area_set
lv_obj_refresh_ext_draw_size
lv_obj_invalidate
lv_obj_has_flag
lv_obj_clear_flag
lv_obj_add_flag
lv_obj_event_base
lv_event_get_code
lv_event_set_ext_draw_size
lv_event_get_param
lv_indev_get_act
lv_indev_get_type
lv_indev_get_point
lv_indev_reset_long_press
lv_obj_get_group
lv_group_get_editing
lv_indev_get_next
lv_obj_class
