ARM GAS  /var/folders/21/t9g5rlb91ys800n5npymflf80000gn/T//ccsTc6XQ.s 			page 1


   1              		.cpu cortex-m4
   2              		.arch armv7e-m
   3              		.fpu fpv4-sp-d16
   4              		.eabi_attribute 27, 1
   5              		.eabi_attribute 28, 1
   6              		.eabi_attribute 20, 1
   7              		.eabi_attribute 21, 1
   8              		.eabi_attribute 23, 3
   9              		.eabi_attribute 24, 1
  10              		.eabi_attribute 25, 1
  11              		.eabi_attribute 26, 1
  12              		.eabi_attribute 30, 1
  13              		.eabi_attribute 34, 1
  14              		.eabi_attribute 18, 4
  15              		.file	"lv_calendar_header_dropdown.c"
  16              		.text
  17              	.Ltext0:
  18              		.cfi_sections	.debug_frame
  19              		.file 1 "lvgl/src/extra/widgets/calendar/lv_calendar_header_dropdown.c"
  20              		.section	.rodata.my_constructor.str1.4,"aMS",%progbits,1
  21              		.align	2
  22              	.LC0:
  23 0000 32303233 		.ascii	"2023\0122022\0122021\0122020\0122019\0122018\012201"
  23      0A323032 
  23      320A3230 
  23      32310A32 
  23      3032300A 
  24 0021 370A3230 		.ascii	"7\0122016\0122015\0122014\0122013\0122012\0122011\012"
  24      31360A32 
  24      3031350A 
  24      32303134 
  24      0A323031 
  25 0041 32303130 		.ascii	"2010\0122009\0122008\0122007\0122006\0122005\012200"
  25      0A323030 
  25      390A3230 
  25      30380A32 
  25      3030370A 
  26 0062 340A3230 		.ascii	"4\0122003\0122002\0122001\0122000\0121999\0121998\012"
  26      30330A32 
  26      3030320A 
  26      32303031 
  26      0A323030 
  27 0082 31393937 		.ascii	"1997\0121996\0121995\0121994\0121993\0121992\012199"
  27      0A313939 
  27      360A3139 
  27      39350A31 
  27      3939340A 
  28 00a3 310A3139 		.ascii	"1\0121990\0121989\0121988\0121987\0121986\0121985\012"
  28      39300A31 
  28      3938390A 
  28      31393838 
  28      0A313938 
  29 00c3 31393834 		.ascii	"1984\0121983\0121982\0121981\0121980\0121979\012197"
  29      0A313938 
  29      330A3139 
  29      38320A31 
  29      3938310A 
ARM GAS  /var/folders/21/t9g5rlb91ys800n5npymflf80000gn/T//ccsTc6XQ.s 			page 2


  30 00e4 380A3139 		.ascii	"8\0121977\0121976\0121975\0121974\0121973\0121972\012"
  30      37370A31 
  30      3937360A 
  30      31393735 
  30      0A313937 
  31 0104 31393731 		.ascii	"1971\0121970\0121969\0121968\0121967\0121966\012196"
  31      0A313937 
  31      300A3139 
  31      36390A31 
  31      3936380A 
  32 0125 350A3139 		.ascii	"5\0121964\0121963\0121962\0121961\0121960\0121959\012"
  32      36340A31 
  32      3936330A 
  32      31393632 
  32      0A313936 
  33 0145 31393538 		.ascii	"1958\0121957\0121956\0121955\0121954\0121953\012195"
  33      0A313935 
  33      370A3139 
  33      35360A31 
  33      3935350A 
  34 0166 320A3139 		.ascii	"2\0121951\0121950\0121949\0121948\0121947\0121946\012"
  34      35310A31 
  34      3935300A 
  34      31393439 
  34      0A313934 
  35 0186 31393435 		.ascii	"1945\0121944\0121943\0121942\0121941\0121940\012193"
  35      0A313934 
  35      340A3139 
  35      34330A31 
  35      3934320A 
  36 01a7 390A3139 		.ascii	"9\0121938\0121937\0121936\0121935\0121934\0121933\012"
  36      33380A31 
  36      3933370A 
  36      31393336 
  36      0A313933 
  37 01c7 31393332 		.ascii	"1932\0121931\0121930\0121929\0121928\0121927\012192"
  37      0A313933 
  37      310A3139 
  37      33300A31 
  37      3932390A 
  38 01e8 360A3139 		.ascii	"6\0121925\0121924\0121923\0121922\0121921\0121920\012"
  38      32350A31 
  38      3932340A 
  38      31393233 
  38      0A313932 
  39 0208 31393139 		.ascii	"1919\0121918\0121917\0121916\0121915\0121914\012191"
  39      0A313931 
  39      380A3139 
  39      31370A31 
  39      3931360A 
  40 0229 330A3139 		.ascii	"3\0121912\0121911\0121910\0121909\0121908\0121907\012"
  40      31320A31 
  40      3931310A 
  40      31393130 
  40      0A313930 
  41 0249 31393036 		.ascii	"1906\0121905\0121904\0121903\0121902\0121901\000"
  41      0A313930 
ARM GAS  /var/folders/21/t9g5rlb91ys800n5npymflf80000gn/T//ccsTc6XQ.s 			page 3


  41      350A3139 
  41      30340A31 
  41      3930330A 
  42 0267 00       		.align	2
  43              	.LC1:
  44 0268 30310A30 		.ascii	"01\01202\01203\01204\01205\01206\01207\01208\01209\012"
  44      320A3033 
  44      0A30340A 
  44      30350A30 
  44      360A3037 
  45 0283 31300A31 		.ascii	"10\01211\01212\000"
  45      310A3132 
  45      00
  46              		.section	.text.my_constructor,"ax",%progbits
  47              		.align	1
  48              		.syntax unified
  49              		.thumb
  50              		.thumb_func
  52              	my_constructor:
  53              	.LVL0:
  54              	.LFB168:
   1:lvgl/src/extra/widgets/calendar/lv_calendar_header_dropdown.c **** /**
   2:lvgl/src/extra/widgets/calendar/lv_calendar_header_dropdown.c ****  * @file lv_calendar_obj_dropdown.c
   3:lvgl/src/extra/widgets/calendar/lv_calendar_header_dropdown.c ****  *
   4:lvgl/src/extra/widgets/calendar/lv_calendar_header_dropdown.c ****  */
   5:lvgl/src/extra/widgets/calendar/lv_calendar_header_dropdown.c **** 
   6:lvgl/src/extra/widgets/calendar/lv_calendar_header_dropdown.c **** /*********************
   7:lvgl/src/extra/widgets/calendar/lv_calendar_header_dropdown.c ****  *      INCLUDES
   8:lvgl/src/extra/widgets/calendar/lv_calendar_header_dropdown.c ****  *********************/
   9:lvgl/src/extra/widgets/calendar/lv_calendar_header_dropdown.c **** #include "lv_calendar_header_dropdown.h"
  10:lvgl/src/extra/widgets/calendar/lv_calendar_header_dropdown.c **** #if LV_USE_CALENDAR_HEADER_DROPDOWN
  11:lvgl/src/extra/widgets/calendar/lv_calendar_header_dropdown.c **** 
  12:lvgl/src/extra/widgets/calendar/lv_calendar_header_dropdown.c **** #include "lv_calendar.h"
  13:lvgl/src/extra/widgets/calendar/lv_calendar_header_dropdown.c **** #include "../../../widgets/lv_dropdown.h"
  14:lvgl/src/extra/widgets/calendar/lv_calendar_header_dropdown.c **** #include "../../layouts/flex/lv_flex.h"
  15:lvgl/src/extra/widgets/calendar/lv_calendar_header_dropdown.c **** 
  16:lvgl/src/extra/widgets/calendar/lv_calendar_header_dropdown.c **** /*********************
  17:lvgl/src/extra/widgets/calendar/lv_calendar_header_dropdown.c ****  *      DEFINES
  18:lvgl/src/extra/widgets/calendar/lv_calendar_header_dropdown.c ****  *********************/
  19:lvgl/src/extra/widgets/calendar/lv_calendar_header_dropdown.c **** 
  20:lvgl/src/extra/widgets/calendar/lv_calendar_header_dropdown.c **** /**********************
  21:lvgl/src/extra/widgets/calendar/lv_calendar_header_dropdown.c ****  *      TYPEDEFS
  22:lvgl/src/extra/widgets/calendar/lv_calendar_header_dropdown.c ****  **********************/
  23:lvgl/src/extra/widgets/calendar/lv_calendar_header_dropdown.c **** 
  24:lvgl/src/extra/widgets/calendar/lv_calendar_header_dropdown.c **** /**********************
  25:lvgl/src/extra/widgets/calendar/lv_calendar_header_dropdown.c ****  *  STATIC PROTOTYPES
  26:lvgl/src/extra/widgets/calendar/lv_calendar_header_dropdown.c ****  **********************/
  27:lvgl/src/extra/widgets/calendar/lv_calendar_header_dropdown.c **** static void my_constructor(const lv_obj_class_t * class_p, lv_obj_t * obj);
  28:lvgl/src/extra/widgets/calendar/lv_calendar_header_dropdown.c **** static void year_event_cb(lv_event_t * e);
  29:lvgl/src/extra/widgets/calendar/lv_calendar_header_dropdown.c **** static void month_event_cb(lv_event_t * e);
  30:lvgl/src/extra/widgets/calendar/lv_calendar_header_dropdown.c **** static void value_changed_event_cb(lv_event_t * e);
  31:lvgl/src/extra/widgets/calendar/lv_calendar_header_dropdown.c **** 
  32:lvgl/src/extra/widgets/calendar/lv_calendar_header_dropdown.c **** /**********************
  33:lvgl/src/extra/widgets/calendar/lv_calendar_header_dropdown.c ****  *  STATIC VARIABLES
  34:lvgl/src/extra/widgets/calendar/lv_calendar_header_dropdown.c ****  **********************/
  35:lvgl/src/extra/widgets/calendar/lv_calendar_header_dropdown.c **** const lv_obj_class_t lv_calendar_header_dropdown_class = {
  36:lvgl/src/extra/widgets/calendar/lv_calendar_header_dropdown.c ****     .base_class = &lv_obj_class,
ARM GAS  /var/folders/21/t9g5rlb91ys800n5npymflf80000gn/T//ccsTc6XQ.s 			page 4


  37:lvgl/src/extra/widgets/calendar/lv_calendar_header_dropdown.c ****     .width_def = LV_PCT(100),
  38:lvgl/src/extra/widgets/calendar/lv_calendar_header_dropdown.c ****     .height_def = LV_SIZE_CONTENT,
  39:lvgl/src/extra/widgets/calendar/lv_calendar_header_dropdown.c ****     .constructor_cb = my_constructor
  40:lvgl/src/extra/widgets/calendar/lv_calendar_header_dropdown.c **** };
  41:lvgl/src/extra/widgets/calendar/lv_calendar_header_dropdown.c **** 
  42:lvgl/src/extra/widgets/calendar/lv_calendar_header_dropdown.c **** static const char * month_list = "01\n02\n03\n04\n05\n06\n07\n08\n09\n10\n11\n12";
  43:lvgl/src/extra/widgets/calendar/lv_calendar_header_dropdown.c **** static const char * year_list = {
  44:lvgl/src/extra/widgets/calendar/lv_calendar_header_dropdown.c ****     "2023\n2022\n2021\n"
  45:lvgl/src/extra/widgets/calendar/lv_calendar_header_dropdown.c ****     "2020\n2019\n2018\n2017\n2016\n2015\n2014\n2013\n2012\n2011\n2010\n2009\n2008\n2007\n2006\n2005
  46:lvgl/src/extra/widgets/calendar/lv_calendar_header_dropdown.c ****     "2000\n1999\n1998\n1997\n1996\n1995\n1994\n1993\n1992\n1991\n1990\n1989\n1988\n1987\n1986\n1985
  47:lvgl/src/extra/widgets/calendar/lv_calendar_header_dropdown.c ****     "1980\n1979\n1978\n1977\n1976\n1975\n1974\n1973\n1972\n1971\n1970\n1969\n1968\n1967\n1966\n1965
  48:lvgl/src/extra/widgets/calendar/lv_calendar_header_dropdown.c ****     "1960\n1959\n1958\n1957\n1956\n1955\n1954\n1953\n1952\n1951\n1950\n1949\n1948\n1947\n1946\n1945
  49:lvgl/src/extra/widgets/calendar/lv_calendar_header_dropdown.c ****     "1940\n1939\n1938\n1937\n1936\n1935\n1934\n1933\n1932\n1931\n1930\n1929\n1928\n1927\n1926\n1925
  50:lvgl/src/extra/widgets/calendar/lv_calendar_header_dropdown.c ****     "1920\n1919\n1918\n1917\n1916\n1915\n1914\n1913\n1912\n1911\n1910\n1909\n1908\n1907\n1906\n1905
  51:lvgl/src/extra/widgets/calendar/lv_calendar_header_dropdown.c **** };
  52:lvgl/src/extra/widgets/calendar/lv_calendar_header_dropdown.c **** 
  53:lvgl/src/extra/widgets/calendar/lv_calendar_header_dropdown.c **** /**********************
  54:lvgl/src/extra/widgets/calendar/lv_calendar_header_dropdown.c ****  *      MACROS
  55:lvgl/src/extra/widgets/calendar/lv_calendar_header_dropdown.c ****  **********************/
  56:lvgl/src/extra/widgets/calendar/lv_calendar_header_dropdown.c **** 
  57:lvgl/src/extra/widgets/calendar/lv_calendar_header_dropdown.c **** /**********************
  58:lvgl/src/extra/widgets/calendar/lv_calendar_header_dropdown.c ****  *   GLOBAL FUNCTIONS
  59:lvgl/src/extra/widgets/calendar/lv_calendar_header_dropdown.c ****  **********************/
  60:lvgl/src/extra/widgets/calendar/lv_calendar_header_dropdown.c **** 
  61:lvgl/src/extra/widgets/calendar/lv_calendar_header_dropdown.c **** lv_obj_t * lv_calendar_header_dropdown_create(lv_obj_t * parent)
  62:lvgl/src/extra/widgets/calendar/lv_calendar_header_dropdown.c **** {
  63:lvgl/src/extra/widgets/calendar/lv_calendar_header_dropdown.c ****     lv_obj_t * obj = lv_obj_class_create_obj(&lv_calendar_header_dropdown_class, parent);
  64:lvgl/src/extra/widgets/calendar/lv_calendar_header_dropdown.c ****     lv_obj_class_init_obj(obj);
  65:lvgl/src/extra/widgets/calendar/lv_calendar_header_dropdown.c **** 
  66:lvgl/src/extra/widgets/calendar/lv_calendar_header_dropdown.c ****     return obj;
  67:lvgl/src/extra/widgets/calendar/lv_calendar_header_dropdown.c **** }
  68:lvgl/src/extra/widgets/calendar/lv_calendar_header_dropdown.c **** 
  69:lvgl/src/extra/widgets/calendar/lv_calendar_header_dropdown.c **** void lv_calendar_header_dropdown_set_year_list(lv_obj_t * parent, const char * years_list)
  70:lvgl/src/extra/widgets/calendar/lv_calendar_header_dropdown.c **** {
  71:lvgl/src/extra/widgets/calendar/lv_calendar_header_dropdown.c ****     bool child_found = false;
  72:lvgl/src/extra/widgets/calendar/lv_calendar_header_dropdown.c ****     uint32_t idx = 0;
  73:lvgl/src/extra/widgets/calendar/lv_calendar_header_dropdown.c ****     lv_obj_t * child = NULL;
  74:lvgl/src/extra/widgets/calendar/lv_calendar_header_dropdown.c **** 
  75:lvgl/src/extra/widgets/calendar/lv_calendar_header_dropdown.c ****     const uint32_t calendar_child_count = lv_obj_get_child_cnt(parent);
  76:lvgl/src/extra/widgets/calendar/lv_calendar_header_dropdown.c **** 
  77:lvgl/src/extra/widgets/calendar/lv_calendar_header_dropdown.c ****     /* Search for the header dropdown */
  78:lvgl/src/extra/widgets/calendar/lv_calendar_header_dropdown.c ****     for(idx = 0; idx < calendar_child_count; idx++) {
  79:lvgl/src/extra/widgets/calendar/lv_calendar_header_dropdown.c ****         child = lv_obj_get_child(parent, idx);
  80:lvgl/src/extra/widgets/calendar/lv_calendar_header_dropdown.c ****         if(lv_obj_check_type(child, &lv_calendar_header_dropdown_class)) {
  81:lvgl/src/extra/widgets/calendar/lv_calendar_header_dropdown.c ****             child_found = true;
  82:lvgl/src/extra/widgets/calendar/lv_calendar_header_dropdown.c ****             break;
  83:lvgl/src/extra/widgets/calendar/lv_calendar_header_dropdown.c ****         }
  84:lvgl/src/extra/widgets/calendar/lv_calendar_header_dropdown.c ****     }
  85:lvgl/src/extra/widgets/calendar/lv_calendar_header_dropdown.c **** 
  86:lvgl/src/extra/widgets/calendar/lv_calendar_header_dropdown.c ****     if(!child_found) return;
  87:lvgl/src/extra/widgets/calendar/lv_calendar_header_dropdown.c **** 
  88:lvgl/src/extra/widgets/calendar/lv_calendar_header_dropdown.c ****     child_found = false;
  89:lvgl/src/extra/widgets/calendar/lv_calendar_header_dropdown.c ****     const uint32_t header_child_count = lv_obj_get_child_cnt(child);
  90:lvgl/src/extra/widgets/calendar/lv_calendar_header_dropdown.c **** 
  91:lvgl/src/extra/widgets/calendar/lv_calendar_header_dropdown.c ****     /* Search for the year dropdown */
  92:lvgl/src/extra/widgets/calendar/lv_calendar_header_dropdown.c ****     for(idx = 0; idx < header_child_count; idx++) {
  93:lvgl/src/extra/widgets/calendar/lv_calendar_header_dropdown.c ****         child = lv_obj_get_child(child, idx);
ARM GAS  /var/folders/21/t9g5rlb91ys800n5npymflf80000gn/T//ccsTc6XQ.s 			page 5


  94:lvgl/src/extra/widgets/calendar/lv_calendar_header_dropdown.c ****         if(lv_obj_check_type(child, &lv_dropdown_class)) {
  95:lvgl/src/extra/widgets/calendar/lv_calendar_header_dropdown.c ****             child_found = true;
  96:lvgl/src/extra/widgets/calendar/lv_calendar_header_dropdown.c ****             break;
  97:lvgl/src/extra/widgets/calendar/lv_calendar_header_dropdown.c ****         }
  98:lvgl/src/extra/widgets/calendar/lv_calendar_header_dropdown.c ****     }
  99:lvgl/src/extra/widgets/calendar/lv_calendar_header_dropdown.c **** 
 100:lvgl/src/extra/widgets/calendar/lv_calendar_header_dropdown.c ****     if(!child_found) return;
 101:lvgl/src/extra/widgets/calendar/lv_calendar_header_dropdown.c **** 
 102:lvgl/src/extra/widgets/calendar/lv_calendar_header_dropdown.c ****     lv_dropdown_clear_options(child);
 103:lvgl/src/extra/widgets/calendar/lv_calendar_header_dropdown.c ****     lv_dropdown_set_options(child, years_list);
 104:lvgl/src/extra/widgets/calendar/lv_calendar_header_dropdown.c **** 
 105:lvgl/src/extra/widgets/calendar/lv_calendar_header_dropdown.c ****     lv_obj_invalidate(parent);
 106:lvgl/src/extra/widgets/calendar/lv_calendar_header_dropdown.c **** }
 107:lvgl/src/extra/widgets/calendar/lv_calendar_header_dropdown.c **** 
 108:lvgl/src/extra/widgets/calendar/lv_calendar_header_dropdown.c **** /**********************
 109:lvgl/src/extra/widgets/calendar/lv_calendar_header_dropdown.c ****  *  STATIC FUNCTIONS
 110:lvgl/src/extra/widgets/calendar/lv_calendar_header_dropdown.c ****  **********************/
 111:lvgl/src/extra/widgets/calendar/lv_calendar_header_dropdown.c **** 
 112:lvgl/src/extra/widgets/calendar/lv_calendar_header_dropdown.c **** static void my_constructor(const lv_obj_class_t * class_p, lv_obj_t * obj)
 113:lvgl/src/extra/widgets/calendar/lv_calendar_header_dropdown.c **** {
  55              		.loc 1 113 1 view -0
  56              		.cfi_startproc
  57              		@ args = 0, pretend = 0, frame = 0
  58              		@ frame_needed = 0, uses_anonymous_args = 0
  59              		.loc 1 113 1 is_stmt 0 view .LVU1
  60 0000 70B5     		push	{r4, r5, r6, lr}
  61              	.LCFI0:
  62              		.cfi_def_cfa_offset 16
  63              		.cfi_offset 4, -16
  64              		.cfi_offset 5, -12
  65              		.cfi_offset 6, -8
  66              		.cfi_offset 14, -4
  67 0002 0C46     		mov	r4, r1
 114:lvgl/src/extra/widgets/calendar/lv_calendar_header_dropdown.c ****     LV_TRACE_OBJ_CREATE("begin");
  68              		.loc 1 114 33 is_stmt 1 view .LVU2
 115:lvgl/src/extra/widgets/calendar/lv_calendar_header_dropdown.c **** 
 116:lvgl/src/extra/widgets/calendar/lv_calendar_header_dropdown.c ****     LV_UNUSED(class_p);
  69              		.loc 1 116 5 view .LVU3
 117:lvgl/src/extra/widgets/calendar/lv_calendar_header_dropdown.c **** 
 118:lvgl/src/extra/widgets/calendar/lv_calendar_header_dropdown.c ****     lv_obj_t * calendar = lv_obj_get_parent(obj);
  70              		.loc 1 118 5 view .LVU4
  71              		.loc 1 118 27 is_stmt 0 view .LVU5
  72 0004 0846     		mov	r0, r1
  73              	.LVL1:
  74              		.loc 1 118 27 view .LVU6
  75 0006 FFF7FEFF 		bl	lv_obj_get_parent
  76              	.LVL2:
  77              		.loc 1 118 27 view .LVU7
  78 000a 0646     		mov	r6, r0
  79              	.LVL3:
 119:lvgl/src/extra/widgets/calendar/lv_calendar_header_dropdown.c ****     lv_obj_move_to_index(obj, 0);
  80              		.loc 1 119 5 is_stmt 1 view .LVU8
  81 000c 0021     		movs	r1, #0
  82 000e 2046     		mov	r0, r4
  83              	.LVL4:
  84              		.loc 1 119 5 is_stmt 0 view .LVU9
  85 0010 FFF7FEFF 		bl	lv_obj_move_to_index
ARM GAS  /var/folders/21/t9g5rlb91ys800n5npymflf80000gn/T//ccsTc6XQ.s 			page 6


  86              	.LVL5:
 120:lvgl/src/extra/widgets/calendar/lv_calendar_header_dropdown.c ****     lv_obj_set_flex_flow(obj, LV_FLEX_FLOW_ROW);
  87              		.loc 1 120 5 is_stmt 1 view .LVU10
  88 0014 0021     		movs	r1, #0
  89 0016 2046     		mov	r0, r4
  90 0018 FFF7FEFF 		bl	lv_obj_set_flex_flow
  91              	.LVL6:
 121:lvgl/src/extra/widgets/calendar/lv_calendar_header_dropdown.c **** 
 122:lvgl/src/extra/widgets/calendar/lv_calendar_header_dropdown.c ****     lv_obj_t * year_dd = lv_dropdown_create(obj);
  92              		.loc 1 122 5 view .LVU11
  93              		.loc 1 122 26 is_stmt 0 view .LVU12
  94 001c 2046     		mov	r0, r4
  95 001e FFF7FEFF 		bl	lv_dropdown_create
  96              	.LVL7:
  97 0022 0546     		mov	r5, r0
  98              	.LVL8:
 123:lvgl/src/extra/widgets/calendar/lv_calendar_header_dropdown.c ****     lv_dropdown_set_options(year_dd, year_list);
  99              		.loc 1 123 5 is_stmt 1 view .LVU13
 100 0024 1449     		ldr	r1, .L3
 101 0026 FFF7FEFF 		bl	lv_dropdown_set_options
 102              	.LVL9:
 124:lvgl/src/extra/widgets/calendar/lv_calendar_header_dropdown.c ****     lv_obj_add_event_cb(year_dd, year_event_cb, LV_EVENT_VALUE_CHANGED, calendar);
 103              		.loc 1 124 5 view .LVU14
 104 002a 3346     		mov	r3, r6
 105 002c 1C22     		movs	r2, #28
 106 002e 1349     		ldr	r1, .L3+4
 107 0030 2846     		mov	r0, r5
 108 0032 FFF7FEFF 		bl	lv_obj_add_event_cb
 109              	.LVL10:
 125:lvgl/src/extra/widgets/calendar/lv_calendar_header_dropdown.c ****     lv_obj_set_flex_grow(year_dd, 1);
 110              		.loc 1 125 5 view .LVU15
 111 0036 0121     		movs	r1, #1
 112 0038 2846     		mov	r0, r5
 113 003a FFF7FEFF 		bl	lv_obj_set_flex_grow
 114              	.LVL11:
 126:lvgl/src/extra/widgets/calendar/lv_calendar_header_dropdown.c **** 
 127:lvgl/src/extra/widgets/calendar/lv_calendar_header_dropdown.c ****     lv_obj_t * month_dd = lv_dropdown_create(obj);
 115              		.loc 1 127 5 view .LVU16
 116              		.loc 1 127 27 is_stmt 0 view .LVU17
 117 003e 2046     		mov	r0, r4
 118 0040 FFF7FEFF 		bl	lv_dropdown_create
 119              	.LVL12:
 120 0044 0546     		mov	r5, r0
 121              	.LVL13:
 128:lvgl/src/extra/widgets/calendar/lv_calendar_header_dropdown.c ****     lv_dropdown_set_options(month_dd, month_list);
 122              		.loc 1 128 5 is_stmt 1 view .LVU18
 123 0046 0E49     		ldr	r1, .L3+8
 124 0048 FFF7FEFF 		bl	lv_dropdown_set_options
 125              	.LVL14:
 129:lvgl/src/extra/widgets/calendar/lv_calendar_header_dropdown.c ****     lv_obj_add_event_cb(month_dd, month_event_cb, LV_EVENT_VALUE_CHANGED, calendar);
 126              		.loc 1 129 5 view .LVU19
 127 004c 3346     		mov	r3, r6
 128 004e 1C22     		movs	r2, #28
 129 0050 0C49     		ldr	r1, .L3+12
 130 0052 2846     		mov	r0, r5
 131 0054 FFF7FEFF 		bl	lv_obj_add_event_cb
 132              	.LVL15:
ARM GAS  /var/folders/21/t9g5rlb91ys800n5npymflf80000gn/T//ccsTc6XQ.s 			page 7


 130:lvgl/src/extra/widgets/calendar/lv_calendar_header_dropdown.c ****     lv_obj_set_flex_grow(month_dd, 1);
 133              		.loc 1 130 5 view .LVU20
 134 0058 0121     		movs	r1, #1
 135 005a 2846     		mov	r0, r5
 136 005c FFF7FEFF 		bl	lv_obj_set_flex_grow
 137              	.LVL16:
 131:lvgl/src/extra/widgets/calendar/lv_calendar_header_dropdown.c **** 
 132:lvgl/src/extra/widgets/calendar/lv_calendar_header_dropdown.c ****     lv_obj_add_event_cb(obj, value_changed_event_cb, LV_EVENT_VALUE_CHANGED, NULL);
 138              		.loc 1 132 5 view .LVU21
 139 0060 0023     		movs	r3, #0
 140 0062 1C22     		movs	r2, #28
 141 0064 0849     		ldr	r1, .L3+16
 142 0066 2046     		mov	r0, r4
 143 0068 FFF7FEFF 		bl	lv_obj_add_event_cb
 144              	.LVL17:
 133:lvgl/src/extra/widgets/calendar/lv_calendar_header_dropdown.c ****     /*Refresh the drop downs*/
 134:lvgl/src/extra/widgets/calendar/lv_calendar_header_dropdown.c ****     lv_event_send(obj, LV_EVENT_VALUE_CHANGED, NULL);
 145              		.loc 1 134 5 view .LVU22
 146 006c 0022     		movs	r2, #0
 147 006e 1C21     		movs	r1, #28
 148 0070 2046     		mov	r0, r4
 149 0072 FFF7FEFF 		bl	lv_event_send
 150              	.LVL18:
 135:lvgl/src/extra/widgets/calendar/lv_calendar_header_dropdown.c **** }
 151              		.loc 1 135 1 is_stmt 0 view .LVU23
 152 0076 70BD     		pop	{r4, r5, r6, pc}
 153              	.LVL19:
 154              	.L4:
 155              		.loc 1 135 1 view .LVU24
 156              		.align	2
 157              	.L3:
 158 0078 00000000 		.word	.LC0
 159 007c 00000000 		.word	year_event_cb
 160 0080 68020000 		.word	.LC1
 161 0084 00000000 		.word	month_event_cb
 162 0088 00000000 		.word	value_changed_event_cb
 163              		.cfi_endproc
 164              	.LFE168:
 166              		.section	.text.value_changed_event_cb,"ax",%progbits
 167              		.align	1
 168              		.syntax unified
 169              		.thumb
 170              		.thumb_func
 172              	value_changed_event_cb:
 173              	.LVL20:
 174              	.LFB171:
 136:lvgl/src/extra/widgets/calendar/lv_calendar_header_dropdown.c **** 
 137:lvgl/src/extra/widgets/calendar/lv_calendar_header_dropdown.c **** static void month_event_cb(lv_event_t * e)
 138:lvgl/src/extra/widgets/calendar/lv_calendar_header_dropdown.c **** {
 139:lvgl/src/extra/widgets/calendar/lv_calendar_header_dropdown.c ****     lv_obj_t * dropdown = lv_event_get_target(e);
 140:lvgl/src/extra/widgets/calendar/lv_calendar_header_dropdown.c ****     lv_obj_t * calendar = lv_event_get_user_data(e);
 141:lvgl/src/extra/widgets/calendar/lv_calendar_header_dropdown.c **** 
 142:lvgl/src/extra/widgets/calendar/lv_calendar_header_dropdown.c ****     uint16_t sel = lv_dropdown_get_selected(dropdown);
 143:lvgl/src/extra/widgets/calendar/lv_calendar_header_dropdown.c **** 
 144:lvgl/src/extra/widgets/calendar/lv_calendar_header_dropdown.c ****     const lv_calendar_date_t * d;
 145:lvgl/src/extra/widgets/calendar/lv_calendar_header_dropdown.c ****     d = lv_calendar_get_showed_date(calendar);
 146:lvgl/src/extra/widgets/calendar/lv_calendar_header_dropdown.c ****     lv_calendar_date_t newd = *d;
ARM GAS  /var/folders/21/t9g5rlb91ys800n5npymflf80000gn/T//ccsTc6XQ.s 			page 8


 147:lvgl/src/extra/widgets/calendar/lv_calendar_header_dropdown.c ****     newd.month = sel + 1;
 148:lvgl/src/extra/widgets/calendar/lv_calendar_header_dropdown.c **** 
 149:lvgl/src/extra/widgets/calendar/lv_calendar_header_dropdown.c ****     lv_calendar_set_showed_date(calendar, newd.year, newd.month);
 150:lvgl/src/extra/widgets/calendar/lv_calendar_header_dropdown.c **** }
 151:lvgl/src/extra/widgets/calendar/lv_calendar_header_dropdown.c **** 
 152:lvgl/src/extra/widgets/calendar/lv_calendar_header_dropdown.c **** static void year_event_cb(lv_event_t * e)
 153:lvgl/src/extra/widgets/calendar/lv_calendar_header_dropdown.c **** {
 154:lvgl/src/extra/widgets/calendar/lv_calendar_header_dropdown.c ****     lv_obj_t * dropdown = lv_event_get_target(e);
 155:lvgl/src/extra/widgets/calendar/lv_calendar_header_dropdown.c ****     lv_obj_t * calendar = lv_event_get_user_data(e);
 156:lvgl/src/extra/widgets/calendar/lv_calendar_header_dropdown.c **** 
 157:lvgl/src/extra/widgets/calendar/lv_calendar_header_dropdown.c ****     uint16_t sel = lv_dropdown_get_selected(dropdown);
 158:lvgl/src/extra/widgets/calendar/lv_calendar_header_dropdown.c **** 
 159:lvgl/src/extra/widgets/calendar/lv_calendar_header_dropdown.c ****     const lv_calendar_date_t * d;
 160:lvgl/src/extra/widgets/calendar/lv_calendar_header_dropdown.c ****     d = lv_calendar_get_showed_date(calendar);
 161:lvgl/src/extra/widgets/calendar/lv_calendar_header_dropdown.c ****     lv_calendar_date_t newd = *d;
 162:lvgl/src/extra/widgets/calendar/lv_calendar_header_dropdown.c **** 
 163:lvgl/src/extra/widgets/calendar/lv_calendar_header_dropdown.c ****     /* Get the first year on the options list
 164:lvgl/src/extra/widgets/calendar/lv_calendar_header_dropdown.c ****      * NOTE: Assumes the first 4 digits in the option list are numbers */
 165:lvgl/src/extra/widgets/calendar/lv_calendar_header_dropdown.c ****     const char * year_p = lv_dropdown_get_options(dropdown);
 166:lvgl/src/extra/widgets/calendar/lv_calendar_header_dropdown.c ****     const uint32_t year = (year_p[0] - '0') * 1000 + (year_p[1] - '0') * 100 + (year_p[2] - '0') * 
 167:lvgl/src/extra/widgets/calendar/lv_calendar_header_dropdown.c ****                           (year_p[3] - '0');
 168:lvgl/src/extra/widgets/calendar/lv_calendar_header_dropdown.c **** 
 169:lvgl/src/extra/widgets/calendar/lv_calendar_header_dropdown.c ****     newd.year = year - sel;
 170:lvgl/src/extra/widgets/calendar/lv_calendar_header_dropdown.c **** 
 171:lvgl/src/extra/widgets/calendar/lv_calendar_header_dropdown.c ****     lv_calendar_set_showed_date(calendar, newd.year, newd.month);
 172:lvgl/src/extra/widgets/calendar/lv_calendar_header_dropdown.c **** }
 173:lvgl/src/extra/widgets/calendar/lv_calendar_header_dropdown.c **** 
 174:lvgl/src/extra/widgets/calendar/lv_calendar_header_dropdown.c **** static void value_changed_event_cb(lv_event_t * e)
 175:lvgl/src/extra/widgets/calendar/lv_calendar_header_dropdown.c **** {
 175              		.loc 1 175 1 is_stmt 1 view -0
 176              		.cfi_startproc
 177              		@ args = 0, pretend = 0, frame = 0
 178              		@ frame_needed = 0, uses_anonymous_args = 0
 179              		.loc 1 175 1 is_stmt 0 view .LVU26
 180 0000 70B5     		push	{r4, r5, r6, lr}
 181              	.LCFI1:
 182              		.cfi_def_cfa_offset 16
 183              		.cfi_offset 4, -16
 184              		.cfi_offset 5, -12
 185              		.cfi_offset 6, -8
 186              		.cfi_offset 14, -4
 176:lvgl/src/extra/widgets/calendar/lv_calendar_header_dropdown.c ****     lv_obj_t * header = lv_event_get_target(e);
 187              		.loc 1 176 5 is_stmt 1 view .LVU27
 188              		.loc 1 176 25 is_stmt 0 view .LVU28
 189 0002 FFF7FEFF 		bl	lv_event_get_target
 190              	.LVL21:
 191              		.loc 1 176 25 view .LVU29
 192 0006 0546     		mov	r5, r0
 193              	.LVL22:
 177:lvgl/src/extra/widgets/calendar/lv_calendar_header_dropdown.c ****     lv_obj_t * calendar = lv_obj_get_parent(header);
 194              		.loc 1 177 5 is_stmt 1 view .LVU30
 195              		.loc 1 177 27 is_stmt 0 view .LVU31
 196 0008 FFF7FEFF 		bl	lv_obj_get_parent
 197              	.LVL23:
 178:lvgl/src/extra/widgets/calendar/lv_calendar_header_dropdown.c ****     const lv_calendar_date_t * cur_date = lv_calendar_get_showed_date(calendar);
 198              		.loc 1 178 5 is_stmt 1 view .LVU32
 199              		.loc 1 178 43 is_stmt 0 view .LVU33
ARM GAS  /var/folders/21/t9g5rlb91ys800n5npymflf80000gn/T//ccsTc6XQ.s 			page 9


 200 000c FFF7FEFF 		bl	lv_calendar_get_showed_date
 201              	.LVL24:
 202              		.loc 1 178 43 view .LVU34
 203 0010 0446     		mov	r4, r0
 204              	.LVL25:
 179:lvgl/src/extra/widgets/calendar/lv_calendar_header_dropdown.c **** 
 180:lvgl/src/extra/widgets/calendar/lv_calendar_header_dropdown.c ****     lv_obj_t * year_dd = lv_obj_get_child(header, 0);
 205              		.loc 1 180 5 is_stmt 1 view .LVU35
 206              		.loc 1 180 26 is_stmt 0 view .LVU36
 207 0012 0021     		movs	r1, #0
 208 0014 2846     		mov	r0, r5
 209              	.LVL26:
 210              		.loc 1 180 26 view .LVU37
 211 0016 FFF7FEFF 		bl	lv_obj_get_child
 212              	.LVL27:
 213 001a 0646     		mov	r6, r0
 214              	.LVL28:
 181:lvgl/src/extra/widgets/calendar/lv_calendar_header_dropdown.c **** 
 182:lvgl/src/extra/widgets/calendar/lv_calendar_header_dropdown.c ****     /* Get the first year on the options list
 183:lvgl/src/extra/widgets/calendar/lv_calendar_header_dropdown.c ****      * NOTE: Assumes the first 4 digits in the option list are numbers */
 184:lvgl/src/extra/widgets/calendar/lv_calendar_header_dropdown.c ****     const char * year_p = lv_dropdown_get_options(year_dd);
 215              		.loc 1 184 5 is_stmt 1 view .LVU38
 216              		.loc 1 184 27 is_stmt 0 view .LVU39
 217 001c FFF7FEFF 		bl	lv_dropdown_get_options
 218              	.LVL29:
 185:lvgl/src/extra/widgets/calendar/lv_calendar_header_dropdown.c ****     const uint32_t year = (year_p[0] - '0') * 1000 + (year_p[1] - '0') * 100 + (year_p[2] - '0') * 
 219              		.loc 1 185 5 is_stmt 1 view .LVU40
 220              		.loc 1 185 34 is_stmt 0 view .LVU41
 221 0020 0378     		ldrb	r3, [r0]	@ zero_extendqisi2
 222              		.loc 1 185 38 view .LVU42
 223 0022 303B     		subs	r3, r3, #48
 224              		.loc 1 185 61 view .LVU43
 225 0024 4178     		ldrb	r1, [r0, #1]	@ zero_extendqisi2
 226              		.loc 1 185 65 view .LVU44
 227 0026 3039     		subs	r1, r1, #48
 228              		.loc 1 185 72 view .LVU45
 229 0028 6422     		movs	r2, #100
 230 002a 02FB01F1 		mul	r1, r2, r1
 231              		.loc 1 185 52 view .LVU46
 232 002e 4FF47A72 		mov	r2, #1000
 233 0032 02FB0311 		mla	r1, r2, r3, r1
 234              		.loc 1 185 87 view .LVU47
 235 0036 8378     		ldrb	r3, [r0, #2]	@ zero_extendqisi2
 236              		.loc 1 185 91 view .LVU48
 237 0038 303B     		subs	r3, r3, #48
 238              		.loc 1 185 98 view .LVU49
 239 003a 03EB8303 		add	r3, r3, r3, lsl #2
 240              		.loc 1 185 78 view .LVU50
 241 003e 01EB4301 		add	r1, r1, r3, lsl #1
 186:lvgl/src/extra/widgets/calendar/lv_calendar_header_dropdown.c ****                           (year_p[3] - '0');
 242              		.loc 1 186 34 view .LVU51
 243 0042 C378     		ldrb	r3, [r0, #3]	@ zero_extendqisi2
 244              		.loc 1 186 38 view .LVU52
 245 0044 303B     		subs	r3, r3, #48
 185:lvgl/src/extra/widgets/calendar/lv_calendar_header_dropdown.c ****     const uint32_t year = (year_p[0] - '0') * 1000 + (year_p[1] - '0') * 100 + (year_p[2] - '0') * 
 246              		.loc 1 185 103 view .LVU53
 247 0046 1944     		add	r1, r1, r3
ARM GAS  /var/folders/21/t9g5rlb91ys800n5npymflf80000gn/T//ccsTc6XQ.s 			page 10


 248              	.LVL30:
 187:lvgl/src/extra/widgets/calendar/lv_calendar_header_dropdown.c **** 
 188:lvgl/src/extra/widgets/calendar/lv_calendar_header_dropdown.c ****     lv_dropdown_set_selected(year_dd, year - cur_date->year);
 249              		.loc 1 188 5 is_stmt 1 view .LVU54
 250              		.loc 1 188 54 is_stmt 0 view .LVU55
 251 0048 2388     		ldrh	r3, [r4]
 252              		.loc 1 188 5 view .LVU56
 253 004a C91A     		subs	r1, r1, r3
 254              	.LVL31:
 255              		.loc 1 188 5 view .LVU57
 256 004c 89B2     		uxth	r1, r1
 257 004e 3046     		mov	r0, r6
 258              	.LVL32:
 259              		.loc 1 188 5 view .LVU58
 260 0050 FFF7FEFF 		bl	lv_dropdown_set_selected
 261              	.LVL33:
 189:lvgl/src/extra/widgets/calendar/lv_calendar_header_dropdown.c **** 
 190:lvgl/src/extra/widgets/calendar/lv_calendar_header_dropdown.c ****     lv_obj_t * month_dd = lv_obj_get_child(header, 1);
 262              		.loc 1 190 5 is_stmt 1 view .LVU59
 263              		.loc 1 190 27 is_stmt 0 view .LVU60
 264 0054 0121     		movs	r1, #1
 265 0056 2846     		mov	r0, r5
 266 0058 FFF7FEFF 		bl	lv_obj_get_child
 267              	.LVL34:
 191:lvgl/src/extra/widgets/calendar/lv_calendar_header_dropdown.c ****     lv_dropdown_set_selected(month_dd, cur_date->month - 1);
 268              		.loc 1 191 5 is_stmt 1 view .LVU61
 269              		.loc 1 191 48 is_stmt 0 view .LVU62
 270 005c 94F90210 		ldrsb	r1, [r4, #2]
 271 0060 89B2     		uxth	r1, r1
 272              		.loc 1 191 5 view .LVU63
 273 0062 0139     		subs	r1, r1, #1
 274 0064 89B2     		uxth	r1, r1
 275 0066 FFF7FEFF 		bl	lv_dropdown_set_selected
 276              	.LVL35:
 192:lvgl/src/extra/widgets/calendar/lv_calendar_header_dropdown.c **** }
 277              		.loc 1 192 1 view .LVU64
 278 006a 70BD     		pop	{r4, r5, r6, pc}
 279              		.loc 1 192 1 view .LVU65
 280              		.cfi_endproc
 281              	.LFE171:
 283              		.section	.text.month_event_cb,"ax",%progbits
 284              		.align	1
 285              		.syntax unified
 286              		.thumb
 287              		.thumb_func
 289              	month_event_cb:
 290              	.LVL36:
 291              	.LFB169:
 138:lvgl/src/extra/widgets/calendar/lv_calendar_header_dropdown.c ****     lv_obj_t * dropdown = lv_event_get_target(e);
 292              		.loc 1 138 1 is_stmt 1 view -0
 293              		.cfi_startproc
 294              		@ args = 0, pretend = 0, frame = 8
 295              		@ frame_needed = 0, uses_anonymous_args = 0
 138:lvgl/src/extra/widgets/calendar/lv_calendar_header_dropdown.c ****     lv_obj_t * dropdown = lv_event_get_target(e);
 296              		.loc 1 138 1 is_stmt 0 view .LVU67
 297 0000 30B5     		push	{r4, r5, lr}
 298              	.LCFI2:
ARM GAS  /var/folders/21/t9g5rlb91ys800n5npymflf80000gn/T//ccsTc6XQ.s 			page 11


 299              		.cfi_def_cfa_offset 12
 300              		.cfi_offset 4, -12
 301              		.cfi_offset 5, -8
 302              		.cfi_offset 14, -4
 303 0002 83B0     		sub	sp, sp, #12
 304              	.LCFI3:
 305              		.cfi_def_cfa_offset 24
 306 0004 0546     		mov	r5, r0
 139:lvgl/src/extra/widgets/calendar/lv_calendar_header_dropdown.c ****     lv_obj_t * calendar = lv_event_get_user_data(e);
 307              		.loc 1 139 5 is_stmt 1 view .LVU68
 139:lvgl/src/extra/widgets/calendar/lv_calendar_header_dropdown.c ****     lv_obj_t * calendar = lv_event_get_user_data(e);
 308              		.loc 1 139 27 is_stmt 0 view .LVU69
 309 0006 FFF7FEFF 		bl	lv_event_get_target
 310              	.LVL37:
 139:lvgl/src/extra/widgets/calendar/lv_calendar_header_dropdown.c ****     lv_obj_t * calendar = lv_event_get_user_data(e);
 311              		.loc 1 139 27 view .LVU70
 312 000a 0446     		mov	r4, r0
 313              	.LVL38:
 140:lvgl/src/extra/widgets/calendar/lv_calendar_header_dropdown.c **** 
 314              		.loc 1 140 5 is_stmt 1 view .LVU71
 140:lvgl/src/extra/widgets/calendar/lv_calendar_header_dropdown.c **** 
 315              		.loc 1 140 27 is_stmt 0 view .LVU72
 316 000c 2846     		mov	r0, r5
 317              	.LVL39:
 140:lvgl/src/extra/widgets/calendar/lv_calendar_header_dropdown.c **** 
 318              		.loc 1 140 27 view .LVU73
 319 000e FFF7FEFF 		bl	lv_event_get_user_data
 320              	.LVL40:
 321 0012 0546     		mov	r5, r0
 322              	.LVL41:
 142:lvgl/src/extra/widgets/calendar/lv_calendar_header_dropdown.c **** 
 323              		.loc 1 142 5 is_stmt 1 view .LVU74
 142:lvgl/src/extra/widgets/calendar/lv_calendar_header_dropdown.c **** 
 324              		.loc 1 142 20 is_stmt 0 view .LVU75
 325 0014 2046     		mov	r0, r4
 326              	.LVL42:
 142:lvgl/src/extra/widgets/calendar/lv_calendar_header_dropdown.c **** 
 327              		.loc 1 142 20 view .LVU76
 328 0016 FFF7FEFF 		bl	lv_dropdown_get_selected
 329              	.LVL43:
 330 001a 0446     		mov	r4, r0
 331              	.LVL44:
 144:lvgl/src/extra/widgets/calendar/lv_calendar_header_dropdown.c ****     d = lv_calendar_get_showed_date(calendar);
 332              		.loc 1 144 5 is_stmt 1 view .LVU77
 145:lvgl/src/extra/widgets/calendar/lv_calendar_header_dropdown.c ****     lv_calendar_date_t newd = *d;
 333              		.loc 1 145 5 view .LVU78
 145:lvgl/src/extra/widgets/calendar/lv_calendar_header_dropdown.c ****     lv_calendar_date_t newd = *d;
 334              		.loc 1 145 9 is_stmt 0 view .LVU79
 335 001c 2846     		mov	r0, r5
 336 001e FFF7FEFF 		bl	lv_calendar_get_showed_date
 337              	.LVL45:
 146:lvgl/src/extra/widgets/calendar/lv_calendar_header_dropdown.c ****     newd.month = sel + 1;
 338              		.loc 1 146 5 is_stmt 1 view .LVU80
 146:lvgl/src/extra/widgets/calendar/lv_calendar_header_dropdown.c ****     newd.month = sel + 1;
 339              		.loc 1 146 24 is_stmt 0 view .LVU81
 340 0022 0068     		ldr	r0, [r0]	@ unaligned
 341              	.LVL46:
ARM GAS  /var/folders/21/t9g5rlb91ys800n5npymflf80000gn/T//ccsTc6XQ.s 			page 12


 146:lvgl/src/extra/widgets/calendar/lv_calendar_header_dropdown.c ****     newd.month = sel + 1;
 342              		.loc 1 146 24 view .LVU82
 343 0024 0190     		str	r0, [sp, #4]
 147:lvgl/src/extra/widgets/calendar/lv_calendar_header_dropdown.c **** 
 344              		.loc 1 147 5 is_stmt 1 view .LVU83
 147:lvgl/src/extra/widgets/calendar/lv_calendar_header_dropdown.c **** 
 345              		.loc 1 147 22 is_stmt 0 view .LVU84
 346 0026 621C     		adds	r2, r4, #1
 347 0028 52B2     		sxtb	r2, r2
 147:lvgl/src/extra/widgets/calendar/lv_calendar_header_dropdown.c **** 
 348              		.loc 1 147 16 view .LVU85
 349 002a 8DF80620 		strb	r2, [sp, #6]
 149:lvgl/src/extra/widgets/calendar/lv_calendar_header_dropdown.c **** }
 350              		.loc 1 149 5 is_stmt 1 view .LVU86
 351 002e BDF80410 		ldrh	r1, [sp, #4]
 352 0032 2846     		mov	r0, r5
 353 0034 FFF7FEFF 		bl	lv_calendar_set_showed_date
 354              	.LVL47:
 150:lvgl/src/extra/widgets/calendar/lv_calendar_header_dropdown.c **** 
 355              		.loc 1 150 1 is_stmt 0 view .LVU87
 356 0038 03B0     		add	sp, sp, #12
 357              	.LCFI4:
 358              		.cfi_def_cfa_offset 12
 359              		@ sp needed
 360 003a 30BD     		pop	{r4, r5, pc}
 150:lvgl/src/extra/widgets/calendar/lv_calendar_header_dropdown.c **** 
 361              		.loc 1 150 1 view .LVU88
 362              		.cfi_endproc
 363              	.LFE169:
 365              		.section	.text.year_event_cb,"ax",%progbits
 366              		.align	1
 367              		.syntax unified
 368              		.thumb
 369              		.thumb_func
 371              	year_event_cb:
 372              	.LVL48:
 373              	.LFB170:
 153:lvgl/src/extra/widgets/calendar/lv_calendar_header_dropdown.c ****     lv_obj_t * dropdown = lv_event_get_target(e);
 374              		.loc 1 153 1 is_stmt 1 view -0
 375              		.cfi_startproc
 376              		@ args = 0, pretend = 0, frame = 8
 377              		@ frame_needed = 0, uses_anonymous_args = 0
 153:lvgl/src/extra/widgets/calendar/lv_calendar_header_dropdown.c ****     lv_obj_t * dropdown = lv_event_get_target(e);
 378              		.loc 1 153 1 is_stmt 0 view .LVU90
 379 0000 70B5     		push	{r4, r5, r6, lr}
 380              	.LCFI5:
 381              		.cfi_def_cfa_offset 16
 382              		.cfi_offset 4, -16
 383              		.cfi_offset 5, -12
 384              		.cfi_offset 6, -8
 385              		.cfi_offset 14, -4
 386 0002 82B0     		sub	sp, sp, #8
 387              	.LCFI6:
 388              		.cfi_def_cfa_offset 24
 389 0004 0446     		mov	r4, r0
 154:lvgl/src/extra/widgets/calendar/lv_calendar_header_dropdown.c ****     lv_obj_t * calendar = lv_event_get_user_data(e);
 390              		.loc 1 154 5 is_stmt 1 view .LVU91
ARM GAS  /var/folders/21/t9g5rlb91ys800n5npymflf80000gn/T//ccsTc6XQ.s 			page 13


 154:lvgl/src/extra/widgets/calendar/lv_calendar_header_dropdown.c ****     lv_obj_t * calendar = lv_event_get_user_data(e);
 391              		.loc 1 154 27 is_stmt 0 view .LVU92
 392 0006 FFF7FEFF 		bl	lv_event_get_target
 393              	.LVL49:
 154:lvgl/src/extra/widgets/calendar/lv_calendar_header_dropdown.c ****     lv_obj_t * calendar = lv_event_get_user_data(e);
 394              		.loc 1 154 27 view .LVU93
 395 000a 0646     		mov	r6, r0
 396              	.LVL50:
 155:lvgl/src/extra/widgets/calendar/lv_calendar_header_dropdown.c **** 
 397              		.loc 1 155 5 is_stmt 1 view .LVU94
 155:lvgl/src/extra/widgets/calendar/lv_calendar_header_dropdown.c **** 
 398              		.loc 1 155 27 is_stmt 0 view .LVU95
 399 000c 2046     		mov	r0, r4
 400              	.LVL51:
 155:lvgl/src/extra/widgets/calendar/lv_calendar_header_dropdown.c **** 
 401              		.loc 1 155 27 view .LVU96
 402 000e FFF7FEFF 		bl	lv_event_get_user_data
 403              	.LVL52:
 404 0012 0446     		mov	r4, r0
 405              	.LVL53:
 157:lvgl/src/extra/widgets/calendar/lv_calendar_header_dropdown.c **** 
 406              		.loc 1 157 5 is_stmt 1 view .LVU97
 157:lvgl/src/extra/widgets/calendar/lv_calendar_header_dropdown.c **** 
 407              		.loc 1 157 20 is_stmt 0 view .LVU98
 408 0014 3046     		mov	r0, r6
 409              	.LVL54:
 157:lvgl/src/extra/widgets/calendar/lv_calendar_header_dropdown.c **** 
 410              		.loc 1 157 20 view .LVU99
 411 0016 FFF7FEFF 		bl	lv_dropdown_get_selected
 412              	.LVL55:
 413 001a 0546     		mov	r5, r0
 414              	.LVL56:
 159:lvgl/src/extra/widgets/calendar/lv_calendar_header_dropdown.c ****     d = lv_calendar_get_showed_date(calendar);
 415              		.loc 1 159 5 is_stmt 1 view .LVU100
 160:lvgl/src/extra/widgets/calendar/lv_calendar_header_dropdown.c ****     lv_calendar_date_t newd = *d;
 416              		.loc 1 160 5 view .LVU101
 160:lvgl/src/extra/widgets/calendar/lv_calendar_header_dropdown.c ****     lv_calendar_date_t newd = *d;
 417              		.loc 1 160 9 is_stmt 0 view .LVU102
 418 001c 2046     		mov	r0, r4
 419 001e FFF7FEFF 		bl	lv_calendar_get_showed_date
 420              	.LVL57:
 161:lvgl/src/extra/widgets/calendar/lv_calendar_header_dropdown.c **** 
 421              		.loc 1 161 5 is_stmt 1 view .LVU103
 161:lvgl/src/extra/widgets/calendar/lv_calendar_header_dropdown.c **** 
 422              		.loc 1 161 24 is_stmt 0 view .LVU104
 423 0022 0068     		ldr	r0, [r0]	@ unaligned
 424              	.LVL58:
 161:lvgl/src/extra/widgets/calendar/lv_calendar_header_dropdown.c **** 
 425              		.loc 1 161 24 view .LVU105
 426 0024 0190     		str	r0, [sp, #4]
 165:lvgl/src/extra/widgets/calendar/lv_calendar_header_dropdown.c ****     const uint32_t year = (year_p[0] - '0') * 1000 + (year_p[1] - '0') * 100 + (year_p[2] - '0') * 
 427              		.loc 1 165 5 is_stmt 1 view .LVU106
 165:lvgl/src/extra/widgets/calendar/lv_calendar_header_dropdown.c ****     const uint32_t year = (year_p[0] - '0') * 1000 + (year_p[1] - '0') * 100 + (year_p[2] - '0') * 
 428              		.loc 1 165 27 is_stmt 0 view .LVU107
 429 0026 3046     		mov	r0, r6
 430 0028 FFF7FEFF 		bl	lv_dropdown_get_options
 431              	.LVL59:
ARM GAS  /var/folders/21/t9g5rlb91ys800n5npymflf80000gn/T//ccsTc6XQ.s 			page 14


 166:lvgl/src/extra/widgets/calendar/lv_calendar_header_dropdown.c ****                           (year_p[3] - '0');
 432              		.loc 1 166 5 is_stmt 1 view .LVU108
 166:lvgl/src/extra/widgets/calendar/lv_calendar_header_dropdown.c ****                           (year_p[3] - '0');
 433              		.loc 1 166 34 is_stmt 0 view .LVU109
 434 002c 0378     		ldrb	r3, [r0]	@ zero_extendqisi2
 166:lvgl/src/extra/widgets/calendar/lv_calendar_header_dropdown.c ****                           (year_p[3] - '0');
 435              		.loc 1 166 38 view .LVU110
 436 002e 303B     		subs	r3, r3, #48
 166:lvgl/src/extra/widgets/calendar/lv_calendar_header_dropdown.c ****                           (year_p[3] - '0');
 437              		.loc 1 166 61 view .LVU111
 438 0030 4178     		ldrb	r1, [r0, #1]	@ zero_extendqisi2
 166:lvgl/src/extra/widgets/calendar/lv_calendar_header_dropdown.c ****                           (year_p[3] - '0');
 439              		.loc 1 166 65 view .LVU112
 440 0032 3039     		subs	r1, r1, #48
 166:lvgl/src/extra/widgets/calendar/lv_calendar_header_dropdown.c ****                           (year_p[3] - '0');
 441              		.loc 1 166 72 view .LVU113
 442 0034 6422     		movs	r2, #100
 443 0036 02FB01F1 		mul	r1, r2, r1
 166:lvgl/src/extra/widgets/calendar/lv_calendar_header_dropdown.c ****                           (year_p[3] - '0');
 444              		.loc 1 166 52 view .LVU114
 445 003a 4FF47A72 		mov	r2, #1000
 446 003e 02FB0311 		mla	r1, r2, r3, r1
 166:lvgl/src/extra/widgets/calendar/lv_calendar_header_dropdown.c ****                           (year_p[3] - '0');
 447              		.loc 1 166 87 view .LVU115
 448 0042 8378     		ldrb	r3, [r0, #2]	@ zero_extendqisi2
 166:lvgl/src/extra/widgets/calendar/lv_calendar_header_dropdown.c ****                           (year_p[3] - '0');
 449              		.loc 1 166 91 view .LVU116
 450 0044 303B     		subs	r3, r3, #48
 166:lvgl/src/extra/widgets/calendar/lv_calendar_header_dropdown.c ****                           (year_p[3] - '0');
 451              		.loc 1 166 98 view .LVU117
 452 0046 03EB8303 		add	r3, r3, r3, lsl #2
 166:lvgl/src/extra/widgets/calendar/lv_calendar_header_dropdown.c ****                           (year_p[3] - '0');
 453              		.loc 1 166 78 view .LVU118
 454 004a 01EB4301 		add	r1, r1, r3, lsl #1
 167:lvgl/src/extra/widgets/calendar/lv_calendar_header_dropdown.c **** 
 455              		.loc 1 167 34 view .LVU119
 456 004e C378     		ldrb	r3, [r0, #3]	@ zero_extendqisi2
 167:lvgl/src/extra/widgets/calendar/lv_calendar_header_dropdown.c **** 
 457              		.loc 1 167 38 view .LVU120
 458 0050 303B     		subs	r3, r3, #48
 166:lvgl/src/extra/widgets/calendar/lv_calendar_header_dropdown.c ****                           (year_p[3] - '0');
 459              		.loc 1 166 103 view .LVU121
 460 0052 1944     		add	r1, r1, r3
 461              	.LVL60:
 169:lvgl/src/extra/widgets/calendar/lv_calendar_header_dropdown.c **** 
 462              		.loc 1 169 5 is_stmt 1 view .LVU122
 169:lvgl/src/extra/widgets/calendar/lv_calendar_header_dropdown.c **** 
 463              		.loc 1 169 22 is_stmt 0 view .LVU123
 464 0054 491B     		subs	r1, r1, r5
 465              	.LVL61:
 169:lvgl/src/extra/widgets/calendar/lv_calendar_header_dropdown.c **** 
 466              		.loc 1 169 22 view .LVU124
 467 0056 89B2     		uxth	r1, r1
 169:lvgl/src/extra/widgets/calendar/lv_calendar_header_dropdown.c **** 
 468              		.loc 1 169 15 view .LVU125
 469 0058 ADF80410 		strh	r1, [sp, #4]	@ movhi
 171:lvgl/src/extra/widgets/calendar/lv_calendar_header_dropdown.c **** }
ARM GAS  /var/folders/21/t9g5rlb91ys800n5npymflf80000gn/T//ccsTc6XQ.s 			page 15


 470              		.loc 1 171 5 is_stmt 1 view .LVU126
 471 005c 9DF90620 		ldrsb	r2, [sp, #6]
 472              	.LVL62:
 171:lvgl/src/extra/widgets/calendar/lv_calendar_header_dropdown.c **** }
 473              		.loc 1 171 5 is_stmt 0 view .LVU127
 474 0060 2046     		mov	r0, r4
 475              	.LVL63:
 171:lvgl/src/extra/widgets/calendar/lv_calendar_header_dropdown.c **** }
 476              		.loc 1 171 5 view .LVU128
 477 0062 FFF7FEFF 		bl	lv_calendar_set_showed_date
 478              	.LVL64:
 172:lvgl/src/extra/widgets/calendar/lv_calendar_header_dropdown.c **** 
 479              		.loc 1 172 1 view .LVU129
 480 0066 02B0     		add	sp, sp, #8
 481              	.LCFI7:
 482              		.cfi_def_cfa_offset 16
 483              		@ sp needed
 484 0068 70BD     		pop	{r4, r5, r6, pc}
 172:lvgl/src/extra/widgets/calendar/lv_calendar_header_dropdown.c **** 
 485              		.loc 1 172 1 view .LVU130
 486              		.cfi_endproc
 487              	.LFE170:
 489              		.section	.text.lv_calendar_header_dropdown_create,"ax",%progbits
 490              		.align	1
 491              		.global	lv_calendar_header_dropdown_create
 492              		.syntax unified
 493              		.thumb
 494              		.thumb_func
 496              	lv_calendar_header_dropdown_create:
 497              	.LVL65:
 498              	.LFB166:
  62:lvgl/src/extra/widgets/calendar/lv_calendar_header_dropdown.c ****     lv_obj_t * obj = lv_obj_class_create_obj(&lv_calendar_header_dropdown_class, parent);
 499              		.loc 1 62 1 is_stmt 1 view -0
 500              		.cfi_startproc
 501              		@ args = 0, pretend = 0, frame = 0
 502              		@ frame_needed = 0, uses_anonymous_args = 0
  62:lvgl/src/extra/widgets/calendar/lv_calendar_header_dropdown.c ****     lv_obj_t * obj = lv_obj_class_create_obj(&lv_calendar_header_dropdown_class, parent);
 503              		.loc 1 62 1 is_stmt 0 view .LVU132
 504 0000 10B5     		push	{r4, lr}
 505              	.LCFI8:
 506              		.cfi_def_cfa_offset 8
 507              		.cfi_offset 4, -8
 508              		.cfi_offset 14, -4
 509 0002 0146     		mov	r1, r0
  63:lvgl/src/extra/widgets/calendar/lv_calendar_header_dropdown.c ****     lv_obj_class_init_obj(obj);
 510              		.loc 1 63 5 is_stmt 1 view .LVU133
  63:lvgl/src/extra/widgets/calendar/lv_calendar_header_dropdown.c ****     lv_obj_class_init_obj(obj);
 511              		.loc 1 63 22 is_stmt 0 view .LVU134
 512 0004 0348     		ldr	r0, .L13
 513              	.LVL66:
  63:lvgl/src/extra/widgets/calendar/lv_calendar_header_dropdown.c ****     lv_obj_class_init_obj(obj);
 514              		.loc 1 63 22 view .LVU135
 515 0006 FFF7FEFF 		bl	lv_obj_class_create_obj
 516              	.LVL67:
  63:lvgl/src/extra/widgets/calendar/lv_calendar_header_dropdown.c ****     lv_obj_class_init_obj(obj);
 517              		.loc 1 63 22 view .LVU136
 518 000a 0446     		mov	r4, r0
ARM GAS  /var/folders/21/t9g5rlb91ys800n5npymflf80000gn/T//ccsTc6XQ.s 			page 16


 519              	.LVL68:
  64:lvgl/src/extra/widgets/calendar/lv_calendar_header_dropdown.c **** 
 520              		.loc 1 64 5 is_stmt 1 view .LVU137
 521 000c FFF7FEFF 		bl	lv_obj_class_init_obj
 522              	.LVL69:
  66:lvgl/src/extra/widgets/calendar/lv_calendar_header_dropdown.c **** }
 523              		.loc 1 66 5 view .LVU138
  67:lvgl/src/extra/widgets/calendar/lv_calendar_header_dropdown.c **** 
 524              		.loc 1 67 1 is_stmt 0 view .LVU139
 525 0010 2046     		mov	r0, r4
 526 0012 10BD     		pop	{r4, pc}
 527              	.LVL70:
 528              	.L14:
  67:lvgl/src/extra/widgets/calendar/lv_calendar_header_dropdown.c **** 
 529              		.loc 1 67 1 view .LVU140
 530              		.align	2
 531              	.L13:
 532 0014 00000000 		.word	lv_calendar_header_dropdown_class
 533              		.cfi_endproc
 534              	.LFE166:
 536              		.section	.text.lv_calendar_header_dropdown_set_year_list,"ax",%progbits
 537              		.align	1
 538              		.global	lv_calendar_header_dropdown_set_year_list
 539              		.syntax unified
 540              		.thumb
 541              		.thumb_func
 543              	lv_calendar_header_dropdown_set_year_list:
 544              	.LVL71:
 545              	.LFB167:
  70:lvgl/src/extra/widgets/calendar/lv_calendar_header_dropdown.c ****     bool child_found = false;
 546              		.loc 1 70 1 is_stmt 1 view -0
 547              		.cfi_startproc
 548              		@ args = 0, pretend = 0, frame = 0
 549              		@ frame_needed = 0, uses_anonymous_args = 0
  70:lvgl/src/extra/widgets/calendar/lv_calendar_header_dropdown.c ****     bool child_found = false;
 550              		.loc 1 70 1 is_stmt 0 view .LVU142
 551 0000 2DE9F041 		push	{r4, r5, r6, r7, r8, lr}
 552              	.LCFI9:
 553              		.cfi_def_cfa_offset 24
 554              		.cfi_offset 4, -24
 555              		.cfi_offset 5, -20
 556              		.cfi_offset 6, -16
 557              		.cfi_offset 7, -12
 558              		.cfi_offset 8, -8
 559              		.cfi_offset 14, -4
 560 0004 0646     		mov	r6, r0
 561 0006 0F46     		mov	r7, r1
  71:lvgl/src/extra/widgets/calendar/lv_calendar_header_dropdown.c ****     uint32_t idx = 0;
 562              		.loc 1 71 5 is_stmt 1 view .LVU143
 563              	.LVL72:
  72:lvgl/src/extra/widgets/calendar/lv_calendar_header_dropdown.c ****     lv_obj_t * child = NULL;
 564              		.loc 1 72 5 view .LVU144
  73:lvgl/src/extra/widgets/calendar/lv_calendar_header_dropdown.c **** 
 565              		.loc 1 73 5 view .LVU145
  75:lvgl/src/extra/widgets/calendar/lv_calendar_header_dropdown.c **** 
 566              		.loc 1 75 5 view .LVU146
  75:lvgl/src/extra/widgets/calendar/lv_calendar_header_dropdown.c **** 
ARM GAS  /var/folders/21/t9g5rlb91ys800n5npymflf80000gn/T//ccsTc6XQ.s 			page 17


 567              		.loc 1 75 43 is_stmt 0 view .LVU147
 568 0008 FFF7FEFF 		bl	lv_obj_get_child_cnt
 569              	.LVL73:
  75:lvgl/src/extra/widgets/calendar/lv_calendar_header_dropdown.c **** 
 570              		.loc 1 75 43 view .LVU148
 571 000c 8046     		mov	r8, r0
 572              	.LVL74:
  78:lvgl/src/extra/widgets/calendar/lv_calendar_header_dropdown.c ****         child = lv_obj_get_child(parent, idx);
 573              		.loc 1 78 5 is_stmt 1 view .LVU149
  73:lvgl/src/extra/widgets/calendar/lv_calendar_header_dropdown.c **** 
 574              		.loc 1 73 16 is_stmt 0 view .LVU150
 575 000e 0024     		movs	r4, #0
  78:lvgl/src/extra/widgets/calendar/lv_calendar_header_dropdown.c ****         child = lv_obj_get_child(parent, idx);
 576              		.loc 1 78 13 view .LVU151
 577 0010 2546     		mov	r5, r4
  78:lvgl/src/extra/widgets/calendar/lv_calendar_header_dropdown.c ****         child = lv_obj_get_child(parent, idx);
 578              		.loc 1 78 5 view .LVU152
 579 0012 00E0     		b	.L16
 580              	.LVL75:
 581              	.L25:
  78:lvgl/src/extra/widgets/calendar/lv_calendar_header_dropdown.c ****         child = lv_obj_get_child(parent, idx);
 582              		.loc 1 78 49 is_stmt 1 discriminator 2 view .LVU153
 583 0014 0135     		adds	r5, r5, #1
 584              	.LVL76:
 585              	.L16:
  78:lvgl/src/extra/widgets/calendar/lv_calendar_header_dropdown.c ****         child = lv_obj_get_child(parent, idx);
 586              		.loc 1 78 22 discriminator 1 view .LVU154
 587 0016 4545     		cmp	r5, r8
 588 0018 0BD2     		bcs	.L24
  79:lvgl/src/extra/widgets/calendar/lv_calendar_header_dropdown.c ****         if(lv_obj_check_type(child, &lv_calendar_header_dropdown_class)) {
 589              		.loc 1 79 9 view .LVU155
  79:lvgl/src/extra/widgets/calendar/lv_calendar_header_dropdown.c ****         if(lv_obj_check_type(child, &lv_calendar_header_dropdown_class)) {
 590              		.loc 1 79 17 is_stmt 0 view .LVU156
 591 001a 2946     		mov	r1, r5
 592 001c 3046     		mov	r0, r6
 593 001e FFF7FEFF 		bl	lv_obj_get_child
 594              	.LVL77:
 595 0022 0446     		mov	r4, r0
 596              	.LVL78:
  80:lvgl/src/extra/widgets/calendar/lv_calendar_header_dropdown.c ****             child_found = true;
 597              		.loc 1 80 9 is_stmt 1 view .LVU157
  80:lvgl/src/extra/widgets/calendar/lv_calendar_header_dropdown.c ****             child_found = true;
 598              		.loc 1 80 12 is_stmt 0 view .LVU158
 599 0024 1549     		ldr	r1, .L28
 600 0026 FFF7FEFF 		bl	lv_obj_check_type
 601              	.LVL79:
  80:lvgl/src/extra/widgets/calendar/lv_calendar_header_dropdown.c ****             child_found = true;
 602              		.loc 1 80 11 view .LVU159
 603 002a 0346     		mov	r3, r0
 604 002c 0028     		cmp	r0, #0
 605 002e F1D0     		beq	.L25
 606 0030 00E0     		b	.L17
 607              	.L24:
  71:lvgl/src/extra/widgets/calendar/lv_calendar_header_dropdown.c ****     uint32_t idx = 0;
 608              		.loc 1 71 10 view .LVU160
 609 0032 0023     		movs	r3, #0
 610              	.L17:
ARM GAS  /var/folders/21/t9g5rlb91ys800n5npymflf80000gn/T//ccsTc6XQ.s 			page 18


 611              	.LVL80:
  86:lvgl/src/extra/widgets/calendar/lv_calendar_header_dropdown.c **** 
 612              		.loc 1 86 5 is_stmt 1 view .LVU161
  86:lvgl/src/extra/widgets/calendar/lv_calendar_header_dropdown.c **** 
 613              		.loc 1 86 7 is_stmt 0 view .LVU162
 614 0034 0BB9     		cbnz	r3, .L26
 615              	.LVL81:
 616              	.L15:
 106:lvgl/src/extra/widgets/calendar/lv_calendar_header_dropdown.c **** 
 617              		.loc 1 106 1 view .LVU163
 618 0036 BDE8F081 		pop	{r4, r5, r6, r7, r8, pc}
 619              	.LVL82:
 620              	.L26:
  88:lvgl/src/extra/widgets/calendar/lv_calendar_header_dropdown.c ****     const uint32_t header_child_count = lv_obj_get_child_cnt(child);
 621              		.loc 1 88 5 is_stmt 1 view .LVU164
  89:lvgl/src/extra/widgets/calendar/lv_calendar_header_dropdown.c **** 
 622              		.loc 1 89 5 view .LVU165
  89:lvgl/src/extra/widgets/calendar/lv_calendar_header_dropdown.c **** 
 623              		.loc 1 89 41 is_stmt 0 view .LVU166
 624 003a 2046     		mov	r0, r4
 625 003c FFF7FEFF 		bl	lv_obj_get_child_cnt
 626              	.LVL83:
 627 0040 8046     		mov	r8, r0
 628              	.LVL84:
  92:lvgl/src/extra/widgets/calendar/lv_calendar_header_dropdown.c ****         child = lv_obj_get_child(child, idx);
 629              		.loc 1 92 5 is_stmt 1 view .LVU167
  92:lvgl/src/extra/widgets/calendar/lv_calendar_header_dropdown.c ****         child = lv_obj_get_child(child, idx);
 630              		.loc 1 92 13 is_stmt 0 view .LVU168
 631 0042 0025     		movs	r5, #0
 632              	.LVL85:
 633              	.L20:
  92:lvgl/src/extra/widgets/calendar/lv_calendar_header_dropdown.c ****         child = lv_obj_get_child(child, idx);
 634              		.loc 1 92 22 is_stmt 1 discriminator 1 view .LVU169
 635 0044 4545     		cmp	r5, r8
 636 0046 0BD2     		bcs	.L27
  93:lvgl/src/extra/widgets/calendar/lv_calendar_header_dropdown.c ****         if(lv_obj_check_type(child, &lv_dropdown_class)) {
 637              		.loc 1 93 9 view .LVU170
  93:lvgl/src/extra/widgets/calendar/lv_calendar_header_dropdown.c ****         if(lv_obj_check_type(child, &lv_dropdown_class)) {
 638              		.loc 1 93 17 is_stmt 0 view .LVU171
 639 0048 2946     		mov	r1, r5
 640 004a 2046     		mov	r0, r4
 641 004c FFF7FEFF 		bl	lv_obj_get_child
 642              	.LVL86:
 643 0050 0446     		mov	r4, r0
 644              	.LVL87:
  94:lvgl/src/extra/widgets/calendar/lv_calendar_header_dropdown.c ****             child_found = true;
 645              		.loc 1 94 9 is_stmt 1 view .LVU172
  94:lvgl/src/extra/widgets/calendar/lv_calendar_header_dropdown.c ****             child_found = true;
 646              		.loc 1 94 12 is_stmt 0 view .LVU173
 647 0052 0B49     		ldr	r1, .L28+4
 648 0054 FFF7FEFF 		bl	lv_obj_check_type
 649              	.LVL88:
  94:lvgl/src/extra/widgets/calendar/lv_calendar_header_dropdown.c ****             child_found = true;
 650              		.loc 1 94 11 view .LVU174
 651 0058 0346     		mov	r3, r0
 652 005a 10B9     		cbnz	r0, .L21
  92:lvgl/src/extra/widgets/calendar/lv_calendar_header_dropdown.c ****         child = lv_obj_get_child(child, idx);
ARM GAS  /var/folders/21/t9g5rlb91ys800n5npymflf80000gn/T//ccsTc6XQ.s 			page 19


 653              		.loc 1 92 47 is_stmt 1 discriminator 2 view .LVU175
 654 005c 0135     		adds	r5, r5, #1
 655              	.LVL89:
  92:lvgl/src/extra/widgets/calendar/lv_calendar_header_dropdown.c ****         child = lv_obj_get_child(child, idx);
 656              		.loc 1 92 47 is_stmt 0 discriminator 2 view .LVU176
 657 005e F1E7     		b	.L20
 658              	.L27:
  88:lvgl/src/extra/widgets/calendar/lv_calendar_header_dropdown.c ****     const uint32_t header_child_count = lv_obj_get_child_cnt(child);
 659              		.loc 1 88 17 view .LVU177
 660 0060 0023     		movs	r3, #0
 661              	.L21:
 662              	.LVL90:
 100:lvgl/src/extra/widgets/calendar/lv_calendar_header_dropdown.c **** 
 663              		.loc 1 100 5 is_stmt 1 view .LVU178
 100:lvgl/src/extra/widgets/calendar/lv_calendar_header_dropdown.c **** 
 664              		.loc 1 100 7 is_stmt 0 view .LVU179
 665 0062 002B     		cmp	r3, #0
 666 0064 E7D0     		beq	.L15
 102:lvgl/src/extra/widgets/calendar/lv_calendar_header_dropdown.c ****     lv_dropdown_set_options(child, years_list);
 667              		.loc 1 102 5 is_stmt 1 view .LVU180
 668 0066 2046     		mov	r0, r4
 669 0068 FFF7FEFF 		bl	lv_dropdown_clear_options
 670              	.LVL91:
 103:lvgl/src/extra/widgets/calendar/lv_calendar_header_dropdown.c **** 
 671              		.loc 1 103 5 view .LVU181
 672 006c 3946     		mov	r1, r7
 673 006e 2046     		mov	r0, r4
 674 0070 FFF7FEFF 		bl	lv_dropdown_set_options
 675              	.LVL92:
 105:lvgl/src/extra/widgets/calendar/lv_calendar_header_dropdown.c **** }
 676              		.loc 1 105 5 view .LVU182
 677 0074 3046     		mov	r0, r6
 678 0076 FFF7FEFF 		bl	lv_obj_invalidate
 679              	.LVL93:
 680 007a DCE7     		b	.L15
 681              	.L29:
 682              		.align	2
 683              	.L28:
 684 007c 00000000 		.word	lv_calendar_header_dropdown_class
 685 0080 00000000 		.word	lv_dropdown_class
 686              		.cfi_endproc
 687              	.LFE167:
 689              		.global	lv_calendar_header_dropdown_class
 690              		.section	.rodata.lv_calendar_header_dropdown_class,"a"
 691              		.align	2
 694              	lv_calendar_header_dropdown_class:
 695 0000 00000000 		.word	lv_obj_class
 696 0004 00000000 		.word	my_constructor
 697 0008 00000000 		.space	12
 697      00000000 
 697      00000000 
 698 0014 6420     		.short	8292
 699 0016 D127     		.short	10193
 700 0018 00000000 		.space	4
 701              		.text
 702              	.Letext0:
 703              		.file 2 "/usr/local/include/sys/_types/_int8_t.h"
ARM GAS  /var/folders/21/t9g5rlb91ys800n5npymflf80000gn/T//ccsTc6XQ.s 			page 20


 704              		.file 3 "/usr/local/include/sys/_types/_int16_t.h"
 705              		.file 4 "/usr/local/include/sys/_types/_int32_t.h"
 706              		.file 5 "/usr/local/include/_types/_uint8_t.h"
 707              		.file 6 "/usr/local/include/_types/_uint16_t.h"
 708              		.file 7 "/usr/local/include/_types/_uint32_t.h"
 709              		.file 8 "lvgl/src/extra/widgets/calendar/../../../core/../misc/../font/../misc/lv_area.h"
 710              		.file 9 "lvgl/src/extra/widgets/calendar/../../../core/../misc/lv_types.h"
 711              		.file 10 "lvgl/src/extra/widgets/calendar/../../../core/../misc/lv_color.h"
 712              		.file 11 "lvgl/src/extra/widgets/calendar/../../../core/../misc/lv_style.h"
 713              		.file 12 "lvgl/src/extra/widgets/calendar/../../../core/lv_obj.h"
 714              		.file 13 "lvgl/src/extra/widgets/calendar/../../../core/../hal/../misc/lv_ll.h"
 715              		.file 14 "lvgl/src/extra/widgets/calendar/../../../core/lv_group.h"
 716              		.file 15 "lvgl/src/extra/widgets/calendar/../../../core/lv_obj_scroll.h"
 717              		.file 16 "lvgl/src/extra/widgets/calendar/../../../core/lv_obj_style.h"
 718              		.file 17 "lvgl/src/extra/widgets/calendar/../../../core/lv_obj_class.h"
 719              		.file 18 "lvgl/src/extra/widgets/calendar/../../../core/lv_event.h"
 720              		.file 19 "lvgl/src/extra/widgets/calendar/lv_calendar_header_dropdown.h"
 721              		.file 20 "lvgl/src/extra/widgets/calendar/lv_calendar.h"
 722              		.file 21 "lvgl/src/extra/widgets/calendar/../../../widgets/lv_dropdown.h"
 723              		.file 22 "lvgl/src/extra/widgets/calendar/../../layouts/flex/lv_flex.h"
 724              		.file 23 "lvgl/src/extra/widgets/calendar/../../../core/../hal/../draw/sw/../../core/lv_obj_pos.h"
 725              		.file 24 "lvgl/src/extra/widgets/calendar/../../../core/lv_obj_tree.h"
ARM GAS  /var/folders/21/t9g5rlb91ys800n5npymflf80000gn/T//ccsTc6XQ.s 			page 21

