ARM GAS  /var/folders/21/t9g5rlb91ys800n5npymflf80000gn/T//cca4dfU0.s 			page 1


   1              		.cpu cortex-m4
   2              		.arch armv7e-m
   3              		.fpu fpv4-sp-d16
   4              		.eabi_attribute 27, 1
   5              		.eabi_attribute 28, 1
   6              		.eabi_attribute 20, 1
   7              		.eabi_attribute 21, 1
   8              		.eabi_attribute 23, 3
   9              		.eabi_attribute 24, 1
  10              		.eabi_attribute 25, 1
  11              		.eabi_attribute 26, 1
  12              		.eabi_attribute 30, 1
  13              		.eabi_attribute 34, 1
  14              		.eabi_attribute 18, 4
  15              		.file	"lv_draw_sw_rect.c"
  16              		.text
  17              	.Ltext0:
  18              		.cfi_sections	.debug_frame
  19              		.file 1 "lvgl/src/draw/sw/lv_draw_sw_rect.c"
  20              		.section	.text.draw_border_simple,"ax",%progbits
  21              		.align	1
  22              		.syntax unified
  23              		.thumb
  24              		.thumb_func
  26              	draw_border_simple:
  27              	.LVL0:
  28              	.LFB171:
   1:lvgl/src/draw/sw/lv_draw_sw_rect.c **** /**
   2:lvgl/src/draw/sw/lv_draw_sw_rect.c ****  * @file lv_draw_rect.c
   3:lvgl/src/draw/sw/lv_draw_sw_rect.c ****  *
   4:lvgl/src/draw/sw/lv_draw_sw_rect.c ****  */
   5:lvgl/src/draw/sw/lv_draw_sw_rect.c **** 
   6:lvgl/src/draw/sw/lv_draw_sw_rect.c **** /*********************
   7:lvgl/src/draw/sw/lv_draw_sw_rect.c ****  *      INCLUDES
   8:lvgl/src/draw/sw/lv_draw_sw_rect.c ****  *********************/
   9:lvgl/src/draw/sw/lv_draw_sw_rect.c **** #include "lv_draw_sw.h"
  10:lvgl/src/draw/sw/lv_draw_sw_rect.c **** #include "../../misc/lv_math.h"
  11:lvgl/src/draw/sw/lv_draw_sw_rect.c **** #include "../../misc/lv_txt_ap.h"
  12:lvgl/src/draw/sw/lv_draw_sw_rect.c **** #include "../../core/lv_refr.h"
  13:lvgl/src/draw/sw/lv_draw_sw_rect.c **** #include "../../misc/lv_assert.h"
  14:lvgl/src/draw/sw/lv_draw_sw_rect.c **** #include "lv_draw_sw_dither.h"
  15:lvgl/src/draw/sw/lv_draw_sw_rect.c **** 
  16:lvgl/src/draw/sw/lv_draw_sw_rect.c **** /*********************
  17:lvgl/src/draw/sw/lv_draw_sw_rect.c ****  *      DEFINES
  18:lvgl/src/draw/sw/lv_draw_sw_rect.c ****  *********************/
  19:lvgl/src/draw/sw/lv_draw_sw_rect.c **** #define SHADOW_UPSCALE_SHIFT    6
  20:lvgl/src/draw/sw/lv_draw_sw_rect.c **** #define SHADOW_ENHANCE          1
  21:lvgl/src/draw/sw/lv_draw_sw_rect.c **** #define SPLIT_LIMIT             50
  22:lvgl/src/draw/sw/lv_draw_sw_rect.c **** 
  23:lvgl/src/draw/sw/lv_draw_sw_rect.c **** /**********************
  24:lvgl/src/draw/sw/lv_draw_sw_rect.c ****  *      TYPEDEFS
  25:lvgl/src/draw/sw/lv_draw_sw_rect.c ****  **********************/
  26:lvgl/src/draw/sw/lv_draw_sw_rect.c **** 
  27:lvgl/src/draw/sw/lv_draw_sw_rect.c **** /**********************
  28:lvgl/src/draw/sw/lv_draw_sw_rect.c ****  *  STATIC PROTOTYPES
  29:lvgl/src/draw/sw/lv_draw_sw_rect.c ****  **********************/
  30:lvgl/src/draw/sw/lv_draw_sw_rect.c **** static void draw_bg(lv_draw_ctx_t * draw_ctx, const lv_draw_rect_dsc_t * dsc, const lv_area_t * coo
ARM GAS  /var/folders/21/t9g5rlb91ys800n5npymflf80000gn/T//cca4dfU0.s 			page 2


  31:lvgl/src/draw/sw/lv_draw_sw_rect.c **** static void draw_bg_img(lv_draw_ctx_t * draw_ctx, const lv_draw_rect_dsc_t * dsc, const lv_area_t *
  32:lvgl/src/draw/sw/lv_draw_sw_rect.c **** static void draw_border(lv_draw_ctx_t * draw_ctx, const lv_draw_rect_dsc_t * dsc, const lv_area_t *
  33:lvgl/src/draw/sw/lv_draw_sw_rect.c **** 
  34:lvgl/src/draw/sw/lv_draw_sw_rect.c **** static void draw_outline(lv_draw_ctx_t * draw_ctx, const lv_draw_rect_dsc_t * dsc, const lv_area_t 
  35:lvgl/src/draw/sw/lv_draw_sw_rect.c **** 
  36:lvgl/src/draw/sw/lv_draw_sw_rect.c **** #if LV_DRAW_COMPLEX
  37:lvgl/src/draw/sw/lv_draw_sw_rect.c **** static void /* LV_ATTRIBUTE_FAST_MEM */ draw_shadow(lv_draw_ctx_t * draw_ctx, const lv_draw_rect_ds
  38:lvgl/src/draw/sw/lv_draw_sw_rect.c ****                                                     const lv_area_t * coords);
  39:lvgl/src/draw/sw/lv_draw_sw_rect.c **** static void /* LV_ATTRIBUTE_FAST_MEM */ shadow_draw_corner_buf(const lv_area_t * coords, uint16_t *
  40:lvgl/src/draw/sw/lv_draw_sw_rect.c ****                                                                lv_coord_t s, lv_coord_t r);
  41:lvgl/src/draw/sw/lv_draw_sw_rect.c **** static void /* LV_ATTRIBUTE_FAST_MEM */ shadow_blur_corner(lv_coord_t size, lv_coord_t sw, uint16_t
  42:lvgl/src/draw/sw/lv_draw_sw_rect.c **** #endif
  43:lvgl/src/draw/sw/lv_draw_sw_rect.c **** 
  44:lvgl/src/draw/sw/lv_draw_sw_rect.c **** void draw_border_generic(lv_draw_ctx_t * draw_ctx, const lv_area_t * outer_area, const lv_area_t * 
  45:lvgl/src/draw/sw/lv_draw_sw_rect.c ****                          lv_coord_t rout, lv_coord_t rin, lv_color_t color, lv_opa_t opa, lv_blend_
  46:lvgl/src/draw/sw/lv_draw_sw_rect.c **** 
  47:lvgl/src/draw/sw/lv_draw_sw_rect.c **** static void draw_border_simple(lv_draw_ctx_t * draw_ctx, const lv_area_t * outer_area, const lv_are
  48:lvgl/src/draw/sw/lv_draw_sw_rect.c ****                                lv_color_t color, lv_opa_t opa);
  49:lvgl/src/draw/sw/lv_draw_sw_rect.c **** 
  50:lvgl/src/draw/sw/lv_draw_sw_rect.c **** /**********************
  51:lvgl/src/draw/sw/lv_draw_sw_rect.c ****  *  STATIC VARIABLES
  52:lvgl/src/draw/sw/lv_draw_sw_rect.c ****  **********************/
  53:lvgl/src/draw/sw/lv_draw_sw_rect.c **** #if defined(LV_SHADOW_CACHE_SIZE) && LV_SHADOW_CACHE_SIZE > 0
  54:lvgl/src/draw/sw/lv_draw_sw_rect.c ****     static uint8_t sh_cache[LV_SHADOW_CACHE_SIZE * LV_SHADOW_CACHE_SIZE];
  55:lvgl/src/draw/sw/lv_draw_sw_rect.c ****     static int32_t sh_cache_size = -1;
  56:lvgl/src/draw/sw/lv_draw_sw_rect.c ****     static int32_t sh_cache_r = -1;
  57:lvgl/src/draw/sw/lv_draw_sw_rect.c **** #endif
  58:lvgl/src/draw/sw/lv_draw_sw_rect.c **** 
  59:lvgl/src/draw/sw/lv_draw_sw_rect.c **** /**********************
  60:lvgl/src/draw/sw/lv_draw_sw_rect.c ****  *      MACROS
  61:lvgl/src/draw/sw/lv_draw_sw_rect.c ****  **********************/
  62:lvgl/src/draw/sw/lv_draw_sw_rect.c **** 
  63:lvgl/src/draw/sw/lv_draw_sw_rect.c **** /**********************
  64:lvgl/src/draw/sw/lv_draw_sw_rect.c ****  *   GLOBAL FUNCTIONS
  65:lvgl/src/draw/sw/lv_draw_sw_rect.c ****  **********************/
  66:lvgl/src/draw/sw/lv_draw_sw_rect.c **** 
  67:lvgl/src/draw/sw/lv_draw_sw_rect.c **** void lv_draw_sw_rect(lv_draw_ctx_t * draw_ctx, const lv_draw_rect_dsc_t * dsc, const lv_area_t * co
  68:lvgl/src/draw/sw/lv_draw_sw_rect.c **** {
  69:lvgl/src/draw/sw/lv_draw_sw_rect.c **** #if LV_DRAW_COMPLEX
  70:lvgl/src/draw/sw/lv_draw_sw_rect.c ****     draw_shadow(draw_ctx, dsc, coords);
  71:lvgl/src/draw/sw/lv_draw_sw_rect.c **** #endif
  72:lvgl/src/draw/sw/lv_draw_sw_rect.c **** 
  73:lvgl/src/draw/sw/lv_draw_sw_rect.c ****     draw_bg(draw_ctx, dsc, coords);
  74:lvgl/src/draw/sw/lv_draw_sw_rect.c ****     draw_bg_img(draw_ctx, dsc, coords);
  75:lvgl/src/draw/sw/lv_draw_sw_rect.c **** 
  76:lvgl/src/draw/sw/lv_draw_sw_rect.c ****     draw_border(draw_ctx, dsc, coords);
  77:lvgl/src/draw/sw/lv_draw_sw_rect.c **** 
  78:lvgl/src/draw/sw/lv_draw_sw_rect.c ****     draw_outline(draw_ctx, dsc, coords);
  79:lvgl/src/draw/sw/lv_draw_sw_rect.c **** 
  80:lvgl/src/draw/sw/lv_draw_sw_rect.c ****     LV_ASSERT_MEM_INTEGRITY();
  81:lvgl/src/draw/sw/lv_draw_sw_rect.c **** }
  82:lvgl/src/draw/sw/lv_draw_sw_rect.c **** 
  83:lvgl/src/draw/sw/lv_draw_sw_rect.c **** void lv_draw_sw_bg(lv_draw_ctx_t * draw_ctx, const lv_draw_rect_dsc_t * dsc, const lv_area_t * coor
  84:lvgl/src/draw/sw/lv_draw_sw_rect.c **** {
  85:lvgl/src/draw/sw/lv_draw_sw_rect.c **** #if LV_COLOR_SCREEN_TRANSP && LV_COLOR_DEPTH == 32
  86:lvgl/src/draw/sw/lv_draw_sw_rect.c ****     lv_memset_00(draw_ctx->buf, lv_area_get_size(draw_ctx->buf_area) * sizeof(lv_color_t));
  87:lvgl/src/draw/sw/lv_draw_sw_rect.c **** #endif
ARM GAS  /var/folders/21/t9g5rlb91ys800n5npymflf80000gn/T//cca4dfU0.s 			page 3


  88:lvgl/src/draw/sw/lv_draw_sw_rect.c **** 
  89:lvgl/src/draw/sw/lv_draw_sw_rect.c ****     draw_bg(draw_ctx, dsc, coords);
  90:lvgl/src/draw/sw/lv_draw_sw_rect.c ****     draw_bg_img(draw_ctx, dsc, coords);
  91:lvgl/src/draw/sw/lv_draw_sw_rect.c **** }
  92:lvgl/src/draw/sw/lv_draw_sw_rect.c **** 
  93:lvgl/src/draw/sw/lv_draw_sw_rect.c **** /**********************
  94:lvgl/src/draw/sw/lv_draw_sw_rect.c ****  *   STATIC FUNCTIONS
  95:lvgl/src/draw/sw/lv_draw_sw_rect.c ****  **********************/
  96:lvgl/src/draw/sw/lv_draw_sw_rect.c **** 
  97:lvgl/src/draw/sw/lv_draw_sw_rect.c **** static void draw_bg(lv_draw_ctx_t * draw_ctx, const lv_draw_rect_dsc_t * dsc, const lv_area_t * coo
  98:lvgl/src/draw/sw/lv_draw_sw_rect.c **** {
  99:lvgl/src/draw/sw/lv_draw_sw_rect.c ****     if(dsc->bg_opa <= LV_OPA_MIN) return;
 100:lvgl/src/draw/sw/lv_draw_sw_rect.c **** 
 101:lvgl/src/draw/sw/lv_draw_sw_rect.c ****     lv_area_t bg_coords;
 102:lvgl/src/draw/sw/lv_draw_sw_rect.c ****     lv_area_copy(&bg_coords, coords);
 103:lvgl/src/draw/sw/lv_draw_sw_rect.c **** 
 104:lvgl/src/draw/sw/lv_draw_sw_rect.c ****     /*If the border fully covers make the bg area 1px smaller to avoid artifacts on the corners*/
 105:lvgl/src/draw/sw/lv_draw_sw_rect.c ****     if(dsc->border_width > 1 && dsc->border_opa >= LV_OPA_MAX && dsc->radius != 0) {
 106:lvgl/src/draw/sw/lv_draw_sw_rect.c ****         bg_coords.x1 += (dsc->border_side & LV_BORDER_SIDE_LEFT) ? 1 : 0;
 107:lvgl/src/draw/sw/lv_draw_sw_rect.c ****         bg_coords.y1 += (dsc->border_side & LV_BORDER_SIDE_TOP) ? 1 : 0;
 108:lvgl/src/draw/sw/lv_draw_sw_rect.c ****         bg_coords.x2 -= (dsc->border_side & LV_BORDER_SIDE_RIGHT) ? 1 : 0;
 109:lvgl/src/draw/sw/lv_draw_sw_rect.c ****         bg_coords.y2 -= (dsc->border_side & LV_BORDER_SIDE_BOTTOM) ? 1 : 0;
 110:lvgl/src/draw/sw/lv_draw_sw_rect.c ****     }
 111:lvgl/src/draw/sw/lv_draw_sw_rect.c **** 
 112:lvgl/src/draw/sw/lv_draw_sw_rect.c ****     lv_area_t clipped_coords;
 113:lvgl/src/draw/sw/lv_draw_sw_rect.c ****     if(!_lv_area_intersect(&clipped_coords, &bg_coords, draw_ctx->clip_area)) return;
 114:lvgl/src/draw/sw/lv_draw_sw_rect.c **** 
 115:lvgl/src/draw/sw/lv_draw_sw_rect.c ****     lv_grad_dir_t grad_dir = dsc->bg_grad.dir;
 116:lvgl/src/draw/sw/lv_draw_sw_rect.c ****     lv_color_t bg_color    = grad_dir == LV_GRAD_DIR_NONE ? dsc->bg_color : dsc->bg_grad.stops[0].c
 117:lvgl/src/draw/sw/lv_draw_sw_rect.c ****     if(bg_color.full == dsc->bg_grad.stops[1].color.full) grad_dir = LV_GRAD_DIR_NONE;
 118:lvgl/src/draw/sw/lv_draw_sw_rect.c **** 
 119:lvgl/src/draw/sw/lv_draw_sw_rect.c ****     bool mask_any = lv_draw_mask_is_any(&bg_coords);
 120:lvgl/src/draw/sw/lv_draw_sw_rect.c ****     lv_draw_sw_blend_dsc_t blend_dsc = {0};
 121:lvgl/src/draw/sw/lv_draw_sw_rect.c ****     blend_dsc.blend_mode = dsc->blend_mode;
 122:lvgl/src/draw/sw/lv_draw_sw_rect.c ****     blend_dsc.color = bg_color;
 123:lvgl/src/draw/sw/lv_draw_sw_rect.c **** 
 124:lvgl/src/draw/sw/lv_draw_sw_rect.c ****     /*Most simple case: just a plain rectangle*/
 125:lvgl/src/draw/sw/lv_draw_sw_rect.c ****     if(!mask_any && dsc->radius == 0 && (grad_dir == LV_GRAD_DIR_NONE)) {
 126:lvgl/src/draw/sw/lv_draw_sw_rect.c ****         blend_dsc.blend_area = &bg_coords;
 127:lvgl/src/draw/sw/lv_draw_sw_rect.c ****         blend_dsc.opa = dsc->bg_opa;
 128:lvgl/src/draw/sw/lv_draw_sw_rect.c ****         lv_draw_sw_blend(draw_ctx, &blend_dsc);
 129:lvgl/src/draw/sw/lv_draw_sw_rect.c ****         return;
 130:lvgl/src/draw/sw/lv_draw_sw_rect.c ****     }
 131:lvgl/src/draw/sw/lv_draw_sw_rect.c **** 
 132:lvgl/src/draw/sw/lv_draw_sw_rect.c ****     /*Complex case: there is gradient, mask, or radius*/
 133:lvgl/src/draw/sw/lv_draw_sw_rect.c **** #if LV_DRAW_COMPLEX == 0
 134:lvgl/src/draw/sw/lv_draw_sw_rect.c ****     LV_LOG_WARN("Can't draw complex rectangle because LV_DRAW_COMPLEX = 0");
 135:lvgl/src/draw/sw/lv_draw_sw_rect.c **** #else
 136:lvgl/src/draw/sw/lv_draw_sw_rect.c ****     lv_opa_t opa = dsc->bg_opa >= LV_OPA_MAX ? LV_OPA_COVER : dsc->bg_opa;
 137:lvgl/src/draw/sw/lv_draw_sw_rect.c **** 
 138:lvgl/src/draw/sw/lv_draw_sw_rect.c ****     /*Get the real radius. Can't be larger than the half of the shortest side */
 139:lvgl/src/draw/sw/lv_draw_sw_rect.c ****     lv_coord_t coords_bg_w = lv_area_get_width(&bg_coords);
 140:lvgl/src/draw/sw/lv_draw_sw_rect.c ****     lv_coord_t coords_bg_h = lv_area_get_height(&bg_coords);
 141:lvgl/src/draw/sw/lv_draw_sw_rect.c ****     int32_t short_side = LV_MIN(coords_bg_w, coords_bg_h);
 142:lvgl/src/draw/sw/lv_draw_sw_rect.c ****     int32_t rout = LV_MIN(dsc->radius, short_side >> 1);
 143:lvgl/src/draw/sw/lv_draw_sw_rect.c **** 
 144:lvgl/src/draw/sw/lv_draw_sw_rect.c ****     /*Add a radius mask if there is radius*/
ARM GAS  /var/folders/21/t9g5rlb91ys800n5npymflf80000gn/T//cca4dfU0.s 			page 4


 145:lvgl/src/draw/sw/lv_draw_sw_rect.c ****     int32_t clipped_w = lv_area_get_width(&clipped_coords);
 146:lvgl/src/draw/sw/lv_draw_sw_rect.c ****     int16_t mask_rout_id = LV_MASK_ID_INV;
 147:lvgl/src/draw/sw/lv_draw_sw_rect.c ****     lv_opa_t * mask_buf = NULL;
 148:lvgl/src/draw/sw/lv_draw_sw_rect.c ****     lv_draw_mask_radius_param_t mask_rout_param;
 149:lvgl/src/draw/sw/lv_draw_sw_rect.c ****     if(rout > 0 || mask_any) {
 150:lvgl/src/draw/sw/lv_draw_sw_rect.c ****         mask_buf = lv_mem_buf_get(clipped_w);
 151:lvgl/src/draw/sw/lv_draw_sw_rect.c ****         lv_draw_mask_radius_init(&mask_rout_param, &bg_coords, rout, false);
 152:lvgl/src/draw/sw/lv_draw_sw_rect.c ****         mask_rout_id = lv_draw_mask_add(&mask_rout_param, NULL);
 153:lvgl/src/draw/sw/lv_draw_sw_rect.c ****     }
 154:lvgl/src/draw/sw/lv_draw_sw_rect.c **** 
 155:lvgl/src/draw/sw/lv_draw_sw_rect.c ****     int32_t h;
 156:lvgl/src/draw/sw/lv_draw_sw_rect.c **** 
 157:lvgl/src/draw/sw/lv_draw_sw_rect.c ****     lv_area_t blend_area;
 158:lvgl/src/draw/sw/lv_draw_sw_rect.c ****     blend_area.x1 = clipped_coords.x1;
 159:lvgl/src/draw/sw/lv_draw_sw_rect.c ****     blend_area.x2 = clipped_coords.x2;
 160:lvgl/src/draw/sw/lv_draw_sw_rect.c **** 
 161:lvgl/src/draw/sw/lv_draw_sw_rect.c ****     blend_dsc.mask_buf = mask_buf;
 162:lvgl/src/draw/sw/lv_draw_sw_rect.c ****     blend_dsc.blend_area = &blend_area;
 163:lvgl/src/draw/sw/lv_draw_sw_rect.c ****     blend_dsc.mask_area = &blend_area;
 164:lvgl/src/draw/sw/lv_draw_sw_rect.c ****     blend_dsc.opa = LV_OPA_COVER;
 165:lvgl/src/draw/sw/lv_draw_sw_rect.c **** 
 166:lvgl/src/draw/sw/lv_draw_sw_rect.c ****     /*Get gradient if appropriate*/
 167:lvgl/src/draw/sw/lv_draw_sw_rect.c ****     lv_grad_t * grad = lv_gradient_get(&dsc->bg_grad, coords_bg_w, coords_bg_h);
 168:lvgl/src/draw/sw/lv_draw_sw_rect.c ****     if(grad && grad_dir == LV_GRAD_DIR_HOR) {
 169:lvgl/src/draw/sw/lv_draw_sw_rect.c ****         blend_dsc.src_buf = grad->map + clipped_coords.x1 - bg_coords.x1;
 170:lvgl/src/draw/sw/lv_draw_sw_rect.c ****     }
 171:lvgl/src/draw/sw/lv_draw_sw_rect.c **** 
 172:lvgl/src/draw/sw/lv_draw_sw_rect.c **** #if _DITHER_GRADIENT
 173:lvgl/src/draw/sw/lv_draw_sw_rect.c ****     lv_dither_mode_t dither_mode = dsc->bg_grad.dither;
 174:lvgl/src/draw/sw/lv_draw_sw_rect.c ****     lv_dither_func_t dither_func = &lv_dither_none;
 175:lvgl/src/draw/sw/lv_draw_sw_rect.c ****     lv_coord_t grad_size = coords_bg_w;
 176:lvgl/src/draw/sw/lv_draw_sw_rect.c ****     if(grad_dir == LV_GRAD_DIR_VER && dither_mode != LV_DITHER_NONE) {
 177:lvgl/src/draw/sw/lv_draw_sw_rect.c ****         /* When dithering, we are still using a map that's changing from line to line*/
 178:lvgl/src/draw/sw/lv_draw_sw_rect.c ****         blend_dsc.src_buf = grad->map;
 179:lvgl/src/draw/sw/lv_draw_sw_rect.c ****     }
 180:lvgl/src/draw/sw/lv_draw_sw_rect.c **** 
 181:lvgl/src/draw/sw/lv_draw_sw_rect.c ****     if(grad && dither_mode == LV_DITHER_NONE) {
 182:lvgl/src/draw/sw/lv_draw_sw_rect.c ****         grad->filled = 0; /*Should we force refilling it each draw call ?*/
 183:lvgl/src/draw/sw/lv_draw_sw_rect.c ****         if(grad_dir == LV_GRAD_DIR_VER)
 184:lvgl/src/draw/sw/lv_draw_sw_rect.c ****             grad_size = coords_bg_h;
 185:lvgl/src/draw/sw/lv_draw_sw_rect.c ****     }
 186:lvgl/src/draw/sw/lv_draw_sw_rect.c ****     else
 187:lvgl/src/draw/sw/lv_draw_sw_rect.c **** #if LV_DITHER_ERROR_DIFFUSION
 188:lvgl/src/draw/sw/lv_draw_sw_rect.c ****         if(dither_mode == LV_DITHER_ORDERED)
 189:lvgl/src/draw/sw/lv_draw_sw_rect.c **** #endif
 190:lvgl/src/draw/sw/lv_draw_sw_rect.c ****             switch(grad_dir) {
 191:lvgl/src/draw/sw/lv_draw_sw_rect.c ****                 case LV_GRAD_DIR_HOR:
 192:lvgl/src/draw/sw/lv_draw_sw_rect.c ****                     dither_func = lv_dither_ordered_hor;
 193:lvgl/src/draw/sw/lv_draw_sw_rect.c ****                     break;
 194:lvgl/src/draw/sw/lv_draw_sw_rect.c ****                 case LV_GRAD_DIR_VER:
 195:lvgl/src/draw/sw/lv_draw_sw_rect.c ****                     dither_func = lv_dither_ordered_ver;
 196:lvgl/src/draw/sw/lv_draw_sw_rect.c ****                     break;
 197:lvgl/src/draw/sw/lv_draw_sw_rect.c ****                 default:
 198:lvgl/src/draw/sw/lv_draw_sw_rect.c ****                     dither_func = NULL;
 199:lvgl/src/draw/sw/lv_draw_sw_rect.c ****             }
 200:lvgl/src/draw/sw/lv_draw_sw_rect.c **** 
 201:lvgl/src/draw/sw/lv_draw_sw_rect.c **** #if LV_DITHER_ERROR_DIFFUSION
ARM GAS  /var/folders/21/t9g5rlb91ys800n5npymflf80000gn/T//cca4dfU0.s 			page 5


 202:lvgl/src/draw/sw/lv_draw_sw_rect.c ****         else if(dither_mode == LV_DITHER_ERR_DIFF)
 203:lvgl/src/draw/sw/lv_draw_sw_rect.c ****             switch(grad_dir) {
 204:lvgl/src/draw/sw/lv_draw_sw_rect.c ****                 case LV_GRAD_DIR_HOR:
 205:lvgl/src/draw/sw/lv_draw_sw_rect.c ****                     dither_func = lv_dither_err_diff_hor;
 206:lvgl/src/draw/sw/lv_draw_sw_rect.c ****                     break;
 207:lvgl/src/draw/sw/lv_draw_sw_rect.c ****                 case LV_GRAD_DIR_VER:
 208:lvgl/src/draw/sw/lv_draw_sw_rect.c ****                     dither_func = lv_dither_err_diff_ver;
 209:lvgl/src/draw/sw/lv_draw_sw_rect.c ****                     break;
 210:lvgl/src/draw/sw/lv_draw_sw_rect.c ****                 default:
 211:lvgl/src/draw/sw/lv_draw_sw_rect.c ****                     dither_func = NULL;
 212:lvgl/src/draw/sw/lv_draw_sw_rect.c ****             }
 213:lvgl/src/draw/sw/lv_draw_sw_rect.c **** #endif
 214:lvgl/src/draw/sw/lv_draw_sw_rect.c **** #endif
 215:lvgl/src/draw/sw/lv_draw_sw_rect.c **** 
 216:lvgl/src/draw/sw/lv_draw_sw_rect.c ****     /*There is another mask too. Draw line by line. */
 217:lvgl/src/draw/sw/lv_draw_sw_rect.c ****     if(mask_any) {
 218:lvgl/src/draw/sw/lv_draw_sw_rect.c ****         for(h = clipped_coords.y1; h <= clipped_coords.y2; h++) {
 219:lvgl/src/draw/sw/lv_draw_sw_rect.c ****             blend_area.y1 = h;
 220:lvgl/src/draw/sw/lv_draw_sw_rect.c ****             blend_area.y2 = h;
 221:lvgl/src/draw/sw/lv_draw_sw_rect.c **** 
 222:lvgl/src/draw/sw/lv_draw_sw_rect.c ****             /* Initialize the mask to opa instead of 0xFF and blend with LV_OPA_COVER.
 223:lvgl/src/draw/sw/lv_draw_sw_rect.c ****              * It saves calculating the final opa in lv_draw_sw_blend*/
 224:lvgl/src/draw/sw/lv_draw_sw_rect.c ****             lv_memset(mask_buf, opa, clipped_w);
 225:lvgl/src/draw/sw/lv_draw_sw_rect.c ****             blend_dsc.mask_res = lv_draw_mask_apply(mask_buf, clipped_coords.x1, h, clipped_w);
 226:lvgl/src/draw/sw/lv_draw_sw_rect.c ****             if(blend_dsc.mask_res == LV_DRAW_MASK_RES_FULL_COVER) blend_dsc.mask_res = LV_DRAW_MASK
 227:lvgl/src/draw/sw/lv_draw_sw_rect.c **** 
 228:lvgl/src/draw/sw/lv_draw_sw_rect.c **** #if _DITHER_GRADIENT
 229:lvgl/src/draw/sw/lv_draw_sw_rect.c ****             if(dither_func) dither_func(grad, blend_area.x1,  h - bg_coords.y1, grad_size);
 230:lvgl/src/draw/sw/lv_draw_sw_rect.c **** #endif
 231:lvgl/src/draw/sw/lv_draw_sw_rect.c ****             if(grad_dir == LV_GRAD_DIR_VER) blend_dsc.color = grad->map[h - bg_coords.y1];
 232:lvgl/src/draw/sw/lv_draw_sw_rect.c ****             lv_draw_sw_blend(draw_ctx, &blend_dsc);
 233:lvgl/src/draw/sw/lv_draw_sw_rect.c ****         }
 234:lvgl/src/draw/sw/lv_draw_sw_rect.c ****         goto bg_clean_up;
 235:lvgl/src/draw/sw/lv_draw_sw_rect.c ****     }
 236:lvgl/src/draw/sw/lv_draw_sw_rect.c **** 
 237:lvgl/src/draw/sw/lv_draw_sw_rect.c ****     /* Draw the top of the rectangle line by line and mirror it to the bottom. */
 238:lvgl/src/draw/sw/lv_draw_sw_rect.c ****     for(h = 0; h < rout; h++) {
 239:lvgl/src/draw/sw/lv_draw_sw_rect.c ****         lv_coord_t top_y = bg_coords.y1 + h;
 240:lvgl/src/draw/sw/lv_draw_sw_rect.c ****         lv_coord_t bottom_y = bg_coords.y2 - h;
 241:lvgl/src/draw/sw/lv_draw_sw_rect.c ****         if(top_y < clipped_coords.y1 && bottom_y > clipped_coords.y2) continue;   /*This line is cl
 242:lvgl/src/draw/sw/lv_draw_sw_rect.c **** 
 243:lvgl/src/draw/sw/lv_draw_sw_rect.c ****         /* Initialize the mask to opa instead of 0xFF and blend with LV_OPA_COVER.
 244:lvgl/src/draw/sw/lv_draw_sw_rect.c ****          * It saves calculating the final opa in lv_draw_sw_blend*/
 245:lvgl/src/draw/sw/lv_draw_sw_rect.c ****         lv_memset(mask_buf, opa, clipped_w);
 246:lvgl/src/draw/sw/lv_draw_sw_rect.c ****         blend_dsc.mask_res = lv_draw_mask_apply(mask_buf, blend_area.x1, top_y, clipped_w);
 247:lvgl/src/draw/sw/lv_draw_sw_rect.c ****         if(blend_dsc.mask_res == LV_DRAW_MASK_RES_FULL_COVER) blend_dsc.mask_res = LV_DRAW_MASK_RES
 248:lvgl/src/draw/sw/lv_draw_sw_rect.c **** 
 249:lvgl/src/draw/sw/lv_draw_sw_rect.c ****         if(top_y >= clipped_coords.y1) {
 250:lvgl/src/draw/sw/lv_draw_sw_rect.c ****             blend_area.y1 = top_y;
 251:lvgl/src/draw/sw/lv_draw_sw_rect.c ****             blend_area.y2 = top_y;
 252:lvgl/src/draw/sw/lv_draw_sw_rect.c **** 
 253:lvgl/src/draw/sw/lv_draw_sw_rect.c **** #if _DITHER_GRADIENT
 254:lvgl/src/draw/sw/lv_draw_sw_rect.c ****             if(dither_func) dither_func(grad, blend_area.x1,  top_y - bg_coords.y1, grad_size);
 255:lvgl/src/draw/sw/lv_draw_sw_rect.c **** #endif
 256:lvgl/src/draw/sw/lv_draw_sw_rect.c ****             if(grad_dir == LV_GRAD_DIR_VER) blend_dsc.color = grad->map[top_y - bg_coords.y1];
 257:lvgl/src/draw/sw/lv_draw_sw_rect.c ****             lv_draw_sw_blend(draw_ctx, &blend_dsc);
 258:lvgl/src/draw/sw/lv_draw_sw_rect.c ****         }
ARM GAS  /var/folders/21/t9g5rlb91ys800n5npymflf80000gn/T//cca4dfU0.s 			page 6


 259:lvgl/src/draw/sw/lv_draw_sw_rect.c **** 
 260:lvgl/src/draw/sw/lv_draw_sw_rect.c ****         if(bottom_y <= clipped_coords.y2) {
 261:lvgl/src/draw/sw/lv_draw_sw_rect.c ****             blend_area.y1 = bottom_y;
 262:lvgl/src/draw/sw/lv_draw_sw_rect.c ****             blend_area.y2 = bottom_y;
 263:lvgl/src/draw/sw/lv_draw_sw_rect.c **** 
 264:lvgl/src/draw/sw/lv_draw_sw_rect.c **** #if _DITHER_GRADIENT
 265:lvgl/src/draw/sw/lv_draw_sw_rect.c ****             if(dither_func) dither_func(grad, blend_area.x1,  bottom_y - bg_coords.y1, grad_size);
 266:lvgl/src/draw/sw/lv_draw_sw_rect.c **** #endif
 267:lvgl/src/draw/sw/lv_draw_sw_rect.c ****             if(grad_dir == LV_GRAD_DIR_VER) blend_dsc.color = grad->map[bottom_y - bg_coords.y1];
 268:lvgl/src/draw/sw/lv_draw_sw_rect.c ****             lv_draw_sw_blend(draw_ctx, &blend_dsc);
 269:lvgl/src/draw/sw/lv_draw_sw_rect.c ****         }
 270:lvgl/src/draw/sw/lv_draw_sw_rect.c ****     }
 271:lvgl/src/draw/sw/lv_draw_sw_rect.c **** 
 272:lvgl/src/draw/sw/lv_draw_sw_rect.c ****     /* Draw the center of the rectangle.*/
 273:lvgl/src/draw/sw/lv_draw_sw_rect.c **** 
 274:lvgl/src/draw/sw/lv_draw_sw_rect.c ****     /*If no other masks and no gradient, the center is a simple rectangle*/
 275:lvgl/src/draw/sw/lv_draw_sw_rect.c ****     lv_area_t center_coords;
 276:lvgl/src/draw/sw/lv_draw_sw_rect.c ****     center_coords.x1 = bg_coords.x1;
 277:lvgl/src/draw/sw/lv_draw_sw_rect.c ****     center_coords.x2 = bg_coords.x2;
 278:lvgl/src/draw/sw/lv_draw_sw_rect.c ****     center_coords.y1 = bg_coords.y1 + rout;
 279:lvgl/src/draw/sw/lv_draw_sw_rect.c ****     center_coords.y2 = bg_coords.y2 - rout;
 280:lvgl/src/draw/sw/lv_draw_sw_rect.c ****     bool mask_any_center = lv_draw_mask_is_any(&center_coords);
 281:lvgl/src/draw/sw/lv_draw_sw_rect.c ****     if(!mask_any_center && grad_dir == LV_GRAD_DIR_NONE) {
 282:lvgl/src/draw/sw/lv_draw_sw_rect.c ****         blend_area.y1 = bg_coords.y1 + rout;
 283:lvgl/src/draw/sw/lv_draw_sw_rect.c ****         blend_area.y2 = bg_coords.y2 - rout;
 284:lvgl/src/draw/sw/lv_draw_sw_rect.c ****         blend_dsc.opa = opa;
 285:lvgl/src/draw/sw/lv_draw_sw_rect.c ****         blend_dsc.mask_buf = NULL;
 286:lvgl/src/draw/sw/lv_draw_sw_rect.c ****         lv_draw_sw_blend(draw_ctx, &blend_dsc);
 287:lvgl/src/draw/sw/lv_draw_sw_rect.c ****     }
 288:lvgl/src/draw/sw/lv_draw_sw_rect.c ****     /*With gradient and/or mask draw line by line*/
 289:lvgl/src/draw/sw/lv_draw_sw_rect.c ****     else {
 290:lvgl/src/draw/sw/lv_draw_sw_rect.c ****         blend_dsc.opa = opa;
 291:lvgl/src/draw/sw/lv_draw_sw_rect.c ****         blend_dsc.mask_res = LV_DRAW_MASK_RES_FULL_COVER;
 292:lvgl/src/draw/sw/lv_draw_sw_rect.c ****         int32_t h_end = bg_coords.y2 - rout;
 293:lvgl/src/draw/sw/lv_draw_sw_rect.c ****         for(h = bg_coords.y1 + rout; h <= h_end; h++) {
 294:lvgl/src/draw/sw/lv_draw_sw_rect.c ****             /*If there is no other mask do not apply mask as in the center there is no radius to ma
 295:lvgl/src/draw/sw/lv_draw_sw_rect.c ****             if(mask_any_center) {
 296:lvgl/src/draw/sw/lv_draw_sw_rect.c ****                 lv_memset(mask_buf, opa, clipped_w);
 297:lvgl/src/draw/sw/lv_draw_sw_rect.c ****                 blend_dsc.mask_res = lv_draw_mask_apply(mask_buf, clipped_coords.x1, h, clipped_w);
 298:lvgl/src/draw/sw/lv_draw_sw_rect.c ****             }
 299:lvgl/src/draw/sw/lv_draw_sw_rect.c **** 
 300:lvgl/src/draw/sw/lv_draw_sw_rect.c ****             blend_area.y1 = h;
 301:lvgl/src/draw/sw/lv_draw_sw_rect.c ****             blend_area.y2 = h;
 302:lvgl/src/draw/sw/lv_draw_sw_rect.c **** 
 303:lvgl/src/draw/sw/lv_draw_sw_rect.c **** #if _DITHER_GRADIENT
 304:lvgl/src/draw/sw/lv_draw_sw_rect.c ****             if(dither_func) dither_func(grad, blend_area.x1,  h - bg_coords.y1, grad_size);
 305:lvgl/src/draw/sw/lv_draw_sw_rect.c **** #endif
 306:lvgl/src/draw/sw/lv_draw_sw_rect.c ****             if(grad_dir == LV_GRAD_DIR_VER) blend_dsc.color = grad->map[h - bg_coords.y1];
 307:lvgl/src/draw/sw/lv_draw_sw_rect.c ****             lv_draw_sw_blend(draw_ctx, &blend_dsc);
 308:lvgl/src/draw/sw/lv_draw_sw_rect.c ****         }
 309:lvgl/src/draw/sw/lv_draw_sw_rect.c ****     }
 310:lvgl/src/draw/sw/lv_draw_sw_rect.c **** 
 311:lvgl/src/draw/sw/lv_draw_sw_rect.c **** bg_clean_up:
 312:lvgl/src/draw/sw/lv_draw_sw_rect.c ****     if(mask_buf) lv_mem_buf_release(mask_buf);
 313:lvgl/src/draw/sw/lv_draw_sw_rect.c ****     if(mask_rout_id != LV_MASK_ID_INV) {
 314:lvgl/src/draw/sw/lv_draw_sw_rect.c ****         lv_draw_mask_remove_id(mask_rout_id);
 315:lvgl/src/draw/sw/lv_draw_sw_rect.c ****         lv_draw_mask_free_param(&mask_rout_param);
ARM GAS  /var/folders/21/t9g5rlb91ys800n5npymflf80000gn/T//cca4dfU0.s 			page 7


 316:lvgl/src/draw/sw/lv_draw_sw_rect.c ****     }
 317:lvgl/src/draw/sw/lv_draw_sw_rect.c ****     if(grad) {
 318:lvgl/src/draw/sw/lv_draw_sw_rect.c ****         lv_gradient_cleanup(grad);
 319:lvgl/src/draw/sw/lv_draw_sw_rect.c ****     }
 320:lvgl/src/draw/sw/lv_draw_sw_rect.c **** 
 321:lvgl/src/draw/sw/lv_draw_sw_rect.c **** #endif
 322:lvgl/src/draw/sw/lv_draw_sw_rect.c **** }
 323:lvgl/src/draw/sw/lv_draw_sw_rect.c **** 
 324:lvgl/src/draw/sw/lv_draw_sw_rect.c **** static void draw_bg_img(lv_draw_ctx_t * draw_ctx, const lv_draw_rect_dsc_t * dsc, const lv_area_t *
 325:lvgl/src/draw/sw/lv_draw_sw_rect.c **** {
 326:lvgl/src/draw/sw/lv_draw_sw_rect.c ****     if(dsc->bg_img_src == NULL) return;
 327:lvgl/src/draw/sw/lv_draw_sw_rect.c ****     if(dsc->bg_img_opa <= LV_OPA_MIN) return;
 328:lvgl/src/draw/sw/lv_draw_sw_rect.c **** 
 329:lvgl/src/draw/sw/lv_draw_sw_rect.c ****     lv_area_t clip_area;
 330:lvgl/src/draw/sw/lv_draw_sw_rect.c ****     if(!_lv_area_intersect(&clip_area, coords, draw_ctx->clip_area)) {
 331:lvgl/src/draw/sw/lv_draw_sw_rect.c ****         return;
 332:lvgl/src/draw/sw/lv_draw_sw_rect.c ****     }
 333:lvgl/src/draw/sw/lv_draw_sw_rect.c **** 
 334:lvgl/src/draw/sw/lv_draw_sw_rect.c ****     const lv_area_t * clip_area_ori = draw_ctx->clip_area;
 335:lvgl/src/draw/sw/lv_draw_sw_rect.c ****     draw_ctx->clip_area = &clip_area;
 336:lvgl/src/draw/sw/lv_draw_sw_rect.c **** 
 337:lvgl/src/draw/sw/lv_draw_sw_rect.c ****     lv_img_src_t src_type = lv_img_src_get_type(dsc->bg_img_src);
 338:lvgl/src/draw/sw/lv_draw_sw_rect.c ****     if(src_type == LV_IMG_SRC_SYMBOL) {
 339:lvgl/src/draw/sw/lv_draw_sw_rect.c ****         lv_point_t size;
 340:lvgl/src/draw/sw/lv_draw_sw_rect.c ****         lv_txt_get_size(&size, dsc->bg_img_src, dsc->bg_img_symbol_font, 0, 0, LV_COORD_MAX, LV_TEX
 341:lvgl/src/draw/sw/lv_draw_sw_rect.c ****         lv_area_t a;
 342:lvgl/src/draw/sw/lv_draw_sw_rect.c ****         a.x1 = coords->x1 + lv_area_get_width(coords) / 2 - size.x / 2;
 343:lvgl/src/draw/sw/lv_draw_sw_rect.c ****         a.x2 = a.x1 + size.x - 1;
 344:lvgl/src/draw/sw/lv_draw_sw_rect.c ****         a.y1 = coords->y1 + lv_area_get_height(coords) / 2 - size.y / 2;
 345:lvgl/src/draw/sw/lv_draw_sw_rect.c ****         a.y2 = a.y1 + size.y - 1;
 346:lvgl/src/draw/sw/lv_draw_sw_rect.c **** 
 347:lvgl/src/draw/sw/lv_draw_sw_rect.c ****         lv_draw_label_dsc_t label_draw_dsc;
 348:lvgl/src/draw/sw/lv_draw_sw_rect.c ****         lv_draw_label_dsc_init(&label_draw_dsc);
 349:lvgl/src/draw/sw/lv_draw_sw_rect.c ****         label_draw_dsc.font = dsc->bg_img_symbol_font;
 350:lvgl/src/draw/sw/lv_draw_sw_rect.c ****         label_draw_dsc.color = dsc->bg_img_recolor;
 351:lvgl/src/draw/sw/lv_draw_sw_rect.c ****         label_draw_dsc.opa = dsc->bg_img_opa;
 352:lvgl/src/draw/sw/lv_draw_sw_rect.c ****         lv_draw_label(draw_ctx, &label_draw_dsc, &a, dsc->bg_img_src, NULL);
 353:lvgl/src/draw/sw/lv_draw_sw_rect.c ****     }
 354:lvgl/src/draw/sw/lv_draw_sw_rect.c ****     else {
 355:lvgl/src/draw/sw/lv_draw_sw_rect.c ****         lv_img_header_t header;
 356:lvgl/src/draw/sw/lv_draw_sw_rect.c ****         lv_res_t res = lv_img_decoder_get_info(dsc->bg_img_src, &header);
 357:lvgl/src/draw/sw/lv_draw_sw_rect.c ****         if(res == LV_RES_OK) {
 358:lvgl/src/draw/sw/lv_draw_sw_rect.c ****             lv_draw_img_dsc_t img_dsc;
 359:lvgl/src/draw/sw/lv_draw_sw_rect.c ****             lv_draw_img_dsc_init(&img_dsc);
 360:lvgl/src/draw/sw/lv_draw_sw_rect.c ****             img_dsc.blend_mode = dsc->blend_mode;
 361:lvgl/src/draw/sw/lv_draw_sw_rect.c ****             img_dsc.recolor = dsc->bg_img_recolor;
 362:lvgl/src/draw/sw/lv_draw_sw_rect.c ****             img_dsc.recolor_opa = dsc->bg_img_recolor_opa;
 363:lvgl/src/draw/sw/lv_draw_sw_rect.c ****             img_dsc.opa = dsc->bg_img_opa;
 364:lvgl/src/draw/sw/lv_draw_sw_rect.c **** 
 365:lvgl/src/draw/sw/lv_draw_sw_rect.c ****             /*Center align*/
 366:lvgl/src/draw/sw/lv_draw_sw_rect.c ****             if(dsc->bg_img_tiled == false) {
 367:lvgl/src/draw/sw/lv_draw_sw_rect.c ****                 lv_area_t area;
 368:lvgl/src/draw/sw/lv_draw_sw_rect.c ****                 area.x1 = coords->x1 + lv_area_get_width(coords) / 2 - header.w / 2;
 369:lvgl/src/draw/sw/lv_draw_sw_rect.c ****                 area.y1 = coords->y1 + lv_area_get_height(coords) / 2 - header.h / 2;
 370:lvgl/src/draw/sw/lv_draw_sw_rect.c ****                 area.x2 = area.x1 + header.w - 1;
 371:lvgl/src/draw/sw/lv_draw_sw_rect.c ****                 area.y2 = area.y1 + header.h - 1;
 372:lvgl/src/draw/sw/lv_draw_sw_rect.c **** 
ARM GAS  /var/folders/21/t9g5rlb91ys800n5npymflf80000gn/T//cca4dfU0.s 			page 8


 373:lvgl/src/draw/sw/lv_draw_sw_rect.c ****                 lv_draw_img(draw_ctx, &img_dsc, &area, dsc->bg_img_src);
 374:lvgl/src/draw/sw/lv_draw_sw_rect.c ****             }
 375:lvgl/src/draw/sw/lv_draw_sw_rect.c ****             else {
 376:lvgl/src/draw/sw/lv_draw_sw_rect.c ****                 lv_area_t area;
 377:lvgl/src/draw/sw/lv_draw_sw_rect.c ****                 area.y1 = coords->y1;
 378:lvgl/src/draw/sw/lv_draw_sw_rect.c ****                 area.y2 = area.y1 + header.h - 1;
 379:lvgl/src/draw/sw/lv_draw_sw_rect.c **** 
 380:lvgl/src/draw/sw/lv_draw_sw_rect.c ****                 for(; area.y1 <= coords->y2; area.y1 += header.h, area.y2 += header.h) {
 381:lvgl/src/draw/sw/lv_draw_sw_rect.c **** 
 382:lvgl/src/draw/sw/lv_draw_sw_rect.c ****                     area.x1 = coords->x1;
 383:lvgl/src/draw/sw/lv_draw_sw_rect.c ****                     area.x2 = area.x1 + header.w - 1;
 384:lvgl/src/draw/sw/lv_draw_sw_rect.c ****                     for(; area.x1 <= coords->x2; area.x1 += header.w, area.x2 += header.w) {
 385:lvgl/src/draw/sw/lv_draw_sw_rect.c ****                         lv_draw_img(draw_ctx, &img_dsc, &area, dsc->bg_img_src);
 386:lvgl/src/draw/sw/lv_draw_sw_rect.c ****                     }
 387:lvgl/src/draw/sw/lv_draw_sw_rect.c ****                 }
 388:lvgl/src/draw/sw/lv_draw_sw_rect.c ****             }
 389:lvgl/src/draw/sw/lv_draw_sw_rect.c ****         }
 390:lvgl/src/draw/sw/lv_draw_sw_rect.c ****         else {
 391:lvgl/src/draw/sw/lv_draw_sw_rect.c ****             LV_LOG_WARN("Couldn't read the background image");
 392:lvgl/src/draw/sw/lv_draw_sw_rect.c ****         }
 393:lvgl/src/draw/sw/lv_draw_sw_rect.c ****     }
 394:lvgl/src/draw/sw/lv_draw_sw_rect.c **** 
 395:lvgl/src/draw/sw/lv_draw_sw_rect.c ****     draw_ctx->clip_area = clip_area_ori;
 396:lvgl/src/draw/sw/lv_draw_sw_rect.c **** }
 397:lvgl/src/draw/sw/lv_draw_sw_rect.c **** 
 398:lvgl/src/draw/sw/lv_draw_sw_rect.c **** static void draw_border(lv_draw_ctx_t * draw_ctx, const lv_draw_rect_dsc_t * dsc, const lv_area_t *
 399:lvgl/src/draw/sw/lv_draw_sw_rect.c **** {
 400:lvgl/src/draw/sw/lv_draw_sw_rect.c ****     if(dsc->border_opa <= LV_OPA_MIN) return;
 401:lvgl/src/draw/sw/lv_draw_sw_rect.c ****     if(dsc->border_width == 0) return;
 402:lvgl/src/draw/sw/lv_draw_sw_rect.c ****     if(dsc->border_side == LV_BORDER_SIDE_NONE) return;
 403:lvgl/src/draw/sw/lv_draw_sw_rect.c ****     if(dsc->border_post) return;
 404:lvgl/src/draw/sw/lv_draw_sw_rect.c **** 
 405:lvgl/src/draw/sw/lv_draw_sw_rect.c ****     int32_t coords_w = lv_area_get_width(coords);
 406:lvgl/src/draw/sw/lv_draw_sw_rect.c ****     int32_t coords_h = lv_area_get_height(coords);
 407:lvgl/src/draw/sw/lv_draw_sw_rect.c ****     int32_t rout = dsc->radius;
 408:lvgl/src/draw/sw/lv_draw_sw_rect.c ****     int32_t short_side = LV_MIN(coords_w, coords_h);
 409:lvgl/src/draw/sw/lv_draw_sw_rect.c ****     if(rout > short_side >> 1) rout = short_side >> 1;
 410:lvgl/src/draw/sw/lv_draw_sw_rect.c **** 
 411:lvgl/src/draw/sw/lv_draw_sw_rect.c ****     /*Get the inner area*/
 412:lvgl/src/draw/sw/lv_draw_sw_rect.c ****     lv_area_t area_inner;
 413:lvgl/src/draw/sw/lv_draw_sw_rect.c ****     lv_area_copy(&area_inner, coords);
 414:lvgl/src/draw/sw/lv_draw_sw_rect.c ****     area_inner.x1 += ((dsc->border_side & LV_BORDER_SIDE_LEFT) ? dsc->border_width : - (dsc->border
 415:lvgl/src/draw/sw/lv_draw_sw_rect.c ****     area_inner.x2 -= ((dsc->border_side & LV_BORDER_SIDE_RIGHT) ? dsc->border_width : - (dsc->borde
 416:lvgl/src/draw/sw/lv_draw_sw_rect.c ****     area_inner.y1 += ((dsc->border_side & LV_BORDER_SIDE_TOP) ? dsc->border_width : - (dsc->border_
 417:lvgl/src/draw/sw/lv_draw_sw_rect.c ****     area_inner.y2 -= ((dsc->border_side & LV_BORDER_SIDE_BOTTOM) ? dsc->border_width : - (dsc->bord
 418:lvgl/src/draw/sw/lv_draw_sw_rect.c **** 
 419:lvgl/src/draw/sw/lv_draw_sw_rect.c ****     lv_coord_t rin = rout - dsc->border_width;
 420:lvgl/src/draw/sw/lv_draw_sw_rect.c ****     if(rin < 0) rin = 0;
 421:lvgl/src/draw/sw/lv_draw_sw_rect.c **** 
 422:lvgl/src/draw/sw/lv_draw_sw_rect.c ****     draw_border_generic(draw_ctx, coords, &area_inner, rout, rin, dsc->border_color, dsc->border_op
 423:lvgl/src/draw/sw/lv_draw_sw_rect.c **** 
 424:lvgl/src/draw/sw/lv_draw_sw_rect.c **** }
 425:lvgl/src/draw/sw/lv_draw_sw_rect.c **** 
 426:lvgl/src/draw/sw/lv_draw_sw_rect.c **** #if LV_DRAW_COMPLEX
 427:lvgl/src/draw/sw/lv_draw_sw_rect.c **** static void LV_ATTRIBUTE_FAST_MEM draw_shadow(lv_draw_ctx_t * draw_ctx, const lv_draw_rect_dsc_t * 
 428:lvgl/src/draw/sw/lv_draw_sw_rect.c ****                                               const lv_area_t * coords)
 429:lvgl/src/draw/sw/lv_draw_sw_rect.c **** {
ARM GAS  /var/folders/21/t9g5rlb91ys800n5npymflf80000gn/T//cca4dfU0.s 			page 9


 430:lvgl/src/draw/sw/lv_draw_sw_rect.c ****     /*Check whether the shadow is visible*/
 431:lvgl/src/draw/sw/lv_draw_sw_rect.c ****     if(dsc->shadow_width == 0) return;
 432:lvgl/src/draw/sw/lv_draw_sw_rect.c ****     if(dsc->shadow_opa <= LV_OPA_MIN) return;
 433:lvgl/src/draw/sw/lv_draw_sw_rect.c **** 
 434:lvgl/src/draw/sw/lv_draw_sw_rect.c ****     if(dsc->shadow_width == 1 && dsc->shadow_spread <= 0 &&
 435:lvgl/src/draw/sw/lv_draw_sw_rect.c ****        dsc->shadow_ofs_x == 0 && dsc->shadow_ofs_y == 0) {
 436:lvgl/src/draw/sw/lv_draw_sw_rect.c ****         return;
 437:lvgl/src/draw/sw/lv_draw_sw_rect.c ****     }
 438:lvgl/src/draw/sw/lv_draw_sw_rect.c **** 
 439:lvgl/src/draw/sw/lv_draw_sw_rect.c ****     /*Calculate the rectangle which is blurred to get the shadow in `shadow_area`*/
 440:lvgl/src/draw/sw/lv_draw_sw_rect.c ****     lv_area_t core_area;
 441:lvgl/src/draw/sw/lv_draw_sw_rect.c ****     core_area.x1 = coords->x1  + dsc->shadow_ofs_x - dsc->shadow_spread;
 442:lvgl/src/draw/sw/lv_draw_sw_rect.c ****     core_area.x2 = coords->x2  + dsc->shadow_ofs_x + dsc->shadow_spread;
 443:lvgl/src/draw/sw/lv_draw_sw_rect.c ****     core_area.y1 = coords->y1  + dsc->shadow_ofs_y - dsc->shadow_spread;
 444:lvgl/src/draw/sw/lv_draw_sw_rect.c ****     core_area.y2 = coords->y2  + dsc->shadow_ofs_y + dsc->shadow_spread;
 445:lvgl/src/draw/sw/lv_draw_sw_rect.c **** 
 446:lvgl/src/draw/sw/lv_draw_sw_rect.c ****     /*Calculate the bounding box of the shadow*/
 447:lvgl/src/draw/sw/lv_draw_sw_rect.c ****     lv_area_t shadow_area;
 448:lvgl/src/draw/sw/lv_draw_sw_rect.c ****     shadow_area.x1 = core_area.x1 - dsc->shadow_width / 2 - 1;
 449:lvgl/src/draw/sw/lv_draw_sw_rect.c ****     shadow_area.x2 = core_area.x2 + dsc->shadow_width / 2 + 1;
 450:lvgl/src/draw/sw/lv_draw_sw_rect.c ****     shadow_area.y1 = core_area.y1 - dsc->shadow_width / 2 - 1;
 451:lvgl/src/draw/sw/lv_draw_sw_rect.c ****     shadow_area.y2 = core_area.y2 + dsc->shadow_width / 2 + 1;
 452:lvgl/src/draw/sw/lv_draw_sw_rect.c **** 
 453:lvgl/src/draw/sw/lv_draw_sw_rect.c ****     lv_opa_t opa = dsc->shadow_opa;
 454:lvgl/src/draw/sw/lv_draw_sw_rect.c ****     if(opa > LV_OPA_MAX) opa = LV_OPA_COVER;
 455:lvgl/src/draw/sw/lv_draw_sw_rect.c **** 
 456:lvgl/src/draw/sw/lv_draw_sw_rect.c ****     /*Get clipped draw area which is the real draw area.
 457:lvgl/src/draw/sw/lv_draw_sw_rect.c ****      *It is always the same or inside `shadow_area`*/
 458:lvgl/src/draw/sw/lv_draw_sw_rect.c ****     lv_area_t draw_area;
 459:lvgl/src/draw/sw/lv_draw_sw_rect.c ****     if(!_lv_area_intersect(&draw_area, &shadow_area, draw_ctx->clip_area)) return;
 460:lvgl/src/draw/sw/lv_draw_sw_rect.c **** 
 461:lvgl/src/draw/sw/lv_draw_sw_rect.c ****     /*Consider 1 px smaller bg to be sure the edge will be covered by the shadow*/
 462:lvgl/src/draw/sw/lv_draw_sw_rect.c ****     lv_area_t bg_area;
 463:lvgl/src/draw/sw/lv_draw_sw_rect.c ****     lv_area_copy(&bg_area, coords);
 464:lvgl/src/draw/sw/lv_draw_sw_rect.c ****     lv_area_increase(&bg_area, -1, -1);
 465:lvgl/src/draw/sw/lv_draw_sw_rect.c **** 
 466:lvgl/src/draw/sw/lv_draw_sw_rect.c ****     /*Get the clamped radius*/
 467:lvgl/src/draw/sw/lv_draw_sw_rect.c ****     int32_t r_bg = dsc->radius;
 468:lvgl/src/draw/sw/lv_draw_sw_rect.c ****     lv_coord_t short_side = LV_MIN(lv_area_get_width(&bg_area), lv_area_get_height(&bg_area));
 469:lvgl/src/draw/sw/lv_draw_sw_rect.c ****     if(r_bg > short_side >> 1) r_bg = short_side >> 1;
 470:lvgl/src/draw/sw/lv_draw_sw_rect.c **** 
 471:lvgl/src/draw/sw/lv_draw_sw_rect.c ****     /*Get the clamped radius*/
 472:lvgl/src/draw/sw/lv_draw_sw_rect.c ****     int32_t r_sh = dsc->radius;
 473:lvgl/src/draw/sw/lv_draw_sw_rect.c ****     short_side = LV_MIN(lv_area_get_width(&core_area), lv_area_get_height(&core_area));
 474:lvgl/src/draw/sw/lv_draw_sw_rect.c ****     if(r_sh > short_side >> 1) r_sh = short_side >> 1;
 475:lvgl/src/draw/sw/lv_draw_sw_rect.c **** 
 476:lvgl/src/draw/sw/lv_draw_sw_rect.c ****     /*Get how many pixels are affected by the blur on the corners*/
 477:lvgl/src/draw/sw/lv_draw_sw_rect.c ****     int32_t corner_size = dsc->shadow_width  + r_sh;
 478:lvgl/src/draw/sw/lv_draw_sw_rect.c **** 
 479:lvgl/src/draw/sw/lv_draw_sw_rect.c ****     lv_opa_t * sh_buf;
 480:lvgl/src/draw/sw/lv_draw_sw_rect.c **** 
 481:lvgl/src/draw/sw/lv_draw_sw_rect.c **** #if LV_SHADOW_CACHE_SIZE
 482:lvgl/src/draw/sw/lv_draw_sw_rect.c ****     if(sh_cache_size == corner_size && sh_cache_r == r_sh) {
 483:lvgl/src/draw/sw/lv_draw_sw_rect.c ****         /*Use the cache if available*/
 484:lvgl/src/draw/sw/lv_draw_sw_rect.c ****         sh_buf = lv_mem_buf_get(corner_size * corner_size);
 485:lvgl/src/draw/sw/lv_draw_sw_rect.c ****         lv_memcpy(sh_buf, sh_cache, corner_size * corner_size);
 486:lvgl/src/draw/sw/lv_draw_sw_rect.c ****     }
ARM GAS  /var/folders/21/t9g5rlb91ys800n5npymflf80000gn/T//cca4dfU0.s 			page 10


 487:lvgl/src/draw/sw/lv_draw_sw_rect.c ****     else {
 488:lvgl/src/draw/sw/lv_draw_sw_rect.c ****         /*A larger buffer is required for calculation*/
 489:lvgl/src/draw/sw/lv_draw_sw_rect.c ****         sh_buf = lv_mem_buf_get(corner_size * corner_size * sizeof(uint16_t));
 490:lvgl/src/draw/sw/lv_draw_sw_rect.c ****         shadow_draw_corner_buf(&core_area, (uint16_t *)sh_buf, dsc->shadow_width, r_sh);
 491:lvgl/src/draw/sw/lv_draw_sw_rect.c **** 
 492:lvgl/src/draw/sw/lv_draw_sw_rect.c ****         /*Cache the corner if it fits into the cache size*/
 493:lvgl/src/draw/sw/lv_draw_sw_rect.c ****         if((uint32_t)corner_size * corner_size < sizeof(sh_cache)) {
 494:lvgl/src/draw/sw/lv_draw_sw_rect.c ****             lv_memcpy(sh_cache, sh_buf, corner_size * corner_size);
 495:lvgl/src/draw/sw/lv_draw_sw_rect.c ****             sh_cache_size = corner_size;
 496:lvgl/src/draw/sw/lv_draw_sw_rect.c ****             sh_cache_r = r_sh;
 497:lvgl/src/draw/sw/lv_draw_sw_rect.c ****         }
 498:lvgl/src/draw/sw/lv_draw_sw_rect.c ****     }
 499:lvgl/src/draw/sw/lv_draw_sw_rect.c **** #else
 500:lvgl/src/draw/sw/lv_draw_sw_rect.c ****     sh_buf = lv_mem_buf_get(corner_size * corner_size * sizeof(uint16_t));
 501:lvgl/src/draw/sw/lv_draw_sw_rect.c ****     shadow_draw_corner_buf(&core_area, (uint16_t *)sh_buf, dsc->shadow_width, r_sh);
 502:lvgl/src/draw/sw/lv_draw_sw_rect.c **** #endif
 503:lvgl/src/draw/sw/lv_draw_sw_rect.c **** 
 504:lvgl/src/draw/sw/lv_draw_sw_rect.c ****     /*Skip a lot of masking if the background will cover the shadow that would be masked out*/
 505:lvgl/src/draw/sw/lv_draw_sw_rect.c ****     bool mask_any = lv_draw_mask_is_any(&shadow_area);
 506:lvgl/src/draw/sw/lv_draw_sw_rect.c ****     bool simple = true;
 507:lvgl/src/draw/sw/lv_draw_sw_rect.c ****     if(mask_any || dsc->bg_opa < LV_OPA_COVER || dsc->blend_mode != LV_BLEND_MODE_NORMAL) simple = 
 508:lvgl/src/draw/sw/lv_draw_sw_rect.c **** 
 509:lvgl/src/draw/sw/lv_draw_sw_rect.c ****     /*Create a radius mask to clip remove shadow on the bg area*/
 510:lvgl/src/draw/sw/lv_draw_sw_rect.c **** 
 511:lvgl/src/draw/sw/lv_draw_sw_rect.c ****     lv_draw_mask_radius_param_t mask_rout_param;
 512:lvgl/src/draw/sw/lv_draw_sw_rect.c ****     int16_t mask_rout_id = LV_MASK_ID_INV;
 513:lvgl/src/draw/sw/lv_draw_sw_rect.c ****     if(!simple) {
 514:lvgl/src/draw/sw/lv_draw_sw_rect.c ****         lv_draw_mask_radius_init(&mask_rout_param, &bg_area, r_bg, true);
 515:lvgl/src/draw/sw/lv_draw_sw_rect.c ****         mask_rout_id = lv_draw_mask_add(&mask_rout_param, NULL);
 516:lvgl/src/draw/sw/lv_draw_sw_rect.c ****     }
 517:lvgl/src/draw/sw/lv_draw_sw_rect.c ****     lv_opa_t * mask_buf = lv_mem_buf_get(lv_area_get_width(&shadow_area));
 518:lvgl/src/draw/sw/lv_draw_sw_rect.c ****     lv_area_t blend_area;
 519:lvgl/src/draw/sw/lv_draw_sw_rect.c ****     lv_area_t clip_area_sub;
 520:lvgl/src/draw/sw/lv_draw_sw_rect.c ****     lv_opa_t * sh_buf_tmp;
 521:lvgl/src/draw/sw/lv_draw_sw_rect.c ****     lv_coord_t y;
 522:lvgl/src/draw/sw/lv_draw_sw_rect.c ****     bool simple_sub;
 523:lvgl/src/draw/sw/lv_draw_sw_rect.c **** 
 524:lvgl/src/draw/sw/lv_draw_sw_rect.c ****     lv_draw_sw_blend_dsc_t blend_dsc;
 525:lvgl/src/draw/sw/lv_draw_sw_rect.c ****     lv_memset_00(&blend_dsc, sizeof(blend_dsc));
 526:lvgl/src/draw/sw/lv_draw_sw_rect.c ****     blend_dsc.blend_area = &blend_area;
 527:lvgl/src/draw/sw/lv_draw_sw_rect.c ****     blend_dsc.mask_area = &blend_area;
 528:lvgl/src/draw/sw/lv_draw_sw_rect.c ****     blend_dsc.mask_buf = mask_buf;
 529:lvgl/src/draw/sw/lv_draw_sw_rect.c ****     blend_dsc.color = dsc->shadow_color;
 530:lvgl/src/draw/sw/lv_draw_sw_rect.c ****     blend_dsc.opa = dsc->shadow_opa;
 531:lvgl/src/draw/sw/lv_draw_sw_rect.c ****     blend_dsc.blend_mode = dsc->blend_mode;
 532:lvgl/src/draw/sw/lv_draw_sw_rect.c **** 
 533:lvgl/src/draw/sw/lv_draw_sw_rect.c ****     lv_coord_t w_half = shadow_area.x1 + lv_area_get_width(&shadow_area) / 2;
 534:lvgl/src/draw/sw/lv_draw_sw_rect.c ****     lv_coord_t h_half = shadow_area.y1 + lv_area_get_height(&shadow_area) / 2;
 535:lvgl/src/draw/sw/lv_draw_sw_rect.c **** 
 536:lvgl/src/draw/sw/lv_draw_sw_rect.c ****     /*Draw the corners if they are on the current clip area and not fully covered by the bg*/
 537:lvgl/src/draw/sw/lv_draw_sw_rect.c **** 
 538:lvgl/src/draw/sw/lv_draw_sw_rect.c ****     /*Top right corner*/
 539:lvgl/src/draw/sw/lv_draw_sw_rect.c ****     blend_area.x2 = shadow_area.x2;
 540:lvgl/src/draw/sw/lv_draw_sw_rect.c ****     blend_area.x1 = shadow_area.x2 - corner_size + 1;
 541:lvgl/src/draw/sw/lv_draw_sw_rect.c ****     blend_area.y1 = shadow_area.y1;
 542:lvgl/src/draw/sw/lv_draw_sw_rect.c ****     blend_area.y2 = shadow_area.y1 + corner_size - 1;
 543:lvgl/src/draw/sw/lv_draw_sw_rect.c ****     /*Do not overdraw the other top corners*/
ARM GAS  /var/folders/21/t9g5rlb91ys800n5npymflf80000gn/T//cca4dfU0.s 			page 11


 544:lvgl/src/draw/sw/lv_draw_sw_rect.c ****     blend_area.x1 = LV_MAX(blend_area.x1, w_half);
 545:lvgl/src/draw/sw/lv_draw_sw_rect.c ****     blend_area.y2 = LV_MIN(blend_area.y2, h_half);
 546:lvgl/src/draw/sw/lv_draw_sw_rect.c **** 
 547:lvgl/src/draw/sw/lv_draw_sw_rect.c ****     if(_lv_area_intersect(&clip_area_sub, &blend_area, draw_ctx->clip_area) &&
 548:lvgl/src/draw/sw/lv_draw_sw_rect.c ****        !_lv_area_is_in(&clip_area_sub, &bg_area, r_bg)) {
 549:lvgl/src/draw/sw/lv_draw_sw_rect.c ****         lv_coord_t w = lv_area_get_width(&clip_area_sub);
 550:lvgl/src/draw/sw/lv_draw_sw_rect.c ****         sh_buf_tmp = sh_buf;
 551:lvgl/src/draw/sw/lv_draw_sw_rect.c ****         sh_buf_tmp += (clip_area_sub.y1 - shadow_area.y1) * corner_size;
 552:lvgl/src/draw/sw/lv_draw_sw_rect.c ****         sh_buf_tmp += clip_area_sub.x1 - (shadow_area.x2 - corner_size + 1);
 553:lvgl/src/draw/sw/lv_draw_sw_rect.c **** 
 554:lvgl/src/draw/sw/lv_draw_sw_rect.c ****         /*Do not mask if out of the bg*/
 555:lvgl/src/draw/sw/lv_draw_sw_rect.c ****         if(simple && _lv_area_is_out(&clip_area_sub, &bg_area, r_bg)) simple_sub = true;
 556:lvgl/src/draw/sw/lv_draw_sw_rect.c ****         else simple_sub = simple;
 557:lvgl/src/draw/sw/lv_draw_sw_rect.c ****         if(w > 0) {
 558:lvgl/src/draw/sw/lv_draw_sw_rect.c ****             blend_dsc.mask_buf = mask_buf;
 559:lvgl/src/draw/sw/lv_draw_sw_rect.c ****             blend_area.x1 = clip_area_sub.x1;
 560:lvgl/src/draw/sw/lv_draw_sw_rect.c ****             blend_area.x2 = clip_area_sub.x2;
 561:lvgl/src/draw/sw/lv_draw_sw_rect.c ****             blend_dsc.mask_res = LV_DRAW_MASK_RES_CHANGED;    /*In simple mode it won't be overwrit
 562:lvgl/src/draw/sw/lv_draw_sw_rect.c ****             for(y = clip_area_sub.y1; y <= clip_area_sub.y2; y++) {
 563:lvgl/src/draw/sw/lv_draw_sw_rect.c ****                 blend_area.y1 = y;
 564:lvgl/src/draw/sw/lv_draw_sw_rect.c ****                 blend_area.y2 = y;
 565:lvgl/src/draw/sw/lv_draw_sw_rect.c **** 
 566:lvgl/src/draw/sw/lv_draw_sw_rect.c ****                 if(!simple_sub) {
 567:lvgl/src/draw/sw/lv_draw_sw_rect.c ****                     lv_memcpy(mask_buf, sh_buf_tmp, corner_size);
 568:lvgl/src/draw/sw/lv_draw_sw_rect.c ****                     blend_dsc.mask_res = lv_draw_mask_apply(mask_buf, clip_area_sub.x1, y, w);
 569:lvgl/src/draw/sw/lv_draw_sw_rect.c ****                     if(blend_dsc.mask_res == LV_DRAW_MASK_RES_FULL_COVER) blend_dsc.mask_res = LV_D
 570:lvgl/src/draw/sw/lv_draw_sw_rect.c ****                 }
 571:lvgl/src/draw/sw/lv_draw_sw_rect.c ****                 else {
 572:lvgl/src/draw/sw/lv_draw_sw_rect.c ****                     blend_dsc.mask_buf = sh_buf_tmp;
 573:lvgl/src/draw/sw/lv_draw_sw_rect.c ****                 }
 574:lvgl/src/draw/sw/lv_draw_sw_rect.c ****                 lv_draw_sw_blend(draw_ctx, &blend_dsc);
 575:lvgl/src/draw/sw/lv_draw_sw_rect.c ****                 sh_buf_tmp += corner_size;
 576:lvgl/src/draw/sw/lv_draw_sw_rect.c ****             }
 577:lvgl/src/draw/sw/lv_draw_sw_rect.c ****         }
 578:lvgl/src/draw/sw/lv_draw_sw_rect.c ****     }
 579:lvgl/src/draw/sw/lv_draw_sw_rect.c **** 
 580:lvgl/src/draw/sw/lv_draw_sw_rect.c ****     /*Bottom right corner.
 581:lvgl/src/draw/sw/lv_draw_sw_rect.c ****      *Almost the same as top right just read the lines of `sh_buf` from then end*/
 582:lvgl/src/draw/sw/lv_draw_sw_rect.c ****     blend_area.x2 = shadow_area.x2;
 583:lvgl/src/draw/sw/lv_draw_sw_rect.c ****     blend_area.x1 = shadow_area.x2 - corner_size + 1;
 584:lvgl/src/draw/sw/lv_draw_sw_rect.c ****     blend_area.y1 = shadow_area.y2 - corner_size + 1;
 585:lvgl/src/draw/sw/lv_draw_sw_rect.c ****     blend_area.y2 = shadow_area.y2;
 586:lvgl/src/draw/sw/lv_draw_sw_rect.c ****     /*Do not overdraw the other corners*/
 587:lvgl/src/draw/sw/lv_draw_sw_rect.c ****     blend_area.x1 = LV_MAX(blend_area.x1, w_half);
 588:lvgl/src/draw/sw/lv_draw_sw_rect.c ****     blend_area.y1 = LV_MAX(blend_area.y1, h_half + 1);
 589:lvgl/src/draw/sw/lv_draw_sw_rect.c **** 
 590:lvgl/src/draw/sw/lv_draw_sw_rect.c ****     if(_lv_area_intersect(&clip_area_sub, &blend_area, draw_ctx->clip_area) &&
 591:lvgl/src/draw/sw/lv_draw_sw_rect.c ****        !_lv_area_is_in(&clip_area_sub, &bg_area, r_bg)) {
 592:lvgl/src/draw/sw/lv_draw_sw_rect.c ****         lv_coord_t w = lv_area_get_width(&clip_area_sub);
 593:lvgl/src/draw/sw/lv_draw_sw_rect.c ****         sh_buf_tmp = sh_buf;
 594:lvgl/src/draw/sw/lv_draw_sw_rect.c ****         sh_buf_tmp += (blend_area.y2 - clip_area_sub.y2) * corner_size;
 595:lvgl/src/draw/sw/lv_draw_sw_rect.c ****         sh_buf_tmp += clip_area_sub.x1 - (shadow_area.x2 - corner_size + 1);
 596:lvgl/src/draw/sw/lv_draw_sw_rect.c ****         /*Do not mask if out of the bg*/
 597:lvgl/src/draw/sw/lv_draw_sw_rect.c ****         if(simple && _lv_area_is_out(&clip_area_sub, &bg_area, r_bg)) simple_sub = true;
 598:lvgl/src/draw/sw/lv_draw_sw_rect.c ****         else simple_sub = simple;
 599:lvgl/src/draw/sw/lv_draw_sw_rect.c **** 
 600:lvgl/src/draw/sw/lv_draw_sw_rect.c ****         if(w > 0) {
ARM GAS  /var/folders/21/t9g5rlb91ys800n5npymflf80000gn/T//cca4dfU0.s 			page 12


 601:lvgl/src/draw/sw/lv_draw_sw_rect.c ****             blend_dsc.mask_buf = mask_buf;
 602:lvgl/src/draw/sw/lv_draw_sw_rect.c ****             blend_area.x1 = clip_area_sub.x1;
 603:lvgl/src/draw/sw/lv_draw_sw_rect.c ****             blend_area.x2 = clip_area_sub.x2;
 604:lvgl/src/draw/sw/lv_draw_sw_rect.c ****             blend_dsc.mask_res = LV_DRAW_MASK_RES_CHANGED;    /*In simple mode it won't be overwrit
 605:lvgl/src/draw/sw/lv_draw_sw_rect.c ****             for(y = clip_area_sub.y2; y >= clip_area_sub.y1; y--) {
 606:lvgl/src/draw/sw/lv_draw_sw_rect.c ****                 blend_area.y1 = y;
 607:lvgl/src/draw/sw/lv_draw_sw_rect.c ****                 blend_area.y2 = y;
 608:lvgl/src/draw/sw/lv_draw_sw_rect.c **** 
 609:lvgl/src/draw/sw/lv_draw_sw_rect.c ****                 if(!simple_sub) {
 610:lvgl/src/draw/sw/lv_draw_sw_rect.c ****                     lv_memcpy(mask_buf, sh_buf_tmp, corner_size);
 611:lvgl/src/draw/sw/lv_draw_sw_rect.c ****                     blend_dsc.mask_res = lv_draw_mask_apply(mask_buf, clip_area_sub.x1, y, w);
 612:lvgl/src/draw/sw/lv_draw_sw_rect.c ****                     if(blend_dsc.mask_res == LV_DRAW_MASK_RES_FULL_COVER) blend_dsc.mask_res = LV_D
 613:lvgl/src/draw/sw/lv_draw_sw_rect.c ****                 }
 614:lvgl/src/draw/sw/lv_draw_sw_rect.c ****                 else {
 615:lvgl/src/draw/sw/lv_draw_sw_rect.c ****                     blend_dsc.mask_buf = sh_buf_tmp;
 616:lvgl/src/draw/sw/lv_draw_sw_rect.c ****                 }
 617:lvgl/src/draw/sw/lv_draw_sw_rect.c ****                 lv_draw_sw_blend(draw_ctx, &blend_dsc);
 618:lvgl/src/draw/sw/lv_draw_sw_rect.c ****                 sh_buf_tmp += corner_size;
 619:lvgl/src/draw/sw/lv_draw_sw_rect.c ****             }
 620:lvgl/src/draw/sw/lv_draw_sw_rect.c ****         }
 621:lvgl/src/draw/sw/lv_draw_sw_rect.c ****     }
 622:lvgl/src/draw/sw/lv_draw_sw_rect.c **** 
 623:lvgl/src/draw/sw/lv_draw_sw_rect.c ****     /*Top side*/
 624:lvgl/src/draw/sw/lv_draw_sw_rect.c ****     blend_area.x1 = shadow_area.x1 + corner_size;
 625:lvgl/src/draw/sw/lv_draw_sw_rect.c ****     blend_area.x2 = shadow_area.x2 - corner_size;
 626:lvgl/src/draw/sw/lv_draw_sw_rect.c ****     blend_area.y1 = shadow_area.y1;
 627:lvgl/src/draw/sw/lv_draw_sw_rect.c ****     blend_area.y2 = shadow_area.y1 + corner_size - 1;
 628:lvgl/src/draw/sw/lv_draw_sw_rect.c ****     blend_area.y2 = LV_MIN(blend_area.y2, h_half);
 629:lvgl/src/draw/sw/lv_draw_sw_rect.c **** 
 630:lvgl/src/draw/sw/lv_draw_sw_rect.c ****     if(_lv_area_intersect(&clip_area_sub, &blend_area, draw_ctx->clip_area) &&
 631:lvgl/src/draw/sw/lv_draw_sw_rect.c ****        !_lv_area_is_in(&clip_area_sub, &bg_area, r_bg)) {
 632:lvgl/src/draw/sw/lv_draw_sw_rect.c ****         lv_coord_t w = lv_area_get_width(&clip_area_sub);
 633:lvgl/src/draw/sw/lv_draw_sw_rect.c ****         sh_buf_tmp = sh_buf;
 634:lvgl/src/draw/sw/lv_draw_sw_rect.c ****         sh_buf_tmp += (clip_area_sub.y1 - blend_area.y1) * corner_size;
 635:lvgl/src/draw/sw/lv_draw_sw_rect.c **** 
 636:lvgl/src/draw/sw/lv_draw_sw_rect.c ****         /*Do not mask if out of the bg*/
 637:lvgl/src/draw/sw/lv_draw_sw_rect.c ****         if(simple && _lv_area_is_out(&clip_area_sub, &bg_area, r_bg)) simple_sub = true;
 638:lvgl/src/draw/sw/lv_draw_sw_rect.c ****         else simple_sub = simple;
 639:lvgl/src/draw/sw/lv_draw_sw_rect.c **** 
 640:lvgl/src/draw/sw/lv_draw_sw_rect.c ****         if(w > 0) {
 641:lvgl/src/draw/sw/lv_draw_sw_rect.c ****             if(!simple_sub) {
 642:lvgl/src/draw/sw/lv_draw_sw_rect.c ****                 blend_dsc.mask_buf = mask_buf;
 643:lvgl/src/draw/sw/lv_draw_sw_rect.c ****             }
 644:lvgl/src/draw/sw/lv_draw_sw_rect.c ****             else {
 645:lvgl/src/draw/sw/lv_draw_sw_rect.c ****                 blend_dsc.mask_buf = NULL;
 646:lvgl/src/draw/sw/lv_draw_sw_rect.c ****             }
 647:lvgl/src/draw/sw/lv_draw_sw_rect.c ****             blend_area.x1 = clip_area_sub.x1;
 648:lvgl/src/draw/sw/lv_draw_sw_rect.c ****             blend_area.x2 = clip_area_sub.x2;
 649:lvgl/src/draw/sw/lv_draw_sw_rect.c **** 
 650:lvgl/src/draw/sw/lv_draw_sw_rect.c ****             for(y = clip_area_sub.y1; y <= clip_area_sub.y2; y++) {
 651:lvgl/src/draw/sw/lv_draw_sw_rect.c ****                 blend_area.y1 = y;
 652:lvgl/src/draw/sw/lv_draw_sw_rect.c ****                 blend_area.y2 = y;
 653:lvgl/src/draw/sw/lv_draw_sw_rect.c **** 
 654:lvgl/src/draw/sw/lv_draw_sw_rect.c ****                 if(!simple_sub) {
 655:lvgl/src/draw/sw/lv_draw_sw_rect.c ****                     lv_memset(mask_buf, sh_buf_tmp[0], w);
 656:lvgl/src/draw/sw/lv_draw_sw_rect.c ****                     blend_dsc.mask_res = lv_draw_mask_apply(mask_buf, clip_area_sub.x1, y, w);
 657:lvgl/src/draw/sw/lv_draw_sw_rect.c ****                     if(blend_dsc.mask_res == LV_DRAW_MASK_RES_FULL_COVER) blend_dsc.mask_res = LV_D
ARM GAS  /var/folders/21/t9g5rlb91ys800n5npymflf80000gn/T//cca4dfU0.s 			page 13


 658:lvgl/src/draw/sw/lv_draw_sw_rect.c ****                     lv_draw_sw_blend(draw_ctx, &blend_dsc);
 659:lvgl/src/draw/sw/lv_draw_sw_rect.c ****                 }
 660:lvgl/src/draw/sw/lv_draw_sw_rect.c ****                 else {
 661:lvgl/src/draw/sw/lv_draw_sw_rect.c ****                     blend_dsc.opa = opa == LV_OPA_COVER ? sh_buf_tmp[0] : (sh_buf_tmp[0] * dsc->sha
 662:lvgl/src/draw/sw/lv_draw_sw_rect.c ****                     lv_draw_sw_blend(draw_ctx, &blend_dsc);
 663:lvgl/src/draw/sw/lv_draw_sw_rect.c ****                 }
 664:lvgl/src/draw/sw/lv_draw_sw_rect.c ****                 sh_buf_tmp += corner_size;
 665:lvgl/src/draw/sw/lv_draw_sw_rect.c ****             }
 666:lvgl/src/draw/sw/lv_draw_sw_rect.c ****         }
 667:lvgl/src/draw/sw/lv_draw_sw_rect.c ****     }
 668:lvgl/src/draw/sw/lv_draw_sw_rect.c ****     blend_dsc.opa = dsc->shadow_opa;    /*Restore*/
 669:lvgl/src/draw/sw/lv_draw_sw_rect.c **** 
 670:lvgl/src/draw/sw/lv_draw_sw_rect.c ****     /*Bottom side*/
 671:lvgl/src/draw/sw/lv_draw_sw_rect.c ****     blend_area.x1 = shadow_area.x1 + corner_size;
 672:lvgl/src/draw/sw/lv_draw_sw_rect.c ****     blend_area.x2 = shadow_area.x2 - corner_size;
 673:lvgl/src/draw/sw/lv_draw_sw_rect.c ****     blend_area.y1 = shadow_area.y2 - corner_size + 1;
 674:lvgl/src/draw/sw/lv_draw_sw_rect.c ****     blend_area.y2 = shadow_area.y2;
 675:lvgl/src/draw/sw/lv_draw_sw_rect.c ****     blend_area.y1 = LV_MAX(blend_area.y1, h_half + 1);
 676:lvgl/src/draw/sw/lv_draw_sw_rect.c **** 
 677:lvgl/src/draw/sw/lv_draw_sw_rect.c ****     if(_lv_area_intersect(&clip_area_sub, &blend_area, draw_ctx->clip_area) &&
 678:lvgl/src/draw/sw/lv_draw_sw_rect.c ****        !_lv_area_is_in(&clip_area_sub, &bg_area, r_bg)) {
 679:lvgl/src/draw/sw/lv_draw_sw_rect.c ****         lv_coord_t w = lv_area_get_width(&clip_area_sub);
 680:lvgl/src/draw/sw/lv_draw_sw_rect.c ****         sh_buf_tmp = sh_buf;
 681:lvgl/src/draw/sw/lv_draw_sw_rect.c ****         sh_buf_tmp += (blend_area.y2 - clip_area_sub.y2) * corner_size;
 682:lvgl/src/draw/sw/lv_draw_sw_rect.c ****         if(w > 0) {
 683:lvgl/src/draw/sw/lv_draw_sw_rect.c ****             /*Do not mask if out of the bg*/
 684:lvgl/src/draw/sw/lv_draw_sw_rect.c ****             if(simple && _lv_area_is_out(&clip_area_sub, &bg_area, r_bg)) simple_sub = true;
 685:lvgl/src/draw/sw/lv_draw_sw_rect.c ****             else simple_sub = simple;
 686:lvgl/src/draw/sw/lv_draw_sw_rect.c **** 
 687:lvgl/src/draw/sw/lv_draw_sw_rect.c ****             if(!simple_sub) {
 688:lvgl/src/draw/sw/lv_draw_sw_rect.c ****                 blend_dsc.mask_buf = mask_buf;
 689:lvgl/src/draw/sw/lv_draw_sw_rect.c ****             }
 690:lvgl/src/draw/sw/lv_draw_sw_rect.c ****             else {
 691:lvgl/src/draw/sw/lv_draw_sw_rect.c ****                 blend_dsc.mask_buf = NULL;
 692:lvgl/src/draw/sw/lv_draw_sw_rect.c ****             }
 693:lvgl/src/draw/sw/lv_draw_sw_rect.c ****             blend_area.x1 = clip_area_sub.x1;
 694:lvgl/src/draw/sw/lv_draw_sw_rect.c ****             blend_area.x2 = clip_area_sub.x2;
 695:lvgl/src/draw/sw/lv_draw_sw_rect.c **** 
 696:lvgl/src/draw/sw/lv_draw_sw_rect.c ****             for(y = clip_area_sub.y2; y >= clip_area_sub.y1; y--) {
 697:lvgl/src/draw/sw/lv_draw_sw_rect.c ****                 blend_area.y1 = y;
 698:lvgl/src/draw/sw/lv_draw_sw_rect.c ****                 blend_area.y2 = y;
 699:lvgl/src/draw/sw/lv_draw_sw_rect.c **** 
 700:lvgl/src/draw/sw/lv_draw_sw_rect.c ****                 /*Do not mask if out of the bg*/
 701:lvgl/src/draw/sw/lv_draw_sw_rect.c ****                 if(simple && _lv_area_is_out(&clip_area_sub, &bg_area, r_bg)) simple_sub = true;
 702:lvgl/src/draw/sw/lv_draw_sw_rect.c ****                 else simple_sub = simple;
 703:lvgl/src/draw/sw/lv_draw_sw_rect.c **** 
 704:lvgl/src/draw/sw/lv_draw_sw_rect.c ****                 if(!simple_sub) {
 705:lvgl/src/draw/sw/lv_draw_sw_rect.c ****                     lv_memset(mask_buf, sh_buf_tmp[0], w);
 706:lvgl/src/draw/sw/lv_draw_sw_rect.c ****                     blend_dsc.mask_res = lv_draw_mask_apply(mask_buf, clip_area_sub.x1, y, w);
 707:lvgl/src/draw/sw/lv_draw_sw_rect.c ****                     if(blend_dsc.mask_res == LV_DRAW_MASK_RES_FULL_COVER) blend_dsc.mask_res = LV_D
 708:lvgl/src/draw/sw/lv_draw_sw_rect.c ****                     lv_draw_sw_blend(draw_ctx, &blend_dsc);
 709:lvgl/src/draw/sw/lv_draw_sw_rect.c ****                 }
 710:lvgl/src/draw/sw/lv_draw_sw_rect.c ****                 else {
 711:lvgl/src/draw/sw/lv_draw_sw_rect.c ****                     blend_dsc.opa = opa == LV_OPA_COVER ? sh_buf_tmp[0] : (sh_buf_tmp[0] * dsc->sha
 712:lvgl/src/draw/sw/lv_draw_sw_rect.c ****                     lv_draw_sw_blend(draw_ctx, &blend_dsc);
 713:lvgl/src/draw/sw/lv_draw_sw_rect.c **** 
 714:lvgl/src/draw/sw/lv_draw_sw_rect.c ****                 }
ARM GAS  /var/folders/21/t9g5rlb91ys800n5npymflf80000gn/T//cca4dfU0.s 			page 14


 715:lvgl/src/draw/sw/lv_draw_sw_rect.c ****                 sh_buf_tmp += corner_size;
 716:lvgl/src/draw/sw/lv_draw_sw_rect.c ****             }
 717:lvgl/src/draw/sw/lv_draw_sw_rect.c ****         }
 718:lvgl/src/draw/sw/lv_draw_sw_rect.c ****     }
 719:lvgl/src/draw/sw/lv_draw_sw_rect.c **** 
 720:lvgl/src/draw/sw/lv_draw_sw_rect.c ****     blend_dsc.opa = dsc->shadow_opa;    /*Restore*/
 721:lvgl/src/draw/sw/lv_draw_sw_rect.c **** 
 722:lvgl/src/draw/sw/lv_draw_sw_rect.c ****     /*Right side*/
 723:lvgl/src/draw/sw/lv_draw_sw_rect.c ****     blend_area.x1 = shadow_area.x2 - corner_size + 1;
 724:lvgl/src/draw/sw/lv_draw_sw_rect.c ****     blend_area.x2 = shadow_area.x2;
 725:lvgl/src/draw/sw/lv_draw_sw_rect.c ****     blend_area.y1 = shadow_area.y1 + corner_size;
 726:lvgl/src/draw/sw/lv_draw_sw_rect.c ****     blend_area.y2 = shadow_area.y2 - corner_size;
 727:lvgl/src/draw/sw/lv_draw_sw_rect.c ****     /*Do not overdraw the other corners*/
 728:lvgl/src/draw/sw/lv_draw_sw_rect.c ****     blend_area.y1 = LV_MIN(blend_area.y1, h_half + 1);
 729:lvgl/src/draw/sw/lv_draw_sw_rect.c ****     blend_area.y2 = LV_MAX(blend_area.y2, h_half);
 730:lvgl/src/draw/sw/lv_draw_sw_rect.c ****     blend_area.x1 = LV_MAX(blend_area.x1, w_half);
 731:lvgl/src/draw/sw/lv_draw_sw_rect.c **** 
 732:lvgl/src/draw/sw/lv_draw_sw_rect.c ****     if(_lv_area_intersect(&clip_area_sub, &blend_area, draw_ctx->clip_area) &&
 733:lvgl/src/draw/sw/lv_draw_sw_rect.c ****        !_lv_area_is_in(&clip_area_sub, &bg_area, r_bg)) {
 734:lvgl/src/draw/sw/lv_draw_sw_rect.c ****         lv_coord_t w = lv_area_get_width(&clip_area_sub);
 735:lvgl/src/draw/sw/lv_draw_sw_rect.c ****         sh_buf_tmp = sh_buf;
 736:lvgl/src/draw/sw/lv_draw_sw_rect.c ****         sh_buf_tmp += (corner_size - 1) * corner_size;
 737:lvgl/src/draw/sw/lv_draw_sw_rect.c ****         sh_buf_tmp += clip_area_sub.x1 - (shadow_area.x2 - corner_size + 1);
 738:lvgl/src/draw/sw/lv_draw_sw_rect.c **** 
 739:lvgl/src/draw/sw/lv_draw_sw_rect.c ****         /*Do not mask if out of the bg*/
 740:lvgl/src/draw/sw/lv_draw_sw_rect.c ****         if(simple && _lv_area_is_out(&clip_area_sub, &bg_area, r_bg)) simple_sub = true;
 741:lvgl/src/draw/sw/lv_draw_sw_rect.c ****         else simple_sub = simple;
 742:lvgl/src/draw/sw/lv_draw_sw_rect.c ****         blend_dsc.mask_buf = simple_sub ? sh_buf_tmp : mask_buf;
 743:lvgl/src/draw/sw/lv_draw_sw_rect.c **** 
 744:lvgl/src/draw/sw/lv_draw_sw_rect.c ****         if(w > 0) {
 745:lvgl/src/draw/sw/lv_draw_sw_rect.c ****             blend_area.x1 = clip_area_sub.x1;
 746:lvgl/src/draw/sw/lv_draw_sw_rect.c ****             blend_area.x2 = clip_area_sub.x2;
 747:lvgl/src/draw/sw/lv_draw_sw_rect.c ****             blend_dsc.mask_res = LV_DRAW_MASK_RES_CHANGED;    /*In simple mode it won't be overwrit
 748:lvgl/src/draw/sw/lv_draw_sw_rect.c ****             for(y = clip_area_sub.y1; y <= clip_area_sub.y2; y++) {
 749:lvgl/src/draw/sw/lv_draw_sw_rect.c ****                 blend_area.y1 = y;
 750:lvgl/src/draw/sw/lv_draw_sw_rect.c ****                 blend_area.y2 = y;
 751:lvgl/src/draw/sw/lv_draw_sw_rect.c **** 
 752:lvgl/src/draw/sw/lv_draw_sw_rect.c ****                 if(!simple_sub) {
 753:lvgl/src/draw/sw/lv_draw_sw_rect.c ****                     lv_memcpy(mask_buf, sh_buf_tmp, w);
 754:lvgl/src/draw/sw/lv_draw_sw_rect.c ****                     blend_dsc.mask_res = lv_draw_mask_apply(mask_buf, clip_area_sub.x1, y, w);
 755:lvgl/src/draw/sw/lv_draw_sw_rect.c ****                     if(blend_dsc.mask_res == LV_DRAW_MASK_RES_FULL_COVER) blend_dsc.mask_res = LV_D
 756:lvgl/src/draw/sw/lv_draw_sw_rect.c ****                 }
 757:lvgl/src/draw/sw/lv_draw_sw_rect.c ****                 lv_draw_sw_blend(draw_ctx, &blend_dsc);
 758:lvgl/src/draw/sw/lv_draw_sw_rect.c ****             }
 759:lvgl/src/draw/sw/lv_draw_sw_rect.c ****         }
 760:lvgl/src/draw/sw/lv_draw_sw_rect.c ****     }
 761:lvgl/src/draw/sw/lv_draw_sw_rect.c **** 
 762:lvgl/src/draw/sw/lv_draw_sw_rect.c ****     /*Mirror the shadow corner buffer horizontally*/
 763:lvgl/src/draw/sw/lv_draw_sw_rect.c ****     sh_buf_tmp = sh_buf ;
 764:lvgl/src/draw/sw/lv_draw_sw_rect.c ****     for(y = 0; y < corner_size; y++) {
 765:lvgl/src/draw/sw/lv_draw_sw_rect.c ****         int32_t x;
 766:lvgl/src/draw/sw/lv_draw_sw_rect.c ****         lv_opa_t * start = sh_buf_tmp;
 767:lvgl/src/draw/sw/lv_draw_sw_rect.c ****         lv_opa_t * end = sh_buf_tmp + corner_size - 1;
 768:lvgl/src/draw/sw/lv_draw_sw_rect.c ****         for(x = 0; x < corner_size / 2; x++) {
 769:lvgl/src/draw/sw/lv_draw_sw_rect.c ****             lv_opa_t tmp = *start;
 770:lvgl/src/draw/sw/lv_draw_sw_rect.c ****             *start = *end;
 771:lvgl/src/draw/sw/lv_draw_sw_rect.c ****             *end = tmp;
ARM GAS  /var/folders/21/t9g5rlb91ys800n5npymflf80000gn/T//cca4dfU0.s 			page 15


 772:lvgl/src/draw/sw/lv_draw_sw_rect.c **** 
 773:lvgl/src/draw/sw/lv_draw_sw_rect.c ****             start++;
 774:lvgl/src/draw/sw/lv_draw_sw_rect.c ****             end--;
 775:lvgl/src/draw/sw/lv_draw_sw_rect.c ****         }
 776:lvgl/src/draw/sw/lv_draw_sw_rect.c ****         sh_buf_tmp += corner_size;
 777:lvgl/src/draw/sw/lv_draw_sw_rect.c ****     }
 778:lvgl/src/draw/sw/lv_draw_sw_rect.c **** 
 779:lvgl/src/draw/sw/lv_draw_sw_rect.c ****     /*Left side*/
 780:lvgl/src/draw/sw/lv_draw_sw_rect.c ****     blend_area.x1 = shadow_area.x1;
 781:lvgl/src/draw/sw/lv_draw_sw_rect.c ****     blend_area.x2 = shadow_area.x1 + corner_size - 1;
 782:lvgl/src/draw/sw/lv_draw_sw_rect.c ****     blend_area.y1 = shadow_area.y1 + corner_size;
 783:lvgl/src/draw/sw/lv_draw_sw_rect.c ****     blend_area.y2 = shadow_area.y2 - corner_size;
 784:lvgl/src/draw/sw/lv_draw_sw_rect.c ****     /*Do not overdraw the other corners*/
 785:lvgl/src/draw/sw/lv_draw_sw_rect.c ****     blend_area.y1 = LV_MIN(blend_area.y1, h_half + 1);
 786:lvgl/src/draw/sw/lv_draw_sw_rect.c ****     blend_area.y2 = LV_MAX(blend_area.y2, h_half);
 787:lvgl/src/draw/sw/lv_draw_sw_rect.c ****     blend_area.x2 = LV_MIN(blend_area.x2, w_half - 1);
 788:lvgl/src/draw/sw/lv_draw_sw_rect.c **** 
 789:lvgl/src/draw/sw/lv_draw_sw_rect.c ****     if(_lv_area_intersect(&clip_area_sub, &blend_area, draw_ctx->clip_area) &&
 790:lvgl/src/draw/sw/lv_draw_sw_rect.c ****        !_lv_area_is_in(&clip_area_sub, &bg_area, r_bg)) {
 791:lvgl/src/draw/sw/lv_draw_sw_rect.c ****         lv_coord_t w = lv_area_get_width(&clip_area_sub);
 792:lvgl/src/draw/sw/lv_draw_sw_rect.c ****         sh_buf_tmp = sh_buf;
 793:lvgl/src/draw/sw/lv_draw_sw_rect.c ****         sh_buf_tmp += (corner_size - 1) * corner_size;
 794:lvgl/src/draw/sw/lv_draw_sw_rect.c ****         sh_buf_tmp += clip_area_sub.x1 - blend_area.x1;
 795:lvgl/src/draw/sw/lv_draw_sw_rect.c **** 
 796:lvgl/src/draw/sw/lv_draw_sw_rect.c ****         /*Do not mask if out of the bg*/
 797:lvgl/src/draw/sw/lv_draw_sw_rect.c ****         if(simple && _lv_area_is_out(&clip_area_sub, &bg_area, r_bg)) simple_sub = true;
 798:lvgl/src/draw/sw/lv_draw_sw_rect.c ****         else simple_sub = simple;
 799:lvgl/src/draw/sw/lv_draw_sw_rect.c ****         blend_dsc.mask_buf = simple_sub ? sh_buf_tmp : mask_buf;
 800:lvgl/src/draw/sw/lv_draw_sw_rect.c ****         if(w > 0) {
 801:lvgl/src/draw/sw/lv_draw_sw_rect.c ****             blend_area.x1 = clip_area_sub.x1;
 802:lvgl/src/draw/sw/lv_draw_sw_rect.c ****             blend_area.x2 = clip_area_sub.x2;
 803:lvgl/src/draw/sw/lv_draw_sw_rect.c ****             blend_dsc.mask_res = LV_DRAW_MASK_RES_CHANGED;    /*In simple mode it won't be overwrit
 804:lvgl/src/draw/sw/lv_draw_sw_rect.c ****             for(y = clip_area_sub.y1; y <= clip_area_sub.y2; y++) {
 805:lvgl/src/draw/sw/lv_draw_sw_rect.c ****                 blend_area.y1 = y;
 806:lvgl/src/draw/sw/lv_draw_sw_rect.c ****                 blend_area.y2 = y;
 807:lvgl/src/draw/sw/lv_draw_sw_rect.c **** 
 808:lvgl/src/draw/sw/lv_draw_sw_rect.c ****                 if(!simple_sub) {
 809:lvgl/src/draw/sw/lv_draw_sw_rect.c ****                     lv_memcpy(mask_buf, sh_buf_tmp, w);
 810:lvgl/src/draw/sw/lv_draw_sw_rect.c ****                     blend_dsc.mask_res = lv_draw_mask_apply(mask_buf, clip_area_sub.x1, y, w);
 811:lvgl/src/draw/sw/lv_draw_sw_rect.c ****                     if(blend_dsc.mask_res == LV_DRAW_MASK_RES_FULL_COVER) blend_dsc.mask_res = LV_D
 812:lvgl/src/draw/sw/lv_draw_sw_rect.c ****                 }
 813:lvgl/src/draw/sw/lv_draw_sw_rect.c **** 
 814:lvgl/src/draw/sw/lv_draw_sw_rect.c ****                 lv_draw_sw_blend(draw_ctx, &blend_dsc);
 815:lvgl/src/draw/sw/lv_draw_sw_rect.c ****             }
 816:lvgl/src/draw/sw/lv_draw_sw_rect.c ****         }
 817:lvgl/src/draw/sw/lv_draw_sw_rect.c ****     }
 818:lvgl/src/draw/sw/lv_draw_sw_rect.c **** 
 819:lvgl/src/draw/sw/lv_draw_sw_rect.c ****     /*Top left corner*/
 820:lvgl/src/draw/sw/lv_draw_sw_rect.c ****     blend_area.x1 = shadow_area.x1;
 821:lvgl/src/draw/sw/lv_draw_sw_rect.c ****     blend_area.x2 = shadow_area.x1 + corner_size - 1;
 822:lvgl/src/draw/sw/lv_draw_sw_rect.c ****     blend_area.y1 = shadow_area.y1;
 823:lvgl/src/draw/sw/lv_draw_sw_rect.c ****     blend_area.y2 = shadow_area.y1 + corner_size - 1;
 824:lvgl/src/draw/sw/lv_draw_sw_rect.c ****     /*Do not overdraw the other corners*/
 825:lvgl/src/draw/sw/lv_draw_sw_rect.c ****     blend_area.x2 = LV_MIN(blend_area.x2, w_half - 1);
 826:lvgl/src/draw/sw/lv_draw_sw_rect.c ****     blend_area.y2 = LV_MIN(blend_area.y2, h_half);
 827:lvgl/src/draw/sw/lv_draw_sw_rect.c **** 
 828:lvgl/src/draw/sw/lv_draw_sw_rect.c ****     if(_lv_area_intersect(&clip_area_sub, &blend_area, draw_ctx->clip_area) &&
ARM GAS  /var/folders/21/t9g5rlb91ys800n5npymflf80000gn/T//cca4dfU0.s 			page 16


 829:lvgl/src/draw/sw/lv_draw_sw_rect.c ****        !_lv_area_is_in(&clip_area_sub, &bg_area, r_bg)) {
 830:lvgl/src/draw/sw/lv_draw_sw_rect.c ****         lv_coord_t w = lv_area_get_width(&clip_area_sub);
 831:lvgl/src/draw/sw/lv_draw_sw_rect.c ****         sh_buf_tmp = sh_buf;
 832:lvgl/src/draw/sw/lv_draw_sw_rect.c ****         sh_buf_tmp += (clip_area_sub.y1 - blend_area.y1) * corner_size;
 833:lvgl/src/draw/sw/lv_draw_sw_rect.c ****         sh_buf_tmp += clip_area_sub.x1 - blend_area.x1;
 834:lvgl/src/draw/sw/lv_draw_sw_rect.c **** 
 835:lvgl/src/draw/sw/lv_draw_sw_rect.c ****         /*Do not mask if out of the bg*/
 836:lvgl/src/draw/sw/lv_draw_sw_rect.c ****         if(simple && _lv_area_is_out(&clip_area_sub, &bg_area, r_bg)) simple_sub = true;
 837:lvgl/src/draw/sw/lv_draw_sw_rect.c ****         else simple_sub = simple;
 838:lvgl/src/draw/sw/lv_draw_sw_rect.c ****         blend_dsc.mask_buf = mask_buf;
 839:lvgl/src/draw/sw/lv_draw_sw_rect.c **** 
 840:lvgl/src/draw/sw/lv_draw_sw_rect.c ****         if(w > 0) {
 841:lvgl/src/draw/sw/lv_draw_sw_rect.c ****             blend_area.x1 = clip_area_sub.x1;
 842:lvgl/src/draw/sw/lv_draw_sw_rect.c ****             blend_area.x2 = clip_area_sub.x2;
 843:lvgl/src/draw/sw/lv_draw_sw_rect.c ****             blend_dsc.mask_res = LV_DRAW_MASK_RES_CHANGED;    /*In simple mode it won't be overwrit
 844:lvgl/src/draw/sw/lv_draw_sw_rect.c ****             for(y = clip_area_sub.y1; y <= clip_area_sub.y2; y++) {
 845:lvgl/src/draw/sw/lv_draw_sw_rect.c ****                 blend_area.y1 = y;
 846:lvgl/src/draw/sw/lv_draw_sw_rect.c ****                 blend_area.y2 = y;
 847:lvgl/src/draw/sw/lv_draw_sw_rect.c **** 
 848:lvgl/src/draw/sw/lv_draw_sw_rect.c ****                 if(!simple_sub) {
 849:lvgl/src/draw/sw/lv_draw_sw_rect.c ****                     lv_memcpy(mask_buf, sh_buf_tmp, corner_size);
 850:lvgl/src/draw/sw/lv_draw_sw_rect.c ****                     blend_dsc.mask_res = lv_draw_mask_apply(mask_buf, clip_area_sub.x1, y, w);
 851:lvgl/src/draw/sw/lv_draw_sw_rect.c ****                     if(blend_dsc.mask_res == LV_DRAW_MASK_RES_FULL_COVER) blend_dsc.mask_res = LV_D
 852:lvgl/src/draw/sw/lv_draw_sw_rect.c ****                 }
 853:lvgl/src/draw/sw/lv_draw_sw_rect.c ****                 else {
 854:lvgl/src/draw/sw/lv_draw_sw_rect.c ****                     blend_dsc.mask_buf = sh_buf_tmp;
 855:lvgl/src/draw/sw/lv_draw_sw_rect.c ****                 }
 856:lvgl/src/draw/sw/lv_draw_sw_rect.c **** 
 857:lvgl/src/draw/sw/lv_draw_sw_rect.c ****                 lv_draw_sw_blend(draw_ctx, &blend_dsc);
 858:lvgl/src/draw/sw/lv_draw_sw_rect.c ****                 sh_buf_tmp += corner_size;
 859:lvgl/src/draw/sw/lv_draw_sw_rect.c ****             }
 860:lvgl/src/draw/sw/lv_draw_sw_rect.c ****         }
 861:lvgl/src/draw/sw/lv_draw_sw_rect.c ****     }
 862:lvgl/src/draw/sw/lv_draw_sw_rect.c **** 
 863:lvgl/src/draw/sw/lv_draw_sw_rect.c ****     /*Bottom left corner.
 864:lvgl/src/draw/sw/lv_draw_sw_rect.c ****      *Almost the same as bottom right just read the lines of `sh_buf` from then end*/
 865:lvgl/src/draw/sw/lv_draw_sw_rect.c ****     blend_area.x1 = shadow_area.x1 ;
 866:lvgl/src/draw/sw/lv_draw_sw_rect.c ****     blend_area.x2 = shadow_area.x1 + corner_size - 1;
 867:lvgl/src/draw/sw/lv_draw_sw_rect.c ****     blend_area.y1 = shadow_area.y2 - corner_size + 1;
 868:lvgl/src/draw/sw/lv_draw_sw_rect.c ****     blend_area.y2 = shadow_area.y2;
 869:lvgl/src/draw/sw/lv_draw_sw_rect.c ****     /*Do not overdraw the other corners*/
 870:lvgl/src/draw/sw/lv_draw_sw_rect.c ****     blend_area.y1 = LV_MAX(blend_area.y1, h_half + 1);
 871:lvgl/src/draw/sw/lv_draw_sw_rect.c ****     blend_area.x2 = LV_MIN(blend_area.x2, w_half - 1);
 872:lvgl/src/draw/sw/lv_draw_sw_rect.c **** 
 873:lvgl/src/draw/sw/lv_draw_sw_rect.c ****     if(_lv_area_intersect(&clip_area_sub, &blend_area, draw_ctx->clip_area) &&
 874:lvgl/src/draw/sw/lv_draw_sw_rect.c ****        !_lv_area_is_in(&clip_area_sub, &bg_area, r_bg)) {
 875:lvgl/src/draw/sw/lv_draw_sw_rect.c ****         lv_coord_t w = lv_area_get_width(&clip_area_sub);
 876:lvgl/src/draw/sw/lv_draw_sw_rect.c ****         sh_buf_tmp = sh_buf;
 877:lvgl/src/draw/sw/lv_draw_sw_rect.c ****         sh_buf_tmp += (blend_area.y2 - clip_area_sub.y2) * corner_size;
 878:lvgl/src/draw/sw/lv_draw_sw_rect.c ****         sh_buf_tmp += clip_area_sub.x1 - blend_area.x1;
 879:lvgl/src/draw/sw/lv_draw_sw_rect.c **** 
 880:lvgl/src/draw/sw/lv_draw_sw_rect.c ****         /*Do not mask if out of the bg*/
 881:lvgl/src/draw/sw/lv_draw_sw_rect.c ****         if(simple && _lv_area_is_out(&clip_area_sub, &bg_area, r_bg)) simple_sub = true;
 882:lvgl/src/draw/sw/lv_draw_sw_rect.c ****         else simple_sub = simple;
 883:lvgl/src/draw/sw/lv_draw_sw_rect.c ****         blend_dsc.mask_buf = mask_buf;
 884:lvgl/src/draw/sw/lv_draw_sw_rect.c ****         if(w > 0) {
 885:lvgl/src/draw/sw/lv_draw_sw_rect.c ****             blend_area.x1 = clip_area_sub.x1;
ARM GAS  /var/folders/21/t9g5rlb91ys800n5npymflf80000gn/T//cca4dfU0.s 			page 17


 886:lvgl/src/draw/sw/lv_draw_sw_rect.c ****             blend_area.x2 = clip_area_sub.x2;
 887:lvgl/src/draw/sw/lv_draw_sw_rect.c ****             blend_dsc.mask_res = LV_DRAW_MASK_RES_CHANGED;    /*In simple mode it won't be overwrit
 888:lvgl/src/draw/sw/lv_draw_sw_rect.c ****             for(y = clip_area_sub.y2; y >= clip_area_sub.y1; y--) {
 889:lvgl/src/draw/sw/lv_draw_sw_rect.c ****                 blend_area.y1 = y;
 890:lvgl/src/draw/sw/lv_draw_sw_rect.c ****                 blend_area.y2 = y;
 891:lvgl/src/draw/sw/lv_draw_sw_rect.c **** 
 892:lvgl/src/draw/sw/lv_draw_sw_rect.c ****                 if(!simple_sub) {
 893:lvgl/src/draw/sw/lv_draw_sw_rect.c ****                     lv_memcpy(mask_buf, sh_buf_tmp, corner_size);
 894:lvgl/src/draw/sw/lv_draw_sw_rect.c ****                     blend_dsc.mask_res = lv_draw_mask_apply(mask_buf, clip_area_sub.x1, y, w);
 895:lvgl/src/draw/sw/lv_draw_sw_rect.c ****                     if(blend_dsc.mask_res == LV_DRAW_MASK_RES_FULL_COVER) blend_dsc.mask_res = LV_D
 896:lvgl/src/draw/sw/lv_draw_sw_rect.c ****                 }
 897:lvgl/src/draw/sw/lv_draw_sw_rect.c ****                 else {
 898:lvgl/src/draw/sw/lv_draw_sw_rect.c ****                     blend_dsc.mask_buf = sh_buf_tmp;
 899:lvgl/src/draw/sw/lv_draw_sw_rect.c ****                 }
 900:lvgl/src/draw/sw/lv_draw_sw_rect.c ****                 lv_draw_sw_blend(draw_ctx, &blend_dsc);
 901:lvgl/src/draw/sw/lv_draw_sw_rect.c ****                 sh_buf_tmp += corner_size;
 902:lvgl/src/draw/sw/lv_draw_sw_rect.c ****             }
 903:lvgl/src/draw/sw/lv_draw_sw_rect.c ****         }
 904:lvgl/src/draw/sw/lv_draw_sw_rect.c ****     }
 905:lvgl/src/draw/sw/lv_draw_sw_rect.c **** 
 906:lvgl/src/draw/sw/lv_draw_sw_rect.c ****     /*Draw the center rectangle.*/
 907:lvgl/src/draw/sw/lv_draw_sw_rect.c ****     blend_area.x1 = shadow_area.x1 + corner_size ;
 908:lvgl/src/draw/sw/lv_draw_sw_rect.c ****     blend_area.x2 = shadow_area.x2 - corner_size;
 909:lvgl/src/draw/sw/lv_draw_sw_rect.c ****     blend_area.y1 = shadow_area.y1 + corner_size;
 910:lvgl/src/draw/sw/lv_draw_sw_rect.c ****     blend_area.y2 = shadow_area.y2 - corner_size;
 911:lvgl/src/draw/sw/lv_draw_sw_rect.c ****     blend_dsc.mask_buf = mask_buf;
 912:lvgl/src/draw/sw/lv_draw_sw_rect.c **** 
 913:lvgl/src/draw/sw/lv_draw_sw_rect.c ****     if(_lv_area_intersect(&clip_area_sub, &blend_area, draw_ctx->clip_area) &&
 914:lvgl/src/draw/sw/lv_draw_sw_rect.c ****        !_lv_area_is_in(&clip_area_sub, &bg_area, r_bg)) {
 915:lvgl/src/draw/sw/lv_draw_sw_rect.c ****         lv_coord_t w = lv_area_get_width(&clip_area_sub);
 916:lvgl/src/draw/sw/lv_draw_sw_rect.c ****         if(w > 0) {
 917:lvgl/src/draw/sw/lv_draw_sw_rect.c ****             blend_area.x1 = clip_area_sub.x1;
 918:lvgl/src/draw/sw/lv_draw_sw_rect.c ****             blend_area.x2 = clip_area_sub.x2;
 919:lvgl/src/draw/sw/lv_draw_sw_rect.c ****             for(y = clip_area_sub.y1; y <= clip_area_sub.y2; y++) {
 920:lvgl/src/draw/sw/lv_draw_sw_rect.c ****                 blend_area.y1 = y;
 921:lvgl/src/draw/sw/lv_draw_sw_rect.c ****                 blend_area.y2 = y;
 922:lvgl/src/draw/sw/lv_draw_sw_rect.c **** 
 923:lvgl/src/draw/sw/lv_draw_sw_rect.c ****                 lv_memset_ff(mask_buf, w);
 924:lvgl/src/draw/sw/lv_draw_sw_rect.c ****                 blend_dsc.mask_res = lv_draw_mask_apply(mask_buf, clip_area_sub.x1, y, w);
 925:lvgl/src/draw/sw/lv_draw_sw_rect.c ****                 lv_draw_sw_blend(draw_ctx, &blend_dsc);
 926:lvgl/src/draw/sw/lv_draw_sw_rect.c ****             }
 927:lvgl/src/draw/sw/lv_draw_sw_rect.c ****         }
 928:lvgl/src/draw/sw/lv_draw_sw_rect.c ****     }
 929:lvgl/src/draw/sw/lv_draw_sw_rect.c **** 
 930:lvgl/src/draw/sw/lv_draw_sw_rect.c ****     if(!simple) {
 931:lvgl/src/draw/sw/lv_draw_sw_rect.c ****         lv_draw_mask_free_param(&mask_rout_param);
 932:lvgl/src/draw/sw/lv_draw_sw_rect.c ****         lv_draw_mask_remove_id(mask_rout_id);
 933:lvgl/src/draw/sw/lv_draw_sw_rect.c ****     }
 934:lvgl/src/draw/sw/lv_draw_sw_rect.c ****     lv_mem_buf_release(sh_buf);
 935:lvgl/src/draw/sw/lv_draw_sw_rect.c ****     lv_mem_buf_release(mask_buf);
 936:lvgl/src/draw/sw/lv_draw_sw_rect.c **** }
 937:lvgl/src/draw/sw/lv_draw_sw_rect.c **** 
 938:lvgl/src/draw/sw/lv_draw_sw_rect.c **** /**
 939:lvgl/src/draw/sw/lv_draw_sw_rect.c ****  * Calculate a blurred corner
 940:lvgl/src/draw/sw/lv_draw_sw_rect.c ****  * @param coords Coordinates of the shadow
 941:lvgl/src/draw/sw/lv_draw_sw_rect.c ****  * @param sh_buf a buffer to store the result. Its size should be `(sw + r)^2 * 2`
 942:lvgl/src/draw/sw/lv_draw_sw_rect.c ****  * @param sw shadow width
ARM GAS  /var/folders/21/t9g5rlb91ys800n5npymflf80000gn/T//cca4dfU0.s 			page 18


 943:lvgl/src/draw/sw/lv_draw_sw_rect.c ****  * @param r radius
 944:lvgl/src/draw/sw/lv_draw_sw_rect.c ****  */
 945:lvgl/src/draw/sw/lv_draw_sw_rect.c **** static void LV_ATTRIBUTE_FAST_MEM shadow_draw_corner_buf(const lv_area_t * coords, uint16_t * sh_bu
 946:lvgl/src/draw/sw/lv_draw_sw_rect.c ****                                                          lv_coord_t sw, lv_coord_t r)
 947:lvgl/src/draw/sw/lv_draw_sw_rect.c **** {
 948:lvgl/src/draw/sw/lv_draw_sw_rect.c ****     int32_t sw_ori = sw;
 949:lvgl/src/draw/sw/lv_draw_sw_rect.c ****     int32_t size = sw_ori  + r;
 950:lvgl/src/draw/sw/lv_draw_sw_rect.c **** 
 951:lvgl/src/draw/sw/lv_draw_sw_rect.c ****     lv_area_t sh_area;
 952:lvgl/src/draw/sw/lv_draw_sw_rect.c ****     lv_area_copy(&sh_area, coords);
 953:lvgl/src/draw/sw/lv_draw_sw_rect.c ****     sh_area.x2 = sw / 2 + r - 1  - ((sw & 1) ? 0 : 1);
 954:lvgl/src/draw/sw/lv_draw_sw_rect.c ****     sh_area.y1 = sw / 2 + 1;
 955:lvgl/src/draw/sw/lv_draw_sw_rect.c **** 
 956:lvgl/src/draw/sw/lv_draw_sw_rect.c ****     sh_area.x1 = sh_area.x2 - lv_area_get_width(coords);
 957:lvgl/src/draw/sw/lv_draw_sw_rect.c ****     sh_area.y2 = sh_area.y1 + lv_area_get_height(coords);
 958:lvgl/src/draw/sw/lv_draw_sw_rect.c **** 
 959:lvgl/src/draw/sw/lv_draw_sw_rect.c ****     lv_draw_mask_radius_param_t mask_param;
 960:lvgl/src/draw/sw/lv_draw_sw_rect.c ****     lv_draw_mask_radius_init(&mask_param, &sh_area, r, false);
 961:lvgl/src/draw/sw/lv_draw_sw_rect.c **** 
 962:lvgl/src/draw/sw/lv_draw_sw_rect.c **** #if SHADOW_ENHANCE
 963:lvgl/src/draw/sw/lv_draw_sw_rect.c ****     /*Set half shadow width width because blur will be repeated*/
 964:lvgl/src/draw/sw/lv_draw_sw_rect.c ****     if(sw_ori == 1) sw = 1;
 965:lvgl/src/draw/sw/lv_draw_sw_rect.c ****     else sw = sw_ori >> 1;
 966:lvgl/src/draw/sw/lv_draw_sw_rect.c **** #endif
 967:lvgl/src/draw/sw/lv_draw_sw_rect.c **** 
 968:lvgl/src/draw/sw/lv_draw_sw_rect.c ****     int32_t y;
 969:lvgl/src/draw/sw/lv_draw_sw_rect.c ****     lv_opa_t * mask_line = lv_mem_buf_get(size);
 970:lvgl/src/draw/sw/lv_draw_sw_rect.c ****     uint16_t * sh_ups_tmp_buf = (uint16_t *)sh_buf;
 971:lvgl/src/draw/sw/lv_draw_sw_rect.c ****     for(y = 0; y < size; y++) {
 972:lvgl/src/draw/sw/lv_draw_sw_rect.c ****         lv_memset_ff(mask_line, size);
 973:lvgl/src/draw/sw/lv_draw_sw_rect.c ****         lv_draw_mask_res_t mask_res = mask_param.dsc.cb(mask_line, 0, y, size, &mask_param);
 974:lvgl/src/draw/sw/lv_draw_sw_rect.c ****         if(mask_res == LV_DRAW_MASK_RES_TRANSP) {
 975:lvgl/src/draw/sw/lv_draw_sw_rect.c ****             lv_memset_00(sh_ups_tmp_buf, size * sizeof(sh_ups_tmp_buf[0]));
 976:lvgl/src/draw/sw/lv_draw_sw_rect.c ****         }
 977:lvgl/src/draw/sw/lv_draw_sw_rect.c ****         else {
 978:lvgl/src/draw/sw/lv_draw_sw_rect.c ****             int32_t i;
 979:lvgl/src/draw/sw/lv_draw_sw_rect.c ****             sh_ups_tmp_buf[0] = (mask_line[0] << SHADOW_UPSCALE_SHIFT) / sw;
 980:lvgl/src/draw/sw/lv_draw_sw_rect.c ****             for(i = 1; i < size; i++) {
 981:lvgl/src/draw/sw/lv_draw_sw_rect.c ****                 if(mask_line[i] == mask_line[i - 1]) sh_ups_tmp_buf[i] = sh_ups_tmp_buf[i - 1];
 982:lvgl/src/draw/sw/lv_draw_sw_rect.c ****                 else  sh_ups_tmp_buf[i] = (mask_line[i] << SHADOW_UPSCALE_SHIFT) / sw;
 983:lvgl/src/draw/sw/lv_draw_sw_rect.c ****             }
 984:lvgl/src/draw/sw/lv_draw_sw_rect.c ****         }
 985:lvgl/src/draw/sw/lv_draw_sw_rect.c **** 
 986:lvgl/src/draw/sw/lv_draw_sw_rect.c ****         sh_ups_tmp_buf += size;
 987:lvgl/src/draw/sw/lv_draw_sw_rect.c ****     }
 988:lvgl/src/draw/sw/lv_draw_sw_rect.c ****     lv_mem_buf_release(mask_line);
 989:lvgl/src/draw/sw/lv_draw_sw_rect.c **** 
 990:lvgl/src/draw/sw/lv_draw_sw_rect.c ****     lv_draw_mask_free_param(&mask_param);
 991:lvgl/src/draw/sw/lv_draw_sw_rect.c **** 
 992:lvgl/src/draw/sw/lv_draw_sw_rect.c ****     if(sw == 1) {
 993:lvgl/src/draw/sw/lv_draw_sw_rect.c ****         int32_t i;
 994:lvgl/src/draw/sw/lv_draw_sw_rect.c ****         lv_opa_t * res_buf = (lv_opa_t *)sh_buf;
 995:lvgl/src/draw/sw/lv_draw_sw_rect.c ****         for(i = 0; i < size * size; i++) {
 996:lvgl/src/draw/sw/lv_draw_sw_rect.c ****             res_buf[i] = (sh_buf[i] >> SHADOW_UPSCALE_SHIFT);
 997:lvgl/src/draw/sw/lv_draw_sw_rect.c ****         }
 998:lvgl/src/draw/sw/lv_draw_sw_rect.c ****         return;
 999:lvgl/src/draw/sw/lv_draw_sw_rect.c ****     }
ARM GAS  /var/folders/21/t9g5rlb91ys800n5npymflf80000gn/T//cca4dfU0.s 			page 19


1000:lvgl/src/draw/sw/lv_draw_sw_rect.c **** 
1001:lvgl/src/draw/sw/lv_draw_sw_rect.c ****     shadow_blur_corner(size, sw, sh_buf);
1002:lvgl/src/draw/sw/lv_draw_sw_rect.c **** 
1003:lvgl/src/draw/sw/lv_draw_sw_rect.c **** #if SHADOW_ENHANCE == 0
1004:lvgl/src/draw/sw/lv_draw_sw_rect.c ****     /*The result is required in lv_opa_t not uint16_t*/
1005:lvgl/src/draw/sw/lv_draw_sw_rect.c ****     uint32_t x;
1006:lvgl/src/draw/sw/lv_draw_sw_rect.c ****     lv_opa_t * res_buf = (lv_opa_t *)sh_buf;
1007:lvgl/src/draw/sw/lv_draw_sw_rect.c ****     for(x = 0; x < size * size; x++) {
1008:lvgl/src/draw/sw/lv_draw_sw_rect.c ****         res_buf[x] = sh_buf[x];
1009:lvgl/src/draw/sw/lv_draw_sw_rect.c ****     }
1010:lvgl/src/draw/sw/lv_draw_sw_rect.c **** #else
1011:lvgl/src/draw/sw/lv_draw_sw_rect.c ****     sw += sw_ori & 1;
1012:lvgl/src/draw/sw/lv_draw_sw_rect.c ****     if(sw > 1) {
1013:lvgl/src/draw/sw/lv_draw_sw_rect.c ****         uint32_t i;
1014:lvgl/src/draw/sw/lv_draw_sw_rect.c ****         uint32_t max_v_div = (LV_OPA_COVER << SHADOW_UPSCALE_SHIFT) / sw;
1015:lvgl/src/draw/sw/lv_draw_sw_rect.c ****         for(i = 0; i < (uint32_t)size * size; i++) {
1016:lvgl/src/draw/sw/lv_draw_sw_rect.c ****             if(sh_buf[i] == 0) continue;
1017:lvgl/src/draw/sw/lv_draw_sw_rect.c ****             else if(sh_buf[i] == LV_OPA_COVER) sh_buf[i] = max_v_div;
1018:lvgl/src/draw/sw/lv_draw_sw_rect.c ****             else  sh_buf[i] = (sh_buf[i] << SHADOW_UPSCALE_SHIFT) / sw;
1019:lvgl/src/draw/sw/lv_draw_sw_rect.c ****         }
1020:lvgl/src/draw/sw/lv_draw_sw_rect.c **** 
1021:lvgl/src/draw/sw/lv_draw_sw_rect.c ****         shadow_blur_corner(size, sw, sh_buf);
1022:lvgl/src/draw/sw/lv_draw_sw_rect.c ****     }
1023:lvgl/src/draw/sw/lv_draw_sw_rect.c ****     int32_t x;
1024:lvgl/src/draw/sw/lv_draw_sw_rect.c ****     lv_opa_t * res_buf = (lv_opa_t *)sh_buf;
1025:lvgl/src/draw/sw/lv_draw_sw_rect.c ****     for(x = 0; x < size * size; x++) {
1026:lvgl/src/draw/sw/lv_draw_sw_rect.c ****         res_buf[x] = sh_buf[x];
1027:lvgl/src/draw/sw/lv_draw_sw_rect.c ****     }
1028:lvgl/src/draw/sw/lv_draw_sw_rect.c **** #endif
1029:lvgl/src/draw/sw/lv_draw_sw_rect.c **** 
1030:lvgl/src/draw/sw/lv_draw_sw_rect.c **** }
1031:lvgl/src/draw/sw/lv_draw_sw_rect.c **** 
1032:lvgl/src/draw/sw/lv_draw_sw_rect.c **** static void LV_ATTRIBUTE_FAST_MEM shadow_blur_corner(lv_coord_t size, lv_coord_t sw, uint16_t * sh_
1033:lvgl/src/draw/sw/lv_draw_sw_rect.c **** {
1034:lvgl/src/draw/sw/lv_draw_sw_rect.c ****     int32_t s_left = sw >> 1;
1035:lvgl/src/draw/sw/lv_draw_sw_rect.c ****     int32_t s_right = (sw >> 1);
1036:lvgl/src/draw/sw/lv_draw_sw_rect.c ****     if((sw & 1) == 0) s_left--;
1037:lvgl/src/draw/sw/lv_draw_sw_rect.c **** 
1038:lvgl/src/draw/sw/lv_draw_sw_rect.c ****     /*Horizontal blur*/
1039:lvgl/src/draw/sw/lv_draw_sw_rect.c ****     uint16_t * sh_ups_blur_buf = lv_mem_buf_get(size * sizeof(uint16_t));
1040:lvgl/src/draw/sw/lv_draw_sw_rect.c **** 
1041:lvgl/src/draw/sw/lv_draw_sw_rect.c ****     int32_t x;
1042:lvgl/src/draw/sw/lv_draw_sw_rect.c ****     int32_t y;
1043:lvgl/src/draw/sw/lv_draw_sw_rect.c **** 
1044:lvgl/src/draw/sw/lv_draw_sw_rect.c ****     uint16_t * sh_ups_tmp_buf = sh_ups_buf;
1045:lvgl/src/draw/sw/lv_draw_sw_rect.c **** 
1046:lvgl/src/draw/sw/lv_draw_sw_rect.c ****     for(y = 0; y < size; y++) {
1047:lvgl/src/draw/sw/lv_draw_sw_rect.c ****         int32_t v = sh_ups_tmp_buf[size - 1] * sw;
1048:lvgl/src/draw/sw/lv_draw_sw_rect.c ****         for(x = size - 1; x >= 0; x--) {
1049:lvgl/src/draw/sw/lv_draw_sw_rect.c ****             sh_ups_blur_buf[x] = v;
1050:lvgl/src/draw/sw/lv_draw_sw_rect.c **** 
1051:lvgl/src/draw/sw/lv_draw_sw_rect.c ****             /*Forget the right pixel*/
1052:lvgl/src/draw/sw/lv_draw_sw_rect.c ****             uint32_t right_val = 0;
1053:lvgl/src/draw/sw/lv_draw_sw_rect.c ****             if(x + s_right < size) right_val = sh_ups_tmp_buf[x + s_right];
1054:lvgl/src/draw/sw/lv_draw_sw_rect.c ****             v -= right_val;
1055:lvgl/src/draw/sw/lv_draw_sw_rect.c **** 
1056:lvgl/src/draw/sw/lv_draw_sw_rect.c ****             /*Add the left pixel*/
ARM GAS  /var/folders/21/t9g5rlb91ys800n5npymflf80000gn/T//cca4dfU0.s 			page 20


1057:lvgl/src/draw/sw/lv_draw_sw_rect.c ****             uint32_t left_val;
1058:lvgl/src/draw/sw/lv_draw_sw_rect.c ****             if(x - s_left - 1 < 0) left_val = sh_ups_tmp_buf[0];
1059:lvgl/src/draw/sw/lv_draw_sw_rect.c ****             else left_val = sh_ups_tmp_buf[x - s_left - 1];
1060:lvgl/src/draw/sw/lv_draw_sw_rect.c ****             v += left_val;
1061:lvgl/src/draw/sw/lv_draw_sw_rect.c ****         }
1062:lvgl/src/draw/sw/lv_draw_sw_rect.c ****         lv_memcpy(sh_ups_tmp_buf, sh_ups_blur_buf, size * sizeof(uint16_t));
1063:lvgl/src/draw/sw/lv_draw_sw_rect.c ****         sh_ups_tmp_buf += size;
1064:lvgl/src/draw/sw/lv_draw_sw_rect.c ****     }
1065:lvgl/src/draw/sw/lv_draw_sw_rect.c **** 
1066:lvgl/src/draw/sw/lv_draw_sw_rect.c ****     /*Vertical blur*/
1067:lvgl/src/draw/sw/lv_draw_sw_rect.c ****     uint32_t i;
1068:lvgl/src/draw/sw/lv_draw_sw_rect.c ****     uint32_t max_v = LV_OPA_COVER << SHADOW_UPSCALE_SHIFT;
1069:lvgl/src/draw/sw/lv_draw_sw_rect.c ****     uint32_t max_v_div = max_v / sw;
1070:lvgl/src/draw/sw/lv_draw_sw_rect.c ****     for(i = 0; i < (uint32_t)size * size; i++) {
1071:lvgl/src/draw/sw/lv_draw_sw_rect.c ****         if(sh_ups_buf[i] == 0) continue;
1072:lvgl/src/draw/sw/lv_draw_sw_rect.c ****         else if(sh_ups_buf[i] == max_v) sh_ups_buf[i] = max_v_div;
1073:lvgl/src/draw/sw/lv_draw_sw_rect.c ****         else sh_ups_buf[i] = sh_ups_buf[i] / sw;
1074:lvgl/src/draw/sw/lv_draw_sw_rect.c ****     }
1075:lvgl/src/draw/sw/lv_draw_sw_rect.c **** 
1076:lvgl/src/draw/sw/lv_draw_sw_rect.c ****     for(x = 0; x < size; x++) {
1077:lvgl/src/draw/sw/lv_draw_sw_rect.c ****         sh_ups_tmp_buf = &sh_ups_buf[x];
1078:lvgl/src/draw/sw/lv_draw_sw_rect.c ****         int32_t v = sh_ups_tmp_buf[0] * sw;
1079:lvgl/src/draw/sw/lv_draw_sw_rect.c ****         for(y = 0; y < size ; y++, sh_ups_tmp_buf += size) {
1080:lvgl/src/draw/sw/lv_draw_sw_rect.c ****             sh_ups_blur_buf[y] = v < 0 ? 0 : (v >> SHADOW_UPSCALE_SHIFT);
1081:lvgl/src/draw/sw/lv_draw_sw_rect.c **** 
1082:lvgl/src/draw/sw/lv_draw_sw_rect.c ****             /*Forget the top pixel*/
1083:lvgl/src/draw/sw/lv_draw_sw_rect.c ****             uint32_t top_val;
1084:lvgl/src/draw/sw/lv_draw_sw_rect.c ****             if(y - s_right <= 0) top_val = sh_ups_tmp_buf[0];
1085:lvgl/src/draw/sw/lv_draw_sw_rect.c ****             else top_val = sh_ups_buf[(y - s_right) * size + x];
1086:lvgl/src/draw/sw/lv_draw_sw_rect.c ****             v -= top_val;
1087:lvgl/src/draw/sw/lv_draw_sw_rect.c **** 
1088:lvgl/src/draw/sw/lv_draw_sw_rect.c ****             /*Add the bottom pixel*/
1089:lvgl/src/draw/sw/lv_draw_sw_rect.c ****             uint32_t bottom_val;
1090:lvgl/src/draw/sw/lv_draw_sw_rect.c ****             if(y + s_left + 1 < size) bottom_val = sh_ups_buf[(y + s_left + 1) * size + x];
1091:lvgl/src/draw/sw/lv_draw_sw_rect.c ****             else bottom_val = sh_ups_buf[(size - 1) * size + x];
1092:lvgl/src/draw/sw/lv_draw_sw_rect.c ****             v += bottom_val;
1093:lvgl/src/draw/sw/lv_draw_sw_rect.c ****         }
1094:lvgl/src/draw/sw/lv_draw_sw_rect.c **** 
1095:lvgl/src/draw/sw/lv_draw_sw_rect.c ****         /*Write back the result into `sh_ups_buf`*/
1096:lvgl/src/draw/sw/lv_draw_sw_rect.c ****         sh_ups_tmp_buf = &sh_ups_buf[x];
1097:lvgl/src/draw/sw/lv_draw_sw_rect.c ****         for(y = 0; y < size; y++, sh_ups_tmp_buf += size) {
1098:lvgl/src/draw/sw/lv_draw_sw_rect.c ****             (*sh_ups_tmp_buf) = sh_ups_blur_buf[y];
1099:lvgl/src/draw/sw/lv_draw_sw_rect.c ****         }
1100:lvgl/src/draw/sw/lv_draw_sw_rect.c ****     }
1101:lvgl/src/draw/sw/lv_draw_sw_rect.c **** 
1102:lvgl/src/draw/sw/lv_draw_sw_rect.c ****     lv_mem_buf_release(sh_ups_blur_buf);
1103:lvgl/src/draw/sw/lv_draw_sw_rect.c **** }
1104:lvgl/src/draw/sw/lv_draw_sw_rect.c **** #endif
1105:lvgl/src/draw/sw/lv_draw_sw_rect.c **** 
1106:lvgl/src/draw/sw/lv_draw_sw_rect.c **** static void draw_outline(lv_draw_ctx_t * draw_ctx, const lv_draw_rect_dsc_t * dsc, const lv_area_t 
1107:lvgl/src/draw/sw/lv_draw_sw_rect.c **** {
1108:lvgl/src/draw/sw/lv_draw_sw_rect.c ****     if(dsc->outline_opa <= LV_OPA_MIN) return;
1109:lvgl/src/draw/sw/lv_draw_sw_rect.c ****     if(dsc->outline_width == 0) return;
1110:lvgl/src/draw/sw/lv_draw_sw_rect.c **** 
1111:lvgl/src/draw/sw/lv_draw_sw_rect.c ****     lv_opa_t opa = dsc->outline_opa;
1112:lvgl/src/draw/sw/lv_draw_sw_rect.c **** 
1113:lvgl/src/draw/sw/lv_draw_sw_rect.c ****     if(opa > LV_OPA_MAX) opa = LV_OPA_COVER;
ARM GAS  /var/folders/21/t9g5rlb91ys800n5npymflf80000gn/T//cca4dfU0.s 			page 21


1114:lvgl/src/draw/sw/lv_draw_sw_rect.c **** 
1115:lvgl/src/draw/sw/lv_draw_sw_rect.c ****     /*Get the inner radius*/
1116:lvgl/src/draw/sw/lv_draw_sw_rect.c ****     lv_area_t area_inner;
1117:lvgl/src/draw/sw/lv_draw_sw_rect.c ****     lv_area_copy(&area_inner, coords);
1118:lvgl/src/draw/sw/lv_draw_sw_rect.c **** 
1119:lvgl/src/draw/sw/lv_draw_sw_rect.c ****     /*Bring the outline closer to make sure there is no color bleeding with pad=0*/
1120:lvgl/src/draw/sw/lv_draw_sw_rect.c ****     lv_coord_t pad = dsc->outline_pad - 1;
1121:lvgl/src/draw/sw/lv_draw_sw_rect.c ****     area_inner.x1 -= pad;
1122:lvgl/src/draw/sw/lv_draw_sw_rect.c ****     area_inner.y1 -= pad;
1123:lvgl/src/draw/sw/lv_draw_sw_rect.c ****     area_inner.x2 += pad;
1124:lvgl/src/draw/sw/lv_draw_sw_rect.c ****     area_inner.y2 += pad;
1125:lvgl/src/draw/sw/lv_draw_sw_rect.c **** 
1126:lvgl/src/draw/sw/lv_draw_sw_rect.c ****     lv_area_t area_outer;
1127:lvgl/src/draw/sw/lv_draw_sw_rect.c ****     lv_area_copy(&area_outer, &area_inner);
1128:lvgl/src/draw/sw/lv_draw_sw_rect.c **** 
1129:lvgl/src/draw/sw/lv_draw_sw_rect.c ****     area_outer.x1 -= dsc->outline_width;
1130:lvgl/src/draw/sw/lv_draw_sw_rect.c ****     area_outer.x2 += dsc->outline_width;
1131:lvgl/src/draw/sw/lv_draw_sw_rect.c ****     area_outer.y1 -= dsc->outline_width;
1132:lvgl/src/draw/sw/lv_draw_sw_rect.c ****     area_outer.y2 += dsc->outline_width;
1133:lvgl/src/draw/sw/lv_draw_sw_rect.c **** 
1134:lvgl/src/draw/sw/lv_draw_sw_rect.c ****     int32_t inner_w = lv_area_get_width(&area_inner);
1135:lvgl/src/draw/sw/lv_draw_sw_rect.c ****     int32_t inner_h = lv_area_get_height(&area_inner);
1136:lvgl/src/draw/sw/lv_draw_sw_rect.c ****     int32_t rin = dsc->radius;
1137:lvgl/src/draw/sw/lv_draw_sw_rect.c ****     int32_t short_side = LV_MIN(inner_w, inner_h);
1138:lvgl/src/draw/sw/lv_draw_sw_rect.c ****     if(rin > short_side >> 1) rin = short_side >> 1;
1139:lvgl/src/draw/sw/lv_draw_sw_rect.c **** 
1140:lvgl/src/draw/sw/lv_draw_sw_rect.c ****     lv_coord_t rout = rin + dsc->outline_width;
1141:lvgl/src/draw/sw/lv_draw_sw_rect.c **** 
1142:lvgl/src/draw/sw/lv_draw_sw_rect.c ****     draw_border_generic(draw_ctx, &area_outer, &area_inner, rout, rin, dsc->outline_color, dsc->out
1143:lvgl/src/draw/sw/lv_draw_sw_rect.c ****                         dsc->blend_mode);
1144:lvgl/src/draw/sw/lv_draw_sw_rect.c **** }
1145:lvgl/src/draw/sw/lv_draw_sw_rect.c **** 
1146:lvgl/src/draw/sw/lv_draw_sw_rect.c **** void draw_border_generic(lv_draw_ctx_t * draw_ctx, const lv_area_t * outer_area, const lv_area_t * 
1147:lvgl/src/draw/sw/lv_draw_sw_rect.c ****                          lv_coord_t rout, lv_coord_t rin, lv_color_t color, lv_opa_t opa, lv_blend_
1148:lvgl/src/draw/sw/lv_draw_sw_rect.c **** {
1149:lvgl/src/draw/sw/lv_draw_sw_rect.c ****     opa = opa >= LV_OPA_COVER ? LV_OPA_COVER : opa;
1150:lvgl/src/draw/sw/lv_draw_sw_rect.c **** 
1151:lvgl/src/draw/sw/lv_draw_sw_rect.c ****     bool mask_any = lv_draw_mask_is_any(outer_area);
1152:lvgl/src/draw/sw/lv_draw_sw_rect.c **** 
1153:lvgl/src/draw/sw/lv_draw_sw_rect.c **** #if LV_DRAW_COMPLEX
1154:lvgl/src/draw/sw/lv_draw_sw_rect.c **** 
1155:lvgl/src/draw/sw/lv_draw_sw_rect.c ****     if(!mask_any && rout == 0 && rin == 0) {
1156:lvgl/src/draw/sw/lv_draw_sw_rect.c ****         draw_border_simple(draw_ctx, outer_area, inner_area, color, opa);
1157:lvgl/src/draw/sw/lv_draw_sw_rect.c ****         return;
1158:lvgl/src/draw/sw/lv_draw_sw_rect.c ****     }
1159:lvgl/src/draw/sw/lv_draw_sw_rect.c **** 
1160:lvgl/src/draw/sw/lv_draw_sw_rect.c ****     /*Get clipped draw area which is the real draw area.
1161:lvgl/src/draw/sw/lv_draw_sw_rect.c ****      *It is always the same or inside `coords`*/
1162:lvgl/src/draw/sw/lv_draw_sw_rect.c ****     lv_area_t draw_area;
1163:lvgl/src/draw/sw/lv_draw_sw_rect.c ****     if(!_lv_area_intersect(&draw_area, outer_area, draw_ctx->clip_area)) return;
1164:lvgl/src/draw/sw/lv_draw_sw_rect.c ****     int32_t draw_area_w = lv_area_get_width(&draw_area);
1165:lvgl/src/draw/sw/lv_draw_sw_rect.c **** 
1166:lvgl/src/draw/sw/lv_draw_sw_rect.c ****     lv_draw_sw_blend_dsc_t blend_dsc;
1167:lvgl/src/draw/sw/lv_draw_sw_rect.c ****     lv_memset_00(&blend_dsc, sizeof(blend_dsc));
1168:lvgl/src/draw/sw/lv_draw_sw_rect.c ****     blend_dsc.mask_buf = lv_mem_buf_get(draw_area_w);;
1169:lvgl/src/draw/sw/lv_draw_sw_rect.c **** 
1170:lvgl/src/draw/sw/lv_draw_sw_rect.c ****     /*Create mask for the outer area*/
ARM GAS  /var/folders/21/t9g5rlb91ys800n5npymflf80000gn/T//cca4dfU0.s 			page 22


1171:lvgl/src/draw/sw/lv_draw_sw_rect.c ****     int16_t mask_rout_id = LV_MASK_ID_INV;
1172:lvgl/src/draw/sw/lv_draw_sw_rect.c ****     lv_draw_mask_radius_param_t mask_rout_param;
1173:lvgl/src/draw/sw/lv_draw_sw_rect.c ****     if(rout > 0) {
1174:lvgl/src/draw/sw/lv_draw_sw_rect.c ****         lv_draw_mask_radius_init(&mask_rout_param, outer_area, rout, false);
1175:lvgl/src/draw/sw/lv_draw_sw_rect.c ****         mask_rout_id = lv_draw_mask_add(&mask_rout_param, NULL);
1176:lvgl/src/draw/sw/lv_draw_sw_rect.c ****     }
1177:lvgl/src/draw/sw/lv_draw_sw_rect.c **** 
1178:lvgl/src/draw/sw/lv_draw_sw_rect.c ****     /*Create mask for the inner mask*/
1179:lvgl/src/draw/sw/lv_draw_sw_rect.c ****     lv_draw_mask_radius_param_t mask_rin_param;
1180:lvgl/src/draw/sw/lv_draw_sw_rect.c ****     lv_draw_mask_radius_init(&mask_rin_param, inner_area, rin, true);
1181:lvgl/src/draw/sw/lv_draw_sw_rect.c ****     int16_t mask_rin_id = lv_draw_mask_add(&mask_rin_param, NULL);
1182:lvgl/src/draw/sw/lv_draw_sw_rect.c **** 
1183:lvgl/src/draw/sw/lv_draw_sw_rect.c ****     int32_t h;
1184:lvgl/src/draw/sw/lv_draw_sw_rect.c ****     lv_area_t blend_area;
1185:lvgl/src/draw/sw/lv_draw_sw_rect.c ****     blend_dsc.blend_area = &blend_area;
1186:lvgl/src/draw/sw/lv_draw_sw_rect.c ****     blend_dsc.mask_area = &blend_area;
1187:lvgl/src/draw/sw/lv_draw_sw_rect.c ****     blend_dsc.color = color;
1188:lvgl/src/draw/sw/lv_draw_sw_rect.c ****     blend_dsc.opa = opa;
1189:lvgl/src/draw/sw/lv_draw_sw_rect.c ****     blend_dsc.blend_mode = blend_mode;
1190:lvgl/src/draw/sw/lv_draw_sw_rect.c **** 
1191:lvgl/src/draw/sw/lv_draw_sw_rect.c ****     /*Calculate the x and y coordinates where the straight parts area*/
1192:lvgl/src/draw/sw/lv_draw_sw_rect.c ****     lv_area_t core_area;
1193:lvgl/src/draw/sw/lv_draw_sw_rect.c ****     core_area.x1 = LV_MAX(outer_area->x1 + rout, inner_area->x1);
1194:lvgl/src/draw/sw/lv_draw_sw_rect.c ****     core_area.x2 = LV_MIN(outer_area->x2 - rout, inner_area->x2);
1195:lvgl/src/draw/sw/lv_draw_sw_rect.c ****     core_area.y1 = LV_MAX(outer_area->y1 + rout, inner_area->y1);
1196:lvgl/src/draw/sw/lv_draw_sw_rect.c ****     core_area.y2 = LV_MIN(outer_area->y2 - rout, inner_area->y2);
1197:lvgl/src/draw/sw/lv_draw_sw_rect.c ****     lv_coord_t core_w = lv_area_get_width(&core_area);
1198:lvgl/src/draw/sw/lv_draw_sw_rect.c **** 
1199:lvgl/src/draw/sw/lv_draw_sw_rect.c ****     bool top_side = outer_area->y1 <= inner_area->y1 ? true : false;
1200:lvgl/src/draw/sw/lv_draw_sw_rect.c ****     bool bottom_side = outer_area->y2 >= inner_area->y2 ? true : false;
1201:lvgl/src/draw/sw/lv_draw_sw_rect.c **** 
1202:lvgl/src/draw/sw/lv_draw_sw_rect.c ****     /*If there is other masks, need to draw line by line*/
1203:lvgl/src/draw/sw/lv_draw_sw_rect.c ****     if(mask_any) {
1204:lvgl/src/draw/sw/lv_draw_sw_rect.c ****         blend_area.x1 = draw_area.x1;
1205:lvgl/src/draw/sw/lv_draw_sw_rect.c ****         blend_area.x2 = draw_area.x2;
1206:lvgl/src/draw/sw/lv_draw_sw_rect.c ****         for(h = draw_area.y1; h <= draw_area.y2; h++) {
1207:lvgl/src/draw/sw/lv_draw_sw_rect.c ****             if(!top_side && h < core_area.y1) continue;
1208:lvgl/src/draw/sw/lv_draw_sw_rect.c ****             if(!bottom_side && h > core_area.y2) break;
1209:lvgl/src/draw/sw/lv_draw_sw_rect.c **** 
1210:lvgl/src/draw/sw/lv_draw_sw_rect.c ****             blend_area.y1 = h;
1211:lvgl/src/draw/sw/lv_draw_sw_rect.c ****             blend_area.y2 = h;
1212:lvgl/src/draw/sw/lv_draw_sw_rect.c **** 
1213:lvgl/src/draw/sw/lv_draw_sw_rect.c ****             lv_memset_ff(blend_dsc.mask_buf, draw_area_w);
1214:lvgl/src/draw/sw/lv_draw_sw_rect.c ****             blend_dsc.mask_res = lv_draw_mask_apply(blend_dsc.mask_buf, draw_area.x1, h, draw_area_
1215:lvgl/src/draw/sw/lv_draw_sw_rect.c ****             lv_draw_sw_blend(draw_ctx, &blend_dsc);
1216:lvgl/src/draw/sw/lv_draw_sw_rect.c ****         }
1217:lvgl/src/draw/sw/lv_draw_sw_rect.c **** 
1218:lvgl/src/draw/sw/lv_draw_sw_rect.c ****         lv_draw_mask_free_param(&mask_rin_param);
1219:lvgl/src/draw/sw/lv_draw_sw_rect.c ****         lv_draw_mask_remove_id(mask_rin_id);
1220:lvgl/src/draw/sw/lv_draw_sw_rect.c ****         if(mask_rout_id != LV_MASK_ID_INV) {
1221:lvgl/src/draw/sw/lv_draw_sw_rect.c ****             lv_draw_mask_free_param(&mask_rout_param);
1222:lvgl/src/draw/sw/lv_draw_sw_rect.c ****             lv_draw_mask_remove_id(mask_rout_id);
1223:lvgl/src/draw/sw/lv_draw_sw_rect.c ****         }
1224:lvgl/src/draw/sw/lv_draw_sw_rect.c ****         lv_mem_buf_release(blend_dsc.mask_buf);
1225:lvgl/src/draw/sw/lv_draw_sw_rect.c ****         return;
1226:lvgl/src/draw/sw/lv_draw_sw_rect.c ****     }
1227:lvgl/src/draw/sw/lv_draw_sw_rect.c **** 
ARM GAS  /var/folders/21/t9g5rlb91ys800n5npymflf80000gn/T//cca4dfU0.s 			page 23


1228:lvgl/src/draw/sw/lv_draw_sw_rect.c ****     /*No masks*/
1229:lvgl/src/draw/sw/lv_draw_sw_rect.c ****     bool left_side = outer_area->x1 <= inner_area->x1 ? true : false;
1230:lvgl/src/draw/sw/lv_draw_sw_rect.c ****     bool right_side = outer_area->x2 >= inner_area->x2 ? true : false;
1231:lvgl/src/draw/sw/lv_draw_sw_rect.c **** 
1232:lvgl/src/draw/sw/lv_draw_sw_rect.c ****     bool split_hor = true;
1233:lvgl/src/draw/sw/lv_draw_sw_rect.c ****     if(left_side && right_side && top_side && bottom_side &&
1234:lvgl/src/draw/sw/lv_draw_sw_rect.c ****        core_w < SPLIT_LIMIT) {
1235:lvgl/src/draw/sw/lv_draw_sw_rect.c ****         split_hor = false;
1236:lvgl/src/draw/sw/lv_draw_sw_rect.c ****     }
1237:lvgl/src/draw/sw/lv_draw_sw_rect.c **** 
1238:lvgl/src/draw/sw/lv_draw_sw_rect.c ****     blend_dsc.mask_res = LV_DRAW_MASK_RES_FULL_COVER;
1239:lvgl/src/draw/sw/lv_draw_sw_rect.c ****     /*Draw the straight lines first if they are long enough*/
1240:lvgl/src/draw/sw/lv_draw_sw_rect.c ****     if(top_side && split_hor) {
1241:lvgl/src/draw/sw/lv_draw_sw_rect.c ****         blend_area.x1 = core_area.x1;
1242:lvgl/src/draw/sw/lv_draw_sw_rect.c ****         blend_area.x2 = core_area.x2;
1243:lvgl/src/draw/sw/lv_draw_sw_rect.c ****         blend_area.y1 = outer_area->y1;
1244:lvgl/src/draw/sw/lv_draw_sw_rect.c ****         blend_area.y2 = inner_area->y1 - 1;
1245:lvgl/src/draw/sw/lv_draw_sw_rect.c ****         lv_draw_sw_blend(draw_ctx, &blend_dsc);
1246:lvgl/src/draw/sw/lv_draw_sw_rect.c ****     }
1247:lvgl/src/draw/sw/lv_draw_sw_rect.c **** 
1248:lvgl/src/draw/sw/lv_draw_sw_rect.c ****     if(bottom_side && split_hor) {
1249:lvgl/src/draw/sw/lv_draw_sw_rect.c ****         blend_area.x1 = core_area.x1;
1250:lvgl/src/draw/sw/lv_draw_sw_rect.c ****         blend_area.x2 = core_area.x2;
1251:lvgl/src/draw/sw/lv_draw_sw_rect.c ****         blend_area.y1 = inner_area->y2 + 1;
1252:lvgl/src/draw/sw/lv_draw_sw_rect.c ****         blend_area.y2 = outer_area->y2;
1253:lvgl/src/draw/sw/lv_draw_sw_rect.c ****         lv_draw_sw_blend(draw_ctx, &blend_dsc);
1254:lvgl/src/draw/sw/lv_draw_sw_rect.c ****     }
1255:lvgl/src/draw/sw/lv_draw_sw_rect.c **** 
1256:lvgl/src/draw/sw/lv_draw_sw_rect.c ****     if(left_side) {
1257:lvgl/src/draw/sw/lv_draw_sw_rect.c ****         blend_area.x1 = outer_area->x1;
1258:lvgl/src/draw/sw/lv_draw_sw_rect.c ****         blend_area.x2 = inner_area->x1 - 1;
1259:lvgl/src/draw/sw/lv_draw_sw_rect.c ****         blend_area.y1 = core_area.y1;
1260:lvgl/src/draw/sw/lv_draw_sw_rect.c ****         blend_area.y2 = core_area.y2;
1261:lvgl/src/draw/sw/lv_draw_sw_rect.c ****         lv_draw_sw_blend(draw_ctx, &blend_dsc);
1262:lvgl/src/draw/sw/lv_draw_sw_rect.c ****     }
1263:lvgl/src/draw/sw/lv_draw_sw_rect.c **** 
1264:lvgl/src/draw/sw/lv_draw_sw_rect.c ****     if(right_side) {
1265:lvgl/src/draw/sw/lv_draw_sw_rect.c ****         blend_area.x1 = inner_area->x2 + 1;
1266:lvgl/src/draw/sw/lv_draw_sw_rect.c ****         blend_area.x2 = outer_area->x2;
1267:lvgl/src/draw/sw/lv_draw_sw_rect.c ****         blend_area.y1 = core_area.y1;
1268:lvgl/src/draw/sw/lv_draw_sw_rect.c ****         blend_area.y2 = core_area.y2;
1269:lvgl/src/draw/sw/lv_draw_sw_rect.c ****         lv_draw_sw_blend(draw_ctx, &blend_dsc);
1270:lvgl/src/draw/sw/lv_draw_sw_rect.c ****     }
1271:lvgl/src/draw/sw/lv_draw_sw_rect.c **** 
1272:lvgl/src/draw/sw/lv_draw_sw_rect.c ****     /*Draw the corners*/
1273:lvgl/src/draw/sw/lv_draw_sw_rect.c ****     lv_coord_t blend_w;
1274:lvgl/src/draw/sw/lv_draw_sw_rect.c **** 
1275:lvgl/src/draw/sw/lv_draw_sw_rect.c ****     /*Left and right corner together if they are close to each other*/
1276:lvgl/src/draw/sw/lv_draw_sw_rect.c ****     if(!split_hor) {
1277:lvgl/src/draw/sw/lv_draw_sw_rect.c ****         /*Calculate the top corner and mirror it to the bottom*/
1278:lvgl/src/draw/sw/lv_draw_sw_rect.c ****         blend_area.x1 = draw_area.x1;
1279:lvgl/src/draw/sw/lv_draw_sw_rect.c ****         blend_area.x2 = draw_area.x2;
1280:lvgl/src/draw/sw/lv_draw_sw_rect.c ****         lv_coord_t max_h = LV_MAX(rout, inner_area->y1 - outer_area->y1);
1281:lvgl/src/draw/sw/lv_draw_sw_rect.c ****         for(h = 0; h < max_h; h++) {
1282:lvgl/src/draw/sw/lv_draw_sw_rect.c ****             lv_coord_t top_y = outer_area->y1 + h;
1283:lvgl/src/draw/sw/lv_draw_sw_rect.c ****             lv_coord_t bottom_y = outer_area->y2 - h;
1284:lvgl/src/draw/sw/lv_draw_sw_rect.c ****             if(top_y < draw_area.y1 && bottom_y > draw_area.y2) continue;   /*This line is clipped 
ARM GAS  /var/folders/21/t9g5rlb91ys800n5npymflf80000gn/T//cca4dfU0.s 			page 24


1285:lvgl/src/draw/sw/lv_draw_sw_rect.c **** 
1286:lvgl/src/draw/sw/lv_draw_sw_rect.c ****             lv_memset_ff(blend_dsc.mask_buf, draw_area_w);
1287:lvgl/src/draw/sw/lv_draw_sw_rect.c ****             blend_dsc.mask_res = lv_draw_mask_apply(blend_dsc.mask_buf, blend_area.x1, top_y, draw_
1288:lvgl/src/draw/sw/lv_draw_sw_rect.c **** 
1289:lvgl/src/draw/sw/lv_draw_sw_rect.c ****             if(top_y >= draw_area.y1) {
1290:lvgl/src/draw/sw/lv_draw_sw_rect.c ****                 blend_area.y1 = top_y;
1291:lvgl/src/draw/sw/lv_draw_sw_rect.c ****                 blend_area.y2 = top_y;
1292:lvgl/src/draw/sw/lv_draw_sw_rect.c ****                 lv_draw_sw_blend(draw_ctx, &blend_dsc);
1293:lvgl/src/draw/sw/lv_draw_sw_rect.c ****             }
1294:lvgl/src/draw/sw/lv_draw_sw_rect.c **** 
1295:lvgl/src/draw/sw/lv_draw_sw_rect.c ****             if(bottom_y <= draw_area.y2) {
1296:lvgl/src/draw/sw/lv_draw_sw_rect.c ****                 blend_area.y1 = bottom_y;
1297:lvgl/src/draw/sw/lv_draw_sw_rect.c ****                 blend_area.y2 = bottom_y;
1298:lvgl/src/draw/sw/lv_draw_sw_rect.c ****                 lv_draw_sw_blend(draw_ctx, &blend_dsc);
1299:lvgl/src/draw/sw/lv_draw_sw_rect.c ****             }
1300:lvgl/src/draw/sw/lv_draw_sw_rect.c ****         }
1301:lvgl/src/draw/sw/lv_draw_sw_rect.c ****     }
1302:lvgl/src/draw/sw/lv_draw_sw_rect.c ****     else {
1303:lvgl/src/draw/sw/lv_draw_sw_rect.c ****         /*Left corners*/
1304:lvgl/src/draw/sw/lv_draw_sw_rect.c ****         blend_area.x1 = draw_area.x1;
1305:lvgl/src/draw/sw/lv_draw_sw_rect.c ****         blend_area.x2 = LV_MIN(draw_area.x2, core_area.x1 - 1);
1306:lvgl/src/draw/sw/lv_draw_sw_rect.c ****         blend_w = lv_area_get_width(&blend_area);
1307:lvgl/src/draw/sw/lv_draw_sw_rect.c ****         if(blend_w > 0) {
1308:lvgl/src/draw/sw/lv_draw_sw_rect.c ****             if(left_side || top_side) {
1309:lvgl/src/draw/sw/lv_draw_sw_rect.c ****                 for(h = draw_area.y1; h < core_area.y1; h++) {
1310:lvgl/src/draw/sw/lv_draw_sw_rect.c ****                     blend_area.y1 = h;
1311:lvgl/src/draw/sw/lv_draw_sw_rect.c ****                     blend_area.y2 = h;
1312:lvgl/src/draw/sw/lv_draw_sw_rect.c **** 
1313:lvgl/src/draw/sw/lv_draw_sw_rect.c ****                     lv_memset_ff(blend_dsc.mask_buf, blend_w);
1314:lvgl/src/draw/sw/lv_draw_sw_rect.c ****                     blend_dsc.mask_res = lv_draw_mask_apply(blend_dsc.mask_buf, blend_area.x1, h, b
1315:lvgl/src/draw/sw/lv_draw_sw_rect.c ****                     lv_draw_sw_blend(draw_ctx, &blend_dsc);
1316:lvgl/src/draw/sw/lv_draw_sw_rect.c ****                 }
1317:lvgl/src/draw/sw/lv_draw_sw_rect.c ****             }
1318:lvgl/src/draw/sw/lv_draw_sw_rect.c **** 
1319:lvgl/src/draw/sw/lv_draw_sw_rect.c ****             if(left_side || bottom_side) {
1320:lvgl/src/draw/sw/lv_draw_sw_rect.c ****                 for(h = core_area.y2 + 1; h <= draw_area.y2; h++) {
1321:lvgl/src/draw/sw/lv_draw_sw_rect.c ****                     blend_area.y1 = h;
1322:lvgl/src/draw/sw/lv_draw_sw_rect.c ****                     blend_area.y2 = h;
1323:lvgl/src/draw/sw/lv_draw_sw_rect.c **** 
1324:lvgl/src/draw/sw/lv_draw_sw_rect.c ****                     lv_memset_ff(blend_dsc.mask_buf, blend_w);
1325:lvgl/src/draw/sw/lv_draw_sw_rect.c ****                     blend_dsc.mask_res = lv_draw_mask_apply(blend_dsc.mask_buf, blend_area.x1, h, b
1326:lvgl/src/draw/sw/lv_draw_sw_rect.c ****                     lv_draw_sw_blend(draw_ctx, &blend_dsc);
1327:lvgl/src/draw/sw/lv_draw_sw_rect.c ****                 }
1328:lvgl/src/draw/sw/lv_draw_sw_rect.c ****             }
1329:lvgl/src/draw/sw/lv_draw_sw_rect.c ****         }
1330:lvgl/src/draw/sw/lv_draw_sw_rect.c **** 
1331:lvgl/src/draw/sw/lv_draw_sw_rect.c ****         /*Right corners*/
1332:lvgl/src/draw/sw/lv_draw_sw_rect.c ****         blend_area.x1 = LV_MAX(draw_area.x1, core_area.x2 + 1);
1333:lvgl/src/draw/sw/lv_draw_sw_rect.c ****         blend_area.x2 = draw_area.x2;
1334:lvgl/src/draw/sw/lv_draw_sw_rect.c ****         blend_w = lv_area_get_width(&blend_area);
1335:lvgl/src/draw/sw/lv_draw_sw_rect.c **** 
1336:lvgl/src/draw/sw/lv_draw_sw_rect.c ****         if(blend_w > 0) {
1337:lvgl/src/draw/sw/lv_draw_sw_rect.c ****             if(right_side || top_side) {
1338:lvgl/src/draw/sw/lv_draw_sw_rect.c ****                 for(h = draw_area.y1; h < core_area.y1; h++) {
1339:lvgl/src/draw/sw/lv_draw_sw_rect.c ****                     blend_area.y1 = h;
1340:lvgl/src/draw/sw/lv_draw_sw_rect.c ****                     blend_area.y2 = h;
1341:lvgl/src/draw/sw/lv_draw_sw_rect.c **** 
ARM GAS  /var/folders/21/t9g5rlb91ys800n5npymflf80000gn/T//cca4dfU0.s 			page 25


1342:lvgl/src/draw/sw/lv_draw_sw_rect.c ****                     lv_memset_ff(blend_dsc.mask_buf, blend_w);
1343:lvgl/src/draw/sw/lv_draw_sw_rect.c ****                     blend_dsc.mask_res = lv_draw_mask_apply(blend_dsc.mask_buf, blend_area.x1, h, b
1344:lvgl/src/draw/sw/lv_draw_sw_rect.c ****                     lv_draw_sw_blend(draw_ctx, &blend_dsc);
1345:lvgl/src/draw/sw/lv_draw_sw_rect.c ****                 }
1346:lvgl/src/draw/sw/lv_draw_sw_rect.c ****             }
1347:lvgl/src/draw/sw/lv_draw_sw_rect.c **** 
1348:lvgl/src/draw/sw/lv_draw_sw_rect.c ****             if(right_side || bottom_side) {
1349:lvgl/src/draw/sw/lv_draw_sw_rect.c ****                 for(h = core_area.y2 + 1; h <= draw_area.y2; h++) {
1350:lvgl/src/draw/sw/lv_draw_sw_rect.c ****                     blend_area.y1 = h;
1351:lvgl/src/draw/sw/lv_draw_sw_rect.c ****                     blend_area.y2 = h;
1352:lvgl/src/draw/sw/lv_draw_sw_rect.c **** 
1353:lvgl/src/draw/sw/lv_draw_sw_rect.c ****                     lv_memset_ff(blend_dsc.mask_buf, blend_w);
1354:lvgl/src/draw/sw/lv_draw_sw_rect.c ****                     blend_dsc.mask_res = lv_draw_mask_apply(blend_dsc.mask_buf, blend_area.x1, h, b
1355:lvgl/src/draw/sw/lv_draw_sw_rect.c ****                     lv_draw_sw_blend(draw_ctx, &blend_dsc);
1356:lvgl/src/draw/sw/lv_draw_sw_rect.c ****                 }
1357:lvgl/src/draw/sw/lv_draw_sw_rect.c ****             }
1358:lvgl/src/draw/sw/lv_draw_sw_rect.c ****         }
1359:lvgl/src/draw/sw/lv_draw_sw_rect.c ****     }
1360:lvgl/src/draw/sw/lv_draw_sw_rect.c **** 
1361:lvgl/src/draw/sw/lv_draw_sw_rect.c ****     lv_draw_mask_free_param(&mask_rin_param);
1362:lvgl/src/draw/sw/lv_draw_sw_rect.c ****     lv_draw_mask_remove_id(mask_rin_id);
1363:lvgl/src/draw/sw/lv_draw_sw_rect.c ****     lv_draw_mask_free_param(&mask_rout_param);
1364:lvgl/src/draw/sw/lv_draw_sw_rect.c ****     lv_draw_mask_remove_id(mask_rout_id);
1365:lvgl/src/draw/sw/lv_draw_sw_rect.c ****     lv_mem_buf_release(blend_dsc.mask_buf);
1366:lvgl/src/draw/sw/lv_draw_sw_rect.c **** 
1367:lvgl/src/draw/sw/lv_draw_sw_rect.c **** #else /*LV_DRAW_COMPLEX*/
1368:lvgl/src/draw/sw/lv_draw_sw_rect.c ****     LV_UNUSED(blend_mode);
1369:lvgl/src/draw/sw/lv_draw_sw_rect.c ****     LV_UNUSED(rout);
1370:lvgl/src/draw/sw/lv_draw_sw_rect.c ****     LV_UNUSED(rin);
1371:lvgl/src/draw/sw/lv_draw_sw_rect.c ****     if(!mask_any) {
1372:lvgl/src/draw/sw/lv_draw_sw_rect.c ****         draw_border_simple(draw_ctx, outer_area, inner_area, color, opa);
1373:lvgl/src/draw/sw/lv_draw_sw_rect.c ****         return;
1374:lvgl/src/draw/sw/lv_draw_sw_rect.c ****     }
1375:lvgl/src/draw/sw/lv_draw_sw_rect.c **** 
1376:lvgl/src/draw/sw/lv_draw_sw_rect.c **** #endif /*LV_DRAW_COMPLEX*/
1377:lvgl/src/draw/sw/lv_draw_sw_rect.c **** }
1378:lvgl/src/draw/sw/lv_draw_sw_rect.c **** static void draw_border_simple(lv_draw_ctx_t * draw_ctx, const lv_area_t * outer_area, const lv_are
1379:lvgl/src/draw/sw/lv_draw_sw_rect.c ****                                lv_color_t color, lv_opa_t opa)
1380:lvgl/src/draw/sw/lv_draw_sw_rect.c **** {
  29              		.loc 1 1380 1 view -0
  30              		.cfi_startproc
  31              		@ args = 4, pretend = 0, frame = 56
  32              		@ frame_needed = 0, uses_anonymous_args = 0
  33              		.loc 1 1380 1 is_stmt 0 view .LVU1
  34 0000 2DE9F04F 		push	{r4, r5, r6, r7, r8, r9, r10, fp, lr}
  35              	.LCFI0:
  36              		.cfi_def_cfa_offset 36
  37              		.cfi_offset 4, -36
  38              		.cfi_offset 5, -32
  39              		.cfi_offset 6, -28
  40              		.cfi_offset 7, -24
  41              		.cfi_offset 8, -20
  42              		.cfi_offset 9, -16
  43              		.cfi_offset 10, -12
  44              		.cfi_offset 11, -8
  45              		.cfi_offset 14, -4
  46 0004 8FB0     		sub	sp, sp, #60
ARM GAS  /var/folders/21/t9g5rlb91ys800n5npymflf80000gn/T//cca4dfU0.s 			page 26


  47              	.LCFI1:
  48              		.cfi_def_cfa_offset 96
  49 0006 0190     		str	r0, [sp, #4]
  50 0008 0D46     		mov	r5, r1
  51 000a 1446     		mov	r4, r2
  52 000c 1E46     		mov	r6, r3	@ movhi
  53              	.LVL1:
1381:lvgl/src/draw/sw/lv_draw_sw_rect.c ****     lv_area_t a;
  54              		.loc 1 1381 5 is_stmt 1 view .LVU2
1382:lvgl/src/draw/sw/lv_draw_sw_rect.c ****     lv_draw_sw_blend_dsc_t blend_dsc;
  55              		.loc 1 1382 5 view .LVU3
1383:lvgl/src/draw/sw/lv_draw_sw_rect.c ****     lv_memset_00(&blend_dsc, sizeof(lv_draw_sw_blend_dsc_t));
  56              		.loc 1 1383 5 view .LVU4
  57 000e 1C21     		movs	r1, #28
  58              	.LVL2:
  59              		.loc 1 1383 5 is_stmt 0 view .LVU5
  60 0010 05A8     		add	r0, sp, #20
  61              	.LVL3:
  62              		.loc 1 1383 5 view .LVU6
  63 0012 FFF7FEFF 		bl	lv_memset_00
  64              	.LVL4:
1384:lvgl/src/draw/sw/lv_draw_sw_rect.c ****     blend_dsc.blend_area = &a;
  65              		.loc 1 1384 5 is_stmt 1 view .LVU7
  66              		.loc 1 1384 26 is_stmt 0 view .LVU8
  67 0016 0CAB     		add	r3, sp, #48
  68 0018 0593     		str	r3, [sp, #20]
1385:lvgl/src/draw/sw/lv_draw_sw_rect.c ****     blend_dsc.color = color;
  69              		.loc 1 1385 5 is_stmt 1 view .LVU9
  70              	.LVL5:
  71              		.loc 1 1385 21 is_stmt 0 view .LVU10
  72 001a ADF81C60 		strh	r6, [sp, #28]	@ movhi
1386:lvgl/src/draw/sw/lv_draw_sw_rect.c ****     blend_dsc.opa = opa;
  73              		.loc 1 1386 5 is_stmt 1 view .LVU11
  74              		.loc 1 1386 19 is_stmt 0 view .LVU12
  75 001e 9DF86030 		ldrb	r3, [sp, #96]	@ zero_extendqisi2
  76 0022 8DF82C30 		strb	r3, [sp, #44]
1387:lvgl/src/draw/sw/lv_draw_sw_rect.c **** 
1388:lvgl/src/draw/sw/lv_draw_sw_rect.c ****     bool top_side = outer_area->y1 <= inner_area->y1 ? true : false;
  77              		.loc 1 1388 5 is_stmt 1 view .LVU13
  78              		.loc 1 1388 31 is_stmt 0 view .LVU14
  79 0026 B5F90260 		ldrsh	r6, [r5, #2]
  80              	.LVL6:
  81              		.loc 1 1388 49 view .LVU15
  82 002a B4F902B0 		ldrsh	fp, [r4, #2]
  83              	.LVL7:
1389:lvgl/src/draw/sw/lv_draw_sw_rect.c ****     bool bottom_side = outer_area->y2 >= inner_area->y2 ? true : false;
  84              		.loc 1 1389 5 is_stmt 1 view .LVU16
  85              		.loc 1 1389 34 is_stmt 0 view .LVU17
  86 002e B5F906A0 		ldrsh	r10, [r5, #6]
  87              		.loc 1 1389 52 view .LVU18
  88 0032 B4F90690 		ldrsh	r9, [r4, #6]
  89              	.LVL8:
1390:lvgl/src/draw/sw/lv_draw_sw_rect.c ****     bool left_side = outer_area->x1 <= inner_area->x1 ? true : false;
  90              		.loc 1 1390 5 is_stmt 1 view .LVU19
  91              		.loc 1 1390 32 is_stmt 0 view .LVU20
  92 0036 B5F90080 		ldrsh	r8, [r5]
  93              		.loc 1 1390 50 view .LVU21
ARM GAS  /var/folders/21/t9g5rlb91ys800n5npymflf80000gn/T//cca4dfU0.s 			page 27


  94 003a B4F90030 		ldrsh	r3, [r4]
  95 003e 0293     		str	r3, [sp, #8]
  96              	.LVL9:
1391:lvgl/src/draw/sw/lv_draw_sw_rect.c ****     bool right_side = outer_area->x2 >= inner_area->x2 ? true : false;
  97              		.loc 1 1391 5 is_stmt 1 view .LVU22
  98              		.loc 1 1391 33 is_stmt 0 view .LVU23
  99 0040 B5F90470 		ldrsh	r7, [r5, #4]
 100              		.loc 1 1391 51 view .LVU24
 101 0044 B4F90430 		ldrsh	r3, [r4, #4]
 102 0048 0393     		str	r3, [sp, #12]
 103              	.LVL10:
1392:lvgl/src/draw/sw/lv_draw_sw_rect.c **** 
1393:lvgl/src/draw/sw/lv_draw_sw_rect.c ****     /*Top*/
1394:lvgl/src/draw/sw/lv_draw_sw_rect.c ****     a.x1 = outer_area->x1;
 104              		.loc 1 1394 5 is_stmt 1 view .LVU25
 105              		.loc 1 1394 10 is_stmt 0 view .LVU26
 106 004a ADF83080 		strh	r8, [sp, #48]	@ movhi
1395:lvgl/src/draw/sw/lv_draw_sw_rect.c ****     a.x2 = outer_area->x2;
 107              		.loc 1 1395 5 is_stmt 1 view .LVU27
 108              		.loc 1 1395 10 is_stmt 0 view .LVU28
 109 004e ADF83470 		strh	r7, [sp, #52]	@ movhi
1396:lvgl/src/draw/sw/lv_draw_sw_rect.c ****     a.y1 = outer_area->y1;
 110              		.loc 1 1396 5 is_stmt 1 view .LVU29
 111              		.loc 1 1396 10 is_stmt 0 view .LVU30
 112 0052 ADF83260 		strh	r6, [sp, #50]	@ movhi
1397:lvgl/src/draw/sw/lv_draw_sw_rect.c ****     a.y2 = inner_area->y1 - 1;
 113              		.loc 1 1397 5 is_stmt 1 view .LVU31
 114              		.loc 1 1397 22 is_stmt 0 view .LVU32
 115 0056 6388     		ldrh	r3, [r4, #2]
 116              		.loc 1 1397 27 view .LVU33
 117 0058 013B     		subs	r3, r3, #1
 118              		.loc 1 1397 10 view .LVU34
 119 005a ADF83630 		strh	r3, [sp, #54]	@ movhi
1398:lvgl/src/draw/sw/lv_draw_sw_rect.c ****     if(top_side) {
 120              		.loc 1 1398 5 is_stmt 1 view .LVU35
 121              		.loc 1 1398 7 is_stmt 0 view .LVU36
 122 005e 5E45     		cmp	r6, fp
 123 0060 2EDD     		ble	.L11
 124              	.L2:
1399:lvgl/src/draw/sw/lv_draw_sw_rect.c ****         lv_draw_sw_blend(draw_ctx, &blend_dsc);
1400:lvgl/src/draw/sw/lv_draw_sw_rect.c ****     }
1401:lvgl/src/draw/sw/lv_draw_sw_rect.c **** 
1402:lvgl/src/draw/sw/lv_draw_sw_rect.c ****     /*Bottom*/
1403:lvgl/src/draw/sw/lv_draw_sw_rect.c ****     a.y1 = inner_area->y2 + 1;
 125              		.loc 1 1403 5 is_stmt 1 view .LVU37
 126              		.loc 1 1403 22 is_stmt 0 view .LVU38
 127 0062 E388     		ldrh	r3, [r4, #6]
 128              		.loc 1 1403 27 view .LVU39
 129 0064 0133     		adds	r3, r3, #1
 130              		.loc 1 1403 10 view .LVU40
 131 0066 ADF83230 		strh	r3, [sp, #50]	@ movhi
1404:lvgl/src/draw/sw/lv_draw_sw_rect.c ****     a.y2 = outer_area->y2;
 132              		.loc 1 1404 5 is_stmt 1 view .LVU41
 133              		.loc 1 1404 22 is_stmt 0 view .LVU42
 134 006a B5F90630 		ldrsh	r3, [r5, #6]
 135              		.loc 1 1404 10 view .LVU43
 136 006e ADF83630 		strh	r3, [sp, #54]	@ movhi
ARM GAS  /var/folders/21/t9g5rlb91ys800n5npymflf80000gn/T//cca4dfU0.s 			page 28


1405:lvgl/src/draw/sw/lv_draw_sw_rect.c ****     if(bottom_side) {
 137              		.loc 1 1405 5 is_stmt 1 view .LVU44
 138              		.loc 1 1405 7 is_stmt 0 view .LVU45
 139 0072 CA45     		cmp	r10, r9
 140 0074 29DA     		bge	.L12
 141              	.L3:
1406:lvgl/src/draw/sw/lv_draw_sw_rect.c ****         lv_draw_sw_blend(draw_ctx, &blend_dsc);
1407:lvgl/src/draw/sw/lv_draw_sw_rect.c ****     }
1408:lvgl/src/draw/sw/lv_draw_sw_rect.c **** 
1409:lvgl/src/draw/sw/lv_draw_sw_rect.c ****     /*Left*/
1410:lvgl/src/draw/sw/lv_draw_sw_rect.c ****     a.x1 = outer_area->x1;
 142              		.loc 1 1410 5 is_stmt 1 view .LVU46
 143              		.loc 1 1410 22 is_stmt 0 view .LVU47
 144 0076 B5F90030 		ldrsh	r3, [r5]
 145              		.loc 1 1410 10 view .LVU48
 146 007a ADF83030 		strh	r3, [sp, #48]	@ movhi
1411:lvgl/src/draw/sw/lv_draw_sw_rect.c ****     a.x2 = inner_area->x1 - 1;
 147              		.loc 1 1411 5 is_stmt 1 view .LVU49
 148              		.loc 1 1411 22 is_stmt 0 view .LVU50
 149 007e 2388     		ldrh	r3, [r4]
 150              		.loc 1 1411 27 view .LVU51
 151 0080 013B     		subs	r3, r3, #1
 152              		.loc 1 1411 10 view .LVU52
 153 0082 ADF83430 		strh	r3, [sp, #52]	@ movhi
1412:lvgl/src/draw/sw/lv_draw_sw_rect.c ****     a.y1 = (top_side) ? inner_area->y1 : outer_area->y1;
 154              		.loc 1 1412 5 is_stmt 1 view .LVU53
 155              		.loc 1 1412 10 is_stmt 0 view .LVU54
 156 0086 5E45     		cmp	r6, fp
 157 0088 24DC     		bgt	.L4
 158              		.loc 1 1412 10 discriminator 1 view .LVU55
 159 008a B4F90230 		ldrsh	r3, [r4, #2]
 160              	.L5:
 161              		.loc 1 1412 10 discriminator 4 view .LVU56
 162 008e ADF83230 		strh	r3, [sp, #50]	@ movhi
1413:lvgl/src/draw/sw/lv_draw_sw_rect.c ****     a.y2 = (bottom_side) ? inner_area->y2 : outer_area->y2;
 163              		.loc 1 1413 5 is_stmt 1 discriminator 4 view .LVU57
 164              		.loc 1 1413 10 is_stmt 0 discriminator 4 view .LVU58
 165 0092 CA45     		cmp	r10, r9
 166 0094 21DB     		blt	.L6
 167              		.loc 1 1413 10 discriminator 1 view .LVU59
 168 0096 B4F90630 		ldrsh	r3, [r4, #6]
 169              	.L7:
 170              		.loc 1 1413 10 discriminator 4 view .LVU60
 171 009a ADF83630 		strh	r3, [sp, #54]	@ movhi
1414:lvgl/src/draw/sw/lv_draw_sw_rect.c ****     if(left_side) {
 172              		.loc 1 1414 5 is_stmt 1 discriminator 4 view .LVU61
 173              		.loc 1 1414 7 is_stmt 0 discriminator 4 view .LVU62
 174 009e 029B     		ldr	r3, [sp, #8]
 175 00a0 9845     		cmp	r8, r3
 176 00a2 1DDD     		ble	.L13
 177              	.L8:
1415:lvgl/src/draw/sw/lv_draw_sw_rect.c ****         lv_draw_sw_blend(draw_ctx, &blend_dsc);
1416:lvgl/src/draw/sw/lv_draw_sw_rect.c ****     }
1417:lvgl/src/draw/sw/lv_draw_sw_rect.c **** 
1418:lvgl/src/draw/sw/lv_draw_sw_rect.c ****     /*Right*/
1419:lvgl/src/draw/sw/lv_draw_sw_rect.c ****     a.x1 = inner_area->x2 + 1;
 178              		.loc 1 1419 5 is_stmt 1 view .LVU63
ARM GAS  /var/folders/21/t9g5rlb91ys800n5npymflf80000gn/T//cca4dfU0.s 			page 29


 179              		.loc 1 1419 22 is_stmt 0 view .LVU64
 180 00a4 A388     		ldrh	r3, [r4, #4]
 181              		.loc 1 1419 27 view .LVU65
 182 00a6 0133     		adds	r3, r3, #1
 183              		.loc 1 1419 10 view .LVU66
 184 00a8 ADF83030 		strh	r3, [sp, #48]	@ movhi
1420:lvgl/src/draw/sw/lv_draw_sw_rect.c ****     a.x2 = outer_area->x2;
 185              		.loc 1 1420 5 is_stmt 1 view .LVU67
 186              		.loc 1 1420 22 is_stmt 0 view .LVU68
 187 00ac B5F90430 		ldrsh	r3, [r5, #4]
 188              		.loc 1 1420 10 view .LVU69
 189 00b0 ADF83430 		strh	r3, [sp, #52]	@ movhi
1421:lvgl/src/draw/sw/lv_draw_sw_rect.c ****     if(right_side) {
 190              		.loc 1 1421 5 is_stmt 1 view .LVU70
 191              		.loc 1 1421 7 is_stmt 0 view .LVU71
 192 00b4 039B     		ldr	r3, [sp, #12]
 193 00b6 9F42     		cmp	r7, r3
 194 00b8 17DA     		bge	.L14
 195              	.L1:
1422:lvgl/src/draw/sw/lv_draw_sw_rect.c ****         lv_draw_sw_blend(draw_ctx, &blend_dsc);
1423:lvgl/src/draw/sw/lv_draw_sw_rect.c ****     }
1424:lvgl/src/draw/sw/lv_draw_sw_rect.c **** }
 196              		.loc 1 1424 1 view .LVU72
 197 00ba 0FB0     		add	sp, sp, #60
 198              	.LCFI2:
 199              		.cfi_remember_state
 200              		.cfi_def_cfa_offset 36
 201              		@ sp needed
 202 00bc BDE8F08F 		pop	{r4, r5, r6, r7, r8, r9, r10, fp, pc}
 203              	.LVL11:
 204              	.L11:
 205              	.LCFI3:
 206              		.cfi_restore_state
1399:lvgl/src/draw/sw/lv_draw_sw_rect.c ****     }
 207              		.loc 1 1399 9 is_stmt 1 view .LVU73
 208 00c0 05A9     		add	r1, sp, #20
 209 00c2 0198     		ldr	r0, [sp, #4]
 210 00c4 FFF7FEFF 		bl	lv_draw_sw_blend
 211              	.LVL12:
 212 00c8 CBE7     		b	.L2
 213              	.L12:
1406:lvgl/src/draw/sw/lv_draw_sw_rect.c ****     }
 214              		.loc 1 1406 9 view .LVU74
 215 00ca 05A9     		add	r1, sp, #20
 216 00cc 0198     		ldr	r0, [sp, #4]
 217 00ce FFF7FEFF 		bl	lv_draw_sw_blend
 218              	.LVL13:
 219 00d2 D0E7     		b	.L3
 220              	.L4:
1412:lvgl/src/draw/sw/lv_draw_sw_rect.c ****     a.y2 = (bottom_side) ? inner_area->y2 : outer_area->y2;
 221              		.loc 1 1412 10 is_stmt 0 discriminator 2 view .LVU75
 222 00d4 B5F90230 		ldrsh	r3, [r5, #2]
 223 00d8 D9E7     		b	.L5
 224              	.L6:
1413:lvgl/src/draw/sw/lv_draw_sw_rect.c ****     if(left_side) {
 225              		.loc 1 1413 10 discriminator 2 view .LVU76
 226 00da B5F90630 		ldrsh	r3, [r5, #6]
ARM GAS  /var/folders/21/t9g5rlb91ys800n5npymflf80000gn/T//cca4dfU0.s 			page 30


 227 00de DCE7     		b	.L7
 228              	.L13:
1415:lvgl/src/draw/sw/lv_draw_sw_rect.c ****     }
 229              		.loc 1 1415 9 is_stmt 1 view .LVU77
 230 00e0 05A9     		add	r1, sp, #20
 231 00e2 0198     		ldr	r0, [sp, #4]
 232 00e4 FFF7FEFF 		bl	lv_draw_sw_blend
 233              	.LVL14:
 234 00e8 DCE7     		b	.L8
 235              	.L14:
1422:lvgl/src/draw/sw/lv_draw_sw_rect.c ****     }
 236              		.loc 1 1422 9 view .LVU78
 237 00ea 05A9     		add	r1, sp, #20
 238 00ec 0198     		ldr	r0, [sp, #4]
 239 00ee FFF7FEFF 		bl	lv_draw_sw_blend
 240              	.LVL15:
 241              		.loc 1 1424 1 is_stmt 0 view .LVU79
 242 00f2 E2E7     		b	.L1
 243              		.cfi_endproc
 244              	.LFE171:
 246              		.section	.text.shadow_blur_corner,"ax",%progbits
 247              		.align	1
 248              		.syntax unified
 249              		.thumb
 250              		.thumb_func
 252              	shadow_blur_corner:
 253              	.LVL16:
 254              	.LFB168:
1033:lvgl/src/draw/sw/lv_draw_sw_rect.c ****     int32_t s_left = sw >> 1;
 255              		.loc 1 1033 1 is_stmt 1 view -0
 256              		.cfi_startproc
 257              		@ args = 0, pretend = 0, frame = 8
 258              		@ frame_needed = 0, uses_anonymous_args = 0
1033:lvgl/src/draw/sw/lv_draw_sw_rect.c ****     int32_t s_left = sw >> 1;
 259              		.loc 1 1033 1 is_stmt 0 view .LVU81
 260 0000 2DE9F04F 		push	{r4, r5, r6, r7, r8, r9, r10, fp, lr}
 261              	.LCFI4:
 262              		.cfi_def_cfa_offset 36
 263              		.cfi_offset 4, -36
 264              		.cfi_offset 5, -32
 265              		.cfi_offset 6, -28
 266              		.cfi_offset 7, -24
 267              		.cfi_offset 8, -20
 268              		.cfi_offset 9, -16
 269              		.cfi_offset 10, -12
 270              		.cfi_offset 11, -8
 271              		.cfi_offset 14, -4
 272 0004 83B0     		sub	sp, sp, #12
 273              	.LCFI5:
 274              		.cfi_def_cfa_offset 48
 275 0006 0446     		mov	r4, r0
 276 0008 0191     		str	r1, [sp, #4]
 277 000a 1746     		mov	r7, r2
1034:lvgl/src/draw/sw/lv_draw_sw_rect.c ****     int32_t s_right = (sw >> 1);
 278              		.loc 1 1034 5 is_stmt 1 view .LVU82
1034:lvgl/src/draw/sw/lv_draw_sw_rect.c ****     int32_t s_right = (sw >> 1);
 279              		.loc 1 1034 25 is_stmt 0 view .LVU83
ARM GAS  /var/folders/21/t9g5rlb91ys800n5npymflf80000gn/T//cca4dfU0.s 			page 31


 280 000c 4FEA6108 		asr	r8, r1, #1
 281              	.LVL17:
1035:lvgl/src/draw/sw/lv_draw_sw_rect.c ****     if((sw & 1) == 0) s_left--;
 282              		.loc 1 1035 5 is_stmt 1 view .LVU84
1036:lvgl/src/draw/sw/lv_draw_sw_rect.c **** 
 283              		.loc 1 1036 5 view .LVU85
1036:lvgl/src/draw/sw/lv_draw_sw_rect.c **** 
 284              		.loc 1 1036 7 is_stmt 0 view .LVU86
 285 0010 11F0010F 		tst	r1, #1
 286 0014 02D1     		bne	.L39
1036:lvgl/src/draw/sw/lv_draw_sw_rect.c **** 
 287              		.loc 1 1036 23 is_stmt 1 discriminator 1 view .LVU87
1036:lvgl/src/draw/sw/lv_draw_sw_rect.c **** 
 288              		.loc 1 1036 29 is_stmt 0 discriminator 1 view .LVU88
 289 0016 08F1FF39 		add	r9, r8, #-1
 290              	.LVL18:
1036:lvgl/src/draw/sw/lv_draw_sw_rect.c **** 
 291              		.loc 1 1036 29 discriminator 1 view .LVU89
 292 001a 00E0     		b	.L16
 293              	.LVL19:
 294              	.L39:
1034:lvgl/src/draw/sw/lv_draw_sw_rect.c ****     int32_t s_right = (sw >> 1);
 295              		.loc 1 1034 13 view .LVU90
 296 001c C146     		mov	r9, r8
 297              	.LVL20:
 298              	.L16:
1039:lvgl/src/draw/sw/lv_draw_sw_rect.c **** 
 299              		.loc 1 1039 5 is_stmt 1 view .LVU91
1039:lvgl/src/draw/sw/lv_draw_sw_rect.c **** 
 300              		.loc 1 1039 34 is_stmt 0 view .LVU92
 301 001e 6600     		lsls	r6, r4, #1
 302 0020 3046     		mov	r0, r6
 303              	.LVL21:
1039:lvgl/src/draw/sw/lv_draw_sw_rect.c **** 
 304              		.loc 1 1039 34 view .LVU93
 305 0022 FFF7FEFF 		bl	lv_mem_buf_get
 306              	.LVL22:
1039:lvgl/src/draw/sw/lv_draw_sw_rect.c **** 
 307              		.loc 1 1039 34 view .LVU94
 308 0026 0546     		mov	r5, r0
 309              	.LVL23:
1041:lvgl/src/draw/sw/lv_draw_sw_rect.c ****     int32_t y;
 310              		.loc 1 1041 5 is_stmt 1 view .LVU95
1042:lvgl/src/draw/sw/lv_draw_sw_rect.c **** 
 311              		.loc 1 1042 5 view .LVU96
1044:lvgl/src/draw/sw/lv_draw_sw_rect.c **** 
 312              		.loc 1 1044 5 view .LVU97
1046:lvgl/src/draw/sw/lv_draw_sw_rect.c ****         int32_t v = sh_ups_tmp_buf[size - 1] * sw;
 313              		.loc 1 1046 5 view .LVU98
1044:lvgl/src/draw/sw/lv_draw_sw_rect.c **** 
 314              		.loc 1 1044 16 is_stmt 0 view .LVU99
 315 0028 BA46     		mov	r10, r7
1046:lvgl/src/draw/sw/lv_draw_sw_rect.c ****         int32_t v = sh_ups_tmp_buf[size - 1] * sw;
 316              		.loc 1 1046 11 view .LVU100
 317 002a 4FF0000B 		mov	fp, #0
1046:lvgl/src/draw/sw/lv_draw_sw_rect.c ****         int32_t v = sh_ups_tmp_buf[size - 1] * sw;
 318              		.loc 1 1046 5 view .LVU101
ARM GAS  /var/folders/21/t9g5rlb91ys800n5npymflf80000gn/T//cca4dfU0.s 			page 32


 319 002e 22E0     		b	.L17
 320              	.LVL24:
 321              	.L40:
 322              	.LBB112:
 323              	.LBB113:
1052:lvgl/src/draw/sw/lv_draw_sw_rect.c ****             if(x + s_right < size) right_val = sh_ups_tmp_buf[x + s_right];
 324              		.loc 1 1052 22 view .LVU102
 325 0030 0021     		movs	r1, #0
 326              	.LVL25:
 327              	.L19:
1054:lvgl/src/draw/sw/lv_draw_sw_rect.c **** 
 328              		.loc 1 1054 13 is_stmt 1 view .LVU103
1054:lvgl/src/draw/sw/lv_draw_sw_rect.c **** 
 329              		.loc 1 1054 15 is_stmt 0 view .LVU104
 330 0032 521A     		subs	r2, r2, r1
 331              	.LVL26:
1057:lvgl/src/draw/sw/lv_draw_sw_rect.c ****             if(x - s_left - 1 < 0) left_val = sh_ups_tmp_buf[0];
 332              		.loc 1 1057 13 is_stmt 1 view .LVU105
1058:lvgl/src/draw/sw/lv_draw_sw_rect.c ****             else left_val = sh_ups_tmp_buf[x - s_left - 1];
 333              		.loc 1 1058 13 view .LVU106
1058:lvgl/src/draw/sw/lv_draw_sw_rect.c ****             else left_val = sh_ups_tmp_buf[x - s_left - 1];
 334              		.loc 1 1058 18 is_stmt 0 view .LVU107
 335 0034 A3EB0901 		sub	r1, r3, r9
 336              	.LVL27:
1058:lvgl/src/draw/sw/lv_draw_sw_rect.c ****             else left_val = sh_ups_tmp_buf[x - s_left - 1];
 337              		.loc 1 1058 15 view .LVU108
 338 0038 0029     		cmp	r1, #0
 339 003a 11DD     		ble	.L43
1059:lvgl/src/draw/sw/lv_draw_sw_rect.c ****             v += left_val;
 340              		.loc 1 1059 18 is_stmt 1 view .LVU109
1059:lvgl/src/draw/sw/lv_draw_sw_rect.c ****             v += left_val;
 341              		.loc 1 1059 43 is_stmt 0 view .LVU110
 342 003c 01F10041 		add	r1, r1, #-2147483648
 343 0040 0139     		subs	r1, r1, #1
 344 0042 3AF81110 		ldrh	r1, [r10, r1, lsl #1]
 345              	.LVL28:
 346              	.L21:
1060:lvgl/src/draw/sw/lv_draw_sw_rect.c ****         }
 347              		.loc 1 1060 13 is_stmt 1 discriminator 2 view .LVU111
1060:lvgl/src/draw/sw/lv_draw_sw_rect.c ****         }
 348              		.loc 1 1060 15 is_stmt 0 discriminator 2 view .LVU112
 349 0046 0A44     		add	r2, r2, r1
 350              	.LVL29:
1060:lvgl/src/draw/sw/lv_draw_sw_rect.c ****         }
 351              		.loc 1 1060 15 discriminator 2 view .LVU113
 352              	.LBE113:
1048:lvgl/src/draw/sw/lv_draw_sw_rect.c ****             sh_ups_blur_buf[x] = v;
 353              		.loc 1 1048 36 is_stmt 1 discriminator 2 view .LVU114
 354 0048 013B     		subs	r3, r3, #1
 355              	.LVL30:
 356              	.L18:
1048:lvgl/src/draw/sw/lv_draw_sw_rect.c ****             sh_ups_blur_buf[x] = v;
 357              		.loc 1 1048 29 discriminator 1 view .LVU115
 358 004a 002B     		cmp	r3, #0
 359 004c 0BDB     		blt	.L44
 360              	.LBB114:
1049:lvgl/src/draw/sw/lv_draw_sw_rect.c **** 
ARM GAS  /var/folders/21/t9g5rlb91ys800n5npymflf80000gn/T//cca4dfU0.s 			page 33


 361              		.loc 1 1049 13 view .LVU116
1049:lvgl/src/draw/sw/lv_draw_sw_rect.c **** 
 362              		.loc 1 1049 32 is_stmt 0 view .LVU117
 363 004e 25F81320 		strh	r2, [r5, r3, lsl #1]	@ movhi
1052:lvgl/src/draw/sw/lv_draw_sw_rect.c ****             if(x + s_right < size) right_val = sh_ups_tmp_buf[x + s_right];
 364              		.loc 1 1052 13 is_stmt 1 view .LVU118
 365              	.LVL31:
1053:lvgl/src/draw/sw/lv_draw_sw_rect.c ****             v -= right_val;
 366              		.loc 1 1053 13 view .LVU119
1053:lvgl/src/draw/sw/lv_draw_sw_rect.c ****             v -= right_val;
 367              		.loc 1 1053 18 is_stmt 0 view .LVU120
 368 0052 03EB0801 		add	r1, r3, r8
1053:lvgl/src/draw/sw/lv_draw_sw_rect.c ****             v -= right_val;
 369              		.loc 1 1053 15 view .LVU121
 370 0056 A142     		cmp	r1, r4
 371 0058 EADA     		bge	.L40
1053:lvgl/src/draw/sw/lv_draw_sw_rect.c ****             v -= right_val;
 372              		.loc 1 1053 36 is_stmt 1 discriminator 1 view .LVU122
1053:lvgl/src/draw/sw/lv_draw_sw_rect.c ****             v -= right_val;
 373              		.loc 1 1053 62 is_stmt 0 discriminator 1 view .LVU123
 374 005a 3AF81110 		ldrh	r1, [r10, r1, lsl #1]
 375              	.LVL32:
1053:lvgl/src/draw/sw/lv_draw_sw_rect.c ****             v -= right_val;
 376              		.loc 1 1053 62 discriminator 1 view .LVU124
 377 005e E8E7     		b	.L19
 378              	.LVL33:
 379              	.L43:
1058:lvgl/src/draw/sw/lv_draw_sw_rect.c ****             else left_val = sh_ups_tmp_buf[x - s_left - 1];
 380              		.loc 1 1058 36 is_stmt 1 discriminator 1 view .LVU125
1058:lvgl/src/draw/sw/lv_draw_sw_rect.c ****             else left_val = sh_ups_tmp_buf[x - s_left - 1];
 381              		.loc 1 1058 61 is_stmt 0 discriminator 1 view .LVU126
 382 0060 BAF80010 		ldrh	r1, [r10]
 383              	.LVL34:
1058:lvgl/src/draw/sw/lv_draw_sw_rect.c ****             else left_val = sh_ups_tmp_buf[x - s_left - 1];
 384              		.loc 1 1058 61 discriminator 1 view .LVU127
 385 0064 EFE7     		b	.L21
 386              	.LVL35:
 387              	.L44:
1058:lvgl/src/draw/sw/lv_draw_sw_rect.c ****             else left_val = sh_ups_tmp_buf[x - s_left - 1];
 388              		.loc 1 1058 61 discriminator 1 view .LVU128
 389              	.LBE114:
1062:lvgl/src/draw/sw/lv_draw_sw_rect.c ****         sh_ups_tmp_buf += size;
 390              		.loc 1 1062 9 is_stmt 1 discriminator 2 view .LVU129
 391 0066 3246     		mov	r2, r6
 392              	.LVL36:
1062:lvgl/src/draw/sw/lv_draw_sw_rect.c ****         sh_ups_tmp_buf += size;
 393              		.loc 1 1062 9 is_stmt 0 discriminator 2 view .LVU130
 394 0068 2946     		mov	r1, r5
 395 006a 5046     		mov	r0, r10
 396 006c FFF7FEFF 		bl	lv_memcpy
 397              	.LVL37:
1063:lvgl/src/draw/sw/lv_draw_sw_rect.c ****     }
 398              		.loc 1 1063 9 is_stmt 1 discriminator 2 view .LVU131
1063:lvgl/src/draw/sw/lv_draw_sw_rect.c ****     }
 399              		.loc 1 1063 24 is_stmt 0 discriminator 2 view .LVU132
 400 0070 B244     		add	r10, r10, r6
 401              	.LVL38:
ARM GAS  /var/folders/21/t9g5rlb91ys800n5npymflf80000gn/T//cca4dfU0.s 			page 34


1063:lvgl/src/draw/sw/lv_draw_sw_rect.c ****     }
 402              		.loc 1 1063 24 discriminator 2 view .LVU133
 403              	.LBE112:
1046:lvgl/src/draw/sw/lv_draw_sw_rect.c ****         int32_t v = sh_ups_tmp_buf[size - 1] * sw;
 404              		.loc 1 1046 27 is_stmt 1 discriminator 2 view .LVU134
 405 0072 0BF1010B 		add	fp, fp, #1
 406              	.LVL39:
 407              	.L17:
1046:lvgl/src/draw/sw/lv_draw_sw_rect.c ****         int32_t v = sh_ups_tmp_buf[size - 1] * sw;
 408              		.loc 1 1046 18 discriminator 1 view .LVU135
 409 0076 5C45     		cmp	r4, fp
 410 0078 09DD     		ble	.L45
 411              	.LBB115:
1047:lvgl/src/draw/sw/lv_draw_sw_rect.c ****         for(x = size - 1; x >= 0; x--) {
 412              		.loc 1 1047 9 view .LVU136
1047:lvgl/src/draw/sw/lv_draw_sw_rect.c ****         for(x = size - 1; x >= 0; x--) {
 413              		.loc 1 1047 35 is_stmt 0 view .LVU137
 414 007a 04F10043 		add	r3, r4, #-2147483648
 415 007e 013B     		subs	r3, r3, #1
 416 0080 3AF81320 		ldrh	r2, [r10, r3, lsl #1]
1047:lvgl/src/draw/sw/lv_draw_sw_rect.c ****         for(x = size - 1; x >= 0; x--) {
 417              		.loc 1 1047 17 view .LVU138
 418 0084 019B     		ldr	r3, [sp, #4]
 419 0086 03FB02F2 		mul	r2, r3, r2
 420              	.LVL40:
1048:lvgl/src/draw/sw/lv_draw_sw_rect.c ****             sh_ups_blur_buf[x] = v;
 421              		.loc 1 1048 9 is_stmt 1 view .LVU139
1048:lvgl/src/draw/sw/lv_draw_sw_rect.c ****             sh_ups_blur_buf[x] = v;
 422              		.loc 1 1048 15 is_stmt 0 view .LVU140
 423 008a 631E     		subs	r3, r4, #1
 424              	.LVL41:
1048:lvgl/src/draw/sw/lv_draw_sw_rect.c ****             sh_ups_blur_buf[x] = v;
 425              		.loc 1 1048 9 view .LVU141
 426 008c DDE7     		b	.L18
 427              	.LVL42:
 428              	.L45:
1048:lvgl/src/draw/sw/lv_draw_sw_rect.c ****             sh_ups_blur_buf[x] = v;
 429              		.loc 1 1048 9 view .LVU142
 430              	.LBE115:
1067:lvgl/src/draw/sw/lv_draw_sw_rect.c ****     uint32_t max_v = LV_OPA_COVER << SHADOW_UPSCALE_SHIFT;
 431              		.loc 1 1067 5 is_stmt 1 view .LVU143
1068:lvgl/src/draw/sw/lv_draw_sw_rect.c ****     uint32_t max_v_div = max_v / sw;
 432              		.loc 1 1068 5 view .LVU144
1069:lvgl/src/draw/sw/lv_draw_sw_rect.c ****     for(i = 0; i < (uint32_t)size * size; i++) {
 433              		.loc 1 1069 5 view .LVU145
1069:lvgl/src/draw/sw/lv_draw_sw_rect.c ****     for(i = 0; i < (uint32_t)size * size; i++) {
 434              		.loc 1 1069 14 is_stmt 0 view .LVU146
 435 008e 4FF47F50 		mov	r0, #16320
 436 0092 019B     		ldr	r3, [sp, #4]
 437 0094 B0FBF3FC 		udiv	ip, r0, r3
 438              	.LVL43:
1070:lvgl/src/draw/sw/lv_draw_sw_rect.c ****         if(sh_ups_buf[i] == 0) continue;
 439              		.loc 1 1070 5 is_stmt 1 view .LVU147
1070:lvgl/src/draw/sw/lv_draw_sw_rect.c ****         if(sh_ups_buf[i] == 0) continue;
 440              		.loc 1 1070 11 is_stmt 0 view .LVU148
 441 0098 0023     		movs	r3, #0
1070:lvgl/src/draw/sw/lv_draw_sw_rect.c ****         if(sh_ups_buf[i] == 0) continue;
ARM GAS  /var/folders/21/t9g5rlb91ys800n5npymflf80000gn/T//cca4dfU0.s 			page 35


 442              		.loc 1 1070 5 view .LVU149
 443 009a 02E0     		b	.L24
 444              	.LVL44:
 445              	.L47:
1072:lvgl/src/draw/sw/lv_draw_sw_rect.c ****         else sh_ups_buf[i] = sh_ups_buf[i] / sw;
 446              		.loc 1 1072 41 is_stmt 1 discriminator 1 view .LVU150
1072:lvgl/src/draw/sw/lv_draw_sw_rect.c ****         else sh_ups_buf[i] = sh_ups_buf[i] / sw;
 447              		.loc 1 1072 55 is_stmt 0 discriminator 1 view .LVU151
 448 009c 27F801C0 		strh	ip, [r7, r1]	@ movhi
 449              	.L25:
1070:lvgl/src/draw/sw/lv_draw_sw_rect.c ****         if(sh_ups_buf[i] == 0) continue;
 450              		.loc 1 1070 44 is_stmt 1 discriminator 2 view .LVU152
 451 00a0 0133     		adds	r3, r3, #1
 452              	.LVL45:
 453              	.L24:
1070:lvgl/src/draw/sw/lv_draw_sw_rect.c ****         if(sh_ups_buf[i] == 0) continue;
 454              		.loc 1 1070 18 discriminator 1 view .LVU153
1070:lvgl/src/draw/sw/lv_draw_sw_rect.c ****         if(sh_ups_buf[i] == 0) continue;
 455              		.loc 1 1070 35 is_stmt 0 discriminator 1 view .LVU154
 456 00a2 04FB04F2 		mul	r2, r4, r4
1070:lvgl/src/draw/sw/lv_draw_sw_rect.c ****         if(sh_ups_buf[i] == 0) continue;
 457              		.loc 1 1070 18 discriminator 1 view .LVU155
 458 00a6 9A42     		cmp	r2, r3
 459 00a8 0CD9     		bls	.L46
1071:lvgl/src/draw/sw/lv_draw_sw_rect.c ****         else if(sh_ups_buf[i] == max_v) sh_ups_buf[i] = max_v_div;
 460              		.loc 1 1071 9 is_stmt 1 view .LVU156
1071:lvgl/src/draw/sw/lv_draw_sw_rect.c ****         else if(sh_ups_buf[i] == max_v) sh_ups_buf[i] = max_v_div;
 461              		.loc 1 1071 22 is_stmt 0 view .LVU157
 462 00aa 5900     		lsls	r1, r3, #1
 463 00ac 37F81320 		ldrh	r2, [r7, r3, lsl #1]
1071:lvgl/src/draw/sw/lv_draw_sw_rect.c ****         else if(sh_ups_buf[i] == max_v) sh_ups_buf[i] = max_v_div;
 464              		.loc 1 1071 11 view .LVU158
 465 00b0 002A     		cmp	r2, #0
 466 00b2 F5D0     		beq	.L25
1072:lvgl/src/draw/sw/lv_draw_sw_rect.c ****         else sh_ups_buf[i] = sh_ups_buf[i] / sw;
 467              		.loc 1 1072 14 is_stmt 1 view .LVU159
1072:lvgl/src/draw/sw/lv_draw_sw_rect.c ****         else sh_ups_buf[i] = sh_ups_buf[i] / sw;
 468              		.loc 1 1072 16 is_stmt 0 view .LVU160
 469 00b4 B2F57F5F 		cmp	r2, #16320
 470 00b8 F0D0     		beq	.L47
1073:lvgl/src/draw/sw/lv_draw_sw_rect.c ****     }
 471              		.loc 1 1073 14 is_stmt 1 view .LVU161
1073:lvgl/src/draw/sw/lv_draw_sw_rect.c ****     }
 472              		.loc 1 1073 44 is_stmt 0 view .LVU162
 473 00ba 0198     		ldr	r0, [sp, #4]
 474 00bc 92FBF0F2 		sdiv	r2, r2, r0
1073:lvgl/src/draw/sw/lv_draw_sw_rect.c ****     }
 475              		.loc 1 1073 28 view .LVU163
 476 00c0 7A52     		strh	r2, [r7, r1]	@ movhi
 477 00c2 EDE7     		b	.L25
 478              	.L46:
1076:lvgl/src/draw/sw/lv_draw_sw_rect.c ****         sh_ups_tmp_buf = &sh_ups_buf[x];
 479              		.loc 1 1076 11 view .LVU164
 480 00c4 4FF0000C 		mov	ip, #0
 481              	.LVL46:
1076:lvgl/src/draw/sw/lv_draw_sw_rect.c ****         sh_ups_tmp_buf = &sh_ups_buf[x];
 482              		.loc 1 1076 11 view .LVU165
ARM GAS  /var/folders/21/t9g5rlb91ys800n5npymflf80000gn/T//cca4dfU0.s 			page 36


 483 00c8 35E0     		b	.L28
 484              	.LVL47:
 485              	.L41:
 486              	.LBB116:
 487              	.LBB117:
1080:lvgl/src/draw/sw/lv_draw_sw_rect.c **** 
 488              		.loc 1 1080 32 view .LVU166
 489 00ca 4FF0000E 		mov	lr, #0
 490 00ce 10E0     		b	.L30
 491              	.L49:
1084:lvgl/src/draw/sw/lv_draw_sw_rect.c ****             else top_val = sh_ups_buf[(y - s_right) * size + x];
 492              		.loc 1 1084 34 is_stmt 1 discriminator 1 view .LVU167
1084:lvgl/src/draw/sw/lv_draw_sw_rect.c ****             else top_val = sh_ups_buf[(y - s_right) * size + x];
 493              		.loc 1 1084 58 is_stmt 0 discriminator 1 view .LVU168
 494 00d0 B0F800E0 		ldrh	lr, [r0]
 495              	.LVL48:
1084:lvgl/src/draw/sw/lv_draw_sw_rect.c ****             else top_val = sh_ups_buf[(y - s_right) * size + x];
 496              		.loc 1 1084 58 discriminator 1 view .LVU169
 497 00d4 18E0     		b	.L32
 498              	.LVL49:
 499              	.L33:
1091:lvgl/src/draw/sw/lv_draw_sw_rect.c ****             v += bottom_val;
 500              		.loc 1 1091 18 is_stmt 1 view .LVU170
1091:lvgl/src/draw/sw/lv_draw_sw_rect.c ****             v += bottom_val;
 501              		.loc 1 1091 48 is_stmt 0 view .LVU171
 502 00d6 621E     		subs	r2, r4, #1
1091:lvgl/src/draw/sw/lv_draw_sw_rect.c ****             v += bottom_val;
 503              		.loc 1 1091 60 view .LVU172
 504 00d8 02FB04C2 		mla	r2, r2, r4, ip
1091:lvgl/src/draw/sw/lv_draw_sw_rect.c ****             v += bottom_val;
 505              		.loc 1 1091 41 view .LVU173
 506 00dc 37F81220 		ldrh	r2, [r7, r2, lsl #1]
 507              	.LVL50:
 508              	.L34:
1092:lvgl/src/draw/sw/lv_draw_sw_rect.c ****         }
 509              		.loc 1 1092 13 is_stmt 1 discriminator 2 view .LVU174
1092:lvgl/src/draw/sw/lv_draw_sw_rect.c ****         }
 510              		.loc 1 1092 15 is_stmt 0 discriminator 2 view .LVU175
 511 00e0 7244     		add	r2, r2, lr
 512              	.LVL51:
1092:lvgl/src/draw/sw/lv_draw_sw_rect.c ****         }
 513              		.loc 1 1092 15 discriminator 2 view .LVU176
 514              	.LBE117:
1079:lvgl/src/draw/sw/lv_draw_sw_rect.c ****             sh_ups_blur_buf[y] = v < 0 ? 0 : (v >> SHADOW_UPSCALE_SHIFT);
 515              		.loc 1 1079 34 is_stmt 1 discriminator 2 view .LVU177
1079:lvgl/src/draw/sw/lv_draw_sw_rect.c ****             sh_ups_blur_buf[y] = v < 0 ? 0 : (v >> SHADOW_UPSCALE_SHIFT);
 516              		.loc 1 1079 32 is_stmt 0 discriminator 2 view .LVU178
 517 00e2 0133     		adds	r3, r3, #1
 518              	.LVL52:
1079:lvgl/src/draw/sw/lv_draw_sw_rect.c ****             sh_ups_blur_buf[y] = v < 0 ? 0 : (v >> SHADOW_UPSCALE_SHIFT);
 519              		.loc 1 1079 51 discriminator 2 view .LVU179
 520 00e4 3044     		add	r0, r0, r6
 521              	.LVL53:
 522              	.L29:
1079:lvgl/src/draw/sw/lv_draw_sw_rect.c ****             sh_ups_blur_buf[y] = v < 0 ? 0 : (v >> SHADOW_UPSCALE_SHIFT);
 523              		.loc 1 1079 22 is_stmt 1 discriminator 1 view .LVU180
 524 00e6 9C42     		cmp	r4, r3
ARM GAS  /var/folders/21/t9g5rlb91ys800n5npymflf80000gn/T//cca4dfU0.s 			page 37


 525 00e8 1ADD     		ble	.L48
 526              	.LBB118:
1080:lvgl/src/draw/sw/lv_draw_sw_rect.c **** 
 527              		.loc 1 1080 13 view .LVU181
1080:lvgl/src/draw/sw/lv_draw_sw_rect.c **** 
 528              		.loc 1 1080 32 is_stmt 0 view .LVU182
 529 00ea 002A     		cmp	r2, #0
 530 00ec EDDB     		blt	.L41
1080:lvgl/src/draw/sw/lv_draw_sw_rect.c **** 
 531              		.loc 1 1080 32 discriminator 1 view .LVU183
 532 00ee C2F38F1E 		ubfx	lr, r2, #6, #16
 533              	.L30:
1080:lvgl/src/draw/sw/lv_draw_sw_rect.c **** 
 534              		.loc 1 1080 32 discriminator 4 view .LVU184
 535 00f2 25F813E0 		strh	lr, [r5, r3, lsl #1]	@ movhi
1083:lvgl/src/draw/sw/lv_draw_sw_rect.c ****             if(y - s_right <= 0) top_val = sh_ups_tmp_buf[0];
 536              		.loc 1 1083 13 is_stmt 1 discriminator 4 view .LVU185
1084:lvgl/src/draw/sw/lv_draw_sw_rect.c ****             else top_val = sh_ups_buf[(y - s_right) * size + x];
 537              		.loc 1 1084 13 discriminator 4 view .LVU186
1084:lvgl/src/draw/sw/lv_draw_sw_rect.c ****             else top_val = sh_ups_buf[(y - s_right) * size + x];
 538              		.loc 1 1084 18 is_stmt 0 discriminator 4 view .LVU187
 539 00f6 A3EB080E 		sub	lr, r3, r8
1084:lvgl/src/draw/sw/lv_draw_sw_rect.c ****             else top_val = sh_ups_buf[(y - s_right) * size + x];
 540              		.loc 1 1084 15 discriminator 4 view .LVU188
 541 00fa BEF1000F 		cmp	lr, #0
 542 00fe E7DD     		ble	.L49
1085:lvgl/src/draw/sw/lv_draw_sw_rect.c ****             v -= top_val;
 543              		.loc 1 1085 18 is_stmt 1 view .LVU189
1085:lvgl/src/draw/sw/lv_draw_sw_rect.c ****             v -= top_val;
 544              		.loc 1 1085 60 is_stmt 0 view .LVU190
 545 0100 0EFB04CE 		mla	lr, lr, r4, ip
1085:lvgl/src/draw/sw/lv_draw_sw_rect.c ****             v -= top_val;
 546              		.loc 1 1085 38 view .LVU191
 547 0104 37F81EE0 		ldrh	lr, [r7, lr, lsl #1]
 548              	.LVL54:
 549              	.L32:
1086:lvgl/src/draw/sw/lv_draw_sw_rect.c **** 
 550              		.loc 1 1086 13 is_stmt 1 view .LVU192
1086:lvgl/src/draw/sw/lv_draw_sw_rect.c **** 
 551              		.loc 1 1086 15 is_stmt 0 view .LVU193
 552 0108 A2EB0E0E 		sub	lr, r2, lr
 553              	.LVL55:
1089:lvgl/src/draw/sw/lv_draw_sw_rect.c ****             if(y + s_left + 1 < size) bottom_val = sh_ups_buf[(y + s_left + 1) * size + x];
 554              		.loc 1 1089 13 is_stmt 1 view .LVU194
1090:lvgl/src/draw/sw/lv_draw_sw_rect.c ****             else bottom_val = sh_ups_buf[(size - 1) * size + x];
 555              		.loc 1 1090 13 view .LVU195
1090:lvgl/src/draw/sw/lv_draw_sw_rect.c ****             else bottom_val = sh_ups_buf[(size - 1) * size + x];
 556              		.loc 1 1090 18 is_stmt 0 view .LVU196
 557 010c 09EB0302 		add	r2, r9, r3
1090:lvgl/src/draw/sw/lv_draw_sw_rect.c ****             else bottom_val = sh_ups_buf[(size - 1) * size + x];
 558              		.loc 1 1090 27 view .LVU197
 559 0110 0132     		adds	r2, r2, #1
1090:lvgl/src/draw/sw/lv_draw_sw_rect.c ****             else bottom_val = sh_ups_buf[(size - 1) * size + x];
 560              		.loc 1 1090 15 view .LVU198
 561 0112 9442     		cmp	r4, r2
 562 0114 DFDD     		ble	.L33
1090:lvgl/src/draw/sw/lv_draw_sw_rect.c ****             else bottom_val = sh_ups_buf[(size - 1) * size + x];
ARM GAS  /var/folders/21/t9g5rlb91ys800n5npymflf80000gn/T//cca4dfU0.s 			page 38


 563              		.loc 1 1090 39 is_stmt 1 discriminator 1 view .LVU199
1090:lvgl/src/draw/sw/lv_draw_sw_rect.c ****             else bottom_val = sh_ups_buf[(size - 1) * size + x];
 564              		.loc 1 1090 87 is_stmt 0 discriminator 1 view .LVU200
 565 0116 02FB04C2 		mla	r2, r2, r4, ip
1090:lvgl/src/draw/sw/lv_draw_sw_rect.c ****             else bottom_val = sh_ups_buf[(size - 1) * size + x];
 566              		.loc 1 1090 62 discriminator 1 view .LVU201
 567 011a 37F81220 		ldrh	r2, [r7, r2, lsl #1]
 568              	.LVL56:
1090:lvgl/src/draw/sw/lv_draw_sw_rect.c ****             else bottom_val = sh_ups_buf[(size - 1) * size + x];
 569              		.loc 1 1090 62 discriminator 1 view .LVU202
 570 011e DFE7     		b	.L34
 571              	.LVL57:
 572              	.L48:
1090:lvgl/src/draw/sw/lv_draw_sw_rect.c ****             else bottom_val = sh_ups_buf[(size - 1) * size + x];
 573              		.loc 1 1090 62 discriminator 1 view .LVU203
 574              	.LBE118:
1097:lvgl/src/draw/sw/lv_draw_sw_rect.c ****             (*sh_ups_tmp_buf) = sh_ups_blur_buf[y];
 575              		.loc 1 1097 15 view .LVU204
 576 0120 0023     		movs	r3, #0
 577              	.LVL58:
1097:lvgl/src/draw/sw/lv_draw_sw_rect.c ****             (*sh_ups_tmp_buf) = sh_ups_blur_buf[y];
 578              		.loc 1 1097 15 view .LVU205
 579 0122 04E0     		b	.L36
 580              	.LVL59:
 581              	.L37:
1098:lvgl/src/draw/sw/lv_draw_sw_rect.c ****         }
 582              		.loc 1 1098 13 is_stmt 1 discriminator 3 view .LVU206
1098:lvgl/src/draw/sw/lv_draw_sw_rect.c ****         }
 583              		.loc 1 1098 48 is_stmt 0 discriminator 3 view .LVU207
 584 0124 35F81320 		ldrh	r2, [r5, r3, lsl #1]
1098:lvgl/src/draw/sw/lv_draw_sw_rect.c ****         }
 585              		.loc 1 1098 31 discriminator 3 view .LVU208
 586 0128 0A80     		strh	r2, [r1]	@ movhi
1097:lvgl/src/draw/sw/lv_draw_sw_rect.c ****             (*sh_ups_tmp_buf) = sh_ups_blur_buf[y];
 587              		.loc 1 1097 33 is_stmt 1 discriminator 3 view .LVU209
1097:lvgl/src/draw/sw/lv_draw_sw_rect.c ****             (*sh_ups_tmp_buf) = sh_ups_blur_buf[y];
 588              		.loc 1 1097 31 is_stmt 0 discriminator 3 view .LVU210
 589 012a 0133     		adds	r3, r3, #1
 590              	.LVL60:
1097:lvgl/src/draw/sw/lv_draw_sw_rect.c ****             (*sh_ups_tmp_buf) = sh_ups_blur_buf[y];
 591              		.loc 1 1097 50 discriminator 3 view .LVU211
 592 012c 3144     		add	r1, r1, r6
 593              	.LVL61:
 594              	.L36:
1097:lvgl/src/draw/sw/lv_draw_sw_rect.c ****             (*sh_ups_tmp_buf) = sh_ups_blur_buf[y];
 595              		.loc 1 1097 22 is_stmt 1 discriminator 1 view .LVU212
 596 012e 9C42     		cmp	r4, r3
 597 0130 F8DC     		bgt	.L37
 598              	.LBE116:
1076:lvgl/src/draw/sw/lv_draw_sw_rect.c ****         sh_ups_tmp_buf = &sh_ups_buf[x];
 599              		.loc 1 1076 27 discriminator 2 view .LVU213
 600 0132 0CF1010C 		add	ip, ip, #1
 601              	.LVL62:
 602              	.L28:
1076:lvgl/src/draw/sw/lv_draw_sw_rect.c ****         sh_ups_tmp_buf = &sh_ups_buf[x];
 603              		.loc 1 1076 18 discriminator 1 view .LVU214
 604 0136 6445     		cmp	r4, ip
ARM GAS  /var/folders/21/t9g5rlb91ys800n5npymflf80000gn/T//cca4dfU0.s 			page 39


 605 0138 09DD     		ble	.L50
 606              	.LBB119:
1077:lvgl/src/draw/sw/lv_draw_sw_rect.c ****         int32_t v = sh_ups_tmp_buf[0] * sw;
 607              		.loc 1 1077 9 view .LVU215
1077:lvgl/src/draw/sw/lv_draw_sw_rect.c ****         int32_t v = sh_ups_tmp_buf[0] * sw;
 608              		.loc 1 1077 24 is_stmt 0 view .LVU216
 609 013a 07EB4C01 		add	r1, r7, ip, lsl #1
 610              	.LVL63:
1078:lvgl/src/draw/sw/lv_draw_sw_rect.c ****         for(y = 0; y < size ; y++, sh_ups_tmp_buf += size) {
 611              		.loc 1 1078 9 is_stmt 1 view .LVU217
1078:lvgl/src/draw/sw/lv_draw_sw_rect.c ****         for(y = 0; y < size ; y++, sh_ups_tmp_buf += size) {
 612              		.loc 1 1078 35 is_stmt 0 view .LVU218
 613 013e 37F81C20 		ldrh	r2, [r7, ip, lsl #1]
1078:lvgl/src/draw/sw/lv_draw_sw_rect.c ****         for(y = 0; y < size ; y++, sh_ups_tmp_buf += size) {
 614              		.loc 1 1078 17 view .LVU219
 615 0142 019B     		ldr	r3, [sp, #4]
 616 0144 03FB02F2 		mul	r2, r3, r2
 617              	.LVL64:
1079:lvgl/src/draw/sw/lv_draw_sw_rect.c ****             sh_ups_blur_buf[y] = v < 0 ? 0 : (v >> SHADOW_UPSCALE_SHIFT);
 618              		.loc 1 1079 9 is_stmt 1 view .LVU220
1077:lvgl/src/draw/sw/lv_draw_sw_rect.c ****         int32_t v = sh_ups_tmp_buf[0] * sw;
 619              		.loc 1 1077 24 is_stmt 0 view .LVU221
 620 0148 0846     		mov	r0, r1
1079:lvgl/src/draw/sw/lv_draw_sw_rect.c ****             sh_ups_blur_buf[y] = v < 0 ? 0 : (v >> SHADOW_UPSCALE_SHIFT);
 621              		.loc 1 1079 15 view .LVU222
 622 014a 0023     		movs	r3, #0
1079:lvgl/src/draw/sw/lv_draw_sw_rect.c ****             sh_ups_blur_buf[y] = v < 0 ? 0 : (v >> SHADOW_UPSCALE_SHIFT);
 623              		.loc 1 1079 9 view .LVU223
 624 014c CBE7     		b	.L29
 625              	.LVL65:
 626              	.L50:
1079:lvgl/src/draw/sw/lv_draw_sw_rect.c ****             sh_ups_blur_buf[y] = v < 0 ? 0 : (v >> SHADOW_UPSCALE_SHIFT);
 627              		.loc 1 1079 9 view .LVU224
 628              	.LBE119:
1102:lvgl/src/draw/sw/lv_draw_sw_rect.c **** }
 629              		.loc 1 1102 5 is_stmt 1 view .LVU225
 630 014e 2846     		mov	r0, r5
 631 0150 FFF7FEFF 		bl	lv_mem_buf_release
 632              	.LVL66:
1103:lvgl/src/draw/sw/lv_draw_sw_rect.c **** #endif
 633              		.loc 1 1103 1 is_stmt 0 view .LVU226
 634 0154 03B0     		add	sp, sp, #12
 635              	.LCFI6:
 636              		.cfi_def_cfa_offset 36
 637              		@ sp needed
 638 0156 BDE8F08F 		pop	{r4, r5, r6, r7, r8, r9, r10, fp, pc}
1103:lvgl/src/draw/sw/lv_draw_sw_rect.c **** #endif
 639              		.loc 1 1103 1 view .LVU227
 640              		.cfi_endproc
 641              	.LFE168:
 643              		.section	.text.shadow_draw_corner_buf,"ax",%progbits
 644              		.align	1
 645              		.syntax unified
 646              		.thumb
 647              		.thumb_func
 649              	shadow_draw_corner_buf:
 650              	.LVL67:
ARM GAS  /var/folders/21/t9g5rlb91ys800n5npymflf80000gn/T//cca4dfU0.s 			page 40


 651              	.LFB167:
 947:lvgl/src/draw/sw/lv_draw_sw_rect.c ****     int32_t sw_ori = sw;
 652              		.loc 1 947 1 is_stmt 1 view -0
 653              		.cfi_startproc
 654              		@ args = 0, pretend = 0, frame = 32
 655              		@ frame_needed = 0, uses_anonymous_args = 0
 947:lvgl/src/draw/sw/lv_draw_sw_rect.c ****     int32_t sw_ori = sw;
 656              		.loc 1 947 1 is_stmt 0 view .LVU229
 657 0000 2DE9F04F 		push	{r4, r5, r6, r7, r8, r9, r10, fp, lr}
 658              	.LCFI7:
 659              		.cfi_def_cfa_offset 36
 660              		.cfi_offset 4, -36
 661              		.cfi_offset 5, -32
 662              		.cfi_offset 6, -28
 663              		.cfi_offset 7, -24
 664              		.cfi_offset 8, -20
 665              		.cfi_offset 9, -16
 666              		.cfi_offset 10, -12
 667              		.cfi_offset 11, -8
 668              		.cfi_offset 14, -4
 669 0004 8BB0     		sub	sp, sp, #44
 670              	.LCFI8:
 671              		.cfi_def_cfa_offset 80
 672 0006 8846     		mov	r8, r1
 673 0008 9146     		mov	r9, r2
 674 000a 1A46     		mov	r2, r3
 675              	.LVL68:
 948:lvgl/src/draw/sw/lv_draw_sw_rect.c ****     int32_t size = sw_ori  + r;
 676              		.loc 1 948 5 is_stmt 1 view .LVU230
 949:lvgl/src/draw/sw/lv_draw_sw_rect.c **** 
 677              		.loc 1 949 5 view .LVU231
 949:lvgl/src/draw/sw/lv_draw_sw_rect.c **** 
 678              		.loc 1 949 13 is_stmt 0 view .LVU232
 679 000c 03EB0904 		add	r4, r3, r9
 680              	.LVL69:
 951:lvgl/src/draw/sw/lv_draw_sw_rect.c ****     lv_area_copy(&sh_area, coords);
 681              		.loc 1 951 5 is_stmt 1 view .LVU233
 952:lvgl/src/draw/sw/lv_draw_sw_rect.c ****     sh_area.x2 = sw / 2 + r - 1  - ((sw & 1) ? 0 : 1);
 682              		.loc 1 952 5 view .LVU234
 683              	.LBB120:
 684              	.LBI120:
 685              		.file 2 "lvgl/src/draw/sw/../../misc/lv_area.h"
   1:lvgl/src/draw/sw/../../misc/lv_area.h **** /**
   2:lvgl/src/draw/sw/../../misc/lv_area.h ****  * @file lv_area.h
   3:lvgl/src/draw/sw/../../misc/lv_area.h ****  *
   4:lvgl/src/draw/sw/../../misc/lv_area.h ****  */
   5:lvgl/src/draw/sw/../../misc/lv_area.h **** 
   6:lvgl/src/draw/sw/../../misc/lv_area.h **** #ifndef LV_AREA_H
   7:lvgl/src/draw/sw/../../misc/lv_area.h **** #define LV_AREA_H
   8:lvgl/src/draw/sw/../../misc/lv_area.h **** 
   9:lvgl/src/draw/sw/../../misc/lv_area.h **** #ifdef __cplusplus
  10:lvgl/src/draw/sw/../../misc/lv_area.h **** extern "C" {
  11:lvgl/src/draw/sw/../../misc/lv_area.h **** #endif
  12:lvgl/src/draw/sw/../../misc/lv_area.h **** 
  13:lvgl/src/draw/sw/../../misc/lv_area.h **** /*********************
  14:lvgl/src/draw/sw/../../misc/lv_area.h ****  *      INCLUDES
  15:lvgl/src/draw/sw/../../misc/lv_area.h ****  *********************/
ARM GAS  /var/folders/21/t9g5rlb91ys800n5npymflf80000gn/T//cca4dfU0.s 			page 41


  16:lvgl/src/draw/sw/../../misc/lv_area.h **** #include "../lv_conf_internal.h"
  17:lvgl/src/draw/sw/../../misc/lv_area.h **** #include <stdbool.h>
  18:lvgl/src/draw/sw/../../misc/lv_area.h **** #include <stdint.h>
  19:lvgl/src/draw/sw/../../misc/lv_area.h **** 
  20:lvgl/src/draw/sw/../../misc/lv_area.h **** /*********************
  21:lvgl/src/draw/sw/../../misc/lv_area.h ****  *      DEFINES
  22:lvgl/src/draw/sw/../../misc/lv_area.h ****  *********************/
  23:lvgl/src/draw/sw/../../misc/lv_area.h **** 
  24:lvgl/src/draw/sw/../../misc/lv_area.h **** #if LV_USE_LARGE_COORD
  25:lvgl/src/draw/sw/../../misc/lv_area.h **** typedef int32_t lv_coord_t;
  26:lvgl/src/draw/sw/../../misc/lv_area.h **** #else
  27:lvgl/src/draw/sw/../../misc/lv_area.h **** typedef int16_t lv_coord_t;
  28:lvgl/src/draw/sw/../../misc/lv_area.h **** #endif
  29:lvgl/src/draw/sw/../../misc/lv_area.h **** 
  30:lvgl/src/draw/sw/../../misc/lv_area.h **** /**********************
  31:lvgl/src/draw/sw/../../misc/lv_area.h ****  *      TYPEDEFS
  32:lvgl/src/draw/sw/../../misc/lv_area.h ****  **********************/
  33:lvgl/src/draw/sw/../../misc/lv_area.h **** 
  34:lvgl/src/draw/sw/../../misc/lv_area.h **** /**
  35:lvgl/src/draw/sw/../../misc/lv_area.h ****  * Represents a point on the screen.
  36:lvgl/src/draw/sw/../../misc/lv_area.h ****  */
  37:lvgl/src/draw/sw/../../misc/lv_area.h **** typedef struct {
  38:lvgl/src/draw/sw/../../misc/lv_area.h ****     lv_coord_t x;
  39:lvgl/src/draw/sw/../../misc/lv_area.h ****     lv_coord_t y;
  40:lvgl/src/draw/sw/../../misc/lv_area.h **** } lv_point_t;
  41:lvgl/src/draw/sw/../../misc/lv_area.h **** 
  42:lvgl/src/draw/sw/../../misc/lv_area.h **** /** Represents an area of the screen.*/
  43:lvgl/src/draw/sw/../../misc/lv_area.h **** typedef struct {
  44:lvgl/src/draw/sw/../../misc/lv_area.h ****     lv_coord_t x1;
  45:lvgl/src/draw/sw/../../misc/lv_area.h ****     lv_coord_t y1;
  46:lvgl/src/draw/sw/../../misc/lv_area.h ****     lv_coord_t x2;
  47:lvgl/src/draw/sw/../../misc/lv_area.h ****     lv_coord_t y2;
  48:lvgl/src/draw/sw/../../misc/lv_area.h **** } lv_area_t;
  49:lvgl/src/draw/sw/../../misc/lv_area.h **** 
  50:lvgl/src/draw/sw/../../misc/lv_area.h **** /** Alignments*/
  51:lvgl/src/draw/sw/../../misc/lv_area.h **** enum {
  52:lvgl/src/draw/sw/../../misc/lv_area.h ****     LV_ALIGN_DEFAULT = 0,
  53:lvgl/src/draw/sw/../../misc/lv_area.h ****     LV_ALIGN_TOP_LEFT,
  54:lvgl/src/draw/sw/../../misc/lv_area.h ****     LV_ALIGN_TOP_MID,
  55:lvgl/src/draw/sw/../../misc/lv_area.h ****     LV_ALIGN_TOP_RIGHT,
  56:lvgl/src/draw/sw/../../misc/lv_area.h ****     LV_ALIGN_BOTTOM_LEFT,
  57:lvgl/src/draw/sw/../../misc/lv_area.h ****     LV_ALIGN_BOTTOM_MID,
  58:lvgl/src/draw/sw/../../misc/lv_area.h ****     LV_ALIGN_BOTTOM_RIGHT,
  59:lvgl/src/draw/sw/../../misc/lv_area.h ****     LV_ALIGN_LEFT_MID,
  60:lvgl/src/draw/sw/../../misc/lv_area.h ****     LV_ALIGN_RIGHT_MID,
  61:lvgl/src/draw/sw/../../misc/lv_area.h ****     LV_ALIGN_CENTER,
  62:lvgl/src/draw/sw/../../misc/lv_area.h **** 
  63:lvgl/src/draw/sw/../../misc/lv_area.h ****     LV_ALIGN_OUT_TOP_LEFT,
  64:lvgl/src/draw/sw/../../misc/lv_area.h ****     LV_ALIGN_OUT_TOP_MID,
  65:lvgl/src/draw/sw/../../misc/lv_area.h ****     LV_ALIGN_OUT_TOP_RIGHT,
  66:lvgl/src/draw/sw/../../misc/lv_area.h ****     LV_ALIGN_OUT_BOTTOM_LEFT,
  67:lvgl/src/draw/sw/../../misc/lv_area.h ****     LV_ALIGN_OUT_BOTTOM_MID,
  68:lvgl/src/draw/sw/../../misc/lv_area.h ****     LV_ALIGN_OUT_BOTTOM_RIGHT,
  69:lvgl/src/draw/sw/../../misc/lv_area.h ****     LV_ALIGN_OUT_LEFT_TOP,
  70:lvgl/src/draw/sw/../../misc/lv_area.h ****     LV_ALIGN_OUT_LEFT_MID,
  71:lvgl/src/draw/sw/../../misc/lv_area.h ****     LV_ALIGN_OUT_LEFT_BOTTOM,
  72:lvgl/src/draw/sw/../../misc/lv_area.h ****     LV_ALIGN_OUT_RIGHT_TOP,
ARM GAS  /var/folders/21/t9g5rlb91ys800n5npymflf80000gn/T//cca4dfU0.s 			page 42


  73:lvgl/src/draw/sw/../../misc/lv_area.h ****     LV_ALIGN_OUT_RIGHT_MID,
  74:lvgl/src/draw/sw/../../misc/lv_area.h ****     LV_ALIGN_OUT_RIGHT_BOTTOM,
  75:lvgl/src/draw/sw/../../misc/lv_area.h **** };
  76:lvgl/src/draw/sw/../../misc/lv_area.h **** typedef uint8_t lv_align_t;
  77:lvgl/src/draw/sw/../../misc/lv_area.h **** 
  78:lvgl/src/draw/sw/../../misc/lv_area.h **** enum {
  79:lvgl/src/draw/sw/../../misc/lv_area.h ****     LV_DIR_NONE     = 0x00,
  80:lvgl/src/draw/sw/../../misc/lv_area.h ****     LV_DIR_LEFT     = (1 << 0),
  81:lvgl/src/draw/sw/../../misc/lv_area.h ****     LV_DIR_RIGHT    = (1 << 1),
  82:lvgl/src/draw/sw/../../misc/lv_area.h ****     LV_DIR_TOP      = (1 << 2),
  83:lvgl/src/draw/sw/../../misc/lv_area.h ****     LV_DIR_BOTTOM   = (1 << 3),
  84:lvgl/src/draw/sw/../../misc/lv_area.h ****     LV_DIR_HOR      = LV_DIR_LEFT | LV_DIR_RIGHT,
  85:lvgl/src/draw/sw/../../misc/lv_area.h ****     LV_DIR_VER      = LV_DIR_TOP | LV_DIR_BOTTOM,
  86:lvgl/src/draw/sw/../../misc/lv_area.h ****     LV_DIR_ALL      = LV_DIR_HOR | LV_DIR_VER,
  87:lvgl/src/draw/sw/../../misc/lv_area.h **** };
  88:lvgl/src/draw/sw/../../misc/lv_area.h **** 
  89:lvgl/src/draw/sw/../../misc/lv_area.h **** typedef uint8_t lv_dir_t;
  90:lvgl/src/draw/sw/../../misc/lv_area.h **** 
  91:lvgl/src/draw/sw/../../misc/lv_area.h **** /**********************
  92:lvgl/src/draw/sw/../../misc/lv_area.h ****  * GLOBAL PROTOTYPES
  93:lvgl/src/draw/sw/../../misc/lv_area.h ****  **********************/
  94:lvgl/src/draw/sw/../../misc/lv_area.h **** 
  95:lvgl/src/draw/sw/../../misc/lv_area.h **** /**
  96:lvgl/src/draw/sw/../../misc/lv_area.h ****  * Initialize an area
  97:lvgl/src/draw/sw/../../misc/lv_area.h ****  * @param area_p pointer to an area
  98:lvgl/src/draw/sw/../../misc/lv_area.h ****  * @param x1 left coordinate of the area
  99:lvgl/src/draw/sw/../../misc/lv_area.h ****  * @param y1 top coordinate of the area
 100:lvgl/src/draw/sw/../../misc/lv_area.h ****  * @param x2 right coordinate of the area
 101:lvgl/src/draw/sw/../../misc/lv_area.h ****  * @param y2 bottom coordinate of the area
 102:lvgl/src/draw/sw/../../misc/lv_area.h ****  */
 103:lvgl/src/draw/sw/../../misc/lv_area.h **** void lv_area_set(lv_area_t * area_p, lv_coord_t x1, lv_coord_t y1, lv_coord_t x2, lv_coord_t y2);
 104:lvgl/src/draw/sw/../../misc/lv_area.h **** 
 105:lvgl/src/draw/sw/../../misc/lv_area.h **** /**
 106:lvgl/src/draw/sw/../../misc/lv_area.h ****  * Copy an area
 107:lvgl/src/draw/sw/../../misc/lv_area.h ****  * @param dest pointer to the destination area
 108:lvgl/src/draw/sw/../../misc/lv_area.h ****  * @param src pointer to the source area
 109:lvgl/src/draw/sw/../../misc/lv_area.h ****  */
 110:lvgl/src/draw/sw/../../misc/lv_area.h **** inline static void lv_area_copy(lv_area_t * dest, const lv_area_t * src)
 686              		.loc 2 110 20 view .LVU235
 687              	.LBB121:
 111:lvgl/src/draw/sw/../../misc/lv_area.h **** {
 112:lvgl/src/draw/sw/../../misc/lv_area.h ****     dest->x1 = src->x1;
 688              		.loc 2 112 5 view .LVU236
 689              		.loc 2 112 19 is_stmt 0 view .LVU237
 690 0010 B0F90030 		ldrsh	r3, [r0]
 691              	.LVL70:
 692              		.loc 2 112 14 view .LVU238
 693 0014 ADF82030 		strh	r3, [sp, #32]	@ movhi
 113:lvgl/src/draw/sw/../../misc/lv_area.h ****     dest->y1 = src->y1;
 694              		.loc 2 113 5 is_stmt 1 view .LVU239
 695              		.loc 2 113 19 is_stmt 0 view .LVU240
 696 0018 B0F90230 		ldrsh	r3, [r0, #2]
 697              		.loc 2 113 14 view .LVU241
 698 001c ADF82230 		strh	r3, [sp, #34]	@ movhi
 114:lvgl/src/draw/sw/../../misc/lv_area.h ****     dest->x2 = src->x2;
 699              		.loc 2 114 5 is_stmt 1 view .LVU242
 700              		.loc 2 114 19 is_stmt 0 view .LVU243
ARM GAS  /var/folders/21/t9g5rlb91ys800n5npymflf80000gn/T//cca4dfU0.s 			page 43


 701 0020 B0F90430 		ldrsh	r3, [r0, #4]
 702              		.loc 2 114 14 view .LVU244
 703 0024 ADF82430 		strh	r3, [sp, #36]	@ movhi
 115:lvgl/src/draw/sw/../../misc/lv_area.h ****     dest->y2 = src->y2;
 704              		.loc 2 115 5 is_stmt 1 view .LVU245
 705              		.loc 2 115 19 is_stmt 0 view .LVU246
 706 0028 B0F90610 		ldrsh	r1, [r0, #6]
 707              	.LVL71:
 708              		.loc 2 115 14 view .LVU247
 709 002c ADF82610 		strh	r1, [sp, #38]	@ movhi
 710              	.LVL72:
 711              		.loc 2 115 14 view .LVU248
 712              	.LBE121:
 713              	.LBE120:
 953:lvgl/src/draw/sw/lv_draw_sw_rect.c ****     sh_area.y1 = sw / 2 + 1;
 714              		.loc 1 953 5 is_stmt 1 view .LVU249
 953:lvgl/src/draw/sw/lv_draw_sw_rect.c ****     sh_area.y1 = sw / 2 + 1;
 715              		.loc 1 953 25 is_stmt 0 view .LVU250
 716 0030 09EBD975 		add	r5, r9, r9, lsr #31
 717 0034 C5F34F05 		ubfx	r5, r5, #1, #16
 718 0038 AB18     		adds	r3, r5, r2
 719 003a 9BB2     		uxth	r3, r3
 720 003c 09F0010A 		and	r10, r9, #1
 953:lvgl/src/draw/sw/lv_draw_sw_rect.c ****     sh_area.y1 = sw / 2 + 1;
 721              		.loc 1 953 50 view .LVU251
 722 0040 19F0010F 		tst	r9, #1
 723 0044 0CBF     		ite	eq
 724 0046 0126     		moveq	r6, #1
 725 0048 0026     		movne	r6, #0
 953:lvgl/src/draw/sw/lv_draw_sw_rect.c ****     sh_area.y1 = sw / 2 + 1;
 726              		.loc 1 953 34 view .LVU252
 727 004a 9B1B     		subs	r3, r3, r6
 728 004c 013B     		subs	r3, r3, #1
 729 004e 9EB2     		uxth	r6, r3
 953:lvgl/src/draw/sw/lv_draw_sw_rect.c ****     sh_area.y1 = sw / 2 + 1;
 730              		.loc 1 953 16 view .LVU253
 731 0050 ADF82430 		strh	r3, [sp, #36]	@ movhi
 954:lvgl/src/draw/sw/lv_draw_sw_rect.c **** 
 732              		.loc 1 954 5 is_stmt 1 view .LVU254
 954:lvgl/src/draw/sw/lv_draw_sw_rect.c **** 
 733              		.loc 1 954 25 is_stmt 0 view .LVU255
 734 0054 0135     		adds	r5, r5, #1
 954:lvgl/src/draw/sw/lv_draw_sw_rect.c **** 
 735              		.loc 1 954 16 view .LVU256
 736 0056 ADF82250 		strh	r5, [sp, #34]	@ movhi
 956:lvgl/src/draw/sw/lv_draw_sw_rect.c ****     sh_area.y2 = sh_area.y1 + lv_area_get_height(coords);
 737              		.loc 1 956 5 is_stmt 1 view .LVU257
 738              	.LVL73:
 739              	.LBB122:
 740              	.LBI122:
 116:lvgl/src/draw/sw/../../misc/lv_area.h **** }
 117:lvgl/src/draw/sw/../../misc/lv_area.h **** 
 118:lvgl/src/draw/sw/../../misc/lv_area.h **** /**
 119:lvgl/src/draw/sw/../../misc/lv_area.h ****  * Get the width of an area
 120:lvgl/src/draw/sw/../../misc/lv_area.h ****  * @param area_p pointer to an area
 121:lvgl/src/draw/sw/../../misc/lv_area.h ****  * @return the width of the area (if x1 == x2 -> width = 1)
 122:lvgl/src/draw/sw/../../misc/lv_area.h ****  */
ARM GAS  /var/folders/21/t9g5rlb91ys800n5npymflf80000gn/T//cca4dfU0.s 			page 44


 123:lvgl/src/draw/sw/../../misc/lv_area.h **** static inline lv_coord_t lv_area_get_width(const lv_area_t * area_p)
 741              		.loc 2 123 26 view .LVU258
 742              	.LBB123:
 124:lvgl/src/draw/sw/../../misc/lv_area.h **** {
 125:lvgl/src/draw/sw/../../misc/lv_area.h ****     return (lv_coord_t)(area_p->x2 - area_p->x1 + 1);
 743              		.loc 2 125 5 view .LVU259
 744              		.loc 2 125 31 is_stmt 0 view .LVU260
 745 005a 8388     		ldrh	r3, [r0, #4]
 746              		.loc 2 125 44 view .LVU261
 747 005c 0788     		ldrh	r7, [r0]
 748              		.loc 2 125 36 view .LVU262
 749 005e DB1B     		subs	r3, r3, r7
 750 0060 9BB2     		uxth	r3, r3
 751              		.loc 2 125 49 view .LVU263
 752 0062 0133     		adds	r3, r3, #1
 753 0064 9BB2     		uxth	r3, r3
 754              	.LVL74:
 755              		.loc 2 125 49 view .LVU264
 756              	.LBE123:
 757              	.LBE122:
 956:lvgl/src/draw/sw/lv_draw_sw_rect.c ****     sh_area.y2 = sh_area.y1 + lv_area_get_height(coords);
 758              		.loc 1 956 29 view .LVU265
 759 0066 F61A     		subs	r6, r6, r3
 956:lvgl/src/draw/sw/lv_draw_sw_rect.c ****     sh_area.y2 = sh_area.y1 + lv_area_get_height(coords);
 760              		.loc 1 956 16 view .LVU266
 761 0068 ADF82060 		strh	r6, [sp, #32]	@ movhi
 957:lvgl/src/draw/sw/lv_draw_sw_rect.c **** 
 762              		.loc 1 957 5 is_stmt 1 view .LVU267
 763              	.LVL75:
 764              	.LBB124:
 765              	.LBI124:
 126:lvgl/src/draw/sw/../../misc/lv_area.h **** }
 127:lvgl/src/draw/sw/../../misc/lv_area.h **** 
 128:lvgl/src/draw/sw/../../misc/lv_area.h **** /**
 129:lvgl/src/draw/sw/../../misc/lv_area.h ****  * Get the height of an area
 130:lvgl/src/draw/sw/../../misc/lv_area.h ****  * @param area_p pointer to an area
 131:lvgl/src/draw/sw/../../misc/lv_area.h ****  * @return the height of the area (if y1 == y2 -> height = 1)
 132:lvgl/src/draw/sw/../../misc/lv_area.h ****  */
 133:lvgl/src/draw/sw/../../misc/lv_area.h **** static inline lv_coord_t lv_area_get_height(const lv_area_t * area_p)
 766              		.loc 2 133 26 view .LVU268
 767              	.LBB125:
 134:lvgl/src/draw/sw/../../misc/lv_area.h **** {
 135:lvgl/src/draw/sw/../../misc/lv_area.h ****     return (lv_coord_t)(area_p->y2 - area_p->y1 + 1);
 768              		.loc 2 135 5 view .LVU269
 769              		.loc 2 135 31 is_stmt 0 view .LVU270
 770 006c 89B2     		uxth	r1, r1
 771              		.loc 2 135 44 view .LVU271
 772 006e 4388     		ldrh	r3, [r0, #2]
 773              		.loc 2 135 36 view .LVU272
 774 0070 C91A     		subs	r1, r1, r3
 775 0072 89B2     		uxth	r1, r1
 776              		.loc 2 135 49 view .LVU273
 777 0074 0131     		adds	r1, r1, #1
 778 0076 89B2     		uxth	r1, r1
 779              	.LVL76:
 780              		.loc 2 135 49 view .LVU274
 781              	.LBE125:
ARM GAS  /var/folders/21/t9g5rlb91ys800n5npymflf80000gn/T//cca4dfU0.s 			page 45


 782              	.LBE124:
 957:lvgl/src/draw/sw/lv_draw_sw_rect.c **** 
 783              		.loc 1 957 29 view .LVU275
 784 0078 11FA85F5 		uxtah	r5, r1, r5
 957:lvgl/src/draw/sw/lv_draw_sw_rect.c **** 
 785              		.loc 1 957 16 view .LVU276
 786 007c ADF82650 		strh	r5, [sp, #38]	@ movhi
 959:lvgl/src/draw/sw/lv_draw_sw_rect.c ****     lv_draw_mask_radius_init(&mask_param, &sh_area, r, false);
 787              		.loc 1 959 5 is_stmt 1 view .LVU277
 960:lvgl/src/draw/sw/lv_draw_sw_rect.c **** 
 788              		.loc 1 960 5 view .LVU278
 789 0080 0023     		movs	r3, #0
 790 0082 08A9     		add	r1, sp, #32
 791 0084 02A8     		add	r0, sp, #8
 792              	.LVL77:
 960:lvgl/src/draw/sw/lv_draw_sw_rect.c **** 
 793              		.loc 1 960 5 is_stmt 0 view .LVU279
 794 0086 FFF7FEFF 		bl	lv_draw_mask_radius_init
 795              	.LVL78:
 964:lvgl/src/draw/sw/lv_draw_sw_rect.c ****     else sw = sw_ori >> 1;
 796              		.loc 1 964 5 is_stmt 1 view .LVU280
 964:lvgl/src/draw/sw/lv_draw_sw_rect.c ****     else sw = sw_ori >> 1;
 797              		.loc 1 964 7 is_stmt 0 view .LVU281
 798 008a B9F1010F 		cmp	r9, #1
 799 008e 09D0     		beq	.L72
 965:lvgl/src/draw/sw/lv_draw_sw_rect.c **** #endif
 800              		.loc 1 965 10 is_stmt 1 view .LVU282
 965:lvgl/src/draw/sw/lv_draw_sw_rect.c **** #endif
 801              		.loc 1 965 13 is_stmt 0 view .LVU283
 802 0090 4FEA6909 		asr	r9, r9, #1
 803              	.LVL79:
 804              	.L52:
 968:lvgl/src/draw/sw/lv_draw_sw_rect.c ****     lv_opa_t * mask_line = lv_mem_buf_get(size);
 805              		.loc 1 968 5 is_stmt 1 view .LVU284
 969:lvgl/src/draw/sw/lv_draw_sw_rect.c ****     uint16_t * sh_ups_tmp_buf = (uint16_t *)sh_buf;
 806              		.loc 1 969 5 view .LVU285
 969:lvgl/src/draw/sw/lv_draw_sw_rect.c ****     uint16_t * sh_ups_tmp_buf = (uint16_t *)sh_buf;
 807              		.loc 1 969 28 is_stmt 0 view .LVU286
 808 0094 2046     		mov	r0, r4
 809 0096 FFF7FEFF 		bl	lv_mem_buf_get
 810              	.LVL80:
 811 009a 0546     		mov	r5, r0
 812              	.LVL81:
 970:lvgl/src/draw/sw/lv_draw_sw_rect.c ****     for(y = 0; y < size; y++) {
 813              		.loc 1 970 5 is_stmt 1 view .LVU287
 971:lvgl/src/draw/sw/lv_draw_sw_rect.c ****         lv_memset_ff(mask_line, size);
 814              		.loc 1 971 5 view .LVU288
 970:lvgl/src/draw/sw/lv_draw_sw_rect.c ****     for(y = 0; y < size; y++) {
 815              		.loc 1 970 16 is_stmt 0 view .LVU289
 816 009c 4646     		mov	r6, r8
 971:lvgl/src/draw/sw/lv_draw_sw_rect.c ****         lv_memset_ff(mask_line, size);
 817              		.loc 1 971 11 view .LVU290
 818 009e 4FF0000B 		mov	fp, #0
 971:lvgl/src/draw/sw/lv_draw_sw_rect.c ****         lv_memset_ff(mask_line, size);
 819              		.loc 1 971 5 view .LVU291
 820 00a2 24E0     		b	.L53
 821              	.LVL82:
ARM GAS  /var/folders/21/t9g5rlb91ys800n5npymflf80000gn/T//cca4dfU0.s 			page 46


 822              	.L72:
 964:lvgl/src/draw/sw/lv_draw_sw_rect.c ****     else sw = sw_ori >> 1;
 823              		.loc 1 964 24 view .LVU292
 824 00a4 4FF00109 		mov	r9, #1
 825              	.LVL83:
 964:lvgl/src/draw/sw/lv_draw_sw_rect.c ****     else sw = sw_ori >> 1;
 826              		.loc 1 964 24 view .LVU293
 827 00a8 F4E7     		b	.L52
 828              	.LVL84:
 829              	.L54:
 830              	.LBB126:
 831              	.LBB127:
 978:lvgl/src/draw/sw/lv_draw_sw_rect.c ****             sh_ups_tmp_buf[0] = (mask_line[0] << SHADOW_UPSCALE_SHIFT) / sw;
 832              		.loc 1 978 13 is_stmt 1 view .LVU294
 979:lvgl/src/draw/sw/lv_draw_sw_rect.c ****             for(i = 1; i < size; i++) {
 833              		.loc 1 979 13 view .LVU295
 979:lvgl/src/draw/sw/lv_draw_sw_rect.c ****             for(i = 1; i < size; i++) {
 834              		.loc 1 979 43 is_stmt 0 view .LVU296
 835 00aa 2B78     		ldrb	r3, [r5]	@ zero_extendqisi2
 979:lvgl/src/draw/sw/lv_draw_sw_rect.c ****             for(i = 1; i < size; i++) {
 836              		.loc 1 979 47 view .LVU297
 837 00ac 9B01     		lsls	r3, r3, #6
 979:lvgl/src/draw/sw/lv_draw_sw_rect.c ****             for(i = 1; i < size; i++) {
 838              		.loc 1 979 72 view .LVU298
 839 00ae 4846     		mov	r0, r9
 840              	.LVL85:
 979:lvgl/src/draw/sw/lv_draw_sw_rect.c ****             for(i = 1; i < size; i++) {
 841              		.loc 1 979 72 view .LVU299
 842 00b0 93FBF9F3 		sdiv	r3, r3, r9
 979:lvgl/src/draw/sw/lv_draw_sw_rect.c ****             for(i = 1; i < size; i++) {
 843              		.loc 1 979 31 view .LVU300
 844 00b4 3380     		strh	r3, [r6]	@ movhi
 980:lvgl/src/draw/sw/lv_draw_sw_rect.c ****                 if(mask_line[i] == mask_line[i - 1]) sh_ups_tmp_buf[i] = sh_ups_tmp_buf[i - 1];
 845              		.loc 1 980 13 is_stmt 1 view .LVU301
 846              	.LVL86:
 980:lvgl/src/draw/sw/lv_draw_sw_rect.c ****                 if(mask_line[i] == mask_line[i - 1]) sh_ups_tmp_buf[i] = sh_ups_tmp_buf[i - 1];
 847              		.loc 1 980 19 is_stmt 0 view .LVU302
 848 00b6 0123     		movs	r3, #1
 980:lvgl/src/draw/sw/lv_draw_sw_rect.c ****                 if(mask_line[i] == mask_line[i - 1]) sh_ups_tmp_buf[i] = sh_ups_tmp_buf[i - 1];
 849              		.loc 1 980 13 view .LVU303
 850 00b8 07E0     		b	.L56
 851              	.LVL87:
 852              	.L76:
 981:lvgl/src/draw/sw/lv_draw_sw_rect.c ****                 else  sh_ups_tmp_buf[i] = (mask_line[i] << SHADOW_UPSCALE_SHIFT) / sw;
 853              		.loc 1 981 54 is_stmt 1 discriminator 1 view .LVU304
 981:lvgl/src/draw/sw/lv_draw_sw_rect.c ****                 else  sh_ups_tmp_buf[i] = (mask_line[i] << SHADOW_UPSCALE_SHIFT) / sw;
 854              		.loc 1 981 88 is_stmt 0 discriminator 1 view .LVU305
 855 00ba 03F10042 		add	r2, r3, #-2147483648
 856 00be 013A     		subs	r2, r2, #1
 857 00c0 36F81220 		ldrh	r2, [r6, r2, lsl #1]
 981:lvgl/src/draw/sw/lv_draw_sw_rect.c ****                 else  sh_ups_tmp_buf[i] = (mask_line[i] << SHADOW_UPSCALE_SHIFT) / sw;
 858              		.loc 1 981 72 discriminator 1 view .LVU306
 859 00c4 26F81320 		strh	r2, [r6, r3, lsl #1]	@ movhi
 860              	.L58:
 980:lvgl/src/draw/sw/lv_draw_sw_rect.c ****                 if(mask_line[i] == mask_line[i - 1]) sh_ups_tmp_buf[i] = sh_ups_tmp_buf[i - 1];
 861              		.loc 1 980 35 is_stmt 1 discriminator 2 view .LVU307
 862 00c8 0133     		adds	r3, r3, #1
ARM GAS  /var/folders/21/t9g5rlb91ys800n5npymflf80000gn/T//cca4dfU0.s 			page 47


 863              	.LVL88:
 864              	.L56:
 980:lvgl/src/draw/sw/lv_draw_sw_rect.c ****                 if(mask_line[i] == mask_line[i - 1]) sh_ups_tmp_buf[i] = sh_ups_tmp_buf[i - 1];
 865              		.loc 1 980 26 discriminator 1 view .LVU308
 866 00ca A342     		cmp	r3, r4
 867 00cc 0BDA     		bge	.L55
 981:lvgl/src/draw/sw/lv_draw_sw_rect.c ****                 else  sh_ups_tmp_buf[i] = (mask_line[i] << SHADOW_UPSCALE_SHIFT) / sw;
 868              		.loc 1 981 17 view .LVU309
 981:lvgl/src/draw/sw/lv_draw_sw_rect.c ****                 else  sh_ups_tmp_buf[i] = (mask_line[i] << SHADOW_UPSCALE_SHIFT) / sw;
 869              		.loc 1 981 29 is_stmt 0 view .LVU310
 870 00ce EA5C     		ldrb	r2, [r5, r3]	@ zero_extendqisi2
 981:lvgl/src/draw/sw/lv_draw_sw_rect.c ****                 else  sh_ups_tmp_buf[i] = (mask_line[i] << SHADOW_UPSCALE_SHIFT) / sw;
 871              		.loc 1 981 45 view .LVU311
 872 00d0 E918     		adds	r1, r5, r3
 873 00d2 11F8011C 		ldrb	r1, [r1, #-1]	@ zero_extendqisi2
 981:lvgl/src/draw/sw/lv_draw_sw_rect.c ****                 else  sh_ups_tmp_buf[i] = (mask_line[i] << SHADOW_UPSCALE_SHIFT) / sw;
 874              		.loc 1 981 19 view .LVU312
 875 00d6 8A42     		cmp	r2, r1
 876 00d8 EFD0     		beq	.L76
 982:lvgl/src/draw/sw/lv_draw_sw_rect.c ****             }
 877              		.loc 1 982 23 is_stmt 1 view .LVU313
 982:lvgl/src/draw/sw/lv_draw_sw_rect.c ****             }
 878              		.loc 1 982 57 is_stmt 0 view .LVU314
 879 00da 9201     		lsls	r2, r2, #6
 982:lvgl/src/draw/sw/lv_draw_sw_rect.c ****             }
 880              		.loc 1 982 82 view .LVU315
 881 00dc 92FBF0F2 		sdiv	r2, r2, r0
 982:lvgl/src/draw/sw/lv_draw_sw_rect.c ****             }
 882              		.loc 1 982 41 view .LVU316
 883 00e0 26F81320 		strh	r2, [r6, r3, lsl #1]	@ movhi
 884 00e4 F0E7     		b	.L58
 885              	.LVL89:
 886              	.L55:
 982:lvgl/src/draw/sw/lv_draw_sw_rect.c ****             }
 887              		.loc 1 982 41 view .LVU317
 888              	.LBE127:
 986:lvgl/src/draw/sw/lv_draw_sw_rect.c ****     }
 889              		.loc 1 986 9 is_stmt 1 discriminator 2 view .LVU318
 986:lvgl/src/draw/sw/lv_draw_sw_rect.c ****     }
 890              		.loc 1 986 24 is_stmt 0 discriminator 2 view .LVU319
 891 00e6 06EB4406 		add	r6, r6, r4, lsl #1
 892              	.LVL90:
 986:lvgl/src/draw/sw/lv_draw_sw_rect.c ****     }
 893              		.loc 1 986 24 discriminator 2 view .LVU320
 894              	.LBE126:
 971:lvgl/src/draw/sw/lv_draw_sw_rect.c ****         lv_memset_ff(mask_line, size);
 895              		.loc 1 971 27 is_stmt 1 discriminator 2 view .LVU321
 896 00ea 0BF1010B 		add	fp, fp, #1
 897              	.LVL91:
 898              	.L53:
 971:lvgl/src/draw/sw/lv_draw_sw_rect.c ****         lv_memset_ff(mask_line, size);
 899              		.loc 1 971 18 discriminator 1 view .LVU322
 900 00ee A345     		cmp	fp, r4
 901 00f0 13DA     		bge	.L77
 902              	.LBB128:
 972:lvgl/src/draw/sw/lv_draw_sw_rect.c ****         lv_draw_mask_res_t mask_res = mask_param.dsc.cb(mask_line, 0, y, size, &mask_param);
 903              		.loc 1 972 9 view .LVU323
ARM GAS  /var/folders/21/t9g5rlb91ys800n5npymflf80000gn/T//cca4dfU0.s 			page 48


 904 00f2 2146     		mov	r1, r4
 905 00f4 2846     		mov	r0, r5
 906 00f6 FFF7FEFF 		bl	lv_memset_ff
 907              	.LVL92:
 973:lvgl/src/draw/sw/lv_draw_sw_rect.c ****         if(mask_res == LV_DRAW_MASK_RES_TRANSP) {
 908              		.loc 1 973 9 view .LVU324
 973:lvgl/src/draw/sw/lv_draw_sw_rect.c ****         if(mask_res == LV_DRAW_MASK_RES_TRANSP) {
 909              		.loc 1 973 39 is_stmt 0 view .LVU325
 910 00fa 02AB     		add	r3, sp, #8
 911 00fc 0093     		str	r3, [sp]
 912 00fe 23B2     		sxth	r3, r4
 913 0100 0FFA8BF2 		sxth	r2, fp
 914 0104 0021     		movs	r1, #0
 915 0106 2846     		mov	r0, r5
 916 0108 029F     		ldr	r7, [sp, #8]
 917 010a B847     		blx	r7
 918              	.LVL93:
 974:lvgl/src/draw/sw/lv_draw_sw_rect.c ****             lv_memset_00(sh_ups_tmp_buf, size * sizeof(sh_ups_tmp_buf[0]));
 919              		.loc 1 974 9 is_stmt 1 view .LVU326
 974:lvgl/src/draw/sw/lv_draw_sw_rect.c ****             lv_memset_00(sh_ups_tmp_buf, size * sizeof(sh_ups_tmp_buf[0]));
 920              		.loc 1 974 11 is_stmt 0 view .LVU327
 921 010c 0028     		cmp	r0, #0
 922 010e CCD1     		bne	.L54
 975:lvgl/src/draw/sw/lv_draw_sw_rect.c ****         }
 923              		.loc 1 975 13 is_stmt 1 view .LVU328
 924 0110 6100     		lsls	r1, r4, #1
 925 0112 3046     		mov	r0, r6
 926              	.LVL94:
 975:lvgl/src/draw/sw/lv_draw_sw_rect.c ****         }
 927              		.loc 1 975 13 is_stmt 0 view .LVU329
 928 0114 FFF7FEFF 		bl	lv_memset_00
 929              	.LVL95:
 930 0118 E5E7     		b	.L55
 931              	.LVL96:
 932              	.L77:
 975:lvgl/src/draw/sw/lv_draw_sw_rect.c ****         }
 933              		.loc 1 975 13 view .LVU330
 934              	.LBE128:
 988:lvgl/src/draw/sw/lv_draw_sw_rect.c **** 
 935              		.loc 1 988 5 is_stmt 1 view .LVU331
 936 011a 2846     		mov	r0, r5
 937 011c FFF7FEFF 		bl	lv_mem_buf_release
 938              	.LVL97:
 990:lvgl/src/draw/sw/lv_draw_sw_rect.c **** 
 939              		.loc 1 990 5 view .LVU332
 940 0120 02A8     		add	r0, sp, #8
 941 0122 FFF7FEFF 		bl	lv_draw_mask_free_param
 942              	.LVL98:
 992:lvgl/src/draw/sw/lv_draw_sw_rect.c ****         int32_t i;
 943              		.loc 1 992 5 view .LVU333
 992:lvgl/src/draw/sw/lv_draw_sw_rect.c ****         int32_t i;
 944              		.loc 1 992 7 is_stmt 0 view .LVU334
 945 0126 B9F1010F 		cmp	r9, #1
 946 012a 1AD0     		beq	.L78
1001:lvgl/src/draw/sw/lv_draw_sw_rect.c **** 
 947              		.loc 1 1001 5 is_stmt 1 view .LVU335
 948 012c 25B2     		sxth	r5, r4
ARM GAS  /var/folders/21/t9g5rlb91ys800n5npymflf80000gn/T//cca4dfU0.s 			page 49


 949              	.LVL99:
1001:lvgl/src/draw/sw/lv_draw_sw_rect.c **** 
 950              		.loc 1 1001 5 is_stmt 0 view .LVU336
 951 012e 4246     		mov	r2, r8
 952 0130 4946     		mov	r1, r9
 953 0132 2846     		mov	r0, r5
 954 0134 FFF7FEFF 		bl	shadow_blur_corner
 955              	.LVL100:
1011:lvgl/src/draw/sw/lv_draw_sw_rect.c ****     if(sw > 1) {
 956              		.loc 1 1011 5 is_stmt 1 view .LVU337
1011:lvgl/src/draw/sw/lv_draw_sw_rect.c ****     if(sw > 1) {
 957              		.loc 1 1011 8 is_stmt 0 view .LVU338
 958 0138 0AEB0901 		add	r1, r10, r9
 959              	.LVL101:
1012:lvgl/src/draw/sw/lv_draw_sw_rect.c ****         uint32_t i;
 960              		.loc 1 1012 5 is_stmt 1 view .LVU339
1012:lvgl/src/draw/sw/lv_draw_sw_rect.c ****         uint32_t i;
 961              		.loc 1 1012 7 is_stmt 0 view .LVU340
 962 013c 0129     		cmp	r1, #1
 963 013e 2ADD     		ble	.L65
 964              	.LBB129:
1013:lvgl/src/draw/sw/lv_draw_sw_rect.c ****         uint32_t max_v_div = (LV_OPA_COVER << SHADOW_UPSCALE_SHIFT) / sw;
 965              		.loc 1 1013 9 is_stmt 1 view .LVU341
1014:lvgl/src/draw/sw/lv_draw_sw_rect.c ****         for(i = 0; i < (uint32_t)size * size; i++) {
 966              		.loc 1 1014 9 view .LVU342
1014:lvgl/src/draw/sw/lv_draw_sw_rect.c ****         for(i = 0; i < (uint32_t)size * size; i++) {
 967              		.loc 1 1014 69 is_stmt 0 view .LVU343
 968 0140 4FF47F56 		mov	r6, #16320
 969              	.LVL102:
1014:lvgl/src/draw/sw/lv_draw_sw_rect.c ****         for(i = 0; i < (uint32_t)size * size; i++) {
 970              		.loc 1 1014 69 view .LVU344
 971 0144 96FBF1F6 		sdiv	r6, r6, r1
 972              	.LVL103:
1015:lvgl/src/draw/sw/lv_draw_sw_rect.c ****             if(sh_buf[i] == 0) continue;
 973              		.loc 1 1015 9 is_stmt 1 view .LVU345
1015:lvgl/src/draw/sw/lv_draw_sw_rect.c ****             if(sh_buf[i] == 0) continue;
 974              		.loc 1 1015 15 is_stmt 0 view .LVU346
 975 0148 0023     		movs	r3, #0
1015:lvgl/src/draw/sw/lv_draw_sw_rect.c ****             if(sh_buf[i] == 0) continue;
 976              		.loc 1 1015 9 view .LVU347
 977 014a 0FE0     		b	.L66
 978              	.LVL104:
 979              	.L63:
1015:lvgl/src/draw/sw/lv_draw_sw_rect.c ****             if(sh_buf[i] == 0) continue;
 980              		.loc 1 1015 9 view .LVU348
 981              	.LBE129:
 982              	.LBB130:
 996:lvgl/src/draw/sw/lv_draw_sw_rect.c ****         }
 983              		.loc 1 996 13 is_stmt 1 discriminator 3 view .LVU349
 996:lvgl/src/draw/sw/lv_draw_sw_rect.c ****         }
 984              		.loc 1 996 33 is_stmt 0 discriminator 3 view .LVU350
 985 014c 38F81320 		ldrh	r2, [r8, r3, lsl #1]
 996:lvgl/src/draw/sw/lv_draw_sw_rect.c ****         }
 986              		.loc 1 996 24 discriminator 3 view .LVU351
 987 0150 9209     		lsrs	r2, r2, #6
 988 0152 08F80320 		strb	r2, [r8, r3]
 995:lvgl/src/draw/sw/lv_draw_sw_rect.c ****             res_buf[i] = (sh_buf[i] >> SHADOW_UPSCALE_SHIFT);
ARM GAS  /var/folders/21/t9g5rlb91ys800n5npymflf80000gn/T//cca4dfU0.s 			page 50


 989              		.loc 1 995 38 is_stmt 1 discriminator 3 view .LVU352
 990 0156 0133     		adds	r3, r3, #1
 991              	.LVL105:
 992              	.L61:
 995:lvgl/src/draw/sw/lv_draw_sw_rect.c ****             res_buf[i] = (sh_buf[i] >> SHADOW_UPSCALE_SHIFT);
 993              		.loc 1 995 22 discriminator 1 view .LVU353
 995:lvgl/src/draw/sw/lv_draw_sw_rect.c ****             res_buf[i] = (sh_buf[i] >> SHADOW_UPSCALE_SHIFT);
 994              		.loc 1 995 29 is_stmt 0 discriminator 1 view .LVU354
 995 0158 04FB04F2 		mul	r2, r4, r4
 995:lvgl/src/draw/sw/lv_draw_sw_rect.c ****             res_buf[i] = (sh_buf[i] >> SHADOW_UPSCALE_SHIFT);
 996              		.loc 1 995 22 discriminator 1 view .LVU355
 997 015c 9A42     		cmp	r2, r3
 998 015e F5DC     		bgt	.L63
 999 0160 24E0     		b	.L51
 1000              	.LVL106:
 1001              	.L78:
 995:lvgl/src/draw/sw/lv_draw_sw_rect.c ****             res_buf[i] = (sh_buf[i] >> SHADOW_UPSCALE_SHIFT);
 1002              		.loc 1 995 15 view .LVU356
 1003 0162 0023     		movs	r3, #0
 1004 0164 F8E7     		b	.L61
 1005              	.LVL107:
 1006              	.L80:
 995:lvgl/src/draw/sw/lv_draw_sw_rect.c ****             res_buf[i] = (sh_buf[i] >> SHADOW_UPSCALE_SHIFT);
 1007              		.loc 1 995 15 view .LVU357
 1008              	.LBE130:
 1009              	.LBB131:
1017:lvgl/src/draw/sw/lv_draw_sw_rect.c ****             else  sh_buf[i] = (sh_buf[i] << SHADOW_UPSCALE_SHIFT) / sw;
 1010              		.loc 1 1017 48 is_stmt 1 discriminator 1 view .LVU358
1017:lvgl/src/draw/sw/lv_draw_sw_rect.c ****             else  sh_buf[i] = (sh_buf[i] << SHADOW_UPSCALE_SHIFT) / sw;
 1011              		.loc 1 1017 58 is_stmt 0 discriminator 1 view .LVU359
 1012 0166 28F80060 		strh	r6, [r8, r0]	@ movhi
 1013              	.L67:
1015:lvgl/src/draw/sw/lv_draw_sw_rect.c ****             if(sh_buf[i] == 0) continue;
 1014              		.loc 1 1015 48 is_stmt 1 discriminator 2 view .LVU360
 1015 016a 0133     		adds	r3, r3, #1
 1016              	.LVL108:
 1017              	.L66:
1015:lvgl/src/draw/sw/lv_draw_sw_rect.c ****             if(sh_buf[i] == 0) continue;
 1018              		.loc 1 1015 22 discriminator 1 view .LVU361
1015:lvgl/src/draw/sw/lv_draw_sw_rect.c ****             if(sh_buf[i] == 0) continue;
 1019              		.loc 1 1015 39 is_stmt 0 discriminator 1 view .LVU362
 1020 016c 04FB04F2 		mul	r2, r4, r4
1015:lvgl/src/draw/sw/lv_draw_sw_rect.c ****             if(sh_buf[i] == 0) continue;
 1021              		.loc 1 1015 22 discriminator 1 view .LVU363
 1022 0170 9A42     		cmp	r2, r3
 1023 0172 0CD9     		bls	.L79
1016:lvgl/src/draw/sw/lv_draw_sw_rect.c ****             else if(sh_buf[i] == LV_OPA_COVER) sh_buf[i] = max_v_div;
 1024              		.loc 1 1016 13 is_stmt 1 view .LVU364
1016:lvgl/src/draw/sw/lv_draw_sw_rect.c ****             else if(sh_buf[i] == LV_OPA_COVER) sh_buf[i] = max_v_div;
 1025              		.loc 1 1016 22 is_stmt 0 view .LVU365
 1026 0174 5800     		lsls	r0, r3, #1
 1027 0176 38F81320 		ldrh	r2, [r8, r3, lsl #1]
1016:lvgl/src/draw/sw/lv_draw_sw_rect.c ****             else if(sh_buf[i] == LV_OPA_COVER) sh_buf[i] = max_v_div;
 1028              		.loc 1 1016 15 view .LVU366
 1029 017a 002A     		cmp	r2, #0
 1030 017c F5D0     		beq	.L67
1017:lvgl/src/draw/sw/lv_draw_sw_rect.c ****             else  sh_buf[i] = (sh_buf[i] << SHADOW_UPSCALE_SHIFT) / sw;
ARM GAS  /var/folders/21/t9g5rlb91ys800n5npymflf80000gn/T//cca4dfU0.s 			page 51


 1031              		.loc 1 1017 18 is_stmt 1 view .LVU367
1017:lvgl/src/draw/sw/lv_draw_sw_rect.c ****             else  sh_buf[i] = (sh_buf[i] << SHADOW_UPSCALE_SHIFT) / sw;
 1032              		.loc 1 1017 20 is_stmt 0 view .LVU368
 1033 017e FF2A     		cmp	r2, #255
 1034 0180 F1D0     		beq	.L80
1018:lvgl/src/draw/sw/lv_draw_sw_rect.c ****         }
 1035              		.loc 1 1018 19 is_stmt 1 view .LVU369
1018:lvgl/src/draw/sw/lv_draw_sw_rect.c ****         }
 1036              		.loc 1 1018 42 is_stmt 0 view .LVU370
 1037 0182 9201     		lsls	r2, r2, #6
1018:lvgl/src/draw/sw/lv_draw_sw_rect.c ****         }
 1038              		.loc 1 1018 67 view .LVU371
 1039 0184 92FBF1F2 		sdiv	r2, r2, r1
1018:lvgl/src/draw/sw/lv_draw_sw_rect.c ****         }
 1040              		.loc 1 1018 29 view .LVU372
 1041 0188 28F80020 		strh	r2, [r8, r0]	@ movhi
 1042 018c EDE7     		b	.L67
 1043              	.L79:
1021:lvgl/src/draw/sw/lv_draw_sw_rect.c ****     }
 1044              		.loc 1 1021 9 is_stmt 1 view .LVU373
 1045 018e 4246     		mov	r2, r8
 1046 0190 2846     		mov	r0, r5
 1047 0192 FFF7FEFF 		bl	shadow_blur_corner
 1048              	.LVL109:
 1049              	.L65:
1015:lvgl/src/draw/sw/lv_draw_sw_rect.c ****             if(sh_buf[i] == 0) continue;
 1050              		.loc 1 1015 15 is_stmt 0 discriminator 1 view .LVU374
 1051 0196 0023     		movs	r3, #0
 1052 0198 04E0     		b	.L70
 1053              	.LVL110:
 1054              	.L71:
1015:lvgl/src/draw/sw/lv_draw_sw_rect.c ****             if(sh_buf[i] == 0) continue;
 1055              		.loc 1 1015 15 discriminator 1 view .LVU375
 1056              	.LBE131:
1026:lvgl/src/draw/sw/lv_draw_sw_rect.c ****     }
 1057              		.loc 1 1026 9 is_stmt 1 discriminator 3 view .LVU376
1026:lvgl/src/draw/sw/lv_draw_sw_rect.c ****     }
 1058              		.loc 1 1026 28 is_stmt 0 discriminator 3 view .LVU377
 1059 019a 38F81320 		ldrh	r2, [r8, r3, lsl #1]
1026:lvgl/src/draw/sw/lv_draw_sw_rect.c ****     }
 1060              		.loc 1 1026 20 discriminator 3 view .LVU378
 1061 019e 08F80320 		strb	r2, [r8, r3]
1025:lvgl/src/draw/sw/lv_draw_sw_rect.c ****         res_buf[x] = sh_buf[x];
 1062              		.loc 1 1025 34 is_stmt 1 discriminator 3 view .LVU379
 1063 01a2 0133     		adds	r3, r3, #1
 1064              	.LVL111:
 1065              	.L70:
1025:lvgl/src/draw/sw/lv_draw_sw_rect.c ****         res_buf[x] = sh_buf[x];
 1066              		.loc 1 1025 18 discriminator 1 view .LVU380
1025:lvgl/src/draw/sw/lv_draw_sw_rect.c ****         res_buf[x] = sh_buf[x];
 1067              		.loc 1 1025 25 is_stmt 0 discriminator 1 view .LVU381
 1068 01a4 04FB04F2 		mul	r2, r4, r4
1025:lvgl/src/draw/sw/lv_draw_sw_rect.c ****         res_buf[x] = sh_buf[x];
 1069              		.loc 1 1025 18 discriminator 1 view .LVU382
 1070 01a8 9A42     		cmp	r2, r3
 1071 01aa F6DC     		bgt	.L71
 1072              	.LVL112:
ARM GAS  /var/folders/21/t9g5rlb91ys800n5npymflf80000gn/T//cca4dfU0.s 			page 52


 1073              	.L51:
1030:lvgl/src/draw/sw/lv_draw_sw_rect.c **** 
 1074              		.loc 1 1030 1 view .LVU383
 1075 01ac 0BB0     		add	sp, sp, #44
 1076              	.LCFI9:
 1077              		.cfi_def_cfa_offset 36
 1078              		@ sp needed
 1079 01ae BDE8F08F 		pop	{r4, r5, r6, r7, r8, r9, r10, fp, pc}
1030:lvgl/src/draw/sw/lv_draw_sw_rect.c **** 
 1080              		.loc 1 1030 1 view .LVU384
 1081              		.cfi_endproc
 1082              	.LFE167:
 1084              		.section	.text.draw_shadow,"ax",%progbits
 1085              		.align	1
 1086              		.syntax unified
 1087              		.thumb
 1088              		.thumb_func
 1090              	draw_shadow:
 1091              	.LVL113:
 1092              	.LFB166:
 429:lvgl/src/draw/sw/lv_draw_sw_rect.c ****     /*Check whether the shadow is visible*/
 1093              		.loc 1 429 1 is_stmt 1 view -0
 1094              		.cfi_startproc
 1095              		@ args = 0, pretend = 0, frame = 152
 1096              		@ frame_needed = 0, uses_anonymous_args = 0
 431:lvgl/src/draw/sw/lv_draw_sw_rect.c ****     if(dsc->shadow_opa <= LV_OPA_MIN) return;
 1097              		.loc 1 431 5 view .LVU386
 431:lvgl/src/draw/sw/lv_draw_sw_rect.c ****     if(dsc->shadow_opa <= LV_OPA_MIN) return;
 1098              		.loc 1 431 11 is_stmt 0 view .LVU387
 1099 0000 B1F92E30 		ldrsh	r3, [r1, #46]
 431:lvgl/src/draw/sw/lv_draw_sw_rect.c ****     if(dsc->shadow_opa <= LV_OPA_MIN) return;
 1100              		.loc 1 431 7 view .LVU388
 1101 0004 002B     		cmp	r3, #0
 1102 0006 00F0BB86 		beq	.L177
 429:lvgl/src/draw/sw/lv_draw_sw_rect.c ****     /*Check whether the shadow is visible*/
 1103              		.loc 1 429 1 view .LVU389
 1104 000a 2DE9F04F 		push	{r4, r5, r6, r7, r8, r9, r10, fp, lr}
 1105              	.LCFI10:
 1106              		.cfi_def_cfa_offset 36
 1107              		.cfi_offset 4, -36
 1108              		.cfi_offset 5, -32
 1109              		.cfi_offset 6, -28
 1110              		.cfi_offset 7, -24
 1111              		.cfi_offset 8, -20
 1112              		.cfi_offset 9, -16
 1113              		.cfi_offset 10, -12
 1114              		.cfi_offset 11, -8
 1115              		.cfi_offset 14, -4
 1116 000e A7B0     		sub	sp, sp, #156
 1117              	.LCFI11:
 1118              		.cfi_def_cfa_offset 192
 1119 0010 0646     		mov	r6, r0
 1120 0012 0D46     		mov	r5, r1
 1121 0014 1446     		mov	r4, r2
 432:lvgl/src/draw/sw/lv_draw_sw_rect.c **** 
 1122              		.loc 1 432 5 is_stmt 1 view .LVU390
 432:lvgl/src/draw/sw/lv_draw_sw_rect.c **** 
ARM GAS  /var/folders/21/t9g5rlb91ys800n5npymflf80000gn/T//cca4dfU0.s 			page 53


 1123              		.loc 1 432 11 is_stmt 0 view .LVU391
 1124 0016 91F83690 		ldrb	r9, [r1, #54]	@ zero_extendqisi2
 432:lvgl/src/draw/sw/lv_draw_sw_rect.c **** 
 1125              		.loc 1 432 7 view .LVU392
 1126 001a B9F1020F 		cmp	r9, #2
 1127 001e 49D9     		bls	.L81
 434:lvgl/src/draw/sw/lv_draw_sw_rect.c ****        dsc->shadow_ofs_x == 0 && dsc->shadow_ofs_y == 0) {
 1128              		.loc 1 434 5 is_stmt 1 view .LVU393
 434:lvgl/src/draw/sw/lv_draw_sw_rect.c ****        dsc->shadow_ofs_x == 0 && dsc->shadow_ofs_y == 0) {
 1129              		.loc 1 434 7 is_stmt 0 view .LVU394
 1130 0020 012B     		cmp	r3, #1
 1131 0022 4AD0     		beq	.L180
 1132              	.LVL114:
 1133              	.L83:
 440:lvgl/src/draw/sw/lv_draw_sw_rect.c ****     core_area.x1 = coords->x1  + dsc->shadow_ofs_x - dsc->shadow_spread;
 1134              		.loc 1 440 5 is_stmt 1 view .LVU395
 441:lvgl/src/draw/sw/lv_draw_sw_rect.c ****     core_area.x2 = coords->x2  + dsc->shadow_ofs_x + dsc->shadow_spread;
 1135              		.loc 1 441 5 view .LVU396
 441:lvgl/src/draw/sw/lv_draw_sw_rect.c ****     core_area.x2 = coords->x2  + dsc->shadow_ofs_x + dsc->shadow_spread;
 1136              		.loc 1 441 26 is_stmt 0 view .LVU397
 1137 0024 2288     		ldrh	r2, [r4]
 441:lvgl/src/draw/sw/lv_draw_sw_rect.c ****     core_area.x2 = coords->x2  + dsc->shadow_ofs_x + dsc->shadow_spread;
 1138              		.loc 1 441 37 view .LVU398
 1139 0026 298E     		ldrh	r1, [r5, #48]
 1140              	.LVL115:
 441:lvgl/src/draw/sw/lv_draw_sw_rect.c ****     core_area.x2 = coords->x2  + dsc->shadow_ofs_x + dsc->shadow_spread;
 1141              		.loc 1 441 32 view .LVU399
 1142 0028 0A44     		add	r2, r2, r1
 1143 002a 92B2     		uxth	r2, r2
 441:lvgl/src/draw/sw/lv_draw_sw_rect.c ****     core_area.x2 = coords->x2  + dsc->shadow_ofs_x + dsc->shadow_spread;
 1144              		.loc 1 441 57 view .LVU400
 1145 002c B5F834E0 		ldrh	lr, [r5, #52]
 441:lvgl/src/draw/sw/lv_draw_sw_rect.c ****     core_area.x2 = coords->x2  + dsc->shadow_ofs_x + dsc->shadow_spread;
 1146              		.loc 1 441 52 view .LVU401
 1147 0030 A2EB0E02 		sub	r2, r2, lr
 1148 0034 1FFA82FC 		uxth	ip, r2
 441:lvgl/src/draw/sw/lv_draw_sw_rect.c ****     core_area.x2 = coords->x2  + dsc->shadow_ofs_x + dsc->shadow_spread;
 1149              		.loc 1 441 18 view .LVU402
 1150 0038 ADF89020 		strh	r2, [sp, #144]	@ movhi
 442:lvgl/src/draw/sw/lv_draw_sw_rect.c ****     core_area.y1 = coords->y1  + dsc->shadow_ofs_y - dsc->shadow_spread;
 1151              		.loc 1 442 5 is_stmt 1 view .LVU403
 442:lvgl/src/draw/sw/lv_draw_sw_rect.c ****     core_area.y1 = coords->y1  + dsc->shadow_ofs_y - dsc->shadow_spread;
 1152              		.loc 1 442 26 is_stmt 0 view .LVU404
 1153 003c A288     		ldrh	r2, [r4, #4]
 442:lvgl/src/draw/sw/lv_draw_sw_rect.c ****     core_area.y1 = coords->y1  + dsc->shadow_ofs_y - dsc->shadow_spread;
 1154              		.loc 1 442 32 view .LVU405
 1155 003e 1144     		add	r1, r1, r2
 442:lvgl/src/draw/sw/lv_draw_sw_rect.c ****     core_area.y1 = coords->y1  + dsc->shadow_ofs_y - dsc->shadow_spread;
 1156              		.loc 1 442 52 view .LVU406
 1157 0040 1EFA81F1 		uxtah	r1, lr, r1
 442:lvgl/src/draw/sw/lv_draw_sw_rect.c ****     core_area.y1 = coords->y1  + dsc->shadow_ofs_y - dsc->shadow_spread;
 1158              		.loc 1 442 18 view .LVU407
 1159 0044 ADF89410 		strh	r1, [sp, #148]	@ movhi
 443:lvgl/src/draw/sw/lv_draw_sw_rect.c ****     core_area.y2 = coords->y2  + dsc->shadow_ofs_y + dsc->shadow_spread;
 1160              		.loc 1 443 5 is_stmt 1 view .LVU408
 443:lvgl/src/draw/sw/lv_draw_sw_rect.c ****     core_area.y2 = coords->y2  + dsc->shadow_ofs_y + dsc->shadow_spread;
 1161              		.loc 1 443 26 is_stmt 0 view .LVU409
ARM GAS  /var/folders/21/t9g5rlb91ys800n5npymflf80000gn/T//cca4dfU0.s 			page 54


 1162 0048 6088     		ldrh	r0, [r4, #2]
 1163              	.LVL116:
 443:lvgl/src/draw/sw/lv_draw_sw_rect.c ****     core_area.y2 = coords->y2  + dsc->shadow_ofs_y + dsc->shadow_spread;
 1164              		.loc 1 443 37 view .LVU410
 1165 004a 6A8E     		ldrh	r2, [r5, #50]
 443:lvgl/src/draw/sw/lv_draw_sw_rect.c ****     core_area.y2 = coords->y2  + dsc->shadow_ofs_y + dsc->shadow_spread;
 1166              		.loc 1 443 32 view .LVU411
 1167 004c 1044     		add	r0, r0, r2
 1168 004e 80B2     		uxth	r0, r0
 443:lvgl/src/draw/sw/lv_draw_sw_rect.c ****     core_area.y2 = coords->y2  + dsc->shadow_ofs_y + dsc->shadow_spread;
 1169              		.loc 1 443 52 view .LVU412
 1170 0050 A0EB0E00 		sub	r0, r0, lr
 1171 0054 87B2     		uxth	r7, r0
 443:lvgl/src/draw/sw/lv_draw_sw_rect.c ****     core_area.y2 = coords->y2  + dsc->shadow_ofs_y + dsc->shadow_spread;
 1172              		.loc 1 443 18 view .LVU413
 1173 0056 ADF89200 		strh	r0, [sp, #146]	@ movhi
 444:lvgl/src/draw/sw/lv_draw_sw_rect.c **** 
 1174              		.loc 1 444 5 is_stmt 1 view .LVU414
 444:lvgl/src/draw/sw/lv_draw_sw_rect.c **** 
 1175              		.loc 1 444 26 is_stmt 0 view .LVU415
 1176 005a E088     		ldrh	r0, [r4, #6]
 444:lvgl/src/draw/sw/lv_draw_sw_rect.c **** 
 1177              		.loc 1 444 32 view .LVU416
 1178 005c 0244     		add	r2, r2, r0
 444:lvgl/src/draw/sw/lv_draw_sw_rect.c **** 
 1179              		.loc 1 444 52 view .LVU417
 1180 005e 1EFA82F2 		uxtah	r2, lr, r2
 444:lvgl/src/draw/sw/lv_draw_sw_rect.c **** 
 1181              		.loc 1 444 18 view .LVU418
 1182 0062 ADF89620 		strh	r2, [sp, #150]	@ movhi
 447:lvgl/src/draw/sw/lv_draw_sw_rect.c ****     shadow_area.x1 = core_area.x1 - dsc->shadow_width / 2 - 1;
 1183              		.loc 1 447 5 is_stmt 1 view .LVU419
 448:lvgl/src/draw/sw/lv_draw_sw_rect.c ****     shadow_area.x2 = core_area.x2 + dsc->shadow_width / 2 + 1;
 1184              		.loc 1 448 5 view .LVU420
 448:lvgl/src/draw/sw/lv_draw_sw_rect.c ****     shadow_area.x2 = core_area.x2 + dsc->shadow_width / 2 + 1;
 1185              		.loc 1 448 35 is_stmt 0 view .LVU421
 1186 0066 03EBD373 		add	r3, r3, r3, lsr #31
 1187 006a C3F34F03 		ubfx	r3, r3, #1, #16
 1188 006e ACEB0300 		sub	r0, ip, r3
 1189 0072 80B2     		uxth	r0, r0
 448:lvgl/src/draw/sw/lv_draw_sw_rect.c ****     shadow_area.x2 = core_area.x2 + dsc->shadow_width / 2 + 1;
 1190              		.loc 1 448 59 view .LVU422
 1191 0074 0138     		subs	r0, r0, #1
 448:lvgl/src/draw/sw/lv_draw_sw_rect.c ****     shadow_area.x2 = core_area.x2 + dsc->shadow_width / 2 + 1;
 1192              		.loc 1 448 20 view .LVU423
 1193 0076 ADF88800 		strh	r0, [sp, #136]	@ movhi
 449:lvgl/src/draw/sw/lv_draw_sw_rect.c ****     shadow_area.y1 = core_area.y1 - dsc->shadow_width / 2 - 1;
 1194              		.loc 1 449 5 is_stmt 1 view .LVU424
 449:lvgl/src/draw/sw/lv_draw_sw_rect.c ****     shadow_area.y1 = core_area.y1 - dsc->shadow_width / 2 - 1;
 1195              		.loc 1 449 35 is_stmt 0 view .LVU425
 1196 007a 13FA81F1 		uxtah	r1, r3, r1
 1197 007e 89B2     		uxth	r1, r1
 449:lvgl/src/draw/sw/lv_draw_sw_rect.c ****     shadow_area.y1 = core_area.y1 - dsc->shadow_width / 2 - 1;
 1198              		.loc 1 449 59 view .LVU426
 1199 0080 0131     		adds	r1, r1, #1
 449:lvgl/src/draw/sw/lv_draw_sw_rect.c ****     shadow_area.y1 = core_area.y1 - dsc->shadow_width / 2 - 1;
 1200              		.loc 1 449 20 view .LVU427
ARM GAS  /var/folders/21/t9g5rlb91ys800n5npymflf80000gn/T//cca4dfU0.s 			page 55


 1201 0082 ADF88C10 		strh	r1, [sp, #140]	@ movhi
 450:lvgl/src/draw/sw/lv_draw_sw_rect.c ****     shadow_area.y2 = core_area.y2 + dsc->shadow_width / 2 + 1;
 1202              		.loc 1 450 5 is_stmt 1 view .LVU428
 450:lvgl/src/draw/sw/lv_draw_sw_rect.c ****     shadow_area.y2 = core_area.y2 + dsc->shadow_width / 2 + 1;
 1203              		.loc 1 450 35 is_stmt 0 view .LVU429
 1204 0086 F91A     		subs	r1, r7, r3
 1205 0088 89B2     		uxth	r1, r1
 450:lvgl/src/draw/sw/lv_draw_sw_rect.c ****     shadow_area.y2 = core_area.y2 + dsc->shadow_width / 2 + 1;
 1206              		.loc 1 450 59 view .LVU430
 1207 008a 0139     		subs	r1, r1, #1
 450:lvgl/src/draw/sw/lv_draw_sw_rect.c ****     shadow_area.y2 = core_area.y2 + dsc->shadow_width / 2 + 1;
 1208              		.loc 1 450 20 view .LVU431
 1209 008c ADF88A10 		strh	r1, [sp, #138]	@ movhi
 451:lvgl/src/draw/sw/lv_draw_sw_rect.c **** 
 1210              		.loc 1 451 5 is_stmt 1 view .LVU432
 451:lvgl/src/draw/sw/lv_draw_sw_rect.c **** 
 1211              		.loc 1 451 35 is_stmt 0 view .LVU433
 1212 0090 13FA82F3 		uxtah	r3, r3, r2
 1213 0094 9BB2     		uxth	r3, r3
 451:lvgl/src/draw/sw/lv_draw_sw_rect.c **** 
 1214              		.loc 1 451 59 view .LVU434
 1215 0096 0133     		adds	r3, r3, #1
 451:lvgl/src/draw/sw/lv_draw_sw_rect.c **** 
 1216              		.loc 1 451 20 view .LVU435
 1217 0098 ADF88E30 		strh	r3, [sp, #142]	@ movhi
 453:lvgl/src/draw/sw/lv_draw_sw_rect.c ****     if(opa > LV_OPA_MAX) opa = LV_OPA_COVER;
 1218              		.loc 1 453 5 is_stmt 1 view .LVU436
 1219              	.LVL117:
 454:lvgl/src/draw/sw/lv_draw_sw_rect.c **** 
 1220              		.loc 1 454 5 view .LVU437
 454:lvgl/src/draw/sw/lv_draw_sw_rect.c **** 
 1221              		.loc 1 454 7 is_stmt 0 view .LVU438
 1222 009c B9F1FD0F 		cmp	r9, #253
 1223 00a0 01D9     		bls	.L84
 454:lvgl/src/draw/sw/lv_draw_sw_rect.c **** 
 1224              		.loc 1 454 30 view .LVU439
 1225 00a2 4FF0FF09 		mov	r9, #255
 1226              	.LVL118:
 1227              	.L84:
 458:lvgl/src/draw/sw/lv_draw_sw_rect.c ****     if(!_lv_area_intersect(&draw_area, &shadow_area, draw_ctx->clip_area)) return;
 1228              		.loc 1 458 5 is_stmt 1 view .LVU440
 459:lvgl/src/draw/sw/lv_draw_sw_rect.c **** 
 1229              		.loc 1 459 5 view .LVU441
 459:lvgl/src/draw/sw/lv_draw_sw_rect.c **** 
 1230              		.loc 1 459 9 is_stmt 0 view .LVU442
 1231 00a6 B268     		ldr	r2, [r6, #8]
 1232 00a8 22A9     		add	r1, sp, #136
 1233 00aa 20A8     		add	r0, sp, #128
 1234 00ac FFF7FEFF 		bl	_lv_area_intersect
 1235              	.LVL119:
 459:lvgl/src/draw/sw/lv_draw_sw_rect.c **** 
 1236              		.loc 1 459 7 view .LVU443
 1237 00b0 0090     		str	r0, [sp]
 1238 00b2 50B9     		cbnz	r0, .L181
 1239              	.LVL120:
 1240              	.L81:
 936:lvgl/src/draw/sw/lv_draw_sw_rect.c **** 
ARM GAS  /var/folders/21/t9g5rlb91ys800n5npymflf80000gn/T//cca4dfU0.s 			page 56


 1241              		.loc 1 936 1 view .LVU444
 1242 00b4 27B0     		add	sp, sp, #156
 1243              	.LCFI12:
 1244              		.cfi_remember_state
 1245              		.cfi_def_cfa_offset 36
 1246              		@ sp needed
 1247 00b6 BDE8F08F 		pop	{r4, r5, r6, r7, r8, r9, r10, fp, pc}
 1248              	.LVL121:
 1249              	.L180:
 1250              	.LCFI13:
 1251              		.cfi_restore_state
 434:lvgl/src/draw/sw/lv_draw_sw_rect.c ****        dsc->shadow_ofs_x == 0 && dsc->shadow_ofs_y == 0) {
 1252              		.loc 1 434 37 discriminator 1 view .LVU445
 1253 00ba B1F93420 		ldrsh	r2, [r1, #52]
 1254              	.LVL122:
 434:lvgl/src/draw/sw/lv_draw_sw_rect.c ****        dsc->shadow_ofs_x == 0 && dsc->shadow_ofs_y == 0) {
 1255              		.loc 1 434 31 discriminator 1 view .LVU446
 1256 00be 002A     		cmp	r2, #0
 1257 00c0 B0DC     		bgt	.L83
 435:lvgl/src/draw/sw/lv_draw_sw_rect.c ****         return;
 1258              		.loc 1 435 31 view .LVU447
 1259 00c2 0A6B     		ldr	r2, [r1, #48]
 1260 00c4 002A     		cmp	r2, #0
 1261 00c6 ADD1     		bne	.L83
 1262 00c8 F4E7     		b	.L81
 1263              	.LVL123:
 1264              	.L181:
 462:lvgl/src/draw/sw/lv_draw_sw_rect.c ****     lv_area_copy(&bg_area, coords);
 1265              		.loc 1 462 5 is_stmt 1 view .LVU448
 463:lvgl/src/draw/sw/lv_draw_sw_rect.c ****     lv_area_increase(&bg_area, -1, -1);
 1266              		.loc 1 463 5 view .LVU449
 1267              	.LBB132:
 1268              	.LBI132:
 110:lvgl/src/draw/sw/../../misc/lv_area.h **** {
 1269              		.loc 2 110 20 view .LVU450
 1270              	.LBB133:
 112:lvgl/src/draw/sw/../../misc/lv_area.h ****     dest->y1 = src->y1;
 1271              		.loc 2 112 5 view .LVU451
 112:lvgl/src/draw/sw/../../misc/lv_area.h ****     dest->y1 = src->y1;
 1272              		.loc 2 112 19 is_stmt 0 view .LVU452
 1273 00ca B4F90030 		ldrsh	r3, [r4]
 112:lvgl/src/draw/sw/../../misc/lv_area.h ****     dest->y1 = src->y1;
 1274              		.loc 2 112 14 view .LVU453
 1275 00ce ADF87830 		strh	r3, [sp, #120]	@ movhi
 113:lvgl/src/draw/sw/../../misc/lv_area.h ****     dest->x2 = src->x2;
 1276              		.loc 2 113 5 is_stmt 1 view .LVU454
 113:lvgl/src/draw/sw/../../misc/lv_area.h ****     dest->x2 = src->x2;
 1277              		.loc 2 113 19 is_stmt 0 view .LVU455
 1278 00d2 B4F90230 		ldrsh	r3, [r4, #2]
 113:lvgl/src/draw/sw/../../misc/lv_area.h ****     dest->x2 = src->x2;
 1279              		.loc 2 113 14 view .LVU456
 1280 00d6 ADF87A30 		strh	r3, [sp, #122]	@ movhi
 114:lvgl/src/draw/sw/../../misc/lv_area.h ****     dest->y2 = src->y2;
 1281              		.loc 2 114 5 is_stmt 1 view .LVU457
 114:lvgl/src/draw/sw/../../misc/lv_area.h ****     dest->y2 = src->y2;
 1282              		.loc 2 114 19 is_stmt 0 view .LVU458
 1283 00da B4F90430 		ldrsh	r3, [r4, #4]
ARM GAS  /var/folders/21/t9g5rlb91ys800n5npymflf80000gn/T//cca4dfU0.s 			page 57


 114:lvgl/src/draw/sw/../../misc/lv_area.h ****     dest->y2 = src->y2;
 1284              		.loc 2 114 14 view .LVU459
 1285 00de ADF87C30 		strh	r3, [sp, #124]	@ movhi
 115:lvgl/src/draw/sw/../../misc/lv_area.h **** }
 1286              		.loc 2 115 5 is_stmt 1 view .LVU460
 115:lvgl/src/draw/sw/../../misc/lv_area.h **** }
 1287              		.loc 2 115 19 is_stmt 0 view .LVU461
 1288 00e2 B4F90630 		ldrsh	r3, [r4, #6]
 115:lvgl/src/draw/sw/../../misc/lv_area.h **** }
 1289              		.loc 2 115 14 view .LVU462
 1290 00e6 ADF87E30 		strh	r3, [sp, #126]	@ movhi
 1291              	.LVL124:
 115:lvgl/src/draw/sw/../../misc/lv_area.h **** }
 1292              		.loc 2 115 14 view .LVU463
 1293              	.LBE133:
 1294              	.LBE132:
 464:lvgl/src/draw/sw/lv_draw_sw_rect.c **** 
 1295              		.loc 1 464 5 is_stmt 1 view .LVU464
 1296 00ea 4FF0FF32 		mov	r2, #-1
 1297 00ee 1146     		mov	r1, r2
 1298 00f0 1EA8     		add	r0, sp, #120
 1299 00f2 FFF7FEFF 		bl	lv_area_increase
 1300              	.LVL125:
 467:lvgl/src/draw/sw/lv_draw_sw_rect.c ****     lv_coord_t short_side = LV_MIN(lv_area_get_width(&bg_area), lv_area_get_height(&bg_area));
 1301              		.loc 1 467 5 view .LVU465
 467:lvgl/src/draw/sw/lv_draw_sw_rect.c ****     lv_coord_t short_side = LV_MIN(lv_area_get_width(&bg_area), lv_area_get_height(&bg_area));
 1302              		.loc 1 467 23 is_stmt 0 view .LVU466
 1303 00f6 B5F90020 		ldrsh	r2, [r5]
 1304              	.LVL126:
 468:lvgl/src/draw/sw/lv_draw_sw_rect.c ****     if(r_bg > short_side >> 1) r_bg = short_side >> 1;
 1305              		.loc 1 468 5 is_stmt 1 view .LVU467
 1306              	.LBB134:
 1307              	.LBI134:
 123:lvgl/src/draw/sw/../../misc/lv_area.h **** {
 1308              		.loc 2 123 26 view .LVU468
 1309              	.LBB135:
 125:lvgl/src/draw/sw/../../misc/lv_area.h **** }
 1310              		.loc 2 125 5 view .LVU469
 125:lvgl/src/draw/sw/../../misc/lv_area.h **** }
 1311              		.loc 2 125 31 is_stmt 0 view .LVU470
 1312 00fa BDF87C10 		ldrh	r1, [sp, #124]
 125:lvgl/src/draw/sw/../../misc/lv_area.h **** }
 1313              		.loc 2 125 44 view .LVU471
 1314 00fe BDF87830 		ldrh	r3, [sp, #120]
 125:lvgl/src/draw/sw/../../misc/lv_area.h **** }
 1315              		.loc 2 125 36 view .LVU472
 1316 0102 C91A     		subs	r1, r1, r3
 1317 0104 89B2     		uxth	r1, r1
 125:lvgl/src/draw/sw/../../misc/lv_area.h **** }
 1318              		.loc 2 125 49 view .LVU473
 1319 0106 0131     		adds	r1, r1, #1
 125:lvgl/src/draw/sw/../../misc/lv_area.h **** }
 1320              		.loc 2 125 12 view .LVU474
 1321 0108 09B2     		sxth	r1, r1
 1322              	.LVL127:
 125:lvgl/src/draw/sw/../../misc/lv_area.h **** }
 1323              		.loc 2 125 12 view .LVU475
ARM GAS  /var/folders/21/t9g5rlb91ys800n5npymflf80000gn/T//cca4dfU0.s 			page 58


 1324              	.LBE135:
 1325              	.LBE134:
 1326              	.LBB136:
 1327              	.LBI136:
 133:lvgl/src/draw/sw/../../misc/lv_area.h **** {
 1328              		.loc 2 133 26 is_stmt 1 view .LVU476
 1329              	.LBB137:
 1330              		.loc 2 135 5 view .LVU477
 1331              		.loc 2 135 31 is_stmt 0 view .LVU478
 1332 010a BDF87E30 		ldrh	r3, [sp, #126]
 1333              		.loc 2 135 44 view .LVU479
 1334 010e BDF87A00 		ldrh	r0, [sp, #122]
 1335              		.loc 2 135 36 view .LVU480
 1336 0112 1B1A     		subs	r3, r3, r0
 1337 0114 9BB2     		uxth	r3, r3
 1338              		.loc 2 135 49 view .LVU481
 1339 0116 0133     		adds	r3, r3, #1
 1340              		.loc 2 135 12 view .LVU482
 1341 0118 1BB2     		sxth	r3, r3
 1342              	.LVL128:
 1343              		.loc 2 135 12 view .LVU483
 1344              	.LBE137:
 1345              	.LBE136:
 468:lvgl/src/draw/sw/lv_draw_sw_rect.c ****     if(r_bg > short_side >> 1) r_bg = short_side >> 1;
 1346              		.loc 1 468 16 view .LVU484
 1347 011a 9942     		cmp	r1, r3
 1348 011c 00DA     		bge	.L85
 468:lvgl/src/draw/sw/lv_draw_sw_rect.c ****     if(r_bg > short_side >> 1) r_bg = short_side >> 1;
 1349              		.loc 1 468 29 view .LVU485
 1350 011e 0B46     		mov	r3, r1
 1351              	.L85:
 1352              	.LVL129:
 469:lvgl/src/draw/sw/lv_draw_sw_rect.c **** 
 1353              		.loc 1 469 5 is_stmt 1 discriminator 4 view .LVU486
 469:lvgl/src/draw/sw/lv_draw_sw_rect.c **** 
 1354              		.loc 1 469 26 is_stmt 0 discriminator 4 view .LVU487
 1355 0120 5910     		asrs	r1, r3, #1
 1356 0122 0191     		str	r1, [sp, #4]
 469:lvgl/src/draw/sw/lv_draw_sw_rect.c **** 
 1357              		.loc 1 469 7 discriminator 4 view .LVU488
 1358 0124 B2EB630F 		cmp	r2, r3, asr #1
 1359 0128 00DC     		bgt	.L86
 467:lvgl/src/draw/sw/lv_draw_sw_rect.c ****     lv_coord_t short_side = LV_MIN(lv_area_get_width(&bg_area), lv_area_get_height(&bg_area));
 1360              		.loc 1 467 13 view .LVU489
 1361 012a 0192     		str	r2, [sp, #4]
 1362              	.L86:
 1363              	.LVL130:
 472:lvgl/src/draw/sw/lv_draw_sw_rect.c ****     short_side = LV_MIN(lv_area_get_width(&core_area), lv_area_get_height(&core_area));
 1364              		.loc 1 472 5 is_stmt 1 view .LVU490
 473:lvgl/src/draw/sw/lv_draw_sw_rect.c ****     if(r_sh > short_side >> 1) r_sh = short_side >> 1;
 1365              		.loc 1 473 5 view .LVU491
 1366              	.LBB138:
 1367              	.LBI138:
 123:lvgl/src/draw/sw/../../misc/lv_area.h **** {
 1368              		.loc 2 123 26 view .LVU492
 1369              	.LBB139:
 125:lvgl/src/draw/sw/../../misc/lv_area.h **** }
ARM GAS  /var/folders/21/t9g5rlb91ys800n5npymflf80000gn/T//cca4dfU0.s 			page 59


 1370              		.loc 2 125 5 view .LVU493
 125:lvgl/src/draw/sw/../../misc/lv_area.h **** }
 1371              		.loc 2 125 31 is_stmt 0 view .LVU494
 1372 012c BDF89410 		ldrh	r1, [sp, #148]
 125:lvgl/src/draw/sw/../../misc/lv_area.h **** }
 1373              		.loc 2 125 44 view .LVU495
 1374 0130 BDF89030 		ldrh	r3, [sp, #144]
 1375              	.LVL131:
 125:lvgl/src/draw/sw/../../misc/lv_area.h **** }
 1376              		.loc 2 125 36 view .LVU496
 1377 0134 C91A     		subs	r1, r1, r3
 1378 0136 89B2     		uxth	r1, r1
 125:lvgl/src/draw/sw/../../misc/lv_area.h **** }
 1379              		.loc 2 125 49 view .LVU497
 1380 0138 0131     		adds	r1, r1, #1
 125:lvgl/src/draw/sw/../../misc/lv_area.h **** }
 1381              		.loc 2 125 12 view .LVU498
 1382 013a 09B2     		sxth	r1, r1
 1383              	.LVL132:
 125:lvgl/src/draw/sw/../../misc/lv_area.h **** }
 1384              		.loc 2 125 12 view .LVU499
 1385              	.LBE139:
 1386              	.LBE138:
 1387              	.LBB140:
 1388              	.LBI140:
 133:lvgl/src/draw/sw/../../misc/lv_area.h **** {
 1389              		.loc 2 133 26 is_stmt 1 view .LVU500
 1390              	.LBB141:
 1391              		.loc 2 135 5 view .LVU501
 1392              		.loc 2 135 31 is_stmt 0 view .LVU502
 1393 013c BDF89630 		ldrh	r3, [sp, #150]
 1394              		.loc 2 135 44 view .LVU503
 1395 0140 BDF89200 		ldrh	r0, [sp, #146]
 1396              		.loc 2 135 36 view .LVU504
 1397 0144 1B1A     		subs	r3, r3, r0
 1398 0146 9BB2     		uxth	r3, r3
 1399              		.loc 2 135 49 view .LVU505
 1400 0148 0133     		adds	r3, r3, #1
 1401              		.loc 2 135 12 view .LVU506
 1402 014a 1BB2     		sxth	r3, r3
 1403              	.LVL133:
 1404              		.loc 2 135 12 view .LVU507
 1405              	.LBE141:
 1406              	.LBE140:
 473:lvgl/src/draw/sw/lv_draw_sw_rect.c ****     if(r_sh > short_side >> 1) r_sh = short_side >> 1;
 1407              		.loc 1 473 16 view .LVU508
 1408 014c 8B42     		cmp	r3, r1
 1409 014e 00DD     		ble	.L87
 473:lvgl/src/draw/sw/lv_draw_sw_rect.c ****     if(r_sh > short_side >> 1) r_sh = short_side >> 1;
 1410              		.loc 1 473 18 view .LVU509
 1411 0150 0B46     		mov	r3, r1
 1412              	.L87:
 1413              	.LVL134:
 474:lvgl/src/draw/sw/lv_draw_sw_rect.c **** 
 1414              		.loc 1 474 5 is_stmt 1 discriminator 4 view .LVU510
 474:lvgl/src/draw/sw/lv_draw_sw_rect.c **** 
 1415              		.loc 1 474 26 is_stmt 0 discriminator 4 view .LVU511
ARM GAS  /var/folders/21/t9g5rlb91ys800n5npymflf80000gn/T//cca4dfU0.s 			page 60


 1416 0152 5F10     		asrs	r7, r3, #1
 474:lvgl/src/draw/sw/lv_draw_sw_rect.c **** 
 1417              		.loc 1 474 7 discriminator 4 view .LVU512
 1418 0154 B2EB630F 		cmp	r2, r3, asr #1
 1419 0158 00DC     		bgt	.L88
 472:lvgl/src/draw/sw/lv_draw_sw_rect.c ****     short_side = LV_MIN(lv_area_get_width(&core_area), lv_area_get_height(&core_area));
 1420              		.loc 1 472 13 view .LVU513
 1421 015a 1746     		mov	r7, r2
 1422              	.L88:
 1423              	.LVL135:
 477:lvgl/src/draw/sw/lv_draw_sw_rect.c **** 
 1424              		.loc 1 477 5 is_stmt 1 view .LVU514
 477:lvgl/src/draw/sw/lv_draw_sw_rect.c **** 
 1425              		.loc 1 477 30 is_stmt 0 view .LVU515
 1426 015c B5F92E40 		ldrsh	r4, [r5, #46]
 1427              	.LVL136:
 477:lvgl/src/draw/sw/lv_draw_sw_rect.c **** 
 1428              		.loc 1 477 13 view .LVU516
 1429 0160 3C44     		add	r4, r4, r7
 1430              	.LVL137:
 479:lvgl/src/draw/sw/lv_draw_sw_rect.c **** 
 1431              		.loc 1 479 5 is_stmt 1 view .LVU517
 500:lvgl/src/draw/sw/lv_draw_sw_rect.c ****     shadow_draw_corner_buf(&core_area, (uint16_t *)sh_buf, dsc->shadow_width, r_sh);
 1432              		.loc 1 500 5 view .LVU518
 500:lvgl/src/draw/sw/lv_draw_sw_rect.c ****     shadow_draw_corner_buf(&core_area, (uint16_t *)sh_buf, dsc->shadow_width, r_sh);
 1433              		.loc 1 500 41 is_stmt 0 view .LVU519
 1434 0162 04FB04F0 		mul	r0, r4, r4
 500:lvgl/src/draw/sw/lv_draw_sw_rect.c ****     shadow_draw_corner_buf(&core_area, (uint16_t *)sh_buf, dsc->shadow_width, r_sh);
 1435              		.loc 1 500 14 view .LVU520
 1436 0166 4000     		lsls	r0, r0, #1
 1437 0168 FFF7FEFF 		bl	lv_mem_buf_get
 1438              	.LVL138:
 500:lvgl/src/draw/sw/lv_draw_sw_rect.c ****     shadow_draw_corner_buf(&core_area, (uint16_t *)sh_buf, dsc->shadow_width, r_sh);
 1439              		.loc 1 500 14 view .LVU521
 1440 016c 0146     		mov	r1, r0
 1441 016e 0390     		str	r0, [sp, #12]
 1442              	.LVL139:
 501:lvgl/src/draw/sw/lv_draw_sw_rect.c **** #endif
 1443              		.loc 1 501 5 is_stmt 1 view .LVU522
 1444 0170 3B46     		mov	r3, r7
 1445 0172 B5F92E20 		ldrsh	r2, [r5, #46]
 1446 0176 24A8     		add	r0, sp, #144
 1447              	.LVL140:
 501:lvgl/src/draw/sw/lv_draw_sw_rect.c **** #endif
 1448              		.loc 1 501 5 is_stmt 0 view .LVU523
 1449 0178 FFF7FEFF 		bl	shadow_draw_corner_buf
 1450              	.LVL141:
 505:lvgl/src/draw/sw/lv_draw_sw_rect.c ****     bool simple = true;
 1451              		.loc 1 505 5 is_stmt 1 view .LVU524
 505:lvgl/src/draw/sw/lv_draw_sw_rect.c ****     bool simple = true;
 1452              		.loc 1 505 21 is_stmt 0 view .LVU525
 1453 017c 22A8     		add	r0, sp, #136
 1454 017e FFF7FEFF 		bl	lv_draw_mask_is_any
 1455              	.LVL142:
 506:lvgl/src/draw/sw/lv_draw_sw_rect.c ****     if(mask_any || dsc->bg_opa < LV_OPA_COVER || dsc->blend_mode != LV_BLEND_MODE_NORMAL) simple = 
 1456              		.loc 1 506 5 is_stmt 1 view .LVU526
 507:lvgl/src/draw/sw/lv_draw_sw_rect.c **** 
ARM GAS  /var/folders/21/t9g5rlb91ys800n5npymflf80000gn/T//cca4dfU0.s 			page 61


 1457              		.loc 1 507 5 view .LVU527
 507:lvgl/src/draw/sw/lv_draw_sw_rect.c **** 
 1458              		.loc 1 507 7 is_stmt 0 view .LVU528
 1459 0182 20B9     		cbnz	r0, .L89
 507:lvgl/src/draw/sw/lv_draw_sw_rect.c **** 
 1460              		.loc 1 507 47 discriminator 2 view .LVU529
 1461 0184 6B88     		ldrh	r3, [r5, #2]
 1462 0186 B3F57F4F 		cmp	r3, #65280
 1463 018a 00F02281 		beq	.L160
 1464              	.L89:
 507:lvgl/src/draw/sw/lv_draw_sw_rect.c **** 
 1465              		.loc 1 507 91 is_stmt 1 view .LVU530
 1466              	.LVL143:
 511:lvgl/src/draw/sw/lv_draw_sw_rect.c ****     int16_t mask_rout_id = LV_MASK_ID_INV;
 1467              		.loc 1 511 5 view .LVU531
 512:lvgl/src/draw/sw/lv_draw_sw_rect.c ****     if(!simple) {
 1468              		.loc 1 512 5 view .LVU532
 513:lvgl/src/draw/sw/lv_draw_sw_rect.c ****         lv_draw_mask_radius_init(&mask_rout_param, &bg_area, r_bg, true);
 1469              		.loc 1 513 5 view .LVU533
 514:lvgl/src/draw/sw/lv_draw_sw_rect.c ****         mask_rout_id = lv_draw_mask_add(&mask_rout_param, NULL);
 1470              		.loc 1 514 9 view .LVU534
 1471 018e 0123     		movs	r3, #1
 1472 0190 019A     		ldr	r2, [sp, #4]
 1473 0192 1EA9     		add	r1, sp, #120
 1474 0194 18A8     		add	r0, sp, #96
 1475              	.LVL144:
 514:lvgl/src/draw/sw/lv_draw_sw_rect.c ****         mask_rout_id = lv_draw_mask_add(&mask_rout_param, NULL);
 1476              		.loc 1 514 9 is_stmt 0 view .LVU535
 1477 0196 FFF7FEFF 		bl	lv_draw_mask_radius_init
 1478              	.LVL145:
 515:lvgl/src/draw/sw/lv_draw_sw_rect.c ****     }
 1479              		.loc 1 515 9 is_stmt 1 view .LVU536
 515:lvgl/src/draw/sw/lv_draw_sw_rect.c ****     }
 1480              		.loc 1 515 24 is_stmt 0 view .LVU537
 1481 019a 0021     		movs	r1, #0
 1482 019c 18A8     		add	r0, sp, #96
 1483 019e FFF7FEFF 		bl	lv_draw_mask_add
 1484              	.LVL146:
 1485 01a2 0790     		str	r0, [sp, #28]
 1486              	.LVL147:
 507:lvgl/src/draw/sw/lv_draw_sw_rect.c **** 
 1487              		.loc 1 507 98 view .LVU538
 1488 01a4 0023     		movs	r3, #0
 1489 01a6 0093     		str	r3, [sp]
 1490              	.LVL148:
 1491              	.L90:
 517:lvgl/src/draw/sw/lv_draw_sw_rect.c ****     lv_area_t blend_area;
 1492              		.loc 1 517 5 is_stmt 1 view .LVU539
 1493              	.LBB142:
 1494              	.LBI142:
 123:lvgl/src/draw/sw/../../misc/lv_area.h **** {
 1495              		.loc 2 123 26 view .LVU540
 1496              	.LBB143:
 125:lvgl/src/draw/sw/../../misc/lv_area.h **** }
 1497              		.loc 2 125 5 view .LVU541
 125:lvgl/src/draw/sw/../../misc/lv_area.h **** }
 1498              		.loc 2 125 31 is_stmt 0 view .LVU542
ARM GAS  /var/folders/21/t9g5rlb91ys800n5npymflf80000gn/T//cca4dfU0.s 			page 62


 1499 01a8 BDF88C00 		ldrh	r0, [sp, #140]
 125:lvgl/src/draw/sw/../../misc/lv_area.h **** }
 1500              		.loc 2 125 44 view .LVU543
 1501 01ac BDF88830 		ldrh	r3, [sp, #136]
 125:lvgl/src/draw/sw/../../misc/lv_area.h **** }
 1502              		.loc 2 125 36 view .LVU544
 1503 01b0 C01A     		subs	r0, r0, r3
 1504 01b2 80B2     		uxth	r0, r0
 125:lvgl/src/draw/sw/../../misc/lv_area.h **** }
 1505              		.loc 2 125 49 view .LVU545
 1506 01b4 0130     		adds	r0, r0, #1
 1507              	.LVL149:
 125:lvgl/src/draw/sw/../../misc/lv_area.h **** }
 1508              		.loc 2 125 49 view .LVU546
 1509              	.LBE143:
 1510              	.LBE142:
 517:lvgl/src/draw/sw/lv_draw_sw_rect.c ****     lv_area_t blend_area;
 1511              		.loc 1 517 27 view .LVU547
 1512 01b6 00B2     		sxth	r0, r0
 1513 01b8 FFF7FEFF 		bl	lv_mem_buf_get
 1514              	.LVL150:
 1515 01bc 0746     		mov	r7, r0
 1516              	.LVL151:
 517:lvgl/src/draw/sw/lv_draw_sw_rect.c ****     lv_area_t blend_area;
 1517              		.loc 1 517 27 view .LVU548
 1518 01be 0490     		str	r0, [sp, #16]
 1519              	.LVL152:
 518:lvgl/src/draw/sw/lv_draw_sw_rect.c ****     lv_area_t clip_area_sub;
 1520              		.loc 1 518 5 is_stmt 1 view .LVU549
 519:lvgl/src/draw/sw/lv_draw_sw_rect.c ****     lv_opa_t * sh_buf_tmp;
 1521              		.loc 1 519 5 view .LVU550
 520:lvgl/src/draw/sw/lv_draw_sw_rect.c ****     lv_coord_t y;
 1522              		.loc 1 520 5 view .LVU551
 521:lvgl/src/draw/sw/lv_draw_sw_rect.c ****     bool simple_sub;
 1523              		.loc 1 521 5 view .LVU552
 522:lvgl/src/draw/sw/lv_draw_sw_rect.c **** 
 1524              		.loc 1 522 5 view .LVU553
 524:lvgl/src/draw/sw/lv_draw_sw_rect.c ****     lv_memset_00(&blend_dsc, sizeof(blend_dsc));
 1525              		.loc 1 524 5 view .LVU554
 525:lvgl/src/draw/sw/lv_draw_sw_rect.c ****     blend_dsc.blend_area = &blend_area;
 1526              		.loc 1 525 5 view .LVU555
 1527 01c0 1C21     		movs	r1, #28
 1528 01c2 0DA8     		add	r0, sp, #52
 1529              	.LVL153:
 525:lvgl/src/draw/sw/lv_draw_sw_rect.c ****     blend_dsc.blend_area = &blend_area;
 1530              		.loc 1 525 5 is_stmt 0 view .LVU556
 1531 01c4 FFF7FEFF 		bl	lv_memset_00
 1532              	.LVL154:
 526:lvgl/src/draw/sw/lv_draw_sw_rect.c ****     blend_dsc.mask_area = &blend_area;
 1533              		.loc 1 526 5 is_stmt 1 view .LVU557
 526:lvgl/src/draw/sw/lv_draw_sw_rect.c ****     blend_dsc.mask_area = &blend_area;
 1534              		.loc 1 526 26 is_stmt 0 view .LVU558
 1535 01c8 16A9     		add	r1, sp, #88
 1536 01ca 0D91     		str	r1, [sp, #52]
 527:lvgl/src/draw/sw/lv_draw_sw_rect.c ****     blend_dsc.mask_buf = mask_buf;
 1537              		.loc 1 527 5 is_stmt 1 view .LVU559
 527:lvgl/src/draw/sw/lv_draw_sw_rect.c ****     blend_dsc.mask_buf = mask_buf;
ARM GAS  /var/folders/21/t9g5rlb91ys800n5npymflf80000gn/T//cca4dfU0.s 			page 63


 1538              		.loc 1 527 25 is_stmt 0 view .LVU560
 1539 01cc 1291     		str	r1, [sp, #72]
 528:lvgl/src/draw/sw/lv_draw_sw_rect.c ****     blend_dsc.color = dsc->shadow_color;
 1540              		.loc 1 528 5 is_stmt 1 view .LVU561
 528:lvgl/src/draw/sw/lv_draw_sw_rect.c ****     blend_dsc.color = dsc->shadow_color;
 1541              		.loc 1 528 24 is_stmt 0 view .LVU562
 1542 01ce 1097     		str	r7, [sp, #64]
 529:lvgl/src/draw/sw/lv_draw_sw_rect.c ****     blend_dsc.opa = dsc->shadow_opa;
 1543              		.loc 1 529 5 is_stmt 1 view .LVU563
 529:lvgl/src/draw/sw/lv_draw_sw_rect.c ****     blend_dsc.opa = dsc->shadow_opa;
 1544              		.loc 1 529 21 is_stmt 0 view .LVU564
 1545 01d0 AB8D     		ldrh	r3, [r5, #44]
 1546 01d2 ADF83C30 		strh	r3, [sp, #60]	@ movhi
 530:lvgl/src/draw/sw/lv_draw_sw_rect.c ****     blend_dsc.blend_mode = dsc->blend_mode;
 1547              		.loc 1 530 5 is_stmt 1 view .LVU565
 530:lvgl/src/draw/sw/lv_draw_sw_rect.c ****     blend_dsc.blend_mode = dsc->blend_mode;
 1548              		.loc 1 530 24 is_stmt 0 view .LVU566
 1549 01d6 95F83630 		ldrb	r3, [r5, #54]	@ zero_extendqisi2
 530:lvgl/src/draw/sw/lv_draw_sw_rect.c ****     blend_dsc.blend_mode = dsc->blend_mode;
 1550              		.loc 1 530 19 view .LVU567
 1551 01da 8DF84C30 		strb	r3, [sp, #76]
 531:lvgl/src/draw/sw/lv_draw_sw_rect.c **** 
 1552              		.loc 1 531 5 is_stmt 1 view .LVU568
 531:lvgl/src/draw/sw/lv_draw_sw_rect.c **** 
 1553              		.loc 1 531 31 is_stmt 0 view .LVU569
 1554 01de AB78     		ldrb	r3, [r5, #2]	@ zero_extendqisi2
 531:lvgl/src/draw/sw/lv_draw_sw_rect.c **** 
 1555              		.loc 1 531 26 view .LVU570
 1556 01e0 8DF84D30 		strb	r3, [sp, #77]
 533:lvgl/src/draw/sw/lv_draw_sw_rect.c ****     lv_coord_t h_half = shadow_area.y1 + lv_area_get_height(&shadow_area) / 2;
 1557              		.loc 1 533 5 is_stmt 1 view .LVU571
 533:lvgl/src/draw/sw/lv_draw_sw_rect.c ****     lv_coord_t h_half = shadow_area.y1 + lv_area_get_height(&shadow_area) / 2;
 1558              		.loc 1 533 36 is_stmt 0 view .LVU572
 1559 01e4 BDF88800 		ldrh	r0, [sp, #136]
 1560              	.LVL155:
 1561              	.LBB144:
 1562              	.LBI144:
 123:lvgl/src/draw/sw/../../misc/lv_area.h **** {
 1563              		.loc 2 123 26 is_stmt 1 view .LVU573
 1564              	.LBB145:
 125:lvgl/src/draw/sw/../../misc/lv_area.h **** }
 1565              		.loc 2 125 5 view .LVU574
 125:lvgl/src/draw/sw/../../misc/lv_area.h **** }
 1566              		.loc 2 125 31 is_stmt 0 view .LVU575
 1567 01e8 BDF98C70 		ldrsh	r7, [sp, #140]
 1568              	.LVL156:
 125:lvgl/src/draw/sw/../../misc/lv_area.h **** }
 1569              		.loc 2 125 31 view .LVU576
 1570 01ec 1FFA87FA 		uxth	r10, r7
 125:lvgl/src/draw/sw/../../misc/lv_area.h **** }
 1571              		.loc 2 125 36 view .LVU577
 1572 01f0 AAEB0003 		sub	r3, r10, r0
 1573 01f4 9BB2     		uxth	r3, r3
 125:lvgl/src/draw/sw/../../misc/lv_area.h **** }
 1574              		.loc 2 125 49 view .LVU578
 1575 01f6 0133     		adds	r3, r3, #1
 1576              	.LVL157:
ARM GAS  /var/folders/21/t9g5rlb91ys800n5npymflf80000gn/T//cca4dfU0.s 			page 64


 125:lvgl/src/draw/sw/../../misc/lv_area.h **** }
 1577              		.loc 2 125 49 view .LVU579
 1578              	.LBE145:
 1579              	.LBE144:
 533:lvgl/src/draw/sw/lv_draw_sw_rect.c ****     lv_coord_t h_half = shadow_area.y1 + lv_area_get_height(&shadow_area) / 2;
 1580              		.loc 1 533 40 view .LVU580
 1581 01f8 C3F3C03C 		ubfx	ip, r3, #15, #1
 1582 01fc 0CFA83F3 		sxtah	r3, ip, r3
 1583 0200 00EB6300 		add	r0, r0, r3, asr #1
 533:lvgl/src/draw/sw/lv_draw_sw_rect.c ****     lv_coord_t h_half = shadow_area.y1 + lv_area_get_height(&shadow_area) / 2;
 1584              		.loc 1 533 16 view .LVU581
 1585 0204 03B2     		sxth	r3, r0
 1586 0206 0293     		str	r3, [sp, #8]
 1587              	.LVL158:
 534:lvgl/src/draw/sw/lv_draw_sw_rect.c **** 
 1588              		.loc 1 534 5 is_stmt 1 view .LVU582
 534:lvgl/src/draw/sw/lv_draw_sw_rect.c **** 
 1589              		.loc 1 534 36 is_stmt 0 view .LVU583
 1590 0208 BDF98AC0 		ldrsh	ip, [sp, #138]
 1591 020c 1FFA8CF3 		uxth	r3, ip
 1592              	.LVL159:
 1593              	.LBB146:
 1594              	.LBI146:
 133:lvgl/src/draw/sw/../../misc/lv_area.h **** {
 1595              		.loc 2 133 26 is_stmt 1 view .LVU584
 1596              	.LBB147:
 1597              		.loc 2 135 5 view .LVU585
 1598              		.loc 2 135 31 is_stmt 0 view .LVU586
 1599 0210 BDF88E00 		ldrh	r0, [sp, #142]
 1600              		.loc 2 135 36 view .LVU587
 1601 0214 C01A     		subs	r0, r0, r3
 1602 0216 80B2     		uxth	r0, r0
 1603              		.loc 2 135 49 view .LVU588
 1604 0218 0130     		adds	r0, r0, #1
 1605              	.LVL160:
 1606              		.loc 2 135 49 view .LVU589
 1607              	.LBE147:
 1608              	.LBE146:
 534:lvgl/src/draw/sw/lv_draw_sw_rect.c **** 
 1609              		.loc 1 534 40 view .LVU590
 1610 021a C0F3C03E 		ubfx	lr, r0, #15, #1
 1611 021e 0EFA80F0 		sxtah	r0, lr, r0
 1612 0222 03EB6000 		add	r0, r3, r0, asr #1
 1613 0226 82B2     		uxth	r2, r0
 1614 0228 0692     		str	r2, [sp, #24]
 534:lvgl/src/draw/sw/lv_draw_sw_rect.c **** 
 1615              		.loc 1 534 16 view .LVU591
 1616 022a 0FFA80F8 		sxth	r8, r0
 1617              	.LVL161:
 539:lvgl/src/draw/sw/lv_draw_sw_rect.c ****     blend_area.x1 = shadow_area.x2 - corner_size + 1;
 1618              		.loc 1 539 5 is_stmt 1 view .LVU592
 539:lvgl/src/draw/sw/lv_draw_sw_rect.c ****     blend_area.x1 = shadow_area.x2 - corner_size + 1;
 1619              		.loc 1 539 19 is_stmt 0 view .LVU593
 1620 022e ADF85C70 		strh	r7, [sp, #92]	@ movhi
 540:lvgl/src/draw/sw/lv_draw_sw_rect.c ****     blend_area.y1 = shadow_area.y1;
 1621              		.loc 1 540 5 is_stmt 1 view .LVU594
 540:lvgl/src/draw/sw/lv_draw_sw_rect.c ****     blend_area.y1 = shadow_area.y1;
ARM GAS  /var/folders/21/t9g5rlb91ys800n5npymflf80000gn/T//cca4dfU0.s 			page 65


 1622              		.loc 1 540 36 is_stmt 0 view .LVU595
 1623 0232 A7B2     		uxth	r7, r4
 1624 0234 AAEB0702 		sub	r2, r10, r7
 1625 0238 92B2     		uxth	r2, r2
 540:lvgl/src/draw/sw/lv_draw_sw_rect.c ****     blend_area.y1 = shadow_area.y1;
 1626              		.loc 1 540 50 view .LVU596
 1627 023a 0132     		adds	r2, r2, #1
 1628 023c 12B2     		sxth	r2, r2
 540:lvgl/src/draw/sw/lv_draw_sw_rect.c ****     blend_area.y1 = shadow_area.y1;
 1629              		.loc 1 540 19 view .LVU597
 1630 023e ADF85820 		strh	r2, [sp, #88]	@ movhi
 541:lvgl/src/draw/sw/lv_draw_sw_rect.c ****     blend_area.y2 = shadow_area.y1 + corner_size - 1;
 1631              		.loc 1 541 5 is_stmt 1 view .LVU598
 541:lvgl/src/draw/sw/lv_draw_sw_rect.c ****     blend_area.y2 = shadow_area.y1 + corner_size - 1;
 1632              		.loc 1 541 19 is_stmt 0 view .LVU599
 1633 0242 ADF85AC0 		strh	ip, [sp, #90]	@ movhi
 542:lvgl/src/draw/sw/lv_draw_sw_rect.c ****     /*Do not overdraw the other top corners*/
 1634              		.loc 1 542 5 is_stmt 1 view .LVU600
 542:lvgl/src/draw/sw/lv_draw_sw_rect.c ****     /*Do not overdraw the other top corners*/
 1635              		.loc 1 542 36 is_stmt 0 view .LVU601
 1636 0246 3B44     		add	r3, r3, r7
 1637 0248 9BB2     		uxth	r3, r3
 542:lvgl/src/draw/sw/lv_draw_sw_rect.c ****     /*Do not overdraw the other top corners*/
 1638              		.loc 1 542 50 view .LVU602
 1639 024a 013B     		subs	r3, r3, #1
 1640 024c 1BB2     		sxth	r3, r3
 542:lvgl/src/draw/sw/lv_draw_sw_rect.c ****     /*Do not overdraw the other top corners*/
 1641              		.loc 1 542 19 view .LVU603
 1642 024e ADF85E30 		strh	r3, [sp, #94]	@ movhi
 544:lvgl/src/draw/sw/lv_draw_sw_rect.c ****     blend_area.y2 = LV_MIN(blend_area.y2, h_half);
 1643              		.loc 1 544 5 is_stmt 1 view .LVU604
 544:lvgl/src/draw/sw/lv_draw_sw_rect.c ****     blend_area.y2 = LV_MIN(blend_area.y2, h_half);
 1644              		.loc 1 544 21 is_stmt 0 view .LVU605
 1645 0252 0298     		ldr	r0, [sp, #8]
 1646 0254 8242     		cmp	r2, r0
 1647 0256 B8BF     		it	lt
 1648 0258 0246     		movlt	r2, r0
 544:lvgl/src/draw/sw/lv_draw_sw_rect.c ****     blend_area.y2 = LV_MIN(blend_area.y2, h_half);
 1649              		.loc 1 544 19 view .LVU606
 1650 025a ADF85820 		strh	r2, [sp, #88]	@ movhi
 545:lvgl/src/draw/sw/lv_draw_sw_rect.c **** 
 1651              		.loc 1 545 5 is_stmt 1 view .LVU607
 545:lvgl/src/draw/sw/lv_draw_sw_rect.c **** 
 1652              		.loc 1 545 21 is_stmt 0 view .LVU608
 1653 025e 4345     		cmp	r3, r8
 1654 0260 A8BF     		it	ge
 1655 0262 4346     		movge	r3, r8
 545:lvgl/src/draw/sw/lv_draw_sw_rect.c **** 
 1656              		.loc 1 545 19 view .LVU609
 1657 0264 ADF85E30 		strh	r3, [sp, #94]	@ movhi
 547:lvgl/src/draw/sw/lv_draw_sw_rect.c ****        !_lv_area_is_in(&clip_area_sub, &bg_area, r_bg)) {
 1658              		.loc 1 547 5 is_stmt 1 view .LVU610
 547:lvgl/src/draw/sw/lv_draw_sw_rect.c ****        !_lv_area_is_in(&clip_area_sub, &bg_area, r_bg)) {
 1659              		.loc 1 547 8 is_stmt 0 view .LVU611
 1660 0268 B268     		ldr	r2, [r6, #8]
 1661 026a 14A8     		add	r0, sp, #80
 1662 026c FFF7FEFF 		bl	_lv_area_intersect
ARM GAS  /var/folders/21/t9g5rlb91ys800n5npymflf80000gn/T//cca4dfU0.s 			page 66


 1663              	.LVL162:
 547:lvgl/src/draw/sw/lv_draw_sw_rect.c ****        !_lv_area_is_in(&clip_area_sub, &bg_area, r_bg)) {
 1664              		.loc 1 547 7 view .LVU612
 1665 0270 0028     		cmp	r0, #0
 1666 0272 40F0B280 		bne	.L182
 1667              	.LVL163:
 1668              	.L91:
 582:lvgl/src/draw/sw/lv_draw_sw_rect.c ****     blend_area.x1 = shadow_area.x2 - corner_size + 1;
 1669              		.loc 1 582 5 is_stmt 1 view .LVU613
 582:lvgl/src/draw/sw/lv_draw_sw_rect.c ****     blend_area.x1 = shadow_area.x2 - corner_size + 1;
 1670              		.loc 1 582 32 is_stmt 0 view .LVU614
 1671 0276 BDF98C30 		ldrsh	r3, [sp, #140]
 582:lvgl/src/draw/sw/lv_draw_sw_rect.c ****     blend_area.x1 = shadow_area.x2 - corner_size + 1;
 1672              		.loc 1 582 19 view .LVU615
 1673 027a ADF85C30 		strh	r3, [sp, #92]	@ movhi
 583:lvgl/src/draw/sw/lv_draw_sw_rect.c ****     blend_area.y1 = shadow_area.y2 - corner_size + 1;
 1674              		.loc 1 583 5 is_stmt 1 view .LVU616
 583:lvgl/src/draw/sw/lv_draw_sw_rect.c ****     blend_area.y1 = shadow_area.y2 - corner_size + 1;
 1675              		.loc 1 583 32 is_stmt 0 view .LVU617
 1676 027e 9BB2     		uxth	r3, r3
 583:lvgl/src/draw/sw/lv_draw_sw_rect.c ****     blend_area.y1 = shadow_area.y2 - corner_size + 1;
 1677              		.loc 1 583 36 view .LVU618
 1678 0280 DB1B     		subs	r3, r3, r7
 1679 0282 9BB2     		uxth	r3, r3
 583:lvgl/src/draw/sw/lv_draw_sw_rect.c ****     blend_area.y1 = shadow_area.y2 - corner_size + 1;
 1680              		.loc 1 583 50 view .LVU619
 1681 0284 0133     		adds	r3, r3, #1
 1682 0286 1BB2     		sxth	r3, r3
 583:lvgl/src/draw/sw/lv_draw_sw_rect.c ****     blend_area.y1 = shadow_area.y2 - corner_size + 1;
 1683              		.loc 1 583 19 view .LVU620
 1684 0288 ADF85830 		strh	r3, [sp, #88]	@ movhi
 584:lvgl/src/draw/sw/lv_draw_sw_rect.c ****     blend_area.y2 = shadow_area.y2;
 1685              		.loc 1 584 5 is_stmt 1 view .LVU621
 584:lvgl/src/draw/sw/lv_draw_sw_rect.c ****     blend_area.y2 = shadow_area.y2;
 1686              		.loc 1 584 32 is_stmt 0 view .LVU622
 1687 028c BDF98E10 		ldrsh	r1, [sp, #142]
 1688 0290 8AB2     		uxth	r2, r1
 584:lvgl/src/draw/sw/lv_draw_sw_rect.c ****     blend_area.y2 = shadow_area.y2;
 1689              		.loc 1 584 36 view .LVU623
 1690 0292 D21B     		subs	r2, r2, r7
 1691 0294 92B2     		uxth	r2, r2
 584:lvgl/src/draw/sw/lv_draw_sw_rect.c ****     blend_area.y2 = shadow_area.y2;
 1692              		.loc 1 584 50 view .LVU624
 1693 0296 0132     		adds	r2, r2, #1
 1694 0298 12B2     		sxth	r2, r2
 584:lvgl/src/draw/sw/lv_draw_sw_rect.c ****     blend_area.y2 = shadow_area.y2;
 1695              		.loc 1 584 19 view .LVU625
 1696 029a ADF85A20 		strh	r2, [sp, #90]	@ movhi
 585:lvgl/src/draw/sw/lv_draw_sw_rect.c ****     /*Do not overdraw the other corners*/
 1697              		.loc 1 585 5 is_stmt 1 view .LVU626
 585:lvgl/src/draw/sw/lv_draw_sw_rect.c ****     /*Do not overdraw the other corners*/
 1698              		.loc 1 585 19 is_stmt 0 view .LVU627
 1699 029e ADF85E10 		strh	r1, [sp, #94]	@ movhi
 587:lvgl/src/draw/sw/lv_draw_sw_rect.c ****     blend_area.y1 = LV_MAX(blend_area.y1, h_half + 1);
 1700              		.loc 1 587 5 is_stmt 1 view .LVU628
 587:lvgl/src/draw/sw/lv_draw_sw_rect.c ****     blend_area.y1 = LV_MAX(blend_area.y1, h_half + 1);
 1701              		.loc 1 587 21 is_stmt 0 view .LVU629
ARM GAS  /var/folders/21/t9g5rlb91ys800n5npymflf80000gn/T//cca4dfU0.s 			page 67


 1702 02a2 0299     		ldr	r1, [sp, #8]
 1703 02a4 8B42     		cmp	r3, r1
 1704 02a6 B8BF     		it	lt
 1705 02a8 0B46     		movlt	r3, r1
 587:lvgl/src/draw/sw/lv_draw_sw_rect.c ****     blend_area.y1 = LV_MAX(blend_area.y1, h_half + 1);
 1706              		.loc 1 587 19 view .LVU630
 1707 02aa ADF85830 		strh	r3, [sp, #88]	@ movhi
 588:lvgl/src/draw/sw/lv_draw_sw_rect.c **** 
 1708              		.loc 1 588 5 is_stmt 1 view .LVU631
 588:lvgl/src/draw/sw/lv_draw_sw_rect.c **** 
 1709              		.loc 1 588 21 is_stmt 0 view .LVU632
 1710 02ae 08F10103 		add	r3, r8, #1
 1711 02b2 0593     		str	r3, [sp, #20]
 1712 02b4 9A42     		cmp	r2, r3
 1713 02b6 B8BF     		it	lt
 1714 02b8 1A46     		movlt	r2, r3
 588:lvgl/src/draw/sw/lv_draw_sw_rect.c **** 
 1715              		.loc 1 588 19 view .LVU633
 1716 02ba ADF85A20 		strh	r2, [sp, #90]	@ movhi
 590:lvgl/src/draw/sw/lv_draw_sw_rect.c ****        !_lv_area_is_in(&clip_area_sub, &bg_area, r_bg)) {
 1717              		.loc 1 590 5 is_stmt 1 view .LVU634
 590:lvgl/src/draw/sw/lv_draw_sw_rect.c ****        !_lv_area_is_in(&clip_area_sub, &bg_area, r_bg)) {
 1718              		.loc 1 590 8 is_stmt 0 view .LVU635
 1719 02be B268     		ldr	r2, [r6, #8]
 1720 02c0 16A9     		add	r1, sp, #88
 1721 02c2 14A8     		add	r0, sp, #80
 1722 02c4 FFF7FEFF 		bl	_lv_area_intersect
 1723              	.LVL164:
 590:lvgl/src/draw/sw/lv_draw_sw_rect.c ****        !_lv_area_is_in(&clip_area_sub, &bg_area, r_bg)) {
 1724              		.loc 1 590 7 view .LVU636
 1725 02c8 0028     		cmp	r0, #0
 1726 02ca 40F00381 		bne	.L183
 1727              	.L97:
 624:lvgl/src/draw/sw/lv_draw_sw_rect.c ****     blend_area.x2 = shadow_area.x2 - corner_size;
 1728              		.loc 1 624 5 is_stmt 1 view .LVU637
 624:lvgl/src/draw/sw/lv_draw_sw_rect.c ****     blend_area.x2 = shadow_area.x2 - corner_size;
 1729              		.loc 1 624 32 is_stmt 0 view .LVU638
 1730 02ce BDF88830 		ldrh	r3, [sp, #136]
 624:lvgl/src/draw/sw/lv_draw_sw_rect.c ****     blend_area.x2 = shadow_area.x2 - corner_size;
 1731              		.loc 1 624 36 view .LVU639
 1732 02d2 3B44     		add	r3, r3, r7
 624:lvgl/src/draw/sw/lv_draw_sw_rect.c ****     blend_area.x2 = shadow_area.x2 - corner_size;
 1733              		.loc 1 624 19 view .LVU640
 1734 02d4 ADF85830 		strh	r3, [sp, #88]	@ movhi
 625:lvgl/src/draw/sw/lv_draw_sw_rect.c ****     blend_area.y1 = shadow_area.y1;
 1735              		.loc 1 625 5 is_stmt 1 view .LVU641
 625:lvgl/src/draw/sw/lv_draw_sw_rect.c ****     blend_area.y1 = shadow_area.y1;
 1736              		.loc 1 625 32 is_stmt 0 view .LVU642
 1737 02d8 BDF88C30 		ldrh	r3, [sp, #140]
 625:lvgl/src/draw/sw/lv_draw_sw_rect.c ****     blend_area.y1 = shadow_area.y1;
 1738              		.loc 1 625 36 view .LVU643
 1739 02dc DB1B     		subs	r3, r3, r7
 625:lvgl/src/draw/sw/lv_draw_sw_rect.c ****     blend_area.y1 = shadow_area.y1;
 1740              		.loc 1 625 19 view .LVU644
 1741 02de ADF85C30 		strh	r3, [sp, #92]	@ movhi
 626:lvgl/src/draw/sw/lv_draw_sw_rect.c ****     blend_area.y2 = shadow_area.y1 + corner_size - 1;
 1742              		.loc 1 626 5 is_stmt 1 view .LVU645
ARM GAS  /var/folders/21/t9g5rlb91ys800n5npymflf80000gn/T//cca4dfU0.s 			page 68


 626:lvgl/src/draw/sw/lv_draw_sw_rect.c ****     blend_area.y2 = shadow_area.y1 + corner_size - 1;
 1743              		.loc 1 626 32 is_stmt 0 view .LVU646
 1744 02e2 BDF98A30 		ldrsh	r3, [sp, #138]
 626:lvgl/src/draw/sw/lv_draw_sw_rect.c ****     blend_area.y2 = shadow_area.y1 + corner_size - 1;
 1745              		.loc 1 626 19 view .LVU647
 1746 02e6 ADF85A30 		strh	r3, [sp, #90]	@ movhi
 627:lvgl/src/draw/sw/lv_draw_sw_rect.c ****     blend_area.y2 = LV_MIN(blend_area.y2, h_half);
 1747              		.loc 1 627 5 is_stmt 1 view .LVU648
 627:lvgl/src/draw/sw/lv_draw_sw_rect.c ****     blend_area.y2 = LV_MIN(blend_area.y2, h_half);
 1748              		.loc 1 627 36 is_stmt 0 view .LVU649
 1749 02ea 17FA83F3 		uxtah	r3, r7, r3
 1750 02ee 9BB2     		uxth	r3, r3
 627:lvgl/src/draw/sw/lv_draw_sw_rect.c ****     blend_area.y2 = LV_MIN(blend_area.y2, h_half);
 1751              		.loc 1 627 50 view .LVU650
 1752 02f0 013B     		subs	r3, r3, #1
 1753 02f2 1BB2     		sxth	r3, r3
 627:lvgl/src/draw/sw/lv_draw_sw_rect.c ****     blend_area.y2 = LV_MIN(blend_area.y2, h_half);
 1754              		.loc 1 627 19 view .LVU651
 1755 02f4 ADF85E30 		strh	r3, [sp, #94]	@ movhi
 628:lvgl/src/draw/sw/lv_draw_sw_rect.c **** 
 1756              		.loc 1 628 5 is_stmt 1 view .LVU652
 628:lvgl/src/draw/sw/lv_draw_sw_rect.c **** 
 1757              		.loc 1 628 21 is_stmt 0 view .LVU653
 1758 02f8 4345     		cmp	r3, r8
 1759 02fa A8BF     		it	ge
 1760 02fc 4346     		movge	r3, r8
 628:lvgl/src/draw/sw/lv_draw_sw_rect.c **** 
 1761              		.loc 1 628 19 view .LVU654
 1762 02fe ADF85E30 		strh	r3, [sp, #94]	@ movhi
 630:lvgl/src/draw/sw/lv_draw_sw_rect.c ****        !_lv_area_is_in(&clip_area_sub, &bg_area, r_bg)) {
 1763              		.loc 1 630 5 is_stmt 1 view .LVU655
 630:lvgl/src/draw/sw/lv_draw_sw_rect.c ****        !_lv_area_is_in(&clip_area_sub, &bg_area, r_bg)) {
 1764              		.loc 1 630 8 is_stmt 0 view .LVU656
 1765 0302 B268     		ldr	r2, [r6, #8]
 1766 0304 16A9     		add	r1, sp, #88
 1767 0306 14A8     		add	r0, sp, #80
 1768 0308 FFF7FEFF 		bl	_lv_area_intersect
 1769              	.LVL165:
 630:lvgl/src/draw/sw/lv_draw_sw_rect.c ****        !_lv_area_is_in(&clip_area_sub, &bg_area, r_bg)) {
 1770              		.loc 1 630 7 view .LVU657
 1771 030c 0028     		cmp	r0, #0
 1772 030e 40F05E81 		bne	.L184
 1773              	.LVL166:
 1774              	.L103:
 668:lvgl/src/draw/sw/lv_draw_sw_rect.c **** 
 1775              		.loc 1 668 5 is_stmt 1 view .LVU658
 668:lvgl/src/draw/sw/lv_draw_sw_rect.c **** 
 1776              		.loc 1 668 24 is_stmt 0 view .LVU659
 1777 0312 95F83630 		ldrb	r3, [r5, #54]	@ zero_extendqisi2
 668:lvgl/src/draw/sw/lv_draw_sw_rect.c **** 
 1778              		.loc 1 668 19 view .LVU660
 1779 0316 8DF84C30 		strb	r3, [sp, #76]
 671:lvgl/src/draw/sw/lv_draw_sw_rect.c ****     blend_area.x2 = shadow_area.x2 - corner_size;
 1780              		.loc 1 671 5 is_stmt 1 view .LVU661
 671:lvgl/src/draw/sw/lv_draw_sw_rect.c ****     blend_area.x2 = shadow_area.x2 - corner_size;
 1781              		.loc 1 671 32 is_stmt 0 view .LVU662
 1782 031a BDF88830 		ldrh	r3, [sp, #136]
ARM GAS  /var/folders/21/t9g5rlb91ys800n5npymflf80000gn/T//cca4dfU0.s 			page 69


 671:lvgl/src/draw/sw/lv_draw_sw_rect.c ****     blend_area.x2 = shadow_area.x2 - corner_size;
 1783              		.loc 1 671 36 view .LVU663
 1784 031e 3B44     		add	r3, r3, r7
 671:lvgl/src/draw/sw/lv_draw_sw_rect.c ****     blend_area.x2 = shadow_area.x2 - corner_size;
 1785              		.loc 1 671 19 view .LVU664
 1786 0320 ADF85830 		strh	r3, [sp, #88]	@ movhi
 672:lvgl/src/draw/sw/lv_draw_sw_rect.c ****     blend_area.y1 = shadow_area.y2 - corner_size + 1;
 1787              		.loc 1 672 5 is_stmt 1 view .LVU665
 672:lvgl/src/draw/sw/lv_draw_sw_rect.c ****     blend_area.y1 = shadow_area.y2 - corner_size + 1;
 1788              		.loc 1 672 32 is_stmt 0 view .LVU666
 1789 0324 BDF88C30 		ldrh	r3, [sp, #140]
 672:lvgl/src/draw/sw/lv_draw_sw_rect.c ****     blend_area.y1 = shadow_area.y2 - corner_size + 1;
 1790              		.loc 1 672 36 view .LVU667
 1791 0328 DB1B     		subs	r3, r3, r7
 672:lvgl/src/draw/sw/lv_draw_sw_rect.c ****     blend_area.y1 = shadow_area.y2 - corner_size + 1;
 1792              		.loc 1 672 19 view .LVU668
 1793 032a ADF85C30 		strh	r3, [sp, #92]	@ movhi
 673:lvgl/src/draw/sw/lv_draw_sw_rect.c ****     blend_area.y2 = shadow_area.y2;
 1794              		.loc 1 673 5 is_stmt 1 view .LVU669
 673:lvgl/src/draw/sw/lv_draw_sw_rect.c ****     blend_area.y2 = shadow_area.y2;
 1795              		.loc 1 673 32 is_stmt 0 view .LVU670
 1796 032e BDF98E20 		ldrsh	r2, [sp, #142]
 1797 0332 93B2     		uxth	r3, r2
 673:lvgl/src/draw/sw/lv_draw_sw_rect.c ****     blend_area.y2 = shadow_area.y2;
 1798              		.loc 1 673 36 view .LVU671
 1799 0334 DB1B     		subs	r3, r3, r7
 1800 0336 9BB2     		uxth	r3, r3
 673:lvgl/src/draw/sw/lv_draw_sw_rect.c ****     blend_area.y2 = shadow_area.y2;
 1801              		.loc 1 673 50 view .LVU672
 1802 0338 0133     		adds	r3, r3, #1
 1803 033a 1BB2     		sxth	r3, r3
 673:lvgl/src/draw/sw/lv_draw_sw_rect.c ****     blend_area.y2 = shadow_area.y2;
 1804              		.loc 1 673 19 view .LVU673
 1805 033c ADF85A30 		strh	r3, [sp, #90]	@ movhi
 674:lvgl/src/draw/sw/lv_draw_sw_rect.c ****     blend_area.y1 = LV_MAX(blend_area.y1, h_half + 1);
 1806              		.loc 1 674 5 is_stmt 1 view .LVU674
 674:lvgl/src/draw/sw/lv_draw_sw_rect.c ****     blend_area.y1 = LV_MAX(blend_area.y1, h_half + 1);
 1807              		.loc 1 674 19 is_stmt 0 view .LVU675
 1808 0340 ADF85E20 		strh	r2, [sp, #94]	@ movhi
 675:lvgl/src/draw/sw/lv_draw_sw_rect.c **** 
 1809              		.loc 1 675 5 is_stmt 1 view .LVU676
 675:lvgl/src/draw/sw/lv_draw_sw_rect.c **** 
 1810              		.loc 1 675 21 is_stmt 0 view .LVU677
 1811 0344 059A     		ldr	r2, [sp, #20]
 1812 0346 9342     		cmp	r3, r2
 1813 0348 B8BF     		it	lt
 1814 034a 1346     		movlt	r3, r2
 675:lvgl/src/draw/sw/lv_draw_sw_rect.c **** 
 1815              		.loc 1 675 19 view .LVU678
 1816 034c ADF85A30 		strh	r3, [sp, #90]	@ movhi
 677:lvgl/src/draw/sw/lv_draw_sw_rect.c ****        !_lv_area_is_in(&clip_area_sub, &bg_area, r_bg)) {
 1817              		.loc 1 677 5 is_stmt 1 view .LVU679
 677:lvgl/src/draw/sw/lv_draw_sw_rect.c ****        !_lv_area_is_in(&clip_area_sub, &bg_area, r_bg)) {
 1818              		.loc 1 677 8 is_stmt 0 view .LVU680
 1819 0350 B268     		ldr	r2, [r6, #8]
 1820 0352 16A9     		add	r1, sp, #88
 1821 0354 14A8     		add	r0, sp, #80
ARM GAS  /var/folders/21/t9g5rlb91ys800n5npymflf80000gn/T//cca4dfU0.s 			page 70


 1822 0356 FFF7FEFF 		bl	_lv_area_intersect
 1823              	.LVL167:
 677:lvgl/src/draw/sw/lv_draw_sw_rect.c ****        !_lv_area_is_in(&clip_area_sub, &bg_area, r_bg)) {
 1824              		.loc 1 677 7 view .LVU681
 1825 035a 0028     		cmp	r0, #0
 1826 035c 40F0BC81 		bne	.L185
 1827              	.LVL168:
 1828              	.L114:
 720:lvgl/src/draw/sw/lv_draw_sw_rect.c **** 
 1829              		.loc 1 720 5 is_stmt 1 view .LVU682
 720:lvgl/src/draw/sw/lv_draw_sw_rect.c **** 
 1830              		.loc 1 720 24 is_stmt 0 view .LVU683
 1831 0360 95F83630 		ldrb	r3, [r5, #54]	@ zero_extendqisi2
 720:lvgl/src/draw/sw/lv_draw_sw_rect.c **** 
 1832              		.loc 1 720 19 view .LVU684
 1833 0364 8DF84C30 		strb	r3, [sp, #76]
 723:lvgl/src/draw/sw/lv_draw_sw_rect.c ****     blend_area.x2 = shadow_area.x2;
 1834              		.loc 1 723 5 is_stmt 1 view .LVU685
 723:lvgl/src/draw/sw/lv_draw_sw_rect.c ****     blend_area.x2 = shadow_area.x2;
 1835              		.loc 1 723 32 is_stmt 0 view .LVU686
 1836 0368 BDF98C30 		ldrsh	r3, [sp, #140]
 1837 036c 9AB2     		uxth	r2, r3
 723:lvgl/src/draw/sw/lv_draw_sw_rect.c ****     blend_area.x2 = shadow_area.x2;
 1838              		.loc 1 723 36 view .LVU687
 1839 036e D21B     		subs	r2, r2, r7
 1840 0370 92B2     		uxth	r2, r2
 723:lvgl/src/draw/sw/lv_draw_sw_rect.c ****     blend_area.x2 = shadow_area.x2;
 1841              		.loc 1 723 50 view .LVU688
 1842 0372 0132     		adds	r2, r2, #1
 1843 0374 12B2     		sxth	r2, r2
 723:lvgl/src/draw/sw/lv_draw_sw_rect.c ****     blend_area.x2 = shadow_area.x2;
 1844              		.loc 1 723 19 view .LVU689
 1845 0376 ADF85820 		strh	r2, [sp, #88]	@ movhi
 724:lvgl/src/draw/sw/lv_draw_sw_rect.c ****     blend_area.y1 = shadow_area.y1 + corner_size;
 1846              		.loc 1 724 5 is_stmt 1 view .LVU690
 724:lvgl/src/draw/sw/lv_draw_sw_rect.c ****     blend_area.y1 = shadow_area.y1 + corner_size;
 1847              		.loc 1 724 19 is_stmt 0 view .LVU691
 1848 037a ADF85C30 		strh	r3, [sp, #92]	@ movhi
 725:lvgl/src/draw/sw/lv_draw_sw_rect.c ****     blend_area.y2 = shadow_area.y2 - corner_size;
 1849              		.loc 1 725 5 is_stmt 1 view .LVU692
 725:lvgl/src/draw/sw/lv_draw_sw_rect.c ****     blend_area.y2 = shadow_area.y2 - corner_size;
 1850              		.loc 1 725 32 is_stmt 0 view .LVU693
 1851 037e BDF88A30 		ldrh	r3, [sp, #138]
 725:lvgl/src/draw/sw/lv_draw_sw_rect.c ****     blend_area.y2 = shadow_area.y2 - corner_size;
 1852              		.loc 1 725 36 view .LVU694
 1853 0382 3B44     		add	r3, r3, r7
 1854 0384 1BB2     		sxth	r3, r3
 725:lvgl/src/draw/sw/lv_draw_sw_rect.c ****     blend_area.y2 = shadow_area.y2 - corner_size;
 1855              		.loc 1 725 19 view .LVU695
 1856 0386 ADF85A30 		strh	r3, [sp, #90]	@ movhi
 726:lvgl/src/draw/sw/lv_draw_sw_rect.c ****     /*Do not overdraw the other corners*/
 1857              		.loc 1 726 5 is_stmt 1 view .LVU696
 726:lvgl/src/draw/sw/lv_draw_sw_rect.c ****     /*Do not overdraw the other corners*/
 1858              		.loc 1 726 32 is_stmt 0 view .LVU697
 1859 038a BDF88E10 		ldrh	r1, [sp, #142]
 726:lvgl/src/draw/sw/lv_draw_sw_rect.c ****     /*Do not overdraw the other corners*/
 1860              		.loc 1 726 36 view .LVU698
ARM GAS  /var/folders/21/t9g5rlb91ys800n5npymflf80000gn/T//cca4dfU0.s 			page 71


 1861 038e C91B     		subs	r1, r1, r7
 1862 0390 09B2     		sxth	r1, r1
 726:lvgl/src/draw/sw/lv_draw_sw_rect.c ****     /*Do not overdraw the other corners*/
 1863              		.loc 1 726 19 view .LVU699
 1864 0392 ADF85E10 		strh	r1, [sp, #94]	@ movhi
 728:lvgl/src/draw/sw/lv_draw_sw_rect.c ****     blend_area.y2 = LV_MAX(blend_area.y2, h_half);
 1865              		.loc 1 728 5 is_stmt 1 view .LVU700
 728:lvgl/src/draw/sw/lv_draw_sw_rect.c ****     blend_area.y2 = LV_MAX(blend_area.y2, h_half);
 1866              		.loc 1 728 19 is_stmt 0 view .LVU701
 1867 0396 4345     		cmp	r3, r8
 1868 0398 02DD     		ble	.L126
 728:lvgl/src/draw/sw/lv_draw_sw_rect.c ****     blend_area.y2 = LV_MAX(blend_area.y2, h_half);
 1869              		.loc 1 728 21 discriminator 2 view .LVU702
 1870 039a 069B     		ldr	r3, [sp, #24]
 1871 039c 0133     		adds	r3, r3, #1
 728:lvgl/src/draw/sw/lv_draw_sw_rect.c ****     blend_area.y2 = LV_MAX(blend_area.y2, h_half);
 1872              		.loc 1 728 19 discriminator 2 view .LVU703
 1873 039e 1BB2     		sxth	r3, r3
 1874              	.L126:
 728:lvgl/src/draw/sw/lv_draw_sw_rect.c ****     blend_area.y2 = LV_MAX(blend_area.y2, h_half);
 1875              		.loc 1 728 19 discriminator 4 view .LVU704
 1876 03a0 ADF85A30 		strh	r3, [sp, #90]	@ movhi
 729:lvgl/src/draw/sw/lv_draw_sw_rect.c ****     blend_area.x1 = LV_MAX(blend_area.x1, w_half);
 1877              		.loc 1 729 5 is_stmt 1 discriminator 4 view .LVU705
 729:lvgl/src/draw/sw/lv_draw_sw_rect.c ****     blend_area.x1 = LV_MAX(blend_area.x1, w_half);
 1878              		.loc 1 729 21 is_stmt 0 discriminator 4 view .LVU706
 1879 03a4 4145     		cmp	r1, r8
 1880 03a6 B8BF     		it	lt
 1881 03a8 4146     		movlt	r1, r8
 729:lvgl/src/draw/sw/lv_draw_sw_rect.c ****     blend_area.x1 = LV_MAX(blend_area.x1, w_half);
 1882              		.loc 1 729 19 discriminator 4 view .LVU707
 1883 03aa ADF85E10 		strh	r1, [sp, #94]	@ movhi
 730:lvgl/src/draw/sw/lv_draw_sw_rect.c **** 
 1884              		.loc 1 730 5 is_stmt 1 discriminator 4 view .LVU708
 730:lvgl/src/draw/sw/lv_draw_sw_rect.c **** 
 1885              		.loc 1 730 21 is_stmt 0 discriminator 4 view .LVU709
 1886 03ae 029B     		ldr	r3, [sp, #8]
 1887 03b0 9A42     		cmp	r2, r3
 1888 03b2 B8BF     		it	lt
 1889 03b4 1A46     		movlt	r2, r3
 730:lvgl/src/draw/sw/lv_draw_sw_rect.c **** 
 1890              		.loc 1 730 19 discriminator 4 view .LVU710
 1891 03b6 ADF85820 		strh	r2, [sp, #88]	@ movhi
 732:lvgl/src/draw/sw/lv_draw_sw_rect.c ****        !_lv_area_is_in(&clip_area_sub, &bg_area, r_bg)) {
 1892              		.loc 1 732 5 is_stmt 1 discriminator 4 view .LVU711
 732:lvgl/src/draw/sw/lv_draw_sw_rect.c ****        !_lv_area_is_in(&clip_area_sub, &bg_area, r_bg)) {
 1893              		.loc 1 732 8 is_stmt 0 discriminator 4 view .LVU712
 1894 03ba B268     		ldr	r2, [r6, #8]
 1895 03bc 16A9     		add	r1, sp, #88
 1896 03be 14A8     		add	r0, sp, #80
 1897 03c0 FFF7FEFF 		bl	_lv_area_intersect
 1898              	.LVL169:
 732:lvgl/src/draw/sw/lv_draw_sw_rect.c ****        !_lv_area_is_in(&clip_area_sub, &bg_area, r_bg)) {
 1899              		.loc 1 732 7 discriminator 4 view .LVU713
 1900 03c4 0028     		cmp	r0, #0
 1901 03c6 40F00D82 		bne	.L186
 1902              	.L127:
ARM GAS  /var/folders/21/t9g5rlb91ys800n5npymflf80000gn/T//cca4dfU0.s 			page 72


 1903              	.LBB148:
 768:lvgl/src/draw/sw/lv_draw_sw_rect.c ****             lv_opa_t tmp = *start;
 1904              		.loc 1 768 15 discriminator 1 view .LVU714
 1905 03ca DDF80CC0 		ldr	ip, [sp, #12]
 1906 03ce 0025     		movs	r5, #0
 1907 03d0 88E2     		b	.L134
 1908              	.LVL170:
 1909              	.L160:
 768:lvgl/src/draw/sw/lv_draw_sw_rect.c ****             lv_opa_t tmp = *start;
 1910              		.loc 1 768 15 discriminator 1 view .LVU715
 1911              	.LBE148:
 512:lvgl/src/draw/sw/lv_draw_sw_rect.c ****     if(!simple) {
 1912              		.loc 1 512 13 view .LVU716
 1913 03d2 4FF0FF33 		mov	r3, #-1
 1914 03d6 0793     		str	r3, [sp, #28]
 1915 03d8 E6E6     		b	.L90
 1916              	.LVL171:
 1917              	.L182:
 548:lvgl/src/draw/sw/lv_draw_sw_rect.c ****         lv_coord_t w = lv_area_get_width(&clip_area_sub);
 1918              		.loc 1 548 9 discriminator 1 view .LVU717
 1919 03da BDF904A0 		ldrsh	r10, [sp, #4]
 1920 03de 5246     		mov	r2, r10
 1921 03e0 1EA9     		add	r1, sp, #120
 1922 03e2 14A8     		add	r0, sp, #80
 1923 03e4 FFF7FEFF 		bl	_lv_area_is_in
 1924              	.LVL172:
 547:lvgl/src/draw/sw/lv_draw_sw_rect.c ****        !_lv_area_is_in(&clip_area_sub, &bg_area, r_bg)) {
 1925              		.loc 1 547 77 discriminator 1 view .LVU718
 1926 03e8 0028     		cmp	r0, #0
 1927 03ea 7FF444AF 		bne	.L91
 1928              	.LBB150:
 549:lvgl/src/draw/sw/lv_draw_sw_rect.c ****         sh_buf_tmp = sh_buf;
 1929              		.loc 1 549 9 is_stmt 1 view .LVU719
 1930              	.LVL173:
 1931              	.LBB151:
 1932              	.LBI151:
 123:lvgl/src/draw/sw/../../misc/lv_area.h **** {
 1933              		.loc 2 123 26 view .LVU720
 1934              	.LBB152:
 125:lvgl/src/draw/sw/../../misc/lv_area.h **** }
 1935              		.loc 2 125 5 view .LVU721
 125:lvgl/src/draw/sw/../../misc/lv_area.h **** }
 1936              		.loc 2 125 31 is_stmt 0 view .LVU722
 1937 03ee BDF85430 		ldrh	r3, [sp, #84]
 125:lvgl/src/draw/sw/../../misc/lv_area.h **** }
 1938              		.loc 2 125 44 view .LVU723
 1939 03f2 BDF95020 		ldrsh	r2, [sp, #80]
 1940 03f6 91B2     		uxth	r1, r2
 125:lvgl/src/draw/sw/../../misc/lv_area.h **** }
 1941              		.loc 2 125 36 view .LVU724
 1942 03f8 5B1A     		subs	r3, r3, r1
 1943 03fa 9BB2     		uxth	r3, r3
 125:lvgl/src/draw/sw/../../misc/lv_area.h **** }
 1944              		.loc 2 125 49 view .LVU725
 1945 03fc 0133     		adds	r3, r3, #1
 125:lvgl/src/draw/sw/../../misc/lv_area.h **** }
 1946              		.loc 2 125 12 view .LVU726
ARM GAS  /var/folders/21/t9g5rlb91ys800n5npymflf80000gn/T//cca4dfU0.s 			page 73


 1947 03fe 1BB2     		sxth	r3, r3
 1948 0400 0593     		str	r3, [sp, #20]
 1949              	.LVL174:
 125:lvgl/src/draw/sw/../../misc/lv_area.h **** }
 1950              		.loc 2 125 12 view .LVU727
 1951              	.LBE152:
 1952              	.LBE151:
 550:lvgl/src/draw/sw/lv_draw_sw_rect.c ****         sh_buf_tmp += (clip_area_sub.y1 - shadow_area.y1) * corner_size;
 1953              		.loc 1 550 9 is_stmt 1 view .LVU728
 551:lvgl/src/draw/sw/lv_draw_sw_rect.c ****         sh_buf_tmp += clip_area_sub.x1 - (shadow_area.x2 - corner_size + 1);
 1954              		.loc 1 551 9 view .LVU729
 551:lvgl/src/draw/sw/lv_draw_sw_rect.c ****         sh_buf_tmp += clip_area_sub.x1 - (shadow_area.x2 - corner_size + 1);
 1955              		.loc 1 551 37 is_stmt 0 view .LVU730
 1956 0402 BDF95210 		ldrsh	r1, [sp, #82]
 551:lvgl/src/draw/sw/lv_draw_sw_rect.c ****         sh_buf_tmp += clip_area_sub.x1 - (shadow_area.x2 - corner_size + 1);
 1957              		.loc 1 551 54 view .LVU731
 1958 0406 BDF98A30 		ldrsh	r3, [sp, #138]
 551:lvgl/src/draw/sw/lv_draw_sw_rect.c ****         sh_buf_tmp += clip_area_sub.x1 - (shadow_area.x2 - corner_size + 1);
 1959              		.loc 1 551 41 view .LVU732
 1960 040a C91A     		subs	r1, r1, r3
 1961              	.LVL175:
 552:lvgl/src/draw/sw/lv_draw_sw_rect.c **** 
 1962              		.loc 1 552 9 is_stmt 1 view .LVU733
 552:lvgl/src/draw/sw/lv_draw_sw_rect.c **** 
 1963              		.loc 1 552 54 is_stmt 0 view .LVU734
 1964 040c BDF98C30 		ldrsh	r3, [sp, #140]
 552:lvgl/src/draw/sw/lv_draw_sw_rect.c **** 
 1965              		.loc 1 552 58 view .LVU735
 1966 0410 1B1B     		subs	r3, r3, r4
 552:lvgl/src/draw/sw/lv_draw_sw_rect.c **** 
 1967              		.loc 1 552 72 view .LVU736
 1968 0412 0133     		adds	r3, r3, #1
 552:lvgl/src/draw/sw/lv_draw_sw_rect.c **** 
 1969              		.loc 1 552 40 view .LVU737
 1970 0414 A2EB030B 		sub	fp, r2, r3
 552:lvgl/src/draw/sw/lv_draw_sw_rect.c **** 
 1971              		.loc 1 552 20 view .LVU738
 1972 0418 04FB01BB 		mla	fp, r4, r1, fp
 1973 041c 039B     		ldr	r3, [sp, #12]
 1974 041e 9B44     		add	fp, fp, r3
 1975              	.LVL176:
 555:lvgl/src/draw/sw/lv_draw_sw_rect.c ****         else simple_sub = simple;
 1976              		.loc 1 555 9 is_stmt 1 view .LVU739
 555:lvgl/src/draw/sw/lv_draw_sw_rect.c ****         else simple_sub = simple;
 1977              		.loc 1 555 11 is_stmt 0 view .LVU740
 1978 0420 009B     		ldr	r3, [sp]
 1979 0422 EBB9     		cbnz	r3, .L187
 1980 0424 009B     		ldr	r3, [sp]
 1981 0426 1946     		mov	r1, r3
 1982              	.L92:
 1983              	.LVL177:
 557:lvgl/src/draw/sw/lv_draw_sw_rect.c ****             blend_dsc.mask_buf = mask_buf;
 1984              		.loc 1 557 9 is_stmt 1 view .LVU741
 557:lvgl/src/draw/sw/lv_draw_sw_rect.c ****             blend_dsc.mask_buf = mask_buf;
 1985              		.loc 1 557 11 is_stmt 0 view .LVU742
 1986 0428 059B     		ldr	r3, [sp, #20]
 1987 042a 002B     		cmp	r3, #0
ARM GAS  /var/folders/21/t9g5rlb91ys800n5npymflf80000gn/T//cca4dfU0.s 			page 74


 1988 042c 7FF723AF 		ble	.L91
 558:lvgl/src/draw/sw/lv_draw_sw_rect.c ****             blend_area.x1 = clip_area_sub.x1;
 1989              		.loc 1 558 13 is_stmt 1 view .LVU743
 558:lvgl/src/draw/sw/lv_draw_sw_rect.c ****             blend_area.x1 = clip_area_sub.x1;
 1990              		.loc 1 558 32 is_stmt 0 view .LVU744
 1991 0430 049A     		ldr	r2, [sp, #16]
 1992 0432 1092     		str	r2, [sp, #64]
 559:lvgl/src/draw/sw/lv_draw_sw_rect.c ****             blend_area.x2 = clip_area_sub.x2;
 1993              		.loc 1 559 13 is_stmt 1 view .LVU745
 559:lvgl/src/draw/sw/lv_draw_sw_rect.c ****             blend_area.x2 = clip_area_sub.x2;
 1994              		.loc 1 559 42 is_stmt 0 view .LVU746
 1995 0434 BDF95030 		ldrsh	r3, [sp, #80]
 559:lvgl/src/draw/sw/lv_draw_sw_rect.c ****             blend_area.x2 = clip_area_sub.x2;
 1996              		.loc 1 559 27 view .LVU747
 1997 0438 ADF85830 		strh	r3, [sp, #88]	@ movhi
 560:lvgl/src/draw/sw/lv_draw_sw_rect.c ****             blend_dsc.mask_res = LV_DRAW_MASK_RES_CHANGED;    /*In simple mode it won't be overwrit
 1998              		.loc 1 560 13 is_stmt 1 view .LVU748
 560:lvgl/src/draw/sw/lv_draw_sw_rect.c ****             blend_dsc.mask_res = LV_DRAW_MASK_RES_CHANGED;    /*In simple mode it won't be overwrit
 1999              		.loc 1 560 42 is_stmt 0 view .LVU749
 2000 043c BDF95430 		ldrsh	r3, [sp, #84]
 560:lvgl/src/draw/sw/lv_draw_sw_rect.c ****             blend_dsc.mask_res = LV_DRAW_MASK_RES_CHANGED;    /*In simple mode it won't be overwrit
 2001              		.loc 1 560 27 view .LVU750
 2002 0440 ADF85C30 		strh	r3, [sp, #92]	@ movhi
 561:lvgl/src/draw/sw/lv_draw_sw_rect.c ****             for(y = clip_area_sub.y1; y <= clip_area_sub.y2; y++) {
 2003              		.loc 1 561 13 is_stmt 1 view .LVU751
 561:lvgl/src/draw/sw/lv_draw_sw_rect.c ****             for(y = clip_area_sub.y1; y <= clip_area_sub.y2; y++) {
 2004              		.loc 1 561 32 is_stmt 0 view .LVU752
 2005 0444 0223     		movs	r3, #2
 2006 0446 8DF84430 		strb	r3, [sp, #68]
 562:lvgl/src/draw/sw/lv_draw_sw_rect.c ****                 blend_area.y1 = y;
 2007              		.loc 1 562 13 is_stmt 1 view .LVU753
 562:lvgl/src/draw/sw/lv_draw_sw_rect.c ****                 blend_area.y1 = y;
 2008              		.loc 1 562 19 is_stmt 0 view .LVU754
 2009 044a BDF952A0 		ldrsh	r10, [sp, #82]
 2010              	.LVL178:
 562:lvgl/src/draw/sw/lv_draw_sw_rect.c ****                 blend_area.y1 = y;
 2011              		.loc 1 562 19 view .LVU755
 2012 044e CDF82090 		str	r9, [sp, #32]
 2013 0452 0997     		str	r7, [sp, #36]
 2014 0454 A146     		mov	r9, r4
 2015              	.LVL179:
 562:lvgl/src/draw/sw/lv_draw_sw_rect.c ****                 blend_area.y1 = y;
 2016              		.loc 1 562 19 view .LVU756
 2017 0456 5C46     		mov	r4, fp
 2018              	.LVL180:
 562:lvgl/src/draw/sw/lv_draw_sw_rect.c ****                 blend_area.y1 = y;
 2019              		.loc 1 562 19 view .LVU757
 2020 0458 1746     		mov	r7, r2
 2021 045a AB46     		mov	fp, r5
 2022              	.LVL181:
 562:lvgl/src/draw/sw/lv_draw_sw_rect.c ****                 blend_area.y1 = y;
 2023              		.loc 1 562 19 view .LVU758
 2024 045c 0D46     		mov	r5, r1
 2025              	.LVL182:
 562:lvgl/src/draw/sw/lv_draw_sw_rect.c ****                 blend_area.y1 = y;
 2026              		.loc 1 562 13 view .LVU759
 2027 045e 23E0     		b	.L93
ARM GAS  /var/folders/21/t9g5rlb91ys800n5npymflf80000gn/T//cca4dfU0.s 			page 75


 2028              	.LVL183:
 2029              	.L187:
 555:lvgl/src/draw/sw/lv_draw_sw_rect.c ****         else simple_sub = simple;
 2030              		.loc 1 555 22 discriminator 1 view .LVU760
 2031 0460 5246     		mov	r2, r10
 2032 0462 1EA9     		add	r1, sp, #120
 2033 0464 14A8     		add	r0, sp, #80
 2034 0466 FFF7FEFF 		bl	_lv_area_is_out
 2035              	.LVL184:
 555:lvgl/src/draw/sw/lv_draw_sw_rect.c ****         else simple_sub = simple;
 2036              		.loc 1 555 19 discriminator 1 view .LVU761
 2037 046a 0146     		mov	r1, r0
 2038 046c 0028     		cmp	r0, #0
 2039 046e DBD1     		bne	.L92
 2040 0470 009B     		ldr	r3, [sp]
 2041 0472 1946     		mov	r1, r3
 2042 0474 D8E7     		b	.L92
 2043              	.LVL185:
 2044              	.L190:
 567:lvgl/src/draw/sw/lv_draw_sw_rect.c ****                     blend_dsc.mask_res = lv_draw_mask_apply(mask_buf, clip_area_sub.x1, y, w);
 2045              		.loc 1 567 21 is_stmt 1 view .LVU762
 2046 0476 4A46     		mov	r2, r9
 2047 0478 2146     		mov	r1, r4
 2048 047a 3846     		mov	r0, r7
 2049 047c FFF7FEFF 		bl	lv_memcpy
 2050              	.LVL186:
 568:lvgl/src/draw/sw/lv_draw_sw_rect.c ****                     if(blend_dsc.mask_res == LV_DRAW_MASK_RES_FULL_COVER) blend_dsc.mask_res = LV_D
 2051              		.loc 1 568 21 view .LVU763
 568:lvgl/src/draw/sw/lv_draw_sw_rect.c ****                     if(blend_dsc.mask_res == LV_DRAW_MASK_RES_FULL_COVER) blend_dsc.mask_res = LV_D
 2052              		.loc 1 568 42 is_stmt 0 view .LVU764
 2053 0480 059B     		ldr	r3, [sp, #20]
 2054 0482 5246     		mov	r2, r10
 2055 0484 BDF95010 		ldrsh	r1, [sp, #80]
 2056 0488 3846     		mov	r0, r7
 2057 048a FFF7FEFF 		bl	lv_draw_mask_apply
 2058              	.LVL187:
 568:lvgl/src/draw/sw/lv_draw_sw_rect.c ****                     if(blend_dsc.mask_res == LV_DRAW_MASK_RES_FULL_COVER) blend_dsc.mask_res = LV_D
 2059              		.loc 1 568 40 view .LVU765
 2060 048e 8DF84400 		strb	r0, [sp, #68]
 569:lvgl/src/draw/sw/lv_draw_sw_rect.c ****                 }
 2061              		.loc 1 569 21 is_stmt 1 view .LVU766
 569:lvgl/src/draw/sw/lv_draw_sw_rect.c ****                 }
 2062              		.loc 1 569 23 is_stmt 0 view .LVU767
 2063 0492 0128     		cmp	r0, #1
 2064 0494 14D0     		beq	.L188
 2065              	.L95:
 574:lvgl/src/draw/sw/lv_draw_sw_rect.c ****                 sh_buf_tmp += corner_size;
 2066              		.loc 1 574 17 is_stmt 1 discriminator 2 view .LVU768
 2067 0496 0DA9     		add	r1, sp, #52
 2068 0498 3046     		mov	r0, r6
 2069 049a FFF7FEFF 		bl	lv_draw_sw_blend
 2070              	.LVL188:
 575:lvgl/src/draw/sw/lv_draw_sw_rect.c ****             }
 2071              		.loc 1 575 17 discriminator 2 view .LVU769
 575:lvgl/src/draw/sw/lv_draw_sw_rect.c ****             }
 2072              		.loc 1 575 28 is_stmt 0 discriminator 2 view .LVU770
 2073 049e 4C44     		add	r4, r4, r9
ARM GAS  /var/folders/21/t9g5rlb91ys800n5npymflf80000gn/T//cca4dfU0.s 			page 76


 2074              	.LVL189:
 562:lvgl/src/draw/sw/lv_draw_sw_rect.c ****                 blend_area.y1 = y;
 2075              		.loc 1 562 63 is_stmt 1 discriminator 2 view .LVU771
 2076 04a0 0AF1010A 		add	r10, r10, #1
 2077              	.LVL190:
 562:lvgl/src/draw/sw/lv_draw_sw_rect.c ****                 blend_area.y1 = y;
 2078              		.loc 1 562 63 is_stmt 0 discriminator 2 view .LVU772
 2079 04a4 0FFA8AFA 		sxth	r10, r10
 2080              	.LVL191:
 2081              	.L93:
 562:lvgl/src/draw/sw/lv_draw_sw_rect.c ****                 blend_area.y1 = y;
 2082              		.loc 1 562 41 is_stmt 1 discriminator 1 view .LVU773
 562:lvgl/src/draw/sw/lv_draw_sw_rect.c ****                 blend_area.y1 = y;
 2083              		.loc 1 562 57 is_stmt 0 discriminator 1 view .LVU774
 2084 04a8 BDF95630 		ldrsh	r3, [sp, #86]
 562:lvgl/src/draw/sw/lv_draw_sw_rect.c ****                 blend_area.y1 = y;
 2085              		.loc 1 562 41 discriminator 1 view .LVU775
 2086 04ac 5345     		cmp	r3, r10
 2087 04ae 0BDB     		blt	.L189
 563:lvgl/src/draw/sw/lv_draw_sw_rect.c ****                 blend_area.y2 = y;
 2088              		.loc 1 563 17 is_stmt 1 view .LVU776
 563:lvgl/src/draw/sw/lv_draw_sw_rect.c ****                 blend_area.y2 = y;
 2089              		.loc 1 563 31 is_stmt 0 view .LVU777
 2090 04b0 ADF85AA0 		strh	r10, [sp, #90]	@ movhi
 564:lvgl/src/draw/sw/lv_draw_sw_rect.c **** 
 2091              		.loc 1 564 17 is_stmt 1 view .LVU778
 564:lvgl/src/draw/sw/lv_draw_sw_rect.c **** 
 2092              		.loc 1 564 31 is_stmt 0 view .LVU779
 2093 04b4 ADF85EA0 		strh	r10, [sp, #94]	@ movhi
 566:lvgl/src/draw/sw/lv_draw_sw_rect.c ****                     lv_memcpy(mask_buf, sh_buf_tmp, corner_size);
 2094              		.loc 1 566 17 is_stmt 1 view .LVU780
 566:lvgl/src/draw/sw/lv_draw_sw_rect.c ****                     lv_memcpy(mask_buf, sh_buf_tmp, corner_size);
 2095              		.loc 1 566 19 is_stmt 0 view .LVU781
 2096 04b8 002D     		cmp	r5, #0
 2097 04ba DCD0     		beq	.L190
 572:lvgl/src/draw/sw/lv_draw_sw_rect.c ****                 }
 2098              		.loc 1 572 21 is_stmt 1 view .LVU782
 572:lvgl/src/draw/sw/lv_draw_sw_rect.c ****                 }
 2099              		.loc 1 572 40 is_stmt 0 view .LVU783
 2100 04bc 1094     		str	r4, [sp, #64]
 2101 04be EAE7     		b	.L95
 2102              	.L188:
 569:lvgl/src/draw/sw/lv_draw_sw_rect.c ****                 }
 2103              		.loc 1 569 75 is_stmt 1 discriminator 1 view .LVU784
 569:lvgl/src/draw/sw/lv_draw_sw_rect.c ****                 }
 2104              		.loc 1 569 94 is_stmt 0 discriminator 1 view .LVU785
 2105 04c0 0223     		movs	r3, #2
 2106 04c2 8DF84430 		strb	r3, [sp, #68]
 2107 04c6 E6E7     		b	.L95
 2108              	.L189:
 569:lvgl/src/draw/sw/lv_draw_sw_rect.c ****                 }
 2109              		.loc 1 569 94 discriminator 1 view .LVU786
 2110 04c8 099F     		ldr	r7, [sp, #36]
 2111 04ca 4C46     		mov	r4, r9
 2112              	.LVL192:
 569:lvgl/src/draw/sw/lv_draw_sw_rect.c ****                 }
 2113              		.loc 1 569 94 discriminator 1 view .LVU787
ARM GAS  /var/folders/21/t9g5rlb91ys800n5npymflf80000gn/T//cca4dfU0.s 			page 77


 2114 04cc DDF82090 		ldr	r9, [sp, #32]
 2115              	.LVL193:
 569:lvgl/src/draw/sw/lv_draw_sw_rect.c ****                 }
 2116              		.loc 1 569 94 discriminator 1 view .LVU788
 2117 04d0 5D46     		mov	r5, fp
 2118 04d2 D0E6     		b	.L91
 2119              	.LVL194:
 2120              	.L183:
 569:lvgl/src/draw/sw/lv_draw_sw_rect.c ****                 }
 2121              		.loc 1 569 94 discriminator 1 view .LVU789
 2122              	.LBE150:
 591:lvgl/src/draw/sw/lv_draw_sw_rect.c ****         lv_coord_t w = lv_area_get_width(&clip_area_sub);
 2123              		.loc 1 591 9 discriminator 1 view .LVU790
 2124 04d4 BDF904A0 		ldrsh	r10, [sp, #4]
 2125 04d8 5246     		mov	r2, r10
 2126 04da 1EA9     		add	r1, sp, #120
 2127 04dc 14A8     		add	r0, sp, #80
 2128 04de FFF7FEFF 		bl	_lv_area_is_in
 2129              	.LVL195:
 590:lvgl/src/draw/sw/lv_draw_sw_rect.c ****        !_lv_area_is_in(&clip_area_sub, &bg_area, r_bg)) {
 2130              		.loc 1 590 77 discriminator 1 view .LVU791
 2131 04e2 0028     		cmp	r0, #0
 2132 04e4 7FF4F3AE 		bne	.L97
 2133              	.LBB153:
 592:lvgl/src/draw/sw/lv_draw_sw_rect.c ****         sh_buf_tmp = sh_buf;
 2134              		.loc 1 592 9 is_stmt 1 view .LVU792
 2135              	.LVL196:
 2136              	.LBB154:
 2137              	.LBI154:
 123:lvgl/src/draw/sw/../../misc/lv_area.h **** {
 2138              		.loc 2 123 26 view .LVU793
 2139              	.LBB155:
 125:lvgl/src/draw/sw/../../misc/lv_area.h **** }
 2140              		.loc 2 125 5 view .LVU794
 125:lvgl/src/draw/sw/../../misc/lv_area.h **** }
 2141              		.loc 2 125 31 is_stmt 0 view .LVU795
 2142 04e8 BDF85430 		ldrh	r3, [sp, #84]
 125:lvgl/src/draw/sw/../../misc/lv_area.h **** }
 2143              		.loc 2 125 44 view .LVU796
 2144 04ec BDF95020 		ldrsh	r2, [sp, #80]
 2145 04f0 91B2     		uxth	r1, r2
 125:lvgl/src/draw/sw/../../misc/lv_area.h **** }
 2146              		.loc 2 125 36 view .LVU797
 2147 04f2 5B1A     		subs	r3, r3, r1
 2148 04f4 9BB2     		uxth	r3, r3
 125:lvgl/src/draw/sw/../../misc/lv_area.h **** }
 2149              		.loc 2 125 49 view .LVU798
 2150 04f6 0133     		adds	r3, r3, #1
 125:lvgl/src/draw/sw/../../misc/lv_area.h **** }
 2151              		.loc 2 125 12 view .LVU799
 2152 04f8 1BB2     		sxth	r3, r3
 2153 04fa 0893     		str	r3, [sp, #32]
 2154              	.LVL197:
 125:lvgl/src/draw/sw/../../misc/lv_area.h **** }
 2155              		.loc 2 125 12 view .LVU800
 2156              	.LBE155:
 2157              	.LBE154:
ARM GAS  /var/folders/21/t9g5rlb91ys800n5npymflf80000gn/T//cca4dfU0.s 			page 78


 593:lvgl/src/draw/sw/lv_draw_sw_rect.c ****         sh_buf_tmp += (blend_area.y2 - clip_area_sub.y2) * corner_size;
 2158              		.loc 1 593 9 is_stmt 1 view .LVU801
 594:lvgl/src/draw/sw/lv_draw_sw_rect.c ****         sh_buf_tmp += clip_area_sub.x1 - (shadow_area.x2 - corner_size + 1);
 2159              		.loc 1 594 9 view .LVU802
 594:lvgl/src/draw/sw/lv_draw_sw_rect.c ****         sh_buf_tmp += clip_area_sub.x1 - (shadow_area.x2 - corner_size + 1);
 2160              		.loc 1 594 34 is_stmt 0 view .LVU803
 2161 04fc BDF95E10 		ldrsh	r1, [sp, #94]
 594:lvgl/src/draw/sw/lv_draw_sw_rect.c ****         sh_buf_tmp += clip_area_sub.x1 - (shadow_area.x2 - corner_size + 1);
 2162              		.loc 1 594 53 view .LVU804
 2163 0500 BDF95630 		ldrsh	r3, [sp, #86]
 594:lvgl/src/draw/sw/lv_draw_sw_rect.c ****         sh_buf_tmp += clip_area_sub.x1 - (shadow_area.x2 - corner_size + 1);
 2164              		.loc 1 594 38 view .LVU805
 2165 0504 C91A     		subs	r1, r1, r3
 2166              	.LVL198:
 595:lvgl/src/draw/sw/lv_draw_sw_rect.c ****         /*Do not mask if out of the bg*/
 2167              		.loc 1 595 9 is_stmt 1 view .LVU806
 595:lvgl/src/draw/sw/lv_draw_sw_rect.c ****         /*Do not mask if out of the bg*/
 2168              		.loc 1 595 54 is_stmt 0 view .LVU807
 2169 0506 BDF98C30 		ldrsh	r3, [sp, #140]
 595:lvgl/src/draw/sw/lv_draw_sw_rect.c ****         /*Do not mask if out of the bg*/
 2170              		.loc 1 595 58 view .LVU808
 2171 050a 1B1B     		subs	r3, r3, r4
 595:lvgl/src/draw/sw/lv_draw_sw_rect.c ****         /*Do not mask if out of the bg*/
 2172              		.loc 1 595 72 view .LVU809
 2173 050c 0133     		adds	r3, r3, #1
 595:lvgl/src/draw/sw/lv_draw_sw_rect.c ****         /*Do not mask if out of the bg*/
 2174              		.loc 1 595 40 view .LVU810
 2175 050e A2EB030B 		sub	fp, r2, r3
 595:lvgl/src/draw/sw/lv_draw_sw_rect.c ****         /*Do not mask if out of the bg*/
 2176              		.loc 1 595 20 view .LVU811
 2177 0512 04FB01BB 		mla	fp, r4, r1, fp
 2178 0516 039B     		ldr	r3, [sp, #12]
 2179 0518 9B44     		add	fp, fp, r3
 2180              	.LVL199:
 597:lvgl/src/draw/sw/lv_draw_sw_rect.c ****         else simple_sub = simple;
 2181              		.loc 1 597 9 is_stmt 1 view .LVU812
 597:lvgl/src/draw/sw/lv_draw_sw_rect.c ****         else simple_sub = simple;
 2182              		.loc 1 597 11 is_stmt 0 view .LVU813
 2183 051a 009B     		ldr	r3, [sp]
 2184 051c EBB9     		cbnz	r3, .L191
 2185 051e 009B     		ldr	r3, [sp]
 2186 0520 1946     		mov	r1, r3
 2187              	.L98:
 2188              	.LVL200:
 600:lvgl/src/draw/sw/lv_draw_sw_rect.c ****             blend_dsc.mask_buf = mask_buf;
 2189              		.loc 1 600 9 is_stmt 1 view .LVU814
 600:lvgl/src/draw/sw/lv_draw_sw_rect.c ****             blend_dsc.mask_buf = mask_buf;
 2190              		.loc 1 600 11 is_stmt 0 view .LVU815
 2191 0522 089B     		ldr	r3, [sp, #32]
 2192 0524 002B     		cmp	r3, #0
 2193 0526 7FF7D2AE 		ble	.L97
 601:lvgl/src/draw/sw/lv_draw_sw_rect.c ****             blend_area.x1 = clip_area_sub.x1;
 2194              		.loc 1 601 13 is_stmt 1 view .LVU816
 601:lvgl/src/draw/sw/lv_draw_sw_rect.c ****             blend_area.x1 = clip_area_sub.x1;
 2195              		.loc 1 601 32 is_stmt 0 view .LVU817
 2196 052a 049A     		ldr	r2, [sp, #16]
 2197 052c 1092     		str	r2, [sp, #64]
ARM GAS  /var/folders/21/t9g5rlb91ys800n5npymflf80000gn/T//cca4dfU0.s 			page 79


 602:lvgl/src/draw/sw/lv_draw_sw_rect.c ****             blend_area.x2 = clip_area_sub.x2;
 2198              		.loc 1 602 13 is_stmt 1 view .LVU818
 602:lvgl/src/draw/sw/lv_draw_sw_rect.c ****             blend_area.x2 = clip_area_sub.x2;
 2199              		.loc 1 602 42 is_stmt 0 view .LVU819
 2200 052e BDF95030 		ldrsh	r3, [sp, #80]
 602:lvgl/src/draw/sw/lv_draw_sw_rect.c ****             blend_area.x2 = clip_area_sub.x2;
 2201              		.loc 1 602 27 view .LVU820
 2202 0532 ADF85830 		strh	r3, [sp, #88]	@ movhi
 603:lvgl/src/draw/sw/lv_draw_sw_rect.c ****             blend_dsc.mask_res = LV_DRAW_MASK_RES_CHANGED;    /*In simple mode it won't be overwrit
 2203              		.loc 1 603 13 is_stmt 1 view .LVU821
 603:lvgl/src/draw/sw/lv_draw_sw_rect.c ****             blend_dsc.mask_res = LV_DRAW_MASK_RES_CHANGED;    /*In simple mode it won't be overwrit
 2204              		.loc 1 603 42 is_stmt 0 view .LVU822
 2205 0536 BDF95430 		ldrsh	r3, [sp, #84]
 603:lvgl/src/draw/sw/lv_draw_sw_rect.c ****             blend_dsc.mask_res = LV_DRAW_MASK_RES_CHANGED;    /*In simple mode it won't be overwrit
 2206              		.loc 1 603 27 view .LVU823
 2207 053a ADF85C30 		strh	r3, [sp, #92]	@ movhi
 604:lvgl/src/draw/sw/lv_draw_sw_rect.c ****             for(y = clip_area_sub.y2; y >= clip_area_sub.y1; y--) {
 2208              		.loc 1 604 13 is_stmt 1 view .LVU824
 604:lvgl/src/draw/sw/lv_draw_sw_rect.c ****             for(y = clip_area_sub.y2; y >= clip_area_sub.y1; y--) {
 2209              		.loc 1 604 32 is_stmt 0 view .LVU825
 2210 053e 0223     		movs	r3, #2
 2211 0540 8DF84430 		strb	r3, [sp, #68]
 605:lvgl/src/draw/sw/lv_draw_sw_rect.c ****                 blend_area.y1 = y;
 2212              		.loc 1 605 13 is_stmt 1 view .LVU826
 605:lvgl/src/draw/sw/lv_draw_sw_rect.c ****                 blend_area.y1 = y;
 2213              		.loc 1 605 19 is_stmt 0 view .LVU827
 2214 0544 BDF956A0 		ldrsh	r10, [sp, #86]
 2215              	.LVL201:
 605:lvgl/src/draw/sw/lv_draw_sw_rect.c ****                 blend_area.y1 = y;
 2216              		.loc 1 605 19 view .LVU828
 2217 0548 CDF82490 		str	r9, [sp, #36]
 2218 054c 0A97     		str	r7, [sp, #40]
 2219 054e A146     		mov	r9, r4
 2220 0550 5C46     		mov	r4, fp
 2221              	.LVL202:
 605:lvgl/src/draw/sw/lv_draw_sw_rect.c ****                 blend_area.y1 = y;
 2222              		.loc 1 605 19 view .LVU829
 2223 0552 1746     		mov	r7, r2
 2224 0554 AB46     		mov	fp, r5
 2225              	.LVL203:
 605:lvgl/src/draw/sw/lv_draw_sw_rect.c ****                 blend_area.y1 = y;
 2226              		.loc 1 605 19 view .LVU830
 2227 0556 0D46     		mov	r5, r1
 2228              	.LVL204:
 605:lvgl/src/draw/sw/lv_draw_sw_rect.c ****                 blend_area.y1 = y;
 2229              		.loc 1 605 13 view .LVU831
 2230 0558 23E0     		b	.L99
 2231              	.LVL205:
 2232              	.L191:
 597:lvgl/src/draw/sw/lv_draw_sw_rect.c ****         else simple_sub = simple;
 2233              		.loc 1 597 22 discriminator 1 view .LVU832
 2234 055a 5246     		mov	r2, r10
 2235 055c 1EA9     		add	r1, sp, #120
 2236 055e 14A8     		add	r0, sp, #80
 2237 0560 FFF7FEFF 		bl	_lv_area_is_out
 2238              	.LVL206:
 597:lvgl/src/draw/sw/lv_draw_sw_rect.c ****         else simple_sub = simple;
ARM GAS  /var/folders/21/t9g5rlb91ys800n5npymflf80000gn/T//cca4dfU0.s 			page 80


 2239              		.loc 1 597 19 discriminator 1 view .LVU833
 2240 0564 0146     		mov	r1, r0
 2241 0566 0028     		cmp	r0, #0
 2242 0568 DBD1     		bne	.L98
 2243 056a 009B     		ldr	r3, [sp]
 2244 056c 1946     		mov	r1, r3
 2245 056e D8E7     		b	.L98
 2246              	.LVL207:
 2247              	.L194:
 610:lvgl/src/draw/sw/lv_draw_sw_rect.c ****                     blend_dsc.mask_res = lv_draw_mask_apply(mask_buf, clip_area_sub.x1, y, w);
 2248              		.loc 1 610 21 is_stmt 1 view .LVU834
 2249 0570 4A46     		mov	r2, r9
 2250 0572 2146     		mov	r1, r4
 2251 0574 3846     		mov	r0, r7
 2252 0576 FFF7FEFF 		bl	lv_memcpy
 2253              	.LVL208:
 611:lvgl/src/draw/sw/lv_draw_sw_rect.c ****                     if(blend_dsc.mask_res == LV_DRAW_MASK_RES_FULL_COVER) blend_dsc.mask_res = LV_D
 2254              		.loc 1 611 21 view .LVU835
 611:lvgl/src/draw/sw/lv_draw_sw_rect.c ****                     if(blend_dsc.mask_res == LV_DRAW_MASK_RES_FULL_COVER) blend_dsc.mask_res = LV_D
 2255              		.loc 1 611 42 is_stmt 0 view .LVU836
 2256 057a 089B     		ldr	r3, [sp, #32]
 2257 057c 5246     		mov	r2, r10
 2258 057e BDF95010 		ldrsh	r1, [sp, #80]
 2259 0582 3846     		mov	r0, r7
 2260 0584 FFF7FEFF 		bl	lv_draw_mask_apply
 2261              	.LVL209:
 611:lvgl/src/draw/sw/lv_draw_sw_rect.c ****                     if(blend_dsc.mask_res == LV_DRAW_MASK_RES_FULL_COVER) blend_dsc.mask_res = LV_D
 2262              		.loc 1 611 40 view .LVU837
 2263 0588 8DF84400 		strb	r0, [sp, #68]
 612:lvgl/src/draw/sw/lv_draw_sw_rect.c ****                 }
 2264              		.loc 1 612 21 is_stmt 1 view .LVU838
 612:lvgl/src/draw/sw/lv_draw_sw_rect.c ****                 }
 2265              		.loc 1 612 23 is_stmt 0 view .LVU839
 2266 058c 0128     		cmp	r0, #1
 2267 058e 14D0     		beq	.L192
 2268              	.L101:
 617:lvgl/src/draw/sw/lv_draw_sw_rect.c ****                 sh_buf_tmp += corner_size;
 2269              		.loc 1 617 17 is_stmt 1 discriminator 2 view .LVU840
 2270 0590 0DA9     		add	r1, sp, #52
 2271 0592 3046     		mov	r0, r6
 2272 0594 FFF7FEFF 		bl	lv_draw_sw_blend
 2273              	.LVL210:
 618:lvgl/src/draw/sw/lv_draw_sw_rect.c ****             }
 2274              		.loc 1 618 17 discriminator 2 view .LVU841
 618:lvgl/src/draw/sw/lv_draw_sw_rect.c ****             }
 2275              		.loc 1 618 28 is_stmt 0 discriminator 2 view .LVU842
 2276 0598 4C44     		add	r4, r4, r9
 2277              	.LVL211:
 605:lvgl/src/draw/sw/lv_draw_sw_rect.c ****                 blend_area.y1 = y;
 2278              		.loc 1 605 63 is_stmt 1 discriminator 2 view .LVU843
 2279 059a 0AF1FF3A 		add	r10, r10, #-1
 2280              	.LVL212:
 605:lvgl/src/draw/sw/lv_draw_sw_rect.c ****                 blend_area.y1 = y;
 2281              		.loc 1 605 63 is_stmt 0 discriminator 2 view .LVU844
 2282 059e 0FFA8AFA 		sxth	r10, r10
 2283              	.LVL213:
 2284              	.L99:
ARM GAS  /var/folders/21/t9g5rlb91ys800n5npymflf80000gn/T//cca4dfU0.s 			page 81


 605:lvgl/src/draw/sw/lv_draw_sw_rect.c ****                 blend_area.y1 = y;
 2285              		.loc 1 605 41 is_stmt 1 discriminator 1 view .LVU845
 605:lvgl/src/draw/sw/lv_draw_sw_rect.c ****                 blend_area.y1 = y;
 2286              		.loc 1 605 57 is_stmt 0 discriminator 1 view .LVU846
 2287 05a2 BDF95230 		ldrsh	r3, [sp, #82]
 605:lvgl/src/draw/sw/lv_draw_sw_rect.c ****                 blend_area.y1 = y;
 2288              		.loc 1 605 41 discriminator 1 view .LVU847
 2289 05a6 5345     		cmp	r3, r10
 2290 05a8 0BDC     		bgt	.L193
 606:lvgl/src/draw/sw/lv_draw_sw_rect.c ****                 blend_area.y2 = y;
 2291              		.loc 1 606 17 is_stmt 1 view .LVU848
 606:lvgl/src/draw/sw/lv_draw_sw_rect.c ****                 blend_area.y2 = y;
 2292              		.loc 1 606 31 is_stmt 0 view .LVU849
 2293 05aa ADF85AA0 		strh	r10, [sp, #90]	@ movhi
 607:lvgl/src/draw/sw/lv_draw_sw_rect.c **** 
 2294              		.loc 1 607 17 is_stmt 1 view .LVU850
 607:lvgl/src/draw/sw/lv_draw_sw_rect.c **** 
 2295              		.loc 1 607 31 is_stmt 0 view .LVU851
 2296 05ae ADF85EA0 		strh	r10, [sp, #94]	@ movhi
 609:lvgl/src/draw/sw/lv_draw_sw_rect.c ****                     lv_memcpy(mask_buf, sh_buf_tmp, corner_size);
 2297              		.loc 1 609 17 is_stmt 1 view .LVU852
 609:lvgl/src/draw/sw/lv_draw_sw_rect.c ****                     lv_memcpy(mask_buf, sh_buf_tmp, corner_size);
 2298              		.loc 1 609 19 is_stmt 0 view .LVU853
 2299 05b2 002D     		cmp	r5, #0
 2300 05b4 DCD0     		beq	.L194
 615:lvgl/src/draw/sw/lv_draw_sw_rect.c ****                 }
 2301              		.loc 1 615 21 is_stmt 1 view .LVU854
 615:lvgl/src/draw/sw/lv_draw_sw_rect.c ****                 }
 2302              		.loc 1 615 40 is_stmt 0 view .LVU855
 2303 05b6 1094     		str	r4, [sp, #64]
 2304 05b8 EAE7     		b	.L101
 2305              	.L192:
 612:lvgl/src/draw/sw/lv_draw_sw_rect.c ****                 }
 2306              		.loc 1 612 75 is_stmt 1 discriminator 1 view .LVU856
 612:lvgl/src/draw/sw/lv_draw_sw_rect.c ****                 }
 2307              		.loc 1 612 94 is_stmt 0 discriminator 1 view .LVU857
 2308 05ba 0223     		movs	r3, #2
 2309 05bc 8DF84430 		strb	r3, [sp, #68]
 2310 05c0 E6E7     		b	.L101
 2311              	.L193:
 612:lvgl/src/draw/sw/lv_draw_sw_rect.c ****                 }
 2312              		.loc 1 612 94 discriminator 1 view .LVU858
 2313 05c2 0A9F     		ldr	r7, [sp, #40]
 2314 05c4 4C46     		mov	r4, r9
 2315              	.LVL214:
 612:lvgl/src/draw/sw/lv_draw_sw_rect.c ****                 }
 2316              		.loc 1 612 94 discriminator 1 view .LVU859
 2317 05c6 DDF82490 		ldr	r9, [sp, #36]
 2318              	.LVL215:
 612:lvgl/src/draw/sw/lv_draw_sw_rect.c ****                 }
 2319              		.loc 1 612 94 discriminator 1 view .LVU860
 2320 05ca 5D46     		mov	r5, fp
 2321 05cc 7FE6     		b	.L97
 2322              	.LVL216:
 2323              	.L184:
 612:lvgl/src/draw/sw/lv_draw_sw_rect.c ****                 }
 2324              		.loc 1 612 94 discriminator 1 view .LVU861
ARM GAS  /var/folders/21/t9g5rlb91ys800n5npymflf80000gn/T//cca4dfU0.s 			page 82


 2325              	.LBE153:
 631:lvgl/src/draw/sw/lv_draw_sw_rect.c ****         lv_coord_t w = lv_area_get_width(&clip_area_sub);
 2326              		.loc 1 631 9 discriminator 1 view .LVU862
 2327 05ce BDF904A0 		ldrsh	r10, [sp, #4]
 2328 05d2 5246     		mov	r2, r10
 2329 05d4 1EA9     		add	r1, sp, #120
 2330 05d6 14A8     		add	r0, sp, #80
 2331 05d8 FFF7FEFF 		bl	_lv_area_is_in
 2332              	.LVL217:
 630:lvgl/src/draw/sw/lv_draw_sw_rect.c ****        !_lv_area_is_in(&clip_area_sub, &bg_area, r_bg)) {
 2333              		.loc 1 630 77 discriminator 1 view .LVU863
 2334 05dc 0028     		cmp	r0, #0
 2335 05de 7FF498AE 		bne	.L103
 2336              	.LBB156:
 632:lvgl/src/draw/sw/lv_draw_sw_rect.c ****         sh_buf_tmp = sh_buf;
 2337              		.loc 1 632 9 is_stmt 1 view .LVU864
 2338              	.LVL218:
 2339              	.LBB157:
 2340              	.LBI157:
 123:lvgl/src/draw/sw/../../misc/lv_area.h **** {
 2341              		.loc 2 123 26 view .LVU865
 2342              	.LBB158:
 125:lvgl/src/draw/sw/../../misc/lv_area.h **** }
 2343              		.loc 2 125 5 view .LVU866
 125:lvgl/src/draw/sw/../../misc/lv_area.h **** }
 2344              		.loc 2 125 31 is_stmt 0 view .LVU867
 2345 05e2 BDF85430 		ldrh	r3, [sp, #84]
 125:lvgl/src/draw/sw/../../misc/lv_area.h **** }
 2346              		.loc 2 125 44 view .LVU868
 2347 05e6 BDF85020 		ldrh	r2, [sp, #80]
 125:lvgl/src/draw/sw/../../misc/lv_area.h **** }
 2348              		.loc 2 125 36 view .LVU869
 2349 05ea 9B1A     		subs	r3, r3, r2
 2350 05ec 9BB2     		uxth	r3, r3
 125:lvgl/src/draw/sw/../../misc/lv_area.h **** }
 2351              		.loc 2 125 49 view .LVU870
 2352 05ee 0133     		adds	r3, r3, #1
 125:lvgl/src/draw/sw/../../misc/lv_area.h **** }
 2353              		.loc 2 125 12 view .LVU871
 2354 05f0 1BB2     		sxth	r3, r3
 2355 05f2 0893     		str	r3, [sp, #32]
 2356              	.LVL219:
 125:lvgl/src/draw/sw/../../misc/lv_area.h **** }
 2357              		.loc 2 125 12 view .LVU872
 2358              	.LBE158:
 2359              	.LBE157:
 633:lvgl/src/draw/sw/lv_draw_sw_rect.c ****         sh_buf_tmp += (clip_area_sub.y1 - blend_area.y1) * corner_size;
 2360              		.loc 1 633 9 is_stmt 1 view .LVU873
 634:lvgl/src/draw/sw/lv_draw_sw_rect.c **** 
 2361              		.loc 1 634 9 view .LVU874
 634:lvgl/src/draw/sw/lv_draw_sw_rect.c **** 
 2362              		.loc 1 634 37 is_stmt 0 view .LVU875
 2363 05f4 BDF95230 		ldrsh	r3, [sp, #82]
 634:lvgl/src/draw/sw/lv_draw_sw_rect.c **** 
 2364              		.loc 1 634 53 view .LVU876
 2365 05f8 BDF95A20 		ldrsh	r2, [sp, #90]
 634:lvgl/src/draw/sw/lv_draw_sw_rect.c **** 
ARM GAS  /var/folders/21/t9g5rlb91ys800n5npymflf80000gn/T//cca4dfU0.s 			page 83


 2366              		.loc 1 634 41 view .LVU877
 2367 05fc 9B1A     		subs	r3, r3, r2
 634:lvgl/src/draw/sw/lv_draw_sw_rect.c **** 
 2368              		.loc 1 634 20 view .LVU878
 2369 05fe 039A     		ldr	r2, [sp, #12]
 2370 0600 04FB032B 		mla	fp, r4, r3, r2
 2371              	.LVL220:
 637:lvgl/src/draw/sw/lv_draw_sw_rect.c ****         else simple_sub = simple;
 2372              		.loc 1 637 9 is_stmt 1 view .LVU879
 637:lvgl/src/draw/sw/lv_draw_sw_rect.c ****         else simple_sub = simple;
 2373              		.loc 1 637 11 is_stmt 0 view .LVU880
 2374 0604 009B     		ldr	r3, [sp]
 2375 0606 CBB9     		cbnz	r3, .L195
 2376 0608 009B     		ldr	r3, [sp]
 2377 060a 1A46     		mov	r2, r3
 2378              	.L104:
 2379              	.LVL221:
 640:lvgl/src/draw/sw/lv_draw_sw_rect.c ****             if(!simple_sub) {
 2380              		.loc 1 640 9 is_stmt 1 view .LVU881
 640:lvgl/src/draw/sw/lv_draw_sw_rect.c ****             if(!simple_sub) {
 2381              		.loc 1 640 11 is_stmt 0 view .LVU882
 2382 060c 089B     		ldr	r3, [sp, #32]
 2383 060e 002B     		cmp	r3, #0
 2384 0610 7FF77FAE 		ble	.L103
 641:lvgl/src/draw/sw/lv_draw_sw_rect.c ****                 blend_dsc.mask_buf = mask_buf;
 2385              		.loc 1 641 13 is_stmt 1 view .LVU883
 641:lvgl/src/draw/sw/lv_draw_sw_rect.c ****                 blend_dsc.mask_buf = mask_buf;
 2386              		.loc 1 641 15 is_stmt 0 view .LVU884
 2387 0614 EAB9     		cbnz	r2, .L105
 642:lvgl/src/draw/sw/lv_draw_sw_rect.c ****             }
 2388              		.loc 1 642 17 is_stmt 1 view .LVU885
 642:lvgl/src/draw/sw/lv_draw_sw_rect.c ****             }
 2389              		.loc 1 642 36 is_stmt 0 view .LVU886
 2390 0616 049B     		ldr	r3, [sp, #16]
 2391 0618 1093     		str	r3, [sp, #64]
 2392              	.L106:
 647:lvgl/src/draw/sw/lv_draw_sw_rect.c ****             blend_area.x2 = clip_area_sub.x2;
 2393              		.loc 1 647 13 is_stmt 1 view .LVU887
 647:lvgl/src/draw/sw/lv_draw_sw_rect.c ****             blend_area.x2 = clip_area_sub.x2;
 2394              		.loc 1 647 42 is_stmt 0 view .LVU888
 2395 061a BDF95030 		ldrsh	r3, [sp, #80]
 647:lvgl/src/draw/sw/lv_draw_sw_rect.c ****             blend_area.x2 = clip_area_sub.x2;
 2396              		.loc 1 647 27 view .LVU889
 2397 061e ADF85830 		strh	r3, [sp, #88]	@ movhi
 648:lvgl/src/draw/sw/lv_draw_sw_rect.c **** 
 2398              		.loc 1 648 13 is_stmt 1 view .LVU890
 648:lvgl/src/draw/sw/lv_draw_sw_rect.c **** 
 2399              		.loc 1 648 42 is_stmt 0 view .LVU891
 2400 0622 BDF95430 		ldrsh	r3, [sp, #84]
 648:lvgl/src/draw/sw/lv_draw_sw_rect.c **** 
 2401              		.loc 1 648 27 view .LVU892
 2402 0626 ADF85C30 		strh	r3, [sp, #92]	@ movhi
 650:lvgl/src/draw/sw/lv_draw_sw_rect.c ****                 blend_area.y1 = y;
 2403              		.loc 1 650 13 is_stmt 1 view .LVU893
 650:lvgl/src/draw/sw/lv_draw_sw_rect.c ****                 blend_area.y1 = y;
 2404              		.loc 1 650 19 is_stmt 0 view .LVU894
 2405 062a BDF952A0 		ldrsh	r10, [sp, #82]
ARM GAS  /var/folders/21/t9g5rlb91ys800n5npymflf80000gn/T//cca4dfU0.s 			page 84


 2406              	.LVL222:
 650:lvgl/src/draw/sw/lv_draw_sw_rect.c ****                 blend_area.y1 = y;
 2407              		.loc 1 650 19 view .LVU895
 2408 062e 0997     		str	r7, [sp, #36]
 2409 0630 1746     		mov	r7, r2
 2410 0632 CDF82880 		str	r8, [sp, #40]
 2411 0636 DDF81080 		ldr	r8, [sp, #16]
 2412              	.LVL223:
 650:lvgl/src/draw/sw/lv_draw_sw_rect.c ****                 blend_area.y1 = y;
 2413              		.loc 1 650 13 view .LVU896
 2414 063a 34E0     		b	.L107
 2415              	.LVL224:
 2416              	.L195:
 637:lvgl/src/draw/sw/lv_draw_sw_rect.c ****         else simple_sub = simple;
 2417              		.loc 1 637 22 discriminator 1 view .LVU897
 2418 063c 5246     		mov	r2, r10
 2419 063e 1EA9     		add	r1, sp, #120
 2420 0640 14A8     		add	r0, sp, #80
 2421 0642 FFF7FEFF 		bl	_lv_area_is_out
 2422              	.LVL225:
 637:lvgl/src/draw/sw/lv_draw_sw_rect.c ****         else simple_sub = simple;
 2423              		.loc 1 637 19 discriminator 1 view .LVU898
 2424 0646 0246     		mov	r2, r0
 2425 0648 0028     		cmp	r0, #0
 2426 064a DFD1     		bne	.L104
 2427 064c 009B     		ldr	r3, [sp]
 2428 064e 1A46     		mov	r2, r3
 2429 0650 DCE7     		b	.L104
 2430              	.LVL226:
 2431              	.L105:
 645:lvgl/src/draw/sw/lv_draw_sw_rect.c ****             }
 2432              		.loc 1 645 17 is_stmt 1 view .LVU899
 645:lvgl/src/draw/sw/lv_draw_sw_rect.c ****             }
 2433              		.loc 1 645 36 is_stmt 0 view .LVU900
 2434 0652 0023     		movs	r3, #0
 2435 0654 1093     		str	r3, [sp, #64]
 2436 0656 E0E7     		b	.L106
 2437              	.LVL227:
 2438              	.L198:
 655:lvgl/src/draw/sw/lv_draw_sw_rect.c ****                     blend_dsc.mask_res = lv_draw_mask_apply(mask_buf, clip_area_sub.x1, y, w);
 2439              		.loc 1 655 21 is_stmt 1 view .LVU901
 2440 0658 089A     		ldr	r2, [sp, #32]
 2441 065a 9BF80010 		ldrb	r1, [fp]	@ zero_extendqisi2
 2442 065e 4046     		mov	r0, r8
 2443 0660 FFF7FEFF 		bl	lv_memset
 2444              	.LVL228:
 656:lvgl/src/draw/sw/lv_draw_sw_rect.c ****                     if(blend_dsc.mask_res == LV_DRAW_MASK_RES_FULL_COVER) blend_dsc.mask_res = LV_D
 2445              		.loc 1 656 21 view .LVU902
 656:lvgl/src/draw/sw/lv_draw_sw_rect.c ****                     if(blend_dsc.mask_res == LV_DRAW_MASK_RES_FULL_COVER) blend_dsc.mask_res = LV_D
 2446              		.loc 1 656 42 is_stmt 0 view .LVU903
 2447 0664 089B     		ldr	r3, [sp, #32]
 2448 0666 5246     		mov	r2, r10
 2449 0668 BDF95010 		ldrsh	r1, [sp, #80]
 2450 066c 4046     		mov	r0, r8
 2451 066e FFF7FEFF 		bl	lv_draw_mask_apply
 2452              	.LVL229:
 656:lvgl/src/draw/sw/lv_draw_sw_rect.c ****                     if(blend_dsc.mask_res == LV_DRAW_MASK_RES_FULL_COVER) blend_dsc.mask_res = LV_D
ARM GAS  /var/folders/21/t9g5rlb91ys800n5npymflf80000gn/T//cca4dfU0.s 			page 85


 2453              		.loc 1 656 40 view .LVU904
 2454 0672 8DF84400 		strb	r0, [sp, #68]
 657:lvgl/src/draw/sw/lv_draw_sw_rect.c ****                     lv_draw_sw_blend(draw_ctx, &blend_dsc);
 2455              		.loc 1 657 21 is_stmt 1 view .LVU905
 657:lvgl/src/draw/sw/lv_draw_sw_rect.c ****                     lv_draw_sw_blend(draw_ctx, &blend_dsc);
 2456              		.loc 1 657 23 is_stmt 0 view .LVU906
 2457 0676 0128     		cmp	r0, #1
 2458 0678 04D0     		beq	.L196
 2459              	.L109:
 658:lvgl/src/draw/sw/lv_draw_sw_rect.c ****                 }
 2460              		.loc 1 658 21 is_stmt 1 view .LVU907
 2461 067a 0DA9     		add	r1, sp, #52
 2462 067c 3046     		mov	r0, r6
 2463 067e FFF7FEFF 		bl	lv_draw_sw_blend
 2464              	.LVL230:
 2465 0682 0BE0     		b	.L110
 2466              	.L196:
 657:lvgl/src/draw/sw/lv_draw_sw_rect.c ****                     lv_draw_sw_blend(draw_ctx, &blend_dsc);
 2467              		.loc 1 657 75 discriminator 1 view .LVU908
 657:lvgl/src/draw/sw/lv_draw_sw_rect.c ****                     lv_draw_sw_blend(draw_ctx, &blend_dsc);
 2468              		.loc 1 657 94 is_stmt 0 discriminator 1 view .LVU909
 2469 0684 0223     		movs	r3, #2
 2470 0686 8DF84430 		strb	r3, [sp, #68]
 2471 068a F6E7     		b	.L109
 2472              	.L199:
 661:lvgl/src/draw/sw/lv_draw_sw_rect.c ****                     lv_draw_sw_blend(draw_ctx, &blend_dsc);
 2473              		.loc 1 661 35 discriminator 1 view .LVU910
 2474 068c 9BF80030 		ldrb	r3, [fp]	@ zero_extendqisi2
 2475              	.L112:
 661:lvgl/src/draw/sw/lv_draw_sw_rect.c ****                     lv_draw_sw_blend(draw_ctx, &blend_dsc);
 2476              		.loc 1 661 35 discriminator 4 view .LVU911
 2477 0690 8DF84C30 		strb	r3, [sp, #76]
 662:lvgl/src/draw/sw/lv_draw_sw_rect.c ****                 }
 2478              		.loc 1 662 21 is_stmt 1 discriminator 4 view .LVU912
 2479 0694 0DA9     		add	r1, sp, #52
 2480 0696 3046     		mov	r0, r6
 2481 0698 FFF7FEFF 		bl	lv_draw_sw_blend
 2482              	.LVL231:
 2483              	.L110:
 664:lvgl/src/draw/sw/lv_draw_sw_rect.c ****             }
 2484              		.loc 1 664 17 discriminator 2 view .LVU913
 664:lvgl/src/draw/sw/lv_draw_sw_rect.c ****             }
 2485              		.loc 1 664 28 is_stmt 0 discriminator 2 view .LVU914
 2486 069c A344     		add	fp, fp, r4
 2487              	.LVL232:
 650:lvgl/src/draw/sw/lv_draw_sw_rect.c ****                 blend_area.y1 = y;
 2488              		.loc 1 650 63 is_stmt 1 discriminator 2 view .LVU915
 2489 069e 0AF1010A 		add	r10, r10, #1
 2490              	.LVL233:
 650:lvgl/src/draw/sw/lv_draw_sw_rect.c ****                 blend_area.y1 = y;
 2491              		.loc 1 650 63 is_stmt 0 discriminator 2 view .LVU916
 2492 06a2 0FFA8AFA 		sxth	r10, r10
 2493              	.LVL234:
 2494              	.L107:
 650:lvgl/src/draw/sw/lv_draw_sw_rect.c ****                 blend_area.y1 = y;
 2495              		.loc 1 650 41 is_stmt 1 discriminator 1 view .LVU917
 650:lvgl/src/draw/sw/lv_draw_sw_rect.c ****                 blend_area.y1 = y;
ARM GAS  /var/folders/21/t9g5rlb91ys800n5npymflf80000gn/T//cca4dfU0.s 			page 86


 2496              		.loc 1 650 57 is_stmt 0 discriminator 1 view .LVU918
 2497 06a6 BDF95630 		ldrsh	r3, [sp, #86]
 650:lvgl/src/draw/sw/lv_draw_sw_rect.c ****                 blend_area.y1 = y;
 2498              		.loc 1 650 41 discriminator 1 view .LVU919
 2499 06aa 5345     		cmp	r3, r10
 2500 06ac 10DB     		blt	.L197
 651:lvgl/src/draw/sw/lv_draw_sw_rect.c ****                 blend_area.y2 = y;
 2501              		.loc 1 651 17 is_stmt 1 view .LVU920
 651:lvgl/src/draw/sw/lv_draw_sw_rect.c ****                 blend_area.y2 = y;
 2502              		.loc 1 651 31 is_stmt 0 view .LVU921
 2503 06ae ADF85AA0 		strh	r10, [sp, #90]	@ movhi
 652:lvgl/src/draw/sw/lv_draw_sw_rect.c **** 
 2504              		.loc 1 652 17 is_stmt 1 view .LVU922
 652:lvgl/src/draw/sw/lv_draw_sw_rect.c **** 
 2505              		.loc 1 652 31 is_stmt 0 view .LVU923
 2506 06b2 ADF85EA0 		strh	r10, [sp, #94]	@ movhi
 654:lvgl/src/draw/sw/lv_draw_sw_rect.c ****                     lv_memset(mask_buf, sh_buf_tmp[0], w);
 2507              		.loc 1 654 17 is_stmt 1 view .LVU924
 654:lvgl/src/draw/sw/lv_draw_sw_rect.c ****                     lv_memset(mask_buf, sh_buf_tmp[0], w);
 2508              		.loc 1 654 19 is_stmt 0 view .LVU925
 2509 06b6 002F     		cmp	r7, #0
 2510 06b8 CED0     		beq	.L198
 661:lvgl/src/draw/sw/lv_draw_sw_rect.c ****                     lv_draw_sw_blend(draw_ctx, &blend_dsc);
 2511              		.loc 1 661 21 is_stmt 1 view .LVU926
 661:lvgl/src/draw/sw/lv_draw_sw_rect.c ****                     lv_draw_sw_blend(draw_ctx, &blend_dsc);
 2512              		.loc 1 661 35 is_stmt 0 view .LVU927
 2513 06ba B9F1FF0F 		cmp	r9, #255
 2514 06be E5D0     		beq	.L199
 661:lvgl/src/draw/sw/lv_draw_sw_rect.c ****                     lv_draw_sw_blend(draw_ctx, &blend_dsc);
 2515              		.loc 1 661 86 discriminator 2 view .LVU928
 2516 06c0 9BF80030 		ldrb	r3, [fp]	@ zero_extendqisi2
 661:lvgl/src/draw/sw/lv_draw_sw_rect.c ****                     lv_draw_sw_blend(draw_ctx, &blend_dsc);
 2517              		.loc 1 661 95 discriminator 2 view .LVU929
 2518 06c4 95F83620 		ldrb	r2, [r5, #54]	@ zero_extendqisi2
 661:lvgl/src/draw/sw/lv_draw_sw_rect.c ****                     lv_draw_sw_blend(draw_ctx, &blend_dsc);
 2519              		.loc 1 661 90 discriminator 2 view .LVU930
 2520 06c8 02FB03F3 		mul	r3, r2, r3
 661:lvgl/src/draw/sw/lv_draw_sw_rect.c ****                     lv_draw_sw_blend(draw_ctx, &blend_dsc);
 2521              		.loc 1 661 35 discriminator 2 view .LVU931
 2522 06cc 1B0A     		lsrs	r3, r3, #8
 2523 06ce DFE7     		b	.L112
 2524              	.L197:
 661:lvgl/src/draw/sw/lv_draw_sw_rect.c ****                     lv_draw_sw_blend(draw_ctx, &blend_dsc);
 2525              		.loc 1 661 35 discriminator 2 view .LVU932
 2526 06d0 099F     		ldr	r7, [sp, #36]
 2527 06d2 DDF82880 		ldr	r8, [sp, #40]
 2528 06d6 1CE6     		b	.L103
 2529              	.LVL235:
 2530              	.L185:
 661:lvgl/src/draw/sw/lv_draw_sw_rect.c ****                     lv_draw_sw_blend(draw_ctx, &blend_dsc);
 2531              		.loc 1 661 35 discriminator 2 view .LVU933
 2532              	.LBE156:
 678:lvgl/src/draw/sw/lv_draw_sw_rect.c ****         lv_coord_t w = lv_area_get_width(&clip_area_sub);
 2533              		.loc 1 678 9 discriminator 1 view .LVU934
 2534 06d8 BDF90430 		ldrsh	r3, [sp, #4]
 2535 06dc 0893     		str	r3, [sp, #32]
 2536 06de 1A46     		mov	r2, r3
ARM GAS  /var/folders/21/t9g5rlb91ys800n5npymflf80000gn/T//cca4dfU0.s 			page 87


 2537 06e0 1EA9     		add	r1, sp, #120
 2538 06e2 14A8     		add	r0, sp, #80
 2539 06e4 FFF7FEFF 		bl	_lv_area_is_in
 2540              	.LVL236:
 677:lvgl/src/draw/sw/lv_draw_sw_rect.c ****        !_lv_area_is_in(&clip_area_sub, &bg_area, r_bg)) {
 2541              		.loc 1 677 77 discriminator 1 view .LVU935
 2542 06e8 0028     		cmp	r0, #0
 2543 06ea 7FF439AE 		bne	.L114
 2544              	.LBB159:
 679:lvgl/src/draw/sw/lv_draw_sw_rect.c ****         sh_buf_tmp = sh_buf;
 2545              		.loc 1 679 9 is_stmt 1 view .LVU936
 2546              	.LVL237:
 2547              	.LBB160:
 2548              	.LBI160:
 123:lvgl/src/draw/sw/../../misc/lv_area.h **** {
 2549              		.loc 2 123 26 view .LVU937
 2550              	.LBB161:
 125:lvgl/src/draw/sw/../../misc/lv_area.h **** }
 2551              		.loc 2 125 5 view .LVU938
 125:lvgl/src/draw/sw/../../misc/lv_area.h **** }
 2552              		.loc 2 125 31 is_stmt 0 view .LVU939
 2553 06ee BDF85430 		ldrh	r3, [sp, #84]
 125:lvgl/src/draw/sw/../../misc/lv_area.h **** }
 2554              		.loc 2 125 44 view .LVU940
 2555 06f2 BDF85020 		ldrh	r2, [sp, #80]
 125:lvgl/src/draw/sw/../../misc/lv_area.h **** }
 2556              		.loc 2 125 36 view .LVU941
 2557 06f6 9B1A     		subs	r3, r3, r2
 2558 06f8 9BB2     		uxth	r3, r3
 125:lvgl/src/draw/sw/../../misc/lv_area.h **** }
 2559              		.loc 2 125 49 view .LVU942
 2560 06fa 0133     		adds	r3, r3, #1
 125:lvgl/src/draw/sw/../../misc/lv_area.h **** }
 2561              		.loc 2 125 12 view .LVU943
 2562 06fc 1AB2     		sxth	r2, r3
 2563 06fe 0992     		str	r2, [sp, #36]
 2564              	.LVL238:
 125:lvgl/src/draw/sw/../../misc/lv_area.h **** }
 2565              		.loc 2 125 12 view .LVU944
 2566              	.LBE161:
 2567              	.LBE160:
 680:lvgl/src/draw/sw/lv_draw_sw_rect.c ****         sh_buf_tmp += (blend_area.y2 - clip_area_sub.y2) * corner_size;
 2568              		.loc 1 680 9 is_stmt 1 view .LVU945
 681:lvgl/src/draw/sw/lv_draw_sw_rect.c ****         if(w > 0) {
 2569              		.loc 1 681 9 view .LVU946
 681:lvgl/src/draw/sw/lv_draw_sw_rect.c ****         if(w > 0) {
 2570              		.loc 1 681 34 is_stmt 0 view .LVU947
 2571 0700 BDF95EB0 		ldrsh	fp, [sp, #94]
 681:lvgl/src/draw/sw/lv_draw_sw_rect.c ****         if(w > 0) {
 2572              		.loc 1 681 53 view .LVU948
 2573 0704 BDF95630 		ldrsh	r3, [sp, #86]
 681:lvgl/src/draw/sw/lv_draw_sw_rect.c ****         if(w > 0) {
 2574              		.loc 1 681 38 view .LVU949
 2575 0708 ABEB030B 		sub	fp, fp, r3
 681:lvgl/src/draw/sw/lv_draw_sw_rect.c ****         if(w > 0) {
 2576              		.loc 1 681 20 view .LVU950
 2577 070c 039B     		ldr	r3, [sp, #12]
ARM GAS  /var/folders/21/t9g5rlb91ys800n5npymflf80000gn/T//cca4dfU0.s 			page 88


 2578 070e 04FB0B3B 		mla	fp, r4, fp, r3
 2579              	.LVL239:
 682:lvgl/src/draw/sw/lv_draw_sw_rect.c ****             /*Do not mask if out of the bg*/
 2580              		.loc 1 682 9 is_stmt 1 view .LVU951
 682:lvgl/src/draw/sw/lv_draw_sw_rect.c ****             /*Do not mask if out of the bg*/
 2581              		.loc 1 682 11 is_stmt 0 view .LVU952
 2582 0712 002A     		cmp	r2, #0
 2583 0714 7FF724AE 		ble	.L114
 684:lvgl/src/draw/sw/lv_draw_sw_rect.c ****             else simple_sub = simple;
 2584              		.loc 1 684 13 is_stmt 1 view .LVU953
 684:lvgl/src/draw/sw/lv_draw_sw_rect.c ****             else simple_sub = simple;
 2585              		.loc 1 684 15 is_stmt 0 view .LVU954
 2586 0718 009B     		ldr	r3, [sp]
 2587 071a A3B9     		cbnz	r3, .L115
 685:lvgl/src/draw/sw/lv_draw_sw_rect.c **** 
 2588              		.loc 1 685 18 is_stmt 1 view .LVU955
 2589              	.LVL240:
 687:lvgl/src/draw/sw/lv_draw_sw_rect.c ****                 blend_dsc.mask_buf = mask_buf;
 2590              		.loc 1 687 13 view .LVU956
 688:lvgl/src/draw/sw/lv_draw_sw_rect.c ****             }
 2591              		.loc 1 688 17 view .LVU957
 688:lvgl/src/draw/sw/lv_draw_sw_rect.c ****             }
 2592              		.loc 1 688 36 is_stmt 0 view .LVU958
 2593 071c 049B     		ldr	r3, [sp, #16]
 2594 071e 1093     		str	r3, [sp, #64]
 2595              	.LVL241:
 2596              	.L116:
 693:lvgl/src/draw/sw/lv_draw_sw_rect.c ****             blend_area.x2 = clip_area_sub.x2;
 2597              		.loc 1 693 13 is_stmt 1 view .LVU959
 693:lvgl/src/draw/sw/lv_draw_sw_rect.c ****             blend_area.x2 = clip_area_sub.x2;
 2598              		.loc 1 693 42 is_stmt 0 view .LVU960
 2599 0720 BDF95030 		ldrsh	r3, [sp, #80]
 693:lvgl/src/draw/sw/lv_draw_sw_rect.c ****             blend_area.x2 = clip_area_sub.x2;
 2600              		.loc 1 693 27 view .LVU961
 2601 0724 ADF85830 		strh	r3, [sp, #88]	@ movhi
 694:lvgl/src/draw/sw/lv_draw_sw_rect.c **** 
 2602              		.loc 1 694 13 is_stmt 1 view .LVU962
 694:lvgl/src/draw/sw/lv_draw_sw_rect.c **** 
 2603              		.loc 1 694 42 is_stmt 0 view .LVU963
 2604 0728 BDF95430 		ldrsh	r3, [sp, #84]
 694:lvgl/src/draw/sw/lv_draw_sw_rect.c **** 
 2605              		.loc 1 694 27 view .LVU964
 2606 072c ADF85C30 		strh	r3, [sp, #92]	@ movhi
 696:lvgl/src/draw/sw/lv_draw_sw_rect.c ****                 blend_area.y1 = y;
 2607              		.loc 1 696 13 is_stmt 1 view .LVU965
 696:lvgl/src/draw/sw/lv_draw_sw_rect.c ****                 blend_area.y1 = y;
 2608              		.loc 1 696 19 is_stmt 0 view .LVU966
 2609 0730 BDF956A0 		ldrsh	r10, [sp, #86]
 2610              	.LVL242:
 696:lvgl/src/draw/sw/lv_draw_sw_rect.c ****                 blend_area.y1 = y;
 2611              		.loc 1 696 19 view .LVU967
 2612 0734 0A97     		str	r7, [sp, #40]
 2613 0736 009F     		ldr	r7, [sp]
 2614 0738 CDF82C80 		str	r8, [sp, #44]
 2615 073c DDF82480 		ldr	r8, [sp, #36]
 2616 0740 0995     		str	r5, [sp, #36]
 2617              	.LVL243:
ARM GAS  /var/folders/21/t9g5rlb91ys800n5npymflf80000gn/T//cca4dfU0.s 			page 89


 696:lvgl/src/draw/sw/lv_draw_sw_rect.c ****                 blend_area.y1 = y;
 2618              		.loc 1 696 19 view .LVU968
 2619 0742 049D     		ldr	r5, [sp, #16]
 2620              	.LVL244:
 696:lvgl/src/draw/sw/lv_draw_sw_rect.c ****                 blend_area.y1 = y;
 2621              		.loc 1 696 13 view .LVU969
 2622 0744 27E0     		b	.L117
 2623              	.LVL245:
 2624              	.L115:
 684:lvgl/src/draw/sw/lv_draw_sw_rect.c ****             else simple_sub = simple;
 2625              		.loc 1 684 26 discriminator 1 view .LVU970
 2626 0746 089A     		ldr	r2, [sp, #32]
 2627              	.LVL246:
 684:lvgl/src/draw/sw/lv_draw_sw_rect.c ****             else simple_sub = simple;
 2628              		.loc 1 684 26 discriminator 1 view .LVU971
 2629 0748 1EA9     		add	r1, sp, #120
 2630 074a 14A8     		add	r0, sp, #80
 2631 074c FFF7FEFF 		bl	_lv_area_is_out
 2632              	.LVL247:
 691:lvgl/src/draw/sw/lv_draw_sw_rect.c ****             }
 2633              		.loc 1 691 17 is_stmt 1 discriminator 1 view .LVU972
 691:lvgl/src/draw/sw/lv_draw_sw_rect.c ****             }
 2634              		.loc 1 691 36 is_stmt 0 discriminator 1 view .LVU973
 2635 0750 0023     		movs	r3, #0
 2636 0752 1093     		str	r3, [sp, #64]
 2637 0754 E4E7     		b	.L116
 2638              	.LVL248:
 2639              	.L118:
 701:lvgl/src/draw/sw/lv_draw_sw_rect.c ****                 else simple_sub = simple;
 2640              		.loc 1 701 30 discriminator 1 view .LVU974
 2641 0756 089A     		ldr	r2, [sp, #32]
 2642 0758 1EA9     		add	r1, sp, #120
 2643 075a 14A8     		add	r0, sp, #80
 2644 075c FFF7FEFF 		bl	_lv_area_is_out
 2645              	.LVL249:
 711:lvgl/src/draw/sw/lv_draw_sw_rect.c ****                     lv_draw_sw_blend(draw_ctx, &blend_dsc);
 2646              		.loc 1 711 21 is_stmt 1 discriminator 1 view .LVU975
 711:lvgl/src/draw/sw/lv_draw_sw_rect.c ****                     lv_draw_sw_blend(draw_ctx, &blend_dsc);
 2647              		.loc 1 711 35 is_stmt 0 discriminator 1 view .LVU976
 2648 0760 B9F1FF0F 		cmp	r9, #255
 2649 0764 36D0     		beq	.L200
 711:lvgl/src/draw/sw/lv_draw_sw_rect.c ****                     lv_draw_sw_blend(draw_ctx, &blend_dsc);
 2650              		.loc 1 711 86 discriminator 2 view .LVU977
 2651 0766 9BF80030 		ldrb	r3, [fp]	@ zero_extendqisi2
 711:lvgl/src/draw/sw/lv_draw_sw_rect.c ****                     lv_draw_sw_blend(draw_ctx, &blend_dsc);
 2652              		.loc 1 711 95 discriminator 2 view .LVU978
 2653 076a 099A     		ldr	r2, [sp, #36]
 2654 076c 92F83620 		ldrb	r2, [r2, #54]	@ zero_extendqisi2
 711:lvgl/src/draw/sw/lv_draw_sw_rect.c ****                     lv_draw_sw_blend(draw_ctx, &blend_dsc);
 2655              		.loc 1 711 90 discriminator 2 view .LVU979
 2656 0770 02FB03F3 		mul	r3, r2, r3
 711:lvgl/src/draw/sw/lv_draw_sw_rect.c ****                     lv_draw_sw_blend(draw_ctx, &blend_dsc);
 2657              		.loc 1 711 35 discriminator 2 view .LVU980
 2658 0774 1B0A     		lsrs	r3, r3, #8
 2659              	.L124:
 711:lvgl/src/draw/sw/lv_draw_sw_rect.c ****                     lv_draw_sw_blend(draw_ctx, &blend_dsc);
 2660              		.loc 1 711 35 discriminator 4 view .LVU981
ARM GAS  /var/folders/21/t9g5rlb91ys800n5npymflf80000gn/T//cca4dfU0.s 			page 90


 2661 0776 8DF84C30 		strb	r3, [sp, #76]
 712:lvgl/src/draw/sw/lv_draw_sw_rect.c **** 
 2662              		.loc 1 712 21 is_stmt 1 discriminator 4 view .LVU982
 2663 077a 0DA9     		add	r1, sp, #52
 2664 077c 3046     		mov	r0, r6
 2665 077e FFF7FEFF 		bl	lv_draw_sw_blend
 2666              	.LVL250:
 2667 0782 03E0     		b	.L123
 2668              	.LVL251:
 2669              	.L120:
 708:lvgl/src/draw/sw/lv_draw_sw_rect.c ****                 }
 2670              		.loc 1 708 21 view .LVU983
 2671 0784 0DA9     		add	r1, sp, #52
 2672 0786 3046     		mov	r0, r6
 2673 0788 FFF7FEFF 		bl	lv_draw_sw_blend
 2674              	.LVL252:
 2675              	.L123:
 715:lvgl/src/draw/sw/lv_draw_sw_rect.c ****             }
 2676              		.loc 1 715 17 discriminator 2 view .LVU984
 715:lvgl/src/draw/sw/lv_draw_sw_rect.c ****             }
 2677              		.loc 1 715 28 is_stmt 0 discriminator 2 view .LVU985
 2678 078c A344     		add	fp, fp, r4
 2679              	.LVL253:
 696:lvgl/src/draw/sw/lv_draw_sw_rect.c ****                 blend_area.y1 = y;
 2680              		.loc 1 696 63 is_stmt 1 discriminator 2 view .LVU986
 2681 078e 0AF1FF3A 		add	r10, r10, #-1
 2682              	.LVL254:
 696:lvgl/src/draw/sw/lv_draw_sw_rect.c ****                 blend_area.y1 = y;
 2683              		.loc 1 696 63 is_stmt 0 discriminator 2 view .LVU987
 2684 0792 0FFA8AFA 		sxth	r10, r10
 2685              	.LVL255:
 2686              	.L117:
 696:lvgl/src/draw/sw/lv_draw_sw_rect.c ****                 blend_area.y1 = y;
 2687              		.loc 1 696 41 is_stmt 1 discriminator 1 view .LVU988
 696:lvgl/src/draw/sw/lv_draw_sw_rect.c ****                 blend_area.y1 = y;
 2688              		.loc 1 696 57 is_stmt 0 discriminator 1 view .LVU989
 2689 0796 BDF95230 		ldrsh	r3, [sp, #82]
 696:lvgl/src/draw/sw/lv_draw_sw_rect.c ****                 blend_area.y1 = y;
 2690              		.loc 1 696 41 discriminator 1 view .LVU990
 2691 079a 5345     		cmp	r3, r10
 2692 079c 1DDC     		bgt	.L201
 697:lvgl/src/draw/sw/lv_draw_sw_rect.c ****                 blend_area.y2 = y;
 2693              		.loc 1 697 17 is_stmt 1 view .LVU991
 697:lvgl/src/draw/sw/lv_draw_sw_rect.c ****                 blend_area.y2 = y;
 2694              		.loc 1 697 31 is_stmt 0 view .LVU992
 2695 079e ADF85AA0 		strh	r10, [sp, #90]	@ movhi
 698:lvgl/src/draw/sw/lv_draw_sw_rect.c **** 
 2696              		.loc 1 698 17 is_stmt 1 view .LVU993
 698:lvgl/src/draw/sw/lv_draw_sw_rect.c **** 
 2697              		.loc 1 698 31 is_stmt 0 view .LVU994
 2698 07a2 ADF85EA0 		strh	r10, [sp, #94]	@ movhi
 701:lvgl/src/draw/sw/lv_draw_sw_rect.c ****                 else simple_sub = simple;
 2699              		.loc 1 701 17 is_stmt 1 view .LVU995
 701:lvgl/src/draw/sw/lv_draw_sw_rect.c ****                 else simple_sub = simple;
 2700              		.loc 1 701 19 is_stmt 0 view .LVU996
 2701 07a6 002F     		cmp	r7, #0
 2702 07a8 D5D1     		bne	.L118
ARM GAS  /var/folders/21/t9g5rlb91ys800n5npymflf80000gn/T//cca4dfU0.s 			page 91


 702:lvgl/src/draw/sw/lv_draw_sw_rect.c **** 
 2703              		.loc 1 702 22 is_stmt 1 view .LVU997
 2704              	.LVL256:
 704:lvgl/src/draw/sw/lv_draw_sw_rect.c ****                     lv_memset(mask_buf, sh_buf_tmp[0], w);
 2705              		.loc 1 704 17 view .LVU998
 705:lvgl/src/draw/sw/lv_draw_sw_rect.c ****                     blend_dsc.mask_res = lv_draw_mask_apply(mask_buf, clip_area_sub.x1, y, w);
 2706              		.loc 1 705 21 view .LVU999
 2707 07aa 4246     		mov	r2, r8
 2708 07ac 9BF80010 		ldrb	r1, [fp]	@ zero_extendqisi2
 2709 07b0 2846     		mov	r0, r5
 2710 07b2 FFF7FEFF 		bl	lv_memset
 2711              	.LVL257:
 706:lvgl/src/draw/sw/lv_draw_sw_rect.c ****                     if(blend_dsc.mask_res == LV_DRAW_MASK_RES_FULL_COVER) blend_dsc.mask_res = LV_D
 2712              		.loc 1 706 21 view .LVU1000
 706:lvgl/src/draw/sw/lv_draw_sw_rect.c ****                     if(blend_dsc.mask_res == LV_DRAW_MASK_RES_FULL_COVER) blend_dsc.mask_res = LV_D
 2713              		.loc 1 706 42 is_stmt 0 view .LVU1001
 2714 07b6 4346     		mov	r3, r8
 2715 07b8 5246     		mov	r2, r10
 2716 07ba BDF95010 		ldrsh	r1, [sp, #80]
 2717 07be 2846     		mov	r0, r5
 2718 07c0 FFF7FEFF 		bl	lv_draw_mask_apply
 2719              	.LVL258:
 706:lvgl/src/draw/sw/lv_draw_sw_rect.c ****                     if(blend_dsc.mask_res == LV_DRAW_MASK_RES_FULL_COVER) blend_dsc.mask_res = LV_D
 2720              		.loc 1 706 40 view .LVU1002
 2721 07c4 8DF84400 		strb	r0, [sp, #68]
 707:lvgl/src/draw/sw/lv_draw_sw_rect.c ****                     lv_draw_sw_blend(draw_ctx, &blend_dsc);
 2722              		.loc 1 707 21 is_stmt 1 view .LVU1003
 707:lvgl/src/draw/sw/lv_draw_sw_rect.c ****                     lv_draw_sw_blend(draw_ctx, &blend_dsc);
 2723              		.loc 1 707 23 is_stmt 0 view .LVU1004
 2724 07c8 0128     		cmp	r0, #1
 2725 07ca DBD1     		bne	.L120
 707:lvgl/src/draw/sw/lv_draw_sw_rect.c ****                     lv_draw_sw_blend(draw_ctx, &blend_dsc);
 2726              		.loc 1 707 75 is_stmt 1 discriminator 1 view .LVU1005
 707:lvgl/src/draw/sw/lv_draw_sw_rect.c ****                     lv_draw_sw_blend(draw_ctx, &blend_dsc);
 2727              		.loc 1 707 94 is_stmt 0 discriminator 1 view .LVU1006
 2728 07cc 0223     		movs	r3, #2
 2729 07ce 8DF84430 		strb	r3, [sp, #68]
 2730 07d2 D7E7     		b	.L120
 2731              	.LVL259:
 2732              	.L200:
 711:lvgl/src/draw/sw/lv_draw_sw_rect.c ****                     lv_draw_sw_blend(draw_ctx, &blend_dsc);
 2733              		.loc 1 711 35 discriminator 1 view .LVU1007
 2734 07d4 9BF80030 		ldrb	r3, [fp]	@ zero_extendqisi2
 2735 07d8 CDE7     		b	.L124
 2736              	.L201:
 711:lvgl/src/draw/sw/lv_draw_sw_rect.c ****                     lv_draw_sw_blend(draw_ctx, &blend_dsc);
 2737              		.loc 1 711 35 discriminator 1 view .LVU1008
 2738 07da 0A9F     		ldr	r7, [sp, #40]
 2739 07dc DDF82C80 		ldr	r8, [sp, #44]
 2740 07e0 099D     		ldr	r5, [sp, #36]
 2741 07e2 BDE5     		b	.L114
 2742              	.LVL260:
 2743              	.L186:
 711:lvgl/src/draw/sw/lv_draw_sw_rect.c ****                     lv_draw_sw_blend(draw_ctx, &blend_dsc);
 2744              		.loc 1 711 35 discriminator 1 view .LVU1009
 2745              	.LBE159:
 733:lvgl/src/draw/sw/lv_draw_sw_rect.c ****         lv_coord_t w = lv_area_get_width(&clip_area_sub);
ARM GAS  /var/folders/21/t9g5rlb91ys800n5npymflf80000gn/T//cca4dfU0.s 			page 92


 2746              		.loc 1 733 9 discriminator 1 view .LVU1010
 2747 07e4 BDF90450 		ldrsh	r5, [sp, #4]
 2748 07e8 2A46     		mov	r2, r5
 2749 07ea 1EA9     		add	r1, sp, #120
 2750 07ec 14A8     		add	r0, sp, #80
 2751 07ee FFF7FEFF 		bl	_lv_area_is_in
 2752              	.LVL261:
 732:lvgl/src/draw/sw/lv_draw_sw_rect.c ****        !_lv_area_is_in(&clip_area_sub, &bg_area, r_bg)) {
 2753              		.loc 1 732 77 discriminator 1 view .LVU1011
 2754 07f2 0028     		cmp	r0, #0
 2755 07f4 7FF4E9AD 		bne	.L127
 2756              	.LBB162:
 734:lvgl/src/draw/sw/lv_draw_sw_rect.c ****         sh_buf_tmp = sh_buf;
 2757              		.loc 1 734 9 is_stmt 1 view .LVU1012
 2758              	.LVL262:
 2759              	.LBB163:
 2760              	.LBI163:
 123:lvgl/src/draw/sw/../../misc/lv_area.h **** {
 2761              		.loc 2 123 26 view .LVU1013
 2762              	.LBB164:
 125:lvgl/src/draw/sw/../../misc/lv_area.h **** }
 2763              		.loc 2 125 5 view .LVU1014
 125:lvgl/src/draw/sw/../../misc/lv_area.h **** }
 2764              		.loc 2 125 31 is_stmt 0 view .LVU1015
 2765 07f8 BDF85430 		ldrh	r3, [sp, #84]
 125:lvgl/src/draw/sw/../../misc/lv_area.h **** }
 2766              		.loc 2 125 44 view .LVU1016
 2767 07fc BDF95020 		ldrsh	r2, [sp, #80]
 2768 0800 91B2     		uxth	r1, r2
 125:lvgl/src/draw/sw/../../misc/lv_area.h **** }
 2769              		.loc 2 125 36 view .LVU1017
 2770 0802 5B1A     		subs	r3, r3, r1
 2771 0804 9BB2     		uxth	r3, r3
 125:lvgl/src/draw/sw/../../misc/lv_area.h **** }
 2772              		.loc 2 125 49 view .LVU1018
 2773 0806 0133     		adds	r3, r3, #1
 125:lvgl/src/draw/sw/../../misc/lv_area.h **** }
 2774              		.loc 2 125 12 view .LVU1019
 2775 0808 0FFA83FA 		sxth	r10, r3
 2776              	.LVL263:
 125:lvgl/src/draw/sw/../../misc/lv_area.h **** }
 2777              		.loc 2 125 12 view .LVU1020
 2778              	.LBE164:
 2779              	.LBE163:
 735:lvgl/src/draw/sw/lv_draw_sw_rect.c ****         sh_buf_tmp += (corner_size - 1) * corner_size;
 2780              		.loc 1 735 9 is_stmt 1 view .LVU1021
 736:lvgl/src/draw/sw/lv_draw_sw_rect.c ****         sh_buf_tmp += clip_area_sub.x1 - (shadow_area.x2 - corner_size + 1);
 2781              		.loc 1 736 9 view .LVU1022
 736:lvgl/src/draw/sw/lv_draw_sw_rect.c ****         sh_buf_tmp += clip_area_sub.x1 - (shadow_area.x2 - corner_size + 1);
 2782              		.loc 1 736 36 is_stmt 0 view .LVU1023
 2783 080c 611E     		subs	r1, r4, #1
 2784              	.LVL264:
 737:lvgl/src/draw/sw/lv_draw_sw_rect.c **** 
 2785              		.loc 1 737 9 is_stmt 1 view .LVU1024
 737:lvgl/src/draw/sw/lv_draw_sw_rect.c **** 
 2786              		.loc 1 737 54 is_stmt 0 view .LVU1025
 2787 080e BDF98C30 		ldrsh	r3, [sp, #140]
ARM GAS  /var/folders/21/t9g5rlb91ys800n5npymflf80000gn/T//cca4dfU0.s 			page 93


 737:lvgl/src/draw/sw/lv_draw_sw_rect.c **** 
 2788              		.loc 1 737 58 view .LVU1026
 2789 0812 1B1B     		subs	r3, r3, r4
 737:lvgl/src/draw/sw/lv_draw_sw_rect.c **** 
 2790              		.loc 1 737 72 view .LVU1027
 2791 0814 0133     		adds	r3, r3, #1
 737:lvgl/src/draw/sw/lv_draw_sw_rect.c **** 
 2792              		.loc 1 737 40 view .LVU1028
 2793 0816 D31A     		subs	r3, r2, r3
 737:lvgl/src/draw/sw/lv_draw_sw_rect.c **** 
 2794              		.loc 1 737 20 view .LVU1029
 2795 0818 04FB0133 		mla	r3, r4, r1, r3
 2796 081c 039A     		ldr	r2, [sp, #12]
 2797 081e 02EB030B 		add	fp, r2, r3
 2798              	.LVL265:
 740:lvgl/src/draw/sw/lv_draw_sw_rect.c ****         else simple_sub = simple;
 2799              		.loc 1 740 9 is_stmt 1 view .LVU1030
 740:lvgl/src/draw/sw/lv_draw_sw_rect.c ****         else simple_sub = simple;
 2800              		.loc 1 740 11 is_stmt 0 view .LVU1031
 2801 0822 009B     		ldr	r3, [sp]
 2802 0824 D3B9     		cbnz	r3, .L202
 2803 0826 DDF80090 		ldr	r9, [sp]
 742:lvgl/src/draw/sw/lv_draw_sw_rect.c **** 
 2804              		.loc 1 742 54 view .LVU1032
 2805 082a 049B     		ldr	r3, [sp, #16]
 2806              	.L128:
 742:lvgl/src/draw/sw/lv_draw_sw_rect.c **** 
 2807              		.loc 1 742 28 discriminator 4 view .LVU1033
 2808 082c 1093     		str	r3, [sp, #64]
 744:lvgl/src/draw/sw/lv_draw_sw_rect.c ****             blend_area.x1 = clip_area_sub.x1;
 2809              		.loc 1 744 9 is_stmt 1 discriminator 4 view .LVU1034
 744:lvgl/src/draw/sw/lv_draw_sw_rect.c ****             blend_area.x1 = clip_area_sub.x1;
 2810              		.loc 1 744 11 is_stmt 0 discriminator 4 view .LVU1035
 2811 082e BAF1000F 		cmp	r10, #0
 2812 0832 7FF7CAAD 		ble	.L127
 745:lvgl/src/draw/sw/lv_draw_sw_rect.c ****             blend_area.x2 = clip_area_sub.x2;
 2813              		.loc 1 745 13 is_stmt 1 view .LVU1036
 745:lvgl/src/draw/sw/lv_draw_sw_rect.c ****             blend_area.x2 = clip_area_sub.x2;
 2814              		.loc 1 745 42 is_stmt 0 view .LVU1037
 2815 0836 BDF95030 		ldrsh	r3, [sp, #80]
 745:lvgl/src/draw/sw/lv_draw_sw_rect.c ****             blend_area.x2 = clip_area_sub.x2;
 2816              		.loc 1 745 27 view .LVU1038
 2817 083a ADF85830 		strh	r3, [sp, #88]	@ movhi
 746:lvgl/src/draw/sw/lv_draw_sw_rect.c ****             blend_dsc.mask_res = LV_DRAW_MASK_RES_CHANGED;    /*In simple mode it won't be overwrit
 2818              		.loc 1 746 13 is_stmt 1 view .LVU1039
 746:lvgl/src/draw/sw/lv_draw_sw_rect.c ****             blend_dsc.mask_res = LV_DRAW_MASK_RES_CHANGED;    /*In simple mode it won't be overwrit
 2819              		.loc 1 746 42 is_stmt 0 view .LVU1040
 2820 083e BDF95430 		ldrsh	r3, [sp, #84]
 746:lvgl/src/draw/sw/lv_draw_sw_rect.c ****             blend_dsc.mask_res = LV_DRAW_MASK_RES_CHANGED;    /*In simple mode it won't be overwrit
 2821              		.loc 1 746 27 view .LVU1041
 2822 0842 ADF85C30 		strh	r3, [sp, #92]	@ movhi
 747:lvgl/src/draw/sw/lv_draw_sw_rect.c ****             for(y = clip_area_sub.y1; y <= clip_area_sub.y2; y++) {
 2823              		.loc 1 747 13 is_stmt 1 view .LVU1042
 747:lvgl/src/draw/sw/lv_draw_sw_rect.c ****             for(y = clip_area_sub.y1; y <= clip_area_sub.y2; y++) {
 2824              		.loc 1 747 32 is_stmt 0 view .LVU1043
 2825 0846 0223     		movs	r3, #2
 2826 0848 8DF84430 		strb	r3, [sp, #68]
ARM GAS  /var/folders/21/t9g5rlb91ys800n5npymflf80000gn/T//cca4dfU0.s 			page 94


 748:lvgl/src/draw/sw/lv_draw_sw_rect.c ****                 blend_area.y1 = y;
 2827              		.loc 1 748 13 is_stmt 1 view .LVU1044
 748:lvgl/src/draw/sw/lv_draw_sw_rect.c ****                 blend_area.y1 = y;
 2828              		.loc 1 748 19 is_stmt 0 view .LVU1045
 2829 084c BDF95250 		ldrsh	r5, [sp, #82]
 2830              	.LVL266:
 748:lvgl/src/draw/sw/lv_draw_sw_rect.c ****                 blend_area.y1 = y;
 2831              		.loc 1 748 19 view .LVU1046
 2832 0850 0897     		str	r7, [sp, #32]
 2833 0852 2346     		mov	r3, r4
 2834 0854 4C46     		mov	r4, r9
 2835              	.LVL267:
 748:lvgl/src/draw/sw/lv_draw_sw_rect.c ****                 blend_area.y1 = y;
 2836              		.loc 1 748 19 view .LVU1047
 2837 0856 049F     		ldr	r7, [sp, #16]
 2838 0858 9946     		mov	r9, r3
 748:lvgl/src/draw/sw/lv_draw_sw_rect.c ****                 blend_area.y1 = y;
 2839              		.loc 1 748 13 view .LVU1048
 2840 085a 12E0     		b	.L129
 2841              	.LVL268:
 2842              	.L202:
 740:lvgl/src/draw/sw/lv_draw_sw_rect.c ****         else simple_sub = simple;
 2843              		.loc 1 740 22 discriminator 1 view .LVU1049
 2844 085c 2A46     		mov	r2, r5
 2845 085e 1EA9     		add	r1, sp, #120
 2846 0860 14A8     		add	r0, sp, #80
 2847 0862 FFF7FEFF 		bl	_lv_area_is_out
 2848              	.LVL269:
 740:lvgl/src/draw/sw/lv_draw_sw_rect.c ****         else simple_sub = simple;
 2849              		.loc 1 740 19 discriminator 1 view .LVU1050
 2850 0866 8146     		mov	r9, r0
 2851 0868 18B9     		cbnz	r0, .L168
 740:lvgl/src/draw/sw/lv_draw_sw_rect.c ****         else simple_sub = simple;
 2852              		.loc 1 740 19 view .LVU1051
 2853 086a DDF80090 		ldr	r9, [sp]
 742:lvgl/src/draw/sw/lv_draw_sw_rect.c **** 
 2854              		.loc 1 742 54 view .LVU1052
 2855 086e 5B46     		mov	r3, fp
 2856 0870 DCE7     		b	.L128
 2857              	.L168:
 742:lvgl/src/draw/sw/lv_draw_sw_rect.c **** 
 2858              		.loc 1 742 54 view .LVU1053
 2859 0872 5B46     		mov	r3, fp
 2860 0874 DAE7     		b	.L128
 2861              	.LVL270:
 2862              	.L130:
 757:lvgl/src/draw/sw/lv_draw_sw_rect.c ****             }
 2863              		.loc 1 757 17 is_stmt 1 discriminator 2 view .LVU1054
 2864 0876 0DA9     		add	r1, sp, #52
 2865 0878 3046     		mov	r0, r6
 2866 087a FFF7FEFF 		bl	lv_draw_sw_blend
 2867              	.LVL271:
 748:lvgl/src/draw/sw/lv_draw_sw_rect.c ****                 blend_area.y1 = y;
 2868              		.loc 1 748 63 discriminator 2 view .LVU1055
 2869 087e 0135     		adds	r5, r5, #1
 2870              	.LVL272:
 748:lvgl/src/draw/sw/lv_draw_sw_rect.c ****                 blend_area.y1 = y;
ARM GAS  /var/folders/21/t9g5rlb91ys800n5npymflf80000gn/T//cca4dfU0.s 			page 95


 2871              		.loc 1 748 63 is_stmt 0 discriminator 2 view .LVU1056
 2872 0880 2DB2     		sxth	r5, r5
 2873              	.LVL273:
 2874              	.L129:
 748:lvgl/src/draw/sw/lv_draw_sw_rect.c ****                 blend_area.y1 = y;
 2875              		.loc 1 748 41 is_stmt 1 discriminator 1 view .LVU1057
 748:lvgl/src/draw/sw/lv_draw_sw_rect.c ****                 blend_area.y1 = y;
 2876              		.loc 1 748 57 is_stmt 0 discriminator 1 view .LVU1058
 2877 0882 BDF95630 		ldrsh	r3, [sp, #86]
 748:lvgl/src/draw/sw/lv_draw_sw_rect.c ****                 blend_area.y1 = y;
 2878              		.loc 1 748 41 discriminator 1 view .LVU1059
 2879 0886 AB42     		cmp	r3, r5
 2880 0888 19DB     		blt	.L203
 749:lvgl/src/draw/sw/lv_draw_sw_rect.c ****                 blend_area.y2 = y;
 2881              		.loc 1 749 17 is_stmt 1 view .LVU1060
 749:lvgl/src/draw/sw/lv_draw_sw_rect.c ****                 blend_area.y2 = y;
 2882              		.loc 1 749 31 is_stmt 0 view .LVU1061
 2883 088a ADF85A50 		strh	r5, [sp, #90]	@ movhi
 750:lvgl/src/draw/sw/lv_draw_sw_rect.c **** 
 2884              		.loc 1 750 17 is_stmt 1 view .LVU1062
 750:lvgl/src/draw/sw/lv_draw_sw_rect.c **** 
 2885              		.loc 1 750 31 is_stmt 0 view .LVU1063
 2886 088e ADF85E50 		strh	r5, [sp, #94]	@ movhi
 752:lvgl/src/draw/sw/lv_draw_sw_rect.c ****                     lv_memcpy(mask_buf, sh_buf_tmp, w);
 2887              		.loc 1 752 17 is_stmt 1 view .LVU1064
 752:lvgl/src/draw/sw/lv_draw_sw_rect.c ****                     lv_memcpy(mask_buf, sh_buf_tmp, w);
 2888              		.loc 1 752 19 is_stmt 0 view .LVU1065
 2889 0892 002C     		cmp	r4, #0
 2890 0894 EFD1     		bne	.L130
 753:lvgl/src/draw/sw/lv_draw_sw_rect.c ****                     blend_dsc.mask_res = lv_draw_mask_apply(mask_buf, clip_area_sub.x1, y, w);
 2891              		.loc 1 753 21 is_stmt 1 view .LVU1066
 2892 0896 5246     		mov	r2, r10
 2893 0898 5946     		mov	r1, fp
 2894 089a 3846     		mov	r0, r7
 2895 089c FFF7FEFF 		bl	lv_memcpy
 2896              	.LVL274:
 754:lvgl/src/draw/sw/lv_draw_sw_rect.c ****                     if(blend_dsc.mask_res == LV_DRAW_MASK_RES_FULL_COVER) blend_dsc.mask_res = LV_D
 2897              		.loc 1 754 21 view .LVU1067
 754:lvgl/src/draw/sw/lv_draw_sw_rect.c ****                     if(blend_dsc.mask_res == LV_DRAW_MASK_RES_FULL_COVER) blend_dsc.mask_res = LV_D
 2898              		.loc 1 754 42 is_stmt 0 view .LVU1068
 2899 08a0 5346     		mov	r3, r10
 2900 08a2 2A46     		mov	r2, r5
 2901 08a4 BDF95010 		ldrsh	r1, [sp, #80]
 2902 08a8 3846     		mov	r0, r7
 2903 08aa FFF7FEFF 		bl	lv_draw_mask_apply
 2904              	.LVL275:
 754:lvgl/src/draw/sw/lv_draw_sw_rect.c ****                     if(blend_dsc.mask_res == LV_DRAW_MASK_RES_FULL_COVER) blend_dsc.mask_res = LV_D
 2905              		.loc 1 754 40 view .LVU1069
 2906 08ae 8DF84400 		strb	r0, [sp, #68]
 755:lvgl/src/draw/sw/lv_draw_sw_rect.c ****                 }
 2907              		.loc 1 755 21 is_stmt 1 view .LVU1070
 755:lvgl/src/draw/sw/lv_draw_sw_rect.c ****                 }
 2908              		.loc 1 755 23 is_stmt 0 view .LVU1071
 2909 08b2 0128     		cmp	r0, #1
 2910 08b4 DFD1     		bne	.L130
 755:lvgl/src/draw/sw/lv_draw_sw_rect.c ****                 }
 2911              		.loc 1 755 75 is_stmt 1 discriminator 1 view .LVU1072
ARM GAS  /var/folders/21/t9g5rlb91ys800n5npymflf80000gn/T//cca4dfU0.s 			page 96


 755:lvgl/src/draw/sw/lv_draw_sw_rect.c ****                 }
 2912              		.loc 1 755 94 is_stmt 0 discriminator 1 view .LVU1073
 2913 08b6 0223     		movs	r3, #2
 2914 08b8 8DF84430 		strb	r3, [sp, #68]
 2915 08bc DBE7     		b	.L130
 2916              	.L203:
 755:lvgl/src/draw/sw/lv_draw_sw_rect.c ****                 }
 2917              		.loc 1 755 94 discriminator 1 view .LVU1074
 2918 08be 089F     		ldr	r7, [sp, #32]
 2919 08c0 4C46     		mov	r4, r9
 2920 08c2 82E5     		b	.L127
 2921              	.LVL276:
 2922              	.L133:
 755:lvgl/src/draw/sw/lv_draw_sw_rect.c ****                 }
 2923              		.loc 1 755 94 discriminator 1 view .LVU1075
 2924              	.LBE162:
 2925              	.LBB165:
 2926              	.LBB149:
 769:lvgl/src/draw/sw/lv_draw_sw_rect.c ****             *start = *end;
 2927              		.loc 1 769 13 is_stmt 1 discriminator 3 view .LVU1076
 769:lvgl/src/draw/sw/lv_draw_sw_rect.c ****             *start = *end;
 2928              		.loc 1 769 22 is_stmt 0 discriminator 3 view .LVU1077
 2929 08c4 0878     		ldrb	r0, [r1]	@ zero_extendqisi2
 2930              	.LVL277:
 770:lvgl/src/draw/sw/lv_draw_sw_rect.c ****             *end = tmp;
 2931              		.loc 1 770 13 is_stmt 1 discriminator 3 view .LVU1078
 770:lvgl/src/draw/sw/lv_draw_sw_rect.c ****             *end = tmp;
 2932              		.loc 1 770 22 is_stmt 0 discriminator 3 view .LVU1079
 2933 08c6 93F800E0 		ldrb	lr, [r3]	@ zero_extendqisi2
 770:lvgl/src/draw/sw/lv_draw_sw_rect.c ****             *end = tmp;
 2934              		.loc 1 770 20 discriminator 3 view .LVU1080
 2935 08ca 01F801EB 		strb	lr, [r1], #1
 2936              	.LVL278:
 771:lvgl/src/draw/sw/lv_draw_sw_rect.c **** 
 2937              		.loc 1 771 13 is_stmt 1 discriminator 3 view .LVU1081
 771:lvgl/src/draw/sw/lv_draw_sw_rect.c **** 
 2938              		.loc 1 771 18 is_stmt 0 discriminator 3 view .LVU1082
 2939 08ce 03F80109 		strb	r0, [r3], #-1
 2940              	.LVL279:
 773:lvgl/src/draw/sw/lv_draw_sw_rect.c ****             end--;
 2941              		.loc 1 773 13 is_stmt 1 discriminator 3 view .LVU1083
 774:lvgl/src/draw/sw/lv_draw_sw_rect.c ****         }
 2942              		.loc 1 774 13 discriminator 3 view .LVU1084
 774:lvgl/src/draw/sw/lv_draw_sw_rect.c ****         }
 2943              		.loc 1 774 13 is_stmt 0 discriminator 3 view .LVU1085
 2944              	.LBE149:
 768:lvgl/src/draw/sw/lv_draw_sw_rect.c ****             lv_opa_t tmp = *start;
 2945              		.loc 1 768 42 is_stmt 1 discriminator 3 view .LVU1086
 2946 08d2 0132     		adds	r2, r2, #1
 2947              	.LVL280:
 2948              	.L132:
 768:lvgl/src/draw/sw/lv_draw_sw_rect.c ****             lv_opa_t tmp = *start;
 2949              		.loc 1 768 22 discriminator 1 view .LVU1087
 768:lvgl/src/draw/sw/lv_draw_sw_rect.c ****             lv_opa_t tmp = *start;
 2950              		.loc 1 768 36 is_stmt 0 discriminator 1 view .LVU1088
 2951 08d4 04EBD470 		add	r0, r4, r4, lsr #31
 768:lvgl/src/draw/sw/lv_draw_sw_rect.c ****             lv_opa_t tmp = *start;
ARM GAS  /var/folders/21/t9g5rlb91ys800n5npymflf80000gn/T//cca4dfU0.s 			page 97


 2952              		.loc 1 768 22 discriminator 1 view .LVU1089
 2953 08d8 B2EB600F 		cmp	r2, r0, asr #1
 2954 08dc F2DB     		blt	.L133
 776:lvgl/src/draw/sw/lv_draw_sw_rect.c ****     }
 2955              		.loc 1 776 9 is_stmt 1 discriminator 2 view .LVU1090
 776:lvgl/src/draw/sw/lv_draw_sw_rect.c ****     }
 2956              		.loc 1 776 20 is_stmt 0 discriminator 2 view .LVU1091
 2957 08de A444     		add	ip, ip, r4
 2958              	.LVL281:
 776:lvgl/src/draw/sw/lv_draw_sw_rect.c ****     }
 2959              		.loc 1 776 20 discriminator 2 view .LVU1092
 2960              	.LBE165:
 764:lvgl/src/draw/sw/lv_draw_sw_rect.c ****         int32_t x;
 2961              		.loc 1 764 34 is_stmt 1 discriminator 2 view .LVU1093
 2962 08e0 0135     		adds	r5, r5, #1
 2963              	.LVL282:
 764:lvgl/src/draw/sw/lv_draw_sw_rect.c ****         int32_t x;
 2964              		.loc 1 764 34 is_stmt 0 discriminator 2 view .LVU1094
 2965 08e2 2DB2     		sxth	r5, r5
 2966              	.LVL283:
 2967              	.L134:
 764:lvgl/src/draw/sw/lv_draw_sw_rect.c ****         int32_t x;
 2968              		.loc 1 764 18 is_stmt 1 discriminator 1 view .LVU1095
 2969 08e4 A542     		cmp	r5, r4
 2970 08e6 04DA     		bge	.L204
 2971              	.LBB166:
 765:lvgl/src/draw/sw/lv_draw_sw_rect.c ****         lv_opa_t * start = sh_buf_tmp;
 2972              		.loc 1 765 9 view .LVU1096
 766:lvgl/src/draw/sw/lv_draw_sw_rect.c ****         lv_opa_t * end = sh_buf_tmp + corner_size - 1;
 2973              		.loc 1 766 9 view .LVU1097
 2974              	.LVL284:
 767:lvgl/src/draw/sw/lv_draw_sw_rect.c ****         for(x = 0; x < corner_size / 2; x++) {
 2975              		.loc 1 767 9 view .LVU1098
 767:lvgl/src/draw/sw/lv_draw_sw_rect.c ****         for(x = 0; x < corner_size / 2; x++) {
 2976              		.loc 1 767 51 is_stmt 0 view .LVU1099
 2977 08e8 631E     		subs	r3, r4, #1
 767:lvgl/src/draw/sw/lv_draw_sw_rect.c ****         for(x = 0; x < corner_size / 2; x++) {
 2978              		.loc 1 767 20 view .LVU1100
 2979 08ea 6344     		add	r3, r3, ip
 2980              	.LVL285:
 768:lvgl/src/draw/sw/lv_draw_sw_rect.c ****             lv_opa_t tmp = *start;
 2981              		.loc 1 768 9 is_stmt 1 view .LVU1101
 766:lvgl/src/draw/sw/lv_draw_sw_rect.c ****         lv_opa_t * end = sh_buf_tmp + corner_size - 1;
 2982              		.loc 1 766 20 is_stmt 0 view .LVU1102
 2983 08ec 6146     		mov	r1, ip
 768:lvgl/src/draw/sw/lv_draw_sw_rect.c ****             lv_opa_t tmp = *start;
 2984              		.loc 1 768 15 view .LVU1103
 2985 08ee 0022     		movs	r2, #0
 768:lvgl/src/draw/sw/lv_draw_sw_rect.c ****             lv_opa_t tmp = *start;
 2986              		.loc 1 768 9 view .LVU1104
 2987 08f0 F0E7     		b	.L132
 2988              	.LVL286:
 2989              	.L204:
 768:lvgl/src/draw/sw/lv_draw_sw_rect.c ****             lv_opa_t tmp = *start;
 2990              		.loc 1 768 9 view .LVU1105
 2991              	.LBE166:
 780:lvgl/src/draw/sw/lv_draw_sw_rect.c ****     blend_area.x2 = shadow_area.x1 + corner_size - 1;
ARM GAS  /var/folders/21/t9g5rlb91ys800n5npymflf80000gn/T//cca4dfU0.s 			page 98


 2992              		.loc 1 780 5 is_stmt 1 view .LVU1106
 780:lvgl/src/draw/sw/lv_draw_sw_rect.c ****     blend_area.x2 = shadow_area.x1 + corner_size - 1;
 2993              		.loc 1 780 32 is_stmt 0 view .LVU1107
 2994 08f2 BDF98830 		ldrsh	r3, [sp, #136]
 780:lvgl/src/draw/sw/lv_draw_sw_rect.c ****     blend_area.x2 = shadow_area.x1 + corner_size - 1;
 2995              		.loc 1 780 19 view .LVU1108
 2996 08f6 ADF85830 		strh	r3, [sp, #88]	@ movhi
 781:lvgl/src/draw/sw/lv_draw_sw_rect.c ****     blend_area.y1 = shadow_area.y1 + corner_size;
 2997              		.loc 1 781 5 is_stmt 1 view .LVU1109
 781:lvgl/src/draw/sw/lv_draw_sw_rect.c ****     blend_area.y1 = shadow_area.y1 + corner_size;
 2998              		.loc 1 781 36 is_stmt 0 view .LVU1110
 2999 08fa 17FA83F3 		uxtah	r3, r7, r3
 3000 08fe 9BB2     		uxth	r3, r3
 781:lvgl/src/draw/sw/lv_draw_sw_rect.c ****     blend_area.y1 = shadow_area.y1 + corner_size;
 3001              		.loc 1 781 50 view .LVU1111
 3002 0900 013B     		subs	r3, r3, #1
 3003 0902 1BB2     		sxth	r3, r3
 781:lvgl/src/draw/sw/lv_draw_sw_rect.c ****     blend_area.y1 = shadow_area.y1 + corner_size;
 3004              		.loc 1 781 19 view .LVU1112
 3005 0904 ADF85C30 		strh	r3, [sp, #92]	@ movhi
 782:lvgl/src/draw/sw/lv_draw_sw_rect.c ****     blend_area.y2 = shadow_area.y2 - corner_size;
 3006              		.loc 1 782 5 is_stmt 1 view .LVU1113
 782:lvgl/src/draw/sw/lv_draw_sw_rect.c ****     blend_area.y2 = shadow_area.y2 - corner_size;
 3007              		.loc 1 782 32 is_stmt 0 view .LVU1114
 3008 0908 BDF88A10 		ldrh	r1, [sp, #138]
 782:lvgl/src/draw/sw/lv_draw_sw_rect.c ****     blend_area.y2 = shadow_area.y2 - corner_size;
 3009              		.loc 1 782 36 view .LVU1115
 3010 090c 3944     		add	r1, r1, r7
 3011 090e 09B2     		sxth	r1, r1
 782:lvgl/src/draw/sw/lv_draw_sw_rect.c ****     blend_area.y2 = shadow_area.y2 - corner_size;
 3012              		.loc 1 782 19 view .LVU1116
 3013 0910 ADF85A10 		strh	r1, [sp, #90]	@ movhi
 783:lvgl/src/draw/sw/lv_draw_sw_rect.c ****     /*Do not overdraw the other corners*/
 3014              		.loc 1 783 5 is_stmt 1 view .LVU1117
 783:lvgl/src/draw/sw/lv_draw_sw_rect.c ****     /*Do not overdraw the other corners*/
 3015              		.loc 1 783 32 is_stmt 0 view .LVU1118
 3016 0914 BDF88E20 		ldrh	r2, [sp, #142]
 783:lvgl/src/draw/sw/lv_draw_sw_rect.c ****     /*Do not overdraw the other corners*/
 3017              		.loc 1 783 36 view .LVU1119
 3018 0918 D21B     		subs	r2, r2, r7
 3019 091a 12B2     		sxth	r2, r2
 783:lvgl/src/draw/sw/lv_draw_sw_rect.c ****     /*Do not overdraw the other corners*/
 3020              		.loc 1 783 19 view .LVU1120
 3021 091c ADF85E20 		strh	r2, [sp, #94]	@ movhi
 785:lvgl/src/draw/sw/lv_draw_sw_rect.c ****     blend_area.y2 = LV_MAX(blend_area.y2, h_half);
 3022              		.loc 1 785 5 is_stmt 1 view .LVU1121
 785:lvgl/src/draw/sw/lv_draw_sw_rect.c ****     blend_area.y2 = LV_MAX(blend_area.y2, h_half);
 3023              		.loc 1 785 19 is_stmt 0 view .LVU1122
 3024 0920 4145     		cmp	r1, r8
 3025 0922 02DD     		ble	.L136
 785:lvgl/src/draw/sw/lv_draw_sw_rect.c ****     blend_area.y2 = LV_MAX(blend_area.y2, h_half);
 3026              		.loc 1 785 21 discriminator 2 view .LVU1123
 3027 0924 0699     		ldr	r1, [sp, #24]
 3028 0926 0131     		adds	r1, r1, #1
 785:lvgl/src/draw/sw/lv_draw_sw_rect.c ****     blend_area.y2 = LV_MAX(blend_area.y2, h_half);
 3029              		.loc 1 785 19 discriminator 2 view .LVU1124
 3030 0928 09B2     		sxth	r1, r1
ARM GAS  /var/folders/21/t9g5rlb91ys800n5npymflf80000gn/T//cca4dfU0.s 			page 99


 3031              	.L136:
 785:lvgl/src/draw/sw/lv_draw_sw_rect.c ****     blend_area.y2 = LV_MAX(blend_area.y2, h_half);
 3032              		.loc 1 785 19 discriminator 4 view .LVU1125
 3033 092a ADF85A10 		strh	r1, [sp, #90]	@ movhi
 786:lvgl/src/draw/sw/lv_draw_sw_rect.c ****     blend_area.x2 = LV_MIN(blend_area.x2, w_half - 1);
 3034              		.loc 1 786 5 is_stmt 1 discriminator 4 view .LVU1126
 786:lvgl/src/draw/sw/lv_draw_sw_rect.c ****     blend_area.x2 = LV_MIN(blend_area.x2, w_half - 1);
 3035              		.loc 1 786 21 is_stmt 0 discriminator 4 view .LVU1127
 3036 092e 4245     		cmp	r2, r8
 3037 0930 B8BF     		it	lt
 3038 0932 4246     		movlt	r2, r8
 786:lvgl/src/draw/sw/lv_draw_sw_rect.c ****     blend_area.x2 = LV_MIN(blend_area.x2, w_half - 1);
 3039              		.loc 1 786 19 discriminator 4 view .LVU1128
 3040 0934 ADF85E20 		strh	r2, [sp, #94]	@ movhi
 787:lvgl/src/draw/sw/lv_draw_sw_rect.c **** 
 3041              		.loc 1 787 5 is_stmt 1 discriminator 4 view .LVU1129
 787:lvgl/src/draw/sw/lv_draw_sw_rect.c **** 
 3042              		.loc 1 787 21 is_stmt 0 discriminator 4 view .LVU1130
 3043 0938 029A     		ldr	r2, [sp, #8]
 3044 093a 551E     		subs	r5, r2, #1
 3045              	.LVL287:
 787:lvgl/src/draw/sw/lv_draw_sw_rect.c **** 
 3046              		.loc 1 787 21 discriminator 4 view .LVU1131
 3047 093c AB42     		cmp	r3, r5
 3048 093e A8BF     		it	ge
 3049 0940 2B46     		movge	r3, r5
 787:lvgl/src/draw/sw/lv_draw_sw_rect.c **** 
 3050              		.loc 1 787 19 discriminator 4 view .LVU1132
 3051 0942 ADF85C30 		strh	r3, [sp, #92]	@ movhi
 789:lvgl/src/draw/sw/lv_draw_sw_rect.c ****        !_lv_area_is_in(&clip_area_sub, &bg_area, r_bg)) {
 3052              		.loc 1 789 5 is_stmt 1 discriminator 4 view .LVU1133
 789:lvgl/src/draw/sw/lv_draw_sw_rect.c ****        !_lv_area_is_in(&clip_area_sub, &bg_area, r_bg)) {
 3053              		.loc 1 789 8 is_stmt 0 discriminator 4 view .LVU1134
 3054 0946 B268     		ldr	r2, [r6, #8]
 3055 0948 16A9     		add	r1, sp, #88
 3056 094a 14A8     		add	r0, sp, #80
 3057 094c FFF7FEFF 		bl	_lv_area_intersect
 3058              	.LVL288:
 789:lvgl/src/draw/sw/lv_draw_sw_rect.c ****        !_lv_area_is_in(&clip_area_sub, &bg_area, r_bg)) {
 3059              		.loc 1 789 7 discriminator 4 view .LVU1135
 3060 0950 0028     		cmp	r0, #0
 3061 0952 7AD1     		bne	.L205
 3062              	.LVL289:
 3063              	.L137:
 820:lvgl/src/draw/sw/lv_draw_sw_rect.c ****     blend_area.x2 = shadow_area.x1 + corner_size - 1;
 3064              		.loc 1 820 5 is_stmt 1 view .LVU1136
 820:lvgl/src/draw/sw/lv_draw_sw_rect.c ****     blend_area.x2 = shadow_area.x1 + corner_size - 1;
 3065              		.loc 1 820 32 is_stmt 0 view .LVU1137
 3066 0954 BDF98830 		ldrsh	r3, [sp, #136]
 820:lvgl/src/draw/sw/lv_draw_sw_rect.c ****     blend_area.x2 = shadow_area.x1 + corner_size - 1;
 3067              		.loc 1 820 19 view .LVU1138
 3068 0958 ADF85830 		strh	r3, [sp, #88]	@ movhi
 821:lvgl/src/draw/sw/lv_draw_sw_rect.c ****     blend_area.y1 = shadow_area.y1;
 3069              		.loc 1 821 5 is_stmt 1 view .LVU1139
 821:lvgl/src/draw/sw/lv_draw_sw_rect.c ****     blend_area.y1 = shadow_area.y1;
 3070              		.loc 1 821 36 is_stmt 0 view .LVU1140
 3071 095c 17FA83F2 		uxtah	r2, r7, r3
ARM GAS  /var/folders/21/t9g5rlb91ys800n5npymflf80000gn/T//cca4dfU0.s 			page 100


 3072 0960 92B2     		uxth	r2, r2
 821:lvgl/src/draw/sw/lv_draw_sw_rect.c ****     blend_area.y1 = shadow_area.y1;
 3073              		.loc 1 821 50 view .LVU1141
 3074 0962 013A     		subs	r2, r2, #1
 3075 0964 12B2     		sxth	r2, r2
 821:lvgl/src/draw/sw/lv_draw_sw_rect.c ****     blend_area.y1 = shadow_area.y1;
 3076              		.loc 1 821 19 view .LVU1142
 3077 0966 ADF85C20 		strh	r2, [sp, #92]	@ movhi
 822:lvgl/src/draw/sw/lv_draw_sw_rect.c ****     blend_area.y2 = shadow_area.y1 + corner_size - 1;
 3078              		.loc 1 822 5 is_stmt 1 view .LVU1143
 822:lvgl/src/draw/sw/lv_draw_sw_rect.c ****     blend_area.y2 = shadow_area.y1 + corner_size - 1;
 3079              		.loc 1 822 32 is_stmt 0 view .LVU1144
 3080 096a BDF98A30 		ldrsh	r3, [sp, #138]
 822:lvgl/src/draw/sw/lv_draw_sw_rect.c ****     blend_area.y2 = shadow_area.y1 + corner_size - 1;
 3081              		.loc 1 822 19 view .LVU1145
 3082 096e ADF85A30 		strh	r3, [sp, #90]	@ movhi
 823:lvgl/src/draw/sw/lv_draw_sw_rect.c ****     /*Do not overdraw the other corners*/
 3083              		.loc 1 823 5 is_stmt 1 view .LVU1146
 823:lvgl/src/draw/sw/lv_draw_sw_rect.c ****     /*Do not overdraw the other corners*/
 3084              		.loc 1 823 36 is_stmt 0 view .LVU1147
 3085 0972 17FA83F3 		uxtah	r3, r7, r3
 3086 0976 9BB2     		uxth	r3, r3
 823:lvgl/src/draw/sw/lv_draw_sw_rect.c ****     /*Do not overdraw the other corners*/
 3087              		.loc 1 823 50 view .LVU1148
 3088 0978 013B     		subs	r3, r3, #1
 3089 097a 1BB2     		sxth	r3, r3
 823:lvgl/src/draw/sw/lv_draw_sw_rect.c ****     /*Do not overdraw the other corners*/
 3090              		.loc 1 823 19 view .LVU1149
 3091 097c ADF85E30 		strh	r3, [sp, #94]	@ movhi
 825:lvgl/src/draw/sw/lv_draw_sw_rect.c ****     blend_area.y2 = LV_MIN(blend_area.y2, h_half);
 3092              		.loc 1 825 5 is_stmt 1 view .LVU1150
 825:lvgl/src/draw/sw/lv_draw_sw_rect.c ****     blend_area.y2 = LV_MIN(blend_area.y2, h_half);
 3093              		.loc 1 825 21 is_stmt 0 view .LVU1151
 3094 0980 AA42     		cmp	r2, r5
 3095 0982 A8BF     		it	ge
 3096 0984 2A46     		movge	r2, r5
 825:lvgl/src/draw/sw/lv_draw_sw_rect.c ****     blend_area.y2 = LV_MIN(blend_area.y2, h_half);
 3097              		.loc 1 825 19 view .LVU1152
 3098 0986 ADF85C20 		strh	r2, [sp, #92]	@ movhi
 826:lvgl/src/draw/sw/lv_draw_sw_rect.c **** 
 3099              		.loc 1 826 5 is_stmt 1 view .LVU1153
 826:lvgl/src/draw/sw/lv_draw_sw_rect.c **** 
 3100              		.loc 1 826 21 is_stmt 0 view .LVU1154
 3101 098a 4345     		cmp	r3, r8
 3102 098c A8BF     		it	ge
 3103 098e 4346     		movge	r3, r8
 826:lvgl/src/draw/sw/lv_draw_sw_rect.c **** 
 3104              		.loc 1 826 19 view .LVU1155
 3105 0990 ADF85E30 		strh	r3, [sp, #94]	@ movhi
 828:lvgl/src/draw/sw/lv_draw_sw_rect.c ****        !_lv_area_is_in(&clip_area_sub, &bg_area, r_bg)) {
 3106              		.loc 1 828 5 is_stmt 1 view .LVU1156
 828:lvgl/src/draw/sw/lv_draw_sw_rect.c ****        !_lv_area_is_in(&clip_area_sub, &bg_area, r_bg)) {
 3107              		.loc 1 828 8 is_stmt 0 view .LVU1157
 3108 0994 B268     		ldr	r2, [r6, #8]
 3109 0996 16A9     		add	r1, sp, #88
 3110 0998 14A8     		add	r0, sp, #80
 3111 099a FFF7FEFF 		bl	_lv_area_intersect
ARM GAS  /var/folders/21/t9g5rlb91ys800n5npymflf80000gn/T//cca4dfU0.s 			page 101


 3112              	.LVL290:
 828:lvgl/src/draw/sw/lv_draw_sw_rect.c ****        !_lv_area_is_in(&clip_area_sub, &bg_area, r_bg)) {
 3113              		.loc 1 828 7 view .LVU1158
 3114 099e 0028     		cmp	r0, #0
 3115 09a0 40F0C380 		bne	.L206
 3116              	.L142:
 865:lvgl/src/draw/sw/lv_draw_sw_rect.c ****     blend_area.x2 = shadow_area.x1 + corner_size - 1;
 3117              		.loc 1 865 5 is_stmt 1 view .LVU1159
 865:lvgl/src/draw/sw/lv_draw_sw_rect.c ****     blend_area.x2 = shadow_area.x1 + corner_size - 1;
 3118              		.loc 1 865 32 is_stmt 0 view .LVU1160
 3119 09a4 BDF98830 		ldrsh	r3, [sp, #136]
 865:lvgl/src/draw/sw/lv_draw_sw_rect.c ****     blend_area.x2 = shadow_area.x1 + corner_size - 1;
 3120              		.loc 1 865 19 view .LVU1161
 3121 09a8 ADF85830 		strh	r3, [sp, #88]	@ movhi
 866:lvgl/src/draw/sw/lv_draw_sw_rect.c ****     blend_area.y1 = shadow_area.y2 - corner_size + 1;
 3122              		.loc 1 866 5 is_stmt 1 view .LVU1162
 866:lvgl/src/draw/sw/lv_draw_sw_rect.c ****     blend_area.y1 = shadow_area.y2 - corner_size + 1;
 3123              		.loc 1 866 36 is_stmt 0 view .LVU1163
 3124 09ac 17FA83F3 		uxtah	r3, r7, r3
 3125 09b0 9BB2     		uxth	r3, r3
 866:lvgl/src/draw/sw/lv_draw_sw_rect.c ****     blend_area.y1 = shadow_area.y2 - corner_size + 1;
 3126              		.loc 1 866 50 view .LVU1164
 3127 09b2 013B     		subs	r3, r3, #1
 3128 09b4 1BB2     		sxth	r3, r3
 866:lvgl/src/draw/sw/lv_draw_sw_rect.c ****     blend_area.y1 = shadow_area.y2 - corner_size + 1;
 3129              		.loc 1 866 19 view .LVU1165
 3130 09b6 ADF85C30 		strh	r3, [sp, #92]	@ movhi
 867:lvgl/src/draw/sw/lv_draw_sw_rect.c ****     blend_area.y2 = shadow_area.y2;
 3131              		.loc 1 867 5 is_stmt 1 view .LVU1166
 867:lvgl/src/draw/sw/lv_draw_sw_rect.c ****     blend_area.y2 = shadow_area.y2;
 3132              		.loc 1 867 32 is_stmt 0 view .LVU1167
 3133 09ba BDF98E10 		ldrsh	r1, [sp, #142]
 3134 09be 8AB2     		uxth	r2, r1
 867:lvgl/src/draw/sw/lv_draw_sw_rect.c ****     blend_area.y2 = shadow_area.y2;
 3135              		.loc 1 867 36 view .LVU1168
 3136 09c0 D21B     		subs	r2, r2, r7
 3137 09c2 92B2     		uxth	r2, r2
 867:lvgl/src/draw/sw/lv_draw_sw_rect.c ****     blend_area.y2 = shadow_area.y2;
 3138              		.loc 1 867 50 view .LVU1169
 3139 09c4 0132     		adds	r2, r2, #1
 3140 09c6 12B2     		sxth	r2, r2
 867:lvgl/src/draw/sw/lv_draw_sw_rect.c ****     blend_area.y2 = shadow_area.y2;
 3141              		.loc 1 867 19 view .LVU1170
 3142 09c8 ADF85A20 		strh	r2, [sp, #90]	@ movhi
 868:lvgl/src/draw/sw/lv_draw_sw_rect.c ****     /*Do not overdraw the other corners*/
 3143              		.loc 1 868 5 is_stmt 1 view .LVU1171
 868:lvgl/src/draw/sw/lv_draw_sw_rect.c ****     /*Do not overdraw the other corners*/
 3144              		.loc 1 868 19 is_stmt 0 view .LVU1172
 3145 09cc ADF85E10 		strh	r1, [sp, #94]	@ movhi
 870:lvgl/src/draw/sw/lv_draw_sw_rect.c ****     blend_area.x2 = LV_MIN(blend_area.x2, w_half - 1);
 3146              		.loc 1 870 5 is_stmt 1 view .LVU1173
 870:lvgl/src/draw/sw/lv_draw_sw_rect.c ****     blend_area.x2 = LV_MIN(blend_area.x2, w_half - 1);
 3147              		.loc 1 870 21 is_stmt 0 view .LVU1174
 3148 09d0 0599     		ldr	r1, [sp, #20]
 3149 09d2 9142     		cmp	r1, r2
 3150 09d4 B8BF     		it	lt
 3151 09d6 1146     		movlt	r1, r2
ARM GAS  /var/folders/21/t9g5rlb91ys800n5npymflf80000gn/T//cca4dfU0.s 			page 102


 870:lvgl/src/draw/sw/lv_draw_sw_rect.c ****     blend_area.x2 = LV_MIN(blend_area.x2, w_half - 1);
 3152              		.loc 1 870 19 view .LVU1175
 3153 09d8 ADF85A10 		strh	r1, [sp, #90]	@ movhi
 871:lvgl/src/draw/sw/lv_draw_sw_rect.c **** 
 3154              		.loc 1 871 5 is_stmt 1 view .LVU1176
 871:lvgl/src/draw/sw/lv_draw_sw_rect.c **** 
 3155              		.loc 1 871 21 is_stmt 0 view .LVU1177
 3156 09dc 9D42     		cmp	r5, r3
 3157 09de A8BF     		it	ge
 3158 09e0 1D46     		movge	r5, r3
 871:lvgl/src/draw/sw/lv_draw_sw_rect.c **** 
 3159              		.loc 1 871 19 view .LVU1178
 3160 09e2 ADF85C50 		strh	r5, [sp, #92]	@ movhi
 873:lvgl/src/draw/sw/lv_draw_sw_rect.c ****        !_lv_area_is_in(&clip_area_sub, &bg_area, r_bg)) {
 3161              		.loc 1 873 5 is_stmt 1 view .LVU1179
 873:lvgl/src/draw/sw/lv_draw_sw_rect.c ****        !_lv_area_is_in(&clip_area_sub, &bg_area, r_bg)) {
 3162              		.loc 1 873 8 is_stmt 0 view .LVU1180
 3163 09e6 B268     		ldr	r2, [r6, #8]
 3164 09e8 16A9     		add	r1, sp, #88
 3165 09ea 14A8     		add	r0, sp, #80
 3166 09ec FFF7FEFF 		bl	_lv_area_intersect
 3167              	.LVL291:
 873:lvgl/src/draw/sw/lv_draw_sw_rect.c ****        !_lv_area_is_in(&clip_area_sub, &bg_area, r_bg)) {
 3168              		.loc 1 873 7 view .LVU1181
 3169 09f0 0028     		cmp	r0, #0
 3170 09f2 40F01081 		bne	.L207
 3171              	.LVL292:
 3172              	.L148:
 907:lvgl/src/draw/sw/lv_draw_sw_rect.c ****     blend_area.x2 = shadow_area.x2 - corner_size;
 3173              		.loc 1 907 5 is_stmt 1 view .LVU1182
 907:lvgl/src/draw/sw/lv_draw_sw_rect.c ****     blend_area.x2 = shadow_area.x2 - corner_size;
 3174              		.loc 1 907 32 is_stmt 0 view .LVU1183
 3175 09f6 BDF88830 		ldrh	r3, [sp, #136]
 907:lvgl/src/draw/sw/lv_draw_sw_rect.c ****     blend_area.x2 = shadow_area.x2 - corner_size;
 3176              		.loc 1 907 36 view .LVU1184
 3177 09fa 3B44     		add	r3, r3, r7
 907:lvgl/src/draw/sw/lv_draw_sw_rect.c ****     blend_area.x2 = shadow_area.x2 - corner_size;
 3178              		.loc 1 907 19 view .LVU1185
 3179 09fc ADF85830 		strh	r3, [sp, #88]	@ movhi
 908:lvgl/src/draw/sw/lv_draw_sw_rect.c ****     blend_area.y1 = shadow_area.y1 + corner_size;
 3180              		.loc 1 908 5 is_stmt 1 view .LVU1186
 908:lvgl/src/draw/sw/lv_draw_sw_rect.c ****     blend_area.y1 = shadow_area.y1 + corner_size;
 3181              		.loc 1 908 32 is_stmt 0 view .LVU1187
 3182 0a00 BDF88C30 		ldrh	r3, [sp, #140]
 908:lvgl/src/draw/sw/lv_draw_sw_rect.c ****     blend_area.y1 = shadow_area.y1 + corner_size;
 3183              		.loc 1 908 36 view .LVU1188
 3184 0a04 DB1B     		subs	r3, r3, r7
 908:lvgl/src/draw/sw/lv_draw_sw_rect.c ****     blend_area.y1 = shadow_area.y1 + corner_size;
 3185              		.loc 1 908 19 view .LVU1189
 3186 0a06 ADF85C30 		strh	r3, [sp, #92]	@ movhi
 909:lvgl/src/draw/sw/lv_draw_sw_rect.c ****     blend_area.y2 = shadow_area.y2 - corner_size;
 3187              		.loc 1 909 5 is_stmt 1 view .LVU1190
 909:lvgl/src/draw/sw/lv_draw_sw_rect.c ****     blend_area.y2 = shadow_area.y2 - corner_size;
 3188              		.loc 1 909 32 is_stmt 0 view .LVU1191
 3189 0a0a BDF88A30 		ldrh	r3, [sp, #138]
 909:lvgl/src/draw/sw/lv_draw_sw_rect.c ****     blend_area.y2 = shadow_area.y2 - corner_size;
 3190              		.loc 1 909 36 view .LVU1192
ARM GAS  /var/folders/21/t9g5rlb91ys800n5npymflf80000gn/T//cca4dfU0.s 			page 103


 3191 0a0e 3B44     		add	r3, r3, r7
 909:lvgl/src/draw/sw/lv_draw_sw_rect.c ****     blend_area.y2 = shadow_area.y2 - corner_size;
 3192              		.loc 1 909 19 view .LVU1193
 3193 0a10 ADF85A30 		strh	r3, [sp, #90]	@ movhi
 910:lvgl/src/draw/sw/lv_draw_sw_rect.c ****     blend_dsc.mask_buf = mask_buf;
 3194              		.loc 1 910 5 is_stmt 1 view .LVU1194
 910:lvgl/src/draw/sw/lv_draw_sw_rect.c ****     blend_dsc.mask_buf = mask_buf;
 3195              		.loc 1 910 32 is_stmt 0 view .LVU1195
 3196 0a14 BDF88E30 		ldrh	r3, [sp, #142]
 910:lvgl/src/draw/sw/lv_draw_sw_rect.c ****     blend_dsc.mask_buf = mask_buf;
 3197              		.loc 1 910 36 view .LVU1196
 3198 0a18 DB1B     		subs	r3, r3, r7
 910:lvgl/src/draw/sw/lv_draw_sw_rect.c ****     blend_dsc.mask_buf = mask_buf;
 3199              		.loc 1 910 19 view .LVU1197
 3200 0a1a ADF85E30 		strh	r3, [sp, #94]	@ movhi
 911:lvgl/src/draw/sw/lv_draw_sw_rect.c **** 
 3201              		.loc 1 911 5 is_stmt 1 view .LVU1198
 911:lvgl/src/draw/sw/lv_draw_sw_rect.c **** 
 3202              		.loc 1 911 24 is_stmt 0 view .LVU1199
 3203 0a1e 049B     		ldr	r3, [sp, #16]
 3204 0a20 1093     		str	r3, [sp, #64]
 913:lvgl/src/draw/sw/lv_draw_sw_rect.c ****        !_lv_area_is_in(&clip_area_sub, &bg_area, r_bg)) {
 3205              		.loc 1 913 5 is_stmt 1 view .LVU1200
 913:lvgl/src/draw/sw/lv_draw_sw_rect.c ****        !_lv_area_is_in(&clip_area_sub, &bg_area, r_bg)) {
 3206              		.loc 1 913 8 is_stmt 0 view .LVU1201
 3207 0a22 B268     		ldr	r2, [r6, #8]
 3208 0a24 16A9     		add	r1, sp, #88
 3209 0a26 14A8     		add	r0, sp, #80
 3210 0a28 FFF7FEFF 		bl	_lv_area_intersect
 3211              	.LVL293:
 913:lvgl/src/draw/sw/lv_draw_sw_rect.c ****        !_lv_area_is_in(&clip_area_sub, &bg_area, r_bg)) {
 3212              		.loc 1 913 7 view .LVU1202
 3213 0a2c 0028     		cmp	r0, #0
 3214 0a2e 40F06781 		bne	.L208
 3215              	.L154:
 930:lvgl/src/draw/sw/lv_draw_sw_rect.c ****         lv_draw_mask_free_param(&mask_rout_param);
 3216              		.loc 1 930 5 is_stmt 1 view .LVU1203
 930:lvgl/src/draw/sw/lv_draw_sw_rect.c ****         lv_draw_mask_free_param(&mask_rout_param);
 3217              		.loc 1 930 7 is_stmt 0 view .LVU1204
 3218 0a32 009B     		ldr	r3, [sp]
 3219 0a34 002B     		cmp	r3, #0
 3220 0a36 00F09C81 		beq	.L209
 3221              	.L157:
 934:lvgl/src/draw/sw/lv_draw_sw_rect.c ****     lv_mem_buf_release(mask_buf);
 3222              		.loc 1 934 5 is_stmt 1 view .LVU1205
 3223 0a3a 0398     		ldr	r0, [sp, #12]
 3224 0a3c FFF7FEFF 		bl	lv_mem_buf_release
 3225              	.LVL294:
 935:lvgl/src/draw/sw/lv_draw_sw_rect.c **** }
 3226              		.loc 1 935 5 view .LVU1206
 3227 0a40 0498     		ldr	r0, [sp, #16]
 3228 0a42 FFF7FEFF 		bl	lv_mem_buf_release
 3229              	.LVL295:
 3230 0a46 FFF735BB 		b	.L81
 3231              	.LVL296:
 3232              	.L205:
 790:lvgl/src/draw/sw/lv_draw_sw_rect.c ****         lv_coord_t w = lv_area_get_width(&clip_area_sub);
ARM GAS  /var/folders/21/t9g5rlb91ys800n5npymflf80000gn/T//cca4dfU0.s 			page 104


 3233              		.loc 1 790 9 is_stmt 0 discriminator 1 view .LVU1207
 3234 0a4a BDF90490 		ldrsh	r9, [sp, #4]
 3235 0a4e 4A46     		mov	r2, r9
 3236 0a50 1EA9     		add	r1, sp, #120
 3237 0a52 14A8     		add	r0, sp, #80
 3238 0a54 FFF7FEFF 		bl	_lv_area_is_in
 3239              	.LVL297:
 789:lvgl/src/draw/sw/lv_draw_sw_rect.c ****        !_lv_area_is_in(&clip_area_sub, &bg_area, r_bg)) {
 3240              		.loc 1 789 77 discriminator 1 view .LVU1208
 3241 0a58 0028     		cmp	r0, #0
 3242 0a5a 7FF47BAF 		bne	.L137
 3243              	.LBB167:
 791:lvgl/src/draw/sw/lv_draw_sw_rect.c ****         sh_buf_tmp = sh_buf;
 3244              		.loc 1 791 9 is_stmt 1 view .LVU1209
 3245              	.LVL298:
 3246              	.LBB168:
 3247              	.LBI168:
 123:lvgl/src/draw/sw/../../misc/lv_area.h **** {
 3248              		.loc 2 123 26 view .LVU1210
 3249              	.LBB169:
 125:lvgl/src/draw/sw/../../misc/lv_area.h **** }
 3250              		.loc 2 125 5 view .LVU1211
 125:lvgl/src/draw/sw/../../misc/lv_area.h **** }
 3251              		.loc 2 125 31 is_stmt 0 view .LVU1212
 3252 0a5e BDF85430 		ldrh	r3, [sp, #84]
 125:lvgl/src/draw/sw/../../misc/lv_area.h **** }
 3253              		.loc 2 125 44 view .LVU1213
 3254 0a62 BDF95020 		ldrsh	r2, [sp, #80]
 3255 0a66 91B2     		uxth	r1, r2
 125:lvgl/src/draw/sw/../../misc/lv_area.h **** }
 3256              		.loc 2 125 36 view .LVU1214
 3257 0a68 5B1A     		subs	r3, r3, r1
 3258 0a6a 9BB2     		uxth	r3, r3
 125:lvgl/src/draw/sw/../../misc/lv_area.h **** }
 3259              		.loc 2 125 49 view .LVU1215
 3260 0a6c 0133     		adds	r3, r3, #1
 125:lvgl/src/draw/sw/../../misc/lv_area.h **** }
 3261              		.loc 2 125 12 view .LVU1216
 3262 0a6e 0FFA83FB 		sxth	fp, r3
 3263              	.LVL299:
 125:lvgl/src/draw/sw/../../misc/lv_area.h **** }
 3264              		.loc 2 125 12 view .LVU1217
 3265              	.LBE169:
 3266              	.LBE168:
 792:lvgl/src/draw/sw/lv_draw_sw_rect.c ****         sh_buf_tmp += (corner_size - 1) * corner_size;
 3267              		.loc 1 792 9 is_stmt 1 view .LVU1218
 793:lvgl/src/draw/sw/lv_draw_sw_rect.c ****         sh_buf_tmp += clip_area_sub.x1 - blend_area.x1;
 3268              		.loc 1 793 9 view .LVU1219
 793:lvgl/src/draw/sw/lv_draw_sw_rect.c ****         sh_buf_tmp += clip_area_sub.x1 - blend_area.x1;
 3269              		.loc 1 793 36 is_stmt 0 view .LVU1220
 3270 0a72 611E     		subs	r1, r4, #1
 3271              	.LVL300:
 794:lvgl/src/draw/sw/lv_draw_sw_rect.c **** 
 3272              		.loc 1 794 9 is_stmt 1 view .LVU1221
 794:lvgl/src/draw/sw/lv_draw_sw_rect.c **** 
 3273              		.loc 1 794 52 is_stmt 0 view .LVU1222
 3274 0a74 BDF95830 		ldrsh	r3, [sp, #88]
ARM GAS  /var/folders/21/t9g5rlb91ys800n5npymflf80000gn/T//cca4dfU0.s 			page 105


 794:lvgl/src/draw/sw/lv_draw_sw_rect.c **** 
 3275              		.loc 1 794 40 view .LVU1223
 3276 0a78 D31A     		subs	r3, r2, r3
 794:lvgl/src/draw/sw/lv_draw_sw_rect.c **** 
 3277              		.loc 1 794 20 view .LVU1224
 3278 0a7a 04FB0133 		mla	r3, r4, r1, r3
 3279 0a7e 039A     		ldr	r2, [sp, #12]
 3280 0a80 D318     		adds	r3, r2, r3
 3281 0a82 0293     		str	r3, [sp, #8]
 3282              	.LVL301:
 797:lvgl/src/draw/sw/lv_draw_sw_rect.c ****         else simple_sub = simple;
 3283              		.loc 1 797 9 is_stmt 1 view .LVU1225
 797:lvgl/src/draw/sw/lv_draw_sw_rect.c ****         else simple_sub = simple;
 3284              		.loc 1 797 11 is_stmt 0 view .LVU1226
 3285 0a84 009B     		ldr	r3, [sp]
 3286              	.LVL302:
 797:lvgl/src/draw/sw/lv_draw_sw_rect.c ****         else simple_sub = simple;
 3287              		.loc 1 797 11 view .LVU1227
 3288 0a86 D3B9     		cbnz	r3, .L210
 3289 0a88 DDF800A0 		ldr	r10, [sp]
 799:lvgl/src/draw/sw/lv_draw_sw_rect.c ****         if(w > 0) {
 3290              		.loc 1 799 54 view .LVU1228
 3291 0a8c 049B     		ldr	r3, [sp, #16]
 3292              	.L138:
 799:lvgl/src/draw/sw/lv_draw_sw_rect.c ****         if(w > 0) {
 3293              		.loc 1 799 28 discriminator 4 view .LVU1229
 3294 0a8e 1093     		str	r3, [sp, #64]
 800:lvgl/src/draw/sw/lv_draw_sw_rect.c ****             blend_area.x1 = clip_area_sub.x1;
 3295              		.loc 1 800 9 is_stmt 1 discriminator 4 view .LVU1230
 800:lvgl/src/draw/sw/lv_draw_sw_rect.c ****             blend_area.x1 = clip_area_sub.x1;
 3296              		.loc 1 800 11 is_stmt 0 discriminator 4 view .LVU1231
 3297 0a90 BBF1000F 		cmp	fp, #0
 3298 0a94 7FF75EAF 		ble	.L137
 801:lvgl/src/draw/sw/lv_draw_sw_rect.c ****             blend_area.x2 = clip_area_sub.x2;
 3299              		.loc 1 801 13 is_stmt 1 view .LVU1232
 801:lvgl/src/draw/sw/lv_draw_sw_rect.c ****             blend_area.x2 = clip_area_sub.x2;
 3300              		.loc 1 801 42 is_stmt 0 view .LVU1233
 3301 0a98 BDF95030 		ldrsh	r3, [sp, #80]
 801:lvgl/src/draw/sw/lv_draw_sw_rect.c ****             blend_area.x2 = clip_area_sub.x2;
 3302              		.loc 1 801 27 view .LVU1234
 3303 0a9c ADF85830 		strh	r3, [sp, #88]	@ movhi
 802:lvgl/src/draw/sw/lv_draw_sw_rect.c ****             blend_dsc.mask_res = LV_DRAW_MASK_RES_CHANGED;    /*In simple mode it won't be overwrit
 3304              		.loc 1 802 13 is_stmt 1 view .LVU1235
 802:lvgl/src/draw/sw/lv_draw_sw_rect.c ****             blend_dsc.mask_res = LV_DRAW_MASK_RES_CHANGED;    /*In simple mode it won't be overwrit
 3305              		.loc 1 802 42 is_stmt 0 view .LVU1236
 3306 0aa0 BDF95430 		ldrsh	r3, [sp, #84]
 802:lvgl/src/draw/sw/lv_draw_sw_rect.c ****             blend_dsc.mask_res = LV_DRAW_MASK_RES_CHANGED;    /*In simple mode it won't be overwrit
 3307              		.loc 1 802 27 view .LVU1237
 3308 0aa4 ADF85C30 		strh	r3, [sp, #92]	@ movhi
 803:lvgl/src/draw/sw/lv_draw_sw_rect.c ****             for(y = clip_area_sub.y1; y <= clip_area_sub.y2; y++) {
 3309              		.loc 1 803 13 is_stmt 1 view .LVU1238
 803:lvgl/src/draw/sw/lv_draw_sw_rect.c ****             for(y = clip_area_sub.y1; y <= clip_area_sub.y2; y++) {
 3310              		.loc 1 803 32 is_stmt 0 view .LVU1239
 3311 0aa8 0223     		movs	r3, #2
 3312 0aaa 8DF84430 		strb	r3, [sp, #68]
 804:lvgl/src/draw/sw/lv_draw_sw_rect.c ****                 blend_area.y1 = y;
 3313              		.loc 1 804 13 is_stmt 1 view .LVU1240
ARM GAS  /var/folders/21/t9g5rlb91ys800n5npymflf80000gn/T//cca4dfU0.s 			page 106


 804:lvgl/src/draw/sw/lv_draw_sw_rect.c ****                 blend_area.y1 = y;
 3314              		.loc 1 804 19 is_stmt 0 view .LVU1241
 3315 0aae BDF95290 		ldrsh	r9, [sp, #82]
 3316              	.LVL303:
 804:lvgl/src/draw/sw/lv_draw_sw_rect.c ****                 blend_area.y1 = y;
 3317              		.loc 1 804 19 view .LVU1242
 3318 0ab2 0695     		str	r5, [sp, #24]
 3319 0ab4 2346     		mov	r3, r4
 3320 0ab6 5446     		mov	r4, r10
 3321              	.LVL304:
 804:lvgl/src/draw/sw/lv_draw_sw_rect.c ****                 blend_area.y1 = y;
 3322              		.loc 1 804 19 view .LVU1243
 3323 0ab8 049D     		ldr	r5, [sp, #16]
 3324 0aba 9A46     		mov	r10, r3
 804:lvgl/src/draw/sw/lv_draw_sw_rect.c ****                 blend_area.y1 = y;
 3325              		.loc 1 804 13 view .LVU1244
 3326 0abc 14E0     		b	.L139
 3327              	.LVL305:
 3328              	.L210:
 797:lvgl/src/draw/sw/lv_draw_sw_rect.c ****         else simple_sub = simple;
 3329              		.loc 1 797 22 discriminator 1 view .LVU1245
 3330 0abe 4A46     		mov	r2, r9
 3331 0ac0 1EA9     		add	r1, sp, #120
 3332 0ac2 14A8     		add	r0, sp, #80
 3333 0ac4 FFF7FEFF 		bl	_lv_area_is_out
 3334              	.LVL306:
 797:lvgl/src/draw/sw/lv_draw_sw_rect.c ****         else simple_sub = simple;
 3335              		.loc 1 797 19 discriminator 1 view .LVU1246
 3336 0ac8 8246     		mov	r10, r0
 3337 0aca 18B9     		cbnz	r0, .L170
 797:lvgl/src/draw/sw/lv_draw_sw_rect.c ****         else simple_sub = simple;
 3338              		.loc 1 797 19 view .LVU1247
 3339 0acc DDF800A0 		ldr	r10, [sp]
 799:lvgl/src/draw/sw/lv_draw_sw_rect.c ****         if(w > 0) {
 3340              		.loc 1 799 54 view .LVU1248
 3341 0ad0 029B     		ldr	r3, [sp, #8]
 3342 0ad2 DCE7     		b	.L138
 3343              	.L170:
 3344 0ad4 029B     		ldr	r3, [sp, #8]
 3345 0ad6 DAE7     		b	.L138
 3346              	.LVL307:
 3347              	.L140:
 814:lvgl/src/draw/sw/lv_draw_sw_rect.c ****             }
 3348              		.loc 1 814 17 is_stmt 1 discriminator 2 view .LVU1249
 3349 0ad8 0DA9     		add	r1, sp, #52
 3350 0ada 3046     		mov	r0, r6
 3351 0adc FFF7FEFF 		bl	lv_draw_sw_blend
 3352              	.LVL308:
 804:lvgl/src/draw/sw/lv_draw_sw_rect.c ****                 blend_area.y1 = y;
 3353              		.loc 1 804 63 discriminator 2 view .LVU1250
 3354 0ae0 09F10109 		add	r9, r9, #1
 3355              	.LVL309:
 804:lvgl/src/draw/sw/lv_draw_sw_rect.c ****                 blend_area.y1 = y;
 3356              		.loc 1 804 63 is_stmt 0 discriminator 2 view .LVU1251
 3357 0ae4 0FFA89F9 		sxth	r9, r9
 3358              	.LVL310:
 3359              	.L139:
ARM GAS  /var/folders/21/t9g5rlb91ys800n5npymflf80000gn/T//cca4dfU0.s 			page 107


 804:lvgl/src/draw/sw/lv_draw_sw_rect.c ****                 blend_area.y1 = y;
 3360              		.loc 1 804 41 is_stmt 1 discriminator 1 view .LVU1252
 804:lvgl/src/draw/sw/lv_draw_sw_rect.c ****                 blend_area.y1 = y;
 3361              		.loc 1 804 57 is_stmt 0 discriminator 1 view .LVU1253
 3362 0ae8 BDF95630 		ldrsh	r3, [sp, #86]
 804:lvgl/src/draw/sw/lv_draw_sw_rect.c ****                 blend_area.y1 = y;
 3363              		.loc 1 804 41 discriminator 1 view .LVU1254
 3364 0aec 4B45     		cmp	r3, r9
 3365 0aee 19DB     		blt	.L211
 805:lvgl/src/draw/sw/lv_draw_sw_rect.c ****                 blend_area.y2 = y;
 3366              		.loc 1 805 17 is_stmt 1 view .LVU1255
 805:lvgl/src/draw/sw/lv_draw_sw_rect.c ****                 blend_area.y2 = y;
 3367              		.loc 1 805 31 is_stmt 0 view .LVU1256
 3368 0af0 ADF85A90 		strh	r9, [sp, #90]	@ movhi
 806:lvgl/src/draw/sw/lv_draw_sw_rect.c **** 
 3369              		.loc 1 806 17 is_stmt 1 view .LVU1257
 806:lvgl/src/draw/sw/lv_draw_sw_rect.c **** 
 3370              		.loc 1 806 31 is_stmt 0 view .LVU1258
 3371 0af4 ADF85E90 		strh	r9, [sp, #94]	@ movhi
 808:lvgl/src/draw/sw/lv_draw_sw_rect.c ****                     lv_memcpy(mask_buf, sh_buf_tmp, w);
 3372              		.loc 1 808 17 is_stmt 1 view .LVU1259
 808:lvgl/src/draw/sw/lv_draw_sw_rect.c ****                     lv_memcpy(mask_buf, sh_buf_tmp, w);
 3373              		.loc 1 808 19 is_stmt 0 view .LVU1260
 3374 0af8 002C     		cmp	r4, #0
 3375 0afa EDD1     		bne	.L140
 809:lvgl/src/draw/sw/lv_draw_sw_rect.c ****                     blend_dsc.mask_res = lv_draw_mask_apply(mask_buf, clip_area_sub.x1, y, w);
 3376              		.loc 1 809 21 is_stmt 1 view .LVU1261
 3377 0afc 5A46     		mov	r2, fp
 3378 0afe 0299     		ldr	r1, [sp, #8]
 3379 0b00 2846     		mov	r0, r5
 3380 0b02 FFF7FEFF 		bl	lv_memcpy
 3381              	.LVL311:
 810:lvgl/src/draw/sw/lv_draw_sw_rect.c ****                     if(blend_dsc.mask_res == LV_DRAW_MASK_RES_FULL_COVER) blend_dsc.mask_res = LV_D
 3382              		.loc 1 810 21 view .LVU1262
 810:lvgl/src/draw/sw/lv_draw_sw_rect.c ****                     if(blend_dsc.mask_res == LV_DRAW_MASK_RES_FULL_COVER) blend_dsc.mask_res = LV_D
 3383              		.loc 1 810 42 is_stmt 0 view .LVU1263
 3384 0b06 5B46     		mov	r3, fp
 3385 0b08 4A46     		mov	r2, r9
 3386 0b0a BDF95010 		ldrsh	r1, [sp, #80]
 3387 0b0e 2846     		mov	r0, r5
 3388 0b10 FFF7FEFF 		bl	lv_draw_mask_apply
 3389              	.LVL312:
 810:lvgl/src/draw/sw/lv_draw_sw_rect.c ****                     if(blend_dsc.mask_res == LV_DRAW_MASK_RES_FULL_COVER) blend_dsc.mask_res = LV_D
 3390              		.loc 1 810 40 view .LVU1264
 3391 0b14 8DF84400 		strb	r0, [sp, #68]
 811:lvgl/src/draw/sw/lv_draw_sw_rect.c ****                 }
 3392              		.loc 1 811 21 is_stmt 1 view .LVU1265
 811:lvgl/src/draw/sw/lv_draw_sw_rect.c ****                 }
 3393              		.loc 1 811 23 is_stmt 0 view .LVU1266
 3394 0b18 0128     		cmp	r0, #1
 3395 0b1a DDD1     		bne	.L140
 811:lvgl/src/draw/sw/lv_draw_sw_rect.c ****                 }
 3396              		.loc 1 811 75 is_stmt 1 discriminator 1 view .LVU1267
 811:lvgl/src/draw/sw/lv_draw_sw_rect.c ****                 }
 3397              		.loc 1 811 94 is_stmt 0 discriminator 1 view .LVU1268
 3398 0b1c 0223     		movs	r3, #2
 3399 0b1e 8DF84430 		strb	r3, [sp, #68]
ARM GAS  /var/folders/21/t9g5rlb91ys800n5npymflf80000gn/T//cca4dfU0.s 			page 108


 3400 0b22 D9E7     		b	.L140
 3401              	.L211:
 3402 0b24 069D     		ldr	r5, [sp, #24]
 3403 0b26 5446     		mov	r4, r10
 3404 0b28 14E7     		b	.L137
 3405              	.LVL313:
 3406              	.L206:
 811:lvgl/src/draw/sw/lv_draw_sw_rect.c ****                 }
 3407              		.loc 1 811 94 discriminator 1 view .LVU1269
 3408              	.LBE167:
 829:lvgl/src/draw/sw/lv_draw_sw_rect.c ****         lv_coord_t w = lv_area_get_width(&clip_area_sub);
 3409              		.loc 1 829 9 discriminator 1 view .LVU1270
 3410 0b2a BDF90490 		ldrsh	r9, [sp, #4]
 3411 0b2e 4A46     		mov	r2, r9
 3412 0b30 1EA9     		add	r1, sp, #120
 3413 0b32 14A8     		add	r0, sp, #80
 3414 0b34 FFF7FEFF 		bl	_lv_area_is_in
 3415              	.LVL314:
 828:lvgl/src/draw/sw/lv_draw_sw_rect.c ****        !_lv_area_is_in(&clip_area_sub, &bg_area, r_bg)) {
 3416              		.loc 1 828 77 discriminator 1 view .LVU1271
 3417 0b38 0028     		cmp	r0, #0
 3418 0b3a 7FF433AF 		bne	.L142
 3419              	.LBB170:
 830:lvgl/src/draw/sw/lv_draw_sw_rect.c ****         sh_buf_tmp = sh_buf;
 3420              		.loc 1 830 9 is_stmt 1 view .LVU1272
 3421              	.LVL315:
 3422              	.LBB171:
 3423              	.LBI171:
 123:lvgl/src/draw/sw/../../misc/lv_area.h **** {
 3424              		.loc 2 123 26 view .LVU1273
 3425              	.LBB172:
 125:lvgl/src/draw/sw/../../misc/lv_area.h **** }
 3426              		.loc 2 125 5 view .LVU1274
 125:lvgl/src/draw/sw/../../misc/lv_area.h **** }
 3427              		.loc 2 125 31 is_stmt 0 view .LVU1275
 3428 0b3e BDF85430 		ldrh	r3, [sp, #84]
 125:lvgl/src/draw/sw/../../misc/lv_area.h **** }
 3429              		.loc 2 125 44 view .LVU1276
 3430 0b42 BDF95020 		ldrsh	r2, [sp, #80]
 3431 0b46 91B2     		uxth	r1, r2
 125:lvgl/src/draw/sw/../../misc/lv_area.h **** }
 3432              		.loc 2 125 36 view .LVU1277
 3433 0b48 5B1A     		subs	r3, r3, r1
 3434 0b4a 9BB2     		uxth	r3, r3
 125:lvgl/src/draw/sw/../../misc/lv_area.h **** }
 3435              		.loc 2 125 49 view .LVU1278
 3436 0b4c 0133     		adds	r3, r3, #1
 125:lvgl/src/draw/sw/../../misc/lv_area.h **** }
 3437              		.loc 2 125 12 view .LVU1279
 3438 0b4e 1BB2     		sxth	r3, r3
 3439 0b50 0293     		str	r3, [sp, #8]
 3440              	.LVL316:
 125:lvgl/src/draw/sw/../../misc/lv_area.h **** }
 3441              		.loc 2 125 12 view .LVU1280
 3442              	.LBE172:
 3443              	.LBE171:
 831:lvgl/src/draw/sw/lv_draw_sw_rect.c ****         sh_buf_tmp += (clip_area_sub.y1 - blend_area.y1) * corner_size;
ARM GAS  /var/folders/21/t9g5rlb91ys800n5npymflf80000gn/T//cca4dfU0.s 			page 109


 3444              		.loc 1 831 9 is_stmt 1 view .LVU1281
 832:lvgl/src/draw/sw/lv_draw_sw_rect.c ****         sh_buf_tmp += clip_area_sub.x1 - blend_area.x1;
 3445              		.loc 1 832 9 view .LVU1282
 832:lvgl/src/draw/sw/lv_draw_sw_rect.c ****         sh_buf_tmp += clip_area_sub.x1 - blend_area.x1;
 3446              		.loc 1 832 37 is_stmt 0 view .LVU1283
 3447 0b52 BDF95230 		ldrsh	r3, [sp, #82]
 832:lvgl/src/draw/sw/lv_draw_sw_rect.c ****         sh_buf_tmp += clip_area_sub.x1 - blend_area.x1;
 3448              		.loc 1 832 53 view .LVU1284
 3449 0b56 BDF95A10 		ldrsh	r1, [sp, #90]
 832:lvgl/src/draw/sw/lv_draw_sw_rect.c ****         sh_buf_tmp += clip_area_sub.x1 - blend_area.x1;
 3450              		.loc 1 832 41 view .LVU1285
 3451 0b5a 5B1A     		subs	r3, r3, r1
 3452              	.LVL317:
 833:lvgl/src/draw/sw/lv_draw_sw_rect.c **** 
 3453              		.loc 1 833 9 is_stmt 1 view .LVU1286
 833:lvgl/src/draw/sw/lv_draw_sw_rect.c **** 
 3454              		.loc 1 833 52 is_stmt 0 view .LVU1287
 3455 0b5c BDF95810 		ldrsh	r1, [sp, #88]
 833:lvgl/src/draw/sw/lv_draw_sw_rect.c **** 
 3456              		.loc 1 833 40 view .LVU1288
 3457 0b60 A2EB010A 		sub	r10, r2, r1
 833:lvgl/src/draw/sw/lv_draw_sw_rect.c **** 
 3458              		.loc 1 833 20 view .LVU1289
 3459 0b64 04FB03AA 		mla	r10, r4, r3, r10
 3460 0b68 039B     		ldr	r3, [sp, #12]
 3461              	.LVL318:
 833:lvgl/src/draw/sw/lv_draw_sw_rect.c **** 
 3462              		.loc 1 833 20 view .LVU1290
 3463 0b6a 9A44     		add	r10, r10, r3
 3464              	.LVL319:
 836:lvgl/src/draw/sw/lv_draw_sw_rect.c ****         else simple_sub = simple;
 3465              		.loc 1 836 9 is_stmt 1 view .LVU1291
 836:lvgl/src/draw/sw/lv_draw_sw_rect.c ****         else simple_sub = simple;
 3466              		.loc 1 836 11 is_stmt 0 view .LVU1292
 3467 0b6c 009B     		ldr	r3, [sp]
 3468 0b6e DBB9     		cbnz	r3, .L212
 3469 0b70 DDF800B0 		ldr	fp, [sp]
 3470              	.L143:
 3471              	.LVL320:
 838:lvgl/src/draw/sw/lv_draw_sw_rect.c **** 
 3472              		.loc 1 838 9 is_stmt 1 view .LVU1293
 838:lvgl/src/draw/sw/lv_draw_sw_rect.c **** 
 3473              		.loc 1 838 28 is_stmt 0 view .LVU1294
 3474 0b74 049A     		ldr	r2, [sp, #16]
 3475 0b76 1092     		str	r2, [sp, #64]
 840:lvgl/src/draw/sw/lv_draw_sw_rect.c ****             blend_area.x1 = clip_area_sub.x1;
 3476              		.loc 1 840 9 is_stmt 1 view .LVU1295
 840:lvgl/src/draw/sw/lv_draw_sw_rect.c ****             blend_area.x1 = clip_area_sub.x1;
 3477              		.loc 1 840 11 is_stmt 0 view .LVU1296
 3478 0b78 029B     		ldr	r3, [sp, #8]
 3479 0b7a 002B     		cmp	r3, #0
 3480 0b7c 7FF712AF 		ble	.L142
 841:lvgl/src/draw/sw/lv_draw_sw_rect.c ****             blend_area.x2 = clip_area_sub.x2;
 3481              		.loc 1 841 13 is_stmt 1 view .LVU1297
 841:lvgl/src/draw/sw/lv_draw_sw_rect.c ****             blend_area.x2 = clip_area_sub.x2;
 3482              		.loc 1 841 42 is_stmt 0 view .LVU1298
 3483 0b80 BDF95030 		ldrsh	r3, [sp, #80]
ARM GAS  /var/folders/21/t9g5rlb91ys800n5npymflf80000gn/T//cca4dfU0.s 			page 110


 841:lvgl/src/draw/sw/lv_draw_sw_rect.c ****             blend_area.x2 = clip_area_sub.x2;
 3484              		.loc 1 841 27 view .LVU1299
 3485 0b84 ADF85830 		strh	r3, [sp, #88]	@ movhi
 842:lvgl/src/draw/sw/lv_draw_sw_rect.c ****             blend_dsc.mask_res = LV_DRAW_MASK_RES_CHANGED;    /*In simple mode it won't be overwrit
 3486              		.loc 1 842 13 is_stmt 1 view .LVU1300
 842:lvgl/src/draw/sw/lv_draw_sw_rect.c ****             blend_dsc.mask_res = LV_DRAW_MASK_RES_CHANGED;    /*In simple mode it won't be overwrit
 3487              		.loc 1 842 42 is_stmt 0 view .LVU1301
 3488 0b88 BDF95430 		ldrsh	r3, [sp, #84]
 842:lvgl/src/draw/sw/lv_draw_sw_rect.c ****             blend_dsc.mask_res = LV_DRAW_MASK_RES_CHANGED;    /*In simple mode it won't be overwrit
 3489              		.loc 1 842 27 view .LVU1302
 3490 0b8c ADF85C30 		strh	r3, [sp, #92]	@ movhi
 843:lvgl/src/draw/sw/lv_draw_sw_rect.c ****             for(y = clip_area_sub.y1; y <= clip_area_sub.y2; y++) {
 3491              		.loc 1 843 13 is_stmt 1 view .LVU1303
 843:lvgl/src/draw/sw/lv_draw_sw_rect.c ****             for(y = clip_area_sub.y1; y <= clip_area_sub.y2; y++) {
 3492              		.loc 1 843 32 is_stmt 0 view .LVU1304
 3493 0b90 0223     		movs	r3, #2
 3494 0b92 8DF84430 		strb	r3, [sp, #68]
 844:lvgl/src/draw/sw/lv_draw_sw_rect.c ****                 blend_area.y1 = y;
 3495              		.loc 1 844 13 is_stmt 1 view .LVU1305
 844:lvgl/src/draw/sw/lv_draw_sw_rect.c ****                 blend_area.y1 = y;
 3496              		.loc 1 844 19 is_stmt 0 view .LVU1306
 3497 0b96 BDF95290 		ldrsh	r9, [sp, #82]
 3498              	.LVL321:
 844:lvgl/src/draw/sw/lv_draw_sw_rect.c ****                 blend_area.y1 = y;
 3499              		.loc 1 844 19 view .LVU1307
 3500 0b9a 5B46     		mov	r3, fp
 3501 0b9c AB46     		mov	fp, r5
 3502              	.LVL322:
 844:lvgl/src/draw/sw/lv_draw_sw_rect.c ****                 blend_area.y1 = y;
 3503              		.loc 1 844 19 view .LVU1308
 3504 0b9e A046     		mov	r8, r4
 3505 0ba0 5446     		mov	r4, r10
 3506              	.LVL323:
 844:lvgl/src/draw/sw/lv_draw_sw_rect.c ****                 blend_area.y1 = y;
 3507              		.loc 1 844 19 view .LVU1309
 3508 0ba2 9246     		mov	r10, r2
 3509              	.LVL324:
 844:lvgl/src/draw/sw/lv_draw_sw_rect.c ****                 blend_area.y1 = y;
 3510              		.loc 1 844 19 view .LVU1310
 3511 0ba4 1D46     		mov	r5, r3
 844:lvgl/src/draw/sw/lv_draw_sw_rect.c ****                 blend_area.y1 = y;
 3512              		.loc 1 844 13 view .LVU1311
 3513 0ba6 23E0     		b	.L144
 3514              	.LVL325:
 3515              	.L212:
 836:lvgl/src/draw/sw/lv_draw_sw_rect.c ****         else simple_sub = simple;
 3516              		.loc 1 836 22 discriminator 1 view .LVU1312
 3517 0ba8 4A46     		mov	r2, r9
 3518 0baa 1EA9     		add	r1, sp, #120
 3519 0bac 14A8     		add	r0, sp, #80
 3520 0bae FFF7FEFF 		bl	_lv_area_is_out
 3521              	.LVL326:
 836:lvgl/src/draw/sw/lv_draw_sw_rect.c ****         else simple_sub = simple;
 3522              		.loc 1 836 19 discriminator 1 view .LVU1313
 3523 0bb2 8346     		mov	fp, r0
 3524 0bb4 0028     		cmp	r0, #0
 3525 0bb6 DDD1     		bne	.L143
ARM GAS  /var/folders/21/t9g5rlb91ys800n5npymflf80000gn/T//cca4dfU0.s 			page 111


 3526 0bb8 DDF800B0 		ldr	fp, [sp]
 3527 0bbc DAE7     		b	.L143
 3528              	.LVL327:
 3529              	.L215:
 849:lvgl/src/draw/sw/lv_draw_sw_rect.c ****                     blend_dsc.mask_res = lv_draw_mask_apply(mask_buf, clip_area_sub.x1, y, w);
 3530              		.loc 1 849 21 is_stmt 1 view .LVU1314
 3531 0bbe 4246     		mov	r2, r8
 3532 0bc0 2146     		mov	r1, r4
 3533 0bc2 5046     		mov	r0, r10
 3534 0bc4 FFF7FEFF 		bl	lv_memcpy
 3535              	.LVL328:
 850:lvgl/src/draw/sw/lv_draw_sw_rect.c ****                     if(blend_dsc.mask_res == LV_DRAW_MASK_RES_FULL_COVER) blend_dsc.mask_res = LV_D
 3536              		.loc 1 850 21 view .LVU1315
 850:lvgl/src/draw/sw/lv_draw_sw_rect.c ****                     if(blend_dsc.mask_res == LV_DRAW_MASK_RES_FULL_COVER) blend_dsc.mask_res = LV_D
 3537              		.loc 1 850 42 is_stmt 0 view .LVU1316
 3538 0bc8 029B     		ldr	r3, [sp, #8]
 3539 0bca 4A46     		mov	r2, r9
 3540 0bcc BDF95010 		ldrsh	r1, [sp, #80]
 3541 0bd0 5046     		mov	r0, r10
 3542 0bd2 FFF7FEFF 		bl	lv_draw_mask_apply
 3543              	.LVL329:
 850:lvgl/src/draw/sw/lv_draw_sw_rect.c ****                     if(blend_dsc.mask_res == LV_DRAW_MASK_RES_FULL_COVER) blend_dsc.mask_res = LV_D
 3544              		.loc 1 850 40 view .LVU1317
 3545 0bd6 8DF84400 		strb	r0, [sp, #68]
 851:lvgl/src/draw/sw/lv_draw_sw_rect.c ****                 }
 3546              		.loc 1 851 21 is_stmt 1 view .LVU1318
 851:lvgl/src/draw/sw/lv_draw_sw_rect.c ****                 }
 3547              		.loc 1 851 23 is_stmt 0 view .LVU1319
 3548 0bda 0128     		cmp	r0, #1
 3549 0bdc 14D0     		beq	.L213
 3550              	.L146:
 857:lvgl/src/draw/sw/lv_draw_sw_rect.c ****                 sh_buf_tmp += corner_size;
 3551              		.loc 1 857 17 is_stmt 1 discriminator 2 view .LVU1320
 3552 0bde 0DA9     		add	r1, sp, #52
 3553 0be0 3046     		mov	r0, r6
 3554 0be2 FFF7FEFF 		bl	lv_draw_sw_blend
 3555              	.LVL330:
 858:lvgl/src/draw/sw/lv_draw_sw_rect.c ****             }
 3556              		.loc 1 858 17 discriminator 2 view .LVU1321
 858:lvgl/src/draw/sw/lv_draw_sw_rect.c ****             }
 3557              		.loc 1 858 28 is_stmt 0 discriminator 2 view .LVU1322
 3558 0be6 4444     		add	r4, r4, r8
 3559              	.LVL331:
 844:lvgl/src/draw/sw/lv_draw_sw_rect.c ****                 blend_area.y1 = y;
 3560              		.loc 1 844 63 is_stmt 1 discriminator 2 view .LVU1323
 3561 0be8 09F10109 		add	r9, r9, #1
 3562              	.LVL332:
 844:lvgl/src/draw/sw/lv_draw_sw_rect.c ****                 blend_area.y1 = y;
 3563              		.loc 1 844 63 is_stmt 0 discriminator 2 view .LVU1324
 3564 0bec 0FFA89F9 		sxth	r9, r9
 3565              	.LVL333:
 3566              	.L144:
 844:lvgl/src/draw/sw/lv_draw_sw_rect.c ****                 blend_area.y1 = y;
 3567              		.loc 1 844 41 is_stmt 1 discriminator 1 view .LVU1325
 844:lvgl/src/draw/sw/lv_draw_sw_rect.c ****                 blend_area.y1 = y;
 3568              		.loc 1 844 57 is_stmt 0 discriminator 1 view .LVU1326
 3569 0bf0 BDF95630 		ldrsh	r3, [sp, #86]
ARM GAS  /var/folders/21/t9g5rlb91ys800n5npymflf80000gn/T//cca4dfU0.s 			page 112


 844:lvgl/src/draw/sw/lv_draw_sw_rect.c ****                 blend_area.y1 = y;
 3570              		.loc 1 844 41 discriminator 1 view .LVU1327
 3571 0bf4 4B45     		cmp	r3, r9
 3572 0bf6 0BDB     		blt	.L214
 845:lvgl/src/draw/sw/lv_draw_sw_rect.c ****                 blend_area.y2 = y;
 3573              		.loc 1 845 17 is_stmt 1 view .LVU1328
 845:lvgl/src/draw/sw/lv_draw_sw_rect.c ****                 blend_area.y2 = y;
 3574              		.loc 1 845 31 is_stmt 0 view .LVU1329
 3575 0bf8 ADF85A90 		strh	r9, [sp, #90]	@ movhi
 846:lvgl/src/draw/sw/lv_draw_sw_rect.c **** 
 3576              		.loc 1 846 17 is_stmt 1 view .LVU1330
 846:lvgl/src/draw/sw/lv_draw_sw_rect.c **** 
 3577              		.loc 1 846 31 is_stmt 0 view .LVU1331
 3578 0bfc ADF85E90 		strh	r9, [sp, #94]	@ movhi
 848:lvgl/src/draw/sw/lv_draw_sw_rect.c ****                     lv_memcpy(mask_buf, sh_buf_tmp, corner_size);
 3579              		.loc 1 848 17 is_stmt 1 view .LVU1332
 848:lvgl/src/draw/sw/lv_draw_sw_rect.c ****                     lv_memcpy(mask_buf, sh_buf_tmp, corner_size);
 3580              		.loc 1 848 19 is_stmt 0 view .LVU1333
 3581 0c00 002D     		cmp	r5, #0
 3582 0c02 DCD0     		beq	.L215
 854:lvgl/src/draw/sw/lv_draw_sw_rect.c ****                 }
 3583              		.loc 1 854 21 is_stmt 1 view .LVU1334
 854:lvgl/src/draw/sw/lv_draw_sw_rect.c ****                 }
 3584              		.loc 1 854 40 is_stmt 0 view .LVU1335
 3585 0c04 1094     		str	r4, [sp, #64]
 3586 0c06 EAE7     		b	.L146
 3587              	.L213:
 851:lvgl/src/draw/sw/lv_draw_sw_rect.c ****                 }
 3588              		.loc 1 851 75 is_stmt 1 discriminator 1 view .LVU1336
 851:lvgl/src/draw/sw/lv_draw_sw_rect.c ****                 }
 3589              		.loc 1 851 94 is_stmt 0 discriminator 1 view .LVU1337
 3590 0c08 0223     		movs	r3, #2
 3591 0c0a 8DF84430 		strb	r3, [sp, #68]
 3592 0c0e E6E7     		b	.L146
 3593              	.L214:
 851:lvgl/src/draw/sw/lv_draw_sw_rect.c ****                 }
 3594              		.loc 1 851 94 discriminator 1 view .LVU1338
 3595 0c10 5D46     		mov	r5, fp
 3596 0c12 4446     		mov	r4, r8
 3597              	.LVL334:
 851:lvgl/src/draw/sw/lv_draw_sw_rect.c ****                 }
 3598              		.loc 1 851 94 discriminator 1 view .LVU1339
 3599 0c14 C6E6     		b	.L142
 3600              	.LVL335:
 3601              	.L207:
 851:lvgl/src/draw/sw/lv_draw_sw_rect.c ****                 }
 3602              		.loc 1 851 94 discriminator 1 view .LVU1340
 3603              	.LBE170:
 874:lvgl/src/draw/sw/lv_draw_sw_rect.c ****         lv_coord_t w = lv_area_get_width(&clip_area_sub);
 3604              		.loc 1 874 9 discriminator 1 view .LVU1341
 3605 0c16 BDF90450 		ldrsh	r5, [sp, #4]
 3606 0c1a 2A46     		mov	r2, r5
 3607 0c1c 1EA9     		add	r1, sp, #120
 3608 0c1e 14A8     		add	r0, sp, #80
 3609 0c20 FFF7FEFF 		bl	_lv_area_is_in
 3610              	.LVL336:
 873:lvgl/src/draw/sw/lv_draw_sw_rect.c ****        !_lv_area_is_in(&clip_area_sub, &bg_area, r_bg)) {
ARM GAS  /var/folders/21/t9g5rlb91ys800n5npymflf80000gn/T//cca4dfU0.s 			page 113


 3611              		.loc 1 873 77 discriminator 1 view .LVU1342
 3612 0c24 0028     		cmp	r0, #0
 3613 0c26 7FF4E6AE 		bne	.L148
 3614              	.LBB173:
 875:lvgl/src/draw/sw/lv_draw_sw_rect.c ****         sh_buf_tmp = sh_buf;
 3615              		.loc 1 875 9 is_stmt 1 view .LVU1343
 3616              	.LVL337:
 3617              	.LBB174:
 3618              	.LBI174:
 123:lvgl/src/draw/sw/../../misc/lv_area.h **** {
 3619              		.loc 2 123 26 view .LVU1344
 3620              	.LBB175:
 125:lvgl/src/draw/sw/../../misc/lv_area.h **** }
 3621              		.loc 2 125 5 view .LVU1345
 125:lvgl/src/draw/sw/../../misc/lv_area.h **** }
 3622              		.loc 2 125 31 is_stmt 0 view .LVU1346
 3623 0c2a BDF854A0 		ldrh	r10, [sp, #84]
 125:lvgl/src/draw/sw/../../misc/lv_area.h **** }
 3624              		.loc 2 125 44 view .LVU1347
 3625 0c2e BDF95030 		ldrsh	r3, [sp, #80]
 3626 0c32 9AB2     		uxth	r2, r3
 125:lvgl/src/draw/sw/../../misc/lv_area.h **** }
 3627              		.loc 2 125 36 view .LVU1348
 3628 0c34 AAEB020A 		sub	r10, r10, r2
 3629 0c38 1FFA8AFA 		uxth	r10, r10
 125:lvgl/src/draw/sw/../../misc/lv_area.h **** }
 3630              		.loc 2 125 49 view .LVU1349
 3631 0c3c 0AF1010A 		add	r10, r10, #1
 125:lvgl/src/draw/sw/../../misc/lv_area.h **** }
 3632              		.loc 2 125 12 view .LVU1350
 3633 0c40 0FFA8AFA 		sxth	r10, r10
 3634              	.LVL338:
 125:lvgl/src/draw/sw/../../misc/lv_area.h **** }
 3635              		.loc 2 125 12 view .LVU1351
 3636              	.LBE175:
 3637              	.LBE174:
 876:lvgl/src/draw/sw/lv_draw_sw_rect.c ****         sh_buf_tmp += (blend_area.y2 - clip_area_sub.y2) * corner_size;
 3638              		.loc 1 876 9 is_stmt 1 view .LVU1352
 877:lvgl/src/draw/sw/lv_draw_sw_rect.c ****         sh_buf_tmp += clip_area_sub.x1 - blend_area.x1;
 3639              		.loc 1 877 9 view .LVU1353
 877:lvgl/src/draw/sw/lv_draw_sw_rect.c ****         sh_buf_tmp += clip_area_sub.x1 - blend_area.x1;
 3640              		.loc 1 877 34 is_stmt 0 view .LVU1354
 3641 0c44 BDF95E20 		ldrsh	r2, [sp, #94]
 877:lvgl/src/draw/sw/lv_draw_sw_rect.c ****         sh_buf_tmp += clip_area_sub.x1 - blend_area.x1;
 3642              		.loc 1 877 53 view .LVU1355
 3643 0c48 BDF95610 		ldrsh	r1, [sp, #86]
 877:lvgl/src/draw/sw/lv_draw_sw_rect.c ****         sh_buf_tmp += clip_area_sub.x1 - blend_area.x1;
 3644              		.loc 1 877 38 view .LVU1356
 3645 0c4c 521A     		subs	r2, r2, r1
 3646              	.LVL339:
 878:lvgl/src/draw/sw/lv_draw_sw_rect.c **** 
 3647              		.loc 1 878 9 is_stmt 1 view .LVU1357
 878:lvgl/src/draw/sw/lv_draw_sw_rect.c **** 
 3648              		.loc 1 878 52 is_stmt 0 view .LVU1358
 3649 0c4e BDF95810 		ldrsh	r1, [sp, #88]
 878:lvgl/src/draw/sw/lv_draw_sw_rect.c **** 
 3650              		.loc 1 878 40 view .LVU1359
ARM GAS  /var/folders/21/t9g5rlb91ys800n5npymflf80000gn/T//cca4dfU0.s 			page 114


 3651 0c52 A3EB0109 		sub	r9, r3, r1
 878:lvgl/src/draw/sw/lv_draw_sw_rect.c **** 
 3652              		.loc 1 878 20 view .LVU1360
 3653 0c56 04FB0299 		mla	r9, r4, r2, r9
 3654 0c5a 039B     		ldr	r3, [sp, #12]
 3655 0c5c 9944     		add	r9, r9, r3
 3656              	.LVL340:
 881:lvgl/src/draw/sw/lv_draw_sw_rect.c ****         else simple_sub = simple;
 3657              		.loc 1 881 9 is_stmt 1 view .LVU1361
 881:lvgl/src/draw/sw/lv_draw_sw_rect.c ****         else simple_sub = simple;
 3658              		.loc 1 881 11 is_stmt 0 view .LVU1362
 3659 0c5e 009B     		ldr	r3, [sp]
 3660 0c60 D3B9     		cbnz	r3, .L216
 3661 0c62 DDF800B0 		ldr	fp, [sp]
 3662              	.L149:
 3663              	.LVL341:
 883:lvgl/src/draw/sw/lv_draw_sw_rect.c ****         if(w > 0) {
 3664              		.loc 1 883 9 is_stmt 1 view .LVU1363
 883:lvgl/src/draw/sw/lv_draw_sw_rect.c ****         if(w > 0) {
 3665              		.loc 1 883 28 is_stmt 0 view .LVU1364
 3666 0c66 049A     		ldr	r2, [sp, #16]
 3667 0c68 1092     		str	r2, [sp, #64]
 884:lvgl/src/draw/sw/lv_draw_sw_rect.c ****             blend_area.x1 = clip_area_sub.x1;
 3668              		.loc 1 884 9 is_stmt 1 view .LVU1365
 884:lvgl/src/draw/sw/lv_draw_sw_rect.c ****             blend_area.x1 = clip_area_sub.x1;
 3669              		.loc 1 884 11 is_stmt 0 view .LVU1366
 3670 0c6a BAF1000F 		cmp	r10, #0
 3671 0c6e 7FF7C2AE 		ble	.L148
 885:lvgl/src/draw/sw/lv_draw_sw_rect.c ****             blend_area.x2 = clip_area_sub.x2;
 3672              		.loc 1 885 13 is_stmt 1 view .LVU1367
 885:lvgl/src/draw/sw/lv_draw_sw_rect.c ****             blend_area.x2 = clip_area_sub.x2;
 3673              		.loc 1 885 42 is_stmt 0 view .LVU1368
 3674 0c72 BDF95030 		ldrsh	r3, [sp, #80]
 885:lvgl/src/draw/sw/lv_draw_sw_rect.c ****             blend_area.x2 = clip_area_sub.x2;
 3675              		.loc 1 885 27 view .LVU1369
 3676 0c76 ADF85830 		strh	r3, [sp, #88]	@ movhi
 886:lvgl/src/draw/sw/lv_draw_sw_rect.c ****             blend_dsc.mask_res = LV_DRAW_MASK_RES_CHANGED;    /*In simple mode it won't be overwrit
 3677              		.loc 1 886 13 is_stmt 1 view .LVU1370
 886:lvgl/src/draw/sw/lv_draw_sw_rect.c ****             blend_dsc.mask_res = LV_DRAW_MASK_RES_CHANGED;    /*In simple mode it won't be overwrit
 3678              		.loc 1 886 42 is_stmt 0 view .LVU1371
 3679 0c7a BDF95430 		ldrsh	r3, [sp, #84]
 886:lvgl/src/draw/sw/lv_draw_sw_rect.c ****             blend_dsc.mask_res = LV_DRAW_MASK_RES_CHANGED;    /*In simple mode it won't be overwrit
 3680              		.loc 1 886 27 view .LVU1372
 3681 0c7e ADF85C30 		strh	r3, [sp, #92]	@ movhi
 887:lvgl/src/draw/sw/lv_draw_sw_rect.c ****             for(y = clip_area_sub.y2; y >= clip_area_sub.y1; y--) {
 3682              		.loc 1 887 13 is_stmt 1 view .LVU1373
 887:lvgl/src/draw/sw/lv_draw_sw_rect.c ****             for(y = clip_area_sub.y2; y >= clip_area_sub.y1; y--) {
 3683              		.loc 1 887 32 is_stmt 0 view .LVU1374
 3684 0c82 0223     		movs	r3, #2
 3685 0c84 8DF84430 		strb	r3, [sp, #68]
 888:lvgl/src/draw/sw/lv_draw_sw_rect.c ****                 blend_area.y1 = y;
 3686              		.loc 1 888 13 is_stmt 1 view .LVU1375
 888:lvgl/src/draw/sw/lv_draw_sw_rect.c ****                 blend_area.y1 = y;
 3687              		.loc 1 888 19 is_stmt 0 view .LVU1376
 3688 0c88 BDF95650 		ldrsh	r5, [sp, #86]
 3689              	.LVL342:
 888:lvgl/src/draw/sw/lv_draw_sw_rect.c ****                 blend_area.y1 = y;
ARM GAS  /var/folders/21/t9g5rlb91ys800n5npymflf80000gn/T//cca4dfU0.s 			page 115


 3690              		.loc 1 888 19 view .LVU1377
 3691 0c8c A046     		mov	r8, r4
 3692 0c8e 4C46     		mov	r4, r9
 3693              	.LVL343:
 888:lvgl/src/draw/sw/lv_draw_sw_rect.c ****                 blend_area.y1 = y;
 3694              		.loc 1 888 19 view .LVU1378
 3695 0c90 B146     		mov	r9, r6
 3696              	.LVL344:
 888:lvgl/src/draw/sw/lv_draw_sw_rect.c ****                 blend_area.y1 = y;
 3697              		.loc 1 888 19 view .LVU1379
 3698 0c92 5E46     		mov	r6, fp
 3699              	.LVL345:
 888:lvgl/src/draw/sw/lv_draw_sw_rect.c ****                 blend_area.y1 = y;
 3700              		.loc 1 888 19 view .LVU1380
 3701 0c94 9346     		mov	fp, r2
 3702              	.LVL346:
 888:lvgl/src/draw/sw/lv_draw_sw_rect.c ****                 blend_area.y1 = y;
 3703              		.loc 1 888 13 view .LVU1381
 3704 0c96 21E0     		b	.L150
 3705              	.LVL347:
 3706              	.L216:
 881:lvgl/src/draw/sw/lv_draw_sw_rect.c ****         else simple_sub = simple;
 3707              		.loc 1 881 22 discriminator 1 view .LVU1382
 3708 0c98 2A46     		mov	r2, r5
 3709 0c9a 1EA9     		add	r1, sp, #120
 3710 0c9c 14A8     		add	r0, sp, #80
 3711 0c9e FFF7FEFF 		bl	_lv_area_is_out
 3712              	.LVL348:
 881:lvgl/src/draw/sw/lv_draw_sw_rect.c ****         else simple_sub = simple;
 3713              		.loc 1 881 19 discriminator 1 view .LVU1383
 3714 0ca2 8346     		mov	fp, r0
 3715 0ca4 0028     		cmp	r0, #0
 3716 0ca6 DED1     		bne	.L149
 3717 0ca8 DDF800B0 		ldr	fp, [sp]
 3718 0cac DBE7     		b	.L149
 3719              	.LVL349:
 3720              	.L219:
 893:lvgl/src/draw/sw/lv_draw_sw_rect.c ****                     blend_dsc.mask_res = lv_draw_mask_apply(mask_buf, clip_area_sub.x1, y, w);
 3721              		.loc 1 893 21 is_stmt 1 view .LVU1384
 3722 0cae 4246     		mov	r2, r8
 3723 0cb0 2146     		mov	r1, r4
 3724 0cb2 5846     		mov	r0, fp
 3725 0cb4 FFF7FEFF 		bl	lv_memcpy
 3726              	.LVL350:
 894:lvgl/src/draw/sw/lv_draw_sw_rect.c ****                     if(blend_dsc.mask_res == LV_DRAW_MASK_RES_FULL_COVER) blend_dsc.mask_res = LV_D
 3727              		.loc 1 894 21 view .LVU1385
 894:lvgl/src/draw/sw/lv_draw_sw_rect.c ****                     if(blend_dsc.mask_res == LV_DRAW_MASK_RES_FULL_COVER) blend_dsc.mask_res = LV_D
 3728              		.loc 1 894 42 is_stmt 0 view .LVU1386
 3729 0cb8 5346     		mov	r3, r10
 3730 0cba 2A46     		mov	r2, r5
 3731 0cbc BDF95010 		ldrsh	r1, [sp, #80]
 3732 0cc0 5846     		mov	r0, fp
 3733 0cc2 FFF7FEFF 		bl	lv_draw_mask_apply
 3734              	.LVL351:
 894:lvgl/src/draw/sw/lv_draw_sw_rect.c ****                     if(blend_dsc.mask_res == LV_DRAW_MASK_RES_FULL_COVER) blend_dsc.mask_res = LV_D
 3735              		.loc 1 894 40 view .LVU1387
 3736 0cc6 8DF84400 		strb	r0, [sp, #68]
ARM GAS  /var/folders/21/t9g5rlb91ys800n5npymflf80000gn/T//cca4dfU0.s 			page 116


 895:lvgl/src/draw/sw/lv_draw_sw_rect.c ****                 }
 3737              		.loc 1 895 21 is_stmt 1 view .LVU1388
 895:lvgl/src/draw/sw/lv_draw_sw_rect.c ****                 }
 3738              		.loc 1 895 23 is_stmt 0 view .LVU1389
 3739 0cca 0128     		cmp	r0, #1
 3740 0ccc 12D0     		beq	.L217
 3741              	.L152:
 900:lvgl/src/draw/sw/lv_draw_sw_rect.c ****                 sh_buf_tmp += corner_size;
 3742              		.loc 1 900 17 is_stmt 1 discriminator 2 view .LVU1390
 3743 0cce 0DA9     		add	r1, sp, #52
 3744 0cd0 4846     		mov	r0, r9
 3745 0cd2 FFF7FEFF 		bl	lv_draw_sw_blend
 3746              	.LVL352:
 901:lvgl/src/draw/sw/lv_draw_sw_rect.c ****             }
 3747              		.loc 1 901 17 discriminator 2 view .LVU1391
 901:lvgl/src/draw/sw/lv_draw_sw_rect.c ****             }
 3748              		.loc 1 901 28 is_stmt 0 discriminator 2 view .LVU1392
 3749 0cd6 4444     		add	r4, r4, r8
 3750              	.LVL353:
 888:lvgl/src/draw/sw/lv_draw_sw_rect.c ****                 blend_area.y1 = y;
 3751              		.loc 1 888 63 is_stmt 1 discriminator 2 view .LVU1393
 3752 0cd8 013D     		subs	r5, r5, #1
 3753              	.LVL354:
 888:lvgl/src/draw/sw/lv_draw_sw_rect.c ****                 blend_area.y1 = y;
 3754              		.loc 1 888 63 is_stmt 0 discriminator 2 view .LVU1394
 3755 0cda 2DB2     		sxth	r5, r5
 3756              	.LVL355:
 3757              	.L150:
 888:lvgl/src/draw/sw/lv_draw_sw_rect.c ****                 blend_area.y1 = y;
 3758              		.loc 1 888 41 is_stmt 1 discriminator 1 view .LVU1395
 888:lvgl/src/draw/sw/lv_draw_sw_rect.c ****                 blend_area.y1 = y;
 3759              		.loc 1 888 57 is_stmt 0 discriminator 1 view .LVU1396
 3760 0cdc BDF95230 		ldrsh	r3, [sp, #82]
 888:lvgl/src/draw/sw/lv_draw_sw_rect.c ****                 blend_area.y1 = y;
 3761              		.loc 1 888 41 discriminator 1 view .LVU1397
 3762 0ce0 AB42     		cmp	r3, r5
 3763 0ce2 0BDC     		bgt	.L218
 889:lvgl/src/draw/sw/lv_draw_sw_rect.c ****                 blend_area.y2 = y;
 3764              		.loc 1 889 17 is_stmt 1 view .LVU1398
 889:lvgl/src/draw/sw/lv_draw_sw_rect.c ****                 blend_area.y2 = y;
 3765              		.loc 1 889 31 is_stmt 0 view .LVU1399
 3766 0ce4 ADF85A50 		strh	r5, [sp, #90]	@ movhi
 890:lvgl/src/draw/sw/lv_draw_sw_rect.c **** 
 3767              		.loc 1 890 17 is_stmt 1 view .LVU1400
 890:lvgl/src/draw/sw/lv_draw_sw_rect.c **** 
 3768              		.loc 1 890 31 is_stmt 0 view .LVU1401
 3769 0ce8 ADF85E50 		strh	r5, [sp, #94]	@ movhi
 892:lvgl/src/draw/sw/lv_draw_sw_rect.c ****                     lv_memcpy(mask_buf, sh_buf_tmp, corner_size);
 3770              		.loc 1 892 17 is_stmt 1 view .LVU1402
 892:lvgl/src/draw/sw/lv_draw_sw_rect.c ****                     lv_memcpy(mask_buf, sh_buf_tmp, corner_size);
 3771              		.loc 1 892 19 is_stmt 0 view .LVU1403
 3772 0cec 002E     		cmp	r6, #0
 3773 0cee DED0     		beq	.L219
 898:lvgl/src/draw/sw/lv_draw_sw_rect.c ****                 }
 3774              		.loc 1 898 21 is_stmt 1 view .LVU1404
 898:lvgl/src/draw/sw/lv_draw_sw_rect.c ****                 }
 3775              		.loc 1 898 40 is_stmt 0 view .LVU1405
ARM GAS  /var/folders/21/t9g5rlb91ys800n5npymflf80000gn/T//cca4dfU0.s 			page 117


 3776 0cf0 1094     		str	r4, [sp, #64]
 3777 0cf2 ECE7     		b	.L152
 3778              	.L217:
 895:lvgl/src/draw/sw/lv_draw_sw_rect.c ****                 }
 3779              		.loc 1 895 75 is_stmt 1 discriminator 1 view .LVU1406
 895:lvgl/src/draw/sw/lv_draw_sw_rect.c ****                 }
 3780              		.loc 1 895 94 is_stmt 0 discriminator 1 view .LVU1407
 3781 0cf4 0223     		movs	r3, #2
 3782 0cf6 8DF84430 		strb	r3, [sp, #68]
 3783 0cfa E8E7     		b	.L152
 3784              	.L218:
 895:lvgl/src/draw/sw/lv_draw_sw_rect.c ****                 }
 3785              		.loc 1 895 94 discriminator 1 view .LVU1408
 3786 0cfc 4E46     		mov	r6, r9
 3787 0cfe 7AE6     		b	.L148
 3788              	.LVL356:
 3789              	.L208:
 895:lvgl/src/draw/sw/lv_draw_sw_rect.c ****                 }
 3790              		.loc 1 895 94 discriminator 1 view .LVU1409
 3791              	.LBE173:
 914:lvgl/src/draw/sw/lv_draw_sw_rect.c ****         lv_coord_t w = lv_area_get_width(&clip_area_sub);
 3792              		.loc 1 914 9 discriminator 1 view .LVU1410
 3793 0d00 019A     		ldr	r2, [sp, #4]
 3794 0d02 1EA9     		add	r1, sp, #120
 3795 0d04 14A8     		add	r0, sp, #80
 3796 0d06 FFF7FEFF 		bl	_lv_area_is_in
 3797              	.LVL357:
 913:lvgl/src/draw/sw/lv_draw_sw_rect.c ****        !_lv_area_is_in(&clip_area_sub, &bg_area, r_bg)) {
 3798              		.loc 1 913 77 discriminator 1 view .LVU1411
 3799 0d0a 0028     		cmp	r0, #0
 3800 0d0c 7FF491AE 		bne	.L154
 3801              	.LBB176:
 915:lvgl/src/draw/sw/lv_draw_sw_rect.c ****         if(w > 0) {
 3802              		.loc 1 915 9 is_stmt 1 view .LVU1412
 3803              	.LVL358:
 3804              	.LBB177:
 3805              	.LBI177:
 123:lvgl/src/draw/sw/../../misc/lv_area.h **** {
 3806              		.loc 2 123 26 view .LVU1413
 3807              	.LBB178:
 125:lvgl/src/draw/sw/../../misc/lv_area.h **** }
 3808              		.loc 2 125 5 view .LVU1414
 125:lvgl/src/draw/sw/../../misc/lv_area.h **** }
 3809              		.loc 2 125 31 is_stmt 0 view .LVU1415
 3810 0d10 BDF95430 		ldrsh	r3, [sp, #84]
 3811 0d14 9DB2     		uxth	r5, r3
 125:lvgl/src/draw/sw/../../misc/lv_area.h **** }
 3812              		.loc 2 125 44 view .LVU1416
 3813 0d16 BDF95020 		ldrsh	r2, [sp, #80]
 3814 0d1a 91B2     		uxth	r1, r2
 125:lvgl/src/draw/sw/../../misc/lv_area.h **** }
 3815              		.loc 2 125 36 view .LVU1417
 3816 0d1c 6D1A     		subs	r5, r5, r1
 3817 0d1e ADB2     		uxth	r5, r5
 125:lvgl/src/draw/sw/../../misc/lv_area.h **** }
 3818              		.loc 2 125 49 view .LVU1418
 3819 0d20 0135     		adds	r5, r5, #1
ARM GAS  /var/folders/21/t9g5rlb91ys800n5npymflf80000gn/T//cca4dfU0.s 			page 118


 125:lvgl/src/draw/sw/../../misc/lv_area.h **** }
 3820              		.loc 2 125 12 view .LVU1419
 3821 0d22 2DB2     		sxth	r5, r5
 3822              	.LVL359:
 125:lvgl/src/draw/sw/../../misc/lv_area.h **** }
 3823              		.loc 2 125 12 view .LVU1420
 3824              	.LBE178:
 3825              	.LBE177:
 916:lvgl/src/draw/sw/lv_draw_sw_rect.c ****             blend_area.x1 = clip_area_sub.x1;
 3826              		.loc 1 916 9 is_stmt 1 view .LVU1421
 916:lvgl/src/draw/sw/lv_draw_sw_rect.c ****             blend_area.x1 = clip_area_sub.x1;
 3827              		.loc 1 916 11 is_stmt 0 view .LVU1422
 3828 0d24 002D     		cmp	r5, #0
 3829 0d26 7FF784AE 		ble	.L154
 917:lvgl/src/draw/sw/lv_draw_sw_rect.c ****             blend_area.x2 = clip_area_sub.x2;
 3830              		.loc 1 917 13 is_stmt 1 view .LVU1423
 917:lvgl/src/draw/sw/lv_draw_sw_rect.c ****             blend_area.x2 = clip_area_sub.x2;
 3831              		.loc 1 917 27 is_stmt 0 view .LVU1424
 3832 0d2a ADF85820 		strh	r2, [sp, #88]	@ movhi
 918:lvgl/src/draw/sw/lv_draw_sw_rect.c ****             for(y = clip_area_sub.y1; y <= clip_area_sub.y2; y++) {
 3833              		.loc 1 918 13 is_stmt 1 view .LVU1425
 918:lvgl/src/draw/sw/lv_draw_sw_rect.c ****             for(y = clip_area_sub.y1; y <= clip_area_sub.y2; y++) {
 3834              		.loc 1 918 27 is_stmt 0 view .LVU1426
 3835 0d2e ADF85C30 		strh	r3, [sp, #92]	@ movhi
 919:lvgl/src/draw/sw/lv_draw_sw_rect.c ****                 blend_area.y1 = y;
 3836              		.loc 1 919 13 is_stmt 1 view .LVU1427
 919:lvgl/src/draw/sw/lv_draw_sw_rect.c ****                 blend_area.y1 = y;
 3837              		.loc 1 919 19 is_stmt 0 view .LVU1428
 3838 0d32 BDF95240 		ldrsh	r4, [sp, #82]
 3839              	.LVL360:
 919:lvgl/src/draw/sw/lv_draw_sw_rect.c ****                 blend_area.y1 = y;
 3840              		.loc 1 919 19 view .LVU1429
 3841 0d36 049F     		ldr	r7, [sp, #16]
 3842              	.L155:
 919:lvgl/src/draw/sw/lv_draw_sw_rect.c ****                 blend_area.y1 = y;
 3843              		.loc 1 919 41 is_stmt 1 discriminator 1 view .LVU1430
 919:lvgl/src/draw/sw/lv_draw_sw_rect.c ****                 blend_area.y1 = y;
 3844              		.loc 1 919 57 is_stmt 0 discriminator 1 view .LVU1431
 3845 0d38 BDF95630 		ldrsh	r3, [sp, #86]
 919:lvgl/src/draw/sw/lv_draw_sw_rect.c ****                 blend_area.y1 = y;
 3846              		.loc 1 919 41 discriminator 1 view .LVU1432
 3847 0d3c A342     		cmp	r3, r4
 3848 0d3e FFF678AE 		blt	.L154
 920:lvgl/src/draw/sw/lv_draw_sw_rect.c ****                 blend_area.y2 = y;
 3849              		.loc 1 920 17 is_stmt 1 discriminator 3 view .LVU1433
 920:lvgl/src/draw/sw/lv_draw_sw_rect.c ****                 blend_area.y2 = y;
 3850              		.loc 1 920 31 is_stmt 0 discriminator 3 view .LVU1434
 3851 0d42 ADF85A40 		strh	r4, [sp, #90]	@ movhi
 921:lvgl/src/draw/sw/lv_draw_sw_rect.c **** 
 3852              		.loc 1 921 17 is_stmt 1 discriminator 3 view .LVU1435
 921:lvgl/src/draw/sw/lv_draw_sw_rect.c **** 
 3853              		.loc 1 921 31 is_stmt 0 discriminator 3 view .LVU1436
 3854 0d46 ADF85E40 		strh	r4, [sp, #94]	@ movhi
 923:lvgl/src/draw/sw/lv_draw_sw_rect.c ****                 blend_dsc.mask_res = lv_draw_mask_apply(mask_buf, clip_area_sub.x1, y, w);
 3855              		.loc 1 923 17 is_stmt 1 discriminator 3 view .LVU1437
 3856 0d4a 2946     		mov	r1, r5
 3857 0d4c 3846     		mov	r0, r7
ARM GAS  /var/folders/21/t9g5rlb91ys800n5npymflf80000gn/T//cca4dfU0.s 			page 119


 3858 0d4e FFF7FEFF 		bl	lv_memset_ff
 3859              	.LVL361:
 924:lvgl/src/draw/sw/lv_draw_sw_rect.c ****                 lv_draw_sw_blend(draw_ctx, &blend_dsc);
 3860              		.loc 1 924 17 discriminator 3 view .LVU1438
 924:lvgl/src/draw/sw/lv_draw_sw_rect.c ****                 lv_draw_sw_blend(draw_ctx, &blend_dsc);
 3861              		.loc 1 924 38 is_stmt 0 discriminator 3 view .LVU1439
 3862 0d52 2B46     		mov	r3, r5
 3863 0d54 2246     		mov	r2, r4
 3864 0d56 BDF95010 		ldrsh	r1, [sp, #80]
 3865 0d5a 3846     		mov	r0, r7
 3866 0d5c FFF7FEFF 		bl	lv_draw_mask_apply
 3867              	.LVL362:
 924:lvgl/src/draw/sw/lv_draw_sw_rect.c ****                 lv_draw_sw_blend(draw_ctx, &blend_dsc);
 3868              		.loc 1 924 36 discriminator 3 view .LVU1440
 3869 0d60 8DF84400 		strb	r0, [sp, #68]
 925:lvgl/src/draw/sw/lv_draw_sw_rect.c ****             }
 3870              		.loc 1 925 17 is_stmt 1 discriminator 3 view .LVU1441
 3871 0d64 0DA9     		add	r1, sp, #52
 3872 0d66 3046     		mov	r0, r6
 3873 0d68 FFF7FEFF 		bl	lv_draw_sw_blend
 3874              	.LVL363:
 919:lvgl/src/draw/sw/lv_draw_sw_rect.c ****                 blend_area.y1 = y;
 3875              		.loc 1 919 63 discriminator 3 view .LVU1442
 3876 0d6c 0134     		adds	r4, r4, #1
 3877              	.LVL364:
 919:lvgl/src/draw/sw/lv_draw_sw_rect.c ****                 blend_area.y1 = y;
 3878              		.loc 1 919 63 is_stmt 0 discriminator 3 view .LVU1443
 3879 0d6e 24B2     		sxth	r4, r4
 3880              	.LVL365:
 919:lvgl/src/draw/sw/lv_draw_sw_rect.c ****                 blend_area.y1 = y;
 3881              		.loc 1 919 63 discriminator 3 view .LVU1444
 3882 0d70 E2E7     		b	.L155
 3883              	.LVL366:
 3884              	.L209:
 919:lvgl/src/draw/sw/lv_draw_sw_rect.c ****                 blend_area.y1 = y;
 3885              		.loc 1 919 63 discriminator 3 view .LVU1445
 3886              	.LBE176:
 931:lvgl/src/draw/sw/lv_draw_sw_rect.c ****         lv_draw_mask_remove_id(mask_rout_id);
 3887              		.loc 1 931 9 is_stmt 1 view .LVU1446
 3888 0d72 18A8     		add	r0, sp, #96
 3889 0d74 FFF7FEFF 		bl	lv_draw_mask_free_param
 3890              	.LVL367:
 932:lvgl/src/draw/sw/lv_draw_sw_rect.c ****     }
 3891              		.loc 1 932 9 view .LVU1447
 3892 0d78 0798     		ldr	r0, [sp, #28]
 3893 0d7a FFF7FEFF 		bl	lv_draw_mask_remove_id
 3894              	.LVL368:
 3895 0d7e 5CE6     		b	.L157
 3896              	.LVL369:
 3897              	.L177:
 3898              	.LCFI14:
 3899              		.cfi_def_cfa_offset 0
 3900              		.cfi_restore 4
 3901              		.cfi_restore 5
 3902              		.cfi_restore 6
 3903              		.cfi_restore 7
 3904              		.cfi_restore 8
ARM GAS  /var/folders/21/t9g5rlb91ys800n5npymflf80000gn/T//cca4dfU0.s 			page 120


 3905              		.cfi_restore 9
 3906              		.cfi_restore 10
 3907              		.cfi_restore 11
 3908              		.cfi_restore 14
 932:lvgl/src/draw/sw/lv_draw_sw_rect.c ****     }
 3909              		.loc 1 932 9 is_stmt 0 view .LVU1448
 3910 0d80 7047     		bx	lr
 3911              		.cfi_endproc
 3912              	.LFE166:
 3914              		.section	.text.draw_bg,"ax",%progbits
 3915              		.align	1
 3916              		.syntax unified
 3917              		.thumb
 3918              		.thumb_func
 3920              	draw_bg:
 3921              	.LVL370:
 3922              	.LFB163:
  98:lvgl/src/draw/sw/lv_draw_sw_rect.c ****     if(dsc->bg_opa <= LV_OPA_MIN) return;
 3923              		.loc 1 98 1 is_stmt 1 view -0
 3924              		.cfi_startproc
 3925              		@ args = 0, pretend = 0, frame = 104
 3926              		@ frame_needed = 0, uses_anonymous_args = 0
  99:lvgl/src/draw/sw/lv_draw_sw_rect.c **** 
 3927              		.loc 1 99 5 view .LVU1450
  99:lvgl/src/draw/sw/lv_draw_sw_rect.c **** 
 3928              		.loc 1 99 11 is_stmt 0 view .LVU1451
 3929 0000 CB78     		ldrb	r3, [r1, #3]	@ zero_extendqisi2
  99:lvgl/src/draw/sw/lv_draw_sw_rect.c **** 
 3930              		.loc 1 99 7 view .LVU1452
 3931 0002 022B     		cmp	r3, #2
 3932 0004 40F2F181 		bls	.L257
  98:lvgl/src/draw/sw/lv_draw_sw_rect.c ****     if(dsc->bg_opa <= LV_OPA_MIN) return;
 3933              		.loc 1 98 1 view .LVU1453
 3934 0008 2DE9F04F 		push	{r4, r5, r6, r7, r8, r9, r10, fp, lr}
 3935              	.LCFI15:
 3936              		.cfi_def_cfa_offset 36
 3937              		.cfi_offset 4, -36
 3938              		.cfi_offset 5, -32
 3939              		.cfi_offset 6, -28
 3940              		.cfi_offset 7, -24
 3941              		.cfi_offset 8, -20
 3942              		.cfi_offset 9, -16
 3943              		.cfi_offset 10, -12
 3944              		.cfi_offset 11, -8
 3945              		.cfi_offset 14, -4
 3946 000c 9BB0     		sub	sp, sp, #108
 3947              	.LCFI16:
 3948              		.cfi_def_cfa_offset 144
 3949 000e 8146     		mov	r9, r0
 3950 0010 0C46     		mov	r4, r1
 101:lvgl/src/draw/sw/lv_draw_sw_rect.c ****     lv_area_copy(&bg_coords, coords);
 3951              		.loc 1 101 5 is_stmt 1 view .LVU1454
 102:lvgl/src/draw/sw/lv_draw_sw_rect.c **** 
 3952              		.loc 1 102 5 view .LVU1455
 3953              	.LVL371:
 3954              	.LBB179:
 3955              	.LBI179:
ARM GAS  /var/folders/21/t9g5rlb91ys800n5npymflf80000gn/T//cca4dfU0.s 			page 121


 110:lvgl/src/draw/sw/../../misc/lv_area.h **** {
 3956              		.loc 2 110 20 view .LVU1456
 3957              	.LBB180:
 112:lvgl/src/draw/sw/../../misc/lv_area.h ****     dest->y1 = src->y1;
 3958              		.loc 2 112 5 view .LVU1457
 112:lvgl/src/draw/sw/../../misc/lv_area.h ****     dest->y1 = src->y1;
 3959              		.loc 2 112 19 is_stmt 0 view .LVU1458
 3960 0012 B2F90050 		ldrsh	r5, [r2]
 112:lvgl/src/draw/sw/../../misc/lv_area.h ****     dest->y1 = src->y1;
 3961              		.loc 2 112 14 view .LVU1459
 3962 0016 ADF86050 		strh	r5, [sp, #96]	@ movhi
 113:lvgl/src/draw/sw/../../misc/lv_area.h ****     dest->x2 = src->x2;
 3963              		.loc 2 113 5 is_stmt 1 view .LVU1460
 113:lvgl/src/draw/sw/../../misc/lv_area.h ****     dest->x2 = src->x2;
 3964              		.loc 2 113 19 is_stmt 0 view .LVU1461
 3965 001a B2F90200 		ldrsh	r0, [r2, #2]
 3966              	.LVL372:
 113:lvgl/src/draw/sw/../../misc/lv_area.h ****     dest->x2 = src->x2;
 3967              		.loc 2 113 14 view .LVU1462
 3968 001e ADF86200 		strh	r0, [sp, #98]	@ movhi
 114:lvgl/src/draw/sw/../../misc/lv_area.h ****     dest->y2 = src->y2;
 3969              		.loc 2 114 5 is_stmt 1 view .LVU1463
 114:lvgl/src/draw/sw/../../misc/lv_area.h ****     dest->y2 = src->y2;
 3970              		.loc 2 114 19 is_stmt 0 view .LVU1464
 3971 0022 B2F90410 		ldrsh	r1, [r2, #4]
 3972              	.LVL373:
 114:lvgl/src/draw/sw/../../misc/lv_area.h ****     dest->y2 = src->y2;
 3973              		.loc 2 114 14 view .LVU1465
 3974 0026 ADF86410 		strh	r1, [sp, #100]	@ movhi
 115:lvgl/src/draw/sw/../../misc/lv_area.h **** }
 3975              		.loc 2 115 5 is_stmt 1 view .LVU1466
 115:lvgl/src/draw/sw/../../misc/lv_area.h **** }
 3976              		.loc 2 115 19 is_stmt 0 view .LVU1467
 3977 002a B2F90630 		ldrsh	r3, [r2, #6]
 115:lvgl/src/draw/sw/../../misc/lv_area.h **** }
 3978              		.loc 2 115 14 view .LVU1468
 3979 002e ADF86630 		strh	r3, [sp, #102]	@ movhi
 3980              	.LVL374:
 115:lvgl/src/draw/sw/../../misc/lv_area.h **** }
 3981              		.loc 2 115 14 view .LVU1469
 3982              	.LBE180:
 3983              	.LBE179:
 105:lvgl/src/draw/sw/lv_draw_sw_rect.c ****         bg_coords.x1 += (dsc->border_side & LV_BORDER_SIDE_LEFT) ? 1 : 0;
 3984              		.loc 1 105 5 is_stmt 1 view .LVU1470
 105:lvgl/src/draw/sw/lv_draw_sw_rect.c ****         bg_coords.x1 += (dsc->border_side & LV_BORDER_SIDE_LEFT) ? 1 : 0;
 3985              		.loc 1 105 11 is_stmt 0 view .LVU1471
 3986 0032 B4F92020 		ldrsh	r2, [r4, #32]
 3987              	.LVL375:
 105:lvgl/src/draw/sw/lv_draw_sw_rect.c ****         bg_coords.x1 += (dsc->border_side & LV_BORDER_SIDE_LEFT) ? 1 : 0;
 3988              		.loc 1 105 7 view .LVU1472
 3989 0036 012A     		cmp	r2, #1
 3990 0038 20DD     		ble	.L222
 105:lvgl/src/draw/sw/lv_draw_sw_rect.c ****         bg_coords.x1 += (dsc->border_side & LV_BORDER_SIDE_LEFT) ? 1 : 0;
 3991              		.loc 1 105 36 discriminator 1 view .LVU1473
 3992 003a 94F82220 		ldrb	r2, [r4, #34]	@ zero_extendqisi2
 105:lvgl/src/draw/sw/lv_draw_sw_rect.c ****         bg_coords.x1 += (dsc->border_side & LV_BORDER_SIDE_LEFT) ? 1 : 0;
 3993              		.loc 1 105 30 discriminator 1 view .LVU1474
ARM GAS  /var/folders/21/t9g5rlb91ys800n5npymflf80000gn/T//cca4dfU0.s 			page 122


 3994 003e FC2A     		cmp	r2, #252
 3995 0040 1CD9     		bls	.L222
 105:lvgl/src/draw/sw/lv_draw_sw_rect.c ****         bg_coords.x1 += (dsc->border_side & LV_BORDER_SIDE_LEFT) ? 1 : 0;
 3996              		.loc 1 105 69 discriminator 2 view .LVU1475
 3997 0042 B4F90020 		ldrsh	r2, [r4]
 105:lvgl/src/draw/sw/lv_draw_sw_rect.c ****         bg_coords.x1 += (dsc->border_side & LV_BORDER_SIDE_LEFT) ? 1 : 0;
 3998              		.loc 1 105 63 discriminator 2 view .LVU1476
 3999 0046 CAB1     		cbz	r2, .L222
 106:lvgl/src/draw/sw/lv_draw_sw_rect.c ****         bg_coords.y1 += (dsc->border_side & LV_BORDER_SIDE_TOP) ? 1 : 0;
 4000              		.loc 1 106 9 is_stmt 1 view .LVU1477
 106:lvgl/src/draw/sw/lv_draw_sw_rect.c ****         bg_coords.y1 += (dsc->border_side & LV_BORDER_SIDE_TOP) ? 1 : 0;
 4001              		.loc 1 106 29 is_stmt 0 view .LVU1478
 4002 0048 94F82320 		ldrb	r2, [r4, #35]	@ zero_extendqisi2
 106:lvgl/src/draw/sw/lv_draw_sw_rect.c ****         bg_coords.y1 += (dsc->border_side & LV_BORDER_SIDE_TOP) ? 1 : 0;
 4003              		.loc 1 106 70 view .LVU1479
 4004 004c C2F3C006 		ubfx	r6, r2, #3, #1
 106:lvgl/src/draw/sw/lv_draw_sw_rect.c ****         bg_coords.y1 += (dsc->border_side & LV_BORDER_SIDE_TOP) ? 1 : 0;
 4005              		.loc 1 106 22 view .LVU1480
 4006 0050 16FA85F5 		uxtah	r5, r6, r5
 4007 0054 ADF86050 		strh	r5, [sp, #96]	@ movhi
 107:lvgl/src/draw/sw/lv_draw_sw_rect.c ****         bg_coords.x2 -= (dsc->border_side & LV_BORDER_SIDE_RIGHT) ? 1 : 0;
 4008              		.loc 1 107 9 is_stmt 1 view .LVU1481
 107:lvgl/src/draw/sw/lv_draw_sw_rect.c ****         bg_coords.x2 -= (dsc->border_side & LV_BORDER_SIDE_RIGHT) ? 1 : 0;
 4009              		.loc 1 107 69 is_stmt 0 view .LVU1482
 4010 0058 C2F38005 		ubfx	r5, r2, #2, #1
 107:lvgl/src/draw/sw/lv_draw_sw_rect.c ****         bg_coords.x2 -= (dsc->border_side & LV_BORDER_SIDE_RIGHT) ? 1 : 0;
 4011              		.loc 1 107 22 view .LVU1483
 4012 005c 15FA80F0 		uxtah	r0, r5, r0
 4013 0060 ADF86200 		strh	r0, [sp, #98]	@ movhi
 108:lvgl/src/draw/sw/lv_draw_sw_rect.c ****         bg_coords.y2 -= (dsc->border_side & LV_BORDER_SIDE_BOTTOM) ? 1 : 0;
 4014              		.loc 1 108 9 is_stmt 1 view .LVU1484
 108:lvgl/src/draw/sw/lv_draw_sw_rect.c ****         bg_coords.y2 -= (dsc->border_side & LV_BORDER_SIDE_BOTTOM) ? 1 : 0;
 4015              		.loc 1 108 18 is_stmt 0 view .LVU1485
 4016 0064 89B2     		uxth	r1, r1
 108:lvgl/src/draw/sw/lv_draw_sw_rect.c ****         bg_coords.y2 -= (dsc->border_side & LV_BORDER_SIDE_BOTTOM) ? 1 : 0;
 4017              		.loc 1 108 71 view .LVU1486
 4018 0066 C2F30010 		ubfx	r0, r2, #4, #1
 108:lvgl/src/draw/sw/lv_draw_sw_rect.c ****         bg_coords.y2 -= (dsc->border_side & LV_BORDER_SIDE_BOTTOM) ? 1 : 0;
 4019              		.loc 1 108 22 view .LVU1487
 4020 006a 091A     		subs	r1, r1, r0
 4021 006c ADF86410 		strh	r1, [sp, #100]	@ movhi
 109:lvgl/src/draw/sw/lv_draw_sw_rect.c ****     }
 4022              		.loc 1 109 9 is_stmt 1 view .LVU1488
 109:lvgl/src/draw/sw/lv_draw_sw_rect.c ****     }
 4023              		.loc 1 109 18 is_stmt 0 view .LVU1489
 4024 0070 9BB2     		uxth	r3, r3
 109:lvgl/src/draw/sw/lv_draw_sw_rect.c ****     }
 4025              		.loc 1 109 72 view .LVU1490
 4026 0072 C2F34002 		ubfx	r2, r2, #1, #1
 109:lvgl/src/draw/sw/lv_draw_sw_rect.c ****     }
 4027              		.loc 1 109 22 view .LVU1491
 4028 0076 9B1A     		subs	r3, r3, r2
 4029 0078 ADF86630 		strh	r3, [sp, #102]	@ movhi
 4030              	.L222:
 112:lvgl/src/draw/sw/lv_draw_sw_rect.c ****     if(!_lv_area_intersect(&clipped_coords, &bg_coords, draw_ctx->clip_area)) return;
 4031              		.loc 1 112 5 is_stmt 1 view .LVU1492
 113:lvgl/src/draw/sw/lv_draw_sw_rect.c **** 
ARM GAS  /var/folders/21/t9g5rlb91ys800n5npymflf80000gn/T//cca4dfU0.s 			page 123


 4032              		.loc 1 113 5 view .LVU1493
 113:lvgl/src/draw/sw/lv_draw_sw_rect.c **** 
 4033              		.loc 1 113 9 is_stmt 0 view .LVU1494
 4034 007c D9F80820 		ldr	r2, [r9, #8]
 4035 0080 18A9     		add	r1, sp, #96
 4036 0082 16A8     		add	r0, sp, #88
 4037 0084 FFF7FEFF 		bl	_lv_area_intersect
 4038              	.LVL376:
 113:lvgl/src/draw/sw/lv_draw_sw_rect.c **** 
 4039              		.loc 1 113 7 view .LVU1495
 4040 0088 0028     		cmp	r0, #0
 4041 008a 00F07A81 		beq	.L220
 115:lvgl/src/draw/sw/lv_draw_sw_rect.c ****     lv_color_t bg_color    = grad_dir == LV_GRAD_DIR_NONE ? dsc->bg_color : dsc->bg_grad.stops[0].c
 4042              		.loc 1 115 5 is_stmt 1 view .LVU1496
 115:lvgl/src/draw/sw/lv_draw_sw_rect.c ****     lv_color_t bg_color    = grad_dir == LV_GRAD_DIR_NONE ? dsc->bg_color : dsc->bg_grad.stops[0].c
 4043              		.loc 1 115 42 is_stmt 0 view .LVU1497
 4044 008e 94F80FA0 		ldrb	r10, [r4, #15]	@ zero_extendqisi2
 4045              	.LVL377:
 116:lvgl/src/draw/sw/lv_draw_sw_rect.c ****     if(bg_color.full == dsc->bg_grad.stops[1].color.full) grad_dir = LV_GRAD_DIR_NONE;
 4046              		.loc 1 116 5 is_stmt 1 view .LVU1498
 116:lvgl/src/draw/sw/lv_draw_sw_rect.c ****     if(bg_color.full == dsc->bg_grad.stops[1].color.full) grad_dir = LV_GRAD_DIR_NONE;
 4047              		.loc 1 116 75 is_stmt 0 view .LVU1499
 4048 0092 1AF0070A 		ands	r10, r10, #7
 4049              	.LVL378:
 116:lvgl/src/draw/sw/lv_draw_sw_rect.c ****     if(bg_color.full == dsc->bg_grad.stops[1].color.full) grad_dir = LV_GRAD_DIR_NONE;
 4050              		.loc 1 116 75 view .LVU1500
 4051 0096 78D1     		bne	.L223
 116:lvgl/src/draw/sw/lv_draw_sw_rect.c ****     if(bg_color.full == dsc->bg_grad.stops[1].color.full) grad_dir = LV_GRAD_DIR_NONE;
 4052              		.loc 1 116 16 discriminator 1 view .LVU1501
 4053 0098 A588     		ldrh	r5, [r4, #4]
 4054              	.L224:
 117:lvgl/src/draw/sw/lv_draw_sw_rect.c **** 
 4055              		.loc 1 117 5 is_stmt 1 view .LVU1502
 4056              	.LVL379:
 117:lvgl/src/draw/sw/lv_draw_sw_rect.c **** 
 4057              		.loc 1 117 16 is_stmt 0 view .LVU1503
 4058 009a ABB2     		uxth	r3, r5
 117:lvgl/src/draw/sw/lv_draw_sw_rect.c **** 
 4059              		.loc 1 117 52 view .LVU1504
 4060 009c 6289     		ldrh	r2, [r4, #10]
 117:lvgl/src/draw/sw/lv_draw_sw_rect.c **** 
 4061              		.loc 1 117 7 view .LVU1505
 4062 009e 9342     		cmp	r3, r2
 4063 00a0 75D0     		beq	.L260
 4064              	.L225:
 4065              	.LVL380:
 119:lvgl/src/draw/sw/lv_draw_sw_rect.c ****     lv_draw_sw_blend_dsc_t blend_dsc = {0};
 4066              		.loc 1 119 5 is_stmt 1 view .LVU1506
 119:lvgl/src/draw/sw/lv_draw_sw_rect.c ****     lv_draw_sw_blend_dsc_t blend_dsc = {0};
 4067              		.loc 1 119 21 is_stmt 0 view .LVU1507
 4068 00a2 18A8     		add	r0, sp, #96
 4069 00a4 FFF7FEFF 		bl	lv_draw_mask_is_any
 4070              	.LVL381:
 120:lvgl/src/draw/sw/lv_draw_sw_rect.c ****     blend_dsc.blend_mode = dsc->blend_mode;
 4071              		.loc 1 120 5 is_stmt 1 view .LVU1508
 120:lvgl/src/draw/sw/lv_draw_sw_rect.c ****     blend_dsc.blend_mode = dsc->blend_mode;
 4072              		.loc 1 120 28 is_stmt 0 view .LVU1509
ARM GAS  /var/folders/21/t9g5rlb91ys800n5npymflf80000gn/T//cca4dfU0.s 			page 124


 4073 00a8 0023     		movs	r3, #0
 4074 00aa 0F93     		str	r3, [sp, #60]
 4075 00ac 1093     		str	r3, [sp, #64]
 4076 00ae 1193     		str	r3, [sp, #68]
 4077 00b0 1293     		str	r3, [sp, #72]
 4078 00b2 1393     		str	r3, [sp, #76]
 4079 00b4 1493     		str	r3, [sp, #80]
 4080 00b6 1593     		str	r3, [sp, #84]
 121:lvgl/src/draw/sw/lv_draw_sw_rect.c ****     blend_dsc.color = bg_color;
 4081              		.loc 1 121 5 is_stmt 1 view .LVU1510
 121:lvgl/src/draw/sw/lv_draw_sw_rect.c ****     blend_dsc.color = bg_color;
 4082              		.loc 1 121 31 is_stmt 0 view .LVU1511
 4083 00b8 A378     		ldrb	r3, [r4, #2]	@ zero_extendqisi2
 121:lvgl/src/draw/sw/lv_draw_sw_rect.c ****     blend_dsc.color = bg_color;
 4084              		.loc 1 121 26 view .LVU1512
 4085 00ba 8DF85530 		strb	r3, [sp, #85]
 122:lvgl/src/draw/sw/lv_draw_sw_rect.c **** 
 4086              		.loc 1 122 5 is_stmt 1 view .LVU1513
 122:lvgl/src/draw/sw/lv_draw_sw_rect.c **** 
 4087              		.loc 1 122 21 is_stmt 0 view .LVU1514
 4088 00be ADF84450 		strh	r5, [sp, #68]	@ movhi
 125:lvgl/src/draw/sw/lv_draw_sw_rect.c ****         blend_dsc.blend_area = &bg_coords;
 4089              		.loc 1 125 5 is_stmt 1 view .LVU1515
 125:lvgl/src/draw/sw/lv_draw_sw_rect.c ****         blend_dsc.blend_area = &bg_coords;
 4090              		.loc 1 125 7 is_stmt 0 view .LVU1516
 4091 00c2 0290     		str	r0, [sp, #8]
 4092 00c4 28B9     		cbnz	r0, .L226
 125:lvgl/src/draw/sw/lv_draw_sw_rect.c ****         blend_dsc.blend_area = &bg_coords;
 4093              		.loc 1 125 24 discriminator 1 view .LVU1517
 4094 00c6 B4F90030 		ldrsh	r3, [r4]
 125:lvgl/src/draw/sw/lv_draw_sw_rect.c ****         blend_dsc.blend_area = &bg_coords;
 4095              		.loc 1 125 18 discriminator 1 view .LVU1518
 4096 00ca 13B9     		cbnz	r3, .L226
 125:lvgl/src/draw/sw/lv_draw_sw_rect.c ****         blend_dsc.blend_area = &bg_coords;
 4097              		.loc 1 125 38 discriminator 2 view .LVU1519
 4098 00cc BAF1000F 		cmp	r10, #0
 4099 00d0 60D0     		beq	.L261
 4100              	.L226:
 136:lvgl/src/draw/sw/lv_draw_sw_rect.c **** 
 4101              		.loc 1 136 5 is_stmt 1 view .LVU1520
 136:lvgl/src/draw/sw/lv_draw_sw_rect.c **** 
 4102              		.loc 1 136 23 is_stmt 0 view .LVU1521
 4103 00d2 E378     		ldrb	r3, [r4, #3]	@ zero_extendqisi2
 4104 00d4 0093     		str	r3, [sp]
 136:lvgl/src/draw/sw/lv_draw_sw_rect.c **** 
 4105              		.loc 1 136 14 view .LVU1522
 4106 00d6 FC2B     		cmp	r3, #252
 4107 00d8 01D9     		bls	.L227
 4108 00da FF23     		movs	r3, #255
 4109 00dc 0093     		str	r3, [sp]
 4110              	.L227:
 4111              	.LVL382:
 139:lvgl/src/draw/sw/lv_draw_sw_rect.c ****     lv_coord_t coords_bg_h = lv_area_get_height(&bg_coords);
 4112              		.loc 1 139 5 is_stmt 1 discriminator 4 view .LVU1523
 4113              	.LBB181:
 4114              	.LBI181:
 123:lvgl/src/draw/sw/../../misc/lv_area.h **** {
ARM GAS  /var/folders/21/t9g5rlb91ys800n5npymflf80000gn/T//cca4dfU0.s 			page 125


 4115              		.loc 2 123 26 discriminator 4 view .LVU1524
 4116              	.LBB182:
 125:lvgl/src/draw/sw/../../misc/lv_area.h **** }
 4117              		.loc 2 125 5 discriminator 4 view .LVU1525
 125:lvgl/src/draw/sw/../../misc/lv_area.h **** }
 4118              		.loc 2 125 31 is_stmt 0 discriminator 4 view .LVU1526
 4119 00de BDF86450 		ldrh	r5, [sp, #100]
 4120              	.LVL383:
 125:lvgl/src/draw/sw/../../misc/lv_area.h **** }
 4121              		.loc 2 125 44 discriminator 4 view .LVU1527
 4122 00e2 BDF86030 		ldrh	r3, [sp, #96]
 125:lvgl/src/draw/sw/../../misc/lv_area.h **** }
 4123              		.loc 2 125 36 discriminator 4 view .LVU1528
 4124 00e6 ED1A     		subs	r5, r5, r3
 4125 00e8 ADB2     		uxth	r5, r5
 125:lvgl/src/draw/sw/../../misc/lv_area.h **** }
 4126              		.loc 2 125 49 discriminator 4 view .LVU1529
 4127 00ea 0135     		adds	r5, r5, #1
 125:lvgl/src/draw/sw/../../misc/lv_area.h **** }
 4128              		.loc 2 125 12 discriminator 4 view .LVU1530
 4129 00ec 2DB2     		sxth	r5, r5
 4130              	.LVL384:
 125:lvgl/src/draw/sw/../../misc/lv_area.h **** }
 4131              		.loc 2 125 12 discriminator 4 view .LVU1531
 4132              	.LBE182:
 4133              	.LBE181:
 140:lvgl/src/draw/sw/lv_draw_sw_rect.c ****     int32_t short_side = LV_MIN(coords_bg_w, coords_bg_h);
 4134              		.loc 1 140 5 is_stmt 1 discriminator 4 view .LVU1532
 4135              	.LBB183:
 4136              	.LBI183:
 133:lvgl/src/draw/sw/../../misc/lv_area.h **** {
 4137              		.loc 2 133 26 discriminator 4 view .LVU1533
 4138              	.LBB184:
 4139              		.loc 2 135 5 discriminator 4 view .LVU1534
 4140              		.loc 2 135 31 is_stmt 0 discriminator 4 view .LVU1535
 4141 00ee BDF86670 		ldrh	r7, [sp, #102]
 4142              		.loc 2 135 44 discriminator 4 view .LVU1536
 4143 00f2 BDF86230 		ldrh	r3, [sp, #98]
 4144              		.loc 2 135 36 discriminator 4 view .LVU1537
 4145 00f6 FF1A     		subs	r7, r7, r3
 4146 00f8 BFB2     		uxth	r7, r7
 4147              		.loc 2 135 49 discriminator 4 view .LVU1538
 4148 00fa 0137     		adds	r7, r7, #1
 4149              		.loc 2 135 12 discriminator 4 view .LVU1539
 4150 00fc 3FB2     		sxth	r7, r7
 4151              	.LVL385:
 4152              		.loc 2 135 12 discriminator 4 view .LVU1540
 4153              	.LBE184:
 4154              	.LBE183:
 141:lvgl/src/draw/sw/lv_draw_sw_rect.c ****     int32_t rout = LV_MIN(dsc->radius, short_side >> 1);
 4155              		.loc 1 141 5 is_stmt 1 discriminator 4 view .LVU1541
 141:lvgl/src/draw/sw/lv_draw_sw_rect.c ****     int32_t rout = LV_MIN(dsc->radius, short_side >> 1);
 4156              		.loc 1 141 26 is_stmt 0 discriminator 4 view .LVU1542
 4157 00fe BB46     		mov	fp, r7
 4158 0100 AF42     		cmp	r7, r5
 4159 0102 A8BF     		it	ge
 4160 0104 AB46     		movge	fp, r5
ARM GAS  /var/folders/21/t9g5rlb91ys800n5npymflf80000gn/T//cca4dfU0.s 			page 126


 4161              	.LVL386:
 142:lvgl/src/draw/sw/lv_draw_sw_rect.c **** 
 4162              		.loc 1 142 5 is_stmt 1 discriminator 4 view .LVU1543
 142:lvgl/src/draw/sw/lv_draw_sw_rect.c **** 
 4163              		.loc 1 142 20 is_stmt 0 discriminator 4 view .LVU1544
 4164 0106 4FEA6B0B 		asr	fp, fp, #1
 4165              	.LVL387:
 142:lvgl/src/draw/sw/lv_draw_sw_rect.c **** 
 4166              		.loc 1 142 20 discriminator 4 view .LVU1545
 4167 010a B4F90030 		ldrsh	r3, [r4]
 142:lvgl/src/draw/sw/lv_draw_sw_rect.c **** 
 4168              		.loc 1 142 13 discriminator 4 view .LVU1546
 4169 010e 9B45     		cmp	fp, r3
 4170              	.LVL388:
 142:lvgl/src/draw/sw/lv_draw_sw_rect.c **** 
 4171              		.loc 1 142 13 discriminator 4 view .LVU1547
 4172 0110 A8BF     		it	ge
 4173 0112 9B46     		movge	fp, r3
 4174              	.LVL389:
 145:lvgl/src/draw/sw/lv_draw_sw_rect.c ****     int16_t mask_rout_id = LV_MASK_ID_INV;
 4175              		.loc 1 145 5 is_stmt 1 discriminator 4 view .LVU1548
 4176              	.LBB185:
 4177              	.LBI185:
 123:lvgl/src/draw/sw/../../misc/lv_area.h **** {
 4178              		.loc 2 123 26 discriminator 4 view .LVU1549
 4179              	.LBB186:
 125:lvgl/src/draw/sw/../../misc/lv_area.h **** }
 4180              		.loc 2 125 5 discriminator 4 view .LVU1550
 125:lvgl/src/draw/sw/../../misc/lv_area.h **** }
 4181              		.loc 2 125 31 is_stmt 0 discriminator 4 view .LVU1551
 4182 0114 BDF85C60 		ldrh	r6, [sp, #92]
 125:lvgl/src/draw/sw/../../misc/lv_area.h **** }
 4183              		.loc 2 125 44 discriminator 4 view .LVU1552
 4184 0118 BDF85830 		ldrh	r3, [sp, #88]
 125:lvgl/src/draw/sw/../../misc/lv_area.h **** }
 4185              		.loc 2 125 36 discriminator 4 view .LVU1553
 4186 011c F61A     		subs	r6, r6, r3
 4187 011e B6B2     		uxth	r6, r6
 125:lvgl/src/draw/sw/../../misc/lv_area.h **** }
 4188              		.loc 2 125 49 discriminator 4 view .LVU1554
 4189 0120 0136     		adds	r6, r6, #1
 125:lvgl/src/draw/sw/../../misc/lv_area.h **** }
 4190              		.loc 2 125 12 discriminator 4 view .LVU1555
 4191 0122 36B2     		sxth	r6, r6
 4192              	.LVL390:
 125:lvgl/src/draw/sw/../../misc/lv_area.h **** }
 4193              		.loc 2 125 12 discriminator 4 view .LVU1556
 4194              	.LBE186:
 4195              	.LBE185:
 146:lvgl/src/draw/sw/lv_draw_sw_rect.c ****     lv_opa_t * mask_buf = NULL;
 4196              		.loc 1 146 5 is_stmt 1 discriminator 4 view .LVU1557
 147:lvgl/src/draw/sw/lv_draw_sw_rect.c ****     lv_draw_mask_radius_param_t mask_rout_param;
 4197              		.loc 1 147 5 discriminator 4 view .LVU1558
 148:lvgl/src/draw/sw/lv_draw_sw_rect.c ****     if(rout > 0 || mask_any) {
 4198              		.loc 1 148 5 discriminator 4 view .LVU1559
 149:lvgl/src/draw/sw/lv_draw_sw_rect.c ****         mask_buf = lv_mem_buf_get(clipped_w);
 4199              		.loc 1 149 5 discriminator 4 view .LVU1560
ARM GAS  /var/folders/21/t9g5rlb91ys800n5npymflf80000gn/T//cca4dfU0.s 			page 127


 149:lvgl/src/draw/sw/lv_draw_sw_rect.c ****         mask_buf = lv_mem_buf_get(clipped_w);
 4200              		.loc 1 149 7 is_stmt 0 discriminator 4 view .LVU1561
 4201 0124 BBF1000F 		cmp	fp, #0
 4202 0128 02DC     		bgt	.L228
 149:lvgl/src/draw/sw/lv_draw_sw_rect.c ****         mask_buf = lv_mem_buf_get(clipped_w);
 4203              		.loc 1 149 17 discriminator 1 view .LVU1562
 4204 012a 029B     		ldr	r3, [sp, #8]
 4205 012c 002B     		cmp	r3, #0
 4206 012e 3BD0     		beq	.L254
 4207              	.L228:
 150:lvgl/src/draw/sw/lv_draw_sw_rect.c ****         lv_draw_mask_radius_init(&mask_rout_param, &bg_coords, rout, false);
 4208              		.loc 1 150 9 is_stmt 1 view .LVU1563
 150:lvgl/src/draw/sw/lv_draw_sw_rect.c ****         lv_draw_mask_radius_init(&mask_rout_param, &bg_coords, rout, false);
 4209              		.loc 1 150 20 is_stmt 0 view .LVU1564
 4210 0130 3046     		mov	r0, r6
 4211              	.LVL391:
 150:lvgl/src/draw/sw/lv_draw_sw_rect.c ****         lv_draw_mask_radius_init(&mask_rout_param, &bg_coords, rout, false);
 4212              		.loc 1 150 20 view .LVU1565
 4213 0132 FFF7FEFF 		bl	lv_mem_buf_get
 4214              	.LVL392:
 4215 0136 8046     		mov	r8, r0
 4216              	.LVL393:
 151:lvgl/src/draw/sw/lv_draw_sw_rect.c ****         mask_rout_id = lv_draw_mask_add(&mask_rout_param, NULL);
 4217              		.loc 1 151 9 is_stmt 1 view .LVU1566
 4218 0138 0023     		movs	r3, #0
 4219 013a 5A46     		mov	r2, fp
 4220 013c 18A9     		add	r1, sp, #96
 4221 013e 09A8     		add	r0, sp, #36
 4222              	.LVL394:
 151:lvgl/src/draw/sw/lv_draw_sw_rect.c ****         mask_rout_id = lv_draw_mask_add(&mask_rout_param, NULL);
 4223              		.loc 1 151 9 is_stmt 0 view .LVU1567
 4224 0140 FFF7FEFF 		bl	lv_draw_mask_radius_init
 4225              	.LVL395:
 152:lvgl/src/draw/sw/lv_draw_sw_rect.c ****     }
 4226              		.loc 1 152 9 is_stmt 1 view .LVU1568
 152:lvgl/src/draw/sw/lv_draw_sw_rect.c ****     }
 4227              		.loc 1 152 24 is_stmt 0 view .LVU1569
 4228 0144 0021     		movs	r1, #0
 4229 0146 09A8     		add	r0, sp, #36
 4230 0148 FFF7FEFF 		bl	lv_draw_mask_add
 4231              	.LVL396:
 4232 014c 0390     		str	r0, [sp, #12]
 4233              	.LVL397:
 4234              	.L229:
 155:lvgl/src/draw/sw/lv_draw_sw_rect.c **** 
 4235              		.loc 1 155 5 is_stmt 1 view .LVU1570
 157:lvgl/src/draw/sw/lv_draw_sw_rect.c ****     blend_area.x1 = clipped_coords.x1;
 4236              		.loc 1 157 5 view .LVU1571
 158:lvgl/src/draw/sw/lv_draw_sw_rect.c ****     blend_area.x2 = clipped_coords.x2;
 4237              		.loc 1 158 5 view .LVU1572
 158:lvgl/src/draw/sw/lv_draw_sw_rect.c ****     blend_area.x2 = clipped_coords.x2;
 4238              		.loc 1 158 35 is_stmt 0 view .LVU1573
 4239 014e BDF95830 		ldrsh	r3, [sp, #88]
 158:lvgl/src/draw/sw/lv_draw_sw_rect.c ****     blend_area.x2 = clipped_coords.x2;
 4240              		.loc 1 158 19 view .LVU1574
 4241 0152 ADF81C30 		strh	r3, [sp, #28]	@ movhi
 159:lvgl/src/draw/sw/lv_draw_sw_rect.c **** 
ARM GAS  /var/folders/21/t9g5rlb91ys800n5npymflf80000gn/T//cca4dfU0.s 			page 128


 4242              		.loc 1 159 5 is_stmt 1 view .LVU1575
 159:lvgl/src/draw/sw/lv_draw_sw_rect.c **** 
 4243              		.loc 1 159 35 is_stmt 0 view .LVU1576
 4244 0156 BDF95C30 		ldrsh	r3, [sp, #92]
 159:lvgl/src/draw/sw/lv_draw_sw_rect.c **** 
 4245              		.loc 1 159 19 view .LVU1577
 4246 015a ADF82030 		strh	r3, [sp, #32]	@ movhi
 161:lvgl/src/draw/sw/lv_draw_sw_rect.c ****     blend_dsc.blend_area = &blend_area;
 4247              		.loc 1 161 5 is_stmt 1 view .LVU1578
 161:lvgl/src/draw/sw/lv_draw_sw_rect.c ****     blend_dsc.blend_area = &blend_area;
 4248              		.loc 1 161 24 is_stmt 0 view .LVU1579
 4249 015e CDF84880 		str	r8, [sp, #72]
 162:lvgl/src/draw/sw/lv_draw_sw_rect.c ****     blend_dsc.mask_area = &blend_area;
 4250              		.loc 1 162 5 is_stmt 1 view .LVU1580
 162:lvgl/src/draw/sw/lv_draw_sw_rect.c ****     blend_dsc.mask_area = &blend_area;
 4251              		.loc 1 162 26 is_stmt 0 view .LVU1581
 4252 0162 07AB     		add	r3, sp, #28
 4253 0164 0F93     		str	r3, [sp, #60]
 163:lvgl/src/draw/sw/lv_draw_sw_rect.c ****     blend_dsc.opa = LV_OPA_COVER;
 4254              		.loc 1 163 5 is_stmt 1 view .LVU1582
 163:lvgl/src/draw/sw/lv_draw_sw_rect.c ****     blend_dsc.opa = LV_OPA_COVER;
 4255              		.loc 1 163 25 is_stmt 0 view .LVU1583
 4256 0166 1493     		str	r3, [sp, #80]
 164:lvgl/src/draw/sw/lv_draw_sw_rect.c **** 
 4257              		.loc 1 164 5 is_stmt 1 view .LVU1584
 164:lvgl/src/draw/sw/lv_draw_sw_rect.c **** 
 4258              		.loc 1 164 19 is_stmt 0 view .LVU1585
 4259 0168 FF23     		movs	r3, #255
 4260 016a 8DF85430 		strb	r3, [sp, #84]
 167:lvgl/src/draw/sw/lv_draw_sw_rect.c ****     if(grad && grad_dir == LV_GRAD_DIR_HOR) {
 4261              		.loc 1 167 5 is_stmt 1 view .LVU1586
 167:lvgl/src/draw/sw/lv_draw_sw_rect.c ****     if(grad && grad_dir == LV_GRAD_DIR_HOR) {
 4262              		.loc 1 167 24 is_stmt 0 view .LVU1587
 4263 016e 3A46     		mov	r2, r7
 4264 0170 2946     		mov	r1, r5
 4265 0172 A01D     		adds	r0, r4, #6
 4266 0174 FFF7FEFF 		bl	lv_gradient_get
 4267              	.LVL398:
 168:lvgl/src/draw/sw/lv_draw_sw_rect.c ****         blend_dsc.src_buf = grad->map + clipped_coords.x1 - bg_coords.x1;
 4268              		.loc 1 168 5 is_stmt 1 view .LVU1588
 168:lvgl/src/draw/sw/lv_draw_sw_rect.c ****         blend_dsc.src_buf = grad->map + clipped_coords.x1 - bg_coords.x1;
 4269              		.loc 1 168 7 is_stmt 0 view .LVU1589
 4270 0178 0190     		str	r0, [sp, #4]
 4271 017a 10B1     		cbz	r0, .L230
 168:lvgl/src/draw/sw/lv_draw_sw_rect.c ****         blend_dsc.src_buf = grad->map + clipped_coords.x1 - bg_coords.x1;
 4272              		.loc 1 168 13 discriminator 1 view .LVU1590
 4273 017c BAF1020F 		cmp	r10, #2
 4274 0180 18D0     		beq	.L262
 4275              	.L230:
 217:lvgl/src/draw/sw/lv_draw_sw_rect.c ****         for(h = clipped_coords.y1; h <= clipped_coords.y2; h++) {
 4276              		.loc 1 217 5 is_stmt 1 view .LVU1591
 217:lvgl/src/draw/sw/lv_draw_sw_rect.c ****         for(h = clipped_coords.y1; h <= clipped_coords.y2; h++) {
 4277              		.loc 1 217 7 is_stmt 0 view .LVU1592
 4278 0182 029B     		ldr	r3, [sp, #8]
 4279 0184 03BB     		cbnz	r3, .L263
 238:lvgl/src/draw/sw/lv_draw_sw_rect.c ****         lv_coord_t top_y = bg_coords.y1 + h;
 4280              		.loc 1 238 11 view .LVU1593
ARM GAS  /var/folders/21/t9g5rlb91ys800n5npymflf80000gn/T//cca4dfU0.s 			page 129


 4281 0186 0027     		movs	r7, #0
 4282              	.LVL399:
 238:lvgl/src/draw/sw/lv_draw_sw_rect.c ****         lv_coord_t top_y = bg_coords.y1 + h;
 4283              		.loc 1 238 11 view .LVU1594
 4284 0188 66E0     		b	.L231
 4285              	.LVL400:
 4286              	.L223:
 116:lvgl/src/draw/sw/lv_draw_sw_rect.c ****     if(bg_color.full == dsc->bg_grad.stops[1].color.full) grad_dir = LV_GRAD_DIR_NONE;
 4287              		.loc 1 116 16 discriminator 2 view .LVU1595
 4288 018a E588     		ldrh	r5, [r4, #6]
 4289 018c 85E7     		b	.L224
 4290              	.LVL401:
 4291              	.L260:
 117:lvgl/src/draw/sw/lv_draw_sw_rect.c **** 
 4292              		.loc 1 117 68 view .LVU1596
 4293 018e 4FF0000A 		mov	r10, #0
 4294 0192 86E7     		b	.L225
 4295              	.LVL402:
 4296              	.L261:
 126:lvgl/src/draw/sw/lv_draw_sw_rect.c ****         blend_dsc.opa = dsc->bg_opa;
 4297              		.loc 1 126 9 is_stmt 1 view .LVU1597
 126:lvgl/src/draw/sw/lv_draw_sw_rect.c ****         blend_dsc.opa = dsc->bg_opa;
 4298              		.loc 1 126 30 is_stmt 0 view .LVU1598
 4299 0194 18AB     		add	r3, sp, #96
 4300 0196 0F93     		str	r3, [sp, #60]
 127:lvgl/src/draw/sw/lv_draw_sw_rect.c ****         lv_draw_sw_blend(draw_ctx, &blend_dsc);
 4301              		.loc 1 127 9 is_stmt 1 view .LVU1599
 127:lvgl/src/draw/sw/lv_draw_sw_rect.c ****         lv_draw_sw_blend(draw_ctx, &blend_dsc);
 4302              		.loc 1 127 28 is_stmt 0 view .LVU1600
 4303 0198 E378     		ldrb	r3, [r4, #3]	@ zero_extendqisi2
 127:lvgl/src/draw/sw/lv_draw_sw_rect.c ****         lv_draw_sw_blend(draw_ctx, &blend_dsc);
 4304              		.loc 1 127 23 view .LVU1601
 4305 019a 8DF85430 		strb	r3, [sp, #84]
 128:lvgl/src/draw/sw/lv_draw_sw_rect.c ****         return;
 4306              		.loc 1 128 9 is_stmt 1 view .LVU1602
 4307 019e 0FA9     		add	r1, sp, #60
 4308 01a0 4846     		mov	r0, r9
 4309              	.LVL403:
 128:lvgl/src/draw/sw/lv_draw_sw_rect.c ****         return;
 4310              		.loc 1 128 9 is_stmt 0 view .LVU1603
 4311 01a2 FFF7FEFF 		bl	lv_draw_sw_blend
 4312              	.LVL404:
 129:lvgl/src/draw/sw/lv_draw_sw_rect.c ****     }
 4313              		.loc 1 129 9 is_stmt 1 view .LVU1604
 4314 01a6 ECE0     		b	.L220
 4315              	.LVL405:
 4316              	.L254:
 147:lvgl/src/draw/sw/lv_draw_sw_rect.c ****     lv_draw_mask_radius_param_t mask_rout_param;
 4317              		.loc 1 147 16 is_stmt 0 view .LVU1605
 4318 01a8 4FF00008 		mov	r8, #0
 146:lvgl/src/draw/sw/lv_draw_sw_rect.c ****     lv_opa_t * mask_buf = NULL;
 4319              		.loc 1 146 13 view .LVU1606
 4320 01ac 4FF0FF33 		mov	r3, #-1
 4321 01b0 0393     		str	r3, [sp, #12]
 4322 01b2 CCE7     		b	.L229
 4323              	.LVL406:
 4324              	.L262:
ARM GAS  /var/folders/21/t9g5rlb91ys800n5npymflf80000gn/T//cca4dfU0.s 			page 130


 169:lvgl/src/draw/sw/lv_draw_sw_rect.c ****     }
 4325              		.loc 1 169 9 is_stmt 1 view .LVU1607
 169:lvgl/src/draw/sw/lv_draw_sw_rect.c ****     }
 4326              		.loc 1 169 33 is_stmt 0 view .LVU1608
 4327 01b4 8368     		ldr	r3, [r0, #8]
 169:lvgl/src/draw/sw/lv_draw_sw_rect.c ****     }
 4328              		.loc 1 169 55 view .LVU1609
 4329 01b6 BDF95820 		ldrsh	r2, [sp, #88]
 169:lvgl/src/draw/sw/lv_draw_sw_rect.c ****     }
 4330              		.loc 1 169 70 view .LVU1610
 4331 01ba BDF96010 		ldrsh	r1, [sp, #96]
 169:lvgl/src/draw/sw/lv_draw_sw_rect.c ****     }
 4332              		.loc 1 169 59 view .LVU1611
 4333 01be 521A     		subs	r2, r2, r1
 4334 01c0 03EB4203 		add	r3, r3, r2, lsl #1
 169:lvgl/src/draw/sw/lv_draw_sw_rect.c ****     }
 4335              		.loc 1 169 27 view .LVU1612
 4336 01c4 1093     		str	r3, [sp, #64]
 4337 01c6 DCE7     		b	.L230
 4338              	.L263:
 218:lvgl/src/draw/sw/lv_draw_sw_rect.c ****             blend_area.y1 = h;
 4339              		.loc 1 218 9 is_stmt 1 view .LVU1613
 218:lvgl/src/draw/sw/lv_draw_sw_rect.c ****             blend_area.y1 = h;
 4340              		.loc 1 218 31 is_stmt 0 view .LVU1614
 4341 01c8 BDF95A40 		ldrsh	r4, [sp, #90]
 4342              	.LVL407:
 218:lvgl/src/draw/sw/lv_draw_sw_rect.c ****             blend_area.y1 = h;
 4343              		.loc 1 218 31 view .LVU1615
 4344 01cc 009D     		ldr	r5, [sp]
 4345              	.LVL408:
 218:lvgl/src/draw/sw/lv_draw_sw_rect.c ****             blend_area.y1 = h;
 4346              		.loc 1 218 31 view .LVU1616
 4347 01ce 019F     		ldr	r7, [sp, #4]
 4348              	.LVL409:
 218:lvgl/src/draw/sw/lv_draw_sw_rect.c ****             blend_area.y1 = h;
 4349              		.loc 1 218 9 view .LVU1617
 4350 01d0 08E0     		b	.L232
 4351              	.LVL410:
 4352              	.L264:
 226:lvgl/src/draw/sw/lv_draw_sw_rect.c **** 
 4353              		.loc 1 226 67 is_stmt 1 discriminator 1 view .LVU1618
 226:lvgl/src/draw/sw/lv_draw_sw_rect.c **** 
 4354              		.loc 1 226 86 is_stmt 0 discriminator 1 view .LVU1619
 4355 01d2 0223     		movs	r3, #2
 4356 01d4 8DF84C30 		strb	r3, [sp, #76]
 4357 01d8 1FE0     		b	.L233
 4358              	.L234:
 232:lvgl/src/draw/sw/lv_draw_sw_rect.c ****         }
 4359              		.loc 1 232 13 is_stmt 1 discriminator 2 view .LVU1620
 4360 01da 0FA9     		add	r1, sp, #60
 4361 01dc 4846     		mov	r0, r9
 4362 01de FFF7FEFF 		bl	lv_draw_sw_blend
 4363              	.LVL411:
 218:lvgl/src/draw/sw/lv_draw_sw_rect.c ****             blend_area.y1 = h;
 4364              		.loc 1 218 61 discriminator 2 view .LVU1621
 4365 01e2 0134     		adds	r4, r4, #1
 4366              	.LVL412:
ARM GAS  /var/folders/21/t9g5rlb91ys800n5npymflf80000gn/T//cca4dfU0.s 			page 131


 4367              	.L232:
 218:lvgl/src/draw/sw/lv_draw_sw_rect.c ****             blend_area.y1 = h;
 4368              		.loc 1 218 38 discriminator 1 view .LVU1622
 218:lvgl/src/draw/sw/lv_draw_sw_rect.c ****             blend_area.y1 = h;
 4369              		.loc 1 218 55 is_stmt 0 discriminator 1 view .LVU1623
 4370 01e4 BDF95E30 		ldrsh	r3, [sp, #94]
 218:lvgl/src/draw/sw/lv_draw_sw_rect.c ****             blend_area.y1 = h;
 4371              		.loc 1 218 38 discriminator 1 view .LVU1624
 4372 01e8 A342     		cmp	r3, r4
 4373 01ea C0F2BB80 		blt	.L236
 219:lvgl/src/draw/sw/lv_draw_sw_rect.c ****             blend_area.y2 = h;
 4374              		.loc 1 219 13 is_stmt 1 view .LVU1625
 219:lvgl/src/draw/sw/lv_draw_sw_rect.c ****             blend_area.y2 = h;
 4375              		.loc 1 219 27 is_stmt 0 view .LVU1626
 4376 01ee 0FFA84FB 		sxth	fp, r4
 4377 01f2 ADF81EB0 		strh	fp, [sp, #30]	@ movhi
 220:lvgl/src/draw/sw/lv_draw_sw_rect.c **** 
 4378              		.loc 1 220 13 is_stmt 1 view .LVU1627
 220:lvgl/src/draw/sw/lv_draw_sw_rect.c **** 
 4379              		.loc 1 220 27 is_stmt 0 view .LVU1628
 4380 01f6 ADF822B0 		strh	fp, [sp, #34]	@ movhi
 224:lvgl/src/draw/sw/lv_draw_sw_rect.c ****             blend_dsc.mask_res = lv_draw_mask_apply(mask_buf, clipped_coords.x1, h, clipped_w);
 4381              		.loc 1 224 13 is_stmt 1 view .LVU1629
 4382 01fa 3246     		mov	r2, r6
 4383 01fc 2946     		mov	r1, r5
 4384 01fe 4046     		mov	r0, r8
 4385 0200 FFF7FEFF 		bl	lv_memset
 4386              	.LVL413:
 225:lvgl/src/draw/sw/lv_draw_sw_rect.c ****             if(blend_dsc.mask_res == LV_DRAW_MASK_RES_FULL_COVER) blend_dsc.mask_res = LV_DRAW_MASK
 4387              		.loc 1 225 13 view .LVU1630
 225:lvgl/src/draw/sw/lv_draw_sw_rect.c ****             if(blend_dsc.mask_res == LV_DRAW_MASK_RES_FULL_COVER) blend_dsc.mask_res = LV_DRAW_MASK
 4388              		.loc 1 225 34 is_stmt 0 view .LVU1631
 4389 0204 3346     		mov	r3, r6
 4390 0206 5A46     		mov	r2, fp
 4391 0208 BDF95810 		ldrsh	r1, [sp, #88]
 4392 020c 4046     		mov	r0, r8
 4393 020e FFF7FEFF 		bl	lv_draw_mask_apply
 4394              	.LVL414:
 225:lvgl/src/draw/sw/lv_draw_sw_rect.c ****             if(blend_dsc.mask_res == LV_DRAW_MASK_RES_FULL_COVER) blend_dsc.mask_res = LV_DRAW_MASK
 4395              		.loc 1 225 32 view .LVU1632
 4396 0212 8DF84C00 		strb	r0, [sp, #76]
 226:lvgl/src/draw/sw/lv_draw_sw_rect.c **** 
 4397              		.loc 1 226 13 is_stmt 1 view .LVU1633
 226:lvgl/src/draw/sw/lv_draw_sw_rect.c **** 
 4398              		.loc 1 226 15 is_stmt 0 view .LVU1634
 4399 0216 0128     		cmp	r0, #1
 4400 0218 DBD0     		beq	.L264
 4401              	.L233:
 231:lvgl/src/draw/sw/lv_draw_sw_rect.c ****             lv_draw_sw_blend(draw_ctx, &blend_dsc);
 4402              		.loc 1 231 13 is_stmt 1 view .LVU1635
 231:lvgl/src/draw/sw/lv_draw_sw_rect.c ****             lv_draw_sw_blend(draw_ctx, &blend_dsc);
 4403              		.loc 1 231 15 is_stmt 0 view .LVU1636
 4404 021a BAF1010F 		cmp	r10, #1
 4405 021e DCD1     		bne	.L234
 231:lvgl/src/draw/sw/lv_draw_sw_rect.c ****             lv_draw_sw_blend(draw_ctx, &blend_dsc);
 4406              		.loc 1 231 45 is_stmt 1 discriminator 1 view .LVU1637
 231:lvgl/src/draw/sw/lv_draw_sw_rect.c ****             lv_draw_sw_blend(draw_ctx, &blend_dsc);
ARM GAS  /var/folders/21/t9g5rlb91ys800n5npymflf80000gn/T//cca4dfU0.s 			page 132


 4407              		.loc 1 231 67 is_stmt 0 discriminator 1 view .LVU1638
 4408 0220 BA68     		ldr	r2, [r7, #8]
 231:lvgl/src/draw/sw/lv_draw_sw_rect.c ****             lv_draw_sw_blend(draw_ctx, &blend_dsc);
 4409              		.loc 1 231 86 discriminator 1 view .LVU1639
 4410 0222 BDF96230 		ldrsh	r3, [sp, #98]
 231:lvgl/src/draw/sw/lv_draw_sw_rect.c ****             lv_draw_sw_blend(draw_ctx, &blend_dsc);
 4411              		.loc 1 231 75 discriminator 1 view .LVU1640
 4412 0226 E31A     		subs	r3, r4, r3
 231:lvgl/src/draw/sw/lv_draw_sw_rect.c ****             lv_draw_sw_blend(draw_ctx, &blend_dsc);
 4413              		.loc 1 231 61 discriminator 1 view .LVU1641
 4414 0228 32F81330 		ldrh	r3, [r2, r3, lsl #1]
 4415 022c ADF84430 		strh	r3, [sp, #68]	@ movhi
 4416 0230 D3E7     		b	.L234
 4417              	.LVL415:
 4418              	.L266:
 4419              	.LBB187:
 247:lvgl/src/draw/sw/lv_draw_sw_rect.c **** 
 4420              		.loc 1 247 63 is_stmt 1 discriminator 1 view .LVU1642
 247:lvgl/src/draw/sw/lv_draw_sw_rect.c **** 
 4421              		.loc 1 247 82 is_stmt 0 discriminator 1 view .LVU1643
 4422 0232 0223     		movs	r3, #2
 4423 0234 8DF84C30 		strb	r3, [sp, #76]
 4424 0238 31E0     		b	.L239
 4425              	.L267:
 256:lvgl/src/draw/sw/lv_draw_sw_rect.c ****             lv_draw_sw_blend(draw_ctx, &blend_dsc);
 4426              		.loc 1 256 45 is_stmt 1 discriminator 1 view .LVU1644
 256:lvgl/src/draw/sw/lv_draw_sw_rect.c ****             lv_draw_sw_blend(draw_ctx, &blend_dsc);
 4427              		.loc 1 256 67 is_stmt 0 discriminator 1 view .LVU1645
 4428 023a 019B     		ldr	r3, [sp, #4]
 4429 023c 9B68     		ldr	r3, [r3, #8]
 256:lvgl/src/draw/sw/lv_draw_sw_rect.c ****             lv_draw_sw_blend(draw_ctx, &blend_dsc);
 4430              		.loc 1 256 90 discriminator 1 view .LVU1646
 4431 023e BDF96220 		ldrsh	r2, [sp, #98]
 256:lvgl/src/draw/sw/lv_draw_sw_rect.c ****             lv_draw_sw_blend(draw_ctx, &blend_dsc);
 4432              		.loc 1 256 79 discriminator 1 view .LVU1647
 4433 0242 A41A     		subs	r4, r4, r2
 4434              	.LVL416:
 256:lvgl/src/draw/sw/lv_draw_sw_rect.c ****             lv_draw_sw_blend(draw_ctx, &blend_dsc);
 4435              		.loc 1 256 61 discriminator 1 view .LVU1648
 4436 0244 33F81430 		ldrh	r3, [r3, r4, lsl #1]
 4437 0248 ADF84430 		strh	r3, [sp, #68]	@ movhi
 4438 024c 32E0     		b	.L241
 4439              	.LVL417:
 4440              	.L242:
 268:lvgl/src/draw/sw/lv_draw_sw_rect.c ****         }
 4441              		.loc 1 268 13 is_stmt 1 view .LVU1649
 4442 024e 0FA9     		add	r1, sp, #60
 4443 0250 4846     		mov	r0, r9
 4444 0252 FFF7FEFF 		bl	lv_draw_sw_blend
 4445              	.LVL418:
 4446              	.L238:
 268:lvgl/src/draw/sw/lv_draw_sw_rect.c ****         }
 4447              		.loc 1 268 13 is_stmt 0 view .LVU1650
 4448              	.LBE187:
 238:lvgl/src/draw/sw/lv_draw_sw_rect.c ****         lv_coord_t top_y = bg_coords.y1 + h;
 4449              		.loc 1 238 27 is_stmt 1 discriminator 2 view .LVU1651
 4450 0256 0137     		adds	r7, r7, #1
ARM GAS  /var/folders/21/t9g5rlb91ys800n5npymflf80000gn/T//cca4dfU0.s 			page 133


 4451              	.LVL419:
 4452              	.L231:
 238:lvgl/src/draw/sw/lv_draw_sw_rect.c ****         lv_coord_t top_y = bg_coords.y1 + h;
 4453              		.loc 1 238 18 discriminator 1 view .LVU1652
 4454 0258 5F45     		cmp	r7, fp
 4455 025a 44DA     		bge	.L265
 4456              	.LBB188:
 239:lvgl/src/draw/sw/lv_draw_sw_rect.c ****         lv_coord_t bottom_y = bg_coords.y2 - h;
 4457              		.loc 1 239 9 view .LVU1653
 239:lvgl/src/draw/sw/lv_draw_sw_rect.c ****         lv_coord_t bottom_y = bg_coords.y2 - h;
 4458              		.loc 1 239 37 is_stmt 0 view .LVU1654
 4459 025c BDF86240 		ldrh	r4, [sp, #98]
 239:lvgl/src/draw/sw/lv_draw_sw_rect.c ****         lv_coord_t bottom_y = bg_coords.y2 - h;
 4460              		.loc 1 239 41 view .LVU1655
 4461 0260 BBB2     		uxth	r3, r7
 4462 0262 1C44     		add	r4, r4, r3
 239:lvgl/src/draw/sw/lv_draw_sw_rect.c ****         lv_coord_t bottom_y = bg_coords.y2 - h;
 4463              		.loc 1 239 20 view .LVU1656
 4464 0264 24B2     		sxth	r4, r4
 4465              	.LVL420:
 240:lvgl/src/draw/sw/lv_draw_sw_rect.c ****         if(top_y < clipped_coords.y1 && bottom_y > clipped_coords.y2) continue;   /*This line is cl
 4466              		.loc 1 240 9 is_stmt 1 view .LVU1657
 240:lvgl/src/draw/sw/lv_draw_sw_rect.c ****         if(top_y < clipped_coords.y1 && bottom_y > clipped_coords.y2) continue;   /*This line is cl
 4467              		.loc 1 240 40 is_stmt 0 view .LVU1658
 4468 0266 BDF86650 		ldrh	r5, [sp, #102]
 240:lvgl/src/draw/sw/lv_draw_sw_rect.c ****         if(top_y < clipped_coords.y1 && bottom_y > clipped_coords.y2) continue;   /*This line is cl
 4469              		.loc 1 240 44 view .LVU1659
 4470 026a ED1A     		subs	r5, r5, r3
 240:lvgl/src/draw/sw/lv_draw_sw_rect.c ****         if(top_y < clipped_coords.y1 && bottom_y > clipped_coords.y2) continue;   /*This line is cl
 4471              		.loc 1 240 20 view .LVU1660
 4472 026c 2DB2     		sxth	r5, r5
 4473              	.LVL421:
 241:lvgl/src/draw/sw/lv_draw_sw_rect.c **** 
 4474              		.loc 1 241 9 is_stmt 1 view .LVU1661
 241:lvgl/src/draw/sw/lv_draw_sw_rect.c **** 
 4475              		.loc 1 241 34 is_stmt 0 view .LVU1662
 4476 026e BDF95A30 		ldrsh	r3, [sp, #90]
 241:lvgl/src/draw/sw/lv_draw_sw_rect.c **** 
 4477              		.loc 1 241 11 view .LVU1663
 4478 0272 A342     		cmp	r3, r4
 4479 0274 03DD     		ble	.L237
 241:lvgl/src/draw/sw/lv_draw_sw_rect.c **** 
 4480              		.loc 1 241 66 discriminator 1 view .LVU1664
 4481 0276 BDF95E30 		ldrsh	r3, [sp, #94]
 241:lvgl/src/draw/sw/lv_draw_sw_rect.c **** 
 4482              		.loc 1 241 38 discriminator 1 view .LVU1665
 4483 027a AB42     		cmp	r3, r5
 4484 027c EBDB     		blt	.L238
 4485              	.L237:
 245:lvgl/src/draw/sw/lv_draw_sw_rect.c ****         blend_dsc.mask_res = lv_draw_mask_apply(mask_buf, blend_area.x1, top_y, clipped_w);
 4486              		.loc 1 245 9 is_stmt 1 view .LVU1666
 4487 027e 3246     		mov	r2, r6
 4488 0280 0099     		ldr	r1, [sp]
 4489 0282 4046     		mov	r0, r8
 4490 0284 FFF7FEFF 		bl	lv_memset
 4491              	.LVL422:
 246:lvgl/src/draw/sw/lv_draw_sw_rect.c ****         if(blend_dsc.mask_res == LV_DRAW_MASK_RES_FULL_COVER) blend_dsc.mask_res = LV_DRAW_MASK_RES
ARM GAS  /var/folders/21/t9g5rlb91ys800n5npymflf80000gn/T//cca4dfU0.s 			page 134


 4492              		.loc 1 246 9 view .LVU1667
 246:lvgl/src/draw/sw/lv_draw_sw_rect.c ****         if(blend_dsc.mask_res == LV_DRAW_MASK_RES_FULL_COVER) blend_dsc.mask_res = LV_DRAW_MASK_RES
 4493              		.loc 1 246 30 is_stmt 0 view .LVU1668
 4494 0288 3346     		mov	r3, r6
 4495 028a 2246     		mov	r2, r4
 4496 028c BDF91C10 		ldrsh	r1, [sp, #28]
 4497 0290 4046     		mov	r0, r8
 4498 0292 FFF7FEFF 		bl	lv_draw_mask_apply
 4499              	.LVL423:
 246:lvgl/src/draw/sw/lv_draw_sw_rect.c ****         if(blend_dsc.mask_res == LV_DRAW_MASK_RES_FULL_COVER) blend_dsc.mask_res = LV_DRAW_MASK_RES
 4500              		.loc 1 246 28 view .LVU1669
 4501 0296 8DF84C00 		strb	r0, [sp, #76]
 247:lvgl/src/draw/sw/lv_draw_sw_rect.c **** 
 4502              		.loc 1 247 9 is_stmt 1 view .LVU1670
 247:lvgl/src/draw/sw/lv_draw_sw_rect.c **** 
 4503              		.loc 1 247 11 is_stmt 0 view .LVU1671
 4504 029a 0128     		cmp	r0, #1
 4505 029c C9D0     		beq	.L266
 4506              	.L239:
 249:lvgl/src/draw/sw/lv_draw_sw_rect.c ****             blend_area.y1 = top_y;
 4507              		.loc 1 249 9 is_stmt 1 view .LVU1672
 249:lvgl/src/draw/sw/lv_draw_sw_rect.c ****             blend_area.y1 = top_y;
 4508              		.loc 1 249 35 is_stmt 0 view .LVU1673
 4509 029e BDF95A30 		ldrsh	r3, [sp, #90]
 249:lvgl/src/draw/sw/lv_draw_sw_rect.c ****             blend_area.y1 = top_y;
 4510              		.loc 1 249 11 view .LVU1674
 4511 02a2 A342     		cmp	r3, r4
 4512 02a4 0ADC     		bgt	.L240
 250:lvgl/src/draw/sw/lv_draw_sw_rect.c ****             blend_area.y2 = top_y;
 4513              		.loc 1 250 13 is_stmt 1 view .LVU1675
 250:lvgl/src/draw/sw/lv_draw_sw_rect.c ****             blend_area.y2 = top_y;
 4514              		.loc 1 250 27 is_stmt 0 view .LVU1676
 4515 02a6 ADF81E40 		strh	r4, [sp, #30]	@ movhi
 251:lvgl/src/draw/sw/lv_draw_sw_rect.c **** 
 4516              		.loc 1 251 13 is_stmt 1 view .LVU1677
 251:lvgl/src/draw/sw/lv_draw_sw_rect.c **** 
 4517              		.loc 1 251 27 is_stmt 0 view .LVU1678
 4518 02aa ADF82240 		strh	r4, [sp, #34]	@ movhi
 256:lvgl/src/draw/sw/lv_draw_sw_rect.c ****             lv_draw_sw_blend(draw_ctx, &blend_dsc);
 4519              		.loc 1 256 13 is_stmt 1 view .LVU1679
 256:lvgl/src/draw/sw/lv_draw_sw_rect.c ****             lv_draw_sw_blend(draw_ctx, &blend_dsc);
 4520              		.loc 1 256 15 is_stmt 0 view .LVU1680
 4521 02ae BAF1010F 		cmp	r10, #1
 4522 02b2 C2D0     		beq	.L267
 4523              	.LVL424:
 4524              	.L241:
 257:lvgl/src/draw/sw/lv_draw_sw_rect.c ****         }
 4525              		.loc 1 257 13 is_stmt 1 view .LVU1681
 4526 02b4 0FA9     		add	r1, sp, #60
 4527 02b6 4846     		mov	r0, r9
 4528 02b8 FFF7FEFF 		bl	lv_draw_sw_blend
 4529              	.LVL425:
 4530              	.L240:
 260:lvgl/src/draw/sw/lv_draw_sw_rect.c ****             blend_area.y1 = bottom_y;
 4531              		.loc 1 260 9 view .LVU1682
 260:lvgl/src/draw/sw/lv_draw_sw_rect.c ****             blend_area.y1 = bottom_y;
 4532              		.loc 1 260 38 is_stmt 0 view .LVU1683
ARM GAS  /var/folders/21/t9g5rlb91ys800n5npymflf80000gn/T//cca4dfU0.s 			page 135


 4533 02bc BDF95E30 		ldrsh	r3, [sp, #94]
 260:lvgl/src/draw/sw/lv_draw_sw_rect.c ****             blend_area.y1 = bottom_y;
 4534              		.loc 1 260 11 view .LVU1684
 4535 02c0 AB42     		cmp	r3, r5
 4536 02c2 C8DB     		blt	.L238
 261:lvgl/src/draw/sw/lv_draw_sw_rect.c ****             blend_area.y2 = bottom_y;
 4537              		.loc 1 261 13 is_stmt 1 view .LVU1685
 261:lvgl/src/draw/sw/lv_draw_sw_rect.c ****             blend_area.y2 = bottom_y;
 4538              		.loc 1 261 27 is_stmt 0 view .LVU1686
 4539 02c4 ADF81E50 		strh	r5, [sp, #30]	@ movhi
 262:lvgl/src/draw/sw/lv_draw_sw_rect.c **** 
 4540              		.loc 1 262 13 is_stmt 1 view .LVU1687
 262:lvgl/src/draw/sw/lv_draw_sw_rect.c **** 
 4541              		.loc 1 262 27 is_stmt 0 view .LVU1688
 4542 02c8 ADF82250 		strh	r5, [sp, #34]	@ movhi
 267:lvgl/src/draw/sw/lv_draw_sw_rect.c ****             lv_draw_sw_blend(draw_ctx, &blend_dsc);
 4543              		.loc 1 267 13 is_stmt 1 view .LVU1689
 267:lvgl/src/draw/sw/lv_draw_sw_rect.c ****             lv_draw_sw_blend(draw_ctx, &blend_dsc);
 4544              		.loc 1 267 15 is_stmt 0 view .LVU1690
 4545 02cc BAF1010F 		cmp	r10, #1
 4546 02d0 BDD1     		bne	.L242
 267:lvgl/src/draw/sw/lv_draw_sw_rect.c ****             lv_draw_sw_blend(draw_ctx, &blend_dsc);
 4547              		.loc 1 267 45 is_stmt 1 discriminator 1 view .LVU1691
 267:lvgl/src/draw/sw/lv_draw_sw_rect.c ****             lv_draw_sw_blend(draw_ctx, &blend_dsc);
 4548              		.loc 1 267 67 is_stmt 0 discriminator 1 view .LVU1692
 4549 02d2 019B     		ldr	r3, [sp, #4]
 4550 02d4 9B68     		ldr	r3, [r3, #8]
 267:lvgl/src/draw/sw/lv_draw_sw_rect.c ****             lv_draw_sw_blend(draw_ctx, &blend_dsc);
 4551              		.loc 1 267 93 discriminator 1 view .LVU1693
 4552 02d6 BDF96220 		ldrsh	r2, [sp, #98]
 267:lvgl/src/draw/sw/lv_draw_sw_rect.c ****             lv_draw_sw_blend(draw_ctx, &blend_dsc);
 4553              		.loc 1 267 82 discriminator 1 view .LVU1694
 4554 02da AD1A     		subs	r5, r5, r2
 4555              	.LVL426:
 267:lvgl/src/draw/sw/lv_draw_sw_rect.c ****             lv_draw_sw_blend(draw_ctx, &blend_dsc);
 4556              		.loc 1 267 61 discriminator 1 view .LVU1695
 4557 02dc 33F81530 		ldrh	r3, [r3, r5, lsl #1]
 4558 02e0 ADF84430 		strh	r3, [sp, #68]	@ movhi
 4559 02e4 B3E7     		b	.L242
 4560              	.LVL427:
 4561              	.L265:
 267:lvgl/src/draw/sw/lv_draw_sw_rect.c ****             lv_draw_sw_blend(draw_ctx, &blend_dsc);
 4562              		.loc 1 267 61 discriminator 1 view .LVU1696
 4563              	.LBE188:
 275:lvgl/src/draw/sw/lv_draw_sw_rect.c ****     center_coords.x1 = bg_coords.x1;
 4564              		.loc 1 275 5 is_stmt 1 view .LVU1697
 276:lvgl/src/draw/sw/lv_draw_sw_rect.c ****     center_coords.x2 = bg_coords.x2;
 4565              		.loc 1 276 5 view .LVU1698
 276:lvgl/src/draw/sw/lv_draw_sw_rect.c ****     center_coords.x2 = bg_coords.x2;
 4566              		.loc 1 276 33 is_stmt 0 view .LVU1699
 4567 02e6 BDF96030 		ldrsh	r3, [sp, #96]
 276:lvgl/src/draw/sw/lv_draw_sw_rect.c ****     center_coords.x2 = bg_coords.x2;
 4568              		.loc 1 276 22 view .LVU1700
 4569 02ea ADF81430 		strh	r3, [sp, #20]	@ movhi
 277:lvgl/src/draw/sw/lv_draw_sw_rect.c ****     center_coords.y1 = bg_coords.y1 + rout;
 4570              		.loc 1 277 5 is_stmt 1 view .LVU1701
 277:lvgl/src/draw/sw/lv_draw_sw_rect.c ****     center_coords.y1 = bg_coords.y1 + rout;
ARM GAS  /var/folders/21/t9g5rlb91ys800n5npymflf80000gn/T//cca4dfU0.s 			page 136


 4571              		.loc 1 277 33 is_stmt 0 view .LVU1702
 4572 02ee BDF96430 		ldrsh	r3, [sp, #100]
 277:lvgl/src/draw/sw/lv_draw_sw_rect.c ****     center_coords.y1 = bg_coords.y1 + rout;
 4573              		.loc 1 277 22 view .LVU1703
 4574 02f2 ADF81830 		strh	r3, [sp, #24]	@ movhi
 278:lvgl/src/draw/sw/lv_draw_sw_rect.c ****     center_coords.y2 = bg_coords.y2 - rout;
 4575              		.loc 1 278 5 is_stmt 1 view .LVU1704
 278:lvgl/src/draw/sw/lv_draw_sw_rect.c ****     center_coords.y2 = bg_coords.y2 - rout;
 4576              		.loc 1 278 33 is_stmt 0 view .LVU1705
 4577 02f6 BDF86230 		ldrh	r3, [sp, #98]
 278:lvgl/src/draw/sw/lv_draw_sw_rect.c ****     center_coords.y2 = bg_coords.y2 - rout;
 4578              		.loc 1 278 37 view .LVU1706
 4579 02fa 1FFA8BF4 		uxth	r4, fp
 4580 02fe 2344     		add	r3, r3, r4
 278:lvgl/src/draw/sw/lv_draw_sw_rect.c ****     center_coords.y2 = bg_coords.y2 - rout;
 4581              		.loc 1 278 22 view .LVU1707
 4582 0300 ADF81630 		strh	r3, [sp, #22]	@ movhi
 279:lvgl/src/draw/sw/lv_draw_sw_rect.c ****     bool mask_any_center = lv_draw_mask_is_any(&center_coords);
 4583              		.loc 1 279 5 is_stmt 1 view .LVU1708
 279:lvgl/src/draw/sw/lv_draw_sw_rect.c ****     bool mask_any_center = lv_draw_mask_is_any(&center_coords);
 4584              		.loc 1 279 33 is_stmt 0 view .LVU1709
 4585 0304 BDF86630 		ldrh	r3, [sp, #102]
 279:lvgl/src/draw/sw/lv_draw_sw_rect.c ****     bool mask_any_center = lv_draw_mask_is_any(&center_coords);
 4586              		.loc 1 279 37 view .LVU1710
 4587 0308 1B1B     		subs	r3, r3, r4
 279:lvgl/src/draw/sw/lv_draw_sw_rect.c ****     bool mask_any_center = lv_draw_mask_is_any(&center_coords);
 4588              		.loc 1 279 22 view .LVU1711
 4589 030a ADF81A30 		strh	r3, [sp, #26]	@ movhi
 280:lvgl/src/draw/sw/lv_draw_sw_rect.c ****     if(!mask_any_center && grad_dir == LV_GRAD_DIR_NONE) {
 4590              		.loc 1 280 5 is_stmt 1 view .LVU1712
 280:lvgl/src/draw/sw/lv_draw_sw_rect.c ****     if(!mask_any_center && grad_dir == LV_GRAD_DIR_NONE) {
 4591              		.loc 1 280 28 is_stmt 0 view .LVU1713
 4592 030e 05A8     		add	r0, sp, #20
 4593 0310 FFF7FEFF 		bl	lv_draw_mask_is_any
 4594              	.LVL428:
 281:lvgl/src/draw/sw/lv_draw_sw_rect.c ****         blend_area.y1 = bg_coords.y1 + rout;
 4595              		.loc 1 281 5 is_stmt 1 view .LVU1714
 281:lvgl/src/draw/sw/lv_draw_sw_rect.c ****         blend_area.y1 = bg_coords.y1 + rout;
 4596              		.loc 1 281 7 is_stmt 0 view .LVU1715
 4597 0314 0546     		mov	r5, r0
 4598 0316 10B9     		cbnz	r0, .L244
 281:lvgl/src/draw/sw/lv_draw_sw_rect.c ****         blend_area.y1 = bg_coords.y1 + rout;
 4599              		.loc 1 281 25 discriminator 1 view .LVU1716
 4600 0318 BAF1000F 		cmp	r10, #0
 4601 031c 0FD0     		beq	.L268
 4602              	.L244:
 4603              	.LBB189:
 290:lvgl/src/draw/sw/lv_draw_sw_rect.c ****         blend_dsc.mask_res = LV_DRAW_MASK_RES_FULL_COVER;
 4604              		.loc 1 290 9 is_stmt 1 view .LVU1717
 290:lvgl/src/draw/sw/lv_draw_sw_rect.c ****         blend_dsc.mask_res = LV_DRAW_MASK_RES_FULL_COVER;
 4605              		.loc 1 290 23 is_stmt 0 view .LVU1718
 4606 031e 009B     		ldr	r3, [sp]
 4607 0320 8DF85430 		strb	r3, [sp, #84]
 291:lvgl/src/draw/sw/lv_draw_sw_rect.c ****         int32_t h_end = bg_coords.y2 - rout;
 4608              		.loc 1 291 9 is_stmt 1 view .LVU1719
 291:lvgl/src/draw/sw/lv_draw_sw_rect.c ****         int32_t h_end = bg_coords.y2 - rout;
 4609              		.loc 1 291 28 is_stmt 0 view .LVU1720
ARM GAS  /var/folders/21/t9g5rlb91ys800n5npymflf80000gn/T//cca4dfU0.s 			page 137


 4610 0324 0123     		movs	r3, #1
 4611 0326 8DF84C30 		strb	r3, [sp, #76]
 292:lvgl/src/draw/sw/lv_draw_sw_rect.c ****         for(h = bg_coords.y1 + rout; h <= h_end; h++) {
 4612              		.loc 1 292 9 is_stmt 1 view .LVU1721
 292:lvgl/src/draw/sw/lv_draw_sw_rect.c ****         for(h = bg_coords.y1 + rout; h <= h_end; h++) {
 4613              		.loc 1 292 34 is_stmt 0 view .LVU1722
 4614 032a BDF96640 		ldrsh	r4, [sp, #102]
 292:lvgl/src/draw/sw/lv_draw_sw_rect.c ****         for(h = bg_coords.y1 + rout; h <= h_end; h++) {
 4615              		.loc 1 292 17 view .LVU1723
 4616 032e A4EB0B04 		sub	r4, r4, fp
 4617              	.LVL429:
 293:lvgl/src/draw/sw/lv_draw_sw_rect.c ****             /*If there is no other mask do not apply mask as in the center there is no radius to ma
 4618              		.loc 1 293 9 is_stmt 1 view .LVU1724
 293:lvgl/src/draw/sw/lv_draw_sw_rect.c ****             /*If there is no other mask do not apply mask as in the center there is no radius to ma
 4619              		.loc 1 293 26 is_stmt 0 view .LVU1725
 4620 0332 BDF96270 		ldrsh	r7, [sp, #98]
 4621              	.LVL430:
 293:lvgl/src/draw/sw/lv_draw_sw_rect.c ****             /*If there is no other mask do not apply mask as in the center there is no radius to ma
 4622              		.loc 1 293 15 view .LVU1726
 4623 0336 5F44     		add	r7, r7, fp
 4624              	.LVL431:
 293:lvgl/src/draw/sw/lv_draw_sw_rect.c ****             /*If there is no other mask do not apply mask as in the center there is no radius to ma
 4625              		.loc 1 293 15 view .LVU1727
 4626 0338 DDF804B0 		ldr	fp, [sp, #4]
 4627              	.LVL432:
 293:lvgl/src/draw/sw/lv_draw_sw_rect.c ****             /*If there is no other mask do not apply mask as in the center there is no radius to ma
 4628              		.loc 1 293 9 view .LVU1728
 4629 033c 38E0     		b	.L245
 4630              	.LVL433:
 4631              	.L268:
 293:lvgl/src/draw/sw/lv_draw_sw_rect.c ****             /*If there is no other mask do not apply mask as in the center there is no radius to ma
 4632              		.loc 1 293 9 view .LVU1729
 4633              	.LBE189:
 282:lvgl/src/draw/sw/lv_draw_sw_rect.c ****         blend_area.y2 = bg_coords.y2 - rout;
 4634              		.loc 1 282 9 is_stmt 1 view .LVU1730
 282:lvgl/src/draw/sw/lv_draw_sw_rect.c ****         blend_area.y2 = bg_coords.y2 - rout;
 4635              		.loc 1 282 34 is_stmt 0 view .LVU1731
 4636 033e BDF86230 		ldrh	r3, [sp, #98]
 282:lvgl/src/draw/sw/lv_draw_sw_rect.c ****         blend_area.y2 = bg_coords.y2 - rout;
 4637              		.loc 1 282 38 view .LVU1732
 4638 0342 2344     		add	r3, r3, r4
 282:lvgl/src/draw/sw/lv_draw_sw_rect.c ****         blend_area.y2 = bg_coords.y2 - rout;
 4639              		.loc 1 282 23 view .LVU1733
 4640 0344 ADF81E30 		strh	r3, [sp, #30]	@ movhi
 283:lvgl/src/draw/sw/lv_draw_sw_rect.c ****         blend_dsc.opa = opa;
 4641              		.loc 1 283 9 is_stmt 1 view .LVU1734
 283:lvgl/src/draw/sw/lv_draw_sw_rect.c ****         blend_dsc.opa = opa;
 4642              		.loc 1 283 34 is_stmt 0 view .LVU1735
 4643 0348 BDF86630 		ldrh	r3, [sp, #102]
 283:lvgl/src/draw/sw/lv_draw_sw_rect.c ****         blend_dsc.opa = opa;
 4644              		.loc 1 283 38 view .LVU1736
 4645 034c 1B1B     		subs	r3, r3, r4
 283:lvgl/src/draw/sw/lv_draw_sw_rect.c ****         blend_dsc.opa = opa;
 4646              		.loc 1 283 23 view .LVU1737
 4647 034e ADF82230 		strh	r3, [sp, #34]	@ movhi
 284:lvgl/src/draw/sw/lv_draw_sw_rect.c ****         blend_dsc.mask_buf = NULL;
 4648              		.loc 1 284 9 is_stmt 1 view .LVU1738
ARM GAS  /var/folders/21/t9g5rlb91ys800n5npymflf80000gn/T//cca4dfU0.s 			page 138


 284:lvgl/src/draw/sw/lv_draw_sw_rect.c ****         blend_dsc.mask_buf = NULL;
 4649              		.loc 1 284 23 is_stmt 0 view .LVU1739
 4650 0352 009B     		ldr	r3, [sp]
 4651 0354 8DF85430 		strb	r3, [sp, #84]
 285:lvgl/src/draw/sw/lv_draw_sw_rect.c ****         lv_draw_sw_blend(draw_ctx, &blend_dsc);
 4652              		.loc 1 285 9 is_stmt 1 view .LVU1740
 285:lvgl/src/draw/sw/lv_draw_sw_rect.c ****         lv_draw_sw_blend(draw_ctx, &blend_dsc);
 4653              		.loc 1 285 28 is_stmt 0 view .LVU1741
 4654 0358 0023     		movs	r3, #0
 4655 035a 1293     		str	r3, [sp, #72]
 286:lvgl/src/draw/sw/lv_draw_sw_rect.c ****     }
 4656              		.loc 1 286 9 is_stmt 1 view .LVU1742
 4657 035c 0FA9     		add	r1, sp, #60
 4658 035e 4846     		mov	r0, r9
 4659              	.LVL434:
 286:lvgl/src/draw/sw/lv_draw_sw_rect.c ****     }
 4660              		.loc 1 286 9 is_stmt 0 view .LVU1743
 4661 0360 FFF7FEFF 		bl	lv_draw_sw_blend
 4662              	.LVL435:
 4663              	.L236:
 312:lvgl/src/draw/sw/lv_draw_sw_rect.c ****     if(mask_rout_id != LV_MASK_ID_INV) {
 4664              		.loc 1 312 5 is_stmt 1 view .LVU1744
 312:lvgl/src/draw/sw/lv_draw_sw_rect.c ****     if(mask_rout_id != LV_MASK_ID_INV) {
 4665              		.loc 1 312 7 is_stmt 0 view .LVU1745
 4666 0364 B8F1000F 		cmp	r8, #0
 4667 0368 02D0     		beq	.L249
 312:lvgl/src/draw/sw/lv_draw_sw_rect.c ****     if(mask_rout_id != LV_MASK_ID_INV) {
 4668              		.loc 1 312 18 is_stmt 1 discriminator 1 view .LVU1746
 4669 036a 4046     		mov	r0, r8
 4670 036c FFF7FEFF 		bl	lv_mem_buf_release
 4671              	.LVL436:
 4672              	.L249:
 313:lvgl/src/draw/sw/lv_draw_sw_rect.c ****         lv_draw_mask_remove_id(mask_rout_id);
 4673              		.loc 1 313 5 view .LVU1747
 313:lvgl/src/draw/sw/lv_draw_sw_rect.c ****         lv_draw_mask_remove_id(mask_rout_id);
 4674              		.loc 1 313 7 is_stmt 0 view .LVU1748
 4675 0370 039B     		ldr	r3, [sp, #12]
 4676 0372 B3F1FF3F 		cmp	r3, #-1
 4677 0376 31D1     		bne	.L269
 4678              	.L250:
 317:lvgl/src/draw/sw/lv_draw_sw_rect.c ****         lv_gradient_cleanup(grad);
 4679              		.loc 1 317 5 is_stmt 1 view .LVU1749
 317:lvgl/src/draw/sw/lv_draw_sw_rect.c ****         lv_gradient_cleanup(grad);
 4680              		.loc 1 317 7 is_stmt 0 view .LVU1750
 4681 0378 019B     		ldr	r3, [sp, #4]
 4682 037a 13B1     		cbz	r3, .L220
 318:lvgl/src/draw/sw/lv_draw_sw_rect.c ****     }
 4683              		.loc 1 318 9 is_stmt 1 view .LVU1751
 4684 037c 1846     		mov	r0, r3
 4685 037e FFF7FEFF 		bl	lv_gradient_cleanup
 4686              	.LVL437:
 4687              	.L220:
 322:lvgl/src/draw/sw/lv_draw_sw_rect.c **** 
 4688              		.loc 1 322 1 is_stmt 0 view .LVU1752
 4689 0382 1BB0     		add	sp, sp, #108
 4690              	.LCFI17:
 4691              		.cfi_remember_state
ARM GAS  /var/folders/21/t9g5rlb91ys800n5npymflf80000gn/T//cca4dfU0.s 			page 139


 4692              		.cfi_def_cfa_offset 36
 4693              		@ sp needed
 4694 0384 BDE8F08F 		pop	{r4, r5, r6, r7, r8, r9, r10, fp, pc}
 4695              	.LVL438:
 4696              	.L270:
 4697              	.LCFI18:
 4698              		.cfi_restore_state
 4699              	.LBB190:
 296:lvgl/src/draw/sw/lv_draw_sw_rect.c ****                 blend_dsc.mask_res = lv_draw_mask_apply(mask_buf, clipped_coords.x1, h, clipped_w);
 4700              		.loc 1 296 17 is_stmt 1 view .LVU1753
 4701 0388 3246     		mov	r2, r6
 4702 038a 0099     		ldr	r1, [sp]
 4703 038c 4046     		mov	r0, r8
 4704 038e FFF7FEFF 		bl	lv_memset
 4705              	.LVL439:
 297:lvgl/src/draw/sw/lv_draw_sw_rect.c ****             }
 4706              		.loc 1 297 17 view .LVU1754
 297:lvgl/src/draw/sw/lv_draw_sw_rect.c ****             }
 4707              		.loc 1 297 38 is_stmt 0 view .LVU1755
 4708 0392 3346     		mov	r3, r6
 4709 0394 3AB2     		sxth	r2, r7
 4710 0396 BDF95810 		ldrsh	r1, [sp, #88]
 4711 039a 4046     		mov	r0, r8
 4712 039c FFF7FEFF 		bl	lv_draw_mask_apply
 4713              	.LVL440:
 297:lvgl/src/draw/sw/lv_draw_sw_rect.c ****             }
 4714              		.loc 1 297 36 view .LVU1756
 4715 03a0 8DF84C00 		strb	r0, [sp, #76]
 4716 03a4 08E0     		b	.L246
 4717              	.L247:
 307:lvgl/src/draw/sw/lv_draw_sw_rect.c ****         }
 4718              		.loc 1 307 13 is_stmt 1 discriminator 2 view .LVU1757
 4719 03a6 0FA9     		add	r1, sp, #60
 4720 03a8 4846     		mov	r0, r9
 4721 03aa FFF7FEFF 		bl	lv_draw_sw_blend
 4722              	.LVL441:
 293:lvgl/src/draw/sw/lv_draw_sw_rect.c ****             /*If there is no other mask do not apply mask as in the center there is no radius to ma
 4723              		.loc 1 293 51 discriminator 2 view .LVU1758
 4724 03ae 0137     		adds	r7, r7, #1
 4725              	.LVL442:
 4726              	.L245:
 293:lvgl/src/draw/sw/lv_draw_sw_rect.c ****             /*If there is no other mask do not apply mask as in the center there is no radius to ma
 4727              		.loc 1 293 40 discriminator 1 view .LVU1759
 4728 03b0 A742     		cmp	r7, r4
 4729 03b2 D7DC     		bgt	.L236
 295:lvgl/src/draw/sw/lv_draw_sw_rect.c ****                 lv_memset(mask_buf, opa, clipped_w);
 4730              		.loc 1 295 13 view .LVU1760
 295:lvgl/src/draw/sw/lv_draw_sw_rect.c ****                 lv_memset(mask_buf, opa, clipped_w);
 4731              		.loc 1 295 15 is_stmt 0 view .LVU1761
 4732 03b4 002D     		cmp	r5, #0
 4733 03b6 E7D1     		bne	.L270
 4734              	.L246:
 300:lvgl/src/draw/sw/lv_draw_sw_rect.c ****             blend_area.y2 = h;
 4735              		.loc 1 300 13 is_stmt 1 view .LVU1762
 300:lvgl/src/draw/sw/lv_draw_sw_rect.c ****             blend_area.y2 = h;
 4736              		.loc 1 300 27 is_stmt 0 view .LVU1763
 4737 03b8 3BB2     		sxth	r3, r7
ARM GAS  /var/folders/21/t9g5rlb91ys800n5npymflf80000gn/T//cca4dfU0.s 			page 140


 4738 03ba ADF81E30 		strh	r3, [sp, #30]	@ movhi
 301:lvgl/src/draw/sw/lv_draw_sw_rect.c **** 
 4739              		.loc 1 301 13 is_stmt 1 view .LVU1764
 301:lvgl/src/draw/sw/lv_draw_sw_rect.c **** 
 4740              		.loc 1 301 27 is_stmt 0 view .LVU1765
 4741 03be ADF82230 		strh	r3, [sp, #34]	@ movhi
 306:lvgl/src/draw/sw/lv_draw_sw_rect.c ****             lv_draw_sw_blend(draw_ctx, &blend_dsc);
 4742              		.loc 1 306 13 is_stmt 1 view .LVU1766
 306:lvgl/src/draw/sw/lv_draw_sw_rect.c ****             lv_draw_sw_blend(draw_ctx, &blend_dsc);
 4743              		.loc 1 306 15 is_stmt 0 view .LVU1767
 4744 03c2 BAF1010F 		cmp	r10, #1
 4745 03c6 EED1     		bne	.L247
 306:lvgl/src/draw/sw/lv_draw_sw_rect.c ****             lv_draw_sw_blend(draw_ctx, &blend_dsc);
 4746              		.loc 1 306 45 is_stmt 1 discriminator 1 view .LVU1768
 306:lvgl/src/draw/sw/lv_draw_sw_rect.c ****             lv_draw_sw_blend(draw_ctx, &blend_dsc);
 4747              		.loc 1 306 67 is_stmt 0 discriminator 1 view .LVU1769
 4748 03c8 DBF80820 		ldr	r2, [fp, #8]
 306:lvgl/src/draw/sw/lv_draw_sw_rect.c ****             lv_draw_sw_blend(draw_ctx, &blend_dsc);
 4749              		.loc 1 306 86 discriminator 1 view .LVU1770
 4750 03cc BDF96230 		ldrsh	r3, [sp, #98]
 306:lvgl/src/draw/sw/lv_draw_sw_rect.c ****             lv_draw_sw_blend(draw_ctx, &blend_dsc);
 4751              		.loc 1 306 75 discriminator 1 view .LVU1771
 4752 03d0 FB1A     		subs	r3, r7, r3
 306:lvgl/src/draw/sw/lv_draw_sw_rect.c ****             lv_draw_sw_blend(draw_ctx, &blend_dsc);
 4753              		.loc 1 306 61 discriminator 1 view .LVU1772
 4754 03d2 32F81330 		ldrh	r3, [r2, r3, lsl #1]
 4755 03d6 ADF84430 		strh	r3, [sp, #68]	@ movhi
 4756 03da E4E7     		b	.L247
 4757              	.LVL443:
 4758              	.L269:
 306:lvgl/src/draw/sw/lv_draw_sw_rect.c ****             lv_draw_sw_blend(draw_ctx, &blend_dsc);
 4759              		.loc 1 306 61 discriminator 1 view .LVU1773
 4760              	.LBE190:
 314:lvgl/src/draw/sw/lv_draw_sw_rect.c ****         lv_draw_mask_free_param(&mask_rout_param);
 4761              		.loc 1 314 9 is_stmt 1 view .LVU1774
 4762 03dc 1846     		mov	r0, r3
 4763 03de FFF7FEFF 		bl	lv_draw_mask_remove_id
 4764              	.LVL444:
 315:lvgl/src/draw/sw/lv_draw_sw_rect.c ****     }
 4765              		.loc 1 315 9 view .LVU1775
 4766 03e2 09A8     		add	r0, sp, #36
 4767 03e4 FFF7FEFF 		bl	lv_draw_mask_free_param
 4768              	.LVL445:
 4769 03e8 C6E7     		b	.L250
 4770              	.LVL446:
 4771              	.L257:
 4772              	.LCFI19:
 4773              		.cfi_def_cfa_offset 0
 4774              		.cfi_restore 4
 4775              		.cfi_restore 5
 4776              		.cfi_restore 6
 4777              		.cfi_restore 7
 4778              		.cfi_restore 8
 4779              		.cfi_restore 9
 4780              		.cfi_restore 10
 4781              		.cfi_restore 11
 4782              		.cfi_restore 14
ARM GAS  /var/folders/21/t9g5rlb91ys800n5npymflf80000gn/T//cca4dfU0.s 			page 141


 315:lvgl/src/draw/sw/lv_draw_sw_rect.c ****     }
 4783              		.loc 1 315 9 is_stmt 0 view .LVU1776
 4784 03ea 7047     		bx	lr
 4785              		.cfi_endproc
 4786              	.LFE163:
 4788              		.section	.text.draw_bg_img,"ax",%progbits
 4789              		.align	1
 4790              		.syntax unified
 4791              		.thumb
 4792              		.thumb_func
 4794              	draw_bg_img:
 4795              	.LVL447:
 4796              	.LFB164:
 325:lvgl/src/draw/sw/lv_draw_sw_rect.c ****     if(dsc->bg_img_src == NULL) return;
 4797              		.loc 1 325 1 is_stmt 1 view -0
 4798              		.cfi_startproc
 4799              		@ args = 0, pretend = 0, frame = 56
 4800              		@ frame_needed = 0, uses_anonymous_args = 0
 326:lvgl/src/draw/sw/lv_draw_sw_rect.c ****     if(dsc->bg_img_opa <= LV_OPA_MIN) return;
 4801              		.loc 1 326 5 view .LVU1778
 326:lvgl/src/draw/sw/lv_draw_sw_rect.c ****     if(dsc->bg_img_opa <= LV_OPA_MIN) return;
 4802              		.loc 1 326 11 is_stmt 0 view .LVU1779
 4803 0000 0B69     		ldr	r3, [r1, #16]
 326:lvgl/src/draw/sw/lv_draw_sw_rect.c ****     if(dsc->bg_img_opa <= LV_OPA_MIN) return;
 4804              		.loc 1 326 7 view .LVU1780
 4805 0002 002B     		cmp	r3, #0
 4806 0004 00F01A81 		beq	.L284
 325:lvgl/src/draw/sw/lv_draw_sw_rect.c ****     if(dsc->bg_img_src == NULL) return;
 4807              		.loc 1 325 1 view .LVU1781
 4808 0008 2DE9F041 		push	{r4, r5, r6, r7, r8, lr}
 4809              	.LCFI20:
 4810              		.cfi_def_cfa_offset 24
 4811              		.cfi_offset 4, -24
 4812              		.cfi_offset 5, -20
 4813              		.cfi_offset 6, -16
 4814              		.cfi_offset 7, -12
 4815              		.cfi_offset 8, -8
 4816              		.cfi_offset 14, -4
 4817 000c 92B0     		sub	sp, sp, #72
 4818              	.LCFI21:
 4819              		.cfi_def_cfa_offset 96
 4820 000e 0646     		mov	r6, r0
 4821 0010 0C46     		mov	r4, r1
 4822 0012 1546     		mov	r5, r2
 327:lvgl/src/draw/sw/lv_draw_sw_rect.c **** 
 4823              		.loc 1 327 5 is_stmt 1 view .LVU1782
 327:lvgl/src/draw/sw/lv_draw_sw_rect.c **** 
 4824              		.loc 1 327 11 is_stmt 0 view .LVU1783
 4825 0014 8B7E     		ldrb	r3, [r1, #26]	@ zero_extendqisi2
 327:lvgl/src/draw/sw/lv_draw_sw_rect.c **** 
 4826              		.loc 1 327 7 view .LVU1784
 4827 0016 022B     		cmp	r3, #2
 4828 0018 02D8     		bhi	.L287
 4829              	.LVL448:
 4830              	.L271:
 396:lvgl/src/draw/sw/lv_draw_sw_rect.c **** 
 4831              		.loc 1 396 1 view .LVU1785
ARM GAS  /var/folders/21/t9g5rlb91ys800n5npymflf80000gn/T//cca4dfU0.s 			page 142


 4832 001a 12B0     		add	sp, sp, #72
 4833              	.LCFI22:
 4834              		.cfi_remember_state
 4835              		.cfi_def_cfa_offset 24
 4836              		@ sp needed
 4837 001c BDE8F081 		pop	{r4, r5, r6, r7, r8, pc}
 4838              	.LVL449:
 4839              	.L287:
 4840              	.LCFI23:
 4841              		.cfi_restore_state
 329:lvgl/src/draw/sw/lv_draw_sw_rect.c ****     if(!_lv_area_intersect(&clip_area, coords, draw_ctx->clip_area)) {
 4842              		.loc 1 329 5 is_stmt 1 view .LVU1786
 330:lvgl/src/draw/sw/lv_draw_sw_rect.c ****         return;
 4843              		.loc 1 330 5 view .LVU1787
 330:lvgl/src/draw/sw/lv_draw_sw_rect.c ****         return;
 4844              		.loc 1 330 9 is_stmt 0 view .LVU1788
 4845 0020 8268     		ldr	r2, [r0, #8]
 4846              	.LVL450:
 330:lvgl/src/draw/sw/lv_draw_sw_rect.c ****         return;
 4847              		.loc 1 330 9 view .LVU1789
 4848 0022 2946     		mov	r1, r5
 4849              	.LVL451:
 330:lvgl/src/draw/sw/lv_draw_sw_rect.c ****         return;
 4850              		.loc 1 330 9 view .LVU1790
 4851 0024 10A8     		add	r0, sp, #64
 4852              	.LVL452:
 330:lvgl/src/draw/sw/lv_draw_sw_rect.c ****         return;
 4853              		.loc 1 330 9 view .LVU1791
 4854 0026 FFF7FEFF 		bl	_lv_area_intersect
 4855              	.LVL453:
 330:lvgl/src/draw/sw/lv_draw_sw_rect.c ****         return;
 4856              		.loc 1 330 7 view .LVU1792
 4857 002a 0028     		cmp	r0, #0
 4858 002c F5D0     		beq	.L271
 334:lvgl/src/draw/sw/lv_draw_sw_rect.c ****     draw_ctx->clip_area = &clip_area;
 4859              		.loc 1 334 5 is_stmt 1 view .LVU1793
 334:lvgl/src/draw/sw/lv_draw_sw_rect.c ****     draw_ctx->clip_area = &clip_area;
 4860              		.loc 1 334 23 is_stmt 0 view .LVU1794
 4861 002e B768     		ldr	r7, [r6, #8]
 4862              	.LVL454:
 335:lvgl/src/draw/sw/lv_draw_sw_rect.c **** 
 4863              		.loc 1 335 5 is_stmt 1 view .LVU1795
 335:lvgl/src/draw/sw/lv_draw_sw_rect.c **** 
 4864              		.loc 1 335 25 is_stmt 0 view .LVU1796
 4865 0030 10AB     		add	r3, sp, #64
 4866 0032 B360     		str	r3, [r6, #8]
 337:lvgl/src/draw/sw/lv_draw_sw_rect.c ****     if(src_type == LV_IMG_SRC_SYMBOL) {
 4867              		.loc 1 337 5 is_stmt 1 view .LVU1797
 337:lvgl/src/draw/sw/lv_draw_sw_rect.c ****     if(src_type == LV_IMG_SRC_SYMBOL) {
 4868              		.loc 1 337 29 is_stmt 0 view .LVU1798
 4869 0034 2069     		ldr	r0, [r4, #16]
 4870 0036 FFF7FEFF 		bl	lv_img_src_get_type
 4871              	.LVL455:
 338:lvgl/src/draw/sw/lv_draw_sw_rect.c ****         lv_point_t size;
 4872              		.loc 1 338 5 is_stmt 1 view .LVU1799
 338:lvgl/src/draw/sw/lv_draw_sw_rect.c ****         lv_point_t size;
 4873              		.loc 1 338 7 is_stmt 0 view .LVU1800
ARM GAS  /var/folders/21/t9g5rlb91ys800n5npymflf80000gn/T//cca4dfU0.s 			page 143


 4874 003a 0228     		cmp	r0, #2
 4875 003c 07D0     		beq	.L288
 4876              	.LBB191:
 355:lvgl/src/draw/sw/lv_draw_sw_rect.c ****         lv_res_t res = lv_img_decoder_get_info(dsc->bg_img_src, &header);
 4877              		.loc 1 355 9 is_stmt 1 view .LVU1801
 356:lvgl/src/draw/sw/lv_draw_sw_rect.c ****         if(res == LV_RES_OK) {
 4878              		.loc 1 356 9 view .LVU1802
 356:lvgl/src/draw/sw/lv_draw_sw_rect.c ****         if(res == LV_RES_OK) {
 4879              		.loc 1 356 24 is_stmt 0 view .LVU1803
 4880 003e 05A9     		add	r1, sp, #20
 4881 0040 2069     		ldr	r0, [r4, #16]
 4882              	.LVL456:
 356:lvgl/src/draw/sw/lv_draw_sw_rect.c ****         if(res == LV_RES_OK) {
 4883              		.loc 1 356 24 view .LVU1804
 4884 0042 FFF7FEFF 		bl	lv_img_decoder_get_info
 4885              	.LVL457:
 357:lvgl/src/draw/sw/lv_draw_sw_rect.c ****             lv_draw_img_dsc_t img_dsc;
 4886              		.loc 1 357 9 is_stmt 1 view .LVU1805
 357:lvgl/src/draw/sw/lv_draw_sw_rect.c ****             lv_draw_img_dsc_t img_dsc;
 4887              		.loc 1 357 11 is_stmt 0 view .LVU1806
 4888 0046 0128     		cmp	r0, #1
 4889 0048 5AD0     		beq	.L289
 4890              	.LVL458:
 4891              	.L274:
 357:lvgl/src/draw/sw/lv_draw_sw_rect.c ****             lv_draw_img_dsc_t img_dsc;
 4892              		.loc 1 357 11 view .LVU1807
 4893              	.LBE191:
 395:lvgl/src/draw/sw/lv_draw_sw_rect.c **** }
 4894              		.loc 1 395 5 is_stmt 1 discriminator 5 view .LVU1808
 395:lvgl/src/draw/sw/lv_draw_sw_rect.c **** }
 4895              		.loc 1 395 25 is_stmt 0 discriminator 5 view .LVU1809
 4896 004a B760     		str	r7, [r6, #8]
 4897 004c E5E7     		b	.L271
 4898              	.LVL459:
 4899              	.L288:
 4900              	.LBB200:
 339:lvgl/src/draw/sw/lv_draw_sw_rect.c ****         lv_txt_get_size(&size, dsc->bg_img_src, dsc->bg_img_symbol_font, 0, 0, LV_COORD_MAX, LV_TEX
 4901              		.loc 1 339 9 is_stmt 1 view .LVU1810
 340:lvgl/src/draw/sw/lv_draw_sw_rect.c ****         lv_area_t a;
 4902              		.loc 1 340 9 view .LVU1811
 4903 004e 4FF00008 		mov	r8, #0
 4904 0052 CDF80880 		str	r8, [sp, #8]
 4905 0056 41F6FF73 		movw	r3, #8191
 4906 005a 0193     		str	r3, [sp, #4]
 4907 005c CDF80080 		str	r8, [sp]
 4908 0060 4346     		mov	r3, r8
 4909 0062 6269     		ldr	r2, [r4, #20]
 4910 0064 2169     		ldr	r1, [r4, #16]
 4911 0066 05A8     		add	r0, sp, #20
 4912              	.LVL460:
 340:lvgl/src/draw/sw/lv_draw_sw_rect.c ****         lv_area_t a;
 4913              		.loc 1 340 9 is_stmt 0 view .LVU1812
 4914 0068 FFF7FEFF 		bl	lv_txt_get_size
 4915              	.LVL461:
 341:lvgl/src/draw/sw/lv_draw_sw_rect.c ****         a.x1 = coords->x1 + lv_area_get_width(coords) / 2 - size.x / 2;
 4916              		.loc 1 341 9 is_stmt 1 view .LVU1813
 342:lvgl/src/draw/sw/lv_draw_sw_rect.c ****         a.x2 = a.x1 + size.x - 1;
ARM GAS  /var/folders/21/t9g5rlb91ys800n5npymflf80000gn/T//cca4dfU0.s 			page 144


 4917              		.loc 1 342 9 view .LVU1814
 342:lvgl/src/draw/sw/lv_draw_sw_rect.c ****         a.x2 = a.x1 + size.x - 1;
 4918              		.loc 1 342 22 is_stmt 0 view .LVU1815
 4919 006c 2B88     		ldrh	r3, [r5]
 4920              	.LVL462:
 4921              	.LBB201:
 4922              	.LBI201:
 123:lvgl/src/draw/sw/../../misc/lv_area.h **** {
 4923              		.loc 2 123 26 is_stmt 1 view .LVU1816
 4924              	.LBB202:
 125:lvgl/src/draw/sw/../../misc/lv_area.h **** }
 4925              		.loc 2 125 5 view .LVU1817
 125:lvgl/src/draw/sw/../../misc/lv_area.h **** }
 4926              		.loc 2 125 31 is_stmt 0 view .LVU1818
 4927 006e AA88     		ldrh	r2, [r5, #4]
 125:lvgl/src/draw/sw/../../misc/lv_area.h **** }
 4928              		.loc 2 125 36 view .LVU1819
 4929 0070 D21A     		subs	r2, r2, r3
 4930 0072 92B2     		uxth	r2, r2
 125:lvgl/src/draw/sw/../../misc/lv_area.h **** }
 4931              		.loc 2 125 49 view .LVU1820
 4932 0074 0132     		adds	r2, r2, #1
 4933              	.LVL463:
 125:lvgl/src/draw/sw/../../misc/lv_area.h **** }
 4934              		.loc 2 125 49 view .LVU1821
 4935              	.LBE202:
 4936              	.LBE201:
 342:lvgl/src/draw/sw/lv_draw_sw_rect.c ****         a.x2 = a.x1 + size.x - 1;
 4937              		.loc 1 342 27 view .LVU1822
 4938 0076 C2F3C031 		ubfx	r1, r2, #15, #1
 4939 007a 01FA82F2 		sxtah	r2, r1, r2
 4940 007e 03EB6203 		add	r3, r3, r2, asr #1
 4941 0082 9BB2     		uxth	r3, r3
 342:lvgl/src/draw/sw/lv_draw_sw_rect.c ****         a.x2 = a.x1 + size.x - 1;
 4942              		.loc 1 342 65 view .LVU1823
 4943 0084 BDF91420 		ldrsh	r2, [sp, #20]
 342:lvgl/src/draw/sw/lv_draw_sw_rect.c ****         a.x2 = a.x1 + size.x - 1;
 4944              		.loc 1 342 59 view .LVU1824
 4945 0088 02EBD271 		add	r1, r2, r2, lsr #31
 4946 008c A3EB6103 		sub	r3, r3, r1, asr #1
 342:lvgl/src/draw/sw/lv_draw_sw_rect.c ****         a.x2 = a.x1 + size.x - 1;
 4947              		.loc 1 342 14 view .LVU1825
 4948 0090 ADF81830 		strh	r3, [sp, #24]	@ movhi
 343:lvgl/src/draw/sw/lv_draw_sw_rect.c ****         a.y1 = coords->y1 + lv_area_get_height(coords) / 2 - size.y / 2;
 4949              		.loc 1 343 9 is_stmt 1 view .LVU1826
 343:lvgl/src/draw/sw/lv_draw_sw_rect.c ****         a.y1 = coords->y1 + lv_area_get_height(coords) / 2 - size.y / 2;
 4950              		.loc 1 343 27 is_stmt 0 view .LVU1827
 4951 0094 92B2     		uxth	r2, r2
 343:lvgl/src/draw/sw/lv_draw_sw_rect.c ****         a.y1 = coords->y1 + lv_area_get_height(coords) / 2 - size.y / 2;
 4952              		.loc 1 343 21 view .LVU1828
 4953 0096 12FA83F3 		uxtah	r3, r2, r3
 4954 009a 9BB2     		uxth	r3, r3
 343:lvgl/src/draw/sw/lv_draw_sw_rect.c ****         a.y1 = coords->y1 + lv_area_get_height(coords) / 2 - size.y / 2;
 4955              		.loc 1 343 30 view .LVU1829
 4956 009c 013B     		subs	r3, r3, #1
 343:lvgl/src/draw/sw/lv_draw_sw_rect.c ****         a.y1 = coords->y1 + lv_area_get_height(coords) / 2 - size.y / 2;
 4957              		.loc 1 343 14 view .LVU1830
ARM GAS  /var/folders/21/t9g5rlb91ys800n5npymflf80000gn/T//cca4dfU0.s 			page 145


 4958 009e ADF81C30 		strh	r3, [sp, #28]	@ movhi
 344:lvgl/src/draw/sw/lv_draw_sw_rect.c ****         a.y2 = a.y1 + size.y - 1;
 4959              		.loc 1 344 9 is_stmt 1 view .LVU1831
 344:lvgl/src/draw/sw/lv_draw_sw_rect.c ****         a.y2 = a.y1 + size.y - 1;
 4960              		.loc 1 344 22 is_stmt 0 view .LVU1832
 4961 00a2 6B88     		ldrh	r3, [r5, #2]
 4962              	.LVL464:
 4963              	.LBB203:
 4964              	.LBI203:
 133:lvgl/src/draw/sw/../../misc/lv_area.h **** {
 4965              		.loc 2 133 26 is_stmt 1 view .LVU1833
 4966              	.LBB204:
 4967              		.loc 2 135 5 view .LVU1834
 4968              		.loc 2 135 31 is_stmt 0 view .LVU1835
 4969 00a4 EA88     		ldrh	r2, [r5, #6]
 4970              		.loc 2 135 36 view .LVU1836
 4971 00a6 D21A     		subs	r2, r2, r3
 4972 00a8 92B2     		uxth	r2, r2
 4973              		.loc 2 135 49 view .LVU1837
 4974 00aa 0132     		adds	r2, r2, #1
 4975              	.LVL465:
 4976              		.loc 2 135 49 view .LVU1838
 4977              	.LBE204:
 4978              	.LBE203:
 344:lvgl/src/draw/sw/lv_draw_sw_rect.c ****         a.y2 = a.y1 + size.y - 1;
 4979              		.loc 1 344 27 view .LVU1839
 4980 00ac C2F3C031 		ubfx	r1, r2, #15, #1
 4981 00b0 01FA82F2 		sxtah	r2, r1, r2
 4982 00b4 03EB6203 		add	r3, r3, r2, asr #1
 4983 00b8 9BB2     		uxth	r3, r3
 344:lvgl/src/draw/sw/lv_draw_sw_rect.c ****         a.y2 = a.y1 + size.y - 1;
 4984              		.loc 1 344 66 view .LVU1840
 4985 00ba BDF91620 		ldrsh	r2, [sp, #22]
 344:lvgl/src/draw/sw/lv_draw_sw_rect.c ****         a.y2 = a.y1 + size.y - 1;
 4986              		.loc 1 344 60 view .LVU1841
 4987 00be 02EBD271 		add	r1, r2, r2, lsr #31
 4988 00c2 A3EB6103 		sub	r3, r3, r1, asr #1
 344:lvgl/src/draw/sw/lv_draw_sw_rect.c ****         a.y2 = a.y1 + size.y - 1;
 4989              		.loc 1 344 14 view .LVU1842
 4990 00c6 ADF81A30 		strh	r3, [sp, #26]	@ movhi
 345:lvgl/src/draw/sw/lv_draw_sw_rect.c **** 
 4991              		.loc 1 345 9 is_stmt 1 view .LVU1843
 345:lvgl/src/draw/sw/lv_draw_sw_rect.c **** 
 4992              		.loc 1 345 27 is_stmt 0 view .LVU1844
 4993 00ca 92B2     		uxth	r2, r2
 345:lvgl/src/draw/sw/lv_draw_sw_rect.c **** 
 4994              		.loc 1 345 21 view .LVU1845
 4995 00cc 12FA83F3 		uxtah	r3, r2, r3
 4996 00d0 9BB2     		uxth	r3, r3
 345:lvgl/src/draw/sw/lv_draw_sw_rect.c **** 
 4997              		.loc 1 345 30 view .LVU1846
 4998 00d2 013B     		subs	r3, r3, #1
 345:lvgl/src/draw/sw/lv_draw_sw_rect.c **** 
 4999              		.loc 1 345 14 view .LVU1847
 5000 00d4 ADF81E30 		strh	r3, [sp, #30]	@ movhi
 347:lvgl/src/draw/sw/lv_draw_sw_rect.c ****         lv_draw_label_dsc_init(&label_draw_dsc);
 5001              		.loc 1 347 9 is_stmt 1 view .LVU1848
ARM GAS  /var/folders/21/t9g5rlb91ys800n5npymflf80000gn/T//cca4dfU0.s 			page 146


 348:lvgl/src/draw/sw/lv_draw_sw_rect.c ****         label_draw_dsc.font = dsc->bg_img_symbol_font;
 5002              		.loc 1 348 9 view .LVU1849
 5003 00d8 08A8     		add	r0, sp, #32
 5004 00da FFF7FEFF 		bl	lv_draw_label_dsc_init
 5005              	.LVL466:
 349:lvgl/src/draw/sw/lv_draw_sw_rect.c ****         label_draw_dsc.color = dsc->bg_img_recolor;
 5006              		.loc 1 349 9 view .LVU1850
 349:lvgl/src/draw/sw/lv_draw_sw_rect.c ****         label_draw_dsc.color = dsc->bg_img_recolor;
 5007              		.loc 1 349 34 is_stmt 0 view .LVU1851
 5008 00de 6369     		ldr	r3, [r4, #20]
 349:lvgl/src/draw/sw/lv_draw_sw_rect.c ****         label_draw_dsc.color = dsc->bg_img_recolor;
 5009              		.loc 1 349 29 view .LVU1852
 5010 00e0 0893     		str	r3, [sp, #32]
 350:lvgl/src/draw/sw/lv_draw_sw_rect.c ****         label_draw_dsc.opa = dsc->bg_img_opa;
 5011              		.loc 1 350 9 is_stmt 1 view .LVU1853
 350:lvgl/src/draw/sw/lv_draw_sw_rect.c ****         label_draw_dsc.opa = dsc->bg_img_opa;
 5012              		.loc 1 350 30 is_stmt 0 view .LVU1854
 5013 00e2 238B     		ldrh	r3, [r4, #24]
 5014 00e4 ADF82C30 		strh	r3, [sp, #44]	@ movhi
 351:lvgl/src/draw/sw/lv_draw_sw_rect.c ****         lv_draw_label(draw_ctx, &label_draw_dsc, &a, dsc->bg_img_src, NULL);
 5015              		.loc 1 351 9 is_stmt 1 view .LVU1855
 351:lvgl/src/draw/sw/lv_draw_sw_rect.c ****         lv_draw_label(draw_ctx, &label_draw_dsc, &a, dsc->bg_img_src, NULL);
 5016              		.loc 1 351 33 is_stmt 0 view .LVU1856
 5017 00e8 A37E     		ldrb	r3, [r4, #26]	@ zero_extendqisi2
 351:lvgl/src/draw/sw/lv_draw_sw_rect.c ****         lv_draw_label(draw_ctx, &label_draw_dsc, &a, dsc->bg_img_src, NULL);
 5018              		.loc 1 351 28 view .LVU1857
 5019 00ea 8DF83A30 		strb	r3, [sp, #58]
 352:lvgl/src/draw/sw/lv_draw_sw_rect.c ****     }
 5020              		.loc 1 352 9 is_stmt 1 view .LVU1858
 5021 00ee CDF80080 		str	r8, [sp]
 5022 00f2 2369     		ldr	r3, [r4, #16]
 5023 00f4 06AA     		add	r2, sp, #24
 5024 00f6 08A9     		add	r1, sp, #32
 5025 00f8 3046     		mov	r0, r6
 5026 00fa FFF7FEFF 		bl	lv_draw_label
 5027              	.LVL467:
 5028              	.LBE200:
 5029 00fe A4E7     		b	.L274
 5030              	.LVL468:
 5031              	.L289:
 5032              	.LBB205:
 5033              	.LBB192:
 358:lvgl/src/draw/sw/lv_draw_sw_rect.c ****             lv_draw_img_dsc_init(&img_dsc);
 5034              		.loc 1 358 13 view .LVU1859
 359:lvgl/src/draw/sw/lv_draw_sw_rect.c ****             img_dsc.blend_mode = dsc->blend_mode;
 5035              		.loc 1 359 13 view .LVU1860
 5036 0100 08A8     		add	r0, sp, #32
 5037              	.LVL469:
 359:lvgl/src/draw/sw/lv_draw_sw_rect.c ****             img_dsc.blend_mode = dsc->blend_mode;
 5038              		.loc 1 359 13 is_stmt 0 view .LVU1861
 5039 0102 FFF7FEFF 		bl	lv_draw_img_dsc_init
 5040              	.LVL470:
 360:lvgl/src/draw/sw/lv_draw_sw_rect.c ****             img_dsc.recolor = dsc->bg_img_recolor;
 5041              		.loc 1 360 13 is_stmt 1 view .LVU1862
 360:lvgl/src/draw/sw/lv_draw_sw_rect.c ****             img_dsc.recolor = dsc->bg_img_recolor;
 5042              		.loc 1 360 37 is_stmt 0 view .LVU1863
 5043 0106 A278     		ldrb	r2, [r4, #2]	@ zero_extendqisi2
ARM GAS  /var/folders/21/t9g5rlb91ys800n5npymflf80000gn/T//cca4dfU0.s 			page 147


 360:lvgl/src/draw/sw/lv_draw_sw_rect.c ****             img_dsc.recolor = dsc->bg_img_recolor;
 5044              		.loc 1 360 32 view .LVU1864
 5045 0108 9DF82C30 		ldrb	r3, [sp, #44]	@ zero_extendqisi2
 5046 010c 62F30303 		bfi	r3, r2, #0, #4
 5047 0110 8DF82C30 		strb	r3, [sp, #44]
 361:lvgl/src/draw/sw/lv_draw_sw_rect.c ****             img_dsc.recolor_opa = dsc->bg_img_recolor_opa;
 5048              		.loc 1 361 13 is_stmt 1 view .LVU1865
 361:lvgl/src/draw/sw/lv_draw_sw_rect.c ****             img_dsc.recolor_opa = dsc->bg_img_recolor_opa;
 5049              		.loc 1 361 29 is_stmt 0 view .LVU1866
 5050 0114 238B     		ldrh	r3, [r4, #24]
 5051 0116 ADF82830 		strh	r3, [sp, #40]	@ movhi
 362:lvgl/src/draw/sw/lv_draw_sw_rect.c ****             img_dsc.opa = dsc->bg_img_opa;
 5052              		.loc 1 362 13 is_stmt 1 view .LVU1867
 362:lvgl/src/draw/sw/lv_draw_sw_rect.c ****             img_dsc.opa = dsc->bg_img_opa;
 5053              		.loc 1 362 38 is_stmt 0 view .LVU1868
 5054 011a E37E     		ldrb	r3, [r4, #27]	@ zero_extendqisi2
 362:lvgl/src/draw/sw/lv_draw_sw_rect.c ****             img_dsc.opa = dsc->bg_img_opa;
 5055              		.loc 1 362 33 view .LVU1869
 5056 011c 8DF82A30 		strb	r3, [sp, #42]
 363:lvgl/src/draw/sw/lv_draw_sw_rect.c **** 
 5057              		.loc 1 363 13 is_stmt 1 view .LVU1870
 363:lvgl/src/draw/sw/lv_draw_sw_rect.c **** 
 5058              		.loc 1 363 30 is_stmt 0 view .LVU1871
 5059 0120 A37E     		ldrb	r3, [r4, #26]	@ zero_extendqisi2
 363:lvgl/src/draw/sw/lv_draw_sw_rect.c **** 
 5060              		.loc 1 363 25 view .LVU1872
 5061 0122 8DF82B30 		strb	r3, [sp, #43]
 366:lvgl/src/draw/sw/lv_draw_sw_rect.c ****                 lv_area_t area;
 5062              		.loc 1 366 13 is_stmt 1 view .LVU1873
 366:lvgl/src/draw/sw/lv_draw_sw_rect.c ****                 lv_area_t area;
 5063              		.loc 1 366 19 is_stmt 0 view .LVU1874
 5064 0126 237F     		ldrb	r3, [r4, #28]	@ zero_extendqisi2
 366:lvgl/src/draw/sw/lv_draw_sw_rect.c ****                 lv_area_t area;
 5065              		.loc 1 366 15 view .LVU1875
 5066 0128 73B1     		cbz	r3, .L290
 5067              	.LBB193:
 376:lvgl/src/draw/sw/lv_draw_sw_rect.c ****                 area.y1 = coords->y1;
 5068              		.loc 1 376 17 is_stmt 1 view .LVU1876
 377:lvgl/src/draw/sw/lv_draw_sw_rect.c ****                 area.y2 = area.y1 + header.h - 1;
 5069              		.loc 1 377 17 view .LVU1877
 377:lvgl/src/draw/sw/lv_draw_sw_rect.c ****                 area.y2 = area.y1 + header.h - 1;
 5070              		.loc 1 377 33 is_stmt 0 view .LVU1878
 5071 012a B5F90230 		ldrsh	r3, [r5, #2]
 377:lvgl/src/draw/sw/lv_draw_sw_rect.c ****                 area.y2 = area.y1 + header.h - 1;
 5072              		.loc 1 377 25 view .LVU1879
 5073 012e ADF81A30 		strh	r3, [sp, #26]	@ movhi
 378:lvgl/src/draw/sw/lv_draw_sw_rect.c **** 
 5074              		.loc 1 378 17 is_stmt 1 view .LVU1880
 378:lvgl/src/draw/sw/lv_draw_sw_rect.c **** 
 5075              		.loc 1 378 43 is_stmt 0 view .LVU1881
 5076 0132 BDF81620 		ldrh	r2, [sp, #22]
 5077 0136 C2F34A12 		ubfx	r2, r2, #5, #11
 378:lvgl/src/draw/sw/lv_draw_sw_rect.c **** 
 5078              		.loc 1 378 35 view .LVU1882
 5079 013a 12FA83F3 		uxtah	r3, r2, r3
 5080 013e 9BB2     		uxth	r3, r3
 378:lvgl/src/draw/sw/lv_draw_sw_rect.c **** 
ARM GAS  /var/folders/21/t9g5rlb91ys800n5npymflf80000gn/T//cca4dfU0.s 			page 148


 5081              		.loc 1 378 46 view .LVU1883
 5082 0140 013B     		subs	r3, r3, #1
 378:lvgl/src/draw/sw/lv_draw_sw_rect.c **** 
 5083              		.loc 1 378 25 view .LVU1884
 5084 0142 ADF81E30 		strh	r3, [sp, #30]	@ movhi
 380:lvgl/src/draw/sw/lv_draw_sw_rect.c **** 
 5085              		.loc 1 380 17 is_stmt 1 view .LVU1885
 5086 0146 64E0     		b	.L278
 5087              	.L290:
 380:lvgl/src/draw/sw/lv_draw_sw_rect.c **** 
 5088              		.loc 1 380 17 is_stmt 0 view .LVU1886
 5089              	.LBE193:
 5090              	.LBB194:
 367:lvgl/src/draw/sw/lv_draw_sw_rect.c ****                 area.x1 = coords->x1 + lv_area_get_width(coords) / 2 - header.w / 2;
 5091              		.loc 1 367 17 is_stmt 1 view .LVU1887
 368:lvgl/src/draw/sw/lv_draw_sw_rect.c ****                 area.y1 = coords->y1 + lv_area_get_height(coords) / 2 - header.h / 2;
 5092              		.loc 1 368 17 view .LVU1888
 368:lvgl/src/draw/sw/lv_draw_sw_rect.c ****                 area.y1 = coords->y1 + lv_area_get_height(coords) / 2 - header.h / 2;
 5093              		.loc 1 368 33 is_stmt 0 view .LVU1889
 5094 0148 2A88     		ldrh	r2, [r5]
 5095              	.LVL471:
 5096              	.LBB195:
 5097              	.LBI195:
 123:lvgl/src/draw/sw/../../misc/lv_area.h **** {
 5098              		.loc 2 123 26 is_stmt 1 view .LVU1890
 5099              	.LBB196:
 125:lvgl/src/draw/sw/../../misc/lv_area.h **** }
 5100              		.loc 2 125 5 view .LVU1891
 125:lvgl/src/draw/sw/../../misc/lv_area.h **** }
 5101              		.loc 2 125 31 is_stmt 0 view .LVU1892
 5102 014a AB88     		ldrh	r3, [r5, #4]
 125:lvgl/src/draw/sw/../../misc/lv_area.h **** }
 5103              		.loc 2 125 36 view .LVU1893
 5104 014c 9B1A     		subs	r3, r3, r2
 5105 014e 9BB2     		uxth	r3, r3
 125:lvgl/src/draw/sw/../../misc/lv_area.h **** }
 5106              		.loc 2 125 49 view .LVU1894
 5107 0150 0133     		adds	r3, r3, #1
 5108              	.LVL472:
 125:lvgl/src/draw/sw/../../misc/lv_area.h **** }
 5109              		.loc 2 125 49 view .LVU1895
 5110              	.LBE196:
 5111              	.LBE195:
 368:lvgl/src/draw/sw/lv_draw_sw_rect.c ****                 area.y1 = coords->y1 + lv_area_get_height(coords) / 2 - header.h / 2;
 5112              		.loc 1 368 38 view .LVU1896
 5113 0152 C3F3C031 		ubfx	r1, r3, #15, #1
 5114 0156 01FA83F3 		sxtah	r3, r1, r3
 5115 015a 02EB6302 		add	r2, r2, r3, asr #1
 368:lvgl/src/draw/sw/lv_draw_sw_rect.c ****                 area.y1 = coords->y1 + lv_area_get_height(coords) / 2 - header.h / 2;
 5116              		.loc 1 368 78 view .LVU1897
 5117 015e 059B     		ldr	r3, [sp, #20]
 5118 0160 C3F38A20 		ubfx	r0, r3, #10, #11
 368:lvgl/src/draw/sw/lv_draw_sw_rect.c ****                 area.y1 = coords->y1 + lv_area_get_height(coords) / 2 - header.h / 2;
 5119              		.loc 1 368 81 view .LVU1898
 5120 0164 C3F3C923 		ubfx	r3, r3, #11, #10
 5121 0168 5B42     		rsbs	r3, r3, #0
 368:lvgl/src/draw/sw/lv_draw_sw_rect.c ****                 area.y1 = coords->y1 + lv_area_get_height(coords) / 2 - header.h / 2;
ARM GAS  /var/folders/21/t9g5rlb91ys800n5npymflf80000gn/T//cca4dfU0.s 			page 149


 5122              		.loc 1 368 70 view .LVU1899
 5123 016a 13FA82F2 		uxtah	r2, r3, r2
 368:lvgl/src/draw/sw/lv_draw_sw_rect.c ****                 area.y1 = coords->y1 + lv_area_get_height(coords) / 2 - header.h / 2;
 5124              		.loc 1 368 25 view .LVU1900
 5125 016e ADF81820 		strh	r2, [sp, #24]	@ movhi
 369:lvgl/src/draw/sw/lv_draw_sw_rect.c ****                 area.x2 = area.x1 + header.w - 1;
 5126              		.loc 1 369 17 is_stmt 1 view .LVU1901
 369:lvgl/src/draw/sw/lv_draw_sw_rect.c ****                 area.x2 = area.x1 + header.w - 1;
 5127              		.loc 1 369 33 is_stmt 0 view .LVU1902
 5128 0172 6B88     		ldrh	r3, [r5, #2]
 5129              	.LVL473:
 5130              	.LBB197:
 5131              	.LBI197:
 133:lvgl/src/draw/sw/../../misc/lv_area.h **** {
 5132              		.loc 2 133 26 is_stmt 1 view .LVU1903
 5133              	.LBB198:
 5134              		.loc 2 135 5 view .LVU1904
 5135              		.loc 2 135 31 is_stmt 0 view .LVU1905
 5136 0174 E988     		ldrh	r1, [r5, #6]
 5137              		.loc 2 135 36 view .LVU1906
 5138 0176 C91A     		subs	r1, r1, r3
 5139 0178 89B2     		uxth	r1, r1
 5140              		.loc 2 135 49 view .LVU1907
 5141 017a 0131     		adds	r1, r1, #1
 5142              	.LVL474:
 5143              		.loc 2 135 49 view .LVU1908
 5144              	.LBE198:
 5145              	.LBE197:
 369:lvgl/src/draw/sw/lv_draw_sw_rect.c ****                 area.x2 = area.x1 + header.w - 1;
 5146              		.loc 1 369 38 view .LVU1909
 5147 017c C1F3C035 		ubfx	r5, r1, #15, #1
 5148              	.LVL475:
 369:lvgl/src/draw/sw/lv_draw_sw_rect.c ****                 area.x2 = area.x1 + header.w - 1;
 5149              		.loc 1 369 38 view .LVU1910
 5150 0180 05FA81F1 		sxtah	r1, r5, r1
 5151 0184 03EB6103 		add	r3, r3, r1, asr #1
 369:lvgl/src/draw/sw/lv_draw_sw_rect.c ****                 area.x2 = area.x1 + header.w - 1;
 5152              		.loc 1 369 79 view .LVU1911
 5153 0188 BDF81610 		ldrh	r1, [sp, #22]
 5154 018c C1F34A15 		ubfx	r5, r1, #5, #11
 369:lvgl/src/draw/sw/lv_draw_sw_rect.c ****                 area.x2 = area.x1 + header.w - 1;
 5155              		.loc 1 369 82 view .LVU1912
 5156 0190 C1F38911 		ubfx	r1, r1, #6, #10
 5157 0194 4942     		rsbs	r1, r1, #0
 369:lvgl/src/draw/sw/lv_draw_sw_rect.c ****                 area.x2 = area.x1 + header.w - 1;
 5158              		.loc 1 369 71 view .LVU1913
 5159 0196 11FA83F3 		uxtah	r3, r1, r3
 369:lvgl/src/draw/sw/lv_draw_sw_rect.c ****                 area.x2 = area.x1 + header.w - 1;
 5160              		.loc 1 369 25 view .LVU1914
 5161 019a ADF81A30 		strh	r3, [sp, #26]	@ movhi
 370:lvgl/src/draw/sw/lv_draw_sw_rect.c ****                 area.y2 = area.y1 + header.h - 1;
 5162              		.loc 1 370 17 is_stmt 1 view .LVU1915
 370:lvgl/src/draw/sw/lv_draw_sw_rect.c ****                 area.y2 = area.y1 + header.h - 1;
 5163              		.loc 1 370 35 is_stmt 0 view .LVU1916
 5164 019e 10FA82F2 		uxtah	r2, r0, r2
 5165 01a2 92B2     		uxth	r2, r2
 370:lvgl/src/draw/sw/lv_draw_sw_rect.c ****                 area.y2 = area.y1 + header.h - 1;
ARM GAS  /var/folders/21/t9g5rlb91ys800n5npymflf80000gn/T//cca4dfU0.s 			page 150


 5166              		.loc 1 370 46 view .LVU1917
 5167 01a4 013A     		subs	r2, r2, #1
 370:lvgl/src/draw/sw/lv_draw_sw_rect.c ****                 area.y2 = area.y1 + header.h - 1;
 5168              		.loc 1 370 25 view .LVU1918
 5169 01a6 ADF81C20 		strh	r2, [sp, #28]	@ movhi
 371:lvgl/src/draw/sw/lv_draw_sw_rect.c **** 
 5170              		.loc 1 371 17 is_stmt 1 view .LVU1919
 371:lvgl/src/draw/sw/lv_draw_sw_rect.c **** 
 5171              		.loc 1 371 35 is_stmt 0 view .LVU1920
 5172 01aa 15FA83F3 		uxtah	r3, r5, r3
 5173 01ae 9BB2     		uxth	r3, r3
 371:lvgl/src/draw/sw/lv_draw_sw_rect.c **** 
 5174              		.loc 1 371 46 view .LVU1921
 5175 01b0 013B     		subs	r3, r3, #1
 371:lvgl/src/draw/sw/lv_draw_sw_rect.c **** 
 5176              		.loc 1 371 25 view .LVU1922
 5177 01b2 ADF81E30 		strh	r3, [sp, #30]	@ movhi
 373:lvgl/src/draw/sw/lv_draw_sw_rect.c ****             }
 5178              		.loc 1 373 17 is_stmt 1 view .LVU1923
 5179 01b6 2369     		ldr	r3, [r4, #16]
 5180 01b8 06AA     		add	r2, sp, #24
 5181 01ba 08A9     		add	r1, sp, #32
 5182 01bc 3046     		mov	r0, r6
 5183 01be FFF7FEFF 		bl	lv_draw_img
 5184              	.LVL476:
 5185              	.LBE194:
 5186 01c2 42E7     		b	.L274
 5187              	.LVL477:
 5188              	.L280:
 5189              	.LBB199:
 385:lvgl/src/draw/sw/lv_draw_sw_rect.c ****                     }
 5190              		.loc 1 385 25 discriminator 2 view .LVU1924
 5191 01c4 2369     		ldr	r3, [r4, #16]
 5192 01c6 06AA     		add	r2, sp, #24
 5193 01c8 08A9     		add	r1, sp, #32
 5194 01ca 3046     		mov	r0, r6
 5195 01cc FFF7FEFF 		bl	lv_draw_img
 5196              	.LVL478:
 384:lvgl/src/draw/sw/lv_draw_sw_rect.c ****                         lv_draw_img(draw_ctx, &img_dsc, &area, dsc->bg_img_src);
 5197              		.loc 1 384 69 discriminator 2 view .LVU1925
 384:lvgl/src/draw/sw/lv_draw_sw_rect.c ****                         lv_draw_img(draw_ctx, &img_dsc, &area, dsc->bg_img_src);
 5198              		.loc 1 384 54 is_stmt 0 discriminator 2 view .LVU1926
 5199 01d0 BDF81820 		ldrh	r2, [sp, #24]
 384:lvgl/src/draw/sw/lv_draw_sw_rect.c ****                         lv_draw_img(draw_ctx, &img_dsc, &area, dsc->bg_img_src);
 5200              		.loc 1 384 67 discriminator 2 view .LVU1927
 5201 01d4 059B     		ldr	r3, [sp, #20]
 5202 01d6 C3F38A23 		ubfx	r3, r3, #10, #11
 384:lvgl/src/draw/sw/lv_draw_sw_rect.c ****                         lv_draw_img(draw_ctx, &img_dsc, &area, dsc->bg_img_src);
 5203              		.loc 1 384 58 discriminator 2 view .LVU1928
 5204 01da 1A44     		add	r2, r2, r3
 5205 01dc ADF81820 		strh	r2, [sp, #24]	@ movhi
 384:lvgl/src/draw/sw/lv_draw_sw_rect.c ****                         lv_draw_img(draw_ctx, &img_dsc, &area, dsc->bg_img_src);
 5206              		.loc 1 384 75 discriminator 2 view .LVU1929
 5207 01e0 BDF81C20 		ldrh	r2, [sp, #28]
 384:lvgl/src/draw/sw/lv_draw_sw_rect.c ****                         lv_draw_img(draw_ctx, &img_dsc, &area, dsc->bg_img_src);
 5208              		.loc 1 384 79 discriminator 2 view .LVU1930
 5209 01e4 1344     		add	r3, r3, r2
ARM GAS  /var/folders/21/t9g5rlb91ys800n5npymflf80000gn/T//cca4dfU0.s 			page 151


 5210 01e6 ADF81C30 		strh	r3, [sp, #28]	@ movhi
 5211              	.L279:
 384:lvgl/src/draw/sw/lv_draw_sw_rect.c ****                         lv_draw_img(draw_ctx, &img_dsc, &area, dsc->bg_img_src);
 5212              		.loc 1 384 35 is_stmt 1 discriminator 1 view .LVU1931
 384:lvgl/src/draw/sw/lv_draw_sw_rect.c ****                         lv_draw_img(draw_ctx, &img_dsc, &area, dsc->bg_img_src);
 5213              		.loc 1 384 31 is_stmt 0 discriminator 1 view .LVU1932
 5214 01ea BDF91820 		ldrsh	r2, [sp, #24]
 384:lvgl/src/draw/sw/lv_draw_sw_rect.c ****                         lv_draw_img(draw_ctx, &img_dsc, &area, dsc->bg_img_src);
 5215              		.loc 1 384 44 discriminator 1 view .LVU1933
 5216 01ee B5F90430 		ldrsh	r3, [r5, #4]
 384:lvgl/src/draw/sw/lv_draw_sw_rect.c ****                         lv_draw_img(draw_ctx, &img_dsc, &area, dsc->bg_img_src);
 5217              		.loc 1 384 35 discriminator 1 view .LVU1934
 5218 01f2 9A42     		cmp	r2, r3
 5219 01f4 E6DD     		ble	.L280
 380:lvgl/src/draw/sw/lv_draw_sw_rect.c **** 
 5220              		.loc 1 380 65 is_stmt 1 view .LVU1935
 380:lvgl/src/draw/sw/lv_draw_sw_rect.c **** 
 5221              		.loc 1 380 50 is_stmt 0 view .LVU1936
 5222 01f6 BDF81A20 		ldrh	r2, [sp, #26]
 380:lvgl/src/draw/sw/lv_draw_sw_rect.c **** 
 5223              		.loc 1 380 63 view .LVU1937
 5224 01fa BDF81630 		ldrh	r3, [sp, #22]
 5225 01fe C3F34A13 		ubfx	r3, r3, #5, #11
 380:lvgl/src/draw/sw/lv_draw_sw_rect.c **** 
 5226              		.loc 1 380 54 view .LVU1938
 5227 0202 1A44     		add	r2, r2, r3
 5228 0204 ADF81A20 		strh	r2, [sp, #26]	@ movhi
 380:lvgl/src/draw/sw/lv_draw_sw_rect.c **** 
 5229              		.loc 1 380 71 view .LVU1939
 5230 0208 BDF81E20 		ldrh	r2, [sp, #30]
 380:lvgl/src/draw/sw/lv_draw_sw_rect.c **** 
 5231              		.loc 1 380 75 view .LVU1940
 5232 020c 1344     		add	r3, r3, r2
 5233 020e ADF81E30 		strh	r3, [sp, #30]	@ movhi
 5234              	.L278:
 380:lvgl/src/draw/sw/lv_draw_sw_rect.c **** 
 5235              		.loc 1 380 31 is_stmt 1 discriminator 1 view .LVU1941
 380:lvgl/src/draw/sw/lv_draw_sw_rect.c **** 
 5236              		.loc 1 380 27 is_stmt 0 discriminator 1 view .LVU1942
 5237 0212 BDF91A20 		ldrsh	r2, [sp, #26]
 380:lvgl/src/draw/sw/lv_draw_sw_rect.c **** 
 5238              		.loc 1 380 40 discriminator 1 view .LVU1943
 5239 0216 B5F90630 		ldrsh	r3, [r5, #6]
 380:lvgl/src/draw/sw/lv_draw_sw_rect.c **** 
 5240              		.loc 1 380 31 discriminator 1 view .LVU1944
 5241 021a 9A42     		cmp	r2, r3
 5242 021c 3FF715AF 		bgt	.L274
 382:lvgl/src/draw/sw/lv_draw_sw_rect.c ****                     area.x2 = area.x1 + header.w - 1;
 5243              		.loc 1 382 21 is_stmt 1 view .LVU1945
 382:lvgl/src/draw/sw/lv_draw_sw_rect.c ****                     area.x2 = area.x1 + header.w - 1;
 5244              		.loc 1 382 37 is_stmt 0 view .LVU1946
 5245 0220 B5F90030 		ldrsh	r3, [r5]
 382:lvgl/src/draw/sw/lv_draw_sw_rect.c ****                     area.x2 = area.x1 + header.w - 1;
 5246              		.loc 1 382 29 view .LVU1947
 5247 0224 ADF81830 		strh	r3, [sp, #24]	@ movhi
 383:lvgl/src/draw/sw/lv_draw_sw_rect.c ****                     for(; area.x1 <= coords->x2; area.x1 += header.w, area.x2 += header.w) {
 5248              		.loc 1 383 21 is_stmt 1 view .LVU1948
ARM GAS  /var/folders/21/t9g5rlb91ys800n5npymflf80000gn/T//cca4dfU0.s 			page 152


 383:lvgl/src/draw/sw/lv_draw_sw_rect.c ****                     for(; area.x1 <= coords->x2; area.x1 += header.w, area.x2 += header.w) {
 5249              		.loc 1 383 47 is_stmt 0 view .LVU1949
 5250 0228 059A     		ldr	r2, [sp, #20]
 5251 022a C2F38A22 		ubfx	r2, r2, #10, #11
 383:lvgl/src/draw/sw/lv_draw_sw_rect.c ****                     for(; area.x1 <= coords->x2; area.x1 += header.w, area.x2 += header.w) {
 5252              		.loc 1 383 39 view .LVU1950
 5253 022e 12FA83F3 		uxtah	r3, r2, r3
 5254 0232 9BB2     		uxth	r3, r3
 383:lvgl/src/draw/sw/lv_draw_sw_rect.c ****                     for(; area.x1 <= coords->x2; area.x1 += header.w, area.x2 += header.w) {
 5255              		.loc 1 383 50 view .LVU1951
 5256 0234 013B     		subs	r3, r3, #1
 383:lvgl/src/draw/sw/lv_draw_sw_rect.c ****                     for(; area.x1 <= coords->x2; area.x1 += header.w, area.x2 += header.w) {
 5257              		.loc 1 383 29 view .LVU1952
 5258 0236 ADF81C30 		strh	r3, [sp, #28]	@ movhi
 384:lvgl/src/draw/sw/lv_draw_sw_rect.c ****                         lv_draw_img(draw_ctx, &img_dsc, &area, dsc->bg_img_src);
 5259              		.loc 1 384 21 is_stmt 1 view .LVU1953
 5260 023a D6E7     		b	.L279
 5261              	.LVL479:
 5262              	.L284:
 5263              	.LCFI24:
 5264              		.cfi_def_cfa_offset 0
 5265              		.cfi_restore 4
 5266              		.cfi_restore 5
 5267              		.cfi_restore 6
 5268              		.cfi_restore 7
 5269              		.cfi_restore 8
 5270              		.cfi_restore 14
 384:lvgl/src/draw/sw/lv_draw_sw_rect.c ****                         lv_draw_img(draw_ctx, &img_dsc, &area, dsc->bg_img_src);
 5271              		.loc 1 384 21 is_stmt 0 view .LVU1954
 5272 023c 7047     		bx	lr
 5273              	.LBE199:
 5274              	.LBE192:
 5275              	.LBE205:
 5276              		.cfi_endproc
 5277              	.LFE164:
 5279              		.section	.text.lv_draw_sw_bg,"ax",%progbits
 5280              		.align	1
 5281              		.global	lv_draw_sw_bg
 5282              		.syntax unified
 5283              		.thumb
 5284              		.thumb_func
 5286              	lv_draw_sw_bg:
 5287              	.LVL480:
 5288              	.LFB162:
  84:lvgl/src/draw/sw/lv_draw_sw_rect.c **** #if LV_COLOR_SCREEN_TRANSP && LV_COLOR_DEPTH == 32
 5289              		.loc 1 84 1 is_stmt 1 view -0
 5290              		.cfi_startproc
 5291              		@ args = 0, pretend = 0, frame = 0
 5292              		@ frame_needed = 0, uses_anonymous_args = 0
  84:lvgl/src/draw/sw/lv_draw_sw_rect.c **** #if LV_COLOR_SCREEN_TRANSP && LV_COLOR_DEPTH == 32
 5293              		.loc 1 84 1 is_stmt 0 view .LVU1956
 5294 0000 70B5     		push	{r4, r5, r6, lr}
 5295              	.LCFI25:
 5296              		.cfi_def_cfa_offset 16
 5297              		.cfi_offset 4, -16
 5298              		.cfi_offset 5, -12
 5299              		.cfi_offset 6, -8
ARM GAS  /var/folders/21/t9g5rlb91ys800n5npymflf80000gn/T//cca4dfU0.s 			page 153


 5300              		.cfi_offset 14, -4
 5301 0002 0446     		mov	r4, r0
 5302 0004 0D46     		mov	r5, r1
 5303 0006 1646     		mov	r6, r2
  89:lvgl/src/draw/sw/lv_draw_sw_rect.c ****     draw_bg_img(draw_ctx, dsc, coords);
 5304              		.loc 1 89 5 is_stmt 1 view .LVU1957
 5305 0008 FFF7FEFF 		bl	draw_bg
 5306              	.LVL481:
  90:lvgl/src/draw/sw/lv_draw_sw_rect.c **** }
 5307              		.loc 1 90 5 view .LVU1958
 5308 000c 3246     		mov	r2, r6
 5309 000e 2946     		mov	r1, r5
 5310 0010 2046     		mov	r0, r4
 5311 0012 FFF7FEFF 		bl	draw_bg_img
 5312              	.LVL482:
  91:lvgl/src/draw/sw/lv_draw_sw_rect.c **** 
 5313              		.loc 1 91 1 is_stmt 0 view .LVU1959
 5314 0016 70BD     		pop	{r4, r5, r6, pc}
  91:lvgl/src/draw/sw/lv_draw_sw_rect.c **** 
 5315              		.loc 1 91 1 view .LVU1960
 5316              		.cfi_endproc
 5317              	.LFE162:
 5319              		.section	.text.draw_border_generic,"ax",%progbits
 5320              		.align	1
 5321              		.global	draw_border_generic
 5322              		.syntax unified
 5323              		.thumb
 5324              		.thumb_func
 5326              	draw_border_generic:
 5327              	.LVL483:
 5328              	.LFB170:
1148:lvgl/src/draw/sw/lv_draw_sw_rect.c ****     opa = opa >= LV_OPA_COVER ? LV_OPA_COVER : opa;
 5329              		.loc 1 1148 1 is_stmt 1 view -0
 5330              		.cfi_startproc
 5331              		@ args = 16, pretend = 0, frame = 160
 5332              		@ frame_needed = 0, uses_anonymous_args = 0
1148:lvgl/src/draw/sw/lv_draw_sw_rect.c ****     opa = opa >= LV_OPA_COVER ? LV_OPA_COVER : opa;
 5333              		.loc 1 1148 1 is_stmt 0 view .LVU1962
 5334 0000 2DE9F04F 		push	{r4, r5, r6, r7, r8, r9, r10, fp, lr}
 5335              	.LCFI26:
 5336              		.cfi_def_cfa_offset 36
 5337              		.cfi_offset 4, -36
 5338              		.cfi_offset 5, -32
 5339              		.cfi_offset 6, -28
 5340              		.cfi_offset 7, -24
 5341              		.cfi_offset 8, -20
 5342              		.cfi_offset 9, -16
 5343              		.cfi_offset 10, -12
 5344              		.cfi_offset 11, -8
 5345              		.cfi_offset 14, -4
 5346 0004 ABB0     		sub	sp, sp, #172
 5347              	.LCFI27:
 5348              		.cfi_def_cfa_offset 208
 5349 0006 0646     		mov	r6, r0
 5350 0008 0C46     		mov	r4, r1
 5351 000a 0392     		str	r2, [sp, #12]
 5352 000c 1F46     		mov	r7, r3
ARM GAS  /var/folders/21/t9g5rlb91ys800n5npymflf80000gn/T//cca4dfU0.s 			page 154


 5353 000e BDF9D090 		ldrsh	r9, [sp, #208]
 5354 0012 9DF8D8A0 		ldrb	r10, [sp, #216]	@ zero_extendqisi2
1149:lvgl/src/draw/sw/lv_draw_sw_rect.c **** 
 5355              		.loc 1 1149 5 is_stmt 1 view .LVU1963
 5356              	.LVL484:
1151:lvgl/src/draw/sw/lv_draw_sw_rect.c **** 
 5357              		.loc 1 1151 5 view .LVU1964
1151:lvgl/src/draw/sw/lv_draw_sw_rect.c **** 
 5358              		.loc 1 1151 21 is_stmt 0 view .LVU1965
 5359 0016 0846     		mov	r0, r1
 5360              	.LVL485:
1151:lvgl/src/draw/sw/lv_draw_sw_rect.c **** 
 5361              		.loc 1 1151 21 view .LVU1966
 5362 0018 FFF7FEFF 		bl	lv_draw_mask_is_any
 5363              	.LVL486:
1155:lvgl/src/draw/sw/lv_draw_sw_rect.c ****         draw_border_simple(draw_ctx, outer_area, inner_area, color, opa);
 5364              		.loc 1 1155 5 is_stmt 1 view .LVU1967
1155:lvgl/src/draw/sw/lv_draw_sw_rect.c ****         draw_border_simple(draw_ctx, outer_area, inner_area, color, opa);
 5365              		.loc 1 1155 7 is_stmt 0 view .LVU1968
 5366 001c 0690     		str	r0, [sp, #24]
 5367 001e 18B9     		cbnz	r0, .L294
1155:lvgl/src/draw/sw/lv_draw_sw_rect.c ****         draw_border_simple(draw_ctx, outer_area, inner_area, color, opa);
 5368              		.loc 1 1155 18 discriminator 1 view .LVU1969
 5369 0020 17B9     		cbnz	r7, .L294
1155:lvgl/src/draw/sw/lv_draw_sw_rect.c ****         draw_border_simple(draw_ctx, outer_area, inner_area, color, opa);
 5370              		.loc 1 1155 31 discriminator 2 view .LVU1970
 5371 0022 B9F1000F 		cmp	r9, #0
 5372 0026 09D0     		beq	.L336
 5373              	.L294:
1162:lvgl/src/draw/sw/lv_draw_sw_rect.c ****     if(!_lv_area_intersect(&draw_area, outer_area, draw_ctx->clip_area)) return;
 5374              		.loc 1 1162 5 is_stmt 1 view .LVU1971
1163:lvgl/src/draw/sw/lv_draw_sw_rect.c ****     int32_t draw_area_w = lv_area_get_width(&draw_area);
 5375              		.loc 1 1163 5 view .LVU1972
1163:lvgl/src/draw/sw/lv_draw_sw_rect.c ****     int32_t draw_area_w = lv_area_get_width(&draw_area);
 5376              		.loc 1 1163 9 is_stmt 0 view .LVU1973
 5377 0028 B268     		ldr	r2, [r6, #8]
 5378 002a 2146     		mov	r1, r4
 5379 002c 28A8     		add	r0, sp, #160
 5380              	.LVL487:
1163:lvgl/src/draw/sw/lv_draw_sw_rect.c ****     int32_t draw_area_w = lv_area_get_width(&draw_area);
 5381              		.loc 1 1163 9 view .LVU1974
 5382 002e FFF7FEFF 		bl	_lv_area_intersect
 5383              	.LVL488:
1163:lvgl/src/draw/sw/lv_draw_sw_rect.c ****     int32_t draw_area_w = lv_area_get_width(&draw_area);
 5384              		.loc 1 1163 7 view .LVU1975
 5385 0032 0590     		str	r0, [sp, #20]
 5386 0034 60B9     		cbnz	r0, .L337
 5387              	.LVL489:
 5388              	.L293:
1377:lvgl/src/draw/sw/lv_draw_sw_rect.c **** static void draw_border_simple(lv_draw_ctx_t * draw_ctx, const lv_area_t * outer_area, const lv_are
 5389              		.loc 1 1377 1 view .LVU1976
 5390 0036 2BB0     		add	sp, sp, #172
 5391              	.LCFI28:
 5392              		.cfi_remember_state
 5393              		.cfi_def_cfa_offset 36
 5394              		@ sp needed
 5395 0038 BDE8F08F 		pop	{r4, r5, r6, r7, r8, r9, r10, fp, pc}
ARM GAS  /var/folders/21/t9g5rlb91ys800n5npymflf80000gn/T//cca4dfU0.s 			page 155


 5396              	.LVL490:
 5397              	.L336:
 5398              	.LCFI29:
 5399              		.cfi_restore_state
1156:lvgl/src/draw/sw/lv_draw_sw_rect.c ****         return;
 5400              		.loc 1 1156 9 is_stmt 1 view .LVU1977
 5401 003c CDF800A0 		str	r10, [sp]
 5402 0040 BDF8D430 		ldrh	r3, [sp, #212]
 5403 0044 039A     		ldr	r2, [sp, #12]
 5404 0046 2146     		mov	r1, r4
 5405 0048 3046     		mov	r0, r6
 5406              	.LVL491:
1156:lvgl/src/draw/sw/lv_draw_sw_rect.c ****         return;
 5407              		.loc 1 1156 9 is_stmt 0 view .LVU1978
 5408 004a FFF7FEFF 		bl	draw_border_simple
 5409              	.LVL492:
1157:lvgl/src/draw/sw/lv_draw_sw_rect.c ****     }
 5410              		.loc 1 1157 9 is_stmt 1 view .LVU1979
 5411 004e F2E7     		b	.L293
 5412              	.L337:
1164:lvgl/src/draw/sw/lv_draw_sw_rect.c **** 
 5413              		.loc 1 1164 5 view .LVU1980
 5414              	.LVL493:
 5415              	.LBB206:
 5416              	.LBI206:
 123:lvgl/src/draw/sw/../../misc/lv_area.h **** {
 5417              		.loc 2 123 26 view .LVU1981
 5418              	.LBB207:
 125:lvgl/src/draw/sw/../../misc/lv_area.h **** }
 5419              		.loc 2 125 5 view .LVU1982
 125:lvgl/src/draw/sw/../../misc/lv_area.h **** }
 5420              		.loc 2 125 31 is_stmt 0 view .LVU1983
 5421 0050 BDF8A450 		ldrh	r5, [sp, #164]
 125:lvgl/src/draw/sw/../../misc/lv_area.h **** }
 5422              		.loc 2 125 44 view .LVU1984
 5423 0054 BDF8A030 		ldrh	r3, [sp, #160]
 125:lvgl/src/draw/sw/../../misc/lv_area.h **** }
 5424              		.loc 2 125 36 view .LVU1985
 5425 0058 ED1A     		subs	r5, r5, r3
 5426 005a ADB2     		uxth	r5, r5
 125:lvgl/src/draw/sw/../../misc/lv_area.h **** }
 5427              		.loc 2 125 49 view .LVU1986
 5428 005c 0135     		adds	r5, r5, #1
 125:lvgl/src/draw/sw/../../misc/lv_area.h **** }
 5429              		.loc 2 125 12 view .LVU1987
 5430 005e 2DB2     		sxth	r5, r5
 5431              	.LVL494:
 125:lvgl/src/draw/sw/../../misc/lv_area.h **** }
 5432              		.loc 2 125 12 view .LVU1988
 5433              	.LBE207:
 5434              	.LBE206:
1166:lvgl/src/draw/sw/lv_draw_sw_rect.c ****     lv_memset_00(&blend_dsc, sizeof(blend_dsc));
 5435              		.loc 1 1166 5 is_stmt 1 view .LVU1989
1167:lvgl/src/draw/sw/lv_draw_sw_rect.c ****     blend_dsc.mask_buf = lv_mem_buf_get(draw_area_w);;
 5436              		.loc 1 1167 5 view .LVU1990
 5437 0060 1C21     		movs	r1, #28
 5438 0062 21A8     		add	r0, sp, #132
ARM GAS  /var/folders/21/t9g5rlb91ys800n5npymflf80000gn/T//cca4dfU0.s 			page 156


 5439 0064 FFF7FEFF 		bl	lv_memset_00
 5440              	.LVL495:
1168:lvgl/src/draw/sw/lv_draw_sw_rect.c **** 
 5441              		.loc 1 1168 5 view .LVU1991
1168:lvgl/src/draw/sw/lv_draw_sw_rect.c **** 
 5442              		.loc 1 1168 26 is_stmt 0 view .LVU1992
 5443 0068 2846     		mov	r0, r5
 5444 006a FFF7FEFF 		bl	lv_mem_buf_get
 5445              	.LVL496:
1168:lvgl/src/draw/sw/lv_draw_sw_rect.c **** 
 5446              		.loc 1 1168 24 view .LVU1993
 5447 006e 2490     		str	r0, [sp, #144]
1168:lvgl/src/draw/sw/lv_draw_sw_rect.c **** 
 5448              		.loc 1 1168 54 is_stmt 1 view .LVU1994
1171:lvgl/src/draw/sw/lv_draw_sw_rect.c ****     lv_draw_mask_radius_param_t mask_rout_param;
 5449              		.loc 1 1171 5 view .LVU1995
 5450              	.LVL497:
1172:lvgl/src/draw/sw/lv_draw_sw_rect.c ****     if(rout > 0) {
 5451              		.loc 1 1172 5 view .LVU1996
1173:lvgl/src/draw/sw/lv_draw_sw_rect.c ****         lv_draw_mask_radius_init(&mask_rout_param, outer_area, rout, false);
 5452              		.loc 1 1173 5 view .LVU1997
1173:lvgl/src/draw/sw/lv_draw_sw_rect.c ****         lv_draw_mask_radius_init(&mask_rout_param, outer_area, rout, false);
 5453              		.loc 1 1173 7 is_stmt 0 view .LVU1998
 5454 0070 002F     		cmp	r7, #0
 5455 0072 00F3A480 		bgt	.L338
1171:lvgl/src/draw/sw/lv_draw_sw_rect.c ****     lv_draw_mask_radius_param_t mask_rout_param;
 5456              		.loc 1 1171 13 view .LVU1999
 5457 0076 4FF0FF33 		mov	r3, #-1
 5458 007a 0D93     		str	r3, [sp, #52]
 5459              	.LVL498:
 5460              	.L296:
1179:lvgl/src/draw/sw/lv_draw_sw_rect.c ****     lv_draw_mask_radius_init(&mask_rin_param, inner_area, rin, true);
 5461              		.loc 1 1179 5 is_stmt 1 view .LVU2000
1180:lvgl/src/draw/sw/lv_draw_sw_rect.c ****     int16_t mask_rin_id = lv_draw_mask_add(&mask_rin_param, NULL);
 5462              		.loc 1 1180 5 view .LVU2001
 5463 007c 0123     		movs	r3, #1
 5464 007e 4A46     		mov	r2, r9
 5465 0080 DDF80C80 		ldr	r8, [sp, #12]
 5466 0084 4146     		mov	r1, r8
 5467 0086 15A8     		add	r0, sp, #84
 5468 0088 FFF7FEFF 		bl	lv_draw_mask_radius_init
 5469              	.LVL499:
1181:lvgl/src/draw/sw/lv_draw_sw_rect.c **** 
 5470              		.loc 1 1181 5 view .LVU2002
1181:lvgl/src/draw/sw/lv_draw_sw_rect.c **** 
 5471              		.loc 1 1181 27 is_stmt 0 view .LVU2003
 5472 008c 0021     		movs	r1, #0
 5473 008e 15A8     		add	r0, sp, #84
 5474 0090 FFF7FEFF 		bl	lv_draw_mask_add
 5475              	.LVL500:
 5476 0094 0C90     		str	r0, [sp, #48]
 5477              	.LVL501:
1183:lvgl/src/draw/sw/lv_draw_sw_rect.c ****     lv_area_t blend_area;
 5478              		.loc 1 1183 5 is_stmt 1 view .LVU2004
1184:lvgl/src/draw/sw/lv_draw_sw_rect.c ****     blend_dsc.blend_area = &blend_area;
 5479              		.loc 1 1184 5 view .LVU2005
1185:lvgl/src/draw/sw/lv_draw_sw_rect.c ****     blend_dsc.mask_area = &blend_area;
ARM GAS  /var/folders/21/t9g5rlb91ys800n5npymflf80000gn/T//cca4dfU0.s 			page 157


 5480              		.loc 1 1185 5 view .LVU2006
1185:lvgl/src/draw/sw/lv_draw_sw_rect.c ****     blend_dsc.mask_area = &blend_area;
 5481              		.loc 1 1185 26 is_stmt 0 view .LVU2007
 5482 0096 13AB     		add	r3, sp, #76
 5483 0098 2193     		str	r3, [sp, #132]
1186:lvgl/src/draw/sw/lv_draw_sw_rect.c ****     blend_dsc.color = color;
 5484              		.loc 1 1186 5 is_stmt 1 view .LVU2008
1186:lvgl/src/draw/sw/lv_draw_sw_rect.c ****     blend_dsc.color = color;
 5485              		.loc 1 1186 25 is_stmt 0 view .LVU2009
 5486 009a 2693     		str	r3, [sp, #152]
1187:lvgl/src/draw/sw/lv_draw_sw_rect.c ****     blend_dsc.opa = opa;
 5487              		.loc 1 1187 5 is_stmt 1 view .LVU2010
1187:lvgl/src/draw/sw/lv_draw_sw_rect.c ****     blend_dsc.opa = opa;
 5488              		.loc 1 1187 21 is_stmt 0 view .LVU2011
 5489 009c BDF8D430 		ldrh	r3, [sp, #212]
 5490 00a0 ADF88C30 		strh	r3, [sp, #140]	@ movhi
1188:lvgl/src/draw/sw/lv_draw_sw_rect.c ****     blend_dsc.blend_mode = blend_mode;
 5491              		.loc 1 1188 5 is_stmt 1 view .LVU2012
1188:lvgl/src/draw/sw/lv_draw_sw_rect.c ****     blend_dsc.blend_mode = blend_mode;
 5492              		.loc 1 1188 19 is_stmt 0 view .LVU2013
 5493 00a4 8DF89CA0 		strb	r10, [sp, #156]
1189:lvgl/src/draw/sw/lv_draw_sw_rect.c **** 
 5494              		.loc 1 1189 5 is_stmt 1 view .LVU2014
1189:lvgl/src/draw/sw/lv_draw_sw_rect.c **** 
 5495              		.loc 1 1189 26 is_stmt 0 view .LVU2015
 5496 00a8 9DF8DC30 		ldrb	r3, [sp, #220]	@ zero_extendqisi2
 5497 00ac 8DF89D30 		strb	r3, [sp, #157]
1192:lvgl/src/draw/sw/lv_draw_sw_rect.c ****     core_area.x1 = LV_MAX(outer_area->x1 + rout, inner_area->x1);
 5498              		.loc 1 1192 5 is_stmt 1 view .LVU2016
1193:lvgl/src/draw/sw/lv_draw_sw_rect.c ****     core_area.x2 = LV_MIN(outer_area->x2 - rout, inner_area->x2);
 5499              		.loc 1 1193 5 view .LVU2017
1193:lvgl/src/draw/sw/lv_draw_sw_rect.c ****     core_area.x2 = LV_MIN(outer_area->x2 - rout, inner_area->x2);
 5500              		.loc 1 1193 20 is_stmt 0 view .LVU2018
 5501 00b0 B8F90030 		ldrsh	r3, [r8]
 5502 00b4 0793     		str	r3, [sp, #28]
 5503 00b6 B4F90020 		ldrsh	r2, [r4]
 5504 00ba 0892     		str	r2, [sp, #32]
 5505 00bc 3A44     		add	r2, r2, r7
 5506 00be 9A42     		cmp	r2, r3
 5507 00c0 B8BF     		it	lt
 5508 00c2 1A46     		movlt	r2, r3
1193:lvgl/src/draw/sw/lv_draw_sw_rect.c ****     core_area.x2 = LV_MIN(outer_area->x2 - rout, inner_area->x2);
 5509              		.loc 1 1193 18 view .LVU2019
 5510 00c4 13B2     		sxth	r3, r2
 5511 00c6 0E93     		str	r3, [sp, #56]
 5512 00c8 ADF84430 		strh	r3, [sp, #68]	@ movhi
1194:lvgl/src/draw/sw/lv_draw_sw_rect.c ****     core_area.y1 = LV_MAX(outer_area->y1 + rout, inner_area->y1);
 5513              		.loc 1 1194 5 is_stmt 1 view .LVU2020
1194:lvgl/src/draw/sw/lv_draw_sw_rect.c ****     core_area.y1 = LV_MAX(outer_area->y1 + rout, inner_area->y1);
 5514              		.loc 1 1194 20 is_stmt 0 view .LVU2021
 5515 00cc B8F90400 		ldrsh	r0, [r8, #4]
 5516 00d0 0990     		str	r0, [sp, #36]
 5517 00d2 B4F90430 		ldrsh	r3, [r4, #4]
 5518 00d6 0A93     		str	r3, [sp, #40]
 5519 00d8 DB1B     		subs	r3, r3, r7
 5520 00da 8342     		cmp	r3, r0
 5521 00dc A8BF     		it	ge
ARM GAS  /var/folders/21/t9g5rlb91ys800n5npymflf80000gn/T//cca4dfU0.s 			page 158


 5522 00de 0346     		movge	r3, r0
1194:lvgl/src/draw/sw/lv_draw_sw_rect.c ****     core_area.y1 = LV_MAX(outer_area->y1 + rout, inner_area->y1);
 5523              		.loc 1 1194 18 view .LVU2022
 5524 00e0 18B2     		sxth	r0, r3
 5525 00e2 0F90     		str	r0, [sp, #60]
 5526 00e4 ADF84800 		strh	r0, [sp, #72]	@ movhi
1195:lvgl/src/draw/sw/lv_draw_sw_rect.c ****     core_area.y2 = LV_MIN(outer_area->y2 - rout, inner_area->y2);
 5527              		.loc 1 1195 5 is_stmt 1 view .LVU2023
1195:lvgl/src/draw/sw/lv_draw_sw_rect.c ****     core_area.y2 = LV_MIN(outer_area->y2 - rout, inner_area->y2);
 5528              		.loc 1 1195 20 is_stmt 0 view .LVU2024
 5529 00e8 B8F902B0 		ldrsh	fp, [r8, #2]
 5530 00ec B4F902A0 		ldrsh	r10, [r4, #2]
 5531              	.LVL502:
1195:lvgl/src/draw/sw/lv_draw_sw_rect.c ****     core_area.y2 = LV_MIN(outer_area->y2 - rout, inner_area->y2);
 5532              		.loc 1 1195 20 view .LVU2025
 5533 00f0 07EB0A09 		add	r9, r7, r10
 5534 00f4 D945     		cmp	r9, fp
 5535 00f6 B8BF     		it	lt
 5536 00f8 D946     		movlt	r9, fp
1195:lvgl/src/draw/sw/lv_draw_sw_rect.c ****     core_area.y2 = LV_MIN(outer_area->y2 - rout, inner_area->y2);
 5537              		.loc 1 1195 18 view .LVU2026
 5538 00fa 0FFA89F9 		sxth	r9, r9
 5539 00fe ADF84690 		strh	r9, [sp, #70]	@ movhi
1196:lvgl/src/draw/sw/lv_draw_sw_rect.c ****     lv_coord_t core_w = lv_area_get_width(&core_area);
 5540              		.loc 1 1196 5 is_stmt 1 view .LVU2027
1196:lvgl/src/draw/sw/lv_draw_sw_rect.c ****     lv_coord_t core_w = lv_area_get_width(&core_area);
 5541              		.loc 1 1196 20 is_stmt 0 view .LVU2028
 5542 0102 B8F90610 		ldrsh	r1, [r8, #6]
 5543 0106 0846     		mov	r0, r1
 5544 0108 0B91     		str	r1, [sp, #44]
 5545 010a B4F90680 		ldrsh	r8, [r4, #6]
 5546 010e A8EB0701 		sub	r1, r8, r7
 5547 0112 8142     		cmp	r1, r0
 5548 0114 A8BF     		it	ge
 5549 0116 0146     		movge	r1, r0
1196:lvgl/src/draw/sw/lv_draw_sw_rect.c ****     lv_coord_t core_w = lv_area_get_width(&core_area);
 5550              		.loc 1 1196 18 view .LVU2029
 5551 0118 09B2     		sxth	r1, r1
 5552 011a 0491     		str	r1, [sp, #16]
 5553 011c ADF84A10 		strh	r1, [sp, #74]	@ movhi
1197:lvgl/src/draw/sw/lv_draw_sw_rect.c **** 
 5554              		.loc 1 1197 5 is_stmt 1 view .LVU2030
 5555              	.LVL503:
 5556              	.LBB208:
 5557              	.LBI208:
 123:lvgl/src/draw/sw/../../misc/lv_area.h **** {
 5558              		.loc 2 123 26 view .LVU2031
 5559              	.LBB209:
 125:lvgl/src/draw/sw/../../misc/lv_area.h **** }
 5560              		.loc 2 125 5 view .LVU2032
 125:lvgl/src/draw/sw/../../misc/lv_area.h **** }
 5561              		.loc 2 125 31 is_stmt 0 view .LVU2033
 5562 0120 9BB2     		uxth	r3, r3
 125:lvgl/src/draw/sw/../../misc/lv_area.h **** }
 5563              		.loc 2 125 44 view .LVU2034
 5564 0122 92B2     		uxth	r2, r2
 125:lvgl/src/draw/sw/../../misc/lv_area.h **** }
ARM GAS  /var/folders/21/t9g5rlb91ys800n5npymflf80000gn/T//cca4dfU0.s 			page 159


 5565              		.loc 2 125 36 view .LVU2035
 5566 0124 9B1A     		subs	r3, r3, r2
 5567 0126 9BB2     		uxth	r3, r3
 125:lvgl/src/draw/sw/../../misc/lv_area.h **** }
 5568              		.loc 2 125 49 view .LVU2036
 5569 0128 0133     		adds	r3, r3, #1
 125:lvgl/src/draw/sw/../../misc/lv_area.h **** }
 5570              		.loc 2 125 12 view .LVU2037
 5571 012a 1BB2     		sxth	r3, r3
 5572              	.LVL504:
 125:lvgl/src/draw/sw/../../misc/lv_area.h **** }
 5573              		.loc 2 125 12 view .LVU2038
 5574              	.LBE209:
 5575              	.LBE208:
1199:lvgl/src/draw/sw/lv_draw_sw_rect.c ****     bool bottom_side = outer_area->y2 >= inner_area->y2 ? true : false;
 5576              		.loc 1 1199 5 is_stmt 1 view .LVU2039
1200:lvgl/src/draw/sw/lv_draw_sw_rect.c **** 
 5577              		.loc 1 1200 5 view .LVU2040
1203:lvgl/src/draw/sw/lv_draw_sw_rect.c ****         blend_area.x1 = draw_area.x1;
 5578              		.loc 1 1203 5 view .LVU2041
1203:lvgl/src/draw/sw/lv_draw_sw_rect.c ****         blend_area.x1 = draw_area.x1;
 5579              		.loc 1 1203 7 is_stmt 0 view .LVU2042
 5580 012c 069A     		ldr	r2, [sp, #24]
 5581 012e 002A     		cmp	r2, #0
 5582 0130 51D1     		bne	.L339
1229:lvgl/src/draw/sw/lv_draw_sw_rect.c ****     bool right_side = outer_area->x2 >= inner_area->x2 ? true : false;
 5583              		.loc 1 1229 5 is_stmt 1 view .LVU2043
 5584              	.LVL505:
1230:lvgl/src/draw/sw/lv_draw_sw_rect.c **** 
 5585              		.loc 1 1230 5 view .LVU2044
1232:lvgl/src/draw/sw/lv_draw_sw_rect.c ****     if(left_side && right_side && top_side && bottom_side &&
 5586              		.loc 1 1232 5 view .LVU2045
1233:lvgl/src/draw/sw/lv_draw_sw_rect.c ****        core_w < SPLIT_LIMIT) {
 5587              		.loc 1 1233 5 view .LVU2046
1233:lvgl/src/draw/sw/lv_draw_sw_rect.c ****        core_w < SPLIT_LIMIT) {
 5588              		.loc 1 1233 7 is_stmt 0 view .LVU2047
 5589 0132 079A     		ldr	r2, [sp, #28]
 5590 0134 0899     		ldr	r1, [sp, #32]
 5591 0136 8A42     		cmp	r2, r1
 5592 0138 0CDB     		blt	.L305
1233:lvgl/src/draw/sw/lv_draw_sw_rect.c ****        core_w < SPLIT_LIMIT) {
 5593              		.loc 1 1233 18 discriminator 1 view .LVU2048
 5594 013a 099A     		ldr	r2, [sp, #36]
 5595 013c 0A99     		ldr	r1, [sp, #40]
 5596 013e 8A42     		cmp	r2, r1
 5597 0140 08DC     		bgt	.L305
1233:lvgl/src/draw/sw/lv_draw_sw_rect.c ****        core_w < SPLIT_LIMIT) {
 5598              		.loc 1 1233 32 discriminator 2 view .LVU2049
 5599 0142 D345     		cmp	fp, r10
 5600 0144 06DB     		blt	.L305
1233:lvgl/src/draw/sw/lv_draw_sw_rect.c ****        core_w < SPLIT_LIMIT) {
 5601              		.loc 1 1233 44 discriminator 3 view .LVU2050
 5602 0146 0B9A     		ldr	r2, [sp, #44]
 5603 0148 4245     		cmp	r2, r8
 5604 014a 03DC     		bgt	.L305
1233:lvgl/src/draw/sw/lv_draw_sw_rect.c ****        core_w < SPLIT_LIMIT) {
 5605              		.loc 1 1233 59 discriminator 4 view .LVU2051
ARM GAS  /var/folders/21/t9g5rlb91ys800n5npymflf80000gn/T//cca4dfU0.s 			page 160


 5606 014c 312B     		cmp	r3, #49
 5607 014e 01DC     		bgt	.L305
1235:lvgl/src/draw/sw/lv_draw_sw_rect.c ****     }
 5608              		.loc 1 1235 19 view .LVU2052
 5609 0150 069B     		ldr	r3, [sp, #24]
 5610              	.LVL506:
1235:lvgl/src/draw/sw/lv_draw_sw_rect.c ****     }
 5611              		.loc 1 1235 19 view .LVU2053
 5612 0152 0593     		str	r3, [sp, #20]
 5613              	.L305:
 5614              	.LVL507:
1238:lvgl/src/draw/sw/lv_draw_sw_rect.c ****     /*Draw the straight lines first if they are long enough*/
 5615              		.loc 1 1238 5 is_stmt 1 view .LVU2054
1238:lvgl/src/draw/sw/lv_draw_sw_rect.c ****     /*Draw the straight lines first if they are long enough*/
 5616              		.loc 1 1238 24 is_stmt 0 view .LVU2055
 5617 0154 0123     		movs	r3, #1
 5618 0156 8DF89430 		strb	r3, [sp, #148]
1240:lvgl/src/draw/sw/lv_draw_sw_rect.c ****         blend_area.x1 = core_area.x1;
 5619              		.loc 1 1240 5 is_stmt 1 view .LVU2056
1240:lvgl/src/draw/sw/lv_draw_sw_rect.c ****         blend_area.x1 = core_area.x1;
 5620              		.loc 1 1240 7 is_stmt 0 view .LVU2057
 5621 015a D345     		cmp	fp, r10
 5622 015c 03DB     		blt	.L306
1240:lvgl/src/draw/sw/lv_draw_sw_rect.c ****         blend_area.x1 = core_area.x1;
 5623              		.loc 1 1240 17 discriminator 1 view .LVU2058
 5624 015e 059B     		ldr	r3, [sp, #20]
 5625 0160 002B     		cmp	r3, #0
 5626 0162 40F08180 		bne	.L340
 5627              	.LVL508:
 5628              	.L306:
1248:lvgl/src/draw/sw/lv_draw_sw_rect.c ****         blend_area.x1 = core_area.x1;
 5629              		.loc 1 1248 5 is_stmt 1 view .LVU2059
1248:lvgl/src/draw/sw/lv_draw_sw_rect.c ****         blend_area.x1 = core_area.x1;
 5630              		.loc 1 1248 7 is_stmt 0 view .LVU2060
 5631 0166 0B9B     		ldr	r3, [sp, #44]
 5632 0168 4345     		cmp	r3, r8
 5633 016a 03DC     		bgt	.L307
1248:lvgl/src/draw/sw/lv_draw_sw_rect.c ****         blend_area.x1 = core_area.x1;
 5634              		.loc 1 1248 20 discriminator 1 view .LVU2061
 5635 016c 059B     		ldr	r3, [sp, #20]
 5636 016e 002B     		cmp	r3, #0
 5637 0170 40F08E80 		bne	.L341
 5638              	.L307:
1256:lvgl/src/draw/sw/lv_draw_sw_rect.c ****         blend_area.x1 = outer_area->x1;
 5639              		.loc 1 1256 5 is_stmt 1 view .LVU2062
1256:lvgl/src/draw/sw/lv_draw_sw_rect.c ****         blend_area.x1 = outer_area->x1;
 5640              		.loc 1 1256 7 is_stmt 0 view .LVU2063
 5641 0174 079B     		ldr	r3, [sp, #28]
 5642 0176 089A     		ldr	r2, [sp, #32]
 5643 0178 9342     		cmp	r3, r2
 5644 017a 80F29D80 		bge	.L342
 5645              	.L308:
1264:lvgl/src/draw/sw/lv_draw_sw_rect.c ****         blend_area.x1 = inner_area->x2 + 1;
 5646              		.loc 1 1264 5 is_stmt 1 view .LVU2064
1264:lvgl/src/draw/sw/lv_draw_sw_rect.c ****         blend_area.x1 = inner_area->x2 + 1;
 5647              		.loc 1 1264 7 is_stmt 0 view .LVU2065
 5648 017e 099B     		ldr	r3, [sp, #36]
ARM GAS  /var/folders/21/t9g5rlb91ys800n5npymflf80000gn/T//cca4dfU0.s 			page 161


 5649 0180 0A9A     		ldr	r2, [sp, #40]
 5650 0182 9342     		cmp	r3, r2
 5651 0184 40F3AB80 		ble	.L343
 5652              	.L309:
1273:lvgl/src/draw/sw/lv_draw_sw_rect.c **** 
 5653              		.loc 1 1273 5 is_stmt 1 view .LVU2066
1276:lvgl/src/draw/sw/lv_draw_sw_rect.c ****         /*Calculate the top corner and mirror it to the bottom*/
 5654              		.loc 1 1276 5 view .LVU2067
1276:lvgl/src/draw/sw/lv_draw_sw_rect.c ****         /*Calculate the top corner and mirror it to the bottom*/
 5655              		.loc 1 1276 7 is_stmt 0 view .LVU2068
 5656 0188 059B     		ldr	r3, [sp, #20]
 5657 018a 002B     		cmp	r3, #0
 5658 018c 40F0FA80 		bne	.L310
 5659              	.LBB210:
1278:lvgl/src/draw/sw/lv_draw_sw_rect.c ****         blend_area.x2 = draw_area.x2;
 5660              		.loc 1 1278 9 is_stmt 1 view .LVU2069
1278:lvgl/src/draw/sw/lv_draw_sw_rect.c ****         blend_area.x2 = draw_area.x2;
 5661              		.loc 1 1278 34 is_stmt 0 view .LVU2070
 5662 0190 BDF9A030 		ldrsh	r3, [sp, #160]
1278:lvgl/src/draw/sw/lv_draw_sw_rect.c ****         blend_area.x2 = draw_area.x2;
 5663              		.loc 1 1278 23 view .LVU2071
 5664 0194 ADF84C30 		strh	r3, [sp, #76]	@ movhi
1279:lvgl/src/draw/sw/lv_draw_sw_rect.c ****         lv_coord_t max_h = LV_MAX(rout, inner_area->y1 - outer_area->y1);
 5665              		.loc 1 1279 9 is_stmt 1 view .LVU2072
1279:lvgl/src/draw/sw/lv_draw_sw_rect.c ****         lv_coord_t max_h = LV_MAX(rout, inner_area->y1 - outer_area->y1);
 5666              		.loc 1 1279 34 is_stmt 0 view .LVU2073
 5667 0198 BDF9A430 		ldrsh	r3, [sp, #164]
1279:lvgl/src/draw/sw/lv_draw_sw_rect.c ****         lv_coord_t max_h = LV_MAX(rout, inner_area->y1 - outer_area->y1);
 5668              		.loc 1 1279 23 view .LVU2074
 5669 019c ADF85030 		strh	r3, [sp, #80]	@ movhi
1280:lvgl/src/draw/sw/lv_draw_sw_rect.c ****         for(h = 0; h < max_h; h++) {
 5670              		.loc 1 1280 9 is_stmt 1 view .LVU2075
1280:lvgl/src/draw/sw/lv_draw_sw_rect.c ****         for(h = 0; h < max_h; h++) {
 5671              		.loc 1 1280 28 is_stmt 0 view .LVU2076
 5672 01a0 039B     		ldr	r3, [sp, #12]
 5673 01a2 B3F902A0 		ldrsh	r10, [r3, #2]
 5674              	.LVL509:
1280:lvgl/src/draw/sw/lv_draw_sw_rect.c ****         for(h = 0; h < max_h; h++) {
 5675              		.loc 1 1280 28 view .LVU2077
 5676 01a6 B4F90230 		ldrsh	r3, [r4, #2]
 5677 01aa AAEB030A 		sub	r10, r10, r3
 5678 01ae BA45     		cmp	r10, r7
 5679 01b0 B8BF     		it	lt
 5680 01b2 BA46     		movlt	r10, r7
1280:lvgl/src/draw/sw/lv_draw_sw_rect.c ****         for(h = 0; h < max_h; h++) {
 5681              		.loc 1 1280 20 view .LVU2078
 5682 01b4 0FFA8AFA 		sxth	r10, r10
 5683              	.LVL510:
1281:lvgl/src/draw/sw/lv_draw_sw_rect.c ****             lv_coord_t top_y = outer_area->y1 + h;
 5684              		.loc 1 1281 9 is_stmt 1 view .LVU2079
1281:lvgl/src/draw/sw/lv_draw_sw_rect.c ****             lv_coord_t top_y = outer_area->y1 + h;
 5685              		.loc 1 1281 15 is_stmt 0 view .LVU2080
 5686 01b8 4FF00009 		mov	r9, #0
1281:lvgl/src/draw/sw/lv_draw_sw_rect.c ****             lv_coord_t top_y = outer_area->y1 + h;
 5687              		.loc 1 1281 9 view .LVU2081
 5688 01bc B9E0     		b	.L311
 5689              	.LVL511:
ARM GAS  /var/folders/21/t9g5rlb91ys800n5npymflf80000gn/T//cca4dfU0.s 			page 162


 5690              	.L338:
1281:lvgl/src/draw/sw/lv_draw_sw_rect.c ****             lv_coord_t top_y = outer_area->y1 + h;
 5691              		.loc 1 1281 9 view .LVU2082
 5692              	.LBE210:
1174:lvgl/src/draw/sw/lv_draw_sw_rect.c ****         mask_rout_id = lv_draw_mask_add(&mask_rout_param, NULL);
 5693              		.loc 1 1174 9 is_stmt 1 view .LVU2083
 5694 01be 0023     		movs	r3, #0
 5695 01c0 3A46     		mov	r2, r7
 5696 01c2 2146     		mov	r1, r4
 5697 01c4 1BA8     		add	r0, sp, #108
 5698 01c6 FFF7FEFF 		bl	lv_draw_mask_radius_init
 5699              	.LVL512:
1175:lvgl/src/draw/sw/lv_draw_sw_rect.c ****     }
 5700              		.loc 1 1175 9 view .LVU2084
1175:lvgl/src/draw/sw/lv_draw_sw_rect.c ****     }
 5701              		.loc 1 1175 24 is_stmt 0 view .LVU2085
 5702 01ca 0021     		movs	r1, #0
 5703 01cc 1BA8     		add	r0, sp, #108
 5704 01ce FFF7FEFF 		bl	lv_draw_mask_add
 5705              	.LVL513:
 5706 01d2 0D90     		str	r0, [sp, #52]
 5707              	.LVL514:
1175:lvgl/src/draw/sw/lv_draw_sw_rect.c ****     }
 5708              		.loc 1 1175 24 view .LVU2086
 5709 01d4 52E7     		b	.L296
 5710              	.LVL515:
 5711              	.L339:
1204:lvgl/src/draw/sw/lv_draw_sw_rect.c ****         blend_area.x2 = draw_area.x2;
 5712              		.loc 1 1204 9 is_stmt 1 view .LVU2087
1204:lvgl/src/draw/sw/lv_draw_sw_rect.c ****         blend_area.x2 = draw_area.x2;
 5713              		.loc 1 1204 34 is_stmt 0 view .LVU2088
 5714 01d6 BDF9A030 		ldrsh	r3, [sp, #160]
 5715              	.LVL516:
1204:lvgl/src/draw/sw/lv_draw_sw_rect.c ****         blend_area.x2 = draw_area.x2;
 5716              		.loc 1 1204 23 view .LVU2089
 5717 01da ADF84C30 		strh	r3, [sp, #76]	@ movhi
1205:lvgl/src/draw/sw/lv_draw_sw_rect.c ****         for(h = draw_area.y1; h <= draw_area.y2; h++) {
 5718              		.loc 1 1205 9 is_stmt 1 view .LVU2090
1205:lvgl/src/draw/sw/lv_draw_sw_rect.c ****         for(h = draw_area.y1; h <= draw_area.y2; h++) {
 5719              		.loc 1 1205 34 is_stmt 0 view .LVU2091
 5720 01de BDF9A430 		ldrsh	r3, [sp, #164]
1205:lvgl/src/draw/sw/lv_draw_sw_rect.c ****         for(h = draw_area.y1; h <= draw_area.y2; h++) {
 5721              		.loc 1 1205 23 view .LVU2092
 5722 01e2 ADF85030 		strh	r3, [sp, #80]	@ movhi
1206:lvgl/src/draw/sw/lv_draw_sw_rect.c ****             if(!top_side && h < core_area.y1) continue;
 5723              		.loc 1 1206 9 is_stmt 1 view .LVU2093
1206:lvgl/src/draw/sw/lv_draw_sw_rect.c ****             if(!top_side && h < core_area.y1) continue;
 5724              		.loc 1 1206 26 is_stmt 0 view .LVU2094
 5725 01e6 BDF9A240 		ldrsh	r4, [sp, #162]
 5726              	.LVL517:
1206:lvgl/src/draw/sw/lv_draw_sw_rect.c ****             if(!top_side && h < core_area.y1) continue;
 5727              		.loc 1 1206 26 view .LVU2095
 5728 01ea CDF80C90 		str	r9, [sp, #12]
 5729              	.LVL518:
1206:lvgl/src/draw/sw/lv_draw_sw_rect.c ****             if(!top_side && h < core_area.y1) continue;
 5730              		.loc 1 1206 26 view .LVU2096
 5731 01ee 8146     		mov	r9, r0
ARM GAS  /var/folders/21/t9g5rlb91ys800n5npymflf80000gn/T//cca4dfU0.s 			page 163


1206:lvgl/src/draw/sw/lv_draw_sw_rect.c ****             if(!top_side && h < core_area.y1) continue;
 5732              		.loc 1 1206 9 view .LVU2097
 5733 01f0 1BE0     		b	.L298
 5734              	.LVL519:
 5735              	.L299:
1208:lvgl/src/draw/sw/lv_draw_sw_rect.c **** 
 5736              		.loc 1 1208 13 is_stmt 1 view .LVU2098
1208:lvgl/src/draw/sw/lv_draw_sw_rect.c **** 
 5737              		.loc 1 1208 15 is_stmt 0 view .LVU2099
 5738 01f2 C145     		cmp	r9, r8
 5739 01f4 02DD     		ble	.L301
1208:lvgl/src/draw/sw/lv_draw_sw_rect.c **** 
 5740              		.loc 1 1208 29 discriminator 1 view .LVU2100
 5741 01f6 049B     		ldr	r3, [sp, #16]
 5742 01f8 A342     		cmp	r3, r4
 5743 01fa 20DB     		blt	.L302
 5744              	.L301:
1210:lvgl/src/draw/sw/lv_draw_sw_rect.c ****             blend_area.y2 = h;
 5745              		.loc 1 1210 13 is_stmt 1 view .LVU2101
1210:lvgl/src/draw/sw/lv_draw_sw_rect.c ****             blend_area.y2 = h;
 5746              		.loc 1 1210 27 is_stmt 0 view .LVU2102
 5747 01fc 27B2     		sxth	r7, r4
 5748 01fe ADF84E70 		strh	r7, [sp, #78]	@ movhi
1211:lvgl/src/draw/sw/lv_draw_sw_rect.c **** 
 5749              		.loc 1 1211 13 is_stmt 1 view .LVU2103
1211:lvgl/src/draw/sw/lv_draw_sw_rect.c **** 
 5750              		.loc 1 1211 27 is_stmt 0 view .LVU2104
 5751 0202 ADF85270 		strh	r7, [sp, #82]	@ movhi
1213:lvgl/src/draw/sw/lv_draw_sw_rect.c ****             blend_dsc.mask_res = lv_draw_mask_apply(blend_dsc.mask_buf, draw_area.x1, h, draw_area_
 5752              		.loc 1 1213 13 is_stmt 1 view .LVU2105
 5753 0206 2946     		mov	r1, r5
 5754 0208 2498     		ldr	r0, [sp, #144]
 5755 020a FFF7FEFF 		bl	lv_memset_ff
 5756              	.LVL520:
1214:lvgl/src/draw/sw/lv_draw_sw_rect.c ****             lv_draw_sw_blend(draw_ctx, &blend_dsc);
 5757              		.loc 1 1214 13 view .LVU2106
1214:lvgl/src/draw/sw/lv_draw_sw_rect.c ****             lv_draw_sw_blend(draw_ctx, &blend_dsc);
 5758              		.loc 1 1214 34 is_stmt 0 view .LVU2107
 5759 020e 2B46     		mov	r3, r5
 5760 0210 3A46     		mov	r2, r7
 5761 0212 BDF9A010 		ldrsh	r1, [sp, #160]
 5762 0216 2498     		ldr	r0, [sp, #144]
 5763 0218 FFF7FEFF 		bl	lv_draw_mask_apply
 5764              	.LVL521:
1214:lvgl/src/draw/sw/lv_draw_sw_rect.c ****             lv_draw_sw_blend(draw_ctx, &blend_dsc);
 5765              		.loc 1 1214 32 view .LVU2108
 5766 021c 8DF89400 		strb	r0, [sp, #148]
1215:lvgl/src/draw/sw/lv_draw_sw_rect.c ****         }
 5767              		.loc 1 1215 13 is_stmt 1 view .LVU2109
 5768 0220 21A9     		add	r1, sp, #132
 5769 0222 3046     		mov	r0, r6
 5770 0224 FFF7FEFF 		bl	lv_draw_sw_blend
 5771              	.LVL522:
 5772              	.L300:
1206:lvgl/src/draw/sw/lv_draw_sw_rect.c ****             if(!top_side && h < core_area.y1) continue;
 5773              		.loc 1 1206 51 discriminator 2 view .LVU2110
 5774 0228 0134     		adds	r4, r4, #1
ARM GAS  /var/folders/21/t9g5rlb91ys800n5npymflf80000gn/T//cca4dfU0.s 			page 164


 5775              	.LVL523:
 5776              	.L298:
1206:lvgl/src/draw/sw/lv_draw_sw_rect.c ****             if(!top_side && h < core_area.y1) continue;
 5777              		.loc 1 1206 33 discriminator 1 view .LVU2111
1206:lvgl/src/draw/sw/lv_draw_sw_rect.c ****             if(!top_side && h < core_area.y1) continue;
 5778              		.loc 1 1206 45 is_stmt 0 discriminator 1 view .LVU2112
 5779 022a BDF9A630 		ldrsh	r3, [sp, #166]
1206:lvgl/src/draw/sw/lv_draw_sw_rect.c ****             if(!top_side && h < core_area.y1) continue;
 5780              		.loc 1 1206 33 discriminator 1 view .LVU2113
 5781 022e A342     		cmp	r3, r4
 5782 0230 05DB     		blt	.L302
1207:lvgl/src/draw/sw/lv_draw_sw_rect.c ****             if(!bottom_side && h > core_area.y2) break;
 5783              		.loc 1 1207 13 is_stmt 1 view .LVU2114
1207:lvgl/src/draw/sw/lv_draw_sw_rect.c ****             if(!bottom_side && h > core_area.y2) break;
 5784              		.loc 1 1207 15 is_stmt 0 view .LVU2115
 5785 0232 D345     		cmp	fp, r10
 5786 0234 DDDA     		bge	.L299
1207:lvgl/src/draw/sw/lv_draw_sw_rect.c ****             if(!bottom_side && h > core_area.y2) break;
 5787              		.loc 1 1207 26 discriminator 1 view .LVU2116
 5788 0236 039B     		ldr	r3, [sp, #12]
 5789 0238 A342     		cmp	r3, r4
 5790 023a DADD     		ble	.L299
 5791 023c F4E7     		b	.L300
 5792              	.L302:
1218:lvgl/src/draw/sw/lv_draw_sw_rect.c ****         lv_draw_mask_remove_id(mask_rin_id);
 5793              		.loc 1 1218 9 is_stmt 1 view .LVU2117
 5794 023e 15A8     		add	r0, sp, #84
 5795 0240 FFF7FEFF 		bl	lv_draw_mask_free_param
 5796              	.LVL524:
1219:lvgl/src/draw/sw/lv_draw_sw_rect.c ****         if(mask_rout_id != LV_MASK_ID_INV) {
 5797              		.loc 1 1219 9 view .LVU2118
 5798 0244 0C98     		ldr	r0, [sp, #48]
 5799 0246 FFF7FEFF 		bl	lv_draw_mask_remove_id
 5800              	.LVL525:
1220:lvgl/src/draw/sw/lv_draw_sw_rect.c ****             lv_draw_mask_free_param(&mask_rout_param);
 5801              		.loc 1 1220 9 view .LVU2119
1220:lvgl/src/draw/sw/lv_draw_sw_rect.c ****             lv_draw_mask_free_param(&mask_rout_param);
 5802              		.loc 1 1220 11 is_stmt 0 view .LVU2120
 5803 024a 0D9C     		ldr	r4, [sp, #52]
 5804              	.LVL526:
1220:lvgl/src/draw/sw/lv_draw_sw_rect.c ****             lv_draw_mask_free_param(&mask_rout_param);
 5805              		.loc 1 1220 11 view .LVU2121
 5806 024c B4F1FF3F 		cmp	r4, #-1
 5807 0250 03D1     		bne	.L344
 5808              	.L304:
1224:lvgl/src/draw/sw/lv_draw_sw_rect.c ****         return;
 5809              		.loc 1 1224 9 is_stmt 1 view .LVU2122
 5810 0252 2498     		ldr	r0, [sp, #144]
 5811 0254 FFF7FEFF 		bl	lv_mem_buf_release
 5812              	.LVL527:
1225:lvgl/src/draw/sw/lv_draw_sw_rect.c ****     }
 5813              		.loc 1 1225 9 view .LVU2123
 5814 0258 EDE6     		b	.L293
 5815              	.L344:
1221:lvgl/src/draw/sw/lv_draw_sw_rect.c ****             lv_draw_mask_remove_id(mask_rout_id);
 5816              		.loc 1 1221 13 view .LVU2124
 5817 025a 1BA8     		add	r0, sp, #108
ARM GAS  /var/folders/21/t9g5rlb91ys800n5npymflf80000gn/T//cca4dfU0.s 			page 165


 5818 025c FFF7FEFF 		bl	lv_draw_mask_free_param
 5819              	.LVL528:
1222:lvgl/src/draw/sw/lv_draw_sw_rect.c ****         }
 5820              		.loc 1 1222 13 view .LVU2125
 5821 0260 2046     		mov	r0, r4
 5822 0262 FFF7FEFF 		bl	lv_draw_mask_remove_id
 5823              	.LVL529:
 5824 0266 F4E7     		b	.L304
 5825              	.LVL530:
 5826              	.L340:
1241:lvgl/src/draw/sw/lv_draw_sw_rect.c ****         blend_area.x2 = core_area.x2;
 5827              		.loc 1 1241 9 view .LVU2126
1241:lvgl/src/draw/sw/lv_draw_sw_rect.c ****         blend_area.x2 = core_area.x2;
 5828              		.loc 1 1241 23 is_stmt 0 view .LVU2127
 5829 0268 0E9B     		ldr	r3, [sp, #56]
 5830 026a ADF84C30 		strh	r3, [sp, #76]	@ movhi
1242:lvgl/src/draw/sw/lv_draw_sw_rect.c ****         blend_area.y1 = outer_area->y1;
 5831              		.loc 1 1242 9 is_stmt 1 view .LVU2128
1242:lvgl/src/draw/sw/lv_draw_sw_rect.c ****         blend_area.y1 = outer_area->y1;
 5832              		.loc 1 1242 23 is_stmt 0 view .LVU2129
 5833 026e 0F9B     		ldr	r3, [sp, #60]
 5834 0270 ADF85030 		strh	r3, [sp, #80]	@ movhi
1243:lvgl/src/draw/sw/lv_draw_sw_rect.c ****         blend_area.y2 = inner_area->y1 - 1;
 5835              		.loc 1 1243 9 is_stmt 1 view .LVU2130
1243:lvgl/src/draw/sw/lv_draw_sw_rect.c ****         blend_area.y2 = inner_area->y1 - 1;
 5836              		.loc 1 1243 35 is_stmt 0 view .LVU2131
 5837 0274 B4F90230 		ldrsh	r3, [r4, #2]
1243:lvgl/src/draw/sw/lv_draw_sw_rect.c ****         blend_area.y2 = inner_area->y1 - 1;
 5838              		.loc 1 1243 23 view .LVU2132
 5839 0278 ADF84E30 		strh	r3, [sp, #78]	@ movhi
1244:lvgl/src/draw/sw/lv_draw_sw_rect.c ****         lv_draw_sw_blend(draw_ctx, &blend_dsc);
 5840              		.loc 1 1244 9 is_stmt 1 view .LVU2133
1244:lvgl/src/draw/sw/lv_draw_sw_rect.c ****         lv_draw_sw_blend(draw_ctx, &blend_dsc);
 5841              		.loc 1 1244 35 is_stmt 0 view .LVU2134
 5842 027c 039B     		ldr	r3, [sp, #12]
 5843 027e 5B88     		ldrh	r3, [r3, #2]
1244:lvgl/src/draw/sw/lv_draw_sw_rect.c ****         lv_draw_sw_blend(draw_ctx, &blend_dsc);
 5844              		.loc 1 1244 40 view .LVU2135
 5845 0280 013B     		subs	r3, r3, #1
1244:lvgl/src/draw/sw/lv_draw_sw_rect.c ****         lv_draw_sw_blend(draw_ctx, &blend_dsc);
 5846              		.loc 1 1244 23 view .LVU2136
 5847 0282 ADF85230 		strh	r3, [sp, #82]	@ movhi
1245:lvgl/src/draw/sw/lv_draw_sw_rect.c ****     }
 5848              		.loc 1 1245 9 is_stmt 1 view .LVU2137
 5849 0286 21A9     		add	r1, sp, #132
 5850 0288 3046     		mov	r0, r6
 5851 028a FFF7FEFF 		bl	lv_draw_sw_blend
 5852              	.LVL531:
1245:lvgl/src/draw/sw/lv_draw_sw_rect.c ****     }
 5853              		.loc 1 1245 9 is_stmt 0 view .LVU2138
 5854 028e 6AE7     		b	.L306
 5855              	.L341:
1249:lvgl/src/draw/sw/lv_draw_sw_rect.c ****         blend_area.x2 = core_area.x2;
 5856              		.loc 1 1249 9 is_stmt 1 view .LVU2139
1249:lvgl/src/draw/sw/lv_draw_sw_rect.c ****         blend_area.x2 = core_area.x2;
 5857              		.loc 1 1249 23 is_stmt 0 view .LVU2140
 5858 0290 0E9B     		ldr	r3, [sp, #56]
ARM GAS  /var/folders/21/t9g5rlb91ys800n5npymflf80000gn/T//cca4dfU0.s 			page 166


 5859 0292 ADF84C30 		strh	r3, [sp, #76]	@ movhi
1250:lvgl/src/draw/sw/lv_draw_sw_rect.c ****         blend_area.y1 = inner_area->y2 + 1;
 5860              		.loc 1 1250 9 is_stmt 1 view .LVU2141
1250:lvgl/src/draw/sw/lv_draw_sw_rect.c ****         blend_area.y1 = inner_area->y2 + 1;
 5861              		.loc 1 1250 23 is_stmt 0 view .LVU2142
 5862 0296 0F9B     		ldr	r3, [sp, #60]
 5863 0298 ADF85030 		strh	r3, [sp, #80]	@ movhi
1251:lvgl/src/draw/sw/lv_draw_sw_rect.c ****         blend_area.y2 = outer_area->y2;
 5864              		.loc 1 1251 9 is_stmt 1 view .LVU2143
1251:lvgl/src/draw/sw/lv_draw_sw_rect.c ****         blend_area.y2 = outer_area->y2;
 5865              		.loc 1 1251 35 is_stmt 0 view .LVU2144
 5866 029c 039B     		ldr	r3, [sp, #12]
 5867 029e DB88     		ldrh	r3, [r3, #6]
1251:lvgl/src/draw/sw/lv_draw_sw_rect.c ****         blend_area.y2 = outer_area->y2;
 5868              		.loc 1 1251 40 view .LVU2145
 5869 02a0 0133     		adds	r3, r3, #1
1251:lvgl/src/draw/sw/lv_draw_sw_rect.c ****         blend_area.y2 = outer_area->y2;
 5870              		.loc 1 1251 23 view .LVU2146
 5871 02a2 ADF84E30 		strh	r3, [sp, #78]	@ movhi
1252:lvgl/src/draw/sw/lv_draw_sw_rect.c ****         lv_draw_sw_blend(draw_ctx, &blend_dsc);
 5872              		.loc 1 1252 9 is_stmt 1 view .LVU2147
1252:lvgl/src/draw/sw/lv_draw_sw_rect.c ****         lv_draw_sw_blend(draw_ctx, &blend_dsc);
 5873              		.loc 1 1252 35 is_stmt 0 view .LVU2148
 5874 02a6 B4F90630 		ldrsh	r3, [r4, #6]
1252:lvgl/src/draw/sw/lv_draw_sw_rect.c ****         lv_draw_sw_blend(draw_ctx, &blend_dsc);
 5875              		.loc 1 1252 23 view .LVU2149
 5876 02aa ADF85230 		strh	r3, [sp, #82]	@ movhi
1253:lvgl/src/draw/sw/lv_draw_sw_rect.c ****     }
 5877              		.loc 1 1253 9 is_stmt 1 view .LVU2150
 5878 02ae 21A9     		add	r1, sp, #132
 5879 02b0 3046     		mov	r0, r6
 5880 02b2 FFF7FEFF 		bl	lv_draw_sw_blend
 5881              	.LVL532:
 5882 02b6 5DE7     		b	.L307
 5883              	.L342:
1257:lvgl/src/draw/sw/lv_draw_sw_rect.c ****         blend_area.x2 = inner_area->x1 - 1;
 5884              		.loc 1 1257 9 view .LVU2151
1257:lvgl/src/draw/sw/lv_draw_sw_rect.c ****         blend_area.x2 = inner_area->x1 - 1;
 5885              		.loc 1 1257 35 is_stmt 0 view .LVU2152
 5886 02b8 B4F90030 		ldrsh	r3, [r4]
1257:lvgl/src/draw/sw/lv_draw_sw_rect.c ****         blend_area.x2 = inner_area->x1 - 1;
 5887              		.loc 1 1257 23 view .LVU2153
 5888 02bc ADF84C30 		strh	r3, [sp, #76]	@ movhi
1258:lvgl/src/draw/sw/lv_draw_sw_rect.c ****         blend_area.y1 = core_area.y1;
 5889              		.loc 1 1258 9 is_stmt 1 view .LVU2154
1258:lvgl/src/draw/sw/lv_draw_sw_rect.c ****         blend_area.y1 = core_area.y1;
 5890              		.loc 1 1258 35 is_stmt 0 view .LVU2155
 5891 02c0 039B     		ldr	r3, [sp, #12]
 5892 02c2 1B88     		ldrh	r3, [r3]
1258:lvgl/src/draw/sw/lv_draw_sw_rect.c ****         blend_area.y1 = core_area.y1;
 5893              		.loc 1 1258 40 view .LVU2156
 5894 02c4 013B     		subs	r3, r3, #1
1258:lvgl/src/draw/sw/lv_draw_sw_rect.c ****         blend_area.y1 = core_area.y1;
 5895              		.loc 1 1258 23 view .LVU2157
 5896 02c6 ADF85030 		strh	r3, [sp, #80]	@ movhi
1259:lvgl/src/draw/sw/lv_draw_sw_rect.c ****         blend_area.y2 = core_area.y2;
 5897              		.loc 1 1259 9 is_stmt 1 view .LVU2158
ARM GAS  /var/folders/21/t9g5rlb91ys800n5npymflf80000gn/T//cca4dfU0.s 			page 167


1259:lvgl/src/draw/sw/lv_draw_sw_rect.c ****         blend_area.y2 = core_area.y2;
 5898              		.loc 1 1259 23 is_stmt 0 view .LVU2159
 5899 02ca ADF84E90 		strh	r9, [sp, #78]	@ movhi
1260:lvgl/src/draw/sw/lv_draw_sw_rect.c ****         lv_draw_sw_blend(draw_ctx, &blend_dsc);
 5900              		.loc 1 1260 9 is_stmt 1 view .LVU2160
1260:lvgl/src/draw/sw/lv_draw_sw_rect.c ****         lv_draw_sw_blend(draw_ctx, &blend_dsc);
 5901              		.loc 1 1260 23 is_stmt 0 view .LVU2161
 5902 02ce 049B     		ldr	r3, [sp, #16]
 5903 02d0 ADF85230 		strh	r3, [sp, #82]	@ movhi
1261:lvgl/src/draw/sw/lv_draw_sw_rect.c ****     }
 5904              		.loc 1 1261 9 is_stmt 1 view .LVU2162
 5905 02d4 21A9     		add	r1, sp, #132
 5906 02d6 3046     		mov	r0, r6
 5907 02d8 FFF7FEFF 		bl	lv_draw_sw_blend
 5908              	.LVL533:
 5909 02dc 4FE7     		b	.L308
 5910              	.L343:
1265:lvgl/src/draw/sw/lv_draw_sw_rect.c ****         blend_area.x2 = outer_area->x2;
 5911              		.loc 1 1265 9 view .LVU2163
1265:lvgl/src/draw/sw/lv_draw_sw_rect.c ****         blend_area.x2 = outer_area->x2;
 5912              		.loc 1 1265 35 is_stmt 0 view .LVU2164
 5913 02de 039B     		ldr	r3, [sp, #12]
 5914 02e0 9B88     		ldrh	r3, [r3, #4]
1265:lvgl/src/draw/sw/lv_draw_sw_rect.c ****         blend_area.x2 = outer_area->x2;
 5915              		.loc 1 1265 40 view .LVU2165
 5916 02e2 0133     		adds	r3, r3, #1
1265:lvgl/src/draw/sw/lv_draw_sw_rect.c ****         blend_area.x2 = outer_area->x2;
 5917              		.loc 1 1265 23 view .LVU2166
 5918 02e4 ADF84C30 		strh	r3, [sp, #76]	@ movhi
1266:lvgl/src/draw/sw/lv_draw_sw_rect.c ****         blend_area.y1 = core_area.y1;
 5919              		.loc 1 1266 9 is_stmt 1 view .LVU2167
1266:lvgl/src/draw/sw/lv_draw_sw_rect.c ****         blend_area.y1 = core_area.y1;
 5920              		.loc 1 1266 35 is_stmt 0 view .LVU2168
 5921 02e8 B4F90430 		ldrsh	r3, [r4, #4]
1266:lvgl/src/draw/sw/lv_draw_sw_rect.c ****         blend_area.y1 = core_area.y1;
 5922              		.loc 1 1266 23 view .LVU2169
 5923 02ec ADF85030 		strh	r3, [sp, #80]	@ movhi
1267:lvgl/src/draw/sw/lv_draw_sw_rect.c ****         blend_area.y2 = core_area.y2;
 5924              		.loc 1 1267 9 is_stmt 1 view .LVU2170
1267:lvgl/src/draw/sw/lv_draw_sw_rect.c ****         blend_area.y2 = core_area.y2;
 5925              		.loc 1 1267 23 is_stmt 0 view .LVU2171
 5926 02f0 ADF84E90 		strh	r9, [sp, #78]	@ movhi
1268:lvgl/src/draw/sw/lv_draw_sw_rect.c ****         lv_draw_sw_blend(draw_ctx, &blend_dsc);
 5927              		.loc 1 1268 9 is_stmt 1 view .LVU2172
1268:lvgl/src/draw/sw/lv_draw_sw_rect.c ****         lv_draw_sw_blend(draw_ctx, &blend_dsc);
 5928              		.loc 1 1268 23 is_stmt 0 view .LVU2173
 5929 02f4 049B     		ldr	r3, [sp, #16]
 5930 02f6 ADF85230 		strh	r3, [sp, #82]	@ movhi
1269:lvgl/src/draw/sw/lv_draw_sw_rect.c ****     }
 5931              		.loc 1 1269 9 is_stmt 1 view .LVU2174
 5932 02fa 21A9     		add	r1, sp, #132
 5933 02fc 3046     		mov	r0, r6
 5934 02fe FFF7FEFF 		bl	lv_draw_sw_blend
 5935              	.LVL534:
 5936 0302 41E7     		b	.L309
 5937              	.LVL535:
 5938              	.L312:
ARM GAS  /var/folders/21/t9g5rlb91ys800n5npymflf80000gn/T//cca4dfU0.s 			page 168


 5939              	.LBB213:
 5940              	.LBB211:
1286:lvgl/src/draw/sw/lv_draw_sw_rect.c ****             blend_dsc.mask_res = lv_draw_mask_apply(blend_dsc.mask_buf, blend_area.x1, top_y, draw_
 5941              		.loc 1 1286 13 view .LVU2175
 5942 0304 2946     		mov	r1, r5
 5943 0306 2498     		ldr	r0, [sp, #144]
 5944 0308 FFF7FEFF 		bl	lv_memset_ff
 5945              	.LVL536:
1287:lvgl/src/draw/sw/lv_draw_sw_rect.c **** 
 5946              		.loc 1 1287 13 view .LVU2176
1287:lvgl/src/draw/sw/lv_draw_sw_rect.c **** 
 5947              		.loc 1 1287 34 is_stmt 0 view .LVU2177
 5948 030c 2B46     		mov	r3, r5
 5949 030e 3A46     		mov	r2, r7
 5950 0310 BDF94C10 		ldrsh	r1, [sp, #76]
 5951 0314 2498     		ldr	r0, [sp, #144]
 5952 0316 FFF7FEFF 		bl	lv_draw_mask_apply
 5953              	.LVL537:
1287:lvgl/src/draw/sw/lv_draw_sw_rect.c **** 
 5954              		.loc 1 1287 32 view .LVU2178
 5955 031a 8DF89400 		strb	r0, [sp, #148]
1289:lvgl/src/draw/sw/lv_draw_sw_rect.c ****                 blend_area.y1 = top_y;
 5956              		.loc 1 1289 13 is_stmt 1 view .LVU2179
1289:lvgl/src/draw/sw/lv_draw_sw_rect.c ****                 blend_area.y1 = top_y;
 5957              		.loc 1 1289 34 is_stmt 0 view .LVU2180
 5958 031e BDF9A230 		ldrsh	r3, [sp, #162]
1289:lvgl/src/draw/sw/lv_draw_sw_rect.c ****                 blend_area.y1 = top_y;
 5959              		.loc 1 1289 15 view .LVU2181
 5960 0322 BB42     		cmp	r3, r7
 5961 0324 1CDD     		ble	.L345
 5962              	.L314:
1295:lvgl/src/draw/sw/lv_draw_sw_rect.c ****                 blend_area.y1 = bottom_y;
 5963              		.loc 1 1295 13 is_stmt 1 view .LVU2182
1295:lvgl/src/draw/sw/lv_draw_sw_rect.c ****                 blend_area.y1 = bottom_y;
 5964              		.loc 1 1295 37 is_stmt 0 view .LVU2183
 5965 0326 BDF9A630 		ldrsh	r3, [sp, #166]
1295:lvgl/src/draw/sw/lv_draw_sw_rect.c ****                 blend_area.y1 = bottom_y;
 5966              		.loc 1 1295 15 view .LVU2184
 5967 032a 4345     		cmp	r3, r8
 5968 032c 21DA     		bge	.L346
 5969              	.L313:
 5970              	.LBE211:
1281:lvgl/src/draw/sw/lv_draw_sw_rect.c ****             lv_coord_t top_y = outer_area->y1 + h;
 5971              		.loc 1 1281 32 is_stmt 1 discriminator 2 view .LVU2185
 5972 032e 09F10109 		add	r9, r9, #1
 5973              	.LVL538:
 5974              	.L311:
1281:lvgl/src/draw/sw/lv_draw_sw_rect.c ****             lv_coord_t top_y = outer_area->y1 + h;
 5975              		.loc 1 1281 22 discriminator 1 view .LVU2186
 5976 0332 CA45     		cmp	r10, r9
 5977 0334 40F3DE80 		ble	.L316
 5978              	.LBB212:
1282:lvgl/src/draw/sw/lv_draw_sw_rect.c ****             lv_coord_t bottom_y = outer_area->y2 - h;
 5979              		.loc 1 1282 13 view .LVU2187
1282:lvgl/src/draw/sw/lv_draw_sw_rect.c ****             lv_coord_t bottom_y = outer_area->y2 - h;
 5980              		.loc 1 1282 42 is_stmt 0 view .LVU2188
 5981 0338 6788     		ldrh	r7, [r4, #2]
ARM GAS  /var/folders/21/t9g5rlb91ys800n5npymflf80000gn/T//cca4dfU0.s 			page 169


1282:lvgl/src/draw/sw/lv_draw_sw_rect.c ****             lv_coord_t bottom_y = outer_area->y2 - h;
 5982              		.loc 1 1282 47 view .LVU2189
 5983 033a 1FFA89F3 		uxth	r3, r9
 5984 033e 1F44     		add	r7, r7, r3
1282:lvgl/src/draw/sw/lv_draw_sw_rect.c ****             lv_coord_t bottom_y = outer_area->y2 - h;
 5985              		.loc 1 1282 24 view .LVU2190
 5986 0340 3FB2     		sxth	r7, r7
 5987              	.LVL539:
1283:lvgl/src/draw/sw/lv_draw_sw_rect.c ****             if(top_y < draw_area.y1 && bottom_y > draw_area.y2) continue;   /*This line is clipped 
 5988              		.loc 1 1283 13 is_stmt 1 view .LVU2191
1283:lvgl/src/draw/sw/lv_draw_sw_rect.c ****             if(top_y < draw_area.y1 && bottom_y > draw_area.y2) continue;   /*This line is clipped 
 5989              		.loc 1 1283 45 is_stmt 0 view .LVU2192
 5990 0342 B4F80680 		ldrh	r8, [r4, #6]
1283:lvgl/src/draw/sw/lv_draw_sw_rect.c ****             if(top_y < draw_area.y1 && bottom_y > draw_area.y2) continue;   /*This line is clipped 
 5991              		.loc 1 1283 50 view .LVU2193
 5992 0346 A8EB0308 		sub	r8, r8, r3
1283:lvgl/src/draw/sw/lv_draw_sw_rect.c ****             if(top_y < draw_area.y1 && bottom_y > draw_area.y2) continue;   /*This line is clipped 
 5993              		.loc 1 1283 24 view .LVU2194
 5994 034a 0FFA88F8 		sxth	r8, r8
 5995              	.LVL540:
1284:lvgl/src/draw/sw/lv_draw_sw_rect.c **** 
 5996              		.loc 1 1284 13 is_stmt 1 view .LVU2195
1284:lvgl/src/draw/sw/lv_draw_sw_rect.c **** 
 5997              		.loc 1 1284 33 is_stmt 0 view .LVU2196
 5998 034e BDF9A230 		ldrsh	r3, [sp, #162]
1284:lvgl/src/draw/sw/lv_draw_sw_rect.c **** 
 5999              		.loc 1 1284 15 view .LVU2197
 6000 0352 BB42     		cmp	r3, r7
 6001 0354 D6DD     		ble	.L312
1284:lvgl/src/draw/sw/lv_draw_sw_rect.c **** 
 6002              		.loc 1 1284 60 discriminator 1 view .LVU2198
 6003 0356 BDF9A630 		ldrsh	r3, [sp, #166]
1284:lvgl/src/draw/sw/lv_draw_sw_rect.c **** 
 6004              		.loc 1 1284 37 discriminator 1 view .LVU2199
 6005 035a 4345     		cmp	r3, r8
 6006 035c D2DA     		bge	.L312
 6007 035e E6E7     		b	.L313
 6008              	.L345:
1290:lvgl/src/draw/sw/lv_draw_sw_rect.c ****                 blend_area.y2 = top_y;
 6009              		.loc 1 1290 17 is_stmt 1 view .LVU2200
1290:lvgl/src/draw/sw/lv_draw_sw_rect.c ****                 blend_area.y2 = top_y;
 6010              		.loc 1 1290 31 is_stmt 0 view .LVU2201
 6011 0360 ADF84E70 		strh	r7, [sp, #78]	@ movhi
1291:lvgl/src/draw/sw/lv_draw_sw_rect.c ****                 lv_draw_sw_blend(draw_ctx, &blend_dsc);
 6012              		.loc 1 1291 17 is_stmt 1 view .LVU2202
1291:lvgl/src/draw/sw/lv_draw_sw_rect.c ****                 lv_draw_sw_blend(draw_ctx, &blend_dsc);
 6013              		.loc 1 1291 31 is_stmt 0 view .LVU2203
 6014 0364 ADF85270 		strh	r7, [sp, #82]	@ movhi
1292:lvgl/src/draw/sw/lv_draw_sw_rect.c ****             }
 6015              		.loc 1 1292 17 is_stmt 1 view .LVU2204
 6016 0368 21A9     		add	r1, sp, #132
 6017 036a 3046     		mov	r0, r6
 6018 036c FFF7FEFF 		bl	lv_draw_sw_blend
 6019              	.LVL541:
 6020 0370 D9E7     		b	.L314
 6021              	.L346:
1296:lvgl/src/draw/sw/lv_draw_sw_rect.c ****                 blend_area.y2 = bottom_y;
ARM GAS  /var/folders/21/t9g5rlb91ys800n5npymflf80000gn/T//cca4dfU0.s 			page 170


 6022              		.loc 1 1296 17 view .LVU2205
1296:lvgl/src/draw/sw/lv_draw_sw_rect.c ****                 blend_area.y2 = bottom_y;
 6023              		.loc 1 1296 31 is_stmt 0 view .LVU2206
 6024 0372 ADF84E80 		strh	r8, [sp, #78]	@ movhi
1297:lvgl/src/draw/sw/lv_draw_sw_rect.c ****                 lv_draw_sw_blend(draw_ctx, &blend_dsc);
 6025              		.loc 1 1297 17 is_stmt 1 view .LVU2207
1297:lvgl/src/draw/sw/lv_draw_sw_rect.c ****                 lv_draw_sw_blend(draw_ctx, &blend_dsc);
 6026              		.loc 1 1297 31 is_stmt 0 view .LVU2208
 6027 0376 ADF85280 		strh	r8, [sp, #82]	@ movhi
1298:lvgl/src/draw/sw/lv_draw_sw_rect.c ****             }
 6028              		.loc 1 1298 17 is_stmt 1 view .LVU2209
 6029 037a 21A9     		add	r1, sp, #132
 6030 037c 3046     		mov	r0, r6
 6031 037e FFF7FEFF 		bl	lv_draw_sw_blend
 6032              	.LVL542:
 6033 0382 D4E7     		b	.L313
 6034              	.LVL543:
 6035              	.L310:
1298:lvgl/src/draw/sw/lv_draw_sw_rect.c ****             }
 6036              		.loc 1 1298 17 is_stmt 0 view .LVU2210
 6037              	.LBE212:
 6038              	.LBE213:
1304:lvgl/src/draw/sw/lv_draw_sw_rect.c ****         blend_area.x2 = LV_MIN(draw_area.x2, core_area.x1 - 1);
 6039              		.loc 1 1304 9 is_stmt 1 view .LVU2211
1304:lvgl/src/draw/sw/lv_draw_sw_rect.c ****         blend_area.x2 = LV_MIN(draw_area.x2, core_area.x1 - 1);
 6040              		.loc 1 1304 34 is_stmt 0 view .LVU2212
 6041 0384 BDF9A020 		ldrsh	r2, [sp, #160]
1304:lvgl/src/draw/sw/lv_draw_sw_rect.c ****         blend_area.x2 = LV_MIN(draw_area.x2, core_area.x1 - 1);
 6042              		.loc 1 1304 23 view .LVU2213
 6043 0388 ADF84C20 		strh	r2, [sp, #76]	@ movhi
1305:lvgl/src/draw/sw/lv_draw_sw_rect.c ****         blend_w = lv_area_get_width(&blend_area);
 6044              		.loc 1 1305 9 is_stmt 1 view .LVU2214
1305:lvgl/src/draw/sw/lv_draw_sw_rect.c ****         blend_w = lv_area_get_width(&blend_area);
 6045              		.loc 1 1305 25 is_stmt 0 view .LVU2215
 6046 038c 0E9B     		ldr	r3, [sp, #56]
 6047 038e 013B     		subs	r3, r3, #1
 6048 0390 BDF9A410 		ldrsh	r1, [sp, #164]
 6049 0394 8B42     		cmp	r3, r1
 6050 0396 A8BF     		it	ge
 6051 0398 0B46     		movge	r3, r1
1305:lvgl/src/draw/sw/lv_draw_sw_rect.c ****         blend_w = lv_area_get_width(&blend_area);
 6052              		.loc 1 1305 23 view .LVU2216
 6053 039a ADF85030 		strh	r3, [sp, #80]	@ movhi
1306:lvgl/src/draw/sw/lv_draw_sw_rect.c ****         if(blend_w > 0) {
 6054              		.loc 1 1306 9 is_stmt 1 view .LVU2217
 6055              	.LVL544:
 6056              	.LBB214:
 6057              	.LBI214:
 123:lvgl/src/draw/sw/../../misc/lv_area.h **** {
 6058              		.loc 2 123 26 view .LVU2218
 6059              	.LBB215:
 125:lvgl/src/draw/sw/../../misc/lv_area.h **** }
 6060              		.loc 2 125 5 view .LVU2219
 125:lvgl/src/draw/sw/../../misc/lv_area.h **** }
 6061              		.loc 2 125 31 is_stmt 0 view .LVU2220
 6062 039e 9FB2     		uxth	r7, r3
 125:lvgl/src/draw/sw/../../misc/lv_area.h **** }
ARM GAS  /var/folders/21/t9g5rlb91ys800n5npymflf80000gn/T//cca4dfU0.s 			page 171


 6063              		.loc 2 125 44 view .LVU2221
 6064 03a0 92B2     		uxth	r2, r2
 125:lvgl/src/draw/sw/../../misc/lv_area.h **** }
 6065              		.loc 2 125 36 view .LVU2222
 6066 03a2 BF1A     		subs	r7, r7, r2
 6067 03a4 BFB2     		uxth	r7, r7
 125:lvgl/src/draw/sw/../../misc/lv_area.h **** }
 6068              		.loc 2 125 49 view .LVU2223
 6069 03a6 0137     		adds	r7, r7, #1
 125:lvgl/src/draw/sw/../../misc/lv_area.h **** }
 6070              		.loc 2 125 12 view .LVU2224
 6071 03a8 3FB2     		sxth	r7, r7
 6072              	.LVL545:
 125:lvgl/src/draw/sw/../../misc/lv_area.h **** }
 6073              		.loc 2 125 12 view .LVU2225
 6074              	.LBE215:
 6075              	.LBE214:
1307:lvgl/src/draw/sw/lv_draw_sw_rect.c ****             if(left_side || top_side) {
 6076              		.loc 1 1307 9 is_stmt 1 view .LVU2226
1307:lvgl/src/draw/sw/lv_draw_sw_rect.c ****             if(left_side || top_side) {
 6077              		.loc 1 1307 11 is_stmt 0 view .LVU2227
 6078 03aa 002F     		cmp	r7, #0
 6079 03ac 46DD     		ble	.L317
1308:lvgl/src/draw/sw/lv_draw_sw_rect.c ****                 for(h = draw_area.y1; h < core_area.y1; h++) {
 6080              		.loc 1 1308 13 is_stmt 1 view .LVU2228
1308:lvgl/src/draw/sw/lv_draw_sw_rect.c ****                 for(h = draw_area.y1; h < core_area.y1; h++) {
 6081              		.loc 1 1308 15 is_stmt 0 view .LVU2229
 6082 03ae 079B     		ldr	r3, [sp, #28]
 6083 03b0 089A     		ldr	r2, [sp, #32]
 6084 03b2 9342     		cmp	r3, r2
 6085 03b4 01DA     		bge	.L318
1308:lvgl/src/draw/sw/lv_draw_sw_rect.c ****                 for(h = draw_area.y1; h < core_area.y1; h++) {
 6086              		.loc 1 1308 26 discriminator 1 view .LVU2230
 6087 03b6 D345     		cmp	fp, r10
 6088 03b8 1BDB     		blt	.L319
 6089              	.L318:
1309:lvgl/src/draw/sw/lv_draw_sw_rect.c ****                     blend_area.y1 = h;
 6090              		.loc 1 1309 17 is_stmt 1 view .LVU2231
1309:lvgl/src/draw/sw/lv_draw_sw_rect.c ****                     blend_area.y1 = h;
 6091              		.loc 1 1309 34 is_stmt 0 view .LVU2232
 6092 03ba BDF9A240 		ldrsh	r4, [sp, #162]
 6093              	.LVL546:
1309:lvgl/src/draw/sw/lv_draw_sw_rect.c ****                     blend_area.y1 = h;
 6094              		.loc 1 1309 17 view .LVU2233
 6095 03be 16E0     		b	.L320
 6096              	.LVL547:
 6097              	.L321:
1310:lvgl/src/draw/sw/lv_draw_sw_rect.c ****                     blend_area.y2 = h;
 6098              		.loc 1 1310 21 is_stmt 1 discriminator 3 view .LVU2234
1310:lvgl/src/draw/sw/lv_draw_sw_rect.c ****                     blend_area.y2 = h;
 6099              		.loc 1 1310 35 is_stmt 0 discriminator 3 view .LVU2235
 6100 03c0 25B2     		sxth	r5, r4
 6101 03c2 ADF84E50 		strh	r5, [sp, #78]	@ movhi
1311:lvgl/src/draw/sw/lv_draw_sw_rect.c **** 
 6102              		.loc 1 1311 21 is_stmt 1 discriminator 3 view .LVU2236
1311:lvgl/src/draw/sw/lv_draw_sw_rect.c **** 
 6103              		.loc 1 1311 35 is_stmt 0 discriminator 3 view .LVU2237
ARM GAS  /var/folders/21/t9g5rlb91ys800n5npymflf80000gn/T//cca4dfU0.s 			page 172


 6104 03c6 ADF85250 		strh	r5, [sp, #82]	@ movhi
1313:lvgl/src/draw/sw/lv_draw_sw_rect.c ****                     blend_dsc.mask_res = lv_draw_mask_apply(blend_dsc.mask_buf, blend_area.x1, h, b
 6105              		.loc 1 1313 21 is_stmt 1 discriminator 3 view .LVU2238
 6106 03ca 3946     		mov	r1, r7
 6107 03cc 2498     		ldr	r0, [sp, #144]
 6108 03ce FFF7FEFF 		bl	lv_memset_ff
 6109              	.LVL548:
1314:lvgl/src/draw/sw/lv_draw_sw_rect.c ****                     lv_draw_sw_blend(draw_ctx, &blend_dsc);
 6110              		.loc 1 1314 21 discriminator 3 view .LVU2239
1314:lvgl/src/draw/sw/lv_draw_sw_rect.c ****                     lv_draw_sw_blend(draw_ctx, &blend_dsc);
 6111              		.loc 1 1314 42 is_stmt 0 discriminator 3 view .LVU2240
 6112 03d2 3B46     		mov	r3, r7
 6113 03d4 2A46     		mov	r2, r5
 6114 03d6 BDF94C10 		ldrsh	r1, [sp, #76]
 6115 03da 2498     		ldr	r0, [sp, #144]
 6116 03dc FFF7FEFF 		bl	lv_draw_mask_apply
 6117              	.LVL549:
1314:lvgl/src/draw/sw/lv_draw_sw_rect.c ****                     lv_draw_sw_blend(draw_ctx, &blend_dsc);
 6118              		.loc 1 1314 40 discriminator 3 view .LVU2241
 6119 03e0 8DF89400 		strb	r0, [sp, #148]
1315:lvgl/src/draw/sw/lv_draw_sw_rect.c ****                 }
 6120              		.loc 1 1315 21 is_stmt 1 discriminator 3 view .LVU2242
 6121 03e4 21A9     		add	r1, sp, #132
 6122 03e6 3046     		mov	r0, r6
 6123 03e8 FFF7FEFF 		bl	lv_draw_sw_blend
 6124              	.LVL550:
1309:lvgl/src/draw/sw/lv_draw_sw_rect.c ****                     blend_area.y1 = h;
 6125              		.loc 1 1309 58 discriminator 3 view .LVU2243
 6126 03ec 0134     		adds	r4, r4, #1
 6127              	.LVL551:
 6128              	.L320:
1309:lvgl/src/draw/sw/lv_draw_sw_rect.c ****                     blend_area.y1 = h;
 6129              		.loc 1 1309 41 discriminator 1 view .LVU2244
 6130 03ee A145     		cmp	r9, r4
 6131 03f0 E6DC     		bgt	.L321
 6132              	.LVL552:
 6133              	.L319:
1319:lvgl/src/draw/sw/lv_draw_sw_rect.c ****                 for(h = core_area.y2 + 1; h <= draw_area.y2; h++) {
 6134              		.loc 1 1319 13 view .LVU2245
1319:lvgl/src/draw/sw/lv_draw_sw_rect.c ****                 for(h = core_area.y2 + 1; h <= draw_area.y2; h++) {
 6135              		.loc 1 1319 15 is_stmt 0 view .LVU2246
 6136 03f2 079B     		ldr	r3, [sp, #28]
 6137 03f4 089A     		ldr	r2, [sp, #32]
 6138 03f6 9342     		cmp	r3, r2
 6139 03f8 02DA     		bge	.L322
1319:lvgl/src/draw/sw/lv_draw_sw_rect.c ****                 for(h = core_area.y2 + 1; h <= draw_area.y2; h++) {
 6140              		.loc 1 1319 26 discriminator 1 view .LVU2247
 6141 03fa 0B9B     		ldr	r3, [sp, #44]
 6142 03fc 4345     		cmp	r3, r8
 6143 03fe 1DDC     		bgt	.L317
 6144              	.L322:
1320:lvgl/src/draw/sw/lv_draw_sw_rect.c ****                     blend_area.y1 = h;
 6145              		.loc 1 1320 17 is_stmt 1 view .LVU2248
1320:lvgl/src/draw/sw/lv_draw_sw_rect.c ****                     blend_area.y1 = h;
 6146              		.loc 1 1320 23 is_stmt 0 view .LVU2249
 6147 0400 049B     		ldr	r3, [sp, #16]
 6148 0402 5C1C     		adds	r4, r3, #1
ARM GAS  /var/folders/21/t9g5rlb91ys800n5npymflf80000gn/T//cca4dfU0.s 			page 173


 6149              	.LVL553:
1320:lvgl/src/draw/sw/lv_draw_sw_rect.c ****                     blend_area.y1 = h;
 6150              		.loc 1 1320 17 view .LVU2250
 6151 0404 16E0     		b	.L323
 6152              	.L324:
1321:lvgl/src/draw/sw/lv_draw_sw_rect.c ****                     blend_area.y2 = h;
 6153              		.loc 1 1321 21 is_stmt 1 discriminator 3 view .LVU2251
1321:lvgl/src/draw/sw/lv_draw_sw_rect.c ****                     blend_area.y2 = h;
 6154              		.loc 1 1321 35 is_stmt 0 discriminator 3 view .LVU2252
 6155 0406 25B2     		sxth	r5, r4
 6156 0408 ADF84E50 		strh	r5, [sp, #78]	@ movhi
1322:lvgl/src/draw/sw/lv_draw_sw_rect.c **** 
 6157              		.loc 1 1322 21 is_stmt 1 discriminator 3 view .LVU2253
1322:lvgl/src/draw/sw/lv_draw_sw_rect.c **** 
 6158              		.loc 1 1322 35 is_stmt 0 discriminator 3 view .LVU2254
 6159 040c ADF85250 		strh	r5, [sp, #82]	@ movhi
1324:lvgl/src/draw/sw/lv_draw_sw_rect.c ****                     blend_dsc.mask_res = lv_draw_mask_apply(blend_dsc.mask_buf, blend_area.x1, h, b
 6160              		.loc 1 1324 21 is_stmt 1 discriminator 3 view .LVU2255
 6161 0410 3946     		mov	r1, r7
 6162 0412 2498     		ldr	r0, [sp, #144]
 6163 0414 FFF7FEFF 		bl	lv_memset_ff
 6164              	.LVL554:
1325:lvgl/src/draw/sw/lv_draw_sw_rect.c ****                     lv_draw_sw_blend(draw_ctx, &blend_dsc);
 6165              		.loc 1 1325 21 discriminator 3 view .LVU2256
1325:lvgl/src/draw/sw/lv_draw_sw_rect.c ****                     lv_draw_sw_blend(draw_ctx, &blend_dsc);
 6166              		.loc 1 1325 42 is_stmt 0 discriminator 3 view .LVU2257
 6167 0418 3B46     		mov	r3, r7
 6168 041a 2A46     		mov	r2, r5
 6169 041c BDF94C10 		ldrsh	r1, [sp, #76]
 6170 0420 2498     		ldr	r0, [sp, #144]
 6171 0422 FFF7FEFF 		bl	lv_draw_mask_apply
 6172              	.LVL555:
1325:lvgl/src/draw/sw/lv_draw_sw_rect.c ****                     lv_draw_sw_blend(draw_ctx, &blend_dsc);
 6173              		.loc 1 1325 40 discriminator 3 view .LVU2258
 6174 0426 8DF89400 		strb	r0, [sp, #148]
1326:lvgl/src/draw/sw/lv_draw_sw_rect.c ****                 }
 6175              		.loc 1 1326 21 is_stmt 1 discriminator 3 view .LVU2259
 6176 042a 21A9     		add	r1, sp, #132
 6177 042c 3046     		mov	r0, r6
 6178 042e FFF7FEFF 		bl	lv_draw_sw_blend
 6179              	.LVL556:
1320:lvgl/src/draw/sw/lv_draw_sw_rect.c ****                     blend_area.y1 = h;
 6180              		.loc 1 1320 63 discriminator 3 view .LVU2260
 6181 0432 0134     		adds	r4, r4, #1
 6182              	.LVL557:
 6183              	.L323:
1320:lvgl/src/draw/sw/lv_draw_sw_rect.c ****                     blend_area.y1 = h;
 6184              		.loc 1 1320 45 discriminator 1 view .LVU2261
1320:lvgl/src/draw/sw/lv_draw_sw_rect.c ****                     blend_area.y1 = h;
 6185              		.loc 1 1320 57 is_stmt 0 discriminator 1 view .LVU2262
 6186 0434 BDF9A630 		ldrsh	r3, [sp, #166]
1320:lvgl/src/draw/sw/lv_draw_sw_rect.c ****                     blend_area.y1 = h;
 6187              		.loc 1 1320 45 discriminator 1 view .LVU2263
 6188 0438 A342     		cmp	r3, r4
 6189 043a E4DA     		bge	.L324
 6190              	.LVL558:
 6191              	.L317:
ARM GAS  /var/folders/21/t9g5rlb91ys800n5npymflf80000gn/T//cca4dfU0.s 			page 174


1332:lvgl/src/draw/sw/lv_draw_sw_rect.c ****         blend_area.x2 = draw_area.x2;
 6192              		.loc 1 1332 9 is_stmt 1 view .LVU2264
1332:lvgl/src/draw/sw/lv_draw_sw_rect.c ****         blend_area.x2 = draw_area.x2;
 6193              		.loc 1 1332 25 is_stmt 0 view .LVU2265
 6194 043c 0F9A     		ldr	r2, [sp, #60]
 6195 043e 0132     		adds	r2, r2, #1
 6196 0440 BDF9A030 		ldrsh	r3, [sp, #160]
 6197 0444 9A42     		cmp	r2, r3
 6198 0446 B8BF     		it	lt
 6199 0448 1A46     		movlt	r2, r3
1332:lvgl/src/draw/sw/lv_draw_sw_rect.c ****         blend_area.x2 = draw_area.x2;
 6200              		.loc 1 1332 23 view .LVU2266
 6201 044a ADF84C20 		strh	r2, [sp, #76]	@ movhi
1333:lvgl/src/draw/sw/lv_draw_sw_rect.c ****         blend_w = lv_area_get_width(&blend_area);
 6202              		.loc 1 1333 9 is_stmt 1 view .LVU2267
1333:lvgl/src/draw/sw/lv_draw_sw_rect.c ****         blend_w = lv_area_get_width(&blend_area);
 6203              		.loc 1 1333 34 is_stmt 0 view .LVU2268
 6204 044e BDF9A430 		ldrsh	r3, [sp, #164]
1333:lvgl/src/draw/sw/lv_draw_sw_rect.c ****         blend_w = lv_area_get_width(&blend_area);
 6205              		.loc 1 1333 23 view .LVU2269
 6206 0452 ADF85030 		strh	r3, [sp, #80]	@ movhi
1334:lvgl/src/draw/sw/lv_draw_sw_rect.c **** 
 6207              		.loc 1 1334 9 is_stmt 1 view .LVU2270
 6208              	.LVL559:
 6209              	.LBB216:
 6210              	.LBI216:
 123:lvgl/src/draw/sw/../../misc/lv_area.h **** {
 6211              		.loc 2 123 26 view .LVU2271
 6212              	.LBB217:
 125:lvgl/src/draw/sw/../../misc/lv_area.h **** }
 6213              		.loc 2 125 5 view .LVU2272
 125:lvgl/src/draw/sw/../../misc/lv_area.h **** }
 6214              		.loc 2 125 31 is_stmt 0 view .LVU2273
 6215 0456 9FB2     		uxth	r7, r3
 6216              	.LVL560:
 125:lvgl/src/draw/sw/../../misc/lv_area.h **** }
 6217              		.loc 2 125 44 view .LVU2274
 6218 0458 92B2     		uxth	r2, r2
 125:lvgl/src/draw/sw/../../misc/lv_area.h **** }
 6219              		.loc 2 125 36 view .LVU2275
 6220 045a BF1A     		subs	r7, r7, r2
 6221 045c BFB2     		uxth	r7, r7
 125:lvgl/src/draw/sw/../../misc/lv_area.h **** }
 6222              		.loc 2 125 49 view .LVU2276
 6223 045e 0137     		adds	r7, r7, #1
 125:lvgl/src/draw/sw/../../misc/lv_area.h **** }
 6224              		.loc 2 125 12 view .LVU2277
 6225 0460 3FB2     		sxth	r7, r7
 6226              	.LVL561:
 125:lvgl/src/draw/sw/../../misc/lv_area.h **** }
 6227              		.loc 2 125 12 view .LVU2278
 6228              	.LBE217:
 6229              	.LBE216:
1336:lvgl/src/draw/sw/lv_draw_sw_rect.c ****             if(right_side || top_side) {
 6230              		.loc 1 1336 9 is_stmt 1 view .LVU2279
1336:lvgl/src/draw/sw/lv_draw_sw_rect.c ****             if(right_side || top_side) {
 6231              		.loc 1 1336 11 is_stmt 0 view .LVU2280
ARM GAS  /var/folders/21/t9g5rlb91ys800n5npymflf80000gn/T//cca4dfU0.s 			page 175


 6232 0462 002F     		cmp	r7, #0
 6233 0464 46DD     		ble	.L316
1337:lvgl/src/draw/sw/lv_draw_sw_rect.c ****                 for(h = draw_area.y1; h < core_area.y1; h++) {
 6234              		.loc 1 1337 13 is_stmt 1 view .LVU2281
1337:lvgl/src/draw/sw/lv_draw_sw_rect.c ****                 for(h = draw_area.y1; h < core_area.y1; h++) {
 6235              		.loc 1 1337 15 is_stmt 0 view .LVU2282
 6236 0466 099B     		ldr	r3, [sp, #36]
 6237 0468 0A9A     		ldr	r2, [sp, #40]
 6238 046a 9342     		cmp	r3, r2
 6239 046c 01DD     		ble	.L325
1337:lvgl/src/draw/sw/lv_draw_sw_rect.c ****                 for(h = draw_area.y1; h < core_area.y1; h++) {
 6240              		.loc 1 1337 27 discriminator 1 view .LVU2283
 6241 046e D345     		cmp	fp, r10
 6242 0470 1BDB     		blt	.L326
 6243              	.L325:
1338:lvgl/src/draw/sw/lv_draw_sw_rect.c ****                     blend_area.y1 = h;
 6244              		.loc 1 1338 17 is_stmt 1 view .LVU2284
1338:lvgl/src/draw/sw/lv_draw_sw_rect.c ****                     blend_area.y1 = h;
 6245              		.loc 1 1338 34 is_stmt 0 view .LVU2285
 6246 0472 BDF9A240 		ldrsh	r4, [sp, #162]
 6247              	.LVL562:
1338:lvgl/src/draw/sw/lv_draw_sw_rect.c ****                     blend_area.y1 = h;
 6248              		.loc 1 1338 17 view .LVU2286
 6249 0476 16E0     		b	.L327
 6250              	.L328:
1339:lvgl/src/draw/sw/lv_draw_sw_rect.c ****                     blend_area.y2 = h;
 6251              		.loc 1 1339 21 is_stmt 1 discriminator 3 view .LVU2287
1339:lvgl/src/draw/sw/lv_draw_sw_rect.c ****                     blend_area.y2 = h;
 6252              		.loc 1 1339 35 is_stmt 0 discriminator 3 view .LVU2288
 6253 0478 25B2     		sxth	r5, r4
 6254 047a ADF84E50 		strh	r5, [sp, #78]	@ movhi
1340:lvgl/src/draw/sw/lv_draw_sw_rect.c **** 
 6255              		.loc 1 1340 21 is_stmt 1 discriminator 3 view .LVU2289
1340:lvgl/src/draw/sw/lv_draw_sw_rect.c **** 
 6256              		.loc 1 1340 35 is_stmt 0 discriminator 3 view .LVU2290
 6257 047e ADF85250 		strh	r5, [sp, #82]	@ movhi
1342:lvgl/src/draw/sw/lv_draw_sw_rect.c ****                     blend_dsc.mask_res = lv_draw_mask_apply(blend_dsc.mask_buf, blend_area.x1, h, b
 6258              		.loc 1 1342 21 is_stmt 1 discriminator 3 view .LVU2291
 6259 0482 3946     		mov	r1, r7
 6260 0484 2498     		ldr	r0, [sp, #144]
 6261 0486 FFF7FEFF 		bl	lv_memset_ff
 6262              	.LVL563:
1343:lvgl/src/draw/sw/lv_draw_sw_rect.c ****                     lv_draw_sw_blend(draw_ctx, &blend_dsc);
 6263              		.loc 1 1343 21 discriminator 3 view .LVU2292
1343:lvgl/src/draw/sw/lv_draw_sw_rect.c ****                     lv_draw_sw_blend(draw_ctx, &blend_dsc);
 6264              		.loc 1 1343 42 is_stmt 0 discriminator 3 view .LVU2293
 6265 048a 3B46     		mov	r3, r7
 6266 048c 2A46     		mov	r2, r5
 6267 048e BDF94C10 		ldrsh	r1, [sp, #76]
 6268 0492 2498     		ldr	r0, [sp, #144]
 6269 0494 FFF7FEFF 		bl	lv_draw_mask_apply
 6270              	.LVL564:
1343:lvgl/src/draw/sw/lv_draw_sw_rect.c ****                     lv_draw_sw_blend(draw_ctx, &blend_dsc);
 6271              		.loc 1 1343 40 discriminator 3 view .LVU2294
 6272 0498 8DF89400 		strb	r0, [sp, #148]
1344:lvgl/src/draw/sw/lv_draw_sw_rect.c ****                 }
 6273              		.loc 1 1344 21 is_stmt 1 discriminator 3 view .LVU2295
ARM GAS  /var/folders/21/t9g5rlb91ys800n5npymflf80000gn/T//cca4dfU0.s 			page 176


 6274 049c 21A9     		add	r1, sp, #132
 6275 049e 3046     		mov	r0, r6
 6276 04a0 FFF7FEFF 		bl	lv_draw_sw_blend
 6277              	.LVL565:
1338:lvgl/src/draw/sw/lv_draw_sw_rect.c ****                     blend_area.y1 = h;
 6278              		.loc 1 1338 58 discriminator 3 view .LVU2296
 6279 04a4 0134     		adds	r4, r4, #1
 6280              	.LVL566:
 6281              	.L327:
1338:lvgl/src/draw/sw/lv_draw_sw_rect.c ****                     blend_area.y1 = h;
 6282              		.loc 1 1338 41 discriminator 1 view .LVU2297
 6283 04a6 A145     		cmp	r9, r4
 6284 04a8 E6DC     		bgt	.L328
 6285              	.LVL567:
 6286              	.L326:
1348:lvgl/src/draw/sw/lv_draw_sw_rect.c ****                 for(h = core_area.y2 + 1; h <= draw_area.y2; h++) {
 6287              		.loc 1 1348 13 view .LVU2298
1348:lvgl/src/draw/sw/lv_draw_sw_rect.c ****                 for(h = core_area.y2 + 1; h <= draw_area.y2; h++) {
 6288              		.loc 1 1348 15 is_stmt 0 view .LVU2299
 6289 04aa 099B     		ldr	r3, [sp, #36]
 6290 04ac 0A9A     		ldr	r2, [sp, #40]
 6291 04ae 9342     		cmp	r3, r2
 6292 04b0 02DD     		ble	.L329
1348:lvgl/src/draw/sw/lv_draw_sw_rect.c ****                 for(h = core_area.y2 + 1; h <= draw_area.y2; h++) {
 6293              		.loc 1 1348 27 discriminator 1 view .LVU2300
 6294 04b2 0B9B     		ldr	r3, [sp, #44]
 6295 04b4 4345     		cmp	r3, r8
 6296 04b6 1DDC     		bgt	.L316
 6297              	.L329:
1349:lvgl/src/draw/sw/lv_draw_sw_rect.c ****                     blend_area.y1 = h;
 6298              		.loc 1 1349 17 is_stmt 1 view .LVU2301
1349:lvgl/src/draw/sw/lv_draw_sw_rect.c ****                     blend_area.y1 = h;
 6299              		.loc 1 1349 23 is_stmt 0 view .LVU2302
 6300 04b8 049C     		ldr	r4, [sp, #16]
 6301 04ba 0134     		adds	r4, r4, #1
 6302              	.LVL568:
1349:lvgl/src/draw/sw/lv_draw_sw_rect.c ****                     blend_area.y1 = h;
 6303              		.loc 1 1349 17 view .LVU2303
 6304 04bc 16E0     		b	.L330
 6305              	.L331:
1350:lvgl/src/draw/sw/lv_draw_sw_rect.c ****                     blend_area.y2 = h;
 6306              		.loc 1 1350 21 is_stmt 1 discriminator 3 view .LVU2304
1350:lvgl/src/draw/sw/lv_draw_sw_rect.c ****                     blend_area.y2 = h;
 6307              		.loc 1 1350 35 is_stmt 0 discriminator 3 view .LVU2305
 6308 04be 25B2     		sxth	r5, r4
 6309 04c0 ADF84E50 		strh	r5, [sp, #78]	@ movhi
1351:lvgl/src/draw/sw/lv_draw_sw_rect.c **** 
 6310              		.loc 1 1351 21 is_stmt 1 discriminator 3 view .LVU2306
1351:lvgl/src/draw/sw/lv_draw_sw_rect.c **** 
 6311              		.loc 1 1351 35 is_stmt 0 discriminator 3 view .LVU2307
 6312 04c4 ADF85250 		strh	r5, [sp, #82]	@ movhi
1353:lvgl/src/draw/sw/lv_draw_sw_rect.c ****                     blend_dsc.mask_res = lv_draw_mask_apply(blend_dsc.mask_buf, blend_area.x1, h, b
 6313              		.loc 1 1353 21 is_stmt 1 discriminator 3 view .LVU2308
 6314 04c8 3946     		mov	r1, r7
 6315 04ca 2498     		ldr	r0, [sp, #144]
 6316 04cc FFF7FEFF 		bl	lv_memset_ff
 6317              	.LVL569:
ARM GAS  /var/folders/21/t9g5rlb91ys800n5npymflf80000gn/T//cca4dfU0.s 			page 177


1354:lvgl/src/draw/sw/lv_draw_sw_rect.c ****                     lv_draw_sw_blend(draw_ctx, &blend_dsc);
 6318              		.loc 1 1354 21 discriminator 3 view .LVU2309
1354:lvgl/src/draw/sw/lv_draw_sw_rect.c ****                     lv_draw_sw_blend(draw_ctx, &blend_dsc);
 6319              		.loc 1 1354 42 is_stmt 0 discriminator 3 view .LVU2310
 6320 04d0 3B46     		mov	r3, r7
 6321 04d2 2A46     		mov	r2, r5
 6322 04d4 BDF94C10 		ldrsh	r1, [sp, #76]
 6323 04d8 2498     		ldr	r0, [sp, #144]
 6324 04da FFF7FEFF 		bl	lv_draw_mask_apply
 6325              	.LVL570:
1354:lvgl/src/draw/sw/lv_draw_sw_rect.c ****                     lv_draw_sw_blend(draw_ctx, &blend_dsc);
 6326              		.loc 1 1354 40 discriminator 3 view .LVU2311
 6327 04de 8DF89400 		strb	r0, [sp, #148]
1355:lvgl/src/draw/sw/lv_draw_sw_rect.c ****                 }
 6328              		.loc 1 1355 21 is_stmt 1 discriminator 3 view .LVU2312
 6329 04e2 21A9     		add	r1, sp, #132
 6330 04e4 3046     		mov	r0, r6
 6331 04e6 FFF7FEFF 		bl	lv_draw_sw_blend
 6332              	.LVL571:
1349:lvgl/src/draw/sw/lv_draw_sw_rect.c ****                     blend_area.y1 = h;
 6333              		.loc 1 1349 63 discriminator 3 view .LVU2313
 6334 04ea 0134     		adds	r4, r4, #1
 6335              	.LVL572:
 6336              	.L330:
1349:lvgl/src/draw/sw/lv_draw_sw_rect.c ****                     blend_area.y1 = h;
 6337              		.loc 1 1349 45 discriminator 1 view .LVU2314
1349:lvgl/src/draw/sw/lv_draw_sw_rect.c ****                     blend_area.y1 = h;
 6338              		.loc 1 1349 57 is_stmt 0 discriminator 1 view .LVU2315
 6339 04ec BDF9A630 		ldrsh	r3, [sp, #166]
1349:lvgl/src/draw/sw/lv_draw_sw_rect.c ****                     blend_area.y1 = h;
 6340              		.loc 1 1349 45 discriminator 1 view .LVU2316
 6341 04f0 A342     		cmp	r3, r4
 6342 04f2 E4DA     		bge	.L331
 6343              	.LVL573:
 6344              	.L316:
1361:lvgl/src/draw/sw/lv_draw_sw_rect.c ****     lv_draw_mask_remove_id(mask_rin_id);
 6345              		.loc 1 1361 5 is_stmt 1 discriminator 1 view .LVU2317
 6346 04f4 15A8     		add	r0, sp, #84
 6347 04f6 FFF7FEFF 		bl	lv_draw_mask_free_param
 6348              	.LVL574:
1362:lvgl/src/draw/sw/lv_draw_sw_rect.c ****     lv_draw_mask_free_param(&mask_rout_param);
 6349              		.loc 1 1362 5 discriminator 1 view .LVU2318
 6350 04fa 0C98     		ldr	r0, [sp, #48]
 6351 04fc FFF7FEFF 		bl	lv_draw_mask_remove_id
 6352              	.LVL575:
1363:lvgl/src/draw/sw/lv_draw_sw_rect.c ****     lv_draw_mask_remove_id(mask_rout_id);
 6353              		.loc 1 1363 5 discriminator 1 view .LVU2319
 6354 0500 1BA8     		add	r0, sp, #108
 6355 0502 FFF7FEFF 		bl	lv_draw_mask_free_param
 6356              	.LVL576:
1364:lvgl/src/draw/sw/lv_draw_sw_rect.c ****     lv_mem_buf_release(blend_dsc.mask_buf);
 6357              		.loc 1 1364 5 discriminator 1 view .LVU2320
 6358 0506 0D98     		ldr	r0, [sp, #52]
 6359 0508 FFF7FEFF 		bl	lv_draw_mask_remove_id
 6360              	.LVL577:
1365:lvgl/src/draw/sw/lv_draw_sw_rect.c **** 
 6361              		.loc 1 1365 5 discriminator 1 view .LVU2321
ARM GAS  /var/folders/21/t9g5rlb91ys800n5npymflf80000gn/T//cca4dfU0.s 			page 178


 6362 050c 2498     		ldr	r0, [sp, #144]
 6363 050e FFF7FEFF 		bl	lv_mem_buf_release
 6364              	.LVL578:
 6365 0512 90E5     		b	.L293
 6366              		.cfi_endproc
 6367              	.LFE170:
 6369              		.section	.text.draw_border,"ax",%progbits
 6370              		.align	1
 6371              		.syntax unified
 6372              		.thumb
 6373              		.thumb_func
 6375              	draw_border:
 6376              	.LVL579:
 6377              	.LFB165:
 399:lvgl/src/draw/sw/lv_draw_sw_rect.c ****     if(dsc->border_opa <= LV_OPA_MIN) return;
 6378              		.loc 1 399 1 view -0
 6379              		.cfi_startproc
 6380              		@ args = 0, pretend = 0, frame = 16
 6381              		@ frame_needed = 0, uses_anonymous_args = 0
 399:lvgl/src/draw/sw/lv_draw_sw_rect.c ****     if(dsc->border_opa <= LV_OPA_MIN) return;
 6382              		.loc 1 399 1 is_stmt 0 view .LVU2323
 6383 0000 2DE9F04F 		push	{r4, r5, r6, r7, r8, r9, r10, fp, lr}
 6384              	.LCFI30:
 6385              		.cfi_def_cfa_offset 36
 6386              		.cfi_offset 4, -36
 6387              		.cfi_offset 5, -32
 6388              		.cfi_offset 6, -28
 6389              		.cfi_offset 7, -24
 6390              		.cfi_offset 8, -20
 6391              		.cfi_offset 9, -16
 6392              		.cfi_offset 10, -12
 6393              		.cfi_offset 11, -8
 6394              		.cfi_offset 14, -4
 6395 0004 89B0     		sub	sp, sp, #36
 6396              	.LCFI31:
 6397              		.cfi_def_cfa_offset 72
 6398 0006 0490     		str	r0, [sp, #16]
 6399 0008 0846     		mov	r0, r1
 6400              	.LVL580:
 400:lvgl/src/draw/sw/lv_draw_sw_rect.c ****     if(dsc->border_width == 0) return;
 6401              		.loc 1 400 5 is_stmt 1 view .LVU2324
 400:lvgl/src/draw/sw/lv_draw_sw_rect.c ****     if(dsc->border_width == 0) return;
 6402              		.loc 1 400 11 is_stmt 0 view .LVU2325
 6403 000a 91F82240 		ldrb	r4, [r1, #34]	@ zero_extendqisi2
 400:lvgl/src/draw/sw/lv_draw_sw_rect.c ****     if(dsc->border_width == 0) return;
 6404              		.loc 1 400 7 view .LVU2326
 6405 000e 022C     		cmp	r4, #2
 6406 0010 6FD9     		bls	.L347
 6407 0012 1146     		mov	r1, r2
 6408              	.LVL581:
 401:lvgl/src/draw/sw/lv_draw_sw_rect.c ****     if(dsc->border_side == LV_BORDER_SIDE_NONE) return;
 6409              		.loc 1 401 5 is_stmt 1 view .LVU2327
 401:lvgl/src/draw/sw/lv_draw_sw_rect.c ****     if(dsc->border_side == LV_BORDER_SIDE_NONE) return;
 6410              		.loc 1 401 11 is_stmt 0 view .LVU2328
 6411 0014 B0F92020 		ldrsh	r2, [r0, #32]
 6412              	.LVL582:
 401:lvgl/src/draw/sw/lv_draw_sw_rect.c ****     if(dsc->border_side == LV_BORDER_SIDE_NONE) return;
ARM GAS  /var/folders/21/t9g5rlb91ys800n5npymflf80000gn/T//cca4dfU0.s 			page 179


 6413              		.loc 1 401 7 view .LVU2329
 6414 0018 002A     		cmp	r2, #0
 6415 001a 6AD0     		beq	.L347
 402:lvgl/src/draw/sw/lv_draw_sw_rect.c ****     if(dsc->border_post) return;
 6416              		.loc 1 402 5 is_stmt 1 view .LVU2330
 402:lvgl/src/draw/sw/lv_draw_sw_rect.c ****     if(dsc->border_post) return;
 6417              		.loc 1 402 25 is_stmt 0 view .LVU2331
 6418 001c 90F82330 		ldrb	r3, [r0, #35]	@ zero_extendqisi2
 402:lvgl/src/draw/sw/lv_draw_sw_rect.c ****     if(dsc->border_post) return;
 6419              		.loc 1 402 7 view .LVU2332
 6420 0020 13F03E0F 		tst	r3, #62
 6421 0024 65D0     		beq	.L347
 403:lvgl/src/draw/sw/lv_draw_sw_rect.c **** 
 6422              		.loc 1 403 5 is_stmt 1 view .LVU2333
 403:lvgl/src/draw/sw/lv_draw_sw_rect.c **** 
 6423              		.loc 1 403 7 is_stmt 0 view .LVU2334
 6424 0026 13F0010F 		tst	r3, #1
 6425 002a 62D1     		bne	.L347
 405:lvgl/src/draw/sw/lv_draw_sw_rect.c ****     int32_t coords_h = lv_area_get_height(coords);
 6426              		.loc 1 405 5 is_stmt 1 view .LVU2335
 6427              	.LVL583:
 6428              	.LBB218:
 6429              	.LBI218:
 123:lvgl/src/draw/sw/../../misc/lv_area.h **** {
 6430              		.loc 2 123 26 view .LVU2336
 6431              	.LBB219:
 125:lvgl/src/draw/sw/../../misc/lv_area.h **** }
 6432              		.loc 2 125 5 view .LVU2337
 125:lvgl/src/draw/sw/../../misc/lv_area.h **** }
 6433              		.loc 2 125 31 is_stmt 0 view .LVU2338
 6434 002c B1F90480 		ldrsh	r8, [r1, #4]
 6435 0030 1FFA88F3 		uxth	r3, r8
 6436 0034 0593     		str	r3, [sp, #20]
 125:lvgl/src/draw/sw/../../misc/lv_area.h **** }
 6437              		.loc 2 125 44 view .LVU2339
 6438 0036 B1F900A0 		ldrsh	r10, [r1]
 6439 003a 1FFA8AF7 		uxth	r7, r10
 125:lvgl/src/draw/sw/../../misc/lv_area.h **** }
 6440              		.loc 2 125 36 view .LVU2340
 6441 003e DB1B     		subs	r3, r3, r7
 6442 0040 9BB2     		uxth	r3, r3
 125:lvgl/src/draw/sw/../../misc/lv_area.h **** }
 6443              		.loc 2 125 49 view .LVU2341
 6444 0042 0133     		adds	r3, r3, #1
 125:lvgl/src/draw/sw/../../misc/lv_area.h **** }
 6445              		.loc 2 125 12 view .LVU2342
 6446 0044 1BB2     		sxth	r3, r3
 6447              	.LVL584:
 125:lvgl/src/draw/sw/../../misc/lv_area.h **** }
 6448              		.loc 2 125 12 view .LVU2343
 6449              	.LBE219:
 6450              	.LBE218:
 406:lvgl/src/draw/sw/lv_draw_sw_rect.c ****     int32_t rout = dsc->radius;
 6451              		.loc 1 406 5 is_stmt 1 view .LVU2344
 6452              	.LBB220:
 6453              	.LBI220:
 133:lvgl/src/draw/sw/../../misc/lv_area.h **** {
ARM GAS  /var/folders/21/t9g5rlb91ys800n5npymflf80000gn/T//cca4dfU0.s 			page 180


 6454              		.loc 2 133 26 view .LVU2345
 6455              	.LBB221:
 6456              		.loc 2 135 5 view .LVU2346
 6457              		.loc 2 135 31 is_stmt 0 view .LVU2347
 6458 0046 B1F906B0 		ldrsh	fp, [r1, #6]
 6459 004a 1FFA8BFE 		uxth	lr, fp
 6460              		.loc 2 135 44 view .LVU2348
 6461 004e B1F90290 		ldrsh	r9, [r1, #2]
 6462 0052 1FFA89F6 		uxth	r6, r9
 6463              		.loc 2 135 36 view .LVU2349
 6464 0056 AEEB060C 		sub	ip, lr, r6
 6465 005a 1FFA8CFC 		uxth	ip, ip
 6466              		.loc 2 135 49 view .LVU2350
 6467 005e 0CF1010C 		add	ip, ip, #1
 6468              		.loc 2 135 12 view .LVU2351
 6469 0062 0FFA8CFC 		sxth	ip, ip
 6470              	.LVL585:
 6471              		.loc 2 135 12 view .LVU2352
 6472              	.LBE221:
 6473              	.LBE220:
 407:lvgl/src/draw/sw/lv_draw_sw_rect.c ****     int32_t short_side = LV_MIN(coords_w, coords_h);
 6474              		.loc 1 407 5 is_stmt 1 view .LVU2353
 407:lvgl/src/draw/sw/lv_draw_sw_rect.c ****     int32_t short_side = LV_MIN(coords_w, coords_h);
 6475              		.loc 1 407 23 is_stmt 0 view .LVU2354
 6476 0066 B0F90050 		ldrsh	r5, [r0]
 6477              	.LVL586:
 408:lvgl/src/draw/sw/lv_draw_sw_rect.c ****     if(rout > short_side >> 1) rout = short_side >> 1;
 6478              		.loc 1 408 5 is_stmt 1 view .LVU2355
 408:lvgl/src/draw/sw/lv_draw_sw_rect.c ****     if(rout > short_side >> 1) rout = short_side >> 1;
 6479              		.loc 1 408 13 is_stmt 0 view .LVU2356
 6480 006a 9C45     		cmp	ip, r3
 6481 006c A8BF     		it	ge
 6482 006e 9C46     		movge	ip, r3
 6483              	.LVL587:
 409:lvgl/src/draw/sw/lv_draw_sw_rect.c **** 
 6484              		.loc 1 409 5 is_stmt 1 view .LVU2357
 409:lvgl/src/draw/sw/lv_draw_sw_rect.c **** 
 6485              		.loc 1 409 26 is_stmt 0 view .LVU2358
 6486 0070 4FEA6C03 		asr	r3, ip, #1
 6487              	.LVL588:
 409:lvgl/src/draw/sw/lv_draw_sw_rect.c **** 
 6488              		.loc 1 409 7 view .LVU2359
 6489 0074 B5EB6C0F 		cmp	r5, ip, asr #1
 6490 0078 00DC     		bgt	.L349
 407:lvgl/src/draw/sw/lv_draw_sw_rect.c ****     int32_t short_side = LV_MIN(coords_w, coords_h);
 6491              		.loc 1 407 13 view .LVU2360
 6492 007a 2B46     		mov	r3, r5
 6493              	.L349:
 6494              	.LVL589:
 412:lvgl/src/draw/sw/lv_draw_sw_rect.c ****     lv_area_copy(&area_inner, coords);
 6495              		.loc 1 412 5 is_stmt 1 view .LVU2361
 413:lvgl/src/draw/sw/lv_draw_sw_rect.c ****     area_inner.x1 += ((dsc->border_side & LV_BORDER_SIDE_LEFT) ? dsc->border_width : - (dsc->border
 6496              		.loc 1 413 5 view .LVU2362
 6497              	.LBB222:
 6498              	.LBI222:
 110:lvgl/src/draw/sw/../../misc/lv_area.h **** {
 6499              		.loc 2 110 20 view .LVU2363
ARM GAS  /var/folders/21/t9g5rlb91ys800n5npymflf80000gn/T//cca4dfU0.s 			page 181


 6500              	.LBB223:
 112:lvgl/src/draw/sw/../../misc/lv_area.h ****     dest->y1 = src->y1;
 6501              		.loc 2 112 5 view .LVU2364
 112:lvgl/src/draw/sw/../../misc/lv_area.h ****     dest->y1 = src->y1;
 6502              		.loc 2 112 14 is_stmt 0 view .LVU2365
 6503 007c ADF818A0 		strh	r10, [sp, #24]	@ movhi
 113:lvgl/src/draw/sw/../../misc/lv_area.h ****     dest->x2 = src->x2;
 6504              		.loc 2 113 5 is_stmt 1 view .LVU2366
 113:lvgl/src/draw/sw/../../misc/lv_area.h ****     dest->x2 = src->x2;
 6505              		.loc 2 113 14 is_stmt 0 view .LVU2367
 6506 0080 ADF81A90 		strh	r9, [sp, #26]	@ movhi
 114:lvgl/src/draw/sw/../../misc/lv_area.h ****     dest->y2 = src->y2;
 6507              		.loc 2 114 5 is_stmt 1 view .LVU2368
 114:lvgl/src/draw/sw/../../misc/lv_area.h ****     dest->y2 = src->y2;
 6508              		.loc 2 114 14 is_stmt 0 view .LVU2369
 6509 0084 ADF81C80 		strh	r8, [sp, #28]	@ movhi
 115:lvgl/src/draw/sw/../../misc/lv_area.h **** }
 6510              		.loc 2 115 5 is_stmt 1 view .LVU2370
 115:lvgl/src/draw/sw/../../misc/lv_area.h **** }
 6511              		.loc 2 115 14 is_stmt 0 view .LVU2371
 6512 0088 ADF81EB0 		strh	fp, [sp, #30]	@ movhi
 6513              	.LVL590:
 115:lvgl/src/draw/sw/../../misc/lv_area.h **** }
 6514              		.loc 2 115 14 view .LVU2372
 6515              	.LBE223:
 6516              	.LBE222:
 414:lvgl/src/draw/sw/lv_draw_sw_rect.c ****     area_inner.x2 -= ((dsc->border_side & LV_BORDER_SIDE_RIGHT) ? dsc->border_width : - (dsc->borde
 6517              		.loc 1 414 5 is_stmt 1 view .LVU2373
 414:lvgl/src/draw/sw/lv_draw_sw_rect.c ****     area_inner.x2 -= ((dsc->border_side & LV_BORDER_SIDE_RIGHT) ? dsc->border_width : - (dsc->borde
 6518              		.loc 1 414 27 is_stmt 0 view .LVU2374
 6519 008c 90F82380 		ldrb	r8, [r0, #35]	@ zero_extendqisi2
 6520 0090 C8F3440C 		ubfx	ip, r8, #1, #5
 6521              	.LVL591:
 414:lvgl/src/draw/sw/lv_draw_sw_rect.c ****     area_inner.x2 -= ((dsc->border_side & LV_BORDER_SIDE_RIGHT) ? dsc->border_width : - (dsc->borde
 6522              		.loc 1 414 19 view .LVU2375
 6523 0094 18F0080F 		tst	r8, #8
 6524 0098 2ED0     		beq	.L350
 414:lvgl/src/draw/sw/lv_draw_sw_rect.c ****     area_inner.x2 -= ((dsc->border_side & LV_BORDER_SIDE_RIGHT) ? dsc->border_width : - (dsc->borde
 6525              		.loc 1 414 19 discriminator 1 view .LVU2376
 6526 009a 1FFA82F8 		uxth	r8, r2
 6527              	.L351:
 414:lvgl/src/draw/sw/lv_draw_sw_rect.c ****     area_inner.x2 -= ((dsc->border_side & LV_BORDER_SIDE_RIGHT) ? dsc->border_width : - (dsc->borde
 6528              		.loc 1 414 19 discriminator 4 view .LVU2377
 6529 009e 4744     		add	r7, r7, r8
 6530              	.LVL592:
 414:lvgl/src/draw/sw/lv_draw_sw_rect.c ****     area_inner.x2 -= ((dsc->border_side & LV_BORDER_SIDE_RIGHT) ? dsc->border_width : - (dsc->borde
 6531              		.loc 1 414 19 discriminator 4 view .LVU2378
 6532 00a0 ADF81870 		strh	r7, [sp, #24]	@ movhi
 415:lvgl/src/draw/sw/lv_draw_sw_rect.c ****     area_inner.y1 += ((dsc->border_side & LV_BORDER_SIDE_TOP) ? dsc->border_width : - (dsc->border_
 6533              		.loc 1 415 5 is_stmt 1 discriminator 4 view .LVU2379
 415:lvgl/src/draw/sw/lv_draw_sw_rect.c ****     area_inner.y1 += ((dsc->border_side & LV_BORDER_SIDE_TOP) ? dsc->border_width : - (dsc->border_
 6534              		.loc 1 415 19 is_stmt 0 discriminator 4 view .LVU2380
 6535 00a4 1CF0080F 		tst	ip, #8
 6536 00a8 2FD0     		beq	.L352
 415:lvgl/src/draw/sw/lv_draw_sw_rect.c ****     area_inner.y1 += ((dsc->border_side & LV_BORDER_SIDE_TOP) ? dsc->border_width : - (dsc->border_
 6537              		.loc 1 415 19 discriminator 1 view .LVU2381
 6538 00aa 97B2     		uxth	r7, r2
ARM GAS  /var/folders/21/t9g5rlb91ys800n5npymflf80000gn/T//cca4dfU0.s 			page 182


 6539              	.L353:
 415:lvgl/src/draw/sw/lv_draw_sw_rect.c ****     area_inner.y1 += ((dsc->border_side & LV_BORDER_SIDE_TOP) ? dsc->border_width : - (dsc->border_
 6540              		.loc 1 415 19 discriminator 4 view .LVU2382
 6541 00ac 059D     		ldr	r5, [sp, #20]
 6542 00ae ED1B     		subs	r5, r5, r7
 6543 00b0 ADF81C50 		strh	r5, [sp, #28]	@ movhi
 416:lvgl/src/draw/sw/lv_draw_sw_rect.c ****     area_inner.y2 -= ((dsc->border_side & LV_BORDER_SIDE_BOTTOM) ? dsc->border_width : - (dsc->bord
 6544              		.loc 1 416 5 is_stmt 1 discriminator 4 view .LVU2383
 416:lvgl/src/draw/sw/lv_draw_sw_rect.c ****     area_inner.y2 -= ((dsc->border_side & LV_BORDER_SIDE_BOTTOM) ? dsc->border_width : - (dsc->bord
 6545              		.loc 1 416 19 is_stmt 0 discriminator 4 view .LVU2384
 6546 00b4 1CF0020F 		tst	ip, #2
 6547 00b8 2DD0     		beq	.L354
 416:lvgl/src/draw/sw/lv_draw_sw_rect.c ****     area_inner.y2 -= ((dsc->border_side & LV_BORDER_SIDE_BOTTOM) ? dsc->border_width : - (dsc->bord
 6548              		.loc 1 416 19 discriminator 1 view .LVU2385
 6549 00ba 95B2     		uxth	r5, r2
 6550              	.L355:
 416:lvgl/src/draw/sw/lv_draw_sw_rect.c ****     area_inner.y2 -= ((dsc->border_side & LV_BORDER_SIDE_BOTTOM) ? dsc->border_width : - (dsc->bord
 6551              		.loc 1 416 19 discriminator 4 view .LVU2386
 6552 00bc 3544     		add	r5, r5, r6
 6553 00be ADF81A50 		strh	r5, [sp, #26]	@ movhi
 417:lvgl/src/draw/sw/lv_draw_sw_rect.c **** 
 6554              		.loc 1 417 5 is_stmt 1 discriminator 4 view .LVU2387
 417:lvgl/src/draw/sw/lv_draw_sw_rect.c **** 
 6555              		.loc 1 417 19 is_stmt 0 discriminator 4 view .LVU2388
 6556 00c2 1CF0010F 		tst	ip, #1
 6557 00c6 2CD0     		beq	.L356
 417:lvgl/src/draw/sw/lv_draw_sw_rect.c **** 
 6558              		.loc 1 417 19 discriminator 1 view .LVU2389
 6559 00c8 95B2     		uxth	r5, r2
 6560              	.L357:
 417:lvgl/src/draw/sw/lv_draw_sw_rect.c **** 
 6561              		.loc 1 417 19 discriminator 4 view .LVU2390
 6562 00ca AEEB050E 		sub	lr, lr, r5
 6563              	.LVL593:
 417:lvgl/src/draw/sw/lv_draw_sw_rect.c **** 
 6564              		.loc 1 417 19 discriminator 4 view .LVU2391
 6565 00ce ADF81EE0 		strh	lr, [sp, #30]	@ movhi
 419:lvgl/src/draw/sw/lv_draw_sw_rect.c ****     if(rin < 0) rin = 0;
 6566              		.loc 1 419 5 is_stmt 1 discriminator 4 view .LVU2392
 419:lvgl/src/draw/sw/lv_draw_sw_rect.c ****     if(rin < 0) rin = 0;
 6567              		.loc 1 419 32 is_stmt 0 discriminator 4 view .LVU2393
 6568 00d2 92B2     		uxth	r2, r2
 419:lvgl/src/draw/sw/lv_draw_sw_rect.c ****     if(rin < 0) rin = 0;
 6569              		.loc 1 419 27 discriminator 4 view .LVU2394
 6570 00d4 9A1A     		subs	r2, r3, r2
 419:lvgl/src/draw/sw/lv_draw_sw_rect.c ****     if(rin < 0) rin = 0;
 6571              		.loc 1 419 16 discriminator 4 view .LVU2395
 6572 00d6 12B2     		sxth	r2, r2
 6573              	.LVL594:
 420:lvgl/src/draw/sw/lv_draw_sw_rect.c **** 
 6574              		.loc 1 420 5 is_stmt 1 discriminator 4 view .LVU2396
 420:lvgl/src/draw/sw/lv_draw_sw_rect.c **** 
 6575              		.loc 1 420 7 is_stmt 0 discriminator 4 view .LVU2397
 6576 00d8 002A     		cmp	r2, #0
 6577 00da 28DB     		blt	.L362
 6578              	.LVL595:
 6579              	.L358:
ARM GAS  /var/folders/21/t9g5rlb91ys800n5npymflf80000gn/T//cca4dfU0.s 			page 183


 422:lvgl/src/draw/sw/lv_draw_sw_rect.c **** 
 6580              		.loc 1 422 5 is_stmt 1 view .LVU2398
 422:lvgl/src/draw/sw/lv_draw_sw_rect.c **** 
 6581              		.loc 1 422 106 is_stmt 0 view .LVU2399
 6582 00dc 8578     		ldrb	r5, [r0, #2]	@ zero_extendqisi2
 422:lvgl/src/draw/sw/lv_draw_sw_rect.c **** 
 6583              		.loc 1 422 5 view .LVU2400
 6584 00de 0395     		str	r5, [sp, #12]
 6585 00e0 0294     		str	r4, [sp, #8]
 6586 00e2 C08B     		ldrh	r0, [r0, #30]
 6587              	.LVL596:
 422:lvgl/src/draw/sw/lv_draw_sw_rect.c **** 
 6588              		.loc 1 422 5 view .LVU2401
 6589 00e4 ADF80400 		strh	r0, [sp, #4]	@ movhi
 6590 00e8 0092     		str	r2, [sp]
 6591 00ea 06AA     		add	r2, sp, #24
 6592              	.LVL597:
 422:lvgl/src/draw/sw/lv_draw_sw_rect.c **** 
 6593              		.loc 1 422 5 view .LVU2402
 6594 00ec 0498     		ldr	r0, [sp, #16]
 6595 00ee FFF7FEFF 		bl	draw_border_generic
 6596              	.LVL598:
 6597              	.L347:
 424:lvgl/src/draw/sw/lv_draw_sw_rect.c **** 
 6598              		.loc 1 424 1 view .LVU2403
 6599 00f2 09B0     		add	sp, sp, #36
 6600              	.LCFI32:
 6601              		.cfi_remember_state
 6602              		.cfi_def_cfa_offset 36
 6603              		@ sp needed
 6604 00f4 BDE8F08F 		pop	{r4, r5, r6, r7, r8, r9, r10, fp, pc}
 6605              	.LVL599:
 6606              	.L350:
 6607              	.LCFI33:
 6608              		.cfi_restore_state
 414:lvgl/src/draw/sw/lv_draw_sw_rect.c ****     area_inner.x2 -= ((dsc->border_side & LV_BORDER_SIDE_RIGHT) ? dsc->border_width : - (dsc->borde
 6609              		.loc 1 414 107 discriminator 2 view .LVU2404
 6610 00f8 13FA82F8 		uxtah	r8, r3, r2
 6611 00fc 1FFA88F8 		uxth	r8, r8
 414:lvgl/src/draw/sw/lv_draw_sw_rect.c ****     area_inner.x2 -= ((dsc->border_side & LV_BORDER_SIDE_RIGHT) ? dsc->border_width : - (dsc->borde
 6612              		.loc 1 414 19 discriminator 2 view .LVU2405
 6613 0100 C8F10008 		rsb	r8, r8, #0
 6614 0104 1FFA88F8 		uxth	r8, r8
 6615 0108 C9E7     		b	.L351
 6616              	.LVL600:
 6617              	.L352:
 415:lvgl/src/draw/sw/lv_draw_sw_rect.c ****     area_inner.y1 += ((dsc->border_side & LV_BORDER_SIDE_TOP) ? dsc->border_width : - (dsc->border_
 6618              		.loc 1 415 108 discriminator 2 view .LVU2406
 6619 010a 13FA82F7 		uxtah	r7, r3, r2
 6620 010e BFB2     		uxth	r7, r7
 415:lvgl/src/draw/sw/lv_draw_sw_rect.c ****     area_inner.y1 += ((dsc->border_side & LV_BORDER_SIDE_TOP) ? dsc->border_width : - (dsc->border_
 6621              		.loc 1 415 19 discriminator 2 view .LVU2407
 6622 0110 7F42     		rsbs	r7, r7, #0
 6623 0112 BFB2     		uxth	r7, r7
 6624 0114 CAE7     		b	.L353
 6625              	.L354:
 416:lvgl/src/draw/sw/lv_draw_sw_rect.c ****     area_inner.y2 -= ((dsc->border_side & LV_BORDER_SIDE_BOTTOM) ? dsc->border_width : - (dsc->bord
ARM GAS  /var/folders/21/t9g5rlb91ys800n5npymflf80000gn/T//cca4dfU0.s 			page 184


 6626              		.loc 1 416 106 discriminator 2 view .LVU2408
 6627 0116 13FA82F5 		uxtah	r5, r3, r2
 6628 011a ADB2     		uxth	r5, r5
 416:lvgl/src/draw/sw/lv_draw_sw_rect.c ****     area_inner.y2 -= ((dsc->border_side & LV_BORDER_SIDE_BOTTOM) ? dsc->border_width : - (dsc->bord
 6629              		.loc 1 416 19 discriminator 2 view .LVU2409
 6630 011c 6D42     		rsbs	r5, r5, #0
 6631 011e ADB2     		uxth	r5, r5
 6632 0120 CCE7     		b	.L355
 6633              	.L356:
 417:lvgl/src/draw/sw/lv_draw_sw_rect.c **** 
 6634              		.loc 1 417 109 discriminator 2 view .LVU2410
 6635 0122 13FA82F5 		uxtah	r5, r3, r2
 6636 0126 ADB2     		uxth	r5, r5
 417:lvgl/src/draw/sw/lv_draw_sw_rect.c **** 
 6637              		.loc 1 417 19 discriminator 2 view .LVU2411
 6638 0128 6D42     		rsbs	r5, r5, #0
 6639 012a ADB2     		uxth	r5, r5
 6640 012c CDE7     		b	.L357
 6641              	.LVL601:
 6642              	.L362:
 420:lvgl/src/draw/sw/lv_draw_sw_rect.c **** 
 6643              		.loc 1 420 21 view .LVU2412
 6644 012e 0022     		movs	r2, #0
 6645              	.LVL602:
 420:lvgl/src/draw/sw/lv_draw_sw_rect.c **** 
 6646              		.loc 1 420 21 view .LVU2413
 6647 0130 D4E7     		b	.L358
 6648              		.cfi_endproc
 6649              	.LFE165:
 6651              		.section	.text.draw_outline,"ax",%progbits
 6652              		.align	1
 6653              		.syntax unified
 6654              		.thumb
 6655              		.thumb_func
 6657              	draw_outline:
 6658              	.LVL603:
 6659              	.LFB169:
1107:lvgl/src/draw/sw/lv_draw_sw_rect.c ****     if(dsc->outline_opa <= LV_OPA_MIN) return;
 6660              		.loc 1 1107 1 is_stmt 1 view -0
 6661              		.cfi_startproc
 6662              		@ args = 0, pretend = 0, frame = 24
 6663              		@ frame_needed = 0, uses_anonymous_args = 0
1107:lvgl/src/draw/sw/lv_draw_sw_rect.c ****     if(dsc->outline_opa <= LV_OPA_MIN) return;
 6664              		.loc 1 1107 1 is_stmt 0 view .LVU2415
 6665 0000 2DE9F04F 		push	{r4, r5, r6, r7, r8, r9, r10, fp, lr}
 6666              	.LCFI34:
 6667              		.cfi_def_cfa_offset 36
 6668              		.cfi_offset 4, -36
 6669              		.cfi_offset 5, -32
 6670              		.cfi_offset 6, -28
 6671              		.cfi_offset 7, -24
 6672              		.cfi_offset 8, -20
 6673              		.cfi_offset 9, -16
 6674              		.cfi_offset 10, -12
 6675              		.cfi_offset 11, -8
 6676              		.cfi_offset 14, -4
 6677 0004 8BB0     		sub	sp, sp, #44
ARM GAS  /var/folders/21/t9g5rlb91ys800n5npymflf80000gn/T//cca4dfU0.s 			page 185


 6678              	.LCFI35:
 6679              		.cfi_def_cfa_offset 80
 6680 0006 0590     		str	r0, [sp, #20]
1108:lvgl/src/draw/sw/lv_draw_sw_rect.c ****     if(dsc->outline_width == 0) return;
 6681              		.loc 1 1108 5 is_stmt 1 view .LVU2416
1108:lvgl/src/draw/sw/lv_draw_sw_rect.c ****     if(dsc->outline_width == 0) return;
 6682              		.loc 1 1108 11 is_stmt 0 view .LVU2417
 6683 0008 91F82A90 		ldrb	r9, [r1, #42]	@ zero_extendqisi2
1108:lvgl/src/draw/sw/lv_draw_sw_rect.c ****     if(dsc->outline_width == 0) return;
 6684              		.loc 1 1108 7 view .LVU2418
 6685 000c B9F1020F 		cmp	r9, #2
 6686 0010 72D9     		bls	.L363
1109:lvgl/src/draw/sw/lv_draw_sw_rect.c **** 
 6687              		.loc 1 1109 5 is_stmt 1 view .LVU2419
1109:lvgl/src/draw/sw/lv_draw_sw_rect.c **** 
 6688              		.loc 1 1109 11 is_stmt 0 view .LVU2420
 6689 0012 B1F92630 		ldrsh	r3, [r1, #38]
1109:lvgl/src/draw/sw/lv_draw_sw_rect.c **** 
 6690              		.loc 1 1109 7 view .LVU2421
 6691 0016 002B     		cmp	r3, #0
 6692 0018 6ED0     		beq	.L363
1111:lvgl/src/draw/sw/lv_draw_sw_rect.c **** 
 6693              		.loc 1 1111 5 is_stmt 1 view .LVU2422
 6694              	.LVL604:
1113:lvgl/src/draw/sw/lv_draw_sw_rect.c **** 
 6695              		.loc 1 1113 5 view .LVU2423
1116:lvgl/src/draw/sw/lv_draw_sw_rect.c ****     lv_area_copy(&area_inner, coords);
 6696              		.loc 1 1116 5 view .LVU2424
1117:lvgl/src/draw/sw/lv_draw_sw_rect.c **** 
 6697              		.loc 1 1117 5 view .LVU2425
 6698              	.LBB224:
 6699              	.LBI224:
 110:lvgl/src/draw/sw/../../misc/lv_area.h **** {
 6700              		.loc 2 110 20 view .LVU2426
 6701              	.LBB225:
 112:lvgl/src/draw/sw/../../misc/lv_area.h ****     dest->y1 = src->y1;
 6702              		.loc 2 112 5 view .LVU2427
 112:lvgl/src/draw/sw/../../misc/lv_area.h ****     dest->y1 = src->y1;
 6703              		.loc 2 112 19 is_stmt 0 view .LVU2428
 6704 001a B2F90050 		ldrsh	r5, [r2]
 112:lvgl/src/draw/sw/../../misc/lv_area.h ****     dest->y1 = src->y1;
 6705              		.loc 2 112 14 view .LVU2429
 6706 001e ADF82050 		strh	r5, [sp, #32]	@ movhi
 113:lvgl/src/draw/sw/../../misc/lv_area.h ****     dest->x2 = src->x2;
 6707              		.loc 2 113 5 is_stmt 1 view .LVU2430
 113:lvgl/src/draw/sw/../../misc/lv_area.h ****     dest->x2 = src->x2;
 6708              		.loc 2 113 19 is_stmt 0 view .LVU2431
 6709 0022 B2F90260 		ldrsh	r6, [r2, #2]
 113:lvgl/src/draw/sw/../../misc/lv_area.h ****     dest->x2 = src->x2;
 6710              		.loc 2 113 14 view .LVU2432
 6711 0026 ADF82260 		strh	r6, [sp, #34]	@ movhi
 114:lvgl/src/draw/sw/../../misc/lv_area.h ****     dest->y2 = src->y2;
 6712              		.loc 2 114 5 is_stmt 1 view .LVU2433
 114:lvgl/src/draw/sw/../../misc/lv_area.h ****     dest->y2 = src->y2;
 6713              		.loc 2 114 19 is_stmt 0 view .LVU2434
 6714 002a B2F90440 		ldrsh	r4, [r2, #4]
 114:lvgl/src/draw/sw/../../misc/lv_area.h ****     dest->y2 = src->y2;
ARM GAS  /var/folders/21/t9g5rlb91ys800n5npymflf80000gn/T//cca4dfU0.s 			page 186


 6715              		.loc 2 114 14 view .LVU2435
 6716 002e ADF82440 		strh	r4, [sp, #36]	@ movhi
 115:lvgl/src/draw/sw/../../misc/lv_area.h **** }
 6717              		.loc 2 115 5 is_stmt 1 view .LVU2436
 115:lvgl/src/draw/sw/../../misc/lv_area.h **** }
 6718              		.loc 2 115 19 is_stmt 0 view .LVU2437
 6719 0032 B2F906E0 		ldrsh	lr, [r2, #6]
 115:lvgl/src/draw/sw/../../misc/lv_area.h **** }
 6720              		.loc 2 115 14 view .LVU2438
 6721 0036 ADF826E0 		strh	lr, [sp, #38]	@ movhi
 6722              	.LVL605:
 115:lvgl/src/draw/sw/../../misc/lv_area.h **** }
 6723              		.loc 2 115 14 view .LVU2439
 6724              	.LBE225:
 6725              	.LBE224:
1120:lvgl/src/draw/sw/lv_draw_sw_rect.c ****     area_inner.x1 -= pad;
 6726              		.loc 1 1120 5 is_stmt 1 view .LVU2440
1120:lvgl/src/draw/sw/lv_draw_sw_rect.c ****     area_inner.x1 -= pad;
 6727              		.loc 1 1120 25 is_stmt 0 view .LVU2441
 6728 003a 088D     		ldrh	r0, [r1, #40]
 6729              	.LVL606:
1120:lvgl/src/draw/sw/lv_draw_sw_rect.c ****     area_inner.x1 -= pad;
 6730              		.loc 1 1120 39 view .LVU2442
 6731 003c 0138     		subs	r0, r0, #1
 6732 003e 80B2     		uxth	r0, r0
 6733              	.LVL607:
1121:lvgl/src/draw/sw/lv_draw_sw_rect.c ****     area_inner.y1 -= pad;
 6734              		.loc 1 1121 5 is_stmt 1 view .LVU2443
1121:lvgl/src/draw/sw/lv_draw_sw_rect.c ****     area_inner.y1 -= pad;
 6735              		.loc 1 1121 15 is_stmt 0 view .LVU2444
 6736 0040 ADB2     		uxth	r5, r5
1121:lvgl/src/draw/sw/lv_draw_sw_rect.c ****     area_inner.y1 -= pad;
 6737              		.loc 1 1121 19 view .LVU2445
 6738 0042 A5EB0008 		sub	r8, r5, r0
 6739 0046 1FFA88FB 		uxth	fp, r8
 6740 004a 0FFA88F8 		sxth	r8, r8
 6741 004e ADF82080 		strh	r8, [sp, #32]	@ movhi
1122:lvgl/src/draw/sw/lv_draw_sw_rect.c ****     area_inner.x2 += pad;
 6742              		.loc 1 1122 5 is_stmt 1 view .LVU2446
1122:lvgl/src/draw/sw/lv_draw_sw_rect.c ****     area_inner.x2 += pad;
 6743              		.loc 1 1122 15 is_stmt 0 view .LVU2447
 6744 0052 B6B2     		uxth	r6, r6
1122:lvgl/src/draw/sw/lv_draw_sw_rect.c ****     area_inner.x2 += pad;
 6745              		.loc 1 1122 19 view .LVU2448
 6746 0054 371A     		subs	r7, r6, r0
 6747 0056 1FFA87FA 		uxth	r10, r7
 6748 005a 3FB2     		sxth	r7, r7
 6749 005c ADF82270 		strh	r7, [sp, #34]	@ movhi
1123:lvgl/src/draw/sw/lv_draw_sw_rect.c ****     area_inner.y2 += pad;
 6750              		.loc 1 1123 5 is_stmt 1 view .LVU2449
1123:lvgl/src/draw/sw/lv_draw_sw_rect.c ****     area_inner.y2 += pad;
 6751              		.loc 1 1123 19 is_stmt 0 view .LVU2450
 6752 0060 10FA84F4 		uxtah	r4, r0, r4
 6753 0064 A2B2     		uxth	r2, r4
 6754              	.LVL608:
1123:lvgl/src/draw/sw/lv_draw_sw_rect.c ****     area_inner.y2 += pad;
 6755              		.loc 1 1123 19 view .LVU2451
ARM GAS  /var/folders/21/t9g5rlb91ys800n5npymflf80000gn/T//cca4dfU0.s 			page 187


 6756 0066 24B2     		sxth	r4, r4
 6757 0068 ADF82440 		strh	r4, [sp, #36]	@ movhi
1124:lvgl/src/draw/sw/lv_draw_sw_rect.c **** 
 6758              		.loc 1 1124 5 is_stmt 1 view .LVU2452
1124:lvgl/src/draw/sw/lv_draw_sw_rect.c **** 
 6759              		.loc 1 1124 19 is_stmt 0 view .LVU2453
 6760 006c 10FA8EFE 		uxtah	lr, r0, lr
 6761 0070 1FFA8EFC 		uxth	ip, lr
 6762 0074 0FFA8EFE 		sxth	lr, lr
 6763 0078 ADF826E0 		strh	lr, [sp, #38]	@ movhi
1126:lvgl/src/draw/sw/lv_draw_sw_rect.c ****     lv_area_copy(&area_outer, &area_inner);
 6764              		.loc 1 1126 5 is_stmt 1 view .LVU2454
1127:lvgl/src/draw/sw/lv_draw_sw_rect.c **** 
 6765              		.loc 1 1127 5 view .LVU2455
 6766              	.LVL609:
 6767              	.LBB226:
 6768              	.LBI226:
 110:lvgl/src/draw/sw/../../misc/lv_area.h **** {
 6769              		.loc 2 110 20 view .LVU2456
 6770              	.LBB227:
 112:lvgl/src/draw/sw/../../misc/lv_area.h ****     dest->y1 = src->y1;
 6771              		.loc 2 112 5 view .LVU2457
 112:lvgl/src/draw/sw/../../misc/lv_area.h ****     dest->y1 = src->y1;
 6772              		.loc 2 112 14 is_stmt 0 view .LVU2458
 6773 007c ADF81880 		strh	r8, [sp, #24]	@ movhi
 113:lvgl/src/draw/sw/../../misc/lv_area.h ****     dest->x2 = src->x2;
 6774              		.loc 2 113 5 is_stmt 1 view .LVU2459
 113:lvgl/src/draw/sw/../../misc/lv_area.h ****     dest->x2 = src->x2;
 6775              		.loc 2 113 14 is_stmt 0 view .LVU2460
 6776 0080 ADF81A70 		strh	r7, [sp, #26]	@ movhi
 114:lvgl/src/draw/sw/../../misc/lv_area.h ****     dest->y2 = src->y2;
 6777              		.loc 2 114 5 is_stmt 1 view .LVU2461
 114:lvgl/src/draw/sw/../../misc/lv_area.h ****     dest->y2 = src->y2;
 6778              		.loc 2 114 14 is_stmt 0 view .LVU2462
 6779 0084 ADF81C40 		strh	r4, [sp, #28]	@ movhi
 115:lvgl/src/draw/sw/../../misc/lv_area.h **** }
 6780              		.loc 2 115 5 is_stmt 1 view .LVU2463
 115:lvgl/src/draw/sw/../../misc/lv_area.h **** }
 6781              		.loc 2 115 14 is_stmt 0 view .LVU2464
 6782 0088 ADF81EE0 		strh	lr, [sp, #30]	@ movhi
 6783              	.LVL610:
 115:lvgl/src/draw/sw/../../misc/lv_area.h **** }
 6784              		.loc 2 115 14 view .LVU2465
 6785              	.LBE227:
 6786              	.LBE226:
1129:lvgl/src/draw/sw/lv_draw_sw_rect.c ****     area_outer.x2 += dsc->outline_width;
 6787              		.loc 1 1129 5 is_stmt 1 view .LVU2466
1129:lvgl/src/draw/sw/lv_draw_sw_rect.c ****     area_outer.x2 += dsc->outline_width;
 6788              		.loc 1 1129 25 is_stmt 0 view .LVU2467
 6789 008c 9BB2     		uxth	r3, r3
1129:lvgl/src/draw/sw/lv_draw_sw_rect.c ****     area_outer.x2 += dsc->outline_width;
 6790              		.loc 1 1129 19 view .LVU2468
 6791 008e ABEB030B 		sub	fp, fp, r3
 6792 0092 ADF818B0 		strh	fp, [sp, #24]	@ movhi
1130:lvgl/src/draw/sw/lv_draw_sw_rect.c ****     area_outer.y1 -= dsc->outline_width;
 6793              		.loc 1 1130 5 is_stmt 1 view .LVU2469
1130:lvgl/src/draw/sw/lv_draw_sw_rect.c ****     area_outer.y1 -= dsc->outline_width;
ARM GAS  /var/folders/21/t9g5rlb91ys800n5npymflf80000gn/T//cca4dfU0.s 			page 188


 6794              		.loc 1 1130 19 is_stmt 0 view .LVU2470
 6795 0096 D418     		adds	r4, r2, r3
 6796 0098 ADF81C40 		strh	r4, [sp, #28]	@ movhi
1131:lvgl/src/draw/sw/lv_draw_sw_rect.c ****     area_outer.y2 += dsc->outline_width;
 6797              		.loc 1 1131 5 is_stmt 1 view .LVU2471
1131:lvgl/src/draw/sw/lv_draw_sw_rect.c ****     area_outer.y2 += dsc->outline_width;
 6798              		.loc 1 1131 19 is_stmt 0 view .LVU2472
 6799 009c AAEB030A 		sub	r10, r10, r3
 6800 00a0 ADF81AA0 		strh	r10, [sp, #26]	@ movhi
1132:lvgl/src/draw/sw/lv_draw_sw_rect.c **** 
 6801              		.loc 1 1132 5 is_stmt 1 view .LVU2473
1132:lvgl/src/draw/sw/lv_draw_sw_rect.c **** 
 6802              		.loc 1 1132 19 is_stmt 0 view .LVU2474
 6803 00a4 0CEB0304 		add	r4, ip, r3
 6804 00a8 ADF81E40 		strh	r4, [sp, #30]	@ movhi
1134:lvgl/src/draw/sw/lv_draw_sw_rect.c ****     int32_t inner_h = lv_area_get_height(&area_inner);
 6805              		.loc 1 1134 5 is_stmt 1 view .LVU2475
 6806              	.LVL611:
 6807              	.LBB228:
 6808              	.LBI228:
 123:lvgl/src/draw/sw/../../misc/lv_area.h **** {
 6809              		.loc 2 123 26 view .LVU2476
 6810              	.LBB229:
 125:lvgl/src/draw/sw/../../misc/lv_area.h **** }
 6811              		.loc 2 125 5 view .LVU2477
 125:lvgl/src/draw/sw/../../misc/lv_area.h **** }
 6812              		.loc 2 125 36 is_stmt 0 view .LVU2478
 6813 00ac 451B     		subs	r5, r0, r5
 6814 00ae 2A44     		add	r2, r2, r5
 6815 00b0 92B2     		uxth	r2, r2
 125:lvgl/src/draw/sw/../../misc/lv_area.h **** }
 6816              		.loc 2 125 49 view .LVU2479
 6817 00b2 0132     		adds	r2, r2, #1
 125:lvgl/src/draw/sw/../../misc/lv_area.h **** }
 6818              		.loc 2 125 12 view .LVU2480
 6819 00b4 12B2     		sxth	r2, r2
 6820              	.LVL612:
 125:lvgl/src/draw/sw/../../misc/lv_area.h **** }
 6821              		.loc 2 125 12 view .LVU2481
 6822              	.LBE229:
 6823              	.LBE228:
1135:lvgl/src/draw/sw/lv_draw_sw_rect.c ****     int32_t rin = dsc->radius;
 6824              		.loc 1 1135 5 is_stmt 1 view .LVU2482
 6825              	.LBB230:
 6826              	.LBI230:
 133:lvgl/src/draw/sw/../../misc/lv_area.h **** {
 6827              		.loc 2 133 26 view .LVU2483
 6828              	.LBB231:
 6829              		.loc 2 135 5 view .LVU2484
 6830              		.loc 2 135 36 is_stmt 0 view .LVU2485
 6831 00b6 801B     		subs	r0, r0, r6
 6832              	.LVL613:
 6833              		.loc 2 135 36 view .LVU2486
 6834 00b8 8444     		add	ip, ip, r0
 6835 00ba 1FFA8CFC 		uxth	ip, ip
 6836              		.loc 2 135 49 view .LVU2487
 6837 00be 0CF1010C 		add	ip, ip, #1
ARM GAS  /var/folders/21/t9g5rlb91ys800n5npymflf80000gn/T//cca4dfU0.s 			page 189


 6838              		.loc 2 135 12 view .LVU2488
 6839 00c2 0FFA8CFC 		sxth	ip, ip
 6840              	.LVL614:
 6841              		.loc 2 135 12 view .LVU2489
 6842              	.LBE231:
 6843              	.LBE230:
1136:lvgl/src/draw/sw/lv_draw_sw_rect.c ****     int32_t short_side = LV_MIN(inner_w, inner_h);
 6844              		.loc 1 1136 5 is_stmt 1 view .LVU2490
1136:lvgl/src/draw/sw/lv_draw_sw_rect.c ****     int32_t short_side = LV_MIN(inner_w, inner_h);
 6845              		.loc 1 1136 22 is_stmt 0 view .LVU2491
 6846 00c6 B1F90040 		ldrsh	r4, [r1]
 6847              	.LVL615:
1137:lvgl/src/draw/sw/lv_draw_sw_rect.c ****     if(rin > short_side >> 1) rin = short_side >> 1;
 6848              		.loc 1 1137 5 is_stmt 1 view .LVU2492
1137:lvgl/src/draw/sw/lv_draw_sw_rect.c ****     if(rin > short_side >> 1) rin = short_side >> 1;
 6849              		.loc 1 1137 13 is_stmt 0 view .LVU2493
 6850 00ca 6245     		cmp	r2, ip
 6851 00cc A8BF     		it	ge
 6852 00ce 6246     		movge	r2, ip
 6853              	.LVL616:
1138:lvgl/src/draw/sw/lv_draw_sw_rect.c **** 
 6854              		.loc 1 1138 5 is_stmt 1 view .LVU2494
1138:lvgl/src/draw/sw/lv_draw_sw_rect.c **** 
 6855              		.loc 1 1138 25 is_stmt 0 view .LVU2495
 6856 00d0 5010     		asrs	r0, r2, #1
1138:lvgl/src/draw/sw/lv_draw_sw_rect.c **** 
 6857              		.loc 1 1138 7 view .LVU2496
 6858 00d2 B4EB620F 		cmp	r4, r2, asr #1
 6859 00d6 00DC     		bgt	.L365
1136:lvgl/src/draw/sw/lv_draw_sw_rect.c ****     int32_t short_side = LV_MIN(inner_w, inner_h);
 6860              		.loc 1 1136 13 view .LVU2497
 6861 00d8 2046     		mov	r0, r4
 6862              	.L365:
 6863              	.LVL617:
1140:lvgl/src/draw/sw/lv_draw_sw_rect.c **** 
 6864              		.loc 1 1140 5 is_stmt 1 view .LVU2498
1140:lvgl/src/draw/sw/lv_draw_sw_rect.c **** 
 6865              		.loc 1 1140 27 is_stmt 0 view .LVU2499
 6866 00da 0344     		add	r3, r3, r0
 6867              	.LVL618:
1142:lvgl/src/draw/sw/lv_draw_sw_rect.c ****                         dsc->blend_mode);
 6868              		.loc 1 1142 5 is_stmt 1 view .LVU2500
1143:lvgl/src/draw/sw/lv_draw_sw_rect.c **** }
 6869              		.loc 1 1143 28 is_stmt 0 view .LVU2501
 6870 00dc 8A78     		ldrb	r2, [r1, #2]	@ zero_extendqisi2
 6871              	.LVL619:
1142:lvgl/src/draw/sw/lv_draw_sw_rect.c ****                         dsc->blend_mode);
 6872              		.loc 1 1142 5 view .LVU2502
 6873 00de 0392     		str	r2, [sp, #12]
 6874              	.LVL620:
1142:lvgl/src/draw/sw/lv_draw_sw_rect.c ****                         dsc->blend_mode);
 6875              		.loc 1 1142 5 view .LVU2503
 6876 00e0 CDF80890 		str	r9, [sp, #8]
 6877 00e4 8A8C     		ldrh	r2, [r1, #36]
 6878 00e6 ADF80420 		strh	r2, [sp, #4]	@ movhi
 6879 00ea 0090     		str	r0, [sp]
 6880 00ec 1BB2     		sxth	r3, r3
ARM GAS  /var/folders/21/t9g5rlb91ys800n5npymflf80000gn/T//cca4dfU0.s 			page 190


1142:lvgl/src/draw/sw/lv_draw_sw_rect.c ****                         dsc->blend_mode);
 6881              		.loc 1 1142 5 view .LVU2504
 6882 00ee 08AA     		add	r2, sp, #32
 6883 00f0 06A9     		add	r1, sp, #24
 6884              	.LVL621:
1142:lvgl/src/draw/sw/lv_draw_sw_rect.c ****                         dsc->blend_mode);
 6885              		.loc 1 1142 5 view .LVU2505
 6886 00f2 0598     		ldr	r0, [sp, #20]
 6887              	.LVL622:
1142:lvgl/src/draw/sw/lv_draw_sw_rect.c ****                         dsc->blend_mode);
 6888              		.loc 1 1142 5 view .LVU2506
 6889 00f4 FFF7FEFF 		bl	draw_border_generic
 6890              	.LVL623:
 6891              	.L363:
1144:lvgl/src/draw/sw/lv_draw_sw_rect.c **** 
 6892              		.loc 1 1144 1 view .LVU2507
 6893 00f8 0BB0     		add	sp, sp, #44
 6894              	.LCFI36:
 6895              		.cfi_def_cfa_offset 36
 6896              		@ sp needed
 6897 00fa BDE8F08F 		pop	{r4, r5, r6, r7, r8, r9, r10, fp, pc}
1144:lvgl/src/draw/sw/lv_draw_sw_rect.c **** 
 6898              		.loc 1 1144 1 view .LVU2508
 6899              		.cfi_endproc
 6900              	.LFE169:
 6902              		.section	.text.lv_draw_sw_rect,"ax",%progbits
 6903              		.align	1
 6904              		.global	lv_draw_sw_rect
 6905              		.syntax unified
 6906              		.thumb
 6907              		.thumb_func
 6909              	lv_draw_sw_rect:
 6910              	.LVL624:
 6911              	.LFB161:
  68:lvgl/src/draw/sw/lv_draw_sw_rect.c **** #if LV_DRAW_COMPLEX
 6912              		.loc 1 68 1 is_stmt 1 view -0
 6913              		.cfi_startproc
 6914              		@ args = 0, pretend = 0, frame = 0
 6915              		@ frame_needed = 0, uses_anonymous_args = 0
  68:lvgl/src/draw/sw/lv_draw_sw_rect.c **** #if LV_DRAW_COMPLEX
 6916              		.loc 1 68 1 is_stmt 0 view .LVU2510
 6917 0000 70B5     		push	{r4, r5, r6, lr}
 6918              	.LCFI37:
 6919              		.cfi_def_cfa_offset 16
 6920              		.cfi_offset 4, -16
 6921              		.cfi_offset 5, -12
 6922              		.cfi_offset 6, -8
 6923              		.cfi_offset 14, -4
 6924 0002 0446     		mov	r4, r0
 6925 0004 0D46     		mov	r5, r1
 6926 0006 1646     		mov	r6, r2
  70:lvgl/src/draw/sw/lv_draw_sw_rect.c **** #endif
 6927              		.loc 1 70 5 is_stmt 1 view .LVU2511
 6928 0008 FFF7FEFF 		bl	draw_shadow
 6929              	.LVL625:
  73:lvgl/src/draw/sw/lv_draw_sw_rect.c ****     draw_bg_img(draw_ctx, dsc, coords);
 6930              		.loc 1 73 5 view .LVU2512
ARM GAS  /var/folders/21/t9g5rlb91ys800n5npymflf80000gn/T//cca4dfU0.s 			page 191


 6931 000c 3246     		mov	r2, r6
 6932 000e 2946     		mov	r1, r5
 6933 0010 2046     		mov	r0, r4
 6934 0012 FFF7FEFF 		bl	draw_bg
 6935              	.LVL626:
  74:lvgl/src/draw/sw/lv_draw_sw_rect.c **** 
 6936              		.loc 1 74 5 view .LVU2513
 6937 0016 3246     		mov	r2, r6
 6938 0018 2946     		mov	r1, r5
 6939 001a 2046     		mov	r0, r4
 6940 001c FFF7FEFF 		bl	draw_bg_img
 6941              	.LVL627:
  76:lvgl/src/draw/sw/lv_draw_sw_rect.c **** 
 6942              		.loc 1 76 5 view .LVU2514
 6943 0020 3246     		mov	r2, r6
 6944 0022 2946     		mov	r1, r5
 6945 0024 2046     		mov	r0, r4
 6946 0026 FFF7FEFF 		bl	draw_border
 6947              	.LVL628:
  78:lvgl/src/draw/sw/lv_draw_sw_rect.c **** 
 6948              		.loc 1 78 5 view .LVU2515
 6949 002a 3246     		mov	r2, r6
 6950 002c 2946     		mov	r1, r5
 6951 002e 2046     		mov	r0, r4
 6952 0030 FFF7FEFF 		bl	draw_outline
 6953              	.LVL629:
  80:lvgl/src/draw/sw/lv_draw_sw_rect.c **** }
 6954              		.loc 1 80 30 view .LVU2516
  81:lvgl/src/draw/sw/lv_draw_sw_rect.c **** 
 6955              		.loc 1 81 1 is_stmt 0 view .LVU2517
 6956 0034 70BD     		pop	{r4, r5, r6, pc}
  81:lvgl/src/draw/sw/lv_draw_sw_rect.c **** 
 6957              		.loc 1 81 1 view .LVU2518
 6958              		.cfi_endproc
 6959              	.LFE161:
 6961              		.text
 6962              	.Letext0:
 6963              		.file 3 "/usr/local/include/sys/_types/_int8_t.h"
 6964              		.file 4 "/usr/local/include/sys/_types/_int16_t.h"
 6965              		.file 5 "/usr/local/include/sys/_types/_int32_t.h"
 6966              		.file 6 "/usr/local/include/_types/_uint8_t.h"
 6967              		.file 7 "/usr/local/include/_types/_uint16_t.h"
 6968              		.file 8 "/usr/local/include/_types/_uint32_t.h"
 6969              		.file 9 "/usr/local/include/arm/_types.h"
 6970              		.file 10 "lvgl/src/draw/sw/../../misc/lv_types.h"
 6971              		.file 11 "/usr/local/include/sys/_types/_size_t.h"
 6972              		.file 12 "lvgl/src/draw/sw/../../misc/lv_color.h"
 6973              		.file 13 "lvgl/src/draw/sw/../../misc/../font/lv_font.h"
 6974              		.file 14 "lvgl/src/draw/sw/../../misc/lv_txt.h"
 6975              		.file 15 "lvgl/src/draw/sw/../../misc/lv_bidi.h"
 6976              		.file 16 "lvgl/src/draw/sw/../../misc/lv_style.h"
 6977              		.file 17 "lvgl/src/draw/sw/../lv_draw_mask.h"
 6978              		.file 18 "lvgl/src/draw/sw/lv_draw_sw_blend.h"
 6979              		.file 19 "lvgl/src/draw/sw/../lv_img_buf.h"
 6980              		.file 20 "lvgl/src/draw/sw/../lv_img_decoder.h"
 6981              		.file 21 "lvgl/src/draw/sw/../sw/lv_draw_sw_gradient.h"
 6982              		.file 22 "lvgl/src/draw/sw/../lv_draw_rect.h"
ARM GAS  /var/folders/21/t9g5rlb91ys800n5npymflf80000gn/T//cca4dfU0.s 			page 192


 6983              		.file 23 "lvgl/src/draw/sw/../lv_draw_label.h"
 6984              		.file 24 "lvgl/src/draw/sw/../lv_draw_img.h"
 6985              		.file 25 "lvgl/src/draw/sw/../lv_draw_line.h"
 6986              		.file 26 "lvgl/src/draw/sw/../lv_draw_arc.h"
 6987              		.file 27 "lvgl/src/draw/sw/../lv_draw_layer.h"
 6988              		.file 28 "lvgl/src/draw/sw/../lv_draw.h"
 6989              		.file 29 "lvgl/src/draw/sw/../../misc/lv_mem.h"
ARM GAS  /var/folders/21/t9g5rlb91ys800n5npymflf80000gn/T//cca4dfU0.s 			page 193


DEFINED SYMBOLS
                            *ABS*:00000000 lv_draw_sw_rect.c
/var/folders/21/t9g5rlb91ys800n5npymflf80000gn/T//cca4dfU0.s:21     .text.draw_border_simple:00000000 $t
/var/folders/21/t9g5rlb91ys800n5npymflf80000gn/T//cca4dfU0.s:26     .text.draw_border_simple:00000000 draw_border_simple
/var/folders/21/t9g5rlb91ys800n5npymflf80000gn/T//cca4dfU0.s:247    .text.shadow_blur_corner:00000000 $t
/var/folders/21/t9g5rlb91ys800n5npymflf80000gn/T//cca4dfU0.s:252    .text.shadow_blur_corner:00000000 shadow_blur_corner
/var/folders/21/t9g5rlb91ys800n5npymflf80000gn/T//cca4dfU0.s:644    .text.shadow_draw_corner_buf:00000000 $t
/var/folders/21/t9g5rlb91ys800n5npymflf80000gn/T//cca4dfU0.s:649    .text.shadow_draw_corner_buf:00000000 shadow_draw_corner_buf
/var/folders/21/t9g5rlb91ys800n5npymflf80000gn/T//cca4dfU0.s:1085   .text.draw_shadow:00000000 $t
/var/folders/21/t9g5rlb91ys800n5npymflf80000gn/T//cca4dfU0.s:1090   .text.draw_shadow:00000000 draw_shadow
/var/folders/21/t9g5rlb91ys800n5npymflf80000gn/T//cca4dfU0.s:3915   .text.draw_bg:00000000 $t
/var/folders/21/t9g5rlb91ys800n5npymflf80000gn/T//cca4dfU0.s:3920   .text.draw_bg:00000000 draw_bg
/var/folders/21/t9g5rlb91ys800n5npymflf80000gn/T//cca4dfU0.s:4789   .text.draw_bg_img:00000000 $t
/var/folders/21/t9g5rlb91ys800n5npymflf80000gn/T//cca4dfU0.s:4794   .text.draw_bg_img:00000000 draw_bg_img
/var/folders/21/t9g5rlb91ys800n5npymflf80000gn/T//cca4dfU0.s:5280   .text.lv_draw_sw_bg:00000000 $t
/var/folders/21/t9g5rlb91ys800n5npymflf80000gn/T//cca4dfU0.s:5286   .text.lv_draw_sw_bg:00000000 lv_draw_sw_bg
/var/folders/21/t9g5rlb91ys800n5npymflf80000gn/T//cca4dfU0.s:5320   .text.draw_border_generic:00000000 $t
/var/folders/21/t9g5rlb91ys800n5npymflf80000gn/T//cca4dfU0.s:5326   .text.draw_border_generic:00000000 draw_border_generic
/var/folders/21/t9g5rlb91ys800n5npymflf80000gn/T//cca4dfU0.s:6370   .text.draw_border:00000000 $t
/var/folders/21/t9g5rlb91ys800n5npymflf80000gn/T//cca4dfU0.s:6375   .text.draw_border:00000000 draw_border
/var/folders/21/t9g5rlb91ys800n5npymflf80000gn/T//cca4dfU0.s:6652   .text.draw_outline:00000000 $t
/var/folders/21/t9g5rlb91ys800n5npymflf80000gn/T//cca4dfU0.s:6657   .text.draw_outline:00000000 draw_outline
/var/folders/21/t9g5rlb91ys800n5npymflf80000gn/T//cca4dfU0.s:6903   .text.lv_draw_sw_rect:00000000 $t
/var/folders/21/t9g5rlb91ys800n5npymflf80000gn/T//cca4dfU0.s:6909   .text.lv_draw_sw_rect:00000000 lv_draw_sw_rect

UNDEFINED SYMBOLS
lv_memset_00
lv_draw_sw_blend
lv_mem_buf_get
lv_memcpy
lv_mem_buf_release
lv_draw_mask_radius_init
lv_memset_ff
lv_draw_mask_free_param
_lv_area_intersect
lv_area_increase
lv_draw_mask_is_any
lv_draw_mask_add
_lv_area_is_in
_lv_area_is_out
lv_draw_mask_apply
lv_memset
lv_draw_mask_remove_id
lv_gradient_get
lv_gradient_cleanup
lv_img_src_get_type
lv_img_decoder_get_info
lv_txt_get_size
lv_draw_label_dsc_init
lv_draw_label
lv_draw_img_dsc_init
lv_draw_img
