ARM GAS  /var/folders/21/t9g5rlb91ys800n5npymflf80000gn/T//ccb1YJg7.s 			page 1


   1              		.cpu cortex-m4
   2              		.arch armv7e-m
   3              		.fpu fpv4-sp-d16
   4              		.eabi_attribute 27, 1
   5              		.eabi_attribute 28, 1
   6              		.eabi_attribute 20, 1
   7              		.eabi_attribute 21, 1
   8              		.eabi_attribute 23, 3
   9              		.eabi_attribute 24, 1
  10              		.eabi_attribute 25, 1
  11              		.eabi_attribute 26, 1
  12              		.eabi_attribute 30, 1
  13              		.eabi_attribute 34, 1
  14              		.eabi_attribute 18, 4
  15              		.file	"lv_draw_sw_arc.c"
  16              		.text
  17              	.Ltext0:
  18              		.cfi_sections	.debug_frame
  19              		.file 1 "lvgl/src/draw/sw/lv_draw_sw_arc.c"
  20              		.section	.text.draw_quarter_0,"ax",%progbits
  21              		.align	1
  22              		.syntax unified
  23              		.thumb
  24              		.thumb_func
  26              	draw_quarter_0:
  27              	.LVL0:
  28              	.LFB57:
   1:lvgl/src/draw/sw/lv_draw_sw_arc.c **** /**
   2:lvgl/src/draw/sw/lv_draw_sw_arc.c ****  * @file lv_draw_arc.c
   3:lvgl/src/draw/sw/lv_draw_sw_arc.c ****  *
   4:lvgl/src/draw/sw/lv_draw_sw_arc.c ****  */
   5:lvgl/src/draw/sw/lv_draw_sw_arc.c **** 
   6:lvgl/src/draw/sw/lv_draw_sw_arc.c **** /*********************
   7:lvgl/src/draw/sw/lv_draw_sw_arc.c ****  *      INCLUDES
   8:lvgl/src/draw/sw/lv_draw_sw_arc.c ****  *********************/
   9:lvgl/src/draw/sw/lv_draw_sw_arc.c **** #include "lv_draw_sw.h"
  10:lvgl/src/draw/sw/lv_draw_sw_arc.c **** #include "../../misc/lv_math.h"
  11:lvgl/src/draw/sw/lv_draw_sw_arc.c **** #include "../../misc/lv_log.h"
  12:lvgl/src/draw/sw/lv_draw_sw_arc.c **** #include "../../misc/lv_mem.h"
  13:lvgl/src/draw/sw/lv_draw_sw_arc.c **** #include "../lv_draw.h"
  14:lvgl/src/draw/sw/lv_draw_sw_arc.c **** 
  15:lvgl/src/draw/sw/lv_draw_sw_arc.c **** /*********************
  16:lvgl/src/draw/sw/lv_draw_sw_arc.c ****  *      DEFINES
  17:lvgl/src/draw/sw/lv_draw_sw_arc.c ****  *********************/
  18:lvgl/src/draw/sw/lv_draw_sw_arc.c **** #define SPLIT_RADIUS_LIMIT 10  /*With radius greater than this the arc will drawn in quarters. A qu
  19:lvgl/src/draw/sw/lv_draw_sw_arc.c **** #define SPLIT_ANGLE_GAP_LIMIT 60  /*With small gaps in the arc don't bother with splitting because 
  20:lvgl/src/draw/sw/lv_draw_sw_arc.c **** 
  21:lvgl/src/draw/sw/lv_draw_sw_arc.c **** /**********************
  22:lvgl/src/draw/sw/lv_draw_sw_arc.c ****  *      TYPEDEFS
  23:lvgl/src/draw/sw/lv_draw_sw_arc.c ****  **********************/
  24:lvgl/src/draw/sw/lv_draw_sw_arc.c **** typedef struct {
  25:lvgl/src/draw/sw/lv_draw_sw_arc.c ****     const lv_point_t * center;
  26:lvgl/src/draw/sw/lv_draw_sw_arc.c ****     lv_coord_t radius;
  27:lvgl/src/draw/sw/lv_draw_sw_arc.c ****     uint16_t start_angle;
  28:lvgl/src/draw/sw/lv_draw_sw_arc.c ****     uint16_t end_angle;
  29:lvgl/src/draw/sw/lv_draw_sw_arc.c ****     uint16_t start_quarter;
  30:lvgl/src/draw/sw/lv_draw_sw_arc.c ****     uint16_t end_quarter;
ARM GAS  /var/folders/21/t9g5rlb91ys800n5npymflf80000gn/T//ccb1YJg7.s 			page 2


  31:lvgl/src/draw/sw/lv_draw_sw_arc.c ****     lv_coord_t width;
  32:lvgl/src/draw/sw/lv_draw_sw_arc.c ****     lv_draw_rect_dsc_t * draw_dsc;
  33:lvgl/src/draw/sw/lv_draw_sw_arc.c ****     const lv_area_t * draw_area;
  34:lvgl/src/draw/sw/lv_draw_sw_arc.c ****     lv_draw_ctx_t * draw_ctx;
  35:lvgl/src/draw/sw/lv_draw_sw_arc.c **** } quarter_draw_dsc_t;
  36:lvgl/src/draw/sw/lv_draw_sw_arc.c **** 
  37:lvgl/src/draw/sw/lv_draw_sw_arc.c **** /**********************
  38:lvgl/src/draw/sw/lv_draw_sw_arc.c ****  *  STATIC PROTOTYPES
  39:lvgl/src/draw/sw/lv_draw_sw_arc.c ****  **********************/
  40:lvgl/src/draw/sw/lv_draw_sw_arc.c **** #if LV_DRAW_COMPLEX
  41:lvgl/src/draw/sw/lv_draw_sw_arc.c ****     static void draw_quarter_0(quarter_draw_dsc_t * q);
  42:lvgl/src/draw/sw/lv_draw_sw_arc.c ****     static void draw_quarter_1(quarter_draw_dsc_t * q);
  43:lvgl/src/draw/sw/lv_draw_sw_arc.c ****     static void draw_quarter_2(quarter_draw_dsc_t * q);
  44:lvgl/src/draw/sw/lv_draw_sw_arc.c ****     static void draw_quarter_3(quarter_draw_dsc_t * q);
  45:lvgl/src/draw/sw/lv_draw_sw_arc.c ****     static void get_rounded_area(int16_t angle, lv_coord_t radius, uint8_t thickness, lv_area_t * r
  46:lvgl/src/draw/sw/lv_draw_sw_arc.c **** #endif /*LV_DRAW_COMPLEX*/
  47:lvgl/src/draw/sw/lv_draw_sw_arc.c **** 
  48:lvgl/src/draw/sw/lv_draw_sw_arc.c **** /**********************
  49:lvgl/src/draw/sw/lv_draw_sw_arc.c ****  *  STATIC VARIABLES
  50:lvgl/src/draw/sw/lv_draw_sw_arc.c ****  **********************/
  51:lvgl/src/draw/sw/lv_draw_sw_arc.c **** 
  52:lvgl/src/draw/sw/lv_draw_sw_arc.c **** /**********************
  53:lvgl/src/draw/sw/lv_draw_sw_arc.c ****  *      MACROS
  54:lvgl/src/draw/sw/lv_draw_sw_arc.c ****  **********************/
  55:lvgl/src/draw/sw/lv_draw_sw_arc.c **** 
  56:lvgl/src/draw/sw/lv_draw_sw_arc.c **** /**********************
  57:lvgl/src/draw/sw/lv_draw_sw_arc.c ****  *   GLOBAL FUNCTIONS
  58:lvgl/src/draw/sw/lv_draw_sw_arc.c ****  **********************/
  59:lvgl/src/draw/sw/lv_draw_sw_arc.c **** 
  60:lvgl/src/draw/sw/lv_draw_sw_arc.c **** void lv_draw_sw_arc(lv_draw_ctx_t * draw_ctx, const lv_draw_arc_dsc_t * dsc, const lv_point_t * cen
  61:lvgl/src/draw/sw/lv_draw_sw_arc.c ****                     uint16_t start_angle, uint16_t end_angle)
  62:lvgl/src/draw/sw/lv_draw_sw_arc.c **** {
  63:lvgl/src/draw/sw/lv_draw_sw_arc.c **** #if LV_DRAW_COMPLEX
  64:lvgl/src/draw/sw/lv_draw_sw_arc.c ****     if(dsc->opa <= LV_OPA_MIN) return;
  65:lvgl/src/draw/sw/lv_draw_sw_arc.c ****     if(dsc->width == 0) return;
  66:lvgl/src/draw/sw/lv_draw_sw_arc.c ****     if(start_angle == end_angle) return;
  67:lvgl/src/draw/sw/lv_draw_sw_arc.c **** 
  68:lvgl/src/draw/sw/lv_draw_sw_arc.c ****     lv_coord_t width = dsc->width;
  69:lvgl/src/draw/sw/lv_draw_sw_arc.c ****     if(width > radius) width = radius;
  70:lvgl/src/draw/sw/lv_draw_sw_arc.c **** 
  71:lvgl/src/draw/sw/lv_draw_sw_arc.c ****     lv_draw_rect_dsc_t cir_dsc;
  72:lvgl/src/draw/sw/lv_draw_sw_arc.c ****     lv_draw_rect_dsc_init(&cir_dsc);
  73:lvgl/src/draw/sw/lv_draw_sw_arc.c ****     cir_dsc.blend_mode = dsc->blend_mode;
  74:lvgl/src/draw/sw/lv_draw_sw_arc.c ****     if(dsc->img_src) {
  75:lvgl/src/draw/sw/lv_draw_sw_arc.c ****         cir_dsc.bg_opa = LV_OPA_TRANSP;
  76:lvgl/src/draw/sw/lv_draw_sw_arc.c ****         cir_dsc.bg_img_src = dsc->img_src;
  77:lvgl/src/draw/sw/lv_draw_sw_arc.c ****         cir_dsc.bg_img_opa = dsc->opa;
  78:lvgl/src/draw/sw/lv_draw_sw_arc.c ****     }
  79:lvgl/src/draw/sw/lv_draw_sw_arc.c ****     else {
  80:lvgl/src/draw/sw/lv_draw_sw_arc.c ****         cir_dsc.bg_opa = dsc->opa;
  81:lvgl/src/draw/sw/lv_draw_sw_arc.c ****         cir_dsc.bg_color = dsc->color;
  82:lvgl/src/draw/sw/lv_draw_sw_arc.c ****     }
  83:lvgl/src/draw/sw/lv_draw_sw_arc.c **** 
  84:lvgl/src/draw/sw/lv_draw_sw_arc.c ****     lv_area_t area_out;
  85:lvgl/src/draw/sw/lv_draw_sw_arc.c ****     area_out.x1 = center->x - radius;
  86:lvgl/src/draw/sw/lv_draw_sw_arc.c ****     area_out.y1 = center->y - radius;
  87:lvgl/src/draw/sw/lv_draw_sw_arc.c ****     area_out.x2 = center->x + radius - 1;  /*-1 because the center already belongs to the left/bott
ARM GAS  /var/folders/21/t9g5rlb91ys800n5npymflf80000gn/T//ccb1YJg7.s 			page 3


  88:lvgl/src/draw/sw/lv_draw_sw_arc.c ****     area_out.y2 = center->y + radius - 1;
  89:lvgl/src/draw/sw/lv_draw_sw_arc.c **** 
  90:lvgl/src/draw/sw/lv_draw_sw_arc.c ****     lv_area_t area_in;
  91:lvgl/src/draw/sw/lv_draw_sw_arc.c ****     lv_area_copy(&area_in, &area_out);
  92:lvgl/src/draw/sw/lv_draw_sw_arc.c ****     area_in.x1 += dsc->width;
  93:lvgl/src/draw/sw/lv_draw_sw_arc.c ****     area_in.y1 += dsc->width;
  94:lvgl/src/draw/sw/lv_draw_sw_arc.c ****     area_in.x2 -= dsc->width;
  95:lvgl/src/draw/sw/lv_draw_sw_arc.c ****     area_in.y2 -= dsc->width;
  96:lvgl/src/draw/sw/lv_draw_sw_arc.c **** 
  97:lvgl/src/draw/sw/lv_draw_sw_arc.c ****     /*Create inner the mask*/
  98:lvgl/src/draw/sw/lv_draw_sw_arc.c ****     int16_t mask_in_id = LV_MASK_ID_INV;
  99:lvgl/src/draw/sw/lv_draw_sw_arc.c ****     lv_draw_mask_radius_param_t mask_in_param;
 100:lvgl/src/draw/sw/lv_draw_sw_arc.c ****     bool mask_in_param_valid = false;
 101:lvgl/src/draw/sw/lv_draw_sw_arc.c ****     if(lv_area_get_width(&area_in) > 0 && lv_area_get_height(&area_in) > 0) {
 102:lvgl/src/draw/sw/lv_draw_sw_arc.c ****         lv_draw_mask_radius_init(&mask_in_param, &area_in, LV_RADIUS_CIRCLE, true);
 103:lvgl/src/draw/sw/lv_draw_sw_arc.c ****         mask_in_param_valid = true;
 104:lvgl/src/draw/sw/lv_draw_sw_arc.c ****         mask_in_id = lv_draw_mask_add(&mask_in_param, NULL);
 105:lvgl/src/draw/sw/lv_draw_sw_arc.c ****     }
 106:lvgl/src/draw/sw/lv_draw_sw_arc.c **** 
 107:lvgl/src/draw/sw/lv_draw_sw_arc.c ****     lv_draw_mask_radius_param_t mask_out_param;
 108:lvgl/src/draw/sw/lv_draw_sw_arc.c ****     lv_draw_mask_radius_init(&mask_out_param, &area_out, LV_RADIUS_CIRCLE, false);
 109:lvgl/src/draw/sw/lv_draw_sw_arc.c ****     int16_t mask_out_id = lv_draw_mask_add(&mask_out_param, NULL);
 110:lvgl/src/draw/sw/lv_draw_sw_arc.c **** 
 111:lvgl/src/draw/sw/lv_draw_sw_arc.c ****     /*Draw a full ring*/
 112:lvgl/src/draw/sw/lv_draw_sw_arc.c ****     if(start_angle + 360 == end_angle || start_angle == end_angle + 360) {
 113:lvgl/src/draw/sw/lv_draw_sw_arc.c ****         cir_dsc.radius = LV_RADIUS_CIRCLE;
 114:lvgl/src/draw/sw/lv_draw_sw_arc.c ****         lv_draw_rect(draw_ctx, &cir_dsc, &area_out);
 115:lvgl/src/draw/sw/lv_draw_sw_arc.c **** 
 116:lvgl/src/draw/sw/lv_draw_sw_arc.c ****         lv_draw_mask_remove_id(mask_out_id);
 117:lvgl/src/draw/sw/lv_draw_sw_arc.c ****         if(mask_in_id != LV_MASK_ID_INV) lv_draw_mask_remove_id(mask_in_id);
 118:lvgl/src/draw/sw/lv_draw_sw_arc.c **** 
 119:lvgl/src/draw/sw/lv_draw_sw_arc.c ****         lv_draw_mask_free_param(&mask_out_param);
 120:lvgl/src/draw/sw/lv_draw_sw_arc.c ****         if(mask_in_param_valid) {
 121:lvgl/src/draw/sw/lv_draw_sw_arc.c ****             lv_draw_mask_free_param(&mask_in_param);
 122:lvgl/src/draw/sw/lv_draw_sw_arc.c ****         }
 123:lvgl/src/draw/sw/lv_draw_sw_arc.c **** 
 124:lvgl/src/draw/sw/lv_draw_sw_arc.c ****         return;
 125:lvgl/src/draw/sw/lv_draw_sw_arc.c ****     }
 126:lvgl/src/draw/sw/lv_draw_sw_arc.c **** 
 127:lvgl/src/draw/sw/lv_draw_sw_arc.c ****     while(start_angle >= 360) start_angle -= 360;
 128:lvgl/src/draw/sw/lv_draw_sw_arc.c ****     while(end_angle >= 360) end_angle -= 360;
 129:lvgl/src/draw/sw/lv_draw_sw_arc.c **** 
 130:lvgl/src/draw/sw/lv_draw_sw_arc.c ****     lv_draw_mask_angle_param_t mask_angle_param;
 131:lvgl/src/draw/sw/lv_draw_sw_arc.c ****     lv_draw_mask_angle_init(&mask_angle_param, center->x, center->y, start_angle, end_angle);
 132:lvgl/src/draw/sw/lv_draw_sw_arc.c ****     int16_t mask_angle_id = lv_draw_mask_add(&mask_angle_param, NULL);
 133:lvgl/src/draw/sw/lv_draw_sw_arc.c **** 
 134:lvgl/src/draw/sw/lv_draw_sw_arc.c ****     int32_t angle_gap;
 135:lvgl/src/draw/sw/lv_draw_sw_arc.c ****     if(end_angle > start_angle) {
 136:lvgl/src/draw/sw/lv_draw_sw_arc.c ****         angle_gap = 360 - (end_angle - start_angle);
 137:lvgl/src/draw/sw/lv_draw_sw_arc.c ****     }
 138:lvgl/src/draw/sw/lv_draw_sw_arc.c ****     else {
 139:lvgl/src/draw/sw/lv_draw_sw_arc.c ****         angle_gap = start_angle - end_angle;
 140:lvgl/src/draw/sw/lv_draw_sw_arc.c ****     }
 141:lvgl/src/draw/sw/lv_draw_sw_arc.c **** 
 142:lvgl/src/draw/sw/lv_draw_sw_arc.c ****     const lv_area_t * clip_area_ori = draw_ctx->clip_area;
 143:lvgl/src/draw/sw/lv_draw_sw_arc.c **** 
 144:lvgl/src/draw/sw/lv_draw_sw_arc.c ****     if(angle_gap > SPLIT_ANGLE_GAP_LIMIT && radius > SPLIT_RADIUS_LIMIT) {
ARM GAS  /var/folders/21/t9g5rlb91ys800n5npymflf80000gn/T//ccb1YJg7.s 			page 4


 145:lvgl/src/draw/sw/lv_draw_sw_arc.c ****         /*Handle each quarter individually and skip which is empty*/
 146:lvgl/src/draw/sw/lv_draw_sw_arc.c ****         quarter_draw_dsc_t q_dsc;
 147:lvgl/src/draw/sw/lv_draw_sw_arc.c ****         q_dsc.center = center;
 148:lvgl/src/draw/sw/lv_draw_sw_arc.c ****         q_dsc.radius = radius;
 149:lvgl/src/draw/sw/lv_draw_sw_arc.c ****         q_dsc.start_angle = start_angle;
 150:lvgl/src/draw/sw/lv_draw_sw_arc.c ****         q_dsc.end_angle = end_angle;
 151:lvgl/src/draw/sw/lv_draw_sw_arc.c ****         q_dsc.start_quarter = (start_angle / 90) & 0x3;
 152:lvgl/src/draw/sw/lv_draw_sw_arc.c ****         q_dsc.end_quarter = (end_angle / 90) & 0x3;
 153:lvgl/src/draw/sw/lv_draw_sw_arc.c ****         q_dsc.width = width;
 154:lvgl/src/draw/sw/lv_draw_sw_arc.c ****         q_dsc.draw_dsc = &cir_dsc;
 155:lvgl/src/draw/sw/lv_draw_sw_arc.c ****         q_dsc.draw_area = &area_out;
 156:lvgl/src/draw/sw/lv_draw_sw_arc.c ****         q_dsc.draw_ctx = draw_ctx;
 157:lvgl/src/draw/sw/lv_draw_sw_arc.c **** 
 158:lvgl/src/draw/sw/lv_draw_sw_arc.c ****         draw_quarter_0(&q_dsc);
 159:lvgl/src/draw/sw/lv_draw_sw_arc.c ****         draw_quarter_1(&q_dsc);
 160:lvgl/src/draw/sw/lv_draw_sw_arc.c ****         draw_quarter_2(&q_dsc);
 161:lvgl/src/draw/sw/lv_draw_sw_arc.c ****         draw_quarter_3(&q_dsc);
 162:lvgl/src/draw/sw/lv_draw_sw_arc.c ****     }
 163:lvgl/src/draw/sw/lv_draw_sw_arc.c ****     else {
 164:lvgl/src/draw/sw/lv_draw_sw_arc.c ****         lv_draw_rect(draw_ctx, &cir_dsc, &area_out);
 165:lvgl/src/draw/sw/lv_draw_sw_arc.c ****     }
 166:lvgl/src/draw/sw/lv_draw_sw_arc.c **** 
 167:lvgl/src/draw/sw/lv_draw_sw_arc.c ****     lv_draw_mask_free_param(&mask_angle_param);
 168:lvgl/src/draw/sw/lv_draw_sw_arc.c ****     lv_draw_mask_free_param(&mask_out_param);
 169:lvgl/src/draw/sw/lv_draw_sw_arc.c ****     if(mask_in_param_valid) {
 170:lvgl/src/draw/sw/lv_draw_sw_arc.c ****         lv_draw_mask_free_param(&mask_in_param);
 171:lvgl/src/draw/sw/lv_draw_sw_arc.c ****     }
 172:lvgl/src/draw/sw/lv_draw_sw_arc.c **** 
 173:lvgl/src/draw/sw/lv_draw_sw_arc.c ****     lv_draw_mask_remove_id(mask_angle_id);
 174:lvgl/src/draw/sw/lv_draw_sw_arc.c ****     lv_draw_mask_remove_id(mask_out_id);
 175:lvgl/src/draw/sw/lv_draw_sw_arc.c ****     if(mask_in_id != LV_MASK_ID_INV) lv_draw_mask_remove_id(mask_in_id);
 176:lvgl/src/draw/sw/lv_draw_sw_arc.c **** 
 177:lvgl/src/draw/sw/lv_draw_sw_arc.c ****     if(dsc->rounded) {
 178:lvgl/src/draw/sw/lv_draw_sw_arc.c **** 
 179:lvgl/src/draw/sw/lv_draw_sw_arc.c ****         lv_draw_mask_radius_param_t mask_end_param;
 180:lvgl/src/draw/sw/lv_draw_sw_arc.c **** 
 181:lvgl/src/draw/sw/lv_draw_sw_arc.c ****         lv_area_t round_area;
 182:lvgl/src/draw/sw/lv_draw_sw_arc.c ****         get_rounded_area(start_angle, radius, width, &round_area);
 183:lvgl/src/draw/sw/lv_draw_sw_arc.c ****         round_area.x1 += center->x;
 184:lvgl/src/draw/sw/lv_draw_sw_arc.c ****         round_area.x2 += center->x;
 185:lvgl/src/draw/sw/lv_draw_sw_arc.c ****         round_area.y1 += center->y;
 186:lvgl/src/draw/sw/lv_draw_sw_arc.c ****         round_area.y2 += center->y;
 187:lvgl/src/draw/sw/lv_draw_sw_arc.c ****         lv_area_t clip_area2;
 188:lvgl/src/draw/sw/lv_draw_sw_arc.c ****         if(_lv_area_intersect(&clip_area2, clip_area_ori, &round_area)) {
 189:lvgl/src/draw/sw/lv_draw_sw_arc.c ****             lv_draw_mask_radius_init(&mask_end_param, &round_area, LV_RADIUS_CIRCLE, false);
 190:lvgl/src/draw/sw/lv_draw_sw_arc.c ****             int16_t mask_end_id = lv_draw_mask_add(&mask_end_param, NULL);
 191:lvgl/src/draw/sw/lv_draw_sw_arc.c **** 
 192:lvgl/src/draw/sw/lv_draw_sw_arc.c ****             draw_ctx->clip_area = &clip_area2;
 193:lvgl/src/draw/sw/lv_draw_sw_arc.c ****             lv_draw_rect(draw_ctx, &cir_dsc, &area_out);
 194:lvgl/src/draw/sw/lv_draw_sw_arc.c ****             lv_draw_mask_remove_id(mask_end_id);
 195:lvgl/src/draw/sw/lv_draw_sw_arc.c ****             lv_draw_mask_free_param(&mask_end_param);
 196:lvgl/src/draw/sw/lv_draw_sw_arc.c ****         }
 197:lvgl/src/draw/sw/lv_draw_sw_arc.c **** 
 198:lvgl/src/draw/sw/lv_draw_sw_arc.c ****         get_rounded_area(end_angle, radius, width, &round_area);
 199:lvgl/src/draw/sw/lv_draw_sw_arc.c ****         round_area.x1 += center->x;
 200:lvgl/src/draw/sw/lv_draw_sw_arc.c ****         round_area.x2 += center->x;
 201:lvgl/src/draw/sw/lv_draw_sw_arc.c ****         round_area.y1 += center->y;
ARM GAS  /var/folders/21/t9g5rlb91ys800n5npymflf80000gn/T//ccb1YJg7.s 			page 5


 202:lvgl/src/draw/sw/lv_draw_sw_arc.c ****         round_area.y2 += center->y;
 203:lvgl/src/draw/sw/lv_draw_sw_arc.c ****         if(_lv_area_intersect(&clip_area2, clip_area_ori, &round_area)) {
 204:lvgl/src/draw/sw/lv_draw_sw_arc.c ****             lv_draw_mask_radius_init(&mask_end_param, &round_area, LV_RADIUS_CIRCLE, false);
 205:lvgl/src/draw/sw/lv_draw_sw_arc.c ****             int16_t mask_end_id = lv_draw_mask_add(&mask_end_param, NULL);
 206:lvgl/src/draw/sw/lv_draw_sw_arc.c **** 
 207:lvgl/src/draw/sw/lv_draw_sw_arc.c ****             draw_ctx->clip_area = &clip_area2;
 208:lvgl/src/draw/sw/lv_draw_sw_arc.c ****             lv_draw_rect(draw_ctx, &cir_dsc, &area_out);
 209:lvgl/src/draw/sw/lv_draw_sw_arc.c ****             lv_draw_mask_remove_id(mask_end_id);
 210:lvgl/src/draw/sw/lv_draw_sw_arc.c ****             lv_draw_mask_free_param(&mask_end_param);
 211:lvgl/src/draw/sw/lv_draw_sw_arc.c ****         }
 212:lvgl/src/draw/sw/lv_draw_sw_arc.c ****         draw_ctx->clip_area = clip_area_ori;
 213:lvgl/src/draw/sw/lv_draw_sw_arc.c ****     }
 214:lvgl/src/draw/sw/lv_draw_sw_arc.c **** #else
 215:lvgl/src/draw/sw/lv_draw_sw_arc.c ****     LV_LOG_WARN("Can't draw arc with LV_DRAW_COMPLEX == 0");
 216:lvgl/src/draw/sw/lv_draw_sw_arc.c ****     LV_UNUSED(center);
 217:lvgl/src/draw/sw/lv_draw_sw_arc.c ****     LV_UNUSED(radius);
 218:lvgl/src/draw/sw/lv_draw_sw_arc.c ****     LV_UNUSED(start_angle);
 219:lvgl/src/draw/sw/lv_draw_sw_arc.c ****     LV_UNUSED(end_angle);
 220:lvgl/src/draw/sw/lv_draw_sw_arc.c ****     LV_UNUSED(draw_ctx);
 221:lvgl/src/draw/sw/lv_draw_sw_arc.c ****     LV_UNUSED(dsc);
 222:lvgl/src/draw/sw/lv_draw_sw_arc.c **** #endif /*LV_DRAW_COMPLEX*/
 223:lvgl/src/draw/sw/lv_draw_sw_arc.c **** }
 224:lvgl/src/draw/sw/lv_draw_sw_arc.c **** 
 225:lvgl/src/draw/sw/lv_draw_sw_arc.c **** /**********************
 226:lvgl/src/draw/sw/lv_draw_sw_arc.c ****  *   STATIC FUNCTIONS
 227:lvgl/src/draw/sw/lv_draw_sw_arc.c ****  **********************/
 228:lvgl/src/draw/sw/lv_draw_sw_arc.c **** 
 229:lvgl/src/draw/sw/lv_draw_sw_arc.c **** #if LV_DRAW_COMPLEX
 230:lvgl/src/draw/sw/lv_draw_sw_arc.c **** static void draw_quarter_0(quarter_draw_dsc_t * q)
 231:lvgl/src/draw/sw/lv_draw_sw_arc.c **** {
  29              		.loc 1 231 1 view -0
  30              		.cfi_startproc
  31              		@ args = 0, pretend = 0, frame = 8
  32              		@ frame_needed = 0, uses_anonymous_args = 0
  33              		.loc 1 231 1 is_stmt 0 view .LVU1
  34 0000 70B5     		push	{r4, r5, r6, lr}
  35              	.LCFI0:
  36              		.cfi_def_cfa_offset 16
  37              		.cfi_offset 4, -16
  38              		.cfi_offset 5, -12
  39              		.cfi_offset 6, -8
  40              		.cfi_offset 14, -4
  41 0002 82B0     		sub	sp, sp, #8
  42              	.LCFI1:
  43              		.cfi_def_cfa_offset 24
  44 0004 0446     		mov	r4, r0
 232:lvgl/src/draw/sw/lv_draw_sw_arc.c ****     const lv_area_t * clip_area_ori = q->draw_ctx->clip_area;
  45              		.loc 1 232 5 is_stmt 1 view .LVU2
  46              		.loc 1 232 40 is_stmt 0 view .LVU3
  47 0006 8369     		ldr	r3, [r0, #24]
  48              		.loc 1 232 23 view .LVU4
  49 0008 9D68     		ldr	r5, [r3, #8]
  50              	.LVL1:
 233:lvgl/src/draw/sw/lv_draw_sw_arc.c ****     lv_area_t quarter_area;
  51              		.loc 1 233 5 is_stmt 1 view .LVU5
 234:lvgl/src/draw/sw/lv_draw_sw_arc.c **** 
 235:lvgl/src/draw/sw/lv_draw_sw_arc.c ****     if(q->start_quarter == 0 && q->end_quarter == 0 && q->start_angle < q->end_angle) {
ARM GAS  /var/folders/21/t9g5rlb91ys800n5npymflf80000gn/T//ccb1YJg7.s 			page 6


  52              		.loc 1 235 5 view .LVU6
  53              		.loc 1 235 9 is_stmt 0 view .LVU7
  54 000a 4389     		ldrh	r3, [r0, #10]
  55              		.loc 1 235 7 view .LVU8
  56 000c 2BB9     		cbnz	r3, .L2
  57              		.loc 1 235 34 discriminator 1 view .LVU9
  58 000e 8289     		ldrh	r2, [r0, #12]
  59              		.loc 1 235 30 discriminator 1 view .LVU10
  60 0010 1AB9     		cbnz	r2, .L2
  61              		.loc 1 235 57 discriminator 2 view .LVU11
  62 0012 C088     		ldrh	r0, [r0, #6]
  63              	.LVL2:
  64              		.loc 1 235 74 discriminator 2 view .LVU12
  65 0014 2289     		ldrh	r2, [r4, #8]
  66              		.loc 1 235 53 discriminator 2 view .LVU13
  67 0016 9042     		cmp	r0, r2
  68 0018 0ED3     		bcc	.L12
  69              	.L2:
 236:lvgl/src/draw/sw/lv_draw_sw_arc.c ****         /*Small arc here*/
 237:lvgl/src/draw/sw/lv_draw_sw_arc.c ****         quarter_area.y1 = q->center->y + ((lv_trigo_sin(q->start_angle) * (q->radius - q->width)) >
 238:lvgl/src/draw/sw/lv_draw_sw_arc.c ****         quarter_area.x2 = q->center->x + ((lv_trigo_sin(q->start_angle + 90) * (q->radius)) >> LV_T
 239:lvgl/src/draw/sw/lv_draw_sw_arc.c **** 
 240:lvgl/src/draw/sw/lv_draw_sw_arc.c ****         quarter_area.y2 = q->center->y + ((lv_trigo_sin(q->end_angle) * q->radius) >> LV_TRIGO_SHIF
 241:lvgl/src/draw/sw/lv_draw_sw_arc.c ****         quarter_area.x1 = q->center->x + ((lv_trigo_sin(q->end_angle + 90) * (q->radius - q->width)
 242:lvgl/src/draw/sw/lv_draw_sw_arc.c **** 
 243:lvgl/src/draw/sw/lv_draw_sw_arc.c ****         bool ok = _lv_area_intersect(&quarter_area, &quarter_area, clip_area_ori);
 244:lvgl/src/draw/sw/lv_draw_sw_arc.c ****         if(ok) {
 245:lvgl/src/draw/sw/lv_draw_sw_arc.c ****             q->draw_ctx->clip_area = &quarter_area;
 246:lvgl/src/draw/sw/lv_draw_sw_arc.c ****             lv_draw_rect(q->draw_ctx, q->draw_dsc, q->draw_area);
 247:lvgl/src/draw/sw/lv_draw_sw_arc.c ****         }
 248:lvgl/src/draw/sw/lv_draw_sw_arc.c ****     }
 249:lvgl/src/draw/sw/lv_draw_sw_arc.c ****     else if(q->start_quarter == 0 || q->end_quarter == 0) {
  70              		.loc 1 249 10 is_stmt 1 view .LVU14
  71              		.loc 1 249 12 is_stmt 0 view .LVU15
  72 001a 1BB1     		cbz	r3, .L4
  73              		.loc 1 249 39 discriminator 1 view .LVU16
  74 001c A289     		ldrh	r2, [r4, #12]
  75              		.loc 1 249 35 discriminator 1 view .LVU17
  76 001e 002A     		cmp	r2, #0
  77 0020 40F0CD80 		bne	.L5
  78              	.L4:
 250:lvgl/src/draw/sw/lv_draw_sw_arc.c ****         /*Start and/or end arcs here*/
 251:lvgl/src/draw/sw/lv_draw_sw_arc.c ****         if(q->start_quarter == 0) {
  79              		.loc 1 251 9 is_stmt 1 view .LVU18
  80              		.loc 1 251 11 is_stmt 0 view .LVU19
  81 0024 002B     		cmp	r3, #0
  82 0026 56D0     		beq	.L13
  83              	.L6:
 252:lvgl/src/draw/sw/lv_draw_sw_arc.c ****             quarter_area.x1 = q->center->x;
 253:lvgl/src/draw/sw/lv_draw_sw_arc.c ****             quarter_area.y2 = q->center->y + q->radius;
 254:lvgl/src/draw/sw/lv_draw_sw_arc.c **** 
 255:lvgl/src/draw/sw/lv_draw_sw_arc.c ****             quarter_area.y1 = q->center->y + ((lv_trigo_sin(q->start_angle) * (q->radius - q->width
 256:lvgl/src/draw/sw/lv_draw_sw_arc.c ****             quarter_area.x2 = q->center->x + ((lv_trigo_sin(q->start_angle + 90) * (q->radius)) >> 
 257:lvgl/src/draw/sw/lv_draw_sw_arc.c **** 
 258:lvgl/src/draw/sw/lv_draw_sw_arc.c ****             bool ok = _lv_area_intersect(&quarter_area, &quarter_area, clip_area_ori);
 259:lvgl/src/draw/sw/lv_draw_sw_arc.c ****             if(ok) {
 260:lvgl/src/draw/sw/lv_draw_sw_arc.c ****                 q->draw_ctx->clip_area = &quarter_area;
ARM GAS  /var/folders/21/t9g5rlb91ys800n5npymflf80000gn/T//ccb1YJg7.s 			page 7


 261:lvgl/src/draw/sw/lv_draw_sw_arc.c ****                 lv_draw_rect(q->draw_ctx, q->draw_dsc, q->draw_area);
 262:lvgl/src/draw/sw/lv_draw_sw_arc.c ****             }
 263:lvgl/src/draw/sw/lv_draw_sw_arc.c ****         }
 264:lvgl/src/draw/sw/lv_draw_sw_arc.c ****         if(q->end_quarter == 0) {
  84              		.loc 1 264 9 is_stmt 1 view .LVU20
  85              		.loc 1 264 13 is_stmt 0 view .LVU21
  86 0028 A389     		ldrh	r3, [r4, #12]
  87              		.loc 1 264 11 view .LVU22
  88 002a 002B     		cmp	r3, #0
  89 002c 00F08D80 		beq	.L14
  90              	.L3:
 265:lvgl/src/draw/sw/lv_draw_sw_arc.c ****             quarter_area.x2 = q->center->x + q->radius;
 266:lvgl/src/draw/sw/lv_draw_sw_arc.c ****             quarter_area.y1 = q->center->y;
 267:lvgl/src/draw/sw/lv_draw_sw_arc.c **** 
 268:lvgl/src/draw/sw/lv_draw_sw_arc.c ****             quarter_area.y2 = q->center->y + ((lv_trigo_sin(q->end_angle) * q->radius) >> LV_TRIGO_
 269:lvgl/src/draw/sw/lv_draw_sw_arc.c ****             quarter_area.x1 = q->center->x + ((lv_trigo_sin(q->end_angle + 90) * (q->radius - q->wi
 270:lvgl/src/draw/sw/lv_draw_sw_arc.c **** 
 271:lvgl/src/draw/sw/lv_draw_sw_arc.c ****             bool ok = _lv_area_intersect(&quarter_area, &quarter_area, clip_area_ori);
 272:lvgl/src/draw/sw/lv_draw_sw_arc.c ****             if(ok) {
 273:lvgl/src/draw/sw/lv_draw_sw_arc.c ****                 q->draw_ctx->clip_area = &quarter_area;
 274:lvgl/src/draw/sw/lv_draw_sw_arc.c ****                 lv_draw_rect(q->draw_ctx, q->draw_dsc, q->draw_area);
 275:lvgl/src/draw/sw/lv_draw_sw_arc.c ****             }
 276:lvgl/src/draw/sw/lv_draw_sw_arc.c ****         }
 277:lvgl/src/draw/sw/lv_draw_sw_arc.c ****     }
 278:lvgl/src/draw/sw/lv_draw_sw_arc.c ****     else if((q->start_quarter == q->end_quarter && q->start_quarter != 0 && q->end_angle < q->start
 279:lvgl/src/draw/sw/lv_draw_sw_arc.c ****             (q->start_quarter == 2 && q->end_quarter == 1) ||
 280:lvgl/src/draw/sw/lv_draw_sw_arc.c ****             (q->start_quarter == 3 && q->end_quarter == 2) ||
 281:lvgl/src/draw/sw/lv_draw_sw_arc.c ****             (q->start_quarter == 3 && q->end_quarter == 1)) {
 282:lvgl/src/draw/sw/lv_draw_sw_arc.c ****         /*Arc crosses here*/
 283:lvgl/src/draw/sw/lv_draw_sw_arc.c ****         quarter_area.x1 = q->center->x;
 284:lvgl/src/draw/sw/lv_draw_sw_arc.c ****         quarter_area.y1 = q->center->y;
 285:lvgl/src/draw/sw/lv_draw_sw_arc.c ****         quarter_area.x2 = q->center->x + q->radius;
 286:lvgl/src/draw/sw/lv_draw_sw_arc.c ****         quarter_area.y2 = q->center->y + q->radius;
 287:lvgl/src/draw/sw/lv_draw_sw_arc.c **** 
 288:lvgl/src/draw/sw/lv_draw_sw_arc.c ****         bool ok = _lv_area_intersect(&quarter_area, &quarter_area, clip_area_ori);
 289:lvgl/src/draw/sw/lv_draw_sw_arc.c ****         if(ok) {
 290:lvgl/src/draw/sw/lv_draw_sw_arc.c ****             q->draw_ctx->clip_area = &quarter_area;
 291:lvgl/src/draw/sw/lv_draw_sw_arc.c ****             lv_draw_rect(q->draw_ctx, q->draw_dsc, q->draw_area);
 292:lvgl/src/draw/sw/lv_draw_sw_arc.c ****         }
 293:lvgl/src/draw/sw/lv_draw_sw_arc.c ****     }
 294:lvgl/src/draw/sw/lv_draw_sw_arc.c ****     q->draw_ctx->clip_area = clip_area_ori;
  91              		.loc 1 294 5 is_stmt 1 view .LVU23
  92              		.loc 1 294 6 is_stmt 0 view .LVU24
  93 0030 A369     		ldr	r3, [r4, #24]
  94              		.loc 1 294 28 view .LVU25
  95 0032 9D60     		str	r5, [r3, #8]
 295:lvgl/src/draw/sw/lv_draw_sw_arc.c **** }
  96              		.loc 1 295 1 view .LVU26
  97 0034 02B0     		add	sp, sp, #8
  98              	.LCFI2:
  99              		.cfi_remember_state
 100              		.cfi_def_cfa_offset 16
 101              		@ sp needed
 102 0036 70BD     		pop	{r4, r5, r6, pc}
 103              	.LVL3:
 104              	.L12:
 105              	.LCFI3:
ARM GAS  /var/folders/21/t9g5rlb91ys800n5npymflf80000gn/T//ccb1YJg7.s 			page 8


 106              		.cfi_restore_state
 107              	.LBB12:
 237:lvgl/src/draw/sw/lv_draw_sw_arc.c ****         quarter_area.x2 = q->center->x + ((lv_trigo_sin(q->start_angle + 90) * (q->radius)) >> LV_T
 108              		.loc 1 237 9 is_stmt 1 view .LVU27
 237:lvgl/src/draw/sw/lv_draw_sw_arc.c ****         quarter_area.x2 = q->center->x + ((lv_trigo_sin(q->start_angle + 90) * (q->radius)) >> LV_T
 109              		.loc 1 237 28 is_stmt 0 view .LVU28
 110 0038 2368     		ldr	r3, [r4]
 237:lvgl/src/draw/sw/lv_draw_sw_arc.c ****         quarter_area.x2 = q->center->x + ((lv_trigo_sin(q->start_angle + 90) * (q->radius)) >> LV_T
 111              		.loc 1 237 36 view .LVU29
 112 003a 5E88     		ldrh	r6, [r3, #2]
 237:lvgl/src/draw/sw/lv_draw_sw_arc.c ****         quarter_area.x2 = q->center->x + ((lv_trigo_sin(q->start_angle + 90) * (q->radius)) >> LV_T
 113              		.loc 1 237 44 view .LVU30
 114 003c 00B2     		sxth	r0, r0
 115 003e FFF7FEFF 		bl	lv_trigo_sin
 116              	.LVL4:
 237:lvgl/src/draw/sw/lv_draw_sw_arc.c ****         quarter_area.x2 = q->center->x + ((lv_trigo_sin(q->start_angle + 90) * (q->radius)) >> LV_T
 117              		.loc 1 237 77 view .LVU31
 118 0042 B4F90430 		ldrsh	r3, [r4, #4]
 237:lvgl/src/draw/sw/lv_draw_sw_arc.c ****         quarter_area.x2 = q->center->x + ((lv_trigo_sin(q->start_angle + 90) * (q->radius)) >> LV_T
 119              		.loc 1 237 89 view .LVU32
 120 0046 B4F90E20 		ldrsh	r2, [r4, #14]
 237:lvgl/src/draw/sw/lv_draw_sw_arc.c ****         quarter_area.x2 = q->center->x + ((lv_trigo_sin(q->start_angle + 90) * (q->radius)) >> LV_T
 121              		.loc 1 237 86 view .LVU33
 122 004a 9B1A     		subs	r3, r3, r2
 237:lvgl/src/draw/sw/lv_draw_sw_arc.c ****         quarter_area.x2 = q->center->x + ((lv_trigo_sin(q->start_angle + 90) * (q->radius)) >> LV_T
 123              		.loc 1 237 73 view .LVU34
 124 004c 03FB00F0 		mul	r0, r3, r0
 237:lvgl/src/draw/sw/lv_draw_sw_arc.c ****         quarter_area.x2 = q->center->x + ((lv_trigo_sin(q->start_angle + 90) * (q->radius)) >> LV_T
 125              		.loc 1 237 40 view .LVU35
 126 0050 06EBE036 		add	r6, r6, r0, asr #15
 237:lvgl/src/draw/sw/lv_draw_sw_arc.c ****         quarter_area.x2 = q->center->x + ((lv_trigo_sin(q->start_angle + 90) * (q->radius)) >> LV_T
 127              		.loc 1 237 25 view .LVU36
 128 0054 ADF80260 		strh	r6, [sp, #2]	@ movhi
 238:lvgl/src/draw/sw/lv_draw_sw_arc.c **** 
 129              		.loc 1 238 9 is_stmt 1 view .LVU37
 238:lvgl/src/draw/sw/lv_draw_sw_arc.c **** 
 130              		.loc 1 238 28 is_stmt 0 view .LVU38
 131 0058 2368     		ldr	r3, [r4]
 238:lvgl/src/draw/sw/lv_draw_sw_arc.c **** 
 132              		.loc 1 238 36 view .LVU39
 133 005a 1E88     		ldrh	r6, [r3]
 238:lvgl/src/draw/sw/lv_draw_sw_arc.c **** 
 134              		.loc 1 238 58 view .LVU40
 135 005c E088     		ldrh	r0, [r4, #6]
 238:lvgl/src/draw/sw/lv_draw_sw_arc.c **** 
 136              		.loc 1 238 72 view .LVU41
 137 005e 5A30     		adds	r0, r0, #90
 238:lvgl/src/draw/sw/lv_draw_sw_arc.c **** 
 138              		.loc 1 238 44 view .LVU42
 139 0060 00B2     		sxth	r0, r0
 140 0062 FFF7FEFF 		bl	lv_trigo_sin
 141              	.LVL5:
 238:lvgl/src/draw/sw/lv_draw_sw_arc.c **** 
 142              		.loc 1 238 82 view .LVU43
 143 0066 B4F90430 		ldrsh	r3, [r4, #4]
 238:lvgl/src/draw/sw/lv_draw_sw_arc.c **** 
 144              		.loc 1 238 78 view .LVU44
ARM GAS  /var/folders/21/t9g5rlb91ys800n5npymflf80000gn/T//ccb1YJg7.s 			page 9


 145 006a 03FB00F0 		mul	r0, r3, r0
 238:lvgl/src/draw/sw/lv_draw_sw_arc.c **** 
 146              		.loc 1 238 40 view .LVU45
 147 006e 06EBE036 		add	r6, r6, r0, asr #15
 238:lvgl/src/draw/sw/lv_draw_sw_arc.c **** 
 148              		.loc 1 238 25 view .LVU46
 149 0072 ADF80460 		strh	r6, [sp, #4]	@ movhi
 240:lvgl/src/draw/sw/lv_draw_sw_arc.c ****         quarter_area.x1 = q->center->x + ((lv_trigo_sin(q->end_angle + 90) * (q->radius - q->width)
 150              		.loc 1 240 9 is_stmt 1 view .LVU47
 240:lvgl/src/draw/sw/lv_draw_sw_arc.c ****         quarter_area.x1 = q->center->x + ((lv_trigo_sin(q->end_angle + 90) * (q->radius - q->width)
 151              		.loc 1 240 28 is_stmt 0 view .LVU48
 152 0076 2368     		ldr	r3, [r4]
 240:lvgl/src/draw/sw/lv_draw_sw_arc.c ****         quarter_area.x1 = q->center->x + ((lv_trigo_sin(q->end_angle + 90) * (q->radius - q->width)
 153              		.loc 1 240 36 view .LVU49
 154 0078 5E88     		ldrh	r6, [r3, #2]
 240:lvgl/src/draw/sw/lv_draw_sw_arc.c ****         quarter_area.x1 = q->center->x + ((lv_trigo_sin(q->end_angle + 90) * (q->radius - q->width)
 155              		.loc 1 240 44 view .LVU50
 156 007a B4F90800 		ldrsh	r0, [r4, #8]
 157 007e FFF7FEFF 		bl	lv_trigo_sin
 158              	.LVL6:
 240:lvgl/src/draw/sw/lv_draw_sw_arc.c ****         quarter_area.x1 = q->center->x + ((lv_trigo_sin(q->end_angle + 90) * (q->radius - q->width)
 159              		.loc 1 240 74 view .LVU51
 160 0082 B4F90430 		ldrsh	r3, [r4, #4]
 240:lvgl/src/draw/sw/lv_draw_sw_arc.c ****         quarter_area.x1 = q->center->x + ((lv_trigo_sin(q->end_angle + 90) * (q->radius - q->width)
 161              		.loc 1 240 71 view .LVU52
 162 0086 03FB00F0 		mul	r0, r3, r0
 240:lvgl/src/draw/sw/lv_draw_sw_arc.c ****         quarter_area.x1 = q->center->x + ((lv_trigo_sin(q->end_angle + 90) * (q->radius - q->width)
 163              		.loc 1 240 40 view .LVU53
 164 008a 06EBE036 		add	r6, r6, r0, asr #15
 240:lvgl/src/draw/sw/lv_draw_sw_arc.c ****         quarter_area.x1 = q->center->x + ((lv_trigo_sin(q->end_angle + 90) * (q->radius - q->width)
 165              		.loc 1 240 25 view .LVU54
 166 008e ADF80660 		strh	r6, [sp, #6]	@ movhi
 241:lvgl/src/draw/sw/lv_draw_sw_arc.c **** 
 167              		.loc 1 241 9 is_stmt 1 view .LVU55
 241:lvgl/src/draw/sw/lv_draw_sw_arc.c **** 
 168              		.loc 1 241 28 is_stmt 0 view .LVU56
 169 0092 2368     		ldr	r3, [r4]
 241:lvgl/src/draw/sw/lv_draw_sw_arc.c **** 
 170              		.loc 1 241 36 view .LVU57
 171 0094 1E88     		ldrh	r6, [r3]
 241:lvgl/src/draw/sw/lv_draw_sw_arc.c **** 
 172              		.loc 1 241 58 view .LVU58
 173 0096 2089     		ldrh	r0, [r4, #8]
 241:lvgl/src/draw/sw/lv_draw_sw_arc.c **** 
 174              		.loc 1 241 70 view .LVU59
 175 0098 5A30     		adds	r0, r0, #90
 241:lvgl/src/draw/sw/lv_draw_sw_arc.c **** 
 176              		.loc 1 241 44 view .LVU60
 177 009a 00B2     		sxth	r0, r0
 178 009c FFF7FEFF 		bl	lv_trigo_sin
 179              	.LVL7:
 241:lvgl/src/draw/sw/lv_draw_sw_arc.c **** 
 180              		.loc 1 241 80 view .LVU61
 181 00a0 B4F90430 		ldrsh	r3, [r4, #4]
 241:lvgl/src/draw/sw/lv_draw_sw_arc.c **** 
 182              		.loc 1 241 92 view .LVU62
 183 00a4 B4F90E20 		ldrsh	r2, [r4, #14]
ARM GAS  /var/folders/21/t9g5rlb91ys800n5npymflf80000gn/T//ccb1YJg7.s 			page 10


 241:lvgl/src/draw/sw/lv_draw_sw_arc.c **** 
 184              		.loc 1 241 89 view .LVU63
 185 00a8 9B1A     		subs	r3, r3, r2
 241:lvgl/src/draw/sw/lv_draw_sw_arc.c **** 
 186              		.loc 1 241 76 view .LVU64
 187 00aa 03FB00F0 		mul	r0, r3, r0
 241:lvgl/src/draw/sw/lv_draw_sw_arc.c **** 
 188              		.loc 1 241 40 view .LVU65
 189 00ae 06EBE036 		add	r6, r6, r0, asr #15
 241:lvgl/src/draw/sw/lv_draw_sw_arc.c **** 
 190              		.loc 1 241 25 view .LVU66
 191 00b2 ADF80060 		strh	r6, [sp]	@ movhi
 243:lvgl/src/draw/sw/lv_draw_sw_arc.c ****         if(ok) {
 192              		.loc 1 243 9 is_stmt 1 view .LVU67
 243:lvgl/src/draw/sw/lv_draw_sw_arc.c ****         if(ok) {
 193              		.loc 1 243 19 is_stmt 0 view .LVU68
 194 00b6 2A46     		mov	r2, r5
 195 00b8 6946     		mov	r1, sp
 196 00ba 6846     		mov	r0, sp
 197 00bc FFF7FEFF 		bl	_lv_area_intersect
 198              	.LVL8:
 244:lvgl/src/draw/sw/lv_draw_sw_arc.c ****             q->draw_ctx->clip_area = &quarter_area;
 199              		.loc 1 244 9 is_stmt 1 view .LVU69
 244:lvgl/src/draw/sw/lv_draw_sw_arc.c ****             q->draw_ctx->clip_area = &quarter_area;
 200              		.loc 1 244 11 is_stmt 0 view .LVU70
 201 00c0 0028     		cmp	r0, #0
 202 00c2 B5D0     		beq	.L3
 245:lvgl/src/draw/sw/lv_draw_sw_arc.c ****             lv_draw_rect(q->draw_ctx, q->draw_dsc, q->draw_area);
 203              		.loc 1 245 13 is_stmt 1 view .LVU71
 245:lvgl/src/draw/sw/lv_draw_sw_arc.c ****             lv_draw_rect(q->draw_ctx, q->draw_dsc, q->draw_area);
 204              		.loc 1 245 14 is_stmt 0 view .LVU72
 205 00c4 A369     		ldr	r3, [r4, #24]
 245:lvgl/src/draw/sw/lv_draw_sw_arc.c ****             lv_draw_rect(q->draw_ctx, q->draw_dsc, q->draw_area);
 206              		.loc 1 245 36 view .LVU73
 207 00c6 C3F808D0 		str	sp, [r3, #8]
 246:lvgl/src/draw/sw/lv_draw_sw_arc.c ****         }
 208              		.loc 1 246 13 is_stmt 1 view .LVU74
 209 00ca 6269     		ldr	r2, [r4, #20]
 210 00cc 2169     		ldr	r1, [r4, #16]
 211 00ce A069     		ldr	r0, [r4, #24]
 212              	.LVL9:
 246:lvgl/src/draw/sw/lv_draw_sw_arc.c ****         }
 213              		.loc 1 246 13 is_stmt 0 view .LVU75
 214 00d0 FFF7FEFF 		bl	lv_draw_rect
 215              	.LVL10:
 216 00d4 ACE7     		b	.L3
 217              	.LVL11:
 218              	.L13:
 246:lvgl/src/draw/sw/lv_draw_sw_arc.c ****         }
 219              		.loc 1 246 13 view .LVU76
 220              	.LBE12:
 221              	.LBB13:
 252:lvgl/src/draw/sw/lv_draw_sw_arc.c ****             quarter_area.y2 = q->center->y + q->radius;
 222              		.loc 1 252 13 is_stmt 1 view .LVU77
 252:lvgl/src/draw/sw/lv_draw_sw_arc.c ****             quarter_area.y2 = q->center->y + q->radius;
 223              		.loc 1 252 32 is_stmt 0 view .LVU78
 224 00d6 2368     		ldr	r3, [r4]
ARM GAS  /var/folders/21/t9g5rlb91ys800n5npymflf80000gn/T//ccb1YJg7.s 			page 11


 252:lvgl/src/draw/sw/lv_draw_sw_arc.c ****             quarter_area.y2 = q->center->y + q->radius;
 225              		.loc 1 252 40 view .LVU79
 226 00d8 B3F90020 		ldrsh	r2, [r3]
 252:lvgl/src/draw/sw/lv_draw_sw_arc.c ****             quarter_area.y2 = q->center->y + q->radius;
 227              		.loc 1 252 29 view .LVU80
 228 00dc ADF80020 		strh	r2, [sp]	@ movhi
 253:lvgl/src/draw/sw/lv_draw_sw_arc.c **** 
 229              		.loc 1 253 13 is_stmt 1 view .LVU81
 253:lvgl/src/draw/sw/lv_draw_sw_arc.c **** 
 230              		.loc 1 253 40 is_stmt 0 view .LVU82
 231 00e0 5A88     		ldrh	r2, [r3, #2]
 253:lvgl/src/draw/sw/lv_draw_sw_arc.c **** 
 232              		.loc 1 253 47 view .LVU83
 233 00e2 A188     		ldrh	r1, [r4, #4]
 253:lvgl/src/draw/sw/lv_draw_sw_arc.c **** 
 234              		.loc 1 253 44 view .LVU84
 235 00e4 0A44     		add	r2, r2, r1
 253:lvgl/src/draw/sw/lv_draw_sw_arc.c **** 
 236              		.loc 1 253 29 view .LVU85
 237 00e6 ADF80620 		strh	r2, [sp, #6]	@ movhi
 255:lvgl/src/draw/sw/lv_draw_sw_arc.c ****             quarter_area.x2 = q->center->x + ((lv_trigo_sin(q->start_angle + 90) * (q->radius)) >> 
 238              		.loc 1 255 13 is_stmt 1 view .LVU86
 255:lvgl/src/draw/sw/lv_draw_sw_arc.c ****             quarter_area.x2 = q->center->x + ((lv_trigo_sin(q->start_angle + 90) * (q->radius)) >> 
 239              		.loc 1 255 40 is_stmt 0 view .LVU87
 240 00ea 5E88     		ldrh	r6, [r3, #2]
 255:lvgl/src/draw/sw/lv_draw_sw_arc.c ****             quarter_area.x2 = q->center->x + ((lv_trigo_sin(q->start_angle + 90) * (q->radius)) >> 
 241              		.loc 1 255 48 view .LVU88
 242 00ec B4F90600 		ldrsh	r0, [r4, #6]
 243 00f0 FFF7FEFF 		bl	lv_trigo_sin
 244              	.LVL12:
 255:lvgl/src/draw/sw/lv_draw_sw_arc.c ****             quarter_area.x2 = q->center->x + ((lv_trigo_sin(q->start_angle + 90) * (q->radius)) >> 
 245              		.loc 1 255 81 view .LVU89
 246 00f4 B4F90430 		ldrsh	r3, [r4, #4]
 255:lvgl/src/draw/sw/lv_draw_sw_arc.c ****             quarter_area.x2 = q->center->x + ((lv_trigo_sin(q->start_angle + 90) * (q->radius)) >> 
 247              		.loc 1 255 93 view .LVU90
 248 00f8 B4F90E20 		ldrsh	r2, [r4, #14]
 255:lvgl/src/draw/sw/lv_draw_sw_arc.c ****             quarter_area.x2 = q->center->x + ((lv_trigo_sin(q->start_angle + 90) * (q->radius)) >> 
 249              		.loc 1 255 90 view .LVU91
 250 00fc 9B1A     		subs	r3, r3, r2
 255:lvgl/src/draw/sw/lv_draw_sw_arc.c ****             quarter_area.x2 = q->center->x + ((lv_trigo_sin(q->start_angle + 90) * (q->radius)) >> 
 251              		.loc 1 255 77 view .LVU92
 252 00fe 03FB00F0 		mul	r0, r3, r0
 255:lvgl/src/draw/sw/lv_draw_sw_arc.c ****             quarter_area.x2 = q->center->x + ((lv_trigo_sin(q->start_angle + 90) * (q->radius)) >> 
 253              		.loc 1 255 44 view .LVU93
 254 0102 06EBE036 		add	r6, r6, r0, asr #15
 255:lvgl/src/draw/sw/lv_draw_sw_arc.c ****             quarter_area.x2 = q->center->x + ((lv_trigo_sin(q->start_angle + 90) * (q->radius)) >> 
 255              		.loc 1 255 29 view .LVU94
 256 0106 ADF80260 		strh	r6, [sp, #2]	@ movhi
 256:lvgl/src/draw/sw/lv_draw_sw_arc.c **** 
 257              		.loc 1 256 13 is_stmt 1 view .LVU95
 256:lvgl/src/draw/sw/lv_draw_sw_arc.c **** 
 258              		.loc 1 256 32 is_stmt 0 view .LVU96
 259 010a 2368     		ldr	r3, [r4]
 256:lvgl/src/draw/sw/lv_draw_sw_arc.c **** 
 260              		.loc 1 256 40 view .LVU97
 261 010c 1E88     		ldrh	r6, [r3]
 256:lvgl/src/draw/sw/lv_draw_sw_arc.c **** 
ARM GAS  /var/folders/21/t9g5rlb91ys800n5npymflf80000gn/T//ccb1YJg7.s 			page 12


 262              		.loc 1 256 62 view .LVU98
 263 010e E088     		ldrh	r0, [r4, #6]
 256:lvgl/src/draw/sw/lv_draw_sw_arc.c **** 
 264              		.loc 1 256 76 view .LVU99
 265 0110 5A30     		adds	r0, r0, #90
 256:lvgl/src/draw/sw/lv_draw_sw_arc.c **** 
 266              		.loc 1 256 48 view .LVU100
 267 0112 00B2     		sxth	r0, r0
 268 0114 FFF7FEFF 		bl	lv_trigo_sin
 269              	.LVL13:
 256:lvgl/src/draw/sw/lv_draw_sw_arc.c **** 
 270              		.loc 1 256 86 view .LVU101
 271 0118 B4F90430 		ldrsh	r3, [r4, #4]
 256:lvgl/src/draw/sw/lv_draw_sw_arc.c **** 
 272              		.loc 1 256 82 view .LVU102
 273 011c 03FB00F0 		mul	r0, r3, r0
 256:lvgl/src/draw/sw/lv_draw_sw_arc.c **** 
 274              		.loc 1 256 44 view .LVU103
 275 0120 06EBE036 		add	r6, r6, r0, asr #15
 256:lvgl/src/draw/sw/lv_draw_sw_arc.c **** 
 276              		.loc 1 256 29 view .LVU104
 277 0124 ADF80460 		strh	r6, [sp, #4]	@ movhi
 258:lvgl/src/draw/sw/lv_draw_sw_arc.c ****             if(ok) {
 278              		.loc 1 258 13 is_stmt 1 view .LVU105
 258:lvgl/src/draw/sw/lv_draw_sw_arc.c ****             if(ok) {
 279              		.loc 1 258 23 is_stmt 0 view .LVU106
 280 0128 2A46     		mov	r2, r5
 281 012a 6946     		mov	r1, sp
 282 012c 6846     		mov	r0, sp
 283 012e FFF7FEFF 		bl	_lv_area_intersect
 284              	.LVL14:
 259:lvgl/src/draw/sw/lv_draw_sw_arc.c ****                 q->draw_ctx->clip_area = &quarter_area;
 285              		.loc 1 259 13 is_stmt 1 view .LVU107
 259:lvgl/src/draw/sw/lv_draw_sw_arc.c ****                 q->draw_ctx->clip_area = &quarter_area;
 286              		.loc 1 259 15 is_stmt 0 view .LVU108
 287 0132 0028     		cmp	r0, #0
 288 0134 3FF478AF 		beq	.L6
 260:lvgl/src/draw/sw/lv_draw_sw_arc.c ****                 lv_draw_rect(q->draw_ctx, q->draw_dsc, q->draw_area);
 289              		.loc 1 260 17 is_stmt 1 view .LVU109
 260:lvgl/src/draw/sw/lv_draw_sw_arc.c ****                 lv_draw_rect(q->draw_ctx, q->draw_dsc, q->draw_area);
 290              		.loc 1 260 18 is_stmt 0 view .LVU110
 291 0138 A369     		ldr	r3, [r4, #24]
 260:lvgl/src/draw/sw/lv_draw_sw_arc.c ****                 lv_draw_rect(q->draw_ctx, q->draw_dsc, q->draw_area);
 292              		.loc 1 260 40 view .LVU111
 293 013a C3F808D0 		str	sp, [r3, #8]
 261:lvgl/src/draw/sw/lv_draw_sw_arc.c ****             }
 294              		.loc 1 261 17 is_stmt 1 view .LVU112
 295 013e 6269     		ldr	r2, [r4, #20]
 296 0140 2169     		ldr	r1, [r4, #16]
 297 0142 A069     		ldr	r0, [r4, #24]
 298              	.LVL15:
 261:lvgl/src/draw/sw/lv_draw_sw_arc.c ****             }
 299              		.loc 1 261 17 is_stmt 0 view .LVU113
 300 0144 FFF7FEFF 		bl	lv_draw_rect
 301              	.LVL16:
 302 0148 6EE7     		b	.L6
 303              	.LVL17:
ARM GAS  /var/folders/21/t9g5rlb91ys800n5npymflf80000gn/T//ccb1YJg7.s 			page 13


 304              	.L14:
 261:lvgl/src/draw/sw/lv_draw_sw_arc.c ****             }
 305              		.loc 1 261 17 view .LVU114
 306              	.LBE13:
 307              	.LBB14:
 265:lvgl/src/draw/sw/lv_draw_sw_arc.c ****             quarter_area.y1 = q->center->y;
 308              		.loc 1 265 13 is_stmt 1 view .LVU115
 265:lvgl/src/draw/sw/lv_draw_sw_arc.c ****             quarter_area.y1 = q->center->y;
 309              		.loc 1 265 32 is_stmt 0 view .LVU116
 310 014a 2368     		ldr	r3, [r4]
 265:lvgl/src/draw/sw/lv_draw_sw_arc.c ****             quarter_area.y1 = q->center->y;
 311              		.loc 1 265 40 view .LVU117
 312 014c 1A88     		ldrh	r2, [r3]
 265:lvgl/src/draw/sw/lv_draw_sw_arc.c ****             quarter_area.y1 = q->center->y;
 313              		.loc 1 265 47 view .LVU118
 314 014e A188     		ldrh	r1, [r4, #4]
 265:lvgl/src/draw/sw/lv_draw_sw_arc.c ****             quarter_area.y1 = q->center->y;
 315              		.loc 1 265 44 view .LVU119
 316 0150 0A44     		add	r2, r2, r1
 265:lvgl/src/draw/sw/lv_draw_sw_arc.c ****             quarter_area.y1 = q->center->y;
 317              		.loc 1 265 29 view .LVU120
 318 0152 ADF80420 		strh	r2, [sp, #4]	@ movhi
 266:lvgl/src/draw/sw/lv_draw_sw_arc.c **** 
 319              		.loc 1 266 13 is_stmt 1 view .LVU121
 266:lvgl/src/draw/sw/lv_draw_sw_arc.c **** 
 320              		.loc 1 266 40 is_stmt 0 view .LVU122
 321 0156 B3F90220 		ldrsh	r2, [r3, #2]
 266:lvgl/src/draw/sw/lv_draw_sw_arc.c **** 
 322              		.loc 1 266 29 view .LVU123
 323 015a ADF80220 		strh	r2, [sp, #2]	@ movhi
 268:lvgl/src/draw/sw/lv_draw_sw_arc.c ****             quarter_area.x1 = q->center->x + ((lv_trigo_sin(q->end_angle + 90) * (q->radius - q->wi
 324              		.loc 1 268 13 is_stmt 1 view .LVU124
 268:lvgl/src/draw/sw/lv_draw_sw_arc.c ****             quarter_area.x1 = q->center->x + ((lv_trigo_sin(q->end_angle + 90) * (q->radius - q->wi
 325              		.loc 1 268 40 is_stmt 0 view .LVU125
 326 015e 5E88     		ldrh	r6, [r3, #2]
 268:lvgl/src/draw/sw/lv_draw_sw_arc.c ****             quarter_area.x1 = q->center->x + ((lv_trigo_sin(q->end_angle + 90) * (q->radius - q->wi
 327              		.loc 1 268 48 view .LVU126
 328 0160 B4F90800 		ldrsh	r0, [r4, #8]
 329 0164 FFF7FEFF 		bl	lv_trigo_sin
 330              	.LVL18:
 268:lvgl/src/draw/sw/lv_draw_sw_arc.c ****             quarter_area.x1 = q->center->x + ((lv_trigo_sin(q->end_angle + 90) * (q->radius - q->wi
 331              		.loc 1 268 78 view .LVU127
 332 0168 B4F90430 		ldrsh	r3, [r4, #4]
 268:lvgl/src/draw/sw/lv_draw_sw_arc.c ****             quarter_area.x1 = q->center->x + ((lv_trigo_sin(q->end_angle + 90) * (q->radius - q->wi
 333              		.loc 1 268 75 view .LVU128
 334 016c 03FB00F0 		mul	r0, r3, r0
 268:lvgl/src/draw/sw/lv_draw_sw_arc.c ****             quarter_area.x1 = q->center->x + ((lv_trigo_sin(q->end_angle + 90) * (q->radius - q->wi
 335              		.loc 1 268 44 view .LVU129
 336 0170 06EBE036 		add	r6, r6, r0, asr #15
 268:lvgl/src/draw/sw/lv_draw_sw_arc.c ****             quarter_area.x1 = q->center->x + ((lv_trigo_sin(q->end_angle + 90) * (q->radius - q->wi
 337              		.loc 1 268 29 view .LVU130
 338 0174 ADF80660 		strh	r6, [sp, #6]	@ movhi
 269:lvgl/src/draw/sw/lv_draw_sw_arc.c **** 
 339              		.loc 1 269 13 is_stmt 1 view .LVU131
 269:lvgl/src/draw/sw/lv_draw_sw_arc.c **** 
 340              		.loc 1 269 32 is_stmt 0 view .LVU132
 341 0178 2368     		ldr	r3, [r4]
ARM GAS  /var/folders/21/t9g5rlb91ys800n5npymflf80000gn/T//ccb1YJg7.s 			page 14


 269:lvgl/src/draw/sw/lv_draw_sw_arc.c **** 
 342              		.loc 1 269 40 view .LVU133
 343 017a 1E88     		ldrh	r6, [r3]
 269:lvgl/src/draw/sw/lv_draw_sw_arc.c **** 
 344              		.loc 1 269 62 view .LVU134
 345 017c 2089     		ldrh	r0, [r4, #8]
 269:lvgl/src/draw/sw/lv_draw_sw_arc.c **** 
 346              		.loc 1 269 74 view .LVU135
 347 017e 5A30     		adds	r0, r0, #90
 269:lvgl/src/draw/sw/lv_draw_sw_arc.c **** 
 348              		.loc 1 269 48 view .LVU136
 349 0180 00B2     		sxth	r0, r0
 350 0182 FFF7FEFF 		bl	lv_trigo_sin
 351              	.LVL19:
 269:lvgl/src/draw/sw/lv_draw_sw_arc.c **** 
 352              		.loc 1 269 84 view .LVU137
 353 0186 B4F90430 		ldrsh	r3, [r4, #4]
 269:lvgl/src/draw/sw/lv_draw_sw_arc.c **** 
 354              		.loc 1 269 96 view .LVU138
 355 018a B4F90E20 		ldrsh	r2, [r4, #14]
 269:lvgl/src/draw/sw/lv_draw_sw_arc.c **** 
 356              		.loc 1 269 93 view .LVU139
 357 018e 9B1A     		subs	r3, r3, r2
 269:lvgl/src/draw/sw/lv_draw_sw_arc.c **** 
 358              		.loc 1 269 80 view .LVU140
 359 0190 03FB00F0 		mul	r0, r3, r0
 269:lvgl/src/draw/sw/lv_draw_sw_arc.c **** 
 360              		.loc 1 269 44 view .LVU141
 361 0194 06EBE036 		add	r6, r6, r0, asr #15
 269:lvgl/src/draw/sw/lv_draw_sw_arc.c **** 
 362              		.loc 1 269 29 view .LVU142
 363 0198 ADF80060 		strh	r6, [sp]	@ movhi
 271:lvgl/src/draw/sw/lv_draw_sw_arc.c ****             if(ok) {
 364              		.loc 1 271 13 is_stmt 1 view .LVU143
 271:lvgl/src/draw/sw/lv_draw_sw_arc.c ****             if(ok) {
 365              		.loc 1 271 23 is_stmt 0 view .LVU144
 366 019c 2A46     		mov	r2, r5
 367 019e 6946     		mov	r1, sp
 368 01a0 6846     		mov	r0, sp
 369 01a2 FFF7FEFF 		bl	_lv_area_intersect
 370              	.LVL20:
 272:lvgl/src/draw/sw/lv_draw_sw_arc.c ****                 q->draw_ctx->clip_area = &quarter_area;
 371              		.loc 1 272 13 is_stmt 1 view .LVU145
 272:lvgl/src/draw/sw/lv_draw_sw_arc.c ****                 q->draw_ctx->clip_area = &quarter_area;
 372              		.loc 1 272 15 is_stmt 0 view .LVU146
 373 01a6 0028     		cmp	r0, #0
 374 01a8 3FF442AF 		beq	.L3
 273:lvgl/src/draw/sw/lv_draw_sw_arc.c ****                 lv_draw_rect(q->draw_ctx, q->draw_dsc, q->draw_area);
 375              		.loc 1 273 17 is_stmt 1 view .LVU147
 273:lvgl/src/draw/sw/lv_draw_sw_arc.c ****                 lv_draw_rect(q->draw_ctx, q->draw_dsc, q->draw_area);
 376              		.loc 1 273 18 is_stmt 0 view .LVU148
 377 01ac A369     		ldr	r3, [r4, #24]
 273:lvgl/src/draw/sw/lv_draw_sw_arc.c ****                 lv_draw_rect(q->draw_ctx, q->draw_dsc, q->draw_area);
 378              		.loc 1 273 40 view .LVU149
 379 01ae C3F808D0 		str	sp, [r3, #8]
 274:lvgl/src/draw/sw/lv_draw_sw_arc.c ****             }
 380              		.loc 1 274 17 is_stmt 1 view .LVU150
ARM GAS  /var/folders/21/t9g5rlb91ys800n5npymflf80000gn/T//ccb1YJg7.s 			page 15


 381 01b2 6269     		ldr	r2, [r4, #20]
 382 01b4 2169     		ldr	r1, [r4, #16]
 383 01b6 A069     		ldr	r0, [r4, #24]
 384              	.LVL21:
 274:lvgl/src/draw/sw/lv_draw_sw_arc.c ****             }
 385              		.loc 1 274 17 is_stmt 0 view .LVU151
 386 01b8 FFF7FEFF 		bl	lv_draw_rect
 387              	.LVL22:
 388 01bc 38E7     		b	.L3
 389              	.LVL23:
 390              	.L5:
 274:lvgl/src/draw/sw/lv_draw_sw_arc.c ****             }
 391              		.loc 1 274 17 view .LVU152
 392              	.LBE14:
 278:lvgl/src/draw/sw/lv_draw_sw_arc.c ****             (q->start_quarter == 2 && q->end_quarter == 1) ||
 393              		.loc 1 278 10 is_stmt 1 view .LVU153
 278:lvgl/src/draw/sw/lv_draw_sw_arc.c ****             (q->start_quarter == 2 && q->end_quarter == 1) ||
 394              		.loc 1 278 12 is_stmt 0 view .LVU154
 395 01be 9342     		cmp	r3, r2
 396 01c0 0AD0     		beq	.L15
 397              	.L7:
 278:lvgl/src/draw/sw/lv_draw_sw_arc.c ****             (q->start_quarter == 2 && q->end_quarter == 1) ||
 398              		.loc 1 278 108 discriminator 5 view .LVU155
 399 01c2 022B     		cmp	r3, #2
 400 01c4 2FD0     		beq	.L16
 401              	.L9:
 279:lvgl/src/draw/sw/lv_draw_sw_arc.c ****             (q->start_quarter == 3 && q->end_quarter == 2) ||
 402              		.loc 1 279 60 discriminator 1 view .LVU156
 403 01c6 032B     		cmp	r3, #3
 404 01c8 30D0     		beq	.L17
 405              	.L10:
 280:lvgl/src/draw/sw/lv_draw_sw_arc.c ****             (q->start_quarter == 3 && q->end_quarter == 1)) {
 406              		.loc 1 280 60 discriminator 1 view .LVU157
 407 01ca 032B     		cmp	r3, #3
 408 01cc 7FF430AF 		bne	.L3
 281:lvgl/src/draw/sw/lv_draw_sw_arc.c ****         /*Arc crosses here*/
 409              		.loc 1 281 36 view .LVU158
 410 01d0 012A     		cmp	r2, #1
 411 01d2 7FF42DAF 		bne	.L3
 412 01d6 03E0     		b	.L8
 413              	.L15:
 278:lvgl/src/draw/sw/lv_draw_sw_arc.c ****             (q->start_quarter == 2 && q->end_quarter == 1) ||
 414              		.loc 1 278 78 discriminator 3 view .LVU159
 415 01d8 2089     		ldrh	r0, [r4, #8]
 278:lvgl/src/draw/sw/lv_draw_sw_arc.c ****             (q->start_quarter == 2 && q->end_quarter == 1) ||
 416              		.loc 1 278 93 discriminator 3 view .LVU160
 417 01da E188     		ldrh	r1, [r4, #6]
 278:lvgl/src/draw/sw/lv_draw_sw_arc.c ****             (q->start_quarter == 2 && q->end_quarter == 1) ||
 418              		.loc 1 278 74 discriminator 3 view .LVU161
 419 01dc 8842     		cmp	r0, r1
 420 01de F0D2     		bcs	.L7
 421              	.L8:
 422              	.LBB15:
 283:lvgl/src/draw/sw/lv_draw_sw_arc.c ****         quarter_area.y1 = q->center->y;
 423              		.loc 1 283 9 is_stmt 1 view .LVU162
 283:lvgl/src/draw/sw/lv_draw_sw_arc.c ****         quarter_area.y1 = q->center->y;
 424              		.loc 1 283 28 is_stmt 0 view .LVU163
ARM GAS  /var/folders/21/t9g5rlb91ys800n5npymflf80000gn/T//ccb1YJg7.s 			page 16


 425 01e0 2368     		ldr	r3, [r4]
 283:lvgl/src/draw/sw/lv_draw_sw_arc.c ****         quarter_area.y1 = q->center->y;
 426              		.loc 1 283 36 view .LVU164
 427 01e2 B3F90020 		ldrsh	r2, [r3]
 283:lvgl/src/draw/sw/lv_draw_sw_arc.c ****         quarter_area.y1 = q->center->y;
 428              		.loc 1 283 25 view .LVU165
 429 01e6 ADF80020 		strh	r2, [sp]	@ movhi
 284:lvgl/src/draw/sw/lv_draw_sw_arc.c ****         quarter_area.x2 = q->center->x + q->radius;
 430              		.loc 1 284 9 is_stmt 1 view .LVU166
 284:lvgl/src/draw/sw/lv_draw_sw_arc.c ****         quarter_area.x2 = q->center->x + q->radius;
 431              		.loc 1 284 36 is_stmt 0 view .LVU167
 432 01ea B3F90220 		ldrsh	r2, [r3, #2]
 284:lvgl/src/draw/sw/lv_draw_sw_arc.c ****         quarter_area.x2 = q->center->x + q->radius;
 433              		.loc 1 284 25 view .LVU168
 434 01ee ADF80220 		strh	r2, [sp, #2]	@ movhi
 285:lvgl/src/draw/sw/lv_draw_sw_arc.c ****         quarter_area.y2 = q->center->y + q->radius;
 435              		.loc 1 285 9 is_stmt 1 view .LVU169
 285:lvgl/src/draw/sw/lv_draw_sw_arc.c ****         quarter_area.y2 = q->center->y + q->radius;
 436              		.loc 1 285 36 is_stmt 0 view .LVU170
 437 01f2 1A88     		ldrh	r2, [r3]
 285:lvgl/src/draw/sw/lv_draw_sw_arc.c ****         quarter_area.y2 = q->center->y + q->radius;
 438              		.loc 1 285 43 view .LVU171
 439 01f4 A188     		ldrh	r1, [r4, #4]
 285:lvgl/src/draw/sw/lv_draw_sw_arc.c ****         quarter_area.y2 = q->center->y + q->radius;
 440              		.loc 1 285 40 view .LVU172
 441 01f6 0A44     		add	r2, r2, r1
 285:lvgl/src/draw/sw/lv_draw_sw_arc.c ****         quarter_area.y2 = q->center->y + q->radius;
 442              		.loc 1 285 25 view .LVU173
 443 01f8 ADF80420 		strh	r2, [sp, #4]	@ movhi
 286:lvgl/src/draw/sw/lv_draw_sw_arc.c **** 
 444              		.loc 1 286 9 is_stmt 1 view .LVU174
 286:lvgl/src/draw/sw/lv_draw_sw_arc.c **** 
 445              		.loc 1 286 36 is_stmt 0 view .LVU175
 446 01fc 5B88     		ldrh	r3, [r3, #2]
 286:lvgl/src/draw/sw/lv_draw_sw_arc.c **** 
 447              		.loc 1 286 40 view .LVU176
 448 01fe 0B44     		add	r3, r3, r1
 286:lvgl/src/draw/sw/lv_draw_sw_arc.c **** 
 449              		.loc 1 286 25 view .LVU177
 450 0200 ADF80630 		strh	r3, [sp, #6]	@ movhi
 288:lvgl/src/draw/sw/lv_draw_sw_arc.c ****         if(ok) {
 451              		.loc 1 288 9 is_stmt 1 view .LVU178
 288:lvgl/src/draw/sw/lv_draw_sw_arc.c ****         if(ok) {
 452              		.loc 1 288 19 is_stmt 0 view .LVU179
 453 0204 2A46     		mov	r2, r5
 454 0206 6946     		mov	r1, sp
 455 0208 6846     		mov	r0, sp
 456 020a FFF7FEFF 		bl	_lv_area_intersect
 457              	.LVL24:
 289:lvgl/src/draw/sw/lv_draw_sw_arc.c ****             q->draw_ctx->clip_area = &quarter_area;
 458              		.loc 1 289 9 is_stmt 1 view .LVU180
 289:lvgl/src/draw/sw/lv_draw_sw_arc.c ****             q->draw_ctx->clip_area = &quarter_area;
 459              		.loc 1 289 11 is_stmt 0 view .LVU181
 460 020e 0028     		cmp	r0, #0
 461 0210 3FF40EAF 		beq	.L3
 290:lvgl/src/draw/sw/lv_draw_sw_arc.c ****             lv_draw_rect(q->draw_ctx, q->draw_dsc, q->draw_area);
 462              		.loc 1 290 13 is_stmt 1 view .LVU182
ARM GAS  /var/folders/21/t9g5rlb91ys800n5npymflf80000gn/T//ccb1YJg7.s 			page 17


 290:lvgl/src/draw/sw/lv_draw_sw_arc.c ****             lv_draw_rect(q->draw_ctx, q->draw_dsc, q->draw_area);
 463              		.loc 1 290 14 is_stmt 0 view .LVU183
 464 0214 A369     		ldr	r3, [r4, #24]
 290:lvgl/src/draw/sw/lv_draw_sw_arc.c ****             lv_draw_rect(q->draw_ctx, q->draw_dsc, q->draw_area);
 465              		.loc 1 290 36 view .LVU184
 466 0216 C3F808D0 		str	sp, [r3, #8]
 291:lvgl/src/draw/sw/lv_draw_sw_arc.c ****         }
 467              		.loc 1 291 13 is_stmt 1 view .LVU185
 468 021a 6269     		ldr	r2, [r4, #20]
 469 021c 2169     		ldr	r1, [r4, #16]
 470 021e A069     		ldr	r0, [r4, #24]
 471              	.LVL25:
 291:lvgl/src/draw/sw/lv_draw_sw_arc.c ****         }
 472              		.loc 1 291 13 is_stmt 0 view .LVU186
 473 0220 FFF7FEFF 		bl	lv_draw_rect
 474              	.LVL26:
 475 0224 04E7     		b	.L3
 476              	.LVL27:
 477              	.L16:
 291:lvgl/src/draw/sw/lv_draw_sw_arc.c ****         }
 478              		.loc 1 291 13 view .LVU187
 479              	.LBE15:
 279:lvgl/src/draw/sw/lv_draw_sw_arc.c ****             (q->start_quarter == 3 && q->end_quarter == 2) ||
 480              		.loc 1 279 36 view .LVU188
 481 0226 012A     		cmp	r2, #1
 482 0228 CDD1     		bne	.L9
 483 022a D9E7     		b	.L8
 484              	.L17:
 280:lvgl/src/draw/sw/lv_draw_sw_arc.c ****             (q->start_quarter == 3 && q->end_quarter == 1)) {
 485              		.loc 1 280 36 view .LVU189
 486 022c 022A     		cmp	r2, #2
 487 022e CCD1     		bne	.L10
 488 0230 D6E7     		b	.L8
 489              		.cfi_endproc
 490              	.LFE57:
 492              		.section	.text.draw_quarter_1,"ax",%progbits
 493              		.align	1
 494              		.syntax unified
 495              		.thumb
 496              		.thumb_func
 498              	draw_quarter_1:
 499              	.LVL28:
 500              	.LFB58:
 296:lvgl/src/draw/sw/lv_draw_sw_arc.c **** 
 297:lvgl/src/draw/sw/lv_draw_sw_arc.c **** static void draw_quarter_1(quarter_draw_dsc_t * q)
 298:lvgl/src/draw/sw/lv_draw_sw_arc.c **** {
 501              		.loc 1 298 1 is_stmt 1 view -0
 502              		.cfi_startproc
 503              		@ args = 0, pretend = 0, frame = 8
 504              		@ frame_needed = 0, uses_anonymous_args = 0
 505              		.loc 1 298 1 is_stmt 0 view .LVU191
 506 0000 70B5     		push	{r4, r5, r6, lr}
 507              	.LCFI4:
 508              		.cfi_def_cfa_offset 16
 509              		.cfi_offset 4, -16
 510              		.cfi_offset 5, -12
 511              		.cfi_offset 6, -8
ARM GAS  /var/folders/21/t9g5rlb91ys800n5npymflf80000gn/T//ccb1YJg7.s 			page 18


 512              		.cfi_offset 14, -4
 513 0002 82B0     		sub	sp, sp, #8
 514              	.LCFI5:
 515              		.cfi_def_cfa_offset 24
 516 0004 0446     		mov	r4, r0
 299:lvgl/src/draw/sw/lv_draw_sw_arc.c ****     const lv_area_t * clip_area_ori = q->draw_ctx->clip_area;
 517              		.loc 1 299 5 is_stmt 1 view .LVU192
 518              		.loc 1 299 40 is_stmt 0 view .LVU193
 519 0006 8369     		ldr	r3, [r0, #24]
 520              		.loc 1 299 23 view .LVU194
 521 0008 9D68     		ldr	r5, [r3, #8]
 522              	.LVL29:
 300:lvgl/src/draw/sw/lv_draw_sw_arc.c ****     lv_area_t quarter_area;
 523              		.loc 1 300 5 is_stmt 1 view .LVU195
 301:lvgl/src/draw/sw/lv_draw_sw_arc.c **** 
 302:lvgl/src/draw/sw/lv_draw_sw_arc.c ****     if(q->start_quarter == 1 && q->end_quarter == 1 && q->start_angle < q->end_angle) {
 524              		.loc 1 302 5 view .LVU196
 525              		.loc 1 302 9 is_stmt 0 view .LVU197
 526 000a 4389     		ldrh	r3, [r0, #10]
 527              		.loc 1 302 7 view .LVU198
 528 000c 012B     		cmp	r3, #1
 529 000e 14D0     		beq	.L29
 530              	.LVL30:
 531              	.L19:
 303:lvgl/src/draw/sw/lv_draw_sw_arc.c ****         /*Small arc here*/
 304:lvgl/src/draw/sw/lv_draw_sw_arc.c ****         quarter_area.y2 = q->center->y + ((lv_trigo_sin(q->start_angle) * (q->radius)) >> LV_TRIGO_
 305:lvgl/src/draw/sw/lv_draw_sw_arc.c ****         quarter_area.x2 = q->center->x + ((lv_trigo_sin(q->start_angle + 90) * (q->radius - q->widt
 306:lvgl/src/draw/sw/lv_draw_sw_arc.c **** 
 307:lvgl/src/draw/sw/lv_draw_sw_arc.c ****         quarter_area.y1 = q->center->y + ((lv_trigo_sin(q->end_angle) * (q->radius - q->width)) >> 
 308:lvgl/src/draw/sw/lv_draw_sw_arc.c ****         quarter_area.x1 = q->center->x + ((lv_trigo_sin(q->end_angle + 90) * (q->radius)) >> LV_TRI
 309:lvgl/src/draw/sw/lv_draw_sw_arc.c **** 
 310:lvgl/src/draw/sw/lv_draw_sw_arc.c ****         bool ok = _lv_area_intersect(&quarter_area, &quarter_area, clip_area_ori);
 311:lvgl/src/draw/sw/lv_draw_sw_arc.c ****         if(ok) {
 312:lvgl/src/draw/sw/lv_draw_sw_arc.c ****             q->draw_ctx->clip_area = &quarter_area;
 313:lvgl/src/draw/sw/lv_draw_sw_arc.c ****             lv_draw_rect(q->draw_ctx, q->draw_dsc, q->draw_area);
 314:lvgl/src/draw/sw/lv_draw_sw_arc.c ****         }
 315:lvgl/src/draw/sw/lv_draw_sw_arc.c ****     }
 316:lvgl/src/draw/sw/lv_draw_sw_arc.c ****     else if(q->start_quarter == 1 || q->end_quarter == 1) {
 532              		.loc 1 316 10 is_stmt 1 view .LVU199
 533              		.loc 1 316 12 is_stmt 0 view .LVU200
 534 0010 012B     		cmp	r3, #1
 535 0012 67D0     		beq	.L21
 536              		.loc 1 316 39 discriminator 1 view .LVU201
 537 0014 A289     		ldrh	r2, [r4, #12]
 538              		.loc 1 316 35 discriminator 1 view .LVU202
 539 0016 012A     		cmp	r2, #1
 540 0018 64D0     		beq	.L21
 317:lvgl/src/draw/sw/lv_draw_sw_arc.c ****         /*Start and/or end arcs here*/
 318:lvgl/src/draw/sw/lv_draw_sw_arc.c ****         if(q->start_quarter == 1) {
 319:lvgl/src/draw/sw/lv_draw_sw_arc.c ****             quarter_area.x1 = q->center->x - q->radius;
 320:lvgl/src/draw/sw/lv_draw_sw_arc.c ****             quarter_area.y1 = q->center->y;
 321:lvgl/src/draw/sw/lv_draw_sw_arc.c **** 
 322:lvgl/src/draw/sw/lv_draw_sw_arc.c ****             quarter_area.y2 = q->center->y + ((lv_trigo_sin(q->start_angle) * (q->radius)) >> LV_TR
 323:lvgl/src/draw/sw/lv_draw_sw_arc.c ****             quarter_area.x2 = q->center->x + ((lv_trigo_sin(q->start_angle + 90) * (q->radius - q->
 324:lvgl/src/draw/sw/lv_draw_sw_arc.c **** 
 325:lvgl/src/draw/sw/lv_draw_sw_arc.c ****             bool ok = _lv_area_intersect(&quarter_area, &quarter_area, clip_area_ori);
 326:lvgl/src/draw/sw/lv_draw_sw_arc.c ****             if(ok) {
ARM GAS  /var/folders/21/t9g5rlb91ys800n5npymflf80000gn/T//ccb1YJg7.s 			page 19


 327:lvgl/src/draw/sw/lv_draw_sw_arc.c ****                 q->draw_ctx->clip_area = &quarter_area;
 328:lvgl/src/draw/sw/lv_draw_sw_arc.c ****                 lv_draw_rect(q->draw_ctx, q->draw_dsc, q->draw_area);
 329:lvgl/src/draw/sw/lv_draw_sw_arc.c ****             }
 330:lvgl/src/draw/sw/lv_draw_sw_arc.c ****         }
 331:lvgl/src/draw/sw/lv_draw_sw_arc.c ****         if(q->end_quarter == 1) {
 332:lvgl/src/draw/sw/lv_draw_sw_arc.c ****             quarter_area.x2 = q->center->x - 1;
 333:lvgl/src/draw/sw/lv_draw_sw_arc.c ****             quarter_area.y2 = q->center->y + q->radius;
 334:lvgl/src/draw/sw/lv_draw_sw_arc.c **** 
 335:lvgl/src/draw/sw/lv_draw_sw_arc.c ****             quarter_area.y1 = q->center->y + ((lv_trigo_sin(q->end_angle) * (q->radius - q->width))
 336:lvgl/src/draw/sw/lv_draw_sw_arc.c ****             quarter_area.x1 = q->center->x + ((lv_trigo_sin(q->end_angle + 90) * (q->radius)) >> LV
 337:lvgl/src/draw/sw/lv_draw_sw_arc.c **** 
 338:lvgl/src/draw/sw/lv_draw_sw_arc.c ****             bool ok = _lv_area_intersect(&quarter_area, &quarter_area, clip_area_ori);
 339:lvgl/src/draw/sw/lv_draw_sw_arc.c ****             if(ok) {
 340:lvgl/src/draw/sw/lv_draw_sw_arc.c ****                 q->draw_ctx->clip_area = &quarter_area;
 341:lvgl/src/draw/sw/lv_draw_sw_arc.c ****                 lv_draw_rect(q->draw_ctx, q->draw_dsc, q->draw_area);
 342:lvgl/src/draw/sw/lv_draw_sw_arc.c ****             }
 343:lvgl/src/draw/sw/lv_draw_sw_arc.c ****         }
 344:lvgl/src/draw/sw/lv_draw_sw_arc.c ****     }
 345:lvgl/src/draw/sw/lv_draw_sw_arc.c ****     else if((q->start_quarter == q->end_quarter && q->start_quarter != 1 && q->end_angle < q->start
 541              		.loc 1 345 10 is_stmt 1 view .LVU203
 542              		.loc 1 345 12 is_stmt 0 view .LVU204
 543 001a 9342     		cmp	r3, r2
 544 001c 00F0DD80 		beq	.L30
 545              	.L24:
 546              		.loc 1 345 108 discriminator 5 view .LVU205
 547 0020 13B9     		cbnz	r3, .L26
 346:lvgl/src/draw/sw/lv_draw_sw_arc.c ****             (q->start_quarter == 0 && q->end_quarter == 2) ||
 548              		.loc 1 346 36 view .LVU206
 549 0022 022A     		cmp	r2, #2
 550 0024 00F0DE80 		beq	.L25
 551              	.L26:
 552              		.loc 1 346 60 discriminator 1 view .LVU207
 553 0028 13B9     		cbnz	r3, .L27
 347:lvgl/src/draw/sw/lv_draw_sw_arc.c ****             (q->start_quarter == 0 && q->end_quarter == 3) ||
 554              		.loc 1 347 36 view .LVU208
 555 002a 032A     		cmp	r2, #3
 556 002c 00F0DA80 		beq	.L25
 557              	.L27:
 558              		.loc 1 347 60 discriminator 1 view .LVU209
 559 0030 032B     		cmp	r3, #3
 560 0032 5CD1     		bne	.L20
 348:lvgl/src/draw/sw/lv_draw_sw_arc.c ****             (q->start_quarter == 3 && q->end_quarter == 2)) {
 561              		.loc 1 348 36 view .LVU210
 562 0034 022A     		cmp	r2, #2
 563 0036 5AD1     		bne	.L20
 564 0038 D4E0     		b	.L25
 565              	.LVL31:
 566              	.L29:
 302:lvgl/src/draw/sw/lv_draw_sw_arc.c ****         /*Small arc here*/
 567              		.loc 1 302 34 discriminator 1 view .LVU211
 568 003a 8289     		ldrh	r2, [r0, #12]
 302:lvgl/src/draw/sw/lv_draw_sw_arc.c ****         /*Small arc here*/
 569              		.loc 1 302 30 discriminator 1 view .LVU212
 570 003c 012A     		cmp	r2, #1
 571 003e E7D1     		bne	.L19
 302:lvgl/src/draw/sw/lv_draw_sw_arc.c ****         /*Small arc here*/
 572              		.loc 1 302 57 discriminator 2 view .LVU213
ARM GAS  /var/folders/21/t9g5rlb91ys800n5npymflf80000gn/T//ccb1YJg7.s 			page 20


 573 0040 C088     		ldrh	r0, [r0, #6]
 574              	.LVL32:
 302:lvgl/src/draw/sw/lv_draw_sw_arc.c ****         /*Small arc here*/
 575              		.loc 1 302 74 discriminator 2 view .LVU214
 576 0042 2289     		ldrh	r2, [r4, #8]
 302:lvgl/src/draw/sw/lv_draw_sw_arc.c ****         /*Small arc here*/
 577              		.loc 1 302 53 discriminator 2 view .LVU215
 578 0044 9042     		cmp	r0, r2
 579 0046 E3D2     		bcs	.L19
 580              	.LBB16:
 304:lvgl/src/draw/sw/lv_draw_sw_arc.c ****         quarter_area.x2 = q->center->x + ((lv_trigo_sin(q->start_angle + 90) * (q->radius - q->widt
 581              		.loc 1 304 9 is_stmt 1 view .LVU216
 304:lvgl/src/draw/sw/lv_draw_sw_arc.c ****         quarter_area.x2 = q->center->x + ((lv_trigo_sin(q->start_angle + 90) * (q->radius - q->widt
 582              		.loc 1 304 28 is_stmt 0 view .LVU217
 583 0048 2368     		ldr	r3, [r4]
 304:lvgl/src/draw/sw/lv_draw_sw_arc.c ****         quarter_area.x2 = q->center->x + ((lv_trigo_sin(q->start_angle + 90) * (q->radius - q->widt
 584              		.loc 1 304 36 view .LVU218
 585 004a 5E88     		ldrh	r6, [r3, #2]
 304:lvgl/src/draw/sw/lv_draw_sw_arc.c ****         quarter_area.x2 = q->center->x + ((lv_trigo_sin(q->start_angle + 90) * (q->radius - q->widt
 586              		.loc 1 304 44 view .LVU219
 587 004c 00B2     		sxth	r0, r0
 588 004e FFF7FEFF 		bl	lv_trigo_sin
 589              	.LVL33:
 304:lvgl/src/draw/sw/lv_draw_sw_arc.c ****         quarter_area.x2 = q->center->x + ((lv_trigo_sin(q->start_angle + 90) * (q->radius - q->widt
 590              		.loc 1 304 77 view .LVU220
 591 0052 B4F90430 		ldrsh	r3, [r4, #4]
 304:lvgl/src/draw/sw/lv_draw_sw_arc.c ****         quarter_area.x2 = q->center->x + ((lv_trigo_sin(q->start_angle + 90) * (q->radius - q->widt
 592              		.loc 1 304 73 view .LVU221
 593 0056 03FB00F0 		mul	r0, r3, r0
 304:lvgl/src/draw/sw/lv_draw_sw_arc.c ****         quarter_area.x2 = q->center->x + ((lv_trigo_sin(q->start_angle + 90) * (q->radius - q->widt
 594              		.loc 1 304 40 view .LVU222
 595 005a 06EBE036 		add	r6, r6, r0, asr #15
 304:lvgl/src/draw/sw/lv_draw_sw_arc.c ****         quarter_area.x2 = q->center->x + ((lv_trigo_sin(q->start_angle + 90) * (q->radius - q->widt
 596              		.loc 1 304 25 view .LVU223
 597 005e ADF80660 		strh	r6, [sp, #6]	@ movhi
 305:lvgl/src/draw/sw/lv_draw_sw_arc.c **** 
 598              		.loc 1 305 9 is_stmt 1 view .LVU224
 305:lvgl/src/draw/sw/lv_draw_sw_arc.c **** 
 599              		.loc 1 305 28 is_stmt 0 view .LVU225
 600 0062 2368     		ldr	r3, [r4]
 305:lvgl/src/draw/sw/lv_draw_sw_arc.c **** 
 601              		.loc 1 305 36 view .LVU226
 602 0064 1E88     		ldrh	r6, [r3]
 305:lvgl/src/draw/sw/lv_draw_sw_arc.c **** 
 603              		.loc 1 305 58 view .LVU227
 604 0066 E088     		ldrh	r0, [r4, #6]
 305:lvgl/src/draw/sw/lv_draw_sw_arc.c **** 
 605              		.loc 1 305 72 view .LVU228
 606 0068 5A30     		adds	r0, r0, #90
 305:lvgl/src/draw/sw/lv_draw_sw_arc.c **** 
 607              		.loc 1 305 44 view .LVU229
 608 006a 00B2     		sxth	r0, r0
 609 006c FFF7FEFF 		bl	lv_trigo_sin
 610              	.LVL34:
 305:lvgl/src/draw/sw/lv_draw_sw_arc.c **** 
 611              		.loc 1 305 82 view .LVU230
 612 0070 B4F90430 		ldrsh	r3, [r4, #4]
ARM GAS  /var/folders/21/t9g5rlb91ys800n5npymflf80000gn/T//ccb1YJg7.s 			page 21


 305:lvgl/src/draw/sw/lv_draw_sw_arc.c **** 
 613              		.loc 1 305 94 view .LVU231
 614 0074 B4F90E20 		ldrsh	r2, [r4, #14]
 305:lvgl/src/draw/sw/lv_draw_sw_arc.c **** 
 615              		.loc 1 305 91 view .LVU232
 616 0078 9B1A     		subs	r3, r3, r2
 305:lvgl/src/draw/sw/lv_draw_sw_arc.c **** 
 617              		.loc 1 305 78 view .LVU233
 618 007a 03FB00F0 		mul	r0, r3, r0
 305:lvgl/src/draw/sw/lv_draw_sw_arc.c **** 
 619              		.loc 1 305 40 view .LVU234
 620 007e 06EBE036 		add	r6, r6, r0, asr #15
 305:lvgl/src/draw/sw/lv_draw_sw_arc.c **** 
 621              		.loc 1 305 25 view .LVU235
 622 0082 ADF80460 		strh	r6, [sp, #4]	@ movhi
 307:lvgl/src/draw/sw/lv_draw_sw_arc.c ****         quarter_area.x1 = q->center->x + ((lv_trigo_sin(q->end_angle + 90) * (q->radius)) >> LV_TRI
 623              		.loc 1 307 9 is_stmt 1 view .LVU236
 307:lvgl/src/draw/sw/lv_draw_sw_arc.c ****         quarter_area.x1 = q->center->x + ((lv_trigo_sin(q->end_angle + 90) * (q->radius)) >> LV_TRI
 624              		.loc 1 307 28 is_stmt 0 view .LVU237
 625 0086 2368     		ldr	r3, [r4]
 307:lvgl/src/draw/sw/lv_draw_sw_arc.c ****         quarter_area.x1 = q->center->x + ((lv_trigo_sin(q->end_angle + 90) * (q->radius)) >> LV_TRI
 626              		.loc 1 307 36 view .LVU238
 627 0088 5E88     		ldrh	r6, [r3, #2]
 307:lvgl/src/draw/sw/lv_draw_sw_arc.c ****         quarter_area.x1 = q->center->x + ((lv_trigo_sin(q->end_angle + 90) * (q->radius)) >> LV_TRI
 628              		.loc 1 307 44 view .LVU239
 629 008a B4F90800 		ldrsh	r0, [r4, #8]
 630 008e FFF7FEFF 		bl	lv_trigo_sin
 631              	.LVL35:
 307:lvgl/src/draw/sw/lv_draw_sw_arc.c ****         quarter_area.x1 = q->center->x + ((lv_trigo_sin(q->end_angle + 90) * (q->radius)) >> LV_TRI
 632              		.loc 1 307 75 view .LVU240
 633 0092 B4F90430 		ldrsh	r3, [r4, #4]
 307:lvgl/src/draw/sw/lv_draw_sw_arc.c ****         quarter_area.x1 = q->center->x + ((lv_trigo_sin(q->end_angle + 90) * (q->radius)) >> LV_TRI
 634              		.loc 1 307 87 view .LVU241
 635 0096 B4F90E20 		ldrsh	r2, [r4, #14]
 307:lvgl/src/draw/sw/lv_draw_sw_arc.c ****         quarter_area.x1 = q->center->x + ((lv_trigo_sin(q->end_angle + 90) * (q->radius)) >> LV_TRI
 636              		.loc 1 307 84 view .LVU242
 637 009a 9B1A     		subs	r3, r3, r2
 307:lvgl/src/draw/sw/lv_draw_sw_arc.c ****         quarter_area.x1 = q->center->x + ((lv_trigo_sin(q->end_angle + 90) * (q->radius)) >> LV_TRI
 638              		.loc 1 307 71 view .LVU243
 639 009c 03FB00F0 		mul	r0, r3, r0
 307:lvgl/src/draw/sw/lv_draw_sw_arc.c ****         quarter_area.x1 = q->center->x + ((lv_trigo_sin(q->end_angle + 90) * (q->radius)) >> LV_TRI
 640              		.loc 1 307 40 view .LVU244
 641 00a0 06EBE036 		add	r6, r6, r0, asr #15
 307:lvgl/src/draw/sw/lv_draw_sw_arc.c ****         quarter_area.x1 = q->center->x + ((lv_trigo_sin(q->end_angle + 90) * (q->radius)) >> LV_TRI
 642              		.loc 1 307 25 view .LVU245
 643 00a4 ADF80260 		strh	r6, [sp, #2]	@ movhi
 308:lvgl/src/draw/sw/lv_draw_sw_arc.c **** 
 644              		.loc 1 308 9 is_stmt 1 view .LVU246
 308:lvgl/src/draw/sw/lv_draw_sw_arc.c **** 
 645              		.loc 1 308 28 is_stmt 0 view .LVU247
 646 00a8 2368     		ldr	r3, [r4]
 308:lvgl/src/draw/sw/lv_draw_sw_arc.c **** 
 647              		.loc 1 308 36 view .LVU248
 648 00aa 1E88     		ldrh	r6, [r3]
 308:lvgl/src/draw/sw/lv_draw_sw_arc.c **** 
 649              		.loc 1 308 58 view .LVU249
 650 00ac 2089     		ldrh	r0, [r4, #8]
ARM GAS  /var/folders/21/t9g5rlb91ys800n5npymflf80000gn/T//ccb1YJg7.s 			page 22


 308:lvgl/src/draw/sw/lv_draw_sw_arc.c **** 
 651              		.loc 1 308 70 view .LVU250
 652 00ae 5A30     		adds	r0, r0, #90
 308:lvgl/src/draw/sw/lv_draw_sw_arc.c **** 
 653              		.loc 1 308 44 view .LVU251
 654 00b0 00B2     		sxth	r0, r0
 655 00b2 FFF7FEFF 		bl	lv_trigo_sin
 656              	.LVL36:
 308:lvgl/src/draw/sw/lv_draw_sw_arc.c **** 
 657              		.loc 1 308 80 view .LVU252
 658 00b6 B4F90430 		ldrsh	r3, [r4, #4]
 308:lvgl/src/draw/sw/lv_draw_sw_arc.c **** 
 659              		.loc 1 308 76 view .LVU253
 660 00ba 03FB00F0 		mul	r0, r3, r0
 308:lvgl/src/draw/sw/lv_draw_sw_arc.c **** 
 661              		.loc 1 308 40 view .LVU254
 662 00be 06EBE036 		add	r6, r6, r0, asr #15
 308:lvgl/src/draw/sw/lv_draw_sw_arc.c **** 
 663              		.loc 1 308 25 view .LVU255
 664 00c2 ADF80060 		strh	r6, [sp]	@ movhi
 310:lvgl/src/draw/sw/lv_draw_sw_arc.c ****         if(ok) {
 665              		.loc 1 310 9 is_stmt 1 view .LVU256
 310:lvgl/src/draw/sw/lv_draw_sw_arc.c ****         if(ok) {
 666              		.loc 1 310 19 is_stmt 0 view .LVU257
 667 00c6 2A46     		mov	r2, r5
 668 00c8 6946     		mov	r1, sp
 669 00ca 6846     		mov	r0, sp
 670 00cc FFF7FEFF 		bl	_lv_area_intersect
 671              	.LVL37:
 311:lvgl/src/draw/sw/lv_draw_sw_arc.c ****             q->draw_ctx->clip_area = &quarter_area;
 672              		.loc 1 311 9 is_stmt 1 view .LVU258
 311:lvgl/src/draw/sw/lv_draw_sw_arc.c ****             q->draw_ctx->clip_area = &quarter_area;
 673              		.loc 1 311 11 is_stmt 0 view .LVU259
 674 00d0 68B1     		cbz	r0, .L20
 312:lvgl/src/draw/sw/lv_draw_sw_arc.c ****             lv_draw_rect(q->draw_ctx, q->draw_dsc, q->draw_area);
 675              		.loc 1 312 13 is_stmt 1 view .LVU260
 312:lvgl/src/draw/sw/lv_draw_sw_arc.c ****             lv_draw_rect(q->draw_ctx, q->draw_dsc, q->draw_area);
 676              		.loc 1 312 14 is_stmt 0 view .LVU261
 677 00d2 A369     		ldr	r3, [r4, #24]
 312:lvgl/src/draw/sw/lv_draw_sw_arc.c ****             lv_draw_rect(q->draw_ctx, q->draw_dsc, q->draw_area);
 678              		.loc 1 312 36 view .LVU262
 679 00d4 C3F808D0 		str	sp, [r3, #8]
 313:lvgl/src/draw/sw/lv_draw_sw_arc.c ****         }
 680              		.loc 1 313 13 is_stmt 1 view .LVU263
 681 00d8 6269     		ldr	r2, [r4, #20]
 682 00da 2169     		ldr	r1, [r4, #16]
 683 00dc A069     		ldr	r0, [r4, #24]
 684              	.LVL38:
 313:lvgl/src/draw/sw/lv_draw_sw_arc.c ****         }
 685              		.loc 1 313 13 is_stmt 0 view .LVU264
 686 00de FFF7FEFF 		bl	lv_draw_rect
 687              	.LVL39:
 688 00e2 04E0     		b	.L20
 689              	.LVL40:
 690              	.L21:
 313:lvgl/src/draw/sw/lv_draw_sw_arc.c ****         }
 691              		.loc 1 313 13 view .LVU265
ARM GAS  /var/folders/21/t9g5rlb91ys800n5npymflf80000gn/T//ccb1YJg7.s 			page 23


 692              	.LBE16:
 318:lvgl/src/draw/sw/lv_draw_sw_arc.c ****             quarter_area.x1 = q->center->x - q->radius;
 693              		.loc 1 318 9 is_stmt 1 view .LVU266
 318:lvgl/src/draw/sw/lv_draw_sw_arc.c ****             quarter_area.x1 = q->center->x - q->radius;
 694              		.loc 1 318 11 is_stmt 0 view .LVU267
 695 00e4 012B     		cmp	r3, #1
 696 00e6 06D0     		beq	.L31
 697              	.L23:
 331:lvgl/src/draw/sw/lv_draw_sw_arc.c ****             quarter_area.x2 = q->center->x - 1;
 698              		.loc 1 331 9 is_stmt 1 view .LVU268
 331:lvgl/src/draw/sw/lv_draw_sw_arc.c ****             quarter_area.x2 = q->center->x - 1;
 699              		.loc 1 331 13 is_stmt 0 view .LVU269
 700 00e8 A389     		ldrh	r3, [r4, #12]
 331:lvgl/src/draw/sw/lv_draw_sw_arc.c ****             quarter_area.x2 = q->center->x - 1;
 701              		.loc 1 331 11 view .LVU270
 702 00ea 012B     		cmp	r3, #1
 703 00ec 3CD0     		beq	.L32
 704              	.L20:
 349:lvgl/src/draw/sw/lv_draw_sw_arc.c ****         /*Arc crosses here*/
 350:lvgl/src/draw/sw/lv_draw_sw_arc.c ****         quarter_area.x1 = q->center->x - q->radius;
 351:lvgl/src/draw/sw/lv_draw_sw_arc.c ****         quarter_area.y1 = q->center->y;
 352:lvgl/src/draw/sw/lv_draw_sw_arc.c ****         quarter_area.x2 = q->center->x - 1;
 353:lvgl/src/draw/sw/lv_draw_sw_arc.c ****         quarter_area.y2 = q->center->y + q->radius;
 354:lvgl/src/draw/sw/lv_draw_sw_arc.c **** 
 355:lvgl/src/draw/sw/lv_draw_sw_arc.c ****         bool ok = _lv_area_intersect(&quarter_area, &quarter_area, clip_area_ori);
 356:lvgl/src/draw/sw/lv_draw_sw_arc.c ****         if(ok) {
 357:lvgl/src/draw/sw/lv_draw_sw_arc.c ****             q->draw_ctx->clip_area = &quarter_area;
 358:lvgl/src/draw/sw/lv_draw_sw_arc.c ****             lv_draw_rect(q->draw_ctx, q->draw_dsc, q->draw_area);
 359:lvgl/src/draw/sw/lv_draw_sw_arc.c ****         }
 360:lvgl/src/draw/sw/lv_draw_sw_arc.c ****     }
 361:lvgl/src/draw/sw/lv_draw_sw_arc.c ****     q->draw_ctx->clip_area = clip_area_ori;
 705              		.loc 1 361 5 is_stmt 1 view .LVU271
 706              		.loc 1 361 6 is_stmt 0 view .LVU272
 707 00ee A369     		ldr	r3, [r4, #24]
 708              		.loc 1 361 28 view .LVU273
 709 00f0 9D60     		str	r5, [r3, #8]
 362:lvgl/src/draw/sw/lv_draw_sw_arc.c **** }
 710              		.loc 1 362 1 view .LVU274
 711 00f2 02B0     		add	sp, sp, #8
 712              	.LCFI6:
 713              		.cfi_remember_state
 714              		.cfi_def_cfa_offset 16
 715              		@ sp needed
 716 00f4 70BD     		pop	{r4, r5, r6, pc}
 717              	.LVL41:
 718              	.L31:
 719              	.LCFI7:
 720              		.cfi_restore_state
 721              	.LBB17:
 319:lvgl/src/draw/sw/lv_draw_sw_arc.c ****             quarter_area.y1 = q->center->y;
 722              		.loc 1 319 13 is_stmt 1 view .LVU275
 319:lvgl/src/draw/sw/lv_draw_sw_arc.c ****             quarter_area.y1 = q->center->y;
 723              		.loc 1 319 32 is_stmt 0 view .LVU276
 724 00f6 2368     		ldr	r3, [r4]
 319:lvgl/src/draw/sw/lv_draw_sw_arc.c ****             quarter_area.y1 = q->center->y;
 725              		.loc 1 319 40 view .LVU277
 726 00f8 1A88     		ldrh	r2, [r3]
ARM GAS  /var/folders/21/t9g5rlb91ys800n5npymflf80000gn/T//ccb1YJg7.s 			page 24


 319:lvgl/src/draw/sw/lv_draw_sw_arc.c ****             quarter_area.y1 = q->center->y;
 727              		.loc 1 319 47 view .LVU278
 728 00fa A188     		ldrh	r1, [r4, #4]
 319:lvgl/src/draw/sw/lv_draw_sw_arc.c ****             quarter_area.y1 = q->center->y;
 729              		.loc 1 319 44 view .LVU279
 730 00fc 521A     		subs	r2, r2, r1
 319:lvgl/src/draw/sw/lv_draw_sw_arc.c ****             quarter_area.y1 = q->center->y;
 731              		.loc 1 319 29 view .LVU280
 732 00fe ADF80020 		strh	r2, [sp]	@ movhi
 320:lvgl/src/draw/sw/lv_draw_sw_arc.c **** 
 733              		.loc 1 320 13 is_stmt 1 view .LVU281
 320:lvgl/src/draw/sw/lv_draw_sw_arc.c **** 
 734              		.loc 1 320 40 is_stmt 0 view .LVU282
 735 0102 B3F90220 		ldrsh	r2, [r3, #2]
 320:lvgl/src/draw/sw/lv_draw_sw_arc.c **** 
 736              		.loc 1 320 29 view .LVU283
 737 0106 ADF80220 		strh	r2, [sp, #2]	@ movhi
 322:lvgl/src/draw/sw/lv_draw_sw_arc.c ****             quarter_area.x2 = q->center->x + ((lv_trigo_sin(q->start_angle + 90) * (q->radius - q->
 738              		.loc 1 322 13 is_stmt 1 view .LVU284
 322:lvgl/src/draw/sw/lv_draw_sw_arc.c ****             quarter_area.x2 = q->center->x + ((lv_trigo_sin(q->start_angle + 90) * (q->radius - q->
 739              		.loc 1 322 40 is_stmt 0 view .LVU285
 740 010a 5E88     		ldrh	r6, [r3, #2]
 322:lvgl/src/draw/sw/lv_draw_sw_arc.c ****             quarter_area.x2 = q->center->x + ((lv_trigo_sin(q->start_angle + 90) * (q->radius - q->
 741              		.loc 1 322 48 view .LVU286
 742 010c B4F90600 		ldrsh	r0, [r4, #6]
 743 0110 FFF7FEFF 		bl	lv_trigo_sin
 744              	.LVL42:
 322:lvgl/src/draw/sw/lv_draw_sw_arc.c ****             quarter_area.x2 = q->center->x + ((lv_trigo_sin(q->start_angle + 90) * (q->radius - q->
 745              		.loc 1 322 81 view .LVU287
 746 0114 B4F90430 		ldrsh	r3, [r4, #4]
 322:lvgl/src/draw/sw/lv_draw_sw_arc.c ****             quarter_area.x2 = q->center->x + ((lv_trigo_sin(q->start_angle + 90) * (q->radius - q->
 747              		.loc 1 322 77 view .LVU288
 748 0118 03FB00F0 		mul	r0, r3, r0
 322:lvgl/src/draw/sw/lv_draw_sw_arc.c ****             quarter_area.x2 = q->center->x + ((lv_trigo_sin(q->start_angle + 90) * (q->radius - q->
 749              		.loc 1 322 44 view .LVU289
 750 011c 06EBE036 		add	r6, r6, r0, asr #15
 322:lvgl/src/draw/sw/lv_draw_sw_arc.c ****             quarter_area.x2 = q->center->x + ((lv_trigo_sin(q->start_angle + 90) * (q->radius - q->
 751              		.loc 1 322 29 view .LVU290
 752 0120 ADF80660 		strh	r6, [sp, #6]	@ movhi
 323:lvgl/src/draw/sw/lv_draw_sw_arc.c **** 
 753              		.loc 1 323 13 is_stmt 1 view .LVU291
 323:lvgl/src/draw/sw/lv_draw_sw_arc.c **** 
 754              		.loc 1 323 32 is_stmt 0 view .LVU292
 755 0124 2368     		ldr	r3, [r4]
 323:lvgl/src/draw/sw/lv_draw_sw_arc.c **** 
 756              		.loc 1 323 40 view .LVU293
 757 0126 1E88     		ldrh	r6, [r3]
 323:lvgl/src/draw/sw/lv_draw_sw_arc.c **** 
 758              		.loc 1 323 62 view .LVU294
 759 0128 E088     		ldrh	r0, [r4, #6]
 323:lvgl/src/draw/sw/lv_draw_sw_arc.c **** 
 760              		.loc 1 323 76 view .LVU295
 761 012a 5A30     		adds	r0, r0, #90
 323:lvgl/src/draw/sw/lv_draw_sw_arc.c **** 
 762              		.loc 1 323 48 view .LVU296
 763 012c 00B2     		sxth	r0, r0
 764 012e FFF7FEFF 		bl	lv_trigo_sin
ARM GAS  /var/folders/21/t9g5rlb91ys800n5npymflf80000gn/T//ccb1YJg7.s 			page 25


 765              	.LVL43:
 323:lvgl/src/draw/sw/lv_draw_sw_arc.c **** 
 766              		.loc 1 323 86 view .LVU297
 767 0132 B4F90430 		ldrsh	r3, [r4, #4]
 323:lvgl/src/draw/sw/lv_draw_sw_arc.c **** 
 768              		.loc 1 323 98 view .LVU298
 769 0136 B4F90E20 		ldrsh	r2, [r4, #14]
 323:lvgl/src/draw/sw/lv_draw_sw_arc.c **** 
 770              		.loc 1 323 95 view .LVU299
 771 013a 9B1A     		subs	r3, r3, r2
 323:lvgl/src/draw/sw/lv_draw_sw_arc.c **** 
 772              		.loc 1 323 82 view .LVU300
 773 013c 03FB00F0 		mul	r0, r3, r0
 323:lvgl/src/draw/sw/lv_draw_sw_arc.c **** 
 774              		.loc 1 323 44 view .LVU301
 775 0140 06EBE036 		add	r6, r6, r0, asr #15
 323:lvgl/src/draw/sw/lv_draw_sw_arc.c **** 
 776              		.loc 1 323 29 view .LVU302
 777 0144 ADF80460 		strh	r6, [sp, #4]	@ movhi
 325:lvgl/src/draw/sw/lv_draw_sw_arc.c ****             if(ok) {
 778              		.loc 1 325 13 is_stmt 1 view .LVU303
 325:lvgl/src/draw/sw/lv_draw_sw_arc.c ****             if(ok) {
 779              		.loc 1 325 23 is_stmt 0 view .LVU304
 780 0148 2A46     		mov	r2, r5
 781 014a 6946     		mov	r1, sp
 782 014c 6846     		mov	r0, sp
 783 014e FFF7FEFF 		bl	_lv_area_intersect
 784              	.LVL44:
 326:lvgl/src/draw/sw/lv_draw_sw_arc.c ****                 q->draw_ctx->clip_area = &quarter_area;
 785              		.loc 1 326 13 is_stmt 1 view .LVU305
 326:lvgl/src/draw/sw/lv_draw_sw_arc.c ****                 q->draw_ctx->clip_area = &quarter_area;
 786              		.loc 1 326 15 is_stmt 0 view .LVU306
 787 0152 0028     		cmp	r0, #0
 788 0154 C8D0     		beq	.L23
 327:lvgl/src/draw/sw/lv_draw_sw_arc.c ****                 lv_draw_rect(q->draw_ctx, q->draw_dsc, q->draw_area);
 789              		.loc 1 327 17 is_stmt 1 view .LVU307
 327:lvgl/src/draw/sw/lv_draw_sw_arc.c ****                 lv_draw_rect(q->draw_ctx, q->draw_dsc, q->draw_area);
 790              		.loc 1 327 18 is_stmt 0 view .LVU308
 791 0156 A369     		ldr	r3, [r4, #24]
 327:lvgl/src/draw/sw/lv_draw_sw_arc.c ****                 lv_draw_rect(q->draw_ctx, q->draw_dsc, q->draw_area);
 792              		.loc 1 327 40 view .LVU309
 793 0158 C3F808D0 		str	sp, [r3, #8]
 328:lvgl/src/draw/sw/lv_draw_sw_arc.c ****             }
 794              		.loc 1 328 17 is_stmt 1 view .LVU310
 795 015c 6269     		ldr	r2, [r4, #20]
 796 015e 2169     		ldr	r1, [r4, #16]
 797 0160 A069     		ldr	r0, [r4, #24]
 798              	.LVL45:
 328:lvgl/src/draw/sw/lv_draw_sw_arc.c ****             }
 799              		.loc 1 328 17 is_stmt 0 view .LVU311
 800 0162 FFF7FEFF 		bl	lv_draw_rect
 801              	.LVL46:
 802 0166 BFE7     		b	.L23
 803              	.LVL47:
 804              	.L32:
 328:lvgl/src/draw/sw/lv_draw_sw_arc.c ****             }
 805              		.loc 1 328 17 view .LVU312
ARM GAS  /var/folders/21/t9g5rlb91ys800n5npymflf80000gn/T//ccb1YJg7.s 			page 26


 806              	.LBE17:
 807              	.LBB18:
 332:lvgl/src/draw/sw/lv_draw_sw_arc.c ****             quarter_area.y2 = q->center->y + q->radius;
 808              		.loc 1 332 13 is_stmt 1 view .LVU313
 332:lvgl/src/draw/sw/lv_draw_sw_arc.c ****             quarter_area.y2 = q->center->y + q->radius;
 809              		.loc 1 332 32 is_stmt 0 view .LVU314
 810 0168 2368     		ldr	r3, [r4]
 332:lvgl/src/draw/sw/lv_draw_sw_arc.c ****             quarter_area.y2 = q->center->y + q->radius;
 811              		.loc 1 332 40 view .LVU315
 812 016a 1A88     		ldrh	r2, [r3]
 332:lvgl/src/draw/sw/lv_draw_sw_arc.c ****             quarter_area.y2 = q->center->y + q->radius;
 813              		.loc 1 332 44 view .LVU316
 814 016c 013A     		subs	r2, r2, #1
 332:lvgl/src/draw/sw/lv_draw_sw_arc.c ****             quarter_area.y2 = q->center->y + q->radius;
 815              		.loc 1 332 29 view .LVU317
 816 016e ADF80420 		strh	r2, [sp, #4]	@ movhi
 333:lvgl/src/draw/sw/lv_draw_sw_arc.c **** 
 817              		.loc 1 333 13 is_stmt 1 view .LVU318
 333:lvgl/src/draw/sw/lv_draw_sw_arc.c **** 
 818              		.loc 1 333 40 is_stmt 0 view .LVU319
 819 0172 5A88     		ldrh	r2, [r3, #2]
 333:lvgl/src/draw/sw/lv_draw_sw_arc.c **** 
 820              		.loc 1 333 47 view .LVU320
 821 0174 A188     		ldrh	r1, [r4, #4]
 333:lvgl/src/draw/sw/lv_draw_sw_arc.c **** 
 822              		.loc 1 333 44 view .LVU321
 823 0176 0A44     		add	r2, r2, r1
 333:lvgl/src/draw/sw/lv_draw_sw_arc.c **** 
 824              		.loc 1 333 29 view .LVU322
 825 0178 ADF80620 		strh	r2, [sp, #6]	@ movhi
 335:lvgl/src/draw/sw/lv_draw_sw_arc.c ****             quarter_area.x1 = q->center->x + ((lv_trigo_sin(q->end_angle + 90) * (q->radius)) >> LV
 826              		.loc 1 335 13 is_stmt 1 view .LVU323
 335:lvgl/src/draw/sw/lv_draw_sw_arc.c ****             quarter_area.x1 = q->center->x + ((lv_trigo_sin(q->end_angle + 90) * (q->radius)) >> LV
 827              		.loc 1 335 40 is_stmt 0 view .LVU324
 828 017c 5E88     		ldrh	r6, [r3, #2]
 335:lvgl/src/draw/sw/lv_draw_sw_arc.c ****             quarter_area.x1 = q->center->x + ((lv_trigo_sin(q->end_angle + 90) * (q->radius)) >> LV
 829              		.loc 1 335 48 view .LVU325
 830 017e B4F90800 		ldrsh	r0, [r4, #8]
 831 0182 FFF7FEFF 		bl	lv_trigo_sin
 832              	.LVL48:
 335:lvgl/src/draw/sw/lv_draw_sw_arc.c ****             quarter_area.x1 = q->center->x + ((lv_trigo_sin(q->end_angle + 90) * (q->radius)) >> LV
 833              		.loc 1 335 79 view .LVU326
 834 0186 B4F90430 		ldrsh	r3, [r4, #4]
 335:lvgl/src/draw/sw/lv_draw_sw_arc.c ****             quarter_area.x1 = q->center->x + ((lv_trigo_sin(q->end_angle + 90) * (q->radius)) >> LV
 835              		.loc 1 335 91 view .LVU327
 836 018a B4F90E20 		ldrsh	r2, [r4, #14]
 335:lvgl/src/draw/sw/lv_draw_sw_arc.c ****             quarter_area.x1 = q->center->x + ((lv_trigo_sin(q->end_angle + 90) * (q->radius)) >> LV
 837              		.loc 1 335 88 view .LVU328
 838 018e 9B1A     		subs	r3, r3, r2
 335:lvgl/src/draw/sw/lv_draw_sw_arc.c ****             quarter_area.x1 = q->center->x + ((lv_trigo_sin(q->end_angle + 90) * (q->radius)) >> LV
 839              		.loc 1 335 75 view .LVU329
 840 0190 03FB00F0 		mul	r0, r3, r0
 335:lvgl/src/draw/sw/lv_draw_sw_arc.c ****             quarter_area.x1 = q->center->x + ((lv_trigo_sin(q->end_angle + 90) * (q->radius)) >> LV
 841              		.loc 1 335 44 view .LVU330
 842 0194 06EBE036 		add	r6, r6, r0, asr #15
 335:lvgl/src/draw/sw/lv_draw_sw_arc.c ****             quarter_area.x1 = q->center->x + ((lv_trigo_sin(q->end_angle + 90) * (q->radius)) >> LV
 843              		.loc 1 335 29 view .LVU331
ARM GAS  /var/folders/21/t9g5rlb91ys800n5npymflf80000gn/T//ccb1YJg7.s 			page 27


 844 0198 ADF80260 		strh	r6, [sp, #2]	@ movhi
 336:lvgl/src/draw/sw/lv_draw_sw_arc.c **** 
 845              		.loc 1 336 13 is_stmt 1 view .LVU332
 336:lvgl/src/draw/sw/lv_draw_sw_arc.c **** 
 846              		.loc 1 336 32 is_stmt 0 view .LVU333
 847 019c 2368     		ldr	r3, [r4]
 336:lvgl/src/draw/sw/lv_draw_sw_arc.c **** 
 848              		.loc 1 336 40 view .LVU334
 849 019e 1E88     		ldrh	r6, [r3]
 336:lvgl/src/draw/sw/lv_draw_sw_arc.c **** 
 850              		.loc 1 336 62 view .LVU335
 851 01a0 2089     		ldrh	r0, [r4, #8]
 336:lvgl/src/draw/sw/lv_draw_sw_arc.c **** 
 852              		.loc 1 336 74 view .LVU336
 853 01a2 5A30     		adds	r0, r0, #90
 336:lvgl/src/draw/sw/lv_draw_sw_arc.c **** 
 854              		.loc 1 336 48 view .LVU337
 855 01a4 00B2     		sxth	r0, r0
 856 01a6 FFF7FEFF 		bl	lv_trigo_sin
 857              	.LVL49:
 336:lvgl/src/draw/sw/lv_draw_sw_arc.c **** 
 858              		.loc 1 336 84 view .LVU338
 859 01aa B4F90430 		ldrsh	r3, [r4, #4]
 336:lvgl/src/draw/sw/lv_draw_sw_arc.c **** 
 860              		.loc 1 336 80 view .LVU339
 861 01ae 03FB00F0 		mul	r0, r3, r0
 336:lvgl/src/draw/sw/lv_draw_sw_arc.c **** 
 862              		.loc 1 336 44 view .LVU340
 863 01b2 06EBE036 		add	r6, r6, r0, asr #15
 336:lvgl/src/draw/sw/lv_draw_sw_arc.c **** 
 864              		.loc 1 336 29 view .LVU341
 865 01b6 ADF80060 		strh	r6, [sp]	@ movhi
 338:lvgl/src/draw/sw/lv_draw_sw_arc.c ****             if(ok) {
 866              		.loc 1 338 13 is_stmt 1 view .LVU342
 338:lvgl/src/draw/sw/lv_draw_sw_arc.c ****             if(ok) {
 867              		.loc 1 338 23 is_stmt 0 view .LVU343
 868 01ba 2A46     		mov	r2, r5
 869 01bc 6946     		mov	r1, sp
 870 01be 6846     		mov	r0, sp
 871 01c0 FFF7FEFF 		bl	_lv_area_intersect
 872              	.LVL50:
 339:lvgl/src/draw/sw/lv_draw_sw_arc.c ****                 q->draw_ctx->clip_area = &quarter_area;
 873              		.loc 1 339 13 is_stmt 1 view .LVU344
 339:lvgl/src/draw/sw/lv_draw_sw_arc.c ****                 q->draw_ctx->clip_area = &quarter_area;
 874              		.loc 1 339 15 is_stmt 0 view .LVU345
 875 01c4 0028     		cmp	r0, #0
 876 01c6 92D0     		beq	.L20
 340:lvgl/src/draw/sw/lv_draw_sw_arc.c ****                 lv_draw_rect(q->draw_ctx, q->draw_dsc, q->draw_area);
 877              		.loc 1 340 17 is_stmt 1 view .LVU346
 340:lvgl/src/draw/sw/lv_draw_sw_arc.c ****                 lv_draw_rect(q->draw_ctx, q->draw_dsc, q->draw_area);
 878              		.loc 1 340 18 is_stmt 0 view .LVU347
 879 01c8 A369     		ldr	r3, [r4, #24]
 340:lvgl/src/draw/sw/lv_draw_sw_arc.c ****                 lv_draw_rect(q->draw_ctx, q->draw_dsc, q->draw_area);
 880              		.loc 1 340 40 view .LVU348
 881 01ca C3F808D0 		str	sp, [r3, #8]
 341:lvgl/src/draw/sw/lv_draw_sw_arc.c ****             }
 882              		.loc 1 341 17 is_stmt 1 view .LVU349
ARM GAS  /var/folders/21/t9g5rlb91ys800n5npymflf80000gn/T//ccb1YJg7.s 			page 28


 883 01ce 6269     		ldr	r2, [r4, #20]
 884 01d0 2169     		ldr	r1, [r4, #16]
 885 01d2 A069     		ldr	r0, [r4, #24]
 886              	.LVL51:
 341:lvgl/src/draw/sw/lv_draw_sw_arc.c ****             }
 887              		.loc 1 341 17 is_stmt 0 view .LVU350
 888 01d4 FFF7FEFF 		bl	lv_draw_rect
 889              	.LVL52:
 890 01d8 89E7     		b	.L20
 891              	.LVL53:
 892              	.L30:
 341:lvgl/src/draw/sw/lv_draw_sw_arc.c ****             }
 893              		.loc 1 341 17 view .LVU351
 894              	.LBE18:
 345:lvgl/src/draw/sw/lv_draw_sw_arc.c ****             (q->start_quarter == 0 && q->end_quarter == 2) ||
 895              		.loc 1 345 78 discriminator 3 view .LVU352
 896 01da 2089     		ldrh	r0, [r4, #8]
 345:lvgl/src/draw/sw/lv_draw_sw_arc.c ****             (q->start_quarter == 0 && q->end_quarter == 2) ||
 897              		.loc 1 345 93 discriminator 3 view .LVU353
 898 01dc E188     		ldrh	r1, [r4, #6]
 345:lvgl/src/draw/sw/lv_draw_sw_arc.c ****             (q->start_quarter == 0 && q->end_quarter == 2) ||
 899              		.loc 1 345 74 discriminator 3 view .LVU354
 900 01de 8842     		cmp	r0, r1
 901 01e0 BFF41EAF 		bcs	.L24
 902              	.L25:
 903              	.LBB19:
 350:lvgl/src/draw/sw/lv_draw_sw_arc.c ****         quarter_area.y1 = q->center->y;
 904              		.loc 1 350 9 is_stmt 1 view .LVU355
 350:lvgl/src/draw/sw/lv_draw_sw_arc.c ****         quarter_area.y1 = q->center->y;
 905              		.loc 1 350 28 is_stmt 0 view .LVU356
 906 01e4 2368     		ldr	r3, [r4]
 350:lvgl/src/draw/sw/lv_draw_sw_arc.c ****         quarter_area.y1 = q->center->y;
 907              		.loc 1 350 36 view .LVU357
 908 01e6 1A88     		ldrh	r2, [r3]
 350:lvgl/src/draw/sw/lv_draw_sw_arc.c ****         quarter_area.y1 = q->center->y;
 909              		.loc 1 350 43 view .LVU358
 910 01e8 A188     		ldrh	r1, [r4, #4]
 350:lvgl/src/draw/sw/lv_draw_sw_arc.c ****         quarter_area.y1 = q->center->y;
 911              		.loc 1 350 40 view .LVU359
 912 01ea 521A     		subs	r2, r2, r1
 350:lvgl/src/draw/sw/lv_draw_sw_arc.c ****         quarter_area.y1 = q->center->y;
 913              		.loc 1 350 25 view .LVU360
 914 01ec ADF80020 		strh	r2, [sp]	@ movhi
 351:lvgl/src/draw/sw/lv_draw_sw_arc.c ****         quarter_area.x2 = q->center->x - 1;
 915              		.loc 1 351 9 is_stmt 1 view .LVU361
 351:lvgl/src/draw/sw/lv_draw_sw_arc.c ****         quarter_area.x2 = q->center->x - 1;
 916              		.loc 1 351 36 is_stmt 0 view .LVU362
 917 01f0 B3F90220 		ldrsh	r2, [r3, #2]
 351:lvgl/src/draw/sw/lv_draw_sw_arc.c ****         quarter_area.x2 = q->center->x - 1;
 918              		.loc 1 351 25 view .LVU363
 919 01f4 ADF80220 		strh	r2, [sp, #2]	@ movhi
 352:lvgl/src/draw/sw/lv_draw_sw_arc.c ****         quarter_area.y2 = q->center->y + q->radius;
 920              		.loc 1 352 9 is_stmt 1 view .LVU364
 352:lvgl/src/draw/sw/lv_draw_sw_arc.c ****         quarter_area.y2 = q->center->y + q->radius;
 921              		.loc 1 352 36 is_stmt 0 view .LVU365
 922 01f8 1A88     		ldrh	r2, [r3]
 352:lvgl/src/draw/sw/lv_draw_sw_arc.c ****         quarter_area.y2 = q->center->y + q->radius;
ARM GAS  /var/folders/21/t9g5rlb91ys800n5npymflf80000gn/T//ccb1YJg7.s 			page 29


 923              		.loc 1 352 40 view .LVU366
 924 01fa 013A     		subs	r2, r2, #1
 352:lvgl/src/draw/sw/lv_draw_sw_arc.c ****         quarter_area.y2 = q->center->y + q->radius;
 925              		.loc 1 352 25 view .LVU367
 926 01fc ADF80420 		strh	r2, [sp, #4]	@ movhi
 353:lvgl/src/draw/sw/lv_draw_sw_arc.c **** 
 927              		.loc 1 353 9 is_stmt 1 view .LVU368
 353:lvgl/src/draw/sw/lv_draw_sw_arc.c **** 
 928              		.loc 1 353 36 is_stmt 0 view .LVU369
 929 0200 5B88     		ldrh	r3, [r3, #2]
 353:lvgl/src/draw/sw/lv_draw_sw_arc.c **** 
 930              		.loc 1 353 40 view .LVU370
 931 0202 0B44     		add	r3, r3, r1
 353:lvgl/src/draw/sw/lv_draw_sw_arc.c **** 
 932              		.loc 1 353 25 view .LVU371
 933 0204 ADF80630 		strh	r3, [sp, #6]	@ movhi
 355:lvgl/src/draw/sw/lv_draw_sw_arc.c ****         if(ok) {
 934              		.loc 1 355 9 is_stmt 1 view .LVU372
 355:lvgl/src/draw/sw/lv_draw_sw_arc.c ****         if(ok) {
 935              		.loc 1 355 19 is_stmt 0 view .LVU373
 936 0208 2A46     		mov	r2, r5
 937 020a 6946     		mov	r1, sp
 938 020c 6846     		mov	r0, sp
 939 020e FFF7FEFF 		bl	_lv_area_intersect
 940              	.LVL54:
 356:lvgl/src/draw/sw/lv_draw_sw_arc.c ****             q->draw_ctx->clip_area = &quarter_area;
 941              		.loc 1 356 9 is_stmt 1 view .LVU374
 356:lvgl/src/draw/sw/lv_draw_sw_arc.c ****             q->draw_ctx->clip_area = &quarter_area;
 942              		.loc 1 356 11 is_stmt 0 view .LVU375
 943 0212 0028     		cmp	r0, #0
 944 0214 3FF46BAF 		beq	.L20
 357:lvgl/src/draw/sw/lv_draw_sw_arc.c ****             lv_draw_rect(q->draw_ctx, q->draw_dsc, q->draw_area);
 945              		.loc 1 357 13 is_stmt 1 view .LVU376
 357:lvgl/src/draw/sw/lv_draw_sw_arc.c ****             lv_draw_rect(q->draw_ctx, q->draw_dsc, q->draw_area);
 946              		.loc 1 357 14 is_stmt 0 view .LVU377
 947 0218 A369     		ldr	r3, [r4, #24]
 357:lvgl/src/draw/sw/lv_draw_sw_arc.c ****             lv_draw_rect(q->draw_ctx, q->draw_dsc, q->draw_area);
 948              		.loc 1 357 36 view .LVU378
 949 021a C3F808D0 		str	sp, [r3, #8]
 358:lvgl/src/draw/sw/lv_draw_sw_arc.c ****         }
 950              		.loc 1 358 13 is_stmt 1 view .LVU379
 951 021e 6269     		ldr	r2, [r4, #20]
 952 0220 2169     		ldr	r1, [r4, #16]
 953 0222 A069     		ldr	r0, [r4, #24]
 954              	.LVL55:
 358:lvgl/src/draw/sw/lv_draw_sw_arc.c ****         }
 955              		.loc 1 358 13 is_stmt 0 view .LVU380
 956 0224 FFF7FEFF 		bl	lv_draw_rect
 957              	.LVL56:
 958 0228 61E7     		b	.L20
 959              	.LBE19:
 960              		.cfi_endproc
 961              	.LFE58:
 963              		.section	.text.draw_quarter_2,"ax",%progbits
 964              		.align	1
 965              		.syntax unified
 966              		.thumb
ARM GAS  /var/folders/21/t9g5rlb91ys800n5npymflf80000gn/T//ccb1YJg7.s 			page 30


 967              		.thumb_func
 969              	draw_quarter_2:
 970              	.LVL57:
 971              	.LFB59:
 363:lvgl/src/draw/sw/lv_draw_sw_arc.c **** 
 364:lvgl/src/draw/sw/lv_draw_sw_arc.c **** static void draw_quarter_2(quarter_draw_dsc_t * q)
 365:lvgl/src/draw/sw/lv_draw_sw_arc.c **** {
 972              		.loc 1 365 1 is_stmt 1 view -0
 973              		.cfi_startproc
 974              		@ args = 0, pretend = 0, frame = 8
 975              		@ frame_needed = 0, uses_anonymous_args = 0
 976              		.loc 1 365 1 is_stmt 0 view .LVU382
 977 0000 70B5     		push	{r4, r5, r6, lr}
 978              	.LCFI8:
 979              		.cfi_def_cfa_offset 16
 980              		.cfi_offset 4, -16
 981              		.cfi_offset 5, -12
 982              		.cfi_offset 6, -8
 983              		.cfi_offset 14, -4
 984 0002 82B0     		sub	sp, sp, #8
 985              	.LCFI9:
 986              		.cfi_def_cfa_offset 24
 987 0004 0446     		mov	r4, r0
 366:lvgl/src/draw/sw/lv_draw_sw_arc.c ****     const lv_area_t * clip_area_ori = q->draw_ctx->clip_area;
 988              		.loc 1 366 5 is_stmt 1 view .LVU383
 989              		.loc 1 366 40 is_stmt 0 view .LVU384
 990 0006 8369     		ldr	r3, [r0, #24]
 991              		.loc 1 366 23 view .LVU385
 992 0008 9D68     		ldr	r5, [r3, #8]
 993              	.LVL58:
 367:lvgl/src/draw/sw/lv_draw_sw_arc.c ****     lv_area_t quarter_area;
 994              		.loc 1 367 5 is_stmt 1 view .LVU386
 368:lvgl/src/draw/sw/lv_draw_sw_arc.c **** 
 369:lvgl/src/draw/sw/lv_draw_sw_arc.c ****     if(q->start_quarter == 2 && q->end_quarter == 2 && q->start_angle < q->end_angle) {
 995              		.loc 1 369 5 view .LVU387
 996              		.loc 1 369 9 is_stmt 0 view .LVU388
 997 000a 4389     		ldrh	r3, [r0, #10]
 998              		.loc 1 369 7 view .LVU389
 999 000c 022B     		cmp	r3, #2
 1000 000e 13D0     		beq	.L44
 1001              	.LVL59:
 1002              	.L34:
 370:lvgl/src/draw/sw/lv_draw_sw_arc.c ****         /*Small arc here*/
 371:lvgl/src/draw/sw/lv_draw_sw_arc.c ****         quarter_area.x1 = q->center->x + ((lv_trigo_sin(q->start_angle + 90) * (q->radius)) >> LV_T
 372:lvgl/src/draw/sw/lv_draw_sw_arc.c ****         quarter_area.y2 = q->center->y + ((lv_trigo_sin(q->start_angle) * (q->radius - q->width)) >
 373:lvgl/src/draw/sw/lv_draw_sw_arc.c **** 
 374:lvgl/src/draw/sw/lv_draw_sw_arc.c ****         quarter_area.y1 = q->center->y + ((lv_trigo_sin(q->end_angle) * q->radius) >> LV_TRIGO_SHIF
 375:lvgl/src/draw/sw/lv_draw_sw_arc.c ****         quarter_area.x2 = q->center->x + ((lv_trigo_sin(q->end_angle + 90) * (q->radius - q->width)
 376:lvgl/src/draw/sw/lv_draw_sw_arc.c **** 
 377:lvgl/src/draw/sw/lv_draw_sw_arc.c ****         bool ok = _lv_area_intersect(&quarter_area, &quarter_area, clip_area_ori);
 378:lvgl/src/draw/sw/lv_draw_sw_arc.c ****         if(ok) {
 379:lvgl/src/draw/sw/lv_draw_sw_arc.c ****             q->draw_ctx->clip_area = &quarter_area;
 380:lvgl/src/draw/sw/lv_draw_sw_arc.c ****             lv_draw_rect(q->draw_ctx, q->draw_dsc, q->draw_area);
 381:lvgl/src/draw/sw/lv_draw_sw_arc.c ****         }
 382:lvgl/src/draw/sw/lv_draw_sw_arc.c ****     }
 383:lvgl/src/draw/sw/lv_draw_sw_arc.c ****     else if(q->start_quarter == 2 || q->end_quarter == 2) {
 1003              		.loc 1 383 10 is_stmt 1 view .LVU390
ARM GAS  /var/folders/21/t9g5rlb91ys800n5npymflf80000gn/T//ccb1YJg7.s 			page 31


 1004              		.loc 1 383 12 is_stmt 0 view .LVU391
 1005 0010 022B     		cmp	r3, #2
 1006 0012 66D0     		beq	.L36
 1007              		.loc 1 383 39 discriminator 1 view .LVU392
 1008 0014 A289     		ldrh	r2, [r4, #12]
 1009              		.loc 1 383 35 discriminator 1 view .LVU393
 1010 0016 022A     		cmp	r2, #2
 1011 0018 63D0     		beq	.L36
 384:lvgl/src/draw/sw/lv_draw_sw_arc.c ****         /*Start and/or end arcs here*/
 385:lvgl/src/draw/sw/lv_draw_sw_arc.c ****         if(q->start_quarter == 2) {
 386:lvgl/src/draw/sw/lv_draw_sw_arc.c ****             quarter_area.x2 = q->center->x - 1;
 387:lvgl/src/draw/sw/lv_draw_sw_arc.c ****             quarter_area.y1 = q->center->y - q->radius;
 388:lvgl/src/draw/sw/lv_draw_sw_arc.c **** 
 389:lvgl/src/draw/sw/lv_draw_sw_arc.c ****             quarter_area.x1 = q->center->x + ((lv_trigo_sin(q->start_angle + 90) * (q->radius)) >> 
 390:lvgl/src/draw/sw/lv_draw_sw_arc.c ****             quarter_area.y2 = q->center->y + ((lv_trigo_sin(q->start_angle) * (q->radius - q->width
 391:lvgl/src/draw/sw/lv_draw_sw_arc.c **** 
 392:lvgl/src/draw/sw/lv_draw_sw_arc.c ****             bool ok = _lv_area_intersect(&quarter_area, &quarter_area, clip_area_ori);
 393:lvgl/src/draw/sw/lv_draw_sw_arc.c ****             if(ok) {
 394:lvgl/src/draw/sw/lv_draw_sw_arc.c ****                 q->draw_ctx->clip_area = &quarter_area;
 395:lvgl/src/draw/sw/lv_draw_sw_arc.c ****                 lv_draw_rect(q->draw_ctx, q->draw_dsc, q->draw_area);
 396:lvgl/src/draw/sw/lv_draw_sw_arc.c ****             }
 397:lvgl/src/draw/sw/lv_draw_sw_arc.c ****         }
 398:lvgl/src/draw/sw/lv_draw_sw_arc.c ****         if(q->end_quarter == 2) {
 399:lvgl/src/draw/sw/lv_draw_sw_arc.c ****             quarter_area.x1 = q->center->x - q->radius;
 400:lvgl/src/draw/sw/lv_draw_sw_arc.c ****             quarter_area.y2 = q->center->y - 1;
 401:lvgl/src/draw/sw/lv_draw_sw_arc.c **** 
 402:lvgl/src/draw/sw/lv_draw_sw_arc.c ****             quarter_area.x2 = q->center->x + ((lv_trigo_sin(q->end_angle + 90) * (q->radius - q->wi
 403:lvgl/src/draw/sw/lv_draw_sw_arc.c ****             quarter_area.y1 = q->center->y + ((lv_trigo_sin(q->end_angle) * (q->radius)) >> LV_TRIG
 404:lvgl/src/draw/sw/lv_draw_sw_arc.c **** 
 405:lvgl/src/draw/sw/lv_draw_sw_arc.c ****             bool ok = _lv_area_intersect(&quarter_area, &quarter_area, clip_area_ori);
 406:lvgl/src/draw/sw/lv_draw_sw_arc.c ****             if(ok) {
 407:lvgl/src/draw/sw/lv_draw_sw_arc.c ****                 q->draw_ctx->clip_area = &quarter_area;
 408:lvgl/src/draw/sw/lv_draw_sw_arc.c ****                 lv_draw_rect(q->draw_ctx, q->draw_dsc, q->draw_area);
 409:lvgl/src/draw/sw/lv_draw_sw_arc.c ****             }
 410:lvgl/src/draw/sw/lv_draw_sw_arc.c ****         }
 411:lvgl/src/draw/sw/lv_draw_sw_arc.c ****     }
 412:lvgl/src/draw/sw/lv_draw_sw_arc.c ****     else if((q->start_quarter == q->end_quarter && q->start_quarter != 2 && q->end_angle < q->start
 1012              		.loc 1 412 10 is_stmt 1 view .LVU394
 1013              		.loc 1 412 12 is_stmt 0 view .LVU395
 1014 001a 9342     		cmp	r3, r2
 1015 001c 00F0DC80 		beq	.L45
 1016              	.L39:
 1017              		.loc 1 412 108 discriminator 5 view .LVU396
 1018 0020 13B9     		cbnz	r3, .L41
 413:lvgl/src/draw/sw/lv_draw_sw_arc.c ****             (q->start_quarter == 0 && q->end_quarter == 3) ||
 1019              		.loc 1 413 36 view .LVU397
 1020 0022 032A     		cmp	r2, #3
 1021 0024 00F0DD80 		beq	.L40
 1022              	.L41:
 1023              		.loc 1 413 60 discriminator 1 view .LVU398
 1024 0028 012B     		cmp	r3, #1
 1025 002a 00F0FD80 		beq	.L46
 1026              	.L42:
 414:lvgl/src/draw/sw/lv_draw_sw_arc.c ****             (q->start_quarter == 1 && q->end_quarter == 3) ||
 1027              		.loc 1 414 60 discriminator 1 view .LVU399
 1028 002e 012B     		cmp	r3, #1
 1029 0030 5CD1     		bne	.L35
ARM GAS  /var/folders/21/t9g5rlb91ys800n5npymflf80000gn/T//ccb1YJg7.s 			page 32


 415:lvgl/src/draw/sw/lv_draw_sw_arc.c ****             (q->start_quarter == 1 && q->end_quarter == 0)) {
 1030              		.loc 1 415 36 view .LVU400
 1031 0032 002A     		cmp	r2, #0
 1032 0034 5AD1     		bne	.L35
 1033 0036 D4E0     		b	.L40
 1034              	.LVL60:
 1035              	.L44:
 369:lvgl/src/draw/sw/lv_draw_sw_arc.c ****         /*Small arc here*/
 1036              		.loc 1 369 34 discriminator 1 view .LVU401
 1037 0038 8289     		ldrh	r2, [r0, #12]
 369:lvgl/src/draw/sw/lv_draw_sw_arc.c ****         /*Small arc here*/
 1038              		.loc 1 369 30 discriminator 1 view .LVU402
 1039 003a 022A     		cmp	r2, #2
 1040 003c E8D1     		bne	.L34
 369:lvgl/src/draw/sw/lv_draw_sw_arc.c ****         /*Small arc here*/
 1041              		.loc 1 369 57 discriminator 2 view .LVU403
 1042 003e C088     		ldrh	r0, [r0, #6]
 1043              	.LVL61:
 369:lvgl/src/draw/sw/lv_draw_sw_arc.c ****         /*Small arc here*/
 1044              		.loc 1 369 74 discriminator 2 view .LVU404
 1045 0040 2289     		ldrh	r2, [r4, #8]
 369:lvgl/src/draw/sw/lv_draw_sw_arc.c ****         /*Small arc here*/
 1046              		.loc 1 369 53 discriminator 2 view .LVU405
 1047 0042 9042     		cmp	r0, r2
 1048 0044 E4D2     		bcs	.L34
 1049              	.LBB20:
 371:lvgl/src/draw/sw/lv_draw_sw_arc.c ****         quarter_area.y2 = q->center->y + ((lv_trigo_sin(q->start_angle) * (q->radius - q->width)) >
 1050              		.loc 1 371 9 is_stmt 1 view .LVU406
 371:lvgl/src/draw/sw/lv_draw_sw_arc.c ****         quarter_area.y2 = q->center->y + ((lv_trigo_sin(q->start_angle) * (q->radius - q->width)) >
 1051              		.loc 1 371 28 is_stmt 0 view .LVU407
 1052 0046 2368     		ldr	r3, [r4]
 371:lvgl/src/draw/sw/lv_draw_sw_arc.c ****         quarter_area.y2 = q->center->y + ((lv_trigo_sin(q->start_angle) * (q->radius - q->width)) >
 1053              		.loc 1 371 36 view .LVU408
 1054 0048 1E88     		ldrh	r6, [r3]
 371:lvgl/src/draw/sw/lv_draw_sw_arc.c ****         quarter_area.y2 = q->center->y + ((lv_trigo_sin(q->start_angle) * (q->radius - q->width)) >
 1055              		.loc 1 371 72 view .LVU409
 1056 004a 5A30     		adds	r0, r0, #90
 371:lvgl/src/draw/sw/lv_draw_sw_arc.c ****         quarter_area.y2 = q->center->y + ((lv_trigo_sin(q->start_angle) * (q->radius - q->width)) >
 1057              		.loc 1 371 44 view .LVU410
 1058 004c 00B2     		sxth	r0, r0
 1059 004e FFF7FEFF 		bl	lv_trigo_sin
 1060              	.LVL62:
 371:lvgl/src/draw/sw/lv_draw_sw_arc.c ****         quarter_area.y2 = q->center->y + ((lv_trigo_sin(q->start_angle) * (q->radius - q->width)) >
 1061              		.loc 1 371 82 view .LVU411
 1062 0052 B4F90430 		ldrsh	r3, [r4, #4]
 371:lvgl/src/draw/sw/lv_draw_sw_arc.c ****         quarter_area.y2 = q->center->y + ((lv_trigo_sin(q->start_angle) * (q->radius - q->width)) >
 1063              		.loc 1 371 78 view .LVU412
 1064 0056 03FB00F0 		mul	r0, r3, r0
 371:lvgl/src/draw/sw/lv_draw_sw_arc.c ****         quarter_area.y2 = q->center->y + ((lv_trigo_sin(q->start_angle) * (q->radius - q->width)) >
 1065              		.loc 1 371 40 view .LVU413
 1066 005a 06EBE036 		add	r6, r6, r0, asr #15
 371:lvgl/src/draw/sw/lv_draw_sw_arc.c ****         quarter_area.y2 = q->center->y + ((lv_trigo_sin(q->start_angle) * (q->radius - q->width)) >
 1067              		.loc 1 371 25 view .LVU414
 1068 005e ADF80060 		strh	r6, [sp]	@ movhi
 372:lvgl/src/draw/sw/lv_draw_sw_arc.c **** 
 1069              		.loc 1 372 9 is_stmt 1 view .LVU415
 372:lvgl/src/draw/sw/lv_draw_sw_arc.c **** 
ARM GAS  /var/folders/21/t9g5rlb91ys800n5npymflf80000gn/T//ccb1YJg7.s 			page 33


 1070              		.loc 1 372 28 is_stmt 0 view .LVU416
 1071 0062 2368     		ldr	r3, [r4]
 372:lvgl/src/draw/sw/lv_draw_sw_arc.c **** 
 1072              		.loc 1 372 36 view .LVU417
 1073 0064 5E88     		ldrh	r6, [r3, #2]
 372:lvgl/src/draw/sw/lv_draw_sw_arc.c **** 
 1074              		.loc 1 372 44 view .LVU418
 1075 0066 B4F90600 		ldrsh	r0, [r4, #6]
 1076 006a FFF7FEFF 		bl	lv_trigo_sin
 1077              	.LVL63:
 372:lvgl/src/draw/sw/lv_draw_sw_arc.c **** 
 1078              		.loc 1 372 77 view .LVU419
 1079 006e B4F90430 		ldrsh	r3, [r4, #4]
 372:lvgl/src/draw/sw/lv_draw_sw_arc.c **** 
 1080              		.loc 1 372 89 view .LVU420
 1081 0072 B4F90E20 		ldrsh	r2, [r4, #14]
 372:lvgl/src/draw/sw/lv_draw_sw_arc.c **** 
 1082              		.loc 1 372 86 view .LVU421
 1083 0076 9B1A     		subs	r3, r3, r2
 372:lvgl/src/draw/sw/lv_draw_sw_arc.c **** 
 1084              		.loc 1 372 73 view .LVU422
 1085 0078 03FB00F0 		mul	r0, r3, r0
 372:lvgl/src/draw/sw/lv_draw_sw_arc.c **** 
 1086              		.loc 1 372 40 view .LVU423
 1087 007c 06EBE036 		add	r6, r6, r0, asr #15
 372:lvgl/src/draw/sw/lv_draw_sw_arc.c **** 
 1088              		.loc 1 372 25 view .LVU424
 1089 0080 ADF80660 		strh	r6, [sp, #6]	@ movhi
 374:lvgl/src/draw/sw/lv_draw_sw_arc.c ****         quarter_area.x2 = q->center->x + ((lv_trigo_sin(q->end_angle + 90) * (q->radius - q->width)
 1090              		.loc 1 374 9 is_stmt 1 view .LVU425
 374:lvgl/src/draw/sw/lv_draw_sw_arc.c ****         quarter_area.x2 = q->center->x + ((lv_trigo_sin(q->end_angle + 90) * (q->radius - q->width)
 1091              		.loc 1 374 28 is_stmt 0 view .LVU426
 1092 0084 2368     		ldr	r3, [r4]
 374:lvgl/src/draw/sw/lv_draw_sw_arc.c ****         quarter_area.x2 = q->center->x + ((lv_trigo_sin(q->end_angle + 90) * (q->radius - q->width)
 1093              		.loc 1 374 36 view .LVU427
 1094 0086 5E88     		ldrh	r6, [r3, #2]
 374:lvgl/src/draw/sw/lv_draw_sw_arc.c ****         quarter_area.x2 = q->center->x + ((lv_trigo_sin(q->end_angle + 90) * (q->radius - q->width)
 1095              		.loc 1 374 44 view .LVU428
 1096 0088 B4F90800 		ldrsh	r0, [r4, #8]
 1097 008c FFF7FEFF 		bl	lv_trigo_sin
 1098              	.LVL64:
 374:lvgl/src/draw/sw/lv_draw_sw_arc.c ****         quarter_area.x2 = q->center->x + ((lv_trigo_sin(q->end_angle + 90) * (q->radius - q->width)
 1099              		.loc 1 374 74 view .LVU429
 1100 0090 B4F90430 		ldrsh	r3, [r4, #4]
 374:lvgl/src/draw/sw/lv_draw_sw_arc.c ****         quarter_area.x2 = q->center->x + ((lv_trigo_sin(q->end_angle + 90) * (q->radius - q->width)
 1101              		.loc 1 374 71 view .LVU430
 1102 0094 03FB00F0 		mul	r0, r3, r0
 374:lvgl/src/draw/sw/lv_draw_sw_arc.c ****         quarter_area.x2 = q->center->x + ((lv_trigo_sin(q->end_angle + 90) * (q->radius - q->width)
 1103              		.loc 1 374 40 view .LVU431
 1104 0098 06EBE036 		add	r6, r6, r0, asr #15
 374:lvgl/src/draw/sw/lv_draw_sw_arc.c ****         quarter_area.x2 = q->center->x + ((lv_trigo_sin(q->end_angle + 90) * (q->radius - q->width)
 1105              		.loc 1 374 25 view .LVU432
 1106 009c ADF80260 		strh	r6, [sp, #2]	@ movhi
 375:lvgl/src/draw/sw/lv_draw_sw_arc.c **** 
 1107              		.loc 1 375 9 is_stmt 1 view .LVU433
 375:lvgl/src/draw/sw/lv_draw_sw_arc.c **** 
 1108              		.loc 1 375 28 is_stmt 0 view .LVU434
ARM GAS  /var/folders/21/t9g5rlb91ys800n5npymflf80000gn/T//ccb1YJg7.s 			page 34


 1109 00a0 2368     		ldr	r3, [r4]
 375:lvgl/src/draw/sw/lv_draw_sw_arc.c **** 
 1110              		.loc 1 375 36 view .LVU435
 1111 00a2 1E88     		ldrh	r6, [r3]
 375:lvgl/src/draw/sw/lv_draw_sw_arc.c **** 
 1112              		.loc 1 375 58 view .LVU436
 1113 00a4 2089     		ldrh	r0, [r4, #8]
 375:lvgl/src/draw/sw/lv_draw_sw_arc.c **** 
 1114              		.loc 1 375 70 view .LVU437
 1115 00a6 5A30     		adds	r0, r0, #90
 375:lvgl/src/draw/sw/lv_draw_sw_arc.c **** 
 1116              		.loc 1 375 44 view .LVU438
 1117 00a8 00B2     		sxth	r0, r0
 1118 00aa FFF7FEFF 		bl	lv_trigo_sin
 1119              	.LVL65:
 375:lvgl/src/draw/sw/lv_draw_sw_arc.c **** 
 1120              		.loc 1 375 80 view .LVU439
 1121 00ae B4F90430 		ldrsh	r3, [r4, #4]
 375:lvgl/src/draw/sw/lv_draw_sw_arc.c **** 
 1122              		.loc 1 375 92 view .LVU440
 1123 00b2 B4F90E20 		ldrsh	r2, [r4, #14]
 375:lvgl/src/draw/sw/lv_draw_sw_arc.c **** 
 1124              		.loc 1 375 89 view .LVU441
 1125 00b6 9B1A     		subs	r3, r3, r2
 375:lvgl/src/draw/sw/lv_draw_sw_arc.c **** 
 1126              		.loc 1 375 76 view .LVU442
 1127 00b8 03FB00F0 		mul	r0, r3, r0
 375:lvgl/src/draw/sw/lv_draw_sw_arc.c **** 
 1128              		.loc 1 375 40 view .LVU443
 1129 00bc 06EBE036 		add	r6, r6, r0, asr #15
 375:lvgl/src/draw/sw/lv_draw_sw_arc.c **** 
 1130              		.loc 1 375 25 view .LVU444
 1131 00c0 ADF80460 		strh	r6, [sp, #4]	@ movhi
 377:lvgl/src/draw/sw/lv_draw_sw_arc.c ****         if(ok) {
 1132              		.loc 1 377 9 is_stmt 1 view .LVU445
 377:lvgl/src/draw/sw/lv_draw_sw_arc.c ****         if(ok) {
 1133              		.loc 1 377 19 is_stmt 0 view .LVU446
 1134 00c4 2A46     		mov	r2, r5
 1135 00c6 6946     		mov	r1, sp
 1136 00c8 6846     		mov	r0, sp
 1137 00ca FFF7FEFF 		bl	_lv_area_intersect
 1138              	.LVL66:
 378:lvgl/src/draw/sw/lv_draw_sw_arc.c ****             q->draw_ctx->clip_area = &quarter_area;
 1139              		.loc 1 378 9 is_stmt 1 view .LVU447
 378:lvgl/src/draw/sw/lv_draw_sw_arc.c ****             q->draw_ctx->clip_area = &quarter_area;
 1140              		.loc 1 378 11 is_stmt 0 view .LVU448
 1141 00ce 68B1     		cbz	r0, .L35
 379:lvgl/src/draw/sw/lv_draw_sw_arc.c ****             lv_draw_rect(q->draw_ctx, q->draw_dsc, q->draw_area);
 1142              		.loc 1 379 13 is_stmt 1 view .LVU449
 379:lvgl/src/draw/sw/lv_draw_sw_arc.c ****             lv_draw_rect(q->draw_ctx, q->draw_dsc, q->draw_area);
 1143              		.loc 1 379 14 is_stmt 0 view .LVU450
 1144 00d0 A369     		ldr	r3, [r4, #24]
 379:lvgl/src/draw/sw/lv_draw_sw_arc.c ****             lv_draw_rect(q->draw_ctx, q->draw_dsc, q->draw_area);
 1145              		.loc 1 379 36 view .LVU451
 1146 00d2 C3F808D0 		str	sp, [r3, #8]
 380:lvgl/src/draw/sw/lv_draw_sw_arc.c ****         }
 1147              		.loc 1 380 13 is_stmt 1 view .LVU452
ARM GAS  /var/folders/21/t9g5rlb91ys800n5npymflf80000gn/T//ccb1YJg7.s 			page 35


 1148 00d6 6269     		ldr	r2, [r4, #20]
 1149 00d8 2169     		ldr	r1, [r4, #16]
 1150 00da A069     		ldr	r0, [r4, #24]
 1151              	.LVL67:
 380:lvgl/src/draw/sw/lv_draw_sw_arc.c ****         }
 1152              		.loc 1 380 13 is_stmt 0 view .LVU453
 1153 00dc FFF7FEFF 		bl	lv_draw_rect
 1154              	.LVL68:
 1155 00e0 04E0     		b	.L35
 1156              	.LVL69:
 1157              	.L36:
 380:lvgl/src/draw/sw/lv_draw_sw_arc.c ****         }
 1158              		.loc 1 380 13 view .LVU454
 1159              	.LBE20:
 385:lvgl/src/draw/sw/lv_draw_sw_arc.c ****             quarter_area.x2 = q->center->x - 1;
 1160              		.loc 1 385 9 is_stmt 1 view .LVU455
 385:lvgl/src/draw/sw/lv_draw_sw_arc.c ****             quarter_area.x2 = q->center->x - 1;
 1161              		.loc 1 385 11 is_stmt 0 view .LVU456
 1162 00e2 022B     		cmp	r3, #2
 1163 00e4 06D0     		beq	.L47
 1164              	.L38:
 398:lvgl/src/draw/sw/lv_draw_sw_arc.c ****             quarter_area.x1 = q->center->x - q->radius;
 1165              		.loc 1 398 9 is_stmt 1 view .LVU457
 398:lvgl/src/draw/sw/lv_draw_sw_arc.c ****             quarter_area.x1 = q->center->x - q->radius;
 1166              		.loc 1 398 13 is_stmt 0 view .LVU458
 1167 00e6 A389     		ldrh	r3, [r4, #12]
 398:lvgl/src/draw/sw/lv_draw_sw_arc.c ****             quarter_area.x1 = q->center->x - q->radius;
 1168              		.loc 1 398 11 view .LVU459
 1169 00e8 022B     		cmp	r3, #2
 1170 00ea 3CD0     		beq	.L48
 1171              	.L35:
 416:lvgl/src/draw/sw/lv_draw_sw_arc.c ****         /*Arc crosses here*/
 417:lvgl/src/draw/sw/lv_draw_sw_arc.c ****         quarter_area.x1 = q->center->x - q->radius;
 418:lvgl/src/draw/sw/lv_draw_sw_arc.c ****         quarter_area.y1 = q->center->y - q->radius;
 419:lvgl/src/draw/sw/lv_draw_sw_arc.c ****         quarter_area.x2 = q->center->x - 1;
 420:lvgl/src/draw/sw/lv_draw_sw_arc.c ****         quarter_area.y2 = q->center->y - 1;
 421:lvgl/src/draw/sw/lv_draw_sw_arc.c **** 
 422:lvgl/src/draw/sw/lv_draw_sw_arc.c ****         bool ok = _lv_area_intersect(&quarter_area, &quarter_area, clip_area_ori);
 423:lvgl/src/draw/sw/lv_draw_sw_arc.c ****         if(ok) {
 424:lvgl/src/draw/sw/lv_draw_sw_arc.c ****             q->draw_ctx->clip_area = &quarter_area;
 425:lvgl/src/draw/sw/lv_draw_sw_arc.c ****             lv_draw_rect(q->draw_ctx, q->draw_dsc, q->draw_area);
 426:lvgl/src/draw/sw/lv_draw_sw_arc.c ****         }
 427:lvgl/src/draw/sw/lv_draw_sw_arc.c ****     }
 428:lvgl/src/draw/sw/lv_draw_sw_arc.c ****     q->draw_ctx->clip_area = clip_area_ori;
 1172              		.loc 1 428 5 is_stmt 1 view .LVU460
 1173              		.loc 1 428 6 is_stmt 0 view .LVU461
 1174 00ec A369     		ldr	r3, [r4, #24]
 1175              		.loc 1 428 28 view .LVU462
 1176 00ee 9D60     		str	r5, [r3, #8]
 429:lvgl/src/draw/sw/lv_draw_sw_arc.c **** }
 1177              		.loc 1 429 1 view .LVU463
 1178 00f0 02B0     		add	sp, sp, #8
 1179              	.LCFI10:
 1180              		.cfi_remember_state
 1181              		.cfi_def_cfa_offset 16
 1182              		@ sp needed
 1183 00f2 70BD     		pop	{r4, r5, r6, pc}
ARM GAS  /var/folders/21/t9g5rlb91ys800n5npymflf80000gn/T//ccb1YJg7.s 			page 36


 1184              	.LVL70:
 1185              	.L47:
 1186              	.LCFI11:
 1187              		.cfi_restore_state
 1188              	.LBB21:
 386:lvgl/src/draw/sw/lv_draw_sw_arc.c ****             quarter_area.y1 = q->center->y - q->radius;
 1189              		.loc 1 386 13 is_stmt 1 view .LVU464
 386:lvgl/src/draw/sw/lv_draw_sw_arc.c ****             quarter_area.y1 = q->center->y - q->radius;
 1190              		.loc 1 386 32 is_stmt 0 view .LVU465
 1191 00f4 2368     		ldr	r3, [r4]
 386:lvgl/src/draw/sw/lv_draw_sw_arc.c ****             quarter_area.y1 = q->center->y - q->radius;
 1192              		.loc 1 386 40 view .LVU466
 1193 00f6 1A88     		ldrh	r2, [r3]
 386:lvgl/src/draw/sw/lv_draw_sw_arc.c ****             quarter_area.y1 = q->center->y - q->radius;
 1194              		.loc 1 386 44 view .LVU467
 1195 00f8 013A     		subs	r2, r2, #1
 386:lvgl/src/draw/sw/lv_draw_sw_arc.c ****             quarter_area.y1 = q->center->y - q->radius;
 1196              		.loc 1 386 29 view .LVU468
 1197 00fa ADF80420 		strh	r2, [sp, #4]	@ movhi
 387:lvgl/src/draw/sw/lv_draw_sw_arc.c **** 
 1198              		.loc 1 387 13 is_stmt 1 view .LVU469
 387:lvgl/src/draw/sw/lv_draw_sw_arc.c **** 
 1199              		.loc 1 387 40 is_stmt 0 view .LVU470
 1200 00fe 5A88     		ldrh	r2, [r3, #2]
 387:lvgl/src/draw/sw/lv_draw_sw_arc.c **** 
 1201              		.loc 1 387 47 view .LVU471
 1202 0100 A188     		ldrh	r1, [r4, #4]
 387:lvgl/src/draw/sw/lv_draw_sw_arc.c **** 
 1203              		.loc 1 387 44 view .LVU472
 1204 0102 521A     		subs	r2, r2, r1
 387:lvgl/src/draw/sw/lv_draw_sw_arc.c **** 
 1205              		.loc 1 387 29 view .LVU473
 1206 0104 ADF80220 		strh	r2, [sp, #2]	@ movhi
 389:lvgl/src/draw/sw/lv_draw_sw_arc.c ****             quarter_area.y2 = q->center->y + ((lv_trigo_sin(q->start_angle) * (q->radius - q->width
 1207              		.loc 1 389 13 is_stmt 1 view .LVU474
 389:lvgl/src/draw/sw/lv_draw_sw_arc.c ****             quarter_area.y2 = q->center->y + ((lv_trigo_sin(q->start_angle) * (q->radius - q->width
 1208              		.loc 1 389 40 is_stmt 0 view .LVU475
 1209 0108 1E88     		ldrh	r6, [r3]
 389:lvgl/src/draw/sw/lv_draw_sw_arc.c ****             quarter_area.y2 = q->center->y + ((lv_trigo_sin(q->start_angle) * (q->radius - q->width
 1210              		.loc 1 389 62 view .LVU476
 1211 010a E088     		ldrh	r0, [r4, #6]
 389:lvgl/src/draw/sw/lv_draw_sw_arc.c ****             quarter_area.y2 = q->center->y + ((lv_trigo_sin(q->start_angle) * (q->radius - q->width
 1212              		.loc 1 389 76 view .LVU477
 1213 010c 5A30     		adds	r0, r0, #90
 389:lvgl/src/draw/sw/lv_draw_sw_arc.c ****             quarter_area.y2 = q->center->y + ((lv_trigo_sin(q->start_angle) * (q->radius - q->width
 1214              		.loc 1 389 48 view .LVU478
 1215 010e 00B2     		sxth	r0, r0
 1216 0110 FFF7FEFF 		bl	lv_trigo_sin
 1217              	.LVL71:
 389:lvgl/src/draw/sw/lv_draw_sw_arc.c ****             quarter_area.y2 = q->center->y + ((lv_trigo_sin(q->start_angle) * (q->radius - q->width
 1218              		.loc 1 389 86 view .LVU479
 1219 0114 B4F90430 		ldrsh	r3, [r4, #4]
 389:lvgl/src/draw/sw/lv_draw_sw_arc.c ****             quarter_area.y2 = q->center->y + ((lv_trigo_sin(q->start_angle) * (q->radius - q->width
 1220              		.loc 1 389 82 view .LVU480
 1221 0118 03FB00F0 		mul	r0, r3, r0
 389:lvgl/src/draw/sw/lv_draw_sw_arc.c ****             quarter_area.y2 = q->center->y + ((lv_trigo_sin(q->start_angle) * (q->radius - q->width
 1222              		.loc 1 389 44 view .LVU481
ARM GAS  /var/folders/21/t9g5rlb91ys800n5npymflf80000gn/T//ccb1YJg7.s 			page 37


 1223 011c 06EBE036 		add	r6, r6, r0, asr #15
 389:lvgl/src/draw/sw/lv_draw_sw_arc.c ****             quarter_area.y2 = q->center->y + ((lv_trigo_sin(q->start_angle) * (q->radius - q->width
 1224              		.loc 1 389 29 view .LVU482
 1225 0120 ADF80060 		strh	r6, [sp]	@ movhi
 390:lvgl/src/draw/sw/lv_draw_sw_arc.c **** 
 1226              		.loc 1 390 13 is_stmt 1 view .LVU483
 390:lvgl/src/draw/sw/lv_draw_sw_arc.c **** 
 1227              		.loc 1 390 32 is_stmt 0 view .LVU484
 1228 0124 2368     		ldr	r3, [r4]
 390:lvgl/src/draw/sw/lv_draw_sw_arc.c **** 
 1229              		.loc 1 390 40 view .LVU485
 1230 0126 5E88     		ldrh	r6, [r3, #2]
 390:lvgl/src/draw/sw/lv_draw_sw_arc.c **** 
 1231              		.loc 1 390 48 view .LVU486
 1232 0128 B4F90600 		ldrsh	r0, [r4, #6]
 1233 012c FFF7FEFF 		bl	lv_trigo_sin
 1234              	.LVL72:
 390:lvgl/src/draw/sw/lv_draw_sw_arc.c **** 
 1235              		.loc 1 390 81 view .LVU487
 1236 0130 B4F90430 		ldrsh	r3, [r4, #4]
 390:lvgl/src/draw/sw/lv_draw_sw_arc.c **** 
 1237              		.loc 1 390 93 view .LVU488
 1238 0134 B4F90E20 		ldrsh	r2, [r4, #14]
 390:lvgl/src/draw/sw/lv_draw_sw_arc.c **** 
 1239              		.loc 1 390 90 view .LVU489
 1240 0138 9B1A     		subs	r3, r3, r2
 390:lvgl/src/draw/sw/lv_draw_sw_arc.c **** 
 1241              		.loc 1 390 77 view .LVU490
 1242 013a 03FB00F0 		mul	r0, r3, r0
 390:lvgl/src/draw/sw/lv_draw_sw_arc.c **** 
 1243              		.loc 1 390 44 view .LVU491
 1244 013e 06EBE036 		add	r6, r6, r0, asr #15
 390:lvgl/src/draw/sw/lv_draw_sw_arc.c **** 
 1245              		.loc 1 390 29 view .LVU492
 1246 0142 ADF80660 		strh	r6, [sp, #6]	@ movhi
 392:lvgl/src/draw/sw/lv_draw_sw_arc.c ****             if(ok) {
 1247              		.loc 1 392 13 is_stmt 1 view .LVU493
 392:lvgl/src/draw/sw/lv_draw_sw_arc.c ****             if(ok) {
 1248              		.loc 1 392 23 is_stmt 0 view .LVU494
 1249 0146 2A46     		mov	r2, r5
 1250 0148 6946     		mov	r1, sp
 1251 014a 6846     		mov	r0, sp
 1252 014c FFF7FEFF 		bl	_lv_area_intersect
 1253              	.LVL73:
 393:lvgl/src/draw/sw/lv_draw_sw_arc.c ****                 q->draw_ctx->clip_area = &quarter_area;
 1254              		.loc 1 393 13 is_stmt 1 view .LVU495
 393:lvgl/src/draw/sw/lv_draw_sw_arc.c ****                 q->draw_ctx->clip_area = &quarter_area;
 1255              		.loc 1 393 15 is_stmt 0 view .LVU496
 1256 0150 0028     		cmp	r0, #0
 1257 0152 C8D0     		beq	.L38
 394:lvgl/src/draw/sw/lv_draw_sw_arc.c ****                 lv_draw_rect(q->draw_ctx, q->draw_dsc, q->draw_area);
 1258              		.loc 1 394 17 is_stmt 1 view .LVU497
 394:lvgl/src/draw/sw/lv_draw_sw_arc.c ****                 lv_draw_rect(q->draw_ctx, q->draw_dsc, q->draw_area);
 1259              		.loc 1 394 18 is_stmt 0 view .LVU498
 1260 0154 A369     		ldr	r3, [r4, #24]
 394:lvgl/src/draw/sw/lv_draw_sw_arc.c ****                 lv_draw_rect(q->draw_ctx, q->draw_dsc, q->draw_area);
 1261              		.loc 1 394 40 view .LVU499
ARM GAS  /var/folders/21/t9g5rlb91ys800n5npymflf80000gn/T//ccb1YJg7.s 			page 38


 1262 0156 C3F808D0 		str	sp, [r3, #8]
 395:lvgl/src/draw/sw/lv_draw_sw_arc.c ****             }
 1263              		.loc 1 395 17 is_stmt 1 view .LVU500
 1264 015a 6269     		ldr	r2, [r4, #20]
 1265 015c 2169     		ldr	r1, [r4, #16]
 1266 015e A069     		ldr	r0, [r4, #24]
 1267              	.LVL74:
 395:lvgl/src/draw/sw/lv_draw_sw_arc.c ****             }
 1268              		.loc 1 395 17 is_stmt 0 view .LVU501
 1269 0160 FFF7FEFF 		bl	lv_draw_rect
 1270              	.LVL75:
 1271 0164 BFE7     		b	.L38
 1272              	.LVL76:
 1273              	.L48:
 395:lvgl/src/draw/sw/lv_draw_sw_arc.c ****             }
 1274              		.loc 1 395 17 view .LVU502
 1275              	.LBE21:
 1276              	.LBB22:
 399:lvgl/src/draw/sw/lv_draw_sw_arc.c ****             quarter_area.y2 = q->center->y - 1;
 1277              		.loc 1 399 13 is_stmt 1 view .LVU503
 399:lvgl/src/draw/sw/lv_draw_sw_arc.c ****             quarter_area.y2 = q->center->y - 1;
 1278              		.loc 1 399 32 is_stmt 0 view .LVU504
 1279 0166 2368     		ldr	r3, [r4]
 399:lvgl/src/draw/sw/lv_draw_sw_arc.c ****             quarter_area.y2 = q->center->y - 1;
 1280              		.loc 1 399 40 view .LVU505
 1281 0168 1A88     		ldrh	r2, [r3]
 399:lvgl/src/draw/sw/lv_draw_sw_arc.c ****             quarter_area.y2 = q->center->y - 1;
 1282              		.loc 1 399 47 view .LVU506
 1283 016a A188     		ldrh	r1, [r4, #4]
 399:lvgl/src/draw/sw/lv_draw_sw_arc.c ****             quarter_area.y2 = q->center->y - 1;
 1284              		.loc 1 399 44 view .LVU507
 1285 016c 521A     		subs	r2, r2, r1
 399:lvgl/src/draw/sw/lv_draw_sw_arc.c ****             quarter_area.y2 = q->center->y - 1;
 1286              		.loc 1 399 29 view .LVU508
 1287 016e ADF80020 		strh	r2, [sp]	@ movhi
 400:lvgl/src/draw/sw/lv_draw_sw_arc.c **** 
 1288              		.loc 1 400 13 is_stmt 1 view .LVU509
 400:lvgl/src/draw/sw/lv_draw_sw_arc.c **** 
 1289              		.loc 1 400 40 is_stmt 0 view .LVU510
 1290 0172 5A88     		ldrh	r2, [r3, #2]
 400:lvgl/src/draw/sw/lv_draw_sw_arc.c **** 
 1291              		.loc 1 400 44 view .LVU511
 1292 0174 013A     		subs	r2, r2, #1
 400:lvgl/src/draw/sw/lv_draw_sw_arc.c **** 
 1293              		.loc 1 400 29 view .LVU512
 1294 0176 ADF80620 		strh	r2, [sp, #6]	@ movhi
 402:lvgl/src/draw/sw/lv_draw_sw_arc.c ****             quarter_area.y1 = q->center->y + ((lv_trigo_sin(q->end_angle) * (q->radius)) >> LV_TRIG
 1295              		.loc 1 402 13 is_stmt 1 view .LVU513
 402:lvgl/src/draw/sw/lv_draw_sw_arc.c ****             quarter_area.y1 = q->center->y + ((lv_trigo_sin(q->end_angle) * (q->radius)) >> LV_TRIG
 1296              		.loc 1 402 40 is_stmt 0 view .LVU514
 1297 017a 1E88     		ldrh	r6, [r3]
 402:lvgl/src/draw/sw/lv_draw_sw_arc.c ****             quarter_area.y1 = q->center->y + ((lv_trigo_sin(q->end_angle) * (q->radius)) >> LV_TRIG
 1298              		.loc 1 402 62 view .LVU515
 1299 017c 2089     		ldrh	r0, [r4, #8]
 402:lvgl/src/draw/sw/lv_draw_sw_arc.c ****             quarter_area.y1 = q->center->y + ((lv_trigo_sin(q->end_angle) * (q->radius)) >> LV_TRIG
 1300              		.loc 1 402 74 view .LVU516
 1301 017e 5A30     		adds	r0, r0, #90
ARM GAS  /var/folders/21/t9g5rlb91ys800n5npymflf80000gn/T//ccb1YJg7.s 			page 39


 402:lvgl/src/draw/sw/lv_draw_sw_arc.c ****             quarter_area.y1 = q->center->y + ((lv_trigo_sin(q->end_angle) * (q->radius)) >> LV_TRIG
 1302              		.loc 1 402 48 view .LVU517
 1303 0180 00B2     		sxth	r0, r0
 1304 0182 FFF7FEFF 		bl	lv_trigo_sin
 1305              	.LVL77:
 402:lvgl/src/draw/sw/lv_draw_sw_arc.c ****             quarter_area.y1 = q->center->y + ((lv_trigo_sin(q->end_angle) * (q->radius)) >> LV_TRIG
 1306              		.loc 1 402 84 view .LVU518
 1307 0186 B4F90430 		ldrsh	r3, [r4, #4]
 402:lvgl/src/draw/sw/lv_draw_sw_arc.c ****             quarter_area.y1 = q->center->y + ((lv_trigo_sin(q->end_angle) * (q->radius)) >> LV_TRIG
 1308              		.loc 1 402 96 view .LVU519
 1309 018a B4F90E20 		ldrsh	r2, [r4, #14]
 402:lvgl/src/draw/sw/lv_draw_sw_arc.c ****             quarter_area.y1 = q->center->y + ((lv_trigo_sin(q->end_angle) * (q->radius)) >> LV_TRIG
 1310              		.loc 1 402 93 view .LVU520
 1311 018e 9B1A     		subs	r3, r3, r2
 402:lvgl/src/draw/sw/lv_draw_sw_arc.c ****             quarter_area.y1 = q->center->y + ((lv_trigo_sin(q->end_angle) * (q->radius)) >> LV_TRIG
 1312              		.loc 1 402 80 view .LVU521
 1313 0190 03FB00F0 		mul	r0, r3, r0
 402:lvgl/src/draw/sw/lv_draw_sw_arc.c ****             quarter_area.y1 = q->center->y + ((lv_trigo_sin(q->end_angle) * (q->radius)) >> LV_TRIG
 1314              		.loc 1 402 44 view .LVU522
 1315 0194 06EBE036 		add	r6, r6, r0, asr #15
 402:lvgl/src/draw/sw/lv_draw_sw_arc.c ****             quarter_area.y1 = q->center->y + ((lv_trigo_sin(q->end_angle) * (q->radius)) >> LV_TRIG
 1316              		.loc 1 402 29 view .LVU523
 1317 0198 ADF80460 		strh	r6, [sp, #4]	@ movhi
 403:lvgl/src/draw/sw/lv_draw_sw_arc.c **** 
 1318              		.loc 1 403 13 is_stmt 1 view .LVU524
 403:lvgl/src/draw/sw/lv_draw_sw_arc.c **** 
 1319              		.loc 1 403 32 is_stmt 0 view .LVU525
 1320 019c 2368     		ldr	r3, [r4]
 403:lvgl/src/draw/sw/lv_draw_sw_arc.c **** 
 1321              		.loc 1 403 40 view .LVU526
 1322 019e 5E88     		ldrh	r6, [r3, #2]
 403:lvgl/src/draw/sw/lv_draw_sw_arc.c **** 
 1323              		.loc 1 403 48 view .LVU527
 1324 01a0 B4F90800 		ldrsh	r0, [r4, #8]
 1325 01a4 FFF7FEFF 		bl	lv_trigo_sin
 1326              	.LVL78:
 403:lvgl/src/draw/sw/lv_draw_sw_arc.c **** 
 1327              		.loc 1 403 79 view .LVU528
 1328 01a8 B4F90430 		ldrsh	r3, [r4, #4]
 403:lvgl/src/draw/sw/lv_draw_sw_arc.c **** 
 1329              		.loc 1 403 75 view .LVU529
 1330 01ac 03FB00F0 		mul	r0, r3, r0
 403:lvgl/src/draw/sw/lv_draw_sw_arc.c **** 
 1331              		.loc 1 403 44 view .LVU530
 1332 01b0 06EBE036 		add	r6, r6, r0, asr #15
 403:lvgl/src/draw/sw/lv_draw_sw_arc.c **** 
 1333              		.loc 1 403 29 view .LVU531
 1334 01b4 ADF80260 		strh	r6, [sp, #2]	@ movhi
 405:lvgl/src/draw/sw/lv_draw_sw_arc.c ****             if(ok) {
 1335              		.loc 1 405 13 is_stmt 1 view .LVU532
 405:lvgl/src/draw/sw/lv_draw_sw_arc.c ****             if(ok) {
 1336              		.loc 1 405 23 is_stmt 0 view .LVU533
 1337 01b8 2A46     		mov	r2, r5
 1338 01ba 6946     		mov	r1, sp
 1339 01bc 6846     		mov	r0, sp
 1340 01be FFF7FEFF 		bl	_lv_area_intersect
 1341              	.LVL79:
ARM GAS  /var/folders/21/t9g5rlb91ys800n5npymflf80000gn/T//ccb1YJg7.s 			page 40


 406:lvgl/src/draw/sw/lv_draw_sw_arc.c ****                 q->draw_ctx->clip_area = &quarter_area;
 1342              		.loc 1 406 13 is_stmt 1 view .LVU534
 406:lvgl/src/draw/sw/lv_draw_sw_arc.c ****                 q->draw_ctx->clip_area = &quarter_area;
 1343              		.loc 1 406 15 is_stmt 0 view .LVU535
 1344 01c2 0028     		cmp	r0, #0
 1345 01c4 92D0     		beq	.L35
 407:lvgl/src/draw/sw/lv_draw_sw_arc.c ****                 lv_draw_rect(q->draw_ctx, q->draw_dsc, q->draw_area);
 1346              		.loc 1 407 17 is_stmt 1 view .LVU536
 407:lvgl/src/draw/sw/lv_draw_sw_arc.c ****                 lv_draw_rect(q->draw_ctx, q->draw_dsc, q->draw_area);
 1347              		.loc 1 407 18 is_stmt 0 view .LVU537
 1348 01c6 A369     		ldr	r3, [r4, #24]
 407:lvgl/src/draw/sw/lv_draw_sw_arc.c ****                 lv_draw_rect(q->draw_ctx, q->draw_dsc, q->draw_area);
 1349              		.loc 1 407 40 view .LVU538
 1350 01c8 C3F808D0 		str	sp, [r3, #8]
 408:lvgl/src/draw/sw/lv_draw_sw_arc.c ****             }
 1351              		.loc 1 408 17 is_stmt 1 view .LVU539
 1352 01cc 6269     		ldr	r2, [r4, #20]
 1353 01ce 2169     		ldr	r1, [r4, #16]
 1354 01d0 A069     		ldr	r0, [r4, #24]
 1355              	.LVL80:
 408:lvgl/src/draw/sw/lv_draw_sw_arc.c ****             }
 1356              		.loc 1 408 17 is_stmt 0 view .LVU540
 1357 01d2 FFF7FEFF 		bl	lv_draw_rect
 1358              	.LVL81:
 1359 01d6 89E7     		b	.L35
 1360              	.LVL82:
 1361              	.L45:
 408:lvgl/src/draw/sw/lv_draw_sw_arc.c ****             }
 1362              		.loc 1 408 17 view .LVU541
 1363              	.LBE22:
 412:lvgl/src/draw/sw/lv_draw_sw_arc.c ****             (q->start_quarter == 0 && q->end_quarter == 3) ||
 1364              		.loc 1 412 78 discriminator 3 view .LVU542
 1365 01d8 2089     		ldrh	r0, [r4, #8]
 412:lvgl/src/draw/sw/lv_draw_sw_arc.c ****             (q->start_quarter == 0 && q->end_quarter == 3) ||
 1366              		.loc 1 412 93 discriminator 3 view .LVU543
 1367 01da E188     		ldrh	r1, [r4, #6]
 412:lvgl/src/draw/sw/lv_draw_sw_arc.c ****             (q->start_quarter == 0 && q->end_quarter == 3) ||
 1368              		.loc 1 412 74 discriminator 3 view .LVU544
 1369 01dc 8842     		cmp	r0, r1
 1370 01de BFF41FAF 		bcs	.L39
 1371              	.L40:
 1372              	.LBB23:
 417:lvgl/src/draw/sw/lv_draw_sw_arc.c ****         quarter_area.y1 = q->center->y - q->radius;
 1373              		.loc 1 417 9 is_stmt 1 view .LVU545
 417:lvgl/src/draw/sw/lv_draw_sw_arc.c ****         quarter_area.y1 = q->center->y - q->radius;
 1374              		.loc 1 417 28 is_stmt 0 view .LVU546
 1375 01e2 2368     		ldr	r3, [r4]
 417:lvgl/src/draw/sw/lv_draw_sw_arc.c ****         quarter_area.y1 = q->center->y - q->radius;
 1376              		.loc 1 417 36 view .LVU547
 1377 01e4 1A88     		ldrh	r2, [r3]
 417:lvgl/src/draw/sw/lv_draw_sw_arc.c ****         quarter_area.y1 = q->center->y - q->radius;
 1378              		.loc 1 417 43 view .LVU548
 1379 01e6 A188     		ldrh	r1, [r4, #4]
 417:lvgl/src/draw/sw/lv_draw_sw_arc.c ****         quarter_area.y1 = q->center->y - q->radius;
 1380              		.loc 1 417 40 view .LVU549
 1381 01e8 521A     		subs	r2, r2, r1
 417:lvgl/src/draw/sw/lv_draw_sw_arc.c ****         quarter_area.y1 = q->center->y - q->radius;
ARM GAS  /var/folders/21/t9g5rlb91ys800n5npymflf80000gn/T//ccb1YJg7.s 			page 41


 1382              		.loc 1 417 25 view .LVU550
 1383 01ea ADF80020 		strh	r2, [sp]	@ movhi
 418:lvgl/src/draw/sw/lv_draw_sw_arc.c ****         quarter_area.x2 = q->center->x - 1;
 1384              		.loc 1 418 9 is_stmt 1 view .LVU551
 418:lvgl/src/draw/sw/lv_draw_sw_arc.c ****         quarter_area.x2 = q->center->x - 1;
 1385              		.loc 1 418 36 is_stmt 0 view .LVU552
 1386 01ee 5A88     		ldrh	r2, [r3, #2]
 418:lvgl/src/draw/sw/lv_draw_sw_arc.c ****         quarter_area.x2 = q->center->x - 1;
 1387              		.loc 1 418 40 view .LVU553
 1388 01f0 521A     		subs	r2, r2, r1
 418:lvgl/src/draw/sw/lv_draw_sw_arc.c ****         quarter_area.x2 = q->center->x - 1;
 1389              		.loc 1 418 25 view .LVU554
 1390 01f2 ADF80220 		strh	r2, [sp, #2]	@ movhi
 419:lvgl/src/draw/sw/lv_draw_sw_arc.c ****         quarter_area.y2 = q->center->y - 1;
 1391              		.loc 1 419 9 is_stmt 1 view .LVU555
 419:lvgl/src/draw/sw/lv_draw_sw_arc.c ****         quarter_area.y2 = q->center->y - 1;
 1392              		.loc 1 419 36 is_stmt 0 view .LVU556
 1393 01f6 1A88     		ldrh	r2, [r3]
 419:lvgl/src/draw/sw/lv_draw_sw_arc.c ****         quarter_area.y2 = q->center->y - 1;
 1394              		.loc 1 419 40 view .LVU557
 1395 01f8 013A     		subs	r2, r2, #1
 419:lvgl/src/draw/sw/lv_draw_sw_arc.c ****         quarter_area.y2 = q->center->y - 1;
 1396              		.loc 1 419 25 view .LVU558
 1397 01fa ADF80420 		strh	r2, [sp, #4]	@ movhi
 420:lvgl/src/draw/sw/lv_draw_sw_arc.c **** 
 1398              		.loc 1 420 9 is_stmt 1 view .LVU559
 420:lvgl/src/draw/sw/lv_draw_sw_arc.c **** 
 1399              		.loc 1 420 36 is_stmt 0 view .LVU560
 1400 01fe 5B88     		ldrh	r3, [r3, #2]
 420:lvgl/src/draw/sw/lv_draw_sw_arc.c **** 
 1401              		.loc 1 420 40 view .LVU561
 1402 0200 013B     		subs	r3, r3, #1
 420:lvgl/src/draw/sw/lv_draw_sw_arc.c **** 
 1403              		.loc 1 420 25 view .LVU562
 1404 0202 ADF80630 		strh	r3, [sp, #6]	@ movhi
 422:lvgl/src/draw/sw/lv_draw_sw_arc.c ****         if(ok) {
 1405              		.loc 1 422 9 is_stmt 1 view .LVU563
 422:lvgl/src/draw/sw/lv_draw_sw_arc.c ****         if(ok) {
 1406              		.loc 1 422 19 is_stmt 0 view .LVU564
 1407 0206 2A46     		mov	r2, r5
 1408 0208 6946     		mov	r1, sp
 1409 020a 6846     		mov	r0, sp
 1410 020c FFF7FEFF 		bl	_lv_area_intersect
 1411              	.LVL83:
 423:lvgl/src/draw/sw/lv_draw_sw_arc.c ****             q->draw_ctx->clip_area = &quarter_area;
 1412              		.loc 1 423 9 is_stmt 1 view .LVU565
 423:lvgl/src/draw/sw/lv_draw_sw_arc.c ****             q->draw_ctx->clip_area = &quarter_area;
 1413              		.loc 1 423 11 is_stmt 0 view .LVU566
 1414 0210 0028     		cmp	r0, #0
 1415 0212 3FF46BAF 		beq	.L35
 424:lvgl/src/draw/sw/lv_draw_sw_arc.c ****             lv_draw_rect(q->draw_ctx, q->draw_dsc, q->draw_area);
 1416              		.loc 1 424 13 is_stmt 1 view .LVU567
 424:lvgl/src/draw/sw/lv_draw_sw_arc.c ****             lv_draw_rect(q->draw_ctx, q->draw_dsc, q->draw_area);
 1417              		.loc 1 424 14 is_stmt 0 view .LVU568
 1418 0216 A369     		ldr	r3, [r4, #24]
 424:lvgl/src/draw/sw/lv_draw_sw_arc.c ****             lv_draw_rect(q->draw_ctx, q->draw_dsc, q->draw_area);
 1419              		.loc 1 424 36 view .LVU569
ARM GAS  /var/folders/21/t9g5rlb91ys800n5npymflf80000gn/T//ccb1YJg7.s 			page 42


 1420 0218 C3F808D0 		str	sp, [r3, #8]
 425:lvgl/src/draw/sw/lv_draw_sw_arc.c ****         }
 1421              		.loc 1 425 13 is_stmt 1 view .LVU570
 1422 021c 6269     		ldr	r2, [r4, #20]
 1423 021e 2169     		ldr	r1, [r4, #16]
 1424 0220 A069     		ldr	r0, [r4, #24]
 1425              	.LVL84:
 425:lvgl/src/draw/sw/lv_draw_sw_arc.c ****         }
 1426              		.loc 1 425 13 is_stmt 0 view .LVU571
 1427 0222 FFF7FEFF 		bl	lv_draw_rect
 1428              	.LVL85:
 1429 0226 61E7     		b	.L35
 1430              	.LVL86:
 1431              	.L46:
 425:lvgl/src/draw/sw/lv_draw_sw_arc.c ****         }
 1432              		.loc 1 425 13 view .LVU572
 1433              	.LBE23:
 414:lvgl/src/draw/sw/lv_draw_sw_arc.c ****             (q->start_quarter == 1 && q->end_quarter == 0)) {
 1434              		.loc 1 414 36 view .LVU573
 1435 0228 032A     		cmp	r2, #3
 1436 022a 7FF400AF 		bne	.L42
 1437 022e D8E7     		b	.L40
 1438              		.cfi_endproc
 1439              	.LFE59:
 1441              		.section	.text.draw_quarter_3,"ax",%progbits
 1442              		.align	1
 1443              		.syntax unified
 1444              		.thumb
 1445              		.thumb_func
 1447              	draw_quarter_3:
 1448              	.LVL87:
 1449              	.LFB60:
 430:lvgl/src/draw/sw/lv_draw_sw_arc.c **** 
 431:lvgl/src/draw/sw/lv_draw_sw_arc.c **** static void draw_quarter_3(quarter_draw_dsc_t * q)
 432:lvgl/src/draw/sw/lv_draw_sw_arc.c **** {
 1450              		.loc 1 432 1 is_stmt 1 view -0
 1451              		.cfi_startproc
 1452              		@ args = 0, pretend = 0, frame = 8
 1453              		@ frame_needed = 0, uses_anonymous_args = 0
 1454              		.loc 1 432 1 is_stmt 0 view .LVU575
 1455 0000 70B5     		push	{r4, r5, r6, lr}
 1456              	.LCFI12:
 1457              		.cfi_def_cfa_offset 16
 1458              		.cfi_offset 4, -16
 1459              		.cfi_offset 5, -12
 1460              		.cfi_offset 6, -8
 1461              		.cfi_offset 14, -4
 1462 0002 82B0     		sub	sp, sp, #8
 1463              	.LCFI13:
 1464              		.cfi_def_cfa_offset 24
 1465 0004 0446     		mov	r4, r0
 433:lvgl/src/draw/sw/lv_draw_sw_arc.c ****     const lv_area_t * clip_area_ori = q->draw_ctx->clip_area;
 1466              		.loc 1 433 5 is_stmt 1 view .LVU576
 1467              		.loc 1 433 40 is_stmt 0 view .LVU577
 1468 0006 8369     		ldr	r3, [r0, #24]
 1469              		.loc 1 433 23 view .LVU578
 1470 0008 9D68     		ldr	r5, [r3, #8]
ARM GAS  /var/folders/21/t9g5rlb91ys800n5npymflf80000gn/T//ccb1YJg7.s 			page 43


 1471              	.LVL88:
 434:lvgl/src/draw/sw/lv_draw_sw_arc.c ****     lv_area_t quarter_area;
 1472              		.loc 1 434 5 is_stmt 1 view .LVU579
 435:lvgl/src/draw/sw/lv_draw_sw_arc.c **** 
 436:lvgl/src/draw/sw/lv_draw_sw_arc.c ****     if(q->start_quarter == 3 && q->end_quarter == 3 && q->start_angle < q->end_angle) {
 1473              		.loc 1 436 5 view .LVU580
 1474              		.loc 1 436 9 is_stmt 0 view .LVU581
 1475 000a 4389     		ldrh	r3, [r0, #10]
 1476              		.loc 1 436 7 view .LVU582
 1477 000c 032B     		cmp	r3, #3
 1478 000e 12D0     		beq	.L60
 1479              	.LVL89:
 1480              	.L50:
 437:lvgl/src/draw/sw/lv_draw_sw_arc.c ****         /*Small arc here*/
 438:lvgl/src/draw/sw/lv_draw_sw_arc.c ****         quarter_area.x1 = q->center->x + ((lv_trigo_sin(q->start_angle + 90) * (q->radius - q->widt
 439:lvgl/src/draw/sw/lv_draw_sw_arc.c ****         quarter_area.y1 = q->center->y + ((lv_trigo_sin(q->start_angle) * (q->radius)) >> LV_TRIGO_
 440:lvgl/src/draw/sw/lv_draw_sw_arc.c **** 
 441:lvgl/src/draw/sw/lv_draw_sw_arc.c ****         quarter_area.x2 = q->center->x + ((lv_trigo_sin(q->end_angle + 90) * (q->radius)) >> LV_TRI
 442:lvgl/src/draw/sw/lv_draw_sw_arc.c ****         quarter_area.y2 = q->center->y + ((lv_trigo_sin(q->end_angle) * (q->radius - q->width)) >> 
 443:lvgl/src/draw/sw/lv_draw_sw_arc.c **** 
 444:lvgl/src/draw/sw/lv_draw_sw_arc.c ****         bool ok = _lv_area_intersect(&quarter_area, &quarter_area, clip_area_ori);
 445:lvgl/src/draw/sw/lv_draw_sw_arc.c ****         if(ok) {
 446:lvgl/src/draw/sw/lv_draw_sw_arc.c ****             q->draw_ctx->clip_area = &quarter_area;
 447:lvgl/src/draw/sw/lv_draw_sw_arc.c ****             lv_draw_rect(q->draw_ctx, q->draw_dsc, q->draw_area);
 448:lvgl/src/draw/sw/lv_draw_sw_arc.c ****         }
 449:lvgl/src/draw/sw/lv_draw_sw_arc.c ****     }
 450:lvgl/src/draw/sw/lv_draw_sw_arc.c ****     else if(q->start_quarter == 3 || q->end_quarter == 3) {
 1481              		.loc 1 450 10 is_stmt 1 view .LVU583
 1482              		.loc 1 450 12 is_stmt 0 view .LVU584
 1483 0010 032B     		cmp	r3, #3
 1484 0012 65D0     		beq	.L52
 1485              		.loc 1 450 39 discriminator 1 view .LVU585
 1486 0014 A289     		ldrh	r2, [r4, #12]
 1487              		.loc 1 450 35 discriminator 1 view .LVU586
 1488 0016 032A     		cmp	r2, #3
 1489 0018 62D0     		beq	.L52
 451:lvgl/src/draw/sw/lv_draw_sw_arc.c ****         /*Start and/or end arcs here*/
 452:lvgl/src/draw/sw/lv_draw_sw_arc.c ****         if(q->start_quarter == 3) {
 453:lvgl/src/draw/sw/lv_draw_sw_arc.c ****             quarter_area.x2 = q->center->x + q->radius;
 454:lvgl/src/draw/sw/lv_draw_sw_arc.c ****             quarter_area.y2 = q->center->y - 1;
 455:lvgl/src/draw/sw/lv_draw_sw_arc.c **** 
 456:lvgl/src/draw/sw/lv_draw_sw_arc.c ****             quarter_area.x1 = q->center->x + ((lv_trigo_sin(q->start_angle + 90) * (q->radius - q->
 457:lvgl/src/draw/sw/lv_draw_sw_arc.c ****             quarter_area.y1 = q->center->y + ((lv_trigo_sin(q->start_angle) * (q->radius)) >> LV_TR
 458:lvgl/src/draw/sw/lv_draw_sw_arc.c **** 
 459:lvgl/src/draw/sw/lv_draw_sw_arc.c ****             bool ok = _lv_area_intersect(&quarter_area, &quarter_area, clip_area_ori);
 460:lvgl/src/draw/sw/lv_draw_sw_arc.c ****             if(ok) {
 461:lvgl/src/draw/sw/lv_draw_sw_arc.c ****                 q->draw_ctx->clip_area = &quarter_area;
 462:lvgl/src/draw/sw/lv_draw_sw_arc.c ****                 lv_draw_rect(q->draw_ctx, q->draw_dsc, q->draw_area);
 463:lvgl/src/draw/sw/lv_draw_sw_arc.c ****             }
 464:lvgl/src/draw/sw/lv_draw_sw_arc.c ****         }
 465:lvgl/src/draw/sw/lv_draw_sw_arc.c ****         if(q->end_quarter == 3) {
 466:lvgl/src/draw/sw/lv_draw_sw_arc.c ****             quarter_area.x1 = q->center->x;
 467:lvgl/src/draw/sw/lv_draw_sw_arc.c ****             quarter_area.y1 = q->center->y - q->radius;
 468:lvgl/src/draw/sw/lv_draw_sw_arc.c **** 
 469:lvgl/src/draw/sw/lv_draw_sw_arc.c ****             quarter_area.x2 = q->center->x + ((lv_trigo_sin(q->end_angle + 90) * (q->radius)) >> LV
 470:lvgl/src/draw/sw/lv_draw_sw_arc.c ****             quarter_area.y2 = q->center->y + ((lv_trigo_sin(q->end_angle) * (q->radius - q->width))
 471:lvgl/src/draw/sw/lv_draw_sw_arc.c **** 
ARM GAS  /var/folders/21/t9g5rlb91ys800n5npymflf80000gn/T//ccb1YJg7.s 			page 44


 472:lvgl/src/draw/sw/lv_draw_sw_arc.c ****             bool ok = _lv_area_intersect(&quarter_area, &quarter_area, clip_area_ori);
 473:lvgl/src/draw/sw/lv_draw_sw_arc.c ****             if(ok) {
 474:lvgl/src/draw/sw/lv_draw_sw_arc.c ****                 q->draw_ctx->clip_area = &quarter_area;
 475:lvgl/src/draw/sw/lv_draw_sw_arc.c ****                 lv_draw_rect(q->draw_ctx, q->draw_dsc, q->draw_area);
 476:lvgl/src/draw/sw/lv_draw_sw_arc.c ****             }
 477:lvgl/src/draw/sw/lv_draw_sw_arc.c ****         }
 478:lvgl/src/draw/sw/lv_draw_sw_arc.c ****     }
 479:lvgl/src/draw/sw/lv_draw_sw_arc.c ****     else if((q->start_quarter == q->end_quarter && q->start_quarter != 3 && q->end_angle < q->start
 1490              		.loc 1 479 10 is_stmt 1 view .LVU587
 1491              		.loc 1 479 12 is_stmt 0 view .LVU588
 1492 001a 9342     		cmp	r3, r2
 1493 001c 00F0DB80 		beq	.L61
 1494              	.L55:
 1495              		.loc 1 479 108 discriminator 5 view .LVU589
 1496 0020 022B     		cmp	r3, #2
 1497 0022 00F00081 		beq	.L62
 1498              	.L57:
 480:lvgl/src/draw/sw/lv_draw_sw_arc.c ****             (q->start_quarter == 2 && q->end_quarter == 0) ||
 1499              		.loc 1 480 60 discriminator 1 view .LVU590
 1500 0026 012B     		cmp	r3, #1
 1501 0028 00F00081 		beq	.L63
 1502              	.L58:
 481:lvgl/src/draw/sw/lv_draw_sw_arc.c ****             (q->start_quarter == 1 && q->end_quarter == 0) ||
 1503              		.loc 1 481 60 discriminator 1 view .LVU591
 1504 002c 022B     		cmp	r3, #2
 1505 002e 5CD1     		bne	.L51
 482:lvgl/src/draw/sw/lv_draw_sw_arc.c ****             (q->start_quarter == 2 && q->end_quarter == 1)) {
 1506              		.loc 1 482 36 view .LVU592
 1507 0030 012A     		cmp	r2, #1
 1508 0032 5AD1     		bne	.L51
 1509 0034 D4E0     		b	.L56
 1510              	.LVL90:
 1511              	.L60:
 436:lvgl/src/draw/sw/lv_draw_sw_arc.c ****         /*Small arc here*/
 1512              		.loc 1 436 34 discriminator 1 view .LVU593
 1513 0036 8289     		ldrh	r2, [r0, #12]
 436:lvgl/src/draw/sw/lv_draw_sw_arc.c ****         /*Small arc here*/
 1514              		.loc 1 436 30 discriminator 1 view .LVU594
 1515 0038 032A     		cmp	r2, #3
 1516 003a E9D1     		bne	.L50
 436:lvgl/src/draw/sw/lv_draw_sw_arc.c ****         /*Small arc here*/
 1517              		.loc 1 436 57 discriminator 2 view .LVU595
 1518 003c C088     		ldrh	r0, [r0, #6]
 1519              	.LVL91:
 436:lvgl/src/draw/sw/lv_draw_sw_arc.c ****         /*Small arc here*/
 1520              		.loc 1 436 74 discriminator 2 view .LVU596
 1521 003e 2289     		ldrh	r2, [r4, #8]
 436:lvgl/src/draw/sw/lv_draw_sw_arc.c ****         /*Small arc here*/
 1522              		.loc 1 436 53 discriminator 2 view .LVU597
 1523 0040 9042     		cmp	r0, r2
 1524 0042 E5D2     		bcs	.L50
 1525              	.LBB24:
 438:lvgl/src/draw/sw/lv_draw_sw_arc.c ****         quarter_area.y1 = q->center->y + ((lv_trigo_sin(q->start_angle) * (q->radius)) >> LV_TRIGO_
 1526              		.loc 1 438 9 is_stmt 1 view .LVU598
 438:lvgl/src/draw/sw/lv_draw_sw_arc.c ****         quarter_area.y1 = q->center->y + ((lv_trigo_sin(q->start_angle) * (q->radius)) >> LV_TRIGO_
 1527              		.loc 1 438 28 is_stmt 0 view .LVU599
 1528 0044 2368     		ldr	r3, [r4]
ARM GAS  /var/folders/21/t9g5rlb91ys800n5npymflf80000gn/T//ccb1YJg7.s 			page 45


 438:lvgl/src/draw/sw/lv_draw_sw_arc.c ****         quarter_area.y1 = q->center->y + ((lv_trigo_sin(q->start_angle) * (q->radius)) >> LV_TRIGO_
 1529              		.loc 1 438 36 view .LVU600
 1530 0046 1E88     		ldrh	r6, [r3]
 438:lvgl/src/draw/sw/lv_draw_sw_arc.c ****         quarter_area.y1 = q->center->y + ((lv_trigo_sin(q->start_angle) * (q->radius)) >> LV_TRIGO_
 1531              		.loc 1 438 72 view .LVU601
 1532 0048 5A30     		adds	r0, r0, #90
 438:lvgl/src/draw/sw/lv_draw_sw_arc.c ****         quarter_area.y1 = q->center->y + ((lv_trigo_sin(q->start_angle) * (q->radius)) >> LV_TRIGO_
 1533              		.loc 1 438 44 view .LVU602
 1534 004a 00B2     		sxth	r0, r0
 1535 004c FFF7FEFF 		bl	lv_trigo_sin
 1536              	.LVL92:
 438:lvgl/src/draw/sw/lv_draw_sw_arc.c ****         quarter_area.y1 = q->center->y + ((lv_trigo_sin(q->start_angle) * (q->radius)) >> LV_TRIGO_
 1537              		.loc 1 438 82 view .LVU603
 1538 0050 B4F90430 		ldrsh	r3, [r4, #4]
 438:lvgl/src/draw/sw/lv_draw_sw_arc.c ****         quarter_area.y1 = q->center->y + ((lv_trigo_sin(q->start_angle) * (q->radius)) >> LV_TRIGO_
 1539              		.loc 1 438 94 view .LVU604
 1540 0054 B4F90E20 		ldrsh	r2, [r4, #14]
 438:lvgl/src/draw/sw/lv_draw_sw_arc.c ****         quarter_area.y1 = q->center->y + ((lv_trigo_sin(q->start_angle) * (q->radius)) >> LV_TRIGO_
 1541              		.loc 1 438 91 view .LVU605
 1542 0058 9B1A     		subs	r3, r3, r2
 438:lvgl/src/draw/sw/lv_draw_sw_arc.c ****         quarter_area.y1 = q->center->y + ((lv_trigo_sin(q->start_angle) * (q->radius)) >> LV_TRIGO_
 1543              		.loc 1 438 78 view .LVU606
 1544 005a 03FB00F0 		mul	r0, r3, r0
 438:lvgl/src/draw/sw/lv_draw_sw_arc.c ****         quarter_area.y1 = q->center->y + ((lv_trigo_sin(q->start_angle) * (q->radius)) >> LV_TRIGO_
 1545              		.loc 1 438 40 view .LVU607
 1546 005e 06EBE036 		add	r6, r6, r0, asr #15
 438:lvgl/src/draw/sw/lv_draw_sw_arc.c ****         quarter_area.y1 = q->center->y + ((lv_trigo_sin(q->start_angle) * (q->radius)) >> LV_TRIGO_
 1547              		.loc 1 438 25 view .LVU608
 1548 0062 ADF80060 		strh	r6, [sp]	@ movhi
 439:lvgl/src/draw/sw/lv_draw_sw_arc.c **** 
 1549              		.loc 1 439 9 is_stmt 1 view .LVU609
 439:lvgl/src/draw/sw/lv_draw_sw_arc.c **** 
 1550              		.loc 1 439 28 is_stmt 0 view .LVU610
 1551 0066 2368     		ldr	r3, [r4]
 439:lvgl/src/draw/sw/lv_draw_sw_arc.c **** 
 1552              		.loc 1 439 36 view .LVU611
 1553 0068 5E88     		ldrh	r6, [r3, #2]
 439:lvgl/src/draw/sw/lv_draw_sw_arc.c **** 
 1554              		.loc 1 439 44 view .LVU612
 1555 006a B4F90600 		ldrsh	r0, [r4, #6]
 1556 006e FFF7FEFF 		bl	lv_trigo_sin
 1557              	.LVL93:
 439:lvgl/src/draw/sw/lv_draw_sw_arc.c **** 
 1558              		.loc 1 439 77 view .LVU613
 1559 0072 B4F90430 		ldrsh	r3, [r4, #4]
 439:lvgl/src/draw/sw/lv_draw_sw_arc.c **** 
 1560              		.loc 1 439 73 view .LVU614
 1561 0076 03FB00F0 		mul	r0, r3, r0
 439:lvgl/src/draw/sw/lv_draw_sw_arc.c **** 
 1562              		.loc 1 439 40 view .LVU615
 1563 007a 06EBE036 		add	r6, r6, r0, asr #15
 439:lvgl/src/draw/sw/lv_draw_sw_arc.c **** 
 1564              		.loc 1 439 25 view .LVU616
 1565 007e ADF80260 		strh	r6, [sp, #2]	@ movhi
 441:lvgl/src/draw/sw/lv_draw_sw_arc.c ****         quarter_area.y2 = q->center->y + ((lv_trigo_sin(q->end_angle) * (q->radius - q->width)) >> 
 1566              		.loc 1 441 9 is_stmt 1 view .LVU617
 441:lvgl/src/draw/sw/lv_draw_sw_arc.c ****         quarter_area.y2 = q->center->y + ((lv_trigo_sin(q->end_angle) * (q->radius - q->width)) >> 
ARM GAS  /var/folders/21/t9g5rlb91ys800n5npymflf80000gn/T//ccb1YJg7.s 			page 46


 1567              		.loc 1 441 28 is_stmt 0 view .LVU618
 1568 0082 2368     		ldr	r3, [r4]
 441:lvgl/src/draw/sw/lv_draw_sw_arc.c ****         quarter_area.y2 = q->center->y + ((lv_trigo_sin(q->end_angle) * (q->radius - q->width)) >> 
 1569              		.loc 1 441 36 view .LVU619
 1570 0084 1E88     		ldrh	r6, [r3]
 441:lvgl/src/draw/sw/lv_draw_sw_arc.c ****         quarter_area.y2 = q->center->y + ((lv_trigo_sin(q->end_angle) * (q->radius - q->width)) >> 
 1571              		.loc 1 441 58 view .LVU620
 1572 0086 2089     		ldrh	r0, [r4, #8]
 441:lvgl/src/draw/sw/lv_draw_sw_arc.c ****         quarter_area.y2 = q->center->y + ((lv_trigo_sin(q->end_angle) * (q->radius - q->width)) >> 
 1573              		.loc 1 441 70 view .LVU621
 1574 0088 5A30     		adds	r0, r0, #90
 441:lvgl/src/draw/sw/lv_draw_sw_arc.c ****         quarter_area.y2 = q->center->y + ((lv_trigo_sin(q->end_angle) * (q->radius - q->width)) >> 
 1575              		.loc 1 441 44 view .LVU622
 1576 008a 00B2     		sxth	r0, r0
 1577 008c FFF7FEFF 		bl	lv_trigo_sin
 1578              	.LVL94:
 441:lvgl/src/draw/sw/lv_draw_sw_arc.c ****         quarter_area.y2 = q->center->y + ((lv_trigo_sin(q->end_angle) * (q->radius - q->width)) >> 
 1579              		.loc 1 441 80 view .LVU623
 1580 0090 B4F90430 		ldrsh	r3, [r4, #4]
 441:lvgl/src/draw/sw/lv_draw_sw_arc.c ****         quarter_area.y2 = q->center->y + ((lv_trigo_sin(q->end_angle) * (q->radius - q->width)) >> 
 1581              		.loc 1 441 76 view .LVU624
 1582 0094 03FB00F0 		mul	r0, r3, r0
 441:lvgl/src/draw/sw/lv_draw_sw_arc.c ****         quarter_area.y2 = q->center->y + ((lv_trigo_sin(q->end_angle) * (q->radius - q->width)) >> 
 1583              		.loc 1 441 40 view .LVU625
 1584 0098 06EBE036 		add	r6, r6, r0, asr #15
 441:lvgl/src/draw/sw/lv_draw_sw_arc.c ****         quarter_area.y2 = q->center->y + ((lv_trigo_sin(q->end_angle) * (q->radius - q->width)) >> 
 1585              		.loc 1 441 25 view .LVU626
 1586 009c ADF80460 		strh	r6, [sp, #4]	@ movhi
 442:lvgl/src/draw/sw/lv_draw_sw_arc.c **** 
 1587              		.loc 1 442 9 is_stmt 1 view .LVU627
 442:lvgl/src/draw/sw/lv_draw_sw_arc.c **** 
 1588              		.loc 1 442 28 is_stmt 0 view .LVU628
 1589 00a0 2368     		ldr	r3, [r4]
 442:lvgl/src/draw/sw/lv_draw_sw_arc.c **** 
 1590              		.loc 1 442 36 view .LVU629
 1591 00a2 5E88     		ldrh	r6, [r3, #2]
 442:lvgl/src/draw/sw/lv_draw_sw_arc.c **** 
 1592              		.loc 1 442 44 view .LVU630
 1593 00a4 B4F90800 		ldrsh	r0, [r4, #8]
 1594 00a8 FFF7FEFF 		bl	lv_trigo_sin
 1595              	.LVL95:
 442:lvgl/src/draw/sw/lv_draw_sw_arc.c **** 
 1596              		.loc 1 442 75 view .LVU631
 1597 00ac B4F90430 		ldrsh	r3, [r4, #4]
 442:lvgl/src/draw/sw/lv_draw_sw_arc.c **** 
 1598              		.loc 1 442 87 view .LVU632
 1599 00b0 B4F90E20 		ldrsh	r2, [r4, #14]
 442:lvgl/src/draw/sw/lv_draw_sw_arc.c **** 
 1600              		.loc 1 442 84 view .LVU633
 1601 00b4 9B1A     		subs	r3, r3, r2
 442:lvgl/src/draw/sw/lv_draw_sw_arc.c **** 
 1602              		.loc 1 442 71 view .LVU634
 1603 00b6 03FB00F0 		mul	r0, r3, r0
 442:lvgl/src/draw/sw/lv_draw_sw_arc.c **** 
 1604              		.loc 1 442 40 view .LVU635
 1605 00ba 06EBE036 		add	r6, r6, r0, asr #15
 442:lvgl/src/draw/sw/lv_draw_sw_arc.c **** 
ARM GAS  /var/folders/21/t9g5rlb91ys800n5npymflf80000gn/T//ccb1YJg7.s 			page 47


 1606              		.loc 1 442 25 view .LVU636
 1607 00be ADF80660 		strh	r6, [sp, #6]	@ movhi
 444:lvgl/src/draw/sw/lv_draw_sw_arc.c ****         if(ok) {
 1608              		.loc 1 444 9 is_stmt 1 view .LVU637
 444:lvgl/src/draw/sw/lv_draw_sw_arc.c ****         if(ok) {
 1609              		.loc 1 444 19 is_stmt 0 view .LVU638
 1610 00c2 2A46     		mov	r2, r5
 1611 00c4 6946     		mov	r1, sp
 1612 00c6 6846     		mov	r0, sp
 1613 00c8 FFF7FEFF 		bl	_lv_area_intersect
 1614              	.LVL96:
 445:lvgl/src/draw/sw/lv_draw_sw_arc.c ****             q->draw_ctx->clip_area = &quarter_area;
 1615              		.loc 1 445 9 is_stmt 1 view .LVU639
 445:lvgl/src/draw/sw/lv_draw_sw_arc.c ****             q->draw_ctx->clip_area = &quarter_area;
 1616              		.loc 1 445 11 is_stmt 0 view .LVU640
 1617 00cc 68B1     		cbz	r0, .L51
 446:lvgl/src/draw/sw/lv_draw_sw_arc.c ****             lv_draw_rect(q->draw_ctx, q->draw_dsc, q->draw_area);
 1618              		.loc 1 446 13 is_stmt 1 view .LVU641
 446:lvgl/src/draw/sw/lv_draw_sw_arc.c ****             lv_draw_rect(q->draw_ctx, q->draw_dsc, q->draw_area);
 1619              		.loc 1 446 14 is_stmt 0 view .LVU642
 1620 00ce A369     		ldr	r3, [r4, #24]
 446:lvgl/src/draw/sw/lv_draw_sw_arc.c ****             lv_draw_rect(q->draw_ctx, q->draw_dsc, q->draw_area);
 1621              		.loc 1 446 36 view .LVU643
 1622 00d0 C3F808D0 		str	sp, [r3, #8]
 447:lvgl/src/draw/sw/lv_draw_sw_arc.c ****         }
 1623              		.loc 1 447 13 is_stmt 1 view .LVU644
 1624 00d4 6269     		ldr	r2, [r4, #20]
 1625 00d6 2169     		ldr	r1, [r4, #16]
 1626 00d8 A069     		ldr	r0, [r4, #24]
 1627              	.LVL97:
 447:lvgl/src/draw/sw/lv_draw_sw_arc.c ****         }
 1628              		.loc 1 447 13 is_stmt 0 view .LVU645
 1629 00da FFF7FEFF 		bl	lv_draw_rect
 1630              	.LVL98:
 1631 00de 04E0     		b	.L51
 1632              	.LVL99:
 1633              	.L52:
 447:lvgl/src/draw/sw/lv_draw_sw_arc.c ****         }
 1634              		.loc 1 447 13 view .LVU646
 1635              	.LBE24:
 452:lvgl/src/draw/sw/lv_draw_sw_arc.c ****             quarter_area.x2 = q->center->x + q->radius;
 1636              		.loc 1 452 9 is_stmt 1 view .LVU647
 452:lvgl/src/draw/sw/lv_draw_sw_arc.c ****             quarter_area.x2 = q->center->x + q->radius;
 1637              		.loc 1 452 11 is_stmt 0 view .LVU648
 1638 00e0 032B     		cmp	r3, #3
 1639 00e2 06D0     		beq	.L64
 1640              	.L54:
 465:lvgl/src/draw/sw/lv_draw_sw_arc.c ****             quarter_area.x1 = q->center->x;
 1641              		.loc 1 465 9 is_stmt 1 view .LVU649
 465:lvgl/src/draw/sw/lv_draw_sw_arc.c ****             quarter_area.x1 = q->center->x;
 1642              		.loc 1 465 13 is_stmt 0 view .LVU650
 1643 00e4 A389     		ldrh	r3, [r4, #12]
 465:lvgl/src/draw/sw/lv_draw_sw_arc.c ****             quarter_area.x1 = q->center->x;
 1644              		.loc 1 465 11 view .LVU651
 1645 00e6 032B     		cmp	r3, #3
 1646 00e8 3CD0     		beq	.L65
 1647              	.L51:
ARM GAS  /var/folders/21/t9g5rlb91ys800n5npymflf80000gn/T//ccb1YJg7.s 			page 48


 483:lvgl/src/draw/sw/lv_draw_sw_arc.c ****         /*Arc crosses here*/
 484:lvgl/src/draw/sw/lv_draw_sw_arc.c ****         quarter_area.x1 = q->center->x;
 485:lvgl/src/draw/sw/lv_draw_sw_arc.c ****         quarter_area.y1 = q->center->y - q->radius;
 486:lvgl/src/draw/sw/lv_draw_sw_arc.c ****         quarter_area.x2 = q->center->x + q->radius;
 487:lvgl/src/draw/sw/lv_draw_sw_arc.c ****         quarter_area.y2 = q->center->y - 1;
 488:lvgl/src/draw/sw/lv_draw_sw_arc.c **** 
 489:lvgl/src/draw/sw/lv_draw_sw_arc.c ****         bool ok = _lv_area_intersect(&quarter_area, &quarter_area, clip_area_ori);
 490:lvgl/src/draw/sw/lv_draw_sw_arc.c ****         if(ok) {
 491:lvgl/src/draw/sw/lv_draw_sw_arc.c ****             q->draw_ctx->clip_area = &quarter_area;
 492:lvgl/src/draw/sw/lv_draw_sw_arc.c ****             lv_draw_rect(q->draw_ctx, q->draw_dsc, q->draw_area);
 493:lvgl/src/draw/sw/lv_draw_sw_arc.c ****         }
 494:lvgl/src/draw/sw/lv_draw_sw_arc.c ****     }
 495:lvgl/src/draw/sw/lv_draw_sw_arc.c **** 
 496:lvgl/src/draw/sw/lv_draw_sw_arc.c ****     q->draw_ctx->clip_area = clip_area_ori;
 1648              		.loc 1 496 5 is_stmt 1 view .LVU652
 1649              		.loc 1 496 6 is_stmt 0 view .LVU653
 1650 00ea A369     		ldr	r3, [r4, #24]
 1651              		.loc 1 496 28 view .LVU654
 1652 00ec 9D60     		str	r5, [r3, #8]
 497:lvgl/src/draw/sw/lv_draw_sw_arc.c **** }
 1653              		.loc 1 497 1 view .LVU655
 1654 00ee 02B0     		add	sp, sp, #8
 1655              	.LCFI14:
 1656              		.cfi_remember_state
 1657              		.cfi_def_cfa_offset 16
 1658              		@ sp needed
 1659 00f0 70BD     		pop	{r4, r5, r6, pc}
 1660              	.LVL100:
 1661              	.L64:
 1662              	.LCFI15:
 1663              		.cfi_restore_state
 1664              	.LBB25:
 453:lvgl/src/draw/sw/lv_draw_sw_arc.c ****             quarter_area.y2 = q->center->y - 1;
 1665              		.loc 1 453 13 is_stmt 1 view .LVU656
 453:lvgl/src/draw/sw/lv_draw_sw_arc.c ****             quarter_area.y2 = q->center->y - 1;
 1666              		.loc 1 453 32 is_stmt 0 view .LVU657
 1667 00f2 2368     		ldr	r3, [r4]
 453:lvgl/src/draw/sw/lv_draw_sw_arc.c ****             quarter_area.y2 = q->center->y - 1;
 1668              		.loc 1 453 40 view .LVU658
 1669 00f4 1A88     		ldrh	r2, [r3]
 453:lvgl/src/draw/sw/lv_draw_sw_arc.c ****             quarter_area.y2 = q->center->y - 1;
 1670              		.loc 1 453 47 view .LVU659
 1671 00f6 A188     		ldrh	r1, [r4, #4]
 453:lvgl/src/draw/sw/lv_draw_sw_arc.c ****             quarter_area.y2 = q->center->y - 1;
 1672              		.loc 1 453 44 view .LVU660
 1673 00f8 0A44     		add	r2, r2, r1
 453:lvgl/src/draw/sw/lv_draw_sw_arc.c ****             quarter_area.y2 = q->center->y - 1;
 1674              		.loc 1 453 29 view .LVU661
 1675 00fa ADF80420 		strh	r2, [sp, #4]	@ movhi
 454:lvgl/src/draw/sw/lv_draw_sw_arc.c **** 
 1676              		.loc 1 454 13 is_stmt 1 view .LVU662
 454:lvgl/src/draw/sw/lv_draw_sw_arc.c **** 
 1677              		.loc 1 454 40 is_stmt 0 view .LVU663
 1678 00fe 5A88     		ldrh	r2, [r3, #2]
 454:lvgl/src/draw/sw/lv_draw_sw_arc.c **** 
 1679              		.loc 1 454 44 view .LVU664
 1680 0100 013A     		subs	r2, r2, #1
ARM GAS  /var/folders/21/t9g5rlb91ys800n5npymflf80000gn/T//ccb1YJg7.s 			page 49


 454:lvgl/src/draw/sw/lv_draw_sw_arc.c **** 
 1681              		.loc 1 454 29 view .LVU665
 1682 0102 ADF80620 		strh	r2, [sp, #6]	@ movhi
 456:lvgl/src/draw/sw/lv_draw_sw_arc.c ****             quarter_area.y1 = q->center->y + ((lv_trigo_sin(q->start_angle) * (q->radius)) >> LV_TR
 1683              		.loc 1 456 13 is_stmt 1 view .LVU666
 456:lvgl/src/draw/sw/lv_draw_sw_arc.c ****             quarter_area.y1 = q->center->y + ((lv_trigo_sin(q->start_angle) * (q->radius)) >> LV_TR
 1684              		.loc 1 456 40 is_stmt 0 view .LVU667
 1685 0106 1E88     		ldrh	r6, [r3]
 456:lvgl/src/draw/sw/lv_draw_sw_arc.c ****             quarter_area.y1 = q->center->y + ((lv_trigo_sin(q->start_angle) * (q->radius)) >> LV_TR
 1686              		.loc 1 456 62 view .LVU668
 1687 0108 E088     		ldrh	r0, [r4, #6]
 456:lvgl/src/draw/sw/lv_draw_sw_arc.c ****             quarter_area.y1 = q->center->y + ((lv_trigo_sin(q->start_angle) * (q->radius)) >> LV_TR
 1688              		.loc 1 456 76 view .LVU669
 1689 010a 5A30     		adds	r0, r0, #90
 456:lvgl/src/draw/sw/lv_draw_sw_arc.c ****             quarter_area.y1 = q->center->y + ((lv_trigo_sin(q->start_angle) * (q->radius)) >> LV_TR
 1690              		.loc 1 456 48 view .LVU670
 1691 010c 00B2     		sxth	r0, r0
 1692 010e FFF7FEFF 		bl	lv_trigo_sin
 1693              	.LVL101:
 456:lvgl/src/draw/sw/lv_draw_sw_arc.c ****             quarter_area.y1 = q->center->y + ((lv_trigo_sin(q->start_angle) * (q->radius)) >> LV_TR
 1694              		.loc 1 456 86 view .LVU671
 1695 0112 B4F90430 		ldrsh	r3, [r4, #4]
 456:lvgl/src/draw/sw/lv_draw_sw_arc.c ****             quarter_area.y1 = q->center->y + ((lv_trigo_sin(q->start_angle) * (q->radius)) >> LV_TR
 1696              		.loc 1 456 98 view .LVU672
 1697 0116 B4F90E20 		ldrsh	r2, [r4, #14]
 456:lvgl/src/draw/sw/lv_draw_sw_arc.c ****             quarter_area.y1 = q->center->y + ((lv_trigo_sin(q->start_angle) * (q->radius)) >> LV_TR
 1698              		.loc 1 456 95 view .LVU673
 1699 011a 9B1A     		subs	r3, r3, r2
 456:lvgl/src/draw/sw/lv_draw_sw_arc.c ****             quarter_area.y1 = q->center->y + ((lv_trigo_sin(q->start_angle) * (q->radius)) >> LV_TR
 1700              		.loc 1 456 82 view .LVU674
 1701 011c 03FB00F0 		mul	r0, r3, r0
 456:lvgl/src/draw/sw/lv_draw_sw_arc.c ****             quarter_area.y1 = q->center->y + ((lv_trigo_sin(q->start_angle) * (q->radius)) >> LV_TR
 1702              		.loc 1 456 44 view .LVU675
 1703 0120 06EBE036 		add	r6, r6, r0, asr #15
 456:lvgl/src/draw/sw/lv_draw_sw_arc.c ****             quarter_area.y1 = q->center->y + ((lv_trigo_sin(q->start_angle) * (q->radius)) >> LV_TR
 1704              		.loc 1 456 29 view .LVU676
 1705 0124 ADF80060 		strh	r6, [sp]	@ movhi
 457:lvgl/src/draw/sw/lv_draw_sw_arc.c **** 
 1706              		.loc 1 457 13 is_stmt 1 view .LVU677
 457:lvgl/src/draw/sw/lv_draw_sw_arc.c **** 
 1707              		.loc 1 457 32 is_stmt 0 view .LVU678
 1708 0128 2368     		ldr	r3, [r4]
 457:lvgl/src/draw/sw/lv_draw_sw_arc.c **** 
 1709              		.loc 1 457 40 view .LVU679
 1710 012a 5E88     		ldrh	r6, [r3, #2]
 457:lvgl/src/draw/sw/lv_draw_sw_arc.c **** 
 1711              		.loc 1 457 48 view .LVU680
 1712 012c B4F90600 		ldrsh	r0, [r4, #6]
 1713 0130 FFF7FEFF 		bl	lv_trigo_sin
 1714              	.LVL102:
 457:lvgl/src/draw/sw/lv_draw_sw_arc.c **** 
 1715              		.loc 1 457 81 view .LVU681
 1716 0134 B4F90430 		ldrsh	r3, [r4, #4]
 457:lvgl/src/draw/sw/lv_draw_sw_arc.c **** 
 1717              		.loc 1 457 77 view .LVU682
 1718 0138 03FB00F0 		mul	r0, r3, r0
 457:lvgl/src/draw/sw/lv_draw_sw_arc.c **** 
ARM GAS  /var/folders/21/t9g5rlb91ys800n5npymflf80000gn/T//ccb1YJg7.s 			page 50


 1719              		.loc 1 457 44 view .LVU683
 1720 013c 06EBE036 		add	r6, r6, r0, asr #15
 457:lvgl/src/draw/sw/lv_draw_sw_arc.c **** 
 1721              		.loc 1 457 29 view .LVU684
 1722 0140 ADF80260 		strh	r6, [sp, #2]	@ movhi
 459:lvgl/src/draw/sw/lv_draw_sw_arc.c ****             if(ok) {
 1723              		.loc 1 459 13 is_stmt 1 view .LVU685
 459:lvgl/src/draw/sw/lv_draw_sw_arc.c ****             if(ok) {
 1724              		.loc 1 459 23 is_stmt 0 view .LVU686
 1725 0144 2A46     		mov	r2, r5
 1726 0146 6946     		mov	r1, sp
 1727 0148 6846     		mov	r0, sp
 1728 014a FFF7FEFF 		bl	_lv_area_intersect
 1729              	.LVL103:
 460:lvgl/src/draw/sw/lv_draw_sw_arc.c ****                 q->draw_ctx->clip_area = &quarter_area;
 1730              		.loc 1 460 13 is_stmt 1 view .LVU687
 460:lvgl/src/draw/sw/lv_draw_sw_arc.c ****                 q->draw_ctx->clip_area = &quarter_area;
 1731              		.loc 1 460 15 is_stmt 0 view .LVU688
 1732 014e 0028     		cmp	r0, #0
 1733 0150 C8D0     		beq	.L54
 461:lvgl/src/draw/sw/lv_draw_sw_arc.c ****                 lv_draw_rect(q->draw_ctx, q->draw_dsc, q->draw_area);
 1734              		.loc 1 461 17 is_stmt 1 view .LVU689
 461:lvgl/src/draw/sw/lv_draw_sw_arc.c ****                 lv_draw_rect(q->draw_ctx, q->draw_dsc, q->draw_area);
 1735              		.loc 1 461 18 is_stmt 0 view .LVU690
 1736 0152 A369     		ldr	r3, [r4, #24]
 461:lvgl/src/draw/sw/lv_draw_sw_arc.c ****                 lv_draw_rect(q->draw_ctx, q->draw_dsc, q->draw_area);
 1737              		.loc 1 461 40 view .LVU691
 1738 0154 C3F808D0 		str	sp, [r3, #8]
 462:lvgl/src/draw/sw/lv_draw_sw_arc.c ****             }
 1739              		.loc 1 462 17 is_stmt 1 view .LVU692
 1740 0158 6269     		ldr	r2, [r4, #20]
 1741 015a 2169     		ldr	r1, [r4, #16]
 1742 015c A069     		ldr	r0, [r4, #24]
 1743              	.LVL104:
 462:lvgl/src/draw/sw/lv_draw_sw_arc.c ****             }
 1744              		.loc 1 462 17 is_stmt 0 view .LVU693
 1745 015e FFF7FEFF 		bl	lv_draw_rect
 1746              	.LVL105:
 1747 0162 BFE7     		b	.L54
 1748              	.LVL106:
 1749              	.L65:
 462:lvgl/src/draw/sw/lv_draw_sw_arc.c ****             }
 1750              		.loc 1 462 17 view .LVU694
 1751              	.LBE25:
 1752              	.LBB26:
 466:lvgl/src/draw/sw/lv_draw_sw_arc.c ****             quarter_area.y1 = q->center->y - q->radius;
 1753              		.loc 1 466 13 is_stmt 1 view .LVU695
 466:lvgl/src/draw/sw/lv_draw_sw_arc.c ****             quarter_area.y1 = q->center->y - q->radius;
 1754              		.loc 1 466 32 is_stmt 0 view .LVU696
 1755 0164 2368     		ldr	r3, [r4]
 466:lvgl/src/draw/sw/lv_draw_sw_arc.c ****             quarter_area.y1 = q->center->y - q->radius;
 1756              		.loc 1 466 40 view .LVU697
 1757 0166 B3F90020 		ldrsh	r2, [r3]
 466:lvgl/src/draw/sw/lv_draw_sw_arc.c ****             quarter_area.y1 = q->center->y - q->radius;
 1758              		.loc 1 466 29 view .LVU698
 1759 016a ADF80020 		strh	r2, [sp]	@ movhi
 467:lvgl/src/draw/sw/lv_draw_sw_arc.c **** 
ARM GAS  /var/folders/21/t9g5rlb91ys800n5npymflf80000gn/T//ccb1YJg7.s 			page 51


 1760              		.loc 1 467 13 is_stmt 1 view .LVU699
 467:lvgl/src/draw/sw/lv_draw_sw_arc.c **** 
 1761              		.loc 1 467 40 is_stmt 0 view .LVU700
 1762 016e 5A88     		ldrh	r2, [r3, #2]
 467:lvgl/src/draw/sw/lv_draw_sw_arc.c **** 
 1763              		.loc 1 467 47 view .LVU701
 1764 0170 A188     		ldrh	r1, [r4, #4]
 467:lvgl/src/draw/sw/lv_draw_sw_arc.c **** 
 1765              		.loc 1 467 44 view .LVU702
 1766 0172 521A     		subs	r2, r2, r1
 467:lvgl/src/draw/sw/lv_draw_sw_arc.c **** 
 1767              		.loc 1 467 29 view .LVU703
 1768 0174 ADF80220 		strh	r2, [sp, #2]	@ movhi
 469:lvgl/src/draw/sw/lv_draw_sw_arc.c ****             quarter_area.y2 = q->center->y + ((lv_trigo_sin(q->end_angle) * (q->radius - q->width))
 1769              		.loc 1 469 13 is_stmt 1 view .LVU704
 469:lvgl/src/draw/sw/lv_draw_sw_arc.c ****             quarter_area.y2 = q->center->y + ((lv_trigo_sin(q->end_angle) * (q->radius - q->width))
 1770              		.loc 1 469 40 is_stmt 0 view .LVU705
 1771 0178 1E88     		ldrh	r6, [r3]
 469:lvgl/src/draw/sw/lv_draw_sw_arc.c ****             quarter_area.y2 = q->center->y + ((lv_trigo_sin(q->end_angle) * (q->radius - q->width))
 1772              		.loc 1 469 62 view .LVU706
 1773 017a 2089     		ldrh	r0, [r4, #8]
 469:lvgl/src/draw/sw/lv_draw_sw_arc.c ****             quarter_area.y2 = q->center->y + ((lv_trigo_sin(q->end_angle) * (q->radius - q->width))
 1774              		.loc 1 469 74 view .LVU707
 1775 017c 5A30     		adds	r0, r0, #90
 469:lvgl/src/draw/sw/lv_draw_sw_arc.c ****             quarter_area.y2 = q->center->y + ((lv_trigo_sin(q->end_angle) * (q->radius - q->width))
 1776              		.loc 1 469 48 view .LVU708
 1777 017e 00B2     		sxth	r0, r0
 1778 0180 FFF7FEFF 		bl	lv_trigo_sin
 1779              	.LVL107:
 469:lvgl/src/draw/sw/lv_draw_sw_arc.c ****             quarter_area.y2 = q->center->y + ((lv_trigo_sin(q->end_angle) * (q->radius - q->width))
 1780              		.loc 1 469 84 view .LVU709
 1781 0184 B4F90430 		ldrsh	r3, [r4, #4]
 469:lvgl/src/draw/sw/lv_draw_sw_arc.c ****             quarter_area.y2 = q->center->y + ((lv_trigo_sin(q->end_angle) * (q->radius - q->width))
 1782              		.loc 1 469 80 view .LVU710
 1783 0188 03FB00F0 		mul	r0, r3, r0
 469:lvgl/src/draw/sw/lv_draw_sw_arc.c ****             quarter_area.y2 = q->center->y + ((lv_trigo_sin(q->end_angle) * (q->radius - q->width))
 1784              		.loc 1 469 44 view .LVU711
 1785 018c 06EBE036 		add	r6, r6, r0, asr #15
 469:lvgl/src/draw/sw/lv_draw_sw_arc.c ****             quarter_area.y2 = q->center->y + ((lv_trigo_sin(q->end_angle) * (q->radius - q->width))
 1786              		.loc 1 469 29 view .LVU712
 1787 0190 ADF80460 		strh	r6, [sp, #4]	@ movhi
 470:lvgl/src/draw/sw/lv_draw_sw_arc.c **** 
 1788              		.loc 1 470 13 is_stmt 1 view .LVU713
 470:lvgl/src/draw/sw/lv_draw_sw_arc.c **** 
 1789              		.loc 1 470 32 is_stmt 0 view .LVU714
 1790 0194 2368     		ldr	r3, [r4]
 470:lvgl/src/draw/sw/lv_draw_sw_arc.c **** 
 1791              		.loc 1 470 40 view .LVU715
 1792 0196 5E88     		ldrh	r6, [r3, #2]
 470:lvgl/src/draw/sw/lv_draw_sw_arc.c **** 
 1793              		.loc 1 470 48 view .LVU716
 1794 0198 B4F90800 		ldrsh	r0, [r4, #8]
 1795 019c FFF7FEFF 		bl	lv_trigo_sin
 1796              	.LVL108:
 470:lvgl/src/draw/sw/lv_draw_sw_arc.c **** 
 1797              		.loc 1 470 79 view .LVU717
 1798 01a0 B4F90430 		ldrsh	r3, [r4, #4]
ARM GAS  /var/folders/21/t9g5rlb91ys800n5npymflf80000gn/T//ccb1YJg7.s 			page 52


 470:lvgl/src/draw/sw/lv_draw_sw_arc.c **** 
 1799              		.loc 1 470 91 view .LVU718
 1800 01a4 B4F90E20 		ldrsh	r2, [r4, #14]
 470:lvgl/src/draw/sw/lv_draw_sw_arc.c **** 
 1801              		.loc 1 470 88 view .LVU719
 1802 01a8 9B1A     		subs	r3, r3, r2
 470:lvgl/src/draw/sw/lv_draw_sw_arc.c **** 
 1803              		.loc 1 470 75 view .LVU720
 1804 01aa 03FB00F0 		mul	r0, r3, r0
 470:lvgl/src/draw/sw/lv_draw_sw_arc.c **** 
 1805              		.loc 1 470 44 view .LVU721
 1806 01ae 06EBE036 		add	r6, r6, r0, asr #15
 470:lvgl/src/draw/sw/lv_draw_sw_arc.c **** 
 1807              		.loc 1 470 29 view .LVU722
 1808 01b2 ADF80660 		strh	r6, [sp, #6]	@ movhi
 472:lvgl/src/draw/sw/lv_draw_sw_arc.c ****             if(ok) {
 1809              		.loc 1 472 13 is_stmt 1 view .LVU723
 472:lvgl/src/draw/sw/lv_draw_sw_arc.c ****             if(ok) {
 1810              		.loc 1 472 23 is_stmt 0 view .LVU724
 1811 01b6 2A46     		mov	r2, r5
 1812 01b8 6946     		mov	r1, sp
 1813 01ba 6846     		mov	r0, sp
 1814 01bc FFF7FEFF 		bl	_lv_area_intersect
 1815              	.LVL109:
 473:lvgl/src/draw/sw/lv_draw_sw_arc.c ****                 q->draw_ctx->clip_area = &quarter_area;
 1816              		.loc 1 473 13 is_stmt 1 view .LVU725
 473:lvgl/src/draw/sw/lv_draw_sw_arc.c ****                 q->draw_ctx->clip_area = &quarter_area;
 1817              		.loc 1 473 15 is_stmt 0 view .LVU726
 1818 01c0 0028     		cmp	r0, #0
 1819 01c2 92D0     		beq	.L51
 474:lvgl/src/draw/sw/lv_draw_sw_arc.c ****                 lv_draw_rect(q->draw_ctx, q->draw_dsc, q->draw_area);
 1820              		.loc 1 474 17 is_stmt 1 view .LVU727
 474:lvgl/src/draw/sw/lv_draw_sw_arc.c ****                 lv_draw_rect(q->draw_ctx, q->draw_dsc, q->draw_area);
 1821              		.loc 1 474 18 is_stmt 0 view .LVU728
 1822 01c4 A369     		ldr	r3, [r4, #24]
 474:lvgl/src/draw/sw/lv_draw_sw_arc.c ****                 lv_draw_rect(q->draw_ctx, q->draw_dsc, q->draw_area);
 1823              		.loc 1 474 40 view .LVU729
 1824 01c6 C3F808D0 		str	sp, [r3, #8]
 475:lvgl/src/draw/sw/lv_draw_sw_arc.c ****             }
 1825              		.loc 1 475 17 is_stmt 1 view .LVU730
 1826 01ca 6269     		ldr	r2, [r4, #20]
 1827 01cc 2169     		ldr	r1, [r4, #16]
 1828 01ce A069     		ldr	r0, [r4, #24]
 1829              	.LVL110:
 475:lvgl/src/draw/sw/lv_draw_sw_arc.c ****             }
 1830              		.loc 1 475 17 is_stmt 0 view .LVU731
 1831 01d0 FFF7FEFF 		bl	lv_draw_rect
 1832              	.LVL111:
 1833 01d4 89E7     		b	.L51
 1834              	.LVL112:
 1835              	.L61:
 475:lvgl/src/draw/sw/lv_draw_sw_arc.c ****             }
 1836              		.loc 1 475 17 view .LVU732
 1837              	.LBE26:
 479:lvgl/src/draw/sw/lv_draw_sw_arc.c ****             (q->start_quarter == 2 && q->end_quarter == 0) ||
 1838              		.loc 1 479 78 discriminator 3 view .LVU733
 1839 01d6 2089     		ldrh	r0, [r4, #8]
ARM GAS  /var/folders/21/t9g5rlb91ys800n5npymflf80000gn/T//ccb1YJg7.s 			page 53


 479:lvgl/src/draw/sw/lv_draw_sw_arc.c ****             (q->start_quarter == 2 && q->end_quarter == 0) ||
 1840              		.loc 1 479 93 discriminator 3 view .LVU734
 1841 01d8 E188     		ldrh	r1, [r4, #6]
 479:lvgl/src/draw/sw/lv_draw_sw_arc.c ****             (q->start_quarter == 2 && q->end_quarter == 0) ||
 1842              		.loc 1 479 74 discriminator 3 view .LVU735
 1843 01da 8842     		cmp	r0, r1
 1844 01dc BFF420AF 		bcs	.L55
 1845              	.L56:
 1846              	.LBB27:
 484:lvgl/src/draw/sw/lv_draw_sw_arc.c ****         quarter_area.y1 = q->center->y - q->radius;
 1847              		.loc 1 484 9 is_stmt 1 view .LVU736
 484:lvgl/src/draw/sw/lv_draw_sw_arc.c ****         quarter_area.y1 = q->center->y - q->radius;
 1848              		.loc 1 484 28 is_stmt 0 view .LVU737
 1849 01e0 2368     		ldr	r3, [r4]
 484:lvgl/src/draw/sw/lv_draw_sw_arc.c ****         quarter_area.y1 = q->center->y - q->radius;
 1850              		.loc 1 484 36 view .LVU738
 1851 01e2 B3F90020 		ldrsh	r2, [r3]
 484:lvgl/src/draw/sw/lv_draw_sw_arc.c ****         quarter_area.y1 = q->center->y - q->radius;
 1852              		.loc 1 484 25 view .LVU739
 1853 01e6 ADF80020 		strh	r2, [sp]	@ movhi
 485:lvgl/src/draw/sw/lv_draw_sw_arc.c ****         quarter_area.x2 = q->center->x + q->radius;
 1854              		.loc 1 485 9 is_stmt 1 view .LVU740
 485:lvgl/src/draw/sw/lv_draw_sw_arc.c ****         quarter_area.x2 = q->center->x + q->radius;
 1855              		.loc 1 485 36 is_stmt 0 view .LVU741
 1856 01ea 5988     		ldrh	r1, [r3, #2]
 485:lvgl/src/draw/sw/lv_draw_sw_arc.c ****         quarter_area.x2 = q->center->x + q->radius;
 1857              		.loc 1 485 43 view .LVU742
 1858 01ec A288     		ldrh	r2, [r4, #4]
 485:lvgl/src/draw/sw/lv_draw_sw_arc.c ****         quarter_area.x2 = q->center->x + q->radius;
 1859              		.loc 1 485 40 view .LVU743
 1860 01ee 891A     		subs	r1, r1, r2
 485:lvgl/src/draw/sw/lv_draw_sw_arc.c ****         quarter_area.x2 = q->center->x + q->radius;
 1861              		.loc 1 485 25 view .LVU744
 1862 01f0 ADF80210 		strh	r1, [sp, #2]	@ movhi
 486:lvgl/src/draw/sw/lv_draw_sw_arc.c ****         quarter_area.y2 = q->center->y - 1;
 1863              		.loc 1 486 9 is_stmt 1 view .LVU745
 486:lvgl/src/draw/sw/lv_draw_sw_arc.c ****         quarter_area.y2 = q->center->y - 1;
 1864              		.loc 1 486 36 is_stmt 0 view .LVU746
 1865 01f4 1988     		ldrh	r1, [r3]
 486:lvgl/src/draw/sw/lv_draw_sw_arc.c ****         quarter_area.y2 = q->center->y - 1;
 1866              		.loc 1 486 40 view .LVU747
 1867 01f6 0A44     		add	r2, r2, r1
 486:lvgl/src/draw/sw/lv_draw_sw_arc.c ****         quarter_area.y2 = q->center->y - 1;
 1868              		.loc 1 486 25 view .LVU748
 1869 01f8 ADF80420 		strh	r2, [sp, #4]	@ movhi
 487:lvgl/src/draw/sw/lv_draw_sw_arc.c **** 
 1870              		.loc 1 487 9 is_stmt 1 view .LVU749
 487:lvgl/src/draw/sw/lv_draw_sw_arc.c **** 
 1871              		.loc 1 487 36 is_stmt 0 view .LVU750
 1872 01fc 5B88     		ldrh	r3, [r3, #2]
 487:lvgl/src/draw/sw/lv_draw_sw_arc.c **** 
 1873              		.loc 1 487 40 view .LVU751
 1874 01fe 013B     		subs	r3, r3, #1
 487:lvgl/src/draw/sw/lv_draw_sw_arc.c **** 
 1875              		.loc 1 487 25 view .LVU752
 1876 0200 ADF80630 		strh	r3, [sp, #6]	@ movhi
 489:lvgl/src/draw/sw/lv_draw_sw_arc.c ****         if(ok) {
ARM GAS  /var/folders/21/t9g5rlb91ys800n5npymflf80000gn/T//ccb1YJg7.s 			page 54


 1877              		.loc 1 489 9 is_stmt 1 view .LVU753
 489:lvgl/src/draw/sw/lv_draw_sw_arc.c ****         if(ok) {
 1878              		.loc 1 489 19 is_stmt 0 view .LVU754
 1879 0204 2A46     		mov	r2, r5
 1880 0206 6946     		mov	r1, sp
 1881 0208 6846     		mov	r0, sp
 1882 020a FFF7FEFF 		bl	_lv_area_intersect
 1883              	.LVL113:
 490:lvgl/src/draw/sw/lv_draw_sw_arc.c ****             q->draw_ctx->clip_area = &quarter_area;
 1884              		.loc 1 490 9 is_stmt 1 view .LVU755
 490:lvgl/src/draw/sw/lv_draw_sw_arc.c ****             q->draw_ctx->clip_area = &quarter_area;
 1885              		.loc 1 490 11 is_stmt 0 view .LVU756
 1886 020e 0028     		cmp	r0, #0
 1887 0210 3FF46BAF 		beq	.L51
 491:lvgl/src/draw/sw/lv_draw_sw_arc.c ****             lv_draw_rect(q->draw_ctx, q->draw_dsc, q->draw_area);
 1888              		.loc 1 491 13 is_stmt 1 view .LVU757
 491:lvgl/src/draw/sw/lv_draw_sw_arc.c ****             lv_draw_rect(q->draw_ctx, q->draw_dsc, q->draw_area);
 1889              		.loc 1 491 14 is_stmt 0 view .LVU758
 1890 0214 A369     		ldr	r3, [r4, #24]
 491:lvgl/src/draw/sw/lv_draw_sw_arc.c ****             lv_draw_rect(q->draw_ctx, q->draw_dsc, q->draw_area);
 1891              		.loc 1 491 36 view .LVU759
 1892 0216 C3F808D0 		str	sp, [r3, #8]
 492:lvgl/src/draw/sw/lv_draw_sw_arc.c ****         }
 1893              		.loc 1 492 13 is_stmt 1 view .LVU760
 1894 021a 6269     		ldr	r2, [r4, #20]
 1895 021c 2169     		ldr	r1, [r4, #16]
 1896 021e A069     		ldr	r0, [r4, #24]
 1897              	.LVL114:
 492:lvgl/src/draw/sw/lv_draw_sw_arc.c ****         }
 1898              		.loc 1 492 13 is_stmt 0 view .LVU761
 1899 0220 FFF7FEFF 		bl	lv_draw_rect
 1900              	.LVL115:
 1901 0224 61E7     		b	.L51
 1902              	.LVL116:
 1903              	.L62:
 492:lvgl/src/draw/sw/lv_draw_sw_arc.c ****         }
 1904              		.loc 1 492 13 view .LVU762
 1905              	.LBE27:
 480:lvgl/src/draw/sw/lv_draw_sw_arc.c ****             (q->start_quarter == 1 && q->end_quarter == 0) ||
 1906              		.loc 1 480 36 view .LVU763
 1907 0226 002A     		cmp	r2, #0
 1908 0228 DAD0     		beq	.L56
 1909 022a FCE6     		b	.L57
 1910              	.L63:
 481:lvgl/src/draw/sw/lv_draw_sw_arc.c ****             (q->start_quarter == 2 && q->end_quarter == 1)) {
 1911              		.loc 1 481 36 view .LVU764
 1912 022c 002A     		cmp	r2, #0
 1913 022e D7D0     		beq	.L56
 1914 0230 FCE6     		b	.L58
 1915              		.cfi_endproc
 1916              	.LFE60:
 1918              		.section	.text.get_rounded_area,"ax",%progbits
 1919              		.align	1
 1920              		.syntax unified
 1921              		.thumb
 1922              		.thumb_func
 1924              	get_rounded_area:
ARM GAS  /var/folders/21/t9g5rlb91ys800n5npymflf80000gn/T//ccb1YJg7.s 			page 55


 1925              	.LVL117:
 1926              	.LFB61:
 498:lvgl/src/draw/sw/lv_draw_sw_arc.c **** 
 499:lvgl/src/draw/sw/lv_draw_sw_arc.c **** static void get_rounded_area(int16_t angle, lv_coord_t radius, uint8_t thickness, lv_area_t * res_a
 500:lvgl/src/draw/sw/lv_draw_sw_arc.c **** {
 1927              		.loc 1 500 1 is_stmt 1 view -0
 1928              		.cfi_startproc
 1929              		@ args = 0, pretend = 0, frame = 0
 1930              		@ frame_needed = 0, uses_anonymous_args = 0
 1931              		.loc 1 500 1 is_stmt 0 view .LVU766
 1932 0000 2DE9F843 		push	{r3, r4, r5, r6, r7, r8, r9, lr}
 1933              	.LCFI16:
 1934              		.cfi_def_cfa_offset 32
 1935              		.cfi_offset 3, -32
 1936              		.cfi_offset 4, -28
 1937              		.cfi_offset 5, -24
 1938              		.cfi_offset 6, -20
 1939              		.cfi_offset 7, -16
 1940              		.cfi_offset 8, -12
 1941              		.cfi_offset 9, -8
 1942              		.cfi_offset 14, -4
 1943 0004 8046     		mov	r8, r0
 1944 0006 1D46     		mov	r5, r3
 501:lvgl/src/draw/sw/lv_draw_sw_arc.c ****     const uint8_t ps = 8;
 1945              		.loc 1 501 5 is_stmt 1 view .LVU767
 1946              	.LVL118:
 502:lvgl/src/draw/sw/lv_draw_sw_arc.c ****     const uint8_t pa = 127;
 1947              		.loc 1 502 5 view .LVU768
 503:lvgl/src/draw/sw/lv_draw_sw_arc.c **** 
 504:lvgl/src/draw/sw/lv_draw_sw_arc.c ****     int32_t thick_half = thickness / 2;
 1948              		.loc 1 504 5 view .LVU769
 1949              		.loc 1 504 36 is_stmt 0 view .LVU770
 1950 0008 5708     		lsrs	r7, r2, #1
 1951              	.LVL119:
 505:lvgl/src/draw/sw/lv_draw_sw_arc.c ****     uint8_t thick_corr = (thickness & 0x01) ? 0 : 1;
 1952              		.loc 1 505 5 is_stmt 1 view .LVU771
 1953              		.loc 1 505 49 is_stmt 0 view .LVU772
 1954 000a 82F00106 		eor	r6, r2, #1
 1955 000e 06F00106 		and	r6, r6, #1
 1956              	.LVL120:
 506:lvgl/src/draw/sw/lv_draw_sw_arc.c **** 
 507:lvgl/src/draw/sw/lv_draw_sw_arc.c ****     int32_t cir_x;
 1957              		.loc 1 507 5 is_stmt 1 view .LVU773
 508:lvgl/src/draw/sw/lv_draw_sw_arc.c ****     int32_t cir_y;
 1958              		.loc 1 508 5 view .LVU774
 509:lvgl/src/draw/sw/lv_draw_sw_arc.c **** 
 510:lvgl/src/draw/sw/lv_draw_sw_arc.c ****     cir_x = ((radius - thick_half) * lv_trigo_sin(90 - angle)) >> (LV_TRIGO_SHIFT - ps);
 1959              		.loc 1 510 5 view .LVU775
 1960              		.loc 1 510 22 is_stmt 0 view .LVU776
 1961 0012 A1EB5209 		sub	r9, r1, r2, lsr #1
 1962              		.loc 1 510 54 view .LVU777
 1963 0016 C0F15A00 		rsb	r0, r0, #90
 1964              	.LVL121:
 1965              		.loc 1 510 38 view .LVU778
 1966 001a 00B2     		sxth	r0, r0
 1967 001c FFF7FEFF 		bl	lv_trigo_sin
 1968              	.LVL122:
ARM GAS  /var/folders/21/t9g5rlb91ys800n5npymflf80000gn/T//ccb1YJg7.s 			page 56


 1969              		.loc 1 510 36 view .LVU779
 1970 0020 00FB09F4 		mul	r4, r0, r9
 1971              		.loc 1 510 11 view .LVU780
 1972 0024 E411     		asrs	r4, r4, #7
 1973              	.LVL123:
 511:lvgl/src/draw/sw/lv_draw_sw_arc.c ****     cir_y = ((radius - thick_half) * lv_trigo_sin(angle)) >> (LV_TRIGO_SHIFT - ps);
 1974              		.loc 1 511 5 is_stmt 1 view .LVU781
 1975              		.loc 1 511 38 is_stmt 0 view .LVU782
 1976 0026 4046     		mov	r0, r8
 1977 0028 FFF7FEFF 		bl	lv_trigo_sin
 1978              	.LVL124:
 1979              		.loc 1 511 36 view .LVU783
 1980 002c 00FB09F2 		mul	r2, r0, r9
 1981              		.loc 1 511 11 view .LVU784
 1982 0030 D211     		asrs	r2, r2, #7
 1983              	.LVL125:
 512:lvgl/src/draw/sw/lv_draw_sw_arc.c **** 
 513:lvgl/src/draw/sw/lv_draw_sw_arc.c ****     /*Actually the center of the pixel need to be calculated so apply 1/2 px offset*/
 514:lvgl/src/draw/sw/lv_draw_sw_arc.c ****     if(cir_x > 0) {
 1984              		.loc 1 514 5 is_stmt 1 view .LVU785
 1985              		.loc 1 514 7 is_stmt 0 view .LVU786
 1986 0032 002C     		cmp	r4, #0
 1987 0034 15DD     		ble	.L67
 515:lvgl/src/draw/sw/lv_draw_sw_arc.c ****         cir_x = (cir_x - pa) >> ps;
 1988              		.loc 1 515 9 is_stmt 1 view .LVU787
 1989              		.loc 1 515 24 is_stmt 0 view .LVU788
 1990 0036 7F3C     		subs	r4, r4, #127
 1991              	.LVL126:
 516:lvgl/src/draw/sw/lv_draw_sw_arc.c ****         res_area->x1 = cir_x - thick_half + thick_corr;
 1992              		.loc 1 516 9 is_stmt 1 view .LVU789
 1993              		.loc 1 516 30 is_stmt 0 view .LVU790
 1994 0038 C4F30F24 		ubfx	r4, r4, #8, #16
 1995              	.LVL127:
 1996              		.loc 1 516 30 view .LVU791
 1997 003c E31B     		subs	r3, r4, r7
 1998              		.loc 1 516 43 view .LVU792
 1999 003e 16FA83F3 		uxtah	r3, r6, r3
 2000              		.loc 1 516 22 view .LVU793
 2001 0042 2B80     		strh	r3, [r5]	@ movhi
 517:lvgl/src/draw/sw/lv_draw_sw_arc.c ****         res_area->x2 = cir_x + thick_half;
 2002              		.loc 1 517 9 is_stmt 1 view .LVU794
 2003              		.loc 1 517 30 is_stmt 0 view .LVU795
 2004 0044 3C44     		add	r4, r4, r7
 2005              		.loc 1 517 22 view .LVU796
 2006 0046 AC80     		strh	r4, [r5, #4]	@ movhi
 2007              	.LVL128:
 2008              	.L68:
 518:lvgl/src/draw/sw/lv_draw_sw_arc.c ****     }
 519:lvgl/src/draw/sw/lv_draw_sw_arc.c ****     else {
 520:lvgl/src/draw/sw/lv_draw_sw_arc.c ****         cir_x = (cir_x + pa) >> ps;
 521:lvgl/src/draw/sw/lv_draw_sw_arc.c ****         res_area->x1 = cir_x - thick_half;
 522:lvgl/src/draw/sw/lv_draw_sw_arc.c ****         res_area->x2 = cir_x + thick_half - thick_corr;
 523:lvgl/src/draw/sw/lv_draw_sw_arc.c ****     }
 524:lvgl/src/draw/sw/lv_draw_sw_arc.c **** 
 525:lvgl/src/draw/sw/lv_draw_sw_arc.c ****     if(cir_y > 0) {
 2009              		.loc 1 525 5 is_stmt 1 view .LVU797
 2010              		.loc 1 525 7 is_stmt 0 view .LVU798
ARM GAS  /var/folders/21/t9g5rlb91ys800n5npymflf80000gn/T//ccb1YJg7.s 			page 57


 2011 0048 002A     		cmp	r2, #0
 2012 004a 14DD     		ble	.L69
 526:lvgl/src/draw/sw/lv_draw_sw_arc.c ****         cir_y = (cir_y - pa) >> ps;
 2013              		.loc 1 526 9 is_stmt 1 view .LVU799
 2014              		.loc 1 526 24 is_stmt 0 view .LVU800
 2015 004c 7F3A     		subs	r2, r2, #127
 2016              	.LVL129:
 527:lvgl/src/draw/sw/lv_draw_sw_arc.c ****         res_area->y1 = cir_y - thick_half + thick_corr;
 2017              		.loc 1 527 9 is_stmt 1 view .LVU801
 2018              		.loc 1 527 30 is_stmt 0 view .LVU802
 2019 004e C2F30F22 		ubfx	r2, r2, #8, #16
 2020              	.LVL130:
 2021              		.loc 1 527 30 view .LVU803
 2022 0052 D31B     		subs	r3, r2, r7
 2023              		.loc 1 527 43 view .LVU804
 2024 0054 16FA83F3 		uxtah	r3, r6, r3
 2025              		.loc 1 527 22 view .LVU805
 2026 0058 6B80     		strh	r3, [r5, #2]	@ movhi
 528:lvgl/src/draw/sw/lv_draw_sw_arc.c ****         res_area->y2 = cir_y + thick_half;
 2027              		.loc 1 528 9 is_stmt 1 view .LVU806
 2028              		.loc 1 528 30 is_stmt 0 view .LVU807
 2029 005a 3A44     		add	r2, r2, r7
 2030              		.loc 1 528 22 view .LVU808
 2031 005c EA80     		strh	r2, [r5, #6]	@ movhi
 2032              	.LVL131:
 2033              	.L66:
 529:lvgl/src/draw/sw/lv_draw_sw_arc.c ****     }
 530:lvgl/src/draw/sw/lv_draw_sw_arc.c ****     else {
 531:lvgl/src/draw/sw/lv_draw_sw_arc.c ****         cir_y = (cir_y + pa) >> ps;
 532:lvgl/src/draw/sw/lv_draw_sw_arc.c ****         res_area->y1 = cir_y - thick_half;
 533:lvgl/src/draw/sw/lv_draw_sw_arc.c ****         res_area->y2 = cir_y + thick_half - thick_corr;
 534:lvgl/src/draw/sw/lv_draw_sw_arc.c ****     }
 535:lvgl/src/draw/sw/lv_draw_sw_arc.c **** }
 2034              		.loc 1 535 1 view .LVU809
 2035 005e BDE8F883 		pop	{r3, r4, r5, r6, r7, r8, r9, pc}
 2036              	.LVL132:
 2037              	.L67:
 520:lvgl/src/draw/sw/lv_draw_sw_arc.c ****         res_area->x1 = cir_x - thick_half;
 2038              		.loc 1 520 9 is_stmt 1 view .LVU810
 520:lvgl/src/draw/sw/lv_draw_sw_arc.c ****         res_area->x1 = cir_x - thick_half;
 2039              		.loc 1 520 24 is_stmt 0 view .LVU811
 2040 0062 7F34     		adds	r4, r4, #127
 2041              	.LVL133:
 521:lvgl/src/draw/sw/lv_draw_sw_arc.c ****         res_area->x2 = cir_x + thick_half - thick_corr;
 2042              		.loc 1 521 9 is_stmt 1 view .LVU812
 521:lvgl/src/draw/sw/lv_draw_sw_arc.c ****         res_area->x2 = cir_x + thick_half - thick_corr;
 2043              		.loc 1 521 30 is_stmt 0 view .LVU813
 2044 0064 C4F30F24 		ubfx	r4, r4, #8, #16
 2045              	.LVL134:
 521:lvgl/src/draw/sw/lv_draw_sw_arc.c ****         res_area->x2 = cir_x + thick_half - thick_corr;
 2046              		.loc 1 521 30 view .LVU814
 2047 0068 E31B     		subs	r3, r4, r7
 521:lvgl/src/draw/sw/lv_draw_sw_arc.c ****         res_area->x2 = cir_x + thick_half - thick_corr;
 2048              		.loc 1 521 22 view .LVU815
 2049 006a 2B80     		strh	r3, [r5]	@ movhi
 522:lvgl/src/draw/sw/lv_draw_sw_arc.c ****     }
 2050              		.loc 1 522 9 is_stmt 1 view .LVU816
ARM GAS  /var/folders/21/t9g5rlb91ys800n5npymflf80000gn/T//ccb1YJg7.s 			page 58


 522:lvgl/src/draw/sw/lv_draw_sw_arc.c ****     }
 2051              		.loc 1 522 30 is_stmt 0 view .LVU817
 2052 006c 3C44     		add	r4, r4, r7
 2053 006e A4B2     		uxth	r4, r4
 522:lvgl/src/draw/sw/lv_draw_sw_arc.c ****     }
 2054              		.loc 1 522 43 view .LVU818
 2055 0070 A41B     		subs	r4, r4, r6
 522:lvgl/src/draw/sw/lv_draw_sw_arc.c ****     }
 2056              		.loc 1 522 22 view .LVU819
 2057 0072 AC80     		strh	r4, [r5, #4]	@ movhi
 2058 0074 E8E7     		b	.L68
 2059              	.LVL135:
 2060              	.L69:
 531:lvgl/src/draw/sw/lv_draw_sw_arc.c ****         res_area->y1 = cir_y - thick_half;
 2061              		.loc 1 531 9 is_stmt 1 view .LVU820
 531:lvgl/src/draw/sw/lv_draw_sw_arc.c ****         res_area->y1 = cir_y - thick_half;
 2062              		.loc 1 531 24 is_stmt 0 view .LVU821
 2063 0076 7F32     		adds	r2, r2, #127
 2064              	.LVL136:
 532:lvgl/src/draw/sw/lv_draw_sw_arc.c ****         res_area->y2 = cir_y + thick_half - thick_corr;
 2065              		.loc 1 532 9 is_stmt 1 view .LVU822
 532:lvgl/src/draw/sw/lv_draw_sw_arc.c ****         res_area->y2 = cir_y + thick_half - thick_corr;
 2066              		.loc 1 532 30 is_stmt 0 view .LVU823
 2067 0078 C2F30F22 		ubfx	r2, r2, #8, #16
 2068              	.LVL137:
 532:lvgl/src/draw/sw/lv_draw_sw_arc.c ****         res_area->y2 = cir_y + thick_half - thick_corr;
 2069              		.loc 1 532 30 view .LVU824
 2070 007c D31B     		subs	r3, r2, r7
 532:lvgl/src/draw/sw/lv_draw_sw_arc.c ****         res_area->y2 = cir_y + thick_half - thick_corr;
 2071              		.loc 1 532 22 view .LVU825
 2072 007e 6B80     		strh	r3, [r5, #2]	@ movhi
 533:lvgl/src/draw/sw/lv_draw_sw_arc.c ****     }
 2073              		.loc 1 533 9 is_stmt 1 view .LVU826
 533:lvgl/src/draw/sw/lv_draw_sw_arc.c ****     }
 2074              		.loc 1 533 30 is_stmt 0 view .LVU827
 2075 0080 3A44     		add	r2, r2, r7
 2076 0082 92B2     		uxth	r2, r2
 533:lvgl/src/draw/sw/lv_draw_sw_arc.c ****     }
 2077              		.loc 1 533 43 view .LVU828
 2078 0084 921B     		subs	r2, r2, r6
 533:lvgl/src/draw/sw/lv_draw_sw_arc.c ****     }
 2079              		.loc 1 533 22 view .LVU829
 2080 0086 EA80     		strh	r2, [r5, #6]	@ movhi
 2081              		.loc 1 535 1 view .LVU830
 2082 0088 E9E7     		b	.L66
 2083              		.cfi_endproc
 2084              	.LFE61:
 2086              		.section	.text.lv_draw_sw_arc,"ax",%progbits
 2087              		.align	1
 2088              		.global	lv_draw_sw_arc
 2089              		.syntax unified
 2090              		.thumb
 2091              		.thumb_func
 2093              	lv_draw_sw_arc:
 2094              	.LVL138:
 2095              	.LFB56:
  62:lvgl/src/draw/sw/lv_draw_sw_arc.c **** #if LV_DRAW_COMPLEX
ARM GAS  /var/folders/21/t9g5rlb91ys800n5npymflf80000gn/T//ccb1YJg7.s 			page 59


 2096              		.loc 1 62 1 is_stmt 1 view -0
 2097              		.cfi_startproc
 2098              		@ args = 8, pretend = 0, frame = 296
 2099              		@ frame_needed = 0, uses_anonymous_args = 0
  62:lvgl/src/draw/sw/lv_draw_sw_arc.c **** #if LV_DRAW_COMPLEX
 2100              		.loc 1 62 1 is_stmt 0 view .LVU832
 2101 0000 2DE9F04F 		push	{r4, r5, r6, r7, r8, r9, r10, fp, lr}
 2102              	.LCFI17:
 2103              		.cfi_def_cfa_offset 36
 2104              		.cfi_offset 4, -36
 2105              		.cfi_offset 5, -32
 2106              		.cfi_offset 6, -28
 2107              		.cfi_offset 7, -24
 2108              		.cfi_offset 8, -20
 2109              		.cfi_offset 9, -16
 2110              		.cfi_offset 10, -12
 2111              		.cfi_offset 11, -8
 2112              		.cfi_offset 14, -4
 2113 0004 CDB0     		sub	sp, sp, #308
 2114              	.LCFI18:
 2115              		.cfi_def_cfa_offset 344
 2116 0006 0290     		str	r0, [sp, #8]
 2117 0008 1F46     		mov	r7, r3
 2118 000a BDF85851 		ldrh	r5, [sp, #344]
 2119 000e BDF85C41 		ldrh	r4, [sp, #348]
  64:lvgl/src/draw/sw/lv_draw_sw_arc.c ****     if(dsc->width == 0) return;
 2120              		.loc 1 64 5 is_stmt 1 view .LVU833
  64:lvgl/src/draw/sw/lv_draw_sw_arc.c ****     if(dsc->width == 0) return;
 2121              		.loc 1 64 11 is_stmt 0 view .LVU834
 2122 0012 0B7B     		ldrb	r3, [r1, #12]	@ zero_extendqisi2
 2123              	.LVL139:
  64:lvgl/src/draw/sw/lv_draw_sw_arc.c ****     if(dsc->width == 0) return;
 2124              		.loc 1 64 7 view .LVU835
 2125 0014 022B     		cmp	r3, #2
 2126 0016 40F20081 		bls	.L72
 2127 001a 0E46     		mov	r6, r1
 2128 001c 9046     		mov	r8, r2
  65:lvgl/src/draw/sw/lv_draw_sw_arc.c ****     if(start_angle == end_angle) return;
 2129              		.loc 1 65 5 is_stmt 1 view .LVU836
  65:lvgl/src/draw/sw/lv_draw_sw_arc.c ****     if(start_angle == end_angle) return;
 2130              		.loc 1 65 11 is_stmt 0 view .LVU837
 2131 001e B1F90290 		ldrsh	r9, [r1, #2]
  65:lvgl/src/draw/sw/lv_draw_sw_arc.c ****     if(start_angle == end_angle) return;
 2132              		.loc 1 65 7 view .LVU838
 2133 0022 B9F1000F 		cmp	r9, #0
 2134 0026 00F0F880 		beq	.L72
  66:lvgl/src/draw/sw/lv_draw_sw_arc.c **** 
 2135              		.loc 1 66 5 is_stmt 1 view .LVU839
  66:lvgl/src/draw/sw/lv_draw_sw_arc.c **** 
 2136              		.loc 1 66 7 is_stmt 0 view .LVU840
 2137 002a A542     		cmp	r5, r4
 2138 002c 00F0F580 		beq	.L72
  68:lvgl/src/draw/sw/lv_draw_sw_arc.c ****     if(width > radius) width = radius;
 2139              		.loc 1 68 5 is_stmt 1 view .LVU841
 2140              	.LVL140:
  69:lvgl/src/draw/sw/lv_draw_sw_arc.c **** 
 2141              		.loc 1 69 5 view .LVU842
ARM GAS  /var/folders/21/t9g5rlb91ys800n5npymflf80000gn/T//ccb1YJg7.s 			page 60


  69:lvgl/src/draw/sw/lv_draw_sw_arc.c **** 
 2142              		.loc 1 69 7 is_stmt 0 view .LVU843
 2143 0030 B945     		cmp	r9, r7
 2144 0032 01DD     		ble	.L74
  69:lvgl/src/draw/sw/lv_draw_sw_arc.c **** 
 2145              		.loc 1 69 24 is_stmt 1 discriminator 1 view .LVU844
  69:lvgl/src/draw/sw/lv_draw_sw_arc.c **** 
 2146              		.loc 1 69 30 is_stmt 0 discriminator 1 view .LVU845
 2147 0034 0FFA87F9 		sxth	r9, r7
 2148              	.LVL141:
 2149              	.L74:
  71:lvgl/src/draw/sw/lv_draw_sw_arc.c ****     lv_draw_rect_dsc_init(&cir_dsc);
 2150              		.loc 1 71 5 is_stmt 1 view .LVU846
  72:lvgl/src/draw/sw/lv_draw_sw_arc.c ****     cir_dsc.blend_mode = dsc->blend_mode;
 2151              		.loc 1 72 5 view .LVU847
 2152 0038 3EA8     		add	r0, sp, #248
 2153              	.LVL142:
  72:lvgl/src/draw/sw/lv_draw_sw_arc.c ****     cir_dsc.blend_mode = dsc->blend_mode;
 2154              		.loc 1 72 5 is_stmt 0 view .LVU848
 2155 003a FFF7FEFF 		bl	lv_draw_rect_dsc_init
 2156              	.LVL143:
  73:lvgl/src/draw/sw/lv_draw_sw_arc.c ****     if(dsc->img_src) {
 2157              		.loc 1 73 5 is_stmt 1 view .LVU849
  73:lvgl/src/draw/sw/lv_draw_sw_arc.c ****     if(dsc->img_src) {
 2158              		.loc 1 73 29 is_stmt 0 view .LVU850
 2159 003e 737B     		ldrb	r3, [r6, #13]	@ zero_extendqisi2
 2160 0040 C3F30103 		ubfx	r3, r3, #0, #2
  73:lvgl/src/draw/sw/lv_draw_sw_arc.c ****     if(dsc->img_src) {
 2161              		.loc 1 73 24 view .LVU851
 2162 0044 8DF8FA30 		strb	r3, [sp, #250]
  74:lvgl/src/draw/sw/lv_draw_sw_arc.c ****         cir_dsc.bg_opa = LV_OPA_TRANSP;
 2163              		.loc 1 74 5 is_stmt 1 view .LVU852
  74:lvgl/src/draw/sw/lv_draw_sw_arc.c ****         cir_dsc.bg_opa = LV_OPA_TRANSP;
 2164              		.loc 1 74 11 is_stmt 0 view .LVU853
 2165 0048 B368     		ldr	r3, [r6, #8]
  74:lvgl/src/draw/sw/lv_draw_sw_arc.c ****         cir_dsc.bg_opa = LV_OPA_TRANSP;
 2166              		.loc 1 74 7 view .LVU854
 2167 004a 002B     		cmp	r3, #0
 2168 004c 54D0     		beq	.L75
  75:lvgl/src/draw/sw/lv_draw_sw_arc.c ****         cir_dsc.bg_img_src = dsc->img_src;
 2169              		.loc 1 75 9 is_stmt 1 view .LVU855
  75:lvgl/src/draw/sw/lv_draw_sw_arc.c ****         cir_dsc.bg_img_src = dsc->img_src;
 2170              		.loc 1 75 24 is_stmt 0 view .LVU856
 2171 004e 0022     		movs	r2, #0
 2172 0050 8DF8FB20 		strb	r2, [sp, #251]
  76:lvgl/src/draw/sw/lv_draw_sw_arc.c ****         cir_dsc.bg_img_opa = dsc->opa;
 2173              		.loc 1 76 9 is_stmt 1 view .LVU857
  76:lvgl/src/draw/sw/lv_draw_sw_arc.c ****         cir_dsc.bg_img_opa = dsc->opa;
 2174              		.loc 1 76 28 is_stmt 0 view .LVU858
 2175 0054 4293     		str	r3, [sp, #264]
  77:lvgl/src/draw/sw/lv_draw_sw_arc.c ****     }
 2176              		.loc 1 77 9 is_stmt 1 view .LVU859
  77:lvgl/src/draw/sw/lv_draw_sw_arc.c ****     }
 2177              		.loc 1 77 33 is_stmt 0 view .LVU860
 2178 0056 337B     		ldrb	r3, [r6, #12]	@ zero_extendqisi2
  77:lvgl/src/draw/sw/lv_draw_sw_arc.c ****     }
 2179              		.loc 1 77 28 view .LVU861
ARM GAS  /var/folders/21/t9g5rlb91ys800n5npymflf80000gn/T//ccb1YJg7.s 			page 61


 2180 0058 8DF81231 		strb	r3, [sp, #274]
 2181              	.L76:
  84:lvgl/src/draw/sw/lv_draw_sw_arc.c ****     area_out.x1 = center->x - radius;
 2182              		.loc 1 84 5 is_stmt 1 view .LVU862
  85:lvgl/src/draw/sw/lv_draw_sw_arc.c ****     area_out.y1 = center->y - radius;
 2183              		.loc 1 85 5 view .LVU863
  85:lvgl/src/draw/sw/lv_draw_sw_arc.c ****     area_out.y1 = center->y - radius;
 2184              		.loc 1 85 25 is_stmt 0 view .LVU864
 2185 005c B8F80020 		ldrh	r2, [r8]
  85:lvgl/src/draw/sw/lv_draw_sw_arc.c ****     area_out.y1 = center->y - radius;
 2186              		.loc 1 85 29 view .LVU865
 2187 0060 A2EB070C 		sub	ip, r2, r7
 2188 0064 0FFA8CFB 		sxth	fp, ip
  85:lvgl/src/draw/sw/lv_draw_sw_arc.c ****     area_out.y1 = center->y - radius;
 2189              		.loc 1 85 17 view .LVU866
 2190 0068 ADF8F0B0 		strh	fp, [sp, #240]	@ movhi
  86:lvgl/src/draw/sw/lv_draw_sw_arc.c ****     area_out.x2 = center->x + radius - 1;  /*-1 because the center already belongs to the left/bott
 2191              		.loc 1 86 5 is_stmt 1 view .LVU867
  86:lvgl/src/draw/sw/lv_draw_sw_arc.c ****     area_out.x2 = center->x + radius - 1;  /*-1 because the center already belongs to the left/bott
 2192              		.loc 1 86 25 is_stmt 0 view .LVU868
 2193 006c B8F80210 		ldrh	r1, [r8, #2]
  86:lvgl/src/draw/sw/lv_draw_sw_arc.c ****     area_out.x2 = center->x + radius - 1;  /*-1 because the center already belongs to the left/bott
 2194              		.loc 1 86 29 view .LVU869
 2195 0070 A1EB070E 		sub	lr, r1, r7
 2196 0074 0FFA8EFA 		sxth	r10, lr
  86:lvgl/src/draw/sw/lv_draw_sw_arc.c ****     area_out.x2 = center->x + radius - 1;  /*-1 because the center already belongs to the left/bott
 2197              		.loc 1 86 17 view .LVU870
 2198 0078 ADF8F2A0 		strh	r10, [sp, #242]	@ movhi
  87:lvgl/src/draw/sw/lv_draw_sw_arc.c ****     area_out.y2 = center->y + radius - 1;
 2199              		.loc 1 87 5 is_stmt 1 view .LVU871
  87:lvgl/src/draw/sw/lv_draw_sw_arc.c ****     area_out.y2 = center->y + radius - 1;
 2200              		.loc 1 87 29 is_stmt 0 view .LVU872
 2201 007c 3A44     		add	r2, r2, r7
 2202 007e 92B2     		uxth	r2, r2
  87:lvgl/src/draw/sw/lv_draw_sw_arc.c ****     area_out.y2 = center->y + radius - 1;
 2203              		.loc 1 87 38 view .LVU873
 2204 0080 013A     		subs	r2, r2, #1
 2205 0082 93B2     		uxth	r3, r2
 2206 0084 12B2     		sxth	r2, r2
  87:lvgl/src/draw/sw/lv_draw_sw_arc.c ****     area_out.y2 = center->y + radius - 1;
 2207              		.loc 1 87 17 view .LVU874
 2208 0086 ADF8F420 		strh	r2, [sp, #244]	@ movhi
  88:lvgl/src/draw/sw/lv_draw_sw_arc.c **** 
 2209              		.loc 1 88 5 is_stmt 1 view .LVU875
  88:lvgl/src/draw/sw/lv_draw_sw_arc.c **** 
 2210              		.loc 1 88 29 is_stmt 0 view .LVU876
 2211 008a 3944     		add	r1, r1, r7
 2212 008c 89B2     		uxth	r1, r1
  88:lvgl/src/draw/sw/lv_draw_sw_arc.c **** 
 2213              		.loc 1 88 38 view .LVU877
 2214 008e 0139     		subs	r1, r1, #1
 2215 0090 88B2     		uxth	r0, r1
 2216 0092 09B2     		sxth	r1, r1
  88:lvgl/src/draw/sw/lv_draw_sw_arc.c **** 
 2217              		.loc 1 88 17 view .LVU878
 2218 0094 ADF8F610 		strh	r1, [sp, #246]	@ movhi
  90:lvgl/src/draw/sw/lv_draw_sw_arc.c ****     lv_area_copy(&area_in, &area_out);
ARM GAS  /var/folders/21/t9g5rlb91ys800n5npymflf80000gn/T//ccb1YJg7.s 			page 62


 2219              		.loc 1 90 5 is_stmt 1 view .LVU879
  91:lvgl/src/draw/sw/lv_draw_sw_arc.c ****     area_in.x1 += dsc->width;
 2220              		.loc 1 91 5 view .LVU880
 2221              	.LVL144:
 2222              	.LBB28:
 2223              	.LBI28:
 2224              		.file 2 "lvgl/src/draw/sw/../../misc/lv_area.h"
   1:lvgl/src/draw/sw/../../misc/lv_area.h **** /**
   2:lvgl/src/draw/sw/../../misc/lv_area.h ****  * @file lv_area.h
   3:lvgl/src/draw/sw/../../misc/lv_area.h ****  *
   4:lvgl/src/draw/sw/../../misc/lv_area.h ****  */
   5:lvgl/src/draw/sw/../../misc/lv_area.h **** 
   6:lvgl/src/draw/sw/../../misc/lv_area.h **** #ifndef LV_AREA_H
   7:lvgl/src/draw/sw/../../misc/lv_area.h **** #define LV_AREA_H
   8:lvgl/src/draw/sw/../../misc/lv_area.h **** 
   9:lvgl/src/draw/sw/../../misc/lv_area.h **** #ifdef __cplusplus
  10:lvgl/src/draw/sw/../../misc/lv_area.h **** extern "C" {
  11:lvgl/src/draw/sw/../../misc/lv_area.h **** #endif
  12:lvgl/src/draw/sw/../../misc/lv_area.h **** 
  13:lvgl/src/draw/sw/../../misc/lv_area.h **** /*********************
  14:lvgl/src/draw/sw/../../misc/lv_area.h ****  *      INCLUDES
  15:lvgl/src/draw/sw/../../misc/lv_area.h ****  *********************/
  16:lvgl/src/draw/sw/../../misc/lv_area.h **** #include "../lv_conf_internal.h"
  17:lvgl/src/draw/sw/../../misc/lv_area.h **** #include <stdbool.h>
  18:lvgl/src/draw/sw/../../misc/lv_area.h **** #include <stdint.h>
  19:lvgl/src/draw/sw/../../misc/lv_area.h **** 
  20:lvgl/src/draw/sw/../../misc/lv_area.h **** /*********************
  21:lvgl/src/draw/sw/../../misc/lv_area.h ****  *      DEFINES
  22:lvgl/src/draw/sw/../../misc/lv_area.h ****  *********************/
  23:lvgl/src/draw/sw/../../misc/lv_area.h **** 
  24:lvgl/src/draw/sw/../../misc/lv_area.h **** #if LV_USE_LARGE_COORD
  25:lvgl/src/draw/sw/../../misc/lv_area.h **** typedef int32_t lv_coord_t;
  26:lvgl/src/draw/sw/../../misc/lv_area.h **** #else
  27:lvgl/src/draw/sw/../../misc/lv_area.h **** typedef int16_t lv_coord_t;
  28:lvgl/src/draw/sw/../../misc/lv_area.h **** #endif
  29:lvgl/src/draw/sw/../../misc/lv_area.h **** 
  30:lvgl/src/draw/sw/../../misc/lv_area.h **** /**********************
  31:lvgl/src/draw/sw/../../misc/lv_area.h ****  *      TYPEDEFS
  32:lvgl/src/draw/sw/../../misc/lv_area.h ****  **********************/
  33:lvgl/src/draw/sw/../../misc/lv_area.h **** 
  34:lvgl/src/draw/sw/../../misc/lv_area.h **** /**
  35:lvgl/src/draw/sw/../../misc/lv_area.h ****  * Represents a point on the screen.
  36:lvgl/src/draw/sw/../../misc/lv_area.h ****  */
  37:lvgl/src/draw/sw/../../misc/lv_area.h **** typedef struct {
  38:lvgl/src/draw/sw/../../misc/lv_area.h ****     lv_coord_t x;
  39:lvgl/src/draw/sw/../../misc/lv_area.h ****     lv_coord_t y;
  40:lvgl/src/draw/sw/../../misc/lv_area.h **** } lv_point_t;
  41:lvgl/src/draw/sw/../../misc/lv_area.h **** 
  42:lvgl/src/draw/sw/../../misc/lv_area.h **** /** Represents an area of the screen.*/
  43:lvgl/src/draw/sw/../../misc/lv_area.h **** typedef struct {
  44:lvgl/src/draw/sw/../../misc/lv_area.h ****     lv_coord_t x1;
  45:lvgl/src/draw/sw/../../misc/lv_area.h ****     lv_coord_t y1;
  46:lvgl/src/draw/sw/../../misc/lv_area.h ****     lv_coord_t x2;
  47:lvgl/src/draw/sw/../../misc/lv_area.h ****     lv_coord_t y2;
  48:lvgl/src/draw/sw/../../misc/lv_area.h **** } lv_area_t;
  49:lvgl/src/draw/sw/../../misc/lv_area.h **** 
  50:lvgl/src/draw/sw/../../misc/lv_area.h **** /** Alignments*/
ARM GAS  /var/folders/21/t9g5rlb91ys800n5npymflf80000gn/T//ccb1YJg7.s 			page 63


  51:lvgl/src/draw/sw/../../misc/lv_area.h **** enum {
  52:lvgl/src/draw/sw/../../misc/lv_area.h ****     LV_ALIGN_DEFAULT = 0,
  53:lvgl/src/draw/sw/../../misc/lv_area.h ****     LV_ALIGN_TOP_LEFT,
  54:lvgl/src/draw/sw/../../misc/lv_area.h ****     LV_ALIGN_TOP_MID,
  55:lvgl/src/draw/sw/../../misc/lv_area.h ****     LV_ALIGN_TOP_RIGHT,
  56:lvgl/src/draw/sw/../../misc/lv_area.h ****     LV_ALIGN_BOTTOM_LEFT,
  57:lvgl/src/draw/sw/../../misc/lv_area.h ****     LV_ALIGN_BOTTOM_MID,
  58:lvgl/src/draw/sw/../../misc/lv_area.h ****     LV_ALIGN_BOTTOM_RIGHT,
  59:lvgl/src/draw/sw/../../misc/lv_area.h ****     LV_ALIGN_LEFT_MID,
  60:lvgl/src/draw/sw/../../misc/lv_area.h ****     LV_ALIGN_RIGHT_MID,
  61:lvgl/src/draw/sw/../../misc/lv_area.h ****     LV_ALIGN_CENTER,
  62:lvgl/src/draw/sw/../../misc/lv_area.h **** 
  63:lvgl/src/draw/sw/../../misc/lv_area.h ****     LV_ALIGN_OUT_TOP_LEFT,
  64:lvgl/src/draw/sw/../../misc/lv_area.h ****     LV_ALIGN_OUT_TOP_MID,
  65:lvgl/src/draw/sw/../../misc/lv_area.h ****     LV_ALIGN_OUT_TOP_RIGHT,
  66:lvgl/src/draw/sw/../../misc/lv_area.h ****     LV_ALIGN_OUT_BOTTOM_LEFT,
  67:lvgl/src/draw/sw/../../misc/lv_area.h ****     LV_ALIGN_OUT_BOTTOM_MID,
  68:lvgl/src/draw/sw/../../misc/lv_area.h ****     LV_ALIGN_OUT_BOTTOM_RIGHT,
  69:lvgl/src/draw/sw/../../misc/lv_area.h ****     LV_ALIGN_OUT_LEFT_TOP,
  70:lvgl/src/draw/sw/../../misc/lv_area.h ****     LV_ALIGN_OUT_LEFT_MID,
  71:lvgl/src/draw/sw/../../misc/lv_area.h ****     LV_ALIGN_OUT_LEFT_BOTTOM,
  72:lvgl/src/draw/sw/../../misc/lv_area.h ****     LV_ALIGN_OUT_RIGHT_TOP,
  73:lvgl/src/draw/sw/../../misc/lv_area.h ****     LV_ALIGN_OUT_RIGHT_MID,
  74:lvgl/src/draw/sw/../../misc/lv_area.h ****     LV_ALIGN_OUT_RIGHT_BOTTOM,
  75:lvgl/src/draw/sw/../../misc/lv_area.h **** };
  76:lvgl/src/draw/sw/../../misc/lv_area.h **** typedef uint8_t lv_align_t;
  77:lvgl/src/draw/sw/../../misc/lv_area.h **** 
  78:lvgl/src/draw/sw/../../misc/lv_area.h **** enum {
  79:lvgl/src/draw/sw/../../misc/lv_area.h ****     LV_DIR_NONE     = 0x00,
  80:lvgl/src/draw/sw/../../misc/lv_area.h ****     LV_DIR_LEFT     = (1 << 0),
  81:lvgl/src/draw/sw/../../misc/lv_area.h ****     LV_DIR_RIGHT    = (1 << 1),
  82:lvgl/src/draw/sw/../../misc/lv_area.h ****     LV_DIR_TOP      = (1 << 2),
  83:lvgl/src/draw/sw/../../misc/lv_area.h ****     LV_DIR_BOTTOM   = (1 << 3),
  84:lvgl/src/draw/sw/../../misc/lv_area.h ****     LV_DIR_HOR      = LV_DIR_LEFT | LV_DIR_RIGHT,
  85:lvgl/src/draw/sw/../../misc/lv_area.h ****     LV_DIR_VER      = LV_DIR_TOP | LV_DIR_BOTTOM,
  86:lvgl/src/draw/sw/../../misc/lv_area.h ****     LV_DIR_ALL      = LV_DIR_HOR | LV_DIR_VER,
  87:lvgl/src/draw/sw/../../misc/lv_area.h **** };
  88:lvgl/src/draw/sw/../../misc/lv_area.h **** 
  89:lvgl/src/draw/sw/../../misc/lv_area.h **** typedef uint8_t lv_dir_t;
  90:lvgl/src/draw/sw/../../misc/lv_area.h **** 
  91:lvgl/src/draw/sw/../../misc/lv_area.h **** /**********************
  92:lvgl/src/draw/sw/../../misc/lv_area.h ****  * GLOBAL PROTOTYPES
  93:lvgl/src/draw/sw/../../misc/lv_area.h ****  **********************/
  94:lvgl/src/draw/sw/../../misc/lv_area.h **** 
  95:lvgl/src/draw/sw/../../misc/lv_area.h **** /**
  96:lvgl/src/draw/sw/../../misc/lv_area.h ****  * Initialize an area
  97:lvgl/src/draw/sw/../../misc/lv_area.h ****  * @param area_p pointer to an area
  98:lvgl/src/draw/sw/../../misc/lv_area.h ****  * @param x1 left coordinate of the area
  99:lvgl/src/draw/sw/../../misc/lv_area.h ****  * @param y1 top coordinate of the area
 100:lvgl/src/draw/sw/../../misc/lv_area.h ****  * @param x2 right coordinate of the area
 101:lvgl/src/draw/sw/../../misc/lv_area.h ****  * @param y2 bottom coordinate of the area
 102:lvgl/src/draw/sw/../../misc/lv_area.h ****  */
 103:lvgl/src/draw/sw/../../misc/lv_area.h **** void lv_area_set(lv_area_t * area_p, lv_coord_t x1, lv_coord_t y1, lv_coord_t x2, lv_coord_t y2);
 104:lvgl/src/draw/sw/../../misc/lv_area.h **** 
 105:lvgl/src/draw/sw/../../misc/lv_area.h **** /**
 106:lvgl/src/draw/sw/../../misc/lv_area.h ****  * Copy an area
 107:lvgl/src/draw/sw/../../misc/lv_area.h ****  * @param dest pointer to the destination area
ARM GAS  /var/folders/21/t9g5rlb91ys800n5npymflf80000gn/T//ccb1YJg7.s 			page 64


 108:lvgl/src/draw/sw/../../misc/lv_area.h ****  * @param src pointer to the source area
 109:lvgl/src/draw/sw/../../misc/lv_area.h ****  */
 110:lvgl/src/draw/sw/../../misc/lv_area.h **** inline static void lv_area_copy(lv_area_t * dest, const lv_area_t * src)
 2225              		.loc 2 110 20 view .LVU881
 2226              	.LBB29:
 111:lvgl/src/draw/sw/../../misc/lv_area.h **** {
 112:lvgl/src/draw/sw/../../misc/lv_area.h ****     dest->x1 = src->x1;
 2227              		.loc 2 112 5 view .LVU882
 2228              		.loc 2 112 14 is_stmt 0 view .LVU883
 2229 0098 ADF8E8B0 		strh	fp, [sp, #232]	@ movhi
 113:lvgl/src/draw/sw/../../misc/lv_area.h ****     dest->y1 = src->y1;
 2230              		.loc 2 113 5 is_stmt 1 view .LVU884
 2231              		.loc 2 113 14 is_stmt 0 view .LVU885
 2232 009c ADF8EAA0 		strh	r10, [sp, #234]	@ movhi
 114:lvgl/src/draw/sw/../../misc/lv_area.h ****     dest->x2 = src->x2;
 2233              		.loc 2 114 5 is_stmt 1 view .LVU886
 2234              		.loc 2 114 14 is_stmt 0 view .LVU887
 2235 00a0 ADF8EC20 		strh	r2, [sp, #236]	@ movhi
 115:lvgl/src/draw/sw/../../misc/lv_area.h ****     dest->y2 = src->y2;
 2236              		.loc 2 115 5 is_stmt 1 view .LVU888
 2237              		.loc 2 115 14 is_stmt 0 view .LVU889
 2238 00a4 ADF8EE10 		strh	r1, [sp, #238]	@ movhi
 2239              	.LVL145:
 2240              		.loc 2 115 14 view .LVU890
 2241              	.LBE29:
 2242              	.LBE28:
  92:lvgl/src/draw/sw/lv_draw_sw_arc.c ****     area_in.y1 += dsc->width;
 2243              		.loc 1 92 5 is_stmt 1 view .LVU891
  92:lvgl/src/draw/sw/lv_draw_sw_arc.c ****     area_in.y1 += dsc->width;
 2244              		.loc 1 92 22 is_stmt 0 view .LVU892
 2245 00a8 7288     		ldrh	r2, [r6, #2]
  92:lvgl/src/draw/sw/lv_draw_sw_arc.c ****     area_in.y1 += dsc->width;
 2246              		.loc 1 92 16 view .LVU893
 2247 00aa 12FA8CFC 		uxtah	ip, r2, ip
 2248 00ae 1FFA8CFC 		uxth	ip, ip
 2249 00b2 ADF8E8C0 		strh	ip, [sp, #232]	@ movhi
  93:lvgl/src/draw/sw/lv_draw_sw_arc.c ****     area_in.x2 -= dsc->width;
 2250              		.loc 1 93 5 is_stmt 1 view .LVU894
  93:lvgl/src/draw/sw/lv_draw_sw_arc.c ****     area_in.x2 -= dsc->width;
 2251              		.loc 1 93 16 is_stmt 0 view .LVU895
 2252 00b6 12FA8EFE 		uxtah	lr, r2, lr
 2253 00ba 1FFA8EFE 		uxth	lr, lr
 2254 00be ADF8EAE0 		strh	lr, [sp, #234]	@ movhi
  94:lvgl/src/draw/sw/lv_draw_sw_arc.c ****     area_in.y2 -= dsc->width;
 2255              		.loc 1 94 5 is_stmt 1 view .LVU896
  94:lvgl/src/draw/sw/lv_draw_sw_arc.c ****     area_in.y2 -= dsc->width;
 2256              		.loc 1 94 16 is_stmt 0 view .LVU897
 2257 00c2 9B1A     		subs	r3, r3, r2
 2258 00c4 9BB2     		uxth	r3, r3
 2259 00c6 ADF8EC30 		strh	r3, [sp, #236]	@ movhi
  95:lvgl/src/draw/sw/lv_draw_sw_arc.c **** 
 2260              		.loc 1 95 5 is_stmt 1 view .LVU898
  95:lvgl/src/draw/sw/lv_draw_sw_arc.c **** 
 2261              		.loc 1 95 16 is_stmt 0 view .LVU899
 2262 00ca 801A     		subs	r0, r0, r2
 2263 00cc 80B2     		uxth	r0, r0
 2264 00ce ADF8EE00 		strh	r0, [sp, #238]	@ movhi
ARM GAS  /var/folders/21/t9g5rlb91ys800n5npymflf80000gn/T//ccb1YJg7.s 			page 65


  98:lvgl/src/draw/sw/lv_draw_sw_arc.c ****     lv_draw_mask_radius_param_t mask_in_param;
 2265              		.loc 1 98 5 is_stmt 1 view .LVU900
 2266              	.LVL146:
  99:lvgl/src/draw/sw/lv_draw_sw_arc.c ****     bool mask_in_param_valid = false;
 2267              		.loc 1 99 5 view .LVU901
 100:lvgl/src/draw/sw/lv_draw_sw_arc.c ****     if(lv_area_get_width(&area_in) > 0 && lv_area_get_height(&area_in) > 0) {
 2268              		.loc 1 100 5 view .LVU902
 101:lvgl/src/draw/sw/lv_draw_sw_arc.c ****         lv_draw_mask_radius_init(&mask_in_param, &area_in, LV_RADIUS_CIRCLE, true);
 2269              		.loc 1 101 5 view .LVU903
 2270              	.LBB30:
 2271              	.LBI30:
 116:lvgl/src/draw/sw/../../misc/lv_area.h **** }
 117:lvgl/src/draw/sw/../../misc/lv_area.h **** 
 118:lvgl/src/draw/sw/../../misc/lv_area.h **** /**
 119:lvgl/src/draw/sw/../../misc/lv_area.h ****  * Get the width of an area
 120:lvgl/src/draw/sw/../../misc/lv_area.h ****  * @param area_p pointer to an area
 121:lvgl/src/draw/sw/../../misc/lv_area.h ****  * @return the width of the area (if x1 == x2 -> width = 1)
 122:lvgl/src/draw/sw/../../misc/lv_area.h ****  */
 123:lvgl/src/draw/sw/../../misc/lv_area.h **** static inline lv_coord_t lv_area_get_width(const lv_area_t * area_p)
 2272              		.loc 2 123 26 view .LVU904
 2273              	.LBB31:
 124:lvgl/src/draw/sw/../../misc/lv_area.h **** {
 125:lvgl/src/draw/sw/../../misc/lv_area.h ****     return (lv_coord_t)(area_p->x2 - area_p->x1 + 1);
 2274              		.loc 2 125 5 view .LVU905
 2275              		.loc 2 125 36 is_stmt 0 view .LVU906
 2276 00d2 A3EB0C03 		sub	r3, r3, ip
 2277 00d6 9BB2     		uxth	r3, r3
 2278              		.loc 2 125 49 view .LVU907
 2279 00d8 0133     		adds	r3, r3, #1
 2280              		.loc 2 125 12 view .LVU908
 2281 00da 1BB2     		sxth	r3, r3
 2282              	.LVL147:
 2283              		.loc 2 125 12 view .LVU909
 2284              	.LBE31:
 2285              	.LBE30:
 101:lvgl/src/draw/sw/lv_draw_sw_arc.c ****         lv_draw_mask_radius_init(&mask_in_param, &area_in, LV_RADIUS_CIRCLE, true);
 2286              		.loc 1 101 7 view .LVU910
 2287 00dc 002B     		cmp	r3, #0
 2288 00de 21DD     		ble	.L95
 2289              	.LVL148:
 2290              	.LBB32:
 2291              	.LBI32:
 126:lvgl/src/draw/sw/../../misc/lv_area.h **** }
 127:lvgl/src/draw/sw/../../misc/lv_area.h **** 
 128:lvgl/src/draw/sw/../../misc/lv_area.h **** /**
 129:lvgl/src/draw/sw/../../misc/lv_area.h ****  * Get the height of an area
 130:lvgl/src/draw/sw/../../misc/lv_area.h ****  * @param area_p pointer to an area
 131:lvgl/src/draw/sw/../../misc/lv_area.h ****  * @return the height of the area (if y1 == y2 -> height = 1)
 132:lvgl/src/draw/sw/../../misc/lv_area.h ****  */
 133:lvgl/src/draw/sw/../../misc/lv_area.h **** static inline lv_coord_t lv_area_get_height(const lv_area_t * area_p)
 2292              		.loc 2 133 26 is_stmt 1 view .LVU911
 2293              	.LBB33:
 134:lvgl/src/draw/sw/../../misc/lv_area.h **** {
 135:lvgl/src/draw/sw/../../misc/lv_area.h ****     return (lv_coord_t)(area_p->y2 - area_p->y1 + 1);
 2294              		.loc 2 135 5 view .LVU912
 2295              		.loc 2 135 36 is_stmt 0 view .LVU913
 2296 00e0 A0EB0E03 		sub	r3, r0, lr
ARM GAS  /var/folders/21/t9g5rlb91ys800n5npymflf80000gn/T//ccb1YJg7.s 			page 66


 2297 00e4 9BB2     		uxth	r3, r3
 2298              		.loc 2 135 49 view .LVU914
 2299 00e6 0133     		adds	r3, r3, #1
 2300              		.loc 2 135 12 view .LVU915
 2301 00e8 1BB2     		sxth	r3, r3
 2302              	.LVL149:
 2303              		.loc 2 135 12 view .LVU916
 2304              	.LBE33:
 2305              	.LBE32:
 101:lvgl/src/draw/sw/lv_draw_sw_arc.c ****         lv_draw_mask_radius_init(&mask_in_param, &area_in, LV_RADIUS_CIRCLE, true);
 2306              		.loc 1 101 40 view .LVU917
 2307 00ea 002B     		cmp	r3, #0
 2308 00ec 0BDC     		bgt	.L99
 100:lvgl/src/draw/sw/lv_draw_sw_arc.c ****     if(lv_area_get_width(&area_in) > 0 && lv_area_get_height(&area_in) > 0) {
 2309              		.loc 1 100 10 view .LVU918
 2310 00ee 0023     		movs	r3, #0
 2311 00f0 0493     		str	r3, [sp, #16]
  98:lvgl/src/draw/sw/lv_draw_sw_arc.c ****     lv_draw_mask_radius_param_t mask_in_param;
 2312              		.loc 1 98 13 view .LVU919
 2313 00f2 4FF0FF3A 		mov	r10, #-1
 2314 00f6 19E0     		b	.L77
 2315              	.LVL150:
 2316              	.L75:
  80:lvgl/src/draw/sw/lv_draw_sw_arc.c ****         cir_dsc.bg_color = dsc->color;
 2317              		.loc 1 80 9 is_stmt 1 view .LVU920
  80:lvgl/src/draw/sw/lv_draw_sw_arc.c ****         cir_dsc.bg_color = dsc->color;
 2318              		.loc 1 80 29 is_stmt 0 view .LVU921
 2319 00f8 337B     		ldrb	r3, [r6, #12]	@ zero_extendqisi2
  80:lvgl/src/draw/sw/lv_draw_sw_arc.c ****         cir_dsc.bg_color = dsc->color;
 2320              		.loc 1 80 24 view .LVU922
 2321 00fa 8DF8FB30 		strb	r3, [sp, #251]
  81:lvgl/src/draw/sw/lv_draw_sw_arc.c ****     }
 2322              		.loc 1 81 9 is_stmt 1 view .LVU923
  81:lvgl/src/draw/sw/lv_draw_sw_arc.c ****     }
 2323              		.loc 1 81 26 is_stmt 0 view .LVU924
 2324 00fe 3388     		ldrh	r3, [r6]
 2325 0100 ADF8FC30 		strh	r3, [sp, #252]	@ movhi
 2326 0104 AAE7     		b	.L76
 2327              	.LVL151:
 2328              	.L99:
 102:lvgl/src/draw/sw/lv_draw_sw_arc.c ****         mask_in_param_valid = true;
 2329              		.loc 1 102 9 is_stmt 1 view .LVU925
 2330 0106 0123     		movs	r3, #1
 2331 0108 47F6FF72 		movw	r2, #32767
 2332 010c 3AA9     		add	r1, sp, #232
 2333 010e 34A8     		add	r0, sp, #208
 2334 0110 FFF7FEFF 		bl	lv_draw_mask_radius_init
 2335              	.LVL152:
 103:lvgl/src/draw/sw/lv_draw_sw_arc.c ****         mask_in_id = lv_draw_mask_add(&mask_in_param, NULL);
 2336              		.loc 1 103 9 view .LVU926
 104:lvgl/src/draw/sw/lv_draw_sw_arc.c ****     }
 2337              		.loc 1 104 9 view .LVU927
 104:lvgl/src/draw/sw/lv_draw_sw_arc.c ****     }
 2338              		.loc 1 104 22 is_stmt 0 view .LVU928
 2339 0114 0021     		movs	r1, #0
 2340 0116 34A8     		add	r0, sp, #208
 2341 0118 FFF7FEFF 		bl	lv_draw_mask_add
ARM GAS  /var/folders/21/t9g5rlb91ys800n5npymflf80000gn/T//ccb1YJg7.s 			page 67


 2342              	.LVL153:
 2343 011c 8246     		mov	r10, r0
 2344              	.LVL154:
 103:lvgl/src/draw/sw/lv_draw_sw_arc.c ****         mask_in_id = lv_draw_mask_add(&mask_in_param, NULL);
 2345              		.loc 1 103 29 view .LVU929
 2346 011e 0123     		movs	r3, #1
 2347 0120 0493     		str	r3, [sp, #16]
 2348 0122 03E0     		b	.L77
 2349              	.LVL155:
 2350              	.L95:
 100:lvgl/src/draw/sw/lv_draw_sw_arc.c ****     if(lv_area_get_width(&area_in) > 0 && lv_area_get_height(&area_in) > 0) {
 2351              		.loc 1 100 10 view .LVU930
 2352 0124 0023     		movs	r3, #0
 2353 0126 0493     		str	r3, [sp, #16]
  98:lvgl/src/draw/sw/lv_draw_sw_arc.c ****     lv_draw_mask_radius_param_t mask_in_param;
 2354              		.loc 1 98 13 view .LVU931
 2355 0128 4FF0FF3A 		mov	r10, #-1
 2356              	.LVL156:
 2357              	.L77:
 107:lvgl/src/draw/sw/lv_draw_sw_arc.c ****     lv_draw_mask_radius_init(&mask_out_param, &area_out, LV_RADIUS_CIRCLE, false);
 2358              		.loc 1 107 5 is_stmt 1 view .LVU932
 108:lvgl/src/draw/sw/lv_draw_sw_arc.c ****     int16_t mask_out_id = lv_draw_mask_add(&mask_out_param, NULL);
 2359              		.loc 1 108 5 view .LVU933
 2360 012c 0023     		movs	r3, #0
 2361 012e 47F6FF72 		movw	r2, #32767
 2362 0132 3CA9     		add	r1, sp, #240
 2363 0134 2EA8     		add	r0, sp, #184
 2364 0136 FFF7FEFF 		bl	lv_draw_mask_radius_init
 2365              	.LVL157:
 109:lvgl/src/draw/sw/lv_draw_sw_arc.c **** 
 2366              		.loc 1 109 5 view .LVU934
 109:lvgl/src/draw/sw/lv_draw_sw_arc.c **** 
 2367              		.loc 1 109 27 is_stmt 0 view .LVU935
 2368 013a 0021     		movs	r1, #0
 2369 013c 2EA8     		add	r0, sp, #184
 2370 013e FFF7FEFF 		bl	lv_draw_mask_add
 2371              	.LVL158:
 2372 0142 0390     		str	r0, [sp, #12]
 2373              	.LVL159:
 112:lvgl/src/draw/sw/lv_draw_sw_arc.c ****         cir_dsc.radius = LV_RADIUS_CIRCLE;
 2374              		.loc 1 112 5 is_stmt 1 view .LVU936
 112:lvgl/src/draw/sw/lv_draw_sw_arc.c ****         cir_dsc.radius = LV_RADIUS_CIRCLE;
 2375              		.loc 1 112 20 is_stmt 0 view .LVU937
 2376 0144 05F5B473 		add	r3, r5, #360
 112:lvgl/src/draw/sw/lv_draw_sw_arc.c ****         cir_dsc.radius = LV_RADIUS_CIRCLE;
 2377              		.loc 1 112 7 view .LVU938
 2378 0148 A342     		cmp	r3, r4
 2379 014a 03D0     		beq	.L78
 112:lvgl/src/draw/sw/lv_draw_sw_arc.c ****         cir_dsc.radius = LV_RADIUS_CIRCLE;
 2380              		.loc 1 112 67 discriminator 1 view .LVU939
 2381 014c 04F5B473 		add	r3, r4, #360
 112:lvgl/src/draw/sw/lv_draw_sw_arc.c ****         cir_dsc.radius = LV_RADIUS_CIRCLE;
 2382              		.loc 1 112 39 discriminator 1 view .LVU940
 2383 0150 9D42     		cmp	r5, r3
 2384 0152 1FD1     		bne	.L79
 2385              	.L78:
 113:lvgl/src/draw/sw/lv_draw_sw_arc.c ****         lv_draw_rect(draw_ctx, &cir_dsc, &area_out);
ARM GAS  /var/folders/21/t9g5rlb91ys800n5npymflf80000gn/T//ccb1YJg7.s 			page 68


 2386              		.loc 1 113 9 is_stmt 1 view .LVU941
 113:lvgl/src/draw/sw/lv_draw_sw_arc.c ****         lv_draw_rect(draw_ctx, &cir_dsc, &area_out);
 2387              		.loc 1 113 24 is_stmt 0 view .LVU942
 2388 0154 47F6FF73 		movw	r3, #32767
 2389 0158 ADF8F830 		strh	r3, [sp, #248]	@ movhi
 114:lvgl/src/draw/sw/lv_draw_sw_arc.c **** 
 2390              		.loc 1 114 9 is_stmt 1 view .LVU943
 2391 015c 3CAA     		add	r2, sp, #240
 2392 015e 3EA9     		add	r1, sp, #248
 2393 0160 0298     		ldr	r0, [sp, #8]
 2394 0162 FFF7FEFF 		bl	lv_draw_rect
 2395              	.LVL160:
 116:lvgl/src/draw/sw/lv_draw_sw_arc.c ****         if(mask_in_id != LV_MASK_ID_INV) lv_draw_mask_remove_id(mask_in_id);
 2396              		.loc 1 116 9 view .LVU944
 2397 0166 0398     		ldr	r0, [sp, #12]
 2398 0168 FFF7FEFF 		bl	lv_draw_mask_remove_id
 2399              	.LVL161:
 117:lvgl/src/draw/sw/lv_draw_sw_arc.c **** 
 2400              		.loc 1 117 9 view .LVU945
 117:lvgl/src/draw/sw/lv_draw_sw_arc.c **** 
 2401              		.loc 1 117 11 is_stmt 0 view .LVU946
 2402 016c BAF1FF3F 		cmp	r10, #-1
 2403 0170 09D1     		bne	.L100
 2404              	.L80:
 119:lvgl/src/draw/sw/lv_draw_sw_arc.c ****         if(mask_in_param_valid) {
 2405              		.loc 1 119 9 is_stmt 1 view .LVU947
 2406 0172 2EA8     		add	r0, sp, #184
 2407 0174 FFF7FEFF 		bl	lv_draw_mask_free_param
 2408              	.LVL162:
 120:lvgl/src/draw/sw/lv_draw_sw_arc.c ****             lv_draw_mask_free_param(&mask_in_param);
 2409              		.loc 1 120 9 view .LVU948
 120:lvgl/src/draw/sw/lv_draw_sw_arc.c ****             lv_draw_mask_free_param(&mask_in_param);
 2410              		.loc 1 120 11 is_stmt 0 view .LVU949
 2411 0178 049B     		ldr	r3, [sp, #16]
 2412 017a 002B     		cmp	r3, #0
 2413 017c 4DD0     		beq	.L72
 121:lvgl/src/draw/sw/lv_draw_sw_arc.c ****         }
 2414              		.loc 1 121 13 is_stmt 1 view .LVU950
 2415 017e 34A8     		add	r0, sp, #208
 2416 0180 FFF7FEFF 		bl	lv_draw_mask_free_param
 2417              	.LVL163:
 124:lvgl/src/draw/sw/lv_draw_sw_arc.c ****     }
 2418              		.loc 1 124 9 view .LVU951
 2419 0184 49E0     		b	.L72
 2420              	.L100:
 117:lvgl/src/draw/sw/lv_draw_sw_arc.c **** 
 2421              		.loc 1 117 42 discriminator 1 view .LVU952
 2422 0186 5046     		mov	r0, r10
 2423 0188 FFF7FEFF 		bl	lv_draw_mask_remove_id
 2424              	.LVL164:
 2425 018c F1E7     		b	.L80
 2426              	.LVL165:
 2427              	.L82:
 127:lvgl/src/draw/sw/lv_draw_sw_arc.c ****     while(end_angle >= 360) end_angle -= 360;
 2428              		.loc 1 127 31 discriminator 2 view .LVU953
 127:lvgl/src/draw/sw/lv_draw_sw_arc.c ****     while(end_angle >= 360) end_angle -= 360;
 2429              		.loc 1 127 43 is_stmt 0 discriminator 2 view .LVU954
ARM GAS  /var/folders/21/t9g5rlb91ys800n5npymflf80000gn/T//ccb1YJg7.s 			page 69


 2430 018e A5F5B475 		sub	r5, r5, #360
 2431              	.LVL166:
 127:lvgl/src/draw/sw/lv_draw_sw_arc.c ****     while(end_angle >= 360) end_angle -= 360;
 2432              		.loc 1 127 43 discriminator 2 view .LVU955
 2433 0192 ADB2     		uxth	r5, r5
 2434              	.LVL167:
 2435              	.L79:
 127:lvgl/src/draw/sw/lv_draw_sw_arc.c ****     while(end_angle >= 360) end_angle -= 360;
 2436              		.loc 1 127 23 is_stmt 1 discriminator 1 view .LVU956
 2437 0194 B5F5B47F 		cmp	r5, #360
 2438 0198 F9D2     		bcs	.L82
 2439 019a 02E0     		b	.L83
 2440              	.LVL168:
 2441              	.L84:
 128:lvgl/src/draw/sw/lv_draw_sw_arc.c **** 
 2442              		.loc 1 128 29 discriminator 2 view .LVU957
 128:lvgl/src/draw/sw/lv_draw_sw_arc.c **** 
 2443              		.loc 1 128 39 is_stmt 0 discriminator 2 view .LVU958
 2444 019c A4F5B474 		sub	r4, r4, #360
 2445              	.LVL169:
 128:lvgl/src/draw/sw/lv_draw_sw_arc.c **** 
 2446              		.loc 1 128 39 discriminator 2 view .LVU959
 2447 01a0 A4B2     		uxth	r4, r4
 2448              	.LVL170:
 2449              	.L83:
 128:lvgl/src/draw/sw/lv_draw_sw_arc.c **** 
 2450              		.loc 1 128 21 is_stmt 1 discriminator 1 view .LVU960
 2451 01a2 B4F5B47F 		cmp	r4, #360
 2452 01a6 F9D2     		bcs	.L84
 130:lvgl/src/draw/sw/lv_draw_sw_arc.c ****     lv_draw_mask_angle_init(&mask_angle_param, center->x, center->y, start_angle, end_angle);
 2453              		.loc 1 130 5 view .LVU961
 131:lvgl/src/draw/sw/lv_draw_sw_arc.c ****     int16_t mask_angle_id = lv_draw_mask_add(&mask_angle_param, NULL);
 2454              		.loc 1 131 5 view .LVU962
 2455 01a8 2BB2     		sxth	r3, r5
 2456 01aa 0793     		str	r3, [sp, #28]
 2457 01ac 0FFA84FB 		sxth	fp, r4
 2458 01b0 CDF800B0 		str	fp, [sp]
 2459 01b4 B8F90220 		ldrsh	r2, [r8, #2]
 2460 01b8 B8F90010 		ldrsh	r1, [r8]
 2461 01bc 13A8     		add	r0, sp, #76
 2462 01be FFF7FEFF 		bl	lv_draw_mask_angle_init
 2463              	.LVL171:
 132:lvgl/src/draw/sw/lv_draw_sw_arc.c **** 
 2464              		.loc 1 132 5 view .LVU963
 132:lvgl/src/draw/sw/lv_draw_sw_arc.c **** 
 2465              		.loc 1 132 29 is_stmt 0 view .LVU964
 2466 01c2 0021     		movs	r1, #0
 2467 01c4 13A8     		add	r0, sp, #76
 2468 01c6 FFF7FEFF 		bl	lv_draw_mask_add
 2469              	.LVL172:
 2470 01ca 0590     		str	r0, [sp, #20]
 2471              	.LVL173:
 134:lvgl/src/draw/sw/lv_draw_sw_arc.c ****     if(end_angle > start_angle) {
 2472              		.loc 1 134 5 is_stmt 1 view .LVU965
 135:lvgl/src/draw/sw/lv_draw_sw_arc.c ****         angle_gap = 360 - (end_angle - start_angle);
 2473              		.loc 1 135 5 view .LVU966
 135:lvgl/src/draw/sw/lv_draw_sw_arc.c ****         angle_gap = 360 - (end_angle - start_angle);
ARM GAS  /var/folders/21/t9g5rlb91ys800n5npymflf80000gn/T//ccb1YJg7.s 			page 70


 2474              		.loc 1 135 7 is_stmt 0 view .LVU967
 2475 01cc A542     		cmp	r5, r4
 2476 01ce 27D2     		bcs	.L85
 136:lvgl/src/draw/sw/lv_draw_sw_arc.c ****     }
 2477              		.loc 1 136 9 is_stmt 1 view .LVU968
 136:lvgl/src/draw/sw/lv_draw_sw_arc.c ****     }
 2478              		.loc 1 136 38 is_stmt 0 view .LVU969
 2479 01d0 631B     		subs	r3, r4, r5
 136:lvgl/src/draw/sw/lv_draw_sw_arc.c ****     }
 2480              		.loc 1 136 19 view .LVU970
 2481 01d2 C3F5B473 		rsb	r3, r3, #360
 2482              	.LVL174:
 2483              	.L86:
 142:lvgl/src/draw/sw/lv_draw_sw_arc.c **** 
 2484              		.loc 1 142 5 is_stmt 1 view .LVU971
 142:lvgl/src/draw/sw/lv_draw_sw_arc.c **** 
 2485              		.loc 1 142 23 is_stmt 0 view .LVU972
 2486 01d6 029A     		ldr	r2, [sp, #8]
 2487 01d8 9268     		ldr	r2, [r2, #8]
 2488 01da 0692     		str	r2, [sp, #24]
 2489              	.LVL175:
 144:lvgl/src/draw/sw/lv_draw_sw_arc.c ****         /*Handle each quarter individually and skip which is empty*/
 2490              		.loc 1 144 5 is_stmt 1 view .LVU973
 144:lvgl/src/draw/sw/lv_draw_sw_arc.c ****         /*Handle each quarter individually and skip which is empty*/
 2491              		.loc 1 144 7 is_stmt 0 view .LVU974
 2492 01dc 3C2B     		cmp	r3, #60
 2493 01de 01DD     		ble	.L87
 144:lvgl/src/draw/sw/lv_draw_sw_arc.c ****         /*Handle each quarter individually and skip which is empty*/
 2494              		.loc 1 144 42 discriminator 1 view .LVU975
 2495 01e0 0A2F     		cmp	r7, #10
 2496 01e2 1FD8     		bhi	.L101
 2497              	.L87:
 164:lvgl/src/draw/sw/lv_draw_sw_arc.c ****     }
 2498              		.loc 1 164 9 is_stmt 1 view .LVU976
 2499 01e4 3CAA     		add	r2, sp, #240
 2500              	.LVL176:
 164:lvgl/src/draw/sw/lv_draw_sw_arc.c ****     }
 2501              		.loc 1 164 9 is_stmt 0 view .LVU977
 2502 01e6 3EA9     		add	r1, sp, #248
 2503 01e8 0298     		ldr	r0, [sp, #8]
 2504 01ea FFF7FEFF 		bl	lv_draw_rect
 2505              	.LVL177:
 2506              	.L88:
 167:lvgl/src/draw/sw/lv_draw_sw_arc.c ****     lv_draw_mask_free_param(&mask_out_param);
 2507              		.loc 1 167 5 is_stmt 1 view .LVU978
 2508 01ee 13A8     		add	r0, sp, #76
 2509 01f0 FFF7FEFF 		bl	lv_draw_mask_free_param
 2510              	.LVL178:
 168:lvgl/src/draw/sw/lv_draw_sw_arc.c ****     if(mask_in_param_valid) {
 2511              		.loc 1 168 5 view .LVU979
 2512 01f4 2EA8     		add	r0, sp, #184
 2513 01f6 FFF7FEFF 		bl	lv_draw_mask_free_param
 2514              	.LVL179:
 169:lvgl/src/draw/sw/lv_draw_sw_arc.c ****         lv_draw_mask_free_param(&mask_in_param);
 2515              		.loc 1 169 5 view .LVU980
 169:lvgl/src/draw/sw/lv_draw_sw_arc.c ****         lv_draw_mask_free_param(&mask_in_param);
 2516              		.loc 1 169 7 is_stmt 0 view .LVU981
ARM GAS  /var/folders/21/t9g5rlb91ys800n5npymflf80000gn/T//ccb1YJg7.s 			page 71


 2517 01fa 049B     		ldr	r3, [sp, #16]
 2518 01fc 002B     		cmp	r3, #0
 2519 01fe 3DD1     		bne	.L102
 2520              	.L89:
 173:lvgl/src/draw/sw/lv_draw_sw_arc.c ****     lv_draw_mask_remove_id(mask_out_id);
 2521              		.loc 1 173 5 is_stmt 1 view .LVU982
 2522 0200 0598     		ldr	r0, [sp, #20]
 2523 0202 FFF7FEFF 		bl	lv_draw_mask_remove_id
 2524              	.LVL180:
 174:lvgl/src/draw/sw/lv_draw_sw_arc.c ****     if(mask_in_id != LV_MASK_ID_INV) lv_draw_mask_remove_id(mask_in_id);
 2525              		.loc 1 174 5 view .LVU983
 2526 0206 0398     		ldr	r0, [sp, #12]
 2527 0208 FFF7FEFF 		bl	lv_draw_mask_remove_id
 2528              	.LVL181:
 175:lvgl/src/draw/sw/lv_draw_sw_arc.c **** 
 2529              		.loc 1 175 5 view .LVU984
 175:lvgl/src/draw/sw/lv_draw_sw_arc.c **** 
 2530              		.loc 1 175 7 is_stmt 0 view .LVU985
 2531 020c BAF1FF3F 		cmp	r10, #-1
 2532 0210 38D1     		bne	.L103
 2533              	.L90:
 177:lvgl/src/draw/sw/lv_draw_sw_arc.c **** 
 2534              		.loc 1 177 5 is_stmt 1 view .LVU986
 177:lvgl/src/draw/sw/lv_draw_sw_arc.c **** 
 2535              		.loc 1 177 8 is_stmt 0 view .LVU987
 2536 0212 737B     		ldrb	r3, [r6, #13]	@ zero_extendqisi2
 177:lvgl/src/draw/sw/lv_draw_sw_arc.c **** 
 2537              		.loc 1 177 7 view .LVU988
 2538 0214 13F0040F 		tst	r3, #4
 2539 0218 38D1     		bne	.L104
 2540              	.LVL182:
 2541              	.L72:
 223:lvgl/src/draw/sw/lv_draw_sw_arc.c **** 
 2542              		.loc 1 223 1 view .LVU989
 2543 021a 4DB0     		add	sp, sp, #308
 2544              	.LCFI19:
 2545              		.cfi_remember_state
 2546              		.cfi_def_cfa_offset 36
 2547              		@ sp needed
 2548 021c BDE8F08F 		pop	{r4, r5, r6, r7, r8, r9, r10, fp, pc}
 2549              	.LVL183:
 2550              	.L85:
 2551              	.LCFI20:
 2552              		.cfi_restore_state
 139:lvgl/src/draw/sw/lv_draw_sw_arc.c ****     }
 2553              		.loc 1 139 9 is_stmt 1 view .LVU990
 139:lvgl/src/draw/sw/lv_draw_sw_arc.c ****     }
 2554              		.loc 1 139 19 is_stmt 0 view .LVU991
 2555 0220 2B1B     		subs	r3, r5, r4
 2556              	.LVL184:
 139:lvgl/src/draw/sw/lv_draw_sw_arc.c ****     }
 2557              		.loc 1 139 19 view .LVU992
 2558 0222 D8E7     		b	.L86
 2559              	.LVL185:
 2560              	.L101:
 2561              	.LBB34:
 146:lvgl/src/draw/sw/lv_draw_sw_arc.c ****         q_dsc.center = center;
ARM GAS  /var/folders/21/t9g5rlb91ys800n5npymflf80000gn/T//ccb1YJg7.s 			page 72


 2562              		.loc 1 146 9 is_stmt 1 view .LVU993
 147:lvgl/src/draw/sw/lv_draw_sw_arc.c ****         q_dsc.radius = radius;
 2563              		.loc 1 147 9 view .LVU994
 147:lvgl/src/draw/sw/lv_draw_sw_arc.c ****         q_dsc.radius = radius;
 2564              		.loc 1 147 22 is_stmt 0 view .LVU995
 2565 0224 CDF83080 		str	r8, [sp, #48]
 148:lvgl/src/draw/sw/lv_draw_sw_arc.c ****         q_dsc.start_angle = start_angle;
 2566              		.loc 1 148 9 is_stmt 1 view .LVU996
 148:lvgl/src/draw/sw/lv_draw_sw_arc.c ****         q_dsc.start_angle = start_angle;
 2567              		.loc 1 148 22 is_stmt 0 view .LVU997
 2568 0228 ADF83470 		strh	r7, [sp, #52]	@ movhi
 149:lvgl/src/draw/sw/lv_draw_sw_arc.c ****         q_dsc.end_angle = end_angle;
 2569              		.loc 1 149 9 is_stmt 1 view .LVU998
 149:lvgl/src/draw/sw/lv_draw_sw_arc.c ****         q_dsc.end_angle = end_angle;
 2570              		.loc 1 149 27 is_stmt 0 view .LVU999
 2571 022c ADF83650 		strh	r5, [sp, #54]	@ movhi
 150:lvgl/src/draw/sw/lv_draw_sw_arc.c ****         q_dsc.start_quarter = (start_angle / 90) & 0x3;
 2572              		.loc 1 150 9 is_stmt 1 view .LVU1000
 150:lvgl/src/draw/sw/lv_draw_sw_arc.c ****         q_dsc.start_quarter = (start_angle / 90) & 0x3;
 2573              		.loc 1 150 25 is_stmt 0 view .LVU1001
 2574 0230 ADF83840 		strh	r4, [sp, #56]	@ movhi
 151:lvgl/src/draw/sw/lv_draw_sw_arc.c ****         q_dsc.end_quarter = (end_angle / 90) & 0x3;
 2575              		.loc 1 151 9 is_stmt 1 view .LVU1002
 151:lvgl/src/draw/sw/lv_draw_sw_arc.c ****         q_dsc.end_quarter = (end_angle / 90) & 0x3;
 2576              		.loc 1 151 50 is_stmt 0 view .LVU1003
 2577 0234 6B08     		lsrs	r3, r5, #1
 2578              	.LVL186:
 151:lvgl/src/draw/sw/lv_draw_sw_arc.c ****         q_dsc.end_quarter = (end_angle / 90) & 0x3;
 2579              		.loc 1 151 50 view .LVU1004
 2580 0236 574A     		ldr	r2, .L107
 2581              	.LVL187:
 151:lvgl/src/draw/sw/lv_draw_sw_arc.c ****         q_dsc.end_quarter = (end_angle / 90) & 0x3;
 2582              		.loc 1 151 50 view .LVU1005
 2583 0238 A2FB0313 		umull	r1, r3, r2, r3
 2584 023c C3F34113 		ubfx	r3, r3, #5, #2
 151:lvgl/src/draw/sw/lv_draw_sw_arc.c ****         q_dsc.end_quarter = (end_angle / 90) & 0x3;
 2585              		.loc 1 151 29 view .LVU1006
 2586 0240 ADF83A30 		strh	r3, [sp, #58]	@ movhi
 152:lvgl/src/draw/sw/lv_draw_sw_arc.c ****         q_dsc.width = width;
 2587              		.loc 1 152 9 is_stmt 1 view .LVU1007
 152:lvgl/src/draw/sw/lv_draw_sw_arc.c ****         q_dsc.width = width;
 2588              		.loc 1 152 46 is_stmt 0 view .LVU1008
 2589 0244 6308     		lsrs	r3, r4, #1
 2590 0246 A2FB0323 		umull	r2, r3, r2, r3
 2591 024a C3F34113 		ubfx	r3, r3, #5, #2
 152:lvgl/src/draw/sw/lv_draw_sw_arc.c ****         q_dsc.width = width;
 2592              		.loc 1 152 27 view .LVU1009
 2593 024e ADF83C30 		strh	r3, [sp, #60]	@ movhi
 153:lvgl/src/draw/sw/lv_draw_sw_arc.c ****         q_dsc.draw_dsc = &cir_dsc;
 2594              		.loc 1 153 9 is_stmt 1 view .LVU1010
 153:lvgl/src/draw/sw/lv_draw_sw_arc.c ****         q_dsc.draw_dsc = &cir_dsc;
 2595              		.loc 1 153 21 is_stmt 0 view .LVU1011
 2596 0252 ADF83E90 		strh	r9, [sp, #62]	@ movhi
 154:lvgl/src/draw/sw/lv_draw_sw_arc.c ****         q_dsc.draw_area = &area_out;
 2597              		.loc 1 154 9 is_stmt 1 view .LVU1012
 154:lvgl/src/draw/sw/lv_draw_sw_arc.c ****         q_dsc.draw_area = &area_out;
 2598              		.loc 1 154 24 is_stmt 0 view .LVU1013
ARM GAS  /var/folders/21/t9g5rlb91ys800n5npymflf80000gn/T//ccb1YJg7.s 			page 73


 2599 0256 3EAB     		add	r3, sp, #248
 2600 0258 1093     		str	r3, [sp, #64]
 155:lvgl/src/draw/sw/lv_draw_sw_arc.c ****         q_dsc.draw_ctx = draw_ctx;
 2601              		.loc 1 155 9 is_stmt 1 view .LVU1014
 155:lvgl/src/draw/sw/lv_draw_sw_arc.c ****         q_dsc.draw_ctx = draw_ctx;
 2602              		.loc 1 155 25 is_stmt 0 view .LVU1015
 2603 025a 3CAB     		add	r3, sp, #240
 2604 025c 1193     		str	r3, [sp, #68]
 156:lvgl/src/draw/sw/lv_draw_sw_arc.c **** 
 2605              		.loc 1 156 9 is_stmt 1 view .LVU1016
 156:lvgl/src/draw/sw/lv_draw_sw_arc.c **** 
 2606              		.loc 1 156 24 is_stmt 0 view .LVU1017
 2607 025e 029B     		ldr	r3, [sp, #8]
 2608 0260 1293     		str	r3, [sp, #72]
 158:lvgl/src/draw/sw/lv_draw_sw_arc.c ****         draw_quarter_1(&q_dsc);
 2609              		.loc 1 158 9 is_stmt 1 view .LVU1018
 2610 0262 0CA8     		add	r0, sp, #48
 2611 0264 FFF7FEFF 		bl	draw_quarter_0
 2612              	.LVL188:
 159:lvgl/src/draw/sw/lv_draw_sw_arc.c ****         draw_quarter_2(&q_dsc);
 2613              		.loc 1 159 9 view .LVU1019
 2614 0268 0CA8     		add	r0, sp, #48
 2615 026a FFF7FEFF 		bl	draw_quarter_1
 2616              	.LVL189:
 160:lvgl/src/draw/sw/lv_draw_sw_arc.c ****         draw_quarter_3(&q_dsc);
 2617              		.loc 1 160 9 view .LVU1020
 2618 026e 0CA8     		add	r0, sp, #48
 2619 0270 FFF7FEFF 		bl	draw_quarter_2
 2620              	.LVL190:
 161:lvgl/src/draw/sw/lv_draw_sw_arc.c ****     }
 2621              		.loc 1 161 9 view .LVU1021
 2622 0274 0CA8     		add	r0, sp, #48
 2623 0276 FFF7FEFF 		bl	draw_quarter_3
 2624              	.LVL191:
 2625              	.LBE34:
 144:lvgl/src/draw/sw/lv_draw_sw_arc.c ****         /*Handle each quarter individually and skip which is empty*/
 2626              		.loc 1 144 74 is_stmt 0 view .LVU1022
 2627 027a B8E7     		b	.L88
 2628              	.L102:
 170:lvgl/src/draw/sw/lv_draw_sw_arc.c ****     }
 2629              		.loc 1 170 9 is_stmt 1 view .LVU1023
 2630 027c 34A8     		add	r0, sp, #208
 2631 027e FFF7FEFF 		bl	lv_draw_mask_free_param
 2632              	.LVL192:
 2633 0282 BDE7     		b	.L89
 2634              	.L103:
 175:lvgl/src/draw/sw/lv_draw_sw_arc.c **** 
 2635              		.loc 1 175 38 discriminator 1 view .LVU1024
 2636 0284 5046     		mov	r0, r10
 2637 0286 FFF7FEFF 		bl	lv_draw_mask_remove_id
 2638              	.LVL193:
 2639 028a C2E7     		b	.L90
 2640              	.L104:
 2641              	.LBB35:
 179:lvgl/src/draw/sw/lv_draw_sw_arc.c **** 
 2642              		.loc 1 179 9 view .LVU1025
 181:lvgl/src/draw/sw/lv_draw_sw_arc.c ****         get_rounded_area(start_angle, radius, width, &round_area);
ARM GAS  /var/folders/21/t9g5rlb91ys800n5npymflf80000gn/T//ccb1YJg7.s 			page 74


 2643              		.loc 1 181 9 view .LVU1026
 182:lvgl/src/draw/sw/lv_draw_sw_arc.c ****         round_area.x1 += center->x;
 2644              		.loc 1 182 9 view .LVU1027
 2645 028c 3FB2     		sxth	r7, r7
 2646 028e 5FFA89F9 		uxtb	r9, r9
 2647              	.LVL194:
 182:lvgl/src/draw/sw/lv_draw_sw_arc.c ****         round_area.x1 += center->x;
 2648              		.loc 1 182 9 is_stmt 0 view .LVU1028
 2649 0292 08AB     		add	r3, sp, #32
 2650 0294 4A46     		mov	r2, r9
 2651 0296 3946     		mov	r1, r7
 2652 0298 0798     		ldr	r0, [sp, #28]
 2653 029a FFF7FEFF 		bl	get_rounded_area
 2654              	.LVL195:
 183:lvgl/src/draw/sw/lv_draw_sw_arc.c ****         round_area.x2 += center->x;
 2655              		.loc 1 183 9 is_stmt 1 view .LVU1029
 183:lvgl/src/draw/sw/lv_draw_sw_arc.c ****         round_area.x2 += center->x;
 2656              		.loc 1 183 19 is_stmt 0 view .LVU1030
 2657 029e BDF82030 		ldrh	r3, [sp, #32]
 183:lvgl/src/draw/sw/lv_draw_sw_arc.c ****         round_area.x2 += center->x;
 2658              		.loc 1 183 32 view .LVU1031
 2659 02a2 B8F80020 		ldrh	r2, [r8]
 183:lvgl/src/draw/sw/lv_draw_sw_arc.c ****         round_area.x2 += center->x;
 2660              		.loc 1 183 23 view .LVU1032
 2661 02a6 1344     		add	r3, r3, r2
 2662 02a8 ADF82030 		strh	r3, [sp, #32]	@ movhi
 184:lvgl/src/draw/sw/lv_draw_sw_arc.c ****         round_area.y1 += center->y;
 2663              		.loc 1 184 9 is_stmt 1 view .LVU1033
 184:lvgl/src/draw/sw/lv_draw_sw_arc.c ****         round_area.y1 += center->y;
 2664              		.loc 1 184 19 is_stmt 0 view .LVU1034
 2665 02ac BDF82430 		ldrh	r3, [sp, #36]
 184:lvgl/src/draw/sw/lv_draw_sw_arc.c ****         round_area.y1 += center->y;
 2666              		.loc 1 184 23 view .LVU1035
 2667 02b0 1344     		add	r3, r3, r2
 2668 02b2 ADF82430 		strh	r3, [sp, #36]	@ movhi
 185:lvgl/src/draw/sw/lv_draw_sw_arc.c ****         round_area.y2 += center->y;
 2669              		.loc 1 185 9 is_stmt 1 view .LVU1036
 185:lvgl/src/draw/sw/lv_draw_sw_arc.c ****         round_area.y2 += center->y;
 2670              		.loc 1 185 19 is_stmt 0 view .LVU1037
 2671 02b6 BDF82230 		ldrh	r3, [sp, #34]
 185:lvgl/src/draw/sw/lv_draw_sw_arc.c ****         round_area.y2 += center->y;
 2672              		.loc 1 185 32 view .LVU1038
 2673 02ba B8F80220 		ldrh	r2, [r8, #2]
 185:lvgl/src/draw/sw/lv_draw_sw_arc.c ****         round_area.y2 += center->y;
 2674              		.loc 1 185 23 view .LVU1039
 2675 02be 1344     		add	r3, r3, r2
 2676 02c0 ADF82230 		strh	r3, [sp, #34]	@ movhi
 186:lvgl/src/draw/sw/lv_draw_sw_arc.c ****         lv_area_t clip_area2;
 2677              		.loc 1 186 9 is_stmt 1 view .LVU1040
 186:lvgl/src/draw/sw/lv_draw_sw_arc.c ****         lv_area_t clip_area2;
 2678              		.loc 1 186 19 is_stmt 0 view .LVU1041
 2679 02c4 BDF82630 		ldrh	r3, [sp, #38]
 186:lvgl/src/draw/sw/lv_draw_sw_arc.c ****         lv_area_t clip_area2;
 2680              		.loc 1 186 23 view .LVU1042
 2681 02c8 1344     		add	r3, r3, r2
 2682 02ca ADF82630 		strh	r3, [sp, #38]	@ movhi
 187:lvgl/src/draw/sw/lv_draw_sw_arc.c ****         if(_lv_area_intersect(&clip_area2, clip_area_ori, &round_area)) {
ARM GAS  /var/folders/21/t9g5rlb91ys800n5npymflf80000gn/T//ccb1YJg7.s 			page 75


 2683              		.loc 1 187 9 is_stmt 1 view .LVU1043
 188:lvgl/src/draw/sw/lv_draw_sw_arc.c ****             lv_draw_mask_radius_init(&mask_end_param, &round_area, LV_RADIUS_CIRCLE, false);
 2684              		.loc 1 188 9 view .LVU1044
 188:lvgl/src/draw/sw/lv_draw_sw_arc.c ****             lv_draw_mask_radius_init(&mask_end_param, &round_area, LV_RADIUS_CIRCLE, false);
 2685              		.loc 1 188 12 is_stmt 0 view .LVU1045
 2686 02ce 08AA     		add	r2, sp, #32
 2687 02d0 0699     		ldr	r1, [sp, #24]
 2688 02d2 0AA8     		add	r0, sp, #40
 2689 02d4 FFF7FEFF 		bl	_lv_area_intersect
 2690              	.LVL196:
 188:lvgl/src/draw/sw/lv_draw_sw_arc.c ****             lv_draw_mask_radius_init(&mask_end_param, &round_area, LV_RADIUS_CIRCLE, false);
 2691              		.loc 1 188 11 view .LVU1046
 2692 02d8 38BB     		cbnz	r0, .L105
 2693              	.LVL197:
 2694              	.L92:
 198:lvgl/src/draw/sw/lv_draw_sw_arc.c ****         round_area.x1 += center->x;
 2695              		.loc 1 198 9 is_stmt 1 view .LVU1047
 2696 02da 08AB     		add	r3, sp, #32
 2697 02dc 4A46     		mov	r2, r9
 2698 02de 3946     		mov	r1, r7
 2699 02e0 5846     		mov	r0, fp
 2700 02e2 FFF7FEFF 		bl	get_rounded_area
 2701              	.LVL198:
 199:lvgl/src/draw/sw/lv_draw_sw_arc.c ****         round_area.x2 += center->x;
 2702              		.loc 1 199 9 view .LVU1048
 199:lvgl/src/draw/sw/lv_draw_sw_arc.c ****         round_area.x2 += center->x;
 2703              		.loc 1 199 19 is_stmt 0 view .LVU1049
 2704 02e6 BDF82030 		ldrh	r3, [sp, #32]
 199:lvgl/src/draw/sw/lv_draw_sw_arc.c ****         round_area.x2 += center->x;
 2705              		.loc 1 199 32 view .LVU1050
 2706 02ea B8F80020 		ldrh	r2, [r8]
 199:lvgl/src/draw/sw/lv_draw_sw_arc.c ****         round_area.x2 += center->x;
 2707              		.loc 1 199 23 view .LVU1051
 2708 02ee 1344     		add	r3, r3, r2
 2709 02f0 ADF82030 		strh	r3, [sp, #32]	@ movhi
 200:lvgl/src/draw/sw/lv_draw_sw_arc.c ****         round_area.y1 += center->y;
 2710              		.loc 1 200 9 is_stmt 1 view .LVU1052
 200:lvgl/src/draw/sw/lv_draw_sw_arc.c ****         round_area.y1 += center->y;
 2711              		.loc 1 200 19 is_stmt 0 view .LVU1053
 2712 02f4 BDF82430 		ldrh	r3, [sp, #36]
 200:lvgl/src/draw/sw/lv_draw_sw_arc.c ****         round_area.y1 += center->y;
 2713              		.loc 1 200 23 view .LVU1054
 2714 02f8 1344     		add	r3, r3, r2
 2715 02fa ADF82430 		strh	r3, [sp, #36]	@ movhi
 201:lvgl/src/draw/sw/lv_draw_sw_arc.c ****         round_area.y2 += center->y;
 2716              		.loc 1 201 9 is_stmt 1 view .LVU1055
 201:lvgl/src/draw/sw/lv_draw_sw_arc.c ****         round_area.y2 += center->y;
 2717              		.loc 1 201 19 is_stmt 0 view .LVU1056
 2718 02fe BDF82230 		ldrh	r3, [sp, #34]
 201:lvgl/src/draw/sw/lv_draw_sw_arc.c ****         round_area.y2 += center->y;
 2719              		.loc 1 201 32 view .LVU1057
 2720 0302 B8F80220 		ldrh	r2, [r8, #2]
 201:lvgl/src/draw/sw/lv_draw_sw_arc.c ****         round_area.y2 += center->y;
