ARM GAS  /var/folders/21/t9g5rlb91ys800n5npymflf80000gn/T//cc2M4n6y.s 			page 1


   1              		.cpu cortex-m4
   2              		.arch armv7e-m
   3              		.fpu fpv4-sp-d16
   4              		.eabi_attribute 27, 1
   5              		.eabi_attribute 28, 1
   6              		.eabi_attribute 20, 1
   7              		.eabi_attribute 21, 1
   8              		.eabi_attribute 23, 3
   9              		.eabi_attribute 24, 1
  10              		.eabi_attribute 25, 1
  11              		.eabi_attribute 26, 1
  12              		.eabi_attribute 30, 1
  13              		.eabi_attribute 34, 1
  14              		.eabi_attribute 18, 4
  15              		.file	"lv_draw_layer.c"
  16              		.text
  17              	.Ltext0:
  18              		.cfi_sections	.debug_frame
  19              		.file 1 "lvgl/src/draw/lv_draw_layer.c"
  20              		.section	.text.lv_draw_layer_create,"ax",%progbits
  21              		.align	1
  22              		.global	lv_draw_layer_create
  23              		.syntax unified
  24              		.thumb
  25              		.thumb_func
  27              	lv_draw_layer_create:
  28              	.LVL0:
  29              	.LFB161:
   1:lvgl/src/draw/lv_draw_layer.c **** /**
   2:lvgl/src/draw/lv_draw_layer.c ****  * @file lv_draw_layer.c
   3:lvgl/src/draw/lv_draw_layer.c ****  *
   4:lvgl/src/draw/lv_draw_layer.c ****  */
   5:lvgl/src/draw/lv_draw_layer.c **** 
   6:lvgl/src/draw/lv_draw_layer.c **** /*********************
   7:lvgl/src/draw/lv_draw_layer.c ****  *      INCLUDES
   8:lvgl/src/draw/lv_draw_layer.c ****  *********************/
   9:lvgl/src/draw/lv_draw_layer.c **** #include "lv_draw.h"
  10:lvgl/src/draw/lv_draw_layer.c **** #include "lv_draw_arc.h"
  11:lvgl/src/draw/lv_draw_layer.c **** #include "../core/lv_refr.h"
  12:lvgl/src/draw/lv_draw_layer.c **** 
  13:lvgl/src/draw/lv_draw_layer.c **** /*********************
  14:lvgl/src/draw/lv_draw_layer.c ****  *      DEFINES
  15:lvgl/src/draw/lv_draw_layer.c ****  *********************/
  16:lvgl/src/draw/lv_draw_layer.c **** 
  17:lvgl/src/draw/lv_draw_layer.c **** /**********************
  18:lvgl/src/draw/lv_draw_layer.c ****  *      TYPEDEFS
  19:lvgl/src/draw/lv_draw_layer.c ****  **********************/
  20:lvgl/src/draw/lv_draw_layer.c **** 
  21:lvgl/src/draw/lv_draw_layer.c **** /**********************
  22:lvgl/src/draw/lv_draw_layer.c ****  *  STATIC PROTOTYPES
  23:lvgl/src/draw/lv_draw_layer.c ****  **********************/
  24:lvgl/src/draw/lv_draw_layer.c **** 
  25:lvgl/src/draw/lv_draw_layer.c **** /**********************
  26:lvgl/src/draw/lv_draw_layer.c ****  *  STATIC VARIABLES
  27:lvgl/src/draw/lv_draw_layer.c ****  **********************/
  28:lvgl/src/draw/lv_draw_layer.c **** 
  29:lvgl/src/draw/lv_draw_layer.c **** /**********************
ARM GAS  /var/folders/21/t9g5rlb91ys800n5npymflf80000gn/T//cc2M4n6y.s 			page 2


  30:lvgl/src/draw/lv_draw_layer.c ****  *      MACROS
  31:lvgl/src/draw/lv_draw_layer.c ****  **********************/
  32:lvgl/src/draw/lv_draw_layer.c **** 
  33:lvgl/src/draw/lv_draw_layer.c **** /**********************
  34:lvgl/src/draw/lv_draw_layer.c ****  *   GLOBAL FUNCTIONS
  35:lvgl/src/draw/lv_draw_layer.c ****  **********************/
  36:lvgl/src/draw/lv_draw_layer.c **** 
  37:lvgl/src/draw/lv_draw_layer.c **** lv_draw_layer_ctx_t * lv_draw_layer_create(lv_draw_ctx_t * draw_ctx, const lv_area_t * layer_area,
  38:lvgl/src/draw/lv_draw_layer.c ****                                            lv_draw_layer_flags_t flags)
  39:lvgl/src/draw/lv_draw_layer.c **** {
  30              		.loc 1 39 1 view -0
  31              		.cfi_startproc
  32              		@ args = 0, pretend = 0, frame = 0
  33              		@ frame_needed = 0, uses_anonymous_args = 0
  34              		.loc 1 39 1 is_stmt 0 view .LVU1
  35 0000 F8B5     		push	{r3, r4, r5, r6, r7, lr}
  36              	.LCFI0:
  37              		.cfi_def_cfa_offset 24
  38              		.cfi_offset 3, -24
  39              		.cfi_offset 4, -20
  40              		.cfi_offset 5, -16
  41              		.cfi_offset 6, -12
  42              		.cfi_offset 7, -8
  43              		.cfi_offset 14, -4
  40:lvgl/src/draw/lv_draw_layer.c ****     if(draw_ctx->layer_init == NULL) return NULL;
  44              		.loc 1 40 5 is_stmt 1 view .LVU2
  45              		.loc 1 40 16 is_stmt 0 view .LVU3
  46 0002 C36B     		ldr	r3, [r0, #60]
  47              		.loc 1 40 7 view .LVU4
  48 0004 53B3     		cbz	r3, .L5
  49 0006 0446     		mov	r4, r0
  50 0008 0F46     		mov	r7, r1
  51 000a 1646     		mov	r6, r2
  41:lvgl/src/draw/lv_draw_layer.c **** 
  42:lvgl/src/draw/lv_draw_layer.c ****     lv_draw_layer_ctx_t * layer_ctx = lv_mem_alloc(draw_ctx->layer_instance_size);
  52              		.loc 1 42 5 is_stmt 1 view .LVU5
  53              		.loc 1 42 39 is_stmt 0 view .LVU6
  54 000c C06C     		ldr	r0, [r0, #76]
  55              	.LVL1:
  56              		.loc 1 42 39 view .LVU7
  57 000e FFF7FEFF 		bl	lv_mem_alloc
  58              	.LVL2:
  43:lvgl/src/draw/lv_draw_layer.c ****     LV_ASSERT_MALLOC(layer_ctx);
  59              		.loc 1 43 5 is_stmt 1 view .LVU8
  60              		.loc 1 43 5 view .LVU9
  61 0012 0546     		mov	r5, r0
  62 0014 E8B1     		cbz	r0, .L4
  63              		.loc 1 43 5 view .LVU10
  64              		.loc 1 43 32 view .LVU11
  44:lvgl/src/draw/lv_draw_layer.c ****     if(layer_ctx == NULL) {
  65              		.loc 1 44 5 view .LVU12
  45:lvgl/src/draw/lv_draw_layer.c ****         LV_LOG_WARN("Couldn't allocate a new layer context");
  46:lvgl/src/draw/lv_draw_layer.c ****         return NULL;
  47:lvgl/src/draw/lv_draw_layer.c ****     }
  48:lvgl/src/draw/lv_draw_layer.c **** 
  49:lvgl/src/draw/lv_draw_layer.c ****     lv_memset_00(layer_ctx, draw_ctx->layer_instance_size);
  66              		.loc 1 49 5 view .LVU13
ARM GAS  /var/folders/21/t9g5rlb91ys800n5npymflf80000gn/T//cc2M4n6y.s 			page 3


  67 0016 E16C     		ldr	r1, [r4, #76]
  68 0018 FFF7FEFF 		bl	lv_memset_00
  69              	.LVL3:
  50:lvgl/src/draw/lv_draw_layer.c **** 
  51:lvgl/src/draw/lv_draw_layer.c ****     lv_disp_t * disp_refr = _lv_refr_get_disp_refreshing();
  70              		.loc 1 51 5 view .LVU14
  71              		.loc 1 51 29 is_stmt 0 view .LVU15
  72 001c FFF7FEFF 		bl	_lv_refr_get_disp_refreshing
  73              	.LVL4:
  52:lvgl/src/draw/lv_draw_layer.c ****     layer_ctx->original.buf = draw_ctx->buf;
  74              		.loc 1 52 5 is_stmt 1 view .LVU16
  75              		.loc 1 52 39 is_stmt 0 view .LVU17
  76 0020 2368     		ldr	r3, [r4]
  77              		.loc 1 52 29 view .LVU18
  78 0022 2B62     		str	r3, [r5, #32]
  53:lvgl/src/draw/lv_draw_layer.c ****     layer_ctx->original.buf_area = draw_ctx->buf_area;
  79              		.loc 1 53 5 is_stmt 1 view .LVU19
  80              		.loc 1 53 44 is_stmt 0 view .LVU20
  81 0024 6368     		ldr	r3, [r4, #4]
  82              		.loc 1 53 34 view .LVU21
  83 0026 EB61     		str	r3, [r5, #28]
  54:lvgl/src/draw/lv_draw_layer.c ****     layer_ctx->original.clip_area = draw_ctx->clip_area;
  84              		.loc 1 54 5 is_stmt 1 view .LVU22
  85              		.loc 1 54 45 is_stmt 0 view .LVU23
  86 0028 A368     		ldr	r3, [r4, #8]
  87              		.loc 1 54 35 view .LVU24
  88 002a AB61     		str	r3, [r5, #24]
  55:lvgl/src/draw/lv_draw_layer.c ****     layer_ctx->original.screen_transp = disp_refr->driver->screen_transp;
  89              		.loc 1 55 5 is_stmt 1 view .LVU25
  90              		.loc 1 55 50 is_stmt 0 view .LVU26
  91 002c 0368     		ldr	r3, [r0]
  92              		.loc 1 55 58 view .LVU27
  93 002e 1B7C     		ldrb	r3, [r3, #16]	@ zero_extendqisi2
  94 0030 C3F38013 		ubfx	r3, r3, #6, #1
  95              		.loc 1 55 39 view .LVU28
  96 0034 85F82430 		strb	r3, [r5, #36]
  56:lvgl/src/draw/lv_draw_layer.c ****     layer_ctx->area_full = *layer_area;
  97              		.loc 1 56 5 is_stmt 1 view .LVU29
  98              		.loc 1 56 26 is_stmt 0 view .LVU30
  99 0038 2B46     		mov	r3, r5
 100 003a 3868     		ldr	r0, [r7]	@ unaligned
 101              	.LVL5:
 102              		.loc 1 56 26 view .LVU31
 103 003c 7968     		ldr	r1, [r7, #4]	@ unaligned
 104 003e 03C3     		stmia	r3!, {r0, r1}
  57:lvgl/src/draw/lv_draw_layer.c **** 
  58:lvgl/src/draw/lv_draw_layer.c ****     lv_draw_layer_ctx_t * init_layer_ctx =  draw_ctx->layer_init(draw_ctx, layer_ctx, flags);
 105              		.loc 1 58 5 is_stmt 1 view .LVU32
 106              		.loc 1 58 53 is_stmt 0 view .LVU33
 107 0040 E36B     		ldr	r3, [r4, #60]
 108              		.loc 1 58 45 view .LVU34
 109 0042 3246     		mov	r2, r6
 110 0044 2946     		mov	r1, r5
 111 0046 2046     		mov	r0, r4
 112 0048 9847     		blx	r3
 113              	.LVL6:
  59:lvgl/src/draw/lv_draw_layer.c ****     if(NULL == init_layer_ctx) {
ARM GAS  /var/folders/21/t9g5rlb91ys800n5npymflf80000gn/T//cc2M4n6y.s 			page 4


 114              		.loc 1 59 5 is_stmt 1 view .LVU35
 115              		.loc 1 59 7 is_stmt 0 view .LVU36
 116 004a 0446     		mov	r4, r0
 117              	.LVL7:
 118              		.loc 1 59 7 view .LVU37
 119 004c 10B1     		cbz	r0, .L7
 120              	.LVL8:
 121              	.L1:
  60:lvgl/src/draw/lv_draw_layer.c ****         lv_mem_free(layer_ctx);
  61:lvgl/src/draw/lv_draw_layer.c ****     }
  62:lvgl/src/draw/lv_draw_layer.c ****     return init_layer_ctx;
  63:lvgl/src/draw/lv_draw_layer.c **** }
 122              		.loc 1 63 1 view .LVU38
 123 004e 2046     		mov	r0, r4
 124 0050 F8BD     		pop	{r3, r4, r5, r6, r7, pc}
 125              	.LVL9:
 126              	.L4:
  43:lvgl/src/draw/lv_draw_layer.c ****     if(layer_ctx == NULL) {
 127              		.loc 1 43 5 is_stmt 1 discriminator 1 view .LVU39
  43:lvgl/src/draw/lv_draw_layer.c ****     if(layer_ctx == NULL) {
 128              		.loc 1 43 5 discriminator 1 view .LVU40
  43:lvgl/src/draw/lv_draw_layer.c ****     if(layer_ctx == NULL) {
 129              		.loc 1 43 5 discriminator 1 view .LVU41
  43:lvgl/src/draw/lv_draw_layer.c ****     if(layer_ctx == NULL) {
 130              		.loc 1 43 5 discriminator 1 view .LVU42
  43:lvgl/src/draw/lv_draw_layer.c ****     if(layer_ctx == NULL) {
 131              		.loc 1 43 5 discriminator 1 view .LVU43
 132 0052 FEE7     		b	.L4
 133              	.LVL10:
 134              	.L7:
  60:lvgl/src/draw/lv_draw_layer.c ****         lv_mem_free(layer_ctx);
 135              		.loc 1 60 9 view .LVU44
 136 0054 2846     		mov	r0, r5
 137              	.LVL11:
  60:lvgl/src/draw/lv_draw_layer.c ****         lv_mem_free(layer_ctx);
 138              		.loc 1 60 9 is_stmt 0 view .LVU45
 139 0056 FFF7FEFF 		bl	lv_mem_free
 140              	.LVL12:
 141 005a F8E7     		b	.L1
 142              	.LVL13:
 143              	.L5:
  40:lvgl/src/draw/lv_draw_layer.c **** 
 144              		.loc 1 40 45 view .LVU46
 145 005c 0024     		movs	r4, #0
 146 005e F6E7     		b	.L1
 147              		.cfi_endproc
 148              	.LFE161:
 150              		.section	.text.lv_draw_layer_adjust,"ax",%progbits
 151              		.align	1
 152              		.global	lv_draw_layer_adjust
 153              		.syntax unified
 154              		.thumb
 155              		.thumb_func
 157              	lv_draw_layer_adjust:
 158              	.LVL14:
 159              	.LFB162:
  64:lvgl/src/draw/lv_draw_layer.c **** 
ARM GAS  /var/folders/21/t9g5rlb91ys800n5npymflf80000gn/T//cc2M4n6y.s 			page 5


  65:lvgl/src/draw/lv_draw_layer.c **** void lv_draw_layer_adjust(struct _lv_draw_ctx_t * draw_ctx, struct _lv_draw_layer_ctx_t * layer_ctx
  66:lvgl/src/draw/lv_draw_layer.c ****                           lv_draw_layer_flags_t flags)
  67:lvgl/src/draw/lv_draw_layer.c **** {
 160              		.loc 1 67 1 is_stmt 1 view -0
 161              		.cfi_startproc
 162              		@ args = 0, pretend = 0, frame = 0
 163              		@ frame_needed = 0, uses_anonymous_args = 0
 164              		.loc 1 67 1 is_stmt 0 view .LVU48
 165 0000 08B5     		push	{r3, lr}
 166              	.LCFI1:
 167              		.cfi_def_cfa_offset 8
 168              		.cfi_offset 3, -8
 169              		.cfi_offset 14, -4
  68:lvgl/src/draw/lv_draw_layer.c ****     if(draw_ctx->layer_adjust) draw_ctx->layer_adjust(draw_ctx, layer_ctx, flags);
 170              		.loc 1 68 5 is_stmt 1 view .LVU49
 171              		.loc 1 68 16 is_stmt 0 view .LVU50
 172 0002 036C     		ldr	r3, [r0, #64]
 173              		.loc 1 68 7 view .LVU51
 174 0004 03B1     		cbz	r3, .L8
 175              		.loc 1 68 32 is_stmt 1 discriminator 1 view .LVU52
 176 0006 9847     		blx	r3
 177              	.LVL15:
 178              	.L8:
  69:lvgl/src/draw/lv_draw_layer.c **** }
 179              		.loc 1 69 1 is_stmt 0 view .LVU53
 180 0008 08BD     		pop	{r3, pc}
 181              		.cfi_endproc
 182              	.LFE162:
 184              		.section	.text.lv_draw_layer_blend,"ax",%progbits
 185              		.align	1
 186              		.global	lv_draw_layer_blend
 187              		.syntax unified
 188              		.thumb
 189              		.thumb_func
 191              	lv_draw_layer_blend:
 192              	.LVL16:
 193              	.LFB163:
  70:lvgl/src/draw/lv_draw_layer.c **** 
  71:lvgl/src/draw/lv_draw_layer.c **** void lv_draw_layer_blend(struct _lv_draw_ctx_t * draw_ctx, struct _lv_draw_layer_ctx_t * layer_ctx,
  72:lvgl/src/draw/lv_draw_layer.c ****                          lv_draw_img_dsc_t * draw_dsc)
  73:lvgl/src/draw/lv_draw_layer.c **** {
 194              		.loc 1 73 1 is_stmt 1 view -0
 195              		.cfi_startproc
 196              		@ args = 0, pretend = 0, frame = 0
 197              		@ frame_needed = 0, uses_anonymous_args = 0
 198              		.loc 1 73 1 is_stmt 0 view .LVU55
 199 0000 08B5     		push	{r3, lr}
 200              	.LCFI2:
 201              		.cfi_def_cfa_offset 8
 202              		.cfi_offset 3, -8
 203              		.cfi_offset 14, -4
  74:lvgl/src/draw/lv_draw_layer.c ****     if(draw_ctx->layer_blend) draw_ctx->layer_blend(draw_ctx, layer_ctx, draw_dsc);
 204              		.loc 1 74 5 is_stmt 1 view .LVU56
 205              		.loc 1 74 16 is_stmt 0 view .LVU57
 206 0002 436C     		ldr	r3, [r0, #68]
 207              		.loc 1 74 7 view .LVU58
 208 0004 03B1     		cbz	r3, .L11
ARM GAS  /var/folders/21/t9g5rlb91ys800n5npymflf80000gn/T//cc2M4n6y.s 			page 6


 209              		.loc 1 74 31 is_stmt 1 discriminator 1 view .LVU59
 210 0006 9847     		blx	r3
 211              	.LVL17:
 212              	.L11:
  75:lvgl/src/draw/lv_draw_layer.c **** }
 213              		.loc 1 75 1 is_stmt 0 view .LVU60
 214 0008 08BD     		pop	{r3, pc}
 215              		.cfi_endproc
 216              	.LFE163:
 218              		.section	.text.lv_draw_layer_destroy,"ax",%progbits
 219              		.align	1
 220              		.global	lv_draw_layer_destroy
 221              		.syntax unified
 222              		.thumb
 223              		.thumb_func
 225              	lv_draw_layer_destroy:
 226              	.LVL18:
 227              	.LFB164:
  76:lvgl/src/draw/lv_draw_layer.c **** 
  77:lvgl/src/draw/lv_draw_layer.c **** void lv_draw_layer_destroy(lv_draw_ctx_t * draw_ctx, lv_draw_layer_ctx_t * layer_ctx)
  78:lvgl/src/draw/lv_draw_layer.c **** {
 228              		.loc 1 78 1 is_stmt 1 view -0
 229              		.cfi_startproc
 230              		@ args = 0, pretend = 0, frame = 0
 231              		@ frame_needed = 0, uses_anonymous_args = 0
 232              		.loc 1 78 1 is_stmt 0 view .LVU62
 233 0000 38B5     		push	{r3, r4, r5, lr}
 234              	.LCFI3:
 235              		.cfi_def_cfa_offset 16
 236              		.cfi_offset 3, -16
 237              		.cfi_offset 4, -12
 238              		.cfi_offset 5, -8
 239              		.cfi_offset 14, -4
 240 0002 0546     		mov	r5, r0
 241 0004 0C46     		mov	r4, r1
  79:lvgl/src/draw/lv_draw_layer.c **** 
  80:lvgl/src/draw/lv_draw_layer.c ****     lv_draw_wait_for_finish(draw_ctx);
 242              		.loc 1 80 5 is_stmt 1 view .LVU63
 243 0006 FFF7FEFF 		bl	lv_draw_wait_for_finish
 244              	.LVL19:
  81:lvgl/src/draw/lv_draw_layer.c ****     draw_ctx->buf = layer_ctx->original.buf;
 245              		.loc 1 81 5 view .LVU64
 246              		.loc 1 81 40 is_stmt 0 view .LVU65
 247 000a 236A     		ldr	r3, [r4, #32]
 248              		.loc 1 81 19 view .LVU66
 249 000c 2B60     		str	r3, [r5]
  82:lvgl/src/draw/lv_draw_layer.c ****     draw_ctx->buf_area = layer_ctx->original.buf_area;
 250              		.loc 1 82 5 is_stmt 1 view .LVU67
 251              		.loc 1 82 45 is_stmt 0 view .LVU68
 252 000e E369     		ldr	r3, [r4, #28]
 253              		.loc 1 82 24 view .LVU69
 254 0010 6B60     		str	r3, [r5, #4]
  83:lvgl/src/draw/lv_draw_layer.c ****     draw_ctx->clip_area = layer_ctx->original.clip_area;
 255              		.loc 1 83 5 is_stmt 1 view .LVU70
 256              		.loc 1 83 46 is_stmt 0 view .LVU71
 257 0012 A369     		ldr	r3, [r4, #24]
 258              		.loc 1 83 25 view .LVU72
ARM GAS  /var/folders/21/t9g5rlb91ys800n5npymflf80000gn/T//cc2M4n6y.s 			page 7


 259 0014 AB60     		str	r3, [r5, #8]
  84:lvgl/src/draw/lv_draw_layer.c ****     lv_disp_t * disp_refr = _lv_refr_get_disp_refreshing();
 260              		.loc 1 84 5 is_stmt 1 view .LVU73
 261              		.loc 1 84 29 is_stmt 0 view .LVU74
 262 0016 FFF7FEFF 		bl	_lv_refr_get_disp_refreshing
 263              	.LVL20:
  85:lvgl/src/draw/lv_draw_layer.c ****     disp_refr->driver->screen_transp = layer_ctx->original.screen_transp;
 264              		.loc 1 85 5 is_stmt 1 view .LVU75
 265              		.loc 1 85 14 is_stmt 0 view .LVU76
 266 001a 0368     		ldr	r3, [r0]
 267              		.loc 1 85 59 view .LVU77
 268 001c 94F82410 		ldrb	r1, [r4, #36]	@ zero_extendqisi2
 269              		.loc 1 85 38 view .LVU78
 270 0020 1A7C     		ldrb	r2, [r3, #16]	@ zero_extendqisi2
 271 0022 61F38612 		bfi	r2, r1, #6, #1
 272 0026 1A74     		strb	r2, [r3, #16]
  86:lvgl/src/draw/lv_draw_layer.c **** 
  87:lvgl/src/draw/lv_draw_layer.c ****     if(draw_ctx->layer_destroy) draw_ctx->layer_destroy(draw_ctx, layer_ctx);
 273              		.loc 1 87 5 is_stmt 1 view .LVU79
 274              		.loc 1 87 16 is_stmt 0 view .LVU80
 275 0028 AB6C     		ldr	r3, [r5, #72]
 276              		.loc 1 87 7 view .LVU81
 277 002a 13B1     		cbz	r3, .L15
 278              		.loc 1 87 33 is_stmt 1 discriminator 1 view .LVU82
 279 002c 2146     		mov	r1, r4
 280 002e 2846     		mov	r0, r5
 281              	.LVL21:
 282              		.loc 1 87 33 is_stmt 0 discriminator 1 view .LVU83
 283 0030 9847     		blx	r3
 284              	.LVL22:
 285              	.L15:
  88:lvgl/src/draw/lv_draw_layer.c ****     lv_mem_free(layer_ctx);
 286              		.loc 1 88 5 is_stmt 1 view .LVU84
 287 0032 2046     		mov	r0, r4
 288 0034 FFF7FEFF 		bl	lv_mem_free
 289              	.LVL23:
  89:lvgl/src/draw/lv_draw_layer.c **** }
 290              		.loc 1 89 1 is_stmt 0 view .LVU85
 291 0038 38BD     		pop	{r3, r4, r5, pc}
 292              		.loc 1 89 1 view .LVU86
 293              		.cfi_endproc
 294              	.LFE164:
 296              		.text
 297              	.Letext0:
 298              		.file 2 "/usr/local/include/sys/_types/_int8_t.h"
 299              		.file 3 "/usr/local/include/sys/_types/_int16_t.h"
 300              		.file 4 "/usr/local/include/sys/_types/_int32_t.h"
 301              		.file 5 "/usr/local/include/_types/_uint8_t.h"
 302              		.file 6 "/usr/local/include/_types/_uint16_t.h"
 303              		.file 7 "/usr/local/include/_types/_uint32_t.h"
 304              		.file 8 "/usr/local/include/arm/_types.h"
 305              		.file 9 "/usr/local/include/sys/_types/_size_t.h"
 306              		.file 10 "lvgl/src/draw/../misc/../font/../misc/lv_area.h"
 307              		.file 11 "lvgl/src/draw/../misc/../font/lv_font.h"
 308              		.file 12 "lvgl/src/draw/../misc/lv_types.h"
 309              		.file 13 "lvgl/src/draw/../misc/lv_color.h"
 310              		.file 14 "lvgl/src/draw/../misc/lv_txt.h"
ARM GAS  /var/folders/21/t9g5rlb91ys800n5npymflf80000gn/T//cc2M4n6y.s 			page 8


 311              		.file 15 "lvgl/src/draw/../misc/lv_bidi.h"
 312              		.file 16 "lvgl/src/draw/../misc/lv_style.h"
 313              		.file 17 "lvgl/src/draw/lv_img_buf.h"
 314              		.file 18 "lvgl/src/draw/../core/lv_obj.h"
 315              		.file 19 "lvgl/src/draw/lv_draw_rect.h"
 316              		.file 20 "lvgl/src/draw/lv_draw_label.h"
 317              		.file 21 "lvgl/src/draw/lv_draw_img.h"
 318              		.file 22 "lvgl/src/draw/lv_draw_line.h"
 319              		.file 23 "lvgl/src/draw/lv_draw_arc.h"
 320              		.file 24 "lvgl/src/draw/lv_draw_layer.h"
 321              		.file 25 "lvgl/src/draw/lv_draw.h"
 322              		.file 26 "lvgl/src/draw/../core/../hal/../misc/lv_ll.h"
 323              		.file 27 "lvgl/src/draw/../core/../hal/../misc/lv_timer.h"
 324              		.file 28 "lvgl/src/draw/../core/../hal/lv_hal_disp.h"
 325              		.file 29 "lvgl/src/draw/../core/lv_group.h"
 326              		.file 30 "lvgl/src/draw/../core/lv_obj_scroll.h"
 327              		.file 31 "lvgl/src/draw/../core/lv_obj_style.h"
 328              		.file 32 "lvgl/src/draw/../core/lv_obj_class.h"
 329              		.file 33 "lvgl/src/draw/../core/lv_event.h"
 330              		.file 34 "lvgl/src/draw/../misc/lv_mem.h"
 331              		.file 35 "lvgl/src/draw/../core/lv_refr.h"
ARM GAS  /var/folders/21/t9g5rlb91ys800n5npymflf80000gn/T//cc2M4n6y.s 			page 9

