ARM GAS  /var/folders/21/t9g5rlb91ys800n5npymflf80000gn/T//cc4qd6Tv.s 			page 1


   1              		.cpu cortex-m4
   2              		.arch armv7e-m
   3              		.fpu fpv4-sp-d16
   4              		.eabi_attribute 27, 1
   5              		.eabi_attribute 28, 1
   6              		.eabi_attribute 20, 1
   7              		.eabi_attribute 21, 1
   8              		.eabi_attribute 23, 3
   9              		.eabi_attribute 24, 1
  10              		.eabi_attribute 25, 1
  11              		.eabi_attribute 26, 1
  12              		.eabi_attribute 30, 1
  13              		.eabi_attribute 34, 1
  14              		.eabi_attribute 18, 4
  15              		.file	"lv_draw_label.c"
  16              		.text
  17              	.Ltext0:
  18              		.cfi_sections	.debug_frame
  19              		.file 1 "lvgl/src/draw/lv_draw_label.c"
  20              		.section	.text.hex_char_to_num,"ax",%progbits
  21              		.align	1
  22              		.syntax unified
  23              		.thumb
  24              		.thumb_func
  26              	hex_char_to_num:
  27              	.LVL0:
  28              	.LFB164:
   1:lvgl/src/draw/lv_draw_label.c **** /**
   2:lvgl/src/draw/lv_draw_label.c ****  * @file lv_draw_label.c
   3:lvgl/src/draw/lv_draw_label.c ****  *
   4:lvgl/src/draw/lv_draw_label.c ****  */
   5:lvgl/src/draw/lv_draw_label.c **** 
   6:lvgl/src/draw/lv_draw_label.c **** /*********************
   7:lvgl/src/draw/lv_draw_label.c ****  *      INCLUDES
   8:lvgl/src/draw/lv_draw_label.c ****  *********************/
   9:lvgl/src/draw/lv_draw_label.c **** #include "lv_draw.h"
  10:lvgl/src/draw/lv_draw_label.c **** #include "lv_draw_label.h"
  11:lvgl/src/draw/lv_draw_label.c **** #include "../misc/lv_math.h"
  12:lvgl/src/draw/lv_draw_label.c **** #include "../hal/lv_hal_disp.h"
  13:lvgl/src/draw/lv_draw_label.c **** #include "../core/lv_refr.h"
  14:lvgl/src/draw/lv_draw_label.c **** #include "../misc/lv_bidi.h"
  15:lvgl/src/draw/lv_draw_label.c **** #include "../misc/lv_assert.h"
  16:lvgl/src/draw/lv_draw_label.c **** 
  17:lvgl/src/draw/lv_draw_label.c **** /*********************
  18:lvgl/src/draw/lv_draw_label.c ****  *      DEFINES
  19:lvgl/src/draw/lv_draw_label.c ****  *********************/
  20:lvgl/src/draw/lv_draw_label.c **** #define LABEL_RECOLOR_PAR_LENGTH 6
  21:lvgl/src/draw/lv_draw_label.c **** #define LV_LABEL_HINT_UPDATE_TH 1024 /*Update the "hint" if the label's y coordinates have changed 
  22:lvgl/src/draw/lv_draw_label.c **** 
  23:lvgl/src/draw/lv_draw_label.c **** /**********************
  24:lvgl/src/draw/lv_draw_label.c ****  *      TYPEDEFS
  25:lvgl/src/draw/lv_draw_label.c ****  **********************/
  26:lvgl/src/draw/lv_draw_label.c **** enum {
  27:lvgl/src/draw/lv_draw_label.c ****     CMD_STATE_WAIT,
  28:lvgl/src/draw/lv_draw_label.c ****     CMD_STATE_PAR,
  29:lvgl/src/draw/lv_draw_label.c ****     CMD_STATE_IN,
  30:lvgl/src/draw/lv_draw_label.c **** };
ARM GAS  /var/folders/21/t9g5rlb91ys800n5npymflf80000gn/T//cc4qd6Tv.s 			page 2


  31:lvgl/src/draw/lv_draw_label.c **** typedef uint8_t cmd_state_t;
  32:lvgl/src/draw/lv_draw_label.c **** 
  33:lvgl/src/draw/lv_draw_label.c **** /**********************
  34:lvgl/src/draw/lv_draw_label.c ****  *  STATIC PROTOTYPES
  35:lvgl/src/draw/lv_draw_label.c ****  **********************/
  36:lvgl/src/draw/lv_draw_label.c **** 
  37:lvgl/src/draw/lv_draw_label.c **** static uint8_t hex_char_to_num(char hex);
  38:lvgl/src/draw/lv_draw_label.c **** 
  39:lvgl/src/draw/lv_draw_label.c **** /**********************
  40:lvgl/src/draw/lv_draw_label.c ****  *  STATIC VARIABLES
  41:lvgl/src/draw/lv_draw_label.c ****  **********************/
  42:lvgl/src/draw/lv_draw_label.c **** 
  43:lvgl/src/draw/lv_draw_label.c **** /**********************
  44:lvgl/src/draw/lv_draw_label.c ****  *  GLOBAL VARIABLES
  45:lvgl/src/draw/lv_draw_label.c ****  **********************/
  46:lvgl/src/draw/lv_draw_label.c **** 
  47:lvgl/src/draw/lv_draw_label.c **** /**********************
  48:lvgl/src/draw/lv_draw_label.c ****  *      MACROS
  49:lvgl/src/draw/lv_draw_label.c ****  **********************/
  50:lvgl/src/draw/lv_draw_label.c **** 
  51:lvgl/src/draw/lv_draw_label.c **** /**********************
  52:lvgl/src/draw/lv_draw_label.c ****  *   GLOBAL FUNCTIONS
  53:lvgl/src/draw/lv_draw_label.c ****  **********************/
  54:lvgl/src/draw/lv_draw_label.c **** 
  55:lvgl/src/draw/lv_draw_label.c **** void LV_ATTRIBUTE_FAST_MEM lv_draw_label_dsc_init(lv_draw_label_dsc_t * dsc)
  56:lvgl/src/draw/lv_draw_label.c **** {
  57:lvgl/src/draw/lv_draw_label.c ****     lv_memset_00(dsc, sizeof(lv_draw_label_dsc_t));
  58:lvgl/src/draw/lv_draw_label.c ****     dsc->opa = LV_OPA_COVER;
  59:lvgl/src/draw/lv_draw_label.c ****     dsc->color = lv_color_black();
  60:lvgl/src/draw/lv_draw_label.c ****     dsc->font = LV_FONT_DEFAULT;
  61:lvgl/src/draw/lv_draw_label.c ****     dsc->sel_start = LV_DRAW_LABEL_NO_TXT_SEL;
  62:lvgl/src/draw/lv_draw_label.c ****     dsc->sel_end = LV_DRAW_LABEL_NO_TXT_SEL;
  63:lvgl/src/draw/lv_draw_label.c ****     dsc->sel_color = lv_color_black();
  64:lvgl/src/draw/lv_draw_label.c ****     dsc->sel_bg_color = lv_palette_main(LV_PALETTE_BLUE);
  65:lvgl/src/draw/lv_draw_label.c ****     dsc->bidi_dir = LV_BASE_DIR_LTR;
  66:lvgl/src/draw/lv_draw_label.c **** }
  67:lvgl/src/draw/lv_draw_label.c **** 
  68:lvgl/src/draw/lv_draw_label.c **** /**
  69:lvgl/src/draw/lv_draw_label.c ****  * Write a text
  70:lvgl/src/draw/lv_draw_label.c ****  * @param coords coordinates of the label
  71:lvgl/src/draw/lv_draw_label.c ****  * @param mask the label will be drawn only in this area
  72:lvgl/src/draw/lv_draw_label.c ****  * @param dsc pointer to draw descriptor
  73:lvgl/src/draw/lv_draw_label.c ****  * @param txt `\0` terminated text to write
  74:lvgl/src/draw/lv_draw_label.c ****  * @param hint pointer to a `lv_draw_label_hint_t` variable.
  75:lvgl/src/draw/lv_draw_label.c ****  * It is managed by the draw to speed up the drawing of very long texts (thousands of lines).
  76:lvgl/src/draw/lv_draw_label.c ****  */
  77:lvgl/src/draw/lv_draw_label.c **** void LV_ATTRIBUTE_FAST_MEM lv_draw_label(lv_draw_ctx_t * draw_ctx, const lv_draw_label_dsc_t * dsc,
  78:lvgl/src/draw/lv_draw_label.c ****                                          const lv_area_t * coords, const char * txt, lv_draw_label_
  79:lvgl/src/draw/lv_draw_label.c **** {
  80:lvgl/src/draw/lv_draw_label.c ****     if(dsc->opa <= LV_OPA_MIN) return;
  81:lvgl/src/draw/lv_draw_label.c ****     if(dsc->font == NULL) {
  82:lvgl/src/draw/lv_draw_label.c ****         LV_LOG_WARN("dsc->font == NULL");
  83:lvgl/src/draw/lv_draw_label.c ****         return;
  84:lvgl/src/draw/lv_draw_label.c ****     }
  85:lvgl/src/draw/lv_draw_label.c **** 
  86:lvgl/src/draw/lv_draw_label.c ****     if(draw_ctx->draw_letter == NULL) {
  87:lvgl/src/draw/lv_draw_label.c ****         LV_LOG_WARN("draw->draw_letter == NULL (there is no function to draw letters)");
ARM GAS  /var/folders/21/t9g5rlb91ys800n5npymflf80000gn/T//cc4qd6Tv.s 			page 3


  88:lvgl/src/draw/lv_draw_label.c ****         return;
  89:lvgl/src/draw/lv_draw_label.c ****     }
  90:lvgl/src/draw/lv_draw_label.c **** 
  91:lvgl/src/draw/lv_draw_label.c ****     lv_draw_label_dsc_t dsc_mod = *dsc;
  92:lvgl/src/draw/lv_draw_label.c **** 
  93:lvgl/src/draw/lv_draw_label.c ****     const lv_font_t * font = dsc->font;
  94:lvgl/src/draw/lv_draw_label.c ****     int32_t w;
  95:lvgl/src/draw/lv_draw_label.c **** 
  96:lvgl/src/draw/lv_draw_label.c ****     /*No need to waste processor time if string is empty*/
  97:lvgl/src/draw/lv_draw_label.c ****     if(txt == NULL || txt[0] == '\0')
  98:lvgl/src/draw/lv_draw_label.c ****         return;
  99:lvgl/src/draw/lv_draw_label.c **** 
 100:lvgl/src/draw/lv_draw_label.c ****     lv_area_t clipped_area;
 101:lvgl/src/draw/lv_draw_label.c ****     bool clip_ok = _lv_area_intersect(&clipped_area, coords, draw_ctx->clip_area);
 102:lvgl/src/draw/lv_draw_label.c ****     if(!clip_ok) return;
 103:lvgl/src/draw/lv_draw_label.c **** 
 104:lvgl/src/draw/lv_draw_label.c ****     lv_text_align_t align = dsc->align;
 105:lvgl/src/draw/lv_draw_label.c ****     lv_base_dir_t base_dir = dsc->bidi_dir;
 106:lvgl/src/draw/lv_draw_label.c **** 
 107:lvgl/src/draw/lv_draw_label.c ****     lv_bidi_calculate_align(&align, &base_dir, txt);
 108:lvgl/src/draw/lv_draw_label.c **** 
 109:lvgl/src/draw/lv_draw_label.c ****     if((dsc->flag & LV_TEXT_FLAG_EXPAND) == 0) {
 110:lvgl/src/draw/lv_draw_label.c ****         /*Normally use the label's width as width*/
 111:lvgl/src/draw/lv_draw_label.c ****         w = lv_area_get_width(coords);
 112:lvgl/src/draw/lv_draw_label.c ****     }
 113:lvgl/src/draw/lv_draw_label.c ****     else {
 114:lvgl/src/draw/lv_draw_label.c ****         /*If EXPAND is enabled then not limit the text's width to the object's width*/
 115:lvgl/src/draw/lv_draw_label.c ****         lv_point_t p;
 116:lvgl/src/draw/lv_draw_label.c ****         lv_txt_get_size(&p, txt, dsc->font, dsc->letter_space, dsc->line_space, LV_COORD_MAX,
 117:lvgl/src/draw/lv_draw_label.c ****                         dsc->flag);
 118:lvgl/src/draw/lv_draw_label.c ****         w = p.x;
 119:lvgl/src/draw/lv_draw_label.c ****     }
 120:lvgl/src/draw/lv_draw_label.c **** 
 121:lvgl/src/draw/lv_draw_label.c ****     int32_t line_height_font = lv_font_get_line_height(font);
 122:lvgl/src/draw/lv_draw_label.c ****     int32_t line_height = line_height_font + dsc->line_space;
 123:lvgl/src/draw/lv_draw_label.c **** 
 124:lvgl/src/draw/lv_draw_label.c ****     /*Init variables for the first line*/
 125:lvgl/src/draw/lv_draw_label.c ****     int32_t line_width = 0;
 126:lvgl/src/draw/lv_draw_label.c ****     lv_point_t pos;
 127:lvgl/src/draw/lv_draw_label.c ****     pos.x = coords->x1;
 128:lvgl/src/draw/lv_draw_label.c ****     pos.y = coords->y1;
 129:lvgl/src/draw/lv_draw_label.c **** 
 130:lvgl/src/draw/lv_draw_label.c ****     int32_t x_ofs = 0;
 131:lvgl/src/draw/lv_draw_label.c ****     int32_t y_ofs = 0;
 132:lvgl/src/draw/lv_draw_label.c ****     x_ofs = dsc->ofs_x;
 133:lvgl/src/draw/lv_draw_label.c ****     y_ofs = dsc->ofs_y;
 134:lvgl/src/draw/lv_draw_label.c ****     pos.y += y_ofs;
 135:lvgl/src/draw/lv_draw_label.c **** 
 136:lvgl/src/draw/lv_draw_label.c ****     uint32_t line_start     = 0;
 137:lvgl/src/draw/lv_draw_label.c ****     int32_t last_line_start = -1;
 138:lvgl/src/draw/lv_draw_label.c **** 
 139:lvgl/src/draw/lv_draw_label.c ****     /*Check the hint to use the cached info*/
 140:lvgl/src/draw/lv_draw_label.c ****     if(hint && y_ofs == 0 && coords->y1 < 0) {
 141:lvgl/src/draw/lv_draw_label.c ****         /*If the label changed too much recalculate the hint.*/
 142:lvgl/src/draw/lv_draw_label.c ****         if(LV_ABS(hint->coord_y - coords->y1) > LV_LABEL_HINT_UPDATE_TH - 2 * line_height) {
 143:lvgl/src/draw/lv_draw_label.c ****             hint->line_start = -1;
 144:lvgl/src/draw/lv_draw_label.c ****         }
ARM GAS  /var/folders/21/t9g5rlb91ys800n5npymflf80000gn/T//cc4qd6Tv.s 			page 4


 145:lvgl/src/draw/lv_draw_label.c ****         last_line_start = hint->line_start;
 146:lvgl/src/draw/lv_draw_label.c ****     }
 147:lvgl/src/draw/lv_draw_label.c **** 
 148:lvgl/src/draw/lv_draw_label.c ****     /*Use the hint if it's valid*/
 149:lvgl/src/draw/lv_draw_label.c ****     if(hint && last_line_start >= 0) {
 150:lvgl/src/draw/lv_draw_label.c ****         line_start = last_line_start;
 151:lvgl/src/draw/lv_draw_label.c ****         pos.y += hint->y;
 152:lvgl/src/draw/lv_draw_label.c ****     }
 153:lvgl/src/draw/lv_draw_label.c **** 
 154:lvgl/src/draw/lv_draw_label.c ****     uint32_t line_end = line_start + _lv_txt_get_next_line(&txt[line_start], font, dsc->letter_spac
 155:lvgl/src/draw/lv_draw_label.c **** 
 156:lvgl/src/draw/lv_draw_label.c ****     /*Go the first visible line*/
 157:lvgl/src/draw/lv_draw_label.c ****     while(pos.y + line_height_font < draw_ctx->clip_area->y1) {
 158:lvgl/src/draw/lv_draw_label.c ****         /*Go to next line*/
 159:lvgl/src/draw/lv_draw_label.c ****         line_start = line_end;
 160:lvgl/src/draw/lv_draw_label.c ****         line_end += _lv_txt_get_next_line(&txt[line_start], font, dsc->letter_space, w, NULL, dsc->
 161:lvgl/src/draw/lv_draw_label.c ****         pos.y += line_height;
 162:lvgl/src/draw/lv_draw_label.c **** 
 163:lvgl/src/draw/lv_draw_label.c ****         /*Save at the threshold coordinate*/
 164:lvgl/src/draw/lv_draw_label.c ****         if(hint && pos.y >= -LV_LABEL_HINT_UPDATE_TH && hint->line_start < 0) {
 165:lvgl/src/draw/lv_draw_label.c ****             hint->line_start = line_start;
 166:lvgl/src/draw/lv_draw_label.c ****             hint->y          = pos.y - coords->y1;
 167:lvgl/src/draw/lv_draw_label.c ****             hint->coord_y    = coords->y1;
 168:lvgl/src/draw/lv_draw_label.c ****         }
 169:lvgl/src/draw/lv_draw_label.c **** 
 170:lvgl/src/draw/lv_draw_label.c ****         if(txt[line_start] == '\0') return;
 171:lvgl/src/draw/lv_draw_label.c ****     }
 172:lvgl/src/draw/lv_draw_label.c **** 
 173:lvgl/src/draw/lv_draw_label.c ****     /*Align to middle*/
 174:lvgl/src/draw/lv_draw_label.c ****     if(align == LV_TEXT_ALIGN_CENTER) {
 175:lvgl/src/draw/lv_draw_label.c ****         line_width = lv_txt_get_width(&txt[line_start], line_end - line_start, font, dsc->letter_sp
 176:lvgl/src/draw/lv_draw_label.c **** 
 177:lvgl/src/draw/lv_draw_label.c ****         pos.x += (lv_area_get_width(coords) - line_width) / 2;
 178:lvgl/src/draw/lv_draw_label.c **** 
 179:lvgl/src/draw/lv_draw_label.c ****     }
 180:lvgl/src/draw/lv_draw_label.c ****     /*Align to the right*/
 181:lvgl/src/draw/lv_draw_label.c ****     else if(align == LV_TEXT_ALIGN_RIGHT) {
 182:lvgl/src/draw/lv_draw_label.c ****         line_width = lv_txt_get_width(&txt[line_start], line_end - line_start, font, dsc->letter_sp
 183:lvgl/src/draw/lv_draw_label.c ****         pos.x += lv_area_get_width(coords) - line_width;
 184:lvgl/src/draw/lv_draw_label.c ****     }
 185:lvgl/src/draw/lv_draw_label.c ****     uint32_t sel_start = dsc->sel_start;
 186:lvgl/src/draw/lv_draw_label.c ****     uint32_t sel_end = dsc->sel_end;
 187:lvgl/src/draw/lv_draw_label.c ****     if(sel_start > sel_end) {
 188:lvgl/src/draw/lv_draw_label.c ****         uint32_t tmp = sel_start;
 189:lvgl/src/draw/lv_draw_label.c ****         sel_start = sel_end;
 190:lvgl/src/draw/lv_draw_label.c ****         sel_end = tmp;
 191:lvgl/src/draw/lv_draw_label.c ****     }
 192:lvgl/src/draw/lv_draw_label.c ****     lv_draw_line_dsc_t line_dsc;
 193:lvgl/src/draw/lv_draw_label.c **** 
 194:lvgl/src/draw/lv_draw_label.c ****     if((dsc->decor & LV_TEXT_DECOR_UNDERLINE) || (dsc->decor & LV_TEXT_DECOR_STRIKETHROUGH)) {
 195:lvgl/src/draw/lv_draw_label.c ****         lv_draw_line_dsc_init(&line_dsc);
 196:lvgl/src/draw/lv_draw_label.c ****         line_dsc.color = dsc->color;
 197:lvgl/src/draw/lv_draw_label.c ****         line_dsc.width = font->underline_thickness ? font->underline_thickness : 1;
 198:lvgl/src/draw/lv_draw_label.c ****         line_dsc.opa = dsc->opa;
 199:lvgl/src/draw/lv_draw_label.c ****         line_dsc.blend_mode = dsc->blend_mode;
 200:lvgl/src/draw/lv_draw_label.c ****     }
 201:lvgl/src/draw/lv_draw_label.c **** 
ARM GAS  /var/folders/21/t9g5rlb91ys800n5npymflf80000gn/T//cc4qd6Tv.s 			page 5


 202:lvgl/src/draw/lv_draw_label.c ****     cmd_state_t cmd_state = CMD_STATE_WAIT;
 203:lvgl/src/draw/lv_draw_label.c ****     uint32_t i;
 204:lvgl/src/draw/lv_draw_label.c ****     uint32_t par_start = 0;
 205:lvgl/src/draw/lv_draw_label.c ****     lv_color_t recolor  = lv_color_black();
 206:lvgl/src/draw/lv_draw_label.c ****     lv_color_t color = lv_color_black();
 207:lvgl/src/draw/lv_draw_label.c ****     int32_t letter_w;
 208:lvgl/src/draw/lv_draw_label.c **** 
 209:lvgl/src/draw/lv_draw_label.c ****     lv_draw_rect_dsc_t draw_dsc_sel;
 210:lvgl/src/draw/lv_draw_label.c ****     lv_draw_rect_dsc_init(&draw_dsc_sel);
 211:lvgl/src/draw/lv_draw_label.c ****     draw_dsc_sel.bg_color = dsc->sel_bg_color;
 212:lvgl/src/draw/lv_draw_label.c **** 
 213:lvgl/src/draw/lv_draw_label.c ****     int32_t pos_x_start = pos.x;
 214:lvgl/src/draw/lv_draw_label.c ****     /*Write out all lines*/
 215:lvgl/src/draw/lv_draw_label.c ****     while(txt[line_start] != '\0') {
 216:lvgl/src/draw/lv_draw_label.c ****         pos.x += x_ofs;
 217:lvgl/src/draw/lv_draw_label.c **** 
 218:lvgl/src/draw/lv_draw_label.c ****         /*Write all letter of a line*/
 219:lvgl/src/draw/lv_draw_label.c ****         cmd_state = CMD_STATE_WAIT;
 220:lvgl/src/draw/lv_draw_label.c ****         i         = 0;
 221:lvgl/src/draw/lv_draw_label.c **** #if LV_USE_BIDI
 222:lvgl/src/draw/lv_draw_label.c ****         char * bidi_txt = lv_mem_buf_get(line_end - line_start + 1);
 223:lvgl/src/draw/lv_draw_label.c ****         _lv_bidi_process_paragraph(txt + line_start, bidi_txt, line_end - line_start, base_dir, NUL
 224:lvgl/src/draw/lv_draw_label.c **** #else
 225:lvgl/src/draw/lv_draw_label.c ****         const char * bidi_txt = txt + line_start;
 226:lvgl/src/draw/lv_draw_label.c **** #endif
 227:lvgl/src/draw/lv_draw_label.c **** 
 228:lvgl/src/draw/lv_draw_label.c ****         while(i < line_end - line_start) {
 229:lvgl/src/draw/lv_draw_label.c ****             uint32_t logical_char_pos = 0;
 230:lvgl/src/draw/lv_draw_label.c ****             if(sel_start != 0xFFFF && sel_end != 0xFFFF) {
 231:lvgl/src/draw/lv_draw_label.c **** #if LV_USE_BIDI
 232:lvgl/src/draw/lv_draw_label.c ****                 logical_char_pos = _lv_txt_encoded_get_char_id(txt, line_start);
 233:lvgl/src/draw/lv_draw_label.c ****                 uint32_t t = _lv_txt_encoded_get_char_id(bidi_txt, i);
 234:lvgl/src/draw/lv_draw_label.c ****                 logical_char_pos += _lv_bidi_get_logical_pos(bidi_txt, NULL, line_end - line_start,
 235:lvgl/src/draw/lv_draw_label.c **** #else
 236:lvgl/src/draw/lv_draw_label.c ****                 logical_char_pos = _lv_txt_encoded_get_char_id(txt, line_start + i);
 237:lvgl/src/draw/lv_draw_label.c **** #endif
 238:lvgl/src/draw/lv_draw_label.c ****             }
 239:lvgl/src/draw/lv_draw_label.c **** 
 240:lvgl/src/draw/lv_draw_label.c ****             uint32_t letter;
 241:lvgl/src/draw/lv_draw_label.c ****             uint32_t letter_next;
 242:lvgl/src/draw/lv_draw_label.c ****             _lv_txt_encoded_letter_next_2(bidi_txt, &letter, &letter_next, &i);
 243:lvgl/src/draw/lv_draw_label.c ****             /*Handle the re-color command*/
 244:lvgl/src/draw/lv_draw_label.c ****             if((dsc->flag & LV_TEXT_FLAG_RECOLOR) != 0) {
 245:lvgl/src/draw/lv_draw_label.c ****                 if(letter == (uint32_t)LV_TXT_COLOR_CMD[0]) {
 246:lvgl/src/draw/lv_draw_label.c ****                     if(cmd_state == CMD_STATE_WAIT) { /*Start char*/
 247:lvgl/src/draw/lv_draw_label.c ****                         par_start = i;
 248:lvgl/src/draw/lv_draw_label.c ****                         cmd_state = CMD_STATE_PAR;
 249:lvgl/src/draw/lv_draw_label.c ****                         continue;
 250:lvgl/src/draw/lv_draw_label.c ****                     }
 251:lvgl/src/draw/lv_draw_label.c ****                     else if(cmd_state == CMD_STATE_PAR) {   /*Other start char in parameter escaped
 252:lvgl/src/draw/lv_draw_label.c ****                         cmd_state = CMD_STATE_WAIT;
 253:lvgl/src/draw/lv_draw_label.c ****                     }
 254:lvgl/src/draw/lv_draw_label.c ****                     else if(cmd_state == CMD_STATE_IN) {   /*Command end*/
 255:lvgl/src/draw/lv_draw_label.c ****                         cmd_state = CMD_STATE_WAIT;
 256:lvgl/src/draw/lv_draw_label.c ****                         continue;
 257:lvgl/src/draw/lv_draw_label.c ****                     }
 258:lvgl/src/draw/lv_draw_label.c ****                 }
ARM GAS  /var/folders/21/t9g5rlb91ys800n5npymflf80000gn/T//cc4qd6Tv.s 			page 6


 259:lvgl/src/draw/lv_draw_label.c **** 
 260:lvgl/src/draw/lv_draw_label.c ****                 /*Skip the color parameter and wait the space after it*/
 261:lvgl/src/draw/lv_draw_label.c ****                 if(cmd_state == CMD_STATE_PAR) {
 262:lvgl/src/draw/lv_draw_label.c ****                     if(letter == ' ') {
 263:lvgl/src/draw/lv_draw_label.c ****                         /*Get the parameter*/
 264:lvgl/src/draw/lv_draw_label.c ****                         if(i - par_start == LABEL_RECOLOR_PAR_LENGTH + 1) {
 265:lvgl/src/draw/lv_draw_label.c ****                             char buf[LABEL_RECOLOR_PAR_LENGTH + 1];
 266:lvgl/src/draw/lv_draw_label.c ****                             lv_memcpy_small(buf, &bidi_txt[par_start], LABEL_RECOLOR_PAR_LENGTH);
 267:lvgl/src/draw/lv_draw_label.c ****                             buf[LABEL_RECOLOR_PAR_LENGTH] = '\0';
 268:lvgl/src/draw/lv_draw_label.c ****                             int r, g, b;
 269:lvgl/src/draw/lv_draw_label.c ****                             r       = (hex_char_to_num(buf[0]) << 4) + hex_char_to_num(buf[1]);
 270:lvgl/src/draw/lv_draw_label.c ****                             g       = (hex_char_to_num(buf[2]) << 4) + hex_char_to_num(buf[3]);
 271:lvgl/src/draw/lv_draw_label.c ****                             b       = (hex_char_to_num(buf[4]) << 4) + hex_char_to_num(buf[5]);
 272:lvgl/src/draw/lv_draw_label.c ****                             recolor = lv_color_make(r, g, b);
 273:lvgl/src/draw/lv_draw_label.c ****                         }
 274:lvgl/src/draw/lv_draw_label.c ****                         else {
 275:lvgl/src/draw/lv_draw_label.c ****                             recolor.full = dsc->color.full;
 276:lvgl/src/draw/lv_draw_label.c ****                         }
 277:lvgl/src/draw/lv_draw_label.c ****                         cmd_state = CMD_STATE_IN; /*After the parameter the text is in the command*
 278:lvgl/src/draw/lv_draw_label.c ****                     }
 279:lvgl/src/draw/lv_draw_label.c ****                     continue;
 280:lvgl/src/draw/lv_draw_label.c ****                 }
 281:lvgl/src/draw/lv_draw_label.c ****             }
 282:lvgl/src/draw/lv_draw_label.c **** 
 283:lvgl/src/draw/lv_draw_label.c ****             color = dsc->color;
 284:lvgl/src/draw/lv_draw_label.c **** 
 285:lvgl/src/draw/lv_draw_label.c ****             if(cmd_state == CMD_STATE_IN) color = recolor;
 286:lvgl/src/draw/lv_draw_label.c **** 
 287:lvgl/src/draw/lv_draw_label.c ****             letter_w = lv_font_get_glyph_width(font, letter, letter_next);
 288:lvgl/src/draw/lv_draw_label.c **** 
 289:lvgl/src/draw/lv_draw_label.c ****             if(sel_start != 0xFFFF && sel_end != 0xFFFF) {
 290:lvgl/src/draw/lv_draw_label.c ****                 if(logical_char_pos >= sel_start && logical_char_pos < sel_end) {
 291:lvgl/src/draw/lv_draw_label.c ****                     lv_area_t sel_coords;
 292:lvgl/src/draw/lv_draw_label.c ****                     sel_coords.x1 = pos.x;
 293:lvgl/src/draw/lv_draw_label.c ****                     sel_coords.y1 = pos.y;
 294:lvgl/src/draw/lv_draw_label.c ****                     sel_coords.x2 = pos.x + letter_w + dsc->letter_space - 1;
 295:lvgl/src/draw/lv_draw_label.c ****                     sel_coords.y2 = pos.y + line_height - 1;
 296:lvgl/src/draw/lv_draw_label.c ****                     lv_draw_rect(draw_ctx, &draw_dsc_sel, &sel_coords);
 297:lvgl/src/draw/lv_draw_label.c ****                     color = dsc->sel_color;
 298:lvgl/src/draw/lv_draw_label.c ****                 }
 299:lvgl/src/draw/lv_draw_label.c ****             }
 300:lvgl/src/draw/lv_draw_label.c **** 
 301:lvgl/src/draw/lv_draw_label.c ****             dsc_mod.color = color;
 302:lvgl/src/draw/lv_draw_label.c ****             lv_draw_letter(draw_ctx, &dsc_mod, &pos, letter);
 303:lvgl/src/draw/lv_draw_label.c **** 
 304:lvgl/src/draw/lv_draw_label.c ****             if(letter_w > 0) {
 305:lvgl/src/draw/lv_draw_label.c ****                 pos.x += letter_w + dsc->letter_space;
 306:lvgl/src/draw/lv_draw_label.c ****             }
 307:lvgl/src/draw/lv_draw_label.c ****         }
 308:lvgl/src/draw/lv_draw_label.c **** 
 309:lvgl/src/draw/lv_draw_label.c ****         if(dsc->decor & LV_TEXT_DECOR_STRIKETHROUGH) {
 310:lvgl/src/draw/lv_draw_label.c ****             lv_point_t p1;
 311:lvgl/src/draw/lv_draw_label.c ****             lv_point_t p2;
 312:lvgl/src/draw/lv_draw_label.c ****             p1.x = pos_x_start;
 313:lvgl/src/draw/lv_draw_label.c ****             p1.y = pos.y + (dsc->font->line_height / 2)  + line_dsc.width / 2;
 314:lvgl/src/draw/lv_draw_label.c ****             p2.x = pos.x;
 315:lvgl/src/draw/lv_draw_label.c ****             p2.y = p1.y;
ARM GAS  /var/folders/21/t9g5rlb91ys800n5npymflf80000gn/T//cc4qd6Tv.s 			page 7


 316:lvgl/src/draw/lv_draw_label.c ****             line_dsc.color = color;
 317:lvgl/src/draw/lv_draw_label.c ****             lv_draw_line(draw_ctx, &line_dsc, &p1, &p2);
 318:lvgl/src/draw/lv_draw_label.c ****         }
 319:lvgl/src/draw/lv_draw_label.c **** 
 320:lvgl/src/draw/lv_draw_label.c ****         if(dsc->decor  & LV_TEXT_DECOR_UNDERLINE) {
 321:lvgl/src/draw/lv_draw_label.c ****             lv_point_t p1;
 322:lvgl/src/draw/lv_draw_label.c ****             lv_point_t p2;
 323:lvgl/src/draw/lv_draw_label.c ****             p1.x = pos_x_start;
 324:lvgl/src/draw/lv_draw_label.c ****             p1.y = pos.y + dsc->font->line_height - dsc->font->base_line - font->underline_position
 325:lvgl/src/draw/lv_draw_label.c ****             p2.x = pos.x;
 326:lvgl/src/draw/lv_draw_label.c ****             p2.y = p1.y;
 327:lvgl/src/draw/lv_draw_label.c ****             line_dsc.color = color;
 328:lvgl/src/draw/lv_draw_label.c ****             lv_draw_line(draw_ctx, &line_dsc, &p1, &p2);
 329:lvgl/src/draw/lv_draw_label.c ****         }
 330:lvgl/src/draw/lv_draw_label.c **** 
 331:lvgl/src/draw/lv_draw_label.c **** #if LV_USE_BIDI
 332:lvgl/src/draw/lv_draw_label.c ****         lv_mem_buf_release(bidi_txt);
 333:lvgl/src/draw/lv_draw_label.c ****         bidi_txt = NULL;
 334:lvgl/src/draw/lv_draw_label.c **** #endif
 335:lvgl/src/draw/lv_draw_label.c ****         /*Go to next line*/
 336:lvgl/src/draw/lv_draw_label.c ****         line_start = line_end;
 337:lvgl/src/draw/lv_draw_label.c ****         line_end += _lv_txt_get_next_line(&txt[line_start], font, dsc->letter_space, w, NULL, dsc->
 338:lvgl/src/draw/lv_draw_label.c **** 
 339:lvgl/src/draw/lv_draw_label.c ****         pos.x = coords->x1;
 340:lvgl/src/draw/lv_draw_label.c ****         /*Align to middle*/
 341:lvgl/src/draw/lv_draw_label.c ****         if(align == LV_TEXT_ALIGN_CENTER) {
 342:lvgl/src/draw/lv_draw_label.c ****             line_width =
 343:lvgl/src/draw/lv_draw_label.c ****                 lv_txt_get_width(&txt[line_start], line_end - line_start, font, dsc->letter_space, 
 344:lvgl/src/draw/lv_draw_label.c **** 
 345:lvgl/src/draw/lv_draw_label.c ****             pos.x += (lv_area_get_width(coords) - line_width) / 2;
 346:lvgl/src/draw/lv_draw_label.c **** 
 347:lvgl/src/draw/lv_draw_label.c ****         }
 348:lvgl/src/draw/lv_draw_label.c ****         /*Align to the right*/
 349:lvgl/src/draw/lv_draw_label.c ****         else if(align == LV_TEXT_ALIGN_RIGHT) {
 350:lvgl/src/draw/lv_draw_label.c ****             line_width =
 351:lvgl/src/draw/lv_draw_label.c ****                 lv_txt_get_width(&txt[line_start], line_end - line_start, font, dsc->letter_space, 
 352:lvgl/src/draw/lv_draw_label.c ****             pos.x += lv_area_get_width(coords) - line_width;
 353:lvgl/src/draw/lv_draw_label.c ****         }
 354:lvgl/src/draw/lv_draw_label.c **** 
 355:lvgl/src/draw/lv_draw_label.c ****         /*Go the next line position*/
 356:lvgl/src/draw/lv_draw_label.c ****         pos.y += line_height;
 357:lvgl/src/draw/lv_draw_label.c **** 
 358:lvgl/src/draw/lv_draw_label.c ****         if(pos.y > draw_ctx->clip_area->y2) return;
 359:lvgl/src/draw/lv_draw_label.c ****     }
 360:lvgl/src/draw/lv_draw_label.c **** 
 361:lvgl/src/draw/lv_draw_label.c ****     LV_ASSERT_MEM_INTEGRITY();
 362:lvgl/src/draw/lv_draw_label.c **** }
 363:lvgl/src/draw/lv_draw_label.c **** 
 364:lvgl/src/draw/lv_draw_label.c **** void lv_draw_letter(lv_draw_ctx_t * draw_ctx, const lv_draw_label_dsc_t * dsc,  const lv_point_t * 
 365:lvgl/src/draw/lv_draw_label.c ****                     uint32_t letter)
 366:lvgl/src/draw/lv_draw_label.c **** {
 367:lvgl/src/draw/lv_draw_label.c ****     draw_ctx->draw_letter(draw_ctx, dsc, pos_p, letter);
 368:lvgl/src/draw/lv_draw_label.c **** }
 369:lvgl/src/draw/lv_draw_label.c **** 
 370:lvgl/src/draw/lv_draw_label.c **** /**********************
 371:lvgl/src/draw/lv_draw_label.c ****  *   STATIC FUNCTIONS
 372:lvgl/src/draw/lv_draw_label.c ****  **********************/
ARM GAS  /var/folders/21/t9g5rlb91ys800n5npymflf80000gn/T//cc4qd6Tv.s 			page 8


 373:lvgl/src/draw/lv_draw_label.c **** 
 374:lvgl/src/draw/lv_draw_label.c **** /**
 375:lvgl/src/draw/lv_draw_label.c ****  * Convert a hexadecimal characters to a number (0..15)
 376:lvgl/src/draw/lv_draw_label.c ****  * @param hex Pointer to a hexadecimal character (0..9, A..F)
 377:lvgl/src/draw/lv_draw_label.c ****  * @return the numerical value of `hex` or 0 on error
 378:lvgl/src/draw/lv_draw_label.c ****  */
 379:lvgl/src/draw/lv_draw_label.c **** static uint8_t hex_char_to_num(char hex)
 380:lvgl/src/draw/lv_draw_label.c **** {
  29              		.loc 1 380 1 view -0
  30              		.cfi_startproc
  31              		@ args = 0, pretend = 0, frame = 0
  32              		@ frame_needed = 0, uses_anonymous_args = 0
  33              		@ link register save eliminated.
  34              		.loc 1 380 1 is_stmt 0 view .LVU1
  35 0000 0346     		mov	r3, r0
 381:lvgl/src/draw/lv_draw_label.c ****     uint8_t result = 0;
  36              		.loc 1 381 5 is_stmt 1 view .LVU2
  37              	.LVL1:
 382:lvgl/src/draw/lv_draw_label.c **** 
 383:lvgl/src/draw/lv_draw_label.c ****     if(hex >= '0' && hex <= '9') {
  38              		.loc 1 383 5 view .LVU3
  39              		.loc 1 383 19 is_stmt 0 view .LVU4
  40 0002 3038     		subs	r0, r0, #48
  41              	.LVL2:
  42              		.loc 1 383 19 view .LVU5
  43 0004 C0B2     		uxtb	r0, r0
  44              		.loc 1 383 7 view .LVU6
  45 0006 0928     		cmp	r0, #9
  46 0008 18D9     		bls	.L2
 384:lvgl/src/draw/lv_draw_label.c ****         result = hex - '0';
 385:lvgl/src/draw/lv_draw_label.c ****     }
 386:lvgl/src/draw/lv_draw_label.c ****     else {
 387:lvgl/src/draw/lv_draw_label.c ****         if(hex >= 'a') hex -= 'a' - 'A'; /*Convert to upper case*/
  47              		.loc 1 387 9 is_stmt 1 view .LVU7
  48              		.loc 1 387 11 is_stmt 0 view .LVU8
  49 000a 602B     		cmp	r3, #96
  50 000c 01D9     		bls	.L3
  51              		.loc 1 387 24 is_stmt 1 discriminator 1 view .LVU9
  52              		.loc 1 387 28 is_stmt 0 discriminator 1 view .LVU10
  53 000e 203B     		subs	r3, r3, #32
  54 0010 DBB2     		uxtb	r3, r3
  55              	.LVL3:
  56              	.L3:
 388:lvgl/src/draw/lv_draw_label.c **** 
 389:lvgl/src/draw/lv_draw_label.c ****         switch(hex) {
  57              		.loc 1 389 9 is_stmt 1 view .LVU11
  58 0012 413B     		subs	r3, r3, #65
  59              	.LVL4:
  60              		.loc 1 389 9 is_stmt 0 view .LVU12
  61 0014 052B     		cmp	r3, #5
  62 0016 0ED8     		bhi	.L4
  63 0018 DFE803F0 		tbb	[pc, r3]
  64              	.L6:
  65 001c 03       		.byte	(.L10-.L6)/2
  66 001d 0F       		.byte	(.L11-.L6)/2
  67 001e 05       		.byte	(.L9-.L6)/2
  68 001f 07       		.byte	(.L8-.L6)/2
ARM GAS  /var/folders/21/t9g5rlb91ys800n5npymflf80000gn/T//cc4qd6Tv.s 			page 9


  69 0020 09       		.byte	(.L7-.L6)/2
  70 0021 0B       		.byte	(.L5-.L6)/2
  71              		.p2align 1
  72              	.L10:
  73 0022 0A20     		movs	r0, #10
  74 0024 7047     		bx	lr
  75              	.L9:
 390:lvgl/src/draw/lv_draw_label.c ****             case 'A':
 391:lvgl/src/draw/lv_draw_label.c ****                 result = 10;
 392:lvgl/src/draw/lv_draw_label.c ****                 break;
 393:lvgl/src/draw/lv_draw_label.c ****             case 'B':
 394:lvgl/src/draw/lv_draw_label.c ****                 result = 11;
 395:lvgl/src/draw/lv_draw_label.c ****                 break;
 396:lvgl/src/draw/lv_draw_label.c ****             case 'C':
 397:lvgl/src/draw/lv_draw_label.c ****                 result = 12;
  76              		.loc 1 397 17 is_stmt 1 view .LVU13
  77              	.LVL5:
 398:lvgl/src/draw/lv_draw_label.c ****                 break;
  78              		.loc 1 398 17 view .LVU14
 397:lvgl/src/draw/lv_draw_label.c ****                 break;
  79              		.loc 1 397 24 is_stmt 0 view .LVU15
  80 0026 0C20     		movs	r0, #12
  81              		.loc 1 398 17 view .LVU16
  82 0028 7047     		bx	lr
  83              	.LVL6:
  84              	.L8:
 399:lvgl/src/draw/lv_draw_label.c ****             case 'D':
 400:lvgl/src/draw/lv_draw_label.c ****                 result = 13;
  85              		.loc 1 400 17 is_stmt 1 view .LVU17
 401:lvgl/src/draw/lv_draw_label.c ****                 break;
  86              		.loc 1 401 17 view .LVU18
 400:lvgl/src/draw/lv_draw_label.c ****                 break;
  87              		.loc 1 400 24 is_stmt 0 view .LVU19
  88 002a 0D20     		movs	r0, #13
  89              		.loc 1 401 17 view .LVU20
  90 002c 7047     		bx	lr
  91              	.LVL7:
  92              	.L7:
 402:lvgl/src/draw/lv_draw_label.c ****             case 'E':
 403:lvgl/src/draw/lv_draw_label.c ****                 result = 14;
  93              		.loc 1 403 17 is_stmt 1 view .LVU21
 404:lvgl/src/draw/lv_draw_label.c ****                 break;
  94              		.loc 1 404 17 view .LVU22
 403:lvgl/src/draw/lv_draw_label.c ****                 break;
  95              		.loc 1 403 24 is_stmt 0 view .LVU23
  96 002e 0E20     		movs	r0, #14
  97              		.loc 1 404 17 view .LVU24
  98 0030 7047     		bx	lr
  99              	.LVL8:
 100              	.L5:
 405:lvgl/src/draw/lv_draw_label.c ****             case 'F':
 406:lvgl/src/draw/lv_draw_label.c ****                 result = 15;
 101              		.loc 1 406 17 is_stmt 1 view .LVU25
 407:lvgl/src/draw/lv_draw_label.c ****                 break;
 102              		.loc 1 407 17 view .LVU26
 406:lvgl/src/draw/lv_draw_label.c ****                 break;
 103              		.loc 1 406 24 is_stmt 0 view .LVU27
ARM GAS  /var/folders/21/t9g5rlb91ys800n5npymflf80000gn/T//cc4qd6Tv.s 			page 10


 104 0032 0F20     		movs	r0, #15
 105              		.loc 1 407 17 view .LVU28
 106 0034 7047     		bx	lr
 107              	.LVL9:
 108              	.L4:
 408:lvgl/src/draw/lv_draw_label.c ****             default:
 409:lvgl/src/draw/lv_draw_label.c ****                 result = 0;
 109              		.loc 1 409 17 is_stmt 1 view .LVU29
 410:lvgl/src/draw/lv_draw_label.c ****                 break;
 110              		.loc 1 410 17 view .LVU30
 409:lvgl/src/draw/lv_draw_label.c ****                 break;
 111              		.loc 1 409 24 is_stmt 0 view .LVU31
 112 0036 0020     		movs	r0, #0
 113              		.loc 1 410 17 view .LVU32
 114 0038 7047     		bx	lr
 115              	.L11:
 394:lvgl/src/draw/lv_draw_label.c ****                 break;
 116              		.loc 1 394 24 view .LVU33
 117 003a 0B20     		movs	r0, #11
 118              	.LVL10:
 119              	.L2:
 411:lvgl/src/draw/lv_draw_label.c ****         }
 412:lvgl/src/draw/lv_draw_label.c ****     }
 413:lvgl/src/draw/lv_draw_label.c **** 
 414:lvgl/src/draw/lv_draw_label.c ****     return result;
 120              		.loc 1 414 5 is_stmt 1 view .LVU34
 415:lvgl/src/draw/lv_draw_label.c **** }
 121              		.loc 1 415 1 is_stmt 0 view .LVU35
 122 003c 7047     		bx	lr
 123              		.cfi_endproc
 124              	.LFE164:
 126              		.section	.text.lv_draw_label_dsc_init,"ax",%progbits
 127              		.align	1
 128              		.global	lv_draw_label_dsc_init
 129              		.syntax unified
 130              		.thumb
 131              		.thumb_func
 133              	lv_draw_label_dsc_init:
 134              	.LVL11:
 135              	.LFB161:
  56:lvgl/src/draw/lv_draw_label.c ****     lv_memset_00(dsc, sizeof(lv_draw_label_dsc_t));
 136              		.loc 1 56 1 is_stmt 1 view -0
 137              		.cfi_startproc
 138              		@ args = 0, pretend = 0, frame = 0
 139              		@ frame_needed = 0, uses_anonymous_args = 0
  56:lvgl/src/draw/lv_draw_label.c ****     lv_memset_00(dsc, sizeof(lv_draw_label_dsc_t));
 140              		.loc 1 56 1 is_stmt 0 view .LVU37
 141 0000 10B5     		push	{r4, lr}
 142              	.LCFI0:
 143              		.cfi_def_cfa_offset 8
 144              		.cfi_offset 4, -8
 145              		.cfi_offset 14, -4
 146 0002 0446     		mov	r4, r0
  57:lvgl/src/draw/lv_draw_label.c ****     dsc->opa = LV_OPA_COVER;
 147              		.loc 1 57 5 is_stmt 1 view .LVU38
 148 0004 2021     		movs	r1, #32
 149 0006 FFF7FEFF 		bl	lv_memset_00
ARM GAS  /var/folders/21/t9g5rlb91ys800n5npymflf80000gn/T//cc4qd6Tv.s 			page 11


 150              	.LVL12:
  58:lvgl/src/draw/lv_draw_label.c ****     dsc->color = lv_color_black();
 151              		.loc 1 58 5 view .LVU39
  58:lvgl/src/draw/lv_draw_label.c ****     dsc->color = lv_color_black();
 152              		.loc 1 58 14 is_stmt 0 view .LVU40
 153 000a FF23     		movs	r3, #255
 154 000c A376     		strb	r3, [r4, #26]
  59:lvgl/src/draw/lv_draw_label.c ****     dsc->font = LV_FONT_DEFAULT;
 155              		.loc 1 59 5 is_stmt 1 view .LVU41
 156              	.LBB46:
 157              	.LBI46:
 158              		.file 2 "lvgl/src/draw/../misc/lv_color.h"
   1:lvgl/src/draw/../misc/lv_color.h **** /**
   2:lvgl/src/draw/../misc/lv_color.h ****  * @file lv_color.h
   3:lvgl/src/draw/../misc/lv_color.h ****  *
   4:lvgl/src/draw/../misc/lv_color.h ****  */
   5:lvgl/src/draw/../misc/lv_color.h **** 
   6:lvgl/src/draw/../misc/lv_color.h **** #ifndef LV_COLOR_H
   7:lvgl/src/draw/../misc/lv_color.h **** #define LV_COLOR_H
   8:lvgl/src/draw/../misc/lv_color.h **** 
   9:lvgl/src/draw/../misc/lv_color.h **** #ifdef __cplusplus
  10:lvgl/src/draw/../misc/lv_color.h **** extern "C" {
  11:lvgl/src/draw/../misc/lv_color.h **** #endif
  12:lvgl/src/draw/../misc/lv_color.h **** 
  13:lvgl/src/draw/../misc/lv_color.h **** /*********************
  14:lvgl/src/draw/../misc/lv_color.h ****  *      INCLUDES
  15:lvgl/src/draw/../misc/lv_color.h ****  *********************/
  16:lvgl/src/draw/../misc/lv_color.h **** #include "../lv_conf_internal.h"
  17:lvgl/src/draw/../misc/lv_color.h **** #include "lv_assert.h"
  18:lvgl/src/draw/../misc/lv_color.h **** #include "lv_math.h"
  19:lvgl/src/draw/../misc/lv_color.h **** #include "lv_types.h"
  20:lvgl/src/draw/../misc/lv_color.h **** 
  21:lvgl/src/draw/../misc/lv_color.h **** /*Error checking*/
  22:lvgl/src/draw/../misc/lv_color.h **** #if LV_COLOR_DEPTH == 24
  23:lvgl/src/draw/../misc/lv_color.h **** #error "LV_COLOR_DEPTH 24 is deprecated. Use LV_COLOR_DEPTH 32 instead (lv_conf.h)"
  24:lvgl/src/draw/../misc/lv_color.h **** #endif
  25:lvgl/src/draw/../misc/lv_color.h **** 
  26:lvgl/src/draw/../misc/lv_color.h **** #if LV_COLOR_DEPTH != 16 && LV_COLOR_16_SWAP != 0
  27:lvgl/src/draw/../misc/lv_color.h **** #error "LV_COLOR_16_SWAP requires LV_COLOR_DEPTH == 16. Set it in lv_conf.h"
  28:lvgl/src/draw/../misc/lv_color.h **** #endif
  29:lvgl/src/draw/../misc/lv_color.h **** 
  30:lvgl/src/draw/../misc/lv_color.h **** #include <stdint.h>
  31:lvgl/src/draw/../misc/lv_color.h **** 
  32:lvgl/src/draw/../misc/lv_color.h **** /*********************
  33:lvgl/src/draw/../misc/lv_color.h ****  *      DEFINES
  34:lvgl/src/draw/../misc/lv_color.h ****  *********************/
  35:lvgl/src/draw/../misc/lv_color.h **** LV_EXPORT_CONST_INT(LV_COLOR_DEPTH);
  36:lvgl/src/draw/../misc/lv_color.h **** LV_EXPORT_CONST_INT(LV_COLOR_16_SWAP);
  37:lvgl/src/draw/../misc/lv_color.h **** 
  38:lvgl/src/draw/../misc/lv_color.h **** /**
  39:lvgl/src/draw/../misc/lv_color.h ****  * Opacity percentages.
  40:lvgl/src/draw/../misc/lv_color.h ****  */
  41:lvgl/src/draw/../misc/lv_color.h **** enum {
  42:lvgl/src/draw/../misc/lv_color.h ****     LV_OPA_TRANSP = 0,
  43:lvgl/src/draw/../misc/lv_color.h ****     LV_OPA_0      = 0,
  44:lvgl/src/draw/../misc/lv_color.h ****     LV_OPA_10     = 25,
  45:lvgl/src/draw/../misc/lv_color.h ****     LV_OPA_20     = 51,
ARM GAS  /var/folders/21/t9g5rlb91ys800n5npymflf80000gn/T//cc4qd6Tv.s 			page 12


  46:lvgl/src/draw/../misc/lv_color.h ****     LV_OPA_30     = 76,
  47:lvgl/src/draw/../misc/lv_color.h ****     LV_OPA_40     = 102,
  48:lvgl/src/draw/../misc/lv_color.h ****     LV_OPA_50     = 127,
  49:lvgl/src/draw/../misc/lv_color.h ****     LV_OPA_60     = 153,
  50:lvgl/src/draw/../misc/lv_color.h ****     LV_OPA_70     = 178,
  51:lvgl/src/draw/../misc/lv_color.h ****     LV_OPA_80     = 204,
  52:lvgl/src/draw/../misc/lv_color.h ****     LV_OPA_90     = 229,
  53:lvgl/src/draw/../misc/lv_color.h ****     LV_OPA_100    = 255,
  54:lvgl/src/draw/../misc/lv_color.h ****     LV_OPA_COVER  = 255,
  55:lvgl/src/draw/../misc/lv_color.h **** };
  56:lvgl/src/draw/../misc/lv_color.h **** 
  57:lvgl/src/draw/../misc/lv_color.h **** #define LV_OPA_MIN 2    /*Opacities below this will be transparent*/
  58:lvgl/src/draw/../misc/lv_color.h **** #define LV_OPA_MAX 253  /*Opacities above this will fully cover*/
  59:lvgl/src/draw/../misc/lv_color.h **** 
  60:lvgl/src/draw/../misc/lv_color.h **** #if LV_COLOR_DEPTH == 1
  61:lvgl/src/draw/../misc/lv_color.h **** #define LV_COLOR_SIZE 8
  62:lvgl/src/draw/../misc/lv_color.h **** #elif LV_COLOR_DEPTH == 8
  63:lvgl/src/draw/../misc/lv_color.h **** #define LV_COLOR_SIZE 8
  64:lvgl/src/draw/../misc/lv_color.h **** #elif LV_COLOR_DEPTH == 16
  65:lvgl/src/draw/../misc/lv_color.h **** #define LV_COLOR_SIZE 16
  66:lvgl/src/draw/../misc/lv_color.h **** #elif LV_COLOR_DEPTH == 32
  67:lvgl/src/draw/../misc/lv_color.h **** #define LV_COLOR_SIZE 32
  68:lvgl/src/draw/../misc/lv_color.h **** #else
  69:lvgl/src/draw/../misc/lv_color.h **** #error "Invalid LV_COLOR_DEPTH in lv_conf.h! Set it to 1, 8, 16 or 32!"
  70:lvgl/src/draw/../misc/lv_color.h **** #endif
  71:lvgl/src/draw/../misc/lv_color.h **** 
  72:lvgl/src/draw/../misc/lv_color.h **** #if defined(__cplusplus) && !defined(_LV_COLOR_HAS_MODERN_CPP)
  73:lvgl/src/draw/../misc/lv_color.h **** /**
  74:lvgl/src/draw/../misc/lv_color.h **** * MSVC compiler's definition of the __cplusplus indicating 199711L regardless to C++ standard versi
  75:lvgl/src/draw/../misc/lv_color.h **** * see https://devblogs.microsoft.com/cppblog/msvc-now-correctly-reports-cplusplus
  76:lvgl/src/draw/../misc/lv_color.h **** * so we use _MSC_VER macro instead of __cplusplus
  77:lvgl/src/draw/../misc/lv_color.h **** */
  78:lvgl/src/draw/../misc/lv_color.h **** #ifdef _MSC_VER
  79:lvgl/src/draw/../misc/lv_color.h **** #if _MSC_VER >= 1900 /*Visual Studio 2015*/
  80:lvgl/src/draw/../misc/lv_color.h **** #define _LV_COLOR_HAS_MODERN_CPP 1
  81:lvgl/src/draw/../misc/lv_color.h **** #endif
  82:lvgl/src/draw/../misc/lv_color.h **** #else
  83:lvgl/src/draw/../misc/lv_color.h **** #if __cplusplus >= 201103L
  84:lvgl/src/draw/../misc/lv_color.h **** #define _LV_COLOR_HAS_MODERN_CPP 1
  85:lvgl/src/draw/../misc/lv_color.h **** #endif
  86:lvgl/src/draw/../misc/lv_color.h **** #endif
  87:lvgl/src/draw/../misc/lv_color.h **** #endif /*__cplusplus*/
  88:lvgl/src/draw/../misc/lv_color.h **** 
  89:lvgl/src/draw/../misc/lv_color.h **** #ifndef _LV_COLOR_HAS_MODERN_CPP
  90:lvgl/src/draw/../misc/lv_color.h **** #define _LV_COLOR_HAS_MODERN_CPP 0
  91:lvgl/src/draw/../misc/lv_color.h **** #endif
  92:lvgl/src/draw/../misc/lv_color.h **** 
  93:lvgl/src/draw/../misc/lv_color.h **** #if _LV_COLOR_HAS_MODERN_CPP
  94:lvgl/src/draw/../misc/lv_color.h **** /*Fix msvc compiler error C4576 inside C++ code*/
  95:lvgl/src/draw/../misc/lv_color.h **** #define _LV_COLOR_MAKE_TYPE_HELPER lv_color_t
  96:lvgl/src/draw/../misc/lv_color.h **** #else
  97:lvgl/src/draw/../misc/lv_color.h **** #define _LV_COLOR_MAKE_TYPE_HELPER (lv_color_t)
  98:lvgl/src/draw/../misc/lv_color.h **** #endif
  99:lvgl/src/draw/../misc/lv_color.h **** 
 100:lvgl/src/draw/../misc/lv_color.h **** /*---------------------------------------
 101:lvgl/src/draw/../misc/lv_color.h ****  * Macros for all existing color depths
 102:lvgl/src/draw/../misc/lv_color.h ****  * to set/get values of the color channels
ARM GAS  /var/folders/21/t9g5rlb91ys800n5npymflf80000gn/T//cc4qd6Tv.s 			page 13


 103:lvgl/src/draw/../misc/lv_color.h ****  *------------------------------------------*/
 104:lvgl/src/draw/../misc/lv_color.h **** # define LV_COLOR_SET_R1(c, v) (c).ch.red = (uint8_t)((v) & 0x1)
 105:lvgl/src/draw/../misc/lv_color.h **** # define LV_COLOR_SET_G1(c, v) (c).ch.green = (uint8_t)((v) & 0x1)
 106:lvgl/src/draw/../misc/lv_color.h **** # define LV_COLOR_SET_B1(c, v) (c).ch.blue = (uint8_t)((v) & 0x1)
 107:lvgl/src/draw/../misc/lv_color.h **** # define LV_COLOR_SET_A1(c, v) do {} while(0)
 108:lvgl/src/draw/../misc/lv_color.h **** 
 109:lvgl/src/draw/../misc/lv_color.h **** # define LV_COLOR_GET_R1(c) (c).ch.red
 110:lvgl/src/draw/../misc/lv_color.h **** # define LV_COLOR_GET_G1(c) (c).ch.green
 111:lvgl/src/draw/../misc/lv_color.h **** # define LV_COLOR_GET_B1(c) (c).ch.blue
 112:lvgl/src/draw/../misc/lv_color.h **** # define LV_COLOR_GET_A1(c) 0xFF
 113:lvgl/src/draw/../misc/lv_color.h **** 
 114:lvgl/src/draw/../misc/lv_color.h **** # define _LV_COLOR_ZERO_INITIALIZER1 {0x00}
 115:lvgl/src/draw/../misc/lv_color.h **** # define LV_COLOR_MAKE1(r8, g8, b8)  {(uint8_t)((b8 >> 7) | (g8 >> 7) | (r8 >> 7))}
 116:lvgl/src/draw/../misc/lv_color.h **** 
 117:lvgl/src/draw/../misc/lv_color.h **** # define LV_COLOR_SET_R8(c, v) (c).ch.red = (uint8_t)((v) & 0x7U)
 118:lvgl/src/draw/../misc/lv_color.h **** # define LV_COLOR_SET_G8(c, v) (c).ch.green = (uint8_t)((v) & 0x7U)
 119:lvgl/src/draw/../misc/lv_color.h **** # define LV_COLOR_SET_B8(c, v) (c).ch.blue = (uint8_t)((v) & 0x3U)
 120:lvgl/src/draw/../misc/lv_color.h **** # define LV_COLOR_SET_A8(c, v) do {} while(0)
 121:lvgl/src/draw/../misc/lv_color.h **** 
 122:lvgl/src/draw/../misc/lv_color.h **** # define LV_COLOR_GET_R8(c) (c).ch.red
 123:lvgl/src/draw/../misc/lv_color.h **** # define LV_COLOR_GET_G8(c) (c).ch.green
 124:lvgl/src/draw/../misc/lv_color.h **** # define LV_COLOR_GET_B8(c) (c).ch.blue
 125:lvgl/src/draw/../misc/lv_color.h **** # define LV_COLOR_GET_A8(c) 0xFF
 126:lvgl/src/draw/../misc/lv_color.h **** 
 127:lvgl/src/draw/../misc/lv_color.h **** # define _LV_COLOR_ZERO_INITIALIZER8 {{0x00, 0x00, 0x00}}
 128:lvgl/src/draw/../misc/lv_color.h **** # define LV_COLOR_MAKE8(r8, g8, b8) {{(uint8_t)((b8 >> 6) & 0x3U), (uint8_t)((g8 >> 5) & 0x7U), (ui
 129:lvgl/src/draw/../misc/lv_color.h **** 
 130:lvgl/src/draw/../misc/lv_color.h **** # define LV_COLOR_SET_R16(c, v) (c).ch.red = (uint8_t)((v) & 0x1FU)
 131:lvgl/src/draw/../misc/lv_color.h **** #if LV_COLOR_16_SWAP == 0
 132:lvgl/src/draw/../misc/lv_color.h **** # define LV_COLOR_SET_G16(c, v) (c).ch.green = (uint8_t)((v) & 0x3FU)
 133:lvgl/src/draw/../misc/lv_color.h **** #else
 134:lvgl/src/draw/../misc/lv_color.h **** # define LV_COLOR_SET_G16(c, v) {(c).ch.green_h = (uint8_t)(((v) >> 3) & 0x7); (c).ch.green_l = (ui
 135:lvgl/src/draw/../misc/lv_color.h **** #endif
 136:lvgl/src/draw/../misc/lv_color.h **** # define LV_COLOR_SET_B16(c, v) (c).ch.blue = (uint8_t)((v) & 0x1FU)
 137:lvgl/src/draw/../misc/lv_color.h **** # define LV_COLOR_SET_A16(c, v) do {} while(0)
 138:lvgl/src/draw/../misc/lv_color.h **** 
 139:lvgl/src/draw/../misc/lv_color.h **** # define LV_COLOR_GET_R16(c) (c).ch.red
 140:lvgl/src/draw/../misc/lv_color.h **** #if LV_COLOR_16_SWAP == 0
 141:lvgl/src/draw/../misc/lv_color.h **** # define LV_COLOR_GET_G16(c) (c).ch.green
 142:lvgl/src/draw/../misc/lv_color.h **** #else
 143:lvgl/src/draw/../misc/lv_color.h **** # define LV_COLOR_GET_G16(c) (((c).ch.green_h << 3) + (c).ch.green_l)
 144:lvgl/src/draw/../misc/lv_color.h **** #endif
 145:lvgl/src/draw/../misc/lv_color.h **** # define LV_COLOR_GET_B16(c) (c).ch.blue
 146:lvgl/src/draw/../misc/lv_color.h **** # define LV_COLOR_GET_A16(c) 0xFF
 147:lvgl/src/draw/../misc/lv_color.h **** 
 148:lvgl/src/draw/../misc/lv_color.h **** #if LV_COLOR_16_SWAP == 0
 149:lvgl/src/draw/../misc/lv_color.h **** # define _LV_COLOR_ZERO_INITIALIZER16  {{0x00, 0x00, 0x00}}
 150:lvgl/src/draw/../misc/lv_color.h **** # define LV_COLOR_MAKE16(r8, g8, b8) {{(uint8_t)((b8 >> 3) & 0x1FU), (uint8_t)((g8 >> 2) & 0x3FU), 
 151:lvgl/src/draw/../misc/lv_color.h **** #else
 152:lvgl/src/draw/../misc/lv_color.h **** # define _LV_COLOR_ZERO_INITIALIZER16 {{0x00, 0x00, 0x00, 0x00}}
 153:lvgl/src/draw/../misc/lv_color.h **** # define LV_COLOR_MAKE16(r8, g8, b8) {{(uint8_t)((g8 >> 5) & 0x7U), (uint8_t)((r8 >> 3) & 0x1FU), (
 154:lvgl/src/draw/../misc/lv_color.h **** #endif
 155:lvgl/src/draw/../misc/lv_color.h **** 
 156:lvgl/src/draw/../misc/lv_color.h **** # define LV_COLOR_SET_R32(c, v) (c).ch.red = (uint8_t)((v) & 0xFF)
 157:lvgl/src/draw/../misc/lv_color.h **** # define LV_COLOR_SET_G32(c, v) (c).ch.green = (uint8_t)((v) & 0xFF)
 158:lvgl/src/draw/../misc/lv_color.h **** # define LV_COLOR_SET_B32(c, v) (c).ch.blue = (uint8_t)((v) & 0xFF)
 159:lvgl/src/draw/../misc/lv_color.h **** # define LV_COLOR_SET_A32(c, v) (c).ch.alpha = (uint8_t)((v) & 0xFF)
ARM GAS  /var/folders/21/t9g5rlb91ys800n5npymflf80000gn/T//cc4qd6Tv.s 			page 14


 160:lvgl/src/draw/../misc/lv_color.h **** 
 161:lvgl/src/draw/../misc/lv_color.h **** # define LV_COLOR_GET_R32(c) (c).ch.red
 162:lvgl/src/draw/../misc/lv_color.h **** # define LV_COLOR_GET_G32(c) (c).ch.green
 163:lvgl/src/draw/../misc/lv_color.h **** # define LV_COLOR_GET_B32(c) (c).ch.blue
 164:lvgl/src/draw/../misc/lv_color.h **** # define LV_COLOR_GET_A32(c) (c).ch.alpha
 165:lvgl/src/draw/../misc/lv_color.h **** 
 166:lvgl/src/draw/../misc/lv_color.h **** # define _LV_COLOR_ZERO_INITIALIZER32  {{0x00, 0x00, 0x00, 0x00}}
 167:lvgl/src/draw/../misc/lv_color.h **** # define LV_COLOR_MAKE32(r8, g8, b8) {{b8, g8, r8, 0xff}} /*Fix 0xff alpha*/
 168:lvgl/src/draw/../misc/lv_color.h **** 
 169:lvgl/src/draw/../misc/lv_color.h **** /*---------------------------------------
 170:lvgl/src/draw/../misc/lv_color.h ****  * Macros for the current color depth
 171:lvgl/src/draw/../misc/lv_color.h ****  * to set/get values of the color channels
 172:lvgl/src/draw/../misc/lv_color.h ****  *------------------------------------------*/
 173:lvgl/src/draw/../misc/lv_color.h **** #define LV_COLOR_SET_R(c, v) LV_CONCAT(LV_COLOR_SET_R, LV_COLOR_DEPTH)(c, v)
 174:lvgl/src/draw/../misc/lv_color.h **** #define LV_COLOR_SET_G(c, v) LV_CONCAT(LV_COLOR_SET_G, LV_COLOR_DEPTH)(c, v)
 175:lvgl/src/draw/../misc/lv_color.h **** #define LV_COLOR_SET_B(c, v) LV_CONCAT(LV_COLOR_SET_B, LV_COLOR_DEPTH)(c, v)
 176:lvgl/src/draw/../misc/lv_color.h **** #define LV_COLOR_SET_A(c, v) LV_CONCAT(LV_COLOR_SET_A, LV_COLOR_DEPTH)(c, v)
 177:lvgl/src/draw/../misc/lv_color.h **** 
 178:lvgl/src/draw/../misc/lv_color.h **** #define LV_COLOR_GET_R(c) LV_CONCAT(LV_COLOR_GET_R, LV_COLOR_DEPTH)(c)
 179:lvgl/src/draw/../misc/lv_color.h **** #define LV_COLOR_GET_G(c) LV_CONCAT(LV_COLOR_GET_G, LV_COLOR_DEPTH)(c)
 180:lvgl/src/draw/../misc/lv_color.h **** #define LV_COLOR_GET_B(c) LV_CONCAT(LV_COLOR_GET_B, LV_COLOR_DEPTH)(c)
 181:lvgl/src/draw/../misc/lv_color.h **** #define LV_COLOR_GET_A(c) LV_CONCAT(LV_COLOR_GET_A, LV_COLOR_DEPTH)(c)
 182:lvgl/src/draw/../misc/lv_color.h **** 
 183:lvgl/src/draw/../misc/lv_color.h **** #define _LV_COLOR_ZERO_INITIALIZER LV_CONCAT(_LV_COLOR_ZERO_INITIALIZER, LV_COLOR_DEPTH)
 184:lvgl/src/draw/../misc/lv_color.h **** #define LV_COLOR_MAKE(r8, g8, b8) LV_CONCAT(LV_COLOR_MAKE, LV_COLOR_DEPTH)(r8, g8, b8)
 185:lvgl/src/draw/../misc/lv_color.h **** 
 186:lvgl/src/draw/../misc/lv_color.h **** /**********************
 187:lvgl/src/draw/../misc/lv_color.h ****  *      TYPEDEFS
 188:lvgl/src/draw/../misc/lv_color.h ****  **********************/
 189:lvgl/src/draw/../misc/lv_color.h **** 
 190:lvgl/src/draw/../misc/lv_color.h **** typedef union {
 191:lvgl/src/draw/../misc/lv_color.h ****     uint8_t full; /*must be declared first to set all bits of byte via initializer list*/
 192:lvgl/src/draw/../misc/lv_color.h ****     union {
 193:lvgl/src/draw/../misc/lv_color.h ****         uint8_t blue : 1;
 194:lvgl/src/draw/../misc/lv_color.h ****         uint8_t green : 1;
 195:lvgl/src/draw/../misc/lv_color.h ****         uint8_t red : 1;
 196:lvgl/src/draw/../misc/lv_color.h ****     } ch;
 197:lvgl/src/draw/../misc/lv_color.h **** } lv_color1_t;
 198:lvgl/src/draw/../misc/lv_color.h **** 
 199:lvgl/src/draw/../misc/lv_color.h **** typedef union {
 200:lvgl/src/draw/../misc/lv_color.h ****     struct {
 201:lvgl/src/draw/../misc/lv_color.h ****         uint8_t blue : 2;
 202:lvgl/src/draw/../misc/lv_color.h ****         uint8_t green : 3;
 203:lvgl/src/draw/../misc/lv_color.h ****         uint8_t red : 3;
 204:lvgl/src/draw/../misc/lv_color.h ****     } ch;
 205:lvgl/src/draw/../misc/lv_color.h ****     uint8_t full;
 206:lvgl/src/draw/../misc/lv_color.h **** } lv_color8_t;
 207:lvgl/src/draw/../misc/lv_color.h **** 
 208:lvgl/src/draw/../misc/lv_color.h **** typedef union {
 209:lvgl/src/draw/../misc/lv_color.h ****     struct {
 210:lvgl/src/draw/../misc/lv_color.h **** #if LV_COLOR_16_SWAP == 0
 211:lvgl/src/draw/../misc/lv_color.h ****         uint16_t blue : 5;
 212:lvgl/src/draw/../misc/lv_color.h ****         uint16_t green : 6;
 213:lvgl/src/draw/../misc/lv_color.h ****         uint16_t red : 5;
 214:lvgl/src/draw/../misc/lv_color.h **** #else
 215:lvgl/src/draw/../misc/lv_color.h ****         uint16_t green_h : 3;
 216:lvgl/src/draw/../misc/lv_color.h ****         uint16_t red : 5;
ARM GAS  /var/folders/21/t9g5rlb91ys800n5npymflf80000gn/T//cc4qd6Tv.s 			page 15


 217:lvgl/src/draw/../misc/lv_color.h ****         uint16_t blue : 5;
 218:lvgl/src/draw/../misc/lv_color.h ****         uint16_t green_l : 3;
 219:lvgl/src/draw/../misc/lv_color.h **** #endif
 220:lvgl/src/draw/../misc/lv_color.h ****     } ch;
 221:lvgl/src/draw/../misc/lv_color.h ****     uint16_t full;
 222:lvgl/src/draw/../misc/lv_color.h **** } lv_color16_t;
 223:lvgl/src/draw/../misc/lv_color.h **** 
 224:lvgl/src/draw/../misc/lv_color.h **** typedef union {
 225:lvgl/src/draw/../misc/lv_color.h ****     struct {
 226:lvgl/src/draw/../misc/lv_color.h ****         uint8_t blue;
 227:lvgl/src/draw/../misc/lv_color.h ****         uint8_t green;
 228:lvgl/src/draw/../misc/lv_color.h ****         uint8_t red;
 229:lvgl/src/draw/../misc/lv_color.h ****         uint8_t alpha;
 230:lvgl/src/draw/../misc/lv_color.h ****     } ch;
 231:lvgl/src/draw/../misc/lv_color.h ****     uint32_t full;
 232:lvgl/src/draw/../misc/lv_color.h **** } lv_color32_t;
 233:lvgl/src/draw/../misc/lv_color.h **** 
 234:lvgl/src/draw/../misc/lv_color.h **** typedef LV_CONCAT3(uint, LV_COLOR_SIZE, _t) lv_color_int_t;
 235:lvgl/src/draw/../misc/lv_color.h **** typedef LV_CONCAT3(lv_color, LV_COLOR_DEPTH, _t) lv_color_t;
 236:lvgl/src/draw/../misc/lv_color.h **** 
 237:lvgl/src/draw/../misc/lv_color.h **** typedef struct {
 238:lvgl/src/draw/../misc/lv_color.h ****     uint16_t h;
 239:lvgl/src/draw/../misc/lv_color.h ****     uint8_t s;
 240:lvgl/src/draw/../misc/lv_color.h ****     uint8_t v;
 241:lvgl/src/draw/../misc/lv_color.h **** } lv_color_hsv_t;
 242:lvgl/src/draw/../misc/lv_color.h **** 
 243:lvgl/src/draw/../misc/lv_color.h **** //! @cond Doxygen_Suppress
 244:lvgl/src/draw/../misc/lv_color.h **** /*No idea where the guard is required but else throws warnings in the docs*/
 245:lvgl/src/draw/../misc/lv_color.h **** typedef uint8_t lv_opa_t;
 246:lvgl/src/draw/../misc/lv_color.h **** //! @endcond
 247:lvgl/src/draw/../misc/lv_color.h **** 
 248:lvgl/src/draw/../misc/lv_color.h **** struct _lv_color_filter_dsc_t;
 249:lvgl/src/draw/../misc/lv_color.h **** 
 250:lvgl/src/draw/../misc/lv_color.h **** typedef lv_color_t (*lv_color_filter_cb_t)(const struct _lv_color_filter_dsc_t *, lv_color_t, lv_op
 251:lvgl/src/draw/../misc/lv_color.h **** 
 252:lvgl/src/draw/../misc/lv_color.h **** typedef struct _lv_color_filter_dsc_t {
 253:lvgl/src/draw/../misc/lv_color.h ****     lv_color_filter_cb_t filter_cb;
 254:lvgl/src/draw/../misc/lv_color.h ****     void * user_data;
 255:lvgl/src/draw/../misc/lv_color.h **** } lv_color_filter_dsc_t;
 256:lvgl/src/draw/../misc/lv_color.h **** 
 257:lvgl/src/draw/../misc/lv_color.h **** typedef enum {
 258:lvgl/src/draw/../misc/lv_color.h ****     LV_PALETTE_RED,
 259:lvgl/src/draw/../misc/lv_color.h ****     LV_PALETTE_PINK,
 260:lvgl/src/draw/../misc/lv_color.h ****     LV_PALETTE_PURPLE,
 261:lvgl/src/draw/../misc/lv_color.h ****     LV_PALETTE_DEEP_PURPLE,
 262:lvgl/src/draw/../misc/lv_color.h ****     LV_PALETTE_INDIGO,
 263:lvgl/src/draw/../misc/lv_color.h ****     LV_PALETTE_BLUE,
 264:lvgl/src/draw/../misc/lv_color.h ****     LV_PALETTE_LIGHT_BLUE,
 265:lvgl/src/draw/../misc/lv_color.h ****     LV_PALETTE_CYAN,
 266:lvgl/src/draw/../misc/lv_color.h ****     LV_PALETTE_TEAL,
 267:lvgl/src/draw/../misc/lv_color.h ****     LV_PALETTE_GREEN,
 268:lvgl/src/draw/../misc/lv_color.h ****     LV_PALETTE_LIGHT_GREEN,
 269:lvgl/src/draw/../misc/lv_color.h ****     LV_PALETTE_LIME,
 270:lvgl/src/draw/../misc/lv_color.h ****     LV_PALETTE_YELLOW,
 271:lvgl/src/draw/../misc/lv_color.h ****     LV_PALETTE_AMBER,
 272:lvgl/src/draw/../misc/lv_color.h ****     LV_PALETTE_ORANGE,
 273:lvgl/src/draw/../misc/lv_color.h ****     LV_PALETTE_DEEP_ORANGE,
ARM GAS  /var/folders/21/t9g5rlb91ys800n5npymflf80000gn/T//cc4qd6Tv.s 			page 16


 274:lvgl/src/draw/../misc/lv_color.h ****     LV_PALETTE_BROWN,
 275:lvgl/src/draw/../misc/lv_color.h ****     LV_PALETTE_BLUE_GREY,
 276:lvgl/src/draw/../misc/lv_color.h ****     LV_PALETTE_GREY,
 277:lvgl/src/draw/../misc/lv_color.h ****     _LV_PALETTE_LAST,
 278:lvgl/src/draw/../misc/lv_color.h ****     LV_PALETTE_NONE = 0xff,
 279:lvgl/src/draw/../misc/lv_color.h **** } lv_palette_t;
 280:lvgl/src/draw/../misc/lv_color.h **** 
 281:lvgl/src/draw/../misc/lv_color.h **** /**********************
 282:lvgl/src/draw/../misc/lv_color.h ****  * GLOBAL PROTOTYPES
 283:lvgl/src/draw/../misc/lv_color.h ****  **********************/
 284:lvgl/src/draw/../misc/lv_color.h **** 
 285:lvgl/src/draw/../misc/lv_color.h **** /*In color conversations:
 286:lvgl/src/draw/../misc/lv_color.h ****  * - When converting to bigger color type the LSB weight of 1 LSB is calculated
 287:lvgl/src/draw/../misc/lv_color.h ****  *   E.g. 16 bit Red has 5 bits
 288:lvgl/src/draw/../misc/lv_color.h ****  *         8 bit Red has 3 bits
 289:lvgl/src/draw/../misc/lv_color.h ****  *        ----------------------
 290:lvgl/src/draw/../misc/lv_color.h ****  *        8 bit red LSB = (2^5 - 1) / (2^3 - 1) = 31 / 7 = 4
 291:lvgl/src/draw/../misc/lv_color.h ****  *
 292:lvgl/src/draw/../misc/lv_color.h ****  * - When calculating to smaller color type simply shift out the LSBs
 293:lvgl/src/draw/../misc/lv_color.h ****  *   E.g.  8 bit Red has 3 bits
 294:lvgl/src/draw/../misc/lv_color.h ****  *        16 bit Red has 5 bits
 295:lvgl/src/draw/../misc/lv_color.h ****  *        ----------------------
 296:lvgl/src/draw/../misc/lv_color.h ****  *         Shift right with 5 - 3 = 2
 297:lvgl/src/draw/../misc/lv_color.h ****  */
 298:lvgl/src/draw/../misc/lv_color.h **** static inline uint8_t lv_color_to1(lv_color_t color)
 299:lvgl/src/draw/../misc/lv_color.h **** {
 300:lvgl/src/draw/../misc/lv_color.h **** #if LV_COLOR_DEPTH == 1
 301:lvgl/src/draw/../misc/lv_color.h ****     return color.full;
 302:lvgl/src/draw/../misc/lv_color.h **** #elif LV_COLOR_DEPTH == 8
 303:lvgl/src/draw/../misc/lv_color.h ****     if((LV_COLOR_GET_R(color) & 0x4) || (LV_COLOR_GET_G(color) & 0x4) || (LV_COLOR_GET_B(color) & 0
 304:lvgl/src/draw/../misc/lv_color.h ****         return 1;
 305:lvgl/src/draw/../misc/lv_color.h ****     }
 306:lvgl/src/draw/../misc/lv_color.h ****     else {
 307:lvgl/src/draw/../misc/lv_color.h ****         return 0;
 308:lvgl/src/draw/../misc/lv_color.h ****     }
 309:lvgl/src/draw/../misc/lv_color.h **** #elif LV_COLOR_DEPTH == 16
 310:lvgl/src/draw/../misc/lv_color.h ****     if((LV_COLOR_GET_R(color) & 0x10) || (LV_COLOR_GET_G(color) & 0x20) || (LV_COLOR_GET_B(color) &
 311:lvgl/src/draw/../misc/lv_color.h ****         return 1;
 312:lvgl/src/draw/../misc/lv_color.h ****     }
 313:lvgl/src/draw/../misc/lv_color.h ****     else {
 314:lvgl/src/draw/../misc/lv_color.h ****         return 0;
 315:lvgl/src/draw/../misc/lv_color.h ****     }
 316:lvgl/src/draw/../misc/lv_color.h **** #elif LV_COLOR_DEPTH == 32
 317:lvgl/src/draw/../misc/lv_color.h ****     if((LV_COLOR_GET_R(color) & 0x80) || (LV_COLOR_GET_G(color) & 0x80) || (LV_COLOR_GET_B(color) &
 318:lvgl/src/draw/../misc/lv_color.h ****         return 1;
 319:lvgl/src/draw/../misc/lv_color.h ****     }
 320:lvgl/src/draw/../misc/lv_color.h ****     else {
 321:lvgl/src/draw/../misc/lv_color.h ****         return 0;
 322:lvgl/src/draw/../misc/lv_color.h ****     }
 323:lvgl/src/draw/../misc/lv_color.h **** #endif
 324:lvgl/src/draw/../misc/lv_color.h **** }
 325:lvgl/src/draw/../misc/lv_color.h **** 
 326:lvgl/src/draw/../misc/lv_color.h **** static inline uint8_t lv_color_to8(lv_color_t color)
 327:lvgl/src/draw/../misc/lv_color.h **** {
 328:lvgl/src/draw/../misc/lv_color.h **** #if LV_COLOR_DEPTH == 1
 329:lvgl/src/draw/../misc/lv_color.h ****     if(color.full == 0)
 330:lvgl/src/draw/../misc/lv_color.h ****         return 0;
ARM GAS  /var/folders/21/t9g5rlb91ys800n5npymflf80000gn/T//cc4qd6Tv.s 			page 17


 331:lvgl/src/draw/../misc/lv_color.h ****     else
 332:lvgl/src/draw/../misc/lv_color.h ****         return 0xFF;
 333:lvgl/src/draw/../misc/lv_color.h **** #elif LV_COLOR_DEPTH == 8
 334:lvgl/src/draw/../misc/lv_color.h ****     return color.full;
 335:lvgl/src/draw/../misc/lv_color.h **** #elif LV_COLOR_DEPTH == 16
 336:lvgl/src/draw/../misc/lv_color.h ****     lv_color8_t ret;
 337:lvgl/src/draw/../misc/lv_color.h ****     LV_COLOR_SET_R8(ret, LV_COLOR_GET_R(color) >> 2); /*5 - 3  = 2*/
 338:lvgl/src/draw/../misc/lv_color.h ****     LV_COLOR_SET_G8(ret, LV_COLOR_GET_G(color) >> 3); /*6 - 3  = 3*/
 339:lvgl/src/draw/../misc/lv_color.h ****     LV_COLOR_SET_B8(ret, LV_COLOR_GET_B(color) >> 3); /*5 - 2  = 3*/
 340:lvgl/src/draw/../misc/lv_color.h ****     return ret.full;
 341:lvgl/src/draw/../misc/lv_color.h **** #elif LV_COLOR_DEPTH == 32
 342:lvgl/src/draw/../misc/lv_color.h ****     lv_color8_t ret;
 343:lvgl/src/draw/../misc/lv_color.h ****     LV_COLOR_SET_R8(ret, LV_COLOR_GET_R(color) >> 5); /*8 - 3  = 5*/
 344:lvgl/src/draw/../misc/lv_color.h ****     LV_COLOR_SET_G8(ret, LV_COLOR_GET_G(color) >> 5); /*8 - 3  = 5*/
 345:lvgl/src/draw/../misc/lv_color.h ****     LV_COLOR_SET_B8(ret, LV_COLOR_GET_B(color) >> 6); /*8 - 2  = 6*/
 346:lvgl/src/draw/../misc/lv_color.h ****     return ret.full;
 347:lvgl/src/draw/../misc/lv_color.h **** #endif
 348:lvgl/src/draw/../misc/lv_color.h **** }
 349:lvgl/src/draw/../misc/lv_color.h **** 
 350:lvgl/src/draw/../misc/lv_color.h **** static inline uint16_t lv_color_to16(lv_color_t color)
 351:lvgl/src/draw/../misc/lv_color.h **** {
 352:lvgl/src/draw/../misc/lv_color.h **** #if LV_COLOR_DEPTH == 1
 353:lvgl/src/draw/../misc/lv_color.h ****     if(color.full == 0)
 354:lvgl/src/draw/../misc/lv_color.h ****         return 0;
 355:lvgl/src/draw/../misc/lv_color.h ****     else
 356:lvgl/src/draw/../misc/lv_color.h ****         return 0xFFFF;
 357:lvgl/src/draw/../misc/lv_color.h **** #elif LV_COLOR_DEPTH == 8
 358:lvgl/src/draw/../misc/lv_color.h ****     lv_color16_t ret;
 359:lvgl/src/draw/../misc/lv_color.h ****     LV_COLOR_SET_R16(ret, LV_COLOR_GET_R(color) * 4);  /*(2^5 - 1)/(2^3 - 1) = 31/7 = 4*/
 360:lvgl/src/draw/../misc/lv_color.h ****     LV_COLOR_SET_G16(ret, LV_COLOR_GET_G(color) * 9);  /*(2^6 - 1)/(2^3 - 1) = 63/7 = 9*/
 361:lvgl/src/draw/../misc/lv_color.h ****     LV_COLOR_SET_B16(ret, LV_COLOR_GET_B(color) * 10); /*(2^5 - 1)/(2^2 - 1) = 31/3 = 10*/
 362:lvgl/src/draw/../misc/lv_color.h ****     return ret.full;
 363:lvgl/src/draw/../misc/lv_color.h **** #elif LV_COLOR_DEPTH == 16
 364:lvgl/src/draw/../misc/lv_color.h ****     return color.full;
 365:lvgl/src/draw/../misc/lv_color.h **** #elif LV_COLOR_DEPTH == 32
 366:lvgl/src/draw/../misc/lv_color.h ****     lv_color16_t ret;
 367:lvgl/src/draw/../misc/lv_color.h ****     LV_COLOR_SET_R16(ret, LV_COLOR_GET_R(color) >> 3); /*8 - 5  = 3*/
 368:lvgl/src/draw/../misc/lv_color.h ****     LV_COLOR_SET_G16(ret, LV_COLOR_GET_G(color) >> 2); /*8 - 6  = 2*/
 369:lvgl/src/draw/../misc/lv_color.h ****     LV_COLOR_SET_B16(ret, LV_COLOR_GET_B(color) >> 3); /*8 - 5  = 3*/
 370:lvgl/src/draw/../misc/lv_color.h ****     return ret.full;
 371:lvgl/src/draw/../misc/lv_color.h **** #endif
 372:lvgl/src/draw/../misc/lv_color.h **** }
 373:lvgl/src/draw/../misc/lv_color.h **** 
 374:lvgl/src/draw/../misc/lv_color.h **** static inline uint32_t lv_color_to32(lv_color_t color)
 375:lvgl/src/draw/../misc/lv_color.h **** {
 376:lvgl/src/draw/../misc/lv_color.h **** #if LV_COLOR_DEPTH == 1
 377:lvgl/src/draw/../misc/lv_color.h ****     if(color.full == 0)
 378:lvgl/src/draw/../misc/lv_color.h ****         return 0xFF000000;
 379:lvgl/src/draw/../misc/lv_color.h ****     else
 380:lvgl/src/draw/../misc/lv_color.h ****         return 0xFFFFFFFF;
 381:lvgl/src/draw/../misc/lv_color.h **** #elif LV_COLOR_DEPTH == 8
 382:lvgl/src/draw/../misc/lv_color.h ****     lv_color32_t ret;
 383:lvgl/src/draw/../misc/lv_color.h ****     LV_COLOR_SET_R32(ret, LV_COLOR_GET_R(color) * 36); /*(2^8 - 1)/(2^3 - 1) = 255/7 = 36*/
 384:lvgl/src/draw/../misc/lv_color.h ****     LV_COLOR_SET_G32(ret, LV_COLOR_GET_G(color) * 36); /*(2^8 - 1)/(2^3 - 1) = 255/7 = 36*/
 385:lvgl/src/draw/../misc/lv_color.h ****     LV_COLOR_SET_B32(ret, LV_COLOR_GET_B(color) * 85); /*(2^8 - 1)/(2^2 - 1) = 255/3 = 85*/
 386:lvgl/src/draw/../misc/lv_color.h ****     LV_COLOR_SET_A32(ret, 0xFF);
 387:lvgl/src/draw/../misc/lv_color.h ****     return ret.full;
ARM GAS  /var/folders/21/t9g5rlb91ys800n5npymflf80000gn/T//cc4qd6Tv.s 			page 18


 388:lvgl/src/draw/../misc/lv_color.h **** #elif LV_COLOR_DEPTH == 16
 389:lvgl/src/draw/../misc/lv_color.h ****     /**
 390:lvgl/src/draw/../misc/lv_color.h ****      * The floating point math for conversion is:
 391:lvgl/src/draw/../misc/lv_color.h ****      *  valueto = valuefrom * ( (2^bitsto - 1) / (float)(2^bitsfrom - 1) )
 392:lvgl/src/draw/../misc/lv_color.h ****      * The faster integer math for conversion is:
 393:lvgl/src/draw/../misc/lv_color.h ****      *  valueto = ( valuefrom * multiplier + adder ) >> divisor
 394:lvgl/src/draw/../misc/lv_color.h ****      *   multiplier = FLOOR( ( (2^bitsto - 1) << divisor ) / (float)(2^bitsfrom - 1) )
 395:lvgl/src/draw/../misc/lv_color.h ****      *
 396:lvgl/src/draw/../misc/lv_color.h ****      * Find the first divisor where ( adder >> divisor ) <= 0
 397:lvgl/src/draw/../misc/lv_color.h ****      *
 398:lvgl/src/draw/../misc/lv_color.h ****      * 5-bit to 8-bit: ( 31 * multiplier + adder ) >> divisor = 255
 399:lvgl/src/draw/../misc/lv_color.h ****      * divisor  multiplier  adder  min (0)  max (31)
 400:lvgl/src/draw/../misc/lv_color.h ****      *       0           8      7        7       255
 401:lvgl/src/draw/../misc/lv_color.h ****      *       1          16     14        7       255
 402:lvgl/src/draw/../misc/lv_color.h ****      *       2          32     28        7       255
 403:lvgl/src/draw/../misc/lv_color.h ****      *       3          65     25        3       255
 404:lvgl/src/draw/../misc/lv_color.h ****      *       4         131     19        1       255
 405:lvgl/src/draw/../misc/lv_color.h ****      *       5         263      7        0       255
 406:lvgl/src/draw/../misc/lv_color.h ****      *
 407:lvgl/src/draw/../misc/lv_color.h ****      * 6-bit to 8-bit: 255 = ( 63 * multiplier + adder ) >> divisor
 408:lvgl/src/draw/../misc/lv_color.h ****      * divisor  multiplier  adder  min (0)  max (63)
 409:lvgl/src/draw/../misc/lv_color.h ****      *       0           4      3        3       255
 410:lvgl/src/draw/../misc/lv_color.h ****      *       1           8      6        3       255
 411:lvgl/src/draw/../misc/lv_color.h ****      *       2          16     12        3       255
 412:lvgl/src/draw/../misc/lv_color.h ****      *       3          32     24        3       255
 413:lvgl/src/draw/../misc/lv_color.h ****      *       4          64     48        3       255
 414:lvgl/src/draw/../misc/lv_color.h ****      *       5         129     33        1       255
 415:lvgl/src/draw/../misc/lv_color.h ****      *       6         259      3        0       255
 416:lvgl/src/draw/../misc/lv_color.h ****      */
 417:lvgl/src/draw/../misc/lv_color.h **** 
 418:lvgl/src/draw/../misc/lv_color.h ****     lv_color32_t ret;
 419:lvgl/src/draw/../misc/lv_color.h ****     LV_COLOR_SET_R32(ret, (LV_COLOR_GET_R(color) * 263 + 7) >> 5);
 420:lvgl/src/draw/../misc/lv_color.h ****     LV_COLOR_SET_G32(ret, (LV_COLOR_GET_G(color) * 259 + 3) >> 6);
 421:lvgl/src/draw/../misc/lv_color.h ****     LV_COLOR_SET_B32(ret, (LV_COLOR_GET_B(color) * 263 + 7) >> 5);
 422:lvgl/src/draw/../misc/lv_color.h ****     LV_COLOR_SET_A32(ret, 0xFF);
 423:lvgl/src/draw/../misc/lv_color.h ****     return ret.full;
 424:lvgl/src/draw/../misc/lv_color.h **** #elif LV_COLOR_DEPTH == 32
 425:lvgl/src/draw/../misc/lv_color.h ****     return color.full;
 426:lvgl/src/draw/../misc/lv_color.h **** #endif
 427:lvgl/src/draw/../misc/lv_color.h **** }
 428:lvgl/src/draw/../misc/lv_color.h **** 
 429:lvgl/src/draw/../misc/lv_color.h **** //! @cond Doxygen_Suppress
 430:lvgl/src/draw/../misc/lv_color.h **** 
 431:lvgl/src/draw/../misc/lv_color.h **** /**
 432:lvgl/src/draw/../misc/lv_color.h ****  * Mix two colors with a given ratio.
 433:lvgl/src/draw/../misc/lv_color.h ****  * @param c1 the first color to mix (usually the foreground)
 434:lvgl/src/draw/../misc/lv_color.h ****  * @param c2 the second color to mix (usually the background)
 435:lvgl/src/draw/../misc/lv_color.h ****  * @param mix The ratio of the colors. 0: full `c2`, 255: full `c1`, 127: half `c1` and half`c2`
 436:lvgl/src/draw/../misc/lv_color.h ****  * @return the mixed color
 437:lvgl/src/draw/../misc/lv_color.h ****  */
 438:lvgl/src/draw/../misc/lv_color.h **** static inline lv_color_t LV_ATTRIBUTE_FAST_MEM lv_color_mix(lv_color_t c1, lv_color_t c2, uint8_t m
 439:lvgl/src/draw/../misc/lv_color.h **** {
 440:lvgl/src/draw/../misc/lv_color.h ****     lv_color_t ret;
 441:lvgl/src/draw/../misc/lv_color.h **** 
 442:lvgl/src/draw/../misc/lv_color.h **** #if LV_COLOR_DEPTH == 16 && LV_COLOR_MIX_ROUND_OFS == 0
 443:lvgl/src/draw/../misc/lv_color.h **** #if LV_COLOR_16_SWAP == 1
 444:lvgl/src/draw/../misc/lv_color.h ****     c1.full = c1.full << 8 | c1.full >> 8;
ARM GAS  /var/folders/21/t9g5rlb91ys800n5npymflf80000gn/T//cc4qd6Tv.s 			page 19


 445:lvgl/src/draw/../misc/lv_color.h ****     c2.full = c2.full << 8 | c2.full >> 8;
 446:lvgl/src/draw/../misc/lv_color.h **** #endif
 447:lvgl/src/draw/../misc/lv_color.h ****     /*Source: https://stackoverflow.com/a/50012418/1999969*/
 448:lvgl/src/draw/../misc/lv_color.h ****     mix = (uint32_t)((uint32_t)mix + 4) >> 3;
 449:lvgl/src/draw/../misc/lv_color.h ****     uint32_t bg = (uint32_t)((uint32_t)c2.full | ((uint32_t)c2.full << 16)) &
 450:lvgl/src/draw/../misc/lv_color.h ****                   0x7E0F81F; /*0b00000111111000001111100000011111*/
 451:lvgl/src/draw/../misc/lv_color.h ****     uint32_t fg = (uint32_t)((uint32_t)c1.full | ((uint32_t)c1.full << 16)) & 0x7E0F81F;
 452:lvgl/src/draw/../misc/lv_color.h ****     uint32_t result = ((((fg - bg) * mix) >> 5) + bg) & 0x7E0F81F;
 453:lvgl/src/draw/../misc/lv_color.h ****     ret.full = (uint16_t)((result >> 16) | result);
 454:lvgl/src/draw/../misc/lv_color.h **** #if LV_COLOR_16_SWAP == 1
 455:lvgl/src/draw/../misc/lv_color.h ****     ret.full = ret.full << 8 | ret.full >> 8;
 456:lvgl/src/draw/../misc/lv_color.h **** #endif
 457:lvgl/src/draw/../misc/lv_color.h **** #elif LV_COLOR_DEPTH != 1
 458:lvgl/src/draw/../misc/lv_color.h ****     /*LV_COLOR_DEPTH == 8, 16 or 32*/
 459:lvgl/src/draw/../misc/lv_color.h ****     LV_COLOR_SET_R(ret, LV_UDIV255((uint16_t)LV_COLOR_GET_R(c1) * mix + LV_COLOR_GET_R(c2) *
 460:lvgl/src/draw/../misc/lv_color.h ****                                    (255 - mix) + LV_COLOR_MIX_ROUND_OFS));
 461:lvgl/src/draw/../misc/lv_color.h ****     LV_COLOR_SET_G(ret, LV_UDIV255((uint16_t)LV_COLOR_GET_G(c1) * mix + LV_COLOR_GET_G(c2) *
 462:lvgl/src/draw/../misc/lv_color.h ****                                    (255 - mix) + LV_COLOR_MIX_ROUND_OFS));
 463:lvgl/src/draw/../misc/lv_color.h ****     LV_COLOR_SET_B(ret, LV_UDIV255((uint16_t)LV_COLOR_GET_B(c1) * mix + LV_COLOR_GET_B(c2) *
 464:lvgl/src/draw/../misc/lv_color.h ****                                    (255 - mix) + LV_COLOR_MIX_ROUND_OFS));
 465:lvgl/src/draw/../misc/lv_color.h ****     LV_COLOR_SET_A(ret, 0xFF);
 466:lvgl/src/draw/../misc/lv_color.h **** #else
 467:lvgl/src/draw/../misc/lv_color.h ****     /*LV_COLOR_DEPTH == 1*/
 468:lvgl/src/draw/../misc/lv_color.h ****     ret.full = mix > LV_OPA_50 ? c1.full : c2.full;
 469:lvgl/src/draw/../misc/lv_color.h **** #endif
 470:lvgl/src/draw/../misc/lv_color.h **** 
 471:lvgl/src/draw/../misc/lv_color.h ****     return ret;
 472:lvgl/src/draw/../misc/lv_color.h **** }
 473:lvgl/src/draw/../misc/lv_color.h **** 
 474:lvgl/src/draw/../misc/lv_color.h **** static inline void LV_ATTRIBUTE_FAST_MEM lv_color_premult(lv_color_t c, uint8_t mix, uint16_t * out
 475:lvgl/src/draw/../misc/lv_color.h **** {
 476:lvgl/src/draw/../misc/lv_color.h **** #if LV_COLOR_DEPTH != 1
 477:lvgl/src/draw/../misc/lv_color.h ****     out[0] = (uint16_t)LV_COLOR_GET_R(c) * mix;
 478:lvgl/src/draw/../misc/lv_color.h ****     out[1] = (uint16_t)LV_COLOR_GET_G(c) * mix;
 479:lvgl/src/draw/../misc/lv_color.h ****     out[2] = (uint16_t)LV_COLOR_GET_B(c) * mix;
 480:lvgl/src/draw/../misc/lv_color.h **** #else
 481:lvgl/src/draw/../misc/lv_color.h ****     (void) mix;
 482:lvgl/src/draw/../misc/lv_color.h ****     /*Pre-multiplication can't be used with 1 bpp*/
 483:lvgl/src/draw/../misc/lv_color.h ****     out[0] = LV_COLOR_GET_R(c);
 484:lvgl/src/draw/../misc/lv_color.h ****     out[1] = LV_COLOR_GET_G(c);
 485:lvgl/src/draw/../misc/lv_color.h ****     out[2] = LV_COLOR_GET_B(c);
 486:lvgl/src/draw/../misc/lv_color.h **** #endif
 487:lvgl/src/draw/../misc/lv_color.h **** 
 488:lvgl/src/draw/../misc/lv_color.h **** }
 489:lvgl/src/draw/../misc/lv_color.h **** 
 490:lvgl/src/draw/../misc/lv_color.h **** /**
 491:lvgl/src/draw/../misc/lv_color.h ****  * Mix two colors with a given ratio. It runs faster then `lv_color_mix` but requires some pre comp
 492:lvgl/src/draw/../misc/lv_color.h ****  * @param premult_c1 The first color. Should be preprocessed with `lv_color_premult(c1)`
 493:lvgl/src/draw/../misc/lv_color.h ****  * @param c2 The second color. As it is no pre computation required on it
 494:lvgl/src/draw/../misc/lv_color.h ****  * @param mix The ratio of the colors. 0: full `c1`, 255: full `c2`, 127: half `c1` and half `c2`.
 495:lvgl/src/draw/../misc/lv_color.h ****  *            Should be modified like mix = `255 - mix`
 496:lvgl/src/draw/../misc/lv_color.h ****  * @return the mixed color
 497:lvgl/src/draw/../misc/lv_color.h ****  * @note 255 won't give clearly `c1`.
 498:lvgl/src/draw/../misc/lv_color.h ****  */
 499:lvgl/src/draw/../misc/lv_color.h **** static inline lv_color_t LV_ATTRIBUTE_FAST_MEM lv_color_mix_premult(uint16_t * premult_c1, lv_color
 500:lvgl/src/draw/../misc/lv_color.h **** {
 501:lvgl/src/draw/../misc/lv_color.h ****     lv_color_t ret;
ARM GAS  /var/folders/21/t9g5rlb91ys800n5npymflf80000gn/T//cc4qd6Tv.s 			page 20


 502:lvgl/src/draw/../misc/lv_color.h **** #if LV_COLOR_DEPTH != 1
 503:lvgl/src/draw/../misc/lv_color.h ****     /*LV_COLOR_DEPTH == 8 or 32*/
 504:lvgl/src/draw/../misc/lv_color.h ****     LV_COLOR_SET_R(ret, LV_UDIV255(premult_c1[0] + LV_COLOR_GET_R(c2) * mix + LV_COLOR_MIX_ROUND_OF
 505:lvgl/src/draw/../misc/lv_color.h ****     LV_COLOR_SET_G(ret, LV_UDIV255(premult_c1[1] + LV_COLOR_GET_G(c2) * mix + LV_COLOR_MIX_ROUND_OF
 506:lvgl/src/draw/../misc/lv_color.h ****     LV_COLOR_SET_B(ret, LV_UDIV255(premult_c1[2] + LV_COLOR_GET_B(c2) * mix + LV_COLOR_MIX_ROUND_OF
 507:lvgl/src/draw/../misc/lv_color.h ****     LV_COLOR_SET_A(ret, 0xFF);
 508:lvgl/src/draw/../misc/lv_color.h **** #else
 509:lvgl/src/draw/../misc/lv_color.h ****     /*LV_COLOR_DEPTH == 1*/
 510:lvgl/src/draw/../misc/lv_color.h ****     /*Restore color1*/
 511:lvgl/src/draw/../misc/lv_color.h ****     lv_color_t c1;
 512:lvgl/src/draw/../misc/lv_color.h ****     LV_COLOR_SET_R(c1, premult_c1[0]);
 513:lvgl/src/draw/../misc/lv_color.h ****     LV_COLOR_SET_G(c1, premult_c1[1]);
 514:lvgl/src/draw/../misc/lv_color.h ****     LV_COLOR_SET_B(c1, premult_c1[2]);
 515:lvgl/src/draw/../misc/lv_color.h ****     ret.full = mix > LV_OPA_50 ? c2.full : c1.full;
 516:lvgl/src/draw/../misc/lv_color.h **** #endif
 517:lvgl/src/draw/../misc/lv_color.h **** 
 518:lvgl/src/draw/../misc/lv_color.h ****     return ret;
 519:lvgl/src/draw/../misc/lv_color.h **** }
 520:lvgl/src/draw/../misc/lv_color.h **** 
 521:lvgl/src/draw/../misc/lv_color.h **** /**
 522:lvgl/src/draw/../misc/lv_color.h ****  * Mix two colors. Both color can have alpha value.
 523:lvgl/src/draw/../misc/lv_color.h ****  * @param bg_color background color
 524:lvgl/src/draw/../misc/lv_color.h ****  * @param bg_opa alpha of the background color
 525:lvgl/src/draw/../misc/lv_color.h ****  * @param fg_color foreground color
 526:lvgl/src/draw/../misc/lv_color.h ****  * @param fg_opa alpha of the foreground color
 527:lvgl/src/draw/../misc/lv_color.h ****  * @param res_color the result color
 528:lvgl/src/draw/../misc/lv_color.h ****  * @param res_opa the result opacity
 529:lvgl/src/draw/../misc/lv_color.h ****  */
 530:lvgl/src/draw/../misc/lv_color.h **** static inline void LV_ATTRIBUTE_FAST_MEM lv_color_mix_with_alpha(lv_color_t bg_color, lv_opa_t bg_o
 531:lvgl/src/draw/../misc/lv_color.h ****                                                                  lv_color_t fg_color, lv_opa_t fg_o
 532:lvgl/src/draw/../misc/lv_color.h ****                                                                  lv_color_t * res_color, lv_opa_t *
 533:lvgl/src/draw/../misc/lv_color.h **** {
 534:lvgl/src/draw/../misc/lv_color.h ****     /*Pick the foreground if it's fully opaque or the Background is fully transparent*/
 535:lvgl/src/draw/../misc/lv_color.h ****     if(fg_opa >= LV_OPA_MAX || bg_opa <= LV_OPA_MIN) {
 536:lvgl/src/draw/../misc/lv_color.h ****         res_color->full = fg_color.full;
 537:lvgl/src/draw/../misc/lv_color.h ****         *res_opa = fg_opa;
 538:lvgl/src/draw/../misc/lv_color.h ****     }
 539:lvgl/src/draw/../misc/lv_color.h ****     /*Transparent foreground: use the Background*/
 540:lvgl/src/draw/../misc/lv_color.h ****     else if(fg_opa <= LV_OPA_MIN) {
 541:lvgl/src/draw/../misc/lv_color.h ****         res_color->full = bg_color.full;
 542:lvgl/src/draw/../misc/lv_color.h ****         *res_opa = bg_opa;
 543:lvgl/src/draw/../misc/lv_color.h ****     }
 544:lvgl/src/draw/../misc/lv_color.h ****     /*Opaque background: use simple mix*/
 545:lvgl/src/draw/../misc/lv_color.h ****     else if(bg_opa >= LV_OPA_MAX) {
 546:lvgl/src/draw/../misc/lv_color.h ****         *res_color = lv_color_mix(fg_color, bg_color, fg_opa);
 547:lvgl/src/draw/../misc/lv_color.h ****         *res_opa = LV_OPA_COVER;
 548:lvgl/src/draw/../misc/lv_color.h ****     }
 549:lvgl/src/draw/../misc/lv_color.h ****     /*Both colors have alpha. Expensive calculation need to be applied*/
 550:lvgl/src/draw/../misc/lv_color.h ****     else {
 551:lvgl/src/draw/../misc/lv_color.h ****         /*Save the parameters and the result. If they will be asked again don't compute again*/
 552:lvgl/src/draw/../misc/lv_color.h ****         static lv_opa_t fg_opa_save     = 0;
 553:lvgl/src/draw/../misc/lv_color.h ****         static lv_opa_t bg_opa_save     = 0;
 554:lvgl/src/draw/../misc/lv_color.h ****         static lv_color_t fg_color_save = _LV_COLOR_ZERO_INITIALIZER;
 555:lvgl/src/draw/../misc/lv_color.h ****         static lv_color_t bg_color_save = _LV_COLOR_ZERO_INITIALIZER;
 556:lvgl/src/draw/../misc/lv_color.h ****         static lv_color_t res_color_saved = _LV_COLOR_ZERO_INITIALIZER;
 557:lvgl/src/draw/../misc/lv_color.h ****         static lv_opa_t res_opa_saved = 0;
 558:lvgl/src/draw/../misc/lv_color.h **** 
ARM GAS  /var/folders/21/t9g5rlb91ys800n5npymflf80000gn/T//cc4qd6Tv.s 			page 21


 559:lvgl/src/draw/../misc/lv_color.h ****         if(fg_opa != fg_opa_save || bg_opa != bg_opa_save || fg_color.full != fg_color_save.full ||
 560:lvgl/src/draw/../misc/lv_color.h ****            bg_color.full != bg_color_save.full) {
 561:lvgl/src/draw/../misc/lv_color.h ****             fg_opa_save        = fg_opa;
 562:lvgl/src/draw/../misc/lv_color.h ****             bg_opa_save        = bg_opa;
 563:lvgl/src/draw/../misc/lv_color.h ****             fg_color_save.full = fg_color.full;
 564:lvgl/src/draw/../misc/lv_color.h ****             bg_color_save.full = bg_color.full;
 565:lvgl/src/draw/../misc/lv_color.h ****             /*Info:
 566:lvgl/src/draw/../misc/lv_color.h ****              * https://en.wikipedia.org/wiki/Alpha_compositing#Analytical_derivation_of_the_over_op
 567:lvgl/src/draw/../misc/lv_color.h ****             res_opa_saved = 255 - ((uint16_t)((uint16_t)(255 - fg_opa) * (255 - bg_opa)) >> 8);
 568:lvgl/src/draw/../misc/lv_color.h ****             LV_ASSERT(res_opa_saved != 0);
 569:lvgl/src/draw/../misc/lv_color.h ****             lv_opa_t ratio = (uint16_t)((uint16_t)fg_opa * 255) / res_opa_saved;
 570:lvgl/src/draw/../misc/lv_color.h ****             res_color_saved = lv_color_mix(fg_color, bg_color, ratio);
 571:lvgl/src/draw/../misc/lv_color.h **** 
 572:lvgl/src/draw/../misc/lv_color.h ****         }
 573:lvgl/src/draw/../misc/lv_color.h **** 
 574:lvgl/src/draw/../misc/lv_color.h ****         res_color->full = res_color_saved.full;
 575:lvgl/src/draw/../misc/lv_color.h ****         *res_opa = res_opa_saved;
 576:lvgl/src/draw/../misc/lv_color.h ****     }
 577:lvgl/src/draw/../misc/lv_color.h **** }
 578:lvgl/src/draw/../misc/lv_color.h **** 
 579:lvgl/src/draw/../misc/lv_color.h **** //! @endcond
 580:lvgl/src/draw/../misc/lv_color.h **** 
 581:lvgl/src/draw/../misc/lv_color.h **** /**
 582:lvgl/src/draw/../misc/lv_color.h ****  * Get the brightness of a color
 583:lvgl/src/draw/../misc/lv_color.h ****  * @param color a color
 584:lvgl/src/draw/../misc/lv_color.h ****  * @return the brightness [0..255]
 585:lvgl/src/draw/../misc/lv_color.h ****  */
 586:lvgl/src/draw/../misc/lv_color.h **** static inline uint8_t lv_color_brightness(lv_color_t color)
 587:lvgl/src/draw/../misc/lv_color.h **** {
 588:lvgl/src/draw/../misc/lv_color.h ****     lv_color32_t c32;
 589:lvgl/src/draw/../misc/lv_color.h ****     c32.full        = lv_color_to32(color);
 590:lvgl/src/draw/../misc/lv_color.h ****     uint16_t bright = (uint16_t)(3u * LV_COLOR_GET_R32(c32) + LV_COLOR_GET_B32(c32) + 4u * LV_COLOR
 591:lvgl/src/draw/../misc/lv_color.h ****     return (uint8_t)(bright >> 3);
 592:lvgl/src/draw/../misc/lv_color.h **** }
 593:lvgl/src/draw/../misc/lv_color.h **** 
 594:lvgl/src/draw/../misc/lv_color.h **** static inline lv_color_t lv_color_make(uint8_t r, uint8_t g, uint8_t b)
 595:lvgl/src/draw/../misc/lv_color.h **** {
 596:lvgl/src/draw/../misc/lv_color.h ****     return _LV_COLOR_MAKE_TYPE_HELPER LV_COLOR_MAKE(r, g, b);
 597:lvgl/src/draw/../misc/lv_color.h **** }
 598:lvgl/src/draw/../misc/lv_color.h **** 
 599:lvgl/src/draw/../misc/lv_color.h **** static inline lv_color_t lv_color_hex(uint32_t c)
 600:lvgl/src/draw/../misc/lv_color.h **** {
 601:lvgl/src/draw/../misc/lv_color.h **** #if LV_COLOR_DEPTH == 16
 602:lvgl/src/draw/../misc/lv_color.h ****     lv_color_t r;
 603:lvgl/src/draw/../misc/lv_color.h **** #if LV_COLOR_16_SWAP == 0
 604:lvgl/src/draw/../misc/lv_color.h ****     /* Convert a 4 bytes per pixel in format ARGB32 to R5G6B5 format
 605:lvgl/src/draw/../misc/lv_color.h ****         naive way (by calling lv_color_make with components):
 606:lvgl/src/draw/../misc/lv_color.h ****                     r = ((c & 0xFF0000) >> 19)
 607:lvgl/src/draw/../misc/lv_color.h ****                     g = ((c & 0xFF00) >> 10)
 608:lvgl/src/draw/../misc/lv_color.h ****                     b = ((c & 0xFF) >> 3)
 609:lvgl/src/draw/../misc/lv_color.h ****                     rgb565 = (r << 11) | (g << 5) | b
 610:lvgl/src/draw/../misc/lv_color.h ****         That's 3 mask, 5 bitshift and 2 or operations
 611:lvgl/src/draw/../misc/lv_color.h **** 
 612:lvgl/src/draw/../misc/lv_color.h ****         A bit better:
 613:lvgl/src/draw/../misc/lv_color.h ****                     r = ((c & 0xF80000) >> 8)
 614:lvgl/src/draw/../misc/lv_color.h ****                     g = ((c & 0xFC00) >> 5)
 615:lvgl/src/draw/../misc/lv_color.h ****                     b = ((c & 0xFF) >> 3)
ARM GAS  /var/folders/21/t9g5rlb91ys800n5npymflf80000gn/T//cc4qd6Tv.s 			page 22


 616:lvgl/src/draw/../misc/lv_color.h ****                     rgb565 = r | g | b
 617:lvgl/src/draw/../misc/lv_color.h ****         That's 3 mask, 3 bitshifts and 2 or operations */
 618:lvgl/src/draw/../misc/lv_color.h ****     r.full = (uint16_t)(((c & 0xF80000) >> 8) | ((c & 0xFC00) >> 5) | ((c & 0xFF) >> 3));
 619:lvgl/src/draw/../misc/lv_color.h **** #else
 620:lvgl/src/draw/../misc/lv_color.h ****     /* We want: rrrr rrrr GGGg gggg bbbb bbbb => gggb bbbb rrrr rGGG */
 621:lvgl/src/draw/../misc/lv_color.h ****     r.full = (uint16_t)(((c & 0xF80000) >> 16) | ((c & 0xFC00) >> 13) | ((c & 0x1C00) << 3) | ((c &
 622:lvgl/src/draw/../misc/lv_color.h **** #endif
 623:lvgl/src/draw/../misc/lv_color.h ****     return r;
 624:lvgl/src/draw/../misc/lv_color.h **** #elif LV_COLOR_DEPTH == 32
 625:lvgl/src/draw/../misc/lv_color.h ****     lv_color_t r;
 626:lvgl/src/draw/../misc/lv_color.h ****     r.full = c | 0xFF000000;
 627:lvgl/src/draw/../misc/lv_color.h ****     return r;
 628:lvgl/src/draw/../misc/lv_color.h **** #else /*LV_COLOR_DEPTH == 8*/
 629:lvgl/src/draw/../misc/lv_color.h ****     return lv_color_make((uint8_t)((c >> 16) & 0xFF), (uint8_t)((c >> 8) & 0xFF), (uint8_t)(c & 0xF
 630:lvgl/src/draw/../misc/lv_color.h **** #endif
 631:lvgl/src/draw/../misc/lv_color.h **** }
 632:lvgl/src/draw/../misc/lv_color.h **** 
 633:lvgl/src/draw/../misc/lv_color.h **** static inline lv_color_t lv_color_hex3(uint32_t c)
 634:lvgl/src/draw/../misc/lv_color.h **** {
 635:lvgl/src/draw/../misc/lv_color.h ****     return lv_color_make((uint8_t)(((c >> 4) & 0xF0) | ((c >> 8) & 0xF)), (uint8_t)((c & 0xF0) | ((
 636:lvgl/src/draw/../misc/lv_color.h ****                          (uint8_t)((c & 0xF) | ((c & 0xF) << 4)));
 637:lvgl/src/draw/../misc/lv_color.h **** }
 638:lvgl/src/draw/../misc/lv_color.h **** 
 639:lvgl/src/draw/../misc/lv_color.h **** static inline void lv_color_filter_dsc_init(lv_color_filter_dsc_t * dsc, lv_color_filter_cb_t cb)
 640:lvgl/src/draw/../misc/lv_color.h **** {
 641:lvgl/src/draw/../misc/lv_color.h ****     dsc->filter_cb = cb;
 642:lvgl/src/draw/../misc/lv_color.h **** }
 643:lvgl/src/draw/../misc/lv_color.h **** 
 644:lvgl/src/draw/../misc/lv_color.h **** //! @cond Doxygen_Suppress
 645:lvgl/src/draw/../misc/lv_color.h **** //!
 646:lvgl/src/draw/../misc/lv_color.h **** void /* LV_ATTRIBUTE_FAST_MEM */ lv_color_fill(lv_color_t * buf, lv_color_t color, uint32_t px_num)
 647:lvgl/src/draw/../misc/lv_color.h **** 
 648:lvgl/src/draw/../misc/lv_color.h **** //! @endcond
 649:lvgl/src/draw/../misc/lv_color.h **** lv_color_t lv_color_lighten(lv_color_t c, lv_opa_t lvl);
 650:lvgl/src/draw/../misc/lv_color.h **** 
 651:lvgl/src/draw/../misc/lv_color.h **** lv_color_t lv_color_darken(lv_color_t c, lv_opa_t lvl);
 652:lvgl/src/draw/../misc/lv_color.h **** 
 653:lvgl/src/draw/../misc/lv_color.h **** lv_color_t lv_color_change_lightness(lv_color_t c, lv_opa_t lvl);
 654:lvgl/src/draw/../misc/lv_color.h **** 
 655:lvgl/src/draw/../misc/lv_color.h **** /**
 656:lvgl/src/draw/../misc/lv_color.h ****  * Convert a HSV color to RGB
 657:lvgl/src/draw/../misc/lv_color.h ****  * @param h hue [0..359]
 658:lvgl/src/draw/../misc/lv_color.h ****  * @param s saturation [0..100]
 659:lvgl/src/draw/../misc/lv_color.h ****  * @param v value [0..100]
 660:lvgl/src/draw/../misc/lv_color.h ****  * @return the given RGB color in RGB (with LV_COLOR_DEPTH depth)
 661:lvgl/src/draw/../misc/lv_color.h ****  */
 662:lvgl/src/draw/../misc/lv_color.h **** lv_color_t lv_color_hsv_to_rgb(uint16_t h, uint8_t s, uint8_t v);
 663:lvgl/src/draw/../misc/lv_color.h **** 
 664:lvgl/src/draw/../misc/lv_color.h **** /**
 665:lvgl/src/draw/../misc/lv_color.h ****  * Convert a 32-bit RGB color to HSV
 666:lvgl/src/draw/../misc/lv_color.h ****  * @param r8 8-bit red
 667:lvgl/src/draw/../misc/lv_color.h ****  * @param g8 8-bit green
 668:lvgl/src/draw/../misc/lv_color.h ****  * @param b8 8-bit blue
 669:lvgl/src/draw/../misc/lv_color.h ****  * @return the given RGB color in HSV
 670:lvgl/src/draw/../misc/lv_color.h ****  */
 671:lvgl/src/draw/../misc/lv_color.h **** lv_color_hsv_t lv_color_rgb_to_hsv(uint8_t r8, uint8_t g8, uint8_t b8);
 672:lvgl/src/draw/../misc/lv_color.h **** 
ARM GAS  /var/folders/21/t9g5rlb91ys800n5npymflf80000gn/T//cc4qd6Tv.s 			page 23


 673:lvgl/src/draw/../misc/lv_color.h **** /**
 674:lvgl/src/draw/../misc/lv_color.h ****  * Convert a color to HSV
 675:lvgl/src/draw/../misc/lv_color.h ****  * @param color color
 676:lvgl/src/draw/../misc/lv_color.h ****  * @return the given color in HSV
 677:lvgl/src/draw/../misc/lv_color.h ****  */
 678:lvgl/src/draw/../misc/lv_color.h **** lv_color_hsv_t lv_color_to_hsv(lv_color_t color);
 679:lvgl/src/draw/../misc/lv_color.h **** 
 680:lvgl/src/draw/../misc/lv_color.h **** /**
 681:lvgl/src/draw/../misc/lv_color.h ****  * Just a wrapper around LV_COLOR_CHROMA_KEY because it might be more convenient to use a function 
 682:lvgl/src/draw/../misc/lv_color.h ****  * @return LV_COLOR_CHROMA_KEY
 683:lvgl/src/draw/../misc/lv_color.h ****  */
 684:lvgl/src/draw/../misc/lv_color.h **** static inline lv_color_t lv_color_chroma_key(void)
 685:lvgl/src/draw/../misc/lv_color.h **** {
 686:lvgl/src/draw/../misc/lv_color.h ****     return LV_COLOR_CHROMA_KEY;
 687:lvgl/src/draw/../misc/lv_color.h **** }
 688:lvgl/src/draw/../misc/lv_color.h **** 
 689:lvgl/src/draw/../misc/lv_color.h **** /**********************
 690:lvgl/src/draw/../misc/lv_color.h ****  *  PREDEFINED COLORS
 691:lvgl/src/draw/../misc/lv_color.h ****  **********************/
 692:lvgl/src/draw/../misc/lv_color.h **** /*Source: https://vuetifyjs.com/en/styles/colors/#material-colors*/
 693:lvgl/src/draw/../misc/lv_color.h **** 
 694:lvgl/src/draw/../misc/lv_color.h **** lv_color_t lv_palette_main(lv_palette_t p);
 695:lvgl/src/draw/../misc/lv_color.h **** static inline lv_color_t lv_color_white(void)
 696:lvgl/src/draw/../misc/lv_color.h **** {
 697:lvgl/src/draw/../misc/lv_color.h ****     return lv_color_make(0xff, 0xff, 0xff);
 698:lvgl/src/draw/../misc/lv_color.h **** }
 699:lvgl/src/draw/../misc/lv_color.h **** static inline lv_color_t lv_color_black(void)
 159              		.loc 2 699 26 view .LVU42
 700:lvgl/src/draw/../misc/lv_color.h **** {
 701:lvgl/src/draw/../misc/lv_color.h ****     return lv_color_make(0x00, 0x0, 0x00);
 160              		.loc 2 701 5 view .LVU43
 161              	.LVL13:
 162              	.LBB47:
 163              	.LBI47:
 594:lvgl/src/draw/../misc/lv_color.h **** {
 164              		.loc 2 594 26 view .LVU44
 165              	.LBB48:
 596:lvgl/src/draw/../misc/lv_color.h **** }
 166              		.loc 2 596 5 view .LVU45
 596:lvgl/src/draw/../misc/lv_color.h **** }
 167              		.loc 2 596 12 is_stmt 0 view .LVU46
 168 000e 4FF00003 		mov	r3, #0	@ movhi
 169 0012 6FF30403 		bfc	r3, #0, #5
 170 0016 6FF34A13 		bfc	r3, #5, #6
 171 001a 6FF3CF23 		bfc	r3, #11, #5
 172              	.LVL14:
 596:lvgl/src/draw/../misc/lv_color.h **** }
 173              		.loc 2 596 12 view .LVU47
 174              	.LBE48:
 175              	.LBE47:
 176              	.LBE46:
  59:lvgl/src/draw/lv_draw_label.c ****     dsc->font = LV_FONT_DEFAULT;
 177              		.loc 1 59 18 view .LVU48
 178 001e A381     		strh	r3, [r4, #12]	@ movhi
  60:lvgl/src/draw/lv_draw_label.c ****     dsc->sel_start = LV_DRAW_LABEL_NO_TXT_SEL;
 179              		.loc 1 60 5 is_stmt 1 view .LVU49
  60:lvgl/src/draw/lv_draw_label.c ****     dsc->sel_start = LV_DRAW_LABEL_NO_TXT_SEL;
ARM GAS  /var/folders/21/t9g5rlb91ys800n5npymflf80000gn/T//cc4qd6Tv.s 			page 24


 180              		.loc 1 60 15 is_stmt 0 view .LVU50
 181 0020 0A4B     		ldr	r3, .L14
 182 0022 2360     		str	r3, [r4]
  61:lvgl/src/draw/lv_draw_label.c ****     dsc->sel_end = LV_DRAW_LABEL_NO_TXT_SEL;
 183              		.loc 1 61 5 is_stmt 1 view .LVU51
  61:lvgl/src/draw/lv_draw_label.c ****     dsc->sel_end = LV_DRAW_LABEL_NO_TXT_SEL;
 184              		.loc 1 61 20 is_stmt 0 view .LVU52
 185 0024 4FF6FF73 		movw	r3, #65535
 186 0028 6360     		str	r3, [r4, #4]
  62:lvgl/src/draw/lv_draw_label.c ****     dsc->sel_color = lv_color_black();
 187              		.loc 1 62 5 is_stmt 1 view .LVU53
  62:lvgl/src/draw/lv_draw_label.c ****     dsc->sel_color = lv_color_black();
 188              		.loc 1 62 18 is_stmt 0 view .LVU54
 189 002a A360     		str	r3, [r4, #8]
  63:lvgl/src/draw/lv_draw_label.c ****     dsc->sel_bg_color = lv_palette_main(LV_PALETTE_BLUE);
 190              		.loc 1 63 5 is_stmt 1 view .LVU55
 191              	.LBB49:
 192              	.LBI49:
 699:lvgl/src/draw/../misc/lv_color.h **** {
 193              		.loc 2 699 26 view .LVU56
 194              		.loc 2 701 5 view .LVU57
 195              	.LVL15:
 196              	.LBB50:
 197              	.LBI50:
 594:lvgl/src/draw/../misc/lv_color.h **** {
 198              		.loc 2 594 26 view .LVU58
 199              	.LBB51:
 596:lvgl/src/draw/../misc/lv_color.h **** }
 200              		.loc 2 596 5 view .LVU59
 596:lvgl/src/draw/../misc/lv_color.h **** }
 201              		.loc 2 596 12 is_stmt 0 view .LVU60
 202 002c 4FF00003 		mov	r3, #0	@ movhi
 203 0030 6FF30403 		bfc	r3, #0, #5
 204 0034 6FF34A13 		bfc	r3, #5, #6
 205 0038 6FF3CF23 		bfc	r3, #11, #5
 206              	.LVL16:
 596:lvgl/src/draw/../misc/lv_color.h **** }
 207              		.loc 2 596 12 view .LVU61
 208              	.LBE51:
 209              	.LBE50:
 210              	.LBE49:
  63:lvgl/src/draw/lv_draw_label.c ****     dsc->sel_bg_color = lv_palette_main(LV_PALETTE_BLUE);
 211              		.loc 1 63 22 view .LVU62
 212 003c E381     		strh	r3, [r4, #14]	@ movhi
  64:lvgl/src/draw/lv_draw_label.c ****     dsc->bidi_dir = LV_BASE_DIR_LTR;
 213              		.loc 1 64 5 is_stmt 1 view .LVU63
  64:lvgl/src/draw/lv_draw_label.c ****     dsc->bidi_dir = LV_BASE_DIR_LTR;
 214              		.loc 1 64 25 is_stmt 0 view .LVU64
 215 003e 0520     		movs	r0, #5
 216 0040 FFF7FEFF 		bl	lv_palette_main
 217              	.LVL17:
 218 0044 2082     		strh	r0, [r4, #16]	@ movhi
  65:lvgl/src/draw/lv_draw_label.c **** }
 219              		.loc 1 65 5 is_stmt 1 view .LVU65
  65:lvgl/src/draw/lv_draw_label.c **** }
 220              		.loc 1 65 19 is_stmt 0 view .LVU66
 221 0046 0023     		movs	r3, #0
ARM GAS  /var/folders/21/t9g5rlb91ys800n5npymflf80000gn/T//cc4qd6Tv.s 			page 25


 222 0048 E376     		strb	r3, [r4, #27]
  66:lvgl/src/draw/lv_draw_label.c **** 
 223              		.loc 1 66 1 view .LVU67
 224 004a 10BD     		pop	{r4, pc}
 225              	.LVL18:
 226              	.L15:
  66:lvgl/src/draw/lv_draw_label.c **** 
 227              		.loc 1 66 1 view .LVU68
 228              		.align	2
 229              	.L14:
 230 004c 00000000 		.word	lv_font_montserrat_14
 231              		.cfi_endproc
 232              	.LFE161:
 234              		.section	.text.lv_draw_letter,"ax",%progbits
 235              		.align	1
 236              		.global	lv_draw_letter
 237              		.syntax unified
 238              		.thumb
 239              		.thumb_func
 241              	lv_draw_letter:
 242              	.LVL19:
 243              	.LFB163:
 366:lvgl/src/draw/lv_draw_label.c ****     draw_ctx->draw_letter(draw_ctx, dsc, pos_p, letter);
 244              		.loc 1 366 1 is_stmt 1 view -0
 245              		.cfi_startproc
 246              		@ args = 0, pretend = 0, frame = 0
 247              		@ frame_needed = 0, uses_anonymous_args = 0
 366:lvgl/src/draw/lv_draw_label.c ****     draw_ctx->draw_letter(draw_ctx, dsc, pos_p, letter);
 248              		.loc 1 366 1 is_stmt 0 view .LVU70
 249 0000 10B5     		push	{r4, lr}
 250              	.LCFI1:
 251              		.cfi_def_cfa_offset 8
 252              		.cfi_offset 4, -8
 253              		.cfi_offset 14, -4
 367:lvgl/src/draw/lv_draw_label.c **** }
 254              		.loc 1 367 5 is_stmt 1 view .LVU71
 367:lvgl/src/draw/lv_draw_label.c **** }
 255              		.loc 1 367 13 is_stmt 0 view .LVU72
 256 0002 046A     		ldr	r4, [r0, #32]
 367:lvgl/src/draw/lv_draw_label.c **** }
 257              		.loc 1 367 5 view .LVU73
 258 0004 A047     		blx	r4
 259              	.LVL20:
 368:lvgl/src/draw/lv_draw_label.c **** 
 260              		.loc 1 368 1 view .LVU74
 261 0006 10BD     		pop	{r4, pc}
 262              		.cfi_endproc
 263              	.LFE163:
 265              		.section	.text.lv_draw_label,"ax",%progbits
 266              		.align	1
 267              		.global	lv_draw_label
 268              		.syntax unified
 269              		.thumb
 270              		.thumb_func
 272              	lv_draw_label:
 273              	.LVL21:
 274              	.LFB162:
ARM GAS  /var/folders/21/t9g5rlb91ys800n5npymflf80000gn/T//cc4qd6Tv.s 			page 26


  79:lvgl/src/draw/lv_draw_label.c ****     if(dsc->opa <= LV_OPA_MIN) return;
 275              		.loc 1 79 1 is_stmt 1 view -0
 276              		.cfi_startproc
 277              		@ args = 4, pretend = 0, frame = 192
 278              		@ frame_needed = 0, uses_anonymous_args = 0
  79:lvgl/src/draw/lv_draw_label.c ****     if(dsc->opa <= LV_OPA_MIN) return;
 279              		.loc 1 79 1 is_stmt 0 view .LVU76
 280 0000 2DE9F04F 		push	{r4, r5, r6, r7, r8, r9, r10, fp, lr}
 281              	.LCFI2:
 282              		.cfi_def_cfa_offset 36
 283              		.cfi_offset 4, -36
 284              		.cfi_offset 5, -32
 285              		.cfi_offset 6, -28
 286              		.cfi_offset 7, -24
 287              		.cfi_offset 8, -20
 288              		.cfi_offset 9, -16
 289              		.cfi_offset 10, -12
 290              		.cfi_offset 11, -8
 291              		.cfi_offset 14, -4
 292 0004 B5B0     		sub	sp, sp, #212
 293              	.LCFI3:
 294              		.cfi_def_cfa_offset 248
 295 0006 0992     		str	r2, [sp, #36]
 296 0008 9C46     		mov	ip, r3
 297 000a 0893     		str	r3, [sp, #32]
 298 000c 3E9C     		ldr	r4, [sp, #248]
  80:lvgl/src/draw/lv_draw_label.c ****     if(dsc->font == NULL) {
 299              		.loc 1 80 5 is_stmt 1 view .LVU77
  80:lvgl/src/draw/lv_draw_label.c ****     if(dsc->font == NULL) {
 300              		.loc 1 80 11 is_stmt 0 view .LVU78
 301 000e 8B7E     		ldrb	r3, [r1, #26]	@ zero_extendqisi2
 302              	.LVL22:
  80:lvgl/src/draw/lv_draw_label.c ****     if(dsc->font == NULL) {
 303              		.loc 1 80 7 view .LVU79
 304 0010 022B     		cmp	r3, #2
 305 0012 15D9     		bls	.L18
 306 0014 8146     		mov	r9, r0
 307 0016 0D46     		mov	r5, r1
 308 0018 9646     		mov	lr, r2
  81:lvgl/src/draw/lv_draw_label.c ****         LV_LOG_WARN("dsc->font == NULL");
 309              		.loc 1 81 5 is_stmt 1 view .LVU80
  81:lvgl/src/draw/lv_draw_label.c ****         LV_LOG_WARN("dsc->font == NULL");
 310              		.loc 1 81 11 is_stmt 0 view .LVU81
 311 001a 0B68     		ldr	r3, [r1]
  81:lvgl/src/draw/lv_draw_label.c ****         LV_LOG_WARN("dsc->font == NULL");
 312              		.loc 1 81 7 view .LVU82
 313 001c 83B1     		cbz	r3, .L18
  86:lvgl/src/draw/lv_draw_label.c ****         LV_LOG_WARN("draw->draw_letter == NULL (there is no function to draw letters)");
 314              		.loc 1 86 5 is_stmt 1 view .LVU83
  86:lvgl/src/draw/lv_draw_label.c ****         LV_LOG_WARN("draw->draw_letter == NULL (there is no function to draw letters)");
 315              		.loc 1 86 16 is_stmt 0 view .LVU84
 316 001e 036A     		ldr	r3, [r0, #32]
  86:lvgl/src/draw/lv_draw_label.c ****         LV_LOG_WARN("draw->draw_letter == NULL (there is no function to draw letters)");
 317              		.loc 1 86 7 view .LVU85
 318 0020 73B1     		cbz	r3, .L18
  91:lvgl/src/draw/lv_draw_label.c **** 
 319              		.loc 1 91 5 is_stmt 1 view .LVU86
ARM GAS  /var/folders/21/t9g5rlb91ys800n5npymflf80000gn/T//cc4qd6Tv.s 			page 27


  91:lvgl/src/draw/lv_draw_label.c **** 
 320              		.loc 1 91 25 is_stmt 0 view .LVU87
 321 0022 2CAE     		add	r6, sp, #176
 322 0024 0F46     		mov	r7, r1
 323 0026 0FCF     		ldmia	r7!, {r0, r1, r2, r3}
 324              	.LVL23:
  91:lvgl/src/draw/lv_draw_label.c **** 
 325              		.loc 1 91 25 view .LVU88
 326 0028 0FC6     		stmia	r6!, {r0, r1, r2, r3}
 327 002a 97E80F00 		ldm	r7, {r0, r1, r2, r3}
 328 002e 86E80F00 		stm	r6, {r0, r1, r2, r3}
  93:lvgl/src/draw/lv_draw_label.c ****     int32_t w;
 329              		.loc 1 93 5 is_stmt 1 view .LVU89
  93:lvgl/src/draw/lv_draw_label.c ****     int32_t w;
 330              		.loc 1 93 23 is_stmt 0 view .LVU90
 331 0032 2868     		ldr	r0, [r5]
 332 0034 0490     		str	r0, [sp, #16]
 333              	.LVL24:
  94:lvgl/src/draw/lv_draw_label.c **** 
 334              		.loc 1 94 5 is_stmt 1 view .LVU91
  97:lvgl/src/draw/lv_draw_label.c ****         return;
 335              		.loc 1 97 5 view .LVU92
  97:lvgl/src/draw/lv_draw_label.c ****         return;
 336              		.loc 1 97 7 is_stmt 0 view .LVU93
 337 0036 6346     		mov	r3, ip
 338 0038 13B1     		cbz	r3, .L18
  97:lvgl/src/draw/lv_draw_label.c ****         return;
 339              		.loc 1 97 26 discriminator 1 view .LVU94
 340 003a 9CF80030 		ldrb	r3, [ip]	@ zero_extendqisi2
  97:lvgl/src/draw/lv_draw_label.c ****         return;
 341              		.loc 1 97 20 discriminator 1 view .LVU95
 342 003e 13B9     		cbnz	r3, .L67
 343              	.LVL25:
 344              	.L18:
 362:lvgl/src/draw/lv_draw_label.c **** 
 345              		.loc 1 362 1 view .LVU96
 346 0040 35B0     		add	sp, sp, #212
 347              	.LCFI4:
 348              		.cfi_remember_state
 349              		.cfi_def_cfa_offset 36
 350              		@ sp needed
 351 0042 BDE8F08F 		pop	{r4, r5, r6, r7, r8, r9, r10, fp, pc}
 352              	.LVL26:
 353              	.L67:
 354              	.LCFI5:
 355              		.cfi_restore_state
 100:lvgl/src/draw/lv_draw_label.c ****     bool clip_ok = _lv_area_intersect(&clipped_area, coords, draw_ctx->clip_area);
 356              		.loc 1 100 5 is_stmt 1 view .LVU97
 101:lvgl/src/draw/lv_draw_label.c ****     if(!clip_ok) return;
 357              		.loc 1 101 5 view .LVU98
 101:lvgl/src/draw/lv_draw_label.c ****     if(!clip_ok) return;
 358              		.loc 1 101 20 is_stmt 0 view .LVU99
 359 0046 D9F80820 		ldr	r2, [r9, #8]
 360 004a 7146     		mov	r1, lr
 361 004c 2AA8     		add	r0, sp, #168
 362              	.LVL27:
 101:lvgl/src/draw/lv_draw_label.c ****     if(!clip_ok) return;
ARM GAS  /var/folders/21/t9g5rlb91ys800n5npymflf80000gn/T//cc4qd6Tv.s 			page 28


 363              		.loc 1 101 20 view .LVU100
 364 004e FFF7FEFF 		bl	_lv_area_intersect
 365              	.LVL28:
 102:lvgl/src/draw/lv_draw_label.c **** 
 366              		.loc 1 102 5 is_stmt 1 view .LVU101
 102:lvgl/src/draw/lv_draw_label.c **** 
 367              		.loc 1 102 7 is_stmt 0 view .LVU102
 368 0052 0028     		cmp	r0, #0
 369 0054 F4D0     		beq	.L18
 104:lvgl/src/draw/lv_draw_label.c ****     lv_base_dir_t base_dir = dsc->bidi_dir;
 370              		.loc 1 104 5 is_stmt 1 view .LVU103
 104:lvgl/src/draw/lv_draw_label.c ****     lv_base_dir_t base_dir = dsc->bidi_dir;
 371              		.loc 1 104 32 is_stmt 0 view .LVU104
 372 0056 2B7F     		ldrb	r3, [r5, #28]	@ zero_extendqisi2
 373 0058 0C93     		str	r3, [sp, #48]
 374              	.LVL29:
 105:lvgl/src/draw/lv_draw_label.c **** 
 375              		.loc 1 105 5 is_stmt 1 view .LVU105
 107:lvgl/src/draw/lv_draw_label.c **** 
 376              		.loc 1 107 5 view .LVU106
 377              	.LBB52:
 378              	.LBI52:
 379              		.file 3 "lvgl/src/draw/../misc/lv_bidi.h"
   1:lvgl/src/draw/../misc/lv_bidi.h **** /**
   2:lvgl/src/draw/../misc/lv_bidi.h ****  * @file lv_bidi.h
   3:lvgl/src/draw/../misc/lv_bidi.h ****  *
   4:lvgl/src/draw/../misc/lv_bidi.h ****  */
   5:lvgl/src/draw/../misc/lv_bidi.h **** 
   6:lvgl/src/draw/../misc/lv_bidi.h **** #ifndef LV_BIDI_H
   7:lvgl/src/draw/../misc/lv_bidi.h **** #define LV_BIDI_H
   8:lvgl/src/draw/../misc/lv_bidi.h **** 
   9:lvgl/src/draw/../misc/lv_bidi.h **** #ifdef __cplusplus
  10:lvgl/src/draw/../misc/lv_bidi.h **** extern "C" {
  11:lvgl/src/draw/../misc/lv_bidi.h **** #endif
  12:lvgl/src/draw/../misc/lv_bidi.h **** 
  13:lvgl/src/draw/../misc/lv_bidi.h **** /*********************
  14:lvgl/src/draw/../misc/lv_bidi.h ****  *      INCLUDES
  15:lvgl/src/draw/../misc/lv_bidi.h ****  *********************/
  16:lvgl/src/draw/../misc/lv_bidi.h **** #include "../lv_conf_internal.h"
  17:lvgl/src/draw/../misc/lv_bidi.h **** 
  18:lvgl/src/draw/../misc/lv_bidi.h **** #include <stdbool.h>
  19:lvgl/src/draw/../misc/lv_bidi.h **** #include <stdint.h>
  20:lvgl/src/draw/../misc/lv_bidi.h **** #include "lv_txt.h"
  21:lvgl/src/draw/../misc/lv_bidi.h **** 
  22:lvgl/src/draw/../misc/lv_bidi.h **** /*********************
  23:lvgl/src/draw/../misc/lv_bidi.h ****  *      DEFINES
  24:lvgl/src/draw/../misc/lv_bidi.h ****  *********************/
  25:lvgl/src/draw/../misc/lv_bidi.h **** /*Special non printable strong characters.
  26:lvgl/src/draw/../misc/lv_bidi.h ****  *They can be inserted to texts to affect the run's direction*/
  27:lvgl/src/draw/../misc/lv_bidi.h **** #define LV_BIDI_LRO  "\xE2\x80\xAD" /*U+202D*/
  28:lvgl/src/draw/../misc/lv_bidi.h **** #define LV_BIDI_RLO  "\xE2\x80\xAE" /*U+202E*/
  29:lvgl/src/draw/../misc/lv_bidi.h **** 
  30:lvgl/src/draw/../misc/lv_bidi.h **** /**********************
  31:lvgl/src/draw/../misc/lv_bidi.h ****  *      TYPEDEFS
  32:lvgl/src/draw/../misc/lv_bidi.h ****  **********************/
  33:lvgl/src/draw/../misc/lv_bidi.h **** enum {
  34:lvgl/src/draw/../misc/lv_bidi.h ****     LV_BASE_DIR_LTR      = 0x00,
ARM GAS  /var/folders/21/t9g5rlb91ys800n5npymflf80000gn/T//cc4qd6Tv.s 			page 29


  35:lvgl/src/draw/../misc/lv_bidi.h ****     LV_BASE_DIR_RTL      = 0x01,
  36:lvgl/src/draw/../misc/lv_bidi.h ****     LV_BASE_DIR_AUTO     = 0x02,
  37:lvgl/src/draw/../misc/lv_bidi.h **** 
  38:lvgl/src/draw/../misc/lv_bidi.h ****     LV_BASE_DIR_NEUTRAL  = 0x20,
  39:lvgl/src/draw/../misc/lv_bidi.h ****     LV_BASE_DIR_WEAK     = 0x21,
  40:lvgl/src/draw/../misc/lv_bidi.h **** };
  41:lvgl/src/draw/../misc/lv_bidi.h **** 
  42:lvgl/src/draw/../misc/lv_bidi.h **** typedef uint8_t lv_base_dir_t;
  43:lvgl/src/draw/../misc/lv_bidi.h **** 
  44:lvgl/src/draw/../misc/lv_bidi.h **** /**********************
  45:lvgl/src/draw/../misc/lv_bidi.h ****  * GLOBAL PROTOTYPES
  46:lvgl/src/draw/../misc/lv_bidi.h ****  **********************/
  47:lvgl/src/draw/../misc/lv_bidi.h **** #if LV_USE_BIDI
  48:lvgl/src/draw/../misc/lv_bidi.h **** 
  49:lvgl/src/draw/../misc/lv_bidi.h **** /**
  50:lvgl/src/draw/../misc/lv_bidi.h ****  * Convert a text to get the characters in the correct visual order according to
  51:lvgl/src/draw/../misc/lv_bidi.h ****  * Unicode Bidirectional Algorithm
  52:lvgl/src/draw/../misc/lv_bidi.h ****  * @param str_in the text to process
  53:lvgl/src/draw/../misc/lv_bidi.h ****  * @param str_out store the result here. Has the be `strlen(str_in)` length
  54:lvgl/src/draw/../misc/lv_bidi.h ****  * @param base_dir `LV_BASE_DIR_LTR` or `LV_BASE_DIR_RTL`
  55:lvgl/src/draw/../misc/lv_bidi.h ****  */
  56:lvgl/src/draw/../misc/lv_bidi.h **** void _lv_bidi_process(const char * str_in, char * str_out, lv_base_dir_t base_dir);
  57:lvgl/src/draw/../misc/lv_bidi.h **** 
  58:lvgl/src/draw/../misc/lv_bidi.h **** /**
  59:lvgl/src/draw/../misc/lv_bidi.h ****  * Auto-detect the direction of a text based on the first strong character
  60:lvgl/src/draw/../misc/lv_bidi.h ****  * @param txt the text to process
  61:lvgl/src/draw/../misc/lv_bidi.h ****  * @return `LV_BASE_DIR_LTR` or `LV_BASE_DIR_RTL`
  62:lvgl/src/draw/../misc/lv_bidi.h ****  */
  63:lvgl/src/draw/../misc/lv_bidi.h **** lv_base_dir_t _lv_bidi_detect_base_dir(const char * txt);
  64:lvgl/src/draw/../misc/lv_bidi.h **** 
  65:lvgl/src/draw/../misc/lv_bidi.h **** /**
  66:lvgl/src/draw/../misc/lv_bidi.h ****  * Get the logical position of a character in a line
  67:lvgl/src/draw/../misc/lv_bidi.h ****  * @param str_in the input string. Can be only one line.
  68:lvgl/src/draw/../misc/lv_bidi.h ****  * @param bidi_txt internally the text is bidi processed which buffer can be get here.
  69:lvgl/src/draw/../misc/lv_bidi.h ****  * If not required anymore has to freed with `lv_mem_free()`
  70:lvgl/src/draw/../misc/lv_bidi.h ****  * Can be `NULL` is unused
  71:lvgl/src/draw/../misc/lv_bidi.h ****  * @param len length of the line in character count
  72:lvgl/src/draw/../misc/lv_bidi.h ****  * @param base_dir base direction of the text: `LV_BASE_DIR_LTR` or `LV_BASE_DIR_RTL`
  73:lvgl/src/draw/../misc/lv_bidi.h ****  * @param visual_pos the visual character position which logical position should be get
  74:lvgl/src/draw/../misc/lv_bidi.h ****  * @param is_rtl tell the char at `visual_pos` is RTL or LTR context
  75:lvgl/src/draw/../misc/lv_bidi.h ****  * @return the logical character position
  76:lvgl/src/draw/../misc/lv_bidi.h ****  */
  77:lvgl/src/draw/../misc/lv_bidi.h **** uint16_t _lv_bidi_get_logical_pos(const char * str_in, char ** bidi_txt, uint32_t len, lv_base_dir_
  78:lvgl/src/draw/../misc/lv_bidi.h ****                                   uint32_t visual_pos, bool * is_rtl);
  79:lvgl/src/draw/../misc/lv_bidi.h **** 
  80:lvgl/src/draw/../misc/lv_bidi.h **** /**
  81:lvgl/src/draw/../misc/lv_bidi.h ****  * Get the visual position of a character in a line
  82:lvgl/src/draw/../misc/lv_bidi.h ****  * @param str_in the input string. Can be only one line.
  83:lvgl/src/draw/../misc/lv_bidi.h ****  * @param bidi_txt internally the text is bidi processed which buffer can be get here.
  84:lvgl/src/draw/../misc/lv_bidi.h ****  * If not required anymore has to freed with `lv_mem_free()`
  85:lvgl/src/draw/../misc/lv_bidi.h ****  * Can be `NULL` is unused
  86:lvgl/src/draw/../misc/lv_bidi.h ****  * @param len length of the line in character count
  87:lvgl/src/draw/../misc/lv_bidi.h ****  * @param base_dir base direction of the text: `LV_BASE_DIR_LTR` or `LV_BASE_DIR_RTL`
  88:lvgl/src/draw/../misc/lv_bidi.h ****  * @param logical_pos the logical character position which visual position should be get
  89:lvgl/src/draw/../misc/lv_bidi.h ****  * @param is_rtl tell the char at `logical_pos` is RTL or LTR context
  90:lvgl/src/draw/../misc/lv_bidi.h ****  * @return the visual character position
  91:lvgl/src/draw/../misc/lv_bidi.h ****  */
ARM GAS  /var/folders/21/t9g5rlb91ys800n5npymflf80000gn/T//cc4qd6Tv.s 			page 30


  92:lvgl/src/draw/../misc/lv_bidi.h **** uint16_t _lv_bidi_get_visual_pos(const char * str_in, char ** bidi_txt, uint16_t len, lv_base_dir_t
  93:lvgl/src/draw/../misc/lv_bidi.h ****                                  uint32_t logical_pos, bool * is_rtl);
  94:lvgl/src/draw/../misc/lv_bidi.h **** 
  95:lvgl/src/draw/../misc/lv_bidi.h **** /**
  96:lvgl/src/draw/../misc/lv_bidi.h ****  * Bidi process a paragraph of text
  97:lvgl/src/draw/../misc/lv_bidi.h ****  * @param str_in the string to process
  98:lvgl/src/draw/../misc/lv_bidi.h ****  * @param str_out store the result here
  99:lvgl/src/draw/../misc/lv_bidi.h ****  * @param len length of the text
 100:lvgl/src/draw/../misc/lv_bidi.h ****  * @param base_dir base dir of the text
 101:lvgl/src/draw/../misc/lv_bidi.h ****  * @param pos_conv_out an `uint16_t` array to store the related logical position of the character.
 102:lvgl/src/draw/../misc/lv_bidi.h ****  * Can be `NULL` is unused
 103:lvgl/src/draw/../misc/lv_bidi.h ****  * @param pos_conv_len length of `pos_conv_out` in element count
 104:lvgl/src/draw/../misc/lv_bidi.h ****  */
 105:lvgl/src/draw/../misc/lv_bidi.h **** void _lv_bidi_process_paragraph(const char * str_in, char * str_out, uint32_t len, lv_base_dir_t ba
 106:lvgl/src/draw/../misc/lv_bidi.h ****                                 uint16_t * pos_conv_out, uint16_t pos_conv_len);
 107:lvgl/src/draw/../misc/lv_bidi.h **** 
 108:lvgl/src/draw/../misc/lv_bidi.h **** /**
 109:lvgl/src/draw/../misc/lv_bidi.h ****  * Get the real text alignment from the a text alignment, base direction and a text.
 110:lvgl/src/draw/../misc/lv_bidi.h ****  * @param align     LV_TEXT_ALIGN_..., write back the calculated align here (LV_TEXT_ALIGN_LEFT/RIG
 111:lvgl/src/draw/../misc/lv_bidi.h ****  * @param base_dir  LV_BASE_DIR_..., write the calculated base dir here (LV_BASE_DIR_LTR/RTL)
 112:lvgl/src/draw/../misc/lv_bidi.h ****  * @param txt       a text, used with LV_BASE_DIR_AUTO to determine the base direction
 113:lvgl/src/draw/../misc/lv_bidi.h ****  */
 114:lvgl/src/draw/../misc/lv_bidi.h **** void lv_bidi_calculate_align(lv_text_align_t * align, lv_base_dir_t * base_dir, const char * txt);
 115:lvgl/src/draw/../misc/lv_bidi.h **** 
 116:lvgl/src/draw/../misc/lv_bidi.h **** /**********************
 117:lvgl/src/draw/../misc/lv_bidi.h ****  *      MACROS
 118:lvgl/src/draw/../misc/lv_bidi.h ****  **********************/
 119:lvgl/src/draw/../misc/lv_bidi.h **** 
 120:lvgl/src/draw/../misc/lv_bidi.h **** #else /*LV_USE_BIDI*/
 121:lvgl/src/draw/../misc/lv_bidi.h **** /**
 122:lvgl/src/draw/../misc/lv_bidi.h ****  * For compatibility if LV_USE_BIDI = 0
 123:lvgl/src/draw/../misc/lv_bidi.h ****  * Get the real text alignment from the a text alignment, base direction and a text.
 124:lvgl/src/draw/../misc/lv_bidi.h ****  * @param align     For LV_TEXT_ALIGN_AUTO give LV_TEXT_ALIGN_LEFT else leave unchanged, write back
 125:lvgl/src/draw/../misc/lv_bidi.h ****  * @param base_dir  Unused
 126:lvgl/src/draw/../misc/lv_bidi.h ****  * @param txt       Unused
 127:lvgl/src/draw/../misc/lv_bidi.h ****  */
 128:lvgl/src/draw/../misc/lv_bidi.h **** static inline void lv_bidi_calculate_align(lv_text_align_t * align, lv_base_dir_t * base_dir, const
 380              		.loc 3 128 20 view .LVU107
 381              	.LBB53:
 129:lvgl/src/draw/../misc/lv_bidi.h **** {
 130:lvgl/src/draw/../misc/lv_bidi.h ****     LV_UNUSED(txt);
 382              		.loc 3 130 5 view .LVU108
 131:lvgl/src/draw/../misc/lv_bidi.h ****     LV_UNUSED(base_dir);
 383              		.loc 3 131 5 view .LVU109
 132:lvgl/src/draw/../misc/lv_bidi.h ****     if(*align == LV_TEXT_ALIGN_AUTO) * align = LV_TEXT_ALIGN_LEFT;
 384              		.loc 3 132 5 view .LVU110
 385              		.loc 3 132 7 is_stmt 0 view .LVU111
 386 005a 0BB9     		cbnz	r3, .L20
 387              		.loc 3 132 46 view .LVU112
 388 005c 0123     		movs	r3, #1
 389              	.LVL30:
 390              		.loc 3 132 46 view .LVU113
 391 005e 0C93     		str	r3, [sp, #48]
 392              	.LVL31:
 393              	.L20:
 394              		.loc 3 132 46 view .LVU114
 395              	.LBE53:
ARM GAS  /var/folders/21/t9g5rlb91ys800n5npymflf80000gn/T//cc4qd6Tv.s 			page 31


 396              	.LBE52:
 109:lvgl/src/draw/lv_draw_label.c ****         /*Normally use the label's width as width*/
 397              		.loc 1 109 5 is_stmt 1 view .LVU115
 109:lvgl/src/draw/lv_draw_label.c ****         /*Normally use the label's width as width*/
 398              		.loc 1 109 12 is_stmt 0 view .LVU116
 399 0060 6B7F     		ldrb	r3, [r5, #29]	@ zero_extendqisi2
 109:lvgl/src/draw/lv_draw_label.c ****         /*Normally use the label's width as width*/
 400              		.loc 1 109 7 view .LVU117
 401 0062 13F0020F 		tst	r3, #2
 402 0066 29D1     		bne	.L21
 111:lvgl/src/draw/lv_draw_label.c ****     }
 403              		.loc 1 111 9 is_stmt 1 view .LVU118
 404              	.LVL32:
 405              	.LBB54:
 406              	.LBI54:
 407              		.file 4 "lvgl/src/draw/../misc/../font/../misc/lv_area.h"
   1:lvgl/src/draw/../misc/../font/../misc/lv_area.h **** /**
   2:lvgl/src/draw/../misc/../font/../misc/lv_area.h ****  * @file lv_area.h
   3:lvgl/src/draw/../misc/../font/../misc/lv_area.h ****  *
   4:lvgl/src/draw/../misc/../font/../misc/lv_area.h ****  */
   5:lvgl/src/draw/../misc/../font/../misc/lv_area.h **** 
   6:lvgl/src/draw/../misc/../font/../misc/lv_area.h **** #ifndef LV_AREA_H
   7:lvgl/src/draw/../misc/../font/../misc/lv_area.h **** #define LV_AREA_H
   8:lvgl/src/draw/../misc/../font/../misc/lv_area.h **** 
   9:lvgl/src/draw/../misc/../font/../misc/lv_area.h **** #ifdef __cplusplus
  10:lvgl/src/draw/../misc/../font/../misc/lv_area.h **** extern "C" {
  11:lvgl/src/draw/../misc/../font/../misc/lv_area.h **** #endif
  12:lvgl/src/draw/../misc/../font/../misc/lv_area.h **** 
  13:lvgl/src/draw/../misc/../font/../misc/lv_area.h **** /*********************
  14:lvgl/src/draw/../misc/../font/../misc/lv_area.h ****  *      INCLUDES
  15:lvgl/src/draw/../misc/../font/../misc/lv_area.h ****  *********************/
  16:lvgl/src/draw/../misc/../font/../misc/lv_area.h **** #include "../lv_conf_internal.h"
  17:lvgl/src/draw/../misc/../font/../misc/lv_area.h **** #include <stdbool.h>
  18:lvgl/src/draw/../misc/../font/../misc/lv_area.h **** #include <stdint.h>
  19:lvgl/src/draw/../misc/../font/../misc/lv_area.h **** 
  20:lvgl/src/draw/../misc/../font/../misc/lv_area.h **** /*********************
  21:lvgl/src/draw/../misc/../font/../misc/lv_area.h ****  *      DEFINES
  22:lvgl/src/draw/../misc/../font/../misc/lv_area.h ****  *********************/
  23:lvgl/src/draw/../misc/../font/../misc/lv_area.h **** 
  24:lvgl/src/draw/../misc/../font/../misc/lv_area.h **** #if LV_USE_LARGE_COORD
  25:lvgl/src/draw/../misc/../font/../misc/lv_area.h **** typedef int32_t lv_coord_t;
  26:lvgl/src/draw/../misc/../font/../misc/lv_area.h **** #else
  27:lvgl/src/draw/../misc/../font/../misc/lv_area.h **** typedef int16_t lv_coord_t;
  28:lvgl/src/draw/../misc/../font/../misc/lv_area.h **** #endif
  29:lvgl/src/draw/../misc/../font/../misc/lv_area.h **** 
  30:lvgl/src/draw/../misc/../font/../misc/lv_area.h **** /**********************
  31:lvgl/src/draw/../misc/../font/../misc/lv_area.h ****  *      TYPEDEFS
  32:lvgl/src/draw/../misc/../font/../misc/lv_area.h ****  **********************/
  33:lvgl/src/draw/../misc/../font/../misc/lv_area.h **** 
  34:lvgl/src/draw/../misc/../font/../misc/lv_area.h **** /**
  35:lvgl/src/draw/../misc/../font/../misc/lv_area.h ****  * Represents a point on the screen.
  36:lvgl/src/draw/../misc/../font/../misc/lv_area.h ****  */
  37:lvgl/src/draw/../misc/../font/../misc/lv_area.h **** typedef struct {
  38:lvgl/src/draw/../misc/../font/../misc/lv_area.h ****     lv_coord_t x;
  39:lvgl/src/draw/../misc/../font/../misc/lv_area.h ****     lv_coord_t y;
  40:lvgl/src/draw/../misc/../font/../misc/lv_area.h **** } lv_point_t;
  41:lvgl/src/draw/../misc/../font/../misc/lv_area.h **** 
ARM GAS  /var/folders/21/t9g5rlb91ys800n5npymflf80000gn/T//cc4qd6Tv.s 			page 32


  42:lvgl/src/draw/../misc/../font/../misc/lv_area.h **** /** Represents an area of the screen.*/
  43:lvgl/src/draw/../misc/../font/../misc/lv_area.h **** typedef struct {
  44:lvgl/src/draw/../misc/../font/../misc/lv_area.h ****     lv_coord_t x1;
  45:lvgl/src/draw/../misc/../font/../misc/lv_area.h ****     lv_coord_t y1;
  46:lvgl/src/draw/../misc/../font/../misc/lv_area.h ****     lv_coord_t x2;
  47:lvgl/src/draw/../misc/../font/../misc/lv_area.h ****     lv_coord_t y2;
  48:lvgl/src/draw/../misc/../font/../misc/lv_area.h **** } lv_area_t;
  49:lvgl/src/draw/../misc/../font/../misc/lv_area.h **** 
  50:lvgl/src/draw/../misc/../font/../misc/lv_area.h **** /** Alignments*/
  51:lvgl/src/draw/../misc/../font/../misc/lv_area.h **** enum {
  52:lvgl/src/draw/../misc/../font/../misc/lv_area.h ****     LV_ALIGN_DEFAULT = 0,
  53:lvgl/src/draw/../misc/../font/../misc/lv_area.h ****     LV_ALIGN_TOP_LEFT,
  54:lvgl/src/draw/../misc/../font/../misc/lv_area.h ****     LV_ALIGN_TOP_MID,
  55:lvgl/src/draw/../misc/../font/../misc/lv_area.h ****     LV_ALIGN_TOP_RIGHT,
  56:lvgl/src/draw/../misc/../font/../misc/lv_area.h ****     LV_ALIGN_BOTTOM_LEFT,
  57:lvgl/src/draw/../misc/../font/../misc/lv_area.h ****     LV_ALIGN_BOTTOM_MID,
  58:lvgl/src/draw/../misc/../font/../misc/lv_area.h ****     LV_ALIGN_BOTTOM_RIGHT,
  59:lvgl/src/draw/../misc/../font/../misc/lv_area.h ****     LV_ALIGN_LEFT_MID,
  60:lvgl/src/draw/../misc/../font/../misc/lv_area.h ****     LV_ALIGN_RIGHT_MID,
  61:lvgl/src/draw/../misc/../font/../misc/lv_area.h ****     LV_ALIGN_CENTER,
  62:lvgl/src/draw/../misc/../font/../misc/lv_area.h **** 
  63:lvgl/src/draw/../misc/../font/../misc/lv_area.h ****     LV_ALIGN_OUT_TOP_LEFT,
  64:lvgl/src/draw/../misc/../font/../misc/lv_area.h ****     LV_ALIGN_OUT_TOP_MID,
  65:lvgl/src/draw/../misc/../font/../misc/lv_area.h ****     LV_ALIGN_OUT_TOP_RIGHT,
  66:lvgl/src/draw/../misc/../font/../misc/lv_area.h ****     LV_ALIGN_OUT_BOTTOM_LEFT,
  67:lvgl/src/draw/../misc/../font/../misc/lv_area.h ****     LV_ALIGN_OUT_BOTTOM_MID,
  68:lvgl/src/draw/../misc/../font/../misc/lv_area.h ****     LV_ALIGN_OUT_BOTTOM_RIGHT,
  69:lvgl/src/draw/../misc/../font/../misc/lv_area.h ****     LV_ALIGN_OUT_LEFT_TOP,
  70:lvgl/src/draw/../misc/../font/../misc/lv_area.h ****     LV_ALIGN_OUT_LEFT_MID,
  71:lvgl/src/draw/../misc/../font/../misc/lv_area.h ****     LV_ALIGN_OUT_LEFT_BOTTOM,
  72:lvgl/src/draw/../misc/../font/../misc/lv_area.h ****     LV_ALIGN_OUT_RIGHT_TOP,
  73:lvgl/src/draw/../misc/../font/../misc/lv_area.h ****     LV_ALIGN_OUT_RIGHT_MID,
  74:lvgl/src/draw/../misc/../font/../misc/lv_area.h ****     LV_ALIGN_OUT_RIGHT_BOTTOM,
  75:lvgl/src/draw/../misc/../font/../misc/lv_area.h **** };
  76:lvgl/src/draw/../misc/../font/../misc/lv_area.h **** typedef uint8_t lv_align_t;
  77:lvgl/src/draw/../misc/../font/../misc/lv_area.h **** 
  78:lvgl/src/draw/../misc/../font/../misc/lv_area.h **** enum {
  79:lvgl/src/draw/../misc/../font/../misc/lv_area.h ****     LV_DIR_NONE     = 0x00,
  80:lvgl/src/draw/../misc/../font/../misc/lv_area.h ****     LV_DIR_LEFT     = (1 << 0),
  81:lvgl/src/draw/../misc/../font/../misc/lv_area.h ****     LV_DIR_RIGHT    = (1 << 1),
  82:lvgl/src/draw/../misc/../font/../misc/lv_area.h ****     LV_DIR_TOP      = (1 << 2),
  83:lvgl/src/draw/../misc/../font/../misc/lv_area.h ****     LV_DIR_BOTTOM   = (1 << 3),
  84:lvgl/src/draw/../misc/../font/../misc/lv_area.h ****     LV_DIR_HOR      = LV_DIR_LEFT | LV_DIR_RIGHT,
  85:lvgl/src/draw/../misc/../font/../misc/lv_area.h ****     LV_DIR_VER      = LV_DIR_TOP | LV_DIR_BOTTOM,
  86:lvgl/src/draw/../misc/../font/../misc/lv_area.h ****     LV_DIR_ALL      = LV_DIR_HOR | LV_DIR_VER,
  87:lvgl/src/draw/../misc/../font/../misc/lv_area.h **** };
  88:lvgl/src/draw/../misc/../font/../misc/lv_area.h **** 
  89:lvgl/src/draw/../misc/../font/../misc/lv_area.h **** typedef uint8_t lv_dir_t;
  90:lvgl/src/draw/../misc/../font/../misc/lv_area.h **** 
  91:lvgl/src/draw/../misc/../font/../misc/lv_area.h **** /**********************
  92:lvgl/src/draw/../misc/../font/../misc/lv_area.h ****  * GLOBAL PROTOTYPES
  93:lvgl/src/draw/../misc/../font/../misc/lv_area.h ****  **********************/
  94:lvgl/src/draw/../misc/../font/../misc/lv_area.h **** 
  95:lvgl/src/draw/../misc/../font/../misc/lv_area.h **** /**
  96:lvgl/src/draw/../misc/../font/../misc/lv_area.h ****  * Initialize an area
  97:lvgl/src/draw/../misc/../font/../misc/lv_area.h ****  * @param area_p pointer to an area
  98:lvgl/src/draw/../misc/../font/../misc/lv_area.h ****  * @param x1 left coordinate of the area
ARM GAS  /var/folders/21/t9g5rlb91ys800n5npymflf80000gn/T//cc4qd6Tv.s 			page 33


  99:lvgl/src/draw/../misc/../font/../misc/lv_area.h ****  * @param y1 top coordinate of the area
 100:lvgl/src/draw/../misc/../font/../misc/lv_area.h ****  * @param x2 right coordinate of the area
 101:lvgl/src/draw/../misc/../font/../misc/lv_area.h ****  * @param y2 bottom coordinate of the area
 102:lvgl/src/draw/../misc/../font/../misc/lv_area.h ****  */
 103:lvgl/src/draw/../misc/../font/../misc/lv_area.h **** void lv_area_set(lv_area_t * area_p, lv_coord_t x1, lv_coord_t y1, lv_coord_t x2, lv_coord_t y2);
 104:lvgl/src/draw/../misc/../font/../misc/lv_area.h **** 
 105:lvgl/src/draw/../misc/../font/../misc/lv_area.h **** /**
 106:lvgl/src/draw/../misc/../font/../misc/lv_area.h ****  * Copy an area
 107:lvgl/src/draw/../misc/../font/../misc/lv_area.h ****  * @param dest pointer to the destination area
 108:lvgl/src/draw/../misc/../font/../misc/lv_area.h ****  * @param src pointer to the source area
 109:lvgl/src/draw/../misc/../font/../misc/lv_area.h ****  */
 110:lvgl/src/draw/../misc/../font/../misc/lv_area.h **** inline static void lv_area_copy(lv_area_t * dest, const lv_area_t * src)
 111:lvgl/src/draw/../misc/../font/../misc/lv_area.h **** {
 112:lvgl/src/draw/../misc/../font/../misc/lv_area.h ****     dest->x1 = src->x1;
 113:lvgl/src/draw/../misc/../font/../misc/lv_area.h ****     dest->y1 = src->y1;
 114:lvgl/src/draw/../misc/../font/../misc/lv_area.h ****     dest->x2 = src->x2;
 115:lvgl/src/draw/../misc/../font/../misc/lv_area.h ****     dest->y2 = src->y2;
 116:lvgl/src/draw/../misc/../font/../misc/lv_area.h **** }
 117:lvgl/src/draw/../misc/../font/../misc/lv_area.h **** 
 118:lvgl/src/draw/../misc/../font/../misc/lv_area.h **** /**
 119:lvgl/src/draw/../misc/../font/../misc/lv_area.h ****  * Get the width of an area
 120:lvgl/src/draw/../misc/../font/../misc/lv_area.h ****  * @param area_p pointer to an area
 121:lvgl/src/draw/../misc/../font/../misc/lv_area.h ****  * @return the width of the area (if x1 == x2 -> width = 1)
 122:lvgl/src/draw/../misc/../font/../misc/lv_area.h ****  */
 123:lvgl/src/draw/../misc/../font/../misc/lv_area.h **** static inline lv_coord_t lv_area_get_width(const lv_area_t * area_p)
 408              		.loc 4 123 26 view .LVU119
 409              	.LBB55:
 124:lvgl/src/draw/../misc/../font/../misc/lv_area.h **** {
 125:lvgl/src/draw/../misc/../font/../misc/lv_area.h ****     return (lv_coord_t)(area_p->x2 - area_p->x1 + 1);
 410              		.loc 4 125 5 view .LVU120
 411              		.loc 4 125 31 is_stmt 0 view .LVU121
 412 0068 099A     		ldr	r2, [sp, #36]
 413 006a 9388     		ldrh	r3, [r2, #4]
 414              		.loc 4 125 44 view .LVU122
 415 006c 1288     		ldrh	r2, [r2]
 416              		.loc 4 125 36 view .LVU123
 417 006e 9B1A     		subs	r3, r3, r2
 418 0070 9BB2     		uxth	r3, r3
 419              		.loc 4 125 49 view .LVU124
 420 0072 0133     		adds	r3, r3, #1
 421              		.loc 4 125 12 view .LVU125
 422 0074 1BB2     		sxth	r3, r3
 423              	.LVL33:
 424              	.L22:
 425              		.loc 4 125 12 view .LVU126
 426              	.LBE55:
 427              	.LBE54:
 121:lvgl/src/draw/lv_draw_label.c ****     int32_t line_height = line_height_font + dsc->line_space;
 428              		.loc 1 121 5 is_stmt 1 view .LVU127
 429              	.LBB56:
 430              	.LBI56:
 431              		.file 5 "lvgl/src/draw/../misc/../font/lv_font.h"
   1:lvgl/src/draw/../misc/../font/lv_font.h **** /**
   2:lvgl/src/draw/../misc/../font/lv_font.h ****  * @file lv_font.h
   3:lvgl/src/draw/../misc/../font/lv_font.h ****  *
   4:lvgl/src/draw/../misc/../font/lv_font.h ****  */
   5:lvgl/src/draw/../misc/../font/lv_font.h **** 
ARM GAS  /var/folders/21/t9g5rlb91ys800n5npymflf80000gn/T//cc4qd6Tv.s 			page 34


   6:lvgl/src/draw/../misc/../font/lv_font.h **** #ifndef LV_FONT_H
   7:lvgl/src/draw/../misc/../font/lv_font.h **** #define LV_FONT_H
   8:lvgl/src/draw/../misc/../font/lv_font.h **** 
   9:lvgl/src/draw/../misc/../font/lv_font.h **** #ifdef __cplusplus
  10:lvgl/src/draw/../misc/../font/lv_font.h **** extern "C" {
  11:lvgl/src/draw/../misc/../font/lv_font.h **** #endif
  12:lvgl/src/draw/../misc/../font/lv_font.h **** 
  13:lvgl/src/draw/../misc/../font/lv_font.h **** /*********************
  14:lvgl/src/draw/../misc/../font/lv_font.h ****  *      INCLUDES
  15:lvgl/src/draw/../misc/../font/lv_font.h ****  *********************/
  16:lvgl/src/draw/../misc/../font/lv_font.h **** #include "../lv_conf_internal.h"
  17:lvgl/src/draw/../misc/../font/lv_font.h **** #include <stdint.h>
  18:lvgl/src/draw/../misc/../font/lv_font.h **** #include <stddef.h>
  19:lvgl/src/draw/../misc/../font/lv_font.h **** #include <stdbool.h>
  20:lvgl/src/draw/../misc/../font/lv_font.h **** 
  21:lvgl/src/draw/../misc/../font/lv_font.h **** #include "lv_symbol_def.h"
  22:lvgl/src/draw/../misc/../font/lv_font.h **** #include "../misc/lv_area.h"
  23:lvgl/src/draw/../misc/../font/lv_font.h **** 
  24:lvgl/src/draw/../misc/../font/lv_font.h **** /*********************
  25:lvgl/src/draw/../misc/../font/lv_font.h ****  *      DEFINES
  26:lvgl/src/draw/../misc/../font/lv_font.h ****  *********************/
  27:lvgl/src/draw/../misc/../font/lv_font.h **** 
  28:lvgl/src/draw/../misc/../font/lv_font.h **** /* imgfont identifier */
  29:lvgl/src/draw/../misc/../font/lv_font.h **** #define LV_IMGFONT_BPP 9
  30:lvgl/src/draw/../misc/../font/lv_font.h **** 
  31:lvgl/src/draw/../misc/../font/lv_font.h **** /**********************
  32:lvgl/src/draw/../misc/../font/lv_font.h ****  *      TYPEDEFS
  33:lvgl/src/draw/../misc/../font/lv_font.h ****  **********************/
  34:lvgl/src/draw/../misc/../font/lv_font.h **** 
  35:lvgl/src/draw/../misc/../font/lv_font.h **** /*------------------
  36:lvgl/src/draw/../misc/../font/lv_font.h ****  * General types
  37:lvgl/src/draw/../misc/../font/lv_font.h ****  *-----------------*/
  38:lvgl/src/draw/../misc/../font/lv_font.h **** 
  39:lvgl/src/draw/../misc/../font/lv_font.h **** struct _lv_font_t;
  40:lvgl/src/draw/../misc/../font/lv_font.h **** /** Describes the properties of a glyph.*/
  41:lvgl/src/draw/../misc/../font/lv_font.h **** typedef struct {
  42:lvgl/src/draw/../misc/../font/lv_font.h ****     const struct _lv_font_t *
  43:lvgl/src/draw/../misc/../font/lv_font.h ****         resolved_font; /**< Pointer to a font where the glyph was actually found after handling fal
  44:lvgl/src/draw/../misc/../font/lv_font.h ****     uint16_t adv_w; /**< The glyph needs this space. Draw the next glyph after this width.*/
  45:lvgl/src/draw/../misc/../font/lv_font.h ****     uint16_t box_w; /**< Width of the glyph's bounding box*/
  46:lvgl/src/draw/../misc/../font/lv_font.h ****     uint16_t box_h; /**< Height of the glyph's bounding box*/
  47:lvgl/src/draw/../misc/../font/lv_font.h ****     int16_t ofs_x;  /**< x offset of the bounding box*/
  48:lvgl/src/draw/../misc/../font/lv_font.h ****     int16_t ofs_y;  /**< y offset of the bounding box*/
  49:lvgl/src/draw/../misc/../font/lv_font.h ****     uint8_t bpp: 4;  /**< Bit-per-pixel: 1, 2, 4, 8*/
  50:lvgl/src/draw/../misc/../font/lv_font.h ****     uint8_t is_placeholder: 1; /** Glyph is missing. But placeholder will still be displayed */
  51:lvgl/src/draw/../misc/../font/lv_font.h **** } lv_font_glyph_dsc_t;
  52:lvgl/src/draw/../misc/../font/lv_font.h **** 
  53:lvgl/src/draw/../misc/../font/lv_font.h **** /** The bitmaps might be upscaled by 3 to achieve subpixel rendering.*/
  54:lvgl/src/draw/../misc/../font/lv_font.h **** enum {
  55:lvgl/src/draw/../misc/../font/lv_font.h ****     LV_FONT_SUBPX_NONE,
  56:lvgl/src/draw/../misc/../font/lv_font.h ****     LV_FONT_SUBPX_HOR,
  57:lvgl/src/draw/../misc/../font/lv_font.h ****     LV_FONT_SUBPX_VER,
  58:lvgl/src/draw/../misc/../font/lv_font.h ****     LV_FONT_SUBPX_BOTH,
  59:lvgl/src/draw/../misc/../font/lv_font.h **** };
  60:lvgl/src/draw/../misc/../font/lv_font.h **** 
  61:lvgl/src/draw/../misc/../font/lv_font.h **** typedef uint8_t lv_font_subpx_t;
  62:lvgl/src/draw/../misc/../font/lv_font.h **** 
ARM GAS  /var/folders/21/t9g5rlb91ys800n5npymflf80000gn/T//cc4qd6Tv.s 			page 35


  63:lvgl/src/draw/../misc/../font/lv_font.h **** /** Describe the properties of a font*/
  64:lvgl/src/draw/../misc/../font/lv_font.h **** typedef struct _lv_font_t {
  65:lvgl/src/draw/../misc/../font/lv_font.h ****     /** Get a glyph's descriptor from a font*/
  66:lvgl/src/draw/../misc/../font/lv_font.h ****     bool (*get_glyph_dsc)(const struct _lv_font_t *, lv_font_glyph_dsc_t *, uint32_t letter, uint32
  67:lvgl/src/draw/../misc/../font/lv_font.h **** 
  68:lvgl/src/draw/../misc/../font/lv_font.h ****     /** Get a glyph's bitmap from a font*/
  69:lvgl/src/draw/../misc/../font/lv_font.h ****     const uint8_t * (*get_glyph_bitmap)(const struct _lv_font_t *, uint32_t);
  70:lvgl/src/draw/../misc/../font/lv_font.h **** 
  71:lvgl/src/draw/../misc/../font/lv_font.h ****     /*Pointer to the font in a font pack (must have the same line height)*/
  72:lvgl/src/draw/../misc/../font/lv_font.h ****     lv_coord_t line_height;         /**< The real line height where any text fits*/
  73:lvgl/src/draw/../misc/../font/lv_font.h ****     lv_coord_t base_line;           /**< Base line measured from the top of the line_height*/
  74:lvgl/src/draw/../misc/../font/lv_font.h ****     uint8_t subpx  : 2;             /**< An element of `lv_font_subpx_t`*/
  75:lvgl/src/draw/../misc/../font/lv_font.h **** 
  76:lvgl/src/draw/../misc/../font/lv_font.h ****     int8_t underline_position;      /**< Distance between the top of the underline and base line (<
  77:lvgl/src/draw/../misc/../font/lv_font.h ****     int8_t underline_thickness;     /**< Thickness of the underline*/
  78:lvgl/src/draw/../misc/../font/lv_font.h **** 
  79:lvgl/src/draw/../misc/../font/lv_font.h ****     const void * dsc;               /**< Store implementation specific or run_time data or caching 
  80:lvgl/src/draw/../misc/../font/lv_font.h ****     const struct _lv_font_t * fallback;   /**< Fallback font for missing glyph. Resolved recursivel
  81:lvgl/src/draw/../misc/../font/lv_font.h **** #if LV_USE_USER_DATA
  82:lvgl/src/draw/../misc/../font/lv_font.h ****     void * user_data;               /**< Custom user data for font.*/
  83:lvgl/src/draw/../misc/../font/lv_font.h **** #endif
  84:lvgl/src/draw/../misc/../font/lv_font.h **** } lv_font_t;
  85:lvgl/src/draw/../misc/../font/lv_font.h **** 
  86:lvgl/src/draw/../misc/../font/lv_font.h **** /**********************
  87:lvgl/src/draw/../misc/../font/lv_font.h ****  * GLOBAL PROTOTYPES
  88:lvgl/src/draw/../misc/../font/lv_font.h ****  **********************/
  89:lvgl/src/draw/../misc/../font/lv_font.h **** 
  90:lvgl/src/draw/../misc/../font/lv_font.h **** /**
  91:lvgl/src/draw/../misc/../font/lv_font.h ****  * Return with the bitmap of a font.
  92:lvgl/src/draw/../misc/../font/lv_font.h ****  * @param font_p pointer to a font
  93:lvgl/src/draw/../misc/../font/lv_font.h ****  * @param letter a UNICODE character code
  94:lvgl/src/draw/../misc/../font/lv_font.h ****  * @return pointer to the bitmap of the letter
  95:lvgl/src/draw/../misc/../font/lv_font.h ****  */
  96:lvgl/src/draw/../misc/../font/lv_font.h **** const uint8_t * lv_font_get_glyph_bitmap(const lv_font_t * font_p, uint32_t letter);
  97:lvgl/src/draw/../misc/../font/lv_font.h **** 
  98:lvgl/src/draw/../misc/../font/lv_font.h **** /**
  99:lvgl/src/draw/../misc/../font/lv_font.h ****  * Get the descriptor of a glyph
 100:lvgl/src/draw/../misc/../font/lv_font.h ****  * @param font_p pointer to font
 101:lvgl/src/draw/../misc/../font/lv_font.h ****  * @param dsc_out store the result descriptor here
 102:lvgl/src/draw/../misc/../font/lv_font.h ****  * @param letter a UNICODE letter code
 103:lvgl/src/draw/../misc/../font/lv_font.h ****  * @param letter_next the next letter after `letter`. Used for kerning
 104:lvgl/src/draw/../misc/../font/lv_font.h ****  * @return true: descriptor is successfully loaded into `dsc_out`.
 105:lvgl/src/draw/../misc/../font/lv_font.h ****  *         false: the letter was not found, no data is loaded to `dsc_out`
 106:lvgl/src/draw/../misc/../font/lv_font.h ****  */
 107:lvgl/src/draw/../misc/../font/lv_font.h **** bool lv_font_get_glyph_dsc(const lv_font_t * font_p, lv_font_glyph_dsc_t * dsc_out, uint32_t letter
 108:lvgl/src/draw/../misc/../font/lv_font.h ****                            uint32_t letter_next);
 109:lvgl/src/draw/../misc/../font/lv_font.h **** 
 110:lvgl/src/draw/../misc/../font/lv_font.h **** /**
 111:lvgl/src/draw/../misc/../font/lv_font.h ****  * Get the width of a glyph with kerning
 112:lvgl/src/draw/../misc/../font/lv_font.h ****  * @param font pointer to a font
 113:lvgl/src/draw/../misc/../font/lv_font.h ****  * @param letter a UNICODE letter
 114:lvgl/src/draw/../misc/../font/lv_font.h ****  * @param letter_next the next letter after `letter`. Used for kerning
 115:lvgl/src/draw/../misc/../font/lv_font.h ****  * @return the width of the glyph
 116:lvgl/src/draw/../misc/../font/lv_font.h ****  */
 117:lvgl/src/draw/../misc/../font/lv_font.h **** uint16_t lv_font_get_glyph_width(const lv_font_t * font, uint32_t letter, uint32_t letter_next);
 118:lvgl/src/draw/../misc/../font/lv_font.h **** 
 119:lvgl/src/draw/../misc/../font/lv_font.h **** /**
ARM GAS  /var/folders/21/t9g5rlb91ys800n5npymflf80000gn/T//cc4qd6Tv.s 			page 36


 120:lvgl/src/draw/../misc/../font/lv_font.h ****  * Get the line height of a font. All characters fit into this height
 121:lvgl/src/draw/../misc/../font/lv_font.h ****  * @param font_p pointer to a font
 122:lvgl/src/draw/../misc/../font/lv_font.h ****  * @return the height of a font
 123:lvgl/src/draw/../misc/../font/lv_font.h ****  */
 124:lvgl/src/draw/../misc/../font/lv_font.h **** static inline lv_coord_t lv_font_get_line_height(const lv_font_t * font_p)
 432              		.loc 5 124 26 view .LVU128
 433              	.LBB57:
 125:lvgl/src/draw/../misc/../font/lv_font.h **** {
 126:lvgl/src/draw/../misc/../font/lv_font.h ****     return font_p->line_height;
 434              		.loc 5 126 5 view .LVU129
 435              		.loc 5 126 18 is_stmt 0 view .LVU130
 436 0076 049A     		ldr	r2, [sp, #16]
 437 0078 B2F90860 		ldrsh	r6, [r2, #8]
 438              	.LVL34:
 439              		.loc 5 126 18 view .LVU131
 440              	.LBE57:
 441              	.LBE56:
 122:lvgl/src/draw/lv_draw_label.c **** 
 442              		.loc 1 122 5 is_stmt 1 view .LVU132
 122:lvgl/src/draw/lv_draw_label.c **** 
 443              		.loc 1 122 49 is_stmt 0 view .LVU133
 444 007c B5F91220 		ldrsh	r2, [r5, #18]
 122:lvgl/src/draw/lv_draw_label.c **** 
 445              		.loc 1 122 13 view .LVU134
 446 0080 9719     		adds	r7, r2, r6
 447 0082 0D97     		str	r7, [sp, #52]
 448              	.LVL35:
 125:lvgl/src/draw/lv_draw_label.c ****     lv_point_t pos;
 449              		.loc 1 125 5 is_stmt 1 view .LVU135
 126:lvgl/src/draw/lv_draw_label.c ****     pos.x = coords->x1;
 450              		.loc 1 126 5 view .LVU136
 127:lvgl/src/draw/lv_draw_label.c ****     pos.y = coords->y1;
 451              		.loc 1 127 5 view .LVU137
 127:lvgl/src/draw/lv_draw_label.c ****     pos.y = coords->y1;
 452              		.loc 1 127 19 is_stmt 0 view .LVU138
 453 0084 0998     		ldr	r0, [sp, #36]
 454 0086 B0F90020 		ldrsh	r2, [r0]
 127:lvgl/src/draw/lv_draw_label.c ****     pos.y = coords->y1;
 455              		.loc 1 127 11 view .LVU139
 456 008a ADF8A420 		strh	r2, [sp, #164]	@ movhi
 128:lvgl/src/draw/lv_draw_label.c **** 
 457              		.loc 1 128 5 is_stmt 1 view .LVU140
 128:lvgl/src/draw/lv_draw_label.c **** 
 458              		.loc 1 128 19 is_stmt 0 view .LVU141
 459 008e B0F90220 		ldrsh	r2, [r0, #2]
 128:lvgl/src/draw/lv_draw_label.c **** 
 460              		.loc 1 128 11 view .LVU142
 461 0092 ADF8A620 		strh	r2, [sp, #166]	@ movhi
 130:lvgl/src/draw/lv_draw_label.c ****     int32_t y_ofs = 0;
 462              		.loc 1 130 5 is_stmt 1 view .LVU143
 463              	.LVL36:
 131:lvgl/src/draw/lv_draw_label.c ****     x_ofs = dsc->ofs_x;
 464              		.loc 1 131 5 view .LVU144
 132:lvgl/src/draw/lv_draw_label.c ****     y_ofs = dsc->ofs_y;
 465              		.loc 1 132 5 view .LVU145
 132:lvgl/src/draw/lv_draw_label.c ****     y_ofs = dsc->ofs_y;
 466              		.loc 1 132 16 is_stmt 0 view .LVU146
ARM GAS  /var/folders/21/t9g5rlb91ys800n5npymflf80000gn/T//cc4qd6Tv.s 			page 37


 467 0096 B5F91610 		ldrsh	r1, [r5, #22]
 468 009a 0E91     		str	r1, [sp, #56]
 469              	.LVL37:
 133:lvgl/src/draw/lv_draw_label.c ****     pos.y += y_ofs;
 470              		.loc 1 133 5 is_stmt 1 view .LVU147
 133:lvgl/src/draw/lv_draw_label.c ****     pos.y += y_ofs;
 471              		.loc 1 133 16 is_stmt 0 view .LVU148
 472 009c B5F91810 		ldrsh	r1, [r5, #24]
 473              	.LVL38:
 134:lvgl/src/draw/lv_draw_label.c **** 
 474              		.loc 1 134 5 is_stmt 1 view .LVU149
 134:lvgl/src/draw/lv_draw_label.c **** 
 475              		.loc 1 134 11 is_stmt 0 view .LVU150
 476 00a0 11FA82F2 		uxtah	r2, r1, r2
 477 00a4 ADF8A620 		strh	r2, [sp, #166]	@ movhi
 136:lvgl/src/draw/lv_draw_label.c ****     int32_t last_line_start = -1;
 478              		.loc 1 136 5 is_stmt 1 view .LVU151
 479              	.LVL39:
 137:lvgl/src/draw/lv_draw_label.c **** 
 480              		.loc 1 137 5 view .LVU152
 140:lvgl/src/draw/lv_draw_label.c ****         /*If the label changed too much recalculate the hint.*/
 481              		.loc 1 140 5 view .LVU153
 140:lvgl/src/draw/lv_draw_label.c ****         /*If the label changed too much recalculate the hint.*/
 482              		.loc 1 140 7 is_stmt 0 view .LVU154
 483 00a8 002C     		cmp	r4, #0
 484 00aa 46D0     		beq	.L57
 140:lvgl/src/draw/lv_draw_label.c ****         /*If the label changed too much recalculate the hint.*/
 485              		.loc 1 140 13 discriminator 1 view .LVU155
 486 00ac 31BB     		cbnz	r1, .L58
 140:lvgl/src/draw/lv_draw_label.c ****         /*If the label changed too much recalculate the hint.*/
 487              		.loc 1 140 36 discriminator 2 view .LVU156
 488 00ae B0F90220 		ldrsh	r2, [r0, #2]
 140:lvgl/src/draw/lv_draw_label.c ****         /*If the label changed too much recalculate the hint.*/
 489              		.loc 1 140 27 discriminator 2 view .LVU157
 490 00b2 002A     		cmp	r2, #0
 491 00b4 13DB     		blt	.L68
 492 00b6 4FF0FF37 		mov	r7, #-1
 493              	.LVL40:
 140:lvgl/src/draw/lv_draw_label.c ****         /*If the label changed too much recalculate the hint.*/
 494              		.loc 1 140 27 discriminator 2 view .LVU158
 495 00ba 21E0     		b	.L24
 496              	.LVL41:
 497              	.L21:
 498              	.LBB58:
 115:lvgl/src/draw/lv_draw_label.c ****         lv_txt_get_size(&p, txt, dsc->font, dsc->letter_space, dsc->line_space, LV_COORD_MAX,
 499              		.loc 1 115 9 is_stmt 1 view .LVU159
 116:lvgl/src/draw/lv_draw_label.c ****                         dsc->flag);
 500              		.loc 1 116 9 view .LVU160
 116:lvgl/src/draw/lv_draw_label.c ****                         dsc->flag);
 501              		.loc 1 116 67 is_stmt 0 view .LVU161
 502 00bc B5F91220 		ldrsh	r2, [r5, #18]
 116:lvgl/src/draw/lv_draw_label.c ****                         dsc->flag);
 503              		.loc 1 116 9 view .LVU162
 504 00c0 0293     		str	r3, [sp, #8]
 505              	.LVL42:
 116:lvgl/src/draw/lv_draw_label.c ****                         dsc->flag);
 506              		.loc 1 116 9 view .LVU163
ARM GAS  /var/folders/21/t9g5rlb91ys800n5npymflf80000gn/T//cc4qd6Tv.s 			page 38


 507 00c2 41F6FF73 		movw	r3, #8191
 508 00c6 0193     		str	r3, [sp, #4]
 509 00c8 0092     		str	r2, [sp]
 510 00ca B5F91430 		ldrsh	r3, [r5, #20]
 511 00ce 2A68     		ldr	r2, [r5]
 512 00d0 0899     		ldr	r1, [sp, #32]
 513 00d2 15A8     		add	r0, sp, #84
 514              	.LVL43:
 116:lvgl/src/draw/lv_draw_label.c ****                         dsc->flag);
 515              		.loc 1 116 9 view .LVU164
 516 00d4 FFF7FEFF 		bl	lv_txt_get_size
 517              	.LVL44:
 118:lvgl/src/draw/lv_draw_label.c ****     }
 518              		.loc 1 118 9 is_stmt 1 view .LVU165
 118:lvgl/src/draw/lv_draw_label.c ****     }
 519              		.loc 1 118 14 is_stmt 0 view .LVU166
 520 00d8 BDF95430 		ldrsh	r3, [sp, #84]
 521              	.LVL45:
 118:lvgl/src/draw/lv_draw_label.c ****     }
 522              		.loc 1 118 14 view .LVU167
 523 00dc CBE7     		b	.L22
 524              	.LVL46:
 525              	.L68:
 118:lvgl/src/draw/lv_draw_label.c ****     }
 526              		.loc 1 118 14 view .LVU168
 527              	.LBE58:
 142:lvgl/src/draw/lv_draw_label.c ****             hint->line_start = -1;
 528              		.loc 1 142 9 is_stmt 1 view .LVU169
 142:lvgl/src/draw/lv_draw_label.c ****             hint->line_start = -1;
 529              		.loc 1 142 12 is_stmt 0 view .LVU170
 530 00de A168     		ldr	r1, [r4, #8]
 531              	.LVL47:
 142:lvgl/src/draw/lv_draw_label.c ****             hint->line_start = -1;
 532              		.loc 1 142 12 view .LVU171
 533 00e0 8A1A     		subs	r2, r1, r2
 534 00e2 002A     		cmp	r2, #0
 535 00e4 B8BF     		it	lt
 536 00e6 5242     		rsblt	r2, r2, #0
 142:lvgl/src/draw/lv_draw_label.c ****             hint->line_start = -1;
 537              		.loc 1 142 73 view .LVU172
 538 00e8 C7F50071 		rsb	r1, r7, #512
 142:lvgl/src/draw/lv_draw_label.c ****             hint->line_start = -1;
 539              		.loc 1 142 11 view .LVU173
 540 00ec B2EB410F 		cmp	r2, r1, lsl #1
 541 00f0 02DD     		ble	.L25
 143:lvgl/src/draw/lv_draw_label.c ****         }
 542              		.loc 1 143 13 is_stmt 1 view .LVU174
 143:lvgl/src/draw/lv_draw_label.c ****         }
 543              		.loc 1 143 30 is_stmt 0 view .LVU175
 544 00f2 4FF0FF32 		mov	r2, #-1
 545 00f6 2260     		str	r2, [r4]
 546              	.LVL48:
 547              	.L25:
 145:lvgl/src/draw/lv_draw_label.c ****     }
 548              		.loc 1 145 9 is_stmt 1 view .LVU176
 145:lvgl/src/draw/lv_draw_label.c ****     }
 549              		.loc 1 145 25 is_stmt 0 view .LVU177
ARM GAS  /var/folders/21/t9g5rlb91ys800n5npymflf80000gn/T//cc4qd6Tv.s 			page 39


 550 00f8 2768     		ldr	r7, [r4]
 551              	.LVL49:
 149:lvgl/src/draw/lv_draw_label.c ****         line_start = last_line_start;
 552              		.loc 1 149 5 is_stmt 1 view .LVU178
 553 00fa 01E0     		b	.L24
 554              	.LVL50:
 555              	.L58:
 149:lvgl/src/draw/lv_draw_label.c ****         line_start = last_line_start;
 556              		.loc 1 149 5 is_stmt 0 view .LVU179
 557 00fc 4FF0FF37 		mov	r7, #-1
 558              	.LVL51:
 559              	.L24:
 149:lvgl/src/draw/lv_draw_label.c ****         line_start = last_line_start;
 560              		.loc 1 149 13 discriminator 1 view .LVU180
 561 0100 002F     		cmp	r7, #0
 562 0102 1CDB     		blt	.L60
 150:lvgl/src/draw/lv_draw_label.c ****         pos.y += hint->y;
 563              		.loc 1 150 9 is_stmt 1 view .LVU181
 564              	.LVL52:
 151:lvgl/src/draw/lv_draw_label.c ****     }
 565              		.loc 1 151 9 view .LVU182
 151:lvgl/src/draw/lv_draw_label.c ****     }
 566              		.loc 1 151 12 is_stmt 0 view .LVU183
 567 0104 BDF8A620 		ldrh	r2, [sp, #166]
 151:lvgl/src/draw/lv_draw_label.c ****     }
 568              		.loc 1 151 22 view .LVU184
 569 0108 6168     		ldr	r1, [r4, #4]
 151:lvgl/src/draw/lv_draw_label.c ****     }
 570              		.loc 1 151 15 view .LVU185
 571 010a 0A44     		add	r2, r2, r1
 572 010c ADF8A620 		strh	r2, [sp, #166]	@ movhi
 573              	.LVL53:
 574              	.L23:
 154:lvgl/src/draw/lv_draw_label.c **** 
 575              		.loc 1 154 5 is_stmt 1 view .LVU186
 154:lvgl/src/draw/lv_draw_label.c **** 
 576              		.loc 1 154 38 is_stmt 0 view .LVU187
 577 0110 1AB2     		sxth	r2, r3
 578 0112 0A92     		str	r2, [sp, #40]
 154:lvgl/src/draw/lv_draw_label.c **** 
 579              		.loc 1 154 115 view .LVU188
 580 0114 6B7F     		ldrb	r3, [r5, #29]	@ zero_extendqisi2
 581              	.LVL54:
 154:lvgl/src/draw/lv_draw_label.c **** 
 582              		.loc 1 154 38 view .LVU189
 583 0116 0193     		str	r3, [sp, #4]
 584 0118 0023     		movs	r3, #0
 585 011a 0093     		str	r3, [sp]
 586 011c 1346     		mov	r3, r2
 587 011e B5F91420 		ldrsh	r2, [r5, #20]
 588 0122 0499     		ldr	r1, [sp, #16]
 589 0124 0898     		ldr	r0, [sp, #32]
 590 0126 3844     		add	r0, r0, r7
 591 0128 FFF7FEFF 		bl	_lv_txt_get_next_line
 592              	.LVL55:
 154:lvgl/src/draw/lv_draw_label.c **** 
 593              		.loc 1 154 14 view .LVU190
ARM GAS  /var/folders/21/t9g5rlb91ys800n5npymflf80000gn/T//cc4qd6Tv.s 			page 40


 594 012c 00EB070B 		add	fp, r0, r7
 595              	.LVL56:
 157:lvgl/src/draw/lv_draw_label.c ****         /*Go to next line*/
 596              		.loc 1 157 5 is_stmt 1 view .LVU191
 597 0130 DDF83480 		ldr	r8, [sp, #52]
 598 0134 DDF820A0 		ldr	r10, [sp, #32]
 157:lvgl/src/draw/lv_draw_label.c ****         /*Go to next line*/
 599              		.loc 1 157 10 is_stmt 0 view .LVU192
 600 0138 09E0     		b	.L26
 601              	.LVL57:
 602              	.L57:
 136:lvgl/src/draw/lv_draw_label.c ****     int32_t last_line_start = -1;
 603              		.loc 1 136 14 view .LVU193
 604 013a 0027     		movs	r7, #0
 605              	.LVL58:
 136:lvgl/src/draw/lv_draw_label.c ****     int32_t last_line_start = -1;
 606              		.loc 1 136 14 view .LVU194
 607 013c E8E7     		b	.L23
 608              	.LVL59:
 609              	.L60:
 136:lvgl/src/draw/lv_draw_label.c ****     int32_t last_line_start = -1;
 610              		.loc 1 136 14 view .LVU195
 611 013e 0027     		movs	r7, #0
 612 0140 E6E7     		b	.L23
 613              	.LVL60:
 614              	.L27:
 170:lvgl/src/draw/lv_draw_label.c ****     }
 615              		.loc 1 170 9 is_stmt 1 view .LVU196
 170:lvgl/src/draw/lv_draw_label.c ****     }
 616              		.loc 1 170 15 is_stmt 0 view .LVU197
 617 0142 3B78     		ldrb	r3, [r7]	@ zero_extendqisi2
 159:lvgl/src/draw/lv_draw_label.c ****         line_end += _lv_txt_get_next_line(&txt[line_start], font, dsc->letter_space, w, NULL, dsc->
 618              		.loc 1 159 20 view .LVU198
 619 0144 5F46     		mov	r7, fp
 170:lvgl/src/draw/lv_draw_label.c ****     }
 620              		.loc 1 170 11 view .LVU199
 621 0146 002B     		cmp	r3, #0
 622 0148 3FF47AAF 		beq	.L18
 623              	.LVL61:
 160:lvgl/src/draw/lv_draw_label.c ****         pos.y += line_height;
 624              		.loc 1 160 18 view .LVU200
 625 014c 8346     		mov	fp, r0
 626              	.LVL62:
 627              	.L26:
 157:lvgl/src/draw/lv_draw_label.c ****         /*Go to next line*/
 628              		.loc 1 157 36 is_stmt 1 view .LVU201
 157:lvgl/src/draw/lv_draw_label.c ****         /*Go to next line*/
 629              		.loc 1 157 14 is_stmt 0 view .LVU202
 630 014e BDF9A630 		ldrsh	r3, [sp, #166]
 157:lvgl/src/draw/lv_draw_label.c ****         /*Go to next line*/
 631              		.loc 1 157 17 view .LVU203
 632 0152 3344     		add	r3, r3, r6
 157:lvgl/src/draw/lv_draw_label.c ****         /*Go to next line*/
 633              		.loc 1 157 46 view .LVU204
 634 0154 D9F80820 		ldr	r2, [r9, #8]
 157:lvgl/src/draw/lv_draw_label.c ****         /*Go to next line*/
 635              		.loc 1 157 57 view .LVU205
ARM GAS  /var/folders/21/t9g5rlb91ys800n5npymflf80000gn/T//cc4qd6Tv.s 			page 41


 636 0158 B2F90220 		ldrsh	r2, [r2, #2]
 157:lvgl/src/draw/lv_draw_label.c ****         /*Go to next line*/
 637              		.loc 1 157 36 view .LVU206
 638 015c 9342     		cmp	r3, r2
 639 015e 28DA     		bge	.L69
 159:lvgl/src/draw/lv_draw_label.c ****         line_end += _lv_txt_get_next_line(&txt[line_start], font, dsc->letter_space, w, NULL, dsc->
 640              		.loc 1 159 9 is_stmt 1 view .LVU207
 641              	.LVL63:
 160:lvgl/src/draw/lv_draw_label.c ****         pos.y += line_height;
 642              		.loc 1 160 9 view .LVU208
 160:lvgl/src/draw/lv_draw_label.c ****         pos.y += line_height;
 643              		.loc 1 160 21 is_stmt 0 view .LVU209
 644 0160 0AEB0B07 		add	r7, r10, fp
 160:lvgl/src/draw/lv_draw_label.c ****         pos.y += line_height;
 645              		.loc 1 160 98 view .LVU210
 646 0164 6B7F     		ldrb	r3, [r5, #29]	@ zero_extendqisi2
 160:lvgl/src/draw/lv_draw_label.c ****         pos.y += line_height;
 647              		.loc 1 160 21 view .LVU211
 648 0166 0193     		str	r3, [sp, #4]
 649 0168 0023     		movs	r3, #0
 650 016a 0093     		str	r3, [sp]
 651 016c 0A9B     		ldr	r3, [sp, #40]
 652 016e B5F91420 		ldrsh	r2, [r5, #20]
 653 0172 0499     		ldr	r1, [sp, #16]
 654 0174 3846     		mov	r0, r7
 655 0176 FFF7FEFF 		bl	_lv_txt_get_next_line
 656              	.LVL64:
 160:lvgl/src/draw/lv_draw_label.c ****         pos.y += line_height;
 657              		.loc 1 160 18 view .LVU212
 658 017a 5844     		add	r0, r0, fp
 659              	.LVL65:
 161:lvgl/src/draw/lv_draw_label.c **** 
 660              		.loc 1 161 9 is_stmt 1 view .LVU213
 161:lvgl/src/draw/lv_draw_label.c **** 
 661              		.loc 1 161 12 is_stmt 0 view .LVU214
 662 017c BDF8A630 		ldrh	r3, [sp, #166]
 161:lvgl/src/draw/lv_draw_label.c **** 
 663              		.loc 1 161 15 view .LVU215
 664 0180 4344     		add	r3, r3, r8
 665 0182 1BB2     		sxth	r3, r3
 666 0184 ADF8A630 		strh	r3, [sp, #166]	@ movhi
 164:lvgl/src/draw/lv_draw_label.c ****             hint->line_start = line_start;
 667              		.loc 1 164 9 is_stmt 1 view .LVU216
 164:lvgl/src/draw/lv_draw_label.c ****             hint->line_start = line_start;
 668              		.loc 1 164 11 is_stmt 0 view .LVU217
 669 0188 002C     		cmp	r4, #0
 670 018a DAD0     		beq	.L27
 164:lvgl/src/draw/lv_draw_label.c ****             hint->line_start = line_start;
 671              		.loc 1 164 17 discriminator 1 view .LVU218
 672 018c 13F5806F 		cmn	r3, #1024
 673 0190 D7DB     		blt	.L27
 164:lvgl/src/draw/lv_draw_label.c ****             hint->line_start = line_start;
 674              		.loc 1 164 61 discriminator 2 view .LVU219
 675 0192 2368     		ldr	r3, [r4]
 164:lvgl/src/draw/lv_draw_label.c ****             hint->line_start = line_start;
 676              		.loc 1 164 54 discriminator 2 view .LVU220
 677 0194 002B     		cmp	r3, #0
ARM GAS  /var/folders/21/t9g5rlb91ys800n5npymflf80000gn/T//cc4qd6Tv.s 			page 42


 678 0196 D4DA     		bge	.L27
 165:lvgl/src/draw/lv_draw_label.c ****             hint->y          = pos.y - coords->y1;
 679              		.loc 1 165 13 is_stmt 1 view .LVU221
 165:lvgl/src/draw/lv_draw_label.c ****             hint->y          = pos.y - coords->y1;
 680              		.loc 1 165 30 is_stmt 0 view .LVU222
 681 0198 C4F800B0 		str	fp, [r4]
 166:lvgl/src/draw/lv_draw_label.c ****             hint->coord_y    = coords->y1;
 682              		.loc 1 166 13 is_stmt 1 view .LVU223
 166:lvgl/src/draw/lv_draw_label.c ****             hint->coord_y    = coords->y1;
 683              		.loc 1 166 35 is_stmt 0 view .LVU224
 684 019c BDF9A630 		ldrsh	r3, [sp, #166]
 166:lvgl/src/draw/lv_draw_label.c ****             hint->coord_y    = coords->y1;
 685              		.loc 1 166 46 view .LVU225
 686 01a0 0999     		ldr	r1, [sp, #36]
 687 01a2 B1F90220 		ldrsh	r2, [r1, #2]
 166:lvgl/src/draw/lv_draw_label.c ****             hint->coord_y    = coords->y1;
 688              		.loc 1 166 38 view .LVU226
 689 01a6 9B1A     		subs	r3, r3, r2
 166:lvgl/src/draw/lv_draw_label.c ****             hint->coord_y    = coords->y1;
 690              		.loc 1 166 30 view .LVU227
 691 01a8 6360     		str	r3, [r4, #4]
 167:lvgl/src/draw/lv_draw_label.c ****         }
 692              		.loc 1 167 13 is_stmt 1 view .LVU228
 167:lvgl/src/draw/lv_draw_label.c ****         }
 693              		.loc 1 167 38 is_stmt 0 view .LVU229
 694 01aa B1F90230 		ldrsh	r3, [r1, #2]
 167:lvgl/src/draw/lv_draw_label.c ****         }
 695              		.loc 1 167 30 view .LVU230
 696 01ae A360     		str	r3, [r4, #8]
 697 01b0 C7E7     		b	.L27
 698              	.LVL66:
 699              	.L69:
 174:lvgl/src/draw/lv_draw_label.c ****         line_width = lv_txt_get_width(&txt[line_start], line_end - line_start, font, dsc->letter_sp
 700              		.loc 1 174 5 is_stmt 1 view .LVU231
 174:lvgl/src/draw/lv_draw_label.c ****         line_width = lv_txt_get_width(&txt[line_start], line_end - line_start, font, dsc->letter_sp
 701              		.loc 1 174 7 is_stmt 0 view .LVU232
 702 01b2 0C9B     		ldr	r3, [sp, #48]
 703 01b4 022B     		cmp	r3, #2
 704 01b6 32D0     		beq	.L70
 181:lvgl/src/draw/lv_draw_label.c ****         line_width = lv_txt_get_width(&txt[line_start], line_end - line_start, font, dsc->letter_sp
 705              		.loc 1 181 10 is_stmt 1 view .LVU233
 181:lvgl/src/draw/lv_draw_label.c ****         line_width = lv_txt_get_width(&txt[line_start], line_end - line_start, font, dsc->letter_sp
 706              		.loc 1 181 12 is_stmt 0 view .LVU234
 707 01b8 0C9B     		ldr	r3, [sp, #48]
 708 01ba 032B     		cmp	r3, #3
 709 01bc 4BD0     		beq	.L71
 710              	.LVL67:
 711              	.L30:
 185:lvgl/src/draw/lv_draw_label.c ****     uint32_t sel_end = dsc->sel_end;
 712              		.loc 1 185 5 is_stmt 1 view .LVU235
 185:lvgl/src/draw/lv_draw_label.c ****     uint32_t sel_end = dsc->sel_end;
 713              		.loc 1 185 14 is_stmt 0 view .LVU236
 714 01be 6A68     		ldr	r2, [r5, #4]
 715 01c0 1446     		mov	r4, r2
 716              	.LVL68:
 186:lvgl/src/draw/lv_draw_label.c ****     if(sel_start > sel_end) {
 717              		.loc 1 186 5 is_stmt 1 view .LVU237
ARM GAS  /var/folders/21/t9g5rlb91ys800n5npymflf80000gn/T//cc4qd6Tv.s 			page 43


 186:lvgl/src/draw/lv_draw_label.c ****     if(sel_start > sel_end) {
 718              		.loc 1 186 14 is_stmt 0 view .LVU238
 719 01c2 D5F80880 		ldr	r8, [r5, #8]
 720              	.LVL69:
 187:lvgl/src/draw/lv_draw_label.c ****         uint32_t tmp = sel_start;
 721              		.loc 1 187 5 is_stmt 1 view .LVU239
 187:lvgl/src/draw/lv_draw_label.c ****         uint32_t tmp = sel_start;
 722              		.loc 1 187 7 is_stmt 0 view .LVU240
 723 01c6 4245     		cmp	r2, r8
 724 01c8 02D8     		bhi	.L31
 725 01ca 4346     		mov	r3, r8
 185:lvgl/src/draw/lv_draw_label.c ****     uint32_t sel_end = dsc->sel_end;
 726              		.loc 1 185 14 view .LVU241
 727 01cc 9046     		mov	r8, r2
 728              	.LVL70:
 186:lvgl/src/draw/lv_draw_label.c ****     if(sel_start > sel_end) {
 729              		.loc 1 186 14 view .LVU242
 730 01ce 1C46     		mov	r4, r3
 731              	.LVL71:
 732              	.L31:
 192:lvgl/src/draw/lv_draw_label.c **** 
 733              		.loc 1 192 5 is_stmt 1 view .LVU243
 194:lvgl/src/draw/lv_draw_label.c ****         lv_draw_line_dsc_init(&line_dsc);
 734              		.loc 1 194 5 view .LVU244
 194:lvgl/src/draw/lv_draw_label.c ****         lv_draw_line_dsc_init(&line_dsc);
 735              		.loc 1 194 12 is_stmt 0 view .LVU245
 736 01d0 AB7F     		ldrb	r3, [r5, #30]	@ zero_extendqisi2
 194:lvgl/src/draw/lv_draw_label.c ****         lv_draw_line_dsc_init(&line_dsc);
 737              		.loc 1 194 7 view .LVU246
 738 01d2 13F0030F 		tst	r3, #3
 739 01d6 57D1     		bne	.L72
 740              	.L32:
 202:lvgl/src/draw/lv_draw_label.c ****     uint32_t i;
 741              		.loc 1 202 5 is_stmt 1 view .LVU247
 742              	.LVL72:
 203:lvgl/src/draw/lv_draw_label.c ****     uint32_t par_start = 0;
 743              		.loc 1 203 5 view .LVU248
 204:lvgl/src/draw/lv_draw_label.c ****     lv_color_t recolor  = lv_color_black();
 744              		.loc 1 204 5 view .LVU249
 205:lvgl/src/draw/lv_draw_label.c ****     lv_color_t color = lv_color_black();
 745              		.loc 1 205 5 view .LVU250
 746              	.LBB59:
 747              	.LBI59:
 699:lvgl/src/draw/../misc/lv_color.h **** {
 748              		.loc 2 699 26 view .LVU251
 749              		.loc 2 701 5 view .LVU252
 750              	.LBB60:
 751              	.LBI60:
 594:lvgl/src/draw/../misc/lv_color.h **** {
 752              		.loc 2 594 26 view .LVU253
 753              	.LBB61:
 596:lvgl/src/draw/../misc/lv_color.h **** }
 754              		.loc 2 596 5 view .LVU254
 596:lvgl/src/draw/../misc/lv_color.h **** }
 755              		.loc 2 596 12 is_stmt 0 view .LVU255
 756 01d8 4FF00003 		mov	r3, #0	@ movhi
 757 01dc 6FF30403 		bfc	r3, #0, #5
ARM GAS  /var/folders/21/t9g5rlb91ys800n5npymflf80000gn/T//cc4qd6Tv.s 			page 44


 758 01e0 6FF34A13 		bfc	r3, #5, #6
 759 01e4 6FF3CF23 		bfc	r3, #11, #5
 760              	.LVL73:
 596:lvgl/src/draw/../misc/lv_color.h **** }
 761              		.loc 2 596 12 view .LVU256
 762 01e8 ADF82E30 		strh	r3, [sp, #46]	@ movhi
 763              	.LBE61:
 764              	.LBE60:
 765              	.LBE59:
 206:lvgl/src/draw/lv_draw_label.c ****     int32_t letter_w;
 766              		.loc 1 206 5 is_stmt 1 view .LVU257
 767              	.LBB62:
 768              	.LBI62:
 699:lvgl/src/draw/../misc/lv_color.h **** {
 769              		.loc 2 699 26 view .LVU258
 770              		.loc 2 701 5 view .LVU259
 771              	.LVL74:
 772              	.LBB63:
 773              	.LBI63:
 594:lvgl/src/draw/../misc/lv_color.h **** {
 774              		.loc 2 594 26 view .LVU260
 775              	.LBB64:
 596:lvgl/src/draw/../misc/lv_color.h **** }
 776              		.loc 2 596 5 view .LVU261
 596:lvgl/src/draw/../misc/lv_color.h **** }
 777              		.loc 2 596 12 is_stmt 0 view .LVU262
 778 01ec 4FF0000A 		mov	r10, #0	@ movhi
 779 01f0 6FF3040A 		bfc	r10, #0, #5
 780 01f4 6FF34A1A 		bfc	r10, #5, #6
 781 01f8 6FF3CF2A 		bfc	r10, #11, #5
 782              	.LVL75:
 596:lvgl/src/draw/../misc/lv_color.h **** }
 783              		.loc 2 596 12 view .LVU263
 784              	.LBE64:
 785              	.LBE63:
 786              	.LBE62:
 207:lvgl/src/draw/lv_draw_label.c **** 
 787              		.loc 1 207 5 is_stmt 1 view .LVU264
 209:lvgl/src/draw/lv_draw_label.c ****     lv_draw_rect_dsc_init(&draw_dsc_sel);
 788              		.loc 1 209 5 view .LVU265
 210:lvgl/src/draw/lv_draw_label.c ****     draw_dsc_sel.bg_color = dsc->sel_bg_color;
 789              		.loc 1 210 5 view .LVU266
 790 01fc 17A8     		add	r0, sp, #92
 791 01fe FFF7FEFF 		bl	lv_draw_rect_dsc_init
 792              	.LVL76:
 211:lvgl/src/draw/lv_draw_label.c **** 
 793              		.loc 1 211 5 view .LVU267
 211:lvgl/src/draw/lv_draw_label.c **** 
 794              		.loc 1 211 27 is_stmt 0 view .LVU268
 795 0202 2B8A     		ldrh	r3, [r5, #16]
 796 0204 ADF86030 		strh	r3, [sp, #96]	@ movhi
 213:lvgl/src/draw/lv_draw_label.c ****     /*Write out all lines*/
 797              		.loc 1 213 5 is_stmt 1 view .LVU269
 213:lvgl/src/draw/lv_draw_label.c ****     /*Write out all lines*/
 798              		.loc 1 213 30 is_stmt 0 view .LVU270
 799 0208 BDF9A430 		ldrsh	r3, [sp, #164]
 800 020c 1093     		str	r3, [sp, #64]
ARM GAS  /var/folders/21/t9g5rlb91ys800n5npymflf80000gn/T//cc4qd6Tv.s 			page 45


 801              	.LVL77:
 215:lvgl/src/draw/lv_draw_label.c ****         pos.x += x_ofs;
 802              		.loc 1 215 5 is_stmt 1 view .LVU271
 204:lvgl/src/draw/lv_draw_label.c ****     lv_color_t recolor  = lv_color_black();
 803              		.loc 1 204 14 is_stmt 0 view .LVU272
 804 020e 0023     		movs	r3, #0
 805 0210 0F93     		str	r3, [sp, #60]
 806 0212 5E46     		mov	r6, fp
 807              	.LVL78:
 204:lvgl/src/draw/lv_draw_label.c ****     lv_color_t recolor  = lv_color_black();
 808              		.loc 1 204 14 view .LVU273
 809 0214 A346     		mov	fp, r4
 810              	.LVL79:
 204:lvgl/src/draw/lv_draw_label.c ****     lv_color_t recolor  = lv_color_black();
 811              		.loc 1 204 14 view .LVU274
 812 0216 CDF81C90 		str	r9, [sp, #28]
 813 021a B946     		mov	r9, r7
 814              	.LVL80:
 215:lvgl/src/draw/lv_draw_label.c ****         pos.x += x_ofs;
 815              		.loc 1 215 10 view .LVU275
 816 021c 4DE1     		b	.L34
 817              	.LVL81:
 818              	.L70:
 175:lvgl/src/draw/lv_draw_label.c **** 
 819              		.loc 1 175 9 is_stmt 1 view .LVU276
 175:lvgl/src/draw/lv_draw_label.c **** 
 820              		.loc 1 175 108 is_stmt 0 view .LVU277
 821 021e 6B7F     		ldrb	r3, [r5, #29]	@ zero_extendqisi2
 175:lvgl/src/draw/lv_draw_label.c **** 
 822              		.loc 1 175 22 view .LVU278
 823 0220 0093     		str	r3, [sp]
 824 0222 B5F91430 		ldrsh	r3, [r5, #20]
 825 0226 049A     		ldr	r2, [sp, #16]
 826 0228 ABEB0701 		sub	r1, fp, r7
 827 022c 0898     		ldr	r0, [sp, #32]
 828 022e 3844     		add	r0, r0, r7
 829 0230 FFF7FEFF 		bl	lv_txt_get_width
 830              	.LVL82:
 177:lvgl/src/draw/lv_draw_label.c **** 
 831              		.loc 1 177 9 is_stmt 1 view .LVU279
 832              	.LBB65:
 833              	.LBI65:
 123:lvgl/src/draw/../misc/../font/../misc/lv_area.h **** {
 834              		.loc 4 123 26 view .LVU280
 835              	.LBB66:
 836              		.loc 4 125 5 view .LVU281
 837              		.loc 4 125 31 is_stmt 0 view .LVU282
 838 0234 099A     		ldr	r2, [sp, #36]
 839 0236 9388     		ldrh	r3, [r2, #4]
 840              		.loc 4 125 44 view .LVU283
 841 0238 1288     		ldrh	r2, [r2]
 842              		.loc 4 125 36 view .LVU284
 843 023a 9B1A     		subs	r3, r3, r2
 844 023c 9BB2     		uxth	r3, r3
 845              		.loc 4 125 49 view .LVU285
 846 023e 0133     		adds	r3, r3, #1
 847              		.loc 4 125 12 view .LVU286
ARM GAS  /var/folders/21/t9g5rlb91ys800n5npymflf80000gn/T//cc4qd6Tv.s 			page 46


 848 0240 1BB2     		sxth	r3, r3
 849              	.LVL83:
 850              		.loc 4 125 12 view .LVU287
 851              	.LBE66:
 852              	.LBE65:
 177:lvgl/src/draw/lv_draw_label.c **** 
 853              		.loc 1 177 45 view .LVU288
 854 0242 1B1A     		subs	r3, r3, r0
 177:lvgl/src/draw/lv_draw_label.c **** 
 855              		.loc 1 177 59 view .LVU289
 856 0244 03EBD373 		add	r3, r3, r3, lsr #31
 177:lvgl/src/draw/lv_draw_label.c **** 
 857              		.loc 1 177 12 view .LVU290
 858 0248 BDF8A420 		ldrh	r2, [sp, #164]
 177:lvgl/src/draw/lv_draw_label.c **** 
 859              		.loc 1 177 15 view .LVU291
 860 024c 02EB6303 		add	r3, r2, r3, asr #1
 861 0250 ADF8A430 		strh	r3, [sp, #164]	@ movhi
 862 0254 B3E7     		b	.L30
 863              	.LVL84:
 864              	.L71:
 182:lvgl/src/draw/lv_draw_label.c ****         pos.x += lv_area_get_width(coords) - line_width;
 865              		.loc 1 182 9 is_stmt 1 view .LVU292
 182:lvgl/src/draw/lv_draw_label.c ****         pos.x += lv_area_get_width(coords) - line_width;
 866              		.loc 1 182 108 is_stmt 0 view .LVU293
 867 0256 6B7F     		ldrb	r3, [r5, #29]	@ zero_extendqisi2
 182:lvgl/src/draw/lv_draw_label.c ****         pos.x += lv_area_get_width(coords) - line_width;
 868              		.loc 1 182 22 view .LVU294
 869 0258 0093     		str	r3, [sp]
 870 025a B5F91430 		ldrsh	r3, [r5, #20]
 871 025e 049A     		ldr	r2, [sp, #16]
 872 0260 ABEB0701 		sub	r1, fp, r7
 873 0264 0898     		ldr	r0, [sp, #32]
 874 0266 3844     		add	r0, r0, r7
 875 0268 FFF7FEFF 		bl	lv_txt_get_width
 876              	.LVL85:
 183:lvgl/src/draw/lv_draw_label.c ****     }
 877              		.loc 1 183 9 is_stmt 1 view .LVU295
 878              	.LBB67:
 879              	.LBI67:
 123:lvgl/src/draw/../misc/../font/../misc/lv_area.h **** {
 880              		.loc 4 123 26 view .LVU296
 881              	.LBB68:
 882              		.loc 4 125 5 view .LVU297
 883              		.loc 4 125 31 is_stmt 0 view .LVU298
 884 026c 099A     		ldr	r2, [sp, #36]
 885 026e 9388     		ldrh	r3, [r2, #4]
 886              		.loc 4 125 44 view .LVU299
 887 0270 1288     		ldrh	r2, [r2]
 888              		.loc 4 125 36 view .LVU300
 889 0272 9B1A     		subs	r3, r3, r2
 890 0274 9BB2     		uxth	r3, r3
 891              		.loc 4 125 49 view .LVU301
 892 0276 0133     		adds	r3, r3, #1
 893              		.loc 4 125 12 view .LVU302
 894 0278 1BB2     		sxth	r3, r3
 895              	.LVL86:
ARM GAS  /var/folders/21/t9g5rlb91ys800n5npymflf80000gn/T//cc4qd6Tv.s 			page 47


 896              		.loc 4 125 12 view .LVU303
 897              	.LBE68:
 898              	.LBE67:
 183:lvgl/src/draw/lv_draw_label.c ****     }
 899              		.loc 1 183 44 view .LVU304
 900 027a 1B1A     		subs	r3, r3, r0
 183:lvgl/src/draw/lv_draw_label.c ****     }
 901              		.loc 1 183 12 view .LVU305
 902 027c BDF8A420 		ldrh	r2, [sp, #164]
 183:lvgl/src/draw/lv_draw_label.c ****     }
 903              		.loc 1 183 15 view .LVU306
 904 0280 1344     		add	r3, r3, r2
 905 0282 ADF8A430 		strh	r3, [sp, #164]	@ movhi
 906 0286 9AE7     		b	.L30
 907              	.LVL87:
 908              	.L72:
 195:lvgl/src/draw/lv_draw_label.c ****         line_dsc.color = dsc->color;
 909              		.loc 1 195 9 is_stmt 1 view .LVU307
 910 0288 26A8     		add	r0, sp, #152
 911 028a FFF7FEFF 		bl	lv_draw_line_dsc_init
 912              	.LVL88:
 196:lvgl/src/draw/lv_draw_label.c ****         line_dsc.width = font->underline_thickness ? font->underline_thickness : 1;
 913              		.loc 1 196 9 view .LVU308
 196:lvgl/src/draw/lv_draw_label.c ****         line_dsc.width = font->underline_thickness ? font->underline_thickness : 1;
 914              		.loc 1 196 24 is_stmt 0 view .LVU309
 915 028e AB89     		ldrh	r3, [r5, #12]
 916 0290 ADF89830 		strh	r3, [sp, #152]	@ movhi
 197:lvgl/src/draw/lv_draw_label.c ****         line_dsc.opa = dsc->opa;
 917              		.loc 1 197 9 is_stmt 1 view .LVU310
 197:lvgl/src/draw/lv_draw_label.c ****         line_dsc.opa = dsc->opa;
 918              		.loc 1 197 30 is_stmt 0 view .LVU311
 919 0294 049B     		ldr	r3, [sp, #16]
 920 0296 93F90E30 		ldrsb	r3, [r3, #14]
 197:lvgl/src/draw/lv_draw_label.c ****         line_dsc.opa = dsc->opa;
 921              		.loc 1 197 24 view .LVU312
 922 029a 03B9     		cbnz	r3, .L33
 923 029c 0123     		movs	r3, #1
 924              	.L33:
 197:lvgl/src/draw/lv_draw_label.c ****         line_dsc.opa = dsc->opa;
 925              		.loc 1 197 24 discriminator 4 view .LVU313
 926 029e ADF89A30 		strh	r3, [sp, #154]	@ movhi
 198:lvgl/src/draw/lv_draw_label.c ****         line_dsc.blend_mode = dsc->blend_mode;
 927              		.loc 1 198 9 is_stmt 1 discriminator 4 view .LVU314
 198:lvgl/src/draw/lv_draw_label.c ****         line_dsc.blend_mode = dsc->blend_mode;
 928              		.loc 1 198 27 is_stmt 0 discriminator 4 view .LVU315
 929 02a2 AB7E     		ldrb	r3, [r5, #26]	@ zero_extendqisi2
 198:lvgl/src/draw/lv_draw_label.c ****         line_dsc.blend_mode = dsc->blend_mode;
 930              		.loc 1 198 22 discriminator 4 view .LVU316
 931 02a4 8DF8A030 		strb	r3, [sp, #160]
 199:lvgl/src/draw/lv_draw_label.c ****     }
 932              		.loc 1 199 9 is_stmt 1 discriminator 4 view .LVU317
 199:lvgl/src/draw/lv_draw_label.c ****     }
 933              		.loc 1 199 34 is_stmt 0 discriminator 4 view .LVU318
 934 02a8 AB7F     		ldrb	r3, [r5, #30]	@ zero_extendqisi2
 935 02aa C3F3C103 		ubfx	r3, r3, #3, #2
 199:lvgl/src/draw/lv_draw_label.c ****     }
 936              		.loc 1 199 29 discriminator 4 view .LVU319
ARM GAS  /var/folders/21/t9g5rlb91ys800n5npymflf80000gn/T//cc4qd6Tv.s 			page 48


 937 02ae 9DF8A120 		ldrb	r2, [sp, #161]	@ zero_extendqisi2
 938 02b2 63F30102 		bfi	r2, r3, #0, #2
 939 02b6 8DF8A120 		strb	r2, [sp, #161]
 940 02ba 8DE7     		b	.L32
 941              	.LVL89:
 942              	.L62:
 943              	.LBB69:
 944              	.LBB70:
 229:lvgl/src/draw/lv_draw_label.c ****             if(sel_start != 0xFFFF && sel_end != 0xFFFF) {
 945              		.loc 1 229 22 view .LVU320
 946 02bc 0023     		movs	r3, #0
 947 02be 0593     		str	r3, [sp, #20]
 948 02c0 83E0     		b	.L36
 949              	.L63:
 229:lvgl/src/draw/lv_draw_label.c ****             if(sel_start != 0xFFFF && sel_end != 0xFFFF) {
 950              		.loc 1 229 22 view .LVU321
 951 02c2 0023     		movs	r3, #0
 952 02c4 0593     		str	r3, [sp, #20]
 953 02c6 80E0     		b	.L36
 954              	.LVL90:
 955              	.L76:
 246:lvgl/src/draw/lv_draw_label.c ****                         par_start = i;
 956              		.loc 1 246 21 is_stmt 1 view .LVU322
 246:lvgl/src/draw/lv_draw_label.c ****                         par_start = i;
 957              		.loc 1 246 23 is_stmt 0 view .LVU323
 958 02c8 37B1     		cbz	r7, .L73
 251:lvgl/src/draw/lv_draw_label.c ****                         cmd_state = CMD_STATE_WAIT;
 959              		.loc 1 251 26 is_stmt 1 view .LVU324
 251:lvgl/src/draw/lv_draw_label.c ****                         cmd_state = CMD_STATE_WAIT;
 960              		.loc 1 251 28 is_stmt 0 view .LVU325
 961 02ca 012F     		cmp	r7, #1
 962 02cc 56D0     		beq	.L64
 254:lvgl/src/draw/lv_draw_label.c ****                         cmd_state = CMD_STATE_WAIT;
 963              		.loc 1 254 26 is_stmt 1 view .LVU326
 254:lvgl/src/draw/lv_draw_label.c ****                         cmd_state = CMD_STATE_WAIT;
 964              		.loc 1 254 28 is_stmt 0 view .LVU327
 965 02ce 022F     		cmp	r7, #2
 966 02d0 40F08980 		bne	.L38
 255:lvgl/src/draw/lv_draw_label.c ****                         continue;
 967              		.loc 1 255 35 view .LVU328
 968 02d4 0027     		movs	r7, #0
 969              	.LVL91:
 255:lvgl/src/draw/lv_draw_label.c ****                         continue;
 970              		.loc 1 255 35 view .LVU329
 971 02d6 67E0     		b	.L35
 972              	.LVL92:
 973              	.L73:
 247:lvgl/src/draw/lv_draw_label.c ****                         cmd_state = CMD_STATE_PAR;
 974              		.loc 1 247 25 is_stmt 1 discriminator 1 view .LVU330
 247:lvgl/src/draw/lv_draw_label.c ****                         cmd_state = CMD_STATE_PAR;
 975              		.loc 1 247 35 is_stmt 0 discriminator 1 view .LVU331
 976 02d8 259B     		ldr	r3, [sp, #148]
 977 02da 0F93     		str	r3, [sp, #60]
 978              	.LVL93:
 248:lvgl/src/draw/lv_draw_label.c ****                         continue;
 979              		.loc 1 248 25 is_stmt 1 discriminator 1 view .LVU332
 249:lvgl/src/draw/lv_draw_label.c ****                     }
ARM GAS  /var/folders/21/t9g5rlb91ys800n5npymflf80000gn/T//cc4qd6Tv.s 			page 49


 980              		.loc 1 249 25 discriminator 1 view .LVU333
 248:lvgl/src/draw/lv_draw_label.c ****                         continue;
 981              		.loc 1 248 35 is_stmt 0 discriminator 1 view .LVU334
 982 02dc 0127     		movs	r7, #1
 249:lvgl/src/draw/lv_draw_label.c ****                     }
 983              		.loc 1 249 25 discriminator 1 view .LVU335
 984 02de 63E0     		b	.L35
 985              	.LVL94:
 986              	.L77:
 262:lvgl/src/draw/lv_draw_label.c ****                         /*Get the parameter*/
 987              		.loc 1 262 21 is_stmt 1 view .LVU336
 262:lvgl/src/draw/lv_draw_label.c ****                         /*Get the parameter*/
 988              		.loc 1 262 23 is_stmt 0 view .LVU337
 989 02e0 202B     		cmp	r3, #32
 990 02e2 61D1     		bne	.L35
 264:lvgl/src/draw/lv_draw_label.c ****                             char buf[LABEL_RECOLOR_PAR_LENGTH + 1];
 991              		.loc 1 264 25 is_stmt 1 view .LVU338
 264:lvgl/src/draw/lv_draw_label.c ****                             char buf[LABEL_RECOLOR_PAR_LENGTH + 1];
 992              		.loc 1 264 30 is_stmt 0 view .LVU339
 993 02e4 259B     		ldr	r3, [sp, #148]
 994 02e6 0F9A     		ldr	r2, [sp, #60]
 995 02e8 9B1A     		subs	r3, r3, r2
 264:lvgl/src/draw/lv_draw_label.c ****                             char buf[LABEL_RECOLOR_PAR_LENGTH + 1];
 996              		.loc 1 264 27 view .LVU340
 997 02ea 072B     		cmp	r3, #7
 998 02ec 04D0     		beq	.L74
 275:lvgl/src/draw/lv_draw_label.c ****                         }
 999              		.loc 1 275 29 is_stmt 1 view .LVU341
 275:lvgl/src/draw/lv_draw_label.c ****                         }
 1000              		.loc 1 275 42 is_stmt 0 view .LVU342
 1001 02ee AB89     		ldrh	r3, [r5, #12]
 1002              	.LVL95:
 275:lvgl/src/draw/lv_draw_label.c ****                         }
 1003              		.loc 1 275 42 view .LVU343
 1004 02f0 ADF82E30 		strh	r3, [sp, #46]	@ movhi
 277:lvgl/src/draw/lv_draw_label.c ****                     }
 1005              		.loc 1 277 35 view .LVU344
 1006 02f4 0227     		movs	r7, #2
 1007              	.LVL96:
 279:lvgl/src/draw/lv_draw_label.c ****                 }
 1008              		.loc 1 279 21 is_stmt 1 view .LVU345
 1009 02f6 57E0     		b	.L35
 1010              	.LVL97:
 1011              	.L74:
 1012              	.LBB71:
 265:lvgl/src/draw/lv_draw_label.c ****                             lv_memcpy_small(buf, &bidi_txt[par_start], LABEL_RECOLOR_PAR_LENGTH);
 1013              		.loc 1 265 29 view .LVU346
 266:lvgl/src/draw/lv_draw_label.c ****                             buf[LABEL_RECOLOR_PAR_LENGTH] = '\0';
 1014              		.loc 1 266 29 view .LVU347
 266:lvgl/src/draw/lv_draw_label.c ****                             buf[LABEL_RECOLOR_PAR_LENGTH] = '\0';
 1015              		.loc 1 266 50 is_stmt 0 view .LVU348
 1016 02f8 069B     		ldr	r3, [sp, #24]
 1017 02fa 9918     		adds	r1, r3, r2
 1018              	.LVL98:
 1019              	.LBB72:
 1020              	.LBI72:
 1021              		.file 6 "lvgl/src/draw/../misc/lv_mem.h"
ARM GAS  /var/folders/21/t9g5rlb91ys800n5npymflf80000gn/T//cc4qd6Tv.s 			page 50


   1:lvgl/src/draw/../misc/lv_mem.h **** /**
   2:lvgl/src/draw/../misc/lv_mem.h ****  * @file lv_mem.h
   3:lvgl/src/draw/../misc/lv_mem.h ****  *
   4:lvgl/src/draw/../misc/lv_mem.h ****  */
   5:lvgl/src/draw/../misc/lv_mem.h **** 
   6:lvgl/src/draw/../misc/lv_mem.h **** #ifndef LV_MEM_H
   7:lvgl/src/draw/../misc/lv_mem.h **** #define LV_MEM_H
   8:lvgl/src/draw/../misc/lv_mem.h **** 
   9:lvgl/src/draw/../misc/lv_mem.h **** #ifdef __cplusplus
  10:lvgl/src/draw/../misc/lv_mem.h **** extern "C" {
  11:lvgl/src/draw/../misc/lv_mem.h **** #endif
  12:lvgl/src/draw/../misc/lv_mem.h **** 
  13:lvgl/src/draw/../misc/lv_mem.h **** /*********************
  14:lvgl/src/draw/../misc/lv_mem.h ****  *      INCLUDES
  15:lvgl/src/draw/../misc/lv_mem.h ****  *********************/
  16:lvgl/src/draw/../misc/lv_mem.h **** #include "../lv_conf_internal.h"
  17:lvgl/src/draw/../misc/lv_mem.h **** 
  18:lvgl/src/draw/../misc/lv_mem.h **** #include <stdint.h>
  19:lvgl/src/draw/../misc/lv_mem.h **** #include <stddef.h>
  20:lvgl/src/draw/../misc/lv_mem.h **** #include <string.h>
  21:lvgl/src/draw/../misc/lv_mem.h **** 
  22:lvgl/src/draw/../misc/lv_mem.h **** #include "lv_types.h"
  23:lvgl/src/draw/../misc/lv_mem.h **** 
  24:lvgl/src/draw/../misc/lv_mem.h **** /*********************
  25:lvgl/src/draw/../misc/lv_mem.h ****  *      DEFINES
  26:lvgl/src/draw/../misc/lv_mem.h ****  *********************/
  27:lvgl/src/draw/../misc/lv_mem.h **** 
  28:lvgl/src/draw/../misc/lv_mem.h **** /**********************
  29:lvgl/src/draw/../misc/lv_mem.h ****  *      TYPEDEFS
  30:lvgl/src/draw/../misc/lv_mem.h ****  **********************/
  31:lvgl/src/draw/../misc/lv_mem.h **** 
  32:lvgl/src/draw/../misc/lv_mem.h **** /**
  33:lvgl/src/draw/../misc/lv_mem.h ****  * Heap information structure.
  34:lvgl/src/draw/../misc/lv_mem.h ****  */
  35:lvgl/src/draw/../misc/lv_mem.h **** typedef struct {
  36:lvgl/src/draw/../misc/lv_mem.h ****     uint32_t total_size; /**< Total heap size*/
  37:lvgl/src/draw/../misc/lv_mem.h ****     uint32_t free_cnt;
  38:lvgl/src/draw/../misc/lv_mem.h ****     uint32_t free_size; /**< Size of available memory*/
  39:lvgl/src/draw/../misc/lv_mem.h ****     uint32_t free_biggest_size;
  40:lvgl/src/draw/../misc/lv_mem.h ****     uint32_t used_cnt;
  41:lvgl/src/draw/../misc/lv_mem.h ****     uint32_t max_used; /**< Max size of Heap memory used*/
  42:lvgl/src/draw/../misc/lv_mem.h ****     uint8_t used_pct; /**< Percentage used*/
  43:lvgl/src/draw/../misc/lv_mem.h ****     uint8_t frag_pct; /**< Amount of fragmentation*/
  44:lvgl/src/draw/../misc/lv_mem.h **** } lv_mem_monitor_t;
  45:lvgl/src/draw/../misc/lv_mem.h **** 
  46:lvgl/src/draw/../misc/lv_mem.h **** typedef struct {
  47:lvgl/src/draw/../misc/lv_mem.h ****     void * p;
  48:lvgl/src/draw/../misc/lv_mem.h ****     uint16_t size;
  49:lvgl/src/draw/../misc/lv_mem.h ****     uint8_t used : 1;
  50:lvgl/src/draw/../misc/lv_mem.h **** } lv_mem_buf_t;
  51:lvgl/src/draw/../misc/lv_mem.h **** 
  52:lvgl/src/draw/../misc/lv_mem.h **** typedef lv_mem_buf_t lv_mem_buf_arr_t[LV_MEM_BUF_MAX_NUM];
  53:lvgl/src/draw/../misc/lv_mem.h **** 
  54:lvgl/src/draw/../misc/lv_mem.h **** /**********************
  55:lvgl/src/draw/../misc/lv_mem.h ****  * GLOBAL PROTOTYPES
  56:lvgl/src/draw/../misc/lv_mem.h ****  **********************/
  57:lvgl/src/draw/../misc/lv_mem.h **** 
ARM GAS  /var/folders/21/t9g5rlb91ys800n5npymflf80000gn/T//cc4qd6Tv.s 			page 51


  58:lvgl/src/draw/../misc/lv_mem.h **** /**
  59:lvgl/src/draw/../misc/lv_mem.h ****  * Initialize the dyn_mem module (work memory and other variables)
  60:lvgl/src/draw/../misc/lv_mem.h ****  */
  61:lvgl/src/draw/../misc/lv_mem.h **** void lv_mem_init(void);
  62:lvgl/src/draw/../misc/lv_mem.h **** 
  63:lvgl/src/draw/../misc/lv_mem.h **** /**
  64:lvgl/src/draw/../misc/lv_mem.h ****  * Clean up the memory buffer which frees all the allocated memories.
  65:lvgl/src/draw/../misc/lv_mem.h ****  * @note It work only if `LV_MEM_CUSTOM == 0`
  66:lvgl/src/draw/../misc/lv_mem.h ****  */
  67:lvgl/src/draw/../misc/lv_mem.h **** void lv_mem_deinit(void);
  68:lvgl/src/draw/../misc/lv_mem.h **** 
  69:lvgl/src/draw/../misc/lv_mem.h **** /**
  70:lvgl/src/draw/../misc/lv_mem.h ****  * Allocate a memory dynamically
  71:lvgl/src/draw/../misc/lv_mem.h ****  * @param size size of the memory to allocate in bytes
  72:lvgl/src/draw/../misc/lv_mem.h ****  * @return pointer to the allocated memory
  73:lvgl/src/draw/../misc/lv_mem.h ****  */
  74:lvgl/src/draw/../misc/lv_mem.h **** void * lv_mem_alloc(size_t size);
  75:lvgl/src/draw/../misc/lv_mem.h **** 
  76:lvgl/src/draw/../misc/lv_mem.h **** /**
  77:lvgl/src/draw/../misc/lv_mem.h ****  * Free an allocated data
  78:lvgl/src/draw/../misc/lv_mem.h ****  * @param data pointer to an allocated memory
  79:lvgl/src/draw/../misc/lv_mem.h ****  */
  80:lvgl/src/draw/../misc/lv_mem.h **** void lv_mem_free(void * data);
  81:lvgl/src/draw/../misc/lv_mem.h **** 
  82:lvgl/src/draw/../misc/lv_mem.h **** /**
  83:lvgl/src/draw/../misc/lv_mem.h ****  * Reallocate a memory with a new size. The old content will be kept.
  84:lvgl/src/draw/../misc/lv_mem.h ****  * @param data pointer to an allocated memory.
  85:lvgl/src/draw/../misc/lv_mem.h ****  * Its content will be copied to the new memory block and freed
  86:lvgl/src/draw/../misc/lv_mem.h ****  * @param new_size the desired new size in byte
  87:lvgl/src/draw/../misc/lv_mem.h ****  * @return pointer to the new memory, NULL on failure
  88:lvgl/src/draw/../misc/lv_mem.h ****  */
  89:lvgl/src/draw/../misc/lv_mem.h **** void * lv_mem_realloc(void * data_p, size_t new_size);
  90:lvgl/src/draw/../misc/lv_mem.h **** 
  91:lvgl/src/draw/../misc/lv_mem.h **** /**
  92:lvgl/src/draw/../misc/lv_mem.h ****  *
  93:lvgl/src/draw/../misc/lv_mem.h ****  * @return
  94:lvgl/src/draw/../misc/lv_mem.h ****  */
  95:lvgl/src/draw/../misc/lv_mem.h **** lv_res_t lv_mem_test(void);
  96:lvgl/src/draw/../misc/lv_mem.h **** 
  97:lvgl/src/draw/../misc/lv_mem.h **** /**
  98:lvgl/src/draw/../misc/lv_mem.h ****  * Give information about the work memory of dynamic allocation
  99:lvgl/src/draw/../misc/lv_mem.h ****  * @param mon_p pointer to a lv_mem_monitor_t variable,
 100:lvgl/src/draw/../misc/lv_mem.h ****  *              the result of the analysis will be stored here
 101:lvgl/src/draw/../misc/lv_mem.h ****  */
 102:lvgl/src/draw/../misc/lv_mem.h **** void lv_mem_monitor(lv_mem_monitor_t * mon_p);
 103:lvgl/src/draw/../misc/lv_mem.h **** 
 104:lvgl/src/draw/../misc/lv_mem.h **** /**
 105:lvgl/src/draw/../misc/lv_mem.h ****  * Get a temporal buffer with the given size.
 106:lvgl/src/draw/../misc/lv_mem.h ****  * @param size the required size
 107:lvgl/src/draw/../misc/lv_mem.h ****  */
 108:lvgl/src/draw/../misc/lv_mem.h **** void * lv_mem_buf_get(uint32_t size);
 109:lvgl/src/draw/../misc/lv_mem.h **** 
 110:lvgl/src/draw/../misc/lv_mem.h **** /**
 111:lvgl/src/draw/../misc/lv_mem.h ****  * Release a memory buffer
 112:lvgl/src/draw/../misc/lv_mem.h ****  * @param p buffer to release
 113:lvgl/src/draw/../misc/lv_mem.h ****  */
 114:lvgl/src/draw/../misc/lv_mem.h **** void lv_mem_buf_release(void * p);
ARM GAS  /var/folders/21/t9g5rlb91ys800n5npymflf80000gn/T//cc4qd6Tv.s 			page 52


 115:lvgl/src/draw/../misc/lv_mem.h **** 
 116:lvgl/src/draw/../misc/lv_mem.h **** /**
 117:lvgl/src/draw/../misc/lv_mem.h ****  * Free all memory buffers
 118:lvgl/src/draw/../misc/lv_mem.h ****  */
 119:lvgl/src/draw/../misc/lv_mem.h **** void lv_mem_buf_free_all(void);
 120:lvgl/src/draw/../misc/lv_mem.h **** 
 121:lvgl/src/draw/../misc/lv_mem.h **** //! @cond Doxygen_Suppress
 122:lvgl/src/draw/../misc/lv_mem.h **** 
 123:lvgl/src/draw/../misc/lv_mem.h **** #if LV_MEMCPY_MEMSET_STD
 124:lvgl/src/draw/../misc/lv_mem.h **** 
 125:lvgl/src/draw/../misc/lv_mem.h **** /**
 126:lvgl/src/draw/../misc/lv_mem.h ****  * Wrapper for the standard memcpy
 127:lvgl/src/draw/../misc/lv_mem.h ****  * @param dst pointer to the destination buffer
 128:lvgl/src/draw/../misc/lv_mem.h ****  * @param src pointer to the source buffer
 129:lvgl/src/draw/../misc/lv_mem.h ****  * @param len number of byte to copy
 130:lvgl/src/draw/../misc/lv_mem.h ****  */
 131:lvgl/src/draw/../misc/lv_mem.h **** static inline void * lv_memcpy(void * dst, const void * src, size_t len)
 132:lvgl/src/draw/../misc/lv_mem.h **** {
 133:lvgl/src/draw/../misc/lv_mem.h ****     return memcpy(dst, src, len);
 134:lvgl/src/draw/../misc/lv_mem.h **** }
 135:lvgl/src/draw/../misc/lv_mem.h **** 
 136:lvgl/src/draw/../misc/lv_mem.h **** /**
 137:lvgl/src/draw/../misc/lv_mem.h ****  * Wrapper for the standard memcpy
 138:lvgl/src/draw/../misc/lv_mem.h ****  * @param dst pointer to the destination buffer
 139:lvgl/src/draw/../misc/lv_mem.h ****  * @param src pointer to the source buffer
 140:lvgl/src/draw/../misc/lv_mem.h ****  * @param len number of byte to copy
 141:lvgl/src/draw/../misc/lv_mem.h ****  */
 142:lvgl/src/draw/../misc/lv_mem.h **** static inline void * lv_memcpy_small(void * dst, const void * src, size_t len)
 143:lvgl/src/draw/../misc/lv_mem.h **** {
 144:lvgl/src/draw/../misc/lv_mem.h ****     return memcpy(dst, src, len);
 145:lvgl/src/draw/../misc/lv_mem.h **** }
 146:lvgl/src/draw/../misc/lv_mem.h **** 
 147:lvgl/src/draw/../misc/lv_mem.h **** /**
 148:lvgl/src/draw/../misc/lv_mem.h ****  * Wrapper for the standard memset
 149:lvgl/src/draw/../misc/lv_mem.h ****  * @param dst pointer to the destination buffer
 150:lvgl/src/draw/../misc/lv_mem.h ****  * @param v value to set [0..255]
 151:lvgl/src/draw/../misc/lv_mem.h ****  * @param len number of byte to set
 152:lvgl/src/draw/../misc/lv_mem.h ****  */
 153:lvgl/src/draw/../misc/lv_mem.h **** static inline void lv_memset(void * dst, uint8_t v, size_t len)
 154:lvgl/src/draw/../misc/lv_mem.h **** {
 155:lvgl/src/draw/../misc/lv_mem.h ****     memset(dst, v, len);
 156:lvgl/src/draw/../misc/lv_mem.h **** }
 157:lvgl/src/draw/../misc/lv_mem.h **** 
 158:lvgl/src/draw/../misc/lv_mem.h **** /**
 159:lvgl/src/draw/../misc/lv_mem.h ****  * Wrapper for the standard memset with fixed 0x00 value
 160:lvgl/src/draw/../misc/lv_mem.h ****  * @param dst pointer to the destination buffer
 161:lvgl/src/draw/../misc/lv_mem.h ****  * @param len number of byte to set
 162:lvgl/src/draw/../misc/lv_mem.h ****  */
 163:lvgl/src/draw/../misc/lv_mem.h **** static inline void lv_memset_00(void * dst, size_t len)
 164:lvgl/src/draw/../misc/lv_mem.h **** {
 165:lvgl/src/draw/../misc/lv_mem.h ****     memset(dst, 0x00, len);
 166:lvgl/src/draw/../misc/lv_mem.h **** }
 167:lvgl/src/draw/../misc/lv_mem.h **** 
 168:lvgl/src/draw/../misc/lv_mem.h **** /**
 169:lvgl/src/draw/../misc/lv_mem.h ****  * Wrapper for the standard memset with fixed 0xFF value
 170:lvgl/src/draw/../misc/lv_mem.h ****  * @param dst pointer to the destination buffer
 171:lvgl/src/draw/../misc/lv_mem.h ****  * @param len number of byte to set
ARM GAS  /var/folders/21/t9g5rlb91ys800n5npymflf80000gn/T//cc4qd6Tv.s 			page 53


 172:lvgl/src/draw/../misc/lv_mem.h ****  */
 173:lvgl/src/draw/../misc/lv_mem.h **** static inline void lv_memset_ff(void * dst, size_t len)
 174:lvgl/src/draw/../misc/lv_mem.h **** {
 175:lvgl/src/draw/../misc/lv_mem.h ****     memset(dst, 0xFF, len);
 176:lvgl/src/draw/../misc/lv_mem.h **** }
 177:lvgl/src/draw/../misc/lv_mem.h **** 
 178:lvgl/src/draw/../misc/lv_mem.h **** #else
 179:lvgl/src/draw/../misc/lv_mem.h **** /**
 180:lvgl/src/draw/../misc/lv_mem.h ****  * Same as `memcpy` but optimized for 4 byte operation.
 181:lvgl/src/draw/../misc/lv_mem.h ****  * @param dst pointer to the destination buffer
 182:lvgl/src/draw/../misc/lv_mem.h ****  * @param src pointer to the source buffer
 183:lvgl/src/draw/../misc/lv_mem.h ****  * @param len number of byte to copy
 184:lvgl/src/draw/../misc/lv_mem.h ****  */
 185:lvgl/src/draw/../misc/lv_mem.h **** void * /* LV_ATTRIBUTE_FAST_MEM */ lv_memcpy(void * dst, const void * src, size_t len);
 186:lvgl/src/draw/../misc/lv_mem.h **** 
 187:lvgl/src/draw/../misc/lv_mem.h **** /**
 188:lvgl/src/draw/../misc/lv_mem.h ****  * Same as `memcpy` but optimized to copy only a few bytes.
 189:lvgl/src/draw/../misc/lv_mem.h ****  * @param dst pointer to the destination buffer
 190:lvgl/src/draw/../misc/lv_mem.h ****  * @param src pointer to the source buffer
 191:lvgl/src/draw/../misc/lv_mem.h ****  * @param len number of byte to copy
 192:lvgl/src/draw/../misc/lv_mem.h ****  */
 193:lvgl/src/draw/../misc/lv_mem.h **** static inline void * LV_ATTRIBUTE_FAST_MEM lv_memcpy_small(void * dst, const void * src, size_t len
 1022              		.loc 6 193 44 is_stmt 1 view .LVU349
 1023              	.LBB73:
 194:lvgl/src/draw/../misc/lv_mem.h **** {
 195:lvgl/src/draw/../misc/lv_mem.h ****     uint8_t * d8 = (uint8_t *)dst;
 1024              		.loc 6 195 5 view .LVU350
 196:lvgl/src/draw/../misc/lv_mem.h ****     const uint8_t * s8 = (const uint8_t *)src;
 1025              		.loc 6 196 5 view .LVU351
 197:lvgl/src/draw/../misc/lv_mem.h **** 
 198:lvgl/src/draw/../misc/lv_mem.h ****     while(len) {
 1026              		.loc 6 198 5 view .LVU352
 195:lvgl/src/draw/../misc/lv_mem.h ****     const uint8_t * s8 = (const uint8_t *)src;
 1027              		.loc 6 195 15 is_stmt 0 view .LVU353
 1028 02fc 15AA     		add	r2, sp, #84
 1029              	.LVL99:
 1030              		.loc 6 198 10 view .LVU354
 1031 02fe 0623     		movs	r3, #6
 1032 0300 04E0     		b	.L43
 1033              	.LVL100:
 1034              	.L44:
 199:lvgl/src/draw/../misc/lv_mem.h ****         *d8 = *s8;
 1035              		.loc 6 199 9 is_stmt 1 view .LVU355
 1036              		.loc 6 199 15 is_stmt 0 view .LVU356
 1037 0302 11F8010B 		ldrb	r0, [r1], #1	@ zero_extendqisi2
 1038              	.LVL101:
 1039              		.loc 6 199 13 view .LVU357
 1040 0306 02F8010B 		strb	r0, [r2], #1
 1041              	.LVL102:
 200:lvgl/src/draw/../misc/lv_mem.h ****         d8++;
 1042              		.loc 6 200 9 is_stmt 1 view .LVU358
 201:lvgl/src/draw/../misc/lv_mem.h ****         s8++;
 1043              		.loc 6 201 9 view .LVU359
 202:lvgl/src/draw/../misc/lv_mem.h ****         len--;
 1044              		.loc 6 202 9 view .LVU360
 1045              		.loc 6 202 12 is_stmt 0 view .LVU361
 1046 030a 013B     		subs	r3, r3, #1
ARM GAS  /var/folders/21/t9g5rlb91ys800n5npymflf80000gn/T//cc4qd6Tv.s 			page 54


 1047              	.LVL103:
 1048              	.L43:
 198:lvgl/src/draw/../misc/lv_mem.h ****         *d8 = *s8;
 1049              		.loc 6 198 11 is_stmt 1 view .LVU362
 1050 030c 002B     		cmp	r3, #0
 1051 030e F8D1     		bne	.L44
 203:lvgl/src/draw/../misc/lv_mem.h ****     }
 204:lvgl/src/draw/../misc/lv_mem.h **** 
 205:lvgl/src/draw/../misc/lv_mem.h ****     return dst;
 1052              		.loc 6 205 5 view .LVU363
 1053              	.LVL104:
 1054              		.loc 6 205 5 is_stmt 0 view .LVU364
 1055              	.LBE73:
 1056              	.LBE72:
 267:lvgl/src/draw/lv_draw_label.c ****                             int r, g, b;
 1057              		.loc 1 267 29 is_stmt 1 view .LVU365
 267:lvgl/src/draw/lv_draw_label.c ****                             int r, g, b;
 1058              		.loc 1 267 59 is_stmt 0 view .LVU366
 1059 0310 8DF85A30 		strb	r3, [sp, #90]
 268:lvgl/src/draw/lv_draw_label.c ****                             r       = (hex_char_to_num(buf[0]) << 4) + hex_char_to_num(buf[1]);
 1060              		.loc 1 268 29 is_stmt 1 view .LVU367
 269:lvgl/src/draw/lv_draw_label.c ****                             g       = (hex_char_to_num(buf[2]) << 4) + hex_char_to_num(buf[3]);
 1061              		.loc 1 269 29 view .LVU368
 269:lvgl/src/draw/lv_draw_label.c ****                             g       = (hex_char_to_num(buf[2]) << 4) + hex_char_to_num(buf[3]);
 1062              		.loc 1 269 40 is_stmt 0 view .LVU369
 1063 0314 9DF85400 		ldrb	r0, [sp, #84]	@ zero_extendqisi2
 1064 0318 FFF7FEFF 		bl	hex_char_to_num
 1065              	.LVL105:
 269:lvgl/src/draw/lv_draw_label.c ****                             g       = (hex_char_to_num(buf[2]) << 4) + hex_char_to_num(buf[3]);
 1066              		.loc 1 269 64 view .LVU370
 1067 031c 0401     		lsls	r4, r0, #4
 269:lvgl/src/draw/lv_draw_label.c ****                             g       = (hex_char_to_num(buf[2]) << 4) + hex_char_to_num(buf[3]);
 1068              		.loc 1 269 72 view .LVU371
 1069 031e 9DF85500 		ldrb	r0, [sp, #85]	@ zero_extendqisi2
 1070 0322 FFF7FEFF 		bl	hex_char_to_num
 1071              	.LVL106:
 269:lvgl/src/draw/lv_draw_label.c ****                             g       = (hex_char_to_num(buf[2]) << 4) + hex_char_to_num(buf[3]);
 1072              		.loc 1 269 37 view .LVU372
 1073 0326 2318     		adds	r3, r4, r0
 1074 0328 0593     		str	r3, [sp, #20]
 1075              	.LVL107:
 270:lvgl/src/draw/lv_draw_label.c ****                             b       = (hex_char_to_num(buf[4]) << 4) + hex_char_to_num(buf[5]);
 1076              		.loc 1 270 29 is_stmt 1 view .LVU373
 270:lvgl/src/draw/lv_draw_label.c ****                             b       = (hex_char_to_num(buf[4]) << 4) + hex_char_to_num(buf[5]);
 1077              		.loc 1 270 40 is_stmt 0 view .LVU374
 1078 032a 9DF85600 		ldrb	r0, [sp, #86]	@ zero_extendqisi2
 1079 032e FFF7FEFF 		bl	hex_char_to_num
 1080              	.LVL108:
 270:lvgl/src/draw/lv_draw_label.c ****                             b       = (hex_char_to_num(buf[4]) << 4) + hex_char_to_num(buf[5]);
 1081              		.loc 1 270 64 view .LVU375
 1082 0332 0401     		lsls	r4, r0, #4
 270:lvgl/src/draw/lv_draw_label.c ****                             b       = (hex_char_to_num(buf[4]) << 4) + hex_char_to_num(buf[5]);
 1083              		.loc 1 270 72 view .LVU376
 1084 0334 9DF85700 		ldrb	r0, [sp, #87]	@ zero_extendqisi2
 1085 0338 FFF7FEFF 		bl	hex_char_to_num
 1086              	.LVL109:
 270:lvgl/src/draw/lv_draw_label.c ****                             b       = (hex_char_to_num(buf[4]) << 4) + hex_char_to_num(buf[5]);
ARM GAS  /var/folders/21/t9g5rlb91ys800n5npymflf80000gn/T//cc4qd6Tv.s 			page 55


 1087              		.loc 1 270 37 view .LVU377
 1088 033c 0444     		add	r4, r4, r0
 1089              	.LVL110:
 271:lvgl/src/draw/lv_draw_label.c ****                             recolor = lv_color_make(r, g, b);
 1090              		.loc 1 271 29 is_stmt 1 view .LVU378
 271:lvgl/src/draw/lv_draw_label.c ****                             recolor = lv_color_make(r, g, b);
 1091              		.loc 1 271 40 is_stmt 0 view .LVU379
 1092 033e 9DF85800 		ldrb	r0, [sp, #88]	@ zero_extendqisi2
 1093 0342 FFF7FEFF 		bl	hex_char_to_num
 1094              	.LVL111:
 271:lvgl/src/draw/lv_draw_label.c ****                             recolor = lv_color_make(r, g, b);
 1095              		.loc 1 271 64 view .LVU380
 1096 0346 0701     		lsls	r7, r0, #4
 1097              	.LVL112:
 271:lvgl/src/draw/lv_draw_label.c ****                             recolor = lv_color_make(r, g, b);
 1098              		.loc 1 271 72 view .LVU381
 1099 0348 9DF85900 		ldrb	r0, [sp, #89]	@ zero_extendqisi2
 1100 034c FFF7FEFF 		bl	hex_char_to_num
 1101              	.LVL113:
 271:lvgl/src/draw/lv_draw_label.c ****                             recolor = lv_color_make(r, g, b);
 1102              		.loc 1 271 37 view .LVU382
 1103 0350 3B18     		adds	r3, r7, r0
 1104              	.LVL114:
 272:lvgl/src/draw/lv_draw_label.c ****                         }
 1105              		.loc 1 272 29 is_stmt 1 view .LVU383
 1106              	.LBB74:
 1107              	.LBI74:
 594:lvgl/src/draw/../misc/lv_color.h **** {
 1108              		.loc 2 594 26 view .LVU384
 1109              	.LBB75:
 596:lvgl/src/draw/../misc/lv_color.h **** }
 1110              		.loc 2 596 5 view .LVU385
 596:lvgl/src/draw/../misc/lv_color.h **** }
 1111              		.loc 2 596 39 is_stmt 0 view .LVU386
 1112 0352 C3F3C403 		ubfx	r3, r3, #3, #5
 1113              	.LVL115:
 596:lvgl/src/draw/../misc/lv_color.h **** }
 1114              		.loc 2 596 39 view .LVU387
 1115 0356 C4F38504 		ubfx	r4, r4, #2, #6
 1116              	.LVL116:
 596:lvgl/src/draw/../misc/lv_color.h **** }
 1117              		.loc 2 596 39 view .LVU388
 1118 035a 059A     		ldr	r2, [sp, #20]
 1119 035c C2F3C402 		ubfx	r2, r2, #3, #5
 596:lvgl/src/draw/../misc/lv_color.h **** }
 1120              		.loc 2 596 12 view .LVU389
 1121 0360 1199     		ldr	r1, [sp, #68]
 1122 0362 63F30401 		bfi	r1, r3, #0, #5
 1123 0366 0B46     		mov	r3, r1
 1124 0368 64F34A13 		bfi	r3, r4, #5, #6
 1125 036c 62F3CF23 		bfi	r3, r2, #11, #5
 1126 0370 ADF84430 		strh	r3, [sp, #68]	@ movhi
 1127 0374 ADF82E30 		strh	r3, [sp, #46]	@ movhi
 1128              	.LVL117:
 596:lvgl/src/draw/../misc/lv_color.h **** }
 1129              		.loc 2 596 12 view .LVU390
 1130              	.LBE75:
ARM GAS  /var/folders/21/t9g5rlb91ys800n5npymflf80000gn/T//cc4qd6Tv.s 			page 56


 1131              	.LBE74:
 1132              	.LBE71:
 277:lvgl/src/draw/lv_draw_label.c ****                     }
 1133              		.loc 1 277 35 view .LVU391
 1134 0378 0227     		movs	r7, #2
 1135              	.LVL118:
 277:lvgl/src/draw/lv_draw_label.c ****                     }
 1136              		.loc 1 277 35 view .LVU392
 1137 037a 15E0     		b	.L35
 1138              	.LVL119:
 1139              	.L64:
 252:lvgl/src/draw/lv_draw_label.c ****                     }
 1140              		.loc 1 252 35 view .LVU393
 1141 037c 0027     		movs	r7, #0
 1142              	.LVL120:
 252:lvgl/src/draw/lv_draw_label.c ****                     }
 1143              		.loc 1 252 35 view .LVU394
 1144 037e 35E0     		b	.L37
 1145              	.LVL121:
 1146              	.L78:
 285:lvgl/src/draw/lv_draw_label.c **** 
 1147              		.loc 1 285 43 is_stmt 1 discriminator 1 view .LVU395
 285:lvgl/src/draw/lv_draw_label.c **** 
 1148              		.loc 1 285 49 is_stmt 0 discriminator 1 view .LVU396
 1149 0380 BDF82EA0 		ldrh	r10, [sp, #46]
 1150 0384 36E0     		b	.L45
 1151              	.LVL122:
 1152              	.L46:
 301:lvgl/src/draw/lv_draw_label.c ****             lv_draw_letter(draw_ctx, &dsc_mod, &pos, letter);
 1153              		.loc 1 301 13 is_stmt 1 view .LVU397
 301:lvgl/src/draw/lv_draw_label.c ****             lv_draw_letter(draw_ctx, &dsc_mod, &pos, letter);
 1154              		.loc 1 301 27 is_stmt 0 view .LVU398
 1155 0386 ADF8BCA0 		strh	r10, [sp, #188]	@ movhi
 302:lvgl/src/draw/lv_draw_label.c **** 
 1156              		.loc 1 302 13 is_stmt 1 view .LVU399
 1157 038a 139B     		ldr	r3, [sp, #76]
 1158 038c 29AA     		add	r2, sp, #164
 1159 038e 2CA9     		add	r1, sp, #176
 1160 0390 0798     		ldr	r0, [sp, #28]
 1161 0392 FFF7FEFF 		bl	lv_draw_letter
 1162              	.LVL123:
 304:lvgl/src/draw/lv_draw_label.c ****                 pos.x += letter_w + dsc->letter_space;
 1163              		.loc 1 304 13 view .LVU400
 304:lvgl/src/draw/lv_draw_label.c ****                 pos.x += letter_w + dsc->letter_space;
 1164              		.loc 1 304 15 is_stmt 0 view .LVU401
 1165 0396 3CB1     		cbz	r4, .L35
 305:lvgl/src/draw/lv_draw_label.c ****             }
 1166              		.loc 1 305 17 is_stmt 1 view .LVU402
 305:lvgl/src/draw/lv_draw_label.c ****             }
 1167              		.loc 1 305 20 is_stmt 0 view .LVU403
 1168 0398 BDF8A430 		ldrh	r3, [sp, #164]
 305:lvgl/src/draw/lv_draw_label.c ****             }
 1169              		.loc 1 305 40 view .LVU404
 1170 039c AA8A     		ldrh	r2, [r5, #20]
 305:lvgl/src/draw/lv_draw_label.c ****             }
 1171              		.loc 1 305 35 view .LVU405
 1172 039e 1444     		add	r4, r4, r2
ARM GAS  /var/folders/21/t9g5rlb91ys800n5npymflf80000gn/T//cc4qd6Tv.s 			page 57


 305:lvgl/src/draw/lv_draw_label.c ****             }
 1173              		.loc 1 305 23 view .LVU406
 1174 03a0 13FA84F4 		uxtah	r4, r3, r4
 1175 03a4 ADF8A440 		strh	r4, [sp, #164]	@ movhi
 1176              	.LVL124:
 1177              	.L35:
 305:lvgl/src/draw/lv_draw_label.c ****             }
 1178              		.loc 1 305 23 view .LVU407
 1179              	.LBE70:
 228:lvgl/src/draw/lv_draw_label.c ****             uint32_t logical_char_pos = 0;
 1180              		.loc 1 228 17 is_stmt 1 view .LVU408
 228:lvgl/src/draw/lv_draw_label.c ****             uint32_t logical_char_pos = 0;
 1181              		.loc 1 228 28 is_stmt 0 view .LVU409
 1182 03a8 A6EB0903 		sub	r3, r6, r9
 1183              	.LVL125:
 228:lvgl/src/draw/lv_draw_label.c ****             uint32_t logical_char_pos = 0;
 1184              		.loc 1 228 17 view .LVU410
 1185 03ac 2599     		ldr	r1, [sp, #148]
 1186 03ae 8B42     		cmp	r3, r1
 1187 03b0 51D9     		bls	.L75
 1188              	.LBB77:
 229:lvgl/src/draw/lv_draw_label.c ****             if(sel_start != 0xFFFF && sel_end != 0xFFFF) {
 1189              		.loc 1 229 13 is_stmt 1 view .LVU411
 1190              	.LVL126:
 230:lvgl/src/draw/lv_draw_label.c **** #if LV_USE_BIDI
 1191              		.loc 1 230 13 view .LVU412
 230:lvgl/src/draw/lv_draw_label.c **** #if LV_USE_BIDI
 1192              		.loc 1 230 15 is_stmt 0 view .LVU413
 1193 03b2 4FF6FF73 		movw	r3, #65535
 1194 03b6 9845     		cmp	r8, r3
 1195 03b8 80D0     		beq	.L62
 230:lvgl/src/draw/lv_draw_label.c **** #if LV_USE_BIDI
 1196              		.loc 1 230 36 discriminator 1 view .LVU414
 1197 03ba 9B45     		cmp	fp, r3
 1198 03bc 81D0     		beq	.L63
 236:lvgl/src/draw/lv_draw_label.c **** #endif
 1199              		.loc 1 236 17 is_stmt 1 view .LVU415
 236:lvgl/src/draw/lv_draw_label.c **** #endif
 1200              		.loc 1 236 36 is_stmt 0 view .LVU416
 1201 03be 844B     		ldr	r3, .L83
 1202 03c0 1B68     		ldr	r3, [r3]
 1203 03c2 4944     		add	r1, r1, r9
 1204 03c4 0898     		ldr	r0, [sp, #32]
 1205 03c6 9847     		blx	r3
 1206              	.LVL127:
 1207 03c8 0590     		str	r0, [sp, #20]
 1208              	.LVL128:
 1209              	.L36:
 240:lvgl/src/draw/lv_draw_label.c ****             uint32_t letter_next;
 1210              		.loc 1 240 13 is_stmt 1 view .LVU417
 241:lvgl/src/draw/lv_draw_label.c ****             _lv_txt_encoded_letter_next_2(bidi_txt, &letter, &letter_next, &i);
 1211              		.loc 1 241 13 view .LVU418
 242:lvgl/src/draw/lv_draw_label.c ****             /*Handle the re-color command*/
 1212              		.loc 1 242 13 view .LVU419
 1213 03ca 25AB     		add	r3, sp, #148
 1214 03cc 14AA     		add	r2, sp, #80
 1215 03ce 13A9     		add	r1, sp, #76
ARM GAS  /var/folders/21/t9g5rlb91ys800n5npymflf80000gn/T//cc4qd6Tv.s 			page 58


 1216 03d0 0698     		ldr	r0, [sp, #24]
 1217 03d2 FFF7FEFF 		bl	_lv_txt_encoded_letter_next_2
 1218              	.LVL129:
 244:lvgl/src/draw/lv_draw_label.c ****                 if(letter == (uint32_t)LV_TXT_COLOR_CMD[0]) {
 1219              		.loc 1 244 13 view .LVU420
 244:lvgl/src/draw/lv_draw_label.c ****                 if(letter == (uint32_t)LV_TXT_COLOR_CMD[0]) {
 1220              		.loc 1 244 20 is_stmt 0 view .LVU421
 1221 03d6 6B7F     		ldrb	r3, [r5, #29]	@ zero_extendqisi2
 244:lvgl/src/draw/lv_draw_label.c ****                 if(letter == (uint32_t)LV_TXT_COLOR_CMD[0]) {
 1222              		.loc 1 244 15 view .LVU422
 1223 03d8 13F0010F 		tst	r3, #1
 1224 03dc 06D0     		beq	.L37
 245:lvgl/src/draw/lv_draw_label.c ****                     if(cmd_state == CMD_STATE_WAIT) { /*Start char*/
 1225              		.loc 1 245 17 is_stmt 1 view .LVU423
 245:lvgl/src/draw/lv_draw_label.c ****                     if(cmd_state == CMD_STATE_WAIT) { /*Start char*/
 1226              		.loc 1 245 27 is_stmt 0 view .LVU424
 1227 03de 139B     		ldr	r3, [sp, #76]
 245:lvgl/src/draw/lv_draw_label.c ****                     if(cmd_state == CMD_STATE_WAIT) { /*Start char*/
 1228              		.loc 1 245 19 view .LVU425
 1229 03e0 232B     		cmp	r3, #35
 1230 03e2 3FF471AF 		beq	.L76
 1231              	.L38:
 261:lvgl/src/draw/lv_draw_label.c ****                     if(letter == ' ') {
 1232              		.loc 1 261 17 is_stmt 1 view .LVU426
 261:lvgl/src/draw/lv_draw_label.c ****                     if(letter == ' ') {
 1233              		.loc 1 261 19 is_stmt 0 view .LVU427
 1234 03e6 012F     		cmp	r7, #1
 1235 03e8 3FF47AAF 		beq	.L77
 1236              	.LVL130:
 1237              	.L37:
 283:lvgl/src/draw/lv_draw_label.c **** 
 1238              		.loc 1 283 13 is_stmt 1 view .LVU428
 283:lvgl/src/draw/lv_draw_label.c **** 
 1239              		.loc 1 283 19 is_stmt 0 view .LVU429
 1240 03ec B5F80CA0 		ldrh	r10, [r5, #12]
 1241              	.LVL131:
 285:lvgl/src/draw/lv_draw_label.c **** 
 1242              		.loc 1 285 13 is_stmt 1 view .LVU430
 285:lvgl/src/draw/lv_draw_label.c **** 
 1243              		.loc 1 285 15 is_stmt 0 view .LVU431
 1244 03f0 022F     		cmp	r7, #2
 1245 03f2 C5D0     		beq	.L78
 1246              	.L45:
 287:lvgl/src/draw/lv_draw_label.c **** 
 1247              		.loc 1 287 13 is_stmt 1 view .LVU432
 287:lvgl/src/draw/lv_draw_label.c **** 
 1248              		.loc 1 287 24 is_stmt 0 view .LVU433
 1249 03f4 149A     		ldr	r2, [sp, #80]
 1250 03f6 1399     		ldr	r1, [sp, #76]
 1251 03f8 0498     		ldr	r0, [sp, #16]
 1252 03fa FFF7FEFF 		bl	lv_font_get_glyph_width
 1253              	.LVL132:
 1254 03fe 0446     		mov	r4, r0
 1255              	.LVL133:
 289:lvgl/src/draw/lv_draw_label.c ****                 if(logical_char_pos >= sel_start && logical_char_pos < sel_end) {
 1256              		.loc 1 289 13 is_stmt 1 view .LVU434
 289:lvgl/src/draw/lv_draw_label.c ****                 if(logical_char_pos >= sel_start && logical_char_pos < sel_end) {
ARM GAS  /var/folders/21/t9g5rlb91ys800n5npymflf80000gn/T//cc4qd6Tv.s 			page 59


 1257              		.loc 1 289 15 is_stmt 0 view .LVU435
 1258 0400 4FF6FF73 		movw	r3, #65535
 1259 0404 9845     		cmp	r8, r3
 1260 0406 BED0     		beq	.L46
 289:lvgl/src/draw/lv_draw_label.c ****                 if(logical_char_pos >= sel_start && logical_char_pos < sel_end) {
 1261              		.loc 1 289 36 discriminator 1 view .LVU436
 1262 0408 9B45     		cmp	fp, r3
 1263 040a BCD0     		beq	.L46
 290:lvgl/src/draw/lv_draw_label.c ****                     lv_area_t sel_coords;
 1264              		.loc 1 290 17 is_stmt 1 view .LVU437
 290:lvgl/src/draw/lv_draw_label.c ****                     lv_area_t sel_coords;
 1265              		.loc 1 290 19 is_stmt 0 view .LVU438
 1266 040c 059B     		ldr	r3, [sp, #20]
 1267 040e 9845     		cmp	r8, r3
 1268 0410 B9D8     		bhi	.L46
 290:lvgl/src/draw/lv_draw_label.c ****                     lv_area_t sel_coords;
 1269              		.loc 1 290 50 discriminator 1 view .LVU439
 1270 0412 9B45     		cmp	fp, r3
 1271 0414 B7D9     		bls	.L46
 1272              	.LBB76:
 291:lvgl/src/draw/lv_draw_label.c ****                     sel_coords.x1 = pos.x;
 1273              		.loc 1 291 21 is_stmt 1 view .LVU440
 292:lvgl/src/draw/lv_draw_label.c ****                     sel_coords.y1 = pos.y;
 1274              		.loc 1 292 21 view .LVU441
 292:lvgl/src/draw/lv_draw_label.c ****                     sel_coords.y1 = pos.y;
 1275              		.loc 1 292 40 is_stmt 0 view .LVU442
 1276 0416 BDF9A430 		ldrsh	r3, [sp, #164]
 292:lvgl/src/draw/lv_draw_label.c ****                     sel_coords.y1 = pos.y;
 1277              		.loc 1 292 35 view .LVU443
 1278 041a ADF85430 		strh	r3, [sp, #84]	@ movhi
 293:lvgl/src/draw/lv_draw_label.c ****                     sel_coords.x2 = pos.x + letter_w + dsc->letter_space - 1;
 1279              		.loc 1 293 21 is_stmt 1 view .LVU444
 293:lvgl/src/draw/lv_draw_label.c ****                     sel_coords.x2 = pos.x + letter_w + dsc->letter_space - 1;
 1280              		.loc 1 293 40 is_stmt 0 view .LVU445
 1281 041e BDF9A620 		ldrsh	r2, [sp, #166]
 293:lvgl/src/draw/lv_draw_label.c ****                     sel_coords.x2 = pos.x + letter_w + dsc->letter_space - 1;
 1282              		.loc 1 293 35 view .LVU446
 1283 0422 ADF85620 		strh	r2, [sp, #86]	@ movhi
 294:lvgl/src/draw/lv_draw_label.c ****                     sel_coords.y2 = pos.y + line_height - 1;
 1284              		.loc 1 294 21 is_stmt 1 view .LVU447
 294:lvgl/src/draw/lv_draw_label.c ****                     sel_coords.y2 = pos.y + line_height - 1;
 1285              		.loc 1 294 43 is_stmt 0 view .LVU448
 1286 0426 10FA83F3 		uxtah	r3, r0, r3
 294:lvgl/src/draw/lv_draw_label.c ****                     sel_coords.y2 = pos.y + line_height - 1;
 1287              		.loc 1 294 59 view .LVU449
 1288 042a A98A     		ldrh	r1, [r5, #20]
 294:lvgl/src/draw/lv_draw_label.c ****                     sel_coords.y2 = pos.y + line_height - 1;
 1289              		.loc 1 294 54 view .LVU450
 1290 042c 11FA83F3 		uxtah	r3, r1, r3
 1291 0430 9BB2     		uxth	r3, r3
 294:lvgl/src/draw/lv_draw_label.c ****                     sel_coords.y2 = pos.y + line_height - 1;
 1292              		.loc 1 294 74 view .LVU451
 1293 0432 013B     		subs	r3, r3, #1
 294:lvgl/src/draw/lv_draw_label.c ****                     sel_coords.y2 = pos.y + line_height - 1;
 1294              		.loc 1 294 35 view .LVU452
 1295 0434 ADF85830 		strh	r3, [sp, #88]	@ movhi
 295:lvgl/src/draw/lv_draw_label.c ****                     lv_draw_rect(draw_ctx, &draw_dsc_sel, &sel_coords);
ARM GAS  /var/folders/21/t9g5rlb91ys800n5npymflf80000gn/T//cc4qd6Tv.s 			page 60


 1296              		.loc 1 295 21 is_stmt 1 view .LVU453
 295:lvgl/src/draw/lv_draw_label.c ****                     lv_draw_rect(draw_ctx, &draw_dsc_sel, &sel_coords);
 1297              		.loc 1 295 43 is_stmt 0 view .LVU454
 1298 0438 0D9B     		ldr	r3, [sp, #52]
 1299 043a 13FA82F3 		uxtah	r3, r3, r2
 1300 043e 9BB2     		uxth	r3, r3
 295:lvgl/src/draw/lv_draw_label.c ****                     lv_draw_rect(draw_ctx, &draw_dsc_sel, &sel_coords);
 1301              		.loc 1 295 57 view .LVU455
 1302 0440 013B     		subs	r3, r3, #1
 295:lvgl/src/draw/lv_draw_label.c ****                     lv_draw_rect(draw_ctx, &draw_dsc_sel, &sel_coords);
 1303              		.loc 1 295 35 view .LVU456
 1304 0442 ADF85A30 		strh	r3, [sp, #90]	@ movhi
 296:lvgl/src/draw/lv_draw_label.c ****                     color = dsc->sel_color;
 1305              		.loc 1 296 21 is_stmt 1 view .LVU457
 1306 0446 15AA     		add	r2, sp, #84
 1307 0448 17A9     		add	r1, sp, #92
 1308 044a 0798     		ldr	r0, [sp, #28]
 1309              	.LVL134:
 296:lvgl/src/draw/lv_draw_label.c ****                     color = dsc->sel_color;
 1310              		.loc 1 296 21 is_stmt 0 view .LVU458
 1311 044c FFF7FEFF 		bl	lv_draw_rect
 1312              	.LVL135:
 297:lvgl/src/draw/lv_draw_label.c ****                 }
 1313              		.loc 1 297 21 is_stmt 1 view .LVU459
 297:lvgl/src/draw/lv_draw_label.c ****                 }
 1314              		.loc 1 297 27 is_stmt 0 view .LVU460
 1315 0450 B5F80EA0 		ldrh	r10, [r5, #14]
 1316 0454 97E7     		b	.L46
 1317              	.LVL136:
 1318              	.L75:
 297:lvgl/src/draw/lv_draw_label.c ****                 }
 1319              		.loc 1 297 27 view .LVU461
 1320              	.LBE76:
 1321              	.LBE77:
 309:lvgl/src/draw/lv_draw_label.c ****             lv_point_t p1;
 1322              		.loc 1 309 9 is_stmt 1 view .LVU462
 309:lvgl/src/draw/lv_draw_label.c ****             lv_point_t p1;
 1323              		.loc 1 309 15 is_stmt 0 view .LVU463
 1324 0456 AB7F     		ldrb	r3, [r5, #30]	@ zero_extendqisi2
 309:lvgl/src/draw/lv_draw_label.c ****             lv_point_t p1;
 1325              		.loc 1 309 11 view .LVU464
 1326 0458 13F0020F 		tst	r3, #2
 1327 045c 3FD1     		bne	.L79
 1328              	.L50:
 320:lvgl/src/draw/lv_draw_label.c ****             lv_point_t p1;
 1329              		.loc 1 320 9 is_stmt 1 view .LVU465
 320:lvgl/src/draw/lv_draw_label.c ****             lv_point_t p1;
 1330              		.loc 1 320 15 is_stmt 0 view .LVU466
 1331 045e AB7F     		ldrb	r3, [r5, #30]	@ zero_extendqisi2
 320:lvgl/src/draw/lv_draw_label.c ****             lv_point_t p1;
 1332              		.loc 1 320 11 view .LVU467
 1333 0460 13F0010F 		tst	r3, #1
 1334 0464 60D1     		bne	.L80
 1335              	.L51:
 336:lvgl/src/draw/lv_draw_label.c ****         line_end += _lv_txt_get_next_line(&txt[line_start], font, dsc->letter_space, w, NULL, dsc->
 1336              		.loc 1 336 9 is_stmt 1 view .LVU468
 1337              	.LVL137:
ARM GAS  /var/folders/21/t9g5rlb91ys800n5npymflf80000gn/T//cc4qd6Tv.s 			page 61


 337:lvgl/src/draw/lv_draw_label.c **** 
 1338              		.loc 1 337 9 view .LVU469
 337:lvgl/src/draw/lv_draw_label.c **** 
 1339              		.loc 1 337 21 is_stmt 0 view .LVU470
 1340 0466 089B     		ldr	r3, [sp, #32]
 1341 0468 9C19     		adds	r4, r3, r6
 337:lvgl/src/draw/lv_draw_label.c **** 
 1342              		.loc 1 337 98 view .LVU471
 1343 046a 6B7F     		ldrb	r3, [r5, #29]	@ zero_extendqisi2
 337:lvgl/src/draw/lv_draw_label.c **** 
 1344              		.loc 1 337 21 view .LVU472
 1345 046c 0193     		str	r3, [sp, #4]
 1346 046e 0023     		movs	r3, #0
 1347 0470 0093     		str	r3, [sp]
 1348 0472 0A9B     		ldr	r3, [sp, #40]
 1349 0474 B5F91420 		ldrsh	r2, [r5, #20]
 1350 0478 0499     		ldr	r1, [sp, #16]
 1351 047a 2046     		mov	r0, r4
 1352 047c FFF7FEFF 		bl	_lv_txt_get_next_line
 1353              	.LVL138:
 337:lvgl/src/draw/lv_draw_label.c **** 
 1354              		.loc 1 337 18 view .LVU473
 1355 0480 3718     		adds	r7, r6, r0
 1356              	.LVL139:
 339:lvgl/src/draw/lv_draw_label.c ****         /*Align to middle*/
 1357              		.loc 1 339 9 is_stmt 1 view .LVU474
 339:lvgl/src/draw/lv_draw_label.c ****         /*Align to middle*/
 1358              		.loc 1 339 23 is_stmt 0 view .LVU475
 1359 0482 099B     		ldr	r3, [sp, #36]
 1360 0484 B3F90030 		ldrsh	r3, [r3]
 339:lvgl/src/draw/lv_draw_label.c ****         /*Align to middle*/
 1361              		.loc 1 339 15 view .LVU476
 1362 0488 ADF8A430 		strh	r3, [sp, #164]	@ movhi
 341:lvgl/src/draw/lv_draw_label.c ****             line_width =
 1363              		.loc 1 341 9 is_stmt 1 view .LVU477
 341:lvgl/src/draw/lv_draw_label.c ****             line_width =
 1364              		.loc 1 341 11 is_stmt 0 view .LVU478
 1365 048c 0C9B     		ldr	r3, [sp, #48]
 1366 048e 022B     		cmp	r3, #2
 1367 0490 6DD0     		beq	.L81
 349:lvgl/src/draw/lv_draw_label.c ****             line_width =
 1368              		.loc 1 349 14 is_stmt 1 view .LVU479
 349:lvgl/src/draw/lv_draw_label.c ****             line_width =
 1369              		.loc 1 349 16 is_stmt 0 view .LVU480
 1370 0492 0C9B     		ldr	r3, [sp, #48]
 1371 0494 032B     		cmp	r3, #3
 1372 0496 00F08480 		beq	.L82
 1373              	.L53:
 356:lvgl/src/draw/lv_draw_label.c **** 
 1374              		.loc 1 356 9 is_stmt 1 view .LVU481
 356:lvgl/src/draw/lv_draw_label.c **** 
 1375              		.loc 1 356 12 is_stmt 0 view .LVU482
 1376 049a BDF8A630 		ldrh	r3, [sp, #166]
 356:lvgl/src/draw/lv_draw_label.c **** 
 1377              		.loc 1 356 15 view .LVU483
 1378 049e 0D9A     		ldr	r2, [sp, #52]
 1379 04a0 1344     		add	r3, r3, r2
ARM GAS  /var/folders/21/t9g5rlb91ys800n5npymflf80000gn/T//cc4qd6Tv.s 			page 62


 1380 04a2 1BB2     		sxth	r3, r3
 1381 04a4 ADF8A630 		strh	r3, [sp, #166]	@ movhi
 358:lvgl/src/draw/lv_draw_label.c ****     }
 1382              		.loc 1 358 9 is_stmt 1 view .LVU484
 358:lvgl/src/draw/lv_draw_label.c ****     }
 1383              		.loc 1 358 28 is_stmt 0 view .LVU485
 1384 04a8 079A     		ldr	r2, [sp, #28]
 1385 04aa 9268     		ldr	r2, [r2, #8]
 358:lvgl/src/draw/lv_draw_label.c ****     }
 1386              		.loc 1 358 39 view .LVU486
 1387 04ac B2F90620 		ldrsh	r2, [r2, #6]
 336:lvgl/src/draw/lv_draw_label.c ****         line_end += _lv_txt_get_next_line(&txt[line_start], font, dsc->letter_space, w, NULL, dsc->
 1388              		.loc 1 336 20 view .LVU487
 1389 04b0 B146     		mov	r9, r6
 358:lvgl/src/draw/lv_draw_label.c ****     }
 1390              		.loc 1 358 11 view .LVU488
 1391 04b2 9342     		cmp	r3, r2
 1392 04b4 3FF7C4AD 		bgt	.L18
 337:lvgl/src/draw/lv_draw_label.c **** 
 1393              		.loc 1 337 18 view .LVU489
 1394 04b8 3E46     		mov	r6, r7
 1395              	.LVL140:
 1396              	.L34:
 337:lvgl/src/draw/lv_draw_label.c **** 
 1397              		.loc 1 337 18 view .LVU490
 1398              	.LBE69:
 215:lvgl/src/draw/lv_draw_label.c ****         pos.x += x_ofs;
 1399              		.loc 1 215 27 is_stmt 1 view .LVU491
 215:lvgl/src/draw/lv_draw_label.c ****         pos.x += x_ofs;
 1400              		.loc 1 215 14 is_stmt 0 view .LVU492
 1401 04ba 089B     		ldr	r3, [sp, #32]
 1402 04bc 03EB0902 		add	r2, r3, r9
 1403 04c0 0692     		str	r2, [sp, #24]
 1404 04c2 13F80930 		ldrb	r3, [r3, r9]	@ zero_extendqisi2
 215:lvgl/src/draw/lv_draw_label.c ****         pos.x += x_ofs;
 1405              		.loc 1 215 27 view .LVU493
 1406 04c6 002B     		cmp	r3, #0
 1407 04c8 3FF4BAAD 		beq	.L18
 1408              	.LBB84:
 216:lvgl/src/draw/lv_draw_label.c **** 
 1409              		.loc 1 216 9 is_stmt 1 view .LVU494
 216:lvgl/src/draw/lv_draw_label.c **** 
 1410              		.loc 1 216 12 is_stmt 0 view .LVU495
 1411 04cc BDF8A430 		ldrh	r3, [sp, #164]
 216:lvgl/src/draw/lv_draw_label.c **** 
 1412              		.loc 1 216 15 view .LVU496
 1413 04d0 0E9A     		ldr	r2, [sp, #56]
 1414 04d2 1344     		add	r3, r3, r2
 1415 04d4 ADF8A430 		strh	r3, [sp, #164]	@ movhi
 219:lvgl/src/draw/lv_draw_label.c ****         i         = 0;
 1416              		.loc 1 219 9 is_stmt 1 view .LVU497
 1417              	.LVL141:
 220:lvgl/src/draw/lv_draw_label.c **** #if LV_USE_BIDI
 1418              		.loc 1 220 9 view .LVU498
 220:lvgl/src/draw/lv_draw_label.c **** #if LV_USE_BIDI
 1419              		.loc 1 220 19 is_stmt 0 view .LVU499
 1420 04d8 0027     		movs	r7, #0
ARM GAS  /var/folders/21/t9g5rlb91ys800n5npymflf80000gn/T//cc4qd6Tv.s 			page 63


 1421 04da 2597     		str	r7, [sp, #148]
 225:lvgl/src/draw/lv_draw_label.c **** #endif
 1422              		.loc 1 225 9 is_stmt 1 view .LVU500
 1423              	.LVL142:
 228:lvgl/src/draw/lv_draw_label.c ****             uint32_t logical_char_pos = 0;
 1424              		.loc 1 228 9 view .LVU501
 228:lvgl/src/draw/lv_draw_label.c ****             uint32_t logical_char_pos = 0;
 1425              		.loc 1 228 14 is_stmt 0 view .LVU502
 1426 04dc 64E7     		b	.L35
 1427              	.LVL143:
 1428              	.L79:
 1429              	.LBB78:
 310:lvgl/src/draw/lv_draw_label.c ****             lv_point_t p2;
 1430              		.loc 1 310 13 is_stmt 1 view .LVU503
 311:lvgl/src/draw/lv_draw_label.c ****             p1.x = pos_x_start;
 1431              		.loc 1 311 13 view .LVU504
 312:lvgl/src/draw/lv_draw_label.c ****             p1.y = pos.y + (dsc->font->line_height / 2)  + line_dsc.width / 2;
 1432              		.loc 1 312 13 view .LVU505
 312:lvgl/src/draw/lv_draw_label.c ****             p1.y = pos.y + (dsc->font->line_height / 2)  + line_dsc.width / 2;
 1433              		.loc 1 312 18 is_stmt 0 view .LVU506
 1434 04de 109B     		ldr	r3, [sp, #64]
 1435 04e0 ADF85030 		strh	r3, [sp, #80]	@ movhi
 313:lvgl/src/draw/lv_draw_label.c ****             p2.x = pos.x;
 1436              		.loc 1 313 13 is_stmt 1 view .LVU507
 313:lvgl/src/draw/lv_draw_label.c ****             p2.x = pos.x;
 1437              		.loc 1 313 23 is_stmt 0 view .LVU508
 1438 04e4 BDF8A630 		ldrh	r3, [sp, #166]
 313:lvgl/src/draw/lv_draw_label.c ****             p2.x = pos.x;
 1439              		.loc 1 313 32 view .LVU509
 1440 04e8 2A68     		ldr	r2, [r5]
 313:lvgl/src/draw/lv_draw_label.c ****             p2.x = pos.x;
 1441              		.loc 1 313 38 view .LVU510
 1442 04ea B2F90820 		ldrsh	r2, [r2, #8]
 313:lvgl/src/draw/lv_draw_label.c ****             p2.x = pos.x;
 1443              		.loc 1 313 26 view .LVU511
 1444 04ee 02EBD272 		add	r2, r2, r2, lsr #31
 1445 04f2 03EB6203 		add	r3, r3, r2, asr #1
 313:lvgl/src/draw/lv_draw_label.c ****             p2.x = pos.x;
 1446              		.loc 1 313 68 view .LVU512
 1447 04f6 BDF99A20 		ldrsh	r2, [sp, #154]
 313:lvgl/src/draw/lv_draw_label.c ****             p2.x = pos.x;
 1448              		.loc 1 313 58 view .LVU513
 1449 04fa 02EBD272 		add	r2, r2, r2, lsr #31
 1450 04fe 5210     		asrs	r2, r2, #1
 1451 0500 12FA83F3 		uxtah	r3, r2, r3
 1452 0504 1BB2     		sxth	r3, r3
 313:lvgl/src/draw/lv_draw_label.c ****             p2.x = pos.x;
 1453              		.loc 1 313 18 view .LVU514
 1454 0506 ADF85230 		strh	r3, [sp, #82]	@ movhi
 314:lvgl/src/draw/lv_draw_label.c ****             p2.y = p1.y;
 1455              		.loc 1 314 13 is_stmt 1 view .LVU515
 314:lvgl/src/draw/lv_draw_label.c ****             p2.y = p1.y;
 1456              		.loc 1 314 23 is_stmt 0 view .LVU516
 1457 050a BDF9A420 		ldrsh	r2, [sp, #164]
 314:lvgl/src/draw/lv_draw_label.c ****             p2.y = p1.y;
 1458              		.loc 1 314 18 view .LVU517
 1459 050e ADF85420 		strh	r2, [sp, #84]	@ movhi
ARM GAS  /var/folders/21/t9g5rlb91ys800n5npymflf80000gn/T//cc4qd6Tv.s 			page 64


 315:lvgl/src/draw/lv_draw_label.c ****             line_dsc.color = color;
 1460              		.loc 1 315 13 is_stmt 1 view .LVU518
 315:lvgl/src/draw/lv_draw_label.c ****             line_dsc.color = color;
 1461              		.loc 1 315 18 is_stmt 0 view .LVU519
 1462 0512 ADF85630 		strh	r3, [sp, #86]	@ movhi
 316:lvgl/src/draw/lv_draw_label.c ****             lv_draw_line(draw_ctx, &line_dsc, &p1, &p2);
 1463              		.loc 1 316 13 is_stmt 1 view .LVU520
 316:lvgl/src/draw/lv_draw_label.c ****             lv_draw_line(draw_ctx, &line_dsc, &p1, &p2);
 1464              		.loc 1 316 28 is_stmt 0 view .LVU521
 1465 0516 ADF898A0 		strh	r10, [sp, #152]	@ movhi
 317:lvgl/src/draw/lv_draw_label.c ****         }
 1466              		.loc 1 317 13 is_stmt 1 view .LVU522
 1467 051a 15AB     		add	r3, sp, #84
 1468 051c 14AA     		add	r2, sp, #80
 1469 051e 26A9     		add	r1, sp, #152
 1470 0520 0798     		ldr	r0, [sp, #28]
 1471 0522 FFF7FEFF 		bl	lv_draw_line
 1472              	.LVL144:
 1473 0526 9AE7     		b	.L50
 1474              	.L80:
 317:lvgl/src/draw/lv_draw_label.c ****         }
 1475              		.loc 1 317 13 is_stmt 0 view .LVU523
 1476              	.LBE78:
 1477              	.LBB79:
 321:lvgl/src/draw/lv_draw_label.c ****             lv_point_t p2;
 1478              		.loc 1 321 13 is_stmt 1 view .LVU524
 322:lvgl/src/draw/lv_draw_label.c ****             p1.x = pos_x_start;
 1479              		.loc 1 322 13 view .LVU525
 323:lvgl/src/draw/lv_draw_label.c ****             p1.y = pos.y + dsc->font->line_height - dsc->font->base_line - font->underline_position
 1480              		.loc 1 323 13 view .LVU526
 323:lvgl/src/draw/lv_draw_label.c ****             p1.y = pos.y + dsc->font->line_height - dsc->font->base_line - font->underline_position
 1481              		.loc 1 323 18 is_stmt 0 view .LVU527
 1482 0528 109B     		ldr	r3, [sp, #64]
 1483 052a ADF85030 		strh	r3, [sp, #80]	@ movhi
 324:lvgl/src/draw/lv_draw_label.c ****             p2.x = pos.x;
 1484              		.loc 1 324 13 is_stmt 1 view .LVU528
 324:lvgl/src/draw/lv_draw_label.c ****             p2.x = pos.x;
 1485              		.loc 1 324 23 is_stmt 0 view .LVU529
 1486 052e BDF8A630 		ldrh	r3, [sp, #166]
 324:lvgl/src/draw/lv_draw_label.c ****             p2.x = pos.x;
 1487              		.loc 1 324 31 view .LVU530
 1488 0532 2A68     		ldr	r2, [r5]
 324:lvgl/src/draw/lv_draw_label.c ****             p2.x = pos.x;
 1489              		.loc 1 324 37 view .LVU531
 1490 0534 1189     		ldrh	r1, [r2, #8]
 324:lvgl/src/draw/lv_draw_label.c ****             p2.x = pos.x;
 1491              		.loc 1 324 26 view .LVU532
 1492 0536 0B44     		add	r3, r3, r1
 1493 0538 9BB2     		uxth	r3, r3
 324:lvgl/src/draw/lv_draw_label.c ****             p2.x = pos.x;
 1494              		.loc 1 324 62 view .LVU533
 1495 053a 5289     		ldrh	r2, [r2, #10]
 324:lvgl/src/draw/lv_draw_label.c ****             p2.x = pos.x;
 1496              		.loc 1 324 51 view .LVU534
 1497 053c 9B1A     		subs	r3, r3, r2
 1498 053e 9BB2     		uxth	r3, r3
 324:lvgl/src/draw/lv_draw_label.c ****             p2.x = pos.x;
ARM GAS  /var/folders/21/t9g5rlb91ys800n5npymflf80000gn/T//cc4qd6Tv.s 			page 65


 1499              		.loc 1 324 80 view .LVU535
 1500 0540 049A     		ldr	r2, [sp, #16]
 1501 0542 92F90D20 		ldrsb	r2, [r2, #13]
 1502 0546 92B2     		uxth	r2, r2
 324:lvgl/src/draw/lv_draw_label.c ****             p2.x = pos.x;
 1503              		.loc 1 324 74 view .LVU536
 1504 0548 9B1A     		subs	r3, r3, r2
 1505 054a 1BB2     		sxth	r3, r3
 324:lvgl/src/draw/lv_draw_label.c ****             p2.x = pos.x;
 1506              		.loc 1 324 18 view .LVU537
 1507 054c ADF85230 		strh	r3, [sp, #82]	@ movhi
 325:lvgl/src/draw/lv_draw_label.c ****             p2.y = p1.y;
 1508              		.loc 1 325 13 is_stmt 1 view .LVU538
 325:lvgl/src/draw/lv_draw_label.c ****             p2.y = p1.y;
 1509              		.loc 1 325 23 is_stmt 0 view .LVU539
 1510 0550 BDF9A420 		ldrsh	r2, [sp, #164]
 325:lvgl/src/draw/lv_draw_label.c ****             p2.y = p1.y;
 1511              		.loc 1 325 18 view .LVU540
 1512 0554 ADF85420 		strh	r2, [sp, #84]	@ movhi
 326:lvgl/src/draw/lv_draw_label.c ****             line_dsc.color = color;
 1513              		.loc 1 326 13 is_stmt 1 view .LVU541
 326:lvgl/src/draw/lv_draw_label.c ****             line_dsc.color = color;
 1514              		.loc 1 326 18 is_stmt 0 view .LVU542
 1515 0558 ADF85630 		strh	r3, [sp, #86]	@ movhi
 327:lvgl/src/draw/lv_draw_label.c ****             lv_draw_line(draw_ctx, &line_dsc, &p1, &p2);
 1516              		.loc 1 327 13 is_stmt 1 view .LVU543
 327:lvgl/src/draw/lv_draw_label.c ****             lv_draw_line(draw_ctx, &line_dsc, &p1, &p2);
 1517              		.loc 1 327 28 is_stmt 0 view .LVU544
 1518 055c ADF898A0 		strh	r10, [sp, #152]	@ movhi
 328:lvgl/src/draw/lv_draw_label.c ****         }
 1519              		.loc 1 328 13 is_stmt 1 view .LVU545
 1520 0560 15AB     		add	r3, sp, #84
 1521 0562 14AA     		add	r2, sp, #80
 1522 0564 26A9     		add	r1, sp, #152
 1523 0566 0798     		ldr	r0, [sp, #28]
 1524 0568 FFF7FEFF 		bl	lv_draw_line
 1525              	.LVL145:
 1526 056c 7BE7     		b	.L51
 1527              	.LVL146:
 1528              	.L81:
 328:lvgl/src/draw/lv_draw_label.c ****         }
 1529              		.loc 1 328 13 is_stmt 0 view .LVU546
 1530              	.LBE79:
 342:lvgl/src/draw/lv_draw_label.c ****                 lv_txt_get_width(&txt[line_start], line_end - line_start, font, dsc->letter_space, 
 1531              		.loc 1 342 13 is_stmt 1 view .LVU547
 343:lvgl/src/draw/lv_draw_label.c **** 
 1532              		.loc 1 343 103 is_stmt 0 view .LVU548
 1533 056e 6B7F     		ldrb	r3, [r5, #29]	@ zero_extendqisi2
 343:lvgl/src/draw/lv_draw_label.c **** 
 1534              		.loc 1 343 17 view .LVU549
 1535 0570 0093     		str	r3, [sp]
 1536 0572 B5F91430 		ldrsh	r3, [r5, #20]
 1537 0576 049A     		ldr	r2, [sp, #16]
 1538 0578 0146     		mov	r1, r0
 1539 057a 2046     		mov	r0, r4
 1540 057c FFF7FEFF 		bl	lv_txt_get_width
 1541              	.LVL147:
ARM GAS  /var/folders/21/t9g5rlb91ys800n5npymflf80000gn/T//cc4qd6Tv.s 			page 66


 345:lvgl/src/draw/lv_draw_label.c **** 
 1542              		.loc 1 345 13 is_stmt 1 view .LVU550
 1543              	.LBB80:
 1544              	.LBI80:
 123:lvgl/src/draw/../misc/../font/../misc/lv_area.h **** {
 1545              		.loc 4 123 26 view .LVU551
 1546              	.LBB81:
 1547              		.loc 4 125 5 view .LVU552
 1548              		.loc 4 125 31 is_stmt 0 view .LVU553
 1549 0580 099A     		ldr	r2, [sp, #36]
 1550 0582 9388     		ldrh	r3, [r2, #4]
 1551              		.loc 4 125 44 view .LVU554
 1552 0584 1288     		ldrh	r2, [r2]
 1553              		.loc 4 125 36 view .LVU555
 1554 0586 9B1A     		subs	r3, r3, r2
 1555 0588 9BB2     		uxth	r3, r3
 1556              		.loc 4 125 49 view .LVU556
 1557 058a 0133     		adds	r3, r3, #1
 1558              		.loc 4 125 12 view .LVU557
 1559 058c 1BB2     		sxth	r3, r3
 1560              	.LVL148:
 1561              		.loc 4 125 12 view .LVU558
 1562              	.LBE81:
 1563              	.LBE80:
 345:lvgl/src/draw/lv_draw_label.c **** 
 1564              		.loc 1 345 49 view .LVU559
 1565 058e 181A     		subs	r0, r3, r0
 1566              	.LVL149:
 345:lvgl/src/draw/lv_draw_label.c **** 
 1567              		.loc 1 345 63 view .LVU560
 1568 0590 00EBD070 		add	r0, r0, r0, lsr #31
 345:lvgl/src/draw/lv_draw_label.c **** 
 1569              		.loc 1 345 16 view .LVU561
 1570 0594 BDF8A430 		ldrh	r3, [sp, #164]
 345:lvgl/src/draw/lv_draw_label.c **** 
 1571              		.loc 1 345 19 view .LVU562
 1572 0598 03EB6003 		add	r3, r3, r0, asr #1
 1573 059c ADF8A430 		strh	r3, [sp, #164]	@ movhi
 1574 05a0 7BE7     		b	.L53
 1575              	.LVL150:
 1576              	.L82:
 350:lvgl/src/draw/lv_draw_label.c ****                 lv_txt_get_width(&txt[line_start], line_end - line_start, font, dsc->letter_space, 
 1577              		.loc 1 350 13 is_stmt 1 view .LVU563
 351:lvgl/src/draw/lv_draw_label.c ****             pos.x += lv_area_get_width(coords) - line_width;
 1578              		.loc 1 351 103 is_stmt 0 view .LVU564
 1579 05a2 6B7F     		ldrb	r3, [r5, #29]	@ zero_extendqisi2
 351:lvgl/src/draw/lv_draw_label.c ****             pos.x += lv_area_get_width(coords) - line_width;
 1580              		.loc 1 351 17 view .LVU565
 1581 05a4 0093     		str	r3, [sp]
 1582 05a6 B5F91430 		ldrsh	r3, [r5, #20]
 1583 05aa 049A     		ldr	r2, [sp, #16]
 1584 05ac 0146     		mov	r1, r0
 1585 05ae 2046     		mov	r0, r4
 1586 05b0 FFF7FEFF 		bl	lv_txt_get_width
 1587              	.LVL151:
 352:lvgl/src/draw/lv_draw_label.c ****         }
 1588              		.loc 1 352 13 is_stmt 1 view .LVU566
ARM GAS  /var/folders/21/t9g5rlb91ys800n5npymflf80000gn/T//cc4qd6Tv.s 			page 67


 1589              	.LBB82:
 1590              	.LBI82:
 123:lvgl/src/draw/../misc/../font/../misc/lv_area.h **** {
 1591              		.loc 4 123 26 view .LVU567
 1592              	.LBB83:
 1593              		.loc 4 125 5 view .LVU568
 1594              		.loc 4 125 31 is_stmt 0 view .LVU569
 1595 05b4 099A     		ldr	r2, [sp, #36]
 1596 05b6 9388     		ldrh	r3, [r2, #4]
 1597              		.loc 4 125 44 view .LVU570
 1598 05b8 1288     		ldrh	r2, [r2]
 1599              		.loc 4 125 36 view .LVU571
 1600 05ba 9B1A     		subs	r3, r3, r2
 1601 05bc 9BB2     		uxth	r3, r3
 1602              		.loc 4 125 49 view .LVU572
 1603 05be 0133     		adds	r3, r3, #1
 1604              		.loc 4 125 12 view .LVU573
 1605 05c0 1BB2     		sxth	r3, r3
 1606              	.LVL152:
 1607              		.loc 4 125 12 view .LVU574
 1608              	.LBE83:
 1609              	.LBE82:
 352:lvgl/src/draw/lv_draw_label.c ****         }
 1610              		.loc 1 352 48 view .LVU575
 1611 05c2 1B1A     		subs	r3, r3, r0
 352:lvgl/src/draw/lv_draw_label.c ****         }
 1612              		.loc 1 352 16 view .LVU576
 1613 05c4 BDF8A420 		ldrh	r2, [sp, #164]
 352:lvgl/src/draw/lv_draw_label.c ****         }
 1614              		.loc 1 352 19 view .LVU577
 1615 05c8 1344     		add	r3, r3, r2
 1616 05ca ADF8A430 		strh	r3, [sp, #164]	@ movhi
 1617 05ce 64E7     		b	.L53
 1618              	.L84:
 1619              		.align	2
 1620              	.L83:
 1621 05d0 00000000 		.word	_lv_txt_encoded_get_char_id
 1622              	.LBE84:
 1623              		.cfi_endproc
 1624              	.LFE162:
 1626              		.text
 1627              	.Letext0:
 1628              		.file 7 "/usr/local/include/sys/_types/_int8_t.h"
 1629              		.file 8 "/usr/local/include/sys/_types/_int16_t.h"
 1630              		.file 9 "/usr/local/include/sys/_types/_int32_t.h"
 1631              		.file 10 "/usr/local/include/_types/_uint8_t.h"
 1632              		.file 11 "/usr/local/include/_types/_uint16_t.h"
 1633              		.file 12 "/usr/local/include/_types/_uint32_t.h"
 1634              		.file 13 "/usr/local/include/arm/_types.h"
 1635              		.file 14 "/usr/local/include/sys/_types/_size_t.h"
 1636              		.file 15 "lvgl/src/draw/../misc/lv_types.h"
 1637              		.file 16 "lvgl/src/draw/../misc/lv_txt.h"
 1638              		.file 17 "lvgl/src/draw/../misc/lv_style.h"
 1639              		.file 18 "lvgl/src/draw/lv_img_buf.h"
 1640              		.file 19 "lvgl/src/draw/lv_draw_rect.h"
 1641              		.file 20 "lvgl/src/draw/lv_draw_label.h"
 1642              		.file 21 "lvgl/src/draw/lv_draw_img.h"
ARM GAS  /var/folders/21/t9g5rlb91ys800n5npymflf80000gn/T//cc4qd6Tv.s 			page 68


 1643              		.file 22 "lvgl/src/draw/lv_draw_line.h"
 1644              		.file 23 "lvgl/src/draw/lv_draw_arc.h"
 1645              		.file 24 "lvgl/src/draw/lv_draw_layer.h"
 1646              		.file 25 "lvgl/src/draw/lv_draw.h"
ARM GAS  /var/folders/21/t9g5rlb91ys800n5npymflf80000gn/T//cc4qd6Tv.s 			page 69

