ARM GAS  /var/folders/21/t9g5rlb91ys800n5npymflf80000gn/T//ccApAxk1.s 			page 1


   1              		.cpu cortex-m4
   2              		.arch armv7e-m
   3              		.fpu fpv4-sp-d16
   4              		.eabi_attribute 27, 1
   5              		.eabi_attribute 28, 1
   6              		.eabi_attribute 20, 1
   7              		.eabi_attribute 21, 1
   8              		.eabi_attribute 23, 3
   9              		.eabi_attribute 24, 1
  10              		.eabi_attribute 25, 1
  11              		.eabi_attribute 26, 1
  12              		.eabi_attribute 30, 1
  13              		.eabi_attribute 34, 1
  14              		.eabi_attribute 18, 4
  15              		.file	"lv_draw_sw_transform.c"
  16              		.text
  17              	.Ltext0:
  18              		.cfi_sections	.debug_frame
  19              		.file 1 "lvgl/src/draw/sw/lv_draw_sw_transform.c"
  20              		.section	.text.lv_color_mix,"ax",%progbits
  21              		.align	1
  22              		.syntax unified
  23              		.thumb
  24              		.thumb_func
  26              	lv_color_mix:
  27              	.LVL0:
  28              	.LFB6:
  29              		.file 2 "lvgl/src/draw/sw/../../misc/lv_color.h"
   1:lvgl/src/draw/sw/../../misc/lv_color.h **** /**
   2:lvgl/src/draw/sw/../../misc/lv_color.h ****  * @file lv_color.h
   3:lvgl/src/draw/sw/../../misc/lv_color.h ****  *
   4:lvgl/src/draw/sw/../../misc/lv_color.h ****  */
   5:lvgl/src/draw/sw/../../misc/lv_color.h **** 
   6:lvgl/src/draw/sw/../../misc/lv_color.h **** #ifndef LV_COLOR_H
   7:lvgl/src/draw/sw/../../misc/lv_color.h **** #define LV_COLOR_H
   8:lvgl/src/draw/sw/../../misc/lv_color.h **** 
   9:lvgl/src/draw/sw/../../misc/lv_color.h **** #ifdef __cplusplus
  10:lvgl/src/draw/sw/../../misc/lv_color.h **** extern "C" {
  11:lvgl/src/draw/sw/../../misc/lv_color.h **** #endif
  12:lvgl/src/draw/sw/../../misc/lv_color.h **** 
  13:lvgl/src/draw/sw/../../misc/lv_color.h **** /*********************
  14:lvgl/src/draw/sw/../../misc/lv_color.h ****  *      INCLUDES
  15:lvgl/src/draw/sw/../../misc/lv_color.h ****  *********************/
  16:lvgl/src/draw/sw/../../misc/lv_color.h **** #include "../lv_conf_internal.h"
  17:lvgl/src/draw/sw/../../misc/lv_color.h **** #include "lv_assert.h"
  18:lvgl/src/draw/sw/../../misc/lv_color.h **** #include "lv_math.h"
  19:lvgl/src/draw/sw/../../misc/lv_color.h **** #include "lv_types.h"
  20:lvgl/src/draw/sw/../../misc/lv_color.h **** 
  21:lvgl/src/draw/sw/../../misc/lv_color.h **** /*Error checking*/
  22:lvgl/src/draw/sw/../../misc/lv_color.h **** #if LV_COLOR_DEPTH == 24
  23:lvgl/src/draw/sw/../../misc/lv_color.h **** #error "LV_COLOR_DEPTH 24 is deprecated. Use LV_COLOR_DEPTH 32 instead (lv_conf.h)"
  24:lvgl/src/draw/sw/../../misc/lv_color.h **** #endif
  25:lvgl/src/draw/sw/../../misc/lv_color.h **** 
  26:lvgl/src/draw/sw/../../misc/lv_color.h **** #if LV_COLOR_DEPTH != 16 && LV_COLOR_16_SWAP != 0
  27:lvgl/src/draw/sw/../../misc/lv_color.h **** #error "LV_COLOR_16_SWAP requires LV_COLOR_DEPTH == 16. Set it in lv_conf.h"
  28:lvgl/src/draw/sw/../../misc/lv_color.h **** #endif
  29:lvgl/src/draw/sw/../../misc/lv_color.h **** 
ARM GAS  /var/folders/21/t9g5rlb91ys800n5npymflf80000gn/T//ccApAxk1.s 			page 2


  30:lvgl/src/draw/sw/../../misc/lv_color.h **** #include <stdint.h>
  31:lvgl/src/draw/sw/../../misc/lv_color.h **** 
  32:lvgl/src/draw/sw/../../misc/lv_color.h **** /*********************
  33:lvgl/src/draw/sw/../../misc/lv_color.h ****  *      DEFINES
  34:lvgl/src/draw/sw/../../misc/lv_color.h ****  *********************/
  35:lvgl/src/draw/sw/../../misc/lv_color.h **** LV_EXPORT_CONST_INT(LV_COLOR_DEPTH);
  36:lvgl/src/draw/sw/../../misc/lv_color.h **** LV_EXPORT_CONST_INT(LV_COLOR_16_SWAP);
  37:lvgl/src/draw/sw/../../misc/lv_color.h **** 
  38:lvgl/src/draw/sw/../../misc/lv_color.h **** /**
  39:lvgl/src/draw/sw/../../misc/lv_color.h ****  * Opacity percentages.
  40:lvgl/src/draw/sw/../../misc/lv_color.h ****  */
  41:lvgl/src/draw/sw/../../misc/lv_color.h **** enum {
  42:lvgl/src/draw/sw/../../misc/lv_color.h ****     LV_OPA_TRANSP = 0,
  43:lvgl/src/draw/sw/../../misc/lv_color.h ****     LV_OPA_0      = 0,
  44:lvgl/src/draw/sw/../../misc/lv_color.h ****     LV_OPA_10     = 25,
  45:lvgl/src/draw/sw/../../misc/lv_color.h ****     LV_OPA_20     = 51,
  46:lvgl/src/draw/sw/../../misc/lv_color.h ****     LV_OPA_30     = 76,
  47:lvgl/src/draw/sw/../../misc/lv_color.h ****     LV_OPA_40     = 102,
  48:lvgl/src/draw/sw/../../misc/lv_color.h ****     LV_OPA_50     = 127,
  49:lvgl/src/draw/sw/../../misc/lv_color.h ****     LV_OPA_60     = 153,
  50:lvgl/src/draw/sw/../../misc/lv_color.h ****     LV_OPA_70     = 178,
  51:lvgl/src/draw/sw/../../misc/lv_color.h ****     LV_OPA_80     = 204,
  52:lvgl/src/draw/sw/../../misc/lv_color.h ****     LV_OPA_90     = 229,
  53:lvgl/src/draw/sw/../../misc/lv_color.h ****     LV_OPA_100    = 255,
  54:lvgl/src/draw/sw/../../misc/lv_color.h ****     LV_OPA_COVER  = 255,
  55:lvgl/src/draw/sw/../../misc/lv_color.h **** };
  56:lvgl/src/draw/sw/../../misc/lv_color.h **** 
  57:lvgl/src/draw/sw/../../misc/lv_color.h **** #define LV_OPA_MIN 2    /*Opacities below this will be transparent*/
  58:lvgl/src/draw/sw/../../misc/lv_color.h **** #define LV_OPA_MAX 253  /*Opacities above this will fully cover*/
  59:lvgl/src/draw/sw/../../misc/lv_color.h **** 
  60:lvgl/src/draw/sw/../../misc/lv_color.h **** #if LV_COLOR_DEPTH == 1
  61:lvgl/src/draw/sw/../../misc/lv_color.h **** #define LV_COLOR_SIZE 8
  62:lvgl/src/draw/sw/../../misc/lv_color.h **** #elif LV_COLOR_DEPTH == 8
  63:lvgl/src/draw/sw/../../misc/lv_color.h **** #define LV_COLOR_SIZE 8
  64:lvgl/src/draw/sw/../../misc/lv_color.h **** #elif LV_COLOR_DEPTH == 16
  65:lvgl/src/draw/sw/../../misc/lv_color.h **** #define LV_COLOR_SIZE 16
  66:lvgl/src/draw/sw/../../misc/lv_color.h **** #elif LV_COLOR_DEPTH == 32
  67:lvgl/src/draw/sw/../../misc/lv_color.h **** #define LV_COLOR_SIZE 32
  68:lvgl/src/draw/sw/../../misc/lv_color.h **** #else
  69:lvgl/src/draw/sw/../../misc/lv_color.h **** #error "Invalid LV_COLOR_DEPTH in lv_conf.h! Set it to 1, 8, 16 or 32!"
  70:lvgl/src/draw/sw/../../misc/lv_color.h **** #endif
  71:lvgl/src/draw/sw/../../misc/lv_color.h **** 
  72:lvgl/src/draw/sw/../../misc/lv_color.h **** #if defined(__cplusplus) && !defined(_LV_COLOR_HAS_MODERN_CPP)
  73:lvgl/src/draw/sw/../../misc/lv_color.h **** /**
  74:lvgl/src/draw/sw/../../misc/lv_color.h **** * MSVC compiler's definition of the __cplusplus indicating 199711L regardless to C++ standard versi
  75:lvgl/src/draw/sw/../../misc/lv_color.h **** * see https://devblogs.microsoft.com/cppblog/msvc-now-correctly-reports-cplusplus
  76:lvgl/src/draw/sw/../../misc/lv_color.h **** * so we use _MSC_VER macro instead of __cplusplus
  77:lvgl/src/draw/sw/../../misc/lv_color.h **** */
  78:lvgl/src/draw/sw/../../misc/lv_color.h **** #ifdef _MSC_VER
  79:lvgl/src/draw/sw/../../misc/lv_color.h **** #if _MSC_VER >= 1900 /*Visual Studio 2015*/
  80:lvgl/src/draw/sw/../../misc/lv_color.h **** #define _LV_COLOR_HAS_MODERN_CPP 1
  81:lvgl/src/draw/sw/../../misc/lv_color.h **** #endif
  82:lvgl/src/draw/sw/../../misc/lv_color.h **** #else
  83:lvgl/src/draw/sw/../../misc/lv_color.h **** #if __cplusplus >= 201103L
  84:lvgl/src/draw/sw/../../misc/lv_color.h **** #define _LV_COLOR_HAS_MODERN_CPP 1
  85:lvgl/src/draw/sw/../../misc/lv_color.h **** #endif
  86:lvgl/src/draw/sw/../../misc/lv_color.h **** #endif
ARM GAS  /var/folders/21/t9g5rlb91ys800n5npymflf80000gn/T//ccApAxk1.s 			page 3


  87:lvgl/src/draw/sw/../../misc/lv_color.h **** #endif /*__cplusplus*/
  88:lvgl/src/draw/sw/../../misc/lv_color.h **** 
  89:lvgl/src/draw/sw/../../misc/lv_color.h **** #ifndef _LV_COLOR_HAS_MODERN_CPP
  90:lvgl/src/draw/sw/../../misc/lv_color.h **** #define _LV_COLOR_HAS_MODERN_CPP 0
  91:lvgl/src/draw/sw/../../misc/lv_color.h **** #endif
  92:lvgl/src/draw/sw/../../misc/lv_color.h **** 
  93:lvgl/src/draw/sw/../../misc/lv_color.h **** #if _LV_COLOR_HAS_MODERN_CPP
  94:lvgl/src/draw/sw/../../misc/lv_color.h **** /*Fix msvc compiler error C4576 inside C++ code*/
  95:lvgl/src/draw/sw/../../misc/lv_color.h **** #define _LV_COLOR_MAKE_TYPE_HELPER lv_color_t
  96:lvgl/src/draw/sw/../../misc/lv_color.h **** #else
  97:lvgl/src/draw/sw/../../misc/lv_color.h **** #define _LV_COLOR_MAKE_TYPE_HELPER (lv_color_t)
  98:lvgl/src/draw/sw/../../misc/lv_color.h **** #endif
  99:lvgl/src/draw/sw/../../misc/lv_color.h **** 
 100:lvgl/src/draw/sw/../../misc/lv_color.h **** /*---------------------------------------
 101:lvgl/src/draw/sw/../../misc/lv_color.h ****  * Macros for all existing color depths
 102:lvgl/src/draw/sw/../../misc/lv_color.h ****  * to set/get values of the color channels
 103:lvgl/src/draw/sw/../../misc/lv_color.h ****  *------------------------------------------*/
 104:lvgl/src/draw/sw/../../misc/lv_color.h **** # define LV_COLOR_SET_R1(c, v) (c).ch.red = (uint8_t)((v) & 0x1)
 105:lvgl/src/draw/sw/../../misc/lv_color.h **** # define LV_COLOR_SET_G1(c, v) (c).ch.green = (uint8_t)((v) & 0x1)
 106:lvgl/src/draw/sw/../../misc/lv_color.h **** # define LV_COLOR_SET_B1(c, v) (c).ch.blue = (uint8_t)((v) & 0x1)
 107:lvgl/src/draw/sw/../../misc/lv_color.h **** # define LV_COLOR_SET_A1(c, v) do {} while(0)
 108:lvgl/src/draw/sw/../../misc/lv_color.h **** 
 109:lvgl/src/draw/sw/../../misc/lv_color.h **** # define LV_COLOR_GET_R1(c) (c).ch.red
 110:lvgl/src/draw/sw/../../misc/lv_color.h **** # define LV_COLOR_GET_G1(c) (c).ch.green
 111:lvgl/src/draw/sw/../../misc/lv_color.h **** # define LV_COLOR_GET_B1(c) (c).ch.blue
 112:lvgl/src/draw/sw/../../misc/lv_color.h **** # define LV_COLOR_GET_A1(c) 0xFF
 113:lvgl/src/draw/sw/../../misc/lv_color.h **** 
 114:lvgl/src/draw/sw/../../misc/lv_color.h **** # define _LV_COLOR_ZERO_INITIALIZER1 {0x00}
 115:lvgl/src/draw/sw/../../misc/lv_color.h **** # define LV_COLOR_MAKE1(r8, g8, b8)  {(uint8_t)((b8 >> 7) | (g8 >> 7) | (r8 >> 7))}
 116:lvgl/src/draw/sw/../../misc/lv_color.h **** 
 117:lvgl/src/draw/sw/../../misc/lv_color.h **** # define LV_COLOR_SET_R8(c, v) (c).ch.red = (uint8_t)((v) & 0x7U)
 118:lvgl/src/draw/sw/../../misc/lv_color.h **** # define LV_COLOR_SET_G8(c, v) (c).ch.green = (uint8_t)((v) & 0x7U)
 119:lvgl/src/draw/sw/../../misc/lv_color.h **** # define LV_COLOR_SET_B8(c, v) (c).ch.blue = (uint8_t)((v) & 0x3U)
 120:lvgl/src/draw/sw/../../misc/lv_color.h **** # define LV_COLOR_SET_A8(c, v) do {} while(0)
 121:lvgl/src/draw/sw/../../misc/lv_color.h **** 
 122:lvgl/src/draw/sw/../../misc/lv_color.h **** # define LV_COLOR_GET_R8(c) (c).ch.red
 123:lvgl/src/draw/sw/../../misc/lv_color.h **** # define LV_COLOR_GET_G8(c) (c).ch.green
 124:lvgl/src/draw/sw/../../misc/lv_color.h **** # define LV_COLOR_GET_B8(c) (c).ch.blue
 125:lvgl/src/draw/sw/../../misc/lv_color.h **** # define LV_COLOR_GET_A8(c) 0xFF
 126:lvgl/src/draw/sw/../../misc/lv_color.h **** 
 127:lvgl/src/draw/sw/../../misc/lv_color.h **** # define _LV_COLOR_ZERO_INITIALIZER8 {{0x00, 0x00, 0x00}}
 128:lvgl/src/draw/sw/../../misc/lv_color.h **** # define LV_COLOR_MAKE8(r8, g8, b8) {{(uint8_t)((b8 >> 6) & 0x3U), (uint8_t)((g8 >> 5) & 0x7U), (ui
 129:lvgl/src/draw/sw/../../misc/lv_color.h **** 
 130:lvgl/src/draw/sw/../../misc/lv_color.h **** # define LV_COLOR_SET_R16(c, v) (c).ch.red = (uint8_t)((v) & 0x1FU)
 131:lvgl/src/draw/sw/../../misc/lv_color.h **** #if LV_COLOR_16_SWAP == 0
 132:lvgl/src/draw/sw/../../misc/lv_color.h **** # define LV_COLOR_SET_G16(c, v) (c).ch.green = (uint8_t)((v) & 0x3FU)
 133:lvgl/src/draw/sw/../../misc/lv_color.h **** #else
 134:lvgl/src/draw/sw/../../misc/lv_color.h **** # define LV_COLOR_SET_G16(c, v) {(c).ch.green_h = (uint8_t)(((v) >> 3) & 0x7); (c).ch.green_l = (ui
 135:lvgl/src/draw/sw/../../misc/lv_color.h **** #endif
 136:lvgl/src/draw/sw/../../misc/lv_color.h **** # define LV_COLOR_SET_B16(c, v) (c).ch.blue = (uint8_t)((v) & 0x1FU)
 137:lvgl/src/draw/sw/../../misc/lv_color.h **** # define LV_COLOR_SET_A16(c, v) do {} while(0)
 138:lvgl/src/draw/sw/../../misc/lv_color.h **** 
 139:lvgl/src/draw/sw/../../misc/lv_color.h **** # define LV_COLOR_GET_R16(c) (c).ch.red
 140:lvgl/src/draw/sw/../../misc/lv_color.h **** #if LV_COLOR_16_SWAP == 0
 141:lvgl/src/draw/sw/../../misc/lv_color.h **** # define LV_COLOR_GET_G16(c) (c).ch.green
 142:lvgl/src/draw/sw/../../misc/lv_color.h **** #else
 143:lvgl/src/draw/sw/../../misc/lv_color.h **** # define LV_COLOR_GET_G16(c) (((c).ch.green_h << 3) + (c).ch.green_l)
ARM GAS  /var/folders/21/t9g5rlb91ys800n5npymflf80000gn/T//ccApAxk1.s 			page 4


 144:lvgl/src/draw/sw/../../misc/lv_color.h **** #endif
 145:lvgl/src/draw/sw/../../misc/lv_color.h **** # define LV_COLOR_GET_B16(c) (c).ch.blue
 146:lvgl/src/draw/sw/../../misc/lv_color.h **** # define LV_COLOR_GET_A16(c) 0xFF
 147:lvgl/src/draw/sw/../../misc/lv_color.h **** 
 148:lvgl/src/draw/sw/../../misc/lv_color.h **** #if LV_COLOR_16_SWAP == 0
 149:lvgl/src/draw/sw/../../misc/lv_color.h **** # define _LV_COLOR_ZERO_INITIALIZER16  {{0x00, 0x00, 0x00}}
 150:lvgl/src/draw/sw/../../misc/lv_color.h **** # define LV_COLOR_MAKE16(r8, g8, b8) {{(uint8_t)((b8 >> 3) & 0x1FU), (uint8_t)((g8 >> 2) & 0x3FU), 
 151:lvgl/src/draw/sw/../../misc/lv_color.h **** #else
 152:lvgl/src/draw/sw/../../misc/lv_color.h **** # define _LV_COLOR_ZERO_INITIALIZER16 {{0x00, 0x00, 0x00, 0x00}}
 153:lvgl/src/draw/sw/../../misc/lv_color.h **** # define LV_COLOR_MAKE16(r8, g8, b8) {{(uint8_t)((g8 >> 5) & 0x7U), (uint8_t)((r8 >> 3) & 0x1FU), (
 154:lvgl/src/draw/sw/../../misc/lv_color.h **** #endif
 155:lvgl/src/draw/sw/../../misc/lv_color.h **** 
 156:lvgl/src/draw/sw/../../misc/lv_color.h **** # define LV_COLOR_SET_R32(c, v) (c).ch.red = (uint8_t)((v) & 0xFF)
 157:lvgl/src/draw/sw/../../misc/lv_color.h **** # define LV_COLOR_SET_G32(c, v) (c).ch.green = (uint8_t)((v) & 0xFF)
 158:lvgl/src/draw/sw/../../misc/lv_color.h **** # define LV_COLOR_SET_B32(c, v) (c).ch.blue = (uint8_t)((v) & 0xFF)
 159:lvgl/src/draw/sw/../../misc/lv_color.h **** # define LV_COLOR_SET_A32(c, v) (c).ch.alpha = (uint8_t)((v) & 0xFF)
 160:lvgl/src/draw/sw/../../misc/lv_color.h **** 
 161:lvgl/src/draw/sw/../../misc/lv_color.h **** # define LV_COLOR_GET_R32(c) (c).ch.red
 162:lvgl/src/draw/sw/../../misc/lv_color.h **** # define LV_COLOR_GET_G32(c) (c).ch.green
 163:lvgl/src/draw/sw/../../misc/lv_color.h **** # define LV_COLOR_GET_B32(c) (c).ch.blue
 164:lvgl/src/draw/sw/../../misc/lv_color.h **** # define LV_COLOR_GET_A32(c) (c).ch.alpha
 165:lvgl/src/draw/sw/../../misc/lv_color.h **** 
 166:lvgl/src/draw/sw/../../misc/lv_color.h **** # define _LV_COLOR_ZERO_INITIALIZER32  {{0x00, 0x00, 0x00, 0x00}}
 167:lvgl/src/draw/sw/../../misc/lv_color.h **** # define LV_COLOR_MAKE32(r8, g8, b8) {{b8, g8, r8, 0xff}} /*Fix 0xff alpha*/
 168:lvgl/src/draw/sw/../../misc/lv_color.h **** 
 169:lvgl/src/draw/sw/../../misc/lv_color.h **** /*---------------------------------------
 170:lvgl/src/draw/sw/../../misc/lv_color.h ****  * Macros for the current color depth
 171:lvgl/src/draw/sw/../../misc/lv_color.h ****  * to set/get values of the color channels
 172:lvgl/src/draw/sw/../../misc/lv_color.h ****  *------------------------------------------*/
 173:lvgl/src/draw/sw/../../misc/lv_color.h **** #define LV_COLOR_SET_R(c, v) LV_CONCAT(LV_COLOR_SET_R, LV_COLOR_DEPTH)(c, v)
 174:lvgl/src/draw/sw/../../misc/lv_color.h **** #define LV_COLOR_SET_G(c, v) LV_CONCAT(LV_COLOR_SET_G, LV_COLOR_DEPTH)(c, v)
 175:lvgl/src/draw/sw/../../misc/lv_color.h **** #define LV_COLOR_SET_B(c, v) LV_CONCAT(LV_COLOR_SET_B, LV_COLOR_DEPTH)(c, v)
 176:lvgl/src/draw/sw/../../misc/lv_color.h **** #define LV_COLOR_SET_A(c, v) LV_CONCAT(LV_COLOR_SET_A, LV_COLOR_DEPTH)(c, v)
 177:lvgl/src/draw/sw/../../misc/lv_color.h **** 
 178:lvgl/src/draw/sw/../../misc/lv_color.h **** #define LV_COLOR_GET_R(c) LV_CONCAT(LV_COLOR_GET_R, LV_COLOR_DEPTH)(c)
 179:lvgl/src/draw/sw/../../misc/lv_color.h **** #define LV_COLOR_GET_G(c) LV_CONCAT(LV_COLOR_GET_G, LV_COLOR_DEPTH)(c)
 180:lvgl/src/draw/sw/../../misc/lv_color.h **** #define LV_COLOR_GET_B(c) LV_CONCAT(LV_COLOR_GET_B, LV_COLOR_DEPTH)(c)
 181:lvgl/src/draw/sw/../../misc/lv_color.h **** #define LV_COLOR_GET_A(c) LV_CONCAT(LV_COLOR_GET_A, LV_COLOR_DEPTH)(c)
 182:lvgl/src/draw/sw/../../misc/lv_color.h **** 
 183:lvgl/src/draw/sw/../../misc/lv_color.h **** #define _LV_COLOR_ZERO_INITIALIZER LV_CONCAT(_LV_COLOR_ZERO_INITIALIZER, LV_COLOR_DEPTH)
 184:lvgl/src/draw/sw/../../misc/lv_color.h **** #define LV_COLOR_MAKE(r8, g8, b8) LV_CONCAT(LV_COLOR_MAKE, LV_COLOR_DEPTH)(r8, g8, b8)
 185:lvgl/src/draw/sw/../../misc/lv_color.h **** 
 186:lvgl/src/draw/sw/../../misc/lv_color.h **** /**********************
 187:lvgl/src/draw/sw/../../misc/lv_color.h ****  *      TYPEDEFS
 188:lvgl/src/draw/sw/../../misc/lv_color.h ****  **********************/
 189:lvgl/src/draw/sw/../../misc/lv_color.h **** 
 190:lvgl/src/draw/sw/../../misc/lv_color.h **** typedef union {
 191:lvgl/src/draw/sw/../../misc/lv_color.h ****     uint8_t full; /*must be declared first to set all bits of byte via initializer list*/
 192:lvgl/src/draw/sw/../../misc/lv_color.h ****     union {
 193:lvgl/src/draw/sw/../../misc/lv_color.h ****         uint8_t blue : 1;
 194:lvgl/src/draw/sw/../../misc/lv_color.h ****         uint8_t green : 1;
 195:lvgl/src/draw/sw/../../misc/lv_color.h ****         uint8_t red : 1;
 196:lvgl/src/draw/sw/../../misc/lv_color.h ****     } ch;
 197:lvgl/src/draw/sw/../../misc/lv_color.h **** } lv_color1_t;
 198:lvgl/src/draw/sw/../../misc/lv_color.h **** 
 199:lvgl/src/draw/sw/../../misc/lv_color.h **** typedef union {
 200:lvgl/src/draw/sw/../../misc/lv_color.h ****     struct {
ARM GAS  /var/folders/21/t9g5rlb91ys800n5npymflf80000gn/T//ccApAxk1.s 			page 5


 201:lvgl/src/draw/sw/../../misc/lv_color.h ****         uint8_t blue : 2;
 202:lvgl/src/draw/sw/../../misc/lv_color.h ****         uint8_t green : 3;
 203:lvgl/src/draw/sw/../../misc/lv_color.h ****         uint8_t red : 3;
 204:lvgl/src/draw/sw/../../misc/lv_color.h ****     } ch;
 205:lvgl/src/draw/sw/../../misc/lv_color.h ****     uint8_t full;
 206:lvgl/src/draw/sw/../../misc/lv_color.h **** } lv_color8_t;
 207:lvgl/src/draw/sw/../../misc/lv_color.h **** 
 208:lvgl/src/draw/sw/../../misc/lv_color.h **** typedef union {
 209:lvgl/src/draw/sw/../../misc/lv_color.h ****     struct {
 210:lvgl/src/draw/sw/../../misc/lv_color.h **** #if LV_COLOR_16_SWAP == 0
 211:lvgl/src/draw/sw/../../misc/lv_color.h ****         uint16_t blue : 5;
 212:lvgl/src/draw/sw/../../misc/lv_color.h ****         uint16_t green : 6;
 213:lvgl/src/draw/sw/../../misc/lv_color.h ****         uint16_t red : 5;
 214:lvgl/src/draw/sw/../../misc/lv_color.h **** #else
 215:lvgl/src/draw/sw/../../misc/lv_color.h ****         uint16_t green_h : 3;
 216:lvgl/src/draw/sw/../../misc/lv_color.h ****         uint16_t red : 5;
 217:lvgl/src/draw/sw/../../misc/lv_color.h ****         uint16_t blue : 5;
 218:lvgl/src/draw/sw/../../misc/lv_color.h ****         uint16_t green_l : 3;
 219:lvgl/src/draw/sw/../../misc/lv_color.h **** #endif
 220:lvgl/src/draw/sw/../../misc/lv_color.h ****     } ch;
 221:lvgl/src/draw/sw/../../misc/lv_color.h ****     uint16_t full;
 222:lvgl/src/draw/sw/../../misc/lv_color.h **** } lv_color16_t;
 223:lvgl/src/draw/sw/../../misc/lv_color.h **** 
 224:lvgl/src/draw/sw/../../misc/lv_color.h **** typedef union {
 225:lvgl/src/draw/sw/../../misc/lv_color.h ****     struct {
 226:lvgl/src/draw/sw/../../misc/lv_color.h ****         uint8_t blue;
 227:lvgl/src/draw/sw/../../misc/lv_color.h ****         uint8_t green;
 228:lvgl/src/draw/sw/../../misc/lv_color.h ****         uint8_t red;
 229:lvgl/src/draw/sw/../../misc/lv_color.h ****         uint8_t alpha;
 230:lvgl/src/draw/sw/../../misc/lv_color.h ****     } ch;
 231:lvgl/src/draw/sw/../../misc/lv_color.h ****     uint32_t full;
 232:lvgl/src/draw/sw/../../misc/lv_color.h **** } lv_color32_t;
 233:lvgl/src/draw/sw/../../misc/lv_color.h **** 
 234:lvgl/src/draw/sw/../../misc/lv_color.h **** typedef LV_CONCAT3(uint, LV_COLOR_SIZE, _t) lv_color_int_t;
 235:lvgl/src/draw/sw/../../misc/lv_color.h **** typedef LV_CONCAT3(lv_color, LV_COLOR_DEPTH, _t) lv_color_t;
 236:lvgl/src/draw/sw/../../misc/lv_color.h **** 
 237:lvgl/src/draw/sw/../../misc/lv_color.h **** typedef struct {
 238:lvgl/src/draw/sw/../../misc/lv_color.h ****     uint16_t h;
 239:lvgl/src/draw/sw/../../misc/lv_color.h ****     uint8_t s;
 240:lvgl/src/draw/sw/../../misc/lv_color.h ****     uint8_t v;
 241:lvgl/src/draw/sw/../../misc/lv_color.h **** } lv_color_hsv_t;
 242:lvgl/src/draw/sw/../../misc/lv_color.h **** 
 243:lvgl/src/draw/sw/../../misc/lv_color.h **** //! @cond Doxygen_Suppress
 244:lvgl/src/draw/sw/../../misc/lv_color.h **** /*No idea where the guard is required but else throws warnings in the docs*/
 245:lvgl/src/draw/sw/../../misc/lv_color.h **** typedef uint8_t lv_opa_t;
 246:lvgl/src/draw/sw/../../misc/lv_color.h **** //! @endcond
 247:lvgl/src/draw/sw/../../misc/lv_color.h **** 
 248:lvgl/src/draw/sw/../../misc/lv_color.h **** struct _lv_color_filter_dsc_t;
 249:lvgl/src/draw/sw/../../misc/lv_color.h **** 
 250:lvgl/src/draw/sw/../../misc/lv_color.h **** typedef lv_color_t (*lv_color_filter_cb_t)(const struct _lv_color_filter_dsc_t *, lv_color_t, lv_op
 251:lvgl/src/draw/sw/../../misc/lv_color.h **** 
 252:lvgl/src/draw/sw/../../misc/lv_color.h **** typedef struct _lv_color_filter_dsc_t {
 253:lvgl/src/draw/sw/../../misc/lv_color.h ****     lv_color_filter_cb_t filter_cb;
 254:lvgl/src/draw/sw/../../misc/lv_color.h ****     void * user_data;
 255:lvgl/src/draw/sw/../../misc/lv_color.h **** } lv_color_filter_dsc_t;
 256:lvgl/src/draw/sw/../../misc/lv_color.h **** 
 257:lvgl/src/draw/sw/../../misc/lv_color.h **** typedef enum {
ARM GAS  /var/folders/21/t9g5rlb91ys800n5npymflf80000gn/T//ccApAxk1.s 			page 6


 258:lvgl/src/draw/sw/../../misc/lv_color.h ****     LV_PALETTE_RED,
 259:lvgl/src/draw/sw/../../misc/lv_color.h ****     LV_PALETTE_PINK,
 260:lvgl/src/draw/sw/../../misc/lv_color.h ****     LV_PALETTE_PURPLE,
 261:lvgl/src/draw/sw/../../misc/lv_color.h ****     LV_PALETTE_DEEP_PURPLE,
 262:lvgl/src/draw/sw/../../misc/lv_color.h ****     LV_PALETTE_INDIGO,
 263:lvgl/src/draw/sw/../../misc/lv_color.h ****     LV_PALETTE_BLUE,
 264:lvgl/src/draw/sw/../../misc/lv_color.h ****     LV_PALETTE_LIGHT_BLUE,
 265:lvgl/src/draw/sw/../../misc/lv_color.h ****     LV_PALETTE_CYAN,
 266:lvgl/src/draw/sw/../../misc/lv_color.h ****     LV_PALETTE_TEAL,
 267:lvgl/src/draw/sw/../../misc/lv_color.h ****     LV_PALETTE_GREEN,
 268:lvgl/src/draw/sw/../../misc/lv_color.h ****     LV_PALETTE_LIGHT_GREEN,
 269:lvgl/src/draw/sw/../../misc/lv_color.h ****     LV_PALETTE_LIME,
 270:lvgl/src/draw/sw/../../misc/lv_color.h ****     LV_PALETTE_YELLOW,
 271:lvgl/src/draw/sw/../../misc/lv_color.h ****     LV_PALETTE_AMBER,
 272:lvgl/src/draw/sw/../../misc/lv_color.h ****     LV_PALETTE_ORANGE,
 273:lvgl/src/draw/sw/../../misc/lv_color.h ****     LV_PALETTE_DEEP_ORANGE,
 274:lvgl/src/draw/sw/../../misc/lv_color.h ****     LV_PALETTE_BROWN,
 275:lvgl/src/draw/sw/../../misc/lv_color.h ****     LV_PALETTE_BLUE_GREY,
 276:lvgl/src/draw/sw/../../misc/lv_color.h ****     LV_PALETTE_GREY,
 277:lvgl/src/draw/sw/../../misc/lv_color.h ****     _LV_PALETTE_LAST,
 278:lvgl/src/draw/sw/../../misc/lv_color.h ****     LV_PALETTE_NONE = 0xff,
 279:lvgl/src/draw/sw/../../misc/lv_color.h **** } lv_palette_t;
 280:lvgl/src/draw/sw/../../misc/lv_color.h **** 
 281:lvgl/src/draw/sw/../../misc/lv_color.h **** /**********************
 282:lvgl/src/draw/sw/../../misc/lv_color.h ****  * GLOBAL PROTOTYPES
 283:lvgl/src/draw/sw/../../misc/lv_color.h ****  **********************/
 284:lvgl/src/draw/sw/../../misc/lv_color.h **** 
 285:lvgl/src/draw/sw/../../misc/lv_color.h **** /*In color conversations:
 286:lvgl/src/draw/sw/../../misc/lv_color.h ****  * - When converting to bigger color type the LSB weight of 1 LSB is calculated
 287:lvgl/src/draw/sw/../../misc/lv_color.h ****  *   E.g. 16 bit Red has 5 bits
 288:lvgl/src/draw/sw/../../misc/lv_color.h ****  *         8 bit Red has 3 bits
 289:lvgl/src/draw/sw/../../misc/lv_color.h ****  *        ----------------------
 290:lvgl/src/draw/sw/../../misc/lv_color.h ****  *        8 bit red LSB = (2^5 - 1) / (2^3 - 1) = 31 / 7 = 4
 291:lvgl/src/draw/sw/../../misc/lv_color.h ****  *
 292:lvgl/src/draw/sw/../../misc/lv_color.h ****  * - When calculating to smaller color type simply shift out the LSBs
 293:lvgl/src/draw/sw/../../misc/lv_color.h ****  *   E.g.  8 bit Red has 3 bits
 294:lvgl/src/draw/sw/../../misc/lv_color.h ****  *        16 bit Red has 5 bits
 295:lvgl/src/draw/sw/../../misc/lv_color.h ****  *        ----------------------
 296:lvgl/src/draw/sw/../../misc/lv_color.h ****  *         Shift right with 5 - 3 = 2
 297:lvgl/src/draw/sw/../../misc/lv_color.h ****  */
 298:lvgl/src/draw/sw/../../misc/lv_color.h **** static inline uint8_t lv_color_to1(lv_color_t color)
 299:lvgl/src/draw/sw/../../misc/lv_color.h **** {
 300:lvgl/src/draw/sw/../../misc/lv_color.h **** #if LV_COLOR_DEPTH == 1
 301:lvgl/src/draw/sw/../../misc/lv_color.h ****     return color.full;
 302:lvgl/src/draw/sw/../../misc/lv_color.h **** #elif LV_COLOR_DEPTH == 8
 303:lvgl/src/draw/sw/../../misc/lv_color.h ****     if((LV_COLOR_GET_R(color) & 0x4) || (LV_COLOR_GET_G(color) & 0x4) || (LV_COLOR_GET_B(color) & 0
 304:lvgl/src/draw/sw/../../misc/lv_color.h ****         return 1;
 305:lvgl/src/draw/sw/../../misc/lv_color.h ****     }
 306:lvgl/src/draw/sw/../../misc/lv_color.h ****     else {
 307:lvgl/src/draw/sw/../../misc/lv_color.h ****         return 0;
 308:lvgl/src/draw/sw/../../misc/lv_color.h ****     }
 309:lvgl/src/draw/sw/../../misc/lv_color.h **** #elif LV_COLOR_DEPTH == 16
 310:lvgl/src/draw/sw/../../misc/lv_color.h ****     if((LV_COLOR_GET_R(color) & 0x10) || (LV_COLOR_GET_G(color) & 0x20) || (LV_COLOR_GET_B(color) &
 311:lvgl/src/draw/sw/../../misc/lv_color.h ****         return 1;
 312:lvgl/src/draw/sw/../../misc/lv_color.h ****     }
 313:lvgl/src/draw/sw/../../misc/lv_color.h ****     else {
 314:lvgl/src/draw/sw/../../misc/lv_color.h ****         return 0;
ARM GAS  /var/folders/21/t9g5rlb91ys800n5npymflf80000gn/T//ccApAxk1.s 			page 7


 315:lvgl/src/draw/sw/../../misc/lv_color.h ****     }
 316:lvgl/src/draw/sw/../../misc/lv_color.h **** #elif LV_COLOR_DEPTH == 32
 317:lvgl/src/draw/sw/../../misc/lv_color.h ****     if((LV_COLOR_GET_R(color) & 0x80) || (LV_COLOR_GET_G(color) & 0x80) || (LV_COLOR_GET_B(color) &
 318:lvgl/src/draw/sw/../../misc/lv_color.h ****         return 1;
 319:lvgl/src/draw/sw/../../misc/lv_color.h ****     }
 320:lvgl/src/draw/sw/../../misc/lv_color.h ****     else {
 321:lvgl/src/draw/sw/../../misc/lv_color.h ****         return 0;
 322:lvgl/src/draw/sw/../../misc/lv_color.h ****     }
 323:lvgl/src/draw/sw/../../misc/lv_color.h **** #endif
 324:lvgl/src/draw/sw/../../misc/lv_color.h **** }
 325:lvgl/src/draw/sw/../../misc/lv_color.h **** 
 326:lvgl/src/draw/sw/../../misc/lv_color.h **** static inline uint8_t lv_color_to8(lv_color_t color)
 327:lvgl/src/draw/sw/../../misc/lv_color.h **** {
 328:lvgl/src/draw/sw/../../misc/lv_color.h **** #if LV_COLOR_DEPTH == 1
 329:lvgl/src/draw/sw/../../misc/lv_color.h ****     if(color.full == 0)
 330:lvgl/src/draw/sw/../../misc/lv_color.h ****         return 0;
 331:lvgl/src/draw/sw/../../misc/lv_color.h ****     else
 332:lvgl/src/draw/sw/../../misc/lv_color.h ****         return 0xFF;
 333:lvgl/src/draw/sw/../../misc/lv_color.h **** #elif LV_COLOR_DEPTH == 8
 334:lvgl/src/draw/sw/../../misc/lv_color.h ****     return color.full;
 335:lvgl/src/draw/sw/../../misc/lv_color.h **** #elif LV_COLOR_DEPTH == 16
 336:lvgl/src/draw/sw/../../misc/lv_color.h ****     lv_color8_t ret;
 337:lvgl/src/draw/sw/../../misc/lv_color.h ****     LV_COLOR_SET_R8(ret, LV_COLOR_GET_R(color) >> 2); /*5 - 3  = 2*/
 338:lvgl/src/draw/sw/../../misc/lv_color.h ****     LV_COLOR_SET_G8(ret, LV_COLOR_GET_G(color) >> 3); /*6 - 3  = 3*/
 339:lvgl/src/draw/sw/../../misc/lv_color.h ****     LV_COLOR_SET_B8(ret, LV_COLOR_GET_B(color) >> 3); /*5 - 2  = 3*/
 340:lvgl/src/draw/sw/../../misc/lv_color.h ****     return ret.full;
 341:lvgl/src/draw/sw/../../misc/lv_color.h **** #elif LV_COLOR_DEPTH == 32
 342:lvgl/src/draw/sw/../../misc/lv_color.h ****     lv_color8_t ret;
 343:lvgl/src/draw/sw/../../misc/lv_color.h ****     LV_COLOR_SET_R8(ret, LV_COLOR_GET_R(color) >> 5); /*8 - 3  = 5*/
 344:lvgl/src/draw/sw/../../misc/lv_color.h ****     LV_COLOR_SET_G8(ret, LV_COLOR_GET_G(color) >> 5); /*8 - 3  = 5*/
 345:lvgl/src/draw/sw/../../misc/lv_color.h ****     LV_COLOR_SET_B8(ret, LV_COLOR_GET_B(color) >> 6); /*8 - 2  = 6*/
 346:lvgl/src/draw/sw/../../misc/lv_color.h ****     return ret.full;
 347:lvgl/src/draw/sw/../../misc/lv_color.h **** #endif
 348:lvgl/src/draw/sw/../../misc/lv_color.h **** }
 349:lvgl/src/draw/sw/../../misc/lv_color.h **** 
 350:lvgl/src/draw/sw/../../misc/lv_color.h **** static inline uint16_t lv_color_to16(lv_color_t color)
 351:lvgl/src/draw/sw/../../misc/lv_color.h **** {
 352:lvgl/src/draw/sw/../../misc/lv_color.h **** #if LV_COLOR_DEPTH == 1
 353:lvgl/src/draw/sw/../../misc/lv_color.h ****     if(color.full == 0)
 354:lvgl/src/draw/sw/../../misc/lv_color.h ****         return 0;
 355:lvgl/src/draw/sw/../../misc/lv_color.h ****     else
 356:lvgl/src/draw/sw/../../misc/lv_color.h ****         return 0xFFFF;
 357:lvgl/src/draw/sw/../../misc/lv_color.h **** #elif LV_COLOR_DEPTH == 8
 358:lvgl/src/draw/sw/../../misc/lv_color.h ****     lv_color16_t ret;
 359:lvgl/src/draw/sw/../../misc/lv_color.h ****     LV_COLOR_SET_R16(ret, LV_COLOR_GET_R(color) * 4);  /*(2^5 - 1)/(2^3 - 1) = 31/7 = 4*/
 360:lvgl/src/draw/sw/../../misc/lv_color.h ****     LV_COLOR_SET_G16(ret, LV_COLOR_GET_G(color) * 9);  /*(2^6 - 1)/(2^3 - 1) = 63/7 = 9*/
 361:lvgl/src/draw/sw/../../misc/lv_color.h ****     LV_COLOR_SET_B16(ret, LV_COLOR_GET_B(color) * 10); /*(2^5 - 1)/(2^2 - 1) = 31/3 = 10*/
 362:lvgl/src/draw/sw/../../misc/lv_color.h ****     return ret.full;
 363:lvgl/src/draw/sw/../../misc/lv_color.h **** #elif LV_COLOR_DEPTH == 16
 364:lvgl/src/draw/sw/../../misc/lv_color.h ****     return color.full;
 365:lvgl/src/draw/sw/../../misc/lv_color.h **** #elif LV_COLOR_DEPTH == 32
 366:lvgl/src/draw/sw/../../misc/lv_color.h ****     lv_color16_t ret;
 367:lvgl/src/draw/sw/../../misc/lv_color.h ****     LV_COLOR_SET_R16(ret, LV_COLOR_GET_R(color) >> 3); /*8 - 5  = 3*/
 368:lvgl/src/draw/sw/../../misc/lv_color.h ****     LV_COLOR_SET_G16(ret, LV_COLOR_GET_G(color) >> 2); /*8 - 6  = 2*/
 369:lvgl/src/draw/sw/../../misc/lv_color.h ****     LV_COLOR_SET_B16(ret, LV_COLOR_GET_B(color) >> 3); /*8 - 5  = 3*/
 370:lvgl/src/draw/sw/../../misc/lv_color.h ****     return ret.full;
 371:lvgl/src/draw/sw/../../misc/lv_color.h **** #endif
ARM GAS  /var/folders/21/t9g5rlb91ys800n5npymflf80000gn/T//ccApAxk1.s 			page 8


 372:lvgl/src/draw/sw/../../misc/lv_color.h **** }
 373:lvgl/src/draw/sw/../../misc/lv_color.h **** 
 374:lvgl/src/draw/sw/../../misc/lv_color.h **** static inline uint32_t lv_color_to32(lv_color_t color)
 375:lvgl/src/draw/sw/../../misc/lv_color.h **** {
 376:lvgl/src/draw/sw/../../misc/lv_color.h **** #if LV_COLOR_DEPTH == 1
 377:lvgl/src/draw/sw/../../misc/lv_color.h ****     if(color.full == 0)
 378:lvgl/src/draw/sw/../../misc/lv_color.h ****         return 0xFF000000;
 379:lvgl/src/draw/sw/../../misc/lv_color.h ****     else
 380:lvgl/src/draw/sw/../../misc/lv_color.h ****         return 0xFFFFFFFF;
 381:lvgl/src/draw/sw/../../misc/lv_color.h **** #elif LV_COLOR_DEPTH == 8
 382:lvgl/src/draw/sw/../../misc/lv_color.h ****     lv_color32_t ret;
 383:lvgl/src/draw/sw/../../misc/lv_color.h ****     LV_COLOR_SET_R32(ret, LV_COLOR_GET_R(color) * 36); /*(2^8 - 1)/(2^3 - 1) = 255/7 = 36*/
 384:lvgl/src/draw/sw/../../misc/lv_color.h ****     LV_COLOR_SET_G32(ret, LV_COLOR_GET_G(color) * 36); /*(2^8 - 1)/(2^3 - 1) = 255/7 = 36*/
 385:lvgl/src/draw/sw/../../misc/lv_color.h ****     LV_COLOR_SET_B32(ret, LV_COLOR_GET_B(color) * 85); /*(2^8 - 1)/(2^2 - 1) = 255/3 = 85*/
 386:lvgl/src/draw/sw/../../misc/lv_color.h ****     LV_COLOR_SET_A32(ret, 0xFF);
 387:lvgl/src/draw/sw/../../misc/lv_color.h ****     return ret.full;
 388:lvgl/src/draw/sw/../../misc/lv_color.h **** #elif LV_COLOR_DEPTH == 16
 389:lvgl/src/draw/sw/../../misc/lv_color.h ****     /**
 390:lvgl/src/draw/sw/../../misc/lv_color.h ****      * The floating point math for conversion is:
 391:lvgl/src/draw/sw/../../misc/lv_color.h ****      *  valueto = valuefrom * ( (2^bitsto - 1) / (float)(2^bitsfrom - 1) )
 392:lvgl/src/draw/sw/../../misc/lv_color.h ****      * The faster integer math for conversion is:
 393:lvgl/src/draw/sw/../../misc/lv_color.h ****      *  valueto = ( valuefrom * multiplier + adder ) >> divisor
 394:lvgl/src/draw/sw/../../misc/lv_color.h ****      *   multiplier = FLOOR( ( (2^bitsto - 1) << divisor ) / (float)(2^bitsfrom - 1) )
 395:lvgl/src/draw/sw/../../misc/lv_color.h ****      *
 396:lvgl/src/draw/sw/../../misc/lv_color.h ****      * Find the first divisor where ( adder >> divisor ) <= 0
 397:lvgl/src/draw/sw/../../misc/lv_color.h ****      *
 398:lvgl/src/draw/sw/../../misc/lv_color.h ****      * 5-bit to 8-bit: ( 31 * multiplier + adder ) >> divisor = 255
 399:lvgl/src/draw/sw/../../misc/lv_color.h ****      * divisor  multiplier  adder  min (0)  max (31)
 400:lvgl/src/draw/sw/../../misc/lv_color.h ****      *       0           8      7        7       255
 401:lvgl/src/draw/sw/../../misc/lv_color.h ****      *       1          16     14        7       255
 402:lvgl/src/draw/sw/../../misc/lv_color.h ****      *       2          32     28        7       255
 403:lvgl/src/draw/sw/../../misc/lv_color.h ****      *       3          65     25        3       255
 404:lvgl/src/draw/sw/../../misc/lv_color.h ****      *       4         131     19        1       255
 405:lvgl/src/draw/sw/../../misc/lv_color.h ****      *       5         263      7        0       255
 406:lvgl/src/draw/sw/../../misc/lv_color.h ****      *
 407:lvgl/src/draw/sw/../../misc/lv_color.h ****      * 6-bit to 8-bit: 255 = ( 63 * multiplier + adder ) >> divisor
 408:lvgl/src/draw/sw/../../misc/lv_color.h ****      * divisor  multiplier  adder  min (0)  max (63)
 409:lvgl/src/draw/sw/../../misc/lv_color.h ****      *       0           4      3        3       255
 410:lvgl/src/draw/sw/../../misc/lv_color.h ****      *       1           8      6        3       255
 411:lvgl/src/draw/sw/../../misc/lv_color.h ****      *       2          16     12        3       255
 412:lvgl/src/draw/sw/../../misc/lv_color.h ****      *       3          32     24        3       255
 413:lvgl/src/draw/sw/../../misc/lv_color.h ****      *       4          64     48        3       255
 414:lvgl/src/draw/sw/../../misc/lv_color.h ****      *       5         129     33        1       255
 415:lvgl/src/draw/sw/../../misc/lv_color.h ****      *       6         259      3        0       255
 416:lvgl/src/draw/sw/../../misc/lv_color.h ****      */
 417:lvgl/src/draw/sw/../../misc/lv_color.h **** 
 418:lvgl/src/draw/sw/../../misc/lv_color.h ****     lv_color32_t ret;
 419:lvgl/src/draw/sw/../../misc/lv_color.h ****     LV_COLOR_SET_R32(ret, (LV_COLOR_GET_R(color) * 263 + 7) >> 5);
 420:lvgl/src/draw/sw/../../misc/lv_color.h ****     LV_COLOR_SET_G32(ret, (LV_COLOR_GET_G(color) * 259 + 3) >> 6);
 421:lvgl/src/draw/sw/../../misc/lv_color.h ****     LV_COLOR_SET_B32(ret, (LV_COLOR_GET_B(color) * 263 + 7) >> 5);
 422:lvgl/src/draw/sw/../../misc/lv_color.h ****     LV_COLOR_SET_A32(ret, 0xFF);
 423:lvgl/src/draw/sw/../../misc/lv_color.h ****     return ret.full;
 424:lvgl/src/draw/sw/../../misc/lv_color.h **** #elif LV_COLOR_DEPTH == 32
 425:lvgl/src/draw/sw/../../misc/lv_color.h ****     return color.full;
 426:lvgl/src/draw/sw/../../misc/lv_color.h **** #endif
 427:lvgl/src/draw/sw/../../misc/lv_color.h **** }
 428:lvgl/src/draw/sw/../../misc/lv_color.h **** 
ARM GAS  /var/folders/21/t9g5rlb91ys800n5npymflf80000gn/T//ccApAxk1.s 			page 9


 429:lvgl/src/draw/sw/../../misc/lv_color.h **** //! @cond Doxygen_Suppress
 430:lvgl/src/draw/sw/../../misc/lv_color.h **** 
 431:lvgl/src/draw/sw/../../misc/lv_color.h **** /**
 432:lvgl/src/draw/sw/../../misc/lv_color.h ****  * Mix two colors with a given ratio.
 433:lvgl/src/draw/sw/../../misc/lv_color.h ****  * @param c1 the first color to mix (usually the foreground)
 434:lvgl/src/draw/sw/../../misc/lv_color.h ****  * @param c2 the second color to mix (usually the background)
 435:lvgl/src/draw/sw/../../misc/lv_color.h ****  * @param mix The ratio of the colors. 0: full `c2`, 255: full `c1`, 127: half `c1` and half`c2`
 436:lvgl/src/draw/sw/../../misc/lv_color.h ****  * @return the mixed color
 437:lvgl/src/draw/sw/../../misc/lv_color.h ****  */
 438:lvgl/src/draw/sw/../../misc/lv_color.h **** static inline lv_color_t LV_ATTRIBUTE_FAST_MEM lv_color_mix(lv_color_t c1, lv_color_t c2, uint8_t m
 439:lvgl/src/draw/sw/../../misc/lv_color.h **** {
  30              		.loc 2 439 1 view -0
  31              		.cfi_startproc
  32              		@ args = 0, pretend = 0, frame = 0
  33              		@ frame_needed = 0, uses_anonymous_args = 0
  34              		@ link register save eliminated.
 440:lvgl/src/draw/sw/../../misc/lv_color.h ****     lv_color_t ret;
  35              		.loc 2 440 5 view .LVU1
 441:lvgl/src/draw/sw/../../misc/lv_color.h **** 
 442:lvgl/src/draw/sw/../../misc/lv_color.h **** #if LV_COLOR_DEPTH == 16 && LV_COLOR_MIX_ROUND_OFS == 0
 443:lvgl/src/draw/sw/../../misc/lv_color.h **** #if LV_COLOR_16_SWAP == 1
 444:lvgl/src/draw/sw/../../misc/lv_color.h ****     c1.full = c1.full << 8 | c1.full >> 8;
 445:lvgl/src/draw/sw/../../misc/lv_color.h ****     c2.full = c2.full << 8 | c2.full >> 8;
 446:lvgl/src/draw/sw/../../misc/lv_color.h **** #endif
 447:lvgl/src/draw/sw/../../misc/lv_color.h ****     /*Source: https://stackoverflow.com/a/50012418/1999969*/
 448:lvgl/src/draw/sw/../../misc/lv_color.h ****     mix = (uint32_t)((uint32_t)mix + 4) >> 3;
  36              		.loc 2 448 5 view .LVU2
  37              		.loc 2 448 11 is_stmt 0 view .LVU3
  38 0000 0432     		adds	r2, r2, #4
  39              	.LVL1:
 449:lvgl/src/draw/sw/../../misc/lv_color.h ****     uint32_t bg = (uint32_t)((uint32_t)c2.full | ((uint32_t)c2.full << 16)) &
  40              		.loc 2 449 5 is_stmt 1 view .LVU4
  41              		.loc 2 449 19 is_stmt 0 view .LVU5
  42 0002 0B04     		lsls	r3, r1, #16
  43 0004 13FA81F1 		uxtah	r1, r3, r1
  44              	.LVL2:
  45              		.loc 2 449 14 view .LVU6
  46 0008 084B     		ldr	r3, .L2
  47 000a 1940     		ands	r1, r1, r3
  48              	.LVL3:
 450:lvgl/src/draw/sw/../../misc/lv_color.h ****                   0x7E0F81F; /*0b00000111111000001111100000011111*/
 451:lvgl/src/draw/sw/../../misc/lv_color.h ****     uint32_t fg = (uint32_t)((uint32_t)c1.full | ((uint32_t)c1.full << 16)) & 0x7E0F81F;
  49              		.loc 2 451 5 is_stmt 1 view .LVU7
  50              		.loc 2 451 19 is_stmt 0 view .LVU8
  51 000c 4FEA004C 		lsl	ip, r0, #16
  52 0010 1CFA80F0 		uxtah	r0, ip, r0
  53              	.LVL4:
  54              		.loc 2 451 14 view .LVU9
  55 0014 1840     		ands	r0, r0, r3
  56              	.LVL5:
 452:lvgl/src/draw/sw/../../misc/lv_color.h ****     uint32_t result = ((((fg - bg) * mix) >> 5) + bg) & 0x7E0F81F;
  57              		.loc 2 452 5 is_stmt 1 view .LVU10
  58              		.loc 2 452 30 is_stmt 0 view .LVU11
  59 0016 401A     		subs	r0, r0, r1
  60              	.LVL6:
  61              		.loc 2 452 36 view .LVU12
  62 0018 D208     		lsrs	r2, r2, #3
ARM GAS  /var/folders/21/t9g5rlb91ys800n5npymflf80000gn/T//ccApAxk1.s 			page 10


  63              	.LVL7:
  64              		.loc 2 452 36 view .LVU13
  65 001a 00FB02F2 		mul	r2, r0, r2
  66              		.loc 2 452 49 view .LVU14
  67 001e 01EB5211 		add	r1, r1, r2, lsr #5
  68              	.LVL8:
  69              		.loc 2 452 14 view .LVU15
  70 0022 01EA0300 		and	r0, r1, r3
  71              	.LVL9:
 453:lvgl/src/draw/sw/../../misc/lv_color.h ****     ret.full = (uint16_t)((result >> 16) | result);
  72              		.loc 2 453 5 is_stmt 1 view .LVU16
 454:lvgl/src/draw/sw/../../misc/lv_color.h **** #if LV_COLOR_16_SWAP == 1
 455:lvgl/src/draw/sw/../../misc/lv_color.h ****     ret.full = ret.full << 8 | ret.full >> 8;
 456:lvgl/src/draw/sw/../../misc/lv_color.h **** #endif
 457:lvgl/src/draw/sw/../../misc/lv_color.h **** #elif LV_COLOR_DEPTH != 1
 458:lvgl/src/draw/sw/../../misc/lv_color.h ****     /*LV_COLOR_DEPTH == 8, 16 or 32*/
 459:lvgl/src/draw/sw/../../misc/lv_color.h ****     LV_COLOR_SET_R(ret, LV_UDIV255((uint16_t)LV_COLOR_GET_R(c1) * mix + LV_COLOR_GET_R(c2) *
 460:lvgl/src/draw/sw/../../misc/lv_color.h ****                                    (255 - mix) + LV_COLOR_MIX_ROUND_OFS));
 461:lvgl/src/draw/sw/../../misc/lv_color.h ****     LV_COLOR_SET_G(ret, LV_UDIV255((uint16_t)LV_COLOR_GET_G(c1) * mix + LV_COLOR_GET_G(c2) *
 462:lvgl/src/draw/sw/../../misc/lv_color.h ****                                    (255 - mix) + LV_COLOR_MIX_ROUND_OFS));
 463:lvgl/src/draw/sw/../../misc/lv_color.h ****     LV_COLOR_SET_B(ret, LV_UDIV255((uint16_t)LV_COLOR_GET_B(c1) * mix + LV_COLOR_GET_B(c2) *
 464:lvgl/src/draw/sw/../../misc/lv_color.h ****                                    (255 - mix) + LV_COLOR_MIX_ROUND_OFS));
 465:lvgl/src/draw/sw/../../misc/lv_color.h ****     LV_COLOR_SET_A(ret, 0xFF);
 466:lvgl/src/draw/sw/../../misc/lv_color.h **** #else
 467:lvgl/src/draw/sw/../../misc/lv_color.h ****     /*LV_COLOR_DEPTH == 1*/
 468:lvgl/src/draw/sw/../../misc/lv_color.h ****     ret.full = mix > LV_OPA_50 ? c1.full : c2.full;
 469:lvgl/src/draw/sw/../../misc/lv_color.h **** #endif
 470:lvgl/src/draw/sw/../../misc/lv_color.h **** 
 471:lvgl/src/draw/sw/../../misc/lv_color.h ****     return ret;
  73              		.loc 2 471 5 view .LVU17
 472:lvgl/src/draw/sw/../../misc/lv_color.h **** }
  74              		.loc 2 472 1 is_stmt 0 view .LVU18
  75 0026 40EA1040 		orr	r0, r0, r0, lsr #16
  76              	.LVL10:
  77              		.loc 2 472 1 view .LVU19
  78 002a 7047     		bx	lr
  79              	.L3:
  80              		.align	2
  81              	.L2:
  82 002c 1FF8E007 		.word	132184095
  83              		.cfi_endproc
  84              	.LFE6:
  86              		.section	.text.argb_no_aa,"ax",%progbits
  87              		.align	1
  88              		.syntax unified
  89              		.thumb
  90              		.thumb_func
  92              	argb_no_aa:
  93              	.LVL11:
  94              	.LFB163:
   1:lvgl/src/draw/sw/lv_draw_sw_transform.c **** /**
   2:lvgl/src/draw/sw/lv_draw_sw_transform.c ****  * @file lv_draw_sw_tranform.c
   3:lvgl/src/draw/sw/lv_draw_sw_transform.c ****  *
   4:lvgl/src/draw/sw/lv_draw_sw_transform.c ****  */
   5:lvgl/src/draw/sw/lv_draw_sw_transform.c **** 
   6:lvgl/src/draw/sw/lv_draw_sw_transform.c **** /*********************
   7:lvgl/src/draw/sw/lv_draw_sw_transform.c ****  *      INCLUDES
ARM GAS  /var/folders/21/t9g5rlb91ys800n5npymflf80000gn/T//ccApAxk1.s 			page 11


   8:lvgl/src/draw/sw/lv_draw_sw_transform.c ****  *********************/
   9:lvgl/src/draw/sw/lv_draw_sw_transform.c **** #include "lv_draw_sw.h"
  10:lvgl/src/draw/sw/lv_draw_sw_transform.c **** #include "../../misc/lv_assert.h"
  11:lvgl/src/draw/sw/lv_draw_sw_transform.c **** #include "../../misc/lv_area.h"
  12:lvgl/src/draw/sw/lv_draw_sw_transform.c **** #include "../../core/lv_refr.h"
  13:lvgl/src/draw/sw/lv_draw_sw_transform.c **** 
  14:lvgl/src/draw/sw/lv_draw_sw_transform.c **** #if LV_DRAW_COMPLEX
  15:lvgl/src/draw/sw/lv_draw_sw_transform.c **** /*********************
  16:lvgl/src/draw/sw/lv_draw_sw_transform.c ****  *      DEFINES
  17:lvgl/src/draw/sw/lv_draw_sw_transform.c ****  *********************/
  18:lvgl/src/draw/sw/lv_draw_sw_transform.c **** 
  19:lvgl/src/draw/sw/lv_draw_sw_transform.c **** /**********************
  20:lvgl/src/draw/sw/lv_draw_sw_transform.c ****  *      TYPEDEFS
  21:lvgl/src/draw/sw/lv_draw_sw_transform.c ****  **********************/
  22:lvgl/src/draw/sw/lv_draw_sw_transform.c **** typedef struct {
  23:lvgl/src/draw/sw/lv_draw_sw_transform.c ****     int32_t x_in;
  24:lvgl/src/draw/sw/lv_draw_sw_transform.c ****     int32_t y_in;
  25:lvgl/src/draw/sw/lv_draw_sw_transform.c ****     int32_t x_out;
  26:lvgl/src/draw/sw/lv_draw_sw_transform.c ****     int32_t y_out;
  27:lvgl/src/draw/sw/lv_draw_sw_transform.c ****     int32_t sinma;
  28:lvgl/src/draw/sw/lv_draw_sw_transform.c ****     int32_t cosma;
  29:lvgl/src/draw/sw/lv_draw_sw_transform.c ****     int32_t zoom;
  30:lvgl/src/draw/sw/lv_draw_sw_transform.c ****     int32_t angle;
  31:lvgl/src/draw/sw/lv_draw_sw_transform.c ****     int32_t pivot_x_256;
  32:lvgl/src/draw/sw/lv_draw_sw_transform.c ****     int32_t pivot_y_256;
  33:lvgl/src/draw/sw/lv_draw_sw_transform.c ****     lv_point_t pivot;
  34:lvgl/src/draw/sw/lv_draw_sw_transform.c **** } point_transform_dsc_t;
  35:lvgl/src/draw/sw/lv_draw_sw_transform.c **** 
  36:lvgl/src/draw/sw/lv_draw_sw_transform.c **** /**********************
  37:lvgl/src/draw/sw/lv_draw_sw_transform.c ****  *  STATIC PROTOTYPES
  38:lvgl/src/draw/sw/lv_draw_sw_transform.c ****  **********************/
  39:lvgl/src/draw/sw/lv_draw_sw_transform.c **** /**
  40:lvgl/src/draw/sw/lv_draw_sw_transform.c ****  * Transform a point with 1/256 precision (the output coordinates are upscaled by 256)
  41:lvgl/src/draw/sw/lv_draw_sw_transform.c ****  * @param t         pointer to n initialized `point_transform_dsc_t` structure
  42:lvgl/src/draw/sw/lv_draw_sw_transform.c ****  * @param xin       X coordinate to rotate
  43:lvgl/src/draw/sw/lv_draw_sw_transform.c ****  * @param yin       Y coordinate to rotate
  44:lvgl/src/draw/sw/lv_draw_sw_transform.c ****  * @param xout      upscaled, transformed X
  45:lvgl/src/draw/sw/lv_draw_sw_transform.c ****  * @param yout      upscaled, transformed Y
  46:lvgl/src/draw/sw/lv_draw_sw_transform.c ****  */
  47:lvgl/src/draw/sw/lv_draw_sw_transform.c **** static void transform_point_upscaled(point_transform_dsc_t * t, int32_t xin, int32_t yin, int32_t *
  48:lvgl/src/draw/sw/lv_draw_sw_transform.c ****                                      int32_t * yout);
  49:lvgl/src/draw/sw/lv_draw_sw_transform.c **** 
  50:lvgl/src/draw/sw/lv_draw_sw_transform.c **** static void argb_no_aa(const uint8_t * src, lv_coord_t src_w, lv_coord_t src_h, lv_coord_t src_stri
  51:lvgl/src/draw/sw/lv_draw_sw_transform.c ****                        int32_t xs_ups, int32_t ys_ups, int32_t xs_step, int32_t ys_step,
  52:lvgl/src/draw/sw/lv_draw_sw_transform.c ****                        int32_t x_end, lv_color_t * cbuf, uint8_t * abuf);
  53:lvgl/src/draw/sw/lv_draw_sw_transform.c **** 
  54:lvgl/src/draw/sw/lv_draw_sw_transform.c **** static void rgb_no_aa(const uint8_t * src, lv_coord_t src_w, lv_coord_t src_h, lv_coord_t src_strid
  55:lvgl/src/draw/sw/lv_draw_sw_transform.c ****                       int32_t xs_ups, int32_t ys_ups, int32_t xs_step, int32_t ys_step,
  56:lvgl/src/draw/sw/lv_draw_sw_transform.c ****                       int32_t x_end, lv_color_t * cbuf, uint8_t * abuf, lv_img_cf_t cf);
  57:lvgl/src/draw/sw/lv_draw_sw_transform.c **** 
  58:lvgl/src/draw/sw/lv_draw_sw_transform.c **** #if LV_COLOR_DEPTH == 16
  59:lvgl/src/draw/sw/lv_draw_sw_transform.c **** static void rgb565a8_no_aa(const uint8_t * src, lv_coord_t src_w, lv_coord_t src_h, lv_coord_t src_
  60:lvgl/src/draw/sw/lv_draw_sw_transform.c ****                            int32_t xs_ups, int32_t ys_ups, int32_t xs_step, int32_t ys_step,
  61:lvgl/src/draw/sw/lv_draw_sw_transform.c ****                            int32_t x_end, lv_color_t * cbuf, uint8_t * abuf);
  62:lvgl/src/draw/sw/lv_draw_sw_transform.c **** #endif
  63:lvgl/src/draw/sw/lv_draw_sw_transform.c **** 
  64:lvgl/src/draw/sw/lv_draw_sw_transform.c **** static void argb_and_rgb_aa(const uint8_t * src, lv_coord_t src_w, lv_coord_t src_h, lv_coord_t src
ARM GAS  /var/folders/21/t9g5rlb91ys800n5npymflf80000gn/T//ccApAxk1.s 			page 12


  65:lvgl/src/draw/sw/lv_draw_sw_transform.c ****                             int32_t xs_ups, int32_t ys_ups, int32_t xs_step, int32_t ys_step,
  66:lvgl/src/draw/sw/lv_draw_sw_transform.c ****                             int32_t x_end, lv_color_t * cbuf, uint8_t * abuf, lv_img_cf_t cf);
  67:lvgl/src/draw/sw/lv_draw_sw_transform.c **** 
  68:lvgl/src/draw/sw/lv_draw_sw_transform.c **** /**********************
  69:lvgl/src/draw/sw/lv_draw_sw_transform.c ****  *  STATIC VARIABLES
  70:lvgl/src/draw/sw/lv_draw_sw_transform.c ****  **********************/
  71:lvgl/src/draw/sw/lv_draw_sw_transform.c **** 
  72:lvgl/src/draw/sw/lv_draw_sw_transform.c **** /**********************
  73:lvgl/src/draw/sw/lv_draw_sw_transform.c ****  *      MACROS
  74:lvgl/src/draw/sw/lv_draw_sw_transform.c ****  **********************/
  75:lvgl/src/draw/sw/lv_draw_sw_transform.c **** 
  76:lvgl/src/draw/sw/lv_draw_sw_transform.c **** /**********************
  77:lvgl/src/draw/sw/lv_draw_sw_transform.c ****  *   GLOBAL FUNCTIONS
  78:lvgl/src/draw/sw/lv_draw_sw_transform.c ****  **********************/
  79:lvgl/src/draw/sw/lv_draw_sw_transform.c **** 
  80:lvgl/src/draw/sw/lv_draw_sw_transform.c **** void lv_draw_sw_transform(lv_draw_ctx_t * draw_ctx, const lv_area_t * dest_area, const void * src_b
  81:lvgl/src/draw/sw/lv_draw_sw_transform.c ****                           lv_coord_t src_w, lv_coord_t src_h, lv_coord_t src_stride,
  82:lvgl/src/draw/sw/lv_draw_sw_transform.c ****                           const lv_draw_img_dsc_t * draw_dsc, lv_img_cf_t cf, lv_color_t * cbuf, lv
  83:lvgl/src/draw/sw/lv_draw_sw_transform.c **** {
  84:lvgl/src/draw/sw/lv_draw_sw_transform.c ****     LV_UNUSED(draw_ctx);
  85:lvgl/src/draw/sw/lv_draw_sw_transform.c **** 
  86:lvgl/src/draw/sw/lv_draw_sw_transform.c ****     point_transform_dsc_t tr_dsc;
  87:lvgl/src/draw/sw/lv_draw_sw_transform.c ****     tr_dsc.angle = -draw_dsc->angle;
  88:lvgl/src/draw/sw/lv_draw_sw_transform.c ****     tr_dsc.zoom = (256 * 256) / draw_dsc->zoom;
  89:lvgl/src/draw/sw/lv_draw_sw_transform.c ****     tr_dsc.pivot = draw_dsc->pivot;
  90:lvgl/src/draw/sw/lv_draw_sw_transform.c **** 
  91:lvgl/src/draw/sw/lv_draw_sw_transform.c ****     int32_t angle_low = tr_dsc.angle / 10;
  92:lvgl/src/draw/sw/lv_draw_sw_transform.c ****     int32_t angle_high = angle_low + 1;
  93:lvgl/src/draw/sw/lv_draw_sw_transform.c ****     int32_t angle_rem = tr_dsc.angle  - (angle_low * 10);
  94:lvgl/src/draw/sw/lv_draw_sw_transform.c **** 
  95:lvgl/src/draw/sw/lv_draw_sw_transform.c ****     int32_t s1 = lv_trigo_sin(angle_low);
  96:lvgl/src/draw/sw/lv_draw_sw_transform.c ****     int32_t s2 = lv_trigo_sin(angle_high);
  97:lvgl/src/draw/sw/lv_draw_sw_transform.c **** 
  98:lvgl/src/draw/sw/lv_draw_sw_transform.c ****     int32_t c1 = lv_trigo_sin(angle_low + 90);
  99:lvgl/src/draw/sw/lv_draw_sw_transform.c ****     int32_t c2 = lv_trigo_sin(angle_high + 90);
 100:lvgl/src/draw/sw/lv_draw_sw_transform.c **** 
 101:lvgl/src/draw/sw/lv_draw_sw_transform.c ****     tr_dsc.sinma = (s1 * (10 - angle_rem) + s2 * angle_rem) / 10;
 102:lvgl/src/draw/sw/lv_draw_sw_transform.c ****     tr_dsc.cosma = (c1 * (10 - angle_rem) + c2 * angle_rem) / 10;
 103:lvgl/src/draw/sw/lv_draw_sw_transform.c ****     tr_dsc.sinma = tr_dsc.sinma >> (LV_TRIGO_SHIFT - 10);
 104:lvgl/src/draw/sw/lv_draw_sw_transform.c ****     tr_dsc.cosma = tr_dsc.cosma >> (LV_TRIGO_SHIFT - 10);
 105:lvgl/src/draw/sw/lv_draw_sw_transform.c ****     tr_dsc.pivot_x_256 = tr_dsc.pivot.x * 256;
 106:lvgl/src/draw/sw/lv_draw_sw_transform.c ****     tr_dsc.pivot_y_256 = tr_dsc.pivot.y * 256;
 107:lvgl/src/draw/sw/lv_draw_sw_transform.c **** 
 108:lvgl/src/draw/sw/lv_draw_sw_transform.c ****     lv_coord_t dest_w = lv_area_get_width(dest_area);
 109:lvgl/src/draw/sw/lv_draw_sw_transform.c ****     lv_coord_t dest_h = lv_area_get_height(dest_area);
 110:lvgl/src/draw/sw/lv_draw_sw_transform.c ****     lv_coord_t y;
 111:lvgl/src/draw/sw/lv_draw_sw_transform.c ****     for(y = 0; y < dest_h; y++) {
 112:lvgl/src/draw/sw/lv_draw_sw_transform.c ****         int32_t xs1_ups, ys1_ups, xs2_ups, ys2_ups;
 113:lvgl/src/draw/sw/lv_draw_sw_transform.c **** 
 114:lvgl/src/draw/sw/lv_draw_sw_transform.c ****         transform_point_upscaled(&tr_dsc, dest_area->x1, dest_area->y1 + y, &xs1_ups, &ys1_ups);
 115:lvgl/src/draw/sw/lv_draw_sw_transform.c ****         transform_point_upscaled(&tr_dsc, dest_area->x2, dest_area->y1 + y, &xs2_ups, &ys2_ups);
 116:lvgl/src/draw/sw/lv_draw_sw_transform.c **** 
 117:lvgl/src/draw/sw/lv_draw_sw_transform.c ****         int32_t xs_diff = xs2_ups - xs1_ups;
 118:lvgl/src/draw/sw/lv_draw_sw_transform.c ****         int32_t ys_diff = ys2_ups - ys1_ups;
 119:lvgl/src/draw/sw/lv_draw_sw_transform.c ****         int32_t xs_step_256 = 0;
 120:lvgl/src/draw/sw/lv_draw_sw_transform.c ****         int32_t ys_step_256 = 0;
 121:lvgl/src/draw/sw/lv_draw_sw_transform.c ****         if(dest_w > 1) {
ARM GAS  /var/folders/21/t9g5rlb91ys800n5npymflf80000gn/T//ccApAxk1.s 			page 13


 122:lvgl/src/draw/sw/lv_draw_sw_transform.c ****             xs_step_256 = (256 * xs_diff) / (dest_w - 1);
 123:lvgl/src/draw/sw/lv_draw_sw_transform.c ****             ys_step_256 = (256 * ys_diff) / (dest_w - 1);
 124:lvgl/src/draw/sw/lv_draw_sw_transform.c ****         }
 125:lvgl/src/draw/sw/lv_draw_sw_transform.c ****         int32_t xs_ups = xs1_ups + 0x80;
 126:lvgl/src/draw/sw/lv_draw_sw_transform.c ****         int32_t ys_ups = ys1_ups + 0x80;
 127:lvgl/src/draw/sw/lv_draw_sw_transform.c **** 
 128:lvgl/src/draw/sw/lv_draw_sw_transform.c ****         if(draw_dsc->antialias == 0) {
 129:lvgl/src/draw/sw/lv_draw_sw_transform.c ****             switch(cf) {
 130:lvgl/src/draw/sw/lv_draw_sw_transform.c ****                 case LV_IMG_CF_TRUE_COLOR_ALPHA:
 131:lvgl/src/draw/sw/lv_draw_sw_transform.c ****                     argb_no_aa(src_buf, src_w, src_h, src_stride, xs_ups, ys_ups, xs_step_256, ys_s
 132:lvgl/src/draw/sw/lv_draw_sw_transform.c ****                     break;
 133:lvgl/src/draw/sw/lv_draw_sw_transform.c ****                 case LV_IMG_CF_TRUE_COLOR:
 134:lvgl/src/draw/sw/lv_draw_sw_transform.c ****                 case LV_IMG_CF_TRUE_COLOR_CHROMA_KEYED:
 135:lvgl/src/draw/sw/lv_draw_sw_transform.c ****                     rgb_no_aa(src_buf, src_w, src_h, src_stride, xs_ups, ys_ups, xs_step_256, ys_st
 136:lvgl/src/draw/sw/lv_draw_sw_transform.c ****                     break;
 137:lvgl/src/draw/sw/lv_draw_sw_transform.c **** 
 138:lvgl/src/draw/sw/lv_draw_sw_transform.c **** #if LV_COLOR_DEPTH == 16
 139:lvgl/src/draw/sw/lv_draw_sw_transform.c ****                 case LV_IMG_CF_RGB565A8:
 140:lvgl/src/draw/sw/lv_draw_sw_transform.c ****                     rgb565a8_no_aa(src_buf, src_w, src_h, src_stride, xs_ups, ys_ups, xs_step_256, 
 141:lvgl/src/draw/sw/lv_draw_sw_transform.c ****                     break;
 142:lvgl/src/draw/sw/lv_draw_sw_transform.c **** #endif
 143:lvgl/src/draw/sw/lv_draw_sw_transform.c ****                 default:
 144:lvgl/src/draw/sw/lv_draw_sw_transform.c ****                     break;
 145:lvgl/src/draw/sw/lv_draw_sw_transform.c ****             }
 146:lvgl/src/draw/sw/lv_draw_sw_transform.c ****         }
 147:lvgl/src/draw/sw/lv_draw_sw_transform.c ****         else {
 148:lvgl/src/draw/sw/lv_draw_sw_transform.c ****             argb_and_rgb_aa(src_buf, src_w, src_h, src_stride, xs_ups, ys_ups, xs_step_256, ys_step
 149:lvgl/src/draw/sw/lv_draw_sw_transform.c ****         }
 150:lvgl/src/draw/sw/lv_draw_sw_transform.c **** 
 151:lvgl/src/draw/sw/lv_draw_sw_transform.c ****         cbuf += dest_w;
 152:lvgl/src/draw/sw/lv_draw_sw_transform.c ****         abuf += dest_w;
 153:lvgl/src/draw/sw/lv_draw_sw_transform.c ****     }
 154:lvgl/src/draw/sw/lv_draw_sw_transform.c **** }
 155:lvgl/src/draw/sw/lv_draw_sw_transform.c **** 
 156:lvgl/src/draw/sw/lv_draw_sw_transform.c **** /**********************
 157:lvgl/src/draw/sw/lv_draw_sw_transform.c ****  *   STATIC FUNCTIONS
 158:lvgl/src/draw/sw/lv_draw_sw_transform.c ****  **********************/
 159:lvgl/src/draw/sw/lv_draw_sw_transform.c **** 
 160:lvgl/src/draw/sw/lv_draw_sw_transform.c **** static void rgb_no_aa(const uint8_t * src, lv_coord_t src_w, lv_coord_t src_h, lv_coord_t src_strid
 161:lvgl/src/draw/sw/lv_draw_sw_transform.c ****                       int32_t xs_ups, int32_t ys_ups, int32_t xs_step, int32_t ys_step,
 162:lvgl/src/draw/sw/lv_draw_sw_transform.c ****                       int32_t x_end, lv_color_t * cbuf, uint8_t * abuf, lv_img_cf_t cf)
 163:lvgl/src/draw/sw/lv_draw_sw_transform.c **** {
 164:lvgl/src/draw/sw/lv_draw_sw_transform.c ****     int32_t xs_ups_start = xs_ups;
 165:lvgl/src/draw/sw/lv_draw_sw_transform.c ****     int32_t ys_ups_start = ys_ups;
 166:lvgl/src/draw/sw/lv_draw_sw_transform.c ****     lv_disp_t * d = _lv_refr_get_disp_refreshing();
 167:lvgl/src/draw/sw/lv_draw_sw_transform.c ****     lv_color_t ck = d->driver->color_chroma_key;
 168:lvgl/src/draw/sw/lv_draw_sw_transform.c **** 
 169:lvgl/src/draw/sw/lv_draw_sw_transform.c ****     lv_memset_ff(abuf, x_end);
 170:lvgl/src/draw/sw/lv_draw_sw_transform.c **** 
 171:lvgl/src/draw/sw/lv_draw_sw_transform.c ****     lv_coord_t x;
 172:lvgl/src/draw/sw/lv_draw_sw_transform.c ****     for(x = 0; x < x_end; x++) {
 173:lvgl/src/draw/sw/lv_draw_sw_transform.c ****         xs_ups = xs_ups_start + ((xs_step * x) >> 8);
 174:lvgl/src/draw/sw/lv_draw_sw_transform.c ****         ys_ups = ys_ups_start + ((ys_step * x) >> 8);
 175:lvgl/src/draw/sw/lv_draw_sw_transform.c **** 
 176:lvgl/src/draw/sw/lv_draw_sw_transform.c ****         int32_t xs_int = xs_ups >> 8;
 177:lvgl/src/draw/sw/lv_draw_sw_transform.c ****         int32_t ys_int = ys_ups >> 8;
 178:lvgl/src/draw/sw/lv_draw_sw_transform.c ****         if(xs_int < 0 || xs_int >= src_w || ys_int < 0 || ys_int >= src_h) {
ARM GAS  /var/folders/21/t9g5rlb91ys800n5npymflf80000gn/T//ccApAxk1.s 			page 14


 179:lvgl/src/draw/sw/lv_draw_sw_transform.c ****             abuf[x] = 0x00;
 180:lvgl/src/draw/sw/lv_draw_sw_transform.c ****         }
 181:lvgl/src/draw/sw/lv_draw_sw_transform.c ****         else {
 182:lvgl/src/draw/sw/lv_draw_sw_transform.c **** 
 183:lvgl/src/draw/sw/lv_draw_sw_transform.c **** #if LV_COLOR_DEPTH == 1 || LV_COLOR_DEPTH == 8
 184:lvgl/src/draw/sw/lv_draw_sw_transform.c ****             const uint8_t * src_tmp = src;
 185:lvgl/src/draw/sw/lv_draw_sw_transform.c ****             src_tmp += ys_int * src_stride + xs_int;
 186:lvgl/src/draw/sw/lv_draw_sw_transform.c ****             cbuf[x].full = src_tmp[0];
 187:lvgl/src/draw/sw/lv_draw_sw_transform.c **** #elif LV_COLOR_DEPTH == 16
 188:lvgl/src/draw/sw/lv_draw_sw_transform.c ****             const lv_color_t * src_tmp = (const lv_color_t *)src;
 189:lvgl/src/draw/sw/lv_draw_sw_transform.c ****             src_tmp += ys_int * src_stride + xs_int;
 190:lvgl/src/draw/sw/lv_draw_sw_transform.c ****             cbuf[x] = *src_tmp;
 191:lvgl/src/draw/sw/lv_draw_sw_transform.c **** #elif LV_COLOR_DEPTH == 32
 192:lvgl/src/draw/sw/lv_draw_sw_transform.c ****             const uint8_t * src_tmp = src;
 193:lvgl/src/draw/sw/lv_draw_sw_transform.c ****             src_tmp += (ys_int * src_stride * sizeof(lv_color_t)) + xs_int * sizeof(lv_color_t);
 194:lvgl/src/draw/sw/lv_draw_sw_transform.c ****             cbuf[x].full = *((uint32_t *)src_tmp);
 195:lvgl/src/draw/sw/lv_draw_sw_transform.c **** #endif
 196:lvgl/src/draw/sw/lv_draw_sw_transform.c ****         }
 197:lvgl/src/draw/sw/lv_draw_sw_transform.c ****         if(cf == LV_IMG_CF_TRUE_COLOR_CHROMA_KEYED && cbuf[x].full == ck.full) {
 198:lvgl/src/draw/sw/lv_draw_sw_transform.c ****             abuf[x] = 0x00;
 199:lvgl/src/draw/sw/lv_draw_sw_transform.c ****         }
 200:lvgl/src/draw/sw/lv_draw_sw_transform.c ****     }
 201:lvgl/src/draw/sw/lv_draw_sw_transform.c **** }
 202:lvgl/src/draw/sw/lv_draw_sw_transform.c **** 
 203:lvgl/src/draw/sw/lv_draw_sw_transform.c **** static void argb_no_aa(const uint8_t * src, lv_coord_t src_w, lv_coord_t src_h, lv_coord_t src_stri
 204:lvgl/src/draw/sw/lv_draw_sw_transform.c ****                        int32_t xs_ups, int32_t ys_ups, int32_t xs_step, int32_t ys_step,
 205:lvgl/src/draw/sw/lv_draw_sw_transform.c ****                        int32_t x_end, lv_color_t * cbuf, uint8_t * abuf)
 206:lvgl/src/draw/sw/lv_draw_sw_transform.c **** {
  95              		.loc 1 206 1 is_stmt 1 view -0
  96              		.cfi_startproc
  97              		@ args = 28, pretend = 0, frame = 8
  98              		@ frame_needed = 0, uses_anonymous_args = 0
  99              		.loc 1 206 1 is_stmt 0 view .LVU21
 100 0000 2DE9F04F 		push	{r4, r5, r6, r7, r8, r9, r10, fp, lr}
 101              	.LCFI0:
 102              		.cfi_def_cfa_offset 36
 103              		.cfi_offset 4, -36
 104              		.cfi_offset 5, -32
 105              		.cfi_offset 6, -28
 106              		.cfi_offset 7, -24
 107              		.cfi_offset 8, -20
 108              		.cfi_offset 9, -16
 109              		.cfi_offset 10, -12
 110              		.cfi_offset 11, -8
 111              		.cfi_offset 14, -4
 112 0004 83B0     		sub	sp, sp, #12
 113              	.LCFI1:
 114              		.cfi_def_cfa_offset 48
 115 0006 0190     		str	r0, [sp, #4]
 116 0008 8846     		mov	r8, r1
 117 000a 9146     		mov	r9, r2
 118 000c 9A46     		mov	r10, r3
 119 000e 0C9A     		ldr	r2, [sp, #48]
 120              	.LVL12:
 121              		.loc 1 206 1 view .LVU22
 122 0010 0D9B     		ldr	r3, [sp, #52]
 123              	.LVL13:
ARM GAS  /var/folders/21/t9g5rlb91ys800n5npymflf80000gn/T//ccApAxk1.s 			page 15


 124              		.loc 1 206 1 view .LVU23
 125 0012 0E9F     		ldr	r7, [sp, #56]
 126 0014 0F9E     		ldr	r6, [sp, #60]
 127 0016 109D     		ldr	r5, [sp, #64]
 128 0018 1299     		ldr	r1, [sp, #72]
 129              	.LVL14:
 207:lvgl/src/draw/sw/lv_draw_sw_transform.c ****     int32_t xs_ups_start = xs_ups;
 130              		.loc 1 207 5 is_stmt 1 view .LVU24
 208:lvgl/src/draw/sw/lv_draw_sw_transform.c ****     int32_t ys_ups_start = ys_ups;
 131              		.loc 1 208 5 view .LVU25
 209:lvgl/src/draw/sw/lv_draw_sw_transform.c **** 
 210:lvgl/src/draw/sw/lv_draw_sw_transform.c ****     lv_coord_t x;
 132              		.loc 1 210 5 view .LVU26
 211:lvgl/src/draw/sw/lv_draw_sw_transform.c ****     for(x = 0; x < x_end; x++) {
 133              		.loc 1 211 5 view .LVU27
 134              		.loc 1 211 11 is_stmt 0 view .LVU28
 135 001a 4FF0000C 		mov	ip, #0
 136              		.loc 1 211 5 view .LVU29
 137 001e 06E0     		b	.L5
 138              	.LVL15:
 139              	.L6:
 140              	.LBB7:
 212:lvgl/src/draw/sw/lv_draw_sw_transform.c ****         xs_ups = xs_ups_start + ((xs_step * x) >> 8);
 213:lvgl/src/draw/sw/lv_draw_sw_transform.c ****         ys_ups = ys_ups_start + ((ys_step * x) >> 8);
 214:lvgl/src/draw/sw/lv_draw_sw_transform.c **** 
 215:lvgl/src/draw/sw/lv_draw_sw_transform.c ****         int32_t xs_int = xs_ups >> 8;
 216:lvgl/src/draw/sw/lv_draw_sw_transform.c ****         int32_t ys_int = ys_ups >> 8;
 217:lvgl/src/draw/sw/lv_draw_sw_transform.c ****         if(xs_int < 0 || xs_int >= src_w || ys_int < 0 || ys_int >= src_h) {
 218:lvgl/src/draw/sw/lv_draw_sw_transform.c ****             abuf[x] = 0;
 141              		.loc 1 218 13 is_stmt 1 view .LVU30
 142              		.loc 1 218 21 is_stmt 0 view .LVU31
 143 0020 0024     		movs	r4, #0
 144              	.LVL16:
 145              		.loc 1 218 21 view .LVU32
 146 0022 01F80C40 		strb	r4, [r1, ip]
 147              	.LVL17:
 148              	.L8:
 149              		.loc 1 218 21 view .LVU33
 150              	.LBE7:
 211:lvgl/src/draw/sw/lv_draw_sw_transform.c ****     for(x = 0; x < x_end; x++) {
 151              		.loc 1 211 28 is_stmt 1 discriminator 2 view .LVU34
 152 0026 0CF1010C 		add	ip, ip, #1
 153              	.LVL18:
 211:lvgl/src/draw/sw/lv_draw_sw_transform.c ****     for(x = 0; x < x_end; x++) {
 154              		.loc 1 211 28 is_stmt 0 discriminator 2 view .LVU35
 155 002a 0FFA8CFC 		sxth	ip, ip
 156              	.LVL19:
 157              	.L5:
 211:lvgl/src/draw/sw/lv_draw_sw_transform.c ****     for(x = 0; x < x_end; x++) {
 158              		.loc 1 211 18 is_stmt 1 discriminator 1 view .LVU36
 159 002e AC45     		cmp	ip, r5
 160 0030 26DA     		bge	.L11
 161              	.LBB9:
 212:lvgl/src/draw/sw/lv_draw_sw_transform.c ****         xs_ups = xs_ups_start + ((xs_step * x) >> 8);
 162              		.loc 1 212 9 view .LVU37
 212:lvgl/src/draw/sw/lv_draw_sw_transform.c ****         xs_ups = xs_ups_start + ((xs_step * x) >> 8);
 163              		.loc 1 212 43 is_stmt 0 view .LVU38
ARM GAS  /var/folders/21/t9g5rlb91ys800n5npymflf80000gn/T//ccApAxk1.s 			page 16


 164 0032 07FB0CFE 		mul	lr, r7, ip
 212:lvgl/src/draw/sw/lv_draw_sw_transform.c ****         xs_ups = xs_ups_start + ((xs_step * x) >> 8);
 165              		.loc 1 212 16 view .LVU39
 166 0036 02EB2E2E 		add	lr, r2, lr, asr #8
 167              	.LVL20:
 213:lvgl/src/draw/sw/lv_draw_sw_transform.c **** 
 168              		.loc 1 213 9 is_stmt 1 view .LVU40
 213:lvgl/src/draw/sw/lv_draw_sw_transform.c **** 
 169              		.loc 1 213 43 is_stmt 0 view .LVU41
 170 003a 06FB0CF4 		mul	r4, r6, ip
 213:lvgl/src/draw/sw/lv_draw_sw_transform.c **** 
 171              		.loc 1 213 16 view .LVU42
 172 003e 03EB2424 		add	r4, r3, r4, asr #8
 173              	.LVL21:
 215:lvgl/src/draw/sw/lv_draw_sw_transform.c ****         int32_t ys_int = ys_ups >> 8;
 174              		.loc 1 215 9 is_stmt 1 view .LVU43
 216:lvgl/src/draw/sw/lv_draw_sw_transform.c ****         if(xs_int < 0 || xs_int >= src_w || ys_int < 0 || ys_int >= src_h) {
 175              		.loc 1 216 9 view .LVU44
 216:lvgl/src/draw/sw/lv_draw_sw_transform.c ****         if(xs_int < 0 || xs_int >= src_w || ys_int < 0 || ys_int >= src_h) {
 176              		.loc 1 216 17 is_stmt 0 view .LVU45
 177 0042 2412     		asrs	r4, r4, #8
 178              	.LVL22:
 217:lvgl/src/draw/sw/lv_draw_sw_transform.c ****             abuf[x] = 0;
 179              		.loc 1 217 9 is_stmt 1 view .LVU46
 217:lvgl/src/draw/sw/lv_draw_sw_transform.c ****             abuf[x] = 0;
 180              		.loc 1 217 11 is_stmt 0 view .LVU47
 181 0044 5FEA2E2E 		asrs	lr, lr, #8
 182              	.LVL23:
 217:lvgl/src/draw/sw/lv_draw_sw_transform.c ****             abuf[x] = 0;
 183              		.loc 1 217 11 view .LVU48
 184 0048 EAD4     		bmi	.L6
 217:lvgl/src/draw/sw/lv_draw_sw_transform.c ****             abuf[x] = 0;
 185              		.loc 1 217 23 discriminator 1 view .LVU49
 186 004a F045     		cmp	r8, lr
 187 004c E8DD     		ble	.L6
 217:lvgl/src/draw/sw/lv_draw_sw_transform.c ****             abuf[x] = 0;
 188              		.loc 1 217 42 discriminator 2 view .LVU50
 189 004e 002C     		cmp	r4, #0
 190 0050 E6DB     		blt	.L6
 217:lvgl/src/draw/sw/lv_draw_sw_transform.c ****             abuf[x] = 0;
 191              		.loc 1 217 56 discriminator 3 view .LVU51
 192 0052 A145     		cmp	r9, r4
 193 0054 E4DD     		ble	.L6
 194              	.LBB8:
 219:lvgl/src/draw/sw/lv_draw_sw_transform.c ****         }
 220:lvgl/src/draw/sw/lv_draw_sw_transform.c ****         else {
 221:lvgl/src/draw/sw/lv_draw_sw_transform.c ****             const uint8_t * src_tmp = src;
 195              		.loc 1 221 13 is_stmt 1 view .LVU52
 196              	.LVL24:
 222:lvgl/src/draw/sw/lv_draw_sw_transform.c ****             src_tmp += (ys_int * src_stride * LV_IMG_PX_SIZE_ALPHA_BYTE) + xs_int * LV_IMG_PX_SIZE_
 197              		.loc 1 222 13 view .LVU53
 198              		.loc 1 222 74 is_stmt 0 view .LVU54
 199 0056 04FB0AEE 		mla	lr, r4, r10, lr
 200              	.LVL25:
 201              		.loc 1 222 74 view .LVU55
 202 005a 0EEB4E0E 		add	lr, lr, lr, lsl #1
 203              		.loc 1 222 21 view .LVU56
ARM GAS  /var/folders/21/t9g5rlb91ys800n5npymflf80000gn/T//ccApAxk1.s 			page 17


 204 005e 0198     		ldr	r0, [sp, #4]
 205 0060 00EB0E0B 		add	fp, r0, lr
 206              	.LVL26:
 223:lvgl/src/draw/sw/lv_draw_sw_transform.c **** 
 224:lvgl/src/draw/sw/lv_draw_sw_transform.c **** #if LV_COLOR_DEPTH == 1 || LV_COLOR_DEPTH == 8
 225:lvgl/src/draw/sw/lv_draw_sw_transform.c ****             cbuf[x].full = src_tmp[0];
 226:lvgl/src/draw/sw/lv_draw_sw_transform.c **** #elif LV_COLOR_DEPTH == 16
 227:lvgl/src/draw/sw/lv_draw_sw_transform.c ****             cbuf[x].full = src_tmp[0] + (src_tmp[1] << 8);
 207              		.loc 1 227 13 is_stmt 1 view .LVU57
 208              		.loc 1 227 35 is_stmt 0 view .LVU58
 209 0064 10F80E40 		ldrb	r4, [r0, lr]	@ zero_extendqisi2
 210              	.LVL27:
 211              		.loc 1 227 49 view .LVU59
 212 0068 9BF801E0 		ldrb	lr, [fp, #1]	@ zero_extendqisi2
 213              		.loc 1 227 39 view .LVU60
 214 006c 04EB0E24 		add	r4, r4, lr, lsl #8
 215              		.loc 1 227 26 view .LVU61
 216 0070 1198     		ldr	r0, [sp, #68]
 217 0072 20F81C40 		strh	r4, [r0, ip, lsl #1]	@ movhi
 228:lvgl/src/draw/sw/lv_draw_sw_transform.c **** #elif LV_COLOR_DEPTH == 32
 229:lvgl/src/draw/sw/lv_draw_sw_transform.c ****             cbuf[x].full = *((uint32_t *)src_tmp);
 230:lvgl/src/draw/sw/lv_draw_sw_transform.c **** #endif
 231:lvgl/src/draw/sw/lv_draw_sw_transform.c ****             abuf[x] = src_tmp[LV_IMG_PX_SIZE_ALPHA_BYTE - 1];
 218              		.loc 1 231 13 is_stmt 1 view .LVU62
 219              		.loc 1 231 30 is_stmt 0 view .LVU63
 220 0076 9BF80240 		ldrb	r4, [fp, #2]	@ zero_extendqisi2
 221              		.loc 1 231 21 view .LVU64
 222 007a 01F80C40 		strb	r4, [r1, ip]
 223 007e D2E7     		b	.L8
 224              	.LVL28:
 225              	.L11:
 226              		.loc 1 231 21 view .LVU65
 227              	.LBE8:
 228              	.LBE9:
 232:lvgl/src/draw/sw/lv_draw_sw_transform.c ****         }
 233:lvgl/src/draw/sw/lv_draw_sw_transform.c ****     }
 234:lvgl/src/draw/sw/lv_draw_sw_transform.c **** }
 229              		.loc 1 234 1 view .LVU66
 230 0080 03B0     		add	sp, sp, #12
 231              	.LCFI2:
 232              		.cfi_def_cfa_offset 36
 233              		@ sp needed
 234 0082 BDE8F08F 		pop	{r4, r5, r6, r7, r8, r9, r10, fp, pc}
 235              		.loc 1 234 1 view .LVU67
 236              		.cfi_endproc
 237              	.LFE163:
 239              		.section	.text.rgb565a8_no_aa,"ax",%progbits
 240              		.align	1
 241              		.syntax unified
 242              		.thumb
 243              		.thumb_func
 245              	rgb565a8_no_aa:
 246              	.LVL29:
 247              	.LFB164:
 235:lvgl/src/draw/sw/lv_draw_sw_transform.c **** 
 236:lvgl/src/draw/sw/lv_draw_sw_transform.c **** #if LV_COLOR_DEPTH == 16
 237:lvgl/src/draw/sw/lv_draw_sw_transform.c **** static void rgb565a8_no_aa(const uint8_t * src, lv_coord_t src_w, lv_coord_t src_h, lv_coord_t src_
ARM GAS  /var/folders/21/t9g5rlb91ys800n5npymflf80000gn/T//ccApAxk1.s 			page 18


 238:lvgl/src/draw/sw/lv_draw_sw_transform.c ****                            int32_t xs_ups, int32_t ys_ups, int32_t xs_step, int32_t ys_step,
 239:lvgl/src/draw/sw/lv_draw_sw_transform.c ****                            int32_t x_end, lv_color_t * cbuf, uint8_t * abuf)
 240:lvgl/src/draw/sw/lv_draw_sw_transform.c **** {
 248              		.loc 1 240 1 is_stmt 1 view -0
 249              		.cfi_startproc
 250              		@ args = 28, pretend = 0, frame = 0
 251              		@ frame_needed = 0, uses_anonymous_args = 0
 252              		.loc 1 240 1 is_stmt 0 view .LVU69
 253 0000 2DE9F04F 		push	{r4, r5, r6, r7, r8, r9, r10, fp, lr}
 254              	.LCFI3:
 255              		.cfi_def_cfa_offset 36
 256              		.cfi_offset 4, -36
 257              		.cfi_offset 5, -32
 258              		.cfi_offset 6, -28
 259              		.cfi_offset 7, -24
 260              		.cfi_offset 8, -20
 261              		.cfi_offset 9, -16
 262              		.cfi_offset 10, -12
 263              		.cfi_offset 11, -8
 264              		.cfi_offset 14, -4
 265 0004 8346     		mov	fp, r0
 266 0006 8846     		mov	r8, r1
 267 0008 9146     		mov	r9, r2
 268 000a 9A46     		mov	r10, r3
 269 000c 099A     		ldr	r2, [sp, #36]
 270              	.LVL30:
 271              		.loc 1 240 1 view .LVU70
 272 000e 0A9B     		ldr	r3, [sp, #40]
 273              	.LVL31:
 274              		.loc 1 240 1 view .LVU71
 275 0010 0B9F     		ldr	r7, [sp, #44]
 276 0012 0C9E     		ldr	r6, [sp, #48]
 277 0014 0D9D     		ldr	r5, [sp, #52]
 278 0016 0F99     		ldr	r1, [sp, #60]
 279              	.LVL32:
 241:lvgl/src/draw/sw/lv_draw_sw_transform.c ****     int32_t xs_ups_start = xs_ups;
 280              		.loc 1 241 5 is_stmt 1 view .LVU72
 242:lvgl/src/draw/sw/lv_draw_sw_transform.c ****     int32_t ys_ups_start = ys_ups;
 281              		.loc 1 242 5 view .LVU73
 243:lvgl/src/draw/sw/lv_draw_sw_transform.c **** 
 244:lvgl/src/draw/sw/lv_draw_sw_transform.c ****     lv_coord_t x;
 282              		.loc 1 244 5 view .LVU74
 245:lvgl/src/draw/sw/lv_draw_sw_transform.c ****     for(x = 0; x < x_end; x++) {
 283              		.loc 1 245 5 view .LVU75
 284              		.loc 1 245 11 is_stmt 0 view .LVU76
 285 0018 4FF0000C 		mov	ip, #0
 286              		.loc 1 245 5 view .LVU77
 287 001c 06E0     		b	.L13
 288              	.LVL33:
 289              	.L14:
 290              	.LBB10:
 246:lvgl/src/draw/sw/lv_draw_sw_transform.c ****         xs_ups = xs_ups_start + ((xs_step * x) >> 8);
 247:lvgl/src/draw/sw/lv_draw_sw_transform.c ****         ys_ups = ys_ups_start + ((ys_step * x) >> 8);
 248:lvgl/src/draw/sw/lv_draw_sw_transform.c **** 
 249:lvgl/src/draw/sw/lv_draw_sw_transform.c ****         int32_t xs_int = xs_ups >> 8;
 250:lvgl/src/draw/sw/lv_draw_sw_transform.c ****         int32_t ys_int = ys_ups >> 8;
 251:lvgl/src/draw/sw/lv_draw_sw_transform.c ****         if(xs_int < 0 || xs_int >= src_w || ys_int < 0 || ys_int >= src_h) {
ARM GAS  /var/folders/21/t9g5rlb91ys800n5npymflf80000gn/T//ccApAxk1.s 			page 19


 252:lvgl/src/draw/sw/lv_draw_sw_transform.c ****             abuf[x] = 0;
 291              		.loc 1 252 13 is_stmt 1 view .LVU78
 292              		.loc 1 252 21 is_stmt 0 view .LVU79
 293 001e 0024     		movs	r4, #0
 294              	.LVL34:
 295              		.loc 1 252 21 view .LVU80
 296 0020 01F80C40 		strb	r4, [r1, ip]
 297              	.LVL35:
 298              	.L16:
 299              		.loc 1 252 21 view .LVU81
 300              	.LBE10:
 245:lvgl/src/draw/sw/lv_draw_sw_transform.c ****     for(x = 0; x < x_end; x++) {
 301              		.loc 1 245 28 is_stmt 1 discriminator 2 view .LVU82
 302 0024 0CF1010C 		add	ip, ip, #1
 303              	.LVL36:
 245:lvgl/src/draw/sw/lv_draw_sw_transform.c ****     for(x = 0; x < x_end; x++) {
 304              		.loc 1 245 28 is_stmt 0 discriminator 2 view .LVU83
 305 0028 0FFA8CFC 		sxth	ip, ip
 306              	.LVL37:
 307              	.L13:
 245:lvgl/src/draw/sw/lv_draw_sw_transform.c ****     for(x = 0; x < x_end; x++) {
 308              		.loc 1 245 18 is_stmt 1 discriminator 1 view .LVU84
 309 002c AC45     		cmp	ip, r5
 310 002e 21DA     		bge	.L19
 311              	.LBB12:
 246:lvgl/src/draw/sw/lv_draw_sw_transform.c ****         xs_ups = xs_ups_start + ((xs_step * x) >> 8);
 312              		.loc 1 246 9 view .LVU85
 246:lvgl/src/draw/sw/lv_draw_sw_transform.c ****         xs_ups = xs_ups_start + ((xs_step * x) >> 8);
 313              		.loc 1 246 43 is_stmt 0 view .LVU86
 314 0030 07FB0CFE 		mul	lr, r7, ip
 246:lvgl/src/draw/sw/lv_draw_sw_transform.c ****         xs_ups = xs_ups_start + ((xs_step * x) >> 8);
 315              		.loc 1 246 16 view .LVU87
 316 0034 02EB2E2E 		add	lr, r2, lr, asr #8
 317              	.LVL38:
 247:lvgl/src/draw/sw/lv_draw_sw_transform.c **** 
 318              		.loc 1 247 9 is_stmt 1 view .LVU88
 247:lvgl/src/draw/sw/lv_draw_sw_transform.c **** 
 319              		.loc 1 247 43 is_stmt 0 view .LVU89
 320 0038 06FB0CF4 		mul	r4, r6, ip
 247:lvgl/src/draw/sw/lv_draw_sw_transform.c **** 
 321              		.loc 1 247 16 view .LVU90
 322 003c 03EB2424 		add	r4, r3, r4, asr #8
 323              	.LVL39:
 249:lvgl/src/draw/sw/lv_draw_sw_transform.c ****         int32_t ys_int = ys_ups >> 8;
 324              		.loc 1 249 9 is_stmt 1 view .LVU91
 250:lvgl/src/draw/sw/lv_draw_sw_transform.c ****         if(xs_int < 0 || xs_int >= src_w || ys_int < 0 || ys_int >= src_h) {
 325              		.loc 1 250 9 view .LVU92
 250:lvgl/src/draw/sw/lv_draw_sw_transform.c ****         if(xs_int < 0 || xs_int >= src_w || ys_int < 0 || ys_int >= src_h) {
 326              		.loc 1 250 17 is_stmt 0 view .LVU93
 327 0040 2412     		asrs	r4, r4, #8
 328              	.LVL40:
 251:lvgl/src/draw/sw/lv_draw_sw_transform.c ****             abuf[x] = 0;
 329              		.loc 1 251 9 is_stmt 1 view .LVU94
 251:lvgl/src/draw/sw/lv_draw_sw_transform.c ****             abuf[x] = 0;
 330              		.loc 1 251 11 is_stmt 0 view .LVU95
 331 0042 5FEA2E2E 		asrs	lr, lr, #8
 332              	.LVL41:
ARM GAS  /var/folders/21/t9g5rlb91ys800n5npymflf80000gn/T//ccApAxk1.s 			page 20


 251:lvgl/src/draw/sw/lv_draw_sw_transform.c ****             abuf[x] = 0;
 333              		.loc 1 251 11 view .LVU96
 334 0046 EAD4     		bmi	.L14
 251:lvgl/src/draw/sw/lv_draw_sw_transform.c ****             abuf[x] = 0;
 335              		.loc 1 251 23 discriminator 1 view .LVU97
 336 0048 F045     		cmp	r8, lr
 337 004a E8DD     		ble	.L14
 251:lvgl/src/draw/sw/lv_draw_sw_transform.c ****             abuf[x] = 0;
 338              		.loc 1 251 42 discriminator 2 view .LVU98
 339 004c 002C     		cmp	r4, #0
 340 004e E6DB     		blt	.L14
 251:lvgl/src/draw/sw/lv_draw_sw_transform.c ****             abuf[x] = 0;
 341              		.loc 1 251 56 discriminator 3 view .LVU99
 342 0050 A145     		cmp	r9, r4
 343 0052 E4DD     		ble	.L14
 344              	.LBB11:
 253:lvgl/src/draw/sw/lv_draw_sw_transform.c ****         }
 254:lvgl/src/draw/sw/lv_draw_sw_transform.c ****         else {
 255:lvgl/src/draw/sw/lv_draw_sw_transform.c ****             const lv_color_t * src_tmp = (const lv_color_t *)src;
 345              		.loc 1 255 13 is_stmt 1 view .LVU100
 346              	.LVL42:
 256:lvgl/src/draw/sw/lv_draw_sw_transform.c ****             src_tmp += ys_int * src_stride + xs_int;
 347              		.loc 1 256 13 view .LVU101
 348              		.loc 1 256 44 is_stmt 0 view .LVU102
 349 0054 04FB0AEE 		mla	lr, r4, r10, lr
 350              	.LVL43:
 257:lvgl/src/draw/sw/lv_draw_sw_transform.c ****             cbuf[x] = *src_tmp;
 351              		.loc 1 257 13 is_stmt 1 view .LVU103
 352              		.loc 1 257 21 is_stmt 0 view .LVU104
 353 0058 3BF81E40 		ldrh	r4, [fp, lr, lsl #1]
 354              	.LVL44:
 355              		.loc 1 257 21 view .LVU105
 356 005c 0E98     		ldr	r0, [sp, #56]
 357 005e 20F81C40 		strh	r4, [r0, ip, lsl #1]	@ movhi
 258:lvgl/src/draw/sw/lv_draw_sw_transform.c **** 
 259:lvgl/src/draw/sw/lv_draw_sw_transform.c ****             const lv_opa_t * a_tmp = src + src_stride * src_h * sizeof(lv_color_t);
 358              		.loc 1 259 13 is_stmt 1 view .LVU106
 359              		.loc 1 259 55 is_stmt 0 view .LVU107
 360 0062 0AFB09F4 		mul	r4, r10, r9
 361              	.LVL45:
 260:lvgl/src/draw/sw/lv_draw_sw_transform.c ****             a_tmp += ys_int * src_stride + xs_int;
 362              		.loc 1 260 13 is_stmt 1 view .LVU108
 363              		.loc 1 260 19 is_stmt 0 view .LVU109
 364 0066 0EEB440E 		add	lr, lr, r4, lsl #1
 365              	.LVL46:
 261:lvgl/src/draw/sw/lv_draw_sw_transform.c ****             abuf[x] = *a_tmp;
 366              		.loc 1 261 13 is_stmt 1 view .LVU110
 367              		.loc 1 261 23 is_stmt 0 view .LVU111
 368 006a 1BF80E40 		ldrb	r4, [fp, lr]	@ zero_extendqisi2
 369              		.loc 1 261 21 view .LVU112
 370 006e 01F80C40 		strb	r4, [r1, ip]
 371 0072 D7E7     		b	.L16
 372              	.LVL47:
 373              	.L19:
 374              		.loc 1 261 21 view .LVU113
 375              	.LBE11:
 376              	.LBE12:
ARM GAS  /var/folders/21/t9g5rlb91ys800n5npymflf80000gn/T//ccApAxk1.s 			page 21


 262:lvgl/src/draw/sw/lv_draw_sw_transform.c ****         }
 263:lvgl/src/draw/sw/lv_draw_sw_transform.c ****     }
 264:lvgl/src/draw/sw/lv_draw_sw_transform.c **** }
 377              		.loc 1 264 1 view .LVU114
 378 0074 BDE8F08F 		pop	{r4, r5, r6, r7, r8, r9, r10, fp, pc}
 379              		.loc 1 264 1 view .LVU115
 380              		.cfi_endproc
 381              	.LFE164:
 383              		.section	.text.transform_point_upscaled,"ax",%progbits
 384              		.align	1
 385              		.syntax unified
 386              		.thumb
 387              		.thumb_func
 389              	transform_point_upscaled:
 390              	.LVL48:
 391              	.LFB166:
 265:lvgl/src/draw/sw/lv_draw_sw_transform.c **** #endif
 266:lvgl/src/draw/sw/lv_draw_sw_transform.c **** 
 267:lvgl/src/draw/sw/lv_draw_sw_transform.c **** static void argb_and_rgb_aa(const uint8_t * src, lv_coord_t src_w, lv_coord_t src_h, lv_coord_t src
 268:lvgl/src/draw/sw/lv_draw_sw_transform.c ****                             int32_t xs_ups, int32_t ys_ups, int32_t xs_step, int32_t ys_step,
 269:lvgl/src/draw/sw/lv_draw_sw_transform.c ****                             int32_t x_end, lv_color_t * cbuf, uint8_t * abuf, lv_img_cf_t cf)
 270:lvgl/src/draw/sw/lv_draw_sw_transform.c **** {
 271:lvgl/src/draw/sw/lv_draw_sw_transform.c ****     int32_t xs_ups_start = xs_ups;
 272:lvgl/src/draw/sw/lv_draw_sw_transform.c ****     int32_t ys_ups_start = ys_ups;
 273:lvgl/src/draw/sw/lv_draw_sw_transform.c ****     bool has_alpha;
 274:lvgl/src/draw/sw/lv_draw_sw_transform.c ****     int32_t px_size;
 275:lvgl/src/draw/sw/lv_draw_sw_transform.c ****     lv_color_t ck = _LV_COLOR_ZERO_INITIALIZER;
 276:lvgl/src/draw/sw/lv_draw_sw_transform.c ****     switch(cf) {
 277:lvgl/src/draw/sw/lv_draw_sw_transform.c ****         case LV_IMG_CF_TRUE_COLOR:
 278:lvgl/src/draw/sw/lv_draw_sw_transform.c ****             has_alpha = false;
 279:lvgl/src/draw/sw/lv_draw_sw_transform.c ****             px_size = sizeof(lv_color_t);
 280:lvgl/src/draw/sw/lv_draw_sw_transform.c ****             break;
 281:lvgl/src/draw/sw/lv_draw_sw_transform.c ****         case LV_IMG_CF_TRUE_COLOR_ALPHA:
 282:lvgl/src/draw/sw/lv_draw_sw_transform.c ****             has_alpha = true;
 283:lvgl/src/draw/sw/lv_draw_sw_transform.c ****             px_size = LV_IMG_PX_SIZE_ALPHA_BYTE;
 284:lvgl/src/draw/sw/lv_draw_sw_transform.c ****             break;
 285:lvgl/src/draw/sw/lv_draw_sw_transform.c ****         case LV_IMG_CF_TRUE_COLOR_CHROMA_KEYED: {
 286:lvgl/src/draw/sw/lv_draw_sw_transform.c ****                 has_alpha = true;
 287:lvgl/src/draw/sw/lv_draw_sw_transform.c ****                 px_size = sizeof(lv_color_t);
 288:lvgl/src/draw/sw/lv_draw_sw_transform.c ****                 lv_disp_t * d = _lv_refr_get_disp_refreshing();
 289:lvgl/src/draw/sw/lv_draw_sw_transform.c ****                 ck = d->driver->color_chroma_key;
 290:lvgl/src/draw/sw/lv_draw_sw_transform.c ****                 break;
 291:lvgl/src/draw/sw/lv_draw_sw_transform.c ****             }
 292:lvgl/src/draw/sw/lv_draw_sw_transform.c **** #if LV_COLOR_DEPTH == 16
 293:lvgl/src/draw/sw/lv_draw_sw_transform.c ****         case LV_IMG_CF_RGB565A8:
 294:lvgl/src/draw/sw/lv_draw_sw_transform.c ****             has_alpha = true;
 295:lvgl/src/draw/sw/lv_draw_sw_transform.c ****             px_size = sizeof(lv_color_t);
 296:lvgl/src/draw/sw/lv_draw_sw_transform.c ****             break;
 297:lvgl/src/draw/sw/lv_draw_sw_transform.c **** #endif
 298:lvgl/src/draw/sw/lv_draw_sw_transform.c ****         default:
 299:lvgl/src/draw/sw/lv_draw_sw_transform.c ****             return;
 300:lvgl/src/draw/sw/lv_draw_sw_transform.c ****     }
 301:lvgl/src/draw/sw/lv_draw_sw_transform.c **** 
 302:lvgl/src/draw/sw/lv_draw_sw_transform.c ****     lv_coord_t x;
 303:lvgl/src/draw/sw/lv_draw_sw_transform.c ****     for(x = 0; x < x_end; x++) {
 304:lvgl/src/draw/sw/lv_draw_sw_transform.c ****         xs_ups = xs_ups_start + ((xs_step * x) >> 8);
 305:lvgl/src/draw/sw/lv_draw_sw_transform.c ****         ys_ups = ys_ups_start + ((ys_step * x) >> 8);
ARM GAS  /var/folders/21/t9g5rlb91ys800n5npymflf80000gn/T//ccApAxk1.s 			page 22


 306:lvgl/src/draw/sw/lv_draw_sw_transform.c **** 
 307:lvgl/src/draw/sw/lv_draw_sw_transform.c ****         int32_t xs_int = xs_ups >> 8;
 308:lvgl/src/draw/sw/lv_draw_sw_transform.c ****         int32_t ys_int = ys_ups >> 8;
 309:lvgl/src/draw/sw/lv_draw_sw_transform.c **** 
 310:lvgl/src/draw/sw/lv_draw_sw_transform.c ****         /*Fully out of the image*/
 311:lvgl/src/draw/sw/lv_draw_sw_transform.c ****         if(xs_int < 0 || xs_int >= src_w || ys_int < 0 || ys_int >= src_h) {
 312:lvgl/src/draw/sw/lv_draw_sw_transform.c ****             abuf[x] = 0x00;
 313:lvgl/src/draw/sw/lv_draw_sw_transform.c ****             continue;
 314:lvgl/src/draw/sw/lv_draw_sw_transform.c ****         }
 315:lvgl/src/draw/sw/lv_draw_sw_transform.c **** 
 316:lvgl/src/draw/sw/lv_draw_sw_transform.c ****         /*Get the direction the hor and ver neighbor
 317:lvgl/src/draw/sw/lv_draw_sw_transform.c ****          *`fract` will be in range of 0x00..0xFF and `next` (+/-1) indicates the direction*/
 318:lvgl/src/draw/sw/lv_draw_sw_transform.c ****         int32_t xs_fract = xs_ups & 0xFF;
 319:lvgl/src/draw/sw/lv_draw_sw_transform.c ****         int32_t ys_fract = ys_ups & 0xFF;
 320:lvgl/src/draw/sw/lv_draw_sw_transform.c **** 
 321:lvgl/src/draw/sw/lv_draw_sw_transform.c ****         int32_t x_next;
 322:lvgl/src/draw/sw/lv_draw_sw_transform.c ****         int32_t y_next;
 323:lvgl/src/draw/sw/lv_draw_sw_transform.c ****         if(xs_fract < 0x80) {
 324:lvgl/src/draw/sw/lv_draw_sw_transform.c ****             x_next = -1;
 325:lvgl/src/draw/sw/lv_draw_sw_transform.c ****             xs_fract = (0x7F - xs_fract) * 2;
 326:lvgl/src/draw/sw/lv_draw_sw_transform.c ****         }
 327:lvgl/src/draw/sw/lv_draw_sw_transform.c ****         else {
 328:lvgl/src/draw/sw/lv_draw_sw_transform.c ****             x_next = 1;
 329:lvgl/src/draw/sw/lv_draw_sw_transform.c ****             xs_fract = (xs_fract - 0x80) * 2;
 330:lvgl/src/draw/sw/lv_draw_sw_transform.c ****         }
 331:lvgl/src/draw/sw/lv_draw_sw_transform.c ****         if(ys_fract < 0x80) {
 332:lvgl/src/draw/sw/lv_draw_sw_transform.c ****             y_next = -1;
 333:lvgl/src/draw/sw/lv_draw_sw_transform.c ****             ys_fract = (0x7F - ys_fract) * 2;
 334:lvgl/src/draw/sw/lv_draw_sw_transform.c ****         }
 335:lvgl/src/draw/sw/lv_draw_sw_transform.c ****         else {
 336:lvgl/src/draw/sw/lv_draw_sw_transform.c ****             y_next = 1;
 337:lvgl/src/draw/sw/lv_draw_sw_transform.c ****             ys_fract = (ys_fract - 0x80) * 2;
 338:lvgl/src/draw/sw/lv_draw_sw_transform.c ****         }
 339:lvgl/src/draw/sw/lv_draw_sw_transform.c **** 
 340:lvgl/src/draw/sw/lv_draw_sw_transform.c ****         const uint8_t * src_tmp = src;
 341:lvgl/src/draw/sw/lv_draw_sw_transform.c ****         src_tmp += (ys_int * src_stride * px_size) + xs_int * px_size;
 342:lvgl/src/draw/sw/lv_draw_sw_transform.c **** 
 343:lvgl/src/draw/sw/lv_draw_sw_transform.c ****         if(xs_int + x_next >= 0 &&
 344:lvgl/src/draw/sw/lv_draw_sw_transform.c ****            xs_int + x_next <= src_w - 1 &&
 345:lvgl/src/draw/sw/lv_draw_sw_transform.c ****            ys_int + y_next >= 0 &&
 346:lvgl/src/draw/sw/lv_draw_sw_transform.c ****            ys_int + y_next <= src_h - 1) {
 347:lvgl/src/draw/sw/lv_draw_sw_transform.c **** 
 348:lvgl/src/draw/sw/lv_draw_sw_transform.c ****             const uint8_t * px_base = src_tmp;
 349:lvgl/src/draw/sw/lv_draw_sw_transform.c ****             const uint8_t * px_hor = src_tmp + x_next * px_size;
 350:lvgl/src/draw/sw/lv_draw_sw_transform.c ****             const uint8_t * px_ver = src_tmp + y_next * src_stride * px_size;
 351:lvgl/src/draw/sw/lv_draw_sw_transform.c ****             lv_color_t c_base;
 352:lvgl/src/draw/sw/lv_draw_sw_transform.c ****             lv_color_t c_ver;
 353:lvgl/src/draw/sw/lv_draw_sw_transform.c ****             lv_color_t c_hor;
 354:lvgl/src/draw/sw/lv_draw_sw_transform.c **** 
 355:lvgl/src/draw/sw/lv_draw_sw_transform.c ****             if(has_alpha) {
 356:lvgl/src/draw/sw/lv_draw_sw_transform.c ****                 lv_opa_t a_base;
 357:lvgl/src/draw/sw/lv_draw_sw_transform.c ****                 lv_opa_t a_ver;
 358:lvgl/src/draw/sw/lv_draw_sw_transform.c ****                 lv_opa_t a_hor;
 359:lvgl/src/draw/sw/lv_draw_sw_transform.c ****                 if(cf == LV_IMG_CF_TRUE_COLOR_ALPHA) {
 360:lvgl/src/draw/sw/lv_draw_sw_transform.c ****                     a_base = px_base[LV_IMG_PX_SIZE_ALPHA_BYTE - 1];
 361:lvgl/src/draw/sw/lv_draw_sw_transform.c ****                     a_ver = px_ver[LV_IMG_PX_SIZE_ALPHA_BYTE - 1];
 362:lvgl/src/draw/sw/lv_draw_sw_transform.c ****                     a_hor = px_hor[LV_IMG_PX_SIZE_ALPHA_BYTE - 1];
ARM GAS  /var/folders/21/t9g5rlb91ys800n5npymflf80000gn/T//ccApAxk1.s 			page 23


 363:lvgl/src/draw/sw/lv_draw_sw_transform.c ****                 }
 364:lvgl/src/draw/sw/lv_draw_sw_transform.c **** #if LV_COLOR_DEPTH == 16
 365:lvgl/src/draw/sw/lv_draw_sw_transform.c ****                 else if(cf == LV_IMG_CF_RGB565A8) {
 366:lvgl/src/draw/sw/lv_draw_sw_transform.c ****                     const lv_opa_t * a_tmp = src + src_stride * src_h * sizeof(lv_color_t);
 367:lvgl/src/draw/sw/lv_draw_sw_transform.c ****                     a_base = *(a_tmp + (ys_int * src_stride) + xs_int);
 368:lvgl/src/draw/sw/lv_draw_sw_transform.c ****                     a_hor = *(a_tmp + (ys_int * src_stride) + xs_int + x_next);
 369:lvgl/src/draw/sw/lv_draw_sw_transform.c ****                     a_ver = *(a_tmp + ((ys_int + y_next) * src_stride) + xs_int);
 370:lvgl/src/draw/sw/lv_draw_sw_transform.c ****                 }
 371:lvgl/src/draw/sw/lv_draw_sw_transform.c **** #endif
 372:lvgl/src/draw/sw/lv_draw_sw_transform.c ****                 else if(cf == LV_IMG_CF_TRUE_COLOR_CHROMA_KEYED) {
 373:lvgl/src/draw/sw/lv_draw_sw_transform.c ****                     if(((lv_color_t *)px_base)->full == ck.full ||
 374:lvgl/src/draw/sw/lv_draw_sw_transform.c ****                        ((lv_color_t *)px_ver)->full == ck.full ||
 375:lvgl/src/draw/sw/lv_draw_sw_transform.c ****                        ((lv_color_t *)px_hor)->full == ck.full) {
 376:lvgl/src/draw/sw/lv_draw_sw_transform.c ****                         abuf[x] = 0x00;
 377:lvgl/src/draw/sw/lv_draw_sw_transform.c ****                         continue;
 378:lvgl/src/draw/sw/lv_draw_sw_transform.c ****                     }
 379:lvgl/src/draw/sw/lv_draw_sw_transform.c ****                     else {
 380:lvgl/src/draw/sw/lv_draw_sw_transform.c ****                         a_base = 0xff;
 381:lvgl/src/draw/sw/lv_draw_sw_transform.c ****                         a_ver = 0xff;
 382:lvgl/src/draw/sw/lv_draw_sw_transform.c ****                         a_hor = 0xff;
 383:lvgl/src/draw/sw/lv_draw_sw_transform.c ****                     }
 384:lvgl/src/draw/sw/lv_draw_sw_transform.c ****                 }
 385:lvgl/src/draw/sw/lv_draw_sw_transform.c ****                 else {
 386:lvgl/src/draw/sw/lv_draw_sw_transform.c ****                     a_base = 0xff;
 387:lvgl/src/draw/sw/lv_draw_sw_transform.c ****                     a_ver = 0xff;
 388:lvgl/src/draw/sw/lv_draw_sw_transform.c ****                     a_hor = 0xff;
 389:lvgl/src/draw/sw/lv_draw_sw_transform.c ****                 }
 390:lvgl/src/draw/sw/lv_draw_sw_transform.c **** 
 391:lvgl/src/draw/sw/lv_draw_sw_transform.c ****                 if(a_ver != a_base) a_ver = ((a_ver * ys_fract) + (a_base * (0x100 - ys_fract))) >>
 392:lvgl/src/draw/sw/lv_draw_sw_transform.c ****                 if(a_hor != a_base) a_hor = ((a_hor * xs_fract) + (a_base * (0x100 - xs_fract))) >>
 393:lvgl/src/draw/sw/lv_draw_sw_transform.c ****                 abuf[x] = (a_ver + a_hor) >> 1;
 394:lvgl/src/draw/sw/lv_draw_sw_transform.c **** 
 395:lvgl/src/draw/sw/lv_draw_sw_transform.c ****                 if(abuf[x] == 0x00) continue;
 396:lvgl/src/draw/sw/lv_draw_sw_transform.c **** 
 397:lvgl/src/draw/sw/lv_draw_sw_transform.c **** #if LV_COLOR_DEPTH == 1 || LV_COLOR_DEPTH == 8
 398:lvgl/src/draw/sw/lv_draw_sw_transform.c ****                 c_base.full = px_base[0];
 399:lvgl/src/draw/sw/lv_draw_sw_transform.c ****                 c_ver.full = px_ver[0];
 400:lvgl/src/draw/sw/lv_draw_sw_transform.c ****                 c_hor.full = px_hor[0];
 401:lvgl/src/draw/sw/lv_draw_sw_transform.c **** #elif LV_COLOR_DEPTH == 16
 402:lvgl/src/draw/sw/lv_draw_sw_transform.c ****                 c_base.full = px_base[0] + (px_base[1] << 8);
 403:lvgl/src/draw/sw/lv_draw_sw_transform.c ****                 c_ver.full = px_ver[0] + (px_ver[1] << 8);
 404:lvgl/src/draw/sw/lv_draw_sw_transform.c ****                 c_hor.full = px_hor[0] + (px_hor[1] << 8);
 405:lvgl/src/draw/sw/lv_draw_sw_transform.c **** #elif LV_COLOR_DEPTH == 32
 406:lvgl/src/draw/sw/lv_draw_sw_transform.c ****                 c_base.full = *((uint32_t *)px_base);
 407:lvgl/src/draw/sw/lv_draw_sw_transform.c ****                 c_ver.full = *((uint32_t *)px_ver);
 408:lvgl/src/draw/sw/lv_draw_sw_transform.c ****                 c_hor.full = *((uint32_t *)px_hor);
 409:lvgl/src/draw/sw/lv_draw_sw_transform.c **** #endif
 410:lvgl/src/draw/sw/lv_draw_sw_transform.c ****             }
 411:lvgl/src/draw/sw/lv_draw_sw_transform.c ****             /*No alpha channel -> RGB*/
 412:lvgl/src/draw/sw/lv_draw_sw_transform.c ****             else {
 413:lvgl/src/draw/sw/lv_draw_sw_transform.c ****                 c_base = *((const lv_color_t *) px_base);
 414:lvgl/src/draw/sw/lv_draw_sw_transform.c ****                 c_hor = *((const lv_color_t *) px_hor);
 415:lvgl/src/draw/sw/lv_draw_sw_transform.c ****                 c_ver = *((const lv_color_t *) px_ver);
 416:lvgl/src/draw/sw/lv_draw_sw_transform.c ****                 abuf[x] = 0xff;
 417:lvgl/src/draw/sw/lv_draw_sw_transform.c ****             }
 418:lvgl/src/draw/sw/lv_draw_sw_transform.c **** 
 419:lvgl/src/draw/sw/lv_draw_sw_transform.c ****             if(c_base.full == c_ver.full && c_base.full == c_hor.full) {
ARM GAS  /var/folders/21/t9g5rlb91ys800n5npymflf80000gn/T//ccApAxk1.s 			page 24


 420:lvgl/src/draw/sw/lv_draw_sw_transform.c ****                 cbuf[x] = c_base;
 421:lvgl/src/draw/sw/lv_draw_sw_transform.c ****             }
 422:lvgl/src/draw/sw/lv_draw_sw_transform.c ****             else {
 423:lvgl/src/draw/sw/lv_draw_sw_transform.c ****                 c_ver = lv_color_mix(c_ver, c_base, ys_fract);
 424:lvgl/src/draw/sw/lv_draw_sw_transform.c ****                 c_hor = lv_color_mix(c_hor, c_base, xs_fract);
 425:lvgl/src/draw/sw/lv_draw_sw_transform.c ****                 cbuf[x] = lv_color_mix(c_hor, c_ver, LV_OPA_50);
 426:lvgl/src/draw/sw/lv_draw_sw_transform.c ****             }
 427:lvgl/src/draw/sw/lv_draw_sw_transform.c ****         }
 428:lvgl/src/draw/sw/lv_draw_sw_transform.c ****         /*Partially out of the image*/
 429:lvgl/src/draw/sw/lv_draw_sw_transform.c ****         else {
 430:lvgl/src/draw/sw/lv_draw_sw_transform.c **** #if LV_COLOR_DEPTH == 1 || LV_COLOR_DEPTH == 8
 431:lvgl/src/draw/sw/lv_draw_sw_transform.c ****             cbuf[x].full = src_tmp[0];
 432:lvgl/src/draw/sw/lv_draw_sw_transform.c **** #elif LV_COLOR_DEPTH == 16
 433:lvgl/src/draw/sw/lv_draw_sw_transform.c ****             cbuf[x].full = src_tmp[0] + (src_tmp[1] << 8);
 434:lvgl/src/draw/sw/lv_draw_sw_transform.c **** #elif LV_COLOR_DEPTH == 32
 435:lvgl/src/draw/sw/lv_draw_sw_transform.c ****             cbuf[x].full = *((uint32_t *)src_tmp);
 436:lvgl/src/draw/sw/lv_draw_sw_transform.c **** #endif
 437:lvgl/src/draw/sw/lv_draw_sw_transform.c ****             lv_opa_t a;
 438:lvgl/src/draw/sw/lv_draw_sw_transform.c ****             switch(cf) {
 439:lvgl/src/draw/sw/lv_draw_sw_transform.c ****                 case LV_IMG_CF_TRUE_COLOR_ALPHA:
 440:lvgl/src/draw/sw/lv_draw_sw_transform.c ****                     a = src_tmp[LV_IMG_PX_SIZE_ALPHA_BYTE - 1];
 441:lvgl/src/draw/sw/lv_draw_sw_transform.c ****                     break;
 442:lvgl/src/draw/sw/lv_draw_sw_transform.c ****                 case LV_IMG_CF_TRUE_COLOR_CHROMA_KEYED:
 443:lvgl/src/draw/sw/lv_draw_sw_transform.c ****                     a = cbuf[x].full == ck.full ? 0x00 : 0xff;
 444:lvgl/src/draw/sw/lv_draw_sw_transform.c ****                     break;
 445:lvgl/src/draw/sw/lv_draw_sw_transform.c **** #if LV_COLOR_DEPTH == 16
 446:lvgl/src/draw/sw/lv_draw_sw_transform.c ****                 case LV_IMG_CF_RGB565A8:
 447:lvgl/src/draw/sw/lv_draw_sw_transform.c ****                     a = *(src + src_stride * src_h * sizeof(lv_color_t) + (ys_int * src_stride) + x
 448:lvgl/src/draw/sw/lv_draw_sw_transform.c ****                     break;
 449:lvgl/src/draw/sw/lv_draw_sw_transform.c **** #endif
 450:lvgl/src/draw/sw/lv_draw_sw_transform.c ****                 default:
 451:lvgl/src/draw/sw/lv_draw_sw_transform.c ****                     a = 0xff;
 452:lvgl/src/draw/sw/lv_draw_sw_transform.c ****             }
 453:lvgl/src/draw/sw/lv_draw_sw_transform.c **** 
 454:lvgl/src/draw/sw/lv_draw_sw_transform.c ****             if((xs_int == 0 && x_next < 0) || (xs_int == src_w - 1 && x_next > 0))  {
 455:lvgl/src/draw/sw/lv_draw_sw_transform.c ****                 abuf[x] = (a * (0xFF - xs_fract)) >> 8;
 456:lvgl/src/draw/sw/lv_draw_sw_transform.c ****             }
 457:lvgl/src/draw/sw/lv_draw_sw_transform.c ****             else if((ys_int == 0 && y_next < 0) || (ys_int == src_h - 1 && y_next > 0))  {
 458:lvgl/src/draw/sw/lv_draw_sw_transform.c ****                 abuf[x] = (a * (0xFF - ys_fract)) >> 8;
 459:lvgl/src/draw/sw/lv_draw_sw_transform.c ****             }
 460:lvgl/src/draw/sw/lv_draw_sw_transform.c ****             else {
 461:lvgl/src/draw/sw/lv_draw_sw_transform.c ****                 abuf[x] = 0x00;
 462:lvgl/src/draw/sw/lv_draw_sw_transform.c ****             }
 463:lvgl/src/draw/sw/lv_draw_sw_transform.c ****         }
 464:lvgl/src/draw/sw/lv_draw_sw_transform.c ****     }
 465:lvgl/src/draw/sw/lv_draw_sw_transform.c **** }
 466:lvgl/src/draw/sw/lv_draw_sw_transform.c **** 
 467:lvgl/src/draw/sw/lv_draw_sw_transform.c **** static void transform_point_upscaled(point_transform_dsc_t * t, int32_t xin, int32_t yin, int32_t *
 468:lvgl/src/draw/sw/lv_draw_sw_transform.c ****                                      int32_t * yout)
 469:lvgl/src/draw/sw/lv_draw_sw_transform.c **** {
 392              		.loc 1 469 1 is_stmt 1 view -0
 393              		.cfi_startproc
 394              		@ args = 4, pretend = 0, frame = 0
 395              		@ frame_needed = 0, uses_anonymous_args = 0
 396              		@ link register save eliminated.
 397              		.loc 1 469 1 is_stmt 0 view .LVU117
 398 0000 30B4     		push	{r4, r5}
ARM GAS  /var/folders/21/t9g5rlb91ys800n5npymflf80000gn/T//ccApAxk1.s 			page 25


 399              	.LCFI4:
 400              		.cfi_def_cfa_offset 8
 401              		.cfi_offset 4, -8
 402              		.cfi_offset 5, -4
 470:lvgl/src/draw/sw/lv_draw_sw_transform.c ****     if(t->angle == 0 && t->zoom == LV_IMG_ZOOM_NONE) {
 403              		.loc 1 470 5 is_stmt 1 view .LVU118
 404              		.loc 1 470 9 is_stmt 0 view .LVU119
 405 0002 C469     		ldr	r4, [r0, #28]
 406              		.loc 1 470 7 view .LVU120
 407 0004 1CB9     		cbnz	r4, .L21
 408              		.loc 1 470 22 discriminator 1 view .LVU121
 409 0006 8569     		ldr	r5, [r0, #24]
 410 0008 B5F5807F 		cmp	r5, #256
 411 000c 15D0     		beq	.L26
 412              	.L21:
 471:lvgl/src/draw/sw/lv_draw_sw_transform.c ****         *xout = xin * 256;
 472:lvgl/src/draw/sw/lv_draw_sw_transform.c ****         *yout = yin * 256;
 473:lvgl/src/draw/sw/lv_draw_sw_transform.c ****         return;
 474:lvgl/src/draw/sw/lv_draw_sw_transform.c ****     }
 475:lvgl/src/draw/sw/lv_draw_sw_transform.c **** 
 476:lvgl/src/draw/sw/lv_draw_sw_transform.c ****     xin -= t->pivot.x;
 413              		.loc 1 476 5 is_stmt 1 view .LVU122
 414              		.loc 1 476 20 is_stmt 0 view .LVU123
 415 000e B0F928C0 		ldrsh	ip, [r0, #40]
 416              		.loc 1 476 9 view .LVU124
 417 0012 A1EB0C01 		sub	r1, r1, ip
 418              	.LVL49:
 477:lvgl/src/draw/sw/lv_draw_sw_transform.c ****     yin -= t->pivot.y;
 419              		.loc 1 477 5 is_stmt 1 view .LVU125
 420              		.loc 1 477 20 is_stmt 0 view .LVU126
 421 0016 B0F92AC0 		ldrsh	ip, [r0, #42]
 422              		.loc 1 477 9 view .LVU127
 423 001a A2EB0C02 		sub	r2, r2, ip
 424              	.LVL50:
 478:lvgl/src/draw/sw/lv_draw_sw_transform.c **** 
 479:lvgl/src/draw/sw/lv_draw_sw_transform.c ****     if(t->angle == 0) {
 425              		.loc 1 479 5 is_stmt 1 view .LVU128
 426              		.loc 1 479 7 is_stmt 0 view .LVU129
 427 001e 94B9     		cbnz	r4, .L23
 480:lvgl/src/draw/sw/lv_draw_sw_transform.c ****         *xout = ((int32_t)(xin * t->zoom)) + (t->pivot_x_256);
 428              		.loc 1 480 9 is_stmt 1 view .LVU130
 429              		.loc 1 480 48 is_stmt 0 view .LVU131
 430 0020 046A     		ldr	r4, [r0, #32]
 431              		.loc 1 480 44 view .LVU132
 432 0022 8569     		ldr	r5, [r0, #24]
 433 0024 01FB0544 		mla	r4, r1, r5, r4
 434              		.loc 1 480 15 view .LVU133
 435 0028 1C60     		str	r4, [r3]
 481:lvgl/src/draw/sw/lv_draw_sw_transform.c ****         *yout = ((int32_t)(yin * t->zoom)) + (t->pivot_y_256);
 436              		.loc 1 481 9 is_stmt 1 view .LVU134
 437              		.loc 1 481 35 is_stmt 0 view .LVU135
 438 002a 8169     		ldr	r1, [r0, #24]
 439              	.LVL51:
 440              		.loc 1 481 48 view .LVU136
 441 002c 436A     		ldr	r3, [r0, #36]
 442              	.LVL52:
 443              		.loc 1 481 44 view .LVU137
ARM GAS  /var/folders/21/t9g5rlb91ys800n5npymflf80000gn/T//ccApAxk1.s 			page 26


 444 002e 02FB0133 		mla	r3, r2, r1, r3
 445              		.loc 1 481 15 view .LVU138
 446 0032 029A     		ldr	r2, [sp, #8]
 447              	.LVL53:
 448              		.loc 1 481 15 view .LVU139
 449 0034 1360     		str	r3, [r2]
 450              	.LVL54:
 451              	.L20:
 482:lvgl/src/draw/sw/lv_draw_sw_transform.c ****     }
 483:lvgl/src/draw/sw/lv_draw_sw_transform.c ****     else if(t->zoom == LV_IMG_ZOOM_NONE) {
 484:lvgl/src/draw/sw/lv_draw_sw_transform.c ****         *xout = ((t->cosma * xin - t->sinma * yin) >> 2) + (t->pivot_x_256);
 485:lvgl/src/draw/sw/lv_draw_sw_transform.c ****         *yout = ((t->sinma * xin + t->cosma * yin) >> 2) + (t->pivot_y_256);
 486:lvgl/src/draw/sw/lv_draw_sw_transform.c ****     }
 487:lvgl/src/draw/sw/lv_draw_sw_transform.c ****     else {
 488:lvgl/src/draw/sw/lv_draw_sw_transform.c ****         *xout = (((t->cosma * xin - t->sinma * yin) * t->zoom) >> 10) + (t->pivot_x_256);
 489:lvgl/src/draw/sw/lv_draw_sw_transform.c ****         *yout = (((t->sinma * xin + t->cosma * yin) * t->zoom) >> 10) + (t->pivot_y_256);
 490:lvgl/src/draw/sw/lv_draw_sw_transform.c ****     }
 491:lvgl/src/draw/sw/lv_draw_sw_transform.c **** }
 452              		.loc 1 491 1 view .LVU140
 453 0036 30BC     		pop	{r4, r5}
 454              	.LCFI5:
 455              		.cfi_remember_state
 456              		.cfi_restore 5
 457              		.cfi_restore 4
 458              		.cfi_def_cfa_offset 0
 459              	.LVL55:
 460              		.loc 1 491 1 view .LVU141
 461 0038 7047     		bx	lr
 462              	.LVL56:
 463              	.L26:
 464              	.LCFI6:
 465              		.cfi_restore_state
 471:lvgl/src/draw/sw/lv_draw_sw_transform.c ****         *yout = yin * 256;
 466              		.loc 1 471 9 is_stmt 1 view .LVU142
 471:lvgl/src/draw/sw/lv_draw_sw_transform.c ****         *yout = yin * 256;
 467              		.loc 1 471 21 is_stmt 0 view .LVU143
 468 003a 0902     		lsls	r1, r1, #8
 469              	.LVL57:
 471:lvgl/src/draw/sw/lv_draw_sw_transform.c ****         *yout = yin * 256;
 470              		.loc 1 471 15 view .LVU144
 471 003c 1960     		str	r1, [r3]
 472:lvgl/src/draw/sw/lv_draw_sw_transform.c ****         return;
 472              		.loc 1 472 9 is_stmt 1 view .LVU145
 472:lvgl/src/draw/sw/lv_draw_sw_transform.c ****         return;
 473              		.loc 1 472 21 is_stmt 0 view .LVU146
 474 003e 1202     		lsls	r2, r2, #8
 475              	.LVL58:
 472:lvgl/src/draw/sw/lv_draw_sw_transform.c ****         return;
 476              		.loc 1 472 15 view .LVU147
 477 0040 029B     		ldr	r3, [sp, #8]
 478              	.LVL59:
 472:lvgl/src/draw/sw/lv_draw_sw_transform.c ****         return;
 479              		.loc 1 472 15 view .LVU148
 480 0042 1A60     		str	r2, [r3]
 473:lvgl/src/draw/sw/lv_draw_sw_transform.c ****     }
 481              		.loc 1 473 9 is_stmt 1 view .LVU149
 482 0044 F7E7     		b	.L20
ARM GAS  /var/folders/21/t9g5rlb91ys800n5npymflf80000gn/T//ccApAxk1.s 			page 27


 483              	.LVL60:
 484              	.L23:
 483:lvgl/src/draw/sw/lv_draw_sw_transform.c ****         *xout = ((t->cosma * xin - t->sinma * yin) >> 2) + (t->pivot_x_256);
 485              		.loc 1 483 10 view .LVU150
 483:lvgl/src/draw/sw/lv_draw_sw_transform.c ****         *xout = ((t->cosma * xin - t->sinma * yin) >> 2) + (t->pivot_x_256);
 486              		.loc 1 483 14 is_stmt 0 view .LVU151
 487 0046 8469     		ldr	r4, [r0, #24]
 483:lvgl/src/draw/sw/lv_draw_sw_transform.c ****         *xout = ((t->cosma * xin - t->sinma * yin) >> 2) + (t->pivot_x_256);
 488              		.loc 1 483 12 view .LVU152
 489 0048 B4F5807F 		cmp	r4, #256
 490 004c 1AD0     		beq	.L27
 488:lvgl/src/draw/sw/lv_draw_sw_transform.c ****         *yout = (((t->sinma * xin + t->cosma * yin) * t->zoom) >> 10) + (t->pivot_y_256);
 491              		.loc 1 488 9 is_stmt 1 view .LVU153
 488:lvgl/src/draw/sw/lv_draw_sw_transform.c ****         *yout = (((t->sinma * xin + t->cosma * yin) * t->zoom) >> 10) + (t->pivot_y_256);
 492              		.loc 1 488 29 is_stmt 0 view .LVU154
 493 004e 4569     		ldr	r5, [r0, #20]
 494 0050 01FB05FC 		mul	ip, r1, r5
 488:lvgl/src/draw/sw/lv_draw_sw_transform.c ****         *yout = (((t->sinma * xin + t->cosma * yin) * t->zoom) >> 10) + (t->pivot_y_256);
 495              		.loc 1 488 35 view .LVU155
 496 0054 0569     		ldr	r5, [r0, #16]
 497 0056 02FB15CC 		mls	ip, r2, r5, ip
 488:lvgl/src/draw/sw/lv_draw_sw_transform.c ****         *yout = (((t->sinma * xin + t->cosma * yin) * t->zoom) >> 10) + (t->pivot_y_256);
 498              		.loc 1 488 53 view .LVU156
 499 005a 0CFB04F4 		mul	r4, ip, r4
 488:lvgl/src/draw/sw/lv_draw_sw_transform.c ****         *yout = (((t->sinma * xin + t->cosma * yin) * t->zoom) >> 10) + (t->pivot_y_256);
 500              		.loc 1 488 71 view .LVU157
 501 005e 056A     		ldr	r5, [r0, #32]
 502 0060 05EBA424 		add	r4, r5, r4, asr #10
 488:lvgl/src/draw/sw/lv_draw_sw_transform.c ****         *yout = (((t->sinma * xin + t->cosma * yin) * t->zoom) >> 10) + (t->pivot_y_256);
 503              		.loc 1 488 15 view .LVU158
 504 0064 1C60     		str	r4, [r3]
 489:lvgl/src/draw/sw/lv_draw_sw_transform.c ****     }
 505              		.loc 1 489 9 is_stmt 1 view .LVU159
 489:lvgl/src/draw/sw/lv_draw_sw_transform.c ****     }
 506              		.loc 1 489 21 is_stmt 0 view .LVU160
 507 0066 0469     		ldr	r4, [r0, #16]
 489:lvgl/src/draw/sw/lv_draw_sw_transform.c ****     }
 508              		.loc 1 489 38 view .LVU161
 509 0068 4369     		ldr	r3, [r0, #20]
 510              	.LVL61:
 489:lvgl/src/draw/sw/lv_draw_sw_transform.c ****     }
 511              		.loc 1 489 46 view .LVU162
 512 006a 02FB03F3 		mul	r3, r2, r3
 489:lvgl/src/draw/sw/lv_draw_sw_transform.c ****     }
 513              		.loc 1 489 35 view .LVU163
 514 006e 01FB0433 		mla	r3, r1, r4, r3
 489:lvgl/src/draw/sw/lv_draw_sw_transform.c ****     }
 515              		.loc 1 489 56 view .LVU164
 516 0072 8269     		ldr	r2, [r0, #24]
 517              	.LVL62:
 489:lvgl/src/draw/sw/lv_draw_sw_transform.c ****     }
 518              		.loc 1 489 53 view .LVU165
 519 0074 02FB03F3 		mul	r3, r2, r3
 489:lvgl/src/draw/sw/lv_draw_sw_transform.c ****     }
 520              		.loc 1 489 75 view .LVU166
 521 0078 426A     		ldr	r2, [r0, #36]
 489:lvgl/src/draw/sw/lv_draw_sw_transform.c ****     }
ARM GAS  /var/folders/21/t9g5rlb91ys800n5npymflf80000gn/T//ccApAxk1.s 			page 28


 522              		.loc 1 489 71 view .LVU167
 523 007a 02EBA323 		add	r3, r2, r3, asr #10
 489:lvgl/src/draw/sw/lv_draw_sw_transform.c ****     }
 524              		.loc 1 489 15 view .LVU168
 525 007e 029A     		ldr	r2, [sp, #8]
 526 0080 1360     		str	r3, [r2]
 527 0082 D8E7     		b	.L20
 528              	.LVL63:
 529              	.L27:
 484:lvgl/src/draw/sw/lv_draw_sw_transform.c ****         *yout = ((t->sinma * xin + t->cosma * yin) >> 2) + (t->pivot_y_256);
 530              		.loc 1 484 9 is_stmt 1 view .LVU169
 484:lvgl/src/draw/sw/lv_draw_sw_transform.c ****         *yout = ((t->sinma * xin + t->cosma * yin) >> 2) + (t->pivot_y_256);
 531              		.loc 1 484 20 is_stmt 0 view .LVU170
 532 0084 4469     		ldr	r4, [r0, #20]
 484:lvgl/src/draw/sw/lv_draw_sw_transform.c ****         *yout = ((t->sinma * xin + t->cosma * yin) >> 2) + (t->pivot_y_256);
 533              		.loc 1 484 28 view .LVU171
 534 0086 01FB04F4 		mul	r4, r1, r4
 484:lvgl/src/draw/sw/lv_draw_sw_transform.c ****         *yout = ((t->sinma * xin + t->cosma * yin) >> 2) + (t->pivot_y_256);
 535              		.loc 1 484 34 view .LVU172
 536 008a 0569     		ldr	r5, [r0, #16]
 537 008c 02FB1544 		mls	r4, r2, r5, r4
 484:lvgl/src/draw/sw/lv_draw_sw_transform.c ****         *yout = ((t->sinma * xin + t->cosma * yin) >> 2) + (t->pivot_y_256);
 538              		.loc 1 484 58 view .LVU173
 539 0090 056A     		ldr	r5, [r0, #32]
 540 0092 05EBA404 		add	r4, r5, r4, asr #2
 484:lvgl/src/draw/sw/lv_draw_sw_transform.c ****         *yout = ((t->sinma * xin + t->cosma * yin) >> 2) + (t->pivot_y_256);
 541              		.loc 1 484 15 view .LVU174
 542 0096 1C60     		str	r4, [r3]
 485:lvgl/src/draw/sw/lv_draw_sw_transform.c ****     }
 543              		.loc 1 485 9 is_stmt 1 view .LVU175
 485:lvgl/src/draw/sw/lv_draw_sw_transform.c ****     }
 544              		.loc 1 485 20 is_stmt 0 view .LVU176
 545 0098 0469     		ldr	r4, [r0, #16]
 485:lvgl/src/draw/sw/lv_draw_sw_transform.c ****     }
 546              		.loc 1 485 37 view .LVU177
 547 009a 4369     		ldr	r3, [r0, #20]
 548              	.LVL64:
 485:lvgl/src/draw/sw/lv_draw_sw_transform.c ****     }
 549              		.loc 1 485 45 view .LVU178
 550 009c 02FB03F3 		mul	r3, r2, r3
 485:lvgl/src/draw/sw/lv_draw_sw_transform.c ****     }
 551              		.loc 1 485 34 view .LVU179
 552 00a0 01FB0433 		mla	r3, r1, r4, r3
 485:lvgl/src/draw/sw/lv_draw_sw_transform.c ****     }
 553              		.loc 1 485 62 view .LVU180
 554 00a4 426A     		ldr	r2, [r0, #36]
 555              	.LVL65:
 485:lvgl/src/draw/sw/lv_draw_sw_transform.c ****     }
 556              		.loc 1 485 58 view .LVU181
 557 00a6 02EBA303 		add	r3, r2, r3, asr #2
 485:lvgl/src/draw/sw/lv_draw_sw_transform.c ****     }
 558              		.loc 1 485 15 view .LVU182
 559 00aa 029A     		ldr	r2, [sp, #8]
 560 00ac 1360     		str	r3, [r2]
 561 00ae C2E7     		b	.L20
 562              		.cfi_endproc
 563              	.LFE166:
ARM GAS  /var/folders/21/t9g5rlb91ys800n5npymflf80000gn/T//ccApAxk1.s 			page 29


 565              		.section	.text.argb_and_rgb_aa,"ax",%progbits
 566              		.align	1
 567              		.syntax unified
 568              		.thumb
 569              		.thumb_func
 571              	argb_and_rgb_aa:
 572              	.LVL66:
 573              	.LFB165:
 270:lvgl/src/draw/sw/lv_draw_sw_transform.c ****     int32_t xs_ups_start = xs_ups;
 574              		.loc 1 270 1 is_stmt 1 view -0
 575              		.cfi_startproc
 576              		@ args = 32, pretend = 0, frame = 56
 577              		@ frame_needed = 0, uses_anonymous_args = 0
 270:lvgl/src/draw/sw/lv_draw_sw_transform.c ****     int32_t xs_ups_start = xs_ups;
 578              		.loc 1 270 1 is_stmt 0 view .LVU184
 579 0000 2DE9F04F 		push	{r4, r5, r6, r7, r8, r9, r10, fp, lr}
 580              	.LCFI7:
 581              		.cfi_def_cfa_offset 36
 582              		.cfi_offset 4, -36
 583              		.cfi_offset 5, -32
 584              		.cfi_offset 6, -28
 585              		.cfi_offset 7, -24
 586              		.cfi_offset 8, -20
 587              		.cfi_offset 9, -16
 588              		.cfi_offset 10, -12
 589              		.cfi_offset 11, -8
 590              		.cfi_offset 14, -4
 591 0004 8FB0     		sub	sp, sp, #60
 592              	.LCFI8:
 593              		.cfi_def_cfa_offset 96
 594 0006 0190     		str	r0, [sp, #4]
 595 0008 8946     		mov	r9, r1
 596 000a 0092     		str	r2, [sp]
 597 000c 0493     		str	r3, [sp, #16]
 598 000e 9DF87CB0 		ldrb	fp, [sp, #124]	@ zero_extendqisi2
 271:lvgl/src/draw/sw/lv_draw_sw_transform.c ****     int32_t ys_ups_start = ys_ups;
 599              		.loc 1 271 5 is_stmt 1 view .LVU185
 600              	.LVL67:
 272:lvgl/src/draw/sw/lv_draw_sw_transform.c ****     bool has_alpha;
 601              		.loc 1 272 5 view .LVU186
 273:lvgl/src/draw/sw/lv_draw_sw_transform.c ****     int32_t px_size;
 602              		.loc 1 273 5 view .LVU187
 274:lvgl/src/draw/sw/lv_draw_sw_transform.c ****     lv_color_t ck = _LV_COLOR_ZERO_INITIALIZER;
 603              		.loc 1 274 5 view .LVU188
 275:lvgl/src/draw/sw/lv_draw_sw_transform.c ****     switch(cf) {
 604              		.loc 1 275 5 view .LVU189
 275:lvgl/src/draw/sw/lv_draw_sw_transform.c ****     switch(cf) {
 605              		.loc 1 275 16 is_stmt 0 view .LVU190
 606 0012 4FF0000A 		mov	r10, #0	@ movhi
 607              	.LVL68:
 275:lvgl/src/draw/sw/lv_draw_sw_transform.c ****     switch(cf) {
 608              		.loc 1 275 16 view .LVU191
 609 0016 6FF3040A 		bfc	r10, #0, #5
 610              	.LVL69:
 275:lvgl/src/draw/sw/lv_draw_sw_transform.c ****     switch(cf) {
 611              		.loc 1 275 16 view .LVU192
 612 001a 6FF34A1A 		bfc	r10, #5, #6
ARM GAS  /var/folders/21/t9g5rlb91ys800n5npymflf80000gn/T//ccApAxk1.s 			page 30


 275:lvgl/src/draw/sw/lv_draw_sw_transform.c ****     switch(cf) {
 613              		.loc 1 275 16 view .LVU193
 614 001e 6FF3CF2A 		bfc	r10, #11, #5
 276:lvgl/src/draw/sw/lv_draw_sw_transform.c ****         case LV_IMG_CF_TRUE_COLOR:
 615              		.loc 1 276 5 is_stmt 1 view .LVU194
 616 0022 ABF10403 		sub	r3, fp, #4
 617              	.LVL70:
 276:lvgl/src/draw/sw/lv_draw_sw_transform.c ****         case LV_IMG_CF_TRUE_COLOR:
 618              		.loc 1 276 5 is_stmt 0 view .LVU195
 619 0026 102B     		cmp	r3, #16
 620 0028 00F2A981 		bhi	.L28
 621 002c DFE813F0 		tbh	[pc, r3, lsl #1]
 622              	.LVL71:
 623              	.L31:
 624 0030 1100     		.2byte	(.L34-.L31)/2
 625 0032 3000     		.2byte	(.L66-.L31)/2
 626 0034 1600     		.2byte	(.L32-.L31)/2
 627 0036 A701     		.2byte	(.L28-.L31)/2
 628 0038 A701     		.2byte	(.L28-.L31)/2
 629 003a A701     		.2byte	(.L28-.L31)/2
 630 003c A701     		.2byte	(.L28-.L31)/2
 631 003e A701     		.2byte	(.L28-.L31)/2
 632 0040 A701     		.2byte	(.L28-.L31)/2
 633 0042 A701     		.2byte	(.L28-.L31)/2
 634 0044 A701     		.2byte	(.L28-.L31)/2
 635 0046 A701     		.2byte	(.L28-.L31)/2
 636 0048 A701     		.2byte	(.L28-.L31)/2
 637 004a A701     		.2byte	(.L28-.L31)/2
 638 004c A701     		.2byte	(.L28-.L31)/2
 639 004e A701     		.2byte	(.L28-.L31)/2
 640 0050 2B00     		.2byte	(.L30-.L31)/2
 641              		.p2align 1
 642              	.L34:
 276:lvgl/src/draw/sw/lv_draw_sw_transform.c ****         case LV_IMG_CF_TRUE_COLOR:
 643              		.loc 1 276 5 view .LVU196
 644 0052 0223     		movs	r3, #2
 645 0054 0393     		str	r3, [sp, #12]
 646 0056 0023     		movs	r3, #0
 647 0058 0B93     		str	r3, [sp, #44]
 648 005a 08E0     		b	.L33
 649              	.L32:
 650              	.LBB13:
 286:lvgl/src/draw/sw/lv_draw_sw_transform.c ****                 px_size = sizeof(lv_color_t);
 651              		.loc 1 286 17 is_stmt 1 view .LVU197
 652              	.LVL72:
 287:lvgl/src/draw/sw/lv_draw_sw_transform.c ****                 lv_disp_t * d = _lv_refr_get_disp_refreshing();
 653              		.loc 1 287 17 view .LVU198
 288:lvgl/src/draw/sw/lv_draw_sw_transform.c ****                 ck = d->driver->color_chroma_key;
 654              		.loc 1 288 17 view .LVU199
 288:lvgl/src/draw/sw/lv_draw_sw_transform.c ****                 ck = d->driver->color_chroma_key;
 655              		.loc 1 288 33 is_stmt 0 view .LVU200
 656 005c FFF7FEFF 		bl	_lv_refr_get_disp_refreshing
 657              	.LVL73:
 289:lvgl/src/draw/sw/lv_draw_sw_transform.c ****                 break;
 658              		.loc 1 289 17 is_stmt 1 view .LVU201
 289:lvgl/src/draw/sw/lv_draw_sw_transform.c ****                 break;
 659              		.loc 1 289 23 is_stmt 0 view .LVU202
ARM GAS  /var/folders/21/t9g5rlb91ys800n5npymflf80000gn/T//ccApAxk1.s 			page 31


 660 0060 0368     		ldr	r3, [r0]
 289:lvgl/src/draw/sw/lv_draw_sw_transform.c ****                 break;
 661              		.loc 1 289 20 view .LVU203
 662 0062 B3F838A0 		ldrh	r10, [r3, #56]
 663              	.LVL74:
 290:lvgl/src/draw/sw/lv_draw_sw_transform.c ****             }
 664              		.loc 1 290 17 is_stmt 1 view .LVU204
 287:lvgl/src/draw/sw/lv_draw_sw_transform.c ****                 lv_disp_t * d = _lv_refr_get_disp_refreshing();
 665              		.loc 1 287 25 is_stmt 0 view .LVU205
 666 0066 0223     		movs	r3, #2
 667 0068 0393     		str	r3, [sp, #12]
 286:lvgl/src/draw/sw/lv_draw_sw_transform.c ****                 px_size = sizeof(lv_color_t);
 668              		.loc 1 286 27 view .LVU206
 669 006a 0123     		movs	r3, #1
 670 006c 0B93     		str	r3, [sp, #44]
 671              	.LVL75:
 672              	.L33:
 286:lvgl/src/draw/sw/lv_draw_sw_transform.c ****                 px_size = sizeof(lv_color_t);
 673              		.loc 1 286 27 view .LVU207
 674              	.LBE13:
 302:lvgl/src/draw/sw/lv_draw_sw_transform.c ****     for(x = 0; x < x_end; x++) {
 675              		.loc 1 302 5 is_stmt 1 view .LVU208
 303:lvgl/src/draw/sw/lv_draw_sw_transform.c ****         xs_ups = xs_ups_start + ((xs_step * x) >> 8);
 676              		.loc 1 303 5 view .LVU209
 303:lvgl/src/draw/sw/lv_draw_sw_transform.c ****         xs_ups = xs_ups_start + ((xs_step * x) >> 8);
 677              		.loc 1 303 11 is_stmt 0 view .LVU210
 678 006e 0024     		movs	r4, #0
 679 0070 ADF82AA0 		strh	r10, [sp, #42]	@ movhi
 680 0074 DDF860A0 		ldr	r10, [sp, #96]
 681              	.LVL76:
 303:lvgl/src/draw/sw/lv_draw_sw_transform.c ****         xs_ups = xs_ups_start + ((xs_step * x) >> 8);
 682              		.loc 1 303 11 view .LVU211
 683 0078 1B9E     		ldr	r6, [sp, #108]
 684 007a 1C9D     		ldr	r5, [sp, #112]
 685 007c CDF818B0 		str	fp, [sp, #24]
 686 0080 DDF864B0 		ldr	fp, [sp, #100]
 303:lvgl/src/draw/sw/lv_draw_sw_transform.c ****         xs_ups = xs_ups_start + ((xs_step * x) >> 8);
 687              		.loc 1 303 5 view .LVU212
 688 0084 0EE0     		b	.L35
 689              	.LVL77:
 690              	.L30:
 294:lvgl/src/draw/sw/lv_draw_sw_transform.c ****             px_size = sizeof(lv_color_t);
 691              		.loc 1 294 13 is_stmt 1 view .LVU213
 295:lvgl/src/draw/sw/lv_draw_sw_transform.c ****             break;
 692              		.loc 1 295 13 view .LVU214
 296:lvgl/src/draw/sw/lv_draw_sw_transform.c **** #endif
 693              		.loc 1 296 13 view .LVU215
 295:lvgl/src/draw/sw/lv_draw_sw_transform.c ****             break;
 694              		.loc 1 295 21 is_stmt 0 view .LVU216
 695 0086 0223     		movs	r3, #2
 696 0088 0393     		str	r3, [sp, #12]
 294:lvgl/src/draw/sw/lv_draw_sw_transform.c ****             px_size = sizeof(lv_color_t);
 697              		.loc 1 294 23 view .LVU217
 698 008a 0123     		movs	r3, #1
 699 008c 0B93     		str	r3, [sp, #44]
 296:lvgl/src/draw/sw/lv_draw_sw_transform.c **** #endif
 700              		.loc 1 296 13 view .LVU218
ARM GAS  /var/folders/21/t9g5rlb91ys800n5npymflf80000gn/T//ccApAxk1.s 			page 32


 701 008e EEE7     		b	.L33
 702              	.LVL78:
 703              	.L66:
 283:lvgl/src/draw/sw/lv_draw_sw_transform.c ****             break;
 704              		.loc 1 283 21 view .LVU219
 705 0090 0323     		movs	r3, #3
 706 0092 0393     		str	r3, [sp, #12]
 282:lvgl/src/draw/sw/lv_draw_sw_transform.c ****             px_size = LV_IMG_PX_SIZE_ALPHA_BYTE;
 707              		.loc 1 282 23 view .LVU220
 708 0094 0123     		movs	r3, #1
 709 0096 0B93     		str	r3, [sp, #44]
 710 0098 E9E7     		b	.L33
 711              	.LVL79:
 712              	.L36:
 713              	.LBB14:
 312:lvgl/src/draw/sw/lv_draw_sw_transform.c ****             continue;
 714              		.loc 1 312 13 is_stmt 1 discriminator 7 view .LVU221
 312:lvgl/src/draw/sw/lv_draw_sw_transform.c ****             continue;
 715              		.loc 1 312 21 is_stmt 0 discriminator 7 view .LVU222
 716 009a 0023     		movs	r3, #0
 717              	.LVL80:
 312:lvgl/src/draw/sw/lv_draw_sw_transform.c ****             continue;
 718              		.loc 1 312 21 discriminator 7 view .LVU223
 719 009c 1E9A     		ldr	r2, [sp, #120]
 720              	.LVL81:
 312:lvgl/src/draw/sw/lv_draw_sw_transform.c ****             continue;
 721              		.loc 1 312 21 discriminator 7 view .LVU224
 722 009e 1355     		strb	r3, [r2, r4]
 313:lvgl/src/draw/sw/lv_draw_sw_transform.c ****         }
 723              		.loc 1 313 13 is_stmt 1 discriminator 7 view .LVU225
 724              	.LVL82:
 725              	.L38:
 313:lvgl/src/draw/sw/lv_draw_sw_transform.c ****         }
 726              		.loc 1 313 13 is_stmt 0 discriminator 7 view .LVU226
 727              	.LBE14:
 303:lvgl/src/draw/sw/lv_draw_sw_transform.c ****         xs_ups = xs_ups_start + ((xs_step * x) >> 8);
 728              		.loc 1 303 28 is_stmt 1 discriminator 2 view .LVU227
 729 00a0 0134     		adds	r4, r4, #1
 730              	.LVL83:
 303:lvgl/src/draw/sw/lv_draw_sw_transform.c ****         xs_ups = xs_ups_start + ((xs_step * x) >> 8);
 731              		.loc 1 303 28 is_stmt 0 discriminator 2 view .LVU228
 732 00a2 24B2     		sxth	r4, r4
 733              	.LVL84:
 734              	.L35:
 303:lvgl/src/draw/sw/lv_draw_sw_transform.c ****         xs_ups = xs_ups_start + ((xs_step * x) >> 8);
 735              		.loc 1 303 18 is_stmt 1 discriminator 1 view .LVU229
 736 00a4 AC42     		cmp	r4, r5
 737 00a6 80F26A81 		bge	.L28
 738              	.LBB23:
 304:lvgl/src/draw/sw/lv_draw_sw_transform.c ****         ys_ups = ys_ups_start + ((ys_step * x) >> 8);
 739              		.loc 1 304 9 view .LVU230
 304:lvgl/src/draw/sw/lv_draw_sw_transform.c ****         ys_ups = ys_ups_start + ((ys_step * x) >> 8);
 740              		.loc 1 304 43 is_stmt 0 view .LVU231
 741 00aa 1A9B     		ldr	r3, [sp, #104]
 742 00ac 03FB04F1 		mul	r1, r3, r4
 304:lvgl/src/draw/sw/lv_draw_sw_transform.c ****         ys_ups = ys_ups_start + ((ys_step * x) >> 8);
 743              		.loc 1 304 16 view .LVU232
ARM GAS  /var/folders/21/t9g5rlb91ys800n5npymflf80000gn/T//ccApAxk1.s 			page 33


 744 00b0 0AEB2121 		add	r1, r10, r1, asr #8
 745              	.LVL85:
 305:lvgl/src/draw/sw/lv_draw_sw_transform.c **** 
 746              		.loc 1 305 9 is_stmt 1 view .LVU233
 305:lvgl/src/draw/sw/lv_draw_sw_transform.c **** 
 747              		.loc 1 305 43 is_stmt 0 view .LVU234
 748 00b4 06FB04F7 		mul	r7, r6, r4
 749              	.LVL86:
 305:lvgl/src/draw/sw/lv_draw_sw_transform.c **** 
 750              		.loc 1 305 16 view .LVU235
 751 00b8 0BEB2727 		add	r7, fp, r7, asr #8
 752              	.LVL87:
 307:lvgl/src/draw/sw/lv_draw_sw_transform.c ****         int32_t ys_int = ys_ups >> 8;
 753              		.loc 1 307 9 is_stmt 1 view .LVU236
 308:lvgl/src/draw/sw/lv_draw_sw_transform.c **** 
 754              		.loc 1 308 9 view .LVU237
 308:lvgl/src/draw/sw/lv_draw_sw_transform.c **** 
 755              		.loc 1 308 17 is_stmt 0 view .LVU238
 756 00bc 3A12     		asrs	r2, r7, #8
 757              	.LVL88:
 311:lvgl/src/draw/sw/lv_draw_sw_transform.c ****             abuf[x] = 0x00;
 758              		.loc 1 311 9 is_stmt 1 view .LVU239
 311:lvgl/src/draw/sw/lv_draw_sw_transform.c ****             abuf[x] = 0x00;
 759              		.loc 1 311 11 is_stmt 0 view .LVU240
 760 00be 0B12     		asrs	r3, r1, #8
 761              	.LVL89:
 311:lvgl/src/draw/sw/lv_draw_sw_transform.c ****             abuf[x] = 0x00;
 762              		.loc 1 311 11 view .LVU241
 763 00c0 EBD4     		bmi	.L36
 311:lvgl/src/draw/sw/lv_draw_sw_transform.c ****             abuf[x] = 0x00;
 764              		.loc 1 311 23 discriminator 2 view .LVU242
 765 00c2 9945     		cmp	r9, r3
 766 00c4 E9DD     		ble	.L36
 311:lvgl/src/draw/sw/lv_draw_sw_transform.c ****             abuf[x] = 0x00;
 767              		.loc 1 311 42 discriminator 4 view .LVU243
 768 00c6 002A     		cmp	r2, #0
 769 00c8 E7DB     		blt	.L36
 311:lvgl/src/draw/sw/lv_draw_sw_transform.c ****             abuf[x] = 0x00;
 770              		.loc 1 311 56 discriminator 6 view .LVU244
 771 00ca 0098     		ldr	r0, [sp]
 772 00cc 9042     		cmp	r0, r2
 773 00ce E4DD     		ble	.L36
 318:lvgl/src/draw/sw/lv_draw_sw_transform.c ****         int32_t ys_fract = ys_ups & 0xFF;
 774              		.loc 1 318 9 is_stmt 1 view .LVU245
 318:lvgl/src/draw/sw/lv_draw_sw_transform.c ****         int32_t ys_fract = ys_ups & 0xFF;
 775              		.loc 1 318 17 is_stmt 0 view .LVU246
 776 00d0 C8B2     		uxtb	r0, r1
 777              	.LVL90:
 319:lvgl/src/draw/sw/lv_draw_sw_transform.c **** 
 778              		.loc 1 319 9 is_stmt 1 view .LVU247
 319:lvgl/src/draw/sw/lv_draw_sw_transform.c **** 
 779              		.loc 1 319 17 is_stmt 0 view .LVU248
 780 00d2 5FFA87FC 		uxtb	ip, r7
 781              	.LVL91:
 321:lvgl/src/draw/sw/lv_draw_sw_transform.c ****         int32_t y_next;
 782              		.loc 1 321 9 is_stmt 1 view .LVU249
 322:lvgl/src/draw/sw/lv_draw_sw_transform.c ****         if(xs_fract < 0x80) {
ARM GAS  /var/folders/21/t9g5rlb91ys800n5npymflf80000gn/T//ccApAxk1.s 			page 34


 783              		.loc 1 322 9 view .LVU250
 323:lvgl/src/draw/sw/lv_draw_sw_transform.c ****             x_next = -1;
 784              		.loc 1 323 9 view .LVU251
 323:lvgl/src/draw/sw/lv_draw_sw_transform.c ****             x_next = -1;
 785              		.loc 1 323 11 is_stmt 0 view .LVU252
 786 00d6 11F0800F 		tst	r1, #128
 787 00da 4CD1     		bne	.L39
 324:lvgl/src/draw/sw/lv_draw_sw_transform.c ****             xs_fract = (0x7F - xs_fract) * 2;
 788              		.loc 1 324 13 is_stmt 1 view .LVU253
 789              	.LVL92:
 325:lvgl/src/draw/sw/lv_draw_sw_transform.c ****         }
 790              		.loc 1 325 13 view .LVU254
 325:lvgl/src/draw/sw/lv_draw_sw_transform.c ****         }
 791              		.loc 1 325 30 is_stmt 0 view .LVU255
 792 00dc C0F17F00 		rsb	r0, r0, #127
 793              	.LVL93:
 325:lvgl/src/draw/sw/lv_draw_sw_transform.c ****         }
 794              		.loc 1 325 22 view .LVU256
 795 00e0 4100     		lsls	r1, r0, #1
 796              	.LVL94:
 325:lvgl/src/draw/sw/lv_draw_sw_transform.c ****         }
 797              		.loc 1 325 22 view .LVU257
 798 00e2 0791     		str	r1, [sp, #28]
 799              	.LVL95:
 324:lvgl/src/draw/sw/lv_draw_sw_transform.c ****             xs_fract = (0x7F - xs_fract) * 2;
 800              		.loc 1 324 20 view .LVU258
 801 00e4 4FF0FF31 		mov	r1, #-1
 802              	.LVL96:
 324:lvgl/src/draw/sw/lv_draw_sw_transform.c ****             xs_fract = (0x7F - xs_fract) * 2;
 803              		.loc 1 324 20 view .LVU259
 804 00e8 0291     		str	r1, [sp, #8]
 805              	.LVL97:
 806              	.L40:
 331:lvgl/src/draw/sw/lv_draw_sw_transform.c ****             y_next = -1;
 807              		.loc 1 331 9 is_stmt 1 view .LVU260
 331:lvgl/src/draw/sw/lv_draw_sw_transform.c ****             y_next = -1;
 808              		.loc 1 331 11 is_stmt 0 view .LVU261
 809 00ea 17F0800F 		tst	r7, #128
 810 00ee 48D1     		bne	.L41
 332:lvgl/src/draw/sw/lv_draw_sw_transform.c ****             ys_fract = (0x7F - ys_fract) * 2;
 811              		.loc 1 332 13 is_stmt 1 view .LVU262
 812              	.LVL98:
 333:lvgl/src/draw/sw/lv_draw_sw_transform.c ****         }
 813              		.loc 1 333 13 view .LVU263
 333:lvgl/src/draw/sw/lv_draw_sw_transform.c ****         }
 814              		.loc 1 333 30 is_stmt 0 view .LVU264
 815 00f0 CCF17F0C 		rsb	ip, ip, #127
 816              	.LVL99:
 333:lvgl/src/draw/sw/lv_draw_sw_transform.c ****         }
 817              		.loc 1 333 22 view .LVU265
 818 00f4 4FEA4C01 		lsl	r1, ip, #1
 819 00f8 0891     		str	r1, [sp, #32]
 820              	.LVL100:
 332:lvgl/src/draw/sw/lv_draw_sw_transform.c ****             ys_fract = (0x7F - ys_fract) * 2;
 821              		.loc 1 332 20 view .LVU266
 822 00fa 4FF0FF3E 		mov	lr, #-1
 823              	.LVL101:
ARM GAS  /var/folders/21/t9g5rlb91ys800n5npymflf80000gn/T//ccApAxk1.s 			page 35


 824              	.L42:
 340:lvgl/src/draw/sw/lv_draw_sw_transform.c ****         src_tmp += (ys_int * src_stride * px_size) + xs_int * px_size;
 825              		.loc 1 340 9 is_stmt 1 view .LVU267
 341:lvgl/src/draw/sw/lv_draw_sw_transform.c **** 
 826              		.loc 1 341 9 view .LVU268
 341:lvgl/src/draw/sw/lv_draw_sw_transform.c **** 
 827              		.loc 1 341 28 is_stmt 0 view .LVU269
 828 00fe 0499     		ldr	r1, [sp, #16]
 829 0100 02FB01F0 		mul	r0, r2, r1
 830 0104 0990     		str	r0, [sp, #36]
 341:lvgl/src/draw/sw/lv_draw_sw_transform.c **** 
 831              		.loc 1 341 61 view .LVU270
 832 0106 039F     		ldr	r7, [sp, #12]
 833              	.LVL102:
 341:lvgl/src/draw/sw/lv_draw_sw_transform.c **** 
 834              		.loc 1 341 61 view .LVU271
 835 0108 03FB07F1 		mul	r1, r3, r7
 341:lvgl/src/draw/sw/lv_draw_sw_transform.c **** 
 836              		.loc 1 341 52 view .LVU272
 837 010c 07FB0011 		mla	r1, r7, r0, r1
 341:lvgl/src/draw/sw/lv_draw_sw_transform.c **** 
 838              		.loc 1 341 17 view .LVU273
 839 0110 019F     		ldr	r7, [sp, #4]
 840 0112 07EB010C 		add	ip, r7, r1
 841              	.LVL103:
 343:lvgl/src/draw/sw/lv_draw_sw_transform.c ****            xs_int + x_next <= src_w - 1 &&
 842              		.loc 1 343 9 is_stmt 1 view .LVU274
 343:lvgl/src/draw/sw/lv_draw_sw_transform.c ****            xs_int + x_next <= src_w - 1 &&
 843              		.loc 1 343 11 is_stmt 0 view .LVU275
 844 0116 0298     		ldr	r0, [sp, #8]
 845 0118 10EB0308 		adds	r8, r0, r3
 846              	.LVL104:
 343:lvgl/src/draw/sw/lv_draw_sw_transform.c ****            xs_int + x_next <= src_w - 1 &&
 847              		.loc 1 343 11 view .LVU276
 848 011c 00F1D780 		bmi	.L43
 343:lvgl/src/draw/sw/lv_draw_sw_transform.c ****            xs_int + x_next <= src_w - 1 &&
 849              		.loc 1 343 33 discriminator 1 view .LVU277
 850 0120 C145     		cmp	r9, r8
 851 0122 40F3D480 		ble	.L43
 344:lvgl/src/draw/sw/lv_draw_sw_transform.c ****            ys_int + y_next >= 0 &&
 852              		.loc 1 344 41 view .LVU278
 853 0126 1EEB0208 		adds	r8, lr, r2
 854 012a 00F1D080 		bmi	.L43
 345:lvgl/src/draw/sw/lv_draw_sw_transform.c ****            ys_int + y_next <= src_h - 1) {
 855              		.loc 1 345 33 view .LVU279
 856 012e 009F     		ldr	r7, [sp]
 857 0130 4745     		cmp	r7, r8
 858 0132 40F3CC80 		ble	.L43
 859              	.LBB15:
 348:lvgl/src/draw/sw/lv_draw_sw_transform.c ****             const uint8_t * px_hor = src_tmp + x_next * px_size;
 860              		.loc 1 348 13 is_stmt 1 view .LVU280
 861              	.LVL105:
 349:lvgl/src/draw/sw/lv_draw_sw_transform.c ****             const uint8_t * px_ver = src_tmp + y_next * src_stride * px_size;
 862              		.loc 1 349 13 view .LVU281
 349:lvgl/src/draw/sw/lv_draw_sw_transform.c ****             const uint8_t * px_ver = src_tmp + y_next * src_stride * px_size;
 863              		.loc 1 349 55 is_stmt 0 view .LVU282
 864 0136 039A     		ldr	r2, [sp, #12]
ARM GAS  /var/folders/21/t9g5rlb91ys800n5npymflf80000gn/T//ccApAxk1.s 			page 36


 865              	.LVL106:
 349:lvgl/src/draw/sw/lv_draw_sw_transform.c ****             const uint8_t * px_ver = src_tmp + y_next * src_stride * px_size;
 866              		.loc 1 349 55 view .LVU283
 867 0138 00FB02F7 		mul	r7, r0, r2
 868 013c 0597     		str	r7, [sp, #20]
 349:lvgl/src/draw/sw/lv_draw_sw_transform.c ****             const uint8_t * px_ver = src_tmp + y_next * src_stride * px_size;
 869              		.loc 1 349 29 view .LVU284
 870 013e 6744     		add	r7, ip, r7
 871 0140 0C97     		str	r7, [sp, #48]
 872              	.LVL107:
 350:lvgl/src/draw/sw/lv_draw_sw_transform.c ****             lv_color_t c_base;
 873              		.loc 1 350 13 is_stmt 1 view .LVU285
 350:lvgl/src/draw/sw/lv_draw_sw_transform.c ****             lv_color_t c_base;
 874              		.loc 1 350 55 is_stmt 0 view .LVU286
 875 0142 049F     		ldr	r7, [sp, #16]
 876              	.LVL108:
 350:lvgl/src/draw/sw/lv_draw_sw_transform.c ****             lv_color_t c_base;
 877              		.loc 1 350 55 view .LVU287
 878 0144 0EFB07FE 		mul	lr, lr, r7
 879              	.LVL109:
 350:lvgl/src/draw/sw/lv_draw_sw_transform.c ****             lv_color_t c_base;
 880              		.loc 1 350 68 view .LVU288
 881 0148 02FB0EFE 		mul	lr, r2, lr
 350:lvgl/src/draw/sw/lv_draw_sw_transform.c ****             lv_color_t c_base;
 882              		.loc 1 350 29 view .LVU289
 883 014c 0CEB0E02 		add	r2, ip, lr
 884 0150 0D92     		str	r2, [sp, #52]
 885              	.LVL110:
 351:lvgl/src/draw/sw/lv_draw_sw_transform.c ****             lv_color_t c_ver;
 886              		.loc 1 351 13 is_stmt 1 view .LVU290
 352:lvgl/src/draw/sw/lv_draw_sw_transform.c ****             lv_color_t c_hor;
 887              		.loc 1 352 13 view .LVU291
 353:lvgl/src/draw/sw/lv_draw_sw_transform.c **** 
 888              		.loc 1 353 13 view .LVU292
 355:lvgl/src/draw/sw/lv_draw_sw_transform.c ****                 lv_opa_t a_base;
 889              		.loc 1 355 13 view .LVU293
 355:lvgl/src/draw/sw/lv_draw_sw_transform.c ****                 lv_opa_t a_base;
 890              		.loc 1 355 15 is_stmt 0 view .LVU294
 891 0152 0B9A     		ldr	r2, [sp, #44]
 892              	.LVL111:
 355:lvgl/src/draw/sw/lv_draw_sw_transform.c ****                 lv_opa_t a_base;
 893              		.loc 1 355 15 view .LVU295
 894 0154 002A     		cmp	r2, #0
 895 0156 00F08880 		beq	.L44
 896              	.LBB16:
 356:lvgl/src/draw/sw/lv_draw_sw_transform.c ****                 lv_opa_t a_ver;
 897              		.loc 1 356 17 is_stmt 1 view .LVU296
 357:lvgl/src/draw/sw/lv_draw_sw_transform.c ****                 lv_opa_t a_hor;
 898              		.loc 1 357 17 view .LVU297
 358:lvgl/src/draw/sw/lv_draw_sw_transform.c ****                 if(cf == LV_IMG_CF_TRUE_COLOR_ALPHA) {
 899              		.loc 1 358 17 view .LVU298
 359:lvgl/src/draw/sw/lv_draw_sw_transform.c ****                     a_base = px_base[LV_IMG_PX_SIZE_ALPHA_BYTE - 1];
 900              		.loc 1 359 17 view .LVU299
 359:lvgl/src/draw/sw/lv_draw_sw_transform.c ****                     a_base = px_base[LV_IMG_PX_SIZE_ALPHA_BYTE - 1];
 901              		.loc 1 359 19 is_stmt 0 view .LVU300
 902 015a 069A     		ldr	r2, [sp, #24]
 903 015c 052A     		cmp	r2, #5
ARM GAS  /var/folders/21/t9g5rlb91ys800n5npymflf80000gn/T//ccApAxk1.s 			page 37


 904 015e 18D0     		beq	.L73
 365:lvgl/src/draw/sw/lv_draw_sw_transform.c ****                     const lv_opa_t * a_tmp = src + src_stride * src_h * sizeof(lv_color_t);
 905              		.loc 1 365 22 is_stmt 1 view .LVU301
 365:lvgl/src/draw/sw/lv_draw_sw_transform.c ****                     const lv_opa_t * a_tmp = src + src_stride * src_h * sizeof(lv_color_t);
 906              		.loc 1 365 24 is_stmt 0 view .LVU302
 907 0160 069A     		ldr	r2, [sp, #24]
 908 0162 142A     		cmp	r2, #20
 909 0164 53D0     		beq	.L74
 372:lvgl/src/draw/sw/lv_draw_sw_transform.c ****                     if(((lv_color_t *)px_base)->full == ck.full ||
 910              		.loc 1 372 22 is_stmt 1 view .LVU303
 372:lvgl/src/draw/sw/lv_draw_sw_transform.c ****                     if(((lv_color_t *)px_base)->full == ck.full ||
 911              		.loc 1 372 24 is_stmt 0 view .LVU304
 912 0166 069B     		ldr	r3, [sp, #24]
 913              	.LVL112:
 372:lvgl/src/draw/sw/lv_draw_sw_transform.c ****                     if(((lv_color_t *)px_base)->full == ck.full ||
 914              		.loc 1 372 24 view .LVU305
 915 0168 062B     		cmp	r3, #6
 916 016a 66D0     		beq	.L75
 388:lvgl/src/draw/sw/lv_draw_sw_transform.c ****                 }
 917              		.loc 1 388 27 view .LVU306
 918 016c FF23     		movs	r3, #255
 919 016e 1F46     		mov	r7, r3
 920 0170 0293     		str	r3, [sp, #8]
 921              	.LVL113:
 387:lvgl/src/draw/sw/lv_draw_sw_transform.c ****                     a_hor = 0xff;
 922              		.loc 1 387 27 view .LVU307
 923 0172 1846     		mov	r0, r3
 924 0174 14E0     		b	.L46
 925              	.LVL114:
 926              	.L39:
 387:lvgl/src/draw/sw/lv_draw_sw_transform.c ****                     a_hor = 0xff;
 927              		.loc 1 387 27 view .LVU308
 928              	.LBE16:
 929              	.LBE15:
 328:lvgl/src/draw/sw/lv_draw_sw_transform.c ****             xs_fract = (xs_fract - 0x80) * 2;
 930              		.loc 1 328 13 is_stmt 1 view .LVU309
 329:lvgl/src/draw/sw/lv_draw_sw_transform.c ****         }
 931              		.loc 1 329 13 view .LVU310
 329:lvgl/src/draw/sw/lv_draw_sw_transform.c ****         }
 932              		.loc 1 329 34 is_stmt 0 view .LVU311
 933 0176 8038     		subs	r0, r0, #128
 934              	.LVL115:
 329:lvgl/src/draw/sw/lv_draw_sw_transform.c ****         }
 935              		.loc 1 329 22 view .LVU312
 936 0178 4100     		lsls	r1, r0, #1
 937              	.LVL116:
 329:lvgl/src/draw/sw/lv_draw_sw_transform.c ****         }
 938              		.loc 1 329 22 view .LVU313
 939 017a 0791     		str	r1, [sp, #28]
 940              	.LVL117:
 328:lvgl/src/draw/sw/lv_draw_sw_transform.c ****             xs_fract = (xs_fract - 0x80) * 2;
 941              		.loc 1 328 20 view .LVU314
 942 017c 0121     		movs	r1, #1
 943              	.LVL118:
 328:lvgl/src/draw/sw/lv_draw_sw_transform.c ****             xs_fract = (xs_fract - 0x80) * 2;
 944              		.loc 1 328 20 view .LVU315
 945 017e 0291     		str	r1, [sp, #8]
ARM GAS  /var/folders/21/t9g5rlb91ys800n5npymflf80000gn/T//ccApAxk1.s 			page 38


 946 0180 B3E7     		b	.L40
 947              	.LVL119:
 948              	.L41:
 336:lvgl/src/draw/sw/lv_draw_sw_transform.c ****             ys_fract = (ys_fract - 0x80) * 2;
 949              		.loc 1 336 13 is_stmt 1 view .LVU316
 337:lvgl/src/draw/sw/lv_draw_sw_transform.c ****         }
 950              		.loc 1 337 13 view .LVU317
 337:lvgl/src/draw/sw/lv_draw_sw_transform.c ****         }
 951              		.loc 1 337 34 is_stmt 0 view .LVU318
 952 0182 ACF1800C 		sub	ip, ip, #128
 953              	.LVL120:
 337:lvgl/src/draw/sw/lv_draw_sw_transform.c ****         }
 954              		.loc 1 337 22 view .LVU319
 955 0186 4FEA4C01 		lsl	r1, ip, #1
 956 018a 0891     		str	r1, [sp, #32]
 957              	.LVL121:
 336:lvgl/src/draw/sw/lv_draw_sw_transform.c ****             ys_fract = (ys_fract - 0x80) * 2;
 958              		.loc 1 336 20 view .LVU320
 959 018c 4FF0010E 		mov	lr, #1
 960 0190 B5E7     		b	.L42
 961              	.LVL122:
 962              	.L73:
 963              	.LBB20:
 964              	.LBB18:
 360:lvgl/src/draw/sw/lv_draw_sw_transform.c ****                     a_ver = px_ver[LV_IMG_PX_SIZE_ALPHA_BYTE - 1];
 965              		.loc 1 360 21 is_stmt 1 view .LVU321
 360:lvgl/src/draw/sw/lv_draw_sw_transform.c ****                     a_ver = px_ver[LV_IMG_PX_SIZE_ALPHA_BYTE - 1];
 966              		.loc 1 360 28 is_stmt 0 view .LVU322
 967 0192 9CF80270 		ldrb	r7, [ip, #2]	@ zero_extendqisi2
 968              	.LVL123:
 361:lvgl/src/draw/sw/lv_draw_sw_transform.c ****                     a_hor = px_hor[LV_IMG_PX_SIZE_ALPHA_BYTE - 1];
 969              		.loc 1 361 21 is_stmt 1 view .LVU323
 361:lvgl/src/draw/sw/lv_draw_sw_transform.c ****                     a_hor = px_hor[LV_IMG_PX_SIZE_ALPHA_BYTE - 1];
 970              		.loc 1 361 27 is_stmt 0 view .LVU324
 971 0196 0D9B     		ldr	r3, [sp, #52]
 972              	.LVL124:
 361:lvgl/src/draw/sw/lv_draw_sw_transform.c ****                     a_hor = px_hor[LV_IMG_PX_SIZE_ALPHA_BYTE - 1];
 973              		.loc 1 361 27 view .LVU325
 974 0198 9878     		ldrb	r0, [r3, #2]	@ zero_extendqisi2
 975              	.LVL125:
 362:lvgl/src/draw/sw/lv_draw_sw_transform.c ****                 }
 976              		.loc 1 362 21 is_stmt 1 view .LVU326
 362:lvgl/src/draw/sw/lv_draw_sw_transform.c ****                 }
 977              		.loc 1 362 27 is_stmt 0 view .LVU327
 978 019a 0C9B     		ldr	r3, [sp, #48]
 979 019c 9B78     		ldrb	r3, [r3, #2]	@ zero_extendqisi2
 980 019e 0293     		str	r3, [sp, #8]
 981              	.LVL126:
 982              	.L46:
 391:lvgl/src/draw/sw/lv_draw_sw_transform.c ****                 if(a_hor != a_base) a_hor = ((a_hor * xs_fract) + (a_base * (0x100 - xs_fract))) >>
 983              		.loc 1 391 17 is_stmt 1 view .LVU328
 391:lvgl/src/draw/sw/lv_draw_sw_transform.c ****                 if(a_hor != a_base) a_hor = ((a_hor * xs_fract) + (a_base * (0x100 - xs_fract))) >>
 984              		.loc 1 391 19 is_stmt 0 view .LVU329
 985 01a0 8742     		cmp	r7, r0
 986 01a2 08D0     		beq	.L50
 391:lvgl/src/draw/sw/lv_draw_sw_transform.c ****                 if(a_hor != a_base) a_hor = ((a_hor * xs_fract) + (a_base * (0x100 - xs_fract))) >>
 987              		.loc 1 391 37 is_stmt 1 discriminator 1 view .LVU330
ARM GAS  /var/folders/21/t9g5rlb91ys800n5npymflf80000gn/T//ccApAxk1.s 			page 39


 391:lvgl/src/draw/sw/lv_draw_sw_transform.c ****                 if(a_hor != a_base) a_hor = ((a_hor * xs_fract) + (a_base * (0x100 - xs_fract))) >>
 988              		.loc 1 391 84 is_stmt 0 discriminator 1 view .LVU331
 989 01a4 089A     		ldr	r2, [sp, #32]
 990 01a6 C2F58073 		rsb	r3, r2, #256
 391:lvgl/src/draw/sw/lv_draw_sw_transform.c ****                 if(a_hor != a_base) a_hor = ((a_hor * xs_fract) + (a_base * (0x100 - xs_fract))) >>
 991              		.loc 1 391 75 discriminator 1 view .LVU332
 992 01aa 07FB03F3 		mul	r3, r7, r3
 391:lvgl/src/draw/sw/lv_draw_sw_transform.c ****                 if(a_hor != a_base) a_hor = ((a_hor * xs_fract) + (a_base * (0x100 - xs_fract))) >>
 993              		.loc 1 391 65 discriminator 1 view .LVU333
 994 01ae 02FB0033 		mla	r3, r2, r0, r3
 391:lvgl/src/draw/sw/lv_draw_sw_transform.c ****                 if(a_hor != a_base) a_hor = ((a_hor * xs_fract) + (a_base * (0x100 - xs_fract))) >>
 995              		.loc 1 391 43 discriminator 1 view .LVU334
 996 01b2 C3F30720 		ubfx	r0, r3, #8, #8
 997              	.LVL127:
 998              	.L50:
 392:lvgl/src/draw/sw/lv_draw_sw_transform.c ****                 abuf[x] = (a_ver + a_hor) >> 1;
 999              		.loc 1 392 17 is_stmt 1 view .LVU335
 392:lvgl/src/draw/sw/lv_draw_sw_transform.c ****                 abuf[x] = (a_ver + a_hor) >> 1;
 1000              		.loc 1 392 19 is_stmt 0 view .LVU336
 1001 01b6 029B     		ldr	r3, [sp, #8]
 1002 01b8 9F42     		cmp	r7, r3
 1003 01ba 0AD0     		beq	.L51
 392:lvgl/src/draw/sw/lv_draw_sw_transform.c ****                 abuf[x] = (a_ver + a_hor) >> 1;
 1004              		.loc 1 392 37 is_stmt 1 discriminator 1 view .LVU337
 392:lvgl/src/draw/sw/lv_draw_sw_transform.c ****                 abuf[x] = (a_ver + a_hor) >> 1;
 1005              		.loc 1 392 84 is_stmt 0 discriminator 1 view .LVU338
 1006 01bc 079A     		ldr	r2, [sp, #28]
 1007 01be C2F58073 		rsb	r3, r2, #256
 392:lvgl/src/draw/sw/lv_draw_sw_transform.c ****                 abuf[x] = (a_ver + a_hor) >> 1;
 1008              		.loc 1 392 75 discriminator 1 view .LVU339
 1009 01c2 07FB03F3 		mul	r3, r7, r3
 392:lvgl/src/draw/sw/lv_draw_sw_transform.c ****                 abuf[x] = (a_ver + a_hor) >> 1;
 1010              		.loc 1 392 65 discriminator 1 view .LVU340
 1011 01c6 029F     		ldr	r7, [sp, #8]
 1012              	.LVL128:
 392:lvgl/src/draw/sw/lv_draw_sw_transform.c ****                 abuf[x] = (a_ver + a_hor) >> 1;
 1013              		.loc 1 392 65 discriminator 1 view .LVU341
 1014 01c8 02FB0733 		mla	r3, r2, r7, r3
 392:lvgl/src/draw/sw/lv_draw_sw_transform.c ****                 abuf[x] = (a_ver + a_hor) >> 1;
 1015              		.loc 1 392 43 discriminator 1 view .LVU342
 1016 01cc C3F30723 		ubfx	r3, r3, #8, #8
 1017 01d0 0293     		str	r3, [sp, #8]
 1018              	.LVL129:
 1019              	.L51:
 393:lvgl/src/draw/sw/lv_draw_sw_transform.c **** 
 1020              		.loc 1 393 17 is_stmt 1 view .LVU343
 393:lvgl/src/draw/sw/lv_draw_sw_transform.c **** 
 1021              		.loc 1 393 34 is_stmt 0 view .LVU344
 1022 01d2 029B     		ldr	r3, [sp, #8]
 1023 01d4 0344     		add	r3, r3, r0
 393:lvgl/src/draw/sw/lv_draw_sw_transform.c **** 
 1024              		.loc 1 393 25 view .LVU345
 1025 01d6 C3F34703 		ubfx	r3, r3, #1, #8
 1026 01da 1E9A     		ldr	r2, [sp, #120]
 1027 01dc 1355     		strb	r3, [r2, r4]
 395:lvgl/src/draw/sw/lv_draw_sw_transform.c **** 
 1028              		.loc 1 395 17 is_stmt 1 view .LVU346
ARM GAS  /var/folders/21/t9g5rlb91ys800n5npymflf80000gn/T//ccApAxk1.s 			page 40


 395:lvgl/src/draw/sw/lv_draw_sw_transform.c **** 
 1029              		.loc 1 395 19 is_stmt 0 view .LVU347
 1030 01de 002B     		cmp	r3, #0
 1031 01e0 3FF45EAF 		beq	.L38
 402:lvgl/src/draw/sw/lv_draw_sw_transform.c ****                 c_ver.full = px_ver[0] + (px_ver[1] << 8);
 1032              		.loc 1 402 17 is_stmt 1 view .LVU348
 402:lvgl/src/draw/sw/lv_draw_sw_transform.c ****                 c_ver.full = px_ver[0] + (px_ver[1] << 8);
 1033              		.loc 1 402 38 is_stmt 0 view .LVU349
 1034 01e4 019B     		ldr	r3, [sp, #4]
 1035 01e6 5B5C     		ldrb	r3, [r3, r1]	@ zero_extendqisi2
 402:lvgl/src/draw/sw/lv_draw_sw_transform.c ****                 c_ver.full = px_ver[0] + (px_ver[1] << 8);
 1036              		.loc 1 402 52 view .LVU350
 1037 01e8 9CF80120 		ldrb	r2, [ip, #1]	@ zero_extendqisi2
 402:lvgl/src/draw/sw/lv_draw_sw_transform.c ****                 c_ver.full = px_ver[0] + (px_ver[1] << 8);
 1038              		.loc 1 402 29 view .LVU351
 1039 01ec 03EB0228 		add	r8, r3, r2, lsl #8
 403:lvgl/src/draw/sw/lv_draw_sw_transform.c ****                 c_hor.full = px_hor[0] + (px_hor[1] << 8);
 1040              		.loc 1 403 17 is_stmt 1 view .LVU352
 403:lvgl/src/draw/sw/lv_draw_sw_transform.c ****                 c_hor.full = px_hor[0] + (px_hor[1] << 8);
 1041              		.loc 1 403 36 is_stmt 0 view .LVU353
 1042 01f0 1CF80E30 		ldrb	r3, [ip, lr]	@ zero_extendqisi2
 403:lvgl/src/draw/sw/lv_draw_sw_transform.c ****                 c_hor.full = px_hor[0] + (px_hor[1] << 8);
 1043              		.loc 1 403 49 view .LVU354
 1044 01f4 0D9A     		ldr	r2, [sp, #52]
 1045 01f6 5278     		ldrb	r2, [r2, #1]	@ zero_extendqisi2
 403:lvgl/src/draw/sw/lv_draw_sw_transform.c ****                 c_hor.full = px_hor[0] + (px_hor[1] << 8);
 1046              		.loc 1 403 28 view .LVU355
 1047 01f8 03EB0227 		add	r7, r3, r2, lsl #8
 404:lvgl/src/draw/sw/lv_draw_sw_transform.c **** #elif LV_COLOR_DEPTH == 32
 1048              		.loc 1 404 17 is_stmt 1 view .LVU356
 404:lvgl/src/draw/sw/lv_draw_sw_transform.c **** #elif LV_COLOR_DEPTH == 32
 1049              		.loc 1 404 36 is_stmt 0 view .LVU357
 1050 01fc 059B     		ldr	r3, [sp, #20]
 1051 01fe 1CF80330 		ldrb	r3, [ip, r3]	@ zero_extendqisi2
 404:lvgl/src/draw/sw/lv_draw_sw_transform.c **** #elif LV_COLOR_DEPTH == 32
 1052              		.loc 1 404 49 view .LVU358
 1053 0202 0C9A     		ldr	r2, [sp, #48]
 1054 0204 5278     		ldrb	r2, [r2, #1]	@ zero_extendqisi2
 404:lvgl/src/draw/sw/lv_draw_sw_transform.c **** #elif LV_COLOR_DEPTH == 32
 1055              		.loc 1 404 28 view .LVU359
 1056 0206 03EB0223 		add	r3, r3, r2, lsl #8
 1057 020a 0293     		str	r3, [sp, #8]
 1058              	.LVL130:
 404:lvgl/src/draw/sw/lv_draw_sw_transform.c **** #elif LV_COLOR_DEPTH == 32
 1059              		.loc 1 404 28 view .LVU360
 1060              	.LBE18:
 1061 020c 3AE0     		b	.L52
 1062              	.LVL131:
 1063              	.L74:
 1064              	.LBB19:
 1065              	.LBB17:
 366:lvgl/src/draw/sw/lv_draw_sw_transform.c ****                     a_base = *(a_tmp + (ys_int * src_stride) + xs_int);
 1066              		.loc 1 366 21 is_stmt 1 view .LVU361
 366:lvgl/src/draw/sw/lv_draw_sw_transform.c ****                     a_base = *(a_tmp + (ys_int * src_stride) + xs_int);
 1067              		.loc 1 366 63 is_stmt 0 view .LVU362
 1068 020e 009F     		ldr	r7, [sp]
 1069 0210 049A     		ldr	r2, [sp, #16]
ARM GAS  /var/folders/21/t9g5rlb91ys800n5npymflf80000gn/T//ccApAxk1.s 			page 41


 1070 0212 02FB07F2 		mul	r2, r2, r7
 366:lvgl/src/draw/sw/lv_draw_sw_transform.c ****                     a_base = *(a_tmp + (ys_int * src_stride) + xs_int);
 1071              		.loc 1 366 38 view .LVU363
 1072 0216 019F     		ldr	r7, [sp, #4]
 1073 0218 07EB4207 		add	r7, r7, r2, lsl #1
 1074              	.LVL132:
 367:lvgl/src/draw/sw/lv_draw_sw_transform.c ****                     a_hor = *(a_tmp + (ys_int * src_stride) + xs_int + x_next);
 1075              		.loc 1 367 21 is_stmt 1 view .LVU364
 367:lvgl/src/draw/sw/lv_draw_sw_transform.c ****                     a_hor = *(a_tmp + (ys_int * src_stride) + xs_int + x_next);
 1076              		.loc 1 367 62 is_stmt 0 view .LVU365
 1077 021c 099A     		ldr	r2, [sp, #36]
 1078 021e 1A44     		add	r2, r2, r3
 367:lvgl/src/draw/sw/lv_draw_sw_transform.c ****                     a_hor = *(a_tmp + (ys_int * src_stride) + xs_int + x_next);
 1079              		.loc 1 367 28 view .LVU366
 1080 0220 0997     		str	r7, [sp, #36]
 1081 0222 BF5C     		ldrb	r7, [r7, r2]	@ zero_extendqisi2
 1082              	.LVL133:
 368:lvgl/src/draw/sw/lv_draw_sw_transform.c ****                     a_ver = *(a_tmp + ((ys_int + y_next) * src_stride) + xs_int);
 1083              		.loc 1 368 21 is_stmt 1 view .LVU367
 368:lvgl/src/draw/sw/lv_draw_sw_transform.c ****                     a_ver = *(a_tmp + ((ys_int + y_next) * src_stride) + xs_int);
 1084              		.loc 1 368 70 is_stmt 0 view .LVU368
 1085 0224 0298     		ldr	r0, [sp, #8]
 1086 0226 0244     		add	r2, r2, r0
 368:lvgl/src/draw/sw/lv_draw_sw_transform.c ****                     a_ver = *(a_tmp + ((ys_int + y_next) * src_stride) + xs_int);
 1087              		.loc 1 368 27 view .LVU369
 1088 0228 0998     		ldr	r0, [sp, #36]
 1089 022a 825C     		ldrb	r2, [r0, r2]	@ zero_extendqisi2
 1090 022c 0292     		str	r2, [sp, #8]
 1091              	.LVL134:
 369:lvgl/src/draw/sw/lv_draw_sw_transform.c ****                 }
 1092              		.loc 1 369 21 is_stmt 1 view .LVU370
 369:lvgl/src/draw/sw/lv_draw_sw_transform.c ****                 }
 1093              		.loc 1 369 72 is_stmt 0 view .LVU371
 1094 022e 049A     		ldr	r2, [sp, #16]
 1095 0230 08FB0238 		mla	r8, r8, r2, r3
 369:lvgl/src/draw/sw/lv_draw_sw_transform.c ****                 }
 1096              		.loc 1 369 27 view .LVU372
 1097 0234 10F80800 		ldrb	r0, [r0, r8]	@ zero_extendqisi2
 1098              	.LVL135:
 369:lvgl/src/draw/sw/lv_draw_sw_transform.c ****                 }
 1099              		.loc 1 369 27 view .LVU373
 1100              	.LBE17:
 1101 0238 B2E7     		b	.L46
 1102              	.LVL136:
 1103              	.L75:
 373:lvgl/src/draw/sw/lv_draw_sw_transform.c ****                        ((lv_color_t *)px_ver)->full == ck.full ||
 1104              		.loc 1 373 21 is_stmt 1 view .LVU374
 373:lvgl/src/draw/sw/lv_draw_sw_transform.c ****                        ((lv_color_t *)px_ver)->full == ck.full ||
 1105              		.loc 1 373 47 is_stmt 0 view .LVU375
 1106 023a 019B     		ldr	r3, [sp, #4]
 1107 023c 5B5A     		ldrh	r3, [r3, r1]
 373:lvgl/src/draw/sw/lv_draw_sw_transform.c ****                        ((lv_color_t *)px_ver)->full == ck.full ||
 1108              		.loc 1 373 59 view .LVU376
 1109 023e BDF82A20 		ldrh	r2, [sp, #42]
 373:lvgl/src/draw/sw/lv_draw_sw_transform.c ****                        ((lv_color_t *)px_ver)->full == ck.full ||
 1110              		.loc 1 373 23 view .LVU377
 1111 0242 9342     		cmp	r3, r2
ARM GAS  /var/folders/21/t9g5rlb91ys800n5npymflf80000gn/T//ccApAxk1.s 			page 42


 1112 0244 0DD0     		beq	.L48
 374:lvgl/src/draw/sw/lv_draw_sw_transform.c ****                        ((lv_color_t *)px_hor)->full == ck.full) {
 1113              		.loc 1 374 46 discriminator 2 view .LVU378
 1114 0246 3CF80E30 		ldrh	r3, [ip, lr]
 373:lvgl/src/draw/sw/lv_draw_sw_transform.c ****                        ((lv_color_t *)px_ver)->full == ck.full ||
 1115              		.loc 1 373 65 discriminator 2 view .LVU379
 1116 024a 9A42     		cmp	r2, r3
 1117 024c 09D0     		beq	.L48
 375:lvgl/src/draw/sw/lv_draw_sw_transform.c ****                         abuf[x] = 0x00;
 1118              		.loc 1 375 46 view .LVU380
 1119 024e 059B     		ldr	r3, [sp, #20]
 1120 0250 3CF80330 		ldrh	r3, [ip, r3]
 374:lvgl/src/draw/sw/lv_draw_sw_transform.c ****                        ((lv_color_t *)px_hor)->full == ck.full) {
 1121              		.loc 1 374 64 view .LVU381
 1122 0254 9A42     		cmp	r2, r3
 1123 0256 04D0     		beq	.L48
 382:lvgl/src/draw/sw/lv_draw_sw_transform.c ****                     }
 1124              		.loc 1 382 31 view .LVU382
 1125 0258 FF23     		movs	r3, #255
 1126 025a 1F46     		mov	r7, r3
 1127 025c 0293     		str	r3, [sp, #8]
 1128              	.LVL137:
 381:lvgl/src/draw/sw/lv_draw_sw_transform.c ****                         a_hor = 0xff;
 1129              		.loc 1 381 31 view .LVU383
 1130 025e 1846     		mov	r0, r3
 1131 0260 9EE7     		b	.L46
 1132              	.LVL138:
 1133              	.L48:
 376:lvgl/src/draw/sw/lv_draw_sw_transform.c ****                         continue;
 1134              		.loc 1 376 25 is_stmt 1 discriminator 3 view .LVU384
 376:lvgl/src/draw/sw/lv_draw_sw_transform.c ****                         continue;
 1135              		.loc 1 376 33 is_stmt 0 discriminator 3 view .LVU385
 1136 0262 0023     		movs	r3, #0
 1137 0264 1E9A     		ldr	r2, [sp, #120]
 1138 0266 1355     		strb	r3, [r2, r4]
 377:lvgl/src/draw/sw/lv_draw_sw_transform.c ****                     }
 1139              		.loc 1 377 25 is_stmt 1 discriminator 3 view .LVU386
 1140 0268 1AE7     		b	.L38
 1141              	.LVL139:
 1142              	.L44:
 377:lvgl/src/draw/sw/lv_draw_sw_transform.c ****                     }
 1143              		.loc 1 377 25 is_stmt 0 discriminator 3 view .LVU387
 1144              	.LBE19:
 413:lvgl/src/draw/sw/lv_draw_sw_transform.c ****                 c_hor = *((const lv_color_t *) px_hor);
 1145              		.loc 1 413 17 is_stmt 1 view .LVU388
 413:lvgl/src/draw/sw/lv_draw_sw_transform.c ****                 c_hor = *((const lv_color_t *) px_hor);
 1146              		.loc 1 413 24 is_stmt 0 view .LVU389
 1147 026a 019B     		ldr	r3, [sp, #4]
 1148              	.LVL140:
 413:lvgl/src/draw/sw/lv_draw_sw_transform.c ****                 c_hor = *((const lv_color_t *) px_hor);
 1149              		.loc 1 413 24 view .LVU390
 1150 026c 33F80180 		ldrh	r8, [r3, r1]
 414:lvgl/src/draw/sw/lv_draw_sw_transform.c ****                 c_ver = *((const lv_color_t *) px_ver);
 1151              		.loc 1 414 17 is_stmt 1 view .LVU391
 414:lvgl/src/draw/sw/lv_draw_sw_transform.c ****                 c_ver = *((const lv_color_t *) px_ver);
 1152              		.loc 1 414 23 is_stmt 0 view .LVU392
 1153 0270 059B     		ldr	r3, [sp, #20]
ARM GAS  /var/folders/21/t9g5rlb91ys800n5npymflf80000gn/T//ccApAxk1.s 			page 43


 1154 0272 3CF80330 		ldrh	r3, [ip, r3]
 1155              	.LVL141:
 414:lvgl/src/draw/sw/lv_draw_sw_transform.c ****                 c_ver = *((const lv_color_t *) px_ver);
 1156              		.loc 1 414 23 view .LVU393
 1157 0276 ADF80830 		strh	r3, [sp, #8]	@ movhi
 1158              	.LVL142:
 415:lvgl/src/draw/sw/lv_draw_sw_transform.c ****                 abuf[x] = 0xff;
 1159              		.loc 1 415 17 is_stmt 1 view .LVU394
 415:lvgl/src/draw/sw/lv_draw_sw_transform.c ****                 abuf[x] = 0xff;
 1160              		.loc 1 415 23 is_stmt 0 view .LVU395
 1161 027a 3CF80E70 		ldrh	r7, [ip, lr]
 416:lvgl/src/draw/sw/lv_draw_sw_transform.c ****             }
 1162              		.loc 1 416 17 is_stmt 1 view .LVU396
 416:lvgl/src/draw/sw/lv_draw_sw_transform.c ****             }
 1163              		.loc 1 416 25 is_stmt 0 view .LVU397
 1164 027e FF23     		movs	r3, #255
 1165              	.LVL143:
 416:lvgl/src/draw/sw/lv_draw_sw_transform.c ****             }
 1166              		.loc 1 416 25 view .LVU398
 1167 0280 1E9A     		ldr	r2, [sp, #120]
 1168 0282 1355     		strb	r3, [r2, r4]
 1169              	.L52:
 419:lvgl/src/draw/sw/lv_draw_sw_transform.c ****                 cbuf[x] = c_base;
 1170              		.loc 1 419 13 is_stmt 1 view .LVU399
 1171              	.LVL144:
 419:lvgl/src/draw/sw/lv_draw_sw_transform.c ****                 cbuf[x] = c_base;
 1172              		.loc 1 419 22 is_stmt 0 view .LVU400
 1173 0284 1FFA88F3 		uxth	r3, r8
 1174              	.LVL145:
 419:lvgl/src/draw/sw/lv_draw_sw_transform.c ****                 cbuf[x] = c_base;
 1175              		.loc 1 419 36 view .LVU401
 1176 0288 BAB2     		uxth	r2, r7
 419:lvgl/src/draw/sw/lv_draw_sw_transform.c ****                 cbuf[x] = c_base;
 1177              		.loc 1 419 15 view .LVU402
 1178 028a 9342     		cmp	r3, r2
 1179 028c 17D0     		beq	.L76
 1180              	.L53:
 423:lvgl/src/draw/sw/lv_draw_sw_transform.c ****                 c_hor = lv_color_mix(c_hor, c_base, xs_fract);
 1181              		.loc 1 423 17 is_stmt 1 view .LVU403
 423:lvgl/src/draw/sw/lv_draw_sw_transform.c ****                 c_hor = lv_color_mix(c_hor, c_base, xs_fract);
 1182              		.loc 1 423 25 is_stmt 0 view .LVU404
 1183 028e 089B     		ldr	r3, [sp, #32]
 1184 0290 03F0FE02 		and	r2, r3, #254
 1185 0294 4146     		mov	r1, r8	@ movhi
 1186 0296 3846     		mov	r0, r7	@ movhi
 1187 0298 FFF7FEFF 		bl	lv_color_mix
 1188              	.LVL146:
 423:lvgl/src/draw/sw/lv_draw_sw_transform.c ****                 c_hor = lv_color_mix(c_hor, c_base, xs_fract);
 1189              		.loc 1 423 25 view .LVU405
 1190 029c 0746     		mov	r7, r0	@ movhi
 1191              	.LVL147:
 424:lvgl/src/draw/sw/lv_draw_sw_transform.c ****                 cbuf[x] = lv_color_mix(c_hor, c_ver, LV_OPA_50);
 1192              		.loc 1 424 17 is_stmt 1 view .LVU406
 424:lvgl/src/draw/sw/lv_draw_sw_transform.c ****                 cbuf[x] = lv_color_mix(c_hor, c_ver, LV_OPA_50);
 1193              		.loc 1 424 25 is_stmt 0 view .LVU407
 1194 029e 079B     		ldr	r3, [sp, #28]
 1195 02a0 03F0FE02 		and	r2, r3, #254
ARM GAS  /var/folders/21/t9g5rlb91ys800n5npymflf80000gn/T//ccApAxk1.s 			page 44


 1196 02a4 4146     		mov	r1, r8	@ movhi
 1197 02a6 BDF80800 		ldrh	r0, [sp, #8]
 1198 02aa FFF7FEFF 		bl	lv_color_mix
 1199              	.LVL148:
 425:lvgl/src/draw/sw/lv_draw_sw_transform.c ****             }
 1200              		.loc 1 425 17 is_stmt 1 view .LVU408
 425:lvgl/src/draw/sw/lv_draw_sw_transform.c ****             }
 1201              		.loc 1 425 27 is_stmt 0 view .LVU409
 1202 02ae 7F22     		movs	r2, #127
 1203              	.LVL149:
 425:lvgl/src/draw/sw/lv_draw_sw_transform.c ****             }
 1204              		.loc 1 425 27 view .LVU410
 1205 02b0 3946     		mov	r1, r7	@ movhi
 1206 02b2 FFF7FEFF 		bl	lv_color_mix
 1207              	.LVL150:
 1208 02b6 1D9B     		ldr	r3, [sp, #116]
 1209 02b8 23F81400 		strh	r0, [r3, r4, lsl #1]	@ movhi
 1210              	.LBE20:
 346:lvgl/src/draw/sw/lv_draw_sw_transform.c **** 
 1211              		.loc 1 346 42 view .LVU411
 1212 02bc F0E6     		b	.L38
 1213              	.LVL151:
 1214              	.L76:
 1215              	.LBB21:
 419:lvgl/src/draw/sw/lv_draw_sw_transform.c ****                 cbuf[x] = c_base;
 1216              		.loc 1 419 65 discriminator 1 view .LVU412
 1217 02be BDF80820 		ldrh	r2, [sp, #8]
 419:lvgl/src/draw/sw/lv_draw_sw_transform.c ****                 cbuf[x] = c_base;
 1218              		.loc 1 419 42 discriminator 1 view .LVU413
 1219 02c2 9342     		cmp	r3, r2
 1220 02c4 E3D1     		bne	.L53
 420:lvgl/src/draw/sw/lv_draw_sw_transform.c ****             }
 1221              		.loc 1 420 17 is_stmt 1 view .LVU414
 420:lvgl/src/draw/sw/lv_draw_sw_transform.c ****             }
 1222              		.loc 1 420 25 is_stmt 0 view .LVU415
 1223 02c6 1D9B     		ldr	r3, [sp, #116]
 1224 02c8 23F81480 		strh	r8, [r3, r4, lsl #1]	@ movhi
 1225 02cc E8E6     		b	.L38
 1226              	.LVL152:
 1227              	.L43:
 420:lvgl/src/draw/sw/lv_draw_sw_transform.c ****             }
 1228              		.loc 1 420 25 view .LVU416
 1229              	.LBE21:
 1230              	.LBB22:
 433:lvgl/src/draw/sw/lv_draw_sw_transform.c **** #elif LV_COLOR_DEPTH == 32
 1231              		.loc 1 433 13 is_stmt 1 view .LVU417
 433:lvgl/src/draw/sw/lv_draw_sw_transform.c **** #elif LV_COLOR_DEPTH == 32
 1232              		.loc 1 433 35 is_stmt 0 view .LVU418
 1233 02ce 019F     		ldr	r7, [sp, #4]
 1234 02d0 795C     		ldrb	r1, [r7, r1]	@ zero_extendqisi2
 433:lvgl/src/draw/sw/lv_draw_sw_transform.c **** #elif LV_COLOR_DEPTH == 32
 1235              		.loc 1 433 49 view .LVU419
 1236 02d2 9CF80180 		ldrb	r8, [ip, #1]	@ zero_extendqisi2
 433:lvgl/src/draw/sw/lv_draw_sw_transform.c **** #elif LV_COLOR_DEPTH == 32
 1237              		.loc 1 433 17 view .LVU420
 1238 02d6 0594     		str	r4, [sp, #20]
 433:lvgl/src/draw/sw/lv_draw_sw_transform.c **** #elif LV_COLOR_DEPTH == 32
ARM GAS  /var/folders/21/t9g5rlb91ys800n5npymflf80000gn/T//ccApAxk1.s 			page 45


 1239              		.loc 1 433 39 view .LVU421
 1240 02d8 01EB0821 		add	r1, r1, r8, lsl #8
 1241 02dc 89B2     		uxth	r1, r1
 433:lvgl/src/draw/sw/lv_draw_sw_transform.c **** #elif LV_COLOR_DEPTH == 32
 1242              		.loc 1 433 26 view .LVU422
 1243 02de 1D9F     		ldr	r7, [sp, #116]
 1244 02e0 27F81410 		strh	r1, [r7, r4, lsl #1]	@ movhi
 437:lvgl/src/draw/sw/lv_draw_sw_transform.c ****             switch(cf) {
 1245              		.loc 1 437 13 is_stmt 1 view .LVU423
 438:lvgl/src/draw/sw/lv_draw_sw_transform.c ****                 case LV_IMG_CF_TRUE_COLOR_ALPHA:
 1246              		.loc 1 438 13 view .LVU424
 1247 02e4 069F     		ldr	r7, [sp, #24]
 1248 02e6 062F     		cmp	r7, #6
 1249 02e8 1CD0     		beq	.L55
 438:lvgl/src/draw/sw/lv_draw_sw_transform.c ****                 case LV_IMG_CF_TRUE_COLOR_ALPHA:
 1250              		.loc 1 438 13 is_stmt 0 view .LVU425
 1251 02ea 142F     		cmp	r7, #20
 1252 02ec 22D0     		beq	.L56
 1253 02ee 052F     		cmp	r7, #5
 1254 02f0 15D0     		beq	.L77
 1255 02f2 FF21     		movs	r1, #255
 1256              	.L57:
 1257              	.LVL153:
 454:lvgl/src/draw/sw/lv_draw_sw_transform.c ****                 abuf[x] = (a * (0xFF - xs_fract)) >> 8;
 1258              		.loc 1 454 13 is_stmt 1 view .LVU426
 454:lvgl/src/draw/sw/lv_draw_sw_transform.c ****                 abuf[x] = (a * (0xFF - xs_fract)) >> 8;
 1259              		.loc 1 454 15 is_stmt 0 view .LVU427
 1260 02f4 13B9     		cbnz	r3, .L58
 454:lvgl/src/draw/sw/lv_draw_sw_transform.c ****                 abuf[x] = (a * (0xFF - xs_fract)) >> 8;
 1261              		.loc 1 454 29 discriminator 1 view .LVU428
 1262 02f6 0298     		ldr	r0, [sp, #8]
 1263 02f8 0028     		cmp	r0, #0
 1264 02fa 29DB     		blt	.L59
 1265              	.L58:
 454:lvgl/src/draw/sw/lv_draw_sw_transform.c ****                 abuf[x] = (a * (0xFF - xs_fract)) >> 8;
 1266              		.loc 1 454 64 discriminator 3 view .LVU429
 1267 02fc 09F1FF37 		add	r7, r9, #-1
 454:lvgl/src/draw/sw/lv_draw_sw_transform.c ****                 abuf[x] = (a * (0xFF - xs_fract)) >> 8;
 1268              		.loc 1 454 44 discriminator 3 view .LVU430
 1269 0300 9F42     		cmp	r7, r3
 1270 0302 22D0     		beq	.L78
 1271              	.LVL154:
 1272              	.L60:
 457:lvgl/src/draw/sw/lv_draw_sw_transform.c ****                 abuf[x] = (a * (0xFF - ys_fract)) >> 8;
 1273              		.loc 1 457 18 is_stmt 1 view .LVU431
 457:lvgl/src/draw/sw/lv_draw_sw_transform.c ****                 abuf[x] = (a * (0xFF - ys_fract)) >> 8;
 1274              		.loc 1 457 20 is_stmt 0 view .LVU432
 1275 0304 12B9     		cbnz	r2, .L61
 457:lvgl/src/draw/sw/lv_draw_sw_transform.c ****                 abuf[x] = (a * (0xFF - ys_fract)) >> 8;
 1276              		.loc 1 457 34 discriminator 1 view .LVU433
 1277 0306 BEF1000F 		cmp	lr, #0
 1278 030a 2EDB     		blt	.L62
 1279              	.L61:
 457:lvgl/src/draw/sw/lv_draw_sw_transform.c ****                 abuf[x] = (a * (0xFF - ys_fract)) >> 8;
 1280              		.loc 1 457 69 discriminator 3 view .LVU434
 1281 030c 009B     		ldr	r3, [sp]
 1282 030e 013B     		subs	r3, r3, #1
ARM GAS  /var/folders/21/t9g5rlb91ys800n5npymflf80000gn/T//ccApAxk1.s 			page 46


 457:lvgl/src/draw/sw/lv_draw_sw_transform.c ****                 abuf[x] = (a * (0xFF - ys_fract)) >> 8;
 1283              		.loc 1 457 49 discriminator 3 view .LVU435
 1284 0310 9342     		cmp	r3, r2
 1285 0312 27D0     		beq	.L79
 1286              	.L63:
 461:lvgl/src/draw/sw/lv_draw_sw_transform.c ****             }
 1287              		.loc 1 461 17 is_stmt 1 view .LVU436
 461:lvgl/src/draw/sw/lv_draw_sw_transform.c ****             }
 1288              		.loc 1 461 25 is_stmt 0 view .LVU437
 1289 0314 0023     		movs	r3, #0
 1290 0316 1E9A     		ldr	r2, [sp, #120]
 1291              	.LVL155:
 461:lvgl/src/draw/sw/lv_draw_sw_transform.c ****             }
 1292              		.loc 1 461 25 view .LVU438
 1293 0318 0599     		ldr	r1, [sp, #20]
 1294              	.LVL156:
 461:lvgl/src/draw/sw/lv_draw_sw_transform.c ****             }
 1295              		.loc 1 461 25 view .LVU439
 1296 031a 5354     		strb	r3, [r2, r1]
 1297 031c C0E6     		b	.L38
 1298              	.LVL157:
 1299              	.L77:
 440:lvgl/src/draw/sw/lv_draw_sw_transform.c ****                     break;
 1300              		.loc 1 440 21 is_stmt 1 view .LVU440
 440:lvgl/src/draw/sw/lv_draw_sw_transform.c ****                     break;
 1301              		.loc 1 440 23 is_stmt 0 view .LVU441
 1302 031e 9CF80210 		ldrb	r1, [ip, #2]	@ zero_extendqisi2
 1303              	.LVL158:
 441:lvgl/src/draw/sw/lv_draw_sw_transform.c ****                 case LV_IMG_CF_TRUE_COLOR_CHROMA_KEYED:
 1304              		.loc 1 441 21 is_stmt 1 view .LVU442
 1305 0322 E7E7     		b	.L57
 1306              	.LVL159:
 1307              	.L55:
 443:lvgl/src/draw/sw/lv_draw_sw_transform.c ****                     break;
 1308              		.loc 1 443 21 view .LVU443
 443:lvgl/src/draw/sw/lv_draw_sw_transform.c ****                     break;
 1309              		.loc 1 443 43 is_stmt 0 view .LVU444
 1310 0324 BDF82A70 		ldrh	r7, [sp, #42]
 443:lvgl/src/draw/sw/lv_draw_sw_transform.c ****                     break;
 1311              		.loc 1 443 23 view .LVU445
 1312 0328 B942     		cmp	r1, r7
 1313 032a 01D0     		beq	.L80
 1314 032c FF21     		movs	r1, #255
 1315 032e E1E7     		b	.L57
 1316              	.L80:
 1317 0330 0021     		movs	r1, #0
 1318 0332 DFE7     		b	.L57
 1319              	.L56:
 447:lvgl/src/draw/sw/lv_draw_sw_transform.c ****                     break;
 1320              		.loc 1 447 21 is_stmt 1 view .LVU446
 447:lvgl/src/draw/sw/lv_draw_sw_transform.c ****                     break;
 1321              		.loc 1 447 44 is_stmt 0 view .LVU447
 1322 0334 0099     		ldr	r1, [sp]
 1323 0336 049F     		ldr	r7, [sp, #16]
 1324 0338 07FB01F1 		mul	r1, r7, r1
 447:lvgl/src/draw/sw/lv_draw_sw_transform.c ****                     break;
 1325              		.loc 1 447 73 view .LVU448
ARM GAS  /var/folders/21/t9g5rlb91ys800n5npymflf80000gn/T//ccApAxk1.s 			page 47


 1326 033c 0998     		ldr	r0, [sp, #36]
 1327 033e 00EB4107 		add	r7, r0, r1, lsl #1
 447:lvgl/src/draw/sw/lv_draw_sw_transform.c ****                     break;
 1328              		.loc 1 447 97 view .LVU449
 1329 0342 1F44     		add	r7, r7, r3
 447:lvgl/src/draw/sw/lv_draw_sw_transform.c ****                     break;
 1330              		.loc 1 447 23 view .LVU450
 1331 0344 0199     		ldr	r1, [sp, #4]
 1332 0346 C95D     		ldrb	r1, [r1, r7]	@ zero_extendqisi2
 1333              	.LVL160:
 448:lvgl/src/draw/sw/lv_draw_sw_transform.c **** #endif
 1334              		.loc 1 448 21 is_stmt 1 view .LVU451
 1335 0348 D4E7     		b	.L57
 1336              	.L78:
 454:lvgl/src/draw/sw/lv_draw_sw_transform.c ****                 abuf[x] = (a * (0xFF - xs_fract)) >> 8;
 1337              		.loc 1 454 68 is_stmt 0 discriminator 4 view .LVU452
 1338 034a 029B     		ldr	r3, [sp, #8]
 1339              	.LVL161:
 454:lvgl/src/draw/sw/lv_draw_sw_transform.c ****                 abuf[x] = (a * (0xFF - xs_fract)) >> 8;
 1340              		.loc 1 454 68 discriminator 4 view .LVU453
 1341 034c 002B     		cmp	r3, #0
 1342 034e D9DD     		ble	.L60
 1343              	.L59:
 455:lvgl/src/draw/sw/lv_draw_sw_transform.c ****             }
 1344              		.loc 1 455 17 is_stmt 1 view .LVU454
 455:lvgl/src/draw/sw/lv_draw_sw_transform.c ****             }
 1345              		.loc 1 455 38 is_stmt 0 view .LVU455
 1346 0350 079B     		ldr	r3, [sp, #28]
 1347 0352 C3F1FF03 		rsb	r3, r3, #255
 455:lvgl/src/draw/sw/lv_draw_sw_transform.c ****             }
 1348              		.loc 1 455 30 view .LVU456
 1349 0356 01FB03F3 		mul	r3, r1, r3
 455:lvgl/src/draw/sw/lv_draw_sw_transform.c ****             }
 1350              		.loc 1 455 51 view .LVU457
 1351 035a 1B12     		asrs	r3, r3, #8
 455:lvgl/src/draw/sw/lv_draw_sw_transform.c ****             }
 1352              		.loc 1 455 25 view .LVU458
 1353 035c 1E9A     		ldr	r2, [sp, #120]
 1354              	.LVL162:
 455:lvgl/src/draw/sw/lv_draw_sw_transform.c ****             }
 1355              		.loc 1 455 25 view .LVU459
 1356 035e 0599     		ldr	r1, [sp, #20]
 1357              	.LVL163:
 455:lvgl/src/draw/sw/lv_draw_sw_transform.c ****             }
 1358              		.loc 1 455 25 view .LVU460
 1359 0360 5354     		strb	r3, [r2, r1]
 1360 0362 9DE6     		b	.L38
 1361              	.LVL164:
 1362              	.L79:
 457:lvgl/src/draw/sw/lv_draw_sw_transform.c ****                 abuf[x] = (a * (0xFF - ys_fract)) >> 8;
 1363              		.loc 1 457 73 discriminator 4 view .LVU461
 1364 0364 BEF1000F 		cmp	lr, #0
 1365 0368 D4DD     		ble	.L63
 1366              	.L62:
 458:lvgl/src/draw/sw/lv_draw_sw_transform.c ****             }
 1367              		.loc 1 458 17 is_stmt 1 view .LVU462
 458:lvgl/src/draw/sw/lv_draw_sw_transform.c ****             }
ARM GAS  /var/folders/21/t9g5rlb91ys800n5npymflf80000gn/T//ccApAxk1.s 			page 48


 1368              		.loc 1 458 38 is_stmt 0 view .LVU463
 1369 036a 089B     		ldr	r3, [sp, #32]
 1370 036c C3F1FF03 		rsb	r3, r3, #255
 458:lvgl/src/draw/sw/lv_draw_sw_transform.c ****             }
 1371              		.loc 1 458 30 view .LVU464
 1372 0370 03FB01F1 		mul	r1, r3, r1
 1373              	.LVL165:
 458:lvgl/src/draw/sw/lv_draw_sw_transform.c ****             }
 1374              		.loc 1 458 51 view .LVU465
 1375 0374 0912     		asrs	r1, r1, #8
 458:lvgl/src/draw/sw/lv_draw_sw_transform.c ****             }
 1376              		.loc 1 458 25 view .LVU466
 1377 0376 1E9B     		ldr	r3, [sp, #120]
 1378 0378 059A     		ldr	r2, [sp, #20]
 1379              	.LVL166:
 458:lvgl/src/draw/sw/lv_draw_sw_transform.c ****             }
 1380              		.loc 1 458 25 view .LVU467
 1381 037a 9954     		strb	r1, [r3, r2]
 1382 037c 90E6     		b	.L38
 1383              	.LVL167:
 1384              	.L28:
 458:lvgl/src/draw/sw/lv_draw_sw_transform.c ****             }
 1385              		.loc 1 458 25 view .LVU468
 1386              	.LBE22:
 1387              	.LBE23:
 465:lvgl/src/draw/sw/lv_draw_sw_transform.c **** 
 1388              		.loc 1 465 1 view .LVU469
 1389 037e 0FB0     		add	sp, sp, #60
 1390              	.LCFI9:
 1391              		.cfi_def_cfa_offset 36
 1392              		@ sp needed
 1393 0380 BDE8F08F 		pop	{r4, r5, r6, r7, r8, r9, r10, fp, pc}
 465:lvgl/src/draw/sw/lv_draw_sw_transform.c **** 
 1394              		.loc 1 465 1 view .LVU470
 1395              		.cfi_endproc
 1396              	.LFE165:
 1398              		.section	.text.rgb_no_aa,"ax",%progbits
 1399              		.align	1
 1400              		.syntax unified
 1401              		.thumb
 1402              		.thumb_func
 1404              	rgb_no_aa:
 1405              	.LVL168:
 1406              	.LFB162:
 163:lvgl/src/draw/sw/lv_draw_sw_transform.c ****     int32_t xs_ups_start = xs_ups;
 1407              		.loc 1 163 1 is_stmt 1 view -0
 1408              		.cfi_startproc
 1409              		@ args = 32, pretend = 0, frame = 16
 1410              		@ frame_needed = 0, uses_anonymous_args = 0
 163:lvgl/src/draw/sw/lv_draw_sw_transform.c ****     int32_t xs_ups_start = xs_ups;
 1411              		.loc 1 163 1 is_stmt 0 view .LVU472
 1412 0000 2DE9F04F 		push	{r4, r5, r6, r7, r8, r9, r10, fp, lr}
 1413              	.LCFI10:
 1414              		.cfi_def_cfa_offset 36
 1415              		.cfi_offset 4, -36
 1416              		.cfi_offset 5, -32
 1417              		.cfi_offset 6, -28
ARM GAS  /var/folders/21/t9g5rlb91ys800n5npymflf80000gn/T//ccApAxk1.s 			page 49


 1418              		.cfi_offset 7, -24
 1419              		.cfi_offset 8, -20
 1420              		.cfi_offset 9, -16
 1421              		.cfi_offset 10, -12
 1422              		.cfi_offset 11, -8
 1423              		.cfi_offset 14, -4
 1424 0004 85B0     		sub	sp, sp, #20
 1425              	.LCFI11:
 1426              		.cfi_def_cfa_offset 56
 1427 0006 0290     		str	r0, [sp, #8]
 1428 0008 8B46     		mov	fp, r1
 1429 000a 0192     		str	r2, [sp, #4]
 1430 000c 0393     		str	r3, [sp, #12]
 1431 000e DDF838A0 		ldr	r10, [sp, #56]
 1432 0012 DDF83C90 		ldr	r9, [sp, #60]
 1433 0016 DDF84080 		ldr	r8, [sp, #64]
 1434 001a 119F     		ldr	r7, [sp, #68]
 1435 001c 129C     		ldr	r4, [sp, #72]
 1436 001e 149D     		ldr	r5, [sp, #80]
 1437 0020 9DF85460 		ldrb	r6, [sp, #84]	@ zero_extendqisi2
 164:lvgl/src/draw/sw/lv_draw_sw_transform.c ****     int32_t ys_ups_start = ys_ups;
 1438              		.loc 1 164 5 is_stmt 1 view .LVU473
 1439              	.LVL169:
 165:lvgl/src/draw/sw/lv_draw_sw_transform.c ****     lv_disp_t * d = _lv_refr_get_disp_refreshing();
 1440              		.loc 1 165 5 view .LVU474
 166:lvgl/src/draw/sw/lv_draw_sw_transform.c ****     lv_color_t ck = d->driver->color_chroma_key;
 1441              		.loc 1 166 5 view .LVU475
 166:lvgl/src/draw/sw/lv_draw_sw_transform.c ****     lv_color_t ck = d->driver->color_chroma_key;
 1442              		.loc 1 166 21 is_stmt 0 view .LVU476
 1443 0024 FFF7FEFF 		bl	_lv_refr_get_disp_refreshing
 1444              	.LVL170:
 167:lvgl/src/draw/sw/lv_draw_sw_transform.c **** 
 1445              		.loc 1 167 5 is_stmt 1 view .LVU477
 167:lvgl/src/draw/sw/lv_draw_sw_transform.c **** 
 1446              		.loc 1 167 22 is_stmt 0 view .LVU478
 1447 0028 0368     		ldr	r3, [r0]
 167:lvgl/src/draw/sw/lv_draw_sw_transform.c **** 
 1448              		.loc 1 167 16 view .LVU479
 1449 002a 1B8F     		ldrh	r3, [r3, #56]
 1450              	.LVL171:
 167:lvgl/src/draw/sw/lv_draw_sw_transform.c **** 
 1451              		.loc 1 167 16 view .LVU480
 1452 002c ADF80230 		strh	r3, [sp, #2]	@ movhi
 169:lvgl/src/draw/sw/lv_draw_sw_transform.c **** 
 1453              		.loc 1 169 5 is_stmt 1 view .LVU481
 1454 0030 2146     		mov	r1, r4
 1455 0032 2846     		mov	r0, r5
 1456              	.LVL172:
 169:lvgl/src/draw/sw/lv_draw_sw_transform.c **** 
 1457              		.loc 1 169 5 is_stmt 0 view .LVU482
 1458 0034 FFF7FEFF 		bl	lv_memset_ff
 1459              	.LVL173:
 171:lvgl/src/draw/sw/lv_draw_sw_transform.c ****     for(x = 0; x < x_end; x++) {
 1460              		.loc 1 171 5 is_stmt 1 view .LVU483
 172:lvgl/src/draw/sw/lv_draw_sw_transform.c ****         xs_ups = xs_ups_start + ((xs_step * x) >> 8);
 1461              		.loc 1 172 5 view .LVU484
 172:lvgl/src/draw/sw/lv_draw_sw_transform.c ****         xs_ups = xs_ups_start + ((xs_step * x) >> 8);
ARM GAS  /var/folders/21/t9g5rlb91ys800n5npymflf80000gn/T//ccApAxk1.s 			page 50


 1462              		.loc 1 172 11 is_stmt 0 view .LVU485
 1463 0038 0023     		movs	r3, #0
 1464 003a DDF804C0 		ldr	ip, [sp, #4]
 1465 003e DDF84CE0 		ldr	lr, [sp, #76]
 172:lvgl/src/draw/sw/lv_draw_sw_transform.c ****         xs_ups = xs_ups_start + ((xs_step * x) >> 8);
 1466              		.loc 1 172 5 view .LVU486
 1467 0042 05E0     		b	.L82
 1468              	.LVL174:
 1469              	.L83:
 1470              	.LBB24:
 179:lvgl/src/draw/sw/lv_draw_sw_transform.c ****         }
 1471              		.loc 1 179 13 is_stmt 1 view .LVU487
 179:lvgl/src/draw/sw/lv_draw_sw_transform.c ****         }
 1472              		.loc 1 179 21 is_stmt 0 view .LVU488
 1473 0044 0022     		movs	r2, #0
 1474              	.LVL175:
 179:lvgl/src/draw/sw/lv_draw_sw_transform.c ****         }
 1475              		.loc 1 179 21 view .LVU489
 1476 0046 EA54     		strb	r2, [r5, r3]
 1477              	.LVL176:
 1478              	.L85:
 197:lvgl/src/draw/sw/lv_draw_sw_transform.c ****             abuf[x] = 0x00;
 1479              		.loc 1 197 9 is_stmt 1 view .LVU490
 197:lvgl/src/draw/sw/lv_draw_sw_transform.c ****             abuf[x] = 0x00;
 1480              		.loc 1 197 11 is_stmt 0 view .LVU491
 1481 0048 062E     		cmp	r6, #6
 1482 004a 1DD0     		beq	.L89
 1483              	.L86:
 1484              	.LBE24:
 172:lvgl/src/draw/sw/lv_draw_sw_transform.c ****         xs_ups = xs_ups_start + ((xs_step * x) >> 8);
 1485              		.loc 1 172 28 is_stmt 1 discriminator 2 view .LVU492
 1486 004c 0133     		adds	r3, r3, #1
 1487              	.LVL177:
 172:lvgl/src/draw/sw/lv_draw_sw_transform.c ****         xs_ups = xs_ups_start + ((xs_step * x) >> 8);
 1488              		.loc 1 172 28 is_stmt 0 discriminator 2 view .LVU493
 1489 004e 1BB2     		sxth	r3, r3
 1490              	.LVL178:
 1491              	.L82:
 172:lvgl/src/draw/sw/lv_draw_sw_transform.c ****         xs_ups = xs_ups_start + ((xs_step * x) >> 8);
 1492              		.loc 1 172 18 is_stmt 1 discriminator 1 view .LVU494
 1493 0050 A342     		cmp	r3, r4
 1494 0052 22DA     		bge	.L90
 1495              	.LBB26:
 173:lvgl/src/draw/sw/lv_draw_sw_transform.c ****         ys_ups = ys_ups_start + ((ys_step * x) >> 8);
 1496              		.loc 1 173 9 view .LVU495
 173:lvgl/src/draw/sw/lv_draw_sw_transform.c ****         ys_ups = ys_ups_start + ((ys_step * x) >> 8);
 1497              		.loc 1 173 43 is_stmt 0 view .LVU496
 1498 0054 08FB03F2 		mul	r2, r8, r3
 173:lvgl/src/draw/sw/lv_draw_sw_transform.c ****         ys_ups = ys_ups_start + ((ys_step * x) >> 8);
 1499              		.loc 1 173 16 view .LVU497
 1500 0058 0AEB2222 		add	r2, r10, r2, asr #8
 1501              	.LVL179:
 174:lvgl/src/draw/sw/lv_draw_sw_transform.c **** 
 1502              		.loc 1 174 9 is_stmt 1 view .LVU498
 174:lvgl/src/draw/sw/lv_draw_sw_transform.c **** 
 1503              		.loc 1 174 43 is_stmt 0 view .LVU499
 1504 005c 07FB03F1 		mul	r1, r7, r3
ARM GAS  /var/folders/21/t9g5rlb91ys800n5npymflf80000gn/T//ccApAxk1.s 			page 51


 174:lvgl/src/draw/sw/lv_draw_sw_transform.c **** 
 1505              		.loc 1 174 16 view .LVU500
 1506 0060 09EB2121 		add	r1, r9, r1, asr #8
 1507              	.LVL180:
 176:lvgl/src/draw/sw/lv_draw_sw_transform.c ****         int32_t ys_int = ys_ups >> 8;
 1508              		.loc 1 176 9 is_stmt 1 view .LVU501
 177:lvgl/src/draw/sw/lv_draw_sw_transform.c ****         if(xs_int < 0 || xs_int >= src_w || ys_int < 0 || ys_int >= src_h) {
 1509              		.loc 1 177 9 view .LVU502
 177:lvgl/src/draw/sw/lv_draw_sw_transform.c ****         if(xs_int < 0 || xs_int >= src_w || ys_int < 0 || ys_int >= src_h) {
 1510              		.loc 1 177 17 is_stmt 0 view .LVU503
 1511 0064 0912     		asrs	r1, r1, #8
 1512              	.LVL181:
 178:lvgl/src/draw/sw/lv_draw_sw_transform.c ****             abuf[x] = 0x00;
 1513              		.loc 1 178 9 is_stmt 1 view .LVU504
 178:lvgl/src/draw/sw/lv_draw_sw_transform.c ****             abuf[x] = 0x00;
 1514              		.loc 1 178 11 is_stmt 0 view .LVU505
 1515 0066 1212     		asrs	r2, r2, #8
 1516              	.LVL182:
 178:lvgl/src/draw/sw/lv_draw_sw_transform.c ****             abuf[x] = 0x00;
 1517              		.loc 1 178 11 view .LVU506
 1518 0068 ECD4     		bmi	.L83
 178:lvgl/src/draw/sw/lv_draw_sw_transform.c ****             abuf[x] = 0x00;
 1519              		.loc 1 178 23 discriminator 1 view .LVU507
 1520 006a 9345     		cmp	fp, r2
 1521 006c EADD     		ble	.L83
 178:lvgl/src/draw/sw/lv_draw_sw_transform.c ****             abuf[x] = 0x00;
 1522              		.loc 1 178 42 discriminator 2 view .LVU508
 1523 006e 0029     		cmp	r1, #0
 1524 0070 E8DB     		blt	.L83
 178:lvgl/src/draw/sw/lv_draw_sw_transform.c ****             abuf[x] = 0x00;
 1525              		.loc 1 178 56 discriminator 3 view .LVU509
 1526 0072 8C45     		cmp	ip, r1
 1527 0074 E6DD     		ble	.L83
 1528              	.LBB25:
 188:lvgl/src/draw/sw/lv_draw_sw_transform.c ****             src_tmp += ys_int * src_stride + xs_int;
 1529              		.loc 1 188 13 is_stmt 1 view .LVU510
 1530              	.LVL183:
 189:lvgl/src/draw/sw/lv_draw_sw_transform.c ****             cbuf[x] = *src_tmp;
 1531              		.loc 1 189 13 view .LVU511
 189:lvgl/src/draw/sw/lv_draw_sw_transform.c ****             cbuf[x] = *src_tmp;
 1532              		.loc 1 189 44 is_stmt 0 view .LVU512
 1533 0076 0398     		ldr	r0, [sp, #12]
 1534 0078 01FB0022 		mla	r2, r1, r0, r2
 1535              	.LVL184:
 190:lvgl/src/draw/sw/lv_draw_sw_transform.c **** #elif LV_COLOR_DEPTH == 32
 1536              		.loc 1 190 13 is_stmt 1 view .LVU513
 190:lvgl/src/draw/sw/lv_draw_sw_transform.c **** #elif LV_COLOR_DEPTH == 32
 1537              		.loc 1 190 21 is_stmt 0 view .LVU514
 1538 007c 0299     		ldr	r1, [sp, #8]
 1539              	.LVL185:
 190:lvgl/src/draw/sw/lv_draw_sw_transform.c **** #elif LV_COLOR_DEPTH == 32
 1540              		.loc 1 190 21 view .LVU515
 1541 007e 31F81220 		ldrh	r2, [r1, r2, lsl #1]
 1542              	.LVL186:
 190:lvgl/src/draw/sw/lv_draw_sw_transform.c **** #elif LV_COLOR_DEPTH == 32
 1543              		.loc 1 190 21 view .LVU516
 1544 0082 2EF81320 		strh	r2, [lr, r3, lsl #1]	@ movhi
ARM GAS  /var/folders/21/t9g5rlb91ys800n5npymflf80000gn/T//ccApAxk1.s 			page 52


 1545 0086 DFE7     		b	.L85
 1546              	.LVL187:
 1547              	.L89:
 190:lvgl/src/draw/sw/lv_draw_sw_transform.c **** #elif LV_COLOR_DEPTH == 32
 1548              		.loc 1 190 21 view .LVU517
 1549              	.LBE25:
 197:lvgl/src/draw/sw/lv_draw_sw_transform.c ****             abuf[x] = 0x00;
 1550              		.loc 1 197 62 discriminator 1 view .LVU518
 1551 0088 3EF81310 		ldrh	r1, [lr, r3, lsl #1]
 197:lvgl/src/draw/sw/lv_draw_sw_transform.c ****             abuf[x] = 0x00;
 1552              		.loc 1 197 73 discriminator 1 view .LVU519
 1553 008c BDF80220 		ldrh	r2, [sp, #2]
 197:lvgl/src/draw/sw/lv_draw_sw_transform.c ****             abuf[x] = 0x00;
 1554              		.loc 1 197 52 discriminator 1 view .LVU520
 1555 0090 9142     		cmp	r1, r2
 1556 0092 DBD1     		bne	.L86
 198:lvgl/src/draw/sw/lv_draw_sw_transform.c ****         }
 1557              		.loc 1 198 13 is_stmt 1 view .LVU521
 198:lvgl/src/draw/sw/lv_draw_sw_transform.c ****         }
 1558              		.loc 1 198 21 is_stmt 0 view .LVU522
 1559 0094 0022     		movs	r2, #0
 1560 0096 EA54     		strb	r2, [r5, r3]
 1561 0098 D8E7     		b	.L86
 1562              	.LVL188:
 1563              	.L90:
 198:lvgl/src/draw/sw/lv_draw_sw_transform.c ****         }
 1564              		.loc 1 198 21 view .LVU523
 1565              	.LBE26:
 201:lvgl/src/draw/sw/lv_draw_sw_transform.c **** 
 1566              		.loc 1 201 1 view .LVU524
 1567 009a 05B0     		add	sp, sp, #20
 1568              	.LCFI12:
 1569              		.cfi_def_cfa_offset 36
 1570              		@ sp needed
 1571 009c BDE8F08F 		pop	{r4, r5, r6, r7, r8, r9, r10, fp, pc}
 201:lvgl/src/draw/sw/lv_draw_sw_transform.c **** 
 1572              		.loc 1 201 1 view .LVU525
 1573              		.cfi_endproc
 1574              	.LFE162:
 1576              		.section	.text.lv_draw_sw_transform,"ax",%progbits
 1577              		.align	1
 1578              		.global	lv_draw_sw_transform
 1579              		.syntax unified
 1580              		.thumb
 1581              		.thumb_func
 1583              	lv_draw_sw_transform:
 1584              	.LVL189:
 1585              	.LFB161:
  83:lvgl/src/draw/sw/lv_draw_sw_transform.c ****     LV_UNUSED(draw_ctx);
 1586              		.loc 1 83 1 is_stmt 1 view -0
 1587              		.cfi_startproc
 1588              		@ args = 24, pretend = 0, frame = 96
 1589              		@ frame_needed = 0, uses_anonymous_args = 0
  83:lvgl/src/draw/sw/lv_draw_sw_transform.c ****     LV_UNUSED(draw_ctx);
 1590              		.loc 1 83 1 is_stmt 0 view .LVU527
 1591 0000 2DE9F04F 		push	{r4, r5, r6, r7, r8, r9, r10, fp, lr}
 1592              	.LCFI13:
ARM GAS  /var/folders/21/t9g5rlb91ys800n5npymflf80000gn/T//ccApAxk1.s 			page 53


 1593              		.cfi_def_cfa_offset 36
 1594              		.cfi_offset 4, -36
 1595              		.cfi_offset 5, -32
 1596              		.cfi_offset 6, -28
 1597              		.cfi_offset 7, -24
 1598              		.cfi_offset 8, -20
 1599              		.cfi_offset 9, -16
 1600              		.cfi_offset 10, -12
 1601              		.cfi_offset 11, -8
 1602              		.cfi_offset 14, -4
 1603 0004 A1B0     		sub	sp, sp, #132
 1604              	.LCFI14:
 1605              		.cfi_def_cfa_offset 168
 1606 0006 0C46     		mov	r4, r1
 1607 0008 0992     		str	r2, [sp, #36]
 1608 000a 0A93     		str	r3, [sp, #40]
 1609 000c BDF9A830 		ldrsh	r3, [sp, #168]
 1610              	.LVL190:
  83:lvgl/src/draw/sw/lv_draw_sw_transform.c ****     LV_UNUSED(draw_ctx);
 1611              		.loc 1 83 1 view .LVU528
 1612 0010 0B93     		str	r3, [sp, #44]
 1613 0012 BDF9AC30 		ldrsh	r3, [sp, #172]
 1614 0016 0C93     		str	r3, [sp, #48]
 1615 0018 DDF8B090 		ldr	r9, [sp, #176]
 1616 001c 9DF8B4B0 		ldrb	fp, [sp, #180]	@ zero_extendqisi2
 1617 0020 2E9E     		ldr	r6, [sp, #184]
 1618 0022 2F9D     		ldr	r5, [sp, #188]
  84:lvgl/src/draw/sw/lv_draw_sw_transform.c **** 
 1619              		.loc 1 84 5 is_stmt 1 view .LVU529
  86:lvgl/src/draw/sw/lv_draw_sw_transform.c ****     tr_dsc.angle = -draw_dsc->angle;
 1620              		.loc 1 86 5 view .LVU530
  87:lvgl/src/draw/sw/lv_draw_sw_transform.c ****     tr_dsc.zoom = (256 * 256) / draw_dsc->zoom;
 1621              		.loc 1 87 5 view .LVU531
  87:lvgl/src/draw/sw/lv_draw_sw_transform.c ****     tr_dsc.zoom = (256 * 256) / draw_dsc->zoom;
 1622              		.loc 1 87 29 is_stmt 0 view .LVU532
 1623 0024 B9F90020 		ldrsh	r2, [r9]
 1624              	.LVL191:
  87:lvgl/src/draw/sw/lv_draw_sw_transform.c ****     tr_dsc.zoom = (256 * 256) / draw_dsc->zoom;
 1625              		.loc 1 87 20 view .LVU533
 1626 0028 5042     		rsbs	r0, r2, #0
 1627              	.LVL192:
  87:lvgl/src/draw/sw/lv_draw_sw_transform.c ****     tr_dsc.zoom = (256 * 256) / draw_dsc->zoom;
 1628              		.loc 1 87 18 view .LVU534
 1629 002a 1C90     		str	r0, [sp, #112]
  88:lvgl/src/draw/sw/lv_draw_sw_transform.c ****     tr_dsc.pivot = draw_dsc->pivot;
 1630              		.loc 1 88 5 is_stmt 1 view .LVU535
  88:lvgl/src/draw/sw/lv_draw_sw_transform.c ****     tr_dsc.pivot = draw_dsc->pivot;
 1631              		.loc 1 88 41 is_stmt 0 view .LVU536
 1632 002c B9F80210 		ldrh	r1, [r9, #2]
 1633              	.LVL193:
  88:lvgl/src/draw/sw/lv_draw_sw_transform.c ****     tr_dsc.pivot = draw_dsc->pivot;
 1634              		.loc 1 88 31 view .LVU537
 1635 0030 4FF48033 		mov	r3, #65536
 1636 0034 93FBF1F3 		sdiv	r3, r3, r1
  88:lvgl/src/draw/sw/lv_draw_sw_transform.c ****     tr_dsc.pivot = draw_dsc->pivot;
 1637              		.loc 1 88 17 view .LVU538
 1638 0038 1B93     		str	r3, [sp, #108]
ARM GAS  /var/folders/21/t9g5rlb91ys800n5npymflf80000gn/T//ccApAxk1.s 			page 54


  89:lvgl/src/draw/sw/lv_draw_sw_transform.c **** 
 1639              		.loc 1 89 5 is_stmt 1 view .LVU539
  89:lvgl/src/draw/sw/lv_draw_sw_transform.c **** 
 1640              		.loc 1 89 18 is_stmt 0 view .LVU540
 1641 003a D9F80430 		ldr	r3, [r9, #4]
 1642 003e 1F93     		str	r3, [sp, #124]
  91:lvgl/src/draw/sw/lv_draw_sw_transform.c ****     int32_t angle_high = angle_low + 1;
 1643              		.loc 1 91 5 is_stmt 1 view .LVU541
  91:lvgl/src/draw/sw/lv_draw_sw_transform.c ****     int32_t angle_high = angle_low + 1;
 1644              		.loc 1 91 13 is_stmt 0 view .LVU542
 1645 0040 DFF808A2 		ldr	r10, .L105
 1646 0044 8AFB0013 		smull	r1, r3, r10, r0
 1647 0048 C017     		asrs	r0, r0, #31
 1648 004a C0EBA308 		rsb	r8, r0, r3, asr #2
 1649              	.LVL194:
  92:lvgl/src/draw/sw/lv_draw_sw_transform.c ****     int32_t angle_rem = tr_dsc.angle  - (angle_low * 10);
 1650              		.loc 1 92 5 is_stmt 1 view .LVU543
  92:lvgl/src/draw/sw/lv_draw_sw_transform.c ****     int32_t angle_rem = tr_dsc.angle  - (angle_low * 10);
 1651              		.loc 1 92 13 is_stmt 0 view .LVU544
 1652 004e 08F10103 		add	r3, r8, #1
 1653 0052 0D93     		str	r3, [sp, #52]
 1654              	.LVL195:
  93:lvgl/src/draw/sw/lv_draw_sw_transform.c **** 
 1655              		.loc 1 93 5 is_stmt 1 view .LVU545
  93:lvgl/src/draw/sw/lv_draw_sw_transform.c **** 
 1656              		.loc 1 93 52 is_stmt 0 view .LVU546
 1657 0054 6FF00907 		mvn	r7, #9
 1658 0058 07FB08F7 		mul	r7, r7, r8
 1659 005c BF1A     		subs	r7, r7, r2
 1660              	.LVL196:
  95:lvgl/src/draw/sw/lv_draw_sw_transform.c ****     int32_t s2 = lv_trigo_sin(angle_high);
 1661              		.loc 1 95 5 is_stmt 1 view .LVU547
  95:lvgl/src/draw/sw/lv_draw_sw_transform.c ****     int32_t s2 = lv_trigo_sin(angle_high);
 1662              		.loc 1 95 18 is_stmt 0 view .LVU548
 1663 005e 0FFA88F0 		sxth	r0, r8
 1664 0062 FFF7FEFF 		bl	lv_trigo_sin
 1665              	.LVL197:
  95:lvgl/src/draw/sw/lv_draw_sw_transform.c ****     int32_t s2 = lv_trigo_sin(angle_high);
 1666              		.loc 1 95 18 view .LVU549
 1667 0066 0E90     		str	r0, [sp, #56]
 1668              	.LVL198:
  96:lvgl/src/draw/sw/lv_draw_sw_transform.c **** 
 1669              		.loc 1 96 5 is_stmt 1 view .LVU550
  96:lvgl/src/draw/sw/lv_draw_sw_transform.c **** 
 1670              		.loc 1 96 18 is_stmt 0 view .LVU551
 1671 0068 BDF93400 		ldrsh	r0, [sp, #52]
 1672              	.LVL199:
  96:lvgl/src/draw/sw/lv_draw_sw_transform.c **** 
 1673              		.loc 1 96 18 view .LVU552
 1674 006c FFF7FEFF 		bl	lv_trigo_sin
 1675              	.LVL200:
 1676 0070 0F90     		str	r0, [sp, #60]
 1677              	.LVL201:
  98:lvgl/src/draw/sw/lv_draw_sw_transform.c ****     int32_t c2 = lv_trigo_sin(angle_high + 90);
 1678              		.loc 1 98 5 is_stmt 1 view .LVU553
  98:lvgl/src/draw/sw/lv_draw_sw_transform.c ****     int32_t c2 = lv_trigo_sin(angle_high + 90);
 1679              		.loc 1 98 41 is_stmt 0 view .LVU554
ARM GAS  /var/folders/21/t9g5rlb91ys800n5npymflf80000gn/T//ccApAxk1.s 			page 55


 1680 0072 08F15A00 		add	r0, r8, #90
 1681              	.LVL202:
  98:lvgl/src/draw/sw/lv_draw_sw_transform.c ****     int32_t c2 = lv_trigo_sin(angle_high + 90);
 1682              		.loc 1 98 18 view .LVU555
 1683 0076 00B2     		sxth	r0, r0
 1684 0078 FFF7FEFF 		bl	lv_trigo_sin
 1685              	.LVL203:
 1686 007c 8046     		mov	r8, r0
 1687              	.LVL204:
  99:lvgl/src/draw/sw/lv_draw_sw_transform.c **** 
 1688              		.loc 1 99 5 is_stmt 1 view .LVU556
  99:lvgl/src/draw/sw/lv_draw_sw_transform.c **** 
 1689              		.loc 1 99 42 is_stmt 0 view .LVU557
 1690 007e 0D9B     		ldr	r3, [sp, #52]
 1691 0080 03F15A00 		add	r0, r3, #90
 1692              	.LVL205:
  99:lvgl/src/draw/sw/lv_draw_sw_transform.c **** 
 1693              		.loc 1 99 18 view .LVU558
 1694 0084 00B2     		sxth	r0, r0
 1695 0086 FFF7FEFF 		bl	lv_trigo_sin
 1696              	.LVL206:
 101:lvgl/src/draw/sw/lv_draw_sw_transform.c ****     tr_dsc.cosma = (c1 * (10 - angle_rem) + c2 * angle_rem) / 10;
 1697              		.loc 1 101 5 is_stmt 1 view .LVU559
 101:lvgl/src/draw/sw/lv_draw_sw_transform.c ****     tr_dsc.cosma = (c1 * (10 - angle_rem) + c2 * angle_rem) / 10;
 1698              		.loc 1 101 30 is_stmt 0 view .LVU560
 1699 008a C7F10A01 		rsb	r1, r7, #10
 101:lvgl/src/draw/sw/lv_draw_sw_transform.c ****     tr_dsc.cosma = (c1 * (10 - angle_rem) + c2 * angle_rem) / 10;
 1700              		.loc 1 101 48 view .LVU561
 1701 008e 0F9A     		ldr	r2, [sp, #60]
 1702 0090 07FB02F2 		mul	r2, r7, r2
 101:lvgl/src/draw/sw/lv_draw_sw_transform.c ****     tr_dsc.cosma = (c1 * (10 - angle_rem) + c2 * angle_rem) / 10;
 1703              		.loc 1 101 43 view .LVU562
 1704 0094 0E9B     		ldr	r3, [sp, #56]
 1705 0096 03FB0122 		mla	r2, r3, r1, r2
 101:lvgl/src/draw/sw/lv_draw_sw_transform.c ****     tr_dsc.cosma = (c1 * (10 - angle_rem) + c2 * angle_rem) / 10;
 1706              		.loc 1 101 61 view .LVU563
 1707 009a 8AFB02C3 		smull	ip, r3, r10, r2
 1708 009e D217     		asrs	r2, r2, #31
 1709 00a0 C2EBA302 		rsb	r2, r2, r3, asr #2
 101:lvgl/src/draw/sw/lv_draw_sw_transform.c ****     tr_dsc.cosma = (c1 * (10 - angle_rem) + c2 * angle_rem) / 10;
 1710              		.loc 1 101 18 view .LVU564
 1711 00a4 1992     		str	r2, [sp, #100]
 102:lvgl/src/draw/sw/lv_draw_sw_transform.c ****     tr_dsc.sinma = tr_dsc.sinma >> (LV_TRIGO_SHIFT - 10);
 1712              		.loc 1 102 5 is_stmt 1 view .LVU565
 102:lvgl/src/draw/sw/lv_draw_sw_transform.c ****     tr_dsc.sinma = tr_dsc.sinma >> (LV_TRIGO_SHIFT - 10);
 1713              		.loc 1 102 48 is_stmt 0 view .LVU566
 1714 00a6 00FB07F3 		mul	r3, r0, r7
 102:lvgl/src/draw/sw/lv_draw_sw_transform.c ****     tr_dsc.sinma = tr_dsc.sinma >> (LV_TRIGO_SHIFT - 10);
 1715              		.loc 1 102 43 view .LVU567
 1716 00aa 08FB0133 		mla	r3, r8, r1, r3
 102:lvgl/src/draw/sw/lv_draw_sw_transform.c ****     tr_dsc.sinma = tr_dsc.sinma >> (LV_TRIGO_SHIFT - 10);
 1717              		.loc 1 102 61 view .LVU568
 1718 00ae 8AFB031A 		smull	r1, r10, r10, r3
 1719 00b2 DB17     		asrs	r3, r3, #31
 1720 00b4 C3EBAA03 		rsb	r3, r3, r10, asr #2
 102:lvgl/src/draw/sw/lv_draw_sw_transform.c ****     tr_dsc.sinma = tr_dsc.sinma >> (LV_TRIGO_SHIFT - 10);
 1721              		.loc 1 102 18 view .LVU569
ARM GAS  /var/folders/21/t9g5rlb91ys800n5npymflf80000gn/T//ccApAxk1.s 			page 56


 1722 00b8 1A93     		str	r3, [sp, #104]
 103:lvgl/src/draw/sw/lv_draw_sw_transform.c ****     tr_dsc.cosma = tr_dsc.cosma >> (LV_TRIGO_SHIFT - 10);
 1723              		.loc 1 103 5 is_stmt 1 view .LVU570
 103:lvgl/src/draw/sw/lv_draw_sw_transform.c ****     tr_dsc.cosma = tr_dsc.cosma >> (LV_TRIGO_SHIFT - 10);
 1724              		.loc 1 103 33 is_stmt 0 view .LVU571
 1725 00ba 5211     		asrs	r2, r2, #5
 103:lvgl/src/draw/sw/lv_draw_sw_transform.c ****     tr_dsc.cosma = tr_dsc.cosma >> (LV_TRIGO_SHIFT - 10);
 1726              		.loc 1 103 18 view .LVU572
 1727 00bc 1992     		str	r2, [sp, #100]
 104:lvgl/src/draw/sw/lv_draw_sw_transform.c ****     tr_dsc.pivot_x_256 = tr_dsc.pivot.x * 256;
 1728              		.loc 1 104 5 is_stmt 1 view .LVU573
 104:lvgl/src/draw/sw/lv_draw_sw_transform.c ****     tr_dsc.pivot_x_256 = tr_dsc.pivot.x * 256;
 1729              		.loc 1 104 33 is_stmt 0 view .LVU574
 1730 00be 5B11     		asrs	r3, r3, #5
 104:lvgl/src/draw/sw/lv_draw_sw_transform.c ****     tr_dsc.pivot_x_256 = tr_dsc.pivot.x * 256;
 1731              		.loc 1 104 18 view .LVU575
 1732 00c0 1A93     		str	r3, [sp, #104]
 105:lvgl/src/draw/sw/lv_draw_sw_transform.c ****     tr_dsc.pivot_y_256 = tr_dsc.pivot.y * 256;
 1733              		.loc 1 105 5 is_stmt 1 view .LVU576
 105:lvgl/src/draw/sw/lv_draw_sw_transform.c ****     tr_dsc.pivot_y_256 = tr_dsc.pivot.y * 256;
 1734              		.loc 1 105 38 is_stmt 0 view .LVU577
 1735 00c2 BDF97C30 		ldrsh	r3, [sp, #124]
 105:lvgl/src/draw/sw/lv_draw_sw_transform.c ****     tr_dsc.pivot_y_256 = tr_dsc.pivot.y * 256;
 1736              		.loc 1 105 41 view .LVU578
 1737 00c6 1B02     		lsls	r3, r3, #8
 105:lvgl/src/draw/sw/lv_draw_sw_transform.c ****     tr_dsc.pivot_y_256 = tr_dsc.pivot.y * 256;
 1738              		.loc 1 105 24 view .LVU579
 1739 00c8 1D93     		str	r3, [sp, #116]
 106:lvgl/src/draw/sw/lv_draw_sw_transform.c **** 
 1740              		.loc 1 106 5 is_stmt 1 view .LVU580
 106:lvgl/src/draw/sw/lv_draw_sw_transform.c **** 
 1741              		.loc 1 106 38 is_stmt 0 view .LVU581
 1742 00ca BDF97E30 		ldrsh	r3, [sp, #126]
 106:lvgl/src/draw/sw/lv_draw_sw_transform.c **** 
 1743              		.loc 1 106 41 view .LVU582
 1744 00ce 1B02     		lsls	r3, r3, #8
 106:lvgl/src/draw/sw/lv_draw_sw_transform.c **** 
 1745              		.loc 1 106 24 view .LVU583
 1746 00d0 1E93     		str	r3, [sp, #120]
 108:lvgl/src/draw/sw/lv_draw_sw_transform.c ****     lv_coord_t dest_h = lv_area_get_height(dest_area);
 1747              		.loc 1 108 5 is_stmt 1 view .LVU584
 1748              	.LVL207:
 1749              	.LBB27:
 1750              	.LBI27:
 1751              		.file 3 "lvgl/src/draw/sw/../../misc/lv_area.h"
   1:lvgl/src/draw/sw/../../misc/lv_area.h **** /**
   2:lvgl/src/draw/sw/../../misc/lv_area.h ****  * @file lv_area.h
   3:lvgl/src/draw/sw/../../misc/lv_area.h ****  *
   4:lvgl/src/draw/sw/../../misc/lv_area.h ****  */
   5:lvgl/src/draw/sw/../../misc/lv_area.h **** 
   6:lvgl/src/draw/sw/../../misc/lv_area.h **** #ifndef LV_AREA_H
   7:lvgl/src/draw/sw/../../misc/lv_area.h **** #define LV_AREA_H
   8:lvgl/src/draw/sw/../../misc/lv_area.h **** 
   9:lvgl/src/draw/sw/../../misc/lv_area.h **** #ifdef __cplusplus
  10:lvgl/src/draw/sw/../../misc/lv_area.h **** extern "C" {
  11:lvgl/src/draw/sw/../../misc/lv_area.h **** #endif
  12:lvgl/src/draw/sw/../../misc/lv_area.h **** 
ARM GAS  /var/folders/21/t9g5rlb91ys800n5npymflf80000gn/T//ccApAxk1.s 			page 57


  13:lvgl/src/draw/sw/../../misc/lv_area.h **** /*********************
  14:lvgl/src/draw/sw/../../misc/lv_area.h ****  *      INCLUDES
  15:lvgl/src/draw/sw/../../misc/lv_area.h ****  *********************/
  16:lvgl/src/draw/sw/../../misc/lv_area.h **** #include "../lv_conf_internal.h"
  17:lvgl/src/draw/sw/../../misc/lv_area.h **** #include <stdbool.h>
  18:lvgl/src/draw/sw/../../misc/lv_area.h **** #include <stdint.h>
  19:lvgl/src/draw/sw/../../misc/lv_area.h **** 
  20:lvgl/src/draw/sw/../../misc/lv_area.h **** /*********************
  21:lvgl/src/draw/sw/../../misc/lv_area.h ****  *      DEFINES
  22:lvgl/src/draw/sw/../../misc/lv_area.h ****  *********************/
  23:lvgl/src/draw/sw/../../misc/lv_area.h **** 
  24:lvgl/src/draw/sw/../../misc/lv_area.h **** #if LV_USE_LARGE_COORD
  25:lvgl/src/draw/sw/../../misc/lv_area.h **** typedef int32_t lv_coord_t;
  26:lvgl/src/draw/sw/../../misc/lv_area.h **** #else
  27:lvgl/src/draw/sw/../../misc/lv_area.h **** typedef int16_t lv_coord_t;
  28:lvgl/src/draw/sw/../../misc/lv_area.h **** #endif
  29:lvgl/src/draw/sw/../../misc/lv_area.h **** 
  30:lvgl/src/draw/sw/../../misc/lv_area.h **** /**********************
  31:lvgl/src/draw/sw/../../misc/lv_area.h ****  *      TYPEDEFS
  32:lvgl/src/draw/sw/../../misc/lv_area.h ****  **********************/
  33:lvgl/src/draw/sw/../../misc/lv_area.h **** 
  34:lvgl/src/draw/sw/../../misc/lv_area.h **** /**
  35:lvgl/src/draw/sw/../../misc/lv_area.h ****  * Represents a point on the screen.
  36:lvgl/src/draw/sw/../../misc/lv_area.h ****  */
  37:lvgl/src/draw/sw/../../misc/lv_area.h **** typedef struct {
  38:lvgl/src/draw/sw/../../misc/lv_area.h ****     lv_coord_t x;
  39:lvgl/src/draw/sw/../../misc/lv_area.h ****     lv_coord_t y;
  40:lvgl/src/draw/sw/../../misc/lv_area.h **** } lv_point_t;
  41:lvgl/src/draw/sw/../../misc/lv_area.h **** 
  42:lvgl/src/draw/sw/../../misc/lv_area.h **** /** Represents an area of the screen.*/
  43:lvgl/src/draw/sw/../../misc/lv_area.h **** typedef struct {
  44:lvgl/src/draw/sw/../../misc/lv_area.h ****     lv_coord_t x1;
  45:lvgl/src/draw/sw/../../misc/lv_area.h ****     lv_coord_t y1;
  46:lvgl/src/draw/sw/../../misc/lv_area.h ****     lv_coord_t x2;
  47:lvgl/src/draw/sw/../../misc/lv_area.h ****     lv_coord_t y2;
  48:lvgl/src/draw/sw/../../misc/lv_area.h **** } lv_area_t;
  49:lvgl/src/draw/sw/../../misc/lv_area.h **** 
  50:lvgl/src/draw/sw/../../misc/lv_area.h **** /** Alignments*/
  51:lvgl/src/draw/sw/../../misc/lv_area.h **** enum {
  52:lvgl/src/draw/sw/../../misc/lv_area.h ****     LV_ALIGN_DEFAULT = 0,
  53:lvgl/src/draw/sw/../../misc/lv_area.h ****     LV_ALIGN_TOP_LEFT,
  54:lvgl/src/draw/sw/../../misc/lv_area.h ****     LV_ALIGN_TOP_MID,
  55:lvgl/src/draw/sw/../../misc/lv_area.h ****     LV_ALIGN_TOP_RIGHT,
  56:lvgl/src/draw/sw/../../misc/lv_area.h ****     LV_ALIGN_BOTTOM_LEFT,
  57:lvgl/src/draw/sw/../../misc/lv_area.h ****     LV_ALIGN_BOTTOM_MID,
  58:lvgl/src/draw/sw/../../misc/lv_area.h ****     LV_ALIGN_BOTTOM_RIGHT,
  59:lvgl/src/draw/sw/../../misc/lv_area.h ****     LV_ALIGN_LEFT_MID,
  60:lvgl/src/draw/sw/../../misc/lv_area.h ****     LV_ALIGN_RIGHT_MID,
  61:lvgl/src/draw/sw/../../misc/lv_area.h ****     LV_ALIGN_CENTER,
  62:lvgl/src/draw/sw/../../misc/lv_area.h **** 
  63:lvgl/src/draw/sw/../../misc/lv_area.h ****     LV_ALIGN_OUT_TOP_LEFT,
  64:lvgl/src/draw/sw/../../misc/lv_area.h ****     LV_ALIGN_OUT_TOP_MID,
  65:lvgl/src/draw/sw/../../misc/lv_area.h ****     LV_ALIGN_OUT_TOP_RIGHT,
  66:lvgl/src/draw/sw/../../misc/lv_area.h ****     LV_ALIGN_OUT_BOTTOM_LEFT,
  67:lvgl/src/draw/sw/../../misc/lv_area.h ****     LV_ALIGN_OUT_BOTTOM_MID,
  68:lvgl/src/draw/sw/../../misc/lv_area.h ****     LV_ALIGN_OUT_BOTTOM_RIGHT,
  69:lvgl/src/draw/sw/../../misc/lv_area.h ****     LV_ALIGN_OUT_LEFT_TOP,
ARM GAS  /var/folders/21/t9g5rlb91ys800n5npymflf80000gn/T//ccApAxk1.s 			page 58


  70:lvgl/src/draw/sw/../../misc/lv_area.h ****     LV_ALIGN_OUT_LEFT_MID,
  71:lvgl/src/draw/sw/../../misc/lv_area.h ****     LV_ALIGN_OUT_LEFT_BOTTOM,
  72:lvgl/src/draw/sw/../../misc/lv_area.h ****     LV_ALIGN_OUT_RIGHT_TOP,
  73:lvgl/src/draw/sw/../../misc/lv_area.h ****     LV_ALIGN_OUT_RIGHT_MID,
  74:lvgl/src/draw/sw/../../misc/lv_area.h ****     LV_ALIGN_OUT_RIGHT_BOTTOM,
  75:lvgl/src/draw/sw/../../misc/lv_area.h **** };
  76:lvgl/src/draw/sw/../../misc/lv_area.h **** typedef uint8_t lv_align_t;
  77:lvgl/src/draw/sw/../../misc/lv_area.h **** 
  78:lvgl/src/draw/sw/../../misc/lv_area.h **** enum {
  79:lvgl/src/draw/sw/../../misc/lv_area.h ****     LV_DIR_NONE     = 0x00,
  80:lvgl/src/draw/sw/../../misc/lv_area.h ****     LV_DIR_LEFT     = (1 << 0),
  81:lvgl/src/draw/sw/../../misc/lv_area.h ****     LV_DIR_RIGHT    = (1 << 1),
  82:lvgl/src/draw/sw/../../misc/lv_area.h ****     LV_DIR_TOP      = (1 << 2),
  83:lvgl/src/draw/sw/../../misc/lv_area.h ****     LV_DIR_BOTTOM   = (1 << 3),
  84:lvgl/src/draw/sw/../../misc/lv_area.h ****     LV_DIR_HOR      = LV_DIR_LEFT | LV_DIR_RIGHT,
  85:lvgl/src/draw/sw/../../misc/lv_area.h ****     LV_DIR_VER      = LV_DIR_TOP | LV_DIR_BOTTOM,
  86:lvgl/src/draw/sw/../../misc/lv_area.h ****     LV_DIR_ALL      = LV_DIR_HOR | LV_DIR_VER,
  87:lvgl/src/draw/sw/../../misc/lv_area.h **** };
  88:lvgl/src/draw/sw/../../misc/lv_area.h **** 
  89:lvgl/src/draw/sw/../../misc/lv_area.h **** typedef uint8_t lv_dir_t;
  90:lvgl/src/draw/sw/../../misc/lv_area.h **** 
  91:lvgl/src/draw/sw/../../misc/lv_area.h **** /**********************
  92:lvgl/src/draw/sw/../../misc/lv_area.h ****  * GLOBAL PROTOTYPES
  93:lvgl/src/draw/sw/../../misc/lv_area.h ****  **********************/
  94:lvgl/src/draw/sw/../../misc/lv_area.h **** 
  95:lvgl/src/draw/sw/../../misc/lv_area.h **** /**
  96:lvgl/src/draw/sw/../../misc/lv_area.h ****  * Initialize an area
  97:lvgl/src/draw/sw/../../misc/lv_area.h ****  * @param area_p pointer to an area
  98:lvgl/src/draw/sw/../../misc/lv_area.h ****  * @param x1 left coordinate of the area
  99:lvgl/src/draw/sw/../../misc/lv_area.h ****  * @param y1 top coordinate of the area
 100:lvgl/src/draw/sw/../../misc/lv_area.h ****  * @param x2 right coordinate of the area
 101:lvgl/src/draw/sw/../../misc/lv_area.h ****  * @param y2 bottom coordinate of the area
 102:lvgl/src/draw/sw/../../misc/lv_area.h ****  */
 103:lvgl/src/draw/sw/../../misc/lv_area.h **** void lv_area_set(lv_area_t * area_p, lv_coord_t x1, lv_coord_t y1, lv_coord_t x2, lv_coord_t y2);
 104:lvgl/src/draw/sw/../../misc/lv_area.h **** 
 105:lvgl/src/draw/sw/../../misc/lv_area.h **** /**
 106:lvgl/src/draw/sw/../../misc/lv_area.h ****  * Copy an area
 107:lvgl/src/draw/sw/../../misc/lv_area.h ****  * @param dest pointer to the destination area
 108:lvgl/src/draw/sw/../../misc/lv_area.h ****  * @param src pointer to the source area
 109:lvgl/src/draw/sw/../../misc/lv_area.h ****  */
 110:lvgl/src/draw/sw/../../misc/lv_area.h **** inline static void lv_area_copy(lv_area_t * dest, const lv_area_t * src)
 111:lvgl/src/draw/sw/../../misc/lv_area.h **** {
 112:lvgl/src/draw/sw/../../misc/lv_area.h ****     dest->x1 = src->x1;
 113:lvgl/src/draw/sw/../../misc/lv_area.h ****     dest->y1 = src->y1;
 114:lvgl/src/draw/sw/../../misc/lv_area.h ****     dest->x2 = src->x2;
 115:lvgl/src/draw/sw/../../misc/lv_area.h ****     dest->y2 = src->y2;
 116:lvgl/src/draw/sw/../../misc/lv_area.h **** }
 117:lvgl/src/draw/sw/../../misc/lv_area.h **** 
 118:lvgl/src/draw/sw/../../misc/lv_area.h **** /**
 119:lvgl/src/draw/sw/../../misc/lv_area.h ****  * Get the width of an area
 120:lvgl/src/draw/sw/../../misc/lv_area.h ****  * @param area_p pointer to an area
 121:lvgl/src/draw/sw/../../misc/lv_area.h ****  * @return the width of the area (if x1 == x2 -> width = 1)
 122:lvgl/src/draw/sw/../../misc/lv_area.h ****  */
 123:lvgl/src/draw/sw/../../misc/lv_area.h **** static inline lv_coord_t lv_area_get_width(const lv_area_t * area_p)
 1752              		.loc 3 123 26 view .LVU585
 1753              	.LBB28:
 124:lvgl/src/draw/sw/../../misc/lv_area.h **** {
ARM GAS  /var/folders/21/t9g5rlb91ys800n5npymflf80000gn/T//ccApAxk1.s 			page 59


 125:lvgl/src/draw/sw/../../misc/lv_area.h ****     return (lv_coord_t)(area_p->x2 - area_p->x1 + 1);
 1754              		.loc 3 125 5 view .LVU586
 1755              		.loc 3 125 31 is_stmt 0 view .LVU587
 1756 00d2 B4F80480 		ldrh	r8, [r4, #4]
 1757              	.LVL208:
 1758              		.loc 3 125 44 view .LVU588
 1759 00d6 2388     		ldrh	r3, [r4]
 1760              		.loc 3 125 36 view .LVU589
 1761 00d8 A8EB0308 		sub	r8, r8, r3
 1762 00dc 1FFA88F8 		uxth	r8, r8
 1763              		.loc 3 125 49 view .LVU590
 1764 00e0 08F10108 		add	r8, r8, #1
 1765              		.loc 3 125 12 view .LVU591
 1766 00e4 0FFA88F8 		sxth	r8, r8
 1767              	.LVL209:
 1768              		.loc 3 125 12 view .LVU592
 1769              	.LBE28:
 1770              	.LBE27:
 109:lvgl/src/draw/sw/lv_draw_sw_transform.c ****     lv_coord_t y;
 1771              		.loc 1 109 5 is_stmt 1 view .LVU593
 1772              	.LBB29:
 1773              	.LBI29:
 126:lvgl/src/draw/sw/../../misc/lv_area.h **** }
 127:lvgl/src/draw/sw/../../misc/lv_area.h **** 
 128:lvgl/src/draw/sw/../../misc/lv_area.h **** /**
 129:lvgl/src/draw/sw/../../misc/lv_area.h ****  * Get the height of an area
 130:lvgl/src/draw/sw/../../misc/lv_area.h ****  * @param area_p pointer to an area
 131:lvgl/src/draw/sw/../../misc/lv_area.h ****  * @return the height of the area (if y1 == y2 -> height = 1)
 132:lvgl/src/draw/sw/../../misc/lv_area.h ****  */
 133:lvgl/src/draw/sw/../../misc/lv_area.h **** static inline lv_coord_t lv_area_get_height(const lv_area_t * area_p)
 1774              		.loc 3 133 26 view .LVU594
 1775              	.LBB30:
 134:lvgl/src/draw/sw/../../misc/lv_area.h **** {
 135:lvgl/src/draw/sw/../../misc/lv_area.h ****     return (lv_coord_t)(area_p->y2 - area_p->y1 + 1);
 1776              		.loc 3 135 5 view .LVU595
 1777              		.loc 3 135 31 is_stmt 0 view .LVU596
 1778 00e8 B4F806A0 		ldrh	r10, [r4, #6]
 1779              		.loc 3 135 44 view .LVU597
 1780 00ec 6388     		ldrh	r3, [r4, #2]
 1781              		.loc 3 135 36 view .LVU598
 1782 00ee AAEB030A 		sub	r10, r10, r3
 1783 00f2 1FFA8AFA 		uxth	r10, r10
 1784              		.loc 3 135 49 view .LVU599
 1785 00f6 0AF1010A 		add	r10, r10, #1
 1786              		.loc 3 135 12 view .LVU600
 1787 00fa 0FFA8AFA 		sxth	r10, r10
 1788              	.LVL210:
 1789              		.loc 3 135 12 view .LVU601
 1790              	.LBE30:
 1791              	.LBE29:
 110:lvgl/src/draw/sw/lv_draw_sw_transform.c ****     for(y = 0; y < dest_h; y++) {
 1792              		.loc 1 110 5 is_stmt 1 view .LVU602
 111:lvgl/src/draw/sw/lv_draw_sw_transform.c ****         int32_t xs1_ups, ys1_ups, xs2_ups, ys2_ups;
 1793              		.loc 1 111 5 view .LVU603
 111:lvgl/src/draw/sw/lv_draw_sw_transform.c ****         int32_t xs1_ups, ys1_ups, xs2_ups, ys2_ups;
 1794              		.loc 1 111 11 is_stmt 0 view .LVU604
 1795 00fe 0027     		movs	r7, #0
ARM GAS  /var/folders/21/t9g5rlb91ys800n5npymflf80000gn/T//ccApAxk1.s 			page 60


 1796              	.LVL211:
 111:lvgl/src/draw/sw/lv_draw_sw_transform.c ****         int32_t xs1_ups, ys1_ups, xs2_ups, ys2_ups;
 1797              		.loc 1 111 11 view .LVU605
 1798 0100 2346     		mov	r3, r4
 1799 0102 4446     		mov	r4, r8
 1800              	.LVL212:
 111:lvgl/src/draw/sw/lv_draw_sw_transform.c ****         int32_t xs1_ups, ys1_ups, xs2_ups, ys2_ups;
 1801              		.loc 1 111 11 view .LVU606
 1802 0104 9846     		mov	r8, r3
 1803              	.LVL213:
 111:lvgl/src/draw/sw/lv_draw_sw_transform.c ****         int32_t xs1_ups, ys1_ups, xs2_ups, ys2_ups;
 1804              		.loc 1 111 5 view .LVU607
 1805 0106 42E0     		b	.L92
 1806              	.LVL214:
 1807              	.L101:
 1808              	.LBB31:
 120:lvgl/src/draw/sw/lv_draw_sw_transform.c ****         if(dest_w > 1) {
 1809              		.loc 1 120 17 view .LVU608
 1810 0108 0023     		movs	r3, #0
 1811              	.LVL215:
 119:lvgl/src/draw/sw/lv_draw_sw_transform.c ****         int32_t ys_step_256 = 0;
 1812              		.loc 1 119 17 view .LVU609
 1813 010a 1A46     		mov	r2, r3
 1814              	.LVL216:
 119:lvgl/src/draw/sw/lv_draw_sw_transform.c ****         int32_t ys_step_256 = 0;
 1815              		.loc 1 119 17 view .LVU610
 1816 010c 67E0     		b	.L93
 1817              	.LVL217:
 1818              	.L99:
 131:lvgl/src/draw/sw/lv_draw_sw_transform.c ****                     break;
 1819              		.loc 1 131 21 is_stmt 1 view .LVU611
 1820 010e 0695     		str	r5, [sp, #24]
 1821 0110 0596     		str	r6, [sp, #20]
 1822 0112 0494     		str	r4, [sp, #16]
 1823 0114 0393     		str	r3, [sp, #12]
 1824 0116 0292     		str	r2, [sp, #8]
 1825 0118 0190     		str	r0, [sp, #4]
 1826 011a 0091     		str	r1, [sp]
 1827 011c 0C9B     		ldr	r3, [sp, #48]
 1828              	.LVL218:
 131:lvgl/src/draw/sw/lv_draw_sw_transform.c ****                     break;
 1829              		.loc 1 131 21 is_stmt 0 view .LVU612
 1830 011e 0B9A     		ldr	r2, [sp, #44]
 1831              	.LVL219:
 131:lvgl/src/draw/sw/lv_draw_sw_transform.c ****                     break;
 1832              		.loc 1 131 21 view .LVU613
 1833 0120 0A99     		ldr	r1, [sp, #40]
 1834              	.LVL220:
 131:lvgl/src/draw/sw/lv_draw_sw_transform.c ****                     break;
 1835              		.loc 1 131 21 view .LVU614
 1836 0122 0998     		ldr	r0, [sp, #36]
 1837              	.LVL221:
 131:lvgl/src/draw/sw/lv_draw_sw_transform.c ****                     break;
 1838              		.loc 1 131 21 view .LVU615
 1839 0124 FFF7FEFF 		bl	argb_no_aa
 1840              	.LVL222:
 132:lvgl/src/draw/sw/lv_draw_sw_transform.c ****                 case LV_IMG_CF_TRUE_COLOR:
ARM GAS  /var/folders/21/t9g5rlb91ys800n5npymflf80000gn/T//ccApAxk1.s 			page 61


 1841              		.loc 1 132 21 is_stmt 1 view .LVU616
 1842 0128 2CE0     		b	.L95
 1843              	.LVL223:
 1844              	.L98:
 135:lvgl/src/draw/sw/lv_draw_sw_transform.c ****                     break;
 1845              		.loc 1 135 21 view .LVU617
 1846 012a CDF81CB0 		str	fp, [sp, #28]
 1847 012e 0695     		str	r5, [sp, #24]
 1848 0130 0596     		str	r6, [sp, #20]
 1849 0132 0494     		str	r4, [sp, #16]
 1850 0134 0393     		str	r3, [sp, #12]
 1851 0136 0292     		str	r2, [sp, #8]
 1852 0138 0190     		str	r0, [sp, #4]
 1853 013a 0091     		str	r1, [sp]
 1854 013c 0C9B     		ldr	r3, [sp, #48]
 1855              	.LVL224:
 135:lvgl/src/draw/sw/lv_draw_sw_transform.c ****                     break;
 1856              		.loc 1 135 21 is_stmt 0 view .LVU618
 1857 013e 0B9A     		ldr	r2, [sp, #44]
 1858              	.LVL225:
 135:lvgl/src/draw/sw/lv_draw_sw_transform.c ****                     break;
 1859              		.loc 1 135 21 view .LVU619
 1860 0140 0A99     		ldr	r1, [sp, #40]
 1861              	.LVL226:
 135:lvgl/src/draw/sw/lv_draw_sw_transform.c ****                     break;
 1862              		.loc 1 135 21 view .LVU620
 1863 0142 0998     		ldr	r0, [sp, #36]
 1864              	.LVL227:
 135:lvgl/src/draw/sw/lv_draw_sw_transform.c ****                     break;
 1865              		.loc 1 135 21 view .LVU621
 1866 0144 FFF7FEFF 		bl	rgb_no_aa
 1867              	.LVL228:
 136:lvgl/src/draw/sw/lv_draw_sw_transform.c **** 
 1868              		.loc 1 136 21 is_stmt 1 view .LVU622
 1869 0148 1CE0     		b	.L95
 1870              	.LVL229:
 1871              	.L96:
 140:lvgl/src/draw/sw/lv_draw_sw_transform.c ****                     break;
 1872              		.loc 1 140 21 view .LVU623
 1873 014a 0695     		str	r5, [sp, #24]
 1874 014c 0596     		str	r6, [sp, #20]
 1875 014e 0494     		str	r4, [sp, #16]
 1876 0150 0393     		str	r3, [sp, #12]
 1877 0152 0292     		str	r2, [sp, #8]
 1878 0154 0190     		str	r0, [sp, #4]
 1879 0156 0091     		str	r1, [sp]
 1880 0158 0C9B     		ldr	r3, [sp, #48]
 1881              	.LVL230:
 140:lvgl/src/draw/sw/lv_draw_sw_transform.c ****                     break;
 1882              		.loc 1 140 21 is_stmt 0 view .LVU624
 1883 015a 0B9A     		ldr	r2, [sp, #44]
 1884              	.LVL231:
 140:lvgl/src/draw/sw/lv_draw_sw_transform.c ****                     break;
 1885              		.loc 1 140 21 view .LVU625
 1886 015c 0A99     		ldr	r1, [sp, #40]
 1887              	.LVL232:
 140:lvgl/src/draw/sw/lv_draw_sw_transform.c ****                     break;
ARM GAS  /var/folders/21/t9g5rlb91ys800n5npymflf80000gn/T//ccApAxk1.s 			page 62


 1888              		.loc 1 140 21 view .LVU626
 1889 015e 0998     		ldr	r0, [sp, #36]
 1890              	.LVL233:
 140:lvgl/src/draw/sw/lv_draw_sw_transform.c ****                     break;
 1891              		.loc 1 140 21 view .LVU627
 1892 0160 FFF7FEFF 		bl	rgb565a8_no_aa
 1893              	.LVL234:
 141:lvgl/src/draw/sw/lv_draw_sw_transform.c **** #endif
 1894              		.loc 1 141 21 is_stmt 1 view .LVU628
 1895 0164 0EE0     		b	.L95
 1896              	.LVL235:
 1897              	.L94:
 148:lvgl/src/draw/sw/lv_draw_sw_transform.c ****         }
 1898              		.loc 1 148 13 view .LVU629
 1899 0166 CDF81CB0 		str	fp, [sp, #28]
 1900 016a 0695     		str	r5, [sp, #24]
 1901 016c 0596     		str	r6, [sp, #20]
 1902 016e 0494     		str	r4, [sp, #16]
 1903 0170 0393     		str	r3, [sp, #12]
 1904 0172 0292     		str	r2, [sp, #8]
 1905 0174 0190     		str	r0, [sp, #4]
 1906 0176 0091     		str	r1, [sp]
 1907 0178 0C9B     		ldr	r3, [sp, #48]
 1908              	.LVL236:
 148:lvgl/src/draw/sw/lv_draw_sw_transform.c ****         }
 1909              		.loc 1 148 13 is_stmt 0 view .LVU630
 1910 017a 0B9A     		ldr	r2, [sp, #44]
 1911              	.LVL237:
 148:lvgl/src/draw/sw/lv_draw_sw_transform.c ****         }
 1912              		.loc 1 148 13 view .LVU631
 1913 017c 0A99     		ldr	r1, [sp, #40]
 1914              	.LVL238:
 148:lvgl/src/draw/sw/lv_draw_sw_transform.c ****         }
 1915              		.loc 1 148 13 view .LVU632
 1916 017e 0998     		ldr	r0, [sp, #36]
 1917              	.LVL239:
 148:lvgl/src/draw/sw/lv_draw_sw_transform.c ****         }
 1918              		.loc 1 148 13 view .LVU633
 1919 0180 FFF7FEFF 		bl	argb_and_rgb_aa
 1920              	.LVL240:
 1921              	.L95:
 151:lvgl/src/draw/sw/lv_draw_sw_transform.c ****         abuf += dest_w;
 1922              		.loc 1 151 9 is_stmt 1 discriminator 2 view .LVU634
 151:lvgl/src/draw/sw/lv_draw_sw_transform.c ****         abuf += dest_w;
 1923              		.loc 1 151 14 is_stmt 0 discriminator 2 view .LVU635
 1924 0184 06EB4406 		add	r6, r6, r4, lsl #1
 1925              	.LVL241:
 152:lvgl/src/draw/sw/lv_draw_sw_transform.c ****     }
 1926              		.loc 1 152 9 is_stmt 1 discriminator 2 view .LVU636
 152:lvgl/src/draw/sw/lv_draw_sw_transform.c ****     }
 1927              		.loc 1 152 14 is_stmt 0 discriminator 2 view .LVU637
 1928 0188 2544     		add	r5, r5, r4
 1929              	.LVL242:
 152:lvgl/src/draw/sw/lv_draw_sw_transform.c ****     }
 1930              		.loc 1 152 14 discriminator 2 view .LVU638
 1931              	.LBE31:
 111:lvgl/src/draw/sw/lv_draw_sw_transform.c ****         int32_t xs1_ups, ys1_ups, xs2_ups, ys2_ups;
ARM GAS  /var/folders/21/t9g5rlb91ys800n5npymflf80000gn/T//ccApAxk1.s 			page 63


 1932              		.loc 1 111 29 is_stmt 1 discriminator 2 view .LVU639
 1933 018a 0137     		adds	r7, r7, #1
 1934              	.LVL243:
 111:lvgl/src/draw/sw/lv_draw_sw_transform.c ****         int32_t xs1_ups, ys1_ups, xs2_ups, ys2_ups;
 1935              		.loc 1 111 29 is_stmt 0 discriminator 2 view .LVU640
 1936 018c 3FB2     		sxth	r7, r7
 1937              	.LVL244:
 1938              	.L92:
 111:lvgl/src/draw/sw/lv_draw_sw_transform.c ****         int32_t xs1_ups, ys1_ups, xs2_ups, ys2_ups;
 1939              		.loc 1 111 18 is_stmt 1 discriminator 1 view .LVU641
 1940 018e 5745     		cmp	r7, r10
 1941 0190 58DA     		bge	.L104
 1942              	.LBB32:
 112:lvgl/src/draw/sw/lv_draw_sw_transform.c **** 
 1943              		.loc 1 112 9 view .LVU642
 114:lvgl/src/draw/sw/lv_draw_sw_transform.c ****         transform_point_upscaled(&tr_dsc, dest_area->x2, dest_area->y1 + y, &xs2_ups, &ys2_ups);
 1944              		.loc 1 114 9 view .LVU643
 114:lvgl/src/draw/sw/lv_draw_sw_transform.c ****         transform_point_upscaled(&tr_dsc, dest_area->x2, dest_area->y1 + y, &xs2_ups, &ys2_ups);
 1945              		.loc 1 114 67 is_stmt 0 view .LVU644
 1946 0192 B8F90220 		ldrsh	r2, [r8, #2]
 114:lvgl/src/draw/sw/lv_draw_sw_transform.c ****         transform_point_upscaled(&tr_dsc, dest_area->x2, dest_area->y1 + y, &xs2_ups, &ys2_ups);
 1947              		.loc 1 114 9 view .LVU645
 1948 0196 12AB     		add	r3, sp, #72
 1949 0198 0093     		str	r3, [sp]
 1950 019a 11AB     		add	r3, sp, #68
 1951 019c 3A44     		add	r2, r2, r7
 1952 019e B8F90010 		ldrsh	r1, [r8]
 1953 01a2 15A8     		add	r0, sp, #84
 1954 01a4 FFF7FEFF 		bl	transform_point_upscaled
 1955              	.LVL245:
 115:lvgl/src/draw/sw/lv_draw_sw_transform.c **** 
 1956              		.loc 1 115 9 is_stmt 1 view .LVU646
 115:lvgl/src/draw/sw/lv_draw_sw_transform.c **** 
 1957              		.loc 1 115 67 is_stmt 0 view .LVU647
 1958 01a8 B8F90220 		ldrsh	r2, [r8, #2]
 115:lvgl/src/draw/sw/lv_draw_sw_transform.c **** 
 1959              		.loc 1 115 9 view .LVU648
 1960 01ac 14AB     		add	r3, sp, #80
 1961 01ae 0093     		str	r3, [sp]
 1962 01b0 13AB     		add	r3, sp, #76
 1963 01b2 3A44     		add	r2, r2, r7
 1964 01b4 B8F90410 		ldrsh	r1, [r8, #4]
 1965 01b8 15A8     		add	r0, sp, #84
 1966 01ba FFF7FEFF 		bl	transform_point_upscaled
 1967              	.LVL246:
 117:lvgl/src/draw/sw/lv_draw_sw_transform.c ****         int32_t ys_diff = ys2_ups - ys1_ups;
 1968              		.loc 1 117 9 is_stmt 1 view .LVU649
 117:lvgl/src/draw/sw/lv_draw_sw_transform.c ****         int32_t ys_diff = ys2_ups - ys1_ups;
 1969              		.loc 1 117 35 is_stmt 0 view .LVU650
 1970 01be 1199     		ldr	r1, [sp, #68]
 117:lvgl/src/draw/sw/lv_draw_sw_transform.c ****         int32_t ys_diff = ys2_ups - ys1_ups;
 1971              		.loc 1 117 17 view .LVU651
 1972 01c0 139B     		ldr	r3, [sp, #76]
 1973 01c2 5A1A     		subs	r2, r3, r1
 1974              	.LVL247:
 118:lvgl/src/draw/sw/lv_draw_sw_transform.c ****         int32_t xs_step_256 = 0;
 1975              		.loc 1 118 9 is_stmt 1 view .LVU652
ARM GAS  /var/folders/21/t9g5rlb91ys800n5npymflf80000gn/T//ccApAxk1.s 			page 64


 118:lvgl/src/draw/sw/lv_draw_sw_transform.c ****         int32_t xs_step_256 = 0;
 1976              		.loc 1 118 35 is_stmt 0 view .LVU653
 1977 01c4 1298     		ldr	r0, [sp, #72]
 118:lvgl/src/draw/sw/lv_draw_sw_transform.c ****         int32_t xs_step_256 = 0;
 1978              		.loc 1 118 17 view .LVU654
 1979 01c6 149B     		ldr	r3, [sp, #80]
 1980 01c8 1B1A     		subs	r3, r3, r0
 1981              	.LVL248:
 119:lvgl/src/draw/sw/lv_draw_sw_transform.c ****         int32_t ys_step_256 = 0;
 1982              		.loc 1 119 9 is_stmt 1 view .LVU655
 120:lvgl/src/draw/sw/lv_draw_sw_transform.c ****         if(dest_w > 1) {
 1983              		.loc 1 120 9 view .LVU656
 121:lvgl/src/draw/sw/lv_draw_sw_transform.c ****             xs_step_256 = (256 * xs_diff) / (dest_w - 1);
 1984              		.loc 1 121 9 view .LVU657
 121:lvgl/src/draw/sw/lv_draw_sw_transform.c ****             xs_step_256 = (256 * xs_diff) / (dest_w - 1);
 1985              		.loc 1 121 11 is_stmt 0 view .LVU658
 1986 01ca 012C     		cmp	r4, #1
 1987 01cc 9CDD     		ble	.L101
 122:lvgl/src/draw/sw/lv_draw_sw_transform.c ****             ys_step_256 = (256 * ys_diff) / (dest_w - 1);
 1988              		.loc 1 122 13 is_stmt 1 view .LVU659
 122:lvgl/src/draw/sw/lv_draw_sw_transform.c ****             ys_step_256 = (256 * ys_diff) / (dest_w - 1);
 1989              		.loc 1 122 32 is_stmt 0 view .LVU660
 1990 01ce 1202     		lsls	r2, r2, #8
 1991              	.LVL249:
 122:lvgl/src/draw/sw/lv_draw_sw_transform.c ****             ys_step_256 = (256 * ys_diff) / (dest_w - 1);
 1992              		.loc 1 122 53 view .LVU661
 1993 01d0 04F1FF3C 		add	ip, r4, #-1
 122:lvgl/src/draw/sw/lv_draw_sw_transform.c ****             ys_step_256 = (256 * ys_diff) / (dest_w - 1);
 1994              		.loc 1 122 25 view .LVU662
 1995 01d4 92FBFCF2 		sdiv	r2, r2, ip
 1996              	.LVL250:
 123:lvgl/src/draw/sw/lv_draw_sw_transform.c ****         }
 1997              		.loc 1 123 13 is_stmt 1 view .LVU663
 123:lvgl/src/draw/sw/lv_draw_sw_transform.c ****         }
 1998              		.loc 1 123 32 is_stmt 0 view .LVU664
 1999 01d8 1B02     		lsls	r3, r3, #8
 2000              	.LVL251:
 123:lvgl/src/draw/sw/lv_draw_sw_transform.c ****         }
 2001              		.loc 1 123 25 view .LVU665
 2002 01da 93FBFCF3 		sdiv	r3, r3, ip
 2003              	.LVL252:
 2004              	.L93:
 125:lvgl/src/draw/sw/lv_draw_sw_transform.c ****         int32_t ys_ups = ys1_ups + 0x80;
 2005              		.loc 1 125 9 is_stmt 1 view .LVU666
 125:lvgl/src/draw/sw/lv_draw_sw_transform.c ****         int32_t ys_ups = ys1_ups + 0x80;
 2006              		.loc 1 125 17 is_stmt 0 view .LVU667
 2007 01de 8031     		adds	r1, r1, #128
 2008              	.LVL253:
 126:lvgl/src/draw/sw/lv_draw_sw_transform.c **** 
 2009              		.loc 1 126 9 is_stmt 1 view .LVU668
 126:lvgl/src/draw/sw/lv_draw_sw_transform.c **** 
 2010              		.loc 1 126 17 is_stmt 0 view .LVU669
 2011 01e0 8030     		adds	r0, r0, #128
 2012              	.LVL254:
 128:lvgl/src/draw/sw/lv_draw_sw_transform.c ****             switch(cf) {
 2013              		.loc 1 128 9 is_stmt 1 view .LVU670
 128:lvgl/src/draw/sw/lv_draw_sw_transform.c ****             switch(cf) {
ARM GAS  /var/folders/21/t9g5rlb91ys800n5npymflf80000gn/T//ccApAxk1.s 			page 65


 2014              		.loc 1 128 32 is_stmt 0 view .LVU671
 2015 01e2 99F814C0 		ldrb	ip, [r9, #20]	@ zero_extendqisi2
 128:lvgl/src/draw/sw/lv_draw_sw_transform.c ****             switch(cf) {
 2016              		.loc 1 128 11 view .LVU672
 2017 01e6 1CF0010F 		tst	ip, #1
 2018 01ea BCD1     		bne	.L94
 129:lvgl/src/draw/sw/lv_draw_sw_transform.c ****                 case LV_IMG_CF_TRUE_COLOR_ALPHA:
 2019              		.loc 1 129 13 is_stmt 1 view .LVU673
 2020 01ec ABF1040C 		sub	ip, fp, #4
 2021 01f0 BCF1100F 		cmp	ip, #16
 2022 01f4 C6D8     		bhi	.L95
 2023 01f6 0FF2080E 		adr	lr, .L97
 2024 01fa 5EF82CF0 		ldr	pc, [lr, ip, lsl #2]
 2025 01fe 00BF     		.p2align 2
 2026              	.L97:
 2027 0200 2B010000 		.word	.L98+1
 2028 0204 0F010000 		.word	.L99+1
 2029 0208 2B010000 		.word	.L98+1
 2030 020c 85010000 		.word	.L95+1
 2031 0210 85010000 		.word	.L95+1
 2032 0214 85010000 		.word	.L95+1
 2033 0218 85010000 		.word	.L95+1
 2034 021c 85010000 		.word	.L95+1
 2035 0220 85010000 		.word	.L95+1
 2036 0224 85010000 		.word	.L95+1
 2037 0228 85010000 		.word	.L95+1
 2038 022c 85010000 		.word	.L95+1
 2039 0230 85010000 		.word	.L95+1
 2040 0234 85010000 		.word	.L95+1
 2041 0238 85010000 		.word	.L95+1
 2042 023c 85010000 		.word	.L95+1
 2043 0240 4B010000 		.word	.L96+1
 2044              	.LVL255:
 2045              		.p2align 1
 2046              	.L104:
 129:lvgl/src/draw/sw/lv_draw_sw_transform.c ****                 case LV_IMG_CF_TRUE_COLOR_ALPHA:
 2047              		.loc 1 129 13 is_stmt 0 view .LVU674
 2048              	.LBE32:
 154:lvgl/src/draw/sw/lv_draw_sw_transform.c **** 
 2049              		.loc 1 154 1 view .LVU675
 2050 0244 21B0     		add	sp, sp, #132
 2051              	.LCFI15:
 2052              		.cfi_def_cfa_offset 36
 2053              		@ sp needed
 2054 0246 BDE8F08F 		pop	{r4, r5, r6, r7, r8, r9, r10, fp, pc}
 2055              	.LVL256:
 2056              	.L106:
 154:lvgl/src/draw/sw/lv_draw_sw_transform.c **** 
 2057              		.loc 1 154 1 view .LVU676
 2058 024a 00BF     		.align	2
 2059              	.L105:
 2060 024c 67666666 		.word	1717986919
 2061              		.cfi_endproc
 2062              	.LFE161:
 2064              		.text
 2065              	.Letext0:
 2066              		.file 4 "/usr/local/include/sys/_types/_int8_t.h"
ARM GAS  /var/folders/21/t9g5rlb91ys800n5npymflf80000gn/T//ccApAxk1.s 			page 66


 2067              		.file 5 "/usr/local/include/sys/_types/_int16_t.h"
 2068              		.file 6 "/usr/local/include/sys/_types/_int32_t.h"
 2069              		.file 7 "/usr/local/include/_types/_uint8_t.h"
 2070              		.file 8 "/usr/local/include/_types/_uint16_t.h"
 2071              		.file 9 "/usr/local/include/_types/_uint32_t.h"
 2072              		.file 10 "/usr/local/include/arm/_types.h"
 2073              		.file 11 "lvgl/src/draw/sw/../../misc/lv_types.h"
 2074              		.file 12 "/usr/local/include/sys/_types/_size_t.h"
 2075              		.file 13 "lvgl/src/draw/sw/../../misc/../font/lv_font.h"
 2076              		.file 14 "lvgl/src/draw/sw/../../misc/lv_txt.h"
 2077              		.file 15 "lvgl/src/draw/sw/../../misc/lv_bidi.h"
 2078              		.file 16 "lvgl/src/draw/sw/../../misc/lv_style.h"
 2079              		.file 17 "lvgl/src/draw/sw/../lv_img_buf.h"
 2080              		.file 18 "lvgl/src/draw/sw/../../core/lv_obj.h"
 2081              		.file 19 "lvgl/src/draw/sw/../lv_draw_rect.h"
 2082              		.file 20 "lvgl/src/draw/sw/../lv_draw_label.h"
 2083              		.file 21 "lvgl/src/draw/sw/../lv_draw_img.h"
 2084              		.file 22 "lvgl/src/draw/sw/../lv_draw_line.h"
 2085              		.file 23 "lvgl/src/draw/sw/../lv_draw_arc.h"
 2086              		.file 24 "lvgl/src/draw/sw/../lv_draw_layer.h"
 2087              		.file 25 "lvgl/src/draw/sw/../lv_draw.h"
 2088              		.file 26 "lvgl/src/draw/sw/../../hal/../misc/lv_timer.h"
 2089              		.file 27 "lvgl/src/draw/sw/../../hal/lv_hal_disp.h"
 2090              		.file 28 "lvgl/src/draw/sw/../../core/lv_group.h"
 2091              		.file 29 "lvgl/src/draw/sw/../../hal/../misc/lv_ll.h"
 2092              		.file 30 "lvgl/src/draw/sw/../../core/lv_obj_scroll.h"
 2093              		.file 31 "lvgl/src/draw/sw/../../core/lv_obj_style.h"
 2094              		.file 32 "lvgl/src/draw/sw/../../core/lv_obj_class.h"
 2095              		.file 33 "lvgl/src/draw/sw/../../core/lv_event.h"
 2096              		.file 34 "lvgl/src/draw/sw/../../misc/lv_mem.h"
 2097              		.file 35 "lvgl/src/draw/sw/../../core/lv_refr.h"
 2098              		.file 36 "lvgl/src/draw/sw/../../misc/lv_math.h"
ARM GAS  /var/folders/21/t9g5rlb91ys800n5npymflf80000gn/T//ccApAxk1.s 			page 67

