ARM GAS  /var/folders/21/t9g5rlb91ys800n5npymflf80000gn/T//cc0CxbBx.s 			page 1


   1              		.cpu cortex-m4
   2              		.arch armv7e-m
   3              		.fpu fpv4-sp-d16
   4              		.eabi_attribute 27, 1
   5              		.eabi_attribute 28, 1
   6              		.eabi_attribute 20, 1
   7              		.eabi_attribute 21, 1
   8              		.eabi_attribute 23, 3
   9              		.eabi_attribute 24, 1
  10              		.eabi_attribute 25, 1
  11              		.eabi_attribute 26, 1
  12              		.eabi_attribute 30, 1
  13              		.eabi_attribute 34, 1
  14              		.eabi_attribute 18, 4
  15              		.file	"lv_draw_mask.c"
  16              		.text
  17              	.Ltext0:
  18              		.cfi_sections	.debug_frame
  19              		.file 1 "lvgl/src/draw/lv_draw_mask.c"
  20              		.section	.text.lv_draw_mask_fade,"ax",%progbits
  21              		.align	1
  22              		.syntax unified
  23              		.thumb
  24              		.thumb_func
  26              	lv_draw_mask_fade:
  27              	.LVL0:
  28              	.LFB77:
   1:lvgl/src/draw/lv_draw_mask.c **** /**
   2:lvgl/src/draw/lv_draw_mask.c ****  * @file lv_mask.c
   3:lvgl/src/draw/lv_draw_mask.c ****  *
   4:lvgl/src/draw/lv_draw_mask.c ****  */
   5:lvgl/src/draw/lv_draw_mask.c **** 
   6:lvgl/src/draw/lv_draw_mask.c **** /*********************
   7:lvgl/src/draw/lv_draw_mask.c ****  *      INCLUDES
   8:lvgl/src/draw/lv_draw_mask.c ****  *********************/
   9:lvgl/src/draw/lv_draw_mask.c **** #include "lv_draw.h"
  10:lvgl/src/draw/lv_draw_mask.c **** #if LV_DRAW_COMPLEX
  11:lvgl/src/draw/lv_draw_mask.c **** #include "../misc/lv_math.h"
  12:lvgl/src/draw/lv_draw_mask.c **** #include "../misc/lv_log.h"
  13:lvgl/src/draw/lv_draw_mask.c **** #include "../misc/lv_assert.h"
  14:lvgl/src/draw/lv_draw_mask.c **** #include "../misc/lv_gc.h"
  15:lvgl/src/draw/lv_draw_mask.c **** 
  16:lvgl/src/draw/lv_draw_mask.c **** /*********************
  17:lvgl/src/draw/lv_draw_mask.c ****  *      DEFINES
  18:lvgl/src/draw/lv_draw_mask.c ****  *********************/
  19:lvgl/src/draw/lv_draw_mask.c **** #define CIRCLE_CACHE_LIFE_MAX   1000
  20:lvgl/src/draw/lv_draw_mask.c **** #define CIRCLE_CACHE_AGING(life, r)   life = LV_MIN(life + (r < 16 ? 1 : (r >> 4)), 1000)
  21:lvgl/src/draw/lv_draw_mask.c **** 
  22:lvgl/src/draw/lv_draw_mask.c **** /**********************
  23:lvgl/src/draw/lv_draw_mask.c ****  *      TYPEDEFS
  24:lvgl/src/draw/lv_draw_mask.c ****  **********************/
  25:lvgl/src/draw/lv_draw_mask.c **** 
  26:lvgl/src/draw/lv_draw_mask.c **** /**********************
  27:lvgl/src/draw/lv_draw_mask.c ****  *  STATIC PROTOTYPES
  28:lvgl/src/draw/lv_draw_mask.c ****  **********************/
  29:lvgl/src/draw/lv_draw_mask.c **** static lv_draw_mask_res_t /* LV_ATTRIBUTE_FAST_MEM */ lv_draw_mask_line(lv_opa_t * mask_buf, lv_coo
  30:lvgl/src/draw/lv_draw_mask.c ****                                                                         lv_coord_t abs_y, lv_coord_
ARM GAS  /var/folders/21/t9g5rlb91ys800n5npymflf80000gn/T//cc0CxbBx.s 			page 2


  31:lvgl/src/draw/lv_draw_mask.c ****                                                                         lv_draw_mask_line_param_t *
  32:lvgl/src/draw/lv_draw_mask.c **** static lv_draw_mask_res_t /* LV_ATTRIBUTE_FAST_MEM */ lv_draw_mask_radius(lv_opa_t * mask_buf, lv_c
  33:lvgl/src/draw/lv_draw_mask.c ****                                                                           lv_coord_t abs_y, lv_coor
  34:lvgl/src/draw/lv_draw_mask.c ****                                                                           lv_draw_mask_radius_param
  35:lvgl/src/draw/lv_draw_mask.c **** static lv_draw_mask_res_t /* LV_ATTRIBUTE_FAST_MEM */ lv_draw_mask_angle(lv_opa_t * mask_buf, lv_co
  36:lvgl/src/draw/lv_draw_mask.c ****                                                                          lv_coord_t abs_y, lv_coord
  37:lvgl/src/draw/lv_draw_mask.c ****                                                                          lv_draw_mask_angle_param_t
  38:lvgl/src/draw/lv_draw_mask.c **** static lv_draw_mask_res_t /* LV_ATTRIBUTE_FAST_MEM */ lv_draw_mask_fade(lv_opa_t * mask_buf, lv_coo
  39:lvgl/src/draw/lv_draw_mask.c ****                                                                         lv_coord_t abs_y, lv_coord_
  40:lvgl/src/draw/lv_draw_mask.c ****                                                                         lv_draw_mask_fade_param_t *
  41:lvgl/src/draw/lv_draw_mask.c **** static lv_draw_mask_res_t /* LV_ATTRIBUTE_FAST_MEM */ lv_draw_mask_map(lv_opa_t * mask_buf, lv_coor
  42:lvgl/src/draw/lv_draw_mask.c ****                                                                        lv_coord_t abs_y, lv_coord_t
  43:lvgl/src/draw/lv_draw_mask.c ****                                                                        lv_draw_mask_map_param_t * p
  44:lvgl/src/draw/lv_draw_mask.c **** static lv_draw_mask_res_t /* LV_ATTRIBUTE_FAST_MEM */ lv_draw_mask_polygon(lv_opa_t * mask_buf, lv_
  45:lvgl/src/draw/lv_draw_mask.c ****                                                                            lv_coord_t abs_y, lv_coo
  46:lvgl/src/draw/lv_draw_mask.c ****                                                                            lv_draw_mask_polygon_par
  47:lvgl/src/draw/lv_draw_mask.c **** 
  48:lvgl/src/draw/lv_draw_mask.c **** static lv_draw_mask_res_t /* LV_ATTRIBUTE_FAST_MEM */ line_mask_flat(lv_opa_t * mask_buf, lv_coord_
  49:lvgl/src/draw/lv_draw_mask.c ****                                                                      lv_coord_t abs_y, lv_coord_t l
  50:lvgl/src/draw/lv_draw_mask.c ****                                                                      lv_draw_mask_line_param_t * p)
  51:lvgl/src/draw/lv_draw_mask.c **** static lv_draw_mask_res_t /* LV_ATTRIBUTE_FAST_MEM */ line_mask_steep(lv_opa_t * mask_buf, lv_coord
  52:lvgl/src/draw/lv_draw_mask.c ****                                                                       lv_coord_t abs_y, lv_coord_t 
  53:lvgl/src/draw/lv_draw_mask.c ****                                                                       lv_draw_mask_line_param_t * p
  54:lvgl/src/draw/lv_draw_mask.c **** 
  55:lvgl/src/draw/lv_draw_mask.c **** static void circ_init(lv_point_t * c, lv_coord_t * tmp, lv_coord_t radius);
  56:lvgl/src/draw/lv_draw_mask.c **** static bool circ_cont(lv_point_t * c);
  57:lvgl/src/draw/lv_draw_mask.c **** static void circ_next(lv_point_t * c, lv_coord_t * tmp);
  58:lvgl/src/draw/lv_draw_mask.c **** static void circ_calc_aa4(_lv_draw_mask_radius_circle_dsc_t * c, lv_coord_t radius);
  59:lvgl/src/draw/lv_draw_mask.c **** static lv_opa_t * get_next_line(_lv_draw_mask_radius_circle_dsc_t * c, lv_coord_t y, lv_coord_t * l
  60:lvgl/src/draw/lv_draw_mask.c ****                                 lv_coord_t * x_start);
  61:lvgl/src/draw/lv_draw_mask.c **** static inline lv_opa_t /* LV_ATTRIBUTE_FAST_MEM */ mask_mix(lv_opa_t mask_act, lv_opa_t mask_new);
  62:lvgl/src/draw/lv_draw_mask.c **** 
  63:lvgl/src/draw/lv_draw_mask.c **** /**********************
  64:lvgl/src/draw/lv_draw_mask.c ****  *  STATIC VARIABLES
  65:lvgl/src/draw/lv_draw_mask.c ****  **********************/
  66:lvgl/src/draw/lv_draw_mask.c **** 
  67:lvgl/src/draw/lv_draw_mask.c **** /**********************
  68:lvgl/src/draw/lv_draw_mask.c ****  *      MACROS
  69:lvgl/src/draw/lv_draw_mask.c ****  **********************/
  70:lvgl/src/draw/lv_draw_mask.c **** 
  71:lvgl/src/draw/lv_draw_mask.c **** /**********************
  72:lvgl/src/draw/lv_draw_mask.c ****  *   GLOBAL FUNCTIONS
  73:lvgl/src/draw/lv_draw_mask.c ****  **********************/
  74:lvgl/src/draw/lv_draw_mask.c **** 
  75:lvgl/src/draw/lv_draw_mask.c **** /**
  76:lvgl/src/draw/lv_draw_mask.c ****  * Add a draw mask. Everything drawn after it (until removing the mask) will be affected by the mas
  77:lvgl/src/draw/lv_draw_mask.c ****  * @param param an initialized mask parameter. Only the pointer is saved.
  78:lvgl/src/draw/lv_draw_mask.c ****  * @param custom_id a custom pointer to identify the mask. Used in `lv_draw_mask_remove_custom`.
  79:lvgl/src/draw/lv_draw_mask.c ****  * @return the an integer, the ID of the mask. Can be used in `lv_draw_mask_remove_id`.
  80:lvgl/src/draw/lv_draw_mask.c ****  */
  81:lvgl/src/draw/lv_draw_mask.c **** int16_t lv_draw_mask_add(void * param, void * custom_id)
  82:lvgl/src/draw/lv_draw_mask.c **** {
  83:lvgl/src/draw/lv_draw_mask.c ****     /*Look for a free entry*/
  84:lvgl/src/draw/lv_draw_mask.c ****     uint8_t i;
  85:lvgl/src/draw/lv_draw_mask.c ****     for(i = 0; i < _LV_MASK_MAX_NUM; i++) {
  86:lvgl/src/draw/lv_draw_mask.c ****         if(LV_GC_ROOT(_lv_draw_mask_list[i]).param == NULL) break;
  87:lvgl/src/draw/lv_draw_mask.c ****     }
ARM GAS  /var/folders/21/t9g5rlb91ys800n5npymflf80000gn/T//cc0CxbBx.s 			page 3


  88:lvgl/src/draw/lv_draw_mask.c **** 
  89:lvgl/src/draw/lv_draw_mask.c ****     if(i >= _LV_MASK_MAX_NUM) {
  90:lvgl/src/draw/lv_draw_mask.c ****         LV_LOG_WARN("lv_mask_add: no place to add the mask");
  91:lvgl/src/draw/lv_draw_mask.c ****         return LV_MASK_ID_INV;
  92:lvgl/src/draw/lv_draw_mask.c ****     }
  93:lvgl/src/draw/lv_draw_mask.c **** 
  94:lvgl/src/draw/lv_draw_mask.c ****     LV_GC_ROOT(_lv_draw_mask_list[i]).param = param;
  95:lvgl/src/draw/lv_draw_mask.c ****     LV_GC_ROOT(_lv_draw_mask_list[i]).custom_id = custom_id;
  96:lvgl/src/draw/lv_draw_mask.c **** 
  97:lvgl/src/draw/lv_draw_mask.c ****     return i;
  98:lvgl/src/draw/lv_draw_mask.c **** }
  99:lvgl/src/draw/lv_draw_mask.c **** 
 100:lvgl/src/draw/lv_draw_mask.c **** /**
 101:lvgl/src/draw/lv_draw_mask.c ****  * Apply the added buffers on a line. Used internally by the library's drawing routines.
 102:lvgl/src/draw/lv_draw_mask.c ****  * @param mask_buf store the result mask here. Has to be `len` byte long. Should be initialized wit
 103:lvgl/src/draw/lv_draw_mask.c ****  * @param abs_x absolute X coordinate where the line to calculate start
 104:lvgl/src/draw/lv_draw_mask.c ****  * @param abs_y absolute Y coordinate where the line to calculate start
 105:lvgl/src/draw/lv_draw_mask.c ****  * @param len length of the line to calculate (in pixel count)
 106:lvgl/src/draw/lv_draw_mask.c ****  * @return One of these values:
 107:lvgl/src/draw/lv_draw_mask.c ****  * - `LV_DRAW_MASK_RES_FULL_TRANSP`: the whole line is transparent. `mask_buf` is not set to zero
 108:lvgl/src/draw/lv_draw_mask.c ****  * - `LV_DRAW_MASK_RES_FULL_COVER`: the whole line is fully visible. `mask_buf` is unchanged
 109:lvgl/src/draw/lv_draw_mask.c ****  * - `LV_DRAW_MASK_RES_CHANGED`: `mask_buf` has changed, it shows the desired opacity of each pixel
 110:lvgl/src/draw/lv_draw_mask.c ****  */
 111:lvgl/src/draw/lv_draw_mask.c **** lv_draw_mask_res_t LV_ATTRIBUTE_FAST_MEM lv_draw_mask_apply(lv_opa_t * mask_buf, lv_coord_t abs_x,
 112:lvgl/src/draw/lv_draw_mask.c ****                                                             lv_coord_t abs_y, lv_coord_t len)
 113:lvgl/src/draw/lv_draw_mask.c **** {
 114:lvgl/src/draw/lv_draw_mask.c ****     bool changed = false;
 115:lvgl/src/draw/lv_draw_mask.c ****     _lv_draw_mask_common_dsc_t * dsc;
 116:lvgl/src/draw/lv_draw_mask.c **** 
 117:lvgl/src/draw/lv_draw_mask.c ****     _lv_draw_mask_saved_t * m = LV_GC_ROOT(_lv_draw_mask_list);
 118:lvgl/src/draw/lv_draw_mask.c **** 
 119:lvgl/src/draw/lv_draw_mask.c ****     while(m->param) {
 120:lvgl/src/draw/lv_draw_mask.c ****         dsc = m->param;
 121:lvgl/src/draw/lv_draw_mask.c ****         lv_draw_mask_res_t res = LV_DRAW_MASK_RES_FULL_COVER;
 122:lvgl/src/draw/lv_draw_mask.c ****         res = dsc->cb(mask_buf, abs_x, abs_y, len, (void *)m->param);
 123:lvgl/src/draw/lv_draw_mask.c ****         if(res == LV_DRAW_MASK_RES_TRANSP) return LV_DRAW_MASK_RES_TRANSP;
 124:lvgl/src/draw/lv_draw_mask.c ****         else if(res == LV_DRAW_MASK_RES_CHANGED) changed = true;
 125:lvgl/src/draw/lv_draw_mask.c **** 
 126:lvgl/src/draw/lv_draw_mask.c ****         m++;
 127:lvgl/src/draw/lv_draw_mask.c ****     }
 128:lvgl/src/draw/lv_draw_mask.c **** 
 129:lvgl/src/draw/lv_draw_mask.c ****     return changed ? LV_DRAW_MASK_RES_CHANGED : LV_DRAW_MASK_RES_FULL_COVER;
 130:lvgl/src/draw/lv_draw_mask.c **** }
 131:lvgl/src/draw/lv_draw_mask.c **** 
 132:lvgl/src/draw/lv_draw_mask.c **** /**
 133:lvgl/src/draw/lv_draw_mask.c ****  * Apply the specified buffers on a line. Used internally by the library's drawing routines.
 134:lvgl/src/draw/lv_draw_mask.c ****  * @param mask_buf store the result mask here. Has to be `len` byte long. Should be initialized wit
 135:lvgl/src/draw/lv_draw_mask.c ****  * @param abs_x absolute X coordinate where the line to calculate start
 136:lvgl/src/draw/lv_draw_mask.c ****  * @param abs_y absolute Y coordinate where the line to calculate start
 137:lvgl/src/draw/lv_draw_mask.c ****  * @param len length of the line to calculate (in pixel count)
 138:lvgl/src/draw/lv_draw_mask.c ****  * @param ids ID array of added buffers
 139:lvgl/src/draw/lv_draw_mask.c ****  * @param ids_count number of ID array
 140:lvgl/src/draw/lv_draw_mask.c ****  * @return One of these values:
 141:lvgl/src/draw/lv_draw_mask.c ****  * - `LV_DRAW_MASK_RES_FULL_TRANSP`: the whole line is transparent. `mask_buf` is not set to zero
 142:lvgl/src/draw/lv_draw_mask.c ****  * - `LV_DRAW_MASK_RES_FULL_COVER`: the whole line is fully visible. `mask_buf` is unchanged
 143:lvgl/src/draw/lv_draw_mask.c ****  * - `LV_DRAW_MASK_RES_CHANGED`: `mask_buf` has changed, it shows the desired opacity of each pixel
 144:lvgl/src/draw/lv_draw_mask.c ****  */
ARM GAS  /var/folders/21/t9g5rlb91ys800n5npymflf80000gn/T//cc0CxbBx.s 			page 4


 145:lvgl/src/draw/lv_draw_mask.c **** lv_draw_mask_res_t LV_ATTRIBUTE_FAST_MEM lv_draw_mask_apply_ids(lv_opa_t * mask_buf, lv_coord_t abs
 146:lvgl/src/draw/lv_draw_mask.c ****                                                                 lv_coord_t abs_y, lv_coord_t len,
 147:lvgl/src/draw/lv_draw_mask.c ****                                                                 const int16_t * ids, int16_t ids_co
 148:lvgl/src/draw/lv_draw_mask.c **** {
 149:lvgl/src/draw/lv_draw_mask.c ****     bool changed = false;
 150:lvgl/src/draw/lv_draw_mask.c ****     _lv_draw_mask_common_dsc_t * dsc;
 151:lvgl/src/draw/lv_draw_mask.c **** 
 152:lvgl/src/draw/lv_draw_mask.c ****     for(int i = 0; i < ids_count; i++) {
 153:lvgl/src/draw/lv_draw_mask.c ****         int16_t id = ids[i];
 154:lvgl/src/draw/lv_draw_mask.c ****         if(id == LV_MASK_ID_INV) continue;
 155:lvgl/src/draw/lv_draw_mask.c ****         dsc = LV_GC_ROOT(_lv_draw_mask_list[id]).param;
 156:lvgl/src/draw/lv_draw_mask.c ****         if(!dsc) continue;
 157:lvgl/src/draw/lv_draw_mask.c ****         lv_draw_mask_res_t res = LV_DRAW_MASK_RES_FULL_COVER;
 158:lvgl/src/draw/lv_draw_mask.c ****         res = dsc->cb(mask_buf, abs_x, abs_y, len, dsc);
 159:lvgl/src/draw/lv_draw_mask.c ****         if(res == LV_DRAW_MASK_RES_TRANSP) return LV_DRAW_MASK_RES_TRANSP;
 160:lvgl/src/draw/lv_draw_mask.c ****         else if(res == LV_DRAW_MASK_RES_CHANGED) changed = true;
 161:lvgl/src/draw/lv_draw_mask.c ****     }
 162:lvgl/src/draw/lv_draw_mask.c **** 
 163:lvgl/src/draw/lv_draw_mask.c ****     return changed ? LV_DRAW_MASK_RES_CHANGED : LV_DRAW_MASK_RES_FULL_COVER;
 164:lvgl/src/draw/lv_draw_mask.c **** }
 165:lvgl/src/draw/lv_draw_mask.c **** 
 166:lvgl/src/draw/lv_draw_mask.c **** /**
 167:lvgl/src/draw/lv_draw_mask.c ****  * Remove a mask with a given ID
 168:lvgl/src/draw/lv_draw_mask.c ****  * @param id the ID of the mask.  Returned by `lv_draw_mask_add`
 169:lvgl/src/draw/lv_draw_mask.c ****  * @return the parameter of the removed mask.
 170:lvgl/src/draw/lv_draw_mask.c ****  * If more masks have `custom_id` ID then the last mask's parameter will be returned
 171:lvgl/src/draw/lv_draw_mask.c ****  */
 172:lvgl/src/draw/lv_draw_mask.c **** void * lv_draw_mask_remove_id(int16_t id)
 173:lvgl/src/draw/lv_draw_mask.c **** {
 174:lvgl/src/draw/lv_draw_mask.c ****     _lv_draw_mask_common_dsc_t * p = NULL;
 175:lvgl/src/draw/lv_draw_mask.c **** 
 176:lvgl/src/draw/lv_draw_mask.c ****     if(id != LV_MASK_ID_INV) {
 177:lvgl/src/draw/lv_draw_mask.c ****         p = LV_GC_ROOT(_lv_draw_mask_list[id]).param;
 178:lvgl/src/draw/lv_draw_mask.c ****         LV_GC_ROOT(_lv_draw_mask_list[id]).param = NULL;
 179:lvgl/src/draw/lv_draw_mask.c ****         LV_GC_ROOT(_lv_draw_mask_list[id]).custom_id = NULL;
 180:lvgl/src/draw/lv_draw_mask.c ****     }
 181:lvgl/src/draw/lv_draw_mask.c **** 
 182:lvgl/src/draw/lv_draw_mask.c ****     return p;
 183:lvgl/src/draw/lv_draw_mask.c **** }
 184:lvgl/src/draw/lv_draw_mask.c **** 
 185:lvgl/src/draw/lv_draw_mask.c **** /**
 186:lvgl/src/draw/lv_draw_mask.c ****  * Remove all mask with a given custom ID
 187:lvgl/src/draw/lv_draw_mask.c ****  * @param custom_id a pointer used in `lv_draw_mask_add`
 188:lvgl/src/draw/lv_draw_mask.c ****  * @return return the parameter of the removed mask.
 189:lvgl/src/draw/lv_draw_mask.c ****  * If more masks have `custom_id` ID then the last mask's parameter will be returned
 190:lvgl/src/draw/lv_draw_mask.c ****  */
 191:lvgl/src/draw/lv_draw_mask.c **** void * lv_draw_mask_remove_custom(void * custom_id)
 192:lvgl/src/draw/lv_draw_mask.c **** {
 193:lvgl/src/draw/lv_draw_mask.c ****     _lv_draw_mask_common_dsc_t * p = NULL;
 194:lvgl/src/draw/lv_draw_mask.c ****     uint8_t i;
 195:lvgl/src/draw/lv_draw_mask.c ****     for(i = 0; i < _LV_MASK_MAX_NUM; i++) {
 196:lvgl/src/draw/lv_draw_mask.c ****         if(LV_GC_ROOT(_lv_draw_mask_list[i]).custom_id == custom_id) {
 197:lvgl/src/draw/lv_draw_mask.c ****             p = LV_GC_ROOT(_lv_draw_mask_list[i]).param;
 198:lvgl/src/draw/lv_draw_mask.c ****             lv_draw_mask_remove_id(i);
 199:lvgl/src/draw/lv_draw_mask.c ****         }
 200:lvgl/src/draw/lv_draw_mask.c ****     }
 201:lvgl/src/draw/lv_draw_mask.c ****     return p;
ARM GAS  /var/folders/21/t9g5rlb91ys800n5npymflf80000gn/T//cc0CxbBx.s 			page 5


 202:lvgl/src/draw/lv_draw_mask.c **** }
 203:lvgl/src/draw/lv_draw_mask.c **** 
 204:lvgl/src/draw/lv_draw_mask.c **** /**
 205:lvgl/src/draw/lv_draw_mask.c ****  * Free the data from the parameter.
 206:lvgl/src/draw/lv_draw_mask.c ****  * It's called inside `lv_draw_mask_remove_id` and `lv_draw_mask_remove_custom`
 207:lvgl/src/draw/lv_draw_mask.c ****  * Needs to be called only in special cases when the mask is not added by `lv_draw_mask_add`
 208:lvgl/src/draw/lv_draw_mask.c ****  * and not removed by `lv_draw_mask_remove_id` or `lv_draw_mask_remove_custom`
 209:lvgl/src/draw/lv_draw_mask.c ****  * @param p pointer to a mask parameter
 210:lvgl/src/draw/lv_draw_mask.c ****  */
 211:lvgl/src/draw/lv_draw_mask.c **** void lv_draw_mask_free_param(void * p)
 212:lvgl/src/draw/lv_draw_mask.c **** {
 213:lvgl/src/draw/lv_draw_mask.c ****     _lv_draw_mask_common_dsc_t * pdsc = p;
 214:lvgl/src/draw/lv_draw_mask.c ****     if(pdsc->type == LV_DRAW_MASK_TYPE_RADIUS) {
 215:lvgl/src/draw/lv_draw_mask.c ****         lv_draw_mask_radius_param_t * radius_p = (lv_draw_mask_radius_param_t *) p;
 216:lvgl/src/draw/lv_draw_mask.c ****         if(radius_p->circle) {
 217:lvgl/src/draw/lv_draw_mask.c ****             if(radius_p->circle->life < 0) {
 218:lvgl/src/draw/lv_draw_mask.c ****                 lv_mem_free(radius_p->circle->cir_opa);
 219:lvgl/src/draw/lv_draw_mask.c ****                 lv_mem_free(radius_p->circle);
 220:lvgl/src/draw/lv_draw_mask.c ****             }
 221:lvgl/src/draw/lv_draw_mask.c ****             else {
 222:lvgl/src/draw/lv_draw_mask.c ****                 radius_p->circle->used_cnt--;
 223:lvgl/src/draw/lv_draw_mask.c ****             }
 224:lvgl/src/draw/lv_draw_mask.c ****         }
 225:lvgl/src/draw/lv_draw_mask.c ****     }
 226:lvgl/src/draw/lv_draw_mask.c ****     else if(pdsc->type == LV_DRAW_MASK_TYPE_POLYGON) {
 227:lvgl/src/draw/lv_draw_mask.c ****         lv_draw_mask_polygon_param_t * poly_p = (lv_draw_mask_polygon_param_t *) p;
 228:lvgl/src/draw/lv_draw_mask.c ****         lv_mem_free(poly_p->cfg.points);
 229:lvgl/src/draw/lv_draw_mask.c ****     }
 230:lvgl/src/draw/lv_draw_mask.c **** }
 231:lvgl/src/draw/lv_draw_mask.c **** 
 232:lvgl/src/draw/lv_draw_mask.c **** void _lv_draw_mask_cleanup(void)
 233:lvgl/src/draw/lv_draw_mask.c **** {
 234:lvgl/src/draw/lv_draw_mask.c ****     uint8_t i;
 235:lvgl/src/draw/lv_draw_mask.c ****     for(i = 0; i < LV_CIRCLE_CACHE_SIZE; i++) {
 236:lvgl/src/draw/lv_draw_mask.c ****         if(LV_GC_ROOT(_lv_circle_cache[i]).buf) {
 237:lvgl/src/draw/lv_draw_mask.c ****             lv_mem_free(LV_GC_ROOT(_lv_circle_cache[i]).buf);
 238:lvgl/src/draw/lv_draw_mask.c ****         }
 239:lvgl/src/draw/lv_draw_mask.c ****         lv_memset_00(&LV_GC_ROOT(_lv_circle_cache[i]), sizeof(LV_GC_ROOT(_lv_circle_cache[i])));
 240:lvgl/src/draw/lv_draw_mask.c ****     }
 241:lvgl/src/draw/lv_draw_mask.c **** }
 242:lvgl/src/draw/lv_draw_mask.c **** 
 243:lvgl/src/draw/lv_draw_mask.c **** /**
 244:lvgl/src/draw/lv_draw_mask.c ****  * Count the currently added masks
 245:lvgl/src/draw/lv_draw_mask.c ****  * @return number of active masks
 246:lvgl/src/draw/lv_draw_mask.c ****  */
 247:lvgl/src/draw/lv_draw_mask.c **** uint8_t LV_ATTRIBUTE_FAST_MEM lv_draw_mask_get_cnt(void)
 248:lvgl/src/draw/lv_draw_mask.c **** {
 249:lvgl/src/draw/lv_draw_mask.c ****     uint8_t cnt = 0;
 250:lvgl/src/draw/lv_draw_mask.c ****     uint8_t i;
 251:lvgl/src/draw/lv_draw_mask.c ****     for(i = 0; i < _LV_MASK_MAX_NUM; i++) {
 252:lvgl/src/draw/lv_draw_mask.c ****         if(LV_GC_ROOT(_lv_draw_mask_list[i]).param) cnt++;
 253:lvgl/src/draw/lv_draw_mask.c ****     }
 254:lvgl/src/draw/lv_draw_mask.c ****     return cnt;
 255:lvgl/src/draw/lv_draw_mask.c **** }
 256:lvgl/src/draw/lv_draw_mask.c **** 
 257:lvgl/src/draw/lv_draw_mask.c **** bool lv_draw_mask_is_any(const lv_area_t * a)
 258:lvgl/src/draw/lv_draw_mask.c **** {
ARM GAS  /var/folders/21/t9g5rlb91ys800n5npymflf80000gn/T//cc0CxbBx.s 			page 6


 259:lvgl/src/draw/lv_draw_mask.c ****     if(a == NULL) return LV_GC_ROOT(_lv_draw_mask_list[0]).param ? true : false;
 260:lvgl/src/draw/lv_draw_mask.c **** 
 261:lvgl/src/draw/lv_draw_mask.c ****     uint8_t i;
 262:lvgl/src/draw/lv_draw_mask.c ****     for(i = 0; i < _LV_MASK_MAX_NUM; i++) {
 263:lvgl/src/draw/lv_draw_mask.c ****         _lv_draw_mask_common_dsc_t * comm_param = LV_GC_ROOT(_lv_draw_mask_list[i]).param;
 264:lvgl/src/draw/lv_draw_mask.c ****         if(comm_param == NULL) continue;
 265:lvgl/src/draw/lv_draw_mask.c ****         if(comm_param->type == LV_DRAW_MASK_TYPE_RADIUS) {
 266:lvgl/src/draw/lv_draw_mask.c ****             lv_draw_mask_radius_param_t * radius_param = LV_GC_ROOT(_lv_draw_mask_list[i]).param;
 267:lvgl/src/draw/lv_draw_mask.c ****             if(radius_param->cfg.outer) {
 268:lvgl/src/draw/lv_draw_mask.c ****                 if(!_lv_area_is_out(a, &radius_param->cfg.rect, radius_param->cfg.radius)) return t
 269:lvgl/src/draw/lv_draw_mask.c ****             }
 270:lvgl/src/draw/lv_draw_mask.c ****             else {
 271:lvgl/src/draw/lv_draw_mask.c ****                 if(!_lv_area_is_in(a, &radius_param->cfg.rect, radius_param->cfg.radius)) return tr
 272:lvgl/src/draw/lv_draw_mask.c ****             }
 273:lvgl/src/draw/lv_draw_mask.c ****         }
 274:lvgl/src/draw/lv_draw_mask.c ****         else {
 275:lvgl/src/draw/lv_draw_mask.c ****             return true;
 276:lvgl/src/draw/lv_draw_mask.c ****         }
 277:lvgl/src/draw/lv_draw_mask.c ****     }
 278:lvgl/src/draw/lv_draw_mask.c **** 
 279:lvgl/src/draw/lv_draw_mask.c ****     return false;
 280:lvgl/src/draw/lv_draw_mask.c **** 
 281:lvgl/src/draw/lv_draw_mask.c **** }
 282:lvgl/src/draw/lv_draw_mask.c **** 
 283:lvgl/src/draw/lv_draw_mask.c **** /**
 284:lvgl/src/draw/lv_draw_mask.c ****  *Initialize a line mask from two points.
 285:lvgl/src/draw/lv_draw_mask.c ****  * @param param pointer to a `lv_draw_mask_param_t` to initialize
 286:lvgl/src/draw/lv_draw_mask.c ****  * @param p1x X coordinate of the first point of the line
 287:lvgl/src/draw/lv_draw_mask.c ****  * @param p1y Y coordinate of the first point of the line
 288:lvgl/src/draw/lv_draw_mask.c ****  * @param p2x X coordinate of the second point of the line
 289:lvgl/src/draw/lv_draw_mask.c ****  * @param p2y y coordinate of the second point of the line
 290:lvgl/src/draw/lv_draw_mask.c ****  * @param side and element of `lv_draw_mask_line_side_t` to describe which side to keep.
 291:lvgl/src/draw/lv_draw_mask.c ****  * With `LV_DRAW_MASK_LINE_SIDE_LEFT/RIGHT` and horizontal line all pixels are kept
 292:lvgl/src/draw/lv_draw_mask.c ****  * With `LV_DRAW_MASK_LINE_SIDE_TOP/BOTTOM` and vertical line all pixels are kept
 293:lvgl/src/draw/lv_draw_mask.c ****  */
 294:lvgl/src/draw/lv_draw_mask.c **** void lv_draw_mask_line_points_init(lv_draw_mask_line_param_t * param, lv_coord_t p1x, lv_coord_t p1
 295:lvgl/src/draw/lv_draw_mask.c ****                                    lv_coord_t p2y, lv_draw_mask_line_side_t side)
 296:lvgl/src/draw/lv_draw_mask.c **** {
 297:lvgl/src/draw/lv_draw_mask.c ****     lv_memset_00(param, sizeof(lv_draw_mask_line_param_t));
 298:lvgl/src/draw/lv_draw_mask.c **** 
 299:lvgl/src/draw/lv_draw_mask.c ****     if(p1y == p2y && side == LV_DRAW_MASK_LINE_SIDE_BOTTOM) {
 300:lvgl/src/draw/lv_draw_mask.c ****         p1y--;
 301:lvgl/src/draw/lv_draw_mask.c ****         p2y--;
 302:lvgl/src/draw/lv_draw_mask.c ****     }
 303:lvgl/src/draw/lv_draw_mask.c **** 
 304:lvgl/src/draw/lv_draw_mask.c ****     if(p1y > p2y) {
 305:lvgl/src/draw/lv_draw_mask.c ****         lv_coord_t t;
 306:lvgl/src/draw/lv_draw_mask.c ****         t = p2x;
 307:lvgl/src/draw/lv_draw_mask.c ****         p2x = p1x;
 308:lvgl/src/draw/lv_draw_mask.c ****         p1x = t;
 309:lvgl/src/draw/lv_draw_mask.c **** 
 310:lvgl/src/draw/lv_draw_mask.c ****         t = p2y;
 311:lvgl/src/draw/lv_draw_mask.c ****         p2y = p1y;
 312:lvgl/src/draw/lv_draw_mask.c ****         p1y = t;
 313:lvgl/src/draw/lv_draw_mask.c ****     }
 314:lvgl/src/draw/lv_draw_mask.c **** 
 315:lvgl/src/draw/lv_draw_mask.c ****     param->cfg.p1.x = p1x;
ARM GAS  /var/folders/21/t9g5rlb91ys800n5npymflf80000gn/T//cc0CxbBx.s 			page 7


 316:lvgl/src/draw/lv_draw_mask.c ****     param->cfg.p1.y = p1y;
 317:lvgl/src/draw/lv_draw_mask.c ****     param->cfg.p2.x = p2x;
 318:lvgl/src/draw/lv_draw_mask.c ****     param->cfg.p2.y = p2y;
 319:lvgl/src/draw/lv_draw_mask.c ****     param->cfg.side = side;
 320:lvgl/src/draw/lv_draw_mask.c **** 
 321:lvgl/src/draw/lv_draw_mask.c ****     param->origo.x = p1x;
 322:lvgl/src/draw/lv_draw_mask.c ****     param->origo.y = p1y;
 323:lvgl/src/draw/lv_draw_mask.c ****     param->flat = (LV_ABS(p2x - p1x) > LV_ABS(p2y - p1y)) ? 1 : 0;
 324:lvgl/src/draw/lv_draw_mask.c ****     param->yx_steep = 0;
 325:lvgl/src/draw/lv_draw_mask.c ****     param->xy_steep = 0;
 326:lvgl/src/draw/lv_draw_mask.c ****     param->dsc.cb = (lv_draw_mask_xcb_t)lv_draw_mask_line;
 327:lvgl/src/draw/lv_draw_mask.c ****     param->dsc.type = LV_DRAW_MASK_TYPE_LINE;
 328:lvgl/src/draw/lv_draw_mask.c **** 
 329:lvgl/src/draw/lv_draw_mask.c ****     int32_t dx = p2x - p1x;
 330:lvgl/src/draw/lv_draw_mask.c ****     int32_t dy = p2y - p1y;
 331:lvgl/src/draw/lv_draw_mask.c **** 
 332:lvgl/src/draw/lv_draw_mask.c ****     if(param->flat) {
 333:lvgl/src/draw/lv_draw_mask.c ****         /*Normalize the steep. Delta x should be relative to delta x = 1024*/
 334:lvgl/src/draw/lv_draw_mask.c ****         int32_t m;
 335:lvgl/src/draw/lv_draw_mask.c **** 
 336:lvgl/src/draw/lv_draw_mask.c ****         if(dx) {
 337:lvgl/src/draw/lv_draw_mask.c ****             m = (1L << 20) / dx;  /*m is multiplier to normalize y (upscaled by 1024)*/
 338:lvgl/src/draw/lv_draw_mask.c ****             param->yx_steep = (m * dy) >> 10;
 339:lvgl/src/draw/lv_draw_mask.c ****         }
 340:lvgl/src/draw/lv_draw_mask.c **** 
 341:lvgl/src/draw/lv_draw_mask.c ****         if(dy) {
 342:lvgl/src/draw/lv_draw_mask.c ****             m = (1L << 20) / dy;  /*m is multiplier to normalize x (upscaled by 1024)*/
 343:lvgl/src/draw/lv_draw_mask.c ****             param->xy_steep = (m * dx) >> 10;
 344:lvgl/src/draw/lv_draw_mask.c ****         }
 345:lvgl/src/draw/lv_draw_mask.c ****         param->steep = param->yx_steep;
 346:lvgl/src/draw/lv_draw_mask.c ****     }
 347:lvgl/src/draw/lv_draw_mask.c ****     else {
 348:lvgl/src/draw/lv_draw_mask.c ****         /*Normalize the steep. Delta y should be relative to delta x = 1024*/
 349:lvgl/src/draw/lv_draw_mask.c ****         int32_t m;
 350:lvgl/src/draw/lv_draw_mask.c **** 
 351:lvgl/src/draw/lv_draw_mask.c ****         if(dy) {
 352:lvgl/src/draw/lv_draw_mask.c ****             m = (1L << 20) / dy;  /*m is multiplier to normalize x (upscaled by 1024)*/
 353:lvgl/src/draw/lv_draw_mask.c ****             param->xy_steep = (m * dx) >> 10;
 354:lvgl/src/draw/lv_draw_mask.c ****         }
 355:lvgl/src/draw/lv_draw_mask.c **** 
 356:lvgl/src/draw/lv_draw_mask.c ****         if(dx) {
 357:lvgl/src/draw/lv_draw_mask.c ****             m = (1L << 20) / dx;  /*m is multiplier to normalize x (upscaled by 1024)*/
 358:lvgl/src/draw/lv_draw_mask.c ****             param->yx_steep = (m * dy) >> 10;
 359:lvgl/src/draw/lv_draw_mask.c ****         }
 360:lvgl/src/draw/lv_draw_mask.c ****         param->steep = param->xy_steep;
 361:lvgl/src/draw/lv_draw_mask.c ****     }
 362:lvgl/src/draw/lv_draw_mask.c **** 
 363:lvgl/src/draw/lv_draw_mask.c ****     if(param->cfg.side == LV_DRAW_MASK_LINE_SIDE_LEFT) param->inv = 0;
 364:lvgl/src/draw/lv_draw_mask.c ****     else if(param->cfg.side == LV_DRAW_MASK_LINE_SIDE_RIGHT) param->inv = 1;
 365:lvgl/src/draw/lv_draw_mask.c ****     else if(param->cfg.side == LV_DRAW_MASK_LINE_SIDE_TOP) {
 366:lvgl/src/draw/lv_draw_mask.c ****         if(param->steep > 0) param->inv = 1;
 367:lvgl/src/draw/lv_draw_mask.c ****         else param->inv = 0;
 368:lvgl/src/draw/lv_draw_mask.c ****     }
 369:lvgl/src/draw/lv_draw_mask.c ****     else if(param->cfg.side == LV_DRAW_MASK_LINE_SIDE_BOTTOM) {
 370:lvgl/src/draw/lv_draw_mask.c ****         if(param->steep > 0) param->inv = 0;
 371:lvgl/src/draw/lv_draw_mask.c ****         else param->inv = 1;
 372:lvgl/src/draw/lv_draw_mask.c ****     }
ARM GAS  /var/folders/21/t9g5rlb91ys800n5npymflf80000gn/T//cc0CxbBx.s 			page 8


 373:lvgl/src/draw/lv_draw_mask.c **** 
 374:lvgl/src/draw/lv_draw_mask.c ****     param->spx = param->steep >> 2;
 375:lvgl/src/draw/lv_draw_mask.c ****     if(param->steep < 0) param->spx = -param->spx;
 376:lvgl/src/draw/lv_draw_mask.c **** }
 377:lvgl/src/draw/lv_draw_mask.c **** 
 378:lvgl/src/draw/lv_draw_mask.c **** /**
 379:lvgl/src/draw/lv_draw_mask.c ****  *Initialize a line mask from a point and an angle.
 380:lvgl/src/draw/lv_draw_mask.c ****  * @param param pointer to a `lv_draw_mask_param_t` to initialize
 381:lvgl/src/draw/lv_draw_mask.c ****  * @param px X coordinate of a point of the line
 382:lvgl/src/draw/lv_draw_mask.c ****  * @param py X coordinate of a point of the line
 383:lvgl/src/draw/lv_draw_mask.c ****  * @param angle right 0 deg, bottom: 90
 384:lvgl/src/draw/lv_draw_mask.c ****  * @param side and element of `lv_draw_mask_line_side_t` to describe which side to keep.
 385:lvgl/src/draw/lv_draw_mask.c ****  * With `LV_DRAW_MASK_LINE_SIDE_LEFT/RIGHT` and horizontal line all pixels are kept
 386:lvgl/src/draw/lv_draw_mask.c ****  * With `LV_DRAW_MASK_LINE_SIDE_TOP/BOTTOM` and vertical line all pixels are kept
 387:lvgl/src/draw/lv_draw_mask.c ****  */
 388:lvgl/src/draw/lv_draw_mask.c **** void lv_draw_mask_line_angle_init(lv_draw_mask_line_param_t * param, lv_coord_t p1x, lv_coord_t py,
 389:lvgl/src/draw/lv_draw_mask.c ****                                   lv_draw_mask_line_side_t side)
 390:lvgl/src/draw/lv_draw_mask.c **** {
 391:lvgl/src/draw/lv_draw_mask.c ****     /*Find an optimal degree.
 392:lvgl/src/draw/lv_draw_mask.c ****      *lv_mask_line_points_init will swap the points to keep the smaller y in p1
 393:lvgl/src/draw/lv_draw_mask.c ****      *Theoretically a line with `angle` or `angle+180` is the same only the points are swapped
 394:lvgl/src/draw/lv_draw_mask.c ****      *Find the degree which keeps the origo in place*/
 395:lvgl/src/draw/lv_draw_mask.c ****     if(angle > 180) angle -= 180; /*> 180 will swap the origo*/
 396:lvgl/src/draw/lv_draw_mask.c **** 
 397:lvgl/src/draw/lv_draw_mask.c ****     int32_t p2x;
 398:lvgl/src/draw/lv_draw_mask.c ****     int32_t p2y;
 399:lvgl/src/draw/lv_draw_mask.c **** 
 400:lvgl/src/draw/lv_draw_mask.c ****     p2x = (lv_trigo_sin(angle + 90) >> 5) + p1x;
 401:lvgl/src/draw/lv_draw_mask.c ****     p2y = (lv_trigo_sin(angle) >> 5) + py;
 402:lvgl/src/draw/lv_draw_mask.c **** 
 403:lvgl/src/draw/lv_draw_mask.c ****     lv_draw_mask_line_points_init(param, p1x, py, p2x, p2y, side);
 404:lvgl/src/draw/lv_draw_mask.c **** }
 405:lvgl/src/draw/lv_draw_mask.c **** 
 406:lvgl/src/draw/lv_draw_mask.c **** /**
 407:lvgl/src/draw/lv_draw_mask.c ****  * Initialize an angle mask.
 408:lvgl/src/draw/lv_draw_mask.c ****  * @param param pointer to a `lv_draw_mask_param_t` to initialize
 409:lvgl/src/draw/lv_draw_mask.c ****  * @param vertex_x X coordinate of the angle vertex (absolute coordinates)
 410:lvgl/src/draw/lv_draw_mask.c ****  * @param vertex_y Y coordinate of the angle vertex (absolute coordinates)
 411:lvgl/src/draw/lv_draw_mask.c ****  * @param start_angle start angle in degrees. 0 deg on the right, 90 deg, on the bottom
 412:lvgl/src/draw/lv_draw_mask.c ****  * @param end_angle end angle
 413:lvgl/src/draw/lv_draw_mask.c ****  */
 414:lvgl/src/draw/lv_draw_mask.c **** void lv_draw_mask_angle_init(lv_draw_mask_angle_param_t * param, lv_coord_t vertex_x, lv_coord_t ve
 415:lvgl/src/draw/lv_draw_mask.c ****                              lv_coord_t start_angle, lv_coord_t end_angle)
 416:lvgl/src/draw/lv_draw_mask.c **** {
 417:lvgl/src/draw/lv_draw_mask.c ****     lv_draw_mask_line_side_t start_side;
 418:lvgl/src/draw/lv_draw_mask.c ****     lv_draw_mask_line_side_t end_side;
 419:lvgl/src/draw/lv_draw_mask.c **** 
 420:lvgl/src/draw/lv_draw_mask.c ****     /*Constrain the input angles*/
 421:lvgl/src/draw/lv_draw_mask.c ****     if(start_angle < 0)
 422:lvgl/src/draw/lv_draw_mask.c ****         start_angle = 0;
 423:lvgl/src/draw/lv_draw_mask.c ****     else if(start_angle > 359)
 424:lvgl/src/draw/lv_draw_mask.c ****         start_angle = 359;
 425:lvgl/src/draw/lv_draw_mask.c **** 
 426:lvgl/src/draw/lv_draw_mask.c ****     if(end_angle < 0)
 427:lvgl/src/draw/lv_draw_mask.c ****         end_angle = 0;
 428:lvgl/src/draw/lv_draw_mask.c ****     else if(end_angle > 359)
 429:lvgl/src/draw/lv_draw_mask.c ****         end_angle = 359;
ARM GAS  /var/folders/21/t9g5rlb91ys800n5npymflf80000gn/T//cc0CxbBx.s 			page 9


 430:lvgl/src/draw/lv_draw_mask.c **** 
 431:lvgl/src/draw/lv_draw_mask.c ****     if(end_angle < start_angle) {
 432:lvgl/src/draw/lv_draw_mask.c ****         param->delta_deg = 360 - start_angle + end_angle;
 433:lvgl/src/draw/lv_draw_mask.c ****     }
 434:lvgl/src/draw/lv_draw_mask.c ****     else {
 435:lvgl/src/draw/lv_draw_mask.c ****         param->delta_deg = LV_ABS(end_angle - start_angle);
 436:lvgl/src/draw/lv_draw_mask.c ****     }
 437:lvgl/src/draw/lv_draw_mask.c **** 
 438:lvgl/src/draw/lv_draw_mask.c ****     param->cfg.start_angle = start_angle;
 439:lvgl/src/draw/lv_draw_mask.c ****     param->cfg.end_angle = end_angle;
 440:lvgl/src/draw/lv_draw_mask.c ****     param->cfg.vertex_p.x = vertex_x;
 441:lvgl/src/draw/lv_draw_mask.c ****     param->cfg.vertex_p.y = vertex_y;
 442:lvgl/src/draw/lv_draw_mask.c ****     param->dsc.cb = (lv_draw_mask_xcb_t)lv_draw_mask_angle;
 443:lvgl/src/draw/lv_draw_mask.c ****     param->dsc.type = LV_DRAW_MASK_TYPE_ANGLE;
 444:lvgl/src/draw/lv_draw_mask.c **** 
 445:lvgl/src/draw/lv_draw_mask.c ****     LV_ASSERT_MSG(start_angle >= 0 && start_angle <= 360, "Unexpected start angle");
 446:lvgl/src/draw/lv_draw_mask.c **** 
 447:lvgl/src/draw/lv_draw_mask.c ****     if(start_angle >= 0 && start_angle < 180) {
 448:lvgl/src/draw/lv_draw_mask.c ****         start_side = LV_DRAW_MASK_LINE_SIDE_LEFT;
 449:lvgl/src/draw/lv_draw_mask.c ****     }
 450:lvgl/src/draw/lv_draw_mask.c ****     else
 451:lvgl/src/draw/lv_draw_mask.c ****         start_side = LV_DRAW_MASK_LINE_SIDE_RIGHT; /*silence compiler*/
 452:lvgl/src/draw/lv_draw_mask.c **** 
 453:lvgl/src/draw/lv_draw_mask.c ****     LV_ASSERT_MSG(end_angle >= 0 && start_angle <= 360, "Unexpected end angle");
 454:lvgl/src/draw/lv_draw_mask.c **** 
 455:lvgl/src/draw/lv_draw_mask.c ****     if(end_angle >= 0 && end_angle < 180) {
 456:lvgl/src/draw/lv_draw_mask.c ****         end_side = LV_DRAW_MASK_LINE_SIDE_RIGHT;
 457:lvgl/src/draw/lv_draw_mask.c ****     }
 458:lvgl/src/draw/lv_draw_mask.c ****     else if(end_angle >= 180 && end_angle < 360) {
 459:lvgl/src/draw/lv_draw_mask.c ****         end_side = LV_DRAW_MASK_LINE_SIDE_LEFT;
 460:lvgl/src/draw/lv_draw_mask.c ****     }
 461:lvgl/src/draw/lv_draw_mask.c ****     else
 462:lvgl/src/draw/lv_draw_mask.c ****         end_side = LV_DRAW_MASK_LINE_SIDE_RIGHT; /*silence compiler*/
 463:lvgl/src/draw/lv_draw_mask.c **** 
 464:lvgl/src/draw/lv_draw_mask.c ****     lv_draw_mask_line_angle_init(&param->start_line, vertex_x, vertex_y, start_angle, start_side);
 465:lvgl/src/draw/lv_draw_mask.c ****     lv_draw_mask_line_angle_init(&param->end_line, vertex_x, vertex_y, end_angle, end_side);
 466:lvgl/src/draw/lv_draw_mask.c **** }
 467:lvgl/src/draw/lv_draw_mask.c **** 
 468:lvgl/src/draw/lv_draw_mask.c **** /**
 469:lvgl/src/draw/lv_draw_mask.c ****  * Initialize a fade mask.
 470:lvgl/src/draw/lv_draw_mask.c ****  * @param param pointer to an `lv_draw_mask_radius_param_t` to initialize
 471:lvgl/src/draw/lv_draw_mask.c ****  * @param rect coordinates of the rectangle to affect (absolute coordinates)
 472:lvgl/src/draw/lv_draw_mask.c ****  * @param radius radius of the rectangle
 473:lvgl/src/draw/lv_draw_mask.c ****  * @param inv true: keep the pixels inside the rectangle; keep the pixels outside of the rectangle
 474:lvgl/src/draw/lv_draw_mask.c ****  */
 475:lvgl/src/draw/lv_draw_mask.c **** void lv_draw_mask_radius_init(lv_draw_mask_radius_param_t * param, const lv_area_t * rect, lv_coord
 476:lvgl/src/draw/lv_draw_mask.c **** {
 477:lvgl/src/draw/lv_draw_mask.c ****     lv_coord_t w = lv_area_get_width(rect);
 478:lvgl/src/draw/lv_draw_mask.c ****     lv_coord_t h = lv_area_get_height(rect);
 479:lvgl/src/draw/lv_draw_mask.c ****     int32_t short_side = LV_MIN(w, h);
 480:lvgl/src/draw/lv_draw_mask.c ****     if(radius > short_side >> 1) radius = short_side >> 1;
 481:lvgl/src/draw/lv_draw_mask.c ****     if(radius < 0) radius = 0;
 482:lvgl/src/draw/lv_draw_mask.c **** 
 483:lvgl/src/draw/lv_draw_mask.c ****     lv_area_copy(&param->cfg.rect, rect);
 484:lvgl/src/draw/lv_draw_mask.c ****     param->cfg.radius = radius;
 485:lvgl/src/draw/lv_draw_mask.c ****     param->cfg.outer = inv ? 1 : 0;
 486:lvgl/src/draw/lv_draw_mask.c ****     param->dsc.cb = (lv_draw_mask_xcb_t)lv_draw_mask_radius;
ARM GAS  /var/folders/21/t9g5rlb91ys800n5npymflf80000gn/T//cc0CxbBx.s 			page 10


 487:lvgl/src/draw/lv_draw_mask.c ****     param->dsc.type = LV_DRAW_MASK_TYPE_RADIUS;
 488:lvgl/src/draw/lv_draw_mask.c **** 
 489:lvgl/src/draw/lv_draw_mask.c ****     if(radius == 0) {
 490:lvgl/src/draw/lv_draw_mask.c ****         param->circle = NULL;
 491:lvgl/src/draw/lv_draw_mask.c ****         return;
 492:lvgl/src/draw/lv_draw_mask.c ****     }
 493:lvgl/src/draw/lv_draw_mask.c **** 
 494:lvgl/src/draw/lv_draw_mask.c ****     uint32_t i;
 495:lvgl/src/draw/lv_draw_mask.c **** 
 496:lvgl/src/draw/lv_draw_mask.c ****     /*Try to reuse a circle cache entry*/
 497:lvgl/src/draw/lv_draw_mask.c ****     for(i = 0; i < LV_CIRCLE_CACHE_SIZE; i++) {
 498:lvgl/src/draw/lv_draw_mask.c ****         if(LV_GC_ROOT(_lv_circle_cache[i]).radius == radius) {
 499:lvgl/src/draw/lv_draw_mask.c ****             LV_GC_ROOT(_lv_circle_cache[i]).used_cnt++;
 500:lvgl/src/draw/lv_draw_mask.c ****             CIRCLE_CACHE_AGING(LV_GC_ROOT(_lv_circle_cache[i]).life, radius);
 501:lvgl/src/draw/lv_draw_mask.c ****             param->circle = &LV_GC_ROOT(_lv_circle_cache[i]);
 502:lvgl/src/draw/lv_draw_mask.c ****             return;
 503:lvgl/src/draw/lv_draw_mask.c ****         }
 504:lvgl/src/draw/lv_draw_mask.c ****     }
 505:lvgl/src/draw/lv_draw_mask.c **** 
 506:lvgl/src/draw/lv_draw_mask.c ****     /*If not found find a free entry with lowest life*/
 507:lvgl/src/draw/lv_draw_mask.c ****     _lv_draw_mask_radius_circle_dsc_t * entry = NULL;
 508:lvgl/src/draw/lv_draw_mask.c ****     for(i = 0; i < LV_CIRCLE_CACHE_SIZE; i++) {
 509:lvgl/src/draw/lv_draw_mask.c ****         if(LV_GC_ROOT(_lv_circle_cache[i]).used_cnt == 0) {
 510:lvgl/src/draw/lv_draw_mask.c ****             if(!entry) entry = &LV_GC_ROOT(_lv_circle_cache[i]);
 511:lvgl/src/draw/lv_draw_mask.c ****             else if(LV_GC_ROOT(_lv_circle_cache[i]).life < entry->life) entry = &LV_GC_ROOT(_lv_cir
 512:lvgl/src/draw/lv_draw_mask.c ****         }
 513:lvgl/src/draw/lv_draw_mask.c ****     }
 514:lvgl/src/draw/lv_draw_mask.c **** 
 515:lvgl/src/draw/lv_draw_mask.c ****     if(!entry) {
 516:lvgl/src/draw/lv_draw_mask.c ****         entry = lv_mem_alloc(sizeof(_lv_draw_mask_radius_circle_dsc_t));
 517:lvgl/src/draw/lv_draw_mask.c ****         LV_ASSERT_MALLOC(entry);
 518:lvgl/src/draw/lv_draw_mask.c ****         lv_memset_00(entry, sizeof(_lv_draw_mask_radius_circle_dsc_t));
 519:lvgl/src/draw/lv_draw_mask.c ****         entry->life = -1;
 520:lvgl/src/draw/lv_draw_mask.c ****     }
 521:lvgl/src/draw/lv_draw_mask.c ****     else {
 522:lvgl/src/draw/lv_draw_mask.c ****         entry->used_cnt++;
 523:lvgl/src/draw/lv_draw_mask.c ****         entry->life = 0;
 524:lvgl/src/draw/lv_draw_mask.c ****         CIRCLE_CACHE_AGING(entry->life, radius);
 525:lvgl/src/draw/lv_draw_mask.c ****     }
 526:lvgl/src/draw/lv_draw_mask.c **** 
 527:lvgl/src/draw/lv_draw_mask.c ****     param->circle = entry;
 528:lvgl/src/draw/lv_draw_mask.c **** 
 529:lvgl/src/draw/lv_draw_mask.c ****     circ_calc_aa4(param->circle, radius);
 530:lvgl/src/draw/lv_draw_mask.c **** }
 531:lvgl/src/draw/lv_draw_mask.c **** 
 532:lvgl/src/draw/lv_draw_mask.c **** /**
 533:lvgl/src/draw/lv_draw_mask.c ****  * Initialize a fade mask.
 534:lvgl/src/draw/lv_draw_mask.c ****  * @param param pointer to a `lv_draw_mask_param_t` to initialize
 535:lvgl/src/draw/lv_draw_mask.c ****  * @param coords coordinates of the area to affect (absolute coordinates)
 536:lvgl/src/draw/lv_draw_mask.c ****  * @param opa_top opacity on the top
 537:lvgl/src/draw/lv_draw_mask.c ****  * @param y_top at which coordinate start to change to opacity to `opa_bottom`
 538:lvgl/src/draw/lv_draw_mask.c ****  * @param opa_bottom opacity at the bottom
 539:lvgl/src/draw/lv_draw_mask.c ****  * @param y_bottom at which coordinate reach `opa_bottom`.
 540:lvgl/src/draw/lv_draw_mask.c ****  */
 541:lvgl/src/draw/lv_draw_mask.c **** void lv_draw_mask_fade_init(lv_draw_mask_fade_param_t * param, const lv_area_t * coords, lv_opa_t o
 542:lvgl/src/draw/lv_draw_mask.c ****                             lv_coord_t y_top,
 543:lvgl/src/draw/lv_draw_mask.c ****                             lv_opa_t opa_bottom, lv_coord_t y_bottom)
ARM GAS  /var/folders/21/t9g5rlb91ys800n5npymflf80000gn/T//cc0CxbBx.s 			page 11


 544:lvgl/src/draw/lv_draw_mask.c **** {
 545:lvgl/src/draw/lv_draw_mask.c ****     lv_area_copy(&param->cfg.coords, coords);
 546:lvgl/src/draw/lv_draw_mask.c ****     param->cfg.opa_top = opa_top;
 547:lvgl/src/draw/lv_draw_mask.c ****     param->cfg.opa_bottom = opa_bottom;
 548:lvgl/src/draw/lv_draw_mask.c ****     param->cfg.y_top = y_top;
 549:lvgl/src/draw/lv_draw_mask.c ****     param->cfg.y_bottom = y_bottom;
 550:lvgl/src/draw/lv_draw_mask.c ****     param->dsc.cb = (lv_draw_mask_xcb_t)lv_draw_mask_fade;
 551:lvgl/src/draw/lv_draw_mask.c ****     param->dsc.type = LV_DRAW_MASK_TYPE_FADE;
 552:lvgl/src/draw/lv_draw_mask.c **** }
 553:lvgl/src/draw/lv_draw_mask.c **** 
 554:lvgl/src/draw/lv_draw_mask.c **** /**
 555:lvgl/src/draw/lv_draw_mask.c ****  * Initialize a map mask.
 556:lvgl/src/draw/lv_draw_mask.c ****  * @param param pointer to a `lv_draw_mask_param_t` to initialize
 557:lvgl/src/draw/lv_draw_mask.c ****  * @param coords coordinates of the map (absolute coordinates)
 558:lvgl/src/draw/lv_draw_mask.c ****  * @param map array of bytes with the mask values
 559:lvgl/src/draw/lv_draw_mask.c ****  */
 560:lvgl/src/draw/lv_draw_mask.c **** void lv_draw_mask_map_init(lv_draw_mask_map_param_t * param, const lv_area_t * coords, const lv_opa
 561:lvgl/src/draw/lv_draw_mask.c **** {
 562:lvgl/src/draw/lv_draw_mask.c ****     lv_area_copy(&param->cfg.coords, coords);
 563:lvgl/src/draw/lv_draw_mask.c ****     param->cfg.map = map;
 564:lvgl/src/draw/lv_draw_mask.c ****     param->dsc.cb = (lv_draw_mask_xcb_t)lv_draw_mask_map;
 565:lvgl/src/draw/lv_draw_mask.c ****     param->dsc.type = LV_DRAW_MASK_TYPE_MAP;
 566:lvgl/src/draw/lv_draw_mask.c **** }
 567:lvgl/src/draw/lv_draw_mask.c **** 
 568:lvgl/src/draw/lv_draw_mask.c **** void lv_draw_mask_polygon_init(lv_draw_mask_polygon_param_t * param, const lv_point_t * points, uin
 569:lvgl/src/draw/lv_draw_mask.c **** {
 570:lvgl/src/draw/lv_draw_mask.c ****     /*Join adjacent points if they are on the same coordinate*/
 571:lvgl/src/draw/lv_draw_mask.c ****     lv_point_t * p = lv_mem_alloc(point_cnt * sizeof(lv_point_t));
 572:lvgl/src/draw/lv_draw_mask.c ****     if(p == NULL) return;
 573:lvgl/src/draw/lv_draw_mask.c ****     uint16_t i;
 574:lvgl/src/draw/lv_draw_mask.c ****     uint16_t pcnt = 0;
 575:lvgl/src/draw/lv_draw_mask.c ****     p[0] = points[0];
 576:lvgl/src/draw/lv_draw_mask.c ****     for(i = 0; i < point_cnt - 1; i++) {
 577:lvgl/src/draw/lv_draw_mask.c ****         if(points[i].x != points[i + 1].x || points[i].y != points[i + 1].y) {
 578:lvgl/src/draw/lv_draw_mask.c ****             p[pcnt] = points[i];
 579:lvgl/src/draw/lv_draw_mask.c ****             pcnt++;
 580:lvgl/src/draw/lv_draw_mask.c ****         }
 581:lvgl/src/draw/lv_draw_mask.c ****     }
 582:lvgl/src/draw/lv_draw_mask.c ****     /*The first and the last points are also adjacent*/
 583:lvgl/src/draw/lv_draw_mask.c ****     if(points[0].x != points[point_cnt - 1].x || points[0].y != points[point_cnt - 1].y) {
 584:lvgl/src/draw/lv_draw_mask.c ****         p[pcnt] = points[point_cnt - 1];
 585:lvgl/src/draw/lv_draw_mask.c ****         pcnt++;
 586:lvgl/src/draw/lv_draw_mask.c ****     }
 587:lvgl/src/draw/lv_draw_mask.c ****     param->cfg.points = p;
 588:lvgl/src/draw/lv_draw_mask.c ****     param->cfg.point_cnt = pcnt;
 589:lvgl/src/draw/lv_draw_mask.c ****     param->dsc.cb = (lv_draw_mask_xcb_t)lv_draw_mask_polygon;
 590:lvgl/src/draw/lv_draw_mask.c ****     param->dsc.type = LV_DRAW_MASK_TYPE_POLYGON;
 591:lvgl/src/draw/lv_draw_mask.c **** }
 592:lvgl/src/draw/lv_draw_mask.c **** 
 593:lvgl/src/draw/lv_draw_mask.c **** /**********************
 594:lvgl/src/draw/lv_draw_mask.c ****  *   STATIC FUNCTIONS
 595:lvgl/src/draw/lv_draw_mask.c ****  **********************/
 596:lvgl/src/draw/lv_draw_mask.c **** 
 597:lvgl/src/draw/lv_draw_mask.c **** static lv_draw_mask_res_t LV_ATTRIBUTE_FAST_MEM lv_draw_mask_line(lv_opa_t * mask_buf, lv_coord_t a
 598:lvgl/src/draw/lv_draw_mask.c ****                                                                   lv_coord_t abs_y, lv_coord_t len,
 599:lvgl/src/draw/lv_draw_mask.c ****                                                                   lv_draw_mask_line_param_t * p)
 600:lvgl/src/draw/lv_draw_mask.c **** {
ARM GAS  /var/folders/21/t9g5rlb91ys800n5npymflf80000gn/T//cc0CxbBx.s 			page 12


 601:lvgl/src/draw/lv_draw_mask.c ****     /*Make to points relative to the vertex*/
 602:lvgl/src/draw/lv_draw_mask.c ****     abs_y -= p->origo.y;
 603:lvgl/src/draw/lv_draw_mask.c ****     abs_x -= p->origo.x;
 604:lvgl/src/draw/lv_draw_mask.c **** 
 605:lvgl/src/draw/lv_draw_mask.c ****     /*Handle special cases*/
 606:lvgl/src/draw/lv_draw_mask.c ****     if(p->steep == 0) {
 607:lvgl/src/draw/lv_draw_mask.c ****         /*Horizontal*/
 608:lvgl/src/draw/lv_draw_mask.c ****         if(p->flat) {
 609:lvgl/src/draw/lv_draw_mask.c ****             /*Non sense: Can't be on the right/left of a horizontal line*/
 610:lvgl/src/draw/lv_draw_mask.c ****             if(p->cfg.side == LV_DRAW_MASK_LINE_SIDE_LEFT ||
 611:lvgl/src/draw/lv_draw_mask.c ****                p->cfg.side == LV_DRAW_MASK_LINE_SIDE_RIGHT) return LV_DRAW_MASK_RES_FULL_COVER;
 612:lvgl/src/draw/lv_draw_mask.c ****             else if(p->cfg.side == LV_DRAW_MASK_LINE_SIDE_TOP && abs_y + 1 < 0) return LV_DRAW_MASK
 613:lvgl/src/draw/lv_draw_mask.c ****             else if(p->cfg.side == LV_DRAW_MASK_LINE_SIDE_BOTTOM && abs_y > 0) return LV_DRAW_MASK_
 614:lvgl/src/draw/lv_draw_mask.c ****             else {
 615:lvgl/src/draw/lv_draw_mask.c ****                 return LV_DRAW_MASK_RES_TRANSP;
 616:lvgl/src/draw/lv_draw_mask.c ****             }
 617:lvgl/src/draw/lv_draw_mask.c ****         }
 618:lvgl/src/draw/lv_draw_mask.c ****         /*Vertical*/
 619:lvgl/src/draw/lv_draw_mask.c ****         else {
 620:lvgl/src/draw/lv_draw_mask.c ****             /*Non sense: Can't be on the top/bottom of a vertical line*/
 621:lvgl/src/draw/lv_draw_mask.c ****             if(p->cfg.side == LV_DRAW_MASK_LINE_SIDE_TOP ||
 622:lvgl/src/draw/lv_draw_mask.c ****                p->cfg.side == LV_DRAW_MASK_LINE_SIDE_BOTTOM) return LV_DRAW_MASK_RES_FULL_COVER;
 623:lvgl/src/draw/lv_draw_mask.c ****             else if(p->cfg.side == LV_DRAW_MASK_LINE_SIDE_RIGHT && abs_x > 0) return LV_DRAW_MASK_R
 624:lvgl/src/draw/lv_draw_mask.c ****             else if(p->cfg.side == LV_DRAW_MASK_LINE_SIDE_LEFT) {
 625:lvgl/src/draw/lv_draw_mask.c ****                 if(abs_x + len < 0) return LV_DRAW_MASK_RES_FULL_COVER;
 626:lvgl/src/draw/lv_draw_mask.c ****                 else {
 627:lvgl/src/draw/lv_draw_mask.c ****                     int32_t k = - abs_x;
 628:lvgl/src/draw/lv_draw_mask.c ****                     if(k < 0) return LV_DRAW_MASK_RES_TRANSP;
 629:lvgl/src/draw/lv_draw_mask.c ****                     if(k >= 0 && k < len) lv_memset_00(&mask_buf[k], len - k);
 630:lvgl/src/draw/lv_draw_mask.c ****                     return  LV_DRAW_MASK_RES_CHANGED;
 631:lvgl/src/draw/lv_draw_mask.c ****                 }
 632:lvgl/src/draw/lv_draw_mask.c ****             }
 633:lvgl/src/draw/lv_draw_mask.c ****             else {
 634:lvgl/src/draw/lv_draw_mask.c ****                 if(abs_x + len < 0) return LV_DRAW_MASK_RES_TRANSP;
 635:lvgl/src/draw/lv_draw_mask.c ****                 else {
 636:lvgl/src/draw/lv_draw_mask.c ****                     int32_t k = - abs_x;
 637:lvgl/src/draw/lv_draw_mask.c ****                     if(k < 0) k = 0;
 638:lvgl/src/draw/lv_draw_mask.c ****                     if(k >= len) return LV_DRAW_MASK_RES_TRANSP;
 639:lvgl/src/draw/lv_draw_mask.c ****                     else if(k >= 0 && k < len) lv_memset_00(&mask_buf[0], k);
 640:lvgl/src/draw/lv_draw_mask.c ****                     return  LV_DRAW_MASK_RES_CHANGED;
 641:lvgl/src/draw/lv_draw_mask.c ****                 }
 642:lvgl/src/draw/lv_draw_mask.c ****             }
 643:lvgl/src/draw/lv_draw_mask.c ****         }
 644:lvgl/src/draw/lv_draw_mask.c ****     }
 645:lvgl/src/draw/lv_draw_mask.c **** 
 646:lvgl/src/draw/lv_draw_mask.c ****     lv_draw_mask_res_t res;
 647:lvgl/src/draw/lv_draw_mask.c ****     if(p->flat) {
 648:lvgl/src/draw/lv_draw_mask.c ****         res = line_mask_flat(mask_buf, abs_x, abs_y, len, p);
 649:lvgl/src/draw/lv_draw_mask.c ****     }
 650:lvgl/src/draw/lv_draw_mask.c ****     else {
 651:lvgl/src/draw/lv_draw_mask.c ****         res = line_mask_steep(mask_buf, abs_x, abs_y, len, p);
 652:lvgl/src/draw/lv_draw_mask.c ****     }
 653:lvgl/src/draw/lv_draw_mask.c **** 
 654:lvgl/src/draw/lv_draw_mask.c ****     return res;
 655:lvgl/src/draw/lv_draw_mask.c **** }
 656:lvgl/src/draw/lv_draw_mask.c **** 
 657:lvgl/src/draw/lv_draw_mask.c **** static lv_draw_mask_res_t LV_ATTRIBUTE_FAST_MEM line_mask_flat(lv_opa_t * mask_buf, lv_coord_t abs_
ARM GAS  /var/folders/21/t9g5rlb91ys800n5npymflf80000gn/T//cc0CxbBx.s 			page 13


 658:lvgl/src/draw/lv_draw_mask.c ****                                                                lv_coord_t len,
 659:lvgl/src/draw/lv_draw_mask.c ****                                                                lv_draw_mask_line_param_t * p)
 660:lvgl/src/draw/lv_draw_mask.c **** {
 661:lvgl/src/draw/lv_draw_mask.c **** 
 662:lvgl/src/draw/lv_draw_mask.c ****     int32_t y_at_x;
 663:lvgl/src/draw/lv_draw_mask.c ****     y_at_x = (int32_t)((int32_t)p->yx_steep * abs_x) >> 10;
 664:lvgl/src/draw/lv_draw_mask.c **** 
 665:lvgl/src/draw/lv_draw_mask.c ****     if(p->yx_steep > 0) {
 666:lvgl/src/draw/lv_draw_mask.c ****         if(y_at_x > abs_y) {
 667:lvgl/src/draw/lv_draw_mask.c ****             if(p->inv) {
 668:lvgl/src/draw/lv_draw_mask.c ****                 return LV_DRAW_MASK_RES_FULL_COVER;
 669:lvgl/src/draw/lv_draw_mask.c ****             }
 670:lvgl/src/draw/lv_draw_mask.c ****             else {
 671:lvgl/src/draw/lv_draw_mask.c ****                 return LV_DRAW_MASK_RES_TRANSP;
 672:lvgl/src/draw/lv_draw_mask.c ****             }
 673:lvgl/src/draw/lv_draw_mask.c ****         }
 674:lvgl/src/draw/lv_draw_mask.c ****     }
 675:lvgl/src/draw/lv_draw_mask.c ****     else {
 676:lvgl/src/draw/lv_draw_mask.c ****         if(y_at_x < abs_y) {
 677:lvgl/src/draw/lv_draw_mask.c ****             if(p->inv) {
 678:lvgl/src/draw/lv_draw_mask.c ****                 return LV_DRAW_MASK_RES_FULL_COVER;
 679:lvgl/src/draw/lv_draw_mask.c ****             }
 680:lvgl/src/draw/lv_draw_mask.c ****             else {
 681:lvgl/src/draw/lv_draw_mask.c ****                 return LV_DRAW_MASK_RES_TRANSP;
 682:lvgl/src/draw/lv_draw_mask.c ****             }
 683:lvgl/src/draw/lv_draw_mask.c ****         }
 684:lvgl/src/draw/lv_draw_mask.c ****     }
 685:lvgl/src/draw/lv_draw_mask.c **** 
 686:lvgl/src/draw/lv_draw_mask.c ****     /*At the end of the mask if the limit line is smaller than the mask's y.
 687:lvgl/src/draw/lv_draw_mask.c ****      *Then the mask is in the "good" area*/
 688:lvgl/src/draw/lv_draw_mask.c ****     y_at_x = (int32_t)((int32_t)p->yx_steep * (abs_x + len)) >> 10;
 689:lvgl/src/draw/lv_draw_mask.c ****     if(p->yx_steep > 0) {
 690:lvgl/src/draw/lv_draw_mask.c ****         if(y_at_x < abs_y) {
 691:lvgl/src/draw/lv_draw_mask.c ****             if(p->inv) {
 692:lvgl/src/draw/lv_draw_mask.c ****                 return LV_DRAW_MASK_RES_TRANSP;
 693:lvgl/src/draw/lv_draw_mask.c ****             }
 694:lvgl/src/draw/lv_draw_mask.c ****             else {
 695:lvgl/src/draw/lv_draw_mask.c ****                 return LV_DRAW_MASK_RES_FULL_COVER;
 696:lvgl/src/draw/lv_draw_mask.c ****             }
 697:lvgl/src/draw/lv_draw_mask.c ****         }
 698:lvgl/src/draw/lv_draw_mask.c ****     }
 699:lvgl/src/draw/lv_draw_mask.c ****     else {
 700:lvgl/src/draw/lv_draw_mask.c ****         if(y_at_x > abs_y) {
 701:lvgl/src/draw/lv_draw_mask.c ****             if(p->inv) {
 702:lvgl/src/draw/lv_draw_mask.c ****                 return LV_DRAW_MASK_RES_TRANSP;
 703:lvgl/src/draw/lv_draw_mask.c ****             }
 704:lvgl/src/draw/lv_draw_mask.c ****             else {
 705:lvgl/src/draw/lv_draw_mask.c ****                 return LV_DRAW_MASK_RES_FULL_COVER;
 706:lvgl/src/draw/lv_draw_mask.c ****             }
 707:lvgl/src/draw/lv_draw_mask.c ****         }
 708:lvgl/src/draw/lv_draw_mask.c ****     }
 709:lvgl/src/draw/lv_draw_mask.c **** 
 710:lvgl/src/draw/lv_draw_mask.c ****     int32_t xe;
 711:lvgl/src/draw/lv_draw_mask.c ****     if(p->yx_steep > 0) xe = ((abs_y * 256) * p->xy_steep) >> 10;
 712:lvgl/src/draw/lv_draw_mask.c ****     else xe = (((abs_y + 1) * 256) * p->xy_steep) >> 10;
 713:lvgl/src/draw/lv_draw_mask.c **** 
 714:lvgl/src/draw/lv_draw_mask.c ****     int32_t xei = xe >> 8;
ARM GAS  /var/folders/21/t9g5rlb91ys800n5npymflf80000gn/T//cc0CxbBx.s 			page 14


 715:lvgl/src/draw/lv_draw_mask.c ****     int32_t xef = xe & 0xFF;
 716:lvgl/src/draw/lv_draw_mask.c **** 
 717:lvgl/src/draw/lv_draw_mask.c ****     int32_t px_h;
 718:lvgl/src/draw/lv_draw_mask.c ****     if(xef == 0) px_h = 255;
 719:lvgl/src/draw/lv_draw_mask.c ****     else px_h = 255 - (((255 - xef) * p->spx) >> 8);
 720:lvgl/src/draw/lv_draw_mask.c ****     int32_t k = xei - abs_x;
 721:lvgl/src/draw/lv_draw_mask.c ****     lv_opa_t m;
 722:lvgl/src/draw/lv_draw_mask.c **** 
 723:lvgl/src/draw/lv_draw_mask.c ****     if(xef) {
 724:lvgl/src/draw/lv_draw_mask.c ****         if(k >= 0 && k < len) {
 725:lvgl/src/draw/lv_draw_mask.c ****             m = 255 - (((255 - xef) * (255 - px_h)) >> 9);
 726:lvgl/src/draw/lv_draw_mask.c ****             if(p->inv) m = 255 - m;
 727:lvgl/src/draw/lv_draw_mask.c ****             mask_buf[k] = mask_mix(mask_buf[k], m);
 728:lvgl/src/draw/lv_draw_mask.c ****         }
 729:lvgl/src/draw/lv_draw_mask.c ****         k++;
 730:lvgl/src/draw/lv_draw_mask.c ****     }
 731:lvgl/src/draw/lv_draw_mask.c **** 
 732:lvgl/src/draw/lv_draw_mask.c ****     while(px_h > p->spx) {
 733:lvgl/src/draw/lv_draw_mask.c ****         if(k >= 0 && k < len) {
 734:lvgl/src/draw/lv_draw_mask.c ****             m = px_h - (p->spx >> 1);
 735:lvgl/src/draw/lv_draw_mask.c ****             if(p->inv) m = 255 - m;
 736:lvgl/src/draw/lv_draw_mask.c ****             mask_buf[k] = mask_mix(mask_buf[k], m);
 737:lvgl/src/draw/lv_draw_mask.c ****         }
 738:lvgl/src/draw/lv_draw_mask.c ****         px_h -= p->spx;
 739:lvgl/src/draw/lv_draw_mask.c ****         k++;
 740:lvgl/src/draw/lv_draw_mask.c ****         if(k >= len) break;
 741:lvgl/src/draw/lv_draw_mask.c ****     }
 742:lvgl/src/draw/lv_draw_mask.c **** 
 743:lvgl/src/draw/lv_draw_mask.c ****     if(k < len && k >= 0) {
 744:lvgl/src/draw/lv_draw_mask.c ****         int32_t x_inters = (px_h * p->xy_steep) >> 10;
 745:lvgl/src/draw/lv_draw_mask.c ****         m = (x_inters * px_h) >> 9;
 746:lvgl/src/draw/lv_draw_mask.c ****         if(p->yx_steep < 0) m = 255 - m;
 747:lvgl/src/draw/lv_draw_mask.c ****         if(p->inv) m = 255 - m;
 748:lvgl/src/draw/lv_draw_mask.c ****         mask_buf[k] = mask_mix(mask_buf[k], m);
 749:lvgl/src/draw/lv_draw_mask.c ****     }
 750:lvgl/src/draw/lv_draw_mask.c **** 
 751:lvgl/src/draw/lv_draw_mask.c ****     if(p->inv) {
 752:lvgl/src/draw/lv_draw_mask.c ****         k = xei - abs_x;
 753:lvgl/src/draw/lv_draw_mask.c ****         if(k > len) {
 754:lvgl/src/draw/lv_draw_mask.c ****             return LV_DRAW_MASK_RES_TRANSP;
 755:lvgl/src/draw/lv_draw_mask.c ****         }
 756:lvgl/src/draw/lv_draw_mask.c ****         if(k >= 0) {
 757:lvgl/src/draw/lv_draw_mask.c ****             lv_memset_00(&mask_buf[0], k);
 758:lvgl/src/draw/lv_draw_mask.c ****         }
 759:lvgl/src/draw/lv_draw_mask.c ****     }
 760:lvgl/src/draw/lv_draw_mask.c ****     else {
 761:lvgl/src/draw/lv_draw_mask.c ****         k++;
 762:lvgl/src/draw/lv_draw_mask.c ****         if(k < 0) {
 763:lvgl/src/draw/lv_draw_mask.c ****             return LV_DRAW_MASK_RES_TRANSP;
 764:lvgl/src/draw/lv_draw_mask.c ****         }
 765:lvgl/src/draw/lv_draw_mask.c ****         if(k <= len) {
 766:lvgl/src/draw/lv_draw_mask.c ****             lv_memset_00(&mask_buf[k], len - k);
 767:lvgl/src/draw/lv_draw_mask.c ****         }
 768:lvgl/src/draw/lv_draw_mask.c ****     }
 769:lvgl/src/draw/lv_draw_mask.c **** 
 770:lvgl/src/draw/lv_draw_mask.c ****     return LV_DRAW_MASK_RES_CHANGED;
 771:lvgl/src/draw/lv_draw_mask.c **** }
ARM GAS  /var/folders/21/t9g5rlb91ys800n5npymflf80000gn/T//cc0CxbBx.s 			page 15


 772:lvgl/src/draw/lv_draw_mask.c **** 
 773:lvgl/src/draw/lv_draw_mask.c **** static lv_draw_mask_res_t LV_ATTRIBUTE_FAST_MEM line_mask_steep(lv_opa_t * mask_buf, lv_coord_t abs
 774:lvgl/src/draw/lv_draw_mask.c ****                                                                 lv_coord_t len,
 775:lvgl/src/draw/lv_draw_mask.c ****                                                                 lv_draw_mask_line_param_t * p)
 776:lvgl/src/draw/lv_draw_mask.c **** {
 777:lvgl/src/draw/lv_draw_mask.c ****     int32_t k;
 778:lvgl/src/draw/lv_draw_mask.c ****     int32_t x_at_y;
 779:lvgl/src/draw/lv_draw_mask.c ****     /*At the beginning of the mask if the limit line is greater than the mask's y.
 780:lvgl/src/draw/lv_draw_mask.c ****      *Then the mask is in the "wrong" area*/
 781:lvgl/src/draw/lv_draw_mask.c ****     x_at_y = (int32_t)((int32_t)p->xy_steep * abs_y) >> 10;
 782:lvgl/src/draw/lv_draw_mask.c ****     if(p->xy_steep > 0) x_at_y++;
 783:lvgl/src/draw/lv_draw_mask.c ****     if(x_at_y < abs_x) {
 784:lvgl/src/draw/lv_draw_mask.c ****         if(p->inv) {
 785:lvgl/src/draw/lv_draw_mask.c ****             return LV_DRAW_MASK_RES_FULL_COVER;
 786:lvgl/src/draw/lv_draw_mask.c ****         }
 787:lvgl/src/draw/lv_draw_mask.c ****         else {
 788:lvgl/src/draw/lv_draw_mask.c ****             return LV_DRAW_MASK_RES_TRANSP;
 789:lvgl/src/draw/lv_draw_mask.c ****         }
 790:lvgl/src/draw/lv_draw_mask.c ****     }
 791:lvgl/src/draw/lv_draw_mask.c **** 
 792:lvgl/src/draw/lv_draw_mask.c ****     /*At the end of the mask if the limit line is smaller than the mask's y.
 793:lvgl/src/draw/lv_draw_mask.c ****      *Then the mask is in the "good" area*/
 794:lvgl/src/draw/lv_draw_mask.c ****     x_at_y = (int32_t)((int32_t)p->xy_steep * (abs_y)) >> 10;
 795:lvgl/src/draw/lv_draw_mask.c ****     if(x_at_y > abs_x + len) {
 796:lvgl/src/draw/lv_draw_mask.c ****         if(p->inv) {
 797:lvgl/src/draw/lv_draw_mask.c ****             return LV_DRAW_MASK_RES_TRANSP;
 798:lvgl/src/draw/lv_draw_mask.c ****         }
 799:lvgl/src/draw/lv_draw_mask.c ****         else {
 800:lvgl/src/draw/lv_draw_mask.c ****             return LV_DRAW_MASK_RES_FULL_COVER;
 801:lvgl/src/draw/lv_draw_mask.c ****         }
 802:lvgl/src/draw/lv_draw_mask.c ****     }
 803:lvgl/src/draw/lv_draw_mask.c **** 
 804:lvgl/src/draw/lv_draw_mask.c ****     /*X start*/
 805:lvgl/src/draw/lv_draw_mask.c ****     int32_t xs = ((abs_y * 256) * p->xy_steep) >> 10;
 806:lvgl/src/draw/lv_draw_mask.c ****     int32_t xsi = xs >> 8;
 807:lvgl/src/draw/lv_draw_mask.c ****     int32_t xsf = xs & 0xFF;
 808:lvgl/src/draw/lv_draw_mask.c **** 
 809:lvgl/src/draw/lv_draw_mask.c ****     /*X end*/
 810:lvgl/src/draw/lv_draw_mask.c ****     int32_t xe = (((abs_y + 1) * 256) * p->xy_steep) >> 10;
 811:lvgl/src/draw/lv_draw_mask.c ****     int32_t xei = xe >> 8;
 812:lvgl/src/draw/lv_draw_mask.c ****     int32_t xef = xe & 0xFF;
 813:lvgl/src/draw/lv_draw_mask.c **** 
 814:lvgl/src/draw/lv_draw_mask.c ****     lv_opa_t m;
 815:lvgl/src/draw/lv_draw_mask.c **** 
 816:lvgl/src/draw/lv_draw_mask.c ****     k = xsi - abs_x;
 817:lvgl/src/draw/lv_draw_mask.c ****     if(xsi != xei && (p->xy_steep < 0 && xsf == 0)) {
 818:lvgl/src/draw/lv_draw_mask.c ****         xsf = 0xFF;
 819:lvgl/src/draw/lv_draw_mask.c ****         xsi = xei;
 820:lvgl/src/draw/lv_draw_mask.c ****         k--;
 821:lvgl/src/draw/lv_draw_mask.c ****     }
 822:lvgl/src/draw/lv_draw_mask.c **** 
 823:lvgl/src/draw/lv_draw_mask.c ****     if(xsi == xei) {
 824:lvgl/src/draw/lv_draw_mask.c ****         if(k >= 0 && k < len) {
 825:lvgl/src/draw/lv_draw_mask.c ****             m = (xsf + xef) >> 1;
 826:lvgl/src/draw/lv_draw_mask.c ****             if(p->inv) m = 255 - m;
 827:lvgl/src/draw/lv_draw_mask.c ****             mask_buf[k] = mask_mix(mask_buf[k], m);
 828:lvgl/src/draw/lv_draw_mask.c ****         }
ARM GAS  /var/folders/21/t9g5rlb91ys800n5npymflf80000gn/T//cc0CxbBx.s 			page 16


 829:lvgl/src/draw/lv_draw_mask.c ****         k++;
 830:lvgl/src/draw/lv_draw_mask.c **** 
 831:lvgl/src/draw/lv_draw_mask.c ****         if(p->inv) {
 832:lvgl/src/draw/lv_draw_mask.c ****             k = xsi - abs_x;
 833:lvgl/src/draw/lv_draw_mask.c ****             if(k >= len) {
 834:lvgl/src/draw/lv_draw_mask.c ****                 return LV_DRAW_MASK_RES_TRANSP;
 835:lvgl/src/draw/lv_draw_mask.c ****             }
 836:lvgl/src/draw/lv_draw_mask.c ****             if(k >= 0) lv_memset_00(&mask_buf[0], k);
 837:lvgl/src/draw/lv_draw_mask.c **** 
 838:lvgl/src/draw/lv_draw_mask.c ****         }
 839:lvgl/src/draw/lv_draw_mask.c ****         else {
 840:lvgl/src/draw/lv_draw_mask.c ****             if(k > len) k = len;
 841:lvgl/src/draw/lv_draw_mask.c ****             if(k == 0) return LV_DRAW_MASK_RES_TRANSP;
 842:lvgl/src/draw/lv_draw_mask.c ****             else if(k > 0) lv_memset_00(&mask_buf[k],  len - k);
 843:lvgl/src/draw/lv_draw_mask.c ****         }
 844:lvgl/src/draw/lv_draw_mask.c **** 
 845:lvgl/src/draw/lv_draw_mask.c ****     }
 846:lvgl/src/draw/lv_draw_mask.c ****     else {
 847:lvgl/src/draw/lv_draw_mask.c ****         int32_t y_inters;
 848:lvgl/src/draw/lv_draw_mask.c ****         if(p->xy_steep < 0) {
 849:lvgl/src/draw/lv_draw_mask.c ****             y_inters = (xsf * (-p->yx_steep)) >> 10;
 850:lvgl/src/draw/lv_draw_mask.c ****             if(k >= 0 && k < len) {
 851:lvgl/src/draw/lv_draw_mask.c ****                 m = (y_inters * xsf) >> 9;
 852:lvgl/src/draw/lv_draw_mask.c ****                 if(p->inv) m = 255 - m;
 853:lvgl/src/draw/lv_draw_mask.c ****                 mask_buf[k] = mask_mix(mask_buf[k], m);
 854:lvgl/src/draw/lv_draw_mask.c ****             }
 855:lvgl/src/draw/lv_draw_mask.c ****             k--;
 856:lvgl/src/draw/lv_draw_mask.c **** 
 857:lvgl/src/draw/lv_draw_mask.c ****             int32_t x_inters = ((255 - y_inters) * (-p->xy_steep)) >> 10;
 858:lvgl/src/draw/lv_draw_mask.c **** 
 859:lvgl/src/draw/lv_draw_mask.c ****             if(k >= 0 && k < len) {
 860:lvgl/src/draw/lv_draw_mask.c ****                 m = 255 - (((255 - y_inters) * x_inters) >> 9);
 861:lvgl/src/draw/lv_draw_mask.c ****                 if(p->inv) m = 255 - m;
 862:lvgl/src/draw/lv_draw_mask.c ****                 mask_buf[k] = mask_mix(mask_buf[k], m);
 863:lvgl/src/draw/lv_draw_mask.c ****             }
 864:lvgl/src/draw/lv_draw_mask.c **** 
 865:lvgl/src/draw/lv_draw_mask.c ****             k += 2;
 866:lvgl/src/draw/lv_draw_mask.c **** 
 867:lvgl/src/draw/lv_draw_mask.c ****             if(p->inv) {
 868:lvgl/src/draw/lv_draw_mask.c ****                 k = xsi - abs_x - 1;
 869:lvgl/src/draw/lv_draw_mask.c **** 
 870:lvgl/src/draw/lv_draw_mask.c ****                 if(k > len) k = len;
 871:lvgl/src/draw/lv_draw_mask.c ****                 else if(k > 0) lv_memset_00(&mask_buf[0],  k);
 872:lvgl/src/draw/lv_draw_mask.c **** 
 873:lvgl/src/draw/lv_draw_mask.c ****             }
 874:lvgl/src/draw/lv_draw_mask.c ****             else {
 875:lvgl/src/draw/lv_draw_mask.c ****                 if(k > len) return LV_DRAW_MASK_RES_FULL_COVER;
 876:lvgl/src/draw/lv_draw_mask.c ****                 if(k >= 0) lv_memset_00(&mask_buf[k],  len - k);
 877:lvgl/src/draw/lv_draw_mask.c ****             }
 878:lvgl/src/draw/lv_draw_mask.c **** 
 879:lvgl/src/draw/lv_draw_mask.c ****         }
 880:lvgl/src/draw/lv_draw_mask.c ****         else {
 881:lvgl/src/draw/lv_draw_mask.c ****             y_inters = ((255 - xsf) * p->yx_steep) >> 10;
 882:lvgl/src/draw/lv_draw_mask.c ****             if(k >= 0 && k < len) {
 883:lvgl/src/draw/lv_draw_mask.c ****                 m = 255 - ((y_inters * (255 - xsf)) >> 9);
 884:lvgl/src/draw/lv_draw_mask.c ****                 if(p->inv) m = 255 - m;
 885:lvgl/src/draw/lv_draw_mask.c ****                 mask_buf[k] = mask_mix(mask_buf[k], m);
ARM GAS  /var/folders/21/t9g5rlb91ys800n5npymflf80000gn/T//cc0CxbBx.s 			page 17


 886:lvgl/src/draw/lv_draw_mask.c ****             }
 887:lvgl/src/draw/lv_draw_mask.c **** 
 888:lvgl/src/draw/lv_draw_mask.c ****             k++;
 889:lvgl/src/draw/lv_draw_mask.c **** 
 890:lvgl/src/draw/lv_draw_mask.c ****             int32_t x_inters = ((255 - y_inters) * p->xy_steep) >> 10;
 891:lvgl/src/draw/lv_draw_mask.c ****             if(k >= 0 && k < len) {
 892:lvgl/src/draw/lv_draw_mask.c ****                 m = ((255 - y_inters) * x_inters) >> 9;
 893:lvgl/src/draw/lv_draw_mask.c ****                 if(p->inv) m = 255 - m;
 894:lvgl/src/draw/lv_draw_mask.c ****                 mask_buf[k] = mask_mix(mask_buf[k], m);
 895:lvgl/src/draw/lv_draw_mask.c ****             }
 896:lvgl/src/draw/lv_draw_mask.c ****             k++;
 897:lvgl/src/draw/lv_draw_mask.c **** 
 898:lvgl/src/draw/lv_draw_mask.c ****             if(p->inv) {
 899:lvgl/src/draw/lv_draw_mask.c ****                 k = xsi - abs_x;
 900:lvgl/src/draw/lv_draw_mask.c ****                 if(k > len)  return LV_DRAW_MASK_RES_TRANSP;
 901:lvgl/src/draw/lv_draw_mask.c ****                 if(k >= 0) lv_memset_00(&mask_buf[0],  k);
 902:lvgl/src/draw/lv_draw_mask.c **** 
 903:lvgl/src/draw/lv_draw_mask.c ****             }
 904:lvgl/src/draw/lv_draw_mask.c ****             else {
 905:lvgl/src/draw/lv_draw_mask.c ****                 if(k > len) k = len;
 906:lvgl/src/draw/lv_draw_mask.c ****                 if(k == 0) return LV_DRAW_MASK_RES_TRANSP;
 907:lvgl/src/draw/lv_draw_mask.c ****                 else if(k > 0) lv_memset_00(&mask_buf[k],  len - k);
 908:lvgl/src/draw/lv_draw_mask.c ****             }
 909:lvgl/src/draw/lv_draw_mask.c ****         }
 910:lvgl/src/draw/lv_draw_mask.c ****     }
 911:lvgl/src/draw/lv_draw_mask.c **** 
 912:lvgl/src/draw/lv_draw_mask.c ****     return LV_DRAW_MASK_RES_CHANGED;
 913:lvgl/src/draw/lv_draw_mask.c **** }
 914:lvgl/src/draw/lv_draw_mask.c **** 
 915:lvgl/src/draw/lv_draw_mask.c **** static lv_draw_mask_res_t LV_ATTRIBUTE_FAST_MEM lv_draw_mask_angle(lv_opa_t * mask_buf, lv_coord_t 
 916:lvgl/src/draw/lv_draw_mask.c ****                                                                    lv_coord_t abs_y, lv_coord_t len
 917:lvgl/src/draw/lv_draw_mask.c ****                                                                    lv_draw_mask_angle_param_t * p)
 918:lvgl/src/draw/lv_draw_mask.c **** {
 919:lvgl/src/draw/lv_draw_mask.c ****     int32_t rel_y = abs_y - p->cfg.vertex_p.y;
 920:lvgl/src/draw/lv_draw_mask.c ****     int32_t rel_x = abs_x - p->cfg.vertex_p.x;
 921:lvgl/src/draw/lv_draw_mask.c **** 
 922:lvgl/src/draw/lv_draw_mask.c ****     if(p->cfg.start_angle < 180 && p->cfg.end_angle < 180 &&
 923:lvgl/src/draw/lv_draw_mask.c ****        p->cfg.start_angle != 0  && p->cfg.end_angle != 0 &&
 924:lvgl/src/draw/lv_draw_mask.c ****        p->cfg.start_angle > p->cfg.end_angle) {
 925:lvgl/src/draw/lv_draw_mask.c **** 
 926:lvgl/src/draw/lv_draw_mask.c ****         if(abs_y < p->cfg.vertex_p.y) {
 927:lvgl/src/draw/lv_draw_mask.c ****             return LV_DRAW_MASK_RES_FULL_COVER;
 928:lvgl/src/draw/lv_draw_mask.c ****         }
 929:lvgl/src/draw/lv_draw_mask.c **** 
 930:lvgl/src/draw/lv_draw_mask.c ****         /*Start angle mask can work only from the end of end angle mask*/
 931:lvgl/src/draw/lv_draw_mask.c ****         int32_t end_angle_first = (rel_y * p->end_line.xy_steep) >> 10;
 932:lvgl/src/draw/lv_draw_mask.c ****         int32_t start_angle_last = ((rel_y + 1) * p->start_line.xy_steep) >> 10;
 933:lvgl/src/draw/lv_draw_mask.c **** 
 934:lvgl/src/draw/lv_draw_mask.c ****         /*Do not let the line end cross the vertex else it will affect the opposite part*/
 935:lvgl/src/draw/lv_draw_mask.c ****         if(p->cfg.start_angle > 270 && p->cfg.start_angle <= 359 && start_angle_last < 0) start_ang
 936:lvgl/src/draw/lv_draw_mask.c ****         else if(p->cfg.start_angle > 0 && p->cfg.start_angle <= 90 && start_angle_last < 0) start_a
 937:lvgl/src/draw/lv_draw_mask.c ****         else if(p->cfg.start_angle > 90 && p->cfg.start_angle < 270 && start_angle_last > 0) start_
 938:lvgl/src/draw/lv_draw_mask.c **** 
 939:lvgl/src/draw/lv_draw_mask.c ****         if(p->cfg.end_angle > 270 && p->cfg.end_angle <= 359 && start_angle_last < 0) start_angle_l
 940:lvgl/src/draw/lv_draw_mask.c ****         else if(p->cfg.end_angle > 0 &&   p->cfg.end_angle <= 90 && start_angle_last < 0) start_ang
 941:lvgl/src/draw/lv_draw_mask.c ****         else if(p->cfg.end_angle > 90 &&  p->cfg.end_angle < 270 && start_angle_last > 0) start_ang
 942:lvgl/src/draw/lv_draw_mask.c **** 
ARM GAS  /var/folders/21/t9g5rlb91ys800n5npymflf80000gn/T//cc0CxbBx.s 			page 18


 943:lvgl/src/draw/lv_draw_mask.c ****         int32_t dist = (end_angle_first - start_angle_last) >> 1;
 944:lvgl/src/draw/lv_draw_mask.c **** 
 945:lvgl/src/draw/lv_draw_mask.c ****         lv_draw_mask_res_t res1 = LV_DRAW_MASK_RES_FULL_COVER;
 946:lvgl/src/draw/lv_draw_mask.c ****         lv_draw_mask_res_t res2 = LV_DRAW_MASK_RES_FULL_COVER;
 947:lvgl/src/draw/lv_draw_mask.c **** 
 948:lvgl/src/draw/lv_draw_mask.c ****         int32_t tmp = start_angle_last + dist - rel_x;
 949:lvgl/src/draw/lv_draw_mask.c ****         if(tmp > len) tmp = len;
 950:lvgl/src/draw/lv_draw_mask.c ****         if(tmp > 0) {
 951:lvgl/src/draw/lv_draw_mask.c ****             res1 = lv_draw_mask_line(&mask_buf[0], abs_x, abs_y, tmp, &p->start_line);
 952:lvgl/src/draw/lv_draw_mask.c ****             if(res1 == LV_DRAW_MASK_RES_TRANSP) {
 953:lvgl/src/draw/lv_draw_mask.c ****                 lv_memset_00(&mask_buf[0], tmp);
 954:lvgl/src/draw/lv_draw_mask.c ****             }
 955:lvgl/src/draw/lv_draw_mask.c ****         }
 956:lvgl/src/draw/lv_draw_mask.c **** 
 957:lvgl/src/draw/lv_draw_mask.c ****         if(tmp > len) tmp = len;
 958:lvgl/src/draw/lv_draw_mask.c ****         if(tmp < 0) tmp = 0;
 959:lvgl/src/draw/lv_draw_mask.c ****         res2 = lv_draw_mask_line(&mask_buf[tmp], abs_x + tmp, abs_y, len - tmp, &p->end_line);
 960:lvgl/src/draw/lv_draw_mask.c ****         if(res2 == LV_DRAW_MASK_RES_TRANSP) {
 961:lvgl/src/draw/lv_draw_mask.c ****             lv_memset_00(&mask_buf[tmp], len - tmp);
 962:lvgl/src/draw/lv_draw_mask.c ****         }
 963:lvgl/src/draw/lv_draw_mask.c ****         if(res1 == res2) return res1;
 964:lvgl/src/draw/lv_draw_mask.c ****         else return LV_DRAW_MASK_RES_CHANGED;
 965:lvgl/src/draw/lv_draw_mask.c ****     }
 966:lvgl/src/draw/lv_draw_mask.c ****     else if(p->cfg.start_angle > 180 && p->cfg.end_angle > 180 && p->cfg.start_angle > p->cfg.end_a
 967:lvgl/src/draw/lv_draw_mask.c **** 
 968:lvgl/src/draw/lv_draw_mask.c ****         if(abs_y > p->cfg.vertex_p.y) {
 969:lvgl/src/draw/lv_draw_mask.c ****             return LV_DRAW_MASK_RES_FULL_COVER;
 970:lvgl/src/draw/lv_draw_mask.c ****         }
 971:lvgl/src/draw/lv_draw_mask.c **** 
 972:lvgl/src/draw/lv_draw_mask.c ****         /*Start angle mask can work only from the end of end angle mask*/
 973:lvgl/src/draw/lv_draw_mask.c ****         int32_t end_angle_first = (rel_y * p->end_line.xy_steep) >> 10;
 974:lvgl/src/draw/lv_draw_mask.c ****         int32_t start_angle_last = ((rel_y + 1) * p->start_line.xy_steep) >> 10;
 975:lvgl/src/draw/lv_draw_mask.c **** 
 976:lvgl/src/draw/lv_draw_mask.c ****         /*Do not let the line end cross the vertex else it will affect the opposite part*/
 977:lvgl/src/draw/lv_draw_mask.c ****         if(p->cfg.start_angle > 270 && p->cfg.start_angle <= 359 && start_angle_last < 0) start_ang
 978:lvgl/src/draw/lv_draw_mask.c ****         else if(p->cfg.start_angle > 0 && p->cfg.start_angle <= 90 && start_angle_last < 0) start_a
 979:lvgl/src/draw/lv_draw_mask.c ****         else if(p->cfg.start_angle > 90 && p->cfg.start_angle < 270 && start_angle_last > 0) start_
 980:lvgl/src/draw/lv_draw_mask.c **** 
 981:lvgl/src/draw/lv_draw_mask.c ****         if(p->cfg.end_angle > 270 && p->cfg.end_angle <= 359 && start_angle_last < 0) start_angle_l
 982:lvgl/src/draw/lv_draw_mask.c ****         else if(p->cfg.end_angle > 0 &&   p->cfg.end_angle <= 90 && start_angle_last < 0) start_ang
 983:lvgl/src/draw/lv_draw_mask.c ****         else if(p->cfg.end_angle > 90 &&  p->cfg.end_angle < 270 && start_angle_last > 0) start_ang
 984:lvgl/src/draw/lv_draw_mask.c **** 
 985:lvgl/src/draw/lv_draw_mask.c ****         int32_t dist = (end_angle_first - start_angle_last) >> 1;
 986:lvgl/src/draw/lv_draw_mask.c **** 
 987:lvgl/src/draw/lv_draw_mask.c ****         lv_draw_mask_res_t res1 = LV_DRAW_MASK_RES_FULL_COVER;
 988:lvgl/src/draw/lv_draw_mask.c ****         lv_draw_mask_res_t res2 = LV_DRAW_MASK_RES_FULL_COVER;
 989:lvgl/src/draw/lv_draw_mask.c **** 
 990:lvgl/src/draw/lv_draw_mask.c ****         int32_t tmp = start_angle_last + dist - rel_x;
 991:lvgl/src/draw/lv_draw_mask.c ****         if(tmp > len) tmp = len;
 992:lvgl/src/draw/lv_draw_mask.c ****         if(tmp > 0) {
 993:lvgl/src/draw/lv_draw_mask.c ****             res1 = lv_draw_mask_line(&mask_buf[0], abs_x, abs_y, tmp, (lv_draw_mask_line_param_t *)
 994:lvgl/src/draw/lv_draw_mask.c ****             if(res1 == LV_DRAW_MASK_RES_TRANSP) {
 995:lvgl/src/draw/lv_draw_mask.c ****                 lv_memset_00(&mask_buf[0], tmp);
 996:lvgl/src/draw/lv_draw_mask.c ****             }
 997:lvgl/src/draw/lv_draw_mask.c ****         }
 998:lvgl/src/draw/lv_draw_mask.c **** 
 999:lvgl/src/draw/lv_draw_mask.c ****         if(tmp > len) tmp = len;
ARM GAS  /var/folders/21/t9g5rlb91ys800n5npymflf80000gn/T//cc0CxbBx.s 			page 19


1000:lvgl/src/draw/lv_draw_mask.c ****         if(tmp < 0) tmp = 0;
1001:lvgl/src/draw/lv_draw_mask.c ****         res2 = lv_draw_mask_line(&mask_buf[tmp], abs_x + tmp, abs_y, len - tmp, (lv_draw_mask_line_
1002:lvgl/src/draw/lv_draw_mask.c ****         if(res2 == LV_DRAW_MASK_RES_TRANSP) {
1003:lvgl/src/draw/lv_draw_mask.c ****             lv_memset_00(&mask_buf[tmp], len - tmp);
1004:lvgl/src/draw/lv_draw_mask.c ****         }
1005:lvgl/src/draw/lv_draw_mask.c ****         if(res1 == res2) return res1;
1006:lvgl/src/draw/lv_draw_mask.c ****         else return LV_DRAW_MASK_RES_CHANGED;
1007:lvgl/src/draw/lv_draw_mask.c ****     }
1008:lvgl/src/draw/lv_draw_mask.c ****     else  {
1009:lvgl/src/draw/lv_draw_mask.c **** 
1010:lvgl/src/draw/lv_draw_mask.c ****         lv_draw_mask_res_t res1 = LV_DRAW_MASK_RES_FULL_COVER;
1011:lvgl/src/draw/lv_draw_mask.c ****         lv_draw_mask_res_t res2 = LV_DRAW_MASK_RES_FULL_COVER;
1012:lvgl/src/draw/lv_draw_mask.c **** 
1013:lvgl/src/draw/lv_draw_mask.c ****         if(p->cfg.start_angle == 180) {
1014:lvgl/src/draw/lv_draw_mask.c ****             if(abs_y < p->cfg.vertex_p.y) res1 = LV_DRAW_MASK_RES_FULL_COVER;
1015:lvgl/src/draw/lv_draw_mask.c ****             else res1 = LV_DRAW_MASK_RES_UNKNOWN;
1016:lvgl/src/draw/lv_draw_mask.c ****         }
1017:lvgl/src/draw/lv_draw_mask.c ****         else if(p->cfg.start_angle == 0) {
1018:lvgl/src/draw/lv_draw_mask.c ****             if(abs_y < p->cfg.vertex_p.y) res1 = LV_DRAW_MASK_RES_UNKNOWN;
1019:lvgl/src/draw/lv_draw_mask.c ****             else res1 = LV_DRAW_MASK_RES_FULL_COVER;
1020:lvgl/src/draw/lv_draw_mask.c ****         }
1021:lvgl/src/draw/lv_draw_mask.c ****         else if((p->cfg.start_angle < 180 && abs_y < p->cfg.vertex_p.y) ||
1022:lvgl/src/draw/lv_draw_mask.c ****                 (p->cfg.start_angle > 180 && abs_y >= p->cfg.vertex_p.y)) {
1023:lvgl/src/draw/lv_draw_mask.c ****             res1 = LV_DRAW_MASK_RES_UNKNOWN;
1024:lvgl/src/draw/lv_draw_mask.c ****         }
1025:lvgl/src/draw/lv_draw_mask.c ****         else  {
1026:lvgl/src/draw/lv_draw_mask.c ****             res1 = lv_draw_mask_line(mask_buf, abs_x, abs_y, len, &p->start_line);
1027:lvgl/src/draw/lv_draw_mask.c ****         }
1028:lvgl/src/draw/lv_draw_mask.c **** 
1029:lvgl/src/draw/lv_draw_mask.c ****         if(p->cfg.end_angle == 180) {
1030:lvgl/src/draw/lv_draw_mask.c ****             if(abs_y < p->cfg.vertex_p.y) res2 = LV_DRAW_MASK_RES_UNKNOWN;
1031:lvgl/src/draw/lv_draw_mask.c ****             else res2 = LV_DRAW_MASK_RES_FULL_COVER;
1032:lvgl/src/draw/lv_draw_mask.c ****         }
1033:lvgl/src/draw/lv_draw_mask.c ****         else if(p->cfg.end_angle == 0) {
1034:lvgl/src/draw/lv_draw_mask.c ****             if(abs_y < p->cfg.vertex_p.y) res2 = LV_DRAW_MASK_RES_FULL_COVER;
1035:lvgl/src/draw/lv_draw_mask.c ****             else res2 = LV_DRAW_MASK_RES_UNKNOWN;
1036:lvgl/src/draw/lv_draw_mask.c ****         }
1037:lvgl/src/draw/lv_draw_mask.c ****         else if((p->cfg.end_angle < 180 && abs_y < p->cfg.vertex_p.y) ||
1038:lvgl/src/draw/lv_draw_mask.c ****                 (p->cfg.end_angle > 180 && abs_y >= p->cfg.vertex_p.y)) {
1039:lvgl/src/draw/lv_draw_mask.c ****             res2 = LV_DRAW_MASK_RES_UNKNOWN;
1040:lvgl/src/draw/lv_draw_mask.c ****         }
1041:lvgl/src/draw/lv_draw_mask.c ****         else {
1042:lvgl/src/draw/lv_draw_mask.c ****             res2 = lv_draw_mask_line(mask_buf, abs_x, abs_y, len, &p->end_line);
1043:lvgl/src/draw/lv_draw_mask.c ****         }
1044:lvgl/src/draw/lv_draw_mask.c **** 
1045:lvgl/src/draw/lv_draw_mask.c ****         if(res1 == LV_DRAW_MASK_RES_TRANSP || res2 == LV_DRAW_MASK_RES_TRANSP) return LV_DRAW_MASK_
1046:lvgl/src/draw/lv_draw_mask.c ****         else if(res1 == LV_DRAW_MASK_RES_UNKNOWN && res2 == LV_DRAW_MASK_RES_UNKNOWN) return LV_DRA
1047:lvgl/src/draw/lv_draw_mask.c ****         else if(res1 == LV_DRAW_MASK_RES_FULL_COVER &&  res2 == LV_DRAW_MASK_RES_FULL_COVER) return
1048:lvgl/src/draw/lv_draw_mask.c ****         else return LV_DRAW_MASK_RES_CHANGED;
1049:lvgl/src/draw/lv_draw_mask.c ****     }
1050:lvgl/src/draw/lv_draw_mask.c **** }
1051:lvgl/src/draw/lv_draw_mask.c **** 
1052:lvgl/src/draw/lv_draw_mask.c **** static lv_draw_mask_res_t LV_ATTRIBUTE_FAST_MEM lv_draw_mask_radius(lv_opa_t * mask_buf, lv_coord_t
1053:lvgl/src/draw/lv_draw_mask.c ****                                                                     lv_coord_t abs_y, lv_coord_t le
1054:lvgl/src/draw/lv_draw_mask.c ****                                                                     lv_draw_mask_radius_param_t * p
1055:lvgl/src/draw/lv_draw_mask.c **** {
1056:lvgl/src/draw/lv_draw_mask.c ****     bool outer = p->cfg.outer;
ARM GAS  /var/folders/21/t9g5rlb91ys800n5npymflf80000gn/T//cc0CxbBx.s 			page 20


1057:lvgl/src/draw/lv_draw_mask.c ****     int32_t radius = p->cfg.radius;
1058:lvgl/src/draw/lv_draw_mask.c ****     lv_area_t rect;
1059:lvgl/src/draw/lv_draw_mask.c ****     lv_area_copy(&rect, &p->cfg.rect);
1060:lvgl/src/draw/lv_draw_mask.c **** 
1061:lvgl/src/draw/lv_draw_mask.c ****     if(outer == false) {
1062:lvgl/src/draw/lv_draw_mask.c ****         if((abs_y < rect.y1 || abs_y > rect.y2)) {
1063:lvgl/src/draw/lv_draw_mask.c ****             return LV_DRAW_MASK_RES_TRANSP;
1064:lvgl/src/draw/lv_draw_mask.c ****         }
1065:lvgl/src/draw/lv_draw_mask.c ****     }
1066:lvgl/src/draw/lv_draw_mask.c ****     else {
1067:lvgl/src/draw/lv_draw_mask.c ****         if(abs_y < rect.y1 || abs_y > rect.y2) {
1068:lvgl/src/draw/lv_draw_mask.c ****             return LV_DRAW_MASK_RES_FULL_COVER;
1069:lvgl/src/draw/lv_draw_mask.c ****         }
1070:lvgl/src/draw/lv_draw_mask.c ****     }
1071:lvgl/src/draw/lv_draw_mask.c **** 
1072:lvgl/src/draw/lv_draw_mask.c ****     if((abs_x >= rect.x1 + radius && abs_x + len <= rect.x2 - radius) ||
1073:lvgl/src/draw/lv_draw_mask.c ****        (abs_y >= rect.y1 + radius && abs_y <= rect.y2 - radius)) {
1074:lvgl/src/draw/lv_draw_mask.c ****         if(outer == false) {
1075:lvgl/src/draw/lv_draw_mask.c ****             /*Remove the edges*/
1076:lvgl/src/draw/lv_draw_mask.c ****             int32_t last = rect.x1 - abs_x;
1077:lvgl/src/draw/lv_draw_mask.c ****             if(last > len) return LV_DRAW_MASK_RES_TRANSP;
1078:lvgl/src/draw/lv_draw_mask.c ****             if(last >= 0) {
1079:lvgl/src/draw/lv_draw_mask.c ****                 lv_memset_00(&mask_buf[0], last);
1080:lvgl/src/draw/lv_draw_mask.c ****             }
1081:lvgl/src/draw/lv_draw_mask.c **** 
1082:lvgl/src/draw/lv_draw_mask.c ****             int32_t first = rect.x2 - abs_x + 1;
1083:lvgl/src/draw/lv_draw_mask.c ****             if(first <= 0) return LV_DRAW_MASK_RES_TRANSP;
1084:lvgl/src/draw/lv_draw_mask.c ****             else if(first < len) {
1085:lvgl/src/draw/lv_draw_mask.c ****                 lv_memset_00(&mask_buf[first], len - first);
1086:lvgl/src/draw/lv_draw_mask.c ****             }
1087:lvgl/src/draw/lv_draw_mask.c ****             if(last == 0 && first == len) return LV_DRAW_MASK_RES_FULL_COVER;
1088:lvgl/src/draw/lv_draw_mask.c ****             else return LV_DRAW_MASK_RES_CHANGED;
1089:lvgl/src/draw/lv_draw_mask.c ****         }
1090:lvgl/src/draw/lv_draw_mask.c ****         else {
1091:lvgl/src/draw/lv_draw_mask.c ****             int32_t first = rect.x1 - abs_x;
1092:lvgl/src/draw/lv_draw_mask.c ****             if(first < 0) first = 0;
1093:lvgl/src/draw/lv_draw_mask.c ****             if(first <= len) {
1094:lvgl/src/draw/lv_draw_mask.c ****                 int32_t last = rect.x2 - abs_x - first + 1;
1095:lvgl/src/draw/lv_draw_mask.c ****                 if(first + last > len) last = len - first;
1096:lvgl/src/draw/lv_draw_mask.c ****                 if(last >= 0) {
1097:lvgl/src/draw/lv_draw_mask.c ****                     lv_memset_00(&mask_buf[first], last);
1098:lvgl/src/draw/lv_draw_mask.c ****                 }
1099:lvgl/src/draw/lv_draw_mask.c ****             }
1100:lvgl/src/draw/lv_draw_mask.c ****         }
1101:lvgl/src/draw/lv_draw_mask.c ****         return LV_DRAW_MASK_RES_CHANGED;
1102:lvgl/src/draw/lv_draw_mask.c ****     }
1103:lvgl/src/draw/lv_draw_mask.c ****     //    printf("exec: x:%d.. %d, y:%d: r:%d, %s\n", abs_x, abs_x + len - 1, abs_y, p->cfg.radius,
1104:lvgl/src/draw/lv_draw_mask.c **** 
1105:lvgl/src/draw/lv_draw_mask.c ****     //    if( abs_x == 276 && abs_x + len - 1 == 479 && abs_y == 63 && p->cfg.radius == 5 && p->cfg
1106:lvgl/src/draw/lv_draw_mask.c ****     //        char x = 0;
1107:lvgl/src/draw/lv_draw_mask.c ****     //    }
1108:lvgl/src/draw/lv_draw_mask.c ****     //exec: x:276.. 479, y:63: r:5, inv)
1109:lvgl/src/draw/lv_draw_mask.c **** 
1110:lvgl/src/draw/lv_draw_mask.c ****     int32_t k = rect.x1 - abs_x; /*First relevant coordinate on the of the mask*/
1111:lvgl/src/draw/lv_draw_mask.c ****     int32_t w = lv_area_get_width(&rect);
1112:lvgl/src/draw/lv_draw_mask.c ****     int32_t h = lv_area_get_height(&rect);
1113:lvgl/src/draw/lv_draw_mask.c ****     abs_x -= rect.x1;
ARM GAS  /var/folders/21/t9g5rlb91ys800n5npymflf80000gn/T//cc0CxbBx.s 			page 21


1114:lvgl/src/draw/lv_draw_mask.c ****     abs_y -= rect.y1;
1115:lvgl/src/draw/lv_draw_mask.c **** 
1116:lvgl/src/draw/lv_draw_mask.c ****     lv_coord_t aa_len;
1117:lvgl/src/draw/lv_draw_mask.c ****     lv_coord_t x_start;
1118:lvgl/src/draw/lv_draw_mask.c ****     lv_coord_t cir_y;
1119:lvgl/src/draw/lv_draw_mask.c ****     if(abs_y < radius) {
1120:lvgl/src/draw/lv_draw_mask.c ****         cir_y = radius - abs_y - 1;
1121:lvgl/src/draw/lv_draw_mask.c ****     }
1122:lvgl/src/draw/lv_draw_mask.c ****     else {
1123:lvgl/src/draw/lv_draw_mask.c ****         cir_y = abs_y - (h - radius);
1124:lvgl/src/draw/lv_draw_mask.c ****     }
1125:lvgl/src/draw/lv_draw_mask.c ****     lv_opa_t * aa_opa = get_next_line(p->circle, cir_y, &aa_len, &x_start);
1126:lvgl/src/draw/lv_draw_mask.c ****     lv_coord_t cir_x_right = k + w - radius + x_start;
1127:lvgl/src/draw/lv_draw_mask.c ****     lv_coord_t cir_x_left = k + radius - x_start - 1;
1128:lvgl/src/draw/lv_draw_mask.c ****     lv_coord_t i;
1129:lvgl/src/draw/lv_draw_mask.c **** 
1130:lvgl/src/draw/lv_draw_mask.c ****     if(outer == false) {
1131:lvgl/src/draw/lv_draw_mask.c ****         for(i = 0; i < aa_len; i++) {
1132:lvgl/src/draw/lv_draw_mask.c ****             lv_opa_t opa = aa_opa[aa_len - i - 1];
1133:lvgl/src/draw/lv_draw_mask.c ****             if(cir_x_right + i >= 0 && cir_x_right + i < len) {
1134:lvgl/src/draw/lv_draw_mask.c ****                 mask_buf[cir_x_right + i] = mask_mix(opa, mask_buf[cir_x_right + i]);
1135:lvgl/src/draw/lv_draw_mask.c ****             }
1136:lvgl/src/draw/lv_draw_mask.c ****             if(cir_x_left - i >= 0 && cir_x_left - i < len) {
1137:lvgl/src/draw/lv_draw_mask.c ****                 mask_buf[cir_x_left - i] = mask_mix(opa, mask_buf[cir_x_left - i]);
1138:lvgl/src/draw/lv_draw_mask.c ****             }
1139:lvgl/src/draw/lv_draw_mask.c ****         }
1140:lvgl/src/draw/lv_draw_mask.c **** 
1141:lvgl/src/draw/lv_draw_mask.c ****         /*Clean the right side*/
1142:lvgl/src/draw/lv_draw_mask.c ****         cir_x_right = LV_CLAMP(0, cir_x_right + i, len);
1143:lvgl/src/draw/lv_draw_mask.c ****         lv_memset_00(&mask_buf[cir_x_right], len - cir_x_right);
1144:lvgl/src/draw/lv_draw_mask.c **** 
1145:lvgl/src/draw/lv_draw_mask.c ****         /*Clean the left side*/
1146:lvgl/src/draw/lv_draw_mask.c ****         cir_x_left = LV_CLAMP(0, cir_x_left - aa_len + 1, len);
1147:lvgl/src/draw/lv_draw_mask.c ****         lv_memset_00(&mask_buf[0], cir_x_left);
1148:lvgl/src/draw/lv_draw_mask.c ****     }
1149:lvgl/src/draw/lv_draw_mask.c ****     else {
1150:lvgl/src/draw/lv_draw_mask.c ****         for(i = 0; i < aa_len; i++) {
1151:lvgl/src/draw/lv_draw_mask.c ****             lv_opa_t opa = 255 - (aa_opa[aa_len - 1 - i]);
1152:lvgl/src/draw/lv_draw_mask.c ****             if(cir_x_right + i >= 0 && cir_x_right + i < len) {
1153:lvgl/src/draw/lv_draw_mask.c ****                 mask_buf[cir_x_right + i] = mask_mix(opa, mask_buf[cir_x_right + i]);
1154:lvgl/src/draw/lv_draw_mask.c ****             }
1155:lvgl/src/draw/lv_draw_mask.c ****             if(cir_x_left - i >= 0 && cir_x_left - i < len) {
1156:lvgl/src/draw/lv_draw_mask.c ****                 mask_buf[cir_x_left - i] = mask_mix(opa, mask_buf[cir_x_left - i]);
1157:lvgl/src/draw/lv_draw_mask.c ****             }
1158:lvgl/src/draw/lv_draw_mask.c ****         }
1159:lvgl/src/draw/lv_draw_mask.c **** 
1160:lvgl/src/draw/lv_draw_mask.c ****         lv_coord_t clr_start = LV_CLAMP(0, cir_x_left + 1, len);
1161:lvgl/src/draw/lv_draw_mask.c ****         lv_coord_t clr_len = LV_CLAMP(0, cir_x_right - clr_start, len - clr_start);
1162:lvgl/src/draw/lv_draw_mask.c ****         lv_memset_00(&mask_buf[clr_start], clr_len);
1163:lvgl/src/draw/lv_draw_mask.c ****     }
1164:lvgl/src/draw/lv_draw_mask.c **** 
1165:lvgl/src/draw/lv_draw_mask.c ****     return LV_DRAW_MASK_RES_CHANGED;
1166:lvgl/src/draw/lv_draw_mask.c **** }
1167:lvgl/src/draw/lv_draw_mask.c **** 
1168:lvgl/src/draw/lv_draw_mask.c **** static lv_draw_mask_res_t LV_ATTRIBUTE_FAST_MEM lv_draw_mask_fade(lv_opa_t * mask_buf, lv_coord_t a
1169:lvgl/src/draw/lv_draw_mask.c ****                                                                   lv_coord_t abs_y, lv_coord_t len,
1170:lvgl/src/draw/lv_draw_mask.c ****                                                                   lv_draw_mask_fade_param_t * p)
ARM GAS  /var/folders/21/t9g5rlb91ys800n5npymflf80000gn/T//cc0CxbBx.s 			page 22


1171:lvgl/src/draw/lv_draw_mask.c **** {
  29              		.loc 1 1171 1 view -0
  30              		.cfi_startproc
  31              		@ args = 4, pretend = 0, frame = 0
  32              		@ frame_needed = 0, uses_anonymous_args = 0
  33              		.loc 1 1171 1 is_stmt 0 view .LVU1
  34 0000 70B5     		push	{r4, r5, r6, lr}
  35              	.LCFI0:
  36              		.cfi_def_cfa_offset 16
  37              		.cfi_offset 4, -16
  38              		.cfi_offset 5, -12
  39              		.cfi_offset 6, -8
  40              		.cfi_offset 14, -4
  41 0002 049C     		ldr	r4, [sp, #16]
1172:lvgl/src/draw/lv_draw_mask.c ****     if(abs_y < p->cfg.coords.y1) return LV_DRAW_MASK_RES_FULL_COVER;
  42              		.loc 1 1172 5 is_stmt 1 view .LVU2
  43              		.loc 1 1172 29 is_stmt 0 view .LVU3
  44 0004 B4F90AC0 		ldrsh	ip, [r4, #10]
  45              		.loc 1 1172 7 view .LVU4
  46 0008 9445     		cmp	ip, r2
  47 000a 00F39080 		bgt	.L16
1173:lvgl/src/draw/lv_draw_mask.c ****     if(abs_y > p->cfg.coords.y2) return LV_DRAW_MASK_RES_FULL_COVER;
  48              		.loc 1 1173 5 is_stmt 1 view .LVU5
  49              		.loc 1 1173 29 is_stmt 0 view .LVU6
  50 000e B4F90EC0 		ldrsh	ip, [r4, #14]
  51              		.loc 1 1173 7 view .LVU7
  52 0012 9445     		cmp	ip, r2
  53 0014 C0F28D80 		blt	.L17
1174:lvgl/src/draw/lv_draw_mask.c ****     if(abs_x + len < p->cfg.coords.x1) return LV_DRAW_MASK_RES_FULL_COVER;
  54              		.loc 1 1174 5 is_stmt 1 view .LVU8
  55              		.loc 1 1174 14 is_stmt 0 view .LVU9
  56 0018 5D18     		adds	r5, r3, r1
  57              		.loc 1 1174 35 view .LVU10
  58 001a B4F908E0 		ldrsh	lr, [r4, #8]
  59              		.loc 1 1174 7 view .LVU11
  60 001e 7545     		cmp	r5, lr
  61 0020 C0F28980 		blt	.L18
1175:lvgl/src/draw/lv_draw_mask.c ****     if(abs_x > p->cfg.coords.x2) return LV_DRAW_MASK_RES_FULL_COVER;
  62              		.loc 1 1175 5 is_stmt 1 view .LVU12
  63              		.loc 1 1175 29 is_stmt 0 view .LVU13
  64 0024 B4F90CC0 		ldrsh	ip, [r4, #12]
  65              		.loc 1 1175 7 view .LVU14
  66 0028 8C45     		cmp	ip, r1
  67 002a C0F28680 		blt	.L19
1176:lvgl/src/draw/lv_draw_mask.c **** 
1177:lvgl/src/draw/lv_draw_mask.c ****     if(abs_x + len > p->cfg.coords.x2) len -= abs_x + len - p->cfg.coords.x2 - 1;
  68              		.loc 1 1177 5 is_stmt 1 view .LVU15
  69              		.loc 1 1177 7 is_stmt 0 view .LVU16
  70 002e 6545     		cmp	r5, ip
  71 0030 0ADD     		ble	.L3
  72              		.loc 1 1177 40 is_stmt 1 discriminator 1 view .LVU17
  73              		.loc 1 1177 74 is_stmt 0 discriminator 1 view .LVU18
  74 0032 1FFA8CFC 		uxth	ip, ip
  75              		.loc 1 1177 53 discriminator 1 view .LVU19
  76 0036 9EB2     		uxth	r6, r3
  77 0038 7518     		adds	r5, r6, r1
  78 003a ADB2     		uxth	r5, r5
ARM GAS  /var/folders/21/t9g5rlb91ys800n5npymflf80000gn/T//cc0CxbBx.s 			page 23


  79              		.loc 1 1177 78 discriminator 1 view .LVU20
  80 003c ACEB0503 		sub	r3, ip, r5
  81              	.LVL1:
  82              		.loc 1 1177 44 discriminator 1 view .LVU21
  83 0040 16FA83F3 		uxtah	r3, r6, r3
  84 0044 0133     		adds	r3, r3, #1
  85 0046 1BB2     		sxth	r3, r3
  86              	.LVL2:
  87              	.L3:
1178:lvgl/src/draw/lv_draw_mask.c **** 
1179:lvgl/src/draw/lv_draw_mask.c ****     if(abs_x < p->cfg.coords.x1) {
  88              		.loc 1 1179 5 is_stmt 1 view .LVU22
  89              		.loc 1 1179 7 is_stmt 0 view .LVU23
  90 0048 8E45     		cmp	lr, r1
  91 004a 05DD     		ble	.L4
  92              	.LBB72:
1180:lvgl/src/draw/lv_draw_mask.c ****         int32_t x_ofs = 0;
  93              		.loc 1 1180 9 is_stmt 1 view .LVU24
  94              	.LVL3:
1181:lvgl/src/draw/lv_draw_mask.c ****         x_ofs = p->cfg.coords.x1 - abs_x;
  95              		.loc 1 1181 9 view .LVU25
  96              		.loc 1 1181 15 is_stmt 0 view .LVU26
  97 004c AEEB010E 		sub	lr, lr, r1
  98              	.LVL4:
1182:lvgl/src/draw/lv_draw_mask.c ****         len -= x_ofs;
  99              		.loc 1 1182 9 is_stmt 1 view .LVU27
 100              		.loc 1 1182 13 is_stmt 0 view .LVU28
 101 0050 A3EB0E03 		sub	r3, r3, lr
 102              	.LVL5:
 103              		.loc 1 1182 13 view .LVU29
 104 0054 1BB2     		sxth	r3, r3
 105              	.LVL6:
1183:lvgl/src/draw/lv_draw_mask.c ****         mask_buf += x_ofs;
 106              		.loc 1 1183 9 is_stmt 1 view .LVU30
 107              		.loc 1 1183 18 is_stmt 0 view .LVU31
 108 0056 7044     		add	r0, r0, lr
 109              	.LVL7:
 110              	.L4:
 111              		.loc 1 1183 18 view .LVU32
 112              	.LBE72:
1184:lvgl/src/draw/lv_draw_mask.c ****     }
1185:lvgl/src/draw/lv_draw_mask.c **** 
1186:lvgl/src/draw/lv_draw_mask.c ****     int32_t i;
 113              		.loc 1 1186 5 is_stmt 1 view .LVU33
1187:lvgl/src/draw/lv_draw_mask.c **** 
1188:lvgl/src/draw/lv_draw_mask.c ****     if(abs_y <= p->cfg.y_top) {
 114              		.loc 1 1188 5 view .LVU34
 115              		.loc 1 1188 23 is_stmt 0 view .LVU35
 116 0058 B4F91050 		ldrsh	r5, [r4, #16]
 117              		.loc 1 1188 7 view .LVU36
 118 005c 9542     		cmp	r5, r2
 119 005e 2CDA     		bge	.L28
1189:lvgl/src/draw/lv_draw_mask.c ****         for(i = 0; i < len; i++) {
1190:lvgl/src/draw/lv_draw_mask.c ****             mask_buf[i] = mask_mix(mask_buf[i], p->cfg.opa_top);
1191:lvgl/src/draw/lv_draw_mask.c ****         }
1192:lvgl/src/draw/lv_draw_mask.c ****         return LV_DRAW_MASK_RES_CHANGED;
1193:lvgl/src/draw/lv_draw_mask.c ****     }
ARM GAS  /var/folders/21/t9g5rlb91ys800n5npymflf80000gn/T//cc0CxbBx.s 			page 24


1194:lvgl/src/draw/lv_draw_mask.c ****     else if(abs_y >= p->cfg.y_bottom) {
 120              		.loc 1 1194 10 is_stmt 1 view .LVU37
 121              		.loc 1 1194 28 is_stmt 0 view .LVU38
 122 0060 B4F91210 		ldrsh	r1, [r4, #18]
 123              	.LVL8:
 124              		.loc 1 1194 12 view .LVU39
 125 0064 9142     		cmp	r1, r2
 126 0066 46DD     		ble	.L22
 127              	.LBB73:
1195:lvgl/src/draw/lv_draw_mask.c ****         for(i = 0; i < len; i++) {
1196:lvgl/src/draw/lv_draw_mask.c ****             mask_buf[i] = mask_mix(mask_buf[i], p->cfg.opa_bottom);
1197:lvgl/src/draw/lv_draw_mask.c ****         }
1198:lvgl/src/draw/lv_draw_mask.c ****         return LV_DRAW_MASK_RES_CHANGED;
1199:lvgl/src/draw/lv_draw_mask.c ****     }
1200:lvgl/src/draw/lv_draw_mask.c ****     else {
1201:lvgl/src/draw/lv_draw_mask.c ****         /*Calculate the opa proportionally*/
1202:lvgl/src/draw/lv_draw_mask.c ****         int16_t opa_diff = p->cfg.opa_bottom - p->cfg.opa_top;
 128              		.loc 1 1202 9 is_stmt 1 view .LVU40
 129              		.loc 1 1202 34 is_stmt 0 view .LVU41
 130 0068 94F815C0 		ldrb	ip, [r4, #21]	@ zero_extendqisi2
 131              		.loc 1 1202 54 view .LVU42
 132 006c 247D     		ldrb	r4, [r4, #20]	@ zero_extendqisi2
 133              		.loc 1 1202 17 view .LVU43
 134 006e ACEB040C 		sub	ip, ip, r4
 135              	.LVL9:
1203:lvgl/src/draw/lv_draw_mask.c ****         int32_t y_diff = p->cfg.y_bottom - p->cfg.y_top + 1;
 136              		.loc 1 1203 9 is_stmt 1 view .LVU44
 137              		.loc 1 1203 42 is_stmt 0 view .LVU45
 138 0072 491B     		subs	r1, r1, r5
 139              		.loc 1 1203 17 view .LVU46
 140 0074 0131     		adds	r1, r1, #1
 141              	.LVL10:
1204:lvgl/src/draw/lv_draw_mask.c ****         lv_opa_t opa_act = (int32_t)((int32_t)(abs_y - p->cfg.y_top) * opa_diff) / y_diff;
 142              		.loc 1 1204 9 is_stmt 1 view .LVU47
 143              		.loc 1 1204 38 is_stmt 0 view .LVU48
 144 0076 521B     		subs	r2, r2, r5
 145              	.LVL11:
 146              		.loc 1 1204 28 view .LVU49
 147 0078 02FB0CFC 		mul	ip, r2, ip
 148              	.LVL12:
 149              		.loc 1 1204 82 view .LVU50
 150 007c 9CFBF1FC 		sdiv	ip, ip, r1
 151              	.LVL13:
1205:lvgl/src/draw/lv_draw_mask.c ****         opa_act += p->cfg.opa_top;
 152              		.loc 1 1205 9 is_stmt 1 view .LVU51
 153              		.loc 1 1205 17 is_stmt 0 view .LVU52
 154 0080 54FA8CFC 		uxtab	ip, r4, ip
 155              	.LVL14:
 156              		.loc 1 1205 17 view .LVU53
 157 0084 5FFA8CFC 		uxtb	ip, ip
 158              	.LVL15:
1206:lvgl/src/draw/lv_draw_mask.c **** 
1207:lvgl/src/draw/lv_draw_mask.c ****         for(i = 0; i < len; i++) {
 159              		.loc 1 1207 9 is_stmt 1 view .LVU54
 160              		.loc 1 1207 15 is_stmt 0 view .LVU55
 161 0088 0021     		movs	r1, #0
 162              	.LVL16:
ARM GAS  /var/folders/21/t9g5rlb91ys800n5npymflf80000gn/T//cc0CxbBx.s 			page 25


 163              		.loc 1 1207 9 view .LVU56
 164 008a 42E0     		b	.L13
 165              	.LVL17:
 166              	.L30:
 167              		.loc 1 1207 9 view .LVU57
 168              	.LBE73:
 169              	.LBB78:
 170              	.LBB79:
1208:lvgl/src/draw/lv_draw_mask.c ****             mask_buf[i] = mask_mix(mask_buf[i], opa_act);
1209:lvgl/src/draw/lv_draw_mask.c ****         }
1210:lvgl/src/draw/lv_draw_mask.c ****         return LV_DRAW_MASK_RES_CHANGED;
1211:lvgl/src/draw/lv_draw_mask.c ****     }
1212:lvgl/src/draw/lv_draw_mask.c **** }
1213:lvgl/src/draw/lv_draw_mask.c **** 
1214:lvgl/src/draw/lv_draw_mask.c **** static lv_draw_mask_res_t LV_ATTRIBUTE_FAST_MEM lv_draw_mask_map(lv_opa_t * mask_buf, lv_coord_t ab
1215:lvgl/src/draw/lv_draw_mask.c ****                                                                  lv_coord_t abs_y, lv_coord_t len,
1216:lvgl/src/draw/lv_draw_mask.c ****                                                                  lv_draw_mask_map_param_t * p)
1217:lvgl/src/draw/lv_draw_mask.c **** {
1218:lvgl/src/draw/lv_draw_mask.c ****     /*Handle out of the mask cases*/
1219:lvgl/src/draw/lv_draw_mask.c ****     if(abs_y < p->cfg.coords.y1) return LV_DRAW_MASK_RES_FULL_COVER;
1220:lvgl/src/draw/lv_draw_mask.c ****     if(abs_y > p->cfg.coords.y2) return LV_DRAW_MASK_RES_FULL_COVER;
1221:lvgl/src/draw/lv_draw_mask.c ****     if(abs_x + len < p->cfg.coords.x1) return LV_DRAW_MASK_RES_FULL_COVER;
1222:lvgl/src/draw/lv_draw_mask.c ****     if(abs_x > p->cfg.coords.x2) return LV_DRAW_MASK_RES_FULL_COVER;
1223:lvgl/src/draw/lv_draw_mask.c **** 
1224:lvgl/src/draw/lv_draw_mask.c ****     /*Got to the current row in the map*/
1225:lvgl/src/draw/lv_draw_mask.c ****     const lv_opa_t * map_tmp = p->cfg.map;
1226:lvgl/src/draw/lv_draw_mask.c ****     map_tmp += (abs_y - p->cfg.coords.y1) * lv_area_get_width(&p->cfg.coords);
1227:lvgl/src/draw/lv_draw_mask.c **** 
1228:lvgl/src/draw/lv_draw_mask.c ****     if(abs_x + len > p->cfg.coords.x2) len -= abs_x + len - p->cfg.coords.x2 - 1;
1229:lvgl/src/draw/lv_draw_mask.c **** 
1230:lvgl/src/draw/lv_draw_mask.c ****     if(abs_x < p->cfg.coords.x1) {
1231:lvgl/src/draw/lv_draw_mask.c ****         int32_t x_ofs = 0;
1232:lvgl/src/draw/lv_draw_mask.c ****         x_ofs = p->cfg.coords.x1 - abs_x;
1233:lvgl/src/draw/lv_draw_mask.c ****         len -= x_ofs;
1234:lvgl/src/draw/lv_draw_mask.c ****         mask_buf += x_ofs;
1235:lvgl/src/draw/lv_draw_mask.c ****     }
1236:lvgl/src/draw/lv_draw_mask.c ****     else {
1237:lvgl/src/draw/lv_draw_mask.c ****         map_tmp += (abs_x - p->cfg.coords.x1);
1238:lvgl/src/draw/lv_draw_mask.c ****     }
1239:lvgl/src/draw/lv_draw_mask.c **** 
1240:lvgl/src/draw/lv_draw_mask.c ****     int32_t i;
1241:lvgl/src/draw/lv_draw_mask.c ****     for(i = 0; i < len; i++) {
1242:lvgl/src/draw/lv_draw_mask.c ****         mask_buf[i] = mask_mix(mask_buf[i], map_tmp[i]);
1243:lvgl/src/draw/lv_draw_mask.c ****     }
1244:lvgl/src/draw/lv_draw_mask.c **** 
1245:lvgl/src/draw/lv_draw_mask.c ****     return LV_DRAW_MASK_RES_CHANGED;
1246:lvgl/src/draw/lv_draw_mask.c **** }
1247:lvgl/src/draw/lv_draw_mask.c **** 
1248:lvgl/src/draw/lv_draw_mask.c **** static lv_draw_mask_res_t LV_ATTRIBUTE_FAST_MEM lv_draw_mask_polygon(lv_opa_t * mask_buf, lv_coord_
1249:lvgl/src/draw/lv_draw_mask.c ****                                                                      lv_coord_t abs_y, lv_coord_t l
1250:lvgl/src/draw/lv_draw_mask.c ****                                                                      lv_draw_mask_polygon_param_t *
1251:lvgl/src/draw/lv_draw_mask.c **** {
1252:lvgl/src/draw/lv_draw_mask.c ****     uint16_t i;
1253:lvgl/src/draw/lv_draw_mask.c ****     struct {
1254:lvgl/src/draw/lv_draw_mask.c ****         lv_point_t p1;
1255:lvgl/src/draw/lv_draw_mask.c ****         lv_point_t p2;
1256:lvgl/src/draw/lv_draw_mask.c ****     } lines[2], tmp;
ARM GAS  /var/folders/21/t9g5rlb91ys800n5npymflf80000gn/T//cc0CxbBx.s 			page 26


1257:lvgl/src/draw/lv_draw_mask.c ****     uint16_t line_cnt = 0;
1258:lvgl/src/draw/lv_draw_mask.c ****     lv_memset_00(&lines, sizeof(lines));
1259:lvgl/src/draw/lv_draw_mask.c ****     int psign_prev = 0;
1260:lvgl/src/draw/lv_draw_mask.c ****     for(i = 0; i < param->cfg.point_cnt; i++) {
1261:lvgl/src/draw/lv_draw_mask.c ****         lv_point_t p1 = param->cfg.points[i];
1262:lvgl/src/draw/lv_draw_mask.c ****         lv_point_t p2 = param->cfg.points[i + 1 < param->cfg.point_cnt ? i + 1 : 0];
1263:lvgl/src/draw/lv_draw_mask.c ****         int pdiff = p1.y - p2.y, psign = pdiff / LV_ABS(pdiff);
1264:lvgl/src/draw/lv_draw_mask.c ****         if(pdiff > 0) {
1265:lvgl/src/draw/lv_draw_mask.c ****             if(abs_y > p1.y || abs_y < p2.y) continue;
1266:lvgl/src/draw/lv_draw_mask.c ****             lines[line_cnt].p1 = p2;
1267:lvgl/src/draw/lv_draw_mask.c ****             lines[line_cnt].p2 = p1;
1268:lvgl/src/draw/lv_draw_mask.c ****         }
1269:lvgl/src/draw/lv_draw_mask.c ****         else {
1270:lvgl/src/draw/lv_draw_mask.c ****             if(abs_y < p1.y || abs_y > p2.y) continue;
1271:lvgl/src/draw/lv_draw_mask.c ****             lines[line_cnt].p1 = p1;
1272:lvgl/src/draw/lv_draw_mask.c ****             lines[line_cnt].p2 = p2;
1273:lvgl/src/draw/lv_draw_mask.c ****         }
1274:lvgl/src/draw/lv_draw_mask.c ****         if(psign_prev && psign_prev == psign) continue;
1275:lvgl/src/draw/lv_draw_mask.c ****         psign_prev = psign;
1276:lvgl/src/draw/lv_draw_mask.c ****         line_cnt++;
1277:lvgl/src/draw/lv_draw_mask.c ****         if(line_cnt == 2) break;
1278:lvgl/src/draw/lv_draw_mask.c ****     }
1279:lvgl/src/draw/lv_draw_mask.c ****     if(line_cnt != 2) return LV_DRAW_MASK_RES_TRANSP;
1280:lvgl/src/draw/lv_draw_mask.c ****     if(lines[0].p1.x > lines[1].p1.x || lines[0].p2.x > lines[1].p2.x) {
1281:lvgl/src/draw/lv_draw_mask.c ****         tmp = lines[0];
1282:lvgl/src/draw/lv_draw_mask.c ****         lines[0] = lines[1];
1283:lvgl/src/draw/lv_draw_mask.c ****         lines[1] = tmp;
1284:lvgl/src/draw/lv_draw_mask.c ****     }
1285:lvgl/src/draw/lv_draw_mask.c ****     lv_draw_mask_line_param_t line_p;
1286:lvgl/src/draw/lv_draw_mask.c ****     lv_draw_mask_line_points_init(&line_p, lines[0].p1.x, lines[0].p1.y, lines[0].p2.x, lines[0].p2
1287:lvgl/src/draw/lv_draw_mask.c ****                                   LV_DRAW_MASK_LINE_SIDE_RIGHT);
1288:lvgl/src/draw/lv_draw_mask.c ****     if(line_p.steep == 0 && line_p.flat) {
1289:lvgl/src/draw/lv_draw_mask.c ****         lv_coord_t x1 = LV_MIN(lines[0].p1.x, lines[0].p2.x);
1290:lvgl/src/draw/lv_draw_mask.c ****         lv_coord_t x2 = LV_MAX(lines[0].p1.x, lines[0].p2.x);
1291:lvgl/src/draw/lv_draw_mask.c ****         for(i = 0; i < len; i++) {
1292:lvgl/src/draw/lv_draw_mask.c ****             mask_buf[i] = mask_mix(mask_buf[i], (abs_x + i >= x1 && abs_x + i <= x2) * 0xFF);
1293:lvgl/src/draw/lv_draw_mask.c ****         }
1294:lvgl/src/draw/lv_draw_mask.c ****         lv_draw_mask_free_param(&line_p);
1295:lvgl/src/draw/lv_draw_mask.c ****         return LV_DRAW_MASK_RES_CHANGED;
1296:lvgl/src/draw/lv_draw_mask.c ****     }
1297:lvgl/src/draw/lv_draw_mask.c ****     lv_draw_mask_res_t res1 = lv_draw_mask_line(mask_buf, abs_x, abs_y, len, &line_p);
1298:lvgl/src/draw/lv_draw_mask.c ****     lv_draw_mask_free_param(&line_p);
1299:lvgl/src/draw/lv_draw_mask.c ****     if(res1 == LV_DRAW_MASK_RES_TRANSP) {
1300:lvgl/src/draw/lv_draw_mask.c ****         return LV_DRAW_MASK_RES_TRANSP;
1301:lvgl/src/draw/lv_draw_mask.c ****     }
1302:lvgl/src/draw/lv_draw_mask.c ****     lv_draw_mask_line_points_init(&line_p, lines[1].p1.x, lines[1].p1.y, lines[1].p2.x, lines[1].p2
1303:lvgl/src/draw/lv_draw_mask.c ****                                   LV_DRAW_MASK_LINE_SIDE_LEFT);
1304:lvgl/src/draw/lv_draw_mask.c ****     if(line_p.steep == 0 && line_p.flat) {
1305:lvgl/src/draw/lv_draw_mask.c ****         lv_coord_t x1 = LV_MIN(lines[1].p1.x, lines[1].p2.x);
1306:lvgl/src/draw/lv_draw_mask.c ****         lv_coord_t x2 = LV_MAX(lines[1].p1.x, lines[1].p2.x);
1307:lvgl/src/draw/lv_draw_mask.c ****         for(i = 0; i < len; i++) {
1308:lvgl/src/draw/lv_draw_mask.c ****             mask_buf[i] = mask_mix(mask_buf[i], (abs_x + i >= x1 && abs_x + i <= x2) * 0xFF);
1309:lvgl/src/draw/lv_draw_mask.c ****         }
1310:lvgl/src/draw/lv_draw_mask.c ****         lv_draw_mask_free_param(&line_p);
1311:lvgl/src/draw/lv_draw_mask.c ****         return LV_DRAW_MASK_RES_CHANGED;
1312:lvgl/src/draw/lv_draw_mask.c ****     }
1313:lvgl/src/draw/lv_draw_mask.c ****     lv_draw_mask_res_t res2 = lv_draw_mask_line(mask_buf, abs_x, abs_y, len, &line_p);
ARM GAS  /var/folders/21/t9g5rlb91ys800n5npymflf80000gn/T//cc0CxbBx.s 			page 27


1314:lvgl/src/draw/lv_draw_mask.c ****     lv_draw_mask_free_param(&line_p);
1315:lvgl/src/draw/lv_draw_mask.c ****     if(res2 == LV_DRAW_MASK_RES_TRANSP) {
1316:lvgl/src/draw/lv_draw_mask.c ****         return LV_DRAW_MASK_RES_TRANSP;
1317:lvgl/src/draw/lv_draw_mask.c ****     }
1318:lvgl/src/draw/lv_draw_mask.c ****     if(res1 == LV_DRAW_MASK_RES_CHANGED || res2 == LV_DRAW_MASK_RES_CHANGED) return LV_DRAW_MASK_RE
1319:lvgl/src/draw/lv_draw_mask.c ****     return res1;
1320:lvgl/src/draw/lv_draw_mask.c **** }
1321:lvgl/src/draw/lv_draw_mask.c **** /**
1322:lvgl/src/draw/lv_draw_mask.c ****  * Initialize the circle drawing
1323:lvgl/src/draw/lv_draw_mask.c ****  * @param c pointer to a point. The coordinates will be calculated here
1324:lvgl/src/draw/lv_draw_mask.c ****  * @param tmp point to a variable. It will store temporary data
1325:lvgl/src/draw/lv_draw_mask.c ****  * @param radius radius of the circle
1326:lvgl/src/draw/lv_draw_mask.c ****  */
1327:lvgl/src/draw/lv_draw_mask.c **** static void circ_init(lv_point_t * c, lv_coord_t * tmp, lv_coord_t radius)
1328:lvgl/src/draw/lv_draw_mask.c **** {
1329:lvgl/src/draw/lv_draw_mask.c ****     c->x = radius;
1330:lvgl/src/draw/lv_draw_mask.c ****     c->y = 0;
1331:lvgl/src/draw/lv_draw_mask.c ****     *tmp = 1 - radius;
1332:lvgl/src/draw/lv_draw_mask.c **** }
1333:lvgl/src/draw/lv_draw_mask.c **** 
1334:lvgl/src/draw/lv_draw_mask.c **** /**
1335:lvgl/src/draw/lv_draw_mask.c ****  * Test the circle drawing is ready or not
1336:lvgl/src/draw/lv_draw_mask.c ****  * @param c same as in circ_init
1337:lvgl/src/draw/lv_draw_mask.c ****  * @return true if the circle is not ready yet
1338:lvgl/src/draw/lv_draw_mask.c ****  */
1339:lvgl/src/draw/lv_draw_mask.c **** static bool circ_cont(lv_point_t * c)
1340:lvgl/src/draw/lv_draw_mask.c **** {
1341:lvgl/src/draw/lv_draw_mask.c ****     return c->y <= c->x ? true : false;
1342:lvgl/src/draw/lv_draw_mask.c **** }
1343:lvgl/src/draw/lv_draw_mask.c **** 
1344:lvgl/src/draw/lv_draw_mask.c **** /**
1345:lvgl/src/draw/lv_draw_mask.c ****  * Get the next point from the circle
1346:lvgl/src/draw/lv_draw_mask.c ****  * @param c same as in circ_init. The next point stored here.
1347:lvgl/src/draw/lv_draw_mask.c ****  * @param tmp same as in circ_init.
1348:lvgl/src/draw/lv_draw_mask.c ****  */
1349:lvgl/src/draw/lv_draw_mask.c **** static void circ_next(lv_point_t * c, lv_coord_t * tmp)
1350:lvgl/src/draw/lv_draw_mask.c **** {
1351:lvgl/src/draw/lv_draw_mask.c **** 
1352:lvgl/src/draw/lv_draw_mask.c ****     if(*tmp <= 0) {
1353:lvgl/src/draw/lv_draw_mask.c ****         (*tmp) += 2 * c->y + 3; /*Change in decision criterion for y -> y+1*/
1354:lvgl/src/draw/lv_draw_mask.c ****     }
1355:lvgl/src/draw/lv_draw_mask.c ****     else {
1356:lvgl/src/draw/lv_draw_mask.c ****         (*tmp) += 2 * (c->y - c->x) + 5; /*Change for y -> y+1, x -> x-1*/
1357:lvgl/src/draw/lv_draw_mask.c ****         c->x--;
1358:lvgl/src/draw/lv_draw_mask.c ****     }
1359:lvgl/src/draw/lv_draw_mask.c ****     c->y++;
1360:lvgl/src/draw/lv_draw_mask.c **** }
1361:lvgl/src/draw/lv_draw_mask.c **** 
1362:lvgl/src/draw/lv_draw_mask.c **** static void circ_calc_aa4(_lv_draw_mask_radius_circle_dsc_t * c, lv_coord_t radius)
1363:lvgl/src/draw/lv_draw_mask.c **** {
1364:lvgl/src/draw/lv_draw_mask.c ****     if(radius == 0) return;
1365:lvgl/src/draw/lv_draw_mask.c ****     c->radius = radius;
1366:lvgl/src/draw/lv_draw_mask.c **** 
1367:lvgl/src/draw/lv_draw_mask.c ****     /*Allocate buffers*/
1368:lvgl/src/draw/lv_draw_mask.c ****     if(c->buf) lv_mem_free(c->buf);
1369:lvgl/src/draw/lv_draw_mask.c **** 
1370:lvgl/src/draw/lv_draw_mask.c ****     c->buf = lv_mem_alloc(radius * 6 + 6);  /*Use uint16_t for opa_start_on_y and x_start_on_y*/
ARM GAS  /var/folders/21/t9g5rlb91ys800n5npymflf80000gn/T//cc0CxbBx.s 			page 28


1371:lvgl/src/draw/lv_draw_mask.c ****     LV_ASSERT_MALLOC(c->buf);
1372:lvgl/src/draw/lv_draw_mask.c ****     c->cir_opa = c->buf;
1373:lvgl/src/draw/lv_draw_mask.c ****     c->opa_start_on_y = (uint16_t *)(c->buf + 2 * radius + 2);
1374:lvgl/src/draw/lv_draw_mask.c ****     c->x_start_on_y = (uint16_t *)(c->buf + 4 * radius + 4);
1375:lvgl/src/draw/lv_draw_mask.c **** 
1376:lvgl/src/draw/lv_draw_mask.c ****     /*Special case, handle manually*/
1377:lvgl/src/draw/lv_draw_mask.c ****     if(radius == 1) {
1378:lvgl/src/draw/lv_draw_mask.c ****         c->cir_opa[0] = 180;
1379:lvgl/src/draw/lv_draw_mask.c ****         c->opa_start_on_y[0] = 0;
1380:lvgl/src/draw/lv_draw_mask.c ****         c->opa_start_on_y[1] = 1;
1381:lvgl/src/draw/lv_draw_mask.c ****         c->x_start_on_y[0] = 0;
1382:lvgl/src/draw/lv_draw_mask.c ****         return;
1383:lvgl/src/draw/lv_draw_mask.c ****     }
1384:lvgl/src/draw/lv_draw_mask.c **** 
1385:lvgl/src/draw/lv_draw_mask.c ****     lv_coord_t * cir_x = lv_mem_buf_get((radius + 1) * 2 * 2 * sizeof(lv_coord_t));
1386:lvgl/src/draw/lv_draw_mask.c ****     lv_coord_t * cir_y = &cir_x[(radius + 1) * 2];
1387:lvgl/src/draw/lv_draw_mask.c **** 
1388:lvgl/src/draw/lv_draw_mask.c ****     uint32_t y_8th_cnt = 0;
1389:lvgl/src/draw/lv_draw_mask.c ****     lv_point_t cp;
1390:lvgl/src/draw/lv_draw_mask.c ****     lv_coord_t tmp;
1391:lvgl/src/draw/lv_draw_mask.c ****     circ_init(&cp, &tmp, radius * 4);    /*Upscale by 4*/
1392:lvgl/src/draw/lv_draw_mask.c ****     int32_t i;
1393:lvgl/src/draw/lv_draw_mask.c **** 
1394:lvgl/src/draw/lv_draw_mask.c ****     uint32_t x_int[4];
1395:lvgl/src/draw/lv_draw_mask.c ****     uint32_t x_fract[4];
1396:lvgl/src/draw/lv_draw_mask.c ****     lv_coord_t cir_size = 0;
1397:lvgl/src/draw/lv_draw_mask.c ****     x_int[0] = cp.x >> 2;
1398:lvgl/src/draw/lv_draw_mask.c ****     x_fract[0] = 0;
1399:lvgl/src/draw/lv_draw_mask.c **** 
1400:lvgl/src/draw/lv_draw_mask.c ****     /*Calculate an 1/8 circle*/
1401:lvgl/src/draw/lv_draw_mask.c ****     while(circ_cont(&cp)) {
1402:lvgl/src/draw/lv_draw_mask.c ****         /*Calculate 4 point of the circle */
1403:lvgl/src/draw/lv_draw_mask.c ****         for(i = 0; i < 4; i++) {
1404:lvgl/src/draw/lv_draw_mask.c ****             circ_next(&cp, &tmp);
1405:lvgl/src/draw/lv_draw_mask.c ****             if(circ_cont(&cp) == false) break;
1406:lvgl/src/draw/lv_draw_mask.c ****             x_int[i] = cp.x >> 2;
1407:lvgl/src/draw/lv_draw_mask.c ****             x_fract[i] = cp.x & 0x3;
1408:lvgl/src/draw/lv_draw_mask.c ****         }
1409:lvgl/src/draw/lv_draw_mask.c ****         if(i != 4) break;
1410:lvgl/src/draw/lv_draw_mask.c **** 
1411:lvgl/src/draw/lv_draw_mask.c ****         /*All lines on the same x when downscaled*/
1412:lvgl/src/draw/lv_draw_mask.c ****         if(x_int[0] == x_int[3]) {
1413:lvgl/src/draw/lv_draw_mask.c ****             cir_x[cir_size] = x_int[0];
1414:lvgl/src/draw/lv_draw_mask.c ****             cir_y[cir_size] = y_8th_cnt;
1415:lvgl/src/draw/lv_draw_mask.c ****             c->cir_opa[cir_size] = x_fract[0] + x_fract[1] + x_fract[2] + x_fract[3];
1416:lvgl/src/draw/lv_draw_mask.c ****             c->cir_opa[cir_size] *= 16;
1417:lvgl/src/draw/lv_draw_mask.c ****             cir_size++;
1418:lvgl/src/draw/lv_draw_mask.c ****         }
1419:lvgl/src/draw/lv_draw_mask.c ****         /*Second line on new x when downscaled*/
1420:lvgl/src/draw/lv_draw_mask.c ****         else if(x_int[0] != x_int[1]) {
1421:lvgl/src/draw/lv_draw_mask.c ****             cir_x[cir_size] = x_int[0];
1422:lvgl/src/draw/lv_draw_mask.c ****             cir_y[cir_size] = y_8th_cnt;
1423:lvgl/src/draw/lv_draw_mask.c ****             c->cir_opa[cir_size] = x_fract[0];
1424:lvgl/src/draw/lv_draw_mask.c ****             c->cir_opa[cir_size] *= 16;
1425:lvgl/src/draw/lv_draw_mask.c ****             cir_size++;
1426:lvgl/src/draw/lv_draw_mask.c **** 
1427:lvgl/src/draw/lv_draw_mask.c ****             cir_x[cir_size] = x_int[0] - 1;
ARM GAS  /var/folders/21/t9g5rlb91ys800n5npymflf80000gn/T//cc0CxbBx.s 			page 29


1428:lvgl/src/draw/lv_draw_mask.c ****             cir_y[cir_size] = y_8th_cnt;
1429:lvgl/src/draw/lv_draw_mask.c ****             c->cir_opa[cir_size] = 1 * 4 + x_fract[1] + x_fract[2] + x_fract[3];;
1430:lvgl/src/draw/lv_draw_mask.c ****             c->cir_opa[cir_size] *= 16;
1431:lvgl/src/draw/lv_draw_mask.c ****             cir_size++;
1432:lvgl/src/draw/lv_draw_mask.c ****         }
1433:lvgl/src/draw/lv_draw_mask.c ****         /*Third line on new x when downscaled*/
1434:lvgl/src/draw/lv_draw_mask.c ****         else if(x_int[0] != x_int[2]) {
1435:lvgl/src/draw/lv_draw_mask.c ****             cir_x[cir_size] = x_int[0];
1436:lvgl/src/draw/lv_draw_mask.c ****             cir_y[cir_size] = y_8th_cnt;
1437:lvgl/src/draw/lv_draw_mask.c ****             c->cir_opa[cir_size] = x_fract[0] + x_fract[1];
1438:lvgl/src/draw/lv_draw_mask.c ****             c->cir_opa[cir_size] *= 16;
1439:lvgl/src/draw/lv_draw_mask.c ****             cir_size++;
1440:lvgl/src/draw/lv_draw_mask.c **** 
1441:lvgl/src/draw/lv_draw_mask.c ****             cir_x[cir_size] = x_int[0] - 1;
1442:lvgl/src/draw/lv_draw_mask.c ****             cir_y[cir_size] = y_8th_cnt;
1443:lvgl/src/draw/lv_draw_mask.c ****             c->cir_opa[cir_size] = 2 * 4 + x_fract[2] + x_fract[3];;
1444:lvgl/src/draw/lv_draw_mask.c ****             c->cir_opa[cir_size] *= 16;
1445:lvgl/src/draw/lv_draw_mask.c ****             cir_size++;
1446:lvgl/src/draw/lv_draw_mask.c ****         }
1447:lvgl/src/draw/lv_draw_mask.c ****         /*Forth line on new x when downscaled*/
1448:lvgl/src/draw/lv_draw_mask.c ****         else {
1449:lvgl/src/draw/lv_draw_mask.c ****             cir_x[cir_size] = x_int[0];
1450:lvgl/src/draw/lv_draw_mask.c ****             cir_y[cir_size] = y_8th_cnt;
1451:lvgl/src/draw/lv_draw_mask.c ****             c->cir_opa[cir_size] = x_fract[0] + x_fract[1] + x_fract[2];
1452:lvgl/src/draw/lv_draw_mask.c ****             c->cir_opa[cir_size] *= 16;
1453:lvgl/src/draw/lv_draw_mask.c ****             cir_size++;
1454:lvgl/src/draw/lv_draw_mask.c **** 
1455:lvgl/src/draw/lv_draw_mask.c ****             cir_x[cir_size] = x_int[0] - 1;
1456:lvgl/src/draw/lv_draw_mask.c ****             cir_y[cir_size] = y_8th_cnt;
1457:lvgl/src/draw/lv_draw_mask.c ****             c->cir_opa[cir_size] = 3 * 4 + x_fract[3];;
1458:lvgl/src/draw/lv_draw_mask.c ****             c->cir_opa[cir_size] *= 16;
1459:lvgl/src/draw/lv_draw_mask.c ****             cir_size++;
1460:lvgl/src/draw/lv_draw_mask.c ****         }
1461:lvgl/src/draw/lv_draw_mask.c **** 
1462:lvgl/src/draw/lv_draw_mask.c ****         y_8th_cnt++;
1463:lvgl/src/draw/lv_draw_mask.c ****     }
1464:lvgl/src/draw/lv_draw_mask.c **** 
1465:lvgl/src/draw/lv_draw_mask.c ****     /*The point on the 1/8 circle is special, calculate it manually*/
1466:lvgl/src/draw/lv_draw_mask.c ****     int32_t mid = radius * 723;
1467:lvgl/src/draw/lv_draw_mask.c ****     int32_t mid_int = mid >> 10;
1468:lvgl/src/draw/lv_draw_mask.c ****     if(cir_x[cir_size - 1] != mid_int || cir_y[cir_size - 1] != mid_int) {
1469:lvgl/src/draw/lv_draw_mask.c ****         int32_t tmp_val = mid - (mid_int << 10);
1470:lvgl/src/draw/lv_draw_mask.c ****         if(tmp_val <= 512) {
1471:lvgl/src/draw/lv_draw_mask.c ****             tmp_val = tmp_val * tmp_val * 2;
1472:lvgl/src/draw/lv_draw_mask.c ****             tmp_val = tmp_val >> (10 + 6);
1473:lvgl/src/draw/lv_draw_mask.c ****         }
1474:lvgl/src/draw/lv_draw_mask.c ****         else {
1475:lvgl/src/draw/lv_draw_mask.c ****             tmp_val = 1024 - tmp_val;
1476:lvgl/src/draw/lv_draw_mask.c ****             tmp_val = tmp_val * tmp_val * 2;
1477:lvgl/src/draw/lv_draw_mask.c ****             tmp_val = tmp_val >> (10 + 6);
1478:lvgl/src/draw/lv_draw_mask.c ****             tmp_val = 15 - tmp_val;
1479:lvgl/src/draw/lv_draw_mask.c ****         }
1480:lvgl/src/draw/lv_draw_mask.c **** 
1481:lvgl/src/draw/lv_draw_mask.c ****         cir_x[cir_size] = mid_int;
1482:lvgl/src/draw/lv_draw_mask.c ****         cir_y[cir_size] = mid_int;
1483:lvgl/src/draw/lv_draw_mask.c ****         c->cir_opa[cir_size] = tmp_val;
1484:lvgl/src/draw/lv_draw_mask.c ****         c->cir_opa[cir_size] *= 16;
ARM GAS  /var/folders/21/t9g5rlb91ys800n5npymflf80000gn/T//cc0CxbBx.s 			page 30


1485:lvgl/src/draw/lv_draw_mask.c ****         cir_size++;
1486:lvgl/src/draw/lv_draw_mask.c ****     }
1487:lvgl/src/draw/lv_draw_mask.c **** 
1488:lvgl/src/draw/lv_draw_mask.c ****     /*Build the second octet by mirroring the first*/
1489:lvgl/src/draw/lv_draw_mask.c ****     for(i = cir_size - 2; i >= 0; i--, cir_size++) {
1490:lvgl/src/draw/lv_draw_mask.c ****         cir_x[cir_size] = cir_y[i];
1491:lvgl/src/draw/lv_draw_mask.c ****         cir_y[cir_size] = cir_x[i];
1492:lvgl/src/draw/lv_draw_mask.c ****         c->cir_opa[cir_size] = c->cir_opa[i];
1493:lvgl/src/draw/lv_draw_mask.c ****     }
1494:lvgl/src/draw/lv_draw_mask.c **** 
1495:lvgl/src/draw/lv_draw_mask.c ****     lv_coord_t y = 0;
1496:lvgl/src/draw/lv_draw_mask.c ****     i = 0;
1497:lvgl/src/draw/lv_draw_mask.c ****     c->opa_start_on_y[0] = 0;
1498:lvgl/src/draw/lv_draw_mask.c ****     while(i < cir_size) {
1499:lvgl/src/draw/lv_draw_mask.c ****         c->opa_start_on_y[y] = i;
1500:lvgl/src/draw/lv_draw_mask.c ****         c->x_start_on_y[y] = cir_x[i];
1501:lvgl/src/draw/lv_draw_mask.c ****         for(; cir_y[i] == y && i < (int32_t)cir_size; i++) {
1502:lvgl/src/draw/lv_draw_mask.c ****             c->x_start_on_y[y] = LV_MIN(c->x_start_on_y[y], cir_x[i]);
1503:lvgl/src/draw/lv_draw_mask.c ****         }
1504:lvgl/src/draw/lv_draw_mask.c ****         y++;
1505:lvgl/src/draw/lv_draw_mask.c ****     }
1506:lvgl/src/draw/lv_draw_mask.c **** 
1507:lvgl/src/draw/lv_draw_mask.c ****     lv_mem_buf_release(cir_x);
1508:lvgl/src/draw/lv_draw_mask.c **** }
1509:lvgl/src/draw/lv_draw_mask.c **** 
1510:lvgl/src/draw/lv_draw_mask.c **** static lv_opa_t * get_next_line(_lv_draw_mask_radius_circle_dsc_t * c, lv_coord_t y, lv_coord_t * l
1511:lvgl/src/draw/lv_draw_mask.c ****                                 lv_coord_t * x_start)
1512:lvgl/src/draw/lv_draw_mask.c **** {
1513:lvgl/src/draw/lv_draw_mask.c ****     *len = c->opa_start_on_y[y + 1] - c->opa_start_on_y[y];
1514:lvgl/src/draw/lv_draw_mask.c ****     *x_start = c->x_start_on_y[y];
1515:lvgl/src/draw/lv_draw_mask.c ****     return &c->cir_opa[c->opa_start_on_y[y]];
1516:lvgl/src/draw/lv_draw_mask.c **** }
1517:lvgl/src/draw/lv_draw_mask.c **** 
1518:lvgl/src/draw/lv_draw_mask.c **** static inline lv_opa_t LV_ATTRIBUTE_FAST_MEM mask_mix(lv_opa_t mask_act, lv_opa_t mask_new)
1519:lvgl/src/draw/lv_draw_mask.c **** {
1520:lvgl/src/draw/lv_draw_mask.c ****     if(mask_new >= LV_OPA_MAX) return mask_act;
1521:lvgl/src/draw/lv_draw_mask.c ****     if(mask_new <= LV_OPA_MIN) return 0;
1522:lvgl/src/draw/lv_draw_mask.c **** 
1523:lvgl/src/draw/lv_draw_mask.c ****     return LV_UDIV255(mask_act * mask_new);// >> 8);
 171              		.loc 1 1523 5 is_stmt 1 view .LVU58
 172              		.loc 1 1523 12 is_stmt 0 view .LVU59
 173 008c 05FB02F2 		mul	r2, r5, r2
 174              	.LVL18:
 175              		.loc 1 1523 12 view .LVU60
 176 0090 02EB0225 		add	r5, r2, r2, lsl #8
 177              	.LVL19:
 178              		.loc 1 1523 12 view .LVU61
 179 0094 02EBC512 		add	r2, r2, r5, lsl #7
 180 0098 C2F3C752 		ubfx	r2, r2, #23, #8
 181              	.L7:
 182              	.LVL20:
 183              		.loc 1 1523 12 view .LVU62
 184              	.LBE79:
 185              	.LBE78:
1190:lvgl/src/draw/lv_draw_mask.c ****         }
 186              		.loc 1 1190 25 view .LVU63
 187 009c 8CF80020 		strb	r2, [ip]
ARM GAS  /var/folders/21/t9g5rlb91ys800n5npymflf80000gn/T//cc0CxbBx.s 			page 31


1189:lvgl/src/draw/lv_draw_mask.c ****             mask_buf[i] = mask_mix(mask_buf[i], p->cfg.opa_top);
 188              		.loc 1 1189 30 is_stmt 1 view .LVU64
 189 00a0 0131     		adds	r1, r1, #1
 190              	.LVL21:
 191              	.L5:
1189:lvgl/src/draw/lv_draw_mask.c ****             mask_buf[i] = mask_mix(mask_buf[i], p->cfg.opa_top);
 192              		.loc 1 1189 22 discriminator 1 view .LVU65
 193 00a2 8B42     		cmp	r3, r1
 194 00a4 0BDD     		ble	.L29
1190:lvgl/src/draw/lv_draw_mask.c ****         }
 195              		.loc 1 1190 13 discriminator 3 view .LVU66
1190:lvgl/src/draw/lv_draw_mask.c ****         }
 196              		.loc 1 1190 44 is_stmt 0 discriminator 3 view .LVU67
 197 00a6 00EB010C 		add	ip, r0, r1
1190:lvgl/src/draw/lv_draw_mask.c ****         }
 198              		.loc 1 1190 27 discriminator 3 view .LVU68
 199 00aa 425C     		ldrb	r2, [r0, r1]	@ zero_extendqisi2
 200 00ac 257D     		ldrb	r5, [r4, #20]	@ zero_extendqisi2
 201              	.LVL22:
 202              	.LBB81:
 203              	.LBI78:
1518:lvgl/src/draw/lv_draw_mask.c **** {
 204              		.loc 1 1518 46 is_stmt 1 discriminator 3 view .LVU69
 205              	.LBB80:
1520:lvgl/src/draw/lv_draw_mask.c ****     if(mask_new <= LV_OPA_MIN) return 0;
 206              		.loc 1 1520 5 discriminator 3 view .LVU70
1520:lvgl/src/draw/lv_draw_mask.c ****     if(mask_new <= LV_OPA_MIN) return 0;
 207              		.loc 1 1520 7 is_stmt 0 discriminator 3 view .LVU71
 208 00ae FC2D     		cmp	r5, #252
 209 00b0 F4D8     		bhi	.L7
1521:lvgl/src/draw/lv_draw_mask.c **** 
 210              		.loc 1 1521 5 is_stmt 1 view .LVU72
1521:lvgl/src/draw/lv_draw_mask.c **** 
 211              		.loc 1 1521 7 is_stmt 0 view .LVU73
 212 00b2 022D     		cmp	r5, #2
 213 00b4 EAD8     		bhi	.L30
1521:lvgl/src/draw/lv_draw_mask.c **** 
 214              		.loc 1 1521 39 view .LVU74
 215 00b6 0022     		movs	r2, #0
 216              	.LVL23:
1521:lvgl/src/draw/lv_draw_mask.c **** 
 217              		.loc 1 1521 39 view .LVU75
 218 00b8 F0E7     		b	.L7
 219              	.LVL24:
 220              	.L28:
1521:lvgl/src/draw/lv_draw_mask.c **** 
 221              		.loc 1 1521 39 view .LVU76
 222              	.LBE80:
 223              	.LBE81:
1189:lvgl/src/draw/lv_draw_mask.c ****             mask_buf[i] = mask_mix(mask_buf[i], p->cfg.opa_top);
 224              		.loc 1 1189 15 view .LVU77
 225 00ba 0021     		movs	r1, #0
 226              	.LVL25:
1189:lvgl/src/draw/lv_draw_mask.c ****             mask_buf[i] = mask_mix(mask_buf[i], p->cfg.opa_top);
 227              		.loc 1 1189 15 view .LVU78
 228 00bc F1E7     		b	.L5
 229              	.LVL26:
ARM GAS  /var/folders/21/t9g5rlb91ys800n5npymflf80000gn/T//cc0CxbBx.s 			page 32


 230              	.L29:
1192:lvgl/src/draw/lv_draw_mask.c ****     }
 231              		.loc 1 1192 16 view .LVU79
 232 00be 0220     		movs	r0, #2
 233              	.LVL27:
1192:lvgl/src/draw/lv_draw_mask.c ****     }
 234              		.loc 1 1192 16 view .LVU80
 235 00c0 36E0     		b	.L2
 236              	.LVL28:
 237              	.L32:
 238              	.LBB82:
 239              	.LBB83:
 240              		.loc 1 1523 5 is_stmt 1 view .LVU81
 241              		.loc 1 1523 12 is_stmt 0 view .LVU82
 242 00c2 0CFB02F2 		mul	r2, ip, r2
 243              	.LVL29:
 244              		.loc 1 1523 12 view .LVU83
 245 00c6 02EB0225 		add	r5, r2, r2, lsl #8
 246 00ca 02EBC512 		add	r2, r2, r5, lsl #7
 247 00ce C2F3C752 		ubfx	r2, r2, #23, #8
 248              	.L11:
 249              	.LVL30:
 250              		.loc 1 1523 12 view .LVU84
 251              	.LBE83:
 252              	.LBE82:
1196:lvgl/src/draw/lv_draw_mask.c ****         }
 253              		.loc 1 1196 25 view .LVU85
 254 00d2 8EF80020 		strb	r2, [lr]
1195:lvgl/src/draw/lv_draw_mask.c ****             mask_buf[i] = mask_mix(mask_buf[i], p->cfg.opa_bottom);
 255              		.loc 1 1195 30 is_stmt 1 view .LVU86
 256 00d6 0131     		adds	r1, r1, #1
 257              	.LVL31:
 258              	.L9:
1195:lvgl/src/draw/lv_draw_mask.c ****             mask_buf[i] = mask_mix(mask_buf[i], p->cfg.opa_bottom);
 259              		.loc 1 1195 22 discriminator 1 view .LVU87
 260 00d8 8B42     		cmp	r3, r1
 261 00da 0EDD     		ble	.L31
1196:lvgl/src/draw/lv_draw_mask.c ****         }
 262              		.loc 1 1196 13 discriminator 3 view .LVU88
1196:lvgl/src/draw/lv_draw_mask.c ****         }
 263              		.loc 1 1196 44 is_stmt 0 discriminator 3 view .LVU89
 264 00dc 00EB010E 		add	lr, r0, r1
1196:lvgl/src/draw/lv_draw_mask.c ****         }
 265              		.loc 1 1196 27 discriminator 3 view .LVU90
 266 00e0 425C     		ldrb	r2, [r0, r1]	@ zero_extendqisi2
 267 00e2 94F815C0 		ldrb	ip, [r4, #21]	@ zero_extendqisi2
 268              	.LVL32:
 269              	.LBB85:
 270              	.LBI82:
1518:lvgl/src/draw/lv_draw_mask.c **** {
 271              		.loc 1 1518 46 is_stmt 1 discriminator 3 view .LVU91
 272              	.LBB84:
1520:lvgl/src/draw/lv_draw_mask.c ****     if(mask_new <= LV_OPA_MIN) return 0;
 273              		.loc 1 1520 5 discriminator 3 view .LVU92
1520:lvgl/src/draw/lv_draw_mask.c ****     if(mask_new <= LV_OPA_MIN) return 0;
 274              		.loc 1 1520 7 is_stmt 0 discriminator 3 view .LVU93
 275 00e6 BCF1FC0F 		cmp	ip, #252
ARM GAS  /var/folders/21/t9g5rlb91ys800n5npymflf80000gn/T//cc0CxbBx.s 			page 33


 276 00ea F2D8     		bhi	.L11
1521:lvgl/src/draw/lv_draw_mask.c **** 
 277              		.loc 1 1521 5 is_stmt 1 view .LVU94
1521:lvgl/src/draw/lv_draw_mask.c **** 
 278              		.loc 1 1521 7 is_stmt 0 view .LVU95
 279 00ec BCF1020F 		cmp	ip, #2
 280 00f0 E7D8     		bhi	.L32
1521:lvgl/src/draw/lv_draw_mask.c **** 
 281              		.loc 1 1521 39 view .LVU96
 282 00f2 0022     		movs	r2, #0
 283              	.LVL33:
1521:lvgl/src/draw/lv_draw_mask.c **** 
 284              		.loc 1 1521 39 view .LVU97
 285 00f4 EDE7     		b	.L11
 286              	.LVL34:
 287              	.L22:
1521:lvgl/src/draw/lv_draw_mask.c **** 
 288              		.loc 1 1521 39 view .LVU98
 289              	.LBE84:
 290              	.LBE85:
1195:lvgl/src/draw/lv_draw_mask.c ****             mask_buf[i] = mask_mix(mask_buf[i], p->cfg.opa_bottom);
 291              		.loc 1 1195 15 view .LVU99
 292 00f6 0021     		movs	r1, #0
 293 00f8 EEE7     		b	.L9
 294              	.LVL35:
 295              	.L31:
1198:lvgl/src/draw/lv_draw_mask.c ****     }
 296              		.loc 1 1198 16 view .LVU100
 297 00fa 0220     		movs	r0, #2
 298              	.LVL36:
1198:lvgl/src/draw/lv_draw_mask.c ****     }
 299              		.loc 1 1198 16 view .LVU101
 300 00fc 18E0     		b	.L2
 301              	.LVL37:
 302              	.L34:
 303              	.LBB86:
 304              	.LBB74:
 305              	.LBB75:
 306              		.loc 1 1523 5 is_stmt 1 view .LVU102
 307              		.loc 1 1523 12 is_stmt 0 view .LVU103
 308 00fe 0CFB02F2 		mul	r2, ip, r2
 309              	.LVL38:
 310              		.loc 1 1523 12 view .LVU104
 311 0102 02EB0225 		add	r5, r2, r2, lsl #8
 312 0106 02EBC512 		add	r2, r2, r5, lsl #7
 313 010a C2F3C752 		ubfx	r2, r2, #23, #8
 314              	.L14:
 315              	.LVL39:
 316              		.loc 1 1523 12 view .LVU105
 317              	.LBE75:
 318              	.LBE74:
1208:lvgl/src/draw/lv_draw_mask.c ****         }
 319              		.loc 1 1208 25 view .LVU106
 320 010e 2270     		strb	r2, [r4]
1207:lvgl/src/draw/lv_draw_mask.c ****             mask_buf[i] = mask_mix(mask_buf[i], opa_act);
 321              		.loc 1 1207 30 is_stmt 1 view .LVU107
 322 0110 0131     		adds	r1, r1, #1
ARM GAS  /var/folders/21/t9g5rlb91ys800n5npymflf80000gn/T//cc0CxbBx.s 			page 34


 323              	.LVL40:
 324              	.L13:
1207:lvgl/src/draw/lv_draw_mask.c ****             mask_buf[i] = mask_mix(mask_buf[i], opa_act);
 325              		.loc 1 1207 22 discriminator 1 view .LVU108
 326 0112 8B42     		cmp	r3, r1
 327 0114 09DD     		ble	.L33
1208:lvgl/src/draw/lv_draw_mask.c ****         }
 328              		.loc 1 1208 13 discriminator 3 view .LVU109
1208:lvgl/src/draw/lv_draw_mask.c ****         }
 329              		.loc 1 1208 44 is_stmt 0 discriminator 3 view .LVU110
 330 0116 4418     		adds	r4, r0, r1
1208:lvgl/src/draw/lv_draw_mask.c ****         }
 331              		.loc 1 1208 27 discriminator 3 view .LVU111
 332 0118 425C     		ldrb	r2, [r0, r1]	@ zero_extendqisi2
 333              	.LVL41:
 334              	.LBB77:
 335              	.LBI74:
1518:lvgl/src/draw/lv_draw_mask.c **** {
 336              		.loc 1 1518 46 is_stmt 1 discriminator 3 view .LVU112
 337              	.LBB76:
1520:lvgl/src/draw/lv_draw_mask.c ****     if(mask_new <= LV_OPA_MIN) return 0;
 338              		.loc 1 1520 5 discriminator 3 view .LVU113
1520:lvgl/src/draw/lv_draw_mask.c ****     if(mask_new <= LV_OPA_MIN) return 0;
 339              		.loc 1 1520 7 is_stmt 0 discriminator 3 view .LVU114
 340 011a BCF1FC0F 		cmp	ip, #252
 341 011e F6D8     		bhi	.L14
1521:lvgl/src/draw/lv_draw_mask.c **** 
 342              		.loc 1 1521 5 is_stmt 1 view .LVU115
1521:lvgl/src/draw/lv_draw_mask.c **** 
 343              		.loc 1 1521 7 is_stmt 0 view .LVU116
 344 0120 BCF1020F 		cmp	ip, #2
 345 0124 EBD8     		bhi	.L34
1521:lvgl/src/draw/lv_draw_mask.c **** 
 346              		.loc 1 1521 39 view .LVU117
 347 0126 0022     		movs	r2, #0
 348              	.LVL42:
1521:lvgl/src/draw/lv_draw_mask.c **** 
 349              		.loc 1 1521 39 view .LVU118
 350 0128 F1E7     		b	.L14
 351              	.LVL43:
 352              	.L33:
1521:lvgl/src/draw/lv_draw_mask.c **** 
 353              		.loc 1 1521 39 view .LVU119
 354              	.LBE76:
 355              	.LBE77:
1210:lvgl/src/draw/lv_draw_mask.c ****     }
 356              		.loc 1 1210 16 view .LVU120
 357 012a 0220     		movs	r0, #2
 358              	.LVL44:
1210:lvgl/src/draw/lv_draw_mask.c ****     }
 359              		.loc 1 1210 16 view .LVU121
 360 012c 00E0     		b	.L2
 361              	.LVL45:
 362              	.L16:
1210:lvgl/src/draw/lv_draw_mask.c ****     }
 363              		.loc 1 1210 16 view .LVU122
 364              	.LBE86:
ARM GAS  /var/folders/21/t9g5rlb91ys800n5npymflf80000gn/T//cc0CxbBx.s 			page 35


1172:lvgl/src/draw/lv_draw_mask.c ****     if(abs_y > p->cfg.coords.y2) return LV_DRAW_MASK_RES_FULL_COVER;
 365              		.loc 1 1172 41 view .LVU123
 366 012e 0120     		movs	r0, #1
 367              	.LVL46:
 368              	.L2:
1212:lvgl/src/draw/lv_draw_mask.c **** 
 369              		.loc 1 1212 1 view .LVU124
 370 0130 70BD     		pop	{r4, r5, r6, pc}
 371              	.LVL47:
 372              	.L17:
1173:lvgl/src/draw/lv_draw_mask.c ****     if(abs_x + len < p->cfg.coords.x1) return LV_DRAW_MASK_RES_FULL_COVER;
 373              		.loc 1 1173 41 view .LVU125
 374 0132 0120     		movs	r0, #1
 375              	.LVL48:
1173:lvgl/src/draw/lv_draw_mask.c ****     if(abs_x + len < p->cfg.coords.x1) return LV_DRAW_MASK_RES_FULL_COVER;
 376              		.loc 1 1173 41 view .LVU126
 377 0134 FCE7     		b	.L2
 378              	.LVL49:
 379              	.L18:
1174:lvgl/src/draw/lv_draw_mask.c ****     if(abs_x > p->cfg.coords.x2) return LV_DRAW_MASK_RES_FULL_COVER;
 380              		.loc 1 1174 47 view .LVU127
 381 0136 0120     		movs	r0, #1
 382              	.LVL50:
1174:lvgl/src/draw/lv_draw_mask.c ****     if(abs_x > p->cfg.coords.x2) return LV_DRAW_MASK_RES_FULL_COVER;
 383              		.loc 1 1174 47 view .LVU128
 384 0138 FAE7     		b	.L2
 385              	.LVL51:
 386              	.L19:
1175:lvgl/src/draw/lv_draw_mask.c **** 
 387              		.loc 1 1175 41 view .LVU129
 388 013a 0120     		movs	r0, #1
 389              	.LVL52:
1175:lvgl/src/draw/lv_draw_mask.c **** 
 390              		.loc 1 1175 41 view .LVU130
 391 013c F8E7     		b	.L2
 392              		.cfi_endproc
 393              	.LFE77:
 395              		.section	.text.lv_draw_mask_map,"ax",%progbits
 396              		.align	1
 397              		.syntax unified
 398              		.thumb
 399              		.thumb_func
 401              	lv_draw_mask_map:
 402              	.LVL53:
 403              	.LFB78:
1217:lvgl/src/draw/lv_draw_mask.c ****     /*Handle out of the mask cases*/
 404              		.loc 1 1217 1 is_stmt 1 view -0
 405              		.cfi_startproc
 406              		@ args = 4, pretend = 0, frame = 0
 407              		@ frame_needed = 0, uses_anonymous_args = 0
1217:lvgl/src/draw/lv_draw_mask.c ****     /*Handle out of the mask cases*/
 408              		.loc 1 1217 1 is_stmt 0 view .LVU132
 409 0000 2DE9F041 		push	{r4, r5, r6, r7, r8, lr}
 410              	.LCFI1:
 411              		.cfi_def_cfa_offset 24
 412              		.cfi_offset 4, -24
 413              		.cfi_offset 5, -20
ARM GAS  /var/folders/21/t9g5rlb91ys800n5npymflf80000gn/T//cc0CxbBx.s 			page 36


 414              		.cfi_offset 6, -16
 415              		.cfi_offset 7, -12
 416              		.cfi_offset 8, -8
 417              		.cfi_offset 14, -4
 418 0004 069C     		ldr	r4, [sp, #24]
1219:lvgl/src/draw/lv_draw_mask.c ****     if(abs_y > p->cfg.coords.y2) return LV_DRAW_MASK_RES_FULL_COVER;
 419              		.loc 1 1219 5 is_stmt 1 view .LVU133
1219:lvgl/src/draw/lv_draw_mask.c ****     if(abs_y > p->cfg.coords.y2) return LV_DRAW_MASK_RES_FULL_COVER;
 420              		.loc 1 1219 29 is_stmt 0 view .LVU134
 421 0006 B4F90AC0 		ldrsh	ip, [r4, #10]
1219:lvgl/src/draw/lv_draw_mask.c ****     if(abs_y > p->cfg.coords.y2) return LV_DRAW_MASK_RES_FULL_COVER;
 422              		.loc 1 1219 7 view .LVU135
 423 000a 9445     		cmp	ip, r2
 424 000c 4DDC     		bgt	.L43
1220:lvgl/src/draw/lv_draw_mask.c ****     if(abs_x + len < p->cfg.coords.x1) return LV_DRAW_MASK_RES_FULL_COVER;
 425              		.loc 1 1220 5 is_stmt 1 view .LVU136
1220:lvgl/src/draw/lv_draw_mask.c ****     if(abs_x + len < p->cfg.coords.x1) return LV_DRAW_MASK_RES_FULL_COVER;
 426              		.loc 1 1220 29 is_stmt 0 view .LVU137
 427 000e B4F90E50 		ldrsh	r5, [r4, #14]
1220:lvgl/src/draw/lv_draw_mask.c ****     if(abs_x + len < p->cfg.coords.x1) return LV_DRAW_MASK_RES_FULL_COVER;
 428              		.loc 1 1220 7 view .LVU138
 429 0012 9542     		cmp	r5, r2
 430 0014 4CDB     		blt	.L44
1221:lvgl/src/draw/lv_draw_mask.c ****     if(abs_x > p->cfg.coords.x2) return LV_DRAW_MASK_RES_FULL_COVER;
 431              		.loc 1 1221 5 is_stmt 1 view .LVU139
1221:lvgl/src/draw/lv_draw_mask.c ****     if(abs_x > p->cfg.coords.x2) return LV_DRAW_MASK_RES_FULL_COVER;
 432              		.loc 1 1221 14 is_stmt 0 view .LVU140
 433 0016 5D18     		adds	r5, r3, r1
1221:lvgl/src/draw/lv_draw_mask.c ****     if(abs_x > p->cfg.coords.x2) return LV_DRAW_MASK_RES_FULL_COVER;
 434              		.loc 1 1221 35 view .LVU141
 435 0018 B4F908E0 		ldrsh	lr, [r4, #8]
1221:lvgl/src/draw/lv_draw_mask.c ****     if(abs_x > p->cfg.coords.x2) return LV_DRAW_MASK_RES_FULL_COVER;
 436              		.loc 1 1221 7 view .LVU142
 437 001c 7545     		cmp	r5, lr
 438 001e 49DB     		blt	.L45
1222:lvgl/src/draw/lv_draw_mask.c **** 
 439              		.loc 1 1222 5 is_stmt 1 view .LVU143
1222:lvgl/src/draw/lv_draw_mask.c **** 
 440              		.loc 1 1222 29 is_stmt 0 view .LVU144
 441 0020 B4F90C60 		ldrsh	r6, [r4, #12]
1222:lvgl/src/draw/lv_draw_mask.c **** 
 442              		.loc 1 1222 7 view .LVU145
 443 0024 8E42     		cmp	r6, r1
 444 0026 47DB     		blt	.L46
1225:lvgl/src/draw/lv_draw_mask.c ****     map_tmp += (abs_y - p->cfg.coords.y1) * lv_area_get_width(&p->cfg.coords);
 445              		.loc 1 1225 5 is_stmt 1 view .LVU146
1225:lvgl/src/draw/lv_draw_mask.c ****     map_tmp += (abs_y - p->cfg.coords.y1) * lv_area_get_width(&p->cfg.coords);
 446              		.loc 1 1225 22 is_stmt 0 view .LVU147
 447 0028 2769     		ldr	r7, [r4, #16]
 448              	.LVL54:
1226:lvgl/src/draw/lv_draw_mask.c **** 
 449              		.loc 1 1226 5 is_stmt 1 view .LVU148
1226:lvgl/src/draw/lv_draw_mask.c **** 
 450              		.loc 1 1226 23 is_stmt 0 view .LVU149
 451 002a A2EB0C02 		sub	r2, r2, ip
 452              	.LVL55:
 453              	.LBB87:
ARM GAS  /var/folders/21/t9g5rlb91ys800n5npymflf80000gn/T//cc0CxbBx.s 			page 37


 454              	.LBI87:
 455              		.file 2 "lvgl/src/draw/../misc/../font/../misc/lv_area.h"
   1:lvgl/src/draw/../misc/../font/../misc/lv_area.h **** /**
   2:lvgl/src/draw/../misc/../font/../misc/lv_area.h ****  * @file lv_area.h
   3:lvgl/src/draw/../misc/../font/../misc/lv_area.h ****  *
   4:lvgl/src/draw/../misc/../font/../misc/lv_area.h ****  */
   5:lvgl/src/draw/../misc/../font/../misc/lv_area.h **** 
   6:lvgl/src/draw/../misc/../font/../misc/lv_area.h **** #ifndef LV_AREA_H
   7:lvgl/src/draw/../misc/../font/../misc/lv_area.h **** #define LV_AREA_H
   8:lvgl/src/draw/../misc/../font/../misc/lv_area.h **** 
   9:lvgl/src/draw/../misc/../font/../misc/lv_area.h **** #ifdef __cplusplus
  10:lvgl/src/draw/../misc/../font/../misc/lv_area.h **** extern "C" {
  11:lvgl/src/draw/../misc/../font/../misc/lv_area.h **** #endif
  12:lvgl/src/draw/../misc/../font/../misc/lv_area.h **** 
  13:lvgl/src/draw/../misc/../font/../misc/lv_area.h **** /*********************
  14:lvgl/src/draw/../misc/../font/../misc/lv_area.h ****  *      INCLUDES
  15:lvgl/src/draw/../misc/../font/../misc/lv_area.h ****  *********************/
  16:lvgl/src/draw/../misc/../font/../misc/lv_area.h **** #include "../lv_conf_internal.h"
  17:lvgl/src/draw/../misc/../font/../misc/lv_area.h **** #include <stdbool.h>
  18:lvgl/src/draw/../misc/../font/../misc/lv_area.h **** #include <stdint.h>
  19:lvgl/src/draw/../misc/../font/../misc/lv_area.h **** 
  20:lvgl/src/draw/../misc/../font/../misc/lv_area.h **** /*********************
  21:lvgl/src/draw/../misc/../font/../misc/lv_area.h ****  *      DEFINES
  22:lvgl/src/draw/../misc/../font/../misc/lv_area.h ****  *********************/
  23:lvgl/src/draw/../misc/../font/../misc/lv_area.h **** 
  24:lvgl/src/draw/../misc/../font/../misc/lv_area.h **** #if LV_USE_LARGE_COORD
  25:lvgl/src/draw/../misc/../font/../misc/lv_area.h **** typedef int32_t lv_coord_t;
  26:lvgl/src/draw/../misc/../font/../misc/lv_area.h **** #else
  27:lvgl/src/draw/../misc/../font/../misc/lv_area.h **** typedef int16_t lv_coord_t;
  28:lvgl/src/draw/../misc/../font/../misc/lv_area.h **** #endif
  29:lvgl/src/draw/../misc/../font/../misc/lv_area.h **** 
  30:lvgl/src/draw/../misc/../font/../misc/lv_area.h **** /**********************
  31:lvgl/src/draw/../misc/../font/../misc/lv_area.h ****  *      TYPEDEFS
  32:lvgl/src/draw/../misc/../font/../misc/lv_area.h ****  **********************/
  33:lvgl/src/draw/../misc/../font/../misc/lv_area.h **** 
  34:lvgl/src/draw/../misc/../font/../misc/lv_area.h **** /**
  35:lvgl/src/draw/../misc/../font/../misc/lv_area.h ****  * Represents a point on the screen.
  36:lvgl/src/draw/../misc/../font/../misc/lv_area.h ****  */
  37:lvgl/src/draw/../misc/../font/../misc/lv_area.h **** typedef struct {
  38:lvgl/src/draw/../misc/../font/../misc/lv_area.h ****     lv_coord_t x;
  39:lvgl/src/draw/../misc/../font/../misc/lv_area.h ****     lv_coord_t y;
  40:lvgl/src/draw/../misc/../font/../misc/lv_area.h **** } lv_point_t;
  41:lvgl/src/draw/../misc/../font/../misc/lv_area.h **** 
  42:lvgl/src/draw/../misc/../font/../misc/lv_area.h **** /** Represents an area of the screen.*/
  43:lvgl/src/draw/../misc/../font/../misc/lv_area.h **** typedef struct {
  44:lvgl/src/draw/../misc/../font/../misc/lv_area.h ****     lv_coord_t x1;
  45:lvgl/src/draw/../misc/../font/../misc/lv_area.h ****     lv_coord_t y1;
  46:lvgl/src/draw/../misc/../font/../misc/lv_area.h ****     lv_coord_t x2;
  47:lvgl/src/draw/../misc/../font/../misc/lv_area.h ****     lv_coord_t y2;
  48:lvgl/src/draw/../misc/../font/../misc/lv_area.h **** } lv_area_t;
  49:lvgl/src/draw/../misc/../font/../misc/lv_area.h **** 
  50:lvgl/src/draw/../misc/../font/../misc/lv_area.h **** /** Alignments*/
  51:lvgl/src/draw/../misc/../font/../misc/lv_area.h **** enum {
  52:lvgl/src/draw/../misc/../font/../misc/lv_area.h ****     LV_ALIGN_DEFAULT = 0,
  53:lvgl/src/draw/../misc/../font/../misc/lv_area.h ****     LV_ALIGN_TOP_LEFT,
  54:lvgl/src/draw/../misc/../font/../misc/lv_area.h ****     LV_ALIGN_TOP_MID,
  55:lvgl/src/draw/../misc/../font/../misc/lv_area.h ****     LV_ALIGN_TOP_RIGHT,
ARM GAS  /var/folders/21/t9g5rlb91ys800n5npymflf80000gn/T//cc0CxbBx.s 			page 38


  56:lvgl/src/draw/../misc/../font/../misc/lv_area.h ****     LV_ALIGN_BOTTOM_LEFT,
  57:lvgl/src/draw/../misc/../font/../misc/lv_area.h ****     LV_ALIGN_BOTTOM_MID,
  58:lvgl/src/draw/../misc/../font/../misc/lv_area.h ****     LV_ALIGN_BOTTOM_RIGHT,
  59:lvgl/src/draw/../misc/../font/../misc/lv_area.h ****     LV_ALIGN_LEFT_MID,
  60:lvgl/src/draw/../misc/../font/../misc/lv_area.h ****     LV_ALIGN_RIGHT_MID,
  61:lvgl/src/draw/../misc/../font/../misc/lv_area.h ****     LV_ALIGN_CENTER,
  62:lvgl/src/draw/../misc/../font/../misc/lv_area.h **** 
  63:lvgl/src/draw/../misc/../font/../misc/lv_area.h ****     LV_ALIGN_OUT_TOP_LEFT,
  64:lvgl/src/draw/../misc/../font/../misc/lv_area.h ****     LV_ALIGN_OUT_TOP_MID,
  65:lvgl/src/draw/../misc/../font/../misc/lv_area.h ****     LV_ALIGN_OUT_TOP_RIGHT,
  66:lvgl/src/draw/../misc/../font/../misc/lv_area.h ****     LV_ALIGN_OUT_BOTTOM_LEFT,
  67:lvgl/src/draw/../misc/../font/../misc/lv_area.h ****     LV_ALIGN_OUT_BOTTOM_MID,
  68:lvgl/src/draw/../misc/../font/../misc/lv_area.h ****     LV_ALIGN_OUT_BOTTOM_RIGHT,
  69:lvgl/src/draw/../misc/../font/../misc/lv_area.h ****     LV_ALIGN_OUT_LEFT_TOP,
  70:lvgl/src/draw/../misc/../font/../misc/lv_area.h ****     LV_ALIGN_OUT_LEFT_MID,
  71:lvgl/src/draw/../misc/../font/../misc/lv_area.h ****     LV_ALIGN_OUT_LEFT_BOTTOM,
  72:lvgl/src/draw/../misc/../font/../misc/lv_area.h ****     LV_ALIGN_OUT_RIGHT_TOP,
  73:lvgl/src/draw/../misc/../font/../misc/lv_area.h ****     LV_ALIGN_OUT_RIGHT_MID,
  74:lvgl/src/draw/../misc/../font/../misc/lv_area.h ****     LV_ALIGN_OUT_RIGHT_BOTTOM,
  75:lvgl/src/draw/../misc/../font/../misc/lv_area.h **** };
  76:lvgl/src/draw/../misc/../font/../misc/lv_area.h **** typedef uint8_t lv_align_t;
  77:lvgl/src/draw/../misc/../font/../misc/lv_area.h **** 
  78:lvgl/src/draw/../misc/../font/../misc/lv_area.h **** enum {
  79:lvgl/src/draw/../misc/../font/../misc/lv_area.h ****     LV_DIR_NONE     = 0x00,
  80:lvgl/src/draw/../misc/../font/../misc/lv_area.h ****     LV_DIR_LEFT     = (1 << 0),
  81:lvgl/src/draw/../misc/../font/../misc/lv_area.h ****     LV_DIR_RIGHT    = (1 << 1),
  82:lvgl/src/draw/../misc/../font/../misc/lv_area.h ****     LV_DIR_TOP      = (1 << 2),
  83:lvgl/src/draw/../misc/../font/../misc/lv_area.h ****     LV_DIR_BOTTOM   = (1 << 3),
  84:lvgl/src/draw/../misc/../font/../misc/lv_area.h ****     LV_DIR_HOR      = LV_DIR_LEFT | LV_DIR_RIGHT,
  85:lvgl/src/draw/../misc/../font/../misc/lv_area.h ****     LV_DIR_VER      = LV_DIR_TOP | LV_DIR_BOTTOM,
  86:lvgl/src/draw/../misc/../font/../misc/lv_area.h ****     LV_DIR_ALL      = LV_DIR_HOR | LV_DIR_VER,
  87:lvgl/src/draw/../misc/../font/../misc/lv_area.h **** };
  88:lvgl/src/draw/../misc/../font/../misc/lv_area.h **** 
  89:lvgl/src/draw/../misc/../font/../misc/lv_area.h **** typedef uint8_t lv_dir_t;
  90:lvgl/src/draw/../misc/../font/../misc/lv_area.h **** 
  91:lvgl/src/draw/../misc/../font/../misc/lv_area.h **** /**********************
  92:lvgl/src/draw/../misc/../font/../misc/lv_area.h ****  * GLOBAL PROTOTYPES
  93:lvgl/src/draw/../misc/../font/../misc/lv_area.h ****  **********************/
  94:lvgl/src/draw/../misc/../font/../misc/lv_area.h **** 
  95:lvgl/src/draw/../misc/../font/../misc/lv_area.h **** /**
  96:lvgl/src/draw/../misc/../font/../misc/lv_area.h ****  * Initialize an area
  97:lvgl/src/draw/../misc/../font/../misc/lv_area.h ****  * @param area_p pointer to an area
  98:lvgl/src/draw/../misc/../font/../misc/lv_area.h ****  * @param x1 left coordinate of the area
  99:lvgl/src/draw/../misc/../font/../misc/lv_area.h ****  * @param y1 top coordinate of the area
 100:lvgl/src/draw/../misc/../font/../misc/lv_area.h ****  * @param x2 right coordinate of the area
 101:lvgl/src/draw/../misc/../font/../misc/lv_area.h ****  * @param y2 bottom coordinate of the area
 102:lvgl/src/draw/../misc/../font/../misc/lv_area.h ****  */
 103:lvgl/src/draw/../misc/../font/../misc/lv_area.h **** void lv_area_set(lv_area_t * area_p, lv_coord_t x1, lv_coord_t y1, lv_coord_t x2, lv_coord_t y2);
 104:lvgl/src/draw/../misc/../font/../misc/lv_area.h **** 
 105:lvgl/src/draw/../misc/../font/../misc/lv_area.h **** /**
 106:lvgl/src/draw/../misc/../font/../misc/lv_area.h ****  * Copy an area
 107:lvgl/src/draw/../misc/../font/../misc/lv_area.h ****  * @param dest pointer to the destination area
 108:lvgl/src/draw/../misc/../font/../misc/lv_area.h ****  * @param src pointer to the source area
 109:lvgl/src/draw/../misc/../font/../misc/lv_area.h ****  */
 110:lvgl/src/draw/../misc/../font/../misc/lv_area.h **** inline static void lv_area_copy(lv_area_t * dest, const lv_area_t * src)
 111:lvgl/src/draw/../misc/../font/../misc/lv_area.h **** {
 112:lvgl/src/draw/../misc/../font/../misc/lv_area.h ****     dest->x1 = src->x1;
ARM GAS  /var/folders/21/t9g5rlb91ys800n5npymflf80000gn/T//cc0CxbBx.s 			page 39


 113:lvgl/src/draw/../misc/../font/../misc/lv_area.h ****     dest->y1 = src->y1;
 114:lvgl/src/draw/../misc/../font/../misc/lv_area.h ****     dest->x2 = src->x2;
 115:lvgl/src/draw/../misc/../font/../misc/lv_area.h ****     dest->y2 = src->y2;
 116:lvgl/src/draw/../misc/../font/../misc/lv_area.h **** }
 117:lvgl/src/draw/../misc/../font/../misc/lv_area.h **** 
 118:lvgl/src/draw/../misc/../font/../misc/lv_area.h **** /**
 119:lvgl/src/draw/../misc/../font/../misc/lv_area.h ****  * Get the width of an area
 120:lvgl/src/draw/../misc/../font/../misc/lv_area.h ****  * @param area_p pointer to an area
 121:lvgl/src/draw/../misc/../font/../misc/lv_area.h ****  * @return the width of the area (if x1 == x2 -> width = 1)
 122:lvgl/src/draw/../misc/../font/../misc/lv_area.h ****  */
 123:lvgl/src/draw/../misc/../font/../misc/lv_area.h **** static inline lv_coord_t lv_area_get_width(const lv_area_t * area_p)
 456              		.loc 2 123 26 is_stmt 1 view .LVU150
 457              	.LBB88:
 124:lvgl/src/draw/../misc/../font/../misc/lv_area.h **** {
 125:lvgl/src/draw/../misc/../font/../misc/lv_area.h ****     return (lv_coord_t)(area_p->x2 - area_p->x1 + 1);
 458              		.loc 2 125 5 view .LVU151
 459              		.loc 2 125 31 is_stmt 0 view .LVU152
 460 002e 1FFA86F8 		uxth	r8, r6
 461              		.loc 2 125 44 view .LVU153
 462 0032 1FFA8EF4 		uxth	r4, lr
 463              	.LVL56:
 464              		.loc 2 125 36 view .LVU154
 465 0036 A8EB0404 		sub	r4, r8, r4
 466 003a A4B2     		uxth	r4, r4
 467              		.loc 2 125 49 view .LVU155
 468 003c 0134     		adds	r4, r4, #1
 469              		.loc 2 125 12 view .LVU156
 470 003e 24B2     		sxth	r4, r4
 471              	.LVL57:
 472              		.loc 2 125 12 view .LVU157
 473              	.LBE88:
 474              	.LBE87:
1226:lvgl/src/draw/lv_draw_mask.c **** 
 475              		.loc 1 1226 13 view .LVU158
 476 0040 04FB027C 		mla	ip, r4, r2, r7
 477              	.LVL58:
1228:lvgl/src/draw/lv_draw_mask.c **** 
 478              		.loc 1 1228 5 is_stmt 1 view .LVU159
1228:lvgl/src/draw/lv_draw_mask.c **** 
 479              		.loc 1 1228 7 is_stmt 0 view .LVU160
 480 0044 B542     		cmp	r5, r6
 481 0046 08DD     		ble	.L37
1228:lvgl/src/draw/lv_draw_mask.c **** 
 482              		.loc 1 1228 40 is_stmt 1 discriminator 1 view .LVU161
1228:lvgl/src/draw/lv_draw_mask.c **** 
 483              		.loc 1 1228 53 is_stmt 0 discriminator 1 view .LVU162
 484 0048 9CB2     		uxth	r4, r3
 485 004a 6218     		adds	r2, r4, r1
 486 004c 92B2     		uxth	r2, r2
1228:lvgl/src/draw/lv_draw_mask.c **** 
 487              		.loc 1 1228 78 discriminator 1 view .LVU163
 488 004e A8EB0203 		sub	r3, r8, r2
 489              	.LVL59:
1228:lvgl/src/draw/lv_draw_mask.c **** 
 490              		.loc 1 1228 44 discriminator 1 view .LVU164
 491 0052 14FA83F3 		uxtah	r3, r4, r3
 492 0056 0133     		adds	r3, r3, #1
ARM GAS  /var/folders/21/t9g5rlb91ys800n5npymflf80000gn/T//cc0CxbBx.s 			page 40


 493 0058 1BB2     		sxth	r3, r3
 494              	.LVL60:
 495              	.L37:
1230:lvgl/src/draw/lv_draw_mask.c ****         int32_t x_ofs = 0;
 496              		.loc 1 1230 5 is_stmt 1 view .LVU165
1230:lvgl/src/draw/lv_draw_mask.c ****         int32_t x_ofs = 0;
 497              		.loc 1 1230 7 is_stmt 0 view .LVU166
 498 005a 8E45     		cmp	lr, r1
 499 005c 07DD     		ble	.L38
 500              	.LBB89:
1231:lvgl/src/draw/lv_draw_mask.c ****         x_ofs = p->cfg.coords.x1 - abs_x;
 501              		.loc 1 1231 9 is_stmt 1 view .LVU167
 502              	.LVL61:
1232:lvgl/src/draw/lv_draw_mask.c ****         len -= x_ofs;
 503              		.loc 1 1232 9 view .LVU168
1232:lvgl/src/draw/lv_draw_mask.c ****         len -= x_ofs;
 504              		.loc 1 1232 15 is_stmt 0 view .LVU169
 505 005e AEEB010E 		sub	lr, lr, r1
 506              	.LVL62:
1233:lvgl/src/draw/lv_draw_mask.c ****         mask_buf += x_ofs;
 507              		.loc 1 1233 9 is_stmt 1 view .LVU170
1233:lvgl/src/draw/lv_draw_mask.c ****         mask_buf += x_ofs;
 508              		.loc 1 1233 13 is_stmt 0 view .LVU171
 509 0062 A3EB0E03 		sub	r3, r3, lr
 510              	.LVL63:
1233:lvgl/src/draw/lv_draw_mask.c ****         mask_buf += x_ofs;
 511              		.loc 1 1233 13 view .LVU172
 512 0066 1BB2     		sxth	r3, r3
 513              	.LVL64:
1234:lvgl/src/draw/lv_draw_mask.c ****     }
 514              		.loc 1 1234 9 is_stmt 1 view .LVU173
1234:lvgl/src/draw/lv_draw_mask.c ****     }
 515              		.loc 1 1234 18 is_stmt 0 view .LVU174
 516 0068 7044     		add	r0, r0, lr
 517              	.LVL65:
 518              	.L39:
1234:lvgl/src/draw/lv_draw_mask.c ****     }
 519              		.loc 1 1234 18 view .LVU175
 520              	.LBE89:
1240:lvgl/src/draw/lv_draw_mask.c ****     for(i = 0; i < len; i++) {
 521              		.loc 1 1240 5 is_stmt 1 view .LVU176
1241:lvgl/src/draw/lv_draw_mask.c ****         mask_buf[i] = mask_mix(mask_buf[i], map_tmp[i]);
 522              		.loc 1 1241 5 view .LVU177
1241:lvgl/src/draw/lv_draw_mask.c ****         mask_buf[i] = mask_mix(mask_buf[i], map_tmp[i]);
 523              		.loc 1 1241 11 is_stmt 0 view .LVU178
 524 006a 0022     		movs	r2, #0
1241:lvgl/src/draw/lv_draw_mask.c ****         mask_buf[i] = mask_mix(mask_buf[i], map_tmp[i]);
 525              		.loc 1 1241 5 view .LVU179
 526 006c 06E0     		b	.L40
 527              	.LVL66:
 528              	.L38:
1237:lvgl/src/draw/lv_draw_mask.c ****     }
 529              		.loc 1 1237 9 is_stmt 1 view .LVU180
1237:lvgl/src/draw/lv_draw_mask.c ****     }
 530              		.loc 1 1237 27 is_stmt 0 view .LVU181
 531 006e A1EB0E01 		sub	r1, r1, lr
 532              	.LVL67:
ARM GAS  /var/folders/21/t9g5rlb91ys800n5npymflf80000gn/T//cc0CxbBx.s 			page 41


1237:lvgl/src/draw/lv_draw_mask.c ****     }
 533              		.loc 1 1237 17 view .LVU182
 534 0072 8C44     		add	ip, ip, r1
 535              	.LVL68:
1237:lvgl/src/draw/lv_draw_mask.c ****     }
 536              		.loc 1 1237 17 view .LVU183
 537 0074 F9E7     		b	.L39
 538              	.LVL69:
 539              	.L47:
 540              	.LBB90:
 541              	.LBB91:
1521:lvgl/src/draw/lv_draw_mask.c **** 
 542              		.loc 1 1521 39 view .LVU184
 543 0076 0021     		movs	r1, #0
 544              	.LVL70:
 545              	.L41:
1521:lvgl/src/draw/lv_draw_mask.c **** 
 546              		.loc 1 1521 39 view .LVU185
 547              	.LBE91:
 548              	.LBE90:
1242:lvgl/src/draw/lv_draw_mask.c ****     }
 549              		.loc 1 1242 21 view .LVU186
 550 0078 2170     		strb	r1, [r4]
1241:lvgl/src/draw/lv_draw_mask.c ****         mask_buf[i] = mask_mix(mask_buf[i], map_tmp[i]);
 551              		.loc 1 1241 26 is_stmt 1 view .LVU187
 552 007a 0132     		adds	r2, r2, #1
 553              	.LVL71:
 554              	.L40:
1241:lvgl/src/draw/lv_draw_mask.c ****         mask_buf[i] = mask_mix(mask_buf[i], map_tmp[i]);
 555              		.loc 1 1241 18 discriminator 1 view .LVU188
 556 007c 9342     		cmp	r3, r2
 557 007e 12DD     		ble	.L49
1242:lvgl/src/draw/lv_draw_mask.c ****     }
 558              		.loc 1 1242 9 discriminator 3 view .LVU189
1242:lvgl/src/draw/lv_draw_mask.c ****     }
 559              		.loc 1 1242 40 is_stmt 0 discriminator 3 view .LVU190
 560 0080 8418     		adds	r4, r0, r2
1242:lvgl/src/draw/lv_draw_mask.c ****     }
 561              		.loc 1 1242 23 discriminator 3 view .LVU191
 562 0082 815C     		ldrb	r1, [r0, r2]	@ zero_extendqisi2
 563 0084 1CF802E0 		ldrb	lr, [ip, r2]	@ zero_extendqisi2
 564              	.LVL72:
 565              	.LBB93:
 566              	.LBI90:
1518:lvgl/src/draw/lv_draw_mask.c **** {
 567              		.loc 1 1518 46 is_stmt 1 discriminator 3 view .LVU192
 568              	.LBB92:
1520:lvgl/src/draw/lv_draw_mask.c ****     if(mask_new <= LV_OPA_MIN) return 0;
 569              		.loc 1 1520 5 discriminator 3 view .LVU193
1520:lvgl/src/draw/lv_draw_mask.c ****     if(mask_new <= LV_OPA_MIN) return 0;
 570              		.loc 1 1520 7 is_stmt 0 discriminator 3 view .LVU194
 571 0088 BEF1FC0F 		cmp	lr, #252
 572 008c F4D8     		bhi	.L41
1521:lvgl/src/draw/lv_draw_mask.c **** 
 573              		.loc 1 1521 5 is_stmt 1 view .LVU195
1521:lvgl/src/draw/lv_draw_mask.c **** 
 574              		.loc 1 1521 7 is_stmt 0 view .LVU196
ARM GAS  /var/folders/21/t9g5rlb91ys800n5npymflf80000gn/T//cc0CxbBx.s 			page 42


 575 008e BEF1020F 		cmp	lr, #2
 576 0092 F0D9     		bls	.L47
 577              		.loc 1 1523 5 is_stmt 1 view .LVU197
 578              		.loc 1 1523 12 is_stmt 0 view .LVU198
 579 0094 0EFB01F1 		mul	r1, lr, r1
 580              	.LVL73:
 581              		.loc 1 1523 12 view .LVU199
 582 0098 01EB0125 		add	r5, r1, r1, lsl #8
 583 009c 01EBC511 		add	r1, r1, r5, lsl #7
 584 00a0 C1F3C751 		ubfx	r1, r1, #23, #8
 585 00a4 E8E7     		b	.L41
 586              	.LVL74:
 587              	.L49:
 588              		.loc 1 1523 12 view .LVU200
 589              	.LBE92:
 590              	.LBE93:
1245:lvgl/src/draw/lv_draw_mask.c **** }
 591              		.loc 1 1245 12 view .LVU201
 592 00a6 0220     		movs	r0, #2
 593              	.LVL75:
1245:lvgl/src/draw/lv_draw_mask.c **** }
 594              		.loc 1 1245 12 view .LVU202
 595 00a8 00E0     		b	.L36
 596              	.LVL76:
 597              	.L43:
1219:lvgl/src/draw/lv_draw_mask.c ****     if(abs_y > p->cfg.coords.y2) return LV_DRAW_MASK_RES_FULL_COVER;
 598              		.loc 1 1219 41 view .LVU203
 599 00aa 0120     		movs	r0, #1
 600              	.LVL77:
 601              	.L36:
1246:lvgl/src/draw/lv_draw_mask.c **** 
 602              		.loc 1 1246 1 view .LVU204
 603 00ac BDE8F081 		pop	{r4, r5, r6, r7, r8, pc}
 604              	.LVL78:
 605              	.L44:
1220:lvgl/src/draw/lv_draw_mask.c ****     if(abs_x + len < p->cfg.coords.x1) return LV_DRAW_MASK_RES_FULL_COVER;
 606              		.loc 1 1220 41 view .LVU205
 607 00b0 0120     		movs	r0, #1
 608              	.LVL79:
1220:lvgl/src/draw/lv_draw_mask.c ****     if(abs_x + len < p->cfg.coords.x1) return LV_DRAW_MASK_RES_FULL_COVER;
 609              		.loc 1 1220 41 view .LVU206
 610 00b2 FBE7     		b	.L36
 611              	.LVL80:
 612              	.L45:
1221:lvgl/src/draw/lv_draw_mask.c ****     if(abs_x > p->cfg.coords.x2) return LV_DRAW_MASK_RES_FULL_COVER;
 613              		.loc 1 1221 47 view .LVU207
 614 00b4 0120     		movs	r0, #1
 615              	.LVL81:
1221:lvgl/src/draw/lv_draw_mask.c ****     if(abs_x > p->cfg.coords.x2) return LV_DRAW_MASK_RES_FULL_COVER;
 616              		.loc 1 1221 47 view .LVU208
 617 00b6 F9E7     		b	.L36
 618              	.LVL82:
 619              	.L46:
1222:lvgl/src/draw/lv_draw_mask.c **** 
 620              		.loc 1 1222 41 view .LVU209
 621 00b8 0120     		movs	r0, #1
 622              	.LVL83:
ARM GAS  /var/folders/21/t9g5rlb91ys800n5npymflf80000gn/T//cc0CxbBx.s 			page 43


1222:lvgl/src/draw/lv_draw_mask.c **** 
 623              		.loc 1 1222 41 view .LVU210
 624 00ba F7E7     		b	.L36
 625              		.cfi_endproc
 626              	.LFE78:
 628              		.section	.text.circ_init,"ax",%progbits
 629              		.align	1
 630              		.syntax unified
 631              		.thumb
 632              		.thumb_func
 634              	circ_init:
 635              	.LVL84:
 636              	.LFB80:
1328:lvgl/src/draw/lv_draw_mask.c ****     c->x = radius;
 637              		.loc 1 1328 1 is_stmt 1 view -0
 638              		.cfi_startproc
 639              		@ args = 0, pretend = 0, frame = 0
 640              		@ frame_needed = 0, uses_anonymous_args = 0
 641              		@ link register save eliminated.
1329:lvgl/src/draw/lv_draw_mask.c ****     c->y = 0;
 642              		.loc 1 1329 5 view .LVU212
1329:lvgl/src/draw/lv_draw_mask.c ****     c->y = 0;
 643              		.loc 1 1329 10 is_stmt 0 view .LVU213
 644 0000 0280     		strh	r2, [r0]	@ movhi
1330:lvgl/src/draw/lv_draw_mask.c ****     *tmp = 1 - radius;
 645              		.loc 1 1330 5 is_stmt 1 view .LVU214
1330:lvgl/src/draw/lv_draw_mask.c ****     *tmp = 1 - radius;
 646              		.loc 1 1330 10 is_stmt 0 view .LVU215
 647 0002 0023     		movs	r3, #0
 648 0004 4380     		strh	r3, [r0, #2]	@ movhi
1331:lvgl/src/draw/lv_draw_mask.c **** }
 649              		.loc 1 1331 5 is_stmt 1 view .LVU216
1331:lvgl/src/draw/lv_draw_mask.c **** }
 650              		.loc 1 1331 14 is_stmt 0 view .LVU217
 651 0006 C2F10102 		rsb	r2, r2, #1
 652              	.LVL85:
1331:lvgl/src/draw/lv_draw_mask.c **** }
 653              		.loc 1 1331 10 view .LVU218
 654 000a 0A80     		strh	r2, [r1]	@ movhi
 655              	.LVL86:
1332:lvgl/src/draw/lv_draw_mask.c **** 
 656              		.loc 1 1332 1 view .LVU219
 657 000c 7047     		bx	lr
 658              		.cfi_endproc
 659              	.LFE80:
 661              		.section	.text.circ_cont,"ax",%progbits
 662              		.align	1
 663              		.syntax unified
 664              		.thumb
 665              		.thumb_func
 667              	circ_cont:
 668              	.LVL87:
 669              	.LFB81:
1340:lvgl/src/draw/lv_draw_mask.c ****     return c->y <= c->x ? true : false;
 670              		.loc 1 1340 1 is_stmt 1 view -0
 671              		.cfi_startproc
 672              		@ args = 0, pretend = 0, frame = 0
ARM GAS  /var/folders/21/t9g5rlb91ys800n5npymflf80000gn/T//cc0CxbBx.s 			page 44


 673              		@ frame_needed = 0, uses_anonymous_args = 0
 674              		@ link register save eliminated.
1341:lvgl/src/draw/lv_draw_mask.c **** }
 675              		.loc 1 1341 5 view .LVU221
1341:lvgl/src/draw/lv_draw_mask.c **** }
 676              		.loc 1 1341 13 is_stmt 0 view .LVU222
 677 0000 B0F90220 		ldrsh	r2, [r0, #2]
1341:lvgl/src/draw/lv_draw_mask.c **** }
 678              		.loc 1 1341 21 view .LVU223
 679 0004 B0F90000 		ldrsh	r0, [r0]
 680              	.LVL88:
1342:lvgl/src/draw/lv_draw_mask.c **** 
 681              		.loc 1 1342 1 view .LVU224
 682 0008 8242     		cmp	r2, r0
 683 000a CCBF     		ite	gt
 684 000c 0020     		movgt	r0, #0
 685 000e 0120     		movle	r0, #1
 686 0010 7047     		bx	lr
 687              		.cfi_endproc
 688              	.LFE81:
 690              		.section	.text.circ_next,"ax",%progbits
 691              		.align	1
 692              		.syntax unified
 693              		.thumb
 694              		.thumb_func
 696              	circ_next:
 697              	.LVL89:
 698              	.LFB82:
1350:lvgl/src/draw/lv_draw_mask.c **** 
 699              		.loc 1 1350 1 is_stmt 1 view -0
 700              		.cfi_startproc
 701              		@ args = 0, pretend = 0, frame = 0
 702              		@ frame_needed = 0, uses_anonymous_args = 0
 703              		@ link register save eliminated.
1352:lvgl/src/draw/lv_draw_mask.c ****         (*tmp) += 2 * c->y + 3; /*Change in decision criterion for y -> y+1*/
 704              		.loc 1 1352 5 view .LVU226
1352:lvgl/src/draw/lv_draw_mask.c ****         (*tmp) += 2 * c->y + 3; /*Change in decision criterion for y -> y+1*/
 705              		.loc 1 1352 8 is_stmt 0 view .LVU227
 706 0000 B1F90030 		ldrsh	r3, [r1]
1352:lvgl/src/draw/lv_draw_mask.c ****         (*tmp) += 2 * c->y + 3; /*Change in decision criterion for y -> y+1*/
 707              		.loc 1 1352 7 view .LVU228
 708 0004 002B     		cmp	r3, #0
 709 0006 12DD     		ble	.L55
1356:lvgl/src/draw/lv_draw_mask.c ****         c->x--;
 710              		.loc 1 1356 9 is_stmt 1 view .LVU229
1356:lvgl/src/draw/lv_draw_mask.c ****         c->x--;
 711              		.loc 1 1356 25 is_stmt 0 view .LVU230
 712 0008 B0F90220 		ldrsh	r2, [r0, #2]
1356:lvgl/src/draw/lv_draw_mask.c ****         c->x--;
 713              		.loc 1 1356 32 view .LVU231
 714 000c B0F900C0 		ldrsh	ip, [r0]
1356:lvgl/src/draw/lv_draw_mask.c ****         c->x--;
 715              		.loc 1 1356 29 view .LVU232
 716 0010 A2EB0C02 		sub	r2, r2, ip
1356:lvgl/src/draw/lv_draw_mask.c ****         c->x--;
 717              		.loc 1 1356 16 view .LVU233
 718 0014 03EB4203 		add	r3, r3, r2, lsl #1
ARM GAS  /var/folders/21/t9g5rlb91ys800n5npymflf80000gn/T//cc0CxbBx.s 			page 45


 719 0018 0533     		adds	r3, r3, #5
 720 001a 0B80     		strh	r3, [r1]	@ movhi
1357:lvgl/src/draw/lv_draw_mask.c ****     }
 721              		.loc 1 1357 9 is_stmt 1 view .LVU234
1357:lvgl/src/draw/lv_draw_mask.c ****     }
 722              		.loc 1 1357 10 is_stmt 0 view .LVU235
 723 001c B0F90030 		ldrsh	r3, [r0]
1357:lvgl/src/draw/lv_draw_mask.c ****     }
 724              		.loc 1 1357 13 view .LVU236
 725 0020 013B     		subs	r3, r3, #1
 726 0022 0380     		strh	r3, [r0]	@ movhi
 727              	.L54:
1359:lvgl/src/draw/lv_draw_mask.c **** }
 728              		.loc 1 1359 5 is_stmt 1 view .LVU237
1359:lvgl/src/draw/lv_draw_mask.c **** }
 729              		.loc 1 1359 6 is_stmt 0 view .LVU238
 730 0024 B0F90230 		ldrsh	r3, [r0, #2]
1359:lvgl/src/draw/lv_draw_mask.c **** }
 731              		.loc 1 1359 9 view .LVU239
 732 0028 0133     		adds	r3, r3, #1
 733 002a 4380     		strh	r3, [r0, #2]	@ movhi
1360:lvgl/src/draw/lv_draw_mask.c **** 
 734              		.loc 1 1360 1 view .LVU240
 735 002c 7047     		bx	lr
 736              	.L55:
1353:lvgl/src/draw/lv_draw_mask.c ****     }
 737              		.loc 1 1353 9 is_stmt 1 view .LVU241
1353:lvgl/src/draw/lv_draw_mask.c ****     }
 738              		.loc 1 1353 24 is_stmt 0 view .LVU242
 739 002e 4288     		ldrh	r2, [r0, #2]
1353:lvgl/src/draw/lv_draw_mask.c ****     }
 740              		.loc 1 1353 21 view .LVU243
 741 0030 5200     		lsls	r2, r2, #1
 742 0032 92B2     		uxth	r2, r2
1353:lvgl/src/draw/lv_draw_mask.c ****     }
 743              		.loc 1 1353 16 view .LVU244
 744 0034 1344     		add	r3, r3, r2
 745 0036 0333     		adds	r3, r3, #3
 746 0038 0B80     		strh	r3, [r1]	@ movhi
 747 003a F3E7     		b	.L54
 748              		.cfi_endproc
 749              	.LFE82:
 751              		.section	.text.get_next_line,"ax",%progbits
 752              		.align	1
 753              		.syntax unified
 754              		.thumb
 755              		.thumb_func
 757              	get_next_line:
 758              	.LVL90:
 759              	.LFB84:
1512:lvgl/src/draw/lv_draw_mask.c ****     *len = c->opa_start_on_y[y + 1] - c->opa_start_on_y[y];
 760              		.loc 1 1512 1 is_stmt 1 view -0
 761              		.cfi_startproc
 762              		@ args = 0, pretend = 0, frame = 0
 763              		@ frame_needed = 0, uses_anonymous_args = 0
 764              		@ link register save eliminated.
1512:lvgl/src/draw/lv_draw_mask.c ****     *len = c->opa_start_on_y[y + 1] - c->opa_start_on_y[y];
ARM GAS  /var/folders/21/t9g5rlb91ys800n5npymflf80000gn/T//cc0CxbBx.s 			page 46


 765              		.loc 1 1512 1 is_stmt 0 view .LVU246
 766 0000 10B4     		push	{r4}
 767              	.LCFI2:
 768              		.cfi_def_cfa_offset 4
 769              		.cfi_offset 4, -4
1513:lvgl/src/draw/lv_draw_mask.c ****     *x_start = c->x_start_on_y[y];
 770              		.loc 1 1513 5 is_stmt 1 view .LVU247
1513:lvgl/src/draw/lv_draw_mask.c ****     *x_start = c->x_start_on_y[y];
 771              		.loc 1 1513 13 is_stmt 0 view .LVU248
 772 0002 C468     		ldr	r4, [r0, #12]
1513:lvgl/src/draw/lv_draw_mask.c ****     *x_start = c->x_start_on_y[y];
 773              		.loc 1 1513 29 view .LVU249
 774 0004 01F1010C 		add	ip, r1, #1
 775 0008 34F81CC0 		ldrh	ip, [r4, ip, lsl #1]
1513:lvgl/src/draw/lv_draw_mask.c ****     *x_start = c->x_start_on_y[y];
 776              		.loc 1 1513 56 view .LVU250
 777 000c 34F81140 		ldrh	r4, [r4, r1, lsl #1]
1513:lvgl/src/draw/lv_draw_mask.c ****     *x_start = c->x_start_on_y[y];
 778              		.loc 1 1513 37 view .LVU251
 779 0010 ACEB040C 		sub	ip, ip, r4
1513:lvgl/src/draw/lv_draw_mask.c ****     *x_start = c->x_start_on_y[y];
 780              		.loc 1 1513 10 view .LVU252
 781 0014 A2F800C0 		strh	ip, [r2]	@ movhi
1514:lvgl/src/draw/lv_draw_mask.c ****     return &c->cir_opa[c->opa_start_on_y[y]];
 782              		.loc 1 1514 5 is_stmt 1 view .LVU253
1514:lvgl/src/draw/lv_draw_mask.c ****     return &c->cir_opa[c->opa_start_on_y[y]];
 783              		.loc 1 1514 17 is_stmt 0 view .LVU254
 784 0018 8268     		ldr	r2, [r0, #8]
 785              	.LVL91:
1514:lvgl/src/draw/lv_draw_mask.c ****     return &c->cir_opa[c->opa_start_on_y[y]];
 786              		.loc 1 1514 31 view .LVU255
 787 001a 32F91120 		ldrsh	r2, [r2, r1, lsl #1]
1514:lvgl/src/draw/lv_draw_mask.c ****     return &c->cir_opa[c->opa_start_on_y[y]];
 788              		.loc 1 1514 14 view .LVU256
 789 001e 1A80     		strh	r2, [r3]	@ movhi
1515:lvgl/src/draw/lv_draw_mask.c **** }
 790              		.loc 1 1515 5 is_stmt 1 view .LVU257
1515:lvgl/src/draw/lv_draw_mask.c **** }
 791              		.loc 1 1515 14 is_stmt 0 view .LVU258
 792 0020 4268     		ldr	r2, [r0, #4]
1515:lvgl/src/draw/lv_draw_mask.c **** }
 793              		.loc 1 1515 25 view .LVU259
 794 0022 C368     		ldr	r3, [r0, #12]
 795              	.LVL92:
1515:lvgl/src/draw/lv_draw_mask.c **** }
 796              		.loc 1 1515 41 view .LVU260
 797 0024 33F81100 		ldrh	r0, [r3, r1, lsl #1]
 798              	.LVL93:
1516:lvgl/src/draw/lv_draw_mask.c **** 
 799              		.loc 1 1516 1 view .LVU261
 800 0028 1044     		add	r0, r0, r2
 801 002a 5DF8044B 		ldr	r4, [sp], #4
 802              	.LCFI3:
 803              		.cfi_restore 4
 804              		.cfi_def_cfa_offset 0
 805 002e 7047     		bx	lr
 806              		.cfi_endproc
ARM GAS  /var/folders/21/t9g5rlb91ys800n5npymflf80000gn/T//cc0CxbBx.s 			page 47


 807              	.LFE84:
 809              		.section	.text.line_mask_flat,"ax",%progbits
 810              		.align	1
 811              		.syntax unified
 812              		.thumb
 813              		.thumb_func
 815              	line_mask_flat:
 816              	.LVL94:
 817              	.LFB73:
 660:lvgl/src/draw/lv_draw_mask.c **** 
 818              		.loc 1 660 1 is_stmt 1 view -0
 819              		.cfi_startproc
 820              		@ args = 4, pretend = 0, frame = 0
 821              		@ frame_needed = 0, uses_anonymous_args = 0
 660:lvgl/src/draw/lv_draw_mask.c **** 
 822              		.loc 1 660 1 is_stmt 0 view .LVU263
 823 0000 70B5     		push	{r4, r5, r6, lr}
 824              	.LCFI4:
 825              		.cfi_def_cfa_offset 16
 826              		.cfi_offset 4, -16
 827              		.cfi_offset 5, -12
 828              		.cfi_offset 6, -8
 829              		.cfi_offset 14, -4
 830 0002 0546     		mov	r5, r0
 831 0004 049C     		ldr	r4, [sp, #16]
 662:lvgl/src/draw/lv_draw_mask.c ****     y_at_x = (int32_t)((int32_t)p->yx_steep * abs_x) >> 10;
 832              		.loc 1 662 5 is_stmt 1 view .LVU264
 663:lvgl/src/draw/lv_draw_mask.c **** 
 833              		.loc 1 663 5 view .LVU265
 663:lvgl/src/draw/lv_draw_mask.c **** 
 834              		.loc 1 663 34 is_stmt 0 view .LVU266
 835 0006 E069     		ldr	r0, [r4, #28]
 836              	.LVL95:
 663:lvgl/src/draw/lv_draw_mask.c **** 
 837              		.loc 1 663 14 view .LVU267
 838 0008 01FB00FC 		mul	ip, r1, r0
 663:lvgl/src/draw/lv_draw_mask.c **** 
 839              		.loc 1 663 12 view .LVU268
 840 000c 4FEAAC2C 		asr	ip, ip, #10
 841              	.LVL96:
 665:lvgl/src/draw/lv_draw_mask.c ****         if(y_at_x > abs_y) {
 842              		.loc 1 665 5 is_stmt 1 view .LVU269
 665:lvgl/src/draw/lv_draw_mask.c ****         if(y_at_x > abs_y) {
 843              		.loc 1 665 7 is_stmt 0 view .LVU270
 844 0010 0028     		cmp	r0, #0
 845 0012 08DD     		ble	.L59
 666:lvgl/src/draw/lv_draw_mask.c ****             if(p->inv) {
 846              		.loc 1 666 9 is_stmt 1 view .LVU271
 666:lvgl/src/draw/lv_draw_mask.c ****             if(p->inv) {
 847              		.loc 1 666 11 is_stmt 0 view .LVU272
 848 0014 6245     		cmp	r2, ip
 849 0016 0FDA     		bge	.L60
 667:lvgl/src/draw/lv_draw_mask.c ****                 return LV_DRAW_MASK_RES_FULL_COVER;
 850              		.loc 1 667 13 is_stmt 1 view .LVU273
 667:lvgl/src/draw/lv_draw_mask.c ****                 return LV_DRAW_MASK_RES_FULL_COVER;
 851              		.loc 1 667 16 is_stmt 0 view .LVU274
 852 0018 94F82800 		ldrb	r0, [r4, #40]	@ zero_extendqisi2
ARM GAS  /var/folders/21/t9g5rlb91ys800n5npymflf80000gn/T//cc0CxbBx.s 			page 48


 667:lvgl/src/draw/lv_draw_mask.c ****                 return LV_DRAW_MASK_RES_FULL_COVER;
 853              		.loc 1 667 15 view .LVU275
 854 001c 10F00200 		ands	r0, r0, #2
 855 0020 00D0     		beq	.L61
 668:lvgl/src/draw/lv_draw_mask.c ****             }
 856              		.loc 1 668 24 view .LVU276
 857 0022 0120     		movs	r0, #1
 858              	.LVL97:
 859              	.L61:
 771:lvgl/src/draw/lv_draw_mask.c **** 
 860              		.loc 1 771 1 view .LVU277
 861 0024 70BD     		pop	{r4, r5, r6, pc}
 862              	.LVL98:
 863              	.L59:
 676:lvgl/src/draw/lv_draw_mask.c ****             if(p->inv) {
 864              		.loc 1 676 9 is_stmt 1 view .LVU278
 676:lvgl/src/draw/lv_draw_mask.c ****             if(p->inv) {
 865              		.loc 1 676 11 is_stmt 0 view .LVU279
 866 0026 6245     		cmp	r2, ip
 867 0028 06DD     		ble	.L60
 677:lvgl/src/draw/lv_draw_mask.c ****                 return LV_DRAW_MASK_RES_FULL_COVER;
 868              		.loc 1 677 13 is_stmt 1 view .LVU280
 677:lvgl/src/draw/lv_draw_mask.c ****                 return LV_DRAW_MASK_RES_FULL_COVER;
 869              		.loc 1 677 16 is_stmt 0 view .LVU281
 870 002a 94F82800 		ldrb	r0, [r4, #40]	@ zero_extendqisi2
 677:lvgl/src/draw/lv_draw_mask.c ****                 return LV_DRAW_MASK_RES_FULL_COVER;
 871              		.loc 1 677 15 view .LVU282
 872 002e 10F00200 		ands	r0, r0, #2
 873 0032 F7D0     		beq	.L61
 678:lvgl/src/draw/lv_draw_mask.c ****             }
 874              		.loc 1 678 24 view .LVU283
 875 0034 0120     		movs	r0, #1
 876 0036 F5E7     		b	.L61
 877              	.L60:
 688:lvgl/src/draw/lv_draw_mask.c ****     if(p->yx_steep > 0) {
 878              		.loc 1 688 5 is_stmt 1 view .LVU284
 688:lvgl/src/draw/lv_draw_mask.c ****     if(p->yx_steep > 0) {
 879              		.loc 1 688 54 is_stmt 0 view .LVU285
 880 0038 01EB030C 		add	ip, r1, r3
 881              	.LVL99:
 688:lvgl/src/draw/lv_draw_mask.c ****     if(p->yx_steep > 0) {
 882              		.loc 1 688 14 view .LVU286
 883 003c 0CFB00FC 		mul	ip, ip, r0
 688:lvgl/src/draw/lv_draw_mask.c ****     if(p->yx_steep > 0) {
 884              		.loc 1 688 12 view .LVU287
 885 0040 4FEAAC2C 		asr	ip, ip, #10
 886              	.LVL100:
 689:lvgl/src/draw/lv_draw_mask.c ****         if(y_at_x < abs_y) {
 887              		.loc 1 689 5 is_stmt 1 view .LVU288
 689:lvgl/src/draw/lv_draw_mask.c ****         if(y_at_x < abs_y) {
 888              		.loc 1 689 7 is_stmt 0 view .LVU289
 889 0044 0028     		cmp	r0, #0
 890 0046 09DD     		ble	.L62
 690:lvgl/src/draw/lv_draw_mask.c ****             if(p->inv) {
 891              		.loc 1 690 9 is_stmt 1 view .LVU290
 690:lvgl/src/draw/lv_draw_mask.c ****             if(p->inv) {
 892              		.loc 1 690 11 is_stmt 0 view .LVU291
ARM GAS  /var/folders/21/t9g5rlb91ys800n5npymflf80000gn/T//cc0CxbBx.s 			page 49


 893 0048 6245     		cmp	r2, ip
 894 004a 11DD     		ble	.L63
 691:lvgl/src/draw/lv_draw_mask.c ****                 return LV_DRAW_MASK_RES_TRANSP;
 895              		.loc 1 691 13 is_stmt 1 view .LVU292
 691:lvgl/src/draw/lv_draw_mask.c ****                 return LV_DRAW_MASK_RES_TRANSP;
 896              		.loc 1 691 16 is_stmt 0 view .LVU293
 897 004c 94F82830 		ldrb	r3, [r4, #40]	@ zero_extendqisi2
 898              	.LVL101:
 691:lvgl/src/draw/lv_draw_mask.c ****                 return LV_DRAW_MASK_RES_TRANSP;
 899              		.loc 1 691 15 view .LVU294
 900 0050 13F0020F 		tst	r3, #2
 901 0054 00F0D280 		beq	.L82
 692:lvgl/src/draw/lv_draw_mask.c ****             }
 902              		.loc 1 692 24 view .LVU295
 903 0058 0020     		movs	r0, #0
 904 005a E3E7     		b	.L61
 905              	.LVL102:
 906              	.L62:
 700:lvgl/src/draw/lv_draw_mask.c ****             if(p->inv) {
 907              		.loc 1 700 9 is_stmt 1 view .LVU296
 700:lvgl/src/draw/lv_draw_mask.c ****             if(p->inv) {
 908              		.loc 1 700 11 is_stmt 0 view .LVU297
 909 005c 6245     		cmp	r2, ip
 910 005e 07DA     		bge	.L63
 701:lvgl/src/draw/lv_draw_mask.c ****                 return LV_DRAW_MASK_RES_TRANSP;
 911              		.loc 1 701 13 is_stmt 1 view .LVU298
 701:lvgl/src/draw/lv_draw_mask.c ****                 return LV_DRAW_MASK_RES_TRANSP;
 912              		.loc 1 701 16 is_stmt 0 view .LVU299
 913 0060 94F82830 		ldrb	r3, [r4, #40]	@ zero_extendqisi2
 914              	.LVL103:
 701:lvgl/src/draw/lv_draw_mask.c ****                 return LV_DRAW_MASK_RES_TRANSP;
 915              		.loc 1 701 15 view .LVU300
 916 0064 13F0020F 		tst	r3, #2
 917 0068 00F0CA80 		beq	.L83
 702:lvgl/src/draw/lv_draw_mask.c ****             }
 918              		.loc 1 702 24 view .LVU301
 919 006c 0020     		movs	r0, #0
 920 006e D9E7     		b	.L61
 921              	.LVL104:
 922              	.L63:
 710:lvgl/src/draw/lv_draw_mask.c ****     if(p->yx_steep > 0) xe = ((abs_y * 256) * p->xy_steep) >> 10;
 923              		.loc 1 710 5 is_stmt 1 view .LVU302
 711:lvgl/src/draw/lv_draw_mask.c ****     else xe = (((abs_y + 1) * 256) * p->xy_steep) >> 10;
 924              		.loc 1 711 5 view .LVU303
 711:lvgl/src/draw/lv_draw_mask.c ****     else xe = (((abs_y + 1) * 256) * p->xy_steep) >> 10;
 925              		.loc 1 711 7 is_stmt 0 view .LVU304
 926 0070 0028     		cmp	r0, #0
 927 0072 38DD     		ble	.L64
 711:lvgl/src/draw/lv_draw_mask.c ****     else xe = (((abs_y + 1) * 256) * p->xy_steep) >> 10;
 928              		.loc 1 711 25 is_stmt 1 discriminator 1 view .LVU305
 711:lvgl/src/draw/lv_draw_mask.c ****     else xe = (((abs_y + 1) * 256) * p->xy_steep) >> 10;
 929              		.loc 1 711 48 is_stmt 0 discriminator 1 view .LVU306
 930 0074 A069     		ldr	r0, [r4, #24]
 711:lvgl/src/draw/lv_draw_mask.c ****     else xe = (((abs_y + 1) * 256) * p->xy_steep) >> 10;
 931              		.loc 1 711 45 discriminator 1 view .LVU307
 932 0076 00FB02F2 		mul	r2, r0, r2
 933              	.LVL105:
ARM GAS  /var/folders/21/t9g5rlb91ys800n5npymflf80000gn/T//cc0CxbBx.s 			page 50


 711:lvgl/src/draw/lv_draw_mask.c ****     else xe = (((abs_y + 1) * 256) * p->xy_steep) >> 10;
 934              		.loc 1 711 28 discriminator 1 view .LVU308
 935 007a 42F39502 		sbfx	r2, r2, #2, #22
 936              	.LVL106:
 937              	.L65:
 714:lvgl/src/draw/lv_draw_mask.c ****     int32_t xef = xe & 0xFF;
 938              		.loc 1 714 5 is_stmt 1 view .LVU309
 714:lvgl/src/draw/lv_draw_mask.c ****     int32_t xef = xe & 0xFF;
 939              		.loc 1 714 13 is_stmt 0 view .LVU310
 940 007e 1612     		asrs	r6, r2, #8
 941              	.LVL107:
 715:lvgl/src/draw/lv_draw_mask.c **** 
 942              		.loc 1 715 5 is_stmt 1 view .LVU311
 717:lvgl/src/draw/lv_draw_mask.c ****     if(xef == 0) px_h = 255;
 943              		.loc 1 717 5 view .LVU312
 718:lvgl/src/draw/lv_draw_mask.c ****     else px_h = 255 - (((255 - xef) * p->spx) >> 8);
 944              		.loc 1 718 5 view .LVU313
 718:lvgl/src/draw/lv_draw_mask.c ****     else px_h = 255 - (((255 - xef) * p->spx) >> 8);
 945              		.loc 1 718 7 is_stmt 0 view .LVU314
 946 0080 12F0FF02 		ands	r2, r2, #255
 947              	.LVL108:
 718:lvgl/src/draw/lv_draw_mask.c ****     else px_h = 255 - (((255 - xef) * p->spx) >> 8);
 948              		.loc 1 718 7 view .LVU315
 949 0084 35D0     		beq	.L84
 719:lvgl/src/draw/lv_draw_mask.c ****     int32_t k = xei - abs_x;
 950              		.loc 1 719 10 is_stmt 1 view .LVU316
 719:lvgl/src/draw/lv_draw_mask.c ****     int32_t k = xei - abs_x;
 951              		.loc 1 719 30 is_stmt 0 view .LVU317
 952 0086 C2F1FF0C 		rsb	ip, r2, #255
 953              	.LVL109:
 719:lvgl/src/draw/lv_draw_mask.c ****     int32_t k = xei - abs_x;
 954              		.loc 1 719 40 view .LVU318
 955 008a 606A     		ldr	r0, [r4, #36]
 719:lvgl/src/draw/lv_draw_mask.c ****     int32_t k = xei - abs_x;
 956              		.loc 1 719 37 view .LVU319
 957 008c 00FB0CFC 		mul	ip, r0, ip
 719:lvgl/src/draw/lv_draw_mask.c ****     int32_t k = xei - abs_x;
 958              		.loc 1 719 47 view .LVU320
 959 0090 4FEA2C2C 		asr	ip, ip, #8
 719:lvgl/src/draw/lv_draw_mask.c ****     int32_t k = xei - abs_x;
 960              		.loc 1 719 15 view .LVU321
 961 0094 CCF1FF0C 		rsb	ip, ip, #255
 962              	.LVL110:
 963              	.L66:
 720:lvgl/src/draw/lv_draw_mask.c ****     lv_opa_t m;
 964              		.loc 1 720 5 is_stmt 1 view .LVU322
 720:lvgl/src/draw/lv_draw_mask.c ****     lv_opa_t m;
 965              		.loc 1 720 13 is_stmt 0 view .LVU323
 966 0098 711A     		subs	r1, r6, r1
 967              	.LVL111:
 721:lvgl/src/draw/lv_draw_mask.c **** 
 968              		.loc 1 721 5 is_stmt 1 view .LVU324
 723:lvgl/src/draw/lv_draw_mask.c ****         if(k >= 0 && k < len) {
 969              		.loc 1 723 5 view .LVU325
 723:lvgl/src/draw/lv_draw_mask.c ****         if(k >= 0 && k < len) {
 970              		.loc 1 723 7 is_stmt 0 view .LVU326
 971 009a 002A     		cmp	r2, #0
ARM GAS  /var/folders/21/t9g5rlb91ys800n5npymflf80000gn/T//cc0CxbBx.s 			page 51


 972 009c 5FD0     		beq	.L85
 724:lvgl/src/draw/lv_draw_mask.c ****             m = 255 - (((255 - xef) * (255 - px_h)) >> 9);
 973              		.loc 1 724 9 is_stmt 1 view .LVU327
 724:lvgl/src/draw/lv_draw_mask.c ****             m = 255 - (((255 - xef) * (255 - px_h)) >> 9);
 974              		.loc 1 724 11 is_stmt 0 view .LVU328
 975 009e 0029     		cmp	r1, #0
 976 00a0 1FDB     		blt	.L68
 724:lvgl/src/draw/lv_draw_mask.c ****             m = 255 - (((255 - xef) * (255 - px_h)) >> 9);
 977              		.loc 1 724 19 discriminator 1 view .LVU329
 978 00a2 8B42     		cmp	r3, r1
 979 00a4 1DDD     		ble	.L68
 725:lvgl/src/draw/lv_draw_mask.c ****             if(p->inv) m = 255 - m;
 980              		.loc 1 725 13 is_stmt 1 view .LVU330
 725:lvgl/src/draw/lv_draw_mask.c ****             if(p->inv) m = 255 - m;
 981              		.loc 1 725 30 is_stmt 0 view .LVU331
 982 00a6 C2F1FF02 		rsb	r2, r2, #255
 725:lvgl/src/draw/lv_draw_mask.c ****             if(p->inv) m = 255 - m;
 983              		.loc 1 725 44 view .LVU332
 984 00aa CCF1FF00 		rsb	r0, ip, #255
 725:lvgl/src/draw/lv_draw_mask.c ****             if(p->inv) m = 255 - m;
 985              		.loc 1 725 37 view .LVU333
 986 00ae 00FB02F2 		mul	r2, r0, r2
 725:lvgl/src/draw/lv_draw_mask.c ****             if(p->inv) m = 255 - m;
 987              		.loc 1 725 21 view .LVU334
 988 00b2 C2F34722 		ubfx	r2, r2, #9, #8
 725:lvgl/src/draw/lv_draw_mask.c ****             if(p->inv) m = 255 - m;
 989              		.loc 1 725 15 view .LVU335
 990 00b6 D043     		mvns	r0, r2
 991 00b8 C0B2     		uxtb	r0, r0
 992              	.LVL112:
 726:lvgl/src/draw/lv_draw_mask.c ****             mask_buf[k] = mask_mix(mask_buf[k], m);
 993              		.loc 1 726 13 is_stmt 1 view .LVU336
 726:lvgl/src/draw/lv_draw_mask.c ****             mask_buf[k] = mask_mix(mask_buf[k], m);
 994              		.loc 1 726 16 is_stmt 0 view .LVU337
 995 00ba 94F82860 		ldrb	r6, [r4, #40]	@ zero_extendqisi2
 996              	.LVL113:
 726:lvgl/src/draw/lv_draw_mask.c ****             mask_buf[k] = mask_mix(mask_buf[k], m);
 997              		.loc 1 726 15 view .LVU338
 998 00be 16F0020F 		tst	r6, #2
 999 00c2 00D1     		bne	.L69
 725:lvgl/src/draw/lv_draw_mask.c ****             if(p->inv) m = 255 - m;
 1000              		.loc 1 725 15 view .LVU339
 1001 00c4 0246     		mov	r2, r0
 1002              	.L69:
 1003              	.LVL114:
 727:lvgl/src/draw/lv_draw_mask.c ****         }
 1004              		.loc 1 727 13 is_stmt 1 view .LVU340
 727:lvgl/src/draw/lv_draw_mask.c ****         }
 1005              		.loc 1 727 27 is_stmt 0 view .LVU341
 1006 00c6 685C     		ldrb	r0, [r5, r1]	@ zero_extendqisi2
 1007              	.LVL115:
 1008              	.LBB94:
 1009              	.LBI94:
1518:lvgl/src/draw/lv_draw_mask.c **** {
 1010              		.loc 1 1518 46 is_stmt 1 view .LVU342
 1011              	.LBB95:
1520:lvgl/src/draw/lv_draw_mask.c ****     if(mask_new <= LV_OPA_MIN) return 0;
ARM GAS  /var/folders/21/t9g5rlb91ys800n5npymflf80000gn/T//cc0CxbBx.s 			page 52


 1012              		.loc 1 1520 5 view .LVU343
1520:lvgl/src/draw/lv_draw_mask.c ****     if(mask_new <= LV_OPA_MIN) return 0;
 1013              		.loc 1 1520 7 is_stmt 0 view .LVU344
 1014 00c8 FC2A     		cmp	r2, #252
 1015 00ca 09D8     		bhi	.L70
1521:lvgl/src/draw/lv_draw_mask.c **** 
 1016              		.loc 1 1521 5 is_stmt 1 view .LVU345
1521:lvgl/src/draw/lv_draw_mask.c **** 
 1017              		.loc 1 1521 7 is_stmt 0 view .LVU346
 1018 00cc 022A     		cmp	r2, #2
 1019 00ce 13D9     		bls	.L86
 1020              		.loc 1 1523 5 is_stmt 1 view .LVU347
 1021              		.loc 1 1523 12 is_stmt 0 view .LVU348
 1022 00d0 00FB02F2 		mul	r2, r0, r2
 1023              	.LVL116:
 1024              		.loc 1 1523 12 view .LVU349
 1025 00d4 02EB0220 		add	r0, r2, r2, lsl #8
 1026              	.LVL117:
 1027              		.loc 1 1523 12 view .LVU350
 1028 00d8 02EBC012 		add	r2, r2, r0, lsl #7
 1029 00dc C2F3C750 		ubfx	r0, r2, #23, #8
 1030              	.L70:
 1031              	.LVL118:
 1032              		.loc 1 1523 12 view .LVU351
 1033              	.LBE95:
 1034              	.LBE94:
 727:lvgl/src/draw/lv_draw_mask.c ****         }
 1035              		.loc 1 727 25 view .LVU352
 1036 00e0 6854     		strb	r0, [r5, r1]
 1037              	.LVL119:
 1038              	.L68:
 729:lvgl/src/draw/lv_draw_mask.c ****     }
 1039              		.loc 1 729 9 is_stmt 1 view .LVU353
 729:lvgl/src/draw/lv_draw_mask.c ****     }
 1040              		.loc 1 729 10 is_stmt 0 view .LVU354
 1041 00e2 4A1C     		adds	r2, r1, #1
 1042              	.LVL120:
 729:lvgl/src/draw/lv_draw_mask.c ****     }
 1043              		.loc 1 729 10 view .LVU355
 1044 00e4 12E0     		b	.L75
 1045              	.LVL121:
 1046              	.L64:
 712:lvgl/src/draw/lv_draw_mask.c **** 
 1047              		.loc 1 712 10 is_stmt 1 view .LVU356
 712:lvgl/src/draw/lv_draw_mask.c **** 
 1048              		.loc 1 712 39 is_stmt 0 view .LVU357
 1049 00e6 A069     		ldr	r0, [r4, #24]
 712:lvgl/src/draw/lv_draw_mask.c **** 
 1050              		.loc 1 712 36 view .LVU358
 1051 00e8 02FB0000 		mla	r0, r2, r0, r0
 712:lvgl/src/draw/lv_draw_mask.c **** 
 1052              		.loc 1 712 13 view .LVU359
 1053 00ec 40F39502 		sbfx	r2, r0, #2, #22
 1054              	.LVL122:
 712:lvgl/src/draw/lv_draw_mask.c **** 
 1055              		.loc 1 712 13 view .LVU360
 1056 00f0 C5E7     		b	.L65
ARM GAS  /var/folders/21/t9g5rlb91ys800n5npymflf80000gn/T//cc0CxbBx.s 			page 53


 1057              	.LVL123:
 1058              	.L84:
 718:lvgl/src/draw/lv_draw_mask.c ****     else px_h = 255 - (((255 - xef) * p->spx) >> 8);
 1059              		.loc 1 718 23 view .LVU361
 1060 00f2 4FF0FF0C 		mov	ip, #255
 1061              	.LVL124:
 718:lvgl/src/draw/lv_draw_mask.c ****     else px_h = 255 - (((255 - xef) * p->spx) >> 8);
 1062              		.loc 1 718 23 view .LVU362
 1063 00f6 CFE7     		b	.L66
 1064              	.LVL125:
 1065              	.L86:
 1066              	.LBB97:
 1067              	.LBB96:
1521:lvgl/src/draw/lv_draw_mask.c **** 
 1068              		.loc 1 1521 39 view .LVU363
 1069 00f8 0020     		movs	r0, #0
 1070              	.LVL126:
1521:lvgl/src/draw/lv_draw_mask.c **** 
 1071              		.loc 1 1521 39 view .LVU364
 1072 00fa F1E7     		b	.L70
 1073              	.LVL127:
 1074              	.L87:
1521:lvgl/src/draw/lv_draw_mask.c **** 
 1075              		.loc 1 1521 39 view .LVU365
 1076              	.LBE96:
 1077              	.LBE97:
 1078              	.LBB98:
 1079              	.LBB99:
 1080 00fc 0020     		movs	r0, #0
 1081              	.LVL128:
 1082              	.L73:
1521:lvgl/src/draw/lv_draw_mask.c **** 
 1083              		.loc 1 1521 39 view .LVU366
 1084              	.LBE99:
 1085              	.LBE98:
 736:lvgl/src/draw/lv_draw_mask.c ****         }
 1086              		.loc 1 736 25 view .LVU367
 1087 00fe 3070     		strb	r0, [r6]
 1088              	.LVL129:
 1089              	.L71:
 738:lvgl/src/draw/lv_draw_mask.c ****         k++;
 1090              		.loc 1 738 9 is_stmt 1 view .LVU368
 738:lvgl/src/draw/lv_draw_mask.c ****         k++;
 1091              		.loc 1 738 18 is_stmt 0 view .LVU369
 1092 0100 606A     		ldr	r0, [r4, #36]
 738:lvgl/src/draw/lv_draw_mask.c ****         k++;
 1093              		.loc 1 738 14 view .LVU370
 1094 0102 ACEB000C 		sub	ip, ip, r0
 1095              	.LVL130:
 739:lvgl/src/draw/lv_draw_mask.c ****         if(k >= len) break;
 1096              		.loc 1 739 9 is_stmt 1 view .LVU371
 739:lvgl/src/draw/lv_draw_mask.c ****         if(k >= len) break;
 1097              		.loc 1 739 10 is_stmt 0 view .LVU372
 1098 0106 0132     		adds	r2, r2, #1
 1099              	.LVL131:
 740:lvgl/src/draw/lv_draw_mask.c ****     }
 1100              		.loc 1 740 9 is_stmt 1 view .LVU373
ARM GAS  /var/folders/21/t9g5rlb91ys800n5npymflf80000gn/T//cc0CxbBx.s 			page 54


 740:lvgl/src/draw/lv_draw_mask.c ****     }
 1101              		.loc 1 740 11 is_stmt 0 view .LVU374
 1102 0108 9342     		cmp	r3, r2
 1103 010a 2ADD     		ble	.L74
 1104              	.L75:
 732:lvgl/src/draw/lv_draw_mask.c ****         if(k >= 0 && k < len) {
 1105              		.loc 1 732 16 is_stmt 1 view .LVU375
 732:lvgl/src/draw/lv_draw_mask.c ****         if(k >= 0 && k < len) {
 1106              		.loc 1 732 19 is_stmt 0 view .LVU376
 1107 010c 606A     		ldr	r0, [r4, #36]
 732:lvgl/src/draw/lv_draw_mask.c ****         if(k >= 0 && k < len) {
 1108              		.loc 1 732 16 view .LVU377
 1109 010e 6045     		cmp	r0, ip
 1110 0110 27DA     		bge	.L74
 733:lvgl/src/draw/lv_draw_mask.c ****             m = px_h - (p->spx >> 1);
 1111              		.loc 1 733 9 is_stmt 1 view .LVU378
 733:lvgl/src/draw/lv_draw_mask.c ****             m = px_h - (p->spx >> 1);
 1112              		.loc 1 733 11 is_stmt 0 view .LVU379
 1113 0112 002A     		cmp	r2, #0
 1114 0114 F4DB     		blt	.L71
 733:lvgl/src/draw/lv_draw_mask.c ****             m = px_h - (p->spx >> 1);
 1115              		.loc 1 733 19 discriminator 1 view .LVU380
 1116 0116 9342     		cmp	r3, r2
 1117 0118 F2DD     		ble	.L71
 734:lvgl/src/draw/lv_draw_mask.c ****             if(p->inv) m = 255 - m;
 1118              		.loc 1 734 13 is_stmt 1 view .LVU381
 734:lvgl/src/draw/lv_draw_mask.c ****             if(p->inv) m = 255 - m;
 1119              		.loc 1 734 22 is_stmt 0 view .LVU382
 1120 011a 5FFA8CFE 		uxtb	lr, ip
 1121 011e C0F34700 		ubfx	r0, r0, #1, #8
 734:lvgl/src/draw/lv_draw_mask.c ****             if(p->inv) m = 255 - m;
 1122              		.loc 1 734 15 view .LVU383
 1123 0122 AEEB000E 		sub	lr, lr, r0
 1124 0126 5FFA8EFE 		uxtb	lr, lr
 1125              	.LVL132:
 735:lvgl/src/draw/lv_draw_mask.c ****             mask_buf[k] = mask_mix(mask_buf[k], m);
 1126              		.loc 1 735 13 is_stmt 1 view .LVU384
 735:lvgl/src/draw/lv_draw_mask.c ****             mask_buf[k] = mask_mix(mask_buf[k], m);
 1127              		.loc 1 735 16 is_stmt 0 view .LVU385
 1128 012a 94F82800 		ldrb	r0, [r4, #40]	@ zero_extendqisi2
 735:lvgl/src/draw/lv_draw_mask.c ****             mask_buf[k] = mask_mix(mask_buf[k], m);
 1129              		.loc 1 735 15 view .LVU386
 1130 012e 10F0020F 		tst	r0, #2
 1131 0132 03D0     		beq	.L72
 735:lvgl/src/draw/lv_draw_mask.c ****             mask_buf[k] = mask_mix(mask_buf[k], m);
 1132              		.loc 1 735 24 is_stmt 1 discriminator 1 view .LVU387
 735:lvgl/src/draw/lv_draw_mask.c ****             mask_buf[k] = mask_mix(mask_buf[k], m);
 1133              		.loc 1 735 26 is_stmt 0 discriminator 1 view .LVU388
 1134 0134 6FEA0E0E 		mvn	lr, lr
 1135              	.LVL133:
 735:lvgl/src/draw/lv_draw_mask.c ****             mask_buf[k] = mask_mix(mask_buf[k], m);
 1136              		.loc 1 735 26 discriminator 1 view .LVU389
 1137 0138 5FFA8EFE 		uxtb	lr, lr
 1138              	.LVL134:
 1139              	.L72:
 736:lvgl/src/draw/lv_draw_mask.c ****         }
 1140              		.loc 1 736 13 is_stmt 1 view .LVU390
ARM GAS  /var/folders/21/t9g5rlb91ys800n5npymflf80000gn/T//cc0CxbBx.s 			page 55


 736:lvgl/src/draw/lv_draw_mask.c ****         }
 1141              		.loc 1 736 44 is_stmt 0 view .LVU391
 1142 013c AE18     		adds	r6, r5, r2
 736:lvgl/src/draw/lv_draw_mask.c ****         }
 1143              		.loc 1 736 27 view .LVU392
 1144 013e A85C     		ldrb	r0, [r5, r2]	@ zero_extendqisi2
 1145              	.LVL135:
 1146              	.LBB101:
 1147              	.LBI98:
1518:lvgl/src/draw/lv_draw_mask.c **** {
 1148              		.loc 1 1518 46 is_stmt 1 view .LVU393
 1149              	.LBB100:
1520:lvgl/src/draw/lv_draw_mask.c ****     if(mask_new <= LV_OPA_MIN) return 0;
 1150              		.loc 1 1520 5 view .LVU394
1520:lvgl/src/draw/lv_draw_mask.c ****     if(mask_new <= LV_OPA_MIN) return 0;
 1151              		.loc 1 1520 7 is_stmt 0 view .LVU395
 1152 0140 BEF1FC0F 		cmp	lr, #252
 1153 0144 DBD8     		bhi	.L73
1521:lvgl/src/draw/lv_draw_mask.c **** 
 1154              		.loc 1 1521 5 is_stmt 1 view .LVU396
1521:lvgl/src/draw/lv_draw_mask.c **** 
 1155              		.loc 1 1521 7 is_stmt 0 view .LVU397
 1156 0146 BEF1020F 		cmp	lr, #2
 1157 014a D7D9     		bls	.L87
 1158              		.loc 1 1523 5 is_stmt 1 view .LVU398
 1159              		.loc 1 1523 12 is_stmt 0 view .LVU399
 1160 014c 0EFB00F0 		mul	r0, lr, r0
 1161              	.LVL136:
 1162              		.loc 1 1523 12 view .LVU400
 1163 0150 00EB002E 		add	lr, r0, r0, lsl #8
 1164              	.LVL137:
 1165              		.loc 1 1523 12 view .LVU401
 1166 0154 00EBCE10 		add	r0, r0, lr, lsl #7
 1167 0158 C0F3C750 		ubfx	r0, r0, #23, #8
 1168 015c CFE7     		b	.L73
 1169              	.LVL138:
 1170              	.L85:
 1171              		.loc 1 1523 12 view .LVU402
 1172              	.LBE100:
 1173              	.LBE101:
 720:lvgl/src/draw/lv_draw_mask.c ****     lv_opa_t m;
 1174              		.loc 1 720 13 view .LVU403
 1175 015e 0A46     		mov	r2, r1
 1176 0160 D4E7     		b	.L75
 1177              	.LVL139:
 1178              	.L74:
 743:lvgl/src/draw/lv_draw_mask.c ****         int32_t x_inters = (px_h * p->xy_steep) >> 10;
 1179              		.loc 1 743 5 is_stmt 1 view .LVU404
 743:lvgl/src/draw/lv_draw_mask.c ****         int32_t x_inters = (px_h * p->xy_steep) >> 10;
 1180              		.loc 1 743 7 is_stmt 0 view .LVU405
 1181 0162 9342     		cmp	r3, r2
 1182 0164 26DD     		ble	.L77
 743:lvgl/src/draw/lv_draw_mask.c ****         int32_t x_inters = (px_h * p->xy_steep) >> 10;
 1183              		.loc 1 743 16 discriminator 1 view .LVU406
 1184 0166 002A     		cmp	r2, #0
 1185 0168 24DB     		blt	.L77
 1186              	.LBB102:
ARM GAS  /var/folders/21/t9g5rlb91ys800n5npymflf80000gn/T//cc0CxbBx.s 			page 56


 744:lvgl/src/draw/lv_draw_mask.c ****         m = (x_inters * px_h) >> 9;
 1187              		.loc 1 744 9 is_stmt 1 view .LVU407
 744:lvgl/src/draw/lv_draw_mask.c ****         m = (x_inters * px_h) >> 9;
 1188              		.loc 1 744 37 is_stmt 0 view .LVU408
 1189 016a A069     		ldr	r0, [r4, #24]
 744:lvgl/src/draw/lv_draw_mask.c ****         m = (x_inters * px_h) >> 9;
 1190              		.loc 1 744 34 view .LVU409
 1191 016c 0CFB00F0 		mul	r0, ip, r0
 744:lvgl/src/draw/lv_draw_mask.c ****         m = (x_inters * px_h) >> 9;
 1192              		.loc 1 744 17 view .LVU410
 1193 0170 8012     		asrs	r0, r0, #10
 1194              	.LVL140:
 745:lvgl/src/draw/lv_draw_mask.c ****         if(p->yx_steep < 0) m = 255 - m;
 1195              		.loc 1 745 9 is_stmt 1 view .LVU411
 745:lvgl/src/draw/lv_draw_mask.c ****         if(p->yx_steep < 0) m = 255 - m;
 1196              		.loc 1 745 23 is_stmt 0 view .LVU412
 1197 0172 00FB0CFC 		mul	ip, r0, ip
 1198              	.LVL141:
 745:lvgl/src/draw/lv_draw_mask.c ****         if(p->yx_steep < 0) m = 255 - m;
 1199              		.loc 1 745 11 view .LVU413
 1200 0176 CCF3472C 		ubfx	ip, ip, #9, #8
 1201              	.LVL142:
 746:lvgl/src/draw/lv_draw_mask.c ****         if(p->inv) m = 255 - m;
 1202              		.loc 1 746 9 is_stmt 1 view .LVU414
 746:lvgl/src/draw/lv_draw_mask.c ****         if(p->inv) m = 255 - m;
 1203              		.loc 1 746 13 is_stmt 0 view .LVU415
 1204 017a E069     		ldr	r0, [r4, #28]
 1205              	.LVL143:
 746:lvgl/src/draw/lv_draw_mask.c ****         if(p->inv) m = 255 - m;
 1206              		.loc 1 746 11 view .LVU416
 1207 017c 0028     		cmp	r0, #0
 1208 017e 24DB     		blt	.L93
 1209              	.L78:
 747:lvgl/src/draw/lv_draw_mask.c ****         mask_buf[k] = mask_mix(mask_buf[k], m);
 1210              		.loc 1 747 9 is_stmt 1 view .LVU417
 747:lvgl/src/draw/lv_draw_mask.c ****         mask_buf[k] = mask_mix(mask_buf[k], m);
 1211              		.loc 1 747 12 is_stmt 0 view .LVU418
 1212 0180 94F82800 		ldrb	r0, [r4, #40]	@ zero_extendqisi2
 747:lvgl/src/draw/lv_draw_mask.c ****         mask_buf[k] = mask_mix(mask_buf[k], m);
 1213              		.loc 1 747 11 view .LVU419
 1214 0184 10F0020F 		tst	r0, #2
 1215 0188 03D0     		beq	.L79
 747:lvgl/src/draw/lv_draw_mask.c ****         mask_buf[k] = mask_mix(mask_buf[k], m);
 1216              		.loc 1 747 20 is_stmt 1 discriminator 1 view .LVU420
 747:lvgl/src/draw/lv_draw_mask.c ****         mask_buf[k] = mask_mix(mask_buf[k], m);
 1217              		.loc 1 747 22 is_stmt 0 discriminator 1 view .LVU421
 1218 018a 6FEA0C0C 		mvn	ip, ip
 1219              	.LVL144:
 747:lvgl/src/draw/lv_draw_mask.c ****         mask_buf[k] = mask_mix(mask_buf[k], m);
 1220              		.loc 1 747 22 discriminator 1 view .LVU422
 1221 018e 5FFA8CFC 		uxtb	ip, ip
 1222              	.LVL145:
 1223              	.L79:
 748:lvgl/src/draw/lv_draw_mask.c ****     }
 1224              		.loc 1 748 9 is_stmt 1 view .LVU423
 748:lvgl/src/draw/lv_draw_mask.c ****     }
 1225              		.loc 1 748 40 is_stmt 0 view .LVU424
ARM GAS  /var/folders/21/t9g5rlb91ys800n5npymflf80000gn/T//cc0CxbBx.s 			page 57


 1226 0192 AE18     		adds	r6, r5, r2
 748:lvgl/src/draw/lv_draw_mask.c ****     }
 1227              		.loc 1 748 23 view .LVU425
 1228 0194 A85C     		ldrb	r0, [r5, r2]	@ zero_extendqisi2
 1229              	.LVL146:
 1230              	.LBB103:
 1231              	.LBI103:
1518:lvgl/src/draw/lv_draw_mask.c **** {
 1232              		.loc 1 1518 46 is_stmt 1 view .LVU426
 1233              	.LBB104:
1520:lvgl/src/draw/lv_draw_mask.c ****     if(mask_new <= LV_OPA_MIN) return 0;
 1234              		.loc 1 1520 5 view .LVU427
1520:lvgl/src/draw/lv_draw_mask.c ****     if(mask_new <= LV_OPA_MIN) return 0;
 1235              		.loc 1 1520 7 is_stmt 0 view .LVU428
 1236 0196 BCF1FC0F 		cmp	ip, #252
 1237 019a 0AD8     		bhi	.L80
1521:lvgl/src/draw/lv_draw_mask.c **** 
 1238              		.loc 1 1521 5 is_stmt 1 view .LVU429
1521:lvgl/src/draw/lv_draw_mask.c **** 
 1239              		.loc 1 1521 7 is_stmt 0 view .LVU430
 1240 019c BCF1020F 		cmp	ip, #2
 1241 01a0 18D9     		bls	.L88
 1242              		.loc 1 1523 5 is_stmt 1 view .LVU431
 1243              		.loc 1 1523 12 is_stmt 0 view .LVU432
 1244 01a2 0CFB00F0 		mul	r0, ip, r0
 1245              	.LVL147:
 1246              		.loc 1 1523 12 view .LVU433
 1247 01a6 00EB002C 		add	ip, r0, r0, lsl #8
 1248              	.LVL148:
 1249              		.loc 1 1523 12 view .LVU434
 1250 01aa 00EBCC10 		add	r0, r0, ip, lsl #7
 1251 01ae C0F3C750 		ubfx	r0, r0, #23, #8
 1252              	.L80:
 1253              	.LVL149:
 1254              		.loc 1 1523 12 view .LVU435
 1255              	.LBE104:
 1256              	.LBE103:
 748:lvgl/src/draw/lv_draw_mask.c ****     }
 1257              		.loc 1 748 21 view .LVU436
 1258 01b2 3070     		strb	r0, [r6]
 1259              	.LVL150:
 1260              	.L77:
 748:lvgl/src/draw/lv_draw_mask.c ****     }
 1261              		.loc 1 748 21 view .LVU437
 1262              	.LBE102:
 751:lvgl/src/draw/lv_draw_mask.c ****         k = xei - abs_x;
 1263              		.loc 1 751 5 is_stmt 1 view .LVU438
 751:lvgl/src/draw/lv_draw_mask.c ****         k = xei - abs_x;
 1264              		.loc 1 751 8 is_stmt 0 view .LVU439
 1265 01b4 94F82800 		ldrb	r0, [r4, #40]	@ zero_extendqisi2
 751:lvgl/src/draw/lv_draw_mask.c ****         k = xei - abs_x;
 1266              		.loc 1 751 7 view .LVU440
 1267 01b8 10F00200 		ands	r0, r0, #2
 1268 01bc 11D0     		beq	.L81
 752:lvgl/src/draw/lv_draw_mask.c ****         if(k > len) {
 1269              		.loc 1 752 9 is_stmt 1 view .LVU441
 1270              	.LVL151:
ARM GAS  /var/folders/21/t9g5rlb91ys800n5npymflf80000gn/T//cc0CxbBx.s 			page 58


 753:lvgl/src/draw/lv_draw_mask.c ****             return LV_DRAW_MASK_RES_TRANSP;
 1271              		.loc 1 753 9 view .LVU442
 753:lvgl/src/draw/lv_draw_mask.c ****             return LV_DRAW_MASK_RES_TRANSP;
 1272              		.loc 1 753 11 is_stmt 0 view .LVU443
 1273 01be 8B42     		cmp	r3, r1
 1274 01c0 20DB     		blt	.L89
 756:lvgl/src/draw/lv_draw_mask.c ****             lv_memset_00(&mask_buf[0], k);
 1275              		.loc 1 756 9 is_stmt 1 view .LVU444
 756:lvgl/src/draw/lv_draw_mask.c ****             lv_memset_00(&mask_buf[0], k);
 1276              		.loc 1 756 11 is_stmt 0 view .LVU445
 1277 01c2 0029     		cmp	r1, #0
 1278 01c4 08DA     		bge	.L94
 770:lvgl/src/draw/lv_draw_mask.c **** }
 1279              		.loc 1 770 12 view .LVU446
 1280 01c6 0220     		movs	r0, #2
 1281 01c8 2CE7     		b	.L61
 1282              	.LVL152:
 1283              	.L93:
 1284              	.LBB107:
 746:lvgl/src/draw/lv_draw_mask.c ****         if(p->inv) m = 255 - m;
 1285              		.loc 1 746 29 is_stmt 1 discriminator 1 view .LVU447
 746:lvgl/src/draw/lv_draw_mask.c ****         if(p->inv) m = 255 - m;
 1286              		.loc 1 746 31 is_stmt 0 discriminator 1 view .LVU448
 1287 01ca 6FEA0C0C 		mvn	ip, ip
 1288              	.LVL153:
 746:lvgl/src/draw/lv_draw_mask.c ****         if(p->inv) m = 255 - m;
 1289              		.loc 1 746 31 discriminator 1 view .LVU449
 1290 01ce 5FFA8CFC 		uxtb	ip, ip
 1291              	.LVL154:
 746:lvgl/src/draw/lv_draw_mask.c ****         if(p->inv) m = 255 - m;
 1292              		.loc 1 746 31 discriminator 1 view .LVU450
 1293 01d2 D5E7     		b	.L78
 1294              	.LVL155:
 1295              	.L88:
 1296              	.LBB106:
 1297              	.LBB105:
1521:lvgl/src/draw/lv_draw_mask.c **** 
 1298              		.loc 1 1521 39 view .LVU451
 1299 01d4 0020     		movs	r0, #0
 1300              	.LVL156:
1521:lvgl/src/draw/lv_draw_mask.c **** 
 1301              		.loc 1 1521 39 view .LVU452
 1302 01d6 ECE7     		b	.L80
 1303              	.LVL157:
 1304              	.L94:
1521:lvgl/src/draw/lv_draw_mask.c **** 
 1305              		.loc 1 1521 39 view .LVU453
 1306              	.LBE105:
 1307              	.LBE106:
 1308              	.LBE107:
 757:lvgl/src/draw/lv_draw_mask.c ****         }
 1309              		.loc 1 757 13 is_stmt 1 view .LVU454
 1310 01d8 2846     		mov	r0, r5
 1311 01da FFF7FEFF 		bl	lv_memset_00
 1312              	.LVL158:
 770:lvgl/src/draw/lv_draw_mask.c **** }
 1313              		.loc 1 770 12 is_stmt 0 view .LVU455
ARM GAS  /var/folders/21/t9g5rlb91ys800n5npymflf80000gn/T//cc0CxbBx.s 			page 59


 1314 01de 0220     		movs	r0, #2
 1315 01e0 20E7     		b	.L61
 1316              	.LVL159:
 1317              	.L81:
 761:lvgl/src/draw/lv_draw_mask.c ****         if(k < 0) {
 1318              		.loc 1 761 9 is_stmt 1 view .LVU456
 762:lvgl/src/draw/lv_draw_mask.c ****             return LV_DRAW_MASK_RES_TRANSP;
 1319              		.loc 1 762 9 view .LVU457
 762:lvgl/src/draw/lv_draw_mask.c ****             return LV_DRAW_MASK_RES_TRANSP;
 1320              		.loc 1 762 11 is_stmt 0 view .LVU458
 1321 01e2 0132     		adds	r2, r2, #1
 1322              	.LVL160:
 762:lvgl/src/draw/lv_draw_mask.c ****             return LV_DRAW_MASK_RES_TRANSP;
 1323              		.loc 1 762 11 view .LVU459
 1324 01e4 3FF51EAF 		bmi	.L61
 765:lvgl/src/draw/lv_draw_mask.c ****             lv_memset_00(&mask_buf[k], len - k);
 1325              		.loc 1 765 9 is_stmt 1 view .LVU460
 765:lvgl/src/draw/lv_draw_mask.c ****             lv_memset_00(&mask_buf[k], len - k);
 1326              		.loc 1 765 11 is_stmt 0 view .LVU461
 1327 01e8 9342     		cmp	r3, r2
 1328 01ea 01DA     		bge	.L95
 770:lvgl/src/draw/lv_draw_mask.c **** }
 1329              		.loc 1 770 12 view .LVU462
 1330 01ec 0220     		movs	r0, #2
 1331 01ee 19E7     		b	.L61
 1332              	.L95:
 766:lvgl/src/draw/lv_draw_mask.c ****         }
 1333              		.loc 1 766 13 is_stmt 1 view .LVU463
 1334 01f0 991A     		subs	r1, r3, r2
 1335 01f2 A818     		adds	r0, r5, r2
 1336 01f4 FFF7FEFF 		bl	lv_memset_00
 1337              	.LVL161:
 770:lvgl/src/draw/lv_draw_mask.c **** }
 1338              		.loc 1 770 12 is_stmt 0 view .LVU464
 1339 01f8 0220     		movs	r0, #2
 1340 01fa 13E7     		b	.L61
 1341              	.LVL162:
 1342              	.L82:
 695:lvgl/src/draw/lv_draw_mask.c ****             }
 1343              		.loc 1 695 24 view .LVU465
 1344 01fc 0120     		movs	r0, #1
 1345 01fe 11E7     		b	.L61
 1346              	.L83:
 705:lvgl/src/draw/lv_draw_mask.c ****             }
 1347              		.loc 1 705 24 view .LVU466
 1348 0200 0120     		movs	r0, #1
 1349 0202 0FE7     		b	.L61
 1350              	.LVL163:
 1351              	.L89:
 754:lvgl/src/draw/lv_draw_mask.c ****         }
 1352              		.loc 1 754 20 view .LVU467
 1353 0204 0020     		movs	r0, #0
 1354 0206 0DE7     		b	.L61
 1355              		.cfi_endproc
 1356              	.LFE73:
 1358              		.section	.text.line_mask_steep,"ax",%progbits
 1359              		.align	1
ARM GAS  /var/folders/21/t9g5rlb91ys800n5npymflf80000gn/T//cc0CxbBx.s 			page 60


 1360              		.syntax unified
 1361              		.thumb
 1362              		.thumb_func
 1364              	line_mask_steep:
 1365              	.LVL164:
 1366              	.LFB74:
 776:lvgl/src/draw/lv_draw_mask.c ****     int32_t k;
 1367              		.loc 1 776 1 is_stmt 1 view -0
 1368              		.cfi_startproc
 1369              		@ args = 4, pretend = 0, frame = 0
 1370              		@ frame_needed = 0, uses_anonymous_args = 0
 776:lvgl/src/draw/lv_draw_mask.c ****     int32_t k;
 1371              		.loc 1 776 1 is_stmt 0 view .LVU469
 1372 0000 F8B5     		push	{r3, r4, r5, r6, r7, lr}
 1373              	.LCFI5:
 1374              		.cfi_def_cfa_offset 24
 1375              		.cfi_offset 3, -24
 1376              		.cfi_offset 4, -20
 1377              		.cfi_offset 5, -16
 1378              		.cfi_offset 6, -12
 1379              		.cfi_offset 7, -8
 1380              		.cfi_offset 14, -4
 1381 0002 8446     		mov	ip, r0
 1382 0004 069C     		ldr	r4, [sp, #24]
 777:lvgl/src/draw/lv_draw_mask.c ****     int32_t x_at_y;
 1383              		.loc 1 777 5 is_stmt 1 view .LVU470
 778:lvgl/src/draw/lv_draw_mask.c ****     /*At the beginning of the mask if the limit line is greater than the mask's y.
 1384              		.loc 1 778 5 view .LVU471
 781:lvgl/src/draw/lv_draw_mask.c ****     if(p->xy_steep > 0) x_at_y++;
 1385              		.loc 1 781 5 view .LVU472
 781:lvgl/src/draw/lv_draw_mask.c ****     if(p->xy_steep > 0) x_at_y++;
 1386              		.loc 1 781 34 is_stmt 0 view .LVU473
 1387 0006 A069     		ldr	r0, [r4, #24]
 1388              	.LVL165:
 781:lvgl/src/draw/lv_draw_mask.c ****     if(p->xy_steep > 0) x_at_y++;
 1389              		.loc 1 781 14 view .LVU474
 1390 0008 02FB00F5 		mul	r5, r2, r0
 781:lvgl/src/draw/lv_draw_mask.c ****     if(p->xy_steep > 0) x_at_y++;
 1391              		.loc 1 781 12 view .LVU475
 1392 000c 4FEAA52E 		asr	lr, r5, #10
 1393              	.LVL166:
 782:lvgl/src/draw/lv_draw_mask.c ****     if(x_at_y < abs_x) {
 1394              		.loc 1 782 5 is_stmt 1 view .LVU476
 782:lvgl/src/draw/lv_draw_mask.c ****     if(x_at_y < abs_x) {
 1395              		.loc 1 782 7 is_stmt 0 view .LVU477
 1396 0010 0028     		cmp	r0, #0
 1397 0012 0ADD     		ble	.L124
 782:lvgl/src/draw/lv_draw_mask.c ****     if(x_at_y < abs_x) {
 1398              		.loc 1 782 25 is_stmt 1 discriminator 1 view .LVU478
 782:lvgl/src/draw/lv_draw_mask.c ****     if(x_at_y < abs_x) {
 1399              		.loc 1 782 31 is_stmt 0 discriminator 1 view .LVU479
 1400 0014 0EF10106 		add	r6, lr, #1
 1401              	.LVL167:
 1402              	.L97:
 783:lvgl/src/draw/lv_draw_mask.c ****         if(p->inv) {
 1403              		.loc 1 783 5 is_stmt 1 view .LVU480
 783:lvgl/src/draw/lv_draw_mask.c ****         if(p->inv) {
ARM GAS  /var/folders/21/t9g5rlb91ys800n5npymflf80000gn/T//cc0CxbBx.s 			page 61


 1404              		.loc 1 783 7 is_stmt 0 view .LVU481
 1405 0018 B142     		cmp	r1, r6
 1406 001a 08DD     		ble	.L98
 784:lvgl/src/draw/lv_draw_mask.c ****             return LV_DRAW_MASK_RES_FULL_COVER;
 1407              		.loc 1 784 9 is_stmt 1 view .LVU482
 784:lvgl/src/draw/lv_draw_mask.c ****             return LV_DRAW_MASK_RES_FULL_COVER;
 1408              		.loc 1 784 12 is_stmt 0 view .LVU483
 1409 001c 94F82800 		ldrb	r0, [r4, #40]	@ zero_extendqisi2
 784:lvgl/src/draw/lv_draw_mask.c ****             return LV_DRAW_MASK_RES_FULL_COVER;
 1410              		.loc 1 784 11 view .LVU484
 1411 0020 10F00200 		ands	r0, r0, #2
 1412 0024 00D0     		beq	.L99
 785:lvgl/src/draw/lv_draw_mask.c ****         }
 1413              		.loc 1 785 20 view .LVU485
 1414 0026 0120     		movs	r0, #1
 1415              	.LVL168:
 1416              	.L99:
 913:lvgl/src/draw/lv_draw_mask.c **** 
 1417              		.loc 1 913 1 view .LVU486
 1418 0028 F8BD     		pop	{r3, r4, r5, r6, r7, pc}
 1419              	.LVL169:
 1420              	.L124:
 781:lvgl/src/draw/lv_draw_mask.c ****     if(p->xy_steep > 0) x_at_y++;
 1421              		.loc 1 781 12 view .LVU487
 1422 002a 7646     		mov	r6, lr
 1423 002c F4E7     		b	.L97
 1424              	.LVL170:
 1425              	.L98:
 794:lvgl/src/draw/lv_draw_mask.c ****     if(x_at_y > abs_x + len) {
 1426              		.loc 1 794 5 is_stmt 1 view .LVU488
 795:lvgl/src/draw/lv_draw_mask.c ****         if(p->inv) {
 1427              		.loc 1 795 5 view .LVU489
 795:lvgl/src/draw/lv_draw_mask.c ****         if(p->inv) {
 1428              		.loc 1 795 23 is_stmt 0 view .LVU490
 1429 002e CE18     		adds	r6, r1, r3
 795:lvgl/src/draw/lv_draw_mask.c ****         if(p->inv) {
 1430              		.loc 1 795 7 view .LVU491
 1431 0030 7645     		cmp	r6, lr
 1432 0032 07DA     		bge	.L100
 796:lvgl/src/draw/lv_draw_mask.c ****             return LV_DRAW_MASK_RES_TRANSP;
 1433              		.loc 1 796 9 is_stmt 1 view .LVU492
 796:lvgl/src/draw/lv_draw_mask.c ****             return LV_DRAW_MASK_RES_TRANSP;
 1434              		.loc 1 796 12 is_stmt 0 view .LVU493
 1435 0034 94F82830 		ldrb	r3, [r4, #40]	@ zero_extendqisi2
 1436              	.LVL171:
 796:lvgl/src/draw/lv_draw_mask.c ****             return LV_DRAW_MASK_RES_TRANSP;
 1437              		.loc 1 796 11 view .LVU494
 1438 0038 13F0020F 		tst	r3, #2
 1439 003c 00F04D81 		beq	.L125
 797:lvgl/src/draw/lv_draw_mask.c ****         }
 1440              		.loc 1 797 20 view .LVU495
 1441 0040 0020     		movs	r0, #0
 1442 0042 F1E7     		b	.L99
 1443              	.LVL172:
 1444              	.L100:
 805:lvgl/src/draw/lv_draw_mask.c ****     int32_t xsi = xs >> 8;
 1445              		.loc 1 805 5 is_stmt 1 view .LVU496
ARM GAS  /var/folders/21/t9g5rlb91ys800n5npymflf80000gn/T//cc0CxbBx.s 			page 62


 806:lvgl/src/draw/lv_draw_mask.c ****     int32_t xsf = xs & 0xFF;
 1446              		.loc 1 806 5 view .LVU497
 806:lvgl/src/draw/lv_draw_mask.c ****     int32_t xsf = xs & 0xFF;
 1447              		.loc 1 806 13 is_stmt 0 view .LVU498
 1448 0044 45F38D2E 		sbfx	lr, r5, #10, #14
 1449              	.LVL173:
 807:lvgl/src/draw/lv_draw_mask.c **** 
 1450              		.loc 1 807 5 is_stmt 1 view .LVU499
 807:lvgl/src/draw/lv_draw_mask.c **** 
 1451              		.loc 1 807 13 is_stmt 0 view .LVU500
 1452 0048 C5F38705 		ubfx	r5, r5, #2, #8
 1453              	.LVL174:
 810:lvgl/src/draw/lv_draw_mask.c ****     int32_t xei = xe >> 8;
 1454              		.loc 1 810 5 is_stmt 1 view .LVU501
 810:lvgl/src/draw/lv_draw_mask.c ****     int32_t xei = xe >> 8;
 1455              		.loc 1 810 39 is_stmt 0 view .LVU502
 1456 004c 02FB0002 		mla	r2, r2, r0, r0
 1457              	.LVL175:
 811:lvgl/src/draw/lv_draw_mask.c ****     int32_t xef = xe & 0xFF;
 1458              		.loc 1 811 5 is_stmt 1 view .LVU503
 811:lvgl/src/draw/lv_draw_mask.c ****     int32_t xef = xe & 0xFF;
 1459              		.loc 1 811 13 is_stmt 0 view .LVU504
 1460 0050 42F38D27 		sbfx	r7, r2, #10, #14
 1461              	.LVL176:
 812:lvgl/src/draw/lv_draw_mask.c **** 
 1462              		.loc 1 812 5 is_stmt 1 view .LVU505
 812:lvgl/src/draw/lv_draw_mask.c **** 
 1463              		.loc 1 812 13 is_stmt 0 view .LVU506
 1464 0054 C2F38702 		ubfx	r2, r2, #2, #8
 1465              	.LVL177:
 814:lvgl/src/draw/lv_draw_mask.c **** 
 1466              		.loc 1 814 5 is_stmt 1 view .LVU507
 816:lvgl/src/draw/lv_draw_mask.c ****     if(xsi != xei && (p->xy_steep < 0 && xsf == 0)) {
 1467              		.loc 1 816 5 view .LVU508
 816:lvgl/src/draw/lv_draw_mask.c ****     if(xsi != xei && (p->xy_steep < 0 && xsf == 0)) {
 1468              		.loc 1 816 7 is_stmt 0 view .LVU509
 1469 0058 AEEB0106 		sub	r6, lr, r1
 1470              	.LVL178:
 817:lvgl/src/draw/lv_draw_mask.c ****         xsf = 0xFF;
 1471              		.loc 1 817 5 is_stmt 1 view .LVU510
 817:lvgl/src/draw/lv_draw_mask.c ****         xsf = 0xFF;
 1472              		.loc 1 817 7 is_stmt 0 view .LVU511
 1473 005c BE45     		cmp	lr, r7
 1474 005e 01D0     		beq	.L101
 817:lvgl/src/draw/lv_draw_mask.c ****         xsf = 0xFF;
 1475              		.loc 1 817 19 discriminator 1 view .LVU512
 1476 0060 0028     		cmp	r0, #0
 1477 0062 63DB     		blt	.L144
 1478              	.LVL179:
 1479              	.L101:
 823:lvgl/src/draw/lv_draw_mask.c ****         if(k >= 0 && k < len) {
 1480              		.loc 1 823 5 is_stmt 1 view .LVU513
 823:lvgl/src/draw/lv_draw_mask.c ****         if(k >= 0 && k < len) {
 1481              		.loc 1 823 7 is_stmt 0 view .LVU514
 1482 0064 BE45     		cmp	lr, r7
 1483 0066 67D0     		beq	.L145
 1484              	.LBB108:
ARM GAS  /var/folders/21/t9g5rlb91ys800n5npymflf80000gn/T//cc0CxbBx.s 			page 63


 847:lvgl/src/draw/lv_draw_mask.c ****         if(p->xy_steep < 0) {
 1485              		.loc 1 847 9 is_stmt 1 view .LVU515
 848:lvgl/src/draw/lv_draw_mask.c ****             y_inters = (xsf * (-p->yx_steep)) >> 10;
 1486              		.loc 1 848 9 view .LVU516
 848:lvgl/src/draw/lv_draw_mask.c ****             y_inters = (xsf * (-p->yx_steep)) >> 10;
 1487              		.loc 1 848 11 is_stmt 0 view .LVU517
 1488 0068 0028     		cmp	r0, #0
 1489 006a C0F2AB80 		blt	.L146
 1490              	.LBB109:
 881:lvgl/src/draw/lv_draw_mask.c ****             if(k >= 0 && k < len) {
 1491              		.loc 1 881 13 is_stmt 1 view .LVU518
 881:lvgl/src/draw/lv_draw_mask.c ****             if(k >= 0 && k < len) {
 1492              		.loc 1 881 30 is_stmt 0 view .LVU519
 1493 006e C5F1FF05 		rsb	r5, r5, #255
 1494              	.LVL180:
 881:lvgl/src/draw/lv_draw_mask.c ****             if(k >= 0 && k < len) {
 1495              		.loc 1 881 40 view .LVU520
 1496 0072 E269     		ldr	r2, [r4, #28]
 1497              	.LVL181:
 881:lvgl/src/draw/lv_draw_mask.c ****             if(k >= 0 && k < len) {
 1498              		.loc 1 881 37 view .LVU521
 1499 0074 05FB02F2 		mul	r2, r5, r2
 881:lvgl/src/draw/lv_draw_mask.c ****             if(k >= 0 && k < len) {
 1500              		.loc 1 881 22 view .LVU522
 1501 0078 9212     		asrs	r2, r2, #10
 1502              	.LVL182:
 882:lvgl/src/draw/lv_draw_mask.c ****                 m = 255 - ((y_inters * (255 - xsf)) >> 9);
 1503              		.loc 1 882 13 is_stmt 1 view .LVU523
 882:lvgl/src/draw/lv_draw_mask.c ****                 m = 255 - ((y_inters * (255 - xsf)) >> 9);
 1504              		.loc 1 882 15 is_stmt 0 view .LVU524
 1505 007a 002E     		cmp	r6, #0
 1506 007c 1FDB     		blt	.L116
 882:lvgl/src/draw/lv_draw_mask.c ****                 m = 255 - ((y_inters * (255 - xsf)) >> 9);
 1507              		.loc 1 882 23 discriminator 1 view .LVU525
 1508 007e B342     		cmp	r3, r6
 1509 0080 1DDD     		ble	.L116
 883:lvgl/src/draw/lv_draw_mask.c ****                 if(p->inv) m = 255 - m;
 1510              		.loc 1 883 17 is_stmt 1 view .LVU526
 883:lvgl/src/draw/lv_draw_mask.c ****                 if(p->inv) m = 255 - m;
 1511              		.loc 1 883 38 is_stmt 0 view .LVU527
 1512 0082 02FB05F5 		mul	r5, r2, r5
 883:lvgl/src/draw/lv_draw_mask.c ****                 if(p->inv) m = 255 - m;
 1513              		.loc 1 883 25 view .LVU528
 1514 0086 C5F34725 		ubfx	r5, r5, #9, #8
 883:lvgl/src/draw/lv_draw_mask.c ****                 if(p->inv) m = 255 - m;
 1515              		.loc 1 883 19 view .LVU529
 1516 008a E843     		mvns	r0, r5
 1517 008c C0B2     		uxtb	r0, r0
 1518              	.LVL183:
 884:lvgl/src/draw/lv_draw_mask.c ****                 mask_buf[k] = mask_mix(mask_buf[k], m);
 1519              		.loc 1 884 17 is_stmt 1 view .LVU530
 884:lvgl/src/draw/lv_draw_mask.c ****                 mask_buf[k] = mask_mix(mask_buf[k], m);
 1520              		.loc 1 884 20 is_stmt 0 view .LVU531
 1521 008e 94F82870 		ldrb	r7, [r4, #40]	@ zero_extendqisi2
 1522              	.LVL184:
 884:lvgl/src/draw/lv_draw_mask.c ****                 mask_buf[k] = mask_mix(mask_buf[k], m);
 1523              		.loc 1 884 19 view .LVU532
ARM GAS  /var/folders/21/t9g5rlb91ys800n5npymflf80000gn/T//cc0CxbBx.s 			page 64


 1524 0092 17F0020F 		tst	r7, #2
 1525 0096 00D1     		bne	.L117
 883:lvgl/src/draw/lv_draw_mask.c ****                 if(p->inv) m = 255 - m;
 1526              		.loc 1 883 19 view .LVU533
 1527 0098 0546     		mov	r5, r0
 1528              	.L117:
 1529              	.LVL185:
 885:lvgl/src/draw/lv_draw_mask.c ****             }
 1530              		.loc 1 885 17 is_stmt 1 view .LVU534
 885:lvgl/src/draw/lv_draw_mask.c ****             }
 1531              		.loc 1 885 48 is_stmt 0 view .LVU535
 1532 009a 0CEB0607 		add	r7, ip, r6
 885:lvgl/src/draw/lv_draw_mask.c ****             }
 1533              		.loc 1 885 31 view .LVU536
 1534 009e 1CF80600 		ldrb	r0, [ip, r6]	@ zero_extendqisi2
 1535              	.LVL186:
 1536              	.LBB110:
 1537              	.LBI110:
1518:lvgl/src/draw/lv_draw_mask.c **** {
 1538              		.loc 1 1518 46 is_stmt 1 view .LVU537
 1539              	.LBB111:
1520:lvgl/src/draw/lv_draw_mask.c ****     if(mask_new <= LV_OPA_MIN) return 0;
 1540              		.loc 1 1520 5 view .LVU538
1520:lvgl/src/draw/lv_draw_mask.c ****     if(mask_new <= LV_OPA_MIN) return 0;
 1541              		.loc 1 1520 7 is_stmt 0 view .LVU539
 1542 00a2 FC2D     		cmp	r5, #252
 1543 00a4 0AD8     		bhi	.L118
1521:lvgl/src/draw/lv_draw_mask.c **** 
 1544              		.loc 1 1521 5 is_stmt 1 view .LVU540
1521:lvgl/src/draw/lv_draw_mask.c **** 
 1545              		.loc 1 1521 7 is_stmt 0 view .LVU541
 1546 00a6 022D     		cmp	r5, #2
 1547 00a8 40F2FD80 		bls	.L137
 1548              		.loc 1 1523 5 is_stmt 1 view .LVU542
 1549              		.loc 1 1523 12 is_stmt 0 view .LVU543
 1550 00ac 05FB00F0 		mul	r0, r5, r0
 1551              	.LVL187:
 1552              		.loc 1 1523 12 view .LVU544
 1553 00b0 00EB0025 		add	r5, r0, r0, lsl #8
 1554              	.LVL188:
 1555              		.loc 1 1523 12 view .LVU545
 1556 00b4 00EBC510 		add	r0, r0, r5, lsl #7
 1557 00b8 C0F3C750 		ubfx	r0, r0, #23, #8
 1558              	.L118:
 1559              	.LVL189:
 1560              		.loc 1 1523 12 view .LVU546
 1561              	.LBE111:
 1562              	.LBE110:
 885:lvgl/src/draw/lv_draw_mask.c ****             }
 1563              		.loc 1 885 29 view .LVU547
 1564 00bc 3870     		strb	r0, [r7]
 1565              	.LVL190:
 1566              	.L116:
 888:lvgl/src/draw/lv_draw_mask.c **** 
 1567              		.loc 1 888 13 is_stmt 1 view .LVU548
 890:lvgl/src/draw/lv_draw_mask.c ****             if(k >= 0 && k < len) {
 1568              		.loc 1 890 13 view .LVU549
ARM GAS  /var/folders/21/t9g5rlb91ys800n5npymflf80000gn/T//cc0CxbBx.s 			page 65


 890:lvgl/src/draw/lv_draw_mask.c ****             if(k >= 0 && k < len) {
 1569              		.loc 1 890 38 is_stmt 0 view .LVU550
 1570 00be C2F1FF02 		rsb	r2, r2, #255
 1571              	.LVL191:
 890:lvgl/src/draw/lv_draw_mask.c ****             if(k >= 0 && k < len) {
 1572              		.loc 1 890 53 view .LVU551
 1573 00c2 A069     		ldr	r0, [r4, #24]
 890:lvgl/src/draw/lv_draw_mask.c ****             if(k >= 0 && k < len) {
 1574              		.loc 1 890 50 view .LVU552
 1575 00c4 02FB00F0 		mul	r0, r2, r0
 890:lvgl/src/draw/lv_draw_mask.c ****             if(k >= 0 && k < len) {
 1576              		.loc 1 890 21 view .LVU553
 1577 00c8 8012     		asrs	r0, r0, #10
 1578              	.LVL192:
 891:lvgl/src/draw/lv_draw_mask.c ****                 m = ((255 - y_inters) * x_inters) >> 9;
 1579              		.loc 1 891 13 is_stmt 1 view .LVU554
 891:lvgl/src/draw/lv_draw_mask.c ****                 m = ((255 - y_inters) * x_inters) >> 9;
 1580              		.loc 1 891 15 is_stmt 0 view .LVU555
 1581 00ca 751C     		adds	r5, r6, #1
 1582              	.LVL193:
 891:lvgl/src/draw/lv_draw_mask.c ****                 m = ((255 - y_inters) * x_inters) >> 9;
 1583              		.loc 1 891 15 view .LVU556
 1584 00cc 1DD4     		bmi	.L119
 891:lvgl/src/draw/lv_draw_mask.c ****                 m = ((255 - y_inters) * x_inters) >> 9;
 1585              		.loc 1 891 23 discriminator 1 view .LVU557
 1586 00ce AB42     		cmp	r3, r5
 1587 00d0 1BDD     		ble	.L119
 892:lvgl/src/draw/lv_draw_mask.c ****                 if(p->inv) m = 255 - m;
 1588              		.loc 1 892 17 is_stmt 1 view .LVU558
 892:lvgl/src/draw/lv_draw_mask.c ****                 if(p->inv) m = 255 - m;
 1589              		.loc 1 892 39 is_stmt 0 view .LVU559
 1590 00d2 00FB02F2 		mul	r2, r0, r2
 892:lvgl/src/draw/lv_draw_mask.c ****                 if(p->inv) m = 255 - m;
 1591              		.loc 1 892 19 view .LVU560
 1592 00d6 C2F34722 		ubfx	r2, r2, #9, #8
 1593              	.LVL194:
 893:lvgl/src/draw/lv_draw_mask.c ****                 mask_buf[k] = mask_mix(mask_buf[k], m);
 1594              		.loc 1 893 17 is_stmt 1 view .LVU561
 893:lvgl/src/draw/lv_draw_mask.c ****                 mask_buf[k] = mask_mix(mask_buf[k], m);
 1595              		.loc 1 893 20 is_stmt 0 view .LVU562
 1596 00da 94F82800 		ldrb	r0, [r4, #40]	@ zero_extendqisi2
 1597              	.LVL195:
 893:lvgl/src/draw/lv_draw_mask.c ****                 mask_buf[k] = mask_mix(mask_buf[k], m);
 1598              		.loc 1 893 19 view .LVU563
 1599 00de 10F0020F 		tst	r0, #2
 1600 00e2 01D0     		beq	.L120
 893:lvgl/src/draw/lv_draw_mask.c ****                 mask_buf[k] = mask_mix(mask_buf[k], m);
 1601              		.loc 1 893 28 is_stmt 1 discriminator 1 view .LVU564
 893:lvgl/src/draw/lv_draw_mask.c ****                 mask_buf[k] = mask_mix(mask_buf[k], m);
 1602              		.loc 1 893 30 is_stmt 0 discriminator 1 view .LVU565
 1603 00e4 D243     		mvns	r2, r2
 1604              	.LVL196:
 893:lvgl/src/draw/lv_draw_mask.c ****                 mask_buf[k] = mask_mix(mask_buf[k], m);
 1605              		.loc 1 893 30 discriminator 1 view .LVU566
 1606 00e6 D2B2     		uxtb	r2, r2
 1607              	.LVL197:
 1608              	.L120:
ARM GAS  /var/folders/21/t9g5rlb91ys800n5npymflf80000gn/T//cc0CxbBx.s 			page 66


 894:lvgl/src/draw/lv_draw_mask.c ****             }
 1609              		.loc 1 894 17 is_stmt 1 view .LVU567
 894:lvgl/src/draw/lv_draw_mask.c ****             }
 1610              		.loc 1 894 31 is_stmt 0 view .LVU568
 1611 00e8 1CF80500 		ldrb	r0, [ip, r5]	@ zero_extendqisi2
 1612              	.LVL198:
 1613              	.LBB113:
 1614              	.LBI113:
1518:lvgl/src/draw/lv_draw_mask.c **** {
 1615              		.loc 1 1518 46 is_stmt 1 view .LVU569
 1616              	.LBB114:
1520:lvgl/src/draw/lv_draw_mask.c ****     if(mask_new <= LV_OPA_MIN) return 0;
 1617              		.loc 1 1520 5 view .LVU570
1520:lvgl/src/draw/lv_draw_mask.c ****     if(mask_new <= LV_OPA_MIN) return 0;
 1618              		.loc 1 1520 7 is_stmt 0 view .LVU571
 1619 00ec FC2A     		cmp	r2, #252
 1620 00ee 0AD8     		bhi	.L121
1521:lvgl/src/draw/lv_draw_mask.c **** 
 1621              		.loc 1 1521 5 is_stmt 1 view .LVU572
1521:lvgl/src/draw/lv_draw_mask.c **** 
 1622              		.loc 1 1521 7 is_stmt 0 view .LVU573
 1623 00f0 022A     		cmp	r2, #2
 1624 00f2 40F2DA80 		bls	.L138
 1625              		.loc 1 1523 5 is_stmt 1 view .LVU574
 1626              		.loc 1 1523 12 is_stmt 0 view .LVU575
 1627 00f6 02FB00F0 		mul	r0, r2, r0
 1628              	.LVL199:
 1629              		.loc 1 1523 12 view .LVU576
 1630 00fa 00EB0022 		add	r2, r0, r0, lsl #8
 1631              	.LVL200:
 1632              		.loc 1 1523 12 view .LVU577
 1633 00fe 00EBC210 		add	r0, r0, r2, lsl #7
 1634 0102 C0F3C750 		ubfx	r0, r0, #23, #8
 1635              	.L121:
 1636              	.LVL201:
 1637              		.loc 1 1523 12 view .LVU578
 1638              	.LBE114:
 1639              	.LBE113:
 894:lvgl/src/draw/lv_draw_mask.c ****             }
 1640              		.loc 1 894 29 view .LVU579
 1641 0106 0CF80500 		strb	r0, [ip, r5]
 1642              	.LVL202:
 1643              	.L119:
 896:lvgl/src/draw/lv_draw_mask.c **** 
 1644              		.loc 1 896 13 is_stmt 1 view .LVU580
 896:lvgl/src/draw/lv_draw_mask.c **** 
 1645              		.loc 1 896 14 is_stmt 0 view .LVU581
 1646 010a 0236     		adds	r6, r6, #2
 1647              	.LVL203:
 898:lvgl/src/draw/lv_draw_mask.c ****                 k = xsi - abs_x;
 1648              		.loc 1 898 13 is_stmt 1 view .LVU582
 898:lvgl/src/draw/lv_draw_mask.c ****                 k = xsi - abs_x;
 1649              		.loc 1 898 16 is_stmt 0 view .LVU583
 1650 010c 94F82800 		ldrb	r0, [r4, #40]	@ zero_extendqisi2
 898:lvgl/src/draw/lv_draw_mask.c ****                 k = xsi - abs_x;
 1651              		.loc 1 898 15 view .LVU584
 1652 0110 10F00200 		ands	r0, r0, #2
ARM GAS  /var/folders/21/t9g5rlb91ys800n5npymflf80000gn/T//cc0CxbBx.s 			page 67


 1653 0114 00F0D080 		beq	.L122
 899:lvgl/src/draw/lv_draw_mask.c ****                 if(k > len)  return LV_DRAW_MASK_RES_TRANSP;
 1654              		.loc 1 899 17 is_stmt 1 view .LVU585
 899:lvgl/src/draw/lv_draw_mask.c ****                 if(k > len)  return LV_DRAW_MASK_RES_TRANSP;
 1655              		.loc 1 899 19 is_stmt 0 view .LVU586
 1656 0118 AEEB0101 		sub	r1, lr, r1
 1657              	.LVL204:
 900:lvgl/src/draw/lv_draw_mask.c ****                 if(k >= 0) lv_memset_00(&mask_buf[0],  k);
 1658              		.loc 1 900 17 is_stmt 1 view .LVU587
 900:lvgl/src/draw/lv_draw_mask.c ****                 if(k >= 0) lv_memset_00(&mask_buf[0],  k);
 1659              		.loc 1 900 19 is_stmt 0 view .LVU588
 1660 011c 8B42     		cmp	r3, r1
 1661 011e C0F2E480 		blt	.L139
 901:lvgl/src/draw/lv_draw_mask.c **** 
 1662              		.loc 1 901 17 is_stmt 1 view .LVU589
 901:lvgl/src/draw/lv_draw_mask.c **** 
 1663              		.loc 1 901 19 is_stmt 0 view .LVU590
 1664 0122 0029     		cmp	r1, #0
 1665 0124 80F2C380 		bge	.L147
 1666              	.LBE109:
 1667              	.LBE108:
 912:lvgl/src/draw/lv_draw_mask.c **** }
 1668              		.loc 1 912 12 view .LVU591
 1669 0128 0220     		movs	r0, #2
 1670 012a 7DE7     		b	.L99
 1671              	.LVL205:
 1672              	.L144:
 817:lvgl/src/draw/lv_draw_mask.c ****         xsf = 0xFF;
 1673              		.loc 1 817 39 discriminator 2 view .LVU592
 1674 012c 002D     		cmp	r5, #0
 1675 012e 99D1     		bne	.L101
 818:lvgl/src/draw/lv_draw_mask.c ****         xsi = xei;
 1676              		.loc 1 818 9 is_stmt 1 view .LVU593
 1677              	.LVL206:
 819:lvgl/src/draw/lv_draw_mask.c ****         k--;
 1678              		.loc 1 819 9 view .LVU594
 820:lvgl/src/draw/lv_draw_mask.c ****     }
 1679              		.loc 1 820 9 view .LVU595
 820:lvgl/src/draw/lv_draw_mask.c ****     }
 1680              		.loc 1 820 10 is_stmt 0 view .LVU596
 1681 0130 013E     		subs	r6, r6, #1
 1682              	.LVL207:
 819:lvgl/src/draw/lv_draw_mask.c ****         k--;
 1683              		.loc 1 819 13 view .LVU597
 1684 0132 BE46     		mov	lr, r7
 818:lvgl/src/draw/lv_draw_mask.c ****         xsi = xei;
 1685              		.loc 1 818 13 view .LVU598
 1686 0134 FF25     		movs	r5, #255
 1687 0136 95E7     		b	.L101
 1688              	.LVL208:
 1689              	.L145:
 824:lvgl/src/draw/lv_draw_mask.c ****             m = (xsf + xef) >> 1;
 1690              		.loc 1 824 9 is_stmt 1 view .LVU599
 824:lvgl/src/draw/lv_draw_mask.c ****             m = (xsf + xef) >> 1;
 1691              		.loc 1 824 11 is_stmt 0 view .LVU600
 1692 0138 002E     		cmp	r6, #0
 1693 013a 1CDB     		blt	.L103
ARM GAS  /var/folders/21/t9g5rlb91ys800n5npymflf80000gn/T//cc0CxbBx.s 			page 68


 824:lvgl/src/draw/lv_draw_mask.c ****             m = (xsf + xef) >> 1;
 1694              		.loc 1 824 19 discriminator 1 view .LVU601
 1695 013c B342     		cmp	r3, r6
 1696 013e 1ADD     		ble	.L103
 825:lvgl/src/draw/lv_draw_mask.c ****             if(p->inv) m = 255 - m;
 1697              		.loc 1 825 13 is_stmt 1 view .LVU602
 825:lvgl/src/draw/lv_draw_mask.c ****             if(p->inv) m = 255 - m;
 1698              		.loc 1 825 22 is_stmt 0 view .LVU603
 1699 0140 2A44     		add	r2, r2, r5
 1700              	.LVL209:
 825:lvgl/src/draw/lv_draw_mask.c ****             if(p->inv) m = 255 - m;
 1701              		.loc 1 825 15 view .LVU604
 1702 0142 C2F34702 		ubfx	r2, r2, #1, #8
 1703              	.LVL210:
 826:lvgl/src/draw/lv_draw_mask.c ****             mask_buf[k] = mask_mix(mask_buf[k], m);
 1704              		.loc 1 826 13 is_stmt 1 view .LVU605
 826:lvgl/src/draw/lv_draw_mask.c ****             mask_buf[k] = mask_mix(mask_buf[k], m);
 1705              		.loc 1 826 16 is_stmt 0 view .LVU606
 1706 0146 94F82800 		ldrb	r0, [r4, #40]	@ zero_extendqisi2
 826:lvgl/src/draw/lv_draw_mask.c ****             mask_buf[k] = mask_mix(mask_buf[k], m);
 1707              		.loc 1 826 15 view .LVU607
 1708 014a 10F0020F 		tst	r0, #2
 1709 014e 01D0     		beq	.L104
 826:lvgl/src/draw/lv_draw_mask.c ****             mask_buf[k] = mask_mix(mask_buf[k], m);
 1710              		.loc 1 826 24 is_stmt 1 discriminator 1 view .LVU608
 826:lvgl/src/draw/lv_draw_mask.c ****             mask_buf[k] = mask_mix(mask_buf[k], m);
 1711              		.loc 1 826 26 is_stmt 0 discriminator 1 view .LVU609
 1712 0150 D243     		mvns	r2, r2
 1713              	.LVL211:
 826:lvgl/src/draw/lv_draw_mask.c ****             mask_buf[k] = mask_mix(mask_buf[k], m);
 1714              		.loc 1 826 26 discriminator 1 view .LVU610
 1715 0152 D2B2     		uxtb	r2, r2
 1716              	.LVL212:
 1717              	.L104:
 827:lvgl/src/draw/lv_draw_mask.c ****         }
 1718              		.loc 1 827 13 is_stmt 1 view .LVU611
 827:lvgl/src/draw/lv_draw_mask.c ****         }
 1719              		.loc 1 827 44 is_stmt 0 view .LVU612
 1720 0154 0CEB0605 		add	r5, ip, r6
 1721              	.LVL213:
 827:lvgl/src/draw/lv_draw_mask.c ****         }
 1722              		.loc 1 827 27 view .LVU613
 1723 0158 1CF80600 		ldrb	r0, [ip, r6]	@ zero_extendqisi2
 1724              	.LVL214:
 1725              	.LBB135:
 1726              	.LBI135:
1518:lvgl/src/draw/lv_draw_mask.c **** {
 1727              		.loc 1 1518 46 is_stmt 1 view .LVU614
 1728              	.LBB136:
1520:lvgl/src/draw/lv_draw_mask.c ****     if(mask_new <= LV_OPA_MIN) return 0;
 1729              		.loc 1 1520 5 view .LVU615
1520:lvgl/src/draw/lv_draw_mask.c ****     if(mask_new <= LV_OPA_MIN) return 0;
 1730              		.loc 1 1520 7 is_stmt 0 view .LVU616
 1731 015c FC2A     		cmp	r2, #252
 1732 015e 09D8     		bhi	.L105
1521:lvgl/src/draw/lv_draw_mask.c **** 
 1733              		.loc 1 1521 5 is_stmt 1 view .LVU617
ARM GAS  /var/folders/21/t9g5rlb91ys800n5npymflf80000gn/T//cc0CxbBx.s 			page 69


1521:lvgl/src/draw/lv_draw_mask.c **** 
 1734              		.loc 1 1521 7 is_stmt 0 view .LVU618
 1735 0160 022A     		cmp	r2, #2
 1736 0162 17D9     		bls	.L126
 1737              		.loc 1 1523 5 is_stmt 1 view .LVU619
 1738              		.loc 1 1523 12 is_stmt 0 view .LVU620
 1739 0164 00FB02F2 		mul	r2, r0, r2
 1740              	.LVL215:
 1741              		.loc 1 1523 12 view .LVU621
 1742 0168 02EB0220 		add	r0, r2, r2, lsl #8
 1743              	.LVL216:
 1744              		.loc 1 1523 12 view .LVU622
 1745 016c 02EBC012 		add	r2, r2, r0, lsl #7
 1746 0170 C2F3C750 		ubfx	r0, r2, #23, #8
 1747              	.L105:
 1748              	.LVL217:
 1749              		.loc 1 1523 12 view .LVU623
 1750              	.LBE136:
 1751              	.LBE135:
 827:lvgl/src/draw/lv_draw_mask.c ****         }
 1752              		.loc 1 827 25 view .LVU624
 1753 0174 2870     		strb	r0, [r5]
 1754              	.LVL218:
 1755              	.L103:
 829:lvgl/src/draw/lv_draw_mask.c **** 
 1756              		.loc 1 829 9 is_stmt 1 view .LVU625
 829:lvgl/src/draw/lv_draw_mask.c **** 
 1757              		.loc 1 829 10 is_stmt 0 view .LVU626
 1758 0176 0136     		adds	r6, r6, #1
 1759              	.LVL219:
 831:lvgl/src/draw/lv_draw_mask.c ****             k = xsi - abs_x;
 1760              		.loc 1 831 9 is_stmt 1 view .LVU627
 831:lvgl/src/draw/lv_draw_mask.c ****             k = xsi - abs_x;
 1761              		.loc 1 831 12 is_stmt 0 view .LVU628
 1762 0178 94F82800 		ldrb	r0, [r4, #40]	@ zero_extendqisi2
 831:lvgl/src/draw/lv_draw_mask.c ****             k = xsi - abs_x;
 1763              		.loc 1 831 11 view .LVU629
 1764 017c 10F00200 		ands	r0, r0, #2
 1765 0180 0FD0     		beq	.L106
 832:lvgl/src/draw/lv_draw_mask.c ****             if(k >= len) {
 1766              		.loc 1 832 13 is_stmt 1 view .LVU630
 832:lvgl/src/draw/lv_draw_mask.c ****             if(k >= len) {
 1767              		.loc 1 832 15 is_stmt 0 view .LVU631
 1768 0182 AEEB0101 		sub	r1, lr, r1
 1769              	.LVL220:
 833:lvgl/src/draw/lv_draw_mask.c ****                 return LV_DRAW_MASK_RES_TRANSP;
 1770              		.loc 1 833 13 is_stmt 1 view .LVU632
 833:lvgl/src/draw/lv_draw_mask.c ****                 return LV_DRAW_MASK_RES_TRANSP;
 1771              		.loc 1 833 15 is_stmt 0 view .LVU633
 1772 0186 8B42     		cmp	r3, r1
 1773 0188 40F3A980 		ble	.L127
 836:lvgl/src/draw/lv_draw_mask.c **** 
 1774              		.loc 1 836 13 is_stmt 1 view .LVU634
 836:lvgl/src/draw/lv_draw_mask.c **** 
 1775              		.loc 1 836 15 is_stmt 0 view .LVU635
 1776 018c 0029     		cmp	r1, #0
 1777 018e 03DA     		bge	.L148
ARM GAS  /var/folders/21/t9g5rlb91ys800n5npymflf80000gn/T//cc0CxbBx.s 			page 70


 912:lvgl/src/draw/lv_draw_mask.c **** }
 1778              		.loc 1 912 12 view .LVU636
 1779 0190 0220     		movs	r0, #2
 1780 0192 49E7     		b	.L99
 1781              	.LVL221:
 1782              	.L126:
 1783              	.LBB138:
 1784              	.LBB137:
1521:lvgl/src/draw/lv_draw_mask.c **** 
 1785              		.loc 1 1521 39 view .LVU637
 1786 0194 0020     		movs	r0, #0
 1787              	.LVL222:
1521:lvgl/src/draw/lv_draw_mask.c **** 
 1788              		.loc 1 1521 39 view .LVU638
 1789 0196 EDE7     		b	.L105
 1790              	.LVL223:
 1791              	.L148:
1521:lvgl/src/draw/lv_draw_mask.c **** 
 1792              		.loc 1 1521 39 view .LVU639
 1793              	.LBE137:
 1794              	.LBE138:
 836:lvgl/src/draw/lv_draw_mask.c **** 
 1795              		.loc 1 836 24 is_stmt 1 discriminator 1 view .LVU640
 1796 0198 6046     		mov	r0, ip
 1797 019a FFF7FEFF 		bl	lv_memset_00
 1798              	.LVL224:
 912:lvgl/src/draw/lv_draw_mask.c **** }
 1799              		.loc 1 912 12 is_stmt 0 discriminator 1 view .LVU641
 1800 019e 0220     		movs	r0, #2
 1801 01a0 42E7     		b	.L99
 1802              	.LVL225:
 1803              	.L106:
 840:lvgl/src/draw/lv_draw_mask.c ****             if(k == 0) return LV_DRAW_MASK_RES_TRANSP;
 1804              		.loc 1 840 13 is_stmt 1 view .LVU642
 840:lvgl/src/draw/lv_draw_mask.c ****             if(k == 0) return LV_DRAW_MASK_RES_TRANSP;
 1805              		.loc 1 840 15 is_stmt 0 view .LVU643
 1806 01a2 B342     		cmp	r3, r6
 1807 01a4 00DA     		bge	.L107
 840:lvgl/src/draw/lv_draw_mask.c ****             if(k == 0) return LV_DRAW_MASK_RES_TRANSP;
 1808              		.loc 1 840 27 view .LVU644
 1809 01a6 1E46     		mov	r6, r3
 1810              	.LVL226:
 1811              	.L107:
 841:lvgl/src/draw/lv_draw_mask.c ****             else if(k > 0) lv_memset_00(&mask_buf[k],  len - k);
 1812              		.loc 1 841 13 is_stmt 1 view .LVU645
 841:lvgl/src/draw/lv_draw_mask.c ****             else if(k > 0) lv_memset_00(&mask_buf[k],  len - k);
 1813              		.loc 1 841 15 is_stmt 0 view .LVU646
 1814 01a8 002E     		cmp	r6, #0
 1815 01aa 3FF43DAF 		beq	.L99
 842:lvgl/src/draw/lv_draw_mask.c ****         }
 1816              		.loc 1 842 18 is_stmt 1 view .LVU647
 842:lvgl/src/draw/lv_draw_mask.c ****         }
 1817              		.loc 1 842 20 is_stmt 0 view .LVU648
 1818 01ae 002E     		cmp	r6, #0
 1819 01b0 01DC     		bgt	.L149
 912:lvgl/src/draw/lv_draw_mask.c **** }
 1820              		.loc 1 912 12 view .LVU649
ARM GAS  /var/folders/21/t9g5rlb91ys800n5npymflf80000gn/T//cc0CxbBx.s 			page 71


 1821 01b2 0220     		movs	r0, #2
 1822 01b4 38E7     		b	.L99
 1823              	.L149:
 842:lvgl/src/draw/lv_draw_mask.c ****         }
 1824              		.loc 1 842 28 is_stmt 1 discriminator 1 view .LVU650
 1825 01b6 991B     		subs	r1, r3, r6
 1826              	.LVL227:
 842:lvgl/src/draw/lv_draw_mask.c ****         }
 1827              		.loc 1 842 28 is_stmt 0 discriminator 1 view .LVU651
 1828 01b8 0CEB0600 		add	r0, ip, r6
 1829 01bc FFF7FEFF 		bl	lv_memset_00
 1830              	.LVL228:
 912:lvgl/src/draw/lv_draw_mask.c **** }
 1831              		.loc 1 912 12 discriminator 1 view .LVU652
 1832 01c0 0220     		movs	r0, #2
 1833 01c2 31E7     		b	.L99
 1834              	.LVL229:
 1835              	.L146:
 1836              	.LBB139:
 1837              	.LBB118:
 849:lvgl/src/draw/lv_draw_mask.c ****             if(k >= 0 && k < len) {
 1838              		.loc 1 849 13 is_stmt 1 view .LVU653
 849:lvgl/src/draw/lv_draw_mask.c ****             if(k >= 0 && k < len) {
 1839              		.loc 1 849 34 is_stmt 0 view .LVU654
 1840 01c4 E069     		ldr	r0, [r4, #28]
 849:lvgl/src/draw/lv_draw_mask.c ****             if(k >= 0 && k < len) {
 1841              		.loc 1 849 32 view .LVU655
 1842 01c6 4042     		rsbs	r0, r0, #0
 849:lvgl/src/draw/lv_draw_mask.c ****             if(k >= 0 && k < len) {
 1843              		.loc 1 849 29 view .LVU656
 1844 01c8 05FB00F0 		mul	r0, r5, r0
 849:lvgl/src/draw/lv_draw_mask.c ****             if(k >= 0 && k < len) {
 1845              		.loc 1 849 22 view .LVU657
 1846 01cc 8012     		asrs	r0, r0, #10
 1847              	.LVL230:
 850:lvgl/src/draw/lv_draw_mask.c ****                 m = (y_inters * xsf) >> 9;
 1848              		.loc 1 850 13 is_stmt 1 view .LVU658
 850:lvgl/src/draw/lv_draw_mask.c ****                 m = (y_inters * xsf) >> 9;
 1849              		.loc 1 850 15 is_stmt 0 view .LVU659
 1850 01ce 002E     		cmp	r6, #0
 1851 01d0 1DDB     		blt	.L109
 850:lvgl/src/draw/lv_draw_mask.c ****                 m = (y_inters * xsf) >> 9;
 1852              		.loc 1 850 23 discriminator 1 view .LVU660
 1853 01d2 B342     		cmp	r3, r6
 1854 01d4 1BDD     		ble	.L109
 851:lvgl/src/draw/lv_draw_mask.c ****                 if(p->inv) m = 255 - m;
 1855              		.loc 1 851 17 is_stmt 1 view .LVU661
 851:lvgl/src/draw/lv_draw_mask.c ****                 if(p->inv) m = 255 - m;
 1856              		.loc 1 851 31 is_stmt 0 view .LVU662
 1857 01d6 00FB05F5 		mul	r5, r0, r5
 1858              	.LVL231:
 851:lvgl/src/draw/lv_draw_mask.c ****                 if(p->inv) m = 255 - m;
 1859              		.loc 1 851 19 view .LVU663
 1860 01da C5F34725 		ubfx	r5, r5, #9, #8
 1861              	.LVL232:
 852:lvgl/src/draw/lv_draw_mask.c ****                 mask_buf[k] = mask_mix(mask_buf[k], m);
 1862              		.loc 1 852 17 is_stmt 1 view .LVU664
ARM GAS  /var/folders/21/t9g5rlb91ys800n5npymflf80000gn/T//cc0CxbBx.s 			page 72


 852:lvgl/src/draw/lv_draw_mask.c ****                 mask_buf[k] = mask_mix(mask_buf[k], m);
 1863              		.loc 1 852 20 is_stmt 0 view .LVU665
 1864 01de 94F82820 		ldrb	r2, [r4, #40]	@ zero_extendqisi2
 1865              	.LVL233:
 852:lvgl/src/draw/lv_draw_mask.c ****                 mask_buf[k] = mask_mix(mask_buf[k], m);
 1866              		.loc 1 852 19 view .LVU666
 1867 01e2 12F0020F 		tst	r2, #2
 1868 01e6 01D0     		beq	.L110
 852:lvgl/src/draw/lv_draw_mask.c ****                 mask_buf[k] = mask_mix(mask_buf[k], m);
 1869              		.loc 1 852 28 is_stmt 1 discriminator 1 view .LVU667
 852:lvgl/src/draw/lv_draw_mask.c ****                 mask_buf[k] = mask_mix(mask_buf[k], m);
 1870              		.loc 1 852 30 is_stmt 0 discriminator 1 view .LVU668
 1871 01e8 ED43     		mvns	r5, r5
 1872              	.LVL234:
 852:lvgl/src/draw/lv_draw_mask.c ****                 mask_buf[k] = mask_mix(mask_buf[k], m);
 1873              		.loc 1 852 30 discriminator 1 view .LVU669
 1874 01ea EDB2     		uxtb	r5, r5
 1875              	.LVL235:
 1876              	.L110:
 853:lvgl/src/draw/lv_draw_mask.c ****             }
 1877              		.loc 1 853 17 is_stmt 1 view .LVU670
 853:lvgl/src/draw/lv_draw_mask.c ****             }
 1878              		.loc 1 853 48 is_stmt 0 view .LVU671
 1879 01ec 0CEB0607 		add	r7, ip, r6
 1880              	.LVL236:
 853:lvgl/src/draw/lv_draw_mask.c ****             }
 1881              		.loc 1 853 31 view .LVU672
 1882 01f0 1CF80620 		ldrb	r2, [ip, r6]	@ zero_extendqisi2
 1883              	.LVL237:
 1884              	.LBB119:
 1885              	.LBI119:
1518:lvgl/src/draw/lv_draw_mask.c **** {
 1886              		.loc 1 1518 46 is_stmt 1 view .LVU673
 1887              	.LBB120:
1520:lvgl/src/draw/lv_draw_mask.c ****     if(mask_new <= LV_OPA_MIN) return 0;
 1888              		.loc 1 1520 5 view .LVU674
1520:lvgl/src/draw/lv_draw_mask.c ****     if(mask_new <= LV_OPA_MIN) return 0;
 1889              		.loc 1 1520 7 is_stmt 0 view .LVU675
 1890 01f4 FC2D     		cmp	r5, #252
 1891 01f6 09D8     		bhi	.L111
1521:lvgl/src/draw/lv_draw_mask.c **** 
 1892              		.loc 1 1521 5 is_stmt 1 view .LVU676
1521:lvgl/src/draw/lv_draw_mask.c **** 
 1893              		.loc 1 1521 7 is_stmt 0 view .LVU677
 1894 01f8 022D     		cmp	r5, #2
 1895 01fa 3ED9     		bls	.L131
 1896              		.loc 1 1523 5 is_stmt 1 view .LVU678
 1897              		.loc 1 1523 12 is_stmt 0 view .LVU679
 1898 01fc 05FB02F2 		mul	r2, r5, r2
 1899              	.LVL238:
 1900              		.loc 1 1523 12 view .LVU680
 1901 0200 02EB0225 		add	r5, r2, r2, lsl #8
 1902              	.LVL239:
 1903              		.loc 1 1523 12 view .LVU681
 1904 0204 02EBC512 		add	r2, r2, r5, lsl #7
 1905 0208 C2F3C752 		ubfx	r2, r2, #23, #8
 1906              	.L111:
ARM GAS  /var/folders/21/t9g5rlb91ys800n5npymflf80000gn/T//cc0CxbBx.s 			page 73


 1907              	.LVL240:
 1908              		.loc 1 1523 12 view .LVU682
 1909              	.LBE120:
 1910              	.LBE119:
 853:lvgl/src/draw/lv_draw_mask.c ****             }
 1911              		.loc 1 853 29 view .LVU683
 1912 020c 3A70     		strb	r2, [r7]
 1913              	.LVL241:
 1914              	.L109:
 855:lvgl/src/draw/lv_draw_mask.c **** 
 1915              		.loc 1 855 13 is_stmt 1 view .LVU684
 857:lvgl/src/draw/lv_draw_mask.c **** 
 1916              		.loc 1 857 13 view .LVU685
 857:lvgl/src/draw/lv_draw_mask.c **** 
 1917              		.loc 1 857 38 is_stmt 0 view .LVU686
 1918 020e C0F1FF00 		rsb	r0, r0, #255
 1919              	.LVL242:
 857:lvgl/src/draw/lv_draw_mask.c **** 
 1920              		.loc 1 857 55 view .LVU687
 1921 0212 A269     		ldr	r2, [r4, #24]
 857:lvgl/src/draw/lv_draw_mask.c **** 
 1922              		.loc 1 857 53 view .LVU688
 1923 0214 5242     		rsbs	r2, r2, #0
 857:lvgl/src/draw/lv_draw_mask.c **** 
 1924              		.loc 1 857 50 view .LVU689
 1925 0216 00FB02F2 		mul	r2, r0, r2
 857:lvgl/src/draw/lv_draw_mask.c **** 
 1926              		.loc 1 857 21 view .LVU690
 1927 021a 9212     		asrs	r2, r2, #10
 1928              	.LVL243:
 859:lvgl/src/draw/lv_draw_mask.c ****                 m = 255 - (((255 - y_inters) * x_inters) >> 9);
 1929              		.loc 1 859 13 is_stmt 1 view .LVU691
 859:lvgl/src/draw/lv_draw_mask.c ****                 m = 255 - (((255 - y_inters) * x_inters) >> 9);
 1930              		.loc 1 859 15 is_stmt 0 view .LVU692
 1931 021c 751E     		subs	r5, r6, #1
 1932              	.LVL244:
 859:lvgl/src/draw/lv_draw_mask.c ****                 m = 255 - (((255 - y_inters) * x_inters) >> 9);
 1933              		.loc 1 859 15 view .LVU693
 1934 021e 1DD4     		bmi	.L112
 859:lvgl/src/draw/lv_draw_mask.c ****                 m = 255 - (((255 - y_inters) * x_inters) >> 9);
 1935              		.loc 1 859 23 discriminator 1 view .LVU694
 1936 0220 AB42     		cmp	r3, r5
 1937 0222 1BDD     		ble	.L112
 860:lvgl/src/draw/lv_draw_mask.c ****                 if(p->inv) m = 255 - m;
 1938              		.loc 1 860 17 is_stmt 1 view .LVU695
 860:lvgl/src/draw/lv_draw_mask.c ****                 if(p->inv) m = 255 - m;
 1939              		.loc 1 860 46 is_stmt 0 view .LVU696
 1940 0224 02FB00F0 		mul	r0, r2, r0
 860:lvgl/src/draw/lv_draw_mask.c ****                 if(p->inv) m = 255 - m;
 1941              		.loc 1 860 25 view .LVU697
 1942 0228 C0F34720 		ubfx	r0, r0, #9, #8
 860:lvgl/src/draw/lv_draw_mask.c ****                 if(p->inv) m = 255 - m;
 1943              		.loc 1 860 19 view .LVU698
 1944 022c C243     		mvns	r2, r0
 1945              	.LVL245:
 860:lvgl/src/draw/lv_draw_mask.c ****                 if(p->inv) m = 255 - m;
 1946              		.loc 1 860 19 view .LVU699
ARM GAS  /var/folders/21/t9g5rlb91ys800n5npymflf80000gn/T//cc0CxbBx.s 			page 74


 1947 022e D2B2     		uxtb	r2, r2
 1948              	.LVL246:
 861:lvgl/src/draw/lv_draw_mask.c ****                 mask_buf[k] = mask_mix(mask_buf[k], m);
 1949              		.loc 1 861 17 is_stmt 1 view .LVU700
 861:lvgl/src/draw/lv_draw_mask.c ****                 mask_buf[k] = mask_mix(mask_buf[k], m);
 1950              		.loc 1 861 20 is_stmt 0 view .LVU701
 1951 0230 94F82870 		ldrb	r7, [r4, #40]	@ zero_extendqisi2
 861:lvgl/src/draw/lv_draw_mask.c ****                 mask_buf[k] = mask_mix(mask_buf[k], m);
 1952              		.loc 1 861 19 view .LVU702
 1953 0234 17F0020F 		tst	r7, #2
 1954 0238 00D1     		bne	.L113
 860:lvgl/src/draw/lv_draw_mask.c ****                 if(p->inv) m = 255 - m;
 1955              		.loc 1 860 19 view .LVU703
 1956 023a 1046     		mov	r0, r2
 1957              	.L113:
 1958              	.LVL247:
 862:lvgl/src/draw/lv_draw_mask.c ****             }
 1959              		.loc 1 862 17 is_stmt 1 view .LVU704
 862:lvgl/src/draw/lv_draw_mask.c ****             }
 1960              		.loc 1 862 31 is_stmt 0 view .LVU705
 1961 023c 1CF80520 		ldrb	r2, [ip, r5]	@ zero_extendqisi2
 1962              	.LVL248:
 1963              	.LBB122:
 1964              	.LBI122:
1518:lvgl/src/draw/lv_draw_mask.c **** {
 1965              		.loc 1 1518 46 is_stmt 1 view .LVU706
 1966              	.LBB123:
1520:lvgl/src/draw/lv_draw_mask.c ****     if(mask_new <= LV_OPA_MIN) return 0;
 1967              		.loc 1 1520 5 view .LVU707
1520:lvgl/src/draw/lv_draw_mask.c ****     if(mask_new <= LV_OPA_MIN) return 0;
 1968              		.loc 1 1520 7 is_stmt 0 view .LVU708
 1969 0240 FC28     		cmp	r0, #252
 1970 0242 09D8     		bhi	.L114
1521:lvgl/src/draw/lv_draw_mask.c **** 
 1971              		.loc 1 1521 5 is_stmt 1 view .LVU709
1521:lvgl/src/draw/lv_draw_mask.c **** 
 1972              		.loc 1 1521 7 is_stmt 0 view .LVU710
 1973 0244 0228     		cmp	r0, #2
 1974 0246 1AD9     		bls	.L132
 1975              		.loc 1 1523 5 is_stmt 1 view .LVU711
 1976              		.loc 1 1523 12 is_stmt 0 view .LVU712
 1977 0248 00FB02F2 		mul	r2, r0, r2
 1978              	.LVL249:
 1979              		.loc 1 1523 12 view .LVU713
 1980 024c 02EB0220 		add	r0, r2, r2, lsl #8
 1981              	.LVL250:
 1982              		.loc 1 1523 12 view .LVU714
 1983 0250 02EBC012 		add	r2, r2, r0, lsl #7
 1984 0254 C2F3C752 		ubfx	r2, r2, #23, #8
 1985              	.L114:
 1986              	.LVL251:
 1987              		.loc 1 1523 12 view .LVU715
 1988              	.LBE123:
 1989              	.LBE122:
 862:lvgl/src/draw/lv_draw_mask.c ****             }
 1990              		.loc 1 862 29 view .LVU716
 1991 0258 0CF80520 		strb	r2, [ip, r5]
ARM GAS  /var/folders/21/t9g5rlb91ys800n5npymflf80000gn/T//cc0CxbBx.s 			page 75


 1992              	.LVL252:
 1993              	.L112:
 865:lvgl/src/draw/lv_draw_mask.c **** 
 1994              		.loc 1 865 13 is_stmt 1 view .LVU717
 865:lvgl/src/draw/lv_draw_mask.c **** 
 1995              		.loc 1 865 15 is_stmt 0 view .LVU718
 1996 025c 0136     		adds	r6, r6, #1
 1997              	.LVL253:
 867:lvgl/src/draw/lv_draw_mask.c ****                 k = xsi - abs_x - 1;
 1998              		.loc 1 867 13 is_stmt 1 view .LVU719
 867:lvgl/src/draw/lv_draw_mask.c ****                 k = xsi - abs_x - 1;
 1999              		.loc 1 867 16 is_stmt 0 view .LVU720
 2000 025e 94F82820 		ldrb	r2, [r4, #40]	@ zero_extendqisi2
 867:lvgl/src/draw/lv_draw_mask.c ****                 k = xsi - abs_x - 1;
 2001              		.loc 1 867 15 view .LVU721
 2002 0262 12F0020F 		tst	r2, #2
 2003 0266 11D0     		beq	.L115
 868:lvgl/src/draw/lv_draw_mask.c **** 
 2004              		.loc 1 868 17 is_stmt 1 view .LVU722
 868:lvgl/src/draw/lv_draw_mask.c **** 
 2005              		.loc 1 868 25 is_stmt 0 view .LVU723
 2006 0268 AEEB0101 		sub	r1, lr, r1
 2007              	.LVL254:
 868:lvgl/src/draw/lv_draw_mask.c **** 
 2008              		.loc 1 868 19 view .LVU724
 2009 026c 0139     		subs	r1, r1, #1
 2010              	.LVL255:
 870:lvgl/src/draw/lv_draw_mask.c ****                 else if(k > 0) lv_memset_00(&mask_buf[0],  k);
 2011              		.loc 1 870 17 is_stmt 1 view .LVU725
 870:lvgl/src/draw/lv_draw_mask.c ****                 else if(k > 0) lv_memset_00(&mask_buf[0],  k);
 2012              		.loc 1 870 19 is_stmt 0 view .LVU726
 2013 026e 8B42     		cmp	r3, r1
 2014 0270 37DB     		blt	.L133
 871:lvgl/src/draw/lv_draw_mask.c **** 
 2015              		.loc 1 871 22 is_stmt 1 view .LVU727
 871:lvgl/src/draw/lv_draw_mask.c **** 
 2016              		.loc 1 871 24 is_stmt 0 view .LVU728
 2017 0272 0029     		cmp	r1, #0
 2018 0274 05DC     		bgt	.L150
 2019              	.LBE118:
 2020              	.LBE139:
 912:lvgl/src/draw/lv_draw_mask.c **** }
 2021              		.loc 1 912 12 view .LVU729
 2022 0276 0220     		movs	r0, #2
 2023 0278 D6E6     		b	.L99
 2024              	.LVL256:
 2025              	.L131:
 2026              	.LBB140:
 2027              	.LBB127:
 2028              	.LBB125:
 2029              	.LBB121:
1521:lvgl/src/draw/lv_draw_mask.c **** 
 2030              		.loc 1 1521 39 view .LVU730
 2031 027a 0022     		movs	r2, #0
 2032              	.LVL257:
1521:lvgl/src/draw/lv_draw_mask.c **** 
 2033              		.loc 1 1521 39 view .LVU731
ARM GAS  /var/folders/21/t9g5rlb91ys800n5npymflf80000gn/T//cc0CxbBx.s 			page 76


 2034 027c C6E7     		b	.L111
 2035              	.LVL258:
 2036              	.L132:
1521:lvgl/src/draw/lv_draw_mask.c **** 
 2037              		.loc 1 1521 39 view .LVU732
 2038              	.LBE121:
 2039              	.LBE125:
 2040              	.LBB126:
 2041              	.LBB124:
 2042 027e 0022     		movs	r2, #0
 2043              	.LVL259:
1521:lvgl/src/draw/lv_draw_mask.c **** 
 2044              		.loc 1 1521 39 view .LVU733
 2045 0280 EAE7     		b	.L114
 2046              	.LVL260:
 2047              	.L150:
1521:lvgl/src/draw/lv_draw_mask.c **** 
 2048              		.loc 1 1521 39 view .LVU734
 2049              	.LBE124:
 2050              	.LBE126:
 871:lvgl/src/draw/lv_draw_mask.c **** 
 2051              		.loc 1 871 32 is_stmt 1 discriminator 1 view .LVU735
 2052 0282 6046     		mov	r0, ip
 2053 0284 FFF7FEFF 		bl	lv_memset_00
 2054              	.LVL261:
 871:lvgl/src/draw/lv_draw_mask.c **** 
 2055              		.loc 1 871 32 is_stmt 0 discriminator 1 view .LVU736
 2056              	.LBE127:
 2057              	.LBE140:
 912:lvgl/src/draw/lv_draw_mask.c **** }
 2058              		.loc 1 912 12 discriminator 1 view .LVU737
 2059 0288 0220     		movs	r0, #2
 2060 028a CDE6     		b	.L99
 2061              	.LVL262:
 2062              	.L115:
 2063              	.LBB141:
 2064              	.LBB128:
 875:lvgl/src/draw/lv_draw_mask.c ****                 if(k >= 0) lv_memset_00(&mask_buf[k],  len - k);
 2065              		.loc 1 875 17 is_stmt 1 view .LVU738
 875:lvgl/src/draw/lv_draw_mask.c ****                 if(k >= 0) lv_memset_00(&mask_buf[k],  len - k);
 2066              		.loc 1 875 19 is_stmt 0 view .LVU739
 2067 028c B342     		cmp	r3, r6
 2068 028e 2ADB     		blt	.L135
 876:lvgl/src/draw/lv_draw_mask.c ****             }
 2069              		.loc 1 876 17 is_stmt 1 view .LVU740
 876:lvgl/src/draw/lv_draw_mask.c ****             }
 2070              		.loc 1 876 19 is_stmt 0 view .LVU741
 2071 0290 002E     		cmp	r6, #0
 2072 0292 01DA     		bge	.L151
 2073              	.LBE128:
 2074              	.LBE141:
 912:lvgl/src/draw/lv_draw_mask.c **** }
 2075              		.loc 1 912 12 view .LVU742
 2076 0294 0220     		movs	r0, #2
 2077 0296 C7E6     		b	.L99
 2078              	.L151:
 2079              	.LBB142:
ARM GAS  /var/folders/21/t9g5rlb91ys800n5npymflf80000gn/T//cc0CxbBx.s 			page 77


 2080              	.LBB129:
 876:lvgl/src/draw/lv_draw_mask.c ****             }
 2081              		.loc 1 876 28 is_stmt 1 discriminator 1 view .LVU743
 2082 0298 991B     		subs	r1, r3, r6
 2083              	.LVL263:
 876:lvgl/src/draw/lv_draw_mask.c ****             }
 2084              		.loc 1 876 28 is_stmt 0 discriminator 1 view .LVU744
 2085 029a 0CEB0600 		add	r0, ip, r6
 2086 029e FFF7FEFF 		bl	lv_memset_00
 2087              	.LVL264:
 876:lvgl/src/draw/lv_draw_mask.c ****             }
 2088              		.loc 1 876 28 discriminator 1 view .LVU745
 2089              	.LBE129:
 2090              	.LBE142:
 912:lvgl/src/draw/lv_draw_mask.c **** }
 2091              		.loc 1 912 12 discriminator 1 view .LVU746
 2092 02a2 0220     		movs	r0, #2
 2093 02a4 C0E6     		b	.L99
 2094              	.LVL265:
 2095              	.L137:
 2096              	.LBB143:
 2097              	.LBB130:
 2098              	.LBB116:
 2099              	.LBB112:
1521:lvgl/src/draw/lv_draw_mask.c **** 
 2100              		.loc 1 1521 39 view .LVU747
 2101 02a6 0020     		movs	r0, #0
 2102              	.LVL266:
1521:lvgl/src/draw/lv_draw_mask.c **** 
 2103              		.loc 1 1521 39 view .LVU748
 2104 02a8 08E7     		b	.L118
 2105              	.LVL267:
 2106              	.L138:
1521:lvgl/src/draw/lv_draw_mask.c **** 
 2107              		.loc 1 1521 39 view .LVU749
 2108              	.LBE112:
 2109              	.LBE116:
 2110              	.LBB117:
 2111              	.LBB115:
 2112 02aa 0020     		movs	r0, #0
 2113              	.LVL268:
1521:lvgl/src/draw/lv_draw_mask.c **** 
 2114              		.loc 1 1521 39 view .LVU750
 2115 02ac 2BE7     		b	.L121
 2116              	.LVL269:
 2117              	.L147:
1521:lvgl/src/draw/lv_draw_mask.c **** 
 2118              		.loc 1 1521 39 view .LVU751
 2119              	.LBE115:
 2120              	.LBE117:
 901:lvgl/src/draw/lv_draw_mask.c **** 
 2121              		.loc 1 901 28 is_stmt 1 discriminator 1 view .LVU752
 2122 02ae 6046     		mov	r0, ip
 2123 02b0 FFF7FEFF 		bl	lv_memset_00
 2124              	.LVL270:
 901:lvgl/src/draw/lv_draw_mask.c **** 
 2125              		.loc 1 901 28 is_stmt 0 discriminator 1 view .LVU753
ARM GAS  /var/folders/21/t9g5rlb91ys800n5npymflf80000gn/T//cc0CxbBx.s 			page 78


 2126              	.LBE130:
 2127              	.LBE143:
 912:lvgl/src/draw/lv_draw_mask.c **** }
 2128              		.loc 1 912 12 discriminator 1 view .LVU754
 2129 02b4 0220     		movs	r0, #2
 2130 02b6 B7E6     		b	.L99
 2131              	.LVL271:
 2132              	.L122:
 2133              	.LBB144:
 2134              	.LBB131:
 905:lvgl/src/draw/lv_draw_mask.c ****                 if(k == 0) return LV_DRAW_MASK_RES_TRANSP;
 2135              		.loc 1 905 17 is_stmt 1 view .LVU755
 905:lvgl/src/draw/lv_draw_mask.c ****                 if(k == 0) return LV_DRAW_MASK_RES_TRANSP;
 2136              		.loc 1 905 19 is_stmt 0 view .LVU756
 2137 02b8 B342     		cmp	r3, r6
 2138 02ba 00DA     		bge	.L123
 905:lvgl/src/draw/lv_draw_mask.c ****                 if(k == 0) return LV_DRAW_MASK_RES_TRANSP;
 2139              		.loc 1 905 31 view .LVU757
 2140 02bc 1E46     		mov	r6, r3
 2141              	.LVL272:
 2142              	.L123:
 906:lvgl/src/draw/lv_draw_mask.c ****                 else if(k > 0) lv_memset_00(&mask_buf[k],  len - k);
 2143              		.loc 1 906 17 is_stmt 1 view .LVU758
 906:lvgl/src/draw/lv_draw_mask.c ****                 else if(k > 0) lv_memset_00(&mask_buf[k],  len - k);
 2144              		.loc 1 906 19 is_stmt 0 view .LVU759
 2145 02be 002E     		cmp	r6, #0
 2146 02c0 3FF4B2AE 		beq	.L99
 907:lvgl/src/draw/lv_draw_mask.c ****             }
 2147              		.loc 1 907 22 is_stmt 1 view .LVU760
 907:lvgl/src/draw/lv_draw_mask.c ****             }
 2148              		.loc 1 907 24 is_stmt 0 view .LVU761
 2149 02c4 002E     		cmp	r6, #0
 2150 02c6 01DC     		bgt	.L152
 2151              	.LBE131:
 2152              	.LBE144:
 912:lvgl/src/draw/lv_draw_mask.c **** }
 2153              		.loc 1 912 12 view .LVU762
 2154 02c8 0220     		movs	r0, #2
 2155 02ca ADE6     		b	.L99
 2156              	.L152:
 2157              	.LBB145:
 2158              	.LBB132:
 907:lvgl/src/draw/lv_draw_mask.c ****             }
 2159              		.loc 1 907 32 is_stmt 1 discriminator 1 view .LVU763
 2160 02cc 991B     		subs	r1, r3, r6
 2161              	.LVL273:
 907:lvgl/src/draw/lv_draw_mask.c ****             }
 2162              		.loc 1 907 32 is_stmt 0 discriminator 1 view .LVU764
 2163 02ce 0CEB0600 		add	r0, ip, r6
 2164 02d2 FFF7FEFF 		bl	lv_memset_00
 2165              	.LVL274:
 907:lvgl/src/draw/lv_draw_mask.c ****             }
 2166              		.loc 1 907 32 discriminator 1 view .LVU765
 2167              	.LBE132:
 2168              	.LBE145:
 912:lvgl/src/draw/lv_draw_mask.c **** }
 2169              		.loc 1 912 12 discriminator 1 view .LVU766
ARM GAS  /var/folders/21/t9g5rlb91ys800n5npymflf80000gn/T//cc0CxbBx.s 			page 79


 2170 02d6 0220     		movs	r0, #2
 2171 02d8 A6E6     		b	.L99
 2172              	.LVL275:
 2173              	.L125:
 800:lvgl/src/draw/lv_draw_mask.c ****         }
 2174              		.loc 1 800 20 view .LVU767
 2175 02da 0120     		movs	r0, #1
 2176 02dc A4E6     		b	.L99
 2177              	.LVL276:
 2178              	.L127:
 834:lvgl/src/draw/lv_draw_mask.c ****             }
 2179              		.loc 1 834 24 view .LVU768
 2180 02de 0020     		movs	r0, #0
 2181 02e0 A2E6     		b	.L99
 2182              	.LVL277:
 2183              	.L133:
 912:lvgl/src/draw/lv_draw_mask.c **** }
 2184              		.loc 1 912 12 view .LVU769
 2185 02e2 0220     		movs	r0, #2
 2186 02e4 A0E6     		b	.L99
 2187              	.LVL278:
 2188              	.L135:
 2189              	.LBB146:
 2190              	.LBB133:
 875:lvgl/src/draw/lv_draw_mask.c ****                 if(k >= 0) lv_memset_00(&mask_buf[k],  len - k);
 2191              		.loc 1 875 36 view .LVU770
 2192 02e6 0120     		movs	r0, #1
 2193 02e8 9EE6     		b	.L99
 2194              	.LVL279:
 2195              	.L139:
 875:lvgl/src/draw/lv_draw_mask.c ****                 if(k >= 0) lv_memset_00(&mask_buf[k],  len - k);
 2196              		.loc 1 875 36 view .LVU771
 2197              	.LBE133:
 2198              	.LBB134:
 900:lvgl/src/draw/lv_draw_mask.c ****                 if(k >= 0) lv_memset_00(&mask_buf[0],  k);
 2199              		.loc 1 900 37 view .LVU772
 2200 02ea 0020     		movs	r0, #0
 2201 02ec 9CE6     		b	.L99
 2202              	.LBE134:
 2203              	.LBE146:
 2204              		.cfi_endproc
 2205              	.LFE74:
 2207              		.section	.text.lv_draw_mask_line,"ax",%progbits
 2208              		.align	1
 2209              		.syntax unified
 2210              		.thumb
 2211              		.thumb_func
 2213              	lv_draw_mask_line:
 2214              	.LVL280:
 2215              	.LFB72:
 600:lvgl/src/draw/lv_draw_mask.c ****     /*Make to points relative to the vertex*/
 2216              		.loc 1 600 1 is_stmt 1 view -0
 2217              		.cfi_startproc
 2218              		@ args = 4, pretend = 0, frame = 0
 2219              		@ frame_needed = 0, uses_anonymous_args = 0
 600:lvgl/src/draw/lv_draw_mask.c ****     /*Make to points relative to the vertex*/
 2220              		.loc 1 600 1 is_stmt 0 view .LVU774
ARM GAS  /var/folders/21/t9g5rlb91ys800n5npymflf80000gn/T//cc0CxbBx.s 			page 80


 2221 0000 30B5     		push	{r4, r5, lr}
 2222              	.LCFI6:
 2223              		.cfi_def_cfa_offset 12
 2224              		.cfi_offset 4, -12
 2225              		.cfi_offset 5, -8
 2226              		.cfi_offset 14, -4
 2227 0002 83B0     		sub	sp, sp, #12
 2228              	.LCFI7:
 2229              		.cfi_def_cfa_offset 24
 2230 0004 8446     		mov	ip, r0
 2231 0006 069C     		ldr	r4, [sp, #24]
 602:lvgl/src/draw/lv_draw_mask.c ****     abs_x -= p->origo.x;
 2232              		.loc 1 602 5 is_stmt 1 view .LVU775
 602:lvgl/src/draw/lv_draw_mask.c ****     abs_x -= p->origo.x;
 2233              		.loc 1 602 22 is_stmt 0 view .LVU776
 2234 0008 A08A     		ldrh	r0, [r4, #20]
 2235              	.LVL281:
 602:lvgl/src/draw/lv_draw_mask.c ****     abs_x -= p->origo.x;
 2236              		.loc 1 602 11 view .LVU777
 2237 000a 121A     		subs	r2, r2, r0
 2238              	.LVL282:
 602:lvgl/src/draw/lv_draw_mask.c ****     abs_x -= p->origo.x;
 2239              		.loc 1 602 11 view .LVU778
 2240 000c 12B2     		sxth	r2, r2
 2241              	.LVL283:
 603:lvgl/src/draw/lv_draw_mask.c **** 
 2242              		.loc 1 603 5 is_stmt 1 view .LVU779
 603:lvgl/src/draw/lv_draw_mask.c **** 
 2243              		.loc 1 603 22 is_stmt 0 view .LVU780
 2244 000e 608A     		ldrh	r0, [r4, #18]
 603:lvgl/src/draw/lv_draw_mask.c **** 
 2245              		.loc 1 603 11 view .LVU781
 2246 0010 091A     		subs	r1, r1, r0
 2247              	.LVL284:
 603:lvgl/src/draw/lv_draw_mask.c **** 
 2248              		.loc 1 603 11 view .LVU782
 2249 0012 09B2     		sxth	r1, r1
 2250              	.LVL285:
 606:lvgl/src/draw/lv_draw_mask.c ****         /*Horizontal*/
 2251              		.loc 1 606 5 is_stmt 1 view .LVU783
 606:lvgl/src/draw/lv_draw_mask.c ****         /*Horizontal*/
 2252              		.loc 1 606 9 is_stmt 0 view .LVU784
 2253 0014 256A     		ldr	r5, [r4, #32]
 606:lvgl/src/draw/lv_draw_mask.c ****         /*Horizontal*/
 2254              		.loc 1 606 7 view .LVU785
 2255 0016 002D     		cmp	r5, #0
 2256 0018 48D1     		bne	.L154
 608:lvgl/src/draw/lv_draw_mask.c ****             /*Non sense: Can't be on the right/left of a horizontal line*/
 2257              		.loc 1 608 9 is_stmt 1 view .LVU786
 608:lvgl/src/draw/lv_draw_mask.c ****             /*Non sense: Can't be on the right/left of a horizontal line*/
 2258              		.loc 1 608 12 is_stmt 0 view .LVU787
 2259 001a 94F82800 		ldrb	r0, [r4, #40]	@ zero_extendqisi2
 608:lvgl/src/draw/lv_draw_mask.c ****             /*Non sense: Can't be on the right/left of a horizontal line*/
 2260              		.loc 1 608 11 view .LVU788
 2261 001e 10F0010F 		tst	r0, #1
 2262 0022 14D0     		beq	.L155
 610:lvgl/src/draw/lv_draw_mask.c ****                p->cfg.side == LV_DRAW_MASK_LINE_SIDE_RIGHT) return LV_DRAW_MASK_RES_FULL_COVER;
ARM GAS  /var/folders/21/t9g5rlb91ys800n5npymflf80000gn/T//cc0CxbBx.s 			page 81


 2263              		.loc 1 610 13 is_stmt 1 view .LVU789
 610:lvgl/src/draw/lv_draw_mask.c ****                p->cfg.side == LV_DRAW_MASK_LINE_SIDE_RIGHT) return LV_DRAW_MASK_RES_FULL_COVER;
 2264              		.loc 1 610 28 is_stmt 0 view .LVU790
 2265 0024 237C     		ldrb	r3, [r4, #16]	@ zero_extendqisi2
 2266              	.LVL286:
 610:lvgl/src/draw/lv_draw_mask.c ****                p->cfg.side == LV_DRAW_MASK_LINE_SIDE_RIGHT) return LV_DRAW_MASK_RES_FULL_COVER;
 2267              		.loc 1 610 15 view .LVU791
 2268 0026 13F0020F 		tst	r3, #2
 2269 002a 4FD0     		beq	.L164
 612:lvgl/src/draw/lv_draw_mask.c ****             else if(p->cfg.side == LV_DRAW_MASK_LINE_SIDE_BOTTOM && abs_y > 0) return LV_DRAW_MASK_
 2270              		.loc 1 612 18 is_stmt 1 view .LVU792
 612:lvgl/src/draw/lv_draw_mask.c ****             else if(p->cfg.side == LV_DRAW_MASK_LINE_SIDE_BOTTOM && abs_y > 0) return LV_DRAW_MASK_
 2271              		.loc 1 612 33 is_stmt 0 view .LVU793
 2272 002c 03F00303 		and	r3, r3, #3
 612:lvgl/src/draw/lv_draw_mask.c ****             else if(p->cfg.side == LV_DRAW_MASK_LINE_SIDE_BOTTOM && abs_y > 0) return LV_DRAW_MASK_
 2273              		.loc 1 612 20 view .LVU794
 2274 0030 022B     		cmp	r3, #2
 2275 0032 05D0     		beq	.L173
 2276              	.L157:
 613:lvgl/src/draw/lv_draw_mask.c ****             else {
 2277              		.loc 1 613 18 is_stmt 1 view .LVU795
 613:lvgl/src/draw/lv_draw_mask.c ****             else {
 2278              		.loc 1 613 20 is_stmt 0 view .LVU796
 2279 0034 032B     		cmp	r3, #3
 2280 0036 4BD1     		bne	.L166
 613:lvgl/src/draw/lv_draw_mask.c ****             else {
 2281              		.loc 1 613 66 discriminator 1 view .LVU797
 2282 0038 002A     		cmp	r2, #0
 2283 003a 06DD     		ble	.L174
 613:lvgl/src/draw/lv_draw_mask.c ****             else {
 2284              		.loc 1 613 87 view .LVU798
 2285 003c 0120     		movs	r0, #1
 2286 003e 3EE0     		b	.L156
 2287              	.L173:
 612:lvgl/src/draw/lv_draw_mask.c ****             else if(p->cfg.side == LV_DRAW_MASK_LINE_SIDE_BOTTOM && abs_y > 0) return LV_DRAW_MASK_
 2288              		.loc 1 612 63 discriminator 1 view .LVU799
 2289 0040 B2F1FF3F 		cmp	r2, #-1
 2290 0044 F6DA     		bge	.L157
 612:lvgl/src/draw/lv_draw_mask.c ****             else if(p->cfg.side == LV_DRAW_MASK_LINE_SIDE_BOTTOM && abs_y > 0) return LV_DRAW_MASK_
 2291              		.loc 1 612 88 view .LVU800
 2292 0046 0120     		movs	r0, #1
 2293 0048 39E0     		b	.L156
 2294              	.L174:
 615:lvgl/src/draw/lv_draw_mask.c ****             }
 2295              		.loc 1 615 24 view .LVU801
 2296 004a 0020     		movs	r0, #0
 2297 004c 37E0     		b	.L156
 2298              	.LVL287:
 2299              	.L155:
 621:lvgl/src/draw/lv_draw_mask.c ****                p->cfg.side == LV_DRAW_MASK_LINE_SIDE_BOTTOM) return LV_DRAW_MASK_RES_FULL_COVER;
 2300              		.loc 1 621 13 is_stmt 1 view .LVU802
 621:lvgl/src/draw/lv_draw_mask.c ****                p->cfg.side == LV_DRAW_MASK_LINE_SIDE_BOTTOM) return LV_DRAW_MASK_RES_FULL_COVER;
 2301              		.loc 1 621 28 is_stmt 0 view .LVU803
 2302 004e 227C     		ldrb	r2, [r4, #16]	@ zero_extendqisi2
 2303              	.LVL288:
 621:lvgl/src/draw/lv_draw_mask.c ****                p->cfg.side == LV_DRAW_MASK_LINE_SIDE_BOTTOM) return LV_DRAW_MASK_RES_FULL_COVER;
 2304              		.loc 1 621 15 view .LVU804
ARM GAS  /var/folders/21/t9g5rlb91ys800n5npymflf80000gn/T//cc0CxbBx.s 			page 82


 2305 0050 12F00204 		ands	r4, r2, #2
 2306 0054 3ED1     		bne	.L168
 623:lvgl/src/draw/lv_draw_mask.c ****             else if(p->cfg.side == LV_DRAW_MASK_LINE_SIDE_LEFT) {
 2307              		.loc 1 623 18 is_stmt 1 view .LVU805
 623:lvgl/src/draw/lv_draw_mask.c ****             else if(p->cfg.side == LV_DRAW_MASK_LINE_SIDE_LEFT) {
 2308              		.loc 1 623 33 is_stmt 0 view .LVU806
 2309 0056 02F00300 		and	r0, r2, #3
 623:lvgl/src/draw/lv_draw_mask.c ****             else if(p->cfg.side == LV_DRAW_MASK_LINE_SIDE_LEFT) {
 2310              		.loc 1 623 20 view .LVU807
 2311 005a 0128     		cmp	r0, #1
 2312 005c 09D0     		beq	.L175
 2313              	.L158:
 624:lvgl/src/draw/lv_draw_mask.c ****                 if(abs_x + len < 0) return LV_DRAW_MASK_RES_FULL_COVER;
 2314              		.loc 1 624 18 is_stmt 1 view .LVU808
 624:lvgl/src/draw/lv_draw_mask.c ****                 if(abs_x + len < 0) return LV_DRAW_MASK_RES_FULL_COVER;
 2315              		.loc 1 624 20 is_stmt 0 view .LVU809
 2316 005e 88B9     		cbnz	r0, .L159
 625:lvgl/src/draw/lv_draw_mask.c ****                 else {
 2317              		.loc 1 625 17 is_stmt 1 view .LVU810
 625:lvgl/src/draw/lv_draw_mask.c ****                 else {
 2318              		.loc 1 625 19 is_stmt 0 view .LVU811
 2319 0060 CA18     		adds	r2, r1, r3
 2320 0062 39D4     		bmi	.L169
 2321              	.LBB147:
 627:lvgl/src/draw/lv_draw_mask.c ****                     if(k < 0) return LV_DRAW_MASK_RES_TRANSP;
 2322              		.loc 1 627 21 is_stmt 1 view .LVU812
 627:lvgl/src/draw/lv_draw_mask.c ****                     if(k < 0) return LV_DRAW_MASK_RES_TRANSP;
 2323              		.loc 1 627 29 is_stmt 0 view .LVU813
 2324 0064 4C42     		rsbs	r4, r1, #0
 2325              	.LVL289:
 628:lvgl/src/draw/lv_draw_mask.c ****                     if(k >= 0 && k < len) lv_memset_00(&mask_buf[k], len - k);
 2326              		.loc 1 628 21 is_stmt 1 view .LVU814
 628:lvgl/src/draw/lv_draw_mask.c ****                     if(k >= 0 && k < len) lv_memset_00(&mask_buf[k], len - k);
 2327              		.loc 1 628 23 is_stmt 0 view .LVU815
 2328 0066 0029     		cmp	r1, #0
 2329 0068 29DC     		bgt	.L156
 629:lvgl/src/draw/lv_draw_mask.c ****                     return  LV_DRAW_MASK_RES_CHANGED;
 2330              		.loc 1 629 21 is_stmt 1 discriminator 1 view .LVU816
 629:lvgl/src/draw/lv_draw_mask.c ****                     return  LV_DRAW_MASK_RES_CHANGED;
 2331              		.loc 1 629 31 is_stmt 0 discriminator 1 view .LVU817
 2332 006a A342     		cmp	r3, r4
 2333 006c 04DC     		bgt	.L176
 2334              	.LVL290:
 2335              	.L160:
 630:lvgl/src/draw/lv_draw_mask.c ****                 }
 2336              		.loc 1 630 21 is_stmt 1 view .LVU818
 630:lvgl/src/draw/lv_draw_mask.c ****                 }
 2337              		.loc 1 630 29 is_stmt 0 view .LVU819
 2338 006e 0220     		movs	r0, #2
 2339 0070 25E0     		b	.L156
 2340              	.LVL291:
 2341              	.L175:
 630:lvgl/src/draw/lv_draw_mask.c ****                 }
 2342              		.loc 1 630 29 view .LVU820
 2343              	.LBE147:
 623:lvgl/src/draw/lv_draw_mask.c ****             else if(p->cfg.side == LV_DRAW_MASK_LINE_SIDE_LEFT) {
 2344              		.loc 1 623 65 discriminator 1 view .LVU821
ARM GAS  /var/folders/21/t9g5rlb91ys800n5npymflf80000gn/T//cc0CxbBx.s 			page 83


 2345 0072 0029     		cmp	r1, #0
 2346 0074 F3DD     		ble	.L158
 2347 0076 22E0     		b	.L156
 2348              	.LVL292:
 2349              	.L176:
 2350              	.LBB148:
 629:lvgl/src/draw/lv_draw_mask.c ****                     return  LV_DRAW_MASK_RES_CHANGED;
 2351              		.loc 1 629 43 is_stmt 1 discriminator 2 view .LVU822
 2352 0078 1146     		mov	r1, r2
 2353              	.LVL293:
 629:lvgl/src/draw/lv_draw_mask.c ****                     return  LV_DRAW_MASK_RES_CHANGED;
 2354              		.loc 1 629 43 is_stmt 0 discriminator 2 view .LVU823
 2355 007a 0CEB0400 		add	r0, ip, r4
 2356 007e FFF7FEFF 		bl	lv_memset_00
 2357              	.LVL294:
 629:lvgl/src/draw/lv_draw_mask.c ****                     return  LV_DRAW_MASK_RES_CHANGED;
 2358              		.loc 1 629 43 discriminator 2 view .LVU824
 2359 0082 F4E7     		b	.L160
 2360              	.LVL295:
 2361              	.L159:
 629:lvgl/src/draw/lv_draw_mask.c ****                     return  LV_DRAW_MASK_RES_CHANGED;
 2362              		.loc 1 629 43 discriminator 2 view .LVU825
 2363              	.LBE148:
 634:lvgl/src/draw/lv_draw_mask.c ****                 else {
 2364              		.loc 1 634 17 is_stmt 1 view .LVU826
 634:lvgl/src/draw/lv_draw_mask.c ****                 else {
 2365              		.loc 1 634 19 is_stmt 0 view .LVU827
 2366 0084 D942     		cmn	r1, r3
 2367 0086 29D4     		bmi	.L170
 2368              	.LBB149:
 636:lvgl/src/draw/lv_draw_mask.c ****                     if(k < 0) k = 0;
 2369              		.loc 1 636 21 is_stmt 1 view .LVU828
 636:lvgl/src/draw/lv_draw_mask.c ****                     if(k < 0) k = 0;
 2370              		.loc 1 636 29 is_stmt 0 view .LVU829
 2371 0088 4A42     		rsbs	r2, r1, #0
 2372              	.LVL296:
 637:lvgl/src/draw/lv_draw_mask.c ****                     if(k >= len) return LV_DRAW_MASK_RES_TRANSP;
 2373              		.loc 1 637 21 is_stmt 1 view .LVU830
 637:lvgl/src/draw/lv_draw_mask.c ****                     if(k >= len) return LV_DRAW_MASK_RES_TRANSP;
 2374              		.loc 1 637 23 is_stmt 0 view .LVU831
 2375 008a 0029     		cmp	r1, #0
 2376 008c 03DD     		ble	.L177
 2377              	.L161:
 2378              	.LVL297:
 638:lvgl/src/draw/lv_draw_mask.c ****                     else if(k >= 0 && k < len) lv_memset_00(&mask_buf[0], k);
 2379              		.loc 1 638 21 is_stmt 1 view .LVU832
 638:lvgl/src/draw/lv_draw_mask.c ****                     else if(k >= 0 && k < len) lv_memset_00(&mask_buf[0], k);
 2380              		.loc 1 638 23 is_stmt 0 view .LVU833
 2381 008e AB42     		cmp	r3, r5
 2382 0090 03DC     		bgt	.L178
 638:lvgl/src/draw/lv_draw_mask.c ****                     else if(k >= 0 && k < len) lv_memset_00(&mask_buf[0], k);
 2383              		.loc 1 638 41 view .LVU834
 2384 0092 2046     		mov	r0, r4
 2385 0094 13E0     		b	.L156
 2386              	.LVL298:
 2387              	.L177:
 636:lvgl/src/draw/lv_draw_mask.c ****                     if(k < 0) k = 0;
ARM GAS  /var/folders/21/t9g5rlb91ys800n5npymflf80000gn/T//cc0CxbBx.s 			page 84


 2388              		.loc 1 636 29 view .LVU835
 2389 0096 1546     		mov	r5, r2
 2390 0098 F9E7     		b	.L161
 2391              	.LVL299:
 2392              	.L178:
 639:lvgl/src/draw/lv_draw_mask.c ****                     return  LV_DRAW_MASK_RES_CHANGED;
 2393              		.loc 1 639 26 is_stmt 1 view .LVU836
 639:lvgl/src/draw/lv_draw_mask.c ****                     return  LV_DRAW_MASK_RES_CHANGED;
 2394              		.loc 1 639 28 is_stmt 0 view .LVU837
 2395 009a 002D     		cmp	r5, #0
 2396 009c 01DA     		bge	.L179
 2397              	.LVL300:
 2398              	.L162:
 640:lvgl/src/draw/lv_draw_mask.c ****                 }
 2399              		.loc 1 640 21 is_stmt 1 view .LVU838
 640:lvgl/src/draw/lv_draw_mask.c ****                 }
 2400              		.loc 1 640 29 is_stmt 0 view .LVU839
 2401 009e 0220     		movs	r0, #2
 2402 00a0 0DE0     		b	.L156
 2403              	.LVL301:
 2404              	.L179:
 639:lvgl/src/draw/lv_draw_mask.c ****                     return  LV_DRAW_MASK_RES_CHANGED;
 2405              		.loc 1 639 48 is_stmt 1 discriminator 2 view .LVU840
 2406 00a2 2946     		mov	r1, r5
 2407              	.LVL302:
 639:lvgl/src/draw/lv_draw_mask.c ****                     return  LV_DRAW_MASK_RES_CHANGED;
 2408              		.loc 1 639 48 is_stmt 0 discriminator 2 view .LVU841
 2409 00a4 6046     		mov	r0, ip
 2410 00a6 FFF7FEFF 		bl	lv_memset_00
 2411              	.LVL303:
 639:lvgl/src/draw/lv_draw_mask.c ****                     return  LV_DRAW_MASK_RES_CHANGED;
 2412              		.loc 1 639 48 discriminator 2 view .LVU842
 2413 00aa F8E7     		b	.L162
 2414              	.LVL304:
 2415              	.L154:
 639:lvgl/src/draw/lv_draw_mask.c ****                     return  LV_DRAW_MASK_RES_CHANGED;
 2416              		.loc 1 639 48 discriminator 2 view .LVU843
 2417              	.LBE149:
 646:lvgl/src/draw/lv_draw_mask.c ****     if(p->flat) {
 2418              		.loc 1 646 5 is_stmt 1 view .LVU844
 647:lvgl/src/draw/lv_draw_mask.c ****         res = line_mask_flat(mask_buf, abs_x, abs_y, len, p);
 2419              		.loc 1 647 5 view .LVU845
 647:lvgl/src/draw/lv_draw_mask.c ****         res = line_mask_flat(mask_buf, abs_x, abs_y, len, p);
 2420              		.loc 1 647 8 is_stmt 0 view .LVU846
 2421 00ac 94F82800 		ldrb	r0, [r4, #40]	@ zero_extendqisi2
 647:lvgl/src/draw/lv_draw_mask.c ****         res = line_mask_flat(mask_buf, abs_x, abs_y, len, p);
 2422              		.loc 1 647 7 view .LVU847
 2423 00b0 10F0010F 		tst	r0, #1
 2424 00b4 05D0     		beq	.L163
 648:lvgl/src/draw/lv_draw_mask.c ****     }
 2425              		.loc 1 648 9 is_stmt 1 view .LVU848
 648:lvgl/src/draw/lv_draw_mask.c ****     }
 2426              		.loc 1 648 15 is_stmt 0 view .LVU849
 2427 00b6 0094     		str	r4, [sp]
 2428 00b8 6046     		mov	r0, ip
 2429 00ba FFF7FEFF 		bl	line_mask_flat
 2430              	.LVL305:
ARM GAS  /var/folders/21/t9g5rlb91ys800n5npymflf80000gn/T//cc0CxbBx.s 			page 85


 2431              	.L156:
 655:lvgl/src/draw/lv_draw_mask.c **** 
 2432              		.loc 1 655 1 view .LVU850
 2433 00be 03B0     		add	sp, sp, #12
 2434              	.LCFI8:
 2435              		.cfi_remember_state
 2436              		.cfi_def_cfa_offset 12
 2437              		@ sp needed
 2438 00c0 30BD     		pop	{r4, r5, pc}
 2439              	.LVL306:
 2440              	.L163:
 2441              	.LCFI9:
 2442              		.cfi_restore_state
 651:lvgl/src/draw/lv_draw_mask.c ****     }
 2443              		.loc 1 651 9 is_stmt 1 view .LVU851
 651:lvgl/src/draw/lv_draw_mask.c ****     }
 2444              		.loc 1 651 15 is_stmt 0 view .LVU852
 2445 00c2 0094     		str	r4, [sp]
 2446 00c4 6046     		mov	r0, ip
 2447 00c6 FFF7FEFF 		bl	line_mask_steep
 2448              	.LVL307:
 651:lvgl/src/draw/lv_draw_mask.c ****     }
 2449              		.loc 1 651 15 view .LVU853
 2450 00ca F8E7     		b	.L156
 2451              	.LVL308:
 2452              	.L164:
 611:lvgl/src/draw/lv_draw_mask.c ****             else if(p->cfg.side == LV_DRAW_MASK_LINE_SIDE_TOP && abs_y + 1 < 0) return LV_DRAW_MASK
 2453              		.loc 1 611 68 view .LVU854
 2454 00cc 0120     		movs	r0, #1
 2455 00ce F6E7     		b	.L156
 2456              	.L166:
 615:lvgl/src/draw/lv_draw_mask.c ****             }
 2457              		.loc 1 615 24 view .LVU855
 2458 00d0 0020     		movs	r0, #0
 2459 00d2 F4E7     		b	.L156
 2460              	.LVL309:
 2461              	.L168:
 622:lvgl/src/draw/lv_draw_mask.c ****             else if(p->cfg.side == LV_DRAW_MASK_LINE_SIDE_RIGHT && abs_x > 0) return LV_DRAW_MASK_R
 2462              		.loc 1 622 69 view .LVU856
 2463 00d4 0120     		movs	r0, #1
 2464 00d6 F2E7     		b	.L156
 2465              	.L169:
 625:lvgl/src/draw/lv_draw_mask.c ****                 else {
 2466              		.loc 1 625 44 view .LVU857
 2467 00d8 0120     		movs	r0, #1
 2468 00da F0E7     		b	.L156
 2469              	.L170:
 634:lvgl/src/draw/lv_draw_mask.c ****                 else {
 2470              		.loc 1 634 44 view .LVU858
 2471 00dc 2046     		mov	r0, r4
 2472 00de EEE7     		b	.L156
 2473              		.cfi_endproc
 2474              	.LFE72:
 2476              		.section	.text.lv_draw_mask_angle,"ax",%progbits
 2477              		.align	1
 2478              		.syntax unified
 2479              		.thumb
ARM GAS  /var/folders/21/t9g5rlb91ys800n5npymflf80000gn/T//cc0CxbBx.s 			page 86


 2480              		.thumb_func
 2482              	lv_draw_mask_angle:
 2483              	.LVL310:
 2484              	.LFB75:
 918:lvgl/src/draw/lv_draw_mask.c ****     int32_t rel_y = abs_y - p->cfg.vertex_p.y;
 2485              		.loc 1 918 1 is_stmt 1 view -0
 2486              		.cfi_startproc
 2487              		@ args = 4, pretend = 0, frame = 0
 2488              		@ frame_needed = 0, uses_anonymous_args = 0
 918:lvgl/src/draw/lv_draw_mask.c ****     int32_t rel_y = abs_y - p->cfg.vertex_p.y;
 2489              		.loc 1 918 1 is_stmt 0 view .LVU860
 2490 0000 2DE9F047 		push	{r4, r5, r6, r7, r8, r9, r10, lr}
 2491              	.LCFI10:
 2492              		.cfi_def_cfa_offset 32
 2493              		.cfi_offset 4, -32
 2494              		.cfi_offset 5, -28
 2495              		.cfi_offset 6, -24
 2496              		.cfi_offset 7, -20
 2497              		.cfi_offset 8, -16
 2498              		.cfi_offset 9, -12
 2499              		.cfi_offset 10, -8
 2500              		.cfi_offset 14, -4
 2501 0004 82B0     		sub	sp, sp, #8
 2502              	.LCFI11:
 2503              		.cfi_def_cfa_offset 40
 2504 0006 8146     		mov	r9, r0
 2505 0008 0E46     		mov	r6, r1
 2506 000a 1546     		mov	r5, r2
 2507 000c 9846     		mov	r8, r3
 2508 000e 0A9C     		ldr	r4, [sp, #40]
 919:lvgl/src/draw/lv_draw_mask.c ****     int32_t rel_x = abs_x - p->cfg.vertex_p.x;
 2509              		.loc 1 919 5 is_stmt 1 view .LVU861
 919:lvgl/src/draw/lv_draw_mask.c ****     int32_t rel_x = abs_x - p->cfg.vertex_p.x;
 2510              		.loc 1 919 44 is_stmt 0 view .LVU862
 2511 0010 B4F90A30 		ldrsh	r3, [r4, #10]
 2512              	.LVL311:
 919:lvgl/src/draw/lv_draw_mask.c ****     int32_t rel_x = abs_x - p->cfg.vertex_p.x;
 2513              		.loc 1 919 13 view .LVU863
 2514 0014 D71A     		subs	r7, r2, r3
 2515              	.LVL312:
 920:lvgl/src/draw/lv_draw_mask.c **** 
 2516              		.loc 1 920 5 is_stmt 1 view .LVU864
 920:lvgl/src/draw/lv_draw_mask.c **** 
 2517              		.loc 1 920 44 is_stmt 0 view .LVU865
 2518 0016 B4F90820 		ldrsh	r2, [r4, #8]
 2519              	.LVL313:
 920:lvgl/src/draw/lv_draw_mask.c **** 
 2520              		.loc 1 920 13 view .LVU866
 2521 001a 891A     		subs	r1, r1, r2
 2522              	.LVL314:
 922:lvgl/src/draw/lv_draw_mask.c ****        p->cfg.start_angle != 0  && p->cfg.end_angle != 0 &&
 2523              		.loc 1 922 5 is_stmt 1 view .LVU867
 922:lvgl/src/draw/lv_draw_mask.c ****        p->cfg.start_angle != 0  && p->cfg.end_angle != 0 &&
 2524              		.loc 1 922 14 is_stmt 0 view .LVU868
 2525 001c B4F90C20 		ldrsh	r2, [r4, #12]
 922:lvgl/src/draw/lv_draw_mask.c ****        p->cfg.start_angle != 0  && p->cfg.end_angle != 0 &&
 2526              		.loc 1 922 7 view .LVU869
ARM GAS  /var/folders/21/t9g5rlb91ys800n5npymflf80000gn/T//cc0CxbBx.s 			page 87


 2527 0020 B32A     		cmp	r2, #179
 2528 0022 00F39C80 		bgt	.L181
 922:lvgl/src/draw/lv_draw_mask.c ****        p->cfg.start_angle != 0  && p->cfg.end_angle != 0 &&
 2529              		.loc 1 922 42 discriminator 1 view .LVU870
 2530 0026 B4F90E00 		ldrsh	r0, [r4, #14]
 2531              	.LVL315:
 922:lvgl/src/draw/lv_draw_mask.c ****        p->cfg.start_angle != 0  && p->cfg.end_angle != 0 &&
 2532              		.loc 1 922 33 discriminator 1 view .LVU871
 2533 002a B328     		cmp	r0, #179
 2534 002c 00F39780 		bgt	.L181
 922:lvgl/src/draw/lv_draw_mask.c ****        p->cfg.start_angle != 0  && p->cfg.end_angle != 0 &&
 2535              		.loc 1 922 59 discriminator 2 view .LVU872
 2536 0030 002A     		cmp	r2, #0
 2537 0032 00F09480 		beq	.L181
 923:lvgl/src/draw/lv_draw_mask.c ****        p->cfg.start_angle > p->cfg.end_angle) {
 2538              		.loc 1 923 33 view .LVU873
 2539 0036 0028     		cmp	r0, #0
 2540 0038 00F09180 		beq	.L181
 923:lvgl/src/draw/lv_draw_mask.c ****        p->cfg.start_angle > p->cfg.end_angle) {
 2541              		.loc 1 923 58 discriminator 1 view .LVU874
 2542 003c 8242     		cmp	r2, r0
 2543 003e 40F38E80 		ble	.L181
 2544              	.LBB150:
 926:lvgl/src/draw/lv_draw_mask.c ****             return LV_DRAW_MASK_RES_FULL_COVER;
 2545              		.loc 1 926 9 is_stmt 1 view .LVU875
 926:lvgl/src/draw/lv_draw_mask.c ****             return LV_DRAW_MASK_RES_FULL_COVER;
 2546              		.loc 1 926 11 is_stmt 0 view .LVU876
 2547 0042 AB42     		cmp	r3, r5
 2548 0044 00F38F81 		bgt	.L217
 931:lvgl/src/draw/lv_draw_mask.c ****         int32_t start_angle_last = ((rel_y + 1) * p->start_line.xy_steep) >> 10;
 2549              		.loc 1 931 9 is_stmt 1 view .LVU877
 931:lvgl/src/draw/lv_draw_mask.c ****         int32_t start_angle_last = ((rel_y + 1) * p->start_line.xy_steep) >> 10;
 2550              		.loc 1 931 55 is_stmt 0 view .LVU878
 2551 0048 636D     		ldr	r3, [r4, #84]
 931:lvgl/src/draw/lv_draw_mask.c ****         int32_t start_angle_last = ((rel_y + 1) * p->start_line.xy_steep) >> 10;
 2552              		.loc 1 931 42 view .LVU879
 2553 004a 07FB03F3 		mul	r3, r7, r3
 931:lvgl/src/draw/lv_draw_mask.c ****         int32_t start_angle_last = ((rel_y + 1) * p->start_line.xy_steep) >> 10;
 2554              		.loc 1 931 17 view .LVU880
 2555 004e 4FEAA32C 		asr	ip, r3, #10
 2556              	.LVL316:
 932:lvgl/src/draw/lv_draw_mask.c **** 
 2557              		.loc 1 932 9 is_stmt 1 view .LVU881
 932:lvgl/src/draw/lv_draw_mask.c **** 
 2558              		.loc 1 932 64 is_stmt 0 view .LVU882
 2559 0052 A36A     		ldr	r3, [r4, #40]
 932:lvgl/src/draw/lv_draw_mask.c **** 
 2560              		.loc 1 932 49 view .LVU883
 2561 0054 07FB0333 		mla	r3, r7, r3, r3
 932:lvgl/src/draw/lv_draw_mask.c **** 
 2562              		.loc 1 932 17 view .LVU884
 2563 0058 4FEAA32A 		asr	r10, r3, #10
 2564              	.LVL317:
 935:lvgl/src/draw/lv_draw_mask.c ****         else if(p->cfg.start_angle > 0 && p->cfg.start_angle <= 90 && start_angle_last < 0) start_a
 2565              		.loc 1 935 9 is_stmt 1 view .LVU885
 935:lvgl/src/draw/lv_draw_mask.c ****         else if(p->cfg.start_angle > 0 && p->cfg.start_angle <= 90 && start_angle_last < 0) start_a
 2566              		.loc 1 935 37 is_stmt 0 view .LVU886
ARM GAS  /var/folders/21/t9g5rlb91ys800n5npymflf80000gn/T//cc0CxbBx.s 			page 88


 2567 005c 92B2     		uxth	r2, r2
 2568 005e A2F20F13 		subw	r3, r2, #271
 2569 0062 9BB2     		uxth	r3, r3
 935:lvgl/src/draw/lv_draw_mask.c ****         else if(p->cfg.start_angle > 0 && p->cfg.start_angle <= 90 && start_angle_last < 0) start_a
 2570              		.loc 1 935 11 view .LVU887
 2571 0064 582B     		cmp	r3, #88
 2572 0066 02D8     		bhi	.L183
 935:lvgl/src/draw/lv_draw_mask.c ****         else if(p->cfg.start_angle > 0 && p->cfg.start_angle <= 90 && start_angle_last < 0) start_a
 2573              		.loc 1 935 66 discriminator 1 view .LVU888
 2574 0068 BAF1000F 		cmp	r10, #0
 2575 006c 10DB     		blt	.L218
 2576              	.L183:
 936:lvgl/src/draw/lv_draw_mask.c ****         else if(p->cfg.start_angle > 90 && p->cfg.start_angle < 270 && start_angle_last > 0) start_
 2577              		.loc 1 936 14 is_stmt 1 view .LVU889
 936:lvgl/src/draw/lv_draw_mask.c ****         else if(p->cfg.start_angle > 90 && p->cfg.start_angle < 270 && start_angle_last > 0) start_
 2578              		.loc 1 936 40 is_stmt 0 view .LVU890
 2579 006e 531E     		subs	r3, r2, #1
 2580 0070 9BB2     		uxth	r3, r3
 936:lvgl/src/draw/lv_draw_mask.c ****         else if(p->cfg.start_angle > 90 && p->cfg.start_angle < 270 && start_angle_last > 0) start_
 2581              		.loc 1 936 16 view .LVU891
 2582 0072 592B     		cmp	r3, #89
 2583 0074 02D8     		bhi	.L185
 936:lvgl/src/draw/lv_draw_mask.c ****         else if(p->cfg.start_angle > 90 && p->cfg.start_angle < 270 && start_angle_last > 0) start_
 2584              		.loc 1 936 68 discriminator 1 view .LVU892
 2585 0076 BAF1000F 		cmp	r10, #0
 2586 007a 25DB     		blt	.L219
 2587              	.L185:
 937:lvgl/src/draw/lv_draw_mask.c **** 
 2588              		.loc 1 937 14 is_stmt 1 view .LVU893
 937:lvgl/src/draw/lv_draw_mask.c **** 
 2589              		.loc 1 937 41 is_stmt 0 view .LVU894
 2590 007c 5B3A     		subs	r2, r2, #91
 2591 007e 93B2     		uxth	r3, r2
 937:lvgl/src/draw/lv_draw_mask.c **** 
 2592              		.loc 1 937 16 view .LVU895
 2593 0080 B22B     		cmp	r3, #178
 2594 0082 07D8     		bhi	.L184
 937:lvgl/src/draw/lv_draw_mask.c **** 
 2595              		.loc 1 937 69 discriminator 1 view .LVU896
 2596 0084 BAF1000F 		cmp	r10, #0
 2597 0088 04DD     		ble	.L184
 937:lvgl/src/draw/lv_draw_mask.c **** 
 2598              		.loc 1 937 111 view .LVU897
 2599 008a 4FF0000A 		mov	r10, #0
 2600              	.LVL318:
 937:lvgl/src/draw/lv_draw_mask.c **** 
 2601              		.loc 1 937 111 view .LVU898
 2602 008e 01E0     		b	.L184
 2603              	.LVL319:
 2604              	.L218:
 935:lvgl/src/draw/lv_draw_mask.c ****         else if(p->cfg.start_angle > 0 && p->cfg.start_angle <= 90 && start_angle_last < 0) start_a
 2605              		.loc 1 935 108 view .LVU899
 2606 0090 4FF0000A 		mov	r10, #0
 2607              	.LVL320:
 2608              	.L184:
 939:lvgl/src/draw/lv_draw_mask.c ****         else if(p->cfg.end_angle > 0 &&   p->cfg.end_angle <= 90 && start_angle_last < 0) start_ang
 2609              		.loc 1 939 9 is_stmt 1 view .LVU900
ARM GAS  /var/folders/21/t9g5rlb91ys800n5npymflf80000gn/T//cc0CxbBx.s 			page 89


 939:lvgl/src/draw/lv_draw_mask.c ****         else if(p->cfg.end_angle > 0 &&   p->cfg.end_angle <= 90 && start_angle_last < 0) start_ang
 2610              		.loc 1 939 35 is_stmt 0 view .LVU901
 2611 0094 80B2     		uxth	r0, r0
 2612 0096 A0F20F13 		subw	r3, r0, #271
 2613 009a 9BB2     		uxth	r3, r3
 939:lvgl/src/draw/lv_draw_mask.c ****         else if(p->cfg.end_angle > 0 &&   p->cfg.end_angle <= 90 && start_angle_last < 0) start_ang
 2614              		.loc 1 939 11 view .LVU902
 2615 009c 582B     		cmp	r3, #88
 2616 009e 02D8     		bhi	.L186
 939:lvgl/src/draw/lv_draw_mask.c ****         else if(p->cfg.end_angle > 0 &&   p->cfg.end_angle <= 90 && start_angle_last < 0) start_ang
 2617              		.loc 1 939 62 discriminator 1 view .LVU903
 2618 00a0 BAF1000F 		cmp	r10, #0
 2619 00a4 13DB     		blt	.L221
 2620              	.L186:
 940:lvgl/src/draw/lv_draw_mask.c ****         else if(p->cfg.end_angle > 90 &&  p->cfg.end_angle < 270 && start_angle_last > 0) start_ang
 2621              		.loc 1 940 14 is_stmt 1 view .LVU904
 940:lvgl/src/draw/lv_draw_mask.c ****         else if(p->cfg.end_angle > 90 &&  p->cfg.end_angle < 270 && start_angle_last > 0) start_ang
 2622              		.loc 1 940 38 is_stmt 0 view .LVU905
 2623 00a6 431E     		subs	r3, r0, #1
 2624 00a8 9BB2     		uxth	r3, r3
 940:lvgl/src/draw/lv_draw_mask.c ****         else if(p->cfg.end_angle > 90 &&  p->cfg.end_angle < 270 && start_angle_last > 0) start_ang
 2625              		.loc 1 940 16 view .LVU906
 2626 00aa 592B     		cmp	r3, #89
 2627 00ac 02D8     		bhi	.L188
 940:lvgl/src/draw/lv_draw_mask.c ****         else if(p->cfg.end_angle > 90 &&  p->cfg.end_angle < 270 && start_angle_last > 0) start_ang
 2628              		.loc 1 940 66 discriminator 1 view .LVU907
 2629 00ae BAF1000F 		cmp	r10, #0
 2630 00b2 36DB     		blt	.L222
 2631              	.L188:
 941:lvgl/src/draw/lv_draw_mask.c **** 
 2632              		.loc 1 941 14 is_stmt 1 view .LVU908
 941:lvgl/src/draw/lv_draw_mask.c **** 
 2633              		.loc 1 941 39 is_stmt 0 view .LVU909
 2634 00b4 5B38     		subs	r0, r0, #91
 2635 00b6 83B2     		uxth	r3, r0
 941:lvgl/src/draw/lv_draw_mask.c **** 
 2636              		.loc 1 941 16 view .LVU910
 2637 00b8 B22B     		cmp	r3, #178
 2638 00ba 0AD8     		bhi	.L187
 941:lvgl/src/draw/lv_draw_mask.c **** 
 2639              		.loc 1 941 66 discriminator 1 view .LVU911
 2640 00bc BAF1000F 		cmp	r10, #0
 2641 00c0 07DD     		ble	.L187
 941:lvgl/src/draw/lv_draw_mask.c **** 
 2642              		.loc 1 941 108 view .LVU912
 2643 00c2 4FF0000A 		mov	r10, #0
 2644              	.LVL321:
 941:lvgl/src/draw/lv_draw_mask.c **** 
 2645              		.loc 1 941 108 view .LVU913
 2646 00c6 04E0     		b	.L187
 2647              	.LVL322:
 2648              	.L219:
 936:lvgl/src/draw/lv_draw_mask.c ****         else if(p->cfg.start_angle > 90 && p->cfg.start_angle < 270 && start_angle_last > 0) start_
 2649              		.loc 1 936 110 view .LVU914
 2650 00c8 4FF0000A 		mov	r10, #0
 2651              	.LVL323:
 936:lvgl/src/draw/lv_draw_mask.c ****         else if(p->cfg.start_angle > 90 && p->cfg.start_angle < 270 && start_angle_last > 0) start_
ARM GAS  /var/folders/21/t9g5rlb91ys800n5npymflf80000gn/T//cc0CxbBx.s 			page 90


 2652              		.loc 1 936 110 view .LVU915
 2653 00cc E2E7     		b	.L184
 2654              	.LVL324:
 2655              	.L221:
 939:lvgl/src/draw/lv_draw_mask.c ****         else if(p->cfg.end_angle > 0 &&   p->cfg.end_angle <= 90 && start_angle_last < 0) start_ang
 2656              		.loc 1 939 104 view .LVU916
 2657 00ce 4FF0000A 		mov	r10, #0
 2658              	.LVL325:
 2659              	.L187:
 943:lvgl/src/draw/lv_draw_mask.c **** 
 2660              		.loc 1 943 9 is_stmt 1 view .LVU917
 943:lvgl/src/draw/lv_draw_mask.c **** 
 2661              		.loc 1 943 41 is_stmt 0 view .LVU918
 2662 00d2 ACEB0A0C 		sub	ip, ip, r10
 2663              	.LVL326:
 945:lvgl/src/draw/lv_draw_mask.c ****         lv_draw_mask_res_t res2 = LV_DRAW_MASK_RES_FULL_COVER;
 2664              		.loc 1 945 9 is_stmt 1 view .LVU919
 946:lvgl/src/draw/lv_draw_mask.c **** 
 2665              		.loc 1 946 9 view .LVU920
 948:lvgl/src/draw/lv_draw_mask.c ****         if(tmp > len) tmp = len;
 2666              		.loc 1 948 9 view .LVU921
 948:lvgl/src/draw/lv_draw_mask.c ****         if(tmp > len) tmp = len;
 2667              		.loc 1 948 40 is_stmt 0 view .LVU922
 2668 00d6 0AEB6C0A 		add	r10, r10, ip, asr #1
 2669              	.LVL327:
 948:lvgl/src/draw/lv_draw_mask.c ****         if(tmp > len) tmp = len;
 2670              		.loc 1 948 17 view .LVU923
 2671 00da AAEB010A 		sub	r10, r10, r1
 2672              	.LVL328:
 949:lvgl/src/draw/lv_draw_mask.c ****         if(tmp > 0) {
 2673              		.loc 1 949 9 is_stmt 1 view .LVU924
 949:lvgl/src/draw/lv_draw_mask.c ****         if(tmp > 0) {
 2674              		.loc 1 949 11 is_stmt 0 view .LVU925
 2675 00de D045     		cmp	r8, r10
 2676 00e0 00DA     		bge	.L189
 949:lvgl/src/draw/lv_draw_mask.c ****         if(tmp > 0) {
 2677              		.loc 1 949 27 view .LVU926
 2678 00e2 C246     		mov	r10, r8
 2679              	.LVL329:
 2680              	.L189:
 950:lvgl/src/draw/lv_draw_mask.c ****             res1 = lv_draw_mask_line(&mask_buf[0], abs_x, abs_y, tmp, &p->start_line);
 2681              		.loc 1 950 9 is_stmt 1 view .LVU927
 950:lvgl/src/draw/lv_draw_mask.c ****             res1 = lv_draw_mask_line(&mask_buf[0], abs_x, abs_y, tmp, &p->start_line);
 2682              		.loc 1 950 11 is_stmt 0 view .LVU928
 2683 00e4 BAF1000F 		cmp	r10, #0
 2684 00e8 1EDC     		bgt	.L253
 945:lvgl/src/draw/lv_draw_mask.c ****         lv_draw_mask_res_t res2 = LV_DRAW_MASK_RES_FULL_COVER;
 2685              		.loc 1 945 28 view .LVU929
 2686 00ea 0127     		movs	r7, #1
 2687              	.LVL330:
 2688              	.L190:
 957:lvgl/src/draw/lv_draw_mask.c ****         if(tmp < 0) tmp = 0;
 2689              		.loc 1 957 9 is_stmt 1 view .LVU930
 957:lvgl/src/draw/lv_draw_mask.c ****         if(tmp < 0) tmp = 0;
 2690              		.loc 1 957 11 is_stmt 0 view .LVU931
 2691 00ec D045     		cmp	r8, r10
 2692 00ee 00DA     		bge	.L191
ARM GAS  /var/folders/21/t9g5rlb91ys800n5npymflf80000gn/T//cc0CxbBx.s 			page 91


 957:lvgl/src/draw/lv_draw_mask.c ****         if(tmp < 0) tmp = 0;
 2693              		.loc 1 957 27 view .LVU932
 2694 00f0 C246     		mov	r10, r8
 2695              	.LVL331:
 2696              	.L191:
 958:lvgl/src/draw/lv_draw_mask.c ****         res2 = lv_draw_mask_line(&mask_buf[tmp], abs_x + tmp, abs_y, len - tmp, &p->end_line);
 2697              		.loc 1 958 9 is_stmt 1 view .LVU933
 958:lvgl/src/draw/lv_draw_mask.c ****         res2 = lv_draw_mask_line(&mask_buf[tmp], abs_x + tmp, abs_y, len - tmp, &p->end_line);
 2698              		.loc 1 958 11 is_stmt 0 view .LVU934
 2699 00f2 BAF1000F 		cmp	r10, #0
 2700 00f6 29DB     		blt	.L254
 2701              	.LVL332:
 2702              	.L192:
 959:lvgl/src/draw/lv_draw_mask.c ****         if(res2 == LV_DRAW_MASK_RES_TRANSP) {
 2703              		.loc 1 959 9 is_stmt 1 view .LVU935
 959:lvgl/src/draw/lv_draw_mask.c ****         if(res2 == LV_DRAW_MASK_RES_TRANSP) {
 2704              		.loc 1 959 16 is_stmt 0 view .LVU936
 2705 00f8 D144     		add	r9, r9, r10
 2706              	.LVL333:
 959:lvgl/src/draw/lv_draw_mask.c ****         if(res2 == LV_DRAW_MASK_RES_TRANSP) {
 2707              		.loc 1 959 56 view .LVU937
 2708 00fa 1FFA8AF3 		uxth	r3, r10
 2709 00fe 9919     		adds	r1, r3, r6
 959:lvgl/src/draw/lv_draw_mask.c ****         if(res2 == LV_DRAW_MASK_RES_TRANSP) {
 2710              		.loc 1 959 74 view .LVU938
 2711 0100 A8EB0303 		sub	r3, r8, r3
 959:lvgl/src/draw/lv_draw_mask.c ****         if(res2 == LV_DRAW_MASK_RES_TRANSP) {
 2712              		.loc 1 959 16 view .LVU939
 2713 0104 3C34     		adds	r4, r4, #60
 2714 0106 0094     		str	r4, [sp]
 2715 0108 1BB2     		sxth	r3, r3
 2716 010a 2A46     		mov	r2, r5
 2717 010c 09B2     		sxth	r1, r1
 2718 010e 4846     		mov	r0, r9
 2719 0110 FFF7FEFF 		bl	lv_draw_mask_line
 2720              	.LVL334:
 960:lvgl/src/draw/lv_draw_mask.c ****             lv_memset_00(&mask_buf[tmp], len - tmp);
 2721              		.loc 1 960 9 is_stmt 1 view .LVU940
 960:lvgl/src/draw/lv_draw_mask.c ****             lv_memset_00(&mask_buf[tmp], len - tmp);
 2722              		.loc 1 960 11 is_stmt 0 view .LVU941
 2723 0114 0446     		mov	r4, r0
 2724 0116 E0B1     		cbz	r0, .L255
 2725              	.LVL335:
 2726              	.L193:
 963:lvgl/src/draw/lv_draw_mask.c ****         else return LV_DRAW_MASK_RES_CHANGED;
 2727              		.loc 1 963 9 is_stmt 1 view .LVU942
 963:lvgl/src/draw/lv_draw_mask.c ****         else return LV_DRAW_MASK_RES_CHANGED;
 2728              		.loc 1 963 11 is_stmt 0 view .LVU943
 2729 0118 A742     		cmp	r7, r4
 2730 011a 00F02981 		beq	.L182
 964:lvgl/src/draw/lv_draw_mask.c ****     }
 2731              		.loc 1 964 21 view .LVU944
 2732 011e 0227     		movs	r7, #2
 2733              	.LVL336:
 964:lvgl/src/draw/lv_draw_mask.c ****     }
 2734              		.loc 1 964 21 view .LVU945
 2735 0120 26E1     		b	.L182
ARM GAS  /var/folders/21/t9g5rlb91ys800n5npymflf80000gn/T//cc0CxbBx.s 			page 92


 2736              	.LVL337:
 2737              	.L222:
 940:lvgl/src/draw/lv_draw_mask.c ****         else if(p->cfg.end_angle > 90 &&  p->cfg.end_angle < 270 && start_angle_last > 0) start_ang
 2738              		.loc 1 940 108 view .LVU946
 2739 0122 4FF0000A 		mov	r10, #0
 2740              	.LVL338:
 940:lvgl/src/draw/lv_draw_mask.c ****         else if(p->cfg.end_angle > 90 &&  p->cfg.end_angle < 270 && start_angle_last > 0) start_ang
 2741              		.loc 1 940 108 view .LVU947
 2742 0126 D4E7     		b	.L187
 2743              	.LVL339:
 2744              	.L253:
 951:lvgl/src/draw/lv_draw_mask.c ****             if(res1 == LV_DRAW_MASK_RES_TRANSP) {
 2745              		.loc 1 951 13 is_stmt 1 view .LVU948
 951:lvgl/src/draw/lv_draw_mask.c ****             if(res1 == LV_DRAW_MASK_RES_TRANSP) {
 2746              		.loc 1 951 20 is_stmt 0 view .LVU949
 2747 0128 04F11003 		add	r3, r4, #16
 2748 012c 0093     		str	r3, [sp]
 2749              	.LVL340:
 951:lvgl/src/draw/lv_draw_mask.c ****             if(res1 == LV_DRAW_MASK_RES_TRANSP) {
 2750              		.loc 1 951 20 view .LVU950
 2751 012e 0FFA8AF3 		sxth	r3, r10
 2752 0132 2A46     		mov	r2, r5
 2753 0134 3146     		mov	r1, r6
 2754              	.LVL341:
 951:lvgl/src/draw/lv_draw_mask.c ****             if(res1 == LV_DRAW_MASK_RES_TRANSP) {
 2755              		.loc 1 951 20 view .LVU951
 2756 0136 4846     		mov	r0, r9
 2757 0138 FFF7FEFF 		bl	lv_draw_mask_line
 2758              	.LVL342:
 952:lvgl/src/draw/lv_draw_mask.c ****                 lv_memset_00(&mask_buf[0], tmp);
 2759              		.loc 1 952 13 is_stmt 1 view .LVU952
 952:lvgl/src/draw/lv_draw_mask.c ****                 lv_memset_00(&mask_buf[0], tmp);
 2760              		.loc 1 952 15 is_stmt 0 view .LVU953
 2761 013c 0746     		mov	r7, r0
 2762              	.LVL343:
 952:lvgl/src/draw/lv_draw_mask.c ****                 lv_memset_00(&mask_buf[0], tmp);
 2763              		.loc 1 952 15 view .LVU954
 2764 013e 0028     		cmp	r0, #0
 2765 0140 D4D1     		bne	.L190
 953:lvgl/src/draw/lv_draw_mask.c ****             }
 2766              		.loc 1 953 17 is_stmt 1 view .LVU955
 2767 0142 5146     		mov	r1, r10
 2768 0144 4846     		mov	r0, r9
 2769              	.LVL344:
 953:lvgl/src/draw/lv_draw_mask.c ****             }
 2770              		.loc 1 953 17 is_stmt 0 view .LVU956
 2771 0146 FFF7FEFF 		bl	lv_memset_00
 2772              	.LVL345:
 2773 014a CFE7     		b	.L190
 2774              	.LVL346:
 2775              	.L254:
 958:lvgl/src/draw/lv_draw_mask.c ****         res2 = lv_draw_mask_line(&mask_buf[tmp], abs_x + tmp, abs_y, len - tmp, &p->end_line);
 2776              		.loc 1 958 25 view .LVU957
 2777 014c 4FF0000A 		mov	r10, #0
 2778              	.LVL347:
 958:lvgl/src/draw/lv_draw_mask.c ****         res2 = lv_draw_mask_line(&mask_buf[tmp], abs_x + tmp, abs_y, len - tmp, &p->end_line);
 2779              		.loc 1 958 25 view .LVU958
ARM GAS  /var/folders/21/t9g5rlb91ys800n5npymflf80000gn/T//cc0CxbBx.s 			page 93


 2780 0150 D2E7     		b	.L192
 2781              	.LVL348:
 2782              	.L255:
 961:lvgl/src/draw/lv_draw_mask.c ****         }
 2783              		.loc 1 961 13 is_stmt 1 view .LVU959
 2784 0152 A8EB0A01 		sub	r1, r8, r10
 2785 0156 4846     		mov	r0, r9
 2786              	.LVL349:
 961:lvgl/src/draw/lv_draw_mask.c ****         }
 2787              		.loc 1 961 13 is_stmt 0 view .LVU960
 2788 0158 FFF7FEFF 		bl	lv_memset_00
 2789              	.LVL350:
 2790 015c DCE7     		b	.L193
 2791              	.LVL351:
 2792              	.L181:
 961:lvgl/src/draw/lv_draw_mask.c ****         }
 2793              		.loc 1 961 13 view .LVU961
 2794              	.LBE150:
 966:lvgl/src/draw/lv_draw_mask.c **** 
 2795              		.loc 1 966 10 is_stmt 1 view .LVU962
 966:lvgl/src/draw/lv_draw_mask.c **** 
 2796              		.loc 1 966 12 is_stmt 0 view .LVU963
 2797 015e B42A     		cmp	r2, #180
 2798 0160 40F39680 		ble	.L194
 966:lvgl/src/draw/lv_draw_mask.c **** 
 2799              		.loc 1 966 47 discriminator 1 view .LVU964
 2800 0164 B4F90E00 		ldrsh	r0, [r4, #14]
 966:lvgl/src/draw/lv_draw_mask.c **** 
 2801              		.loc 1 966 38 discriminator 1 view .LVU965
 2802 0168 B428     		cmp	r0, #180
 2803 016a 40F39180 		ble	.L194
 966:lvgl/src/draw/lv_draw_mask.c **** 
 2804              		.loc 1 966 64 discriminator 2 view .LVU966
 2805 016e 8242     		cmp	r2, r0
 2806 0170 40F38E80 		ble	.L194
 2807              	.LBB151:
 968:lvgl/src/draw/lv_draw_mask.c ****             return LV_DRAW_MASK_RES_FULL_COVER;
 2808              		.loc 1 968 9 is_stmt 1 view .LVU967
 968:lvgl/src/draw/lv_draw_mask.c ****             return LV_DRAW_MASK_RES_FULL_COVER;
 2809              		.loc 1 968 11 is_stmt 0 view .LVU968
 2810 0174 AB42     		cmp	r3, r5
 2811 0176 C0F2F880 		blt	.L229
 973:lvgl/src/draw/lv_draw_mask.c ****         int32_t start_angle_last = ((rel_y + 1) * p->start_line.xy_steep) >> 10;
 2812              		.loc 1 973 9 is_stmt 1 view .LVU969
 973:lvgl/src/draw/lv_draw_mask.c ****         int32_t start_angle_last = ((rel_y + 1) * p->start_line.xy_steep) >> 10;
 2813              		.loc 1 973 55 is_stmt 0 view .LVU970
 2814 017a 636D     		ldr	r3, [r4, #84]
 973:lvgl/src/draw/lv_draw_mask.c ****         int32_t start_angle_last = ((rel_y + 1) * p->start_line.xy_steep) >> 10;
 2815              		.loc 1 973 42 view .LVU971
 2816 017c 07FB03F3 		mul	r3, r7, r3
 973:lvgl/src/draw/lv_draw_mask.c ****         int32_t start_angle_last = ((rel_y + 1) * p->start_line.xy_steep) >> 10;
 2817              		.loc 1 973 17 view .LVU972
 2818 0180 4FEAA32C 		asr	ip, r3, #10
 2819              	.LVL352:
 974:lvgl/src/draw/lv_draw_mask.c **** 
 2820              		.loc 1 974 9 is_stmt 1 view .LVU973
 974:lvgl/src/draw/lv_draw_mask.c **** 
ARM GAS  /var/folders/21/t9g5rlb91ys800n5npymflf80000gn/T//cc0CxbBx.s 			page 94


 2821              		.loc 1 974 64 is_stmt 0 view .LVU974
 2822 0184 A36A     		ldr	r3, [r4, #40]
 974:lvgl/src/draw/lv_draw_mask.c **** 
 2823              		.loc 1 974 49 view .LVU975
 2824 0186 07FB0333 		mla	r3, r7, r3, r3
 974:lvgl/src/draw/lv_draw_mask.c **** 
 2825              		.loc 1 974 17 view .LVU976
 2826 018a 4FEAA32A 		asr	r10, r3, #10
 2827              	.LVL353:
 977:lvgl/src/draw/lv_draw_mask.c ****         else if(p->cfg.start_angle > 0 && p->cfg.start_angle <= 90 && start_angle_last < 0) start_a
 2828              		.loc 1 977 9 is_stmt 1 view .LVU977
 977:lvgl/src/draw/lv_draw_mask.c ****         else if(p->cfg.start_angle > 0 && p->cfg.start_angle <= 90 && start_angle_last < 0) start_a
 2829              		.loc 1 977 37 is_stmt 0 view .LVU978
 2830 018e 92B2     		uxth	r2, r2
 2831 0190 A2F20F13 		subw	r3, r2, #271
 2832 0194 9BB2     		uxth	r3, r3
 977:lvgl/src/draw/lv_draw_mask.c ****         else if(p->cfg.start_angle > 0 && p->cfg.start_angle <= 90 && start_angle_last < 0) start_a
 2833              		.loc 1 977 11 view .LVU979
 2834 0196 582B     		cmp	r3, #88
 2835 0198 02D8     		bhi	.L195
 977:lvgl/src/draw/lv_draw_mask.c ****         else if(p->cfg.start_angle > 0 && p->cfg.start_angle <= 90 && start_angle_last < 0) start_a
 2836              		.loc 1 977 66 discriminator 1 view .LVU980
 2837 019a BAF1000F 		cmp	r10, #0
 2838 019e 10DB     		blt	.L230
 2839              	.L195:
 978:lvgl/src/draw/lv_draw_mask.c ****         else if(p->cfg.start_angle > 90 && p->cfg.start_angle < 270 && start_angle_last > 0) start_
 2840              		.loc 1 978 14 is_stmt 1 view .LVU981
 978:lvgl/src/draw/lv_draw_mask.c ****         else if(p->cfg.start_angle > 90 && p->cfg.start_angle < 270 && start_angle_last > 0) start_
 2841              		.loc 1 978 40 is_stmt 0 view .LVU982
 2842 01a0 531E     		subs	r3, r2, #1
 2843 01a2 9BB2     		uxth	r3, r3
 978:lvgl/src/draw/lv_draw_mask.c ****         else if(p->cfg.start_angle > 90 && p->cfg.start_angle < 270 && start_angle_last > 0) start_
 2844              		.loc 1 978 16 view .LVU983
 2845 01a4 592B     		cmp	r3, #89
 2846 01a6 02D8     		bhi	.L197
 978:lvgl/src/draw/lv_draw_mask.c ****         else if(p->cfg.start_angle > 90 && p->cfg.start_angle < 270 && start_angle_last > 0) start_
 2847              		.loc 1 978 68 discriminator 1 view .LVU984
 2848 01a8 BAF1000F 		cmp	r10, #0
 2849 01ac 25DB     		blt	.L231
 2850              	.L197:
 979:lvgl/src/draw/lv_draw_mask.c **** 
 2851              		.loc 1 979 14 is_stmt 1 view .LVU985
 979:lvgl/src/draw/lv_draw_mask.c **** 
 2852              		.loc 1 979 41 is_stmt 0 view .LVU986
 2853 01ae 5B3A     		subs	r2, r2, #91
 2854 01b0 92B2     		uxth	r2, r2
 979:lvgl/src/draw/lv_draw_mask.c **** 
 2855              		.loc 1 979 16 view .LVU987
 2856 01b2 B22A     		cmp	r2, #178
 2857 01b4 07D8     		bhi	.L196
 979:lvgl/src/draw/lv_draw_mask.c **** 
 2858              		.loc 1 979 69 discriminator 1 view .LVU988
 2859 01b6 BAF1000F 		cmp	r10, #0
 2860 01ba 04DD     		ble	.L196
 979:lvgl/src/draw/lv_draw_mask.c **** 
 2861              		.loc 1 979 111 view .LVU989
 2862 01bc 4FF0000A 		mov	r10, #0
ARM GAS  /var/folders/21/t9g5rlb91ys800n5npymflf80000gn/T//cc0CxbBx.s 			page 95


 2863              	.LVL354:
 979:lvgl/src/draw/lv_draw_mask.c **** 
 2864              		.loc 1 979 111 view .LVU990
 2865 01c0 01E0     		b	.L196
 2866              	.LVL355:
 2867              	.L230:
 977:lvgl/src/draw/lv_draw_mask.c ****         else if(p->cfg.start_angle > 0 && p->cfg.start_angle <= 90 && start_angle_last < 0) start_a
 2868              		.loc 1 977 108 view .LVU991
 2869 01c2 4FF0000A 		mov	r10, #0
 2870              	.LVL356:
 2871              	.L196:
 981:lvgl/src/draw/lv_draw_mask.c ****         else if(p->cfg.end_angle > 0 &&   p->cfg.end_angle <= 90 && start_angle_last < 0) start_ang
 2872              		.loc 1 981 9 is_stmt 1 view .LVU992
 981:lvgl/src/draw/lv_draw_mask.c ****         else if(p->cfg.end_angle > 0 &&   p->cfg.end_angle <= 90 && start_angle_last < 0) start_ang
 2873              		.loc 1 981 35 is_stmt 0 view .LVU993
 2874 01c6 83B2     		uxth	r3, r0
 2875 01c8 A3F20F12 		subw	r2, r3, #271
 2876 01cc 92B2     		uxth	r2, r2
 981:lvgl/src/draw/lv_draw_mask.c ****         else if(p->cfg.end_angle > 0 &&   p->cfg.end_angle <= 90 && start_angle_last < 0) start_ang
 2877              		.loc 1 981 11 view .LVU994
 2878 01ce 582A     		cmp	r2, #88
 2879 01d0 02D8     		bhi	.L198
 981:lvgl/src/draw/lv_draw_mask.c ****         else if(p->cfg.end_angle > 0 &&   p->cfg.end_angle <= 90 && start_angle_last < 0) start_ang
 2880              		.loc 1 981 62 discriminator 1 view .LVU995
 2881 01d2 BAF1000F 		cmp	r10, #0
 2882 01d6 13DB     		blt	.L233
 2883              	.L198:
 982:lvgl/src/draw/lv_draw_mask.c ****         else if(p->cfg.end_angle > 90 &&  p->cfg.end_angle < 270 && start_angle_last > 0) start_ang
 2884              		.loc 1 982 14 is_stmt 1 view .LVU996
 982:lvgl/src/draw/lv_draw_mask.c ****         else if(p->cfg.end_angle > 90 &&  p->cfg.end_angle < 270 && start_angle_last > 0) start_ang
 2885              		.loc 1 982 38 is_stmt 0 view .LVU997
 2886 01d8 5A1E     		subs	r2, r3, #1
 2887 01da 92B2     		uxth	r2, r2
 982:lvgl/src/draw/lv_draw_mask.c ****         else if(p->cfg.end_angle > 90 &&  p->cfg.end_angle < 270 && start_angle_last > 0) start_ang
 2888              		.loc 1 982 16 view .LVU998
 2889 01dc 592A     		cmp	r2, #89
 2890 01de 02D8     		bhi	.L200
 982:lvgl/src/draw/lv_draw_mask.c ****         else if(p->cfg.end_angle > 90 &&  p->cfg.end_angle < 270 && start_angle_last > 0) start_ang
 2891              		.loc 1 982 66 discriminator 1 view .LVU999
 2892 01e0 BAF1000F 		cmp	r10, #0
 2893 01e4 36DB     		blt	.L234
 2894              	.L200:
 983:lvgl/src/draw/lv_draw_mask.c **** 
 2895              		.loc 1 983 14 is_stmt 1 view .LVU1000
 983:lvgl/src/draw/lv_draw_mask.c **** 
 2896              		.loc 1 983 39 is_stmt 0 view .LVU1001
 2897 01e6 5B3B     		subs	r3, r3, #91
 2898 01e8 9BB2     		uxth	r3, r3
 983:lvgl/src/draw/lv_draw_mask.c **** 
 2899              		.loc 1 983 16 view .LVU1002
 2900 01ea B22B     		cmp	r3, #178
 2901 01ec 0AD8     		bhi	.L199
 983:lvgl/src/draw/lv_draw_mask.c **** 
 2902              		.loc 1 983 66 discriminator 1 view .LVU1003
 2903 01ee BAF1000F 		cmp	r10, #0
 2904 01f2 07DD     		ble	.L199
 983:lvgl/src/draw/lv_draw_mask.c **** 
ARM GAS  /var/folders/21/t9g5rlb91ys800n5npymflf80000gn/T//cc0CxbBx.s 			page 96


 2905              		.loc 1 983 108 view .LVU1004
 2906 01f4 4FF0000A 		mov	r10, #0
 2907              	.LVL357:
 983:lvgl/src/draw/lv_draw_mask.c **** 
 2908              		.loc 1 983 108 view .LVU1005
 2909 01f8 04E0     		b	.L199
 2910              	.LVL358:
 2911              	.L231:
 978:lvgl/src/draw/lv_draw_mask.c ****         else if(p->cfg.start_angle > 90 && p->cfg.start_angle < 270 && start_angle_last > 0) start_
 2912              		.loc 1 978 110 view .LVU1006
 2913 01fa 4FF0000A 		mov	r10, #0
 2914              	.LVL359:
 978:lvgl/src/draw/lv_draw_mask.c ****         else if(p->cfg.start_angle > 90 && p->cfg.start_angle < 270 && start_angle_last > 0) start_
 2915              		.loc 1 978 110 view .LVU1007
 2916 01fe E2E7     		b	.L196
 2917              	.LVL360:
 2918              	.L233:
 981:lvgl/src/draw/lv_draw_mask.c ****         else if(p->cfg.end_angle > 0 &&   p->cfg.end_angle <= 90 && start_angle_last < 0) start_ang
 2919              		.loc 1 981 104 view .LVU1008
 2920 0200 4FF0000A 		mov	r10, #0
 2921              	.LVL361:
 2922              	.L199:
 985:lvgl/src/draw/lv_draw_mask.c **** 
 2923              		.loc 1 985 9 is_stmt 1 view .LVU1009
 985:lvgl/src/draw/lv_draw_mask.c **** 
 2924              		.loc 1 985 41 is_stmt 0 view .LVU1010
 2925 0204 ACEB0A0C 		sub	ip, ip, r10
 2926              	.LVL362:
 987:lvgl/src/draw/lv_draw_mask.c ****         lv_draw_mask_res_t res2 = LV_DRAW_MASK_RES_FULL_COVER;
 2927              		.loc 1 987 9 is_stmt 1 view .LVU1011
 988:lvgl/src/draw/lv_draw_mask.c **** 
 2928              		.loc 1 988 9 view .LVU1012
 990:lvgl/src/draw/lv_draw_mask.c ****         if(tmp > len) tmp = len;
 2929              		.loc 1 990 9 view .LVU1013
 990:lvgl/src/draw/lv_draw_mask.c ****         if(tmp > len) tmp = len;
 2930              		.loc 1 990 40 is_stmt 0 view .LVU1014
 2931 0208 0AEB6C0A 		add	r10, r10, ip, asr #1
 2932              	.LVL363:
 990:lvgl/src/draw/lv_draw_mask.c ****         if(tmp > len) tmp = len;
 2933              		.loc 1 990 17 view .LVU1015
 2934 020c AAEB010A 		sub	r10, r10, r1
 2935              	.LVL364:
 991:lvgl/src/draw/lv_draw_mask.c ****         if(tmp > 0) {
 2936              		.loc 1 991 9 is_stmt 1 view .LVU1016
 991:lvgl/src/draw/lv_draw_mask.c ****         if(tmp > 0) {
 2937              		.loc 1 991 11 is_stmt 0 view .LVU1017
 2938 0210 D045     		cmp	r8, r10
 2939 0212 00DA     		bge	.L201
 991:lvgl/src/draw/lv_draw_mask.c ****         if(tmp > 0) {
 2940              		.loc 1 991 27 view .LVU1018
 2941 0214 C246     		mov	r10, r8
 2942              	.LVL365:
 2943              	.L201:
 992:lvgl/src/draw/lv_draw_mask.c ****             res1 = lv_draw_mask_line(&mask_buf[0], abs_x, abs_y, tmp, (lv_draw_mask_line_param_t *)
 2944              		.loc 1 992 9 is_stmt 1 view .LVU1019
 992:lvgl/src/draw/lv_draw_mask.c ****             res1 = lv_draw_mask_line(&mask_buf[0], abs_x, abs_y, tmp, (lv_draw_mask_line_param_t *)
 2945              		.loc 1 992 11 is_stmt 0 view .LVU1020
ARM GAS  /var/folders/21/t9g5rlb91ys800n5npymflf80000gn/T//cc0CxbBx.s 			page 97


 2946 0216 BAF1000F 		cmp	r10, #0
 2947 021a 1EDC     		bgt	.L256
 987:lvgl/src/draw/lv_draw_mask.c ****         lv_draw_mask_res_t res2 = LV_DRAW_MASK_RES_FULL_COVER;
 2948              		.loc 1 987 28 view .LVU1021
 2949 021c 0127     		movs	r7, #1
 2950              	.LVL366:
 2951              	.L202:
 999:lvgl/src/draw/lv_draw_mask.c ****         if(tmp < 0) tmp = 0;
 2952              		.loc 1 999 9 is_stmt 1 view .LVU1022
 999:lvgl/src/draw/lv_draw_mask.c ****         if(tmp < 0) tmp = 0;
 2953              		.loc 1 999 11 is_stmt 0 view .LVU1023
 2954 021e D045     		cmp	r8, r10
 2955 0220 00DA     		bge	.L203
 999:lvgl/src/draw/lv_draw_mask.c ****         if(tmp < 0) tmp = 0;
 2956              		.loc 1 999 27 view .LVU1024
 2957 0222 C246     		mov	r10, r8
 2958              	.LVL367:
 2959              	.L203:
1000:lvgl/src/draw/lv_draw_mask.c ****         res2 = lv_draw_mask_line(&mask_buf[tmp], abs_x + tmp, abs_y, len - tmp, (lv_draw_mask_line_
 2960              		.loc 1 1000 9 is_stmt 1 view .LVU1025
1000:lvgl/src/draw/lv_draw_mask.c ****         res2 = lv_draw_mask_line(&mask_buf[tmp], abs_x + tmp, abs_y, len - tmp, (lv_draw_mask_line_
 2961              		.loc 1 1000 11 is_stmt 0 view .LVU1026
 2962 0224 BAF1000F 		cmp	r10, #0
 2963 0228 29DB     		blt	.L257
 2964              	.LVL368:
 2965              	.L204:
1001:lvgl/src/draw/lv_draw_mask.c ****         if(res2 == LV_DRAW_MASK_RES_TRANSP) {
 2966              		.loc 1 1001 9 is_stmt 1 view .LVU1027
1001:lvgl/src/draw/lv_draw_mask.c ****         if(res2 == LV_DRAW_MASK_RES_TRANSP) {
 2967              		.loc 1 1001 16 is_stmt 0 view .LVU1028
 2968 022a D144     		add	r9, r9, r10
 2969              	.LVL369:
1001:lvgl/src/draw/lv_draw_mask.c ****         if(res2 == LV_DRAW_MASK_RES_TRANSP) {
 2970              		.loc 1 1001 56 view .LVU1029
 2971 022c 1FFA8AF3 		uxth	r3, r10
 2972 0230 9919     		adds	r1, r3, r6
1001:lvgl/src/draw/lv_draw_mask.c ****         if(res2 == LV_DRAW_MASK_RES_TRANSP) {
 2973              		.loc 1 1001 74 view .LVU1030
 2974 0232 A8EB0303 		sub	r3, r8, r3
1001:lvgl/src/draw/lv_draw_mask.c ****         if(res2 == LV_DRAW_MASK_RES_TRANSP) {
 2975              		.loc 1 1001 16 view .LVU1031
 2976 0236 1034     		adds	r4, r4, #16
 2977 0238 0094     		str	r4, [sp]
 2978 023a 1BB2     		sxth	r3, r3
 2979 023c 2A46     		mov	r2, r5
 2980 023e 09B2     		sxth	r1, r1
 2981 0240 4846     		mov	r0, r9
 2982 0242 FFF7FEFF 		bl	lv_draw_mask_line
 2983              	.LVL370:
1002:lvgl/src/draw/lv_draw_mask.c ****             lv_memset_00(&mask_buf[tmp], len - tmp);
 2984              		.loc 1 1002 9 is_stmt 1 view .LVU1032
1002:lvgl/src/draw/lv_draw_mask.c ****             lv_memset_00(&mask_buf[tmp], len - tmp);
 2985              		.loc 1 1002 11 is_stmt 0 view .LVU1033
 2986 0246 0446     		mov	r4, r0
 2987 0248 E0B1     		cbz	r0, .L258
 2988              	.LVL371:
 2989              	.L205:
ARM GAS  /var/folders/21/t9g5rlb91ys800n5npymflf80000gn/T//cc0CxbBx.s 			page 98


1005:lvgl/src/draw/lv_draw_mask.c ****         else return LV_DRAW_MASK_RES_CHANGED;
 2990              		.loc 1 1005 9 is_stmt 1 view .LVU1034
1005:lvgl/src/draw/lv_draw_mask.c ****         else return LV_DRAW_MASK_RES_CHANGED;
 2991              		.loc 1 1005 11 is_stmt 0 view .LVU1035
 2992 024a A742     		cmp	r7, r4
 2993 024c 00F09080 		beq	.L182
1006:lvgl/src/draw/lv_draw_mask.c ****     }
 2994              		.loc 1 1006 21 view .LVU1036
 2995 0250 0227     		movs	r7, #2
 2996              	.LVL372:
1006:lvgl/src/draw/lv_draw_mask.c ****     }
 2997              		.loc 1 1006 21 view .LVU1037
 2998 0252 8DE0     		b	.L182
 2999              	.LVL373:
 3000              	.L234:
 982:lvgl/src/draw/lv_draw_mask.c ****         else if(p->cfg.end_angle > 90 &&  p->cfg.end_angle < 270 && start_angle_last > 0) start_ang
 3001              		.loc 1 982 108 view .LVU1038
 3002 0254 4FF0000A 		mov	r10, #0
 3003              	.LVL374:
 982:lvgl/src/draw/lv_draw_mask.c ****         else if(p->cfg.end_angle > 90 &&  p->cfg.end_angle < 270 && start_angle_last > 0) start_ang
 3004              		.loc 1 982 108 view .LVU1039
 3005 0258 D4E7     		b	.L199
 3006              	.LVL375:
 3007              	.L256:
 993:lvgl/src/draw/lv_draw_mask.c ****             if(res1 == LV_DRAW_MASK_RES_TRANSP) {
 3008              		.loc 1 993 13 is_stmt 1 view .LVU1040
 993:lvgl/src/draw/lv_draw_mask.c ****             if(res1 == LV_DRAW_MASK_RES_TRANSP) {
 3009              		.loc 1 993 20 is_stmt 0 view .LVU1041
 3010 025a 04F13C03 		add	r3, r4, #60
 3011 025e 0093     		str	r3, [sp]
 3012              	.LVL376:
 993:lvgl/src/draw/lv_draw_mask.c ****             if(res1 == LV_DRAW_MASK_RES_TRANSP) {
 3013              		.loc 1 993 20 view .LVU1042
 3014 0260 0FFA8AF3 		sxth	r3, r10
 3015 0264 2A46     		mov	r2, r5
 3016 0266 3146     		mov	r1, r6
 3017              	.LVL377:
 993:lvgl/src/draw/lv_draw_mask.c ****             if(res1 == LV_DRAW_MASK_RES_TRANSP) {
 3018              		.loc 1 993 20 view .LVU1043
 3019 0268 4846     		mov	r0, r9
 3020 026a FFF7FEFF 		bl	lv_draw_mask_line
 3021              	.LVL378:
 994:lvgl/src/draw/lv_draw_mask.c ****                 lv_memset_00(&mask_buf[0], tmp);
 3022              		.loc 1 994 13 is_stmt 1 view .LVU1044
 994:lvgl/src/draw/lv_draw_mask.c ****                 lv_memset_00(&mask_buf[0], tmp);
 3023              		.loc 1 994 15 is_stmt 0 view .LVU1045
 3024 026e 0746     		mov	r7, r0
 3025              	.LVL379:
 994:lvgl/src/draw/lv_draw_mask.c ****                 lv_memset_00(&mask_buf[0], tmp);
 3026              		.loc 1 994 15 view .LVU1046
 3027 0270 0028     		cmp	r0, #0
 3028 0272 D4D1     		bne	.L202
 995:lvgl/src/draw/lv_draw_mask.c ****             }
 3029              		.loc 1 995 17 is_stmt 1 view .LVU1047
 3030 0274 5146     		mov	r1, r10
 3031 0276 4846     		mov	r0, r9
 3032              	.LVL380:
ARM GAS  /var/folders/21/t9g5rlb91ys800n5npymflf80000gn/T//cc0CxbBx.s 			page 99


 995:lvgl/src/draw/lv_draw_mask.c ****             }
 3033              		.loc 1 995 17 is_stmt 0 view .LVU1048
 3034 0278 FFF7FEFF 		bl	lv_memset_00
 3035              	.LVL381:
 3036 027c CFE7     		b	.L202
 3037              	.LVL382:
 3038              	.L257:
1000:lvgl/src/draw/lv_draw_mask.c ****         res2 = lv_draw_mask_line(&mask_buf[tmp], abs_x + tmp, abs_y, len - tmp, (lv_draw_mask_line_
 3039              		.loc 1 1000 25 view .LVU1049
 3040 027e 4FF0000A 		mov	r10, #0
 3041              	.LVL383:
1000:lvgl/src/draw/lv_draw_mask.c ****         res2 = lv_draw_mask_line(&mask_buf[tmp], abs_x + tmp, abs_y, len - tmp, (lv_draw_mask_line_
 3042              		.loc 1 1000 25 view .LVU1050
 3043 0282 D2E7     		b	.L204
 3044              	.LVL384:
 3045              	.L258:
1003:lvgl/src/draw/lv_draw_mask.c ****         }
 3046              		.loc 1 1003 13 is_stmt 1 view .LVU1051
 3047 0284 A8EB0A01 		sub	r1, r8, r10
 3048 0288 4846     		mov	r0, r9
 3049              	.LVL385:
1003:lvgl/src/draw/lv_draw_mask.c ****         }
 3050              		.loc 1 1003 13 is_stmt 0 view .LVU1052
 3051 028a FFF7FEFF 		bl	lv_memset_00
 3052              	.LVL386:
 3053 028e DCE7     		b	.L205
 3054              	.LVL387:
 3055              	.L194:
1003:lvgl/src/draw/lv_draw_mask.c ****         }
 3056              		.loc 1 1003 13 view .LVU1053
 3057              	.LBE151:
 3058              	.LBB152:
1010:lvgl/src/draw/lv_draw_mask.c ****         lv_draw_mask_res_t res2 = LV_DRAW_MASK_RES_FULL_COVER;
 3059              		.loc 1 1010 9 is_stmt 1 view .LVU1054
1011:lvgl/src/draw/lv_draw_mask.c **** 
 3060              		.loc 1 1011 9 view .LVU1055
1013:lvgl/src/draw/lv_draw_mask.c ****             if(abs_y < p->cfg.vertex_p.y) res1 = LV_DRAW_MASK_RES_FULL_COVER;
 3061              		.loc 1 1013 9 view .LVU1056
1013:lvgl/src/draw/lv_draw_mask.c ****             if(abs_y < p->cfg.vertex_p.y) res1 = LV_DRAW_MASK_RES_FULL_COVER;
 3062              		.loc 1 1013 11 is_stmt 0 view .LVU1057
 3063 0290 B42A     		cmp	r2, #180
 3064 0292 05D0     		beq	.L259
1017:lvgl/src/draw/lv_draw_mask.c ****             if(abs_y < p->cfg.vertex_p.y) res1 = LV_DRAW_MASK_RES_UNKNOWN;
 3065              		.loc 1 1017 14 is_stmt 1 view .LVU1058
1017:lvgl/src/draw/lv_draw_mask.c ****             if(abs_y < p->cfg.vertex_p.y) res1 = LV_DRAW_MASK_RES_UNKNOWN;
 3066              		.loc 1 1017 16 is_stmt 0 view .LVU1059
 3067 0294 9AB9     		cbnz	r2, .L208
1018:lvgl/src/draw/lv_draw_mask.c ****             else res1 = LV_DRAW_MASK_RES_FULL_COVER;
 3068              		.loc 1 1018 13 is_stmt 1 view .LVU1060
1018:lvgl/src/draw/lv_draw_mask.c ****             else res1 = LV_DRAW_MASK_RES_FULL_COVER;
 3069              		.loc 1 1018 15 is_stmt 0 view .LVU1061
 3070 0296 AB42     		cmp	r3, r5
 3071 0298 27DD     		ble	.L242
1018:lvgl/src/draw/lv_draw_mask.c ****             else res1 = LV_DRAW_MASK_RES_FULL_COVER;
 3072              		.loc 1 1018 48 view .LVU1062
 3073 029a 4FF0030A 		mov	r10, #3
 3074 029e 03E0     		b	.L207
ARM GAS  /var/folders/21/t9g5rlb91ys800n5npymflf80000gn/T//cc0CxbBx.s 			page 100


 3075              	.L259:
1014:lvgl/src/draw/lv_draw_mask.c ****             else res1 = LV_DRAW_MASK_RES_UNKNOWN;
 3076              		.loc 1 1014 13 is_stmt 1 view .LVU1063
1014:lvgl/src/draw/lv_draw_mask.c ****             else res1 = LV_DRAW_MASK_RES_UNKNOWN;
 3077              		.loc 1 1014 15 is_stmt 0 view .LVU1064
 3078 02a0 AB42     		cmp	r3, r5
 3079 02a2 1FDD     		ble	.L241
1014:lvgl/src/draw/lv_draw_mask.c ****             else res1 = LV_DRAW_MASK_RES_UNKNOWN;
 3080              		.loc 1 1014 48 view .LVU1065
 3081 02a4 4FF0010A 		mov	r10, #1
 3082              	.LVL388:
 3083              	.L207:
1029:lvgl/src/draw/lv_draw_mask.c ****             if(abs_y < p->cfg.vertex_p.y) res2 = LV_DRAW_MASK_RES_UNKNOWN;
 3084              		.loc 1 1029 9 is_stmt 1 view .LVU1066
1029:lvgl/src/draw/lv_draw_mask.c ****             if(abs_y < p->cfg.vertex_p.y) res2 = LV_DRAW_MASK_RES_UNKNOWN;
 3085              		.loc 1 1029 18 is_stmt 0 view .LVU1067
 3086 02a8 B4F90E30 		ldrsh	r3, [r4, #14]
1029:lvgl/src/draw/lv_draw_mask.c ****             if(abs_y < p->cfg.vertex_p.y) res2 = LV_DRAW_MASK_RES_UNKNOWN;
 3087              		.loc 1 1029 11 view .LVU1068
 3088 02ac B42B     		cmp	r3, #180
 3089 02ae 25D0     		beq	.L260
1033:lvgl/src/draw/lv_draw_mask.c ****             if(abs_y < p->cfg.vertex_p.y) res2 = LV_DRAW_MASK_RES_FULL_COVER;
 3090              		.loc 1 1033 14 is_stmt 1 view .LVU1069
1033:lvgl/src/draw/lv_draw_mask.c ****             if(abs_y < p->cfg.vertex_p.y) res2 = LV_DRAW_MASK_RES_FULL_COVER;
 3091              		.loc 1 1033 16 is_stmt 0 view .LVU1070
 3092 02b0 BBBB     		cbnz	r3, .L213
1034:lvgl/src/draw/lv_draw_mask.c ****             else res2 = LV_DRAW_MASK_RES_UNKNOWN;
 3093              		.loc 1 1034 13 is_stmt 1 view .LVU1071
1034:lvgl/src/draw/lv_draw_mask.c ****             else res2 = LV_DRAW_MASK_RES_UNKNOWN;
 3094              		.loc 1 1034 39 is_stmt 0 view .LVU1072
 3095 02b2 B4F90A30 		ldrsh	r3, [r4, #10]
1034:lvgl/src/draw/lv_draw_mask.c ****             else res2 = LV_DRAW_MASK_RES_UNKNOWN;
 3096              		.loc 1 1034 15 view .LVU1073
 3097 02b6 AB42     		cmp	r3, r5
 3098 02b8 4BDD     		ble	.L246
1034:lvgl/src/draw/lv_draw_mask.c ****             else res2 = LV_DRAW_MASK_RES_UNKNOWN;
 3099              		.loc 1 1034 48 view .LVU1074
 3100 02ba 0127     		movs	r7, #1
 3101              	.LVL389:
1034:lvgl/src/draw/lv_draw_mask.c ****             else res2 = LV_DRAW_MASK_RES_UNKNOWN;
 3102              		.loc 1 1034 48 view .LVU1075
 3103 02bc 23E0     		b	.L212
 3104              	.LVL390:
 3105              	.L208:
1021:lvgl/src/draw/lv_draw_mask.c ****                 (p->cfg.start_angle > 180 && abs_y >= p->cfg.vertex_p.y)) {
 3106              		.loc 1 1021 14 is_stmt 1 view .LVU1076
1021:lvgl/src/draw/lv_draw_mask.c ****                 (p->cfg.start_angle > 180 && abs_y >= p->cfg.vertex_p.y)) {
 3107              		.loc 1 1021 16 is_stmt 0 view .LVU1077
 3108 02be B32A     		cmp	r2, #179
 3109 02c0 01DC     		bgt	.L209
1021:lvgl/src/draw/lv_draw_mask.c ****                 (p->cfg.start_angle > 180 && abs_y >= p->cfg.vertex_p.y)) {
 3110              		.loc 1 1021 43 discriminator 1 view .LVU1078
 3111 02c2 AB42     		cmp	r3, r5
 3112 02c4 14DC     		bgt	.L243
 3113              	.L209:
1021:lvgl/src/draw/lv_draw_mask.c ****                 (p->cfg.start_angle > 180 && abs_y >= p->cfg.vertex_p.y)) {
 3114              		.loc 1 1021 73 discriminator 3 view .LVU1079
ARM GAS  /var/folders/21/t9g5rlb91ys800n5npymflf80000gn/T//cc0CxbBx.s 			page 101


 3115 02c6 B42A     		cmp	r2, #180
 3116 02c8 01DD     		ble	.L210
1022:lvgl/src/draw/lv_draw_mask.c ****             res1 = LV_DRAW_MASK_RES_UNKNOWN;
 3117              		.loc 1 1022 43 view .LVU1080
 3118 02ca AB42     		cmp	r3, r5
 3119 02cc 13DD     		ble	.L244
 3120              	.L210:
1026:lvgl/src/draw/lv_draw_mask.c ****         }
 3121              		.loc 1 1026 13 is_stmt 1 view .LVU1081
1026:lvgl/src/draw/lv_draw_mask.c ****         }
 3122              		.loc 1 1026 20 is_stmt 0 view .LVU1082
 3123 02ce 04F11003 		add	r3, r4, #16
 3124 02d2 0093     		str	r3, [sp]
 3125 02d4 4346     		mov	r3, r8
 3126 02d6 2A46     		mov	r2, r5
 3127 02d8 3146     		mov	r1, r6
 3128              	.LVL391:
1026:lvgl/src/draw/lv_draw_mask.c ****         }
 3129              		.loc 1 1026 20 view .LVU1083
 3130 02da 4846     		mov	r0, r9
 3131 02dc FFF7FEFF 		bl	lv_draw_mask_line
 3132              	.LVL392:
 3133 02e0 8246     		mov	r10, r0
 3134              	.LVL393:
1026:lvgl/src/draw/lv_draw_mask.c ****         }
 3135              		.loc 1 1026 20 view .LVU1084
 3136 02e2 E1E7     		b	.L207
 3137              	.LVL394:
 3138              	.L241:
1015:lvgl/src/draw/lv_draw_mask.c ****         }
 3139              		.loc 1 1015 23 view .LVU1085
 3140 02e4 4FF0030A 		mov	r10, #3
 3141 02e8 DEE7     		b	.L207
 3142              	.L242:
1019:lvgl/src/draw/lv_draw_mask.c ****         }
 3143              		.loc 1 1019 23 view .LVU1086
 3144 02ea 4FF0010A 		mov	r10, #1
 3145 02ee DBE7     		b	.L207
 3146              	.L243:
1023:lvgl/src/draw/lv_draw_mask.c ****         }
 3147              		.loc 1 1023 18 view .LVU1087
 3148 02f0 4FF0030A 		mov	r10, #3
 3149 02f4 D8E7     		b	.L207
 3150              	.L244:
 3151 02f6 4FF0030A 		mov	r10, #3
 3152 02fa D5E7     		b	.L207
 3153              	.LVL395:
 3154              	.L260:
1030:lvgl/src/draw/lv_draw_mask.c ****             else res2 = LV_DRAW_MASK_RES_FULL_COVER;
 3155              		.loc 1 1030 13 is_stmt 1 view .LVU1088
1030:lvgl/src/draw/lv_draw_mask.c ****             else res2 = LV_DRAW_MASK_RES_FULL_COVER;
 3156              		.loc 1 1030 39 is_stmt 0 view .LVU1089
 3157 02fc B4F90A30 		ldrsh	r3, [r4, #10]
1030:lvgl/src/draw/lv_draw_mask.c ****             else res2 = LV_DRAW_MASK_RES_FULL_COVER;
 3158              		.loc 1 1030 15 view .LVU1090
 3159 0300 AB42     		cmp	r3, r5
 3160 0302 24DD     		ble	.L245
ARM GAS  /var/folders/21/t9g5rlb91ys800n5npymflf80000gn/T//cc0CxbBx.s 			page 102


1030:lvgl/src/draw/lv_draw_mask.c ****             else res2 = LV_DRAW_MASK_RES_FULL_COVER;
 3161              		.loc 1 1030 48 view .LVU1091
 3162 0304 0327     		movs	r7, #3
 3163              	.LVL396:
 3164              	.L212:
1045:lvgl/src/draw/lv_draw_mask.c ****         else if(res1 == LV_DRAW_MASK_RES_UNKNOWN && res2 == LV_DRAW_MASK_RES_UNKNOWN) return LV_DRA
 3165              		.loc 1 1045 9 is_stmt 1 view .LVU1092
1045:lvgl/src/draw/lv_draw_mask.c ****         else if(res1 == LV_DRAW_MASK_RES_UNKNOWN && res2 == LV_DRAW_MASK_RES_UNKNOWN) return LV_DRA
 3166              		.loc 1 1045 11 is_stmt 0 view .LVU1093
 3167 0306 BAF1000F 		cmp	r10, #0
 3168 030a 30D0     		beq	.L249
1045:lvgl/src/draw/lv_draw_mask.c ****         else if(res1 == LV_DRAW_MASK_RES_UNKNOWN && res2 == LV_DRAW_MASK_RES_UNKNOWN) return LV_DRA
 3169              		.loc 1 1045 44 discriminator 2 view .LVU1094
 3170 030c 87B3     		cbz	r7, .L182
1046:lvgl/src/draw/lv_draw_mask.c ****         else if(res1 == LV_DRAW_MASK_RES_FULL_COVER &&  res2 == LV_DRAW_MASK_RES_FULL_COVER) return
 3171              		.loc 1 1046 14 is_stmt 1 view .LVU1095
1046:lvgl/src/draw/lv_draw_mask.c ****         else if(res1 == LV_DRAW_MASK_RES_FULL_COVER &&  res2 == LV_DRAW_MASK_RES_FULL_COVER) return
 3172              		.loc 1 1046 16 is_stmt 0 view .LVU1096
 3173 030e BAF1030F 		cmp	r10, #3
 3174 0312 24D0     		beq	.L261
 3175              	.L216:
1047:lvgl/src/draw/lv_draw_mask.c ****         else return LV_DRAW_MASK_RES_CHANGED;
 3176              		.loc 1 1047 14 is_stmt 1 view .LVU1097
1047:lvgl/src/draw/lv_draw_mask.c ****         else return LV_DRAW_MASK_RES_CHANGED;
 3177              		.loc 1 1047 16 is_stmt 0 view .LVU1098
 3178 0314 BAF1010F 		cmp	r10, #1
 3179 0318 2ED1     		bne	.L251
1047:lvgl/src/draw/lv_draw_mask.c ****         else return LV_DRAW_MASK_RES_CHANGED;
 3180              		.loc 1 1047 53 discriminator 1 view .LVU1099
 3181 031a 012F     		cmp	r7, #1
 3182 031c 28D0     		beq	.L182
1048:lvgl/src/draw/lv_draw_mask.c ****     }
 3183              		.loc 1 1048 21 view .LVU1100
 3184 031e 0227     		movs	r7, #2
 3185              	.LVL397:
1048:lvgl/src/draw/lv_draw_mask.c ****     }
 3186              		.loc 1 1048 21 view .LVU1101
 3187 0320 26E0     		b	.L182
 3188              	.LVL398:
 3189              	.L213:
1037:lvgl/src/draw/lv_draw_mask.c ****                 (p->cfg.end_angle > 180 && abs_y >= p->cfg.vertex_p.y)) {
 3190              		.loc 1 1037 14 is_stmt 1 view .LVU1102
1037:lvgl/src/draw/lv_draw_mask.c ****                 (p->cfg.end_angle > 180 && abs_y >= p->cfg.vertex_p.y)) {
 3191              		.loc 1 1037 16 is_stmt 0 view .LVU1103
 3192 0322 B32B     		cmp	r3, #179
 3193 0324 03DC     		bgt	.L214
1037:lvgl/src/draw/lv_draw_mask.c ****                 (p->cfg.end_angle > 180 && abs_y >= p->cfg.vertex_p.y)) {
 3194              		.loc 1 1037 67 discriminator 1 view .LVU1104
 3195 0326 B4F90A20 		ldrsh	r2, [r4, #10]
1037:lvgl/src/draw/lv_draw_mask.c ****                 (p->cfg.end_angle > 180 && abs_y >= p->cfg.vertex_p.y)) {
 3196              		.loc 1 1037 41 discriminator 1 view .LVU1105
 3197 032a AA42     		cmp	r2, r5
 3198 032c 13DC     		bgt	.L247
 3199              	.L214:
1037:lvgl/src/draw/lv_draw_mask.c ****                 (p->cfg.end_angle > 180 && abs_y >= p->cfg.vertex_p.y)) {
 3200              		.loc 1 1037 71 discriminator 3 view .LVU1106
 3201 032e B42B     		cmp	r3, #180
ARM GAS  /var/folders/21/t9g5rlb91ys800n5npymflf80000gn/T//cc0CxbBx.s 			page 103


 3202 0330 03DD     		ble	.L215
1038:lvgl/src/draw/lv_draw_mask.c ****             res2 = LV_DRAW_MASK_RES_UNKNOWN;
 3203              		.loc 1 1038 68 view .LVU1107
 3204 0332 B4F90A30 		ldrsh	r3, [r4, #10]
1038:lvgl/src/draw/lv_draw_mask.c ****             res2 = LV_DRAW_MASK_RES_UNKNOWN;
 3205              		.loc 1 1038 41 view .LVU1108
 3206 0336 AB42     		cmp	r3, r5
 3207 0338 0FDD     		ble	.L248
 3208              	.L215:
1042:lvgl/src/draw/lv_draw_mask.c ****         }
 3209              		.loc 1 1042 13 is_stmt 1 view .LVU1109
1042:lvgl/src/draw/lv_draw_mask.c ****         }
 3210              		.loc 1 1042 20 is_stmt 0 view .LVU1110
 3211 033a 3C34     		adds	r4, r4, #60
 3212 033c 0094     		str	r4, [sp]
 3213 033e 4346     		mov	r3, r8
 3214 0340 2A46     		mov	r2, r5
 3215 0342 3146     		mov	r1, r6
 3216 0344 4846     		mov	r0, r9
 3217 0346 FFF7FEFF 		bl	lv_draw_mask_line
 3218              	.LVL399:
 3219 034a 0746     		mov	r7, r0
 3220              	.LVL400:
1042:lvgl/src/draw/lv_draw_mask.c ****         }
 3221              		.loc 1 1042 20 view .LVU1111
 3222 034c DBE7     		b	.L212
 3223              	.LVL401:
 3224              	.L245:
1031:lvgl/src/draw/lv_draw_mask.c ****         }
 3225              		.loc 1 1031 23 view .LVU1112
 3226 034e 0127     		movs	r7, #1
 3227              	.LVL402:
1031:lvgl/src/draw/lv_draw_mask.c ****         }
 3228              		.loc 1 1031 23 view .LVU1113
 3229 0350 D9E7     		b	.L212
 3230              	.LVL403:
 3231              	.L246:
1035:lvgl/src/draw/lv_draw_mask.c ****         }
 3232              		.loc 1 1035 23 view .LVU1114
 3233 0352 0327     		movs	r7, #3
 3234              	.LVL404:
1035:lvgl/src/draw/lv_draw_mask.c ****         }
 3235              		.loc 1 1035 23 view .LVU1115
 3236 0354 D7E7     		b	.L212
 3237              	.LVL405:
 3238              	.L247:
1039:lvgl/src/draw/lv_draw_mask.c ****         }
 3239              		.loc 1 1039 18 view .LVU1116
 3240 0356 0327     		movs	r7, #3
 3241              	.LVL406:
1039:lvgl/src/draw/lv_draw_mask.c ****         }
 3242              		.loc 1 1039 18 view .LVU1117
 3243 0358 D5E7     		b	.L212
 3244              	.LVL407:
 3245              	.L248:
1039:lvgl/src/draw/lv_draw_mask.c ****         }
 3246              		.loc 1 1039 18 view .LVU1118
ARM GAS  /var/folders/21/t9g5rlb91ys800n5npymflf80000gn/T//cc0CxbBx.s 			page 104


 3247 035a 0327     		movs	r7, #3
 3248              	.LVL408:
1039:lvgl/src/draw/lv_draw_mask.c ****         }
 3249              		.loc 1 1039 18 view .LVU1119
 3250 035c D3E7     		b	.L212
 3251              	.LVL409:
 3252              	.L261:
1046:lvgl/src/draw/lv_draw_mask.c ****         else if(res1 == LV_DRAW_MASK_RES_FULL_COVER &&  res2 == LV_DRAW_MASK_RES_FULL_COVER) return
 3253              		.loc 1 1046 50 discriminator 1 view .LVU1120
 3254 035e 032F     		cmp	r7, #3
 3255 0360 D8D1     		bne	.L216
1046:lvgl/src/draw/lv_draw_mask.c ****         else if(res1 == LV_DRAW_MASK_RES_FULL_COVER &&  res2 == LV_DRAW_MASK_RES_FULL_COVER) return
 3256              		.loc 1 1046 94 view .LVU1121
 3257 0362 0027     		movs	r7, #0
 3258              	.LVL410:
1046:lvgl/src/draw/lv_draw_mask.c ****         else if(res1 == LV_DRAW_MASK_RES_FULL_COVER &&  res2 == LV_DRAW_MASK_RES_FULL_COVER) return
 3259              		.loc 1 1046 94 view .LVU1122
 3260 0364 04E0     		b	.L182
 3261              	.LVL411:
 3262              	.L217:
1046:lvgl/src/draw/lv_draw_mask.c ****         else if(res1 == LV_DRAW_MASK_RES_FULL_COVER &&  res2 == LV_DRAW_MASK_RES_FULL_COVER) return
 3263              		.loc 1 1046 94 view .LVU1123
 3264              	.LBE152:
 3265              	.LBB153:
 927:lvgl/src/draw/lv_draw_mask.c ****         }
 3266              		.loc 1 927 20 view .LVU1124
 3267 0366 0127     		movs	r7, #1
 3268              	.LVL412:
 927:lvgl/src/draw/lv_draw_mask.c ****         }
 3269              		.loc 1 927 20 view .LVU1125
 3270 0368 02E0     		b	.L182
 3271              	.LVL413:
 3272              	.L229:
 927:lvgl/src/draw/lv_draw_mask.c ****         }
 3273              		.loc 1 927 20 view .LVU1126
 3274              	.LBE153:
 3275              	.LBB154:
 969:lvgl/src/draw/lv_draw_mask.c ****         }
 3276              		.loc 1 969 20 view .LVU1127
 3277 036a 0127     		movs	r7, #1
 3278              	.LVL414:
 969:lvgl/src/draw/lv_draw_mask.c ****         }
 3279              		.loc 1 969 20 view .LVU1128
 3280 036c 00E0     		b	.L182
 3281              	.LVL415:
 3282              	.L249:
 969:lvgl/src/draw/lv_draw_mask.c ****         }
 3283              		.loc 1 969 20 view .LVU1129
 3284              	.LBE154:
 3285              	.LBB155:
1045:lvgl/src/draw/lv_draw_mask.c ****         else if(res1 == LV_DRAW_MASK_RES_UNKNOWN && res2 == LV_DRAW_MASK_RES_UNKNOWN) return LV_DRA
 3286              		.loc 1 1045 87 view .LVU1130
 3287 036e 5746     		mov	r7, r10
 3288              	.LVL416:
 3289              	.L182:
1045:lvgl/src/draw/lv_draw_mask.c ****         else if(res1 == LV_DRAW_MASK_RES_UNKNOWN && res2 == LV_DRAW_MASK_RES_UNKNOWN) return LV_DRA
 3290              		.loc 1 1045 87 view .LVU1131
ARM GAS  /var/folders/21/t9g5rlb91ys800n5npymflf80000gn/T//cc0CxbBx.s 			page 105


 3291              	.LBE155:
1050:lvgl/src/draw/lv_draw_mask.c **** 
 3292              		.loc 1 1050 1 view .LVU1132
 3293 0370 3846     		mov	r0, r7
 3294 0372 02B0     		add	sp, sp, #8
 3295              	.LCFI12:
 3296              		.cfi_remember_state
 3297              		.cfi_def_cfa_offset 32
 3298              		@ sp needed
 3299 0374 BDE8F087 		pop	{r4, r5, r6, r7, r8, r9, r10, pc}
 3300              	.LVL417:
 3301              	.L251:
 3302              	.LCFI13:
 3303              		.cfi_restore_state
 3304              	.LBB156:
1048:lvgl/src/draw/lv_draw_mask.c ****     }
 3305              		.loc 1 1048 21 view .LVU1133
 3306 0378 0227     		movs	r7, #2
 3307              	.LVL418:
1048:lvgl/src/draw/lv_draw_mask.c ****     }
 3308              		.loc 1 1048 21 view .LVU1134
 3309 037a F9E7     		b	.L182
 3310              	.LBE156:
 3311              		.cfi_endproc
 3312              	.LFE75:
 3314              		.section	.text.lv_draw_mask_radius,"ax",%progbits
 3315              		.align	1
 3316              		.syntax unified
 3317              		.thumb
 3318              		.thumb_func
 3320              	lv_draw_mask_radius:
 3321              	.LVL419:
 3322              	.LFB76:
1055:lvgl/src/draw/lv_draw_mask.c ****     bool outer = p->cfg.outer;
 3323              		.loc 1 1055 1 is_stmt 1 view -0
 3324              		.cfi_startproc
 3325              		@ args = 4, pretend = 0, frame = 16
 3326              		@ frame_needed = 0, uses_anonymous_args = 0
1055:lvgl/src/draw/lv_draw_mask.c ****     bool outer = p->cfg.outer;
 3327              		.loc 1 1055 1 is_stmt 0 view .LVU1136
 3328 0000 2DE9F047 		push	{r4, r5, r6, r7, r8, r9, r10, lr}
 3329              	.LCFI14:
 3330              		.cfi_def_cfa_offset 32
 3331              		.cfi_offset 4, -32
 3332              		.cfi_offset 5, -28
 3333              		.cfi_offset 6, -24
 3334              		.cfi_offset 7, -20
 3335              		.cfi_offset 8, -16
 3336              		.cfi_offset 9, -12
 3337              		.cfi_offset 10, -8
 3338              		.cfi_offset 14, -4
 3339 0004 84B0     		sub	sp, sp, #16
 3340              	.LCFI15:
 3341              		.cfi_def_cfa_offset 48
 3342 0006 0646     		mov	r6, r0
 3343 0008 0F46     		mov	r7, r1
 3344 000a 1D46     		mov	r5, r3
ARM GAS  /var/folders/21/t9g5rlb91ys800n5npymflf80000gn/T//cc0CxbBx.s 			page 106


 3345 000c 0C98     		ldr	r0, [sp, #48]
 3346              	.LVL420:
1056:lvgl/src/draw/lv_draw_mask.c ****     int32_t radius = p->cfg.radius;
 3347              		.loc 1 1056 5 is_stmt 1 view .LVU1137
1056:lvgl/src/draw/lv_draw_mask.c ****     int32_t radius = p->cfg.radius;
 3348              		.loc 1 1056 24 is_stmt 0 view .LVU1138
 3349 000e 90F81280 		ldrb	r8, [r0, #18]	@ zero_extendqisi2
 3350              	.LVL421:
1057:lvgl/src/draw/lv_draw_mask.c ****     lv_area_t rect;
 3351              		.loc 1 1057 5 is_stmt 1 view .LVU1139
1057:lvgl/src/draw/lv_draw_mask.c ****     lv_area_t rect;
 3352              		.loc 1 1057 28 is_stmt 0 view .LVU1140
 3353 0012 B0F91090 		ldrsh	r9, [r0, #16]
 3354              	.LVL422:
1058:lvgl/src/draw/lv_draw_mask.c ****     lv_area_copy(&rect, &p->cfg.rect);
 3355              		.loc 1 1058 5 is_stmt 1 view .LVU1141
1059:lvgl/src/draw/lv_draw_mask.c **** 
 3356              		.loc 1 1059 5 view .LVU1142
 3357              	.LBB157:
 3358              	.LBI157:
 110:lvgl/src/draw/../misc/../font/../misc/lv_area.h **** {
 3359              		.loc 2 110 20 view .LVU1143
 3360              	.LBB158:
 112:lvgl/src/draw/../misc/../font/../misc/lv_area.h ****     dest->y1 = src->y1;
 3361              		.loc 2 112 5 view .LVU1144
 112:lvgl/src/draw/../misc/../font/../misc/lv_area.h ****     dest->y1 = src->y1;
 3362              		.loc 2 112 19 is_stmt 0 view .LVU1145
 3363 0016 B0F908C0 		ldrsh	ip, [r0, #8]
 112:lvgl/src/draw/../misc/../font/../misc/lv_area.h ****     dest->y1 = src->y1;
 3364              		.loc 2 112 14 view .LVU1146
 3365 001a ADF808C0 		strh	ip, [sp, #8]	@ movhi
 113:lvgl/src/draw/../misc/../font/../misc/lv_area.h ****     dest->x2 = src->x2;
 3366              		.loc 2 113 5 is_stmt 1 view .LVU1147
 113:lvgl/src/draw/../misc/../font/../misc/lv_area.h ****     dest->x2 = src->x2;
 3367              		.loc 2 113 19 is_stmt 0 view .LVU1148
 3368 001e B0F90A10 		ldrsh	r1, [r0, #10]
 3369              	.LVL423:
 113:lvgl/src/draw/../misc/../font/../misc/lv_area.h ****     dest->x2 = src->x2;
 3370              		.loc 2 113 14 view .LVU1149
 3371 0022 ADF80A10 		strh	r1, [sp, #10]	@ movhi
 114:lvgl/src/draw/../misc/../font/../misc/lv_area.h ****     dest->y2 = src->y2;
 3372              		.loc 2 114 5 is_stmt 1 view .LVU1150
 114:lvgl/src/draw/../misc/../font/../misc/lv_area.h ****     dest->y2 = src->y2;
 3373              		.loc 2 114 19 is_stmt 0 view .LVU1151
 3374 0026 B0F90C40 		ldrsh	r4, [r0, #12]
 114:lvgl/src/draw/../misc/../font/../misc/lv_area.h ****     dest->y2 = src->y2;
 3375              		.loc 2 114 14 view .LVU1152
 3376 002a ADF80C40 		strh	r4, [sp, #12]	@ movhi
 115:lvgl/src/draw/../misc/../font/../misc/lv_area.h **** }
 3377              		.loc 2 115 5 is_stmt 1 view .LVU1153
 115:lvgl/src/draw/../misc/../font/../misc/lv_area.h **** }
 3378              		.loc 2 115 19 is_stmt 0 view .LVU1154
 3379 002e B0F90E30 		ldrsh	r3, [r0, #14]
 3380              	.LVL424:
 115:lvgl/src/draw/../misc/../font/../misc/lv_area.h **** }
 3381              		.loc 2 115 14 view .LVU1155
 3382 0032 ADF80E30 		strh	r3, [sp, #14]	@ movhi
ARM GAS  /var/folders/21/t9g5rlb91ys800n5npymflf80000gn/T//cc0CxbBx.s 			page 107


 3383              	.LVL425:
 115:lvgl/src/draw/../misc/../font/../misc/lv_area.h **** }
 3384              		.loc 2 115 14 view .LVU1156
 3385              	.LBE158:
 3386              	.LBE157:
1061:lvgl/src/draw/lv_draw_mask.c ****         if((abs_y < rect.y1 || abs_y > rect.y2)) {
 3387              		.loc 1 1061 5 is_stmt 1 view .LVU1157
1061:lvgl/src/draw/lv_draw_mask.c ****         if((abs_y < rect.y1 || abs_y > rect.y2)) {
 3388              		.loc 1 1061 7 is_stmt 0 view .LVU1158
 3389 0036 18F00108 		ands	r8, r8, #1
 3390              	.LVL426:
1061:lvgl/src/draw/lv_draw_mask.c ****         if((abs_y < rect.y1 || abs_y > rect.y2)) {
 3391              		.loc 1 1061 7 view .LVU1159
 3392 003a 32D1     		bne	.L263
1062:lvgl/src/draw/lv_draw_mask.c ****             return LV_DRAW_MASK_RES_TRANSP;
 3393              		.loc 1 1062 9 is_stmt 1 view .LVU1160
1062:lvgl/src/draw/lv_draw_mask.c ****             return LV_DRAW_MASK_RES_TRANSP;
 3394              		.loc 1 1062 11 is_stmt 0 view .LVU1161
 3395 003c 8A42     		cmp	r2, r1
 3396 003e C0F25381 		blt	.L293
1062:lvgl/src/draw/lv_draw_mask.c ****             return LV_DRAW_MASK_RES_TRANSP;
 3397              		.loc 1 1062 29 discriminator 1 view .LVU1162
 3398 0042 9A42     		cmp	r2, r3
 3399 0044 00F35481 		bgt	.L311
 3400              	.L265:
1072:lvgl/src/draw/lv_draw_mask.c ****        (abs_y >= rect.y1 + radius && abs_y <= rect.y2 - radius)) {
 3401              		.loc 1 1072 5 is_stmt 1 view .LVU1163
1072:lvgl/src/draw/lv_draw_mask.c ****        (abs_y >= rect.y1 + radius && abs_y <= rect.y2 - radius)) {
 3402              		.loc 1 1072 26 is_stmt 0 view .LVU1164
 3403 0048 0CEB090E 		add	lr, ip, r9
1072:lvgl/src/draw/lv_draw_mask.c ****        (abs_y >= rect.y1 + radius && abs_y <= rect.y2 - radius)) {
 3404              		.loc 1 1072 7 view .LVU1165
 3405 004c 7745     		cmp	r7, lr
 3406 004e 05DB     		blt	.L266
1072:lvgl/src/draw/lv_draw_mask.c ****        (abs_y >= rect.y1 + radius && abs_y <= rect.y2 - radius)) {
 3407              		.loc 1 1072 44 discriminator 1 view .LVU1166
 3408 0050 05EB070E 		add	lr, r5, r7
1072:lvgl/src/draw/lv_draw_mask.c ****        (abs_y >= rect.y1 + radius && abs_y <= rect.y2 - radius)) {
 3409              		.loc 1 1072 61 discriminator 1 view .LVU1167
 3410 0054 A4EB090A 		sub	r10, r4, r9
1072:lvgl/src/draw/lv_draw_mask.c ****        (abs_y >= rect.y1 + radius && abs_y <= rect.y2 - radius)) {
 3411              		.loc 1 1072 35 discriminator 1 view .LVU1168
 3412 0058 D645     		cmp	lr, r10
 3413 005a 07DD     		ble	.L267
 3414              	.L266:
1073:lvgl/src/draw/lv_draw_mask.c ****         if(outer == false) {
 3415              		.loc 1 1073 26 discriminator 3 view .LVU1169
 3416 005c 01EB090E 		add	lr, r1, r9
1072:lvgl/src/draw/lv_draw_mask.c ****        (abs_y >= rect.y1 + radius && abs_y <= rect.y2 - radius)) {
 3417              		.loc 1 1072 71 discriminator 3 view .LVU1170
 3418 0060 7245     		cmp	r2, lr
 3419 0062 4ADB     		blt	.L268
1073:lvgl/src/draw/lv_draw_mask.c ****         if(outer == false) {
 3420              		.loc 1 1073 55 view .LVU1171
 3421 0064 A3EB090E 		sub	lr, r3, r9
1073:lvgl/src/draw/lv_draw_mask.c ****         if(outer == false) {
 3422              		.loc 1 1073 35 view .LVU1172
ARM GAS  /var/folders/21/t9g5rlb91ys800n5npymflf80000gn/T//cc0CxbBx.s 			page 108


 3423 0068 7245     		cmp	r2, lr
 3424 006a 46DC     		bgt	.L268
 3425              	.L267:
1074:lvgl/src/draw/lv_draw_mask.c ****             /*Remove the edges*/
 3426              		.loc 1 1074 9 is_stmt 1 view .LVU1173
1074:lvgl/src/draw/lv_draw_mask.c ****             /*Remove the edges*/
 3427              		.loc 1 1074 11 is_stmt 0 view .LVU1174
 3428 006c B8F1000F 		cmp	r8, #0
 3429 0070 28D1     		bne	.L269
 3430              	.LBB159:
1076:lvgl/src/draw/lv_draw_mask.c ****             if(last > len) return LV_DRAW_MASK_RES_TRANSP;
 3431              		.loc 1 1076 13 is_stmt 1 view .LVU1175
1076:lvgl/src/draw/lv_draw_mask.c ****             if(last > len) return LV_DRAW_MASK_RES_TRANSP;
 3432              		.loc 1 1076 21 is_stmt 0 view .LVU1176
 3433 0072 ACEB0708 		sub	r8, ip, r7
 3434              	.LVL427:
1077:lvgl/src/draw/lv_draw_mask.c ****             if(last >= 0) {
 3435              		.loc 1 1077 13 is_stmt 1 view .LVU1177
1077:lvgl/src/draw/lv_draw_mask.c ****             if(last >= 0) {
 3436              		.loc 1 1077 15 is_stmt 0 view .LVU1178
 3437 0076 4545     		cmp	r5, r8
 3438 0078 C0F23E81 		blt	.L297
1078:lvgl/src/draw/lv_draw_mask.c ****                 lv_memset_00(&mask_buf[0], last);
 3439              		.loc 1 1078 13 is_stmt 1 view .LVU1179
1078:lvgl/src/draw/lv_draw_mask.c ****                 lv_memset_00(&mask_buf[0], last);
 3440              		.loc 1 1078 15 is_stmt 0 view .LVU1180
 3441 007c B8F1000F 		cmp	r8, #0
 3442 0080 16DA     		bge	.L312
 3443              	.LVL428:
 3444              	.L270:
1082:lvgl/src/draw/lv_draw_mask.c ****             if(first <= 0) return LV_DRAW_MASK_RES_TRANSP;
 3445              		.loc 1 1082 13 is_stmt 1 view .LVU1181
1082:lvgl/src/draw/lv_draw_mask.c ****             if(first <= 0) return LV_DRAW_MASK_RES_TRANSP;
 3446              		.loc 1 1082 37 is_stmt 0 view .LVU1182
 3447 0082 E71B     		subs	r7, r4, r7
1082:lvgl/src/draw/lv_draw_mask.c ****             if(first <= 0) return LV_DRAW_MASK_RES_TRANSP;
 3448              		.loc 1 1082 21 view .LVU1183
 3449 0084 0137     		adds	r7, r7, #1
 3450              	.LVL429:
1083:lvgl/src/draw/lv_draw_mask.c ****             else if(first < len) {
 3451              		.loc 1 1083 13 is_stmt 1 view .LVU1184
1083:lvgl/src/draw/lv_draw_mask.c ****             else if(first < len) {
 3452              		.loc 1 1083 15 is_stmt 0 view .LVU1185
 3453 0086 002F     		cmp	r7, #0
 3454 0088 40F33881 		ble	.L298
1084:lvgl/src/draw/lv_draw_mask.c ****                 lv_memset_00(&mask_buf[first], len - first);
 3455              		.loc 1 1084 18 is_stmt 1 view .LVU1186
1084:lvgl/src/draw/lv_draw_mask.c ****                 lv_memset_00(&mask_buf[first], len - first);
 3456              		.loc 1 1084 20 is_stmt 0 view .LVU1187
 3457 008c BD42     		cmp	r5, r7
 3458 008e 14DC     		bgt	.L313
 3459              	.L271:
1087:lvgl/src/draw/lv_draw_mask.c ****             else return LV_DRAW_MASK_RES_CHANGED;
 3460              		.loc 1 1087 13 is_stmt 1 view .LVU1188
1087:lvgl/src/draw/lv_draw_mask.c ****             else return LV_DRAW_MASK_RES_CHANGED;
 3461              		.loc 1 1087 15 is_stmt 0 view .LVU1189
 3462 0090 B8F1000F 		cmp	r8, #0
ARM GAS  /var/folders/21/t9g5rlb91ys800n5npymflf80000gn/T//cc0CxbBx.s 			page 109


 3463 0094 40F03481 		bne	.L299
1087:lvgl/src/draw/lv_draw_mask.c ****             else return LV_DRAW_MASK_RES_CHANGED;
 3464              		.loc 1 1087 26 discriminator 1 view .LVU1190
 3465 0098 BD42     		cmp	r5, r7
 3466 009a 00F03381 		beq	.L300
1088:lvgl/src/draw/lv_draw_mask.c ****         }
 3467              		.loc 1 1088 25 view .LVU1191
 3468 009e 0220     		movs	r0, #2
 3469 00a0 23E1     		b	.L264
 3470              	.LVL430:
 3471              	.L263:
1088:lvgl/src/draw/lv_draw_mask.c ****         }
 3472              		.loc 1 1088 25 view .LVU1192
 3473              	.LBE159:
1067:lvgl/src/draw/lv_draw_mask.c ****             return LV_DRAW_MASK_RES_FULL_COVER;
 3474              		.loc 1 1067 9 is_stmt 1 view .LVU1193
1067:lvgl/src/draw/lv_draw_mask.c ****             return LV_DRAW_MASK_RES_FULL_COVER;
 3475              		.loc 1 1067 11 is_stmt 0 view .LVU1194
 3476 00a2 8A42     		cmp	r2, r1
 3477 00a4 C0F22681 		blt	.L295
1067:lvgl/src/draw/lv_draw_mask.c ****             return LV_DRAW_MASK_RES_FULL_COVER;
 3478              		.loc 1 1067 28 discriminator 1 view .LVU1195
 3479 00a8 9A42     		cmp	r2, r3
 3480 00aa CDDD     		ble	.L265
1068:lvgl/src/draw/lv_draw_mask.c ****         }
 3481              		.loc 1 1068 20 view .LVU1196
 3482 00ac 0120     		movs	r0, #1
 3483              	.LVL431:
1068:lvgl/src/draw/lv_draw_mask.c ****         }
 3484              		.loc 1 1068 20 view .LVU1197
 3485 00ae 1CE1     		b	.L264
 3486              	.LVL432:
 3487              	.L312:
 3488              	.LBB160:
1079:lvgl/src/draw/lv_draw_mask.c ****             }
 3489              		.loc 1 1079 17 is_stmt 1 view .LVU1198
 3490 00b0 4146     		mov	r1, r8
 3491 00b2 3046     		mov	r0, r6
 3492              	.LVL433:
1079:lvgl/src/draw/lv_draw_mask.c ****             }
 3493              		.loc 1 1079 17 is_stmt 0 view .LVU1199
 3494 00b4 FFF7FEFF 		bl	lv_memset_00
 3495              	.LVL434:
1079:lvgl/src/draw/lv_draw_mask.c ****             }
 3496              		.loc 1 1079 17 view .LVU1200
 3497 00b8 E3E7     		b	.L270
 3498              	.LVL435:
 3499              	.L313:
1085:lvgl/src/draw/lv_draw_mask.c ****             }
 3500              		.loc 1 1085 17 is_stmt 1 view .LVU1201
 3501 00ba E91B     		subs	r1, r5, r7
 3502 00bc F019     		adds	r0, r6, r7
 3503 00be FFF7FEFF 		bl	lv_memset_00
 3504              	.LVL436:
 3505 00c2 E5E7     		b	.L271
 3506              	.LVL437:
 3507              	.L269:
ARM GAS  /var/folders/21/t9g5rlb91ys800n5npymflf80000gn/T//cc0CxbBx.s 			page 110


1085:lvgl/src/draw/lv_draw_mask.c ****             }
 3508              		.loc 1 1085 17 is_stmt 0 view .LVU1202
 3509              	.LBE160:
 3510              	.LBB161:
1091:lvgl/src/draw/lv_draw_mask.c ****             if(first < 0) first = 0;
 3511              		.loc 1 1091 13 is_stmt 1 view .LVU1203
1092:lvgl/src/draw/lv_draw_mask.c ****             if(first <= len) {
 3512              		.loc 1 1092 13 view .LVU1204
1092:lvgl/src/draw/lv_draw_mask.c ****             if(first <= len) {
 3513              		.loc 1 1092 15 is_stmt 0 view .LVU1205
 3514 00c4 BCEB070C 		subs	ip, ip, r7
 3515              	.LVL438:
1092:lvgl/src/draw/lv_draw_mask.c ****             if(first <= len) {
 3516              		.loc 1 1092 15 view .LVU1206
 3517 00c8 0FD4     		bmi	.L314
 3518              	.LVL439:
 3519              	.L272:
1093:lvgl/src/draw/lv_draw_mask.c ****                 int32_t last = rect.x2 - abs_x - first + 1;
 3520              		.loc 1 1093 13 is_stmt 1 view .LVU1207
1093:lvgl/src/draw/lv_draw_mask.c ****                 int32_t last = rect.x2 - abs_x - first + 1;
 3521              		.loc 1 1093 15 is_stmt 0 view .LVU1208
 3522 00ca 6545     		cmp	r5, ip
 3523 00cc 0BDB     		blt	.L273
 3524              	.LBB162:
1094:lvgl/src/draw/lv_draw_mask.c ****                 if(first + last > len) last = len - first;
 3525              		.loc 1 1094 17 is_stmt 1 view .LVU1209
1094:lvgl/src/draw/lv_draw_mask.c ****                 if(first + last > len) last = len - first;
 3526              		.loc 1 1094 40 is_stmt 0 view .LVU1210
 3527 00ce E11B     		subs	r1, r4, r7
1094:lvgl/src/draw/lv_draw_mask.c ****                 if(first + last > len) last = len - first;
 3528              		.loc 1 1094 48 view .LVU1211
 3529 00d0 A1EB0C01 		sub	r1, r1, ip
1094:lvgl/src/draw/lv_draw_mask.c ****                 if(first + last > len) last = len - first;
 3530              		.loc 1 1094 25 view .LVU1212
 3531 00d4 0131     		adds	r1, r1, #1
 3532              	.LVL440:
1095:lvgl/src/draw/lv_draw_mask.c ****                 if(last >= 0) {
 3533              		.loc 1 1095 17 is_stmt 1 view .LVU1213
1095:lvgl/src/draw/lv_draw_mask.c ****                 if(last >= 0) {
 3534              		.loc 1 1095 26 is_stmt 0 view .LVU1214
 3535 00d6 0CEB0103 		add	r3, ip, r1
1095:lvgl/src/draw/lv_draw_mask.c ****                 if(last >= 0) {
 3536              		.loc 1 1095 19 view .LVU1215
 3537 00da 9D42     		cmp	r5, r3
 3538 00dc 01DA     		bge	.L274
1095:lvgl/src/draw/lv_draw_mask.c ****                 if(last >= 0) {
 3539              		.loc 1 1095 40 is_stmt 1 discriminator 1 view .LVU1216
1095:lvgl/src/draw/lv_draw_mask.c ****                 if(last >= 0) {
 3540              		.loc 1 1095 45 is_stmt 0 discriminator 1 view .LVU1217
 3541 00de A5EB0C01 		sub	r1, r5, ip
 3542              	.LVL441:
 3543              	.L274:
1096:lvgl/src/draw/lv_draw_mask.c ****                     lv_memset_00(&mask_buf[first], last);
 3544              		.loc 1 1096 17 is_stmt 1 view .LVU1218
1096:lvgl/src/draw/lv_draw_mask.c ****                     lv_memset_00(&mask_buf[first], last);
 3545              		.loc 1 1096 19 is_stmt 0 view .LVU1219
 3546 00e2 0029     		cmp	r1, #0
ARM GAS  /var/folders/21/t9g5rlb91ys800n5npymflf80000gn/T//cc0CxbBx.s 			page 111


 3547 00e4 04DA     		bge	.L315
 3548              	.LVL442:
 3549              	.L273:
1096:lvgl/src/draw/lv_draw_mask.c ****                     lv_memset_00(&mask_buf[first], last);
 3550              		.loc 1 1096 19 view .LVU1220
 3551              	.LBE162:
 3552              	.LBE161:
1101:lvgl/src/draw/lv_draw_mask.c ****     }
 3553              		.loc 1 1101 9 is_stmt 1 view .LVU1221
1101:lvgl/src/draw/lv_draw_mask.c ****     }
 3554              		.loc 1 1101 16 is_stmt 0 view .LVU1222
 3555 00e6 0220     		movs	r0, #2
 3556 00e8 FFE0     		b	.L264
 3557              	.LVL443:
 3558              	.L314:
 3559              	.LBB164:
1092:lvgl/src/draw/lv_draw_mask.c ****             if(first <= len) {
 3560              		.loc 1 1092 33 view .LVU1223
 3561 00ea 4FF0000C 		mov	ip, #0
 3562              	.LVL444:
1092:lvgl/src/draw/lv_draw_mask.c ****             if(first <= len) {
 3563              		.loc 1 1092 33 view .LVU1224
 3564 00ee ECE7     		b	.L272
 3565              	.LVL445:
 3566              	.L315:
 3567              	.LBB163:
1097:lvgl/src/draw/lv_draw_mask.c ****                 }
 3568              		.loc 1 1097 21 is_stmt 1 view .LVU1225
 3569 00f0 06EB0C00 		add	r0, r6, ip
 3570              	.LVL446:
1097:lvgl/src/draw/lv_draw_mask.c ****                 }
 3571              		.loc 1 1097 21 is_stmt 0 view .LVU1226
 3572 00f4 FFF7FEFF 		bl	lv_memset_00
 3573              	.LVL447:
1097:lvgl/src/draw/lv_draw_mask.c ****                 }
 3574              		.loc 1 1097 21 view .LVU1227
 3575 00f8 F5E7     		b	.L273
 3576              	.LVL448:
 3577              	.L268:
1097:lvgl/src/draw/lv_draw_mask.c ****                 }
 3578              		.loc 1 1097 21 view .LVU1228
 3579              	.LBE163:
 3580              	.LBE164:
1110:lvgl/src/draw/lv_draw_mask.c ****     int32_t w = lv_area_get_width(&rect);
 3581              		.loc 1 1110 5 is_stmt 1 view .LVU1229
1110:lvgl/src/draw/lv_draw_mask.c ****     int32_t w = lv_area_get_width(&rect);
 3582              		.loc 1 1110 13 is_stmt 0 view .LVU1230
 3583 00fa ACEB0707 		sub	r7, ip, r7
 3584              	.LVL449:
1111:lvgl/src/draw/lv_draw_mask.c ****     int32_t h = lv_area_get_height(&rect);
 3585              		.loc 1 1111 5 is_stmt 1 view .LVU1231
 3586              	.LBB165:
 3587              	.LBI165:
 123:lvgl/src/draw/../misc/../font/../misc/lv_area.h **** {
 3588              		.loc 2 123 26 view .LVU1232
 3589              	.LBB166:
 3590              		.loc 2 125 5 view .LVU1233
ARM GAS  /var/folders/21/t9g5rlb91ys800n5npymflf80000gn/T//cc0CxbBx.s 			page 112


 3591              		.loc 2 125 31 is_stmt 0 view .LVU1234
 3592 00fe A4B2     		uxth	r4, r4
 3593              		.loc 2 125 44 view .LVU1235
 3594 0100 1FFA8CFC 		uxth	ip, ip
 3595              		.loc 2 125 36 view .LVU1236
 3596 0104 A4EB0C04 		sub	r4, r4, ip
 3597 0108 A4B2     		uxth	r4, r4
 3598              		.loc 2 125 49 view .LVU1237
 3599 010a 0134     		adds	r4, r4, #1
 3600 010c A4B2     		uxth	r4, r4
 3601              	.LVL450:
 3602              		.loc 2 125 49 view .LVU1238
 3603              	.LBE166:
 3604              	.LBE165:
1112:lvgl/src/draw/lv_draw_mask.c ****     abs_x -= rect.x1;
 3605              		.loc 1 1112 5 is_stmt 1 view .LVU1239
 3606              	.LBB167:
 3607              	.LBI167:
 126:lvgl/src/draw/../misc/../font/../misc/lv_area.h **** }
 127:lvgl/src/draw/../misc/../font/../misc/lv_area.h **** 
 128:lvgl/src/draw/../misc/../font/../misc/lv_area.h **** /**
 129:lvgl/src/draw/../misc/../font/../misc/lv_area.h ****  * Get the height of an area
 130:lvgl/src/draw/../misc/../font/../misc/lv_area.h ****  * @param area_p pointer to an area
 131:lvgl/src/draw/../misc/../font/../misc/lv_area.h ****  * @return the height of the area (if y1 == y2 -> height = 1)
 132:lvgl/src/draw/../misc/../font/../misc/lv_area.h ****  */
 133:lvgl/src/draw/../misc/../font/../misc/lv_area.h **** static inline lv_coord_t lv_area_get_height(const lv_area_t * area_p)
 3608              		.loc 2 133 26 view .LVU1240
 3609              	.LBB168:
 134:lvgl/src/draw/../misc/../font/../misc/lv_area.h **** {
 135:lvgl/src/draw/../misc/../font/../misc/lv_area.h ****     return (lv_coord_t)(area_p->y2 - area_p->y1 + 1);
 3610              		.loc 2 135 5 view .LVU1241
 3611              		.loc 2 135 31 is_stmt 0 view .LVU1242
 3612 010e 9BB2     		uxth	r3, r3
 3613              		.loc 2 135 44 view .LVU1243
 3614 0110 89B2     		uxth	r1, r1
 3615              		.loc 2 135 36 view .LVU1244
 3616 0112 5B1A     		subs	r3, r3, r1
 3617 0114 9BB2     		uxth	r3, r3
 3618              		.loc 2 135 49 view .LVU1245
 3619 0116 0133     		adds	r3, r3, #1
 3620 0118 9BB2     		uxth	r3, r3
 3621              	.LVL451:
 3622              		.loc 2 135 49 view .LVU1246
 3623              	.LBE168:
 3624              	.LBE167:
1113:lvgl/src/draw/lv_draw_mask.c ****     abs_y -= rect.y1;
 3625              		.loc 1 1113 5 is_stmt 1 view .LVU1247
1114:lvgl/src/draw/lv_draw_mask.c **** 
 3626              		.loc 1 1114 5 view .LVU1248
1114:lvgl/src/draw/lv_draw_mask.c **** 
 3627              		.loc 1 1114 11 is_stmt 0 view .LVU1249
 3628 011a 92B2     		uxth	r2, r2
1114:lvgl/src/draw/lv_draw_mask.c **** 
 3629              		.loc 1 1114 11 view .LVU1250
 3630 011c A2EB010C 		sub	ip, r2, r1
 3631 0120 1FFA8CFE 		uxth	lr, ip
 3632 0124 0FFA8CFC 		sxth	ip, ip
ARM GAS  /var/folders/21/t9g5rlb91ys800n5npymflf80000gn/T//cc0CxbBx.s 			page 113


 3633              	.LVL452:
1116:lvgl/src/draw/lv_draw_mask.c ****     lv_coord_t x_start;
 3634              		.loc 1 1116 5 is_stmt 1 view .LVU1251
1117:lvgl/src/draw/lv_draw_mask.c ****     lv_coord_t cir_y;
 3635              		.loc 1 1117 5 view .LVU1252
1118:lvgl/src/draw/lv_draw_mask.c ****     if(abs_y < radius) {
 3636              		.loc 1 1118 5 view .LVU1253
1119:lvgl/src/draw/lv_draw_mask.c ****         cir_y = radius - abs_y - 1;
 3637              		.loc 1 1119 5 view .LVU1254
1119:lvgl/src/draw/lv_draw_mask.c ****         cir_y = radius - abs_y - 1;
 3638              		.loc 1 1119 7 is_stmt 0 view .LVU1255
 3639 0128 E145     		cmp	r9, ip
 3640 012a 28DD     		ble	.L275
1120:lvgl/src/draw/lv_draw_mask.c ****     }
 3641              		.loc 1 1120 9 is_stmt 1 view .LVU1256
1120:lvgl/src/draw/lv_draw_mask.c ****     }
 3642              		.loc 1 1120 24 is_stmt 0 view .LVU1257
 3643 012c 891A     		subs	r1, r1, r2
 3644 012e 4944     		add	r1, r1, r9
 3645 0130 89B2     		uxth	r1, r1
1120:lvgl/src/draw/lv_draw_mask.c ****     }
 3646              		.loc 1 1120 32 view .LVU1258
 3647 0132 0139     		subs	r1, r1, #1
1120:lvgl/src/draw/lv_draw_mask.c ****     }
 3648              		.loc 1 1120 15 view .LVU1259
 3649 0134 09B2     		sxth	r1, r1
 3650              	.LVL453:
 3651              	.L276:
1125:lvgl/src/draw/lv_draw_mask.c ****     lv_coord_t cir_x_right = k + w - radius + x_start;
 3652              		.loc 1 1125 5 is_stmt 1 view .LVU1260
1125:lvgl/src/draw/lv_draw_mask.c ****     lv_coord_t cir_x_right = k + w - radius + x_start;
 3653              		.loc 1 1125 25 is_stmt 0 view .LVU1261
 3654 0136 01AB     		add	r3, sp, #4
 3655 0138 0DF10602 		add	r2, sp, #6
 3656 013c 4069     		ldr	r0, [r0, #20]
 3657              	.LVL454:
1125:lvgl/src/draw/lv_draw_mask.c ****     lv_coord_t cir_x_right = k + w - radius + x_start;
 3658              		.loc 1 1125 25 view .LVU1262
 3659 013e FFF7FEFF 		bl	get_next_line
 3660              	.LVL455:
1126:lvgl/src/draw/lv_draw_mask.c ****     lv_coord_t cir_x_left = k + radius - x_start - 1;
 3661              		.loc 1 1126 5 is_stmt 1 view .LVU1263
1126:lvgl/src/draw/lv_draw_mask.c ****     lv_coord_t cir_x_left = k + radius - x_start - 1;
 3662              		.loc 1 1126 32 is_stmt 0 view .LVU1264
 3663 0142 BFB2     		uxth	r7, r7
 3664              	.LVL456:
1126:lvgl/src/draw/lv_draw_mask.c ****     lv_coord_t cir_x_left = k + radius - x_start - 1;
 3665              		.loc 1 1126 32 view .LVU1265
 3666 0144 07EB040C 		add	ip, r7, r4
 3667 0148 1FFA8CFC 		uxth	ip, ip
1126:lvgl/src/draw/lv_draw_mask.c ****     lv_coord_t cir_x_left = k + radius - x_start - 1;
 3668              		.loc 1 1126 36 view .LVU1266
 3669 014c 1FFA89F9 		uxth	r9, r9
 3670              	.LVL457:
1126:lvgl/src/draw/lv_draw_mask.c ****     lv_coord_t cir_x_left = k + radius - x_start - 1;
 3671              		.loc 1 1126 36 view .LVU1267
 3672 0150 ACEB090C 		sub	ip, ip, r9
ARM GAS  /var/folders/21/t9g5rlb91ys800n5npymflf80000gn/T//cc0CxbBx.s 			page 114


1126:lvgl/src/draw/lv_draw_mask.c ****     lv_coord_t cir_x_left = k + radius - x_start - 1;
 3673              		.loc 1 1126 45 view .LVU1268
 3674 0154 BDF80430 		ldrh	r3, [sp, #4]
 3675 0158 13FA8CFC 		uxtah	ip, r3, ip
 3676 015c 1FFA8CF1 		uxth	r1, ip
1126:lvgl/src/draw/lv_draw_mask.c ****     lv_coord_t cir_x_left = k + radius - x_start - 1;
 3677              		.loc 1 1126 16 view .LVU1269
 3678 0160 0FFA8CFC 		sxth	ip, ip
 3679              	.LVL458:
1127:lvgl/src/draw/lv_draw_mask.c ****     lv_coord_t i;
 3680              		.loc 1 1127 5 is_stmt 1 view .LVU1270
1127:lvgl/src/draw/lv_draw_mask.c ****     lv_coord_t i;
 3681              		.loc 1 1127 31 is_stmt 0 view .LVU1271
 3682 0164 07EB0904 		add	r4, r7, r9
 3683              	.LVL459:
1127:lvgl/src/draw/lv_draw_mask.c ****     lv_coord_t i;
 3684              		.loc 1 1127 31 view .LVU1272
 3685 0168 A4B2     		uxth	r4, r4
1127:lvgl/src/draw/lv_draw_mask.c ****     lv_coord_t i;
 3686              		.loc 1 1127 40 view .LVU1273
 3687 016a E41A     		subs	r4, r4, r3
 3688 016c A4B2     		uxth	r4, r4
1127:lvgl/src/draw/lv_draw_mask.c ****     lv_coord_t i;
 3689              		.loc 1 1127 50 view .LVU1274
 3690 016e 013C     		subs	r4, r4, #1
1127:lvgl/src/draw/lv_draw_mask.c ****     lv_coord_t i;
 3691              		.loc 1 1127 16 view .LVU1275
 3692 0170 24B2     		sxth	r4, r4
 3693              	.LVL460:
1128:lvgl/src/draw/lv_draw_mask.c **** 
 3694              		.loc 1 1128 5 is_stmt 1 view .LVU1276
1130:lvgl/src/draw/lv_draw_mask.c ****         for(i = 0; i < aa_len; i++) {
 3695              		.loc 1 1130 5 view .LVU1277
1130:lvgl/src/draw/lv_draw_mask.c ****         for(i = 0; i < aa_len; i++) {
 3696              		.loc 1 1130 7 is_stmt 0 view .LVU1278
 3697 0172 B8F1000F 		cmp	r8, #0
 3698 0176 40F09780 		bne	.L302
1131:lvgl/src/draw/lv_draw_mask.c ****             lv_opa_t opa = aa_opa[aa_len - i - 1];
 3699              		.loc 1 1131 15 view .LVU1279
 3700 017a 0022     		movs	r2, #0
 3701 017c 0FE0     		b	.L278
 3702              	.LVL461:
 3703              	.L275:
1123:lvgl/src/draw/lv_draw_mask.c ****     }
 3704              		.loc 1 1123 9 is_stmt 1 view .LVU1280
1123:lvgl/src/draw/lv_draw_mask.c ****     }
 3705              		.loc 1 1123 23 is_stmt 0 view .LVU1281
 3706 017e A9EB0303 		sub	r3, r9, r3
 3707              	.LVL462:
1123:lvgl/src/draw/lv_draw_mask.c ****     }
 3708              		.loc 1 1123 23 view .LVU1282
 3709 0182 0EEB0301 		add	r1, lr, r3
 3710              	.LVL463:
1123:lvgl/src/draw/lv_draw_mask.c ****     }
 3711              		.loc 1 1123 15 view .LVU1283
 3712 0186 09B2     		sxth	r1, r1
 3713              	.LVL464:
ARM GAS  /var/folders/21/t9g5rlb91ys800n5npymflf80000gn/T//cc0CxbBx.s 			page 115


1123:lvgl/src/draw/lv_draw_mask.c ****     }
 3714              		.loc 1 1123 15 view .LVU1284
 3715 0188 D5E7     		b	.L276
 3716              	.LVL465:
 3717              	.L303:
 3718              	.LBB169:
 3719              	.LBB170:
 3720              	.LBB171:
1520:lvgl/src/draw/lv_draw_mask.c ****     if(mask_new <= LV_OPA_MIN) return 0;
 3721              		.loc 1 1520 39 view .LVU1285
 3722 018a 7346     		mov	r3, lr
 3723              	.LVL466:
1520:lvgl/src/draw/lv_draw_mask.c ****     if(mask_new <= LV_OPA_MIN) return 0;
 3724              		.loc 1 1520 39 view .LVU1286
 3725 018c 22E0     		b	.L280
 3726              	.LVL467:
 3727              	.L304:
1521:lvgl/src/draw/lv_draw_mask.c **** 
 3728              		.loc 1 1521 39 view .LVU1287
 3729 018e 0023     		movs	r3, #0
 3730              	.LVL468:
1521:lvgl/src/draw/lv_draw_mask.c **** 
 3731              		.loc 1 1521 39 view .LVU1288
 3732 0190 20E0     		b	.L280
 3733              	.LVL469:
 3734              	.L305:
1521:lvgl/src/draw/lv_draw_mask.c **** 
 3735              		.loc 1 1521 39 view .LVU1289
 3736              	.LBE171:
 3737              	.LBE170:
 3738              	.LBB173:
 3739              	.LBB174:
 3740 0192 4FF0000E 		mov	lr, #0
 3741              	.LVL470:
 3742              	.L282:
1521:lvgl/src/draw/lv_draw_mask.c **** 
 3743              		.loc 1 1521 39 view .LVU1290
 3744              	.LBE174:
 3745              	.LBE173:
1137:lvgl/src/draw/lv_draw_mask.c ****             }
 3746              		.loc 1 1137 42 view .LVU1291
 3747 0196 06F801E0 		strb	lr, [r6, r1]
 3748              	.L281:
1137:lvgl/src/draw/lv_draw_mask.c ****             }
 3749              		.loc 1 1137 42 view .LVU1292
 3750              	.LBE169:
1131:lvgl/src/draw/lv_draw_mask.c ****             lv_opa_t opa = aa_opa[aa_len - i - 1];
 3751              		.loc 1 1131 33 is_stmt 1 discriminator 2 view .LVU1293
 3752 019a 0132     		adds	r2, r2, #1
 3753              	.LVL471:
1131:lvgl/src/draw/lv_draw_mask.c ****             lv_opa_t opa = aa_opa[aa_len - i - 1];
 3754              		.loc 1 1131 33 is_stmt 0 discriminator 2 view .LVU1294
 3755 019c 12B2     		sxth	r2, r2
 3756              	.LVL472:
 3757              	.L278:
1131:lvgl/src/draw/lv_draw_mask.c ****             lv_opa_t opa = aa_opa[aa_len - i - 1];
 3758              		.loc 1 1131 22 is_stmt 1 discriminator 1 view .LVU1295
ARM GAS  /var/folders/21/t9g5rlb91ys800n5npymflf80000gn/T//cc0CxbBx.s 			page 116


 3759 019e BDF90630 		ldrsh	r3, [sp, #6]
 3760 01a2 9342     		cmp	r3, r2
 3761 01a4 29DD     		ble	.L316
 3762              	.LBB178:
1132:lvgl/src/draw/lv_draw_mask.c ****             if(cir_x_right + i >= 0 && cir_x_right + i < len) {
 3763              		.loc 1 1132 13 view .LVU1296
1132:lvgl/src/draw/lv_draw_mask.c ****             if(cir_x_right + i >= 0 && cir_x_right + i < len) {
 3764              		.loc 1 1132 42 is_stmt 0 view .LVU1297
 3765 01a6 1146     		mov	r1, r2
 3766 01a8 9B1A     		subs	r3, r3, r2
1132:lvgl/src/draw/lv_draw_mask.c ****             if(cir_x_right + i >= 0 && cir_x_right + i < len) {
 3767              		.loc 1 1132 34 view .LVU1298
 3768 01aa 013B     		subs	r3, r3, #1
1132:lvgl/src/draw/lv_draw_mask.c ****             if(cir_x_right + i >= 0 && cir_x_right + i < len) {
 3769              		.loc 1 1132 22 view .LVU1299
 3770 01ac 10F803E0 		ldrb	lr, [r0, r3]	@ zero_extendqisi2
 3771              	.LVL473:
1133:lvgl/src/draw/lv_draw_mask.c ****                 mask_buf[cir_x_right + i] = mask_mix(opa, mask_buf[cir_x_right + i]);
 3772              		.loc 1 1133 13 is_stmt 1 view .LVU1300
1133:lvgl/src/draw/lv_draw_mask.c ****                 mask_buf[cir_x_right + i] = mask_mix(opa, mask_buf[cir_x_right + i]);
 3773              		.loc 1 1133 15 is_stmt 0 view .LVU1301
 3774 01b0 1CEB0207 		adds	r7, ip, r2
 3775 01b4 0FD4     		bmi	.L279
1133:lvgl/src/draw/lv_draw_mask.c ****                 mask_buf[cir_x_right + i] = mask_mix(opa, mask_buf[cir_x_right + i]);
 3776              		.loc 1 1133 37 discriminator 1 view .LVU1302
 3777 01b6 AF42     		cmp	r7, r5
 3778 01b8 0DDA     		bge	.L279
1134:lvgl/src/draw/lv_draw_mask.c ****             }
 3779              		.loc 1 1134 17 is_stmt 1 view .LVU1303
1134:lvgl/src/draw/lv_draw_mask.c ****             }
 3780              		.loc 1 1134 45 is_stmt 0 view .LVU1304
 3781 01ba F35D     		ldrb	r3, [r6, r7]	@ zero_extendqisi2
 3782              	.LVL474:
 3783              	.LBB176:
 3784              	.LBI170:
1518:lvgl/src/draw/lv_draw_mask.c **** {
 3785              		.loc 1 1518 46 is_stmt 1 view .LVU1305
 3786              	.LBB172:
1520:lvgl/src/draw/lv_draw_mask.c ****     if(mask_new <= LV_OPA_MIN) return 0;
 3787              		.loc 1 1520 5 view .LVU1306
1520:lvgl/src/draw/lv_draw_mask.c ****     if(mask_new <= LV_OPA_MIN) return 0;
 3788              		.loc 1 1520 7 is_stmt 0 view .LVU1307
 3789 01bc FC2B     		cmp	r3, #252
 3790 01be E4D8     		bhi	.L303
1521:lvgl/src/draw/lv_draw_mask.c **** 
 3791              		.loc 1 1521 5 is_stmt 1 view .LVU1308
1521:lvgl/src/draw/lv_draw_mask.c **** 
 3792              		.loc 1 1521 7 is_stmt 0 view .LVU1309
 3793 01c0 022B     		cmp	r3, #2
 3794 01c2 E4D9     		bls	.L304
 3795              		.loc 1 1523 5 is_stmt 1 view .LVU1310
 3796              		.loc 1 1523 12 is_stmt 0 view .LVU1311
 3797 01c4 03FB0EF3 		mul	r3, r3, lr
 3798              	.LVL475:
 3799              		.loc 1 1523 12 view .LVU1312
 3800 01c8 03EB0328 		add	r8, r3, r3, lsl #8
 3801 01cc 03EBC813 		add	r3, r3, r8, lsl #7
ARM GAS  /var/folders/21/t9g5rlb91ys800n5npymflf80000gn/T//cc0CxbBx.s 			page 117


 3802 01d0 C3F3C753 		ubfx	r3, r3, #23, #8
 3803              	.L280:
 3804              	.LVL476:
 3805              		.loc 1 1523 12 view .LVU1313
 3806              	.LBE172:
 3807              	.LBE176:
1134:lvgl/src/draw/lv_draw_mask.c ****             }
 3808              		.loc 1 1134 43 view .LVU1314
 3809 01d4 F355     		strb	r3, [r6, r7]
 3810              	.L279:
1136:lvgl/src/draw/lv_draw_mask.c ****                 mask_buf[cir_x_left - i] = mask_mix(opa, mask_buf[cir_x_left - i]);
 3811              		.loc 1 1136 13 is_stmt 1 view .LVU1315
1136:lvgl/src/draw/lv_draw_mask.c ****                 mask_buf[cir_x_left - i] = mask_mix(opa, mask_buf[cir_x_left - i]);
 3812              		.loc 1 1136 15 is_stmt 0 view .LVU1316
 3813 01d6 611A     		subs	r1, r4, r1
 3814 01d8 DFD4     		bmi	.L281
1136:lvgl/src/draw/lv_draw_mask.c ****                 mask_buf[cir_x_left - i] = mask_mix(opa, mask_buf[cir_x_left - i]);
 3815              		.loc 1 1136 36 discriminator 1 view .LVU1317
 3816 01da A942     		cmp	r1, r5
 3817 01dc DDDA     		bge	.L281
1137:lvgl/src/draw/lv_draw_mask.c ****             }
 3818              		.loc 1 1137 17 is_stmt 1 view .LVU1318
1137:lvgl/src/draw/lv_draw_mask.c ****             }
 3819              		.loc 1 1137 44 is_stmt 0 view .LVU1319
 3820 01de 735C     		ldrb	r3, [r6, r1]	@ zero_extendqisi2
 3821              	.LVL477:
 3822              	.LBB177:
 3823              	.LBI173:
1518:lvgl/src/draw/lv_draw_mask.c **** {
 3824              		.loc 1 1518 46 is_stmt 1 view .LVU1320
 3825              	.LBB175:
1520:lvgl/src/draw/lv_draw_mask.c ****     if(mask_new <= LV_OPA_MIN) return 0;
 3826              		.loc 1 1520 5 view .LVU1321
1520:lvgl/src/draw/lv_draw_mask.c ****     if(mask_new <= LV_OPA_MIN) return 0;
 3827              		.loc 1 1520 7 is_stmt 0 view .LVU1322
 3828 01e0 FC2B     		cmp	r3, #252
 3829 01e2 D8D8     		bhi	.L282
1521:lvgl/src/draw/lv_draw_mask.c **** 
 3830              		.loc 1 1521 5 is_stmt 1 view .LVU1323
1521:lvgl/src/draw/lv_draw_mask.c **** 
 3831              		.loc 1 1521 7 is_stmt 0 view .LVU1324
 3832 01e4 022B     		cmp	r3, #2
 3833 01e6 D4D9     		bls	.L305
 3834              		.loc 1 1523 5 is_stmt 1 view .LVU1325
 3835              		.loc 1 1523 12 is_stmt 0 view .LVU1326
 3836 01e8 03FB0EF3 		mul	r3, r3, lr
 3837              	.LVL478:
 3838              		.loc 1 1523 12 view .LVU1327
 3839 01ec 03EB0327 		add	r7, r3, r3, lsl #8
 3840 01f0 03EBC713 		add	r3, r3, r7, lsl #7
 3841 01f4 C3F3C75E 		ubfx	lr, r3, #23, #8
 3842              	.LVL479:
 3843              		.loc 1 1523 12 view .LVU1328
 3844 01f8 CDE7     		b	.L282
 3845              	.LVL480:
 3846              	.L316:
 3847              		.loc 1 1523 12 view .LVU1329
ARM GAS  /var/folders/21/t9g5rlb91ys800n5npymflf80000gn/T//cc0CxbBx.s 			page 118


 3848              	.LBE175:
 3849              	.LBE177:
 3850              	.LBE178:
1142:lvgl/src/draw/lv_draw_mask.c ****         lv_memset_00(&mask_buf[cir_x_right], len - cir_x_right);
 3851              		.loc 1 1142 9 is_stmt 1 view .LVU1330
1142:lvgl/src/draw/lv_draw_mask.c ****         lv_memset_00(&mask_buf[cir_x_right], len - cir_x_right);
 3852              		.loc 1 1142 23 is_stmt 0 view .LVU1331
 3853 01fa 6244     		add	r2, r2, ip
 3854              	.LVL481:
1142:lvgl/src/draw/lv_draw_mask.c ****         lv_memset_00(&mask_buf[cir_x_right], len - cir_x_right);
 3855              		.loc 1 1142 23 view .LVU1332
 3856 01fc AA42     		cmp	r2, r5
 3857 01fe A8BF     		it	ge
 3858 0200 2A46     		movge	r2, r5
 3859 0202 22EAE272 		bic	r2, r2, r2, asr #31
1142:lvgl/src/draw/lv_draw_mask.c ****         lv_memset_00(&mask_buf[cir_x_right], len - cir_x_right);
 3860              		.loc 1 1142 21 view .LVU1333
 3861 0206 12B2     		sxth	r2, r2
 3862              	.LVL482:
1143:lvgl/src/draw/lv_draw_mask.c **** 
 3863              		.loc 1 1143 9 is_stmt 1 view .LVU1334
 3864 0208 A91A     		subs	r1, r5, r2
 3865 020a B018     		adds	r0, r6, r2
 3866              	.LVL483:
1143:lvgl/src/draw/lv_draw_mask.c **** 
 3867              		.loc 1 1143 9 is_stmt 0 view .LVU1335
 3868 020c FFF7FEFF 		bl	lv_memset_00
 3869              	.LVL484:
1146:lvgl/src/draw/lv_draw_mask.c ****         lv_memset_00(&mask_buf[0], cir_x_left);
 3870              		.loc 1 1146 9 is_stmt 1 view .LVU1336
1146:lvgl/src/draw/lv_draw_mask.c ****         lv_memset_00(&mask_buf[0], cir_x_left);
 3871              		.loc 1 1146 22 is_stmt 0 view .LVU1337
 3872 0210 BDF90610 		ldrsh	r1, [sp, #6]
 3873 0214 611A     		subs	r1, r4, r1
 3874 0216 0131     		adds	r1, r1, #1
 3875 0218 A942     		cmp	r1, r5
 3876 021a A8BF     		it	ge
 3877 021c 2946     		movge	r1, r5
 3878 021e 21EAE171 		bic	r1, r1, r1, asr #31
 3879              	.LVL485:
1147:lvgl/src/draw/lv_draw_mask.c ****     }
 3880              		.loc 1 1147 9 is_stmt 1 view .LVU1338
 3881 0222 09B2     		sxth	r1, r1
1147:lvgl/src/draw/lv_draw_mask.c ****     }
 3882              		.loc 1 1147 9 is_stmt 0 view .LVU1339
 3883 0224 3046     		mov	r0, r6
 3884 0226 FFF7FEFF 		bl	lv_memset_00
 3885              	.LVL486:
1165:lvgl/src/draw/lv_draw_mask.c **** }
 3886              		.loc 1 1165 12 view .LVU1340
 3887 022a 0220     		movs	r0, #2
 3888 022c 5DE0     		b	.L264
 3889              	.LVL487:
 3890              	.L306:
 3891              	.LBB179:
 3892              	.LBB180:
 3893              	.LBB181:
ARM GAS  /var/folders/21/t9g5rlb91ys800n5npymflf80000gn/T//cc0CxbBx.s 			page 119


 3894              	.LBB182:
1520:lvgl/src/draw/lv_draw_mask.c ****     if(mask_new <= LV_OPA_MIN) return 0;
 3895              		.loc 1 1520 39 view .LVU1341
 3896 022e 3A46     		mov	r2, r7
 3897              	.LVL488:
1520:lvgl/src/draw/lv_draw_mask.c ****     if(mask_new <= LV_OPA_MIN) return 0;
 3898              		.loc 1 1520 39 view .LVU1342
 3899 0230 22E0     		b	.L285
 3900              	.LVL489:
 3901              	.L307:
1521:lvgl/src/draw/lv_draw_mask.c **** 
 3902              		.loc 1 1521 39 view .LVU1343
 3903 0232 0022     		movs	r2, #0
 3904              	.LVL490:
1521:lvgl/src/draw/lv_draw_mask.c **** 
 3905              		.loc 1 1521 39 view .LVU1344
 3906 0234 20E0     		b	.L285
 3907              	.LVL491:
 3908              	.L308:
1521:lvgl/src/draw/lv_draw_mask.c **** 
 3909              		.loc 1 1521 39 view .LVU1345
 3910              	.LBE182:
 3911              	.LBE181:
 3912              	.LBB184:
 3913              	.LBB185:
 3914 0236 0027     		movs	r7, #0
 3915              	.LVL492:
 3916              	.L287:
1521:lvgl/src/draw/lv_draw_mask.c **** 
 3917              		.loc 1 1521 39 view .LVU1346
 3918              	.LBE185:
 3919              	.LBE184:
1156:lvgl/src/draw/lv_draw_mask.c ****             }
 3920              		.loc 1 1156 42 view .LVU1347
 3921 0238 B754     		strb	r7, [r6, r2]
 3922              	.L286:
1156:lvgl/src/draw/lv_draw_mask.c ****             }
 3923              		.loc 1 1156 42 view .LVU1348
 3924              	.LBE180:
1150:lvgl/src/draw/lv_draw_mask.c ****             lv_opa_t opa = 255 - (aa_opa[aa_len - 1 - i]);
 3925              		.loc 1 1150 33 is_stmt 1 discriminator 2 view .LVU1349
 3926 023a 0133     		adds	r3, r3, #1
 3927              	.LVL493:
1150:lvgl/src/draw/lv_draw_mask.c ****             lv_opa_t opa = 255 - (aa_opa[aa_len - 1 - i]);
 3928              		.loc 1 1150 33 is_stmt 0 discriminator 2 view .LVU1350
 3929 023c 1BB2     		sxth	r3, r3
 3930              	.LVL494:
 3931              	.L277:
1150:lvgl/src/draw/lv_draw_mask.c ****             lv_opa_t opa = 255 - (aa_opa[aa_len - 1 - i]);
 3932              		.loc 1 1150 22 is_stmt 1 discriminator 1 view .LVU1351
 3933 023e BDF90620 		ldrsh	r2, [sp, #6]
 3934 0242 9A42     		cmp	r2, r3
 3935 0244 32DD     		ble	.L317
 3936              	.LBB189:
1151:lvgl/src/draw/lv_draw_mask.c ****             if(cir_x_right + i >= 0 && cir_x_right + i < len) {
 3937              		.loc 1 1151 13 view .LVU1352
1151:lvgl/src/draw/lv_draw_mask.c ****             if(cir_x_right + i >= 0 && cir_x_right + i < len) {
ARM GAS  /var/folders/21/t9g5rlb91ys800n5npymflf80000gn/T//cc0CxbBx.s 			page 120


 3938              		.loc 1 1151 49 is_stmt 0 view .LVU1353
 3939 0246 013A     		subs	r2, r2, #1
1151:lvgl/src/draw/lv_draw_mask.c ****             if(cir_x_right + i >= 0 && cir_x_right + i < len) {
 3940              		.loc 1 1151 53 view .LVU1354
 3941 0248 9E46     		mov	lr, r3
 3942 024a D21A     		subs	r2, r2, r3
1151:lvgl/src/draw/lv_draw_mask.c ****             if(cir_x_right + i >= 0 && cir_x_right + i < len) {
 3943              		.loc 1 1151 41 view .LVU1355
 3944 024c 875C     		ldrb	r7, [r0, r2]	@ zero_extendqisi2
1151:lvgl/src/draw/lv_draw_mask.c ****             if(cir_x_right + i >= 0 && cir_x_right + i < len) {
 3945              		.loc 1 1151 22 view .LVU1356
 3946 024e FF43     		mvns	r7, r7
 3947 0250 FFB2     		uxtb	r7, r7
 3948              	.LVL495:
1152:lvgl/src/draw/lv_draw_mask.c ****                 mask_buf[cir_x_right + i] = mask_mix(opa, mask_buf[cir_x_right + i]);
 3949              		.loc 1 1152 13 is_stmt 1 view .LVU1357
1152:lvgl/src/draw/lv_draw_mask.c ****                 mask_buf[cir_x_right + i] = mask_mix(opa, mask_buf[cir_x_right + i]);
 3950              		.loc 1 1152 15 is_stmt 0 view .LVU1358
 3951 0252 1CEB0308 		adds	r8, ip, r3
 3952 0256 11D4     		bmi	.L284
1152:lvgl/src/draw/lv_draw_mask.c ****                 mask_buf[cir_x_right + i] = mask_mix(opa, mask_buf[cir_x_right + i]);
 3953              		.loc 1 1152 37 discriminator 1 view .LVU1359
 3954 0258 A845     		cmp	r8, r5
 3955 025a 0FDA     		bge	.L284
1153:lvgl/src/draw/lv_draw_mask.c ****             }
 3956              		.loc 1 1153 17 is_stmt 1 view .LVU1360
1153:lvgl/src/draw/lv_draw_mask.c ****             }
 3957              		.loc 1 1153 45 is_stmt 0 view .LVU1361
 3958 025c 16F80820 		ldrb	r2, [r6, r8]	@ zero_extendqisi2
 3959              	.LVL496:
 3960              	.LBB187:
 3961              	.LBI181:
1518:lvgl/src/draw/lv_draw_mask.c **** {
 3962              		.loc 1 1518 46 is_stmt 1 view .LVU1362
 3963              	.LBB183:
1520:lvgl/src/draw/lv_draw_mask.c ****     if(mask_new <= LV_OPA_MIN) return 0;
 3964              		.loc 1 1520 5 view .LVU1363
1520:lvgl/src/draw/lv_draw_mask.c ****     if(mask_new <= LV_OPA_MIN) return 0;
 3965              		.loc 1 1520 7 is_stmt 0 view .LVU1364
 3966 0260 FC2A     		cmp	r2, #252
 3967 0262 E4D8     		bhi	.L306
1521:lvgl/src/draw/lv_draw_mask.c **** 
 3968              		.loc 1 1521 5 is_stmt 1 view .LVU1365
1521:lvgl/src/draw/lv_draw_mask.c **** 
 3969              		.loc 1 1521 7 is_stmt 0 view .LVU1366
 3970 0264 022A     		cmp	r2, #2
 3971 0266 E4D9     		bls	.L307
 3972              		.loc 1 1523 5 is_stmt 1 view .LVU1367
 3973              		.loc 1 1523 12 is_stmt 0 view .LVU1368
 3974 0268 07FB02F2 		mul	r2, r7, r2
 3975              	.LVL497:
 3976              		.loc 1 1523 12 view .LVU1369
 3977 026c 02EB0229 		add	r9, r2, r2, lsl #8
 3978 0270 02EBC912 		add	r2, r2, r9, lsl #7
 3979 0274 C2F3C752 		ubfx	r2, r2, #23, #8
 3980              	.L285:
 3981              	.LVL498:
ARM GAS  /var/folders/21/t9g5rlb91ys800n5npymflf80000gn/T//cc0CxbBx.s 			page 121


 3982              		.loc 1 1523 12 view .LVU1370
 3983              	.LBE183:
 3984              	.LBE187:
1153:lvgl/src/draw/lv_draw_mask.c ****             }
 3985              		.loc 1 1153 43 view .LVU1371
 3986 0278 06F80820 		strb	r2, [r6, r8]
 3987              	.L284:
1155:lvgl/src/draw/lv_draw_mask.c ****                 mask_buf[cir_x_left - i] = mask_mix(opa, mask_buf[cir_x_left - i]);
 3988              		.loc 1 1155 13 is_stmt 1 view .LVU1372
1155:lvgl/src/draw/lv_draw_mask.c ****                 mask_buf[cir_x_left - i] = mask_mix(opa, mask_buf[cir_x_left - i]);
 3989              		.loc 1 1155 15 is_stmt 0 view .LVU1373
 3990 027c B4EB0E02 		subs	r2, r4, lr
 3991 0280 DBD4     		bmi	.L286
1155:lvgl/src/draw/lv_draw_mask.c ****                 mask_buf[cir_x_left - i] = mask_mix(opa, mask_buf[cir_x_left - i]);
 3992              		.loc 1 1155 36 discriminator 1 view .LVU1374
 3993 0282 AA42     		cmp	r2, r5
 3994 0284 D9DA     		bge	.L286
1156:lvgl/src/draw/lv_draw_mask.c ****             }
 3995              		.loc 1 1156 17 is_stmt 1 view .LVU1375
1156:lvgl/src/draw/lv_draw_mask.c ****             }
 3996              		.loc 1 1156 44 is_stmt 0 view .LVU1376
 3997 0286 16F802E0 		ldrb	lr, [r6, r2]	@ zero_extendqisi2
 3998              	.LVL499:
 3999              	.LBB188:
 4000              	.LBI184:
1518:lvgl/src/draw/lv_draw_mask.c **** {
 4001              		.loc 1 1518 46 is_stmt 1 view .LVU1377
 4002              	.LBB186:
1520:lvgl/src/draw/lv_draw_mask.c ****     if(mask_new <= LV_OPA_MIN) return 0;
 4003              		.loc 1 1520 5 view .LVU1378
1520:lvgl/src/draw/lv_draw_mask.c ****     if(mask_new <= LV_OPA_MIN) return 0;
 4004              		.loc 1 1520 7 is_stmt 0 view .LVU1379
 4005 028a BEF1FC0F 		cmp	lr, #252
 4006 028e D3D8     		bhi	.L287
1521:lvgl/src/draw/lv_draw_mask.c **** 
 4007              		.loc 1 1521 5 is_stmt 1 view .LVU1380
1521:lvgl/src/draw/lv_draw_mask.c **** 
 4008              		.loc 1 1521 7 is_stmt 0 view .LVU1381
 4009 0290 BEF1020F 		cmp	lr, #2
 4010 0294 CFD9     		bls	.L308
 4011              		.loc 1 1523 5 is_stmt 1 view .LVU1382
 4012              		.loc 1 1523 12 is_stmt 0 view .LVU1383
 4013 0296 0EFB07FE 		mul	lr, lr, r7
 4014              	.LVL500:
 4015              		.loc 1 1523 12 view .LVU1384
 4016 029a 0EEB0E27 		add	r7, lr, lr, lsl #8
 4017              	.LVL501:
 4018              		.loc 1 1523 12 view .LVU1385
 4019 029e 0EEBC71E 		add	lr, lr, r7, lsl #7
 4020 02a2 CEF3C757 		ubfx	r7, lr, #23, #8
 4021 02a6 C7E7     		b	.L287
 4022              	.LVL502:
 4023              	.L302:
 4024              		.loc 1 1523 12 view .LVU1386
 4025              	.LBE186:
 4026              	.LBE188:
 4027              	.LBE189:
ARM GAS  /var/folders/21/t9g5rlb91ys800n5npymflf80000gn/T//cc0CxbBx.s 			page 122


1150:lvgl/src/draw/lv_draw_mask.c ****             lv_opa_t opa = 255 - (aa_opa[aa_len - 1 - i]);
 4028              		.loc 1 1150 15 view .LVU1387
 4029 02a8 0023     		movs	r3, #0
 4030 02aa C8E7     		b	.L277
 4031              	.LVL503:
 4032              	.L317:
1160:lvgl/src/draw/lv_draw_mask.c ****         lv_coord_t clr_len = LV_CLAMP(0, cir_x_right - clr_start, len - clr_start);
 4033              		.loc 1 1160 9 is_stmt 1 view .LVU1388
1160:lvgl/src/draw/lv_draw_mask.c ****         lv_coord_t clr_len = LV_CLAMP(0, cir_x_right - clr_start, len - clr_start);
 4034              		.loc 1 1160 32 is_stmt 0 view .LVU1389
 4035 02ac 0134     		adds	r4, r4, #1
 4036              	.LVL504:
1160:lvgl/src/draw/lv_draw_mask.c ****         lv_coord_t clr_len = LV_CLAMP(0, cir_x_right - clr_start, len - clr_start);
 4037              		.loc 1 1160 32 view .LVU1390
 4038 02ae AC42     		cmp	r4, r5
 4039 02b0 A8BF     		it	ge
 4040 02b2 2C46     		movge	r4, r5
 4041              	.LVL505:
1160:lvgl/src/draw/lv_draw_mask.c ****         lv_coord_t clr_len = LV_CLAMP(0, cir_x_right - clr_start, len - clr_start);
 4042              		.loc 1 1160 32 view .LVU1391
 4043 02b4 24EAE474 		bic	r4, r4, r4, asr #31
1160:lvgl/src/draw/lv_draw_mask.c ****         lv_coord_t clr_len = LV_CLAMP(0, cir_x_right - clr_start, len - clr_start);
 4044              		.loc 1 1160 20 view .LVU1392
 4045 02b8 20B2     		sxth	r0, r4
 4046              	.LVL506:
1161:lvgl/src/draw/lv_draw_mask.c ****         lv_memset_00(&mask_buf[clr_start], clr_len);
 4047              		.loc 1 1161 9 is_stmt 1 view .LVU1393
1161:lvgl/src/draw/lv_draw_mask.c ****         lv_memset_00(&mask_buf[clr_start], clr_len);
 4048              		.loc 1 1161 30 is_stmt 0 view .LVU1394
 4049 02ba 6545     		cmp	r5, ip
 4050 02bc 08DD     		ble	.L289
1161:lvgl/src/draw/lv_draw_mask.c ****         lv_memset_00(&mask_buf[clr_start], clr_len);
 4051              		.loc 1 1161 30 discriminator 1 view .LVU1395
 4052 02be ACEB0003 		sub	r3, ip, r0
 4053              	.LVL507:
1161:lvgl/src/draw/lv_draw_mask.c ****         lv_memset_00(&mask_buf[clr_start], clr_len);
 4054              		.loc 1 1161 30 discriminator 1 view .LVU1396
 4055 02c2 DB0F     		lsrs	r3, r3, #31
 4056              	.L290:
1161:lvgl/src/draw/lv_draw_mask.c ****         lv_memset_00(&mask_buf[clr_start], clr_len);
 4057              		.loc 1 1161 20 discriminator 4 view .LVU1397
 4058 02c4 53B9     		cbnz	r3, .L309
1161:lvgl/src/draw/lv_draw_mask.c ****         lv_memset_00(&mask_buf[clr_start], clr_len);
 4059              		.loc 1 1161 20 discriminator 6 view .LVU1398
 4060 02c6 6545     		cmp	r5, ip
 4061 02c8 05DD     		ble	.L292
1161:lvgl/src/draw/lv_draw_mask.c ****         lv_memset_00(&mask_buf[clr_start], clr_len);
 4062              		.loc 1 1161 30 discriminator 8 view .LVU1399
 4063 02ca 091B     		subs	r1, r1, r4
1161:lvgl/src/draw/lv_draw_mask.c ****         lv_memset_00(&mask_buf[clr_start], clr_len);
 4064              		.loc 1 1161 20 discriminator 8 view .LVU1400
 4065 02cc 09B2     		sxth	r1, r1
 4066 02ce 06E0     		b	.L291
 4067              	.LVL508:
 4068              	.L289:
1161:lvgl/src/draw/lv_draw_mask.c ****         lv_memset_00(&mask_buf[clr_start], clr_len);
 4069              		.loc 1 1161 30 discriminator 2 view .LVU1401
ARM GAS  /var/folders/21/t9g5rlb91ys800n5npymflf80000gn/T//cc0CxbBx.s 			page 123


 4070 02d0 2B1A     		subs	r3, r5, r0
 4071              	.LVL509:
1161:lvgl/src/draw/lv_draw_mask.c ****         lv_memset_00(&mask_buf[clr_start], clr_len);
 4072              		.loc 1 1161 30 discriminator 2 view .LVU1402
 4073 02d2 DB0F     		lsrs	r3, r3, #31
 4074 02d4 F6E7     		b	.L290
 4075              	.L292:
1161:lvgl/src/draw/lv_draw_mask.c ****         lv_memset_00(&mask_buf[clr_start], clr_len);
 4076              		.loc 1 1161 30 discriminator 9 view .LVU1403
 4077 02d6 291B     		subs	r1, r5, r4
1161:lvgl/src/draw/lv_draw_mask.c ****         lv_memset_00(&mask_buf[clr_start], clr_len);
 4078              		.loc 1 1161 20 discriminator 9 view .LVU1404
 4079 02d8 09B2     		sxth	r1, r1
 4080 02da 00E0     		b	.L291
 4081              	.L309:
1161:lvgl/src/draw/lv_draw_mask.c ****         lv_memset_00(&mask_buf[clr_start], clr_len);
 4082              		.loc 1 1161 20 view .LVU1405
 4083 02dc 0021     		movs	r1, #0
 4084              	.L291:
 4085              	.LVL510:
1162:lvgl/src/draw/lv_draw_mask.c ****     }
 4086              		.loc 1 1162 9 is_stmt 1 discriminator 12 view .LVU1406
 4087 02de 3044     		add	r0, r0, r6
 4088              	.LVL511:
1162:lvgl/src/draw/lv_draw_mask.c ****     }
 4089              		.loc 1 1162 9 is_stmt 0 discriminator 12 view .LVU1407
 4090 02e0 FFF7FEFF 		bl	lv_memset_00
 4091              	.LVL512:
1162:lvgl/src/draw/lv_draw_mask.c ****     }
 4092              		.loc 1 1162 9 discriminator 12 view .LVU1408
 4093              	.LBE179:
1165:lvgl/src/draw/lv_draw_mask.c **** }
 4094              		.loc 1 1165 12 discriminator 12 view .LVU1409
 4095 02e4 0220     		movs	r0, #2
 4096 02e6 00E0     		b	.L264
 4097              	.LVL513:
 4098              	.L293:
1063:lvgl/src/draw/lv_draw_mask.c ****         }
 4099              		.loc 1 1063 20 view .LVU1410
 4100 02e8 0020     		movs	r0, #0
 4101              	.LVL514:
 4102              	.L264:
1166:lvgl/src/draw/lv_draw_mask.c **** 
 4103              		.loc 1 1166 1 view .LVU1411
 4104 02ea 04B0     		add	sp, sp, #16
 4105              	.LCFI16:
 4106              		.cfi_remember_state
 4107              		.cfi_def_cfa_offset 32
 4108              		@ sp needed
 4109 02ec BDE8F087 		pop	{r4, r5, r6, r7, r8, r9, r10, pc}
 4110              	.LVL515:
 4111              	.L311:
 4112              	.LCFI17:
 4113              		.cfi_restore_state
1063:lvgl/src/draw/lv_draw_mask.c ****         }
 4114              		.loc 1 1063 20 view .LVU1412
 4115 02f0 0020     		movs	r0, #0
ARM GAS  /var/folders/21/t9g5rlb91ys800n5npymflf80000gn/T//cc0CxbBx.s 			page 124


 4116              	.LVL516:
1063:lvgl/src/draw/lv_draw_mask.c ****         }
 4117              		.loc 1 1063 20 view .LVU1413
 4118 02f2 FAE7     		b	.L264
 4119              	.LVL517:
 4120              	.L295:
1068:lvgl/src/draw/lv_draw_mask.c ****         }
 4121              		.loc 1 1068 20 view .LVU1414
 4122 02f4 0120     		movs	r0, #1
 4123              	.LVL518:
1068:lvgl/src/draw/lv_draw_mask.c ****         }
 4124              		.loc 1 1068 20 view .LVU1415
 4125 02f6 F8E7     		b	.L264
 4126              	.LVL519:
 4127              	.L297:
 4128              	.LBB190:
1077:lvgl/src/draw/lv_draw_mask.c ****             if(last >= 0) {
 4129              		.loc 1 1077 35 view .LVU1416
 4130 02f8 0020     		movs	r0, #0
 4131              	.LVL520:
1077:lvgl/src/draw/lv_draw_mask.c ****             if(last >= 0) {
 4132              		.loc 1 1077 35 view .LVU1417
 4133 02fa F6E7     		b	.L264
 4134              	.LVL521:
 4135              	.L298:
1083:lvgl/src/draw/lv_draw_mask.c ****             else if(first < len) {
 4136              		.loc 1 1083 35 view .LVU1418
 4137 02fc 0020     		movs	r0, #0
 4138 02fe F4E7     		b	.L264
 4139              	.L299:
1088:lvgl/src/draw/lv_draw_mask.c ****         }
 4140              		.loc 1 1088 25 view .LVU1419
 4141 0300 0220     		movs	r0, #2
 4142 0302 F2E7     		b	.L264
 4143              	.L300:
1087:lvgl/src/draw/lv_draw_mask.c ****             else return LV_DRAW_MASK_RES_CHANGED;
 4144              		.loc 1 1087 50 view .LVU1420
 4145 0304 0120     		movs	r0, #1
 4146 0306 F0E7     		b	.L264
 4147              	.LBE190:
 4148              		.cfi_endproc
 4149              	.LFE76:
 4151              		.section	.text.circ_calc_aa4,"ax",%progbits
 4152              		.align	1
 4153              		.syntax unified
 4154              		.thumb
 4155              		.thumb_func
 4157              	circ_calc_aa4:
 4158              	.LVL522:
 4159              	.LFB83:
1363:lvgl/src/draw/lv_draw_mask.c ****     if(radius == 0) return;
 4160              		.loc 1 1363 1 is_stmt 1 view -0
 4161              		.cfi_startproc
 4162              		@ args = 0, pretend = 0, frame = 48
 4163              		@ frame_needed = 0, uses_anonymous_args = 0
1364:lvgl/src/draw/lv_draw_mask.c ****     c->radius = radius;
 4164              		.loc 1 1364 5 view .LVU1422
ARM GAS  /var/folders/21/t9g5rlb91ys800n5npymflf80000gn/T//cc0CxbBx.s 			page 125


1364:lvgl/src/draw/lv_draw_mask.c ****     c->radius = radius;
 4165              		.loc 1 1364 7 is_stmt 0 view .LVU1423
 4166 0000 0029     		cmp	r1, #0
 4167 0002 00F06F81 		beq	.L347
1363:lvgl/src/draw/lv_draw_mask.c ****     if(radius == 0) return;
 4168              		.loc 1 1363 1 view .LVU1424
 4169 0006 2DE9F047 		push	{r4, r5, r6, r7, r8, r9, r10, lr}
 4170              	.LCFI18:
 4171              		.cfi_def_cfa_offset 32
 4172              		.cfi_offset 4, -32
 4173              		.cfi_offset 5, -28
 4174              		.cfi_offset 6, -24
 4175              		.cfi_offset 7, -20
 4176              		.cfi_offset 8, -16
 4177              		.cfi_offset 9, -12
 4178              		.cfi_offset 10, -8
 4179              		.cfi_offset 14, -4
 4180 000a 8CB0     		sub	sp, sp, #48
 4181              	.LCFI19:
 4182              		.cfi_def_cfa_offset 80
 4183 000c 0546     		mov	r5, r0
 4184 000e 8A46     		mov	r10, r1
1365:lvgl/src/draw/lv_draw_mask.c **** 
 4185              		.loc 1 1365 5 is_stmt 1 view .LVU1425
1365:lvgl/src/draw/lv_draw_mask.c **** 
 4186              		.loc 1 1365 15 is_stmt 0 view .LVU1426
 4187 0010 0183     		strh	r1, [r0, #24]	@ movhi
1368:lvgl/src/draw/lv_draw_mask.c **** 
 4188              		.loc 1 1368 5 is_stmt 1 view .LVU1427
1368:lvgl/src/draw/lv_draw_mask.c **** 
 4189              		.loc 1 1368 9 is_stmt 0 view .LVU1428
 4190 0012 0068     		ldr	r0, [r0]
 4191              	.LVL523:
1368:lvgl/src/draw/lv_draw_mask.c **** 
 4192              		.loc 1 1368 7 view .LVU1429
 4193 0014 08B1     		cbz	r0, .L320
1368:lvgl/src/draw/lv_draw_mask.c **** 
 4194              		.loc 1 1368 16 is_stmt 1 discriminator 1 view .LVU1430
 4195 0016 FFF7FEFF 		bl	lv_mem_free
 4196              	.LVL524:
 4197              	.L320:
1370:lvgl/src/draw/lv_draw_mask.c ****     LV_ASSERT_MALLOC(c->buf);
 4198              		.loc 1 1370 5 view .LVU1431
1370:lvgl/src/draw/lv_draw_mask.c ****     LV_ASSERT_MALLOC(c->buf);
 4199              		.loc 1 1370 38 is_stmt 0 view .LVU1432
 4200 001a 0AF10106 		add	r6, r10, #1
 4201 001e 06EB4600 		add	r0, r6, r6, lsl #1
1370:lvgl/src/draw/lv_draw_mask.c ****     LV_ASSERT_MALLOC(c->buf);
 4202              		.loc 1 1370 14 view .LVU1433
 4203 0022 4000     		lsls	r0, r0, #1
 4204 0024 FFF7FEFF 		bl	lv_mem_alloc
 4205              	.LVL525:
1370:lvgl/src/draw/lv_draw_mask.c ****     LV_ASSERT_MALLOC(c->buf);
 4206              		.loc 1 1370 12 view .LVU1434
 4207 0028 2860     		str	r0, [r5]
1371:lvgl/src/draw/lv_draw_mask.c ****     c->cir_opa = c->buf;
 4208              		.loc 1 1371 5 is_stmt 1 view .LVU1435
ARM GAS  /var/folders/21/t9g5rlb91ys800n5npymflf80000gn/T//cc0CxbBx.s 			page 126


1371:lvgl/src/draw/lv_draw_mask.c ****     c->cir_opa = c->buf;
 4209              		.loc 1 1371 5 view .LVU1436
 4210 002a 20B3     		cbz	r0, .L322
1371:lvgl/src/draw/lv_draw_mask.c ****     c->cir_opa = c->buf;
 4211              		.loc 1 1371 5 discriminator 2 view .LVU1437
1371:lvgl/src/draw/lv_draw_mask.c ****     c->cir_opa = c->buf;
 4212              		.loc 1 1371 29 discriminator 2 view .LVU1438
1372:lvgl/src/draw/lv_draw_mask.c ****     c->opa_start_on_y = (uint16_t *)(c->buf + 2 * radius + 2);
 4213              		.loc 1 1372 5 discriminator 2 view .LVU1439
1372:lvgl/src/draw/lv_draw_mask.c ****     c->opa_start_on_y = (uint16_t *)(c->buf + 2 * radius + 2);
 4214              		.loc 1 1372 16 is_stmt 0 discriminator 2 view .LVU1440
 4215 002c 6860     		str	r0, [r5, #4]
1373:lvgl/src/draw/lv_draw_mask.c ****     c->x_start_on_y = (uint16_t *)(c->buf + 4 * radius + 4);
 4216              		.loc 1 1373 5 is_stmt 1 discriminator 2 view .LVU1441
1373:lvgl/src/draw/lv_draw_mask.c ****     c->x_start_on_y = (uint16_t *)(c->buf + 4 * radius + 4);
 4217              		.loc 1 1373 49 is_stmt 0 discriminator 2 view .LVU1442
 4218 002e 4FEA4A03 		lsl	r3, r10, #1
1373:lvgl/src/draw/lv_draw_mask.c ****     c->x_start_on_y = (uint16_t *)(c->buf + 4 * radius + 4);
 4219              		.loc 1 1373 58 discriminator 2 view .LVU1443
 4220 0032 0233     		adds	r3, r3, #2
 4221 0034 0344     		add	r3, r3, r0
1373:lvgl/src/draw/lv_draw_mask.c ****     c->x_start_on_y = (uint16_t *)(c->buf + 4 * radius + 4);
 4222              		.loc 1 1373 23 discriminator 2 view .LVU1444
 4223 0036 EB60     		str	r3, [r5, #12]
1374:lvgl/src/draw/lv_draw_mask.c **** 
 4224              		.loc 1 1374 5 is_stmt 1 discriminator 2 view .LVU1445
1374:lvgl/src/draw/lv_draw_mask.c **** 
 4225              		.loc 1 1374 47 is_stmt 0 discriminator 2 view .LVU1446
 4226 0038 4FEA8A03 		lsl	r3, r10, #2
1374:lvgl/src/draw/lv_draw_mask.c **** 
 4227              		.loc 1 1374 56 discriminator 2 view .LVU1447
 4228 003c 0433     		adds	r3, r3, #4
 4229 003e 0344     		add	r3, r3, r0
1374:lvgl/src/draw/lv_draw_mask.c **** 
 4230              		.loc 1 1374 21 discriminator 2 view .LVU1448
 4231 0040 AB60     		str	r3, [r5, #8]
1377:lvgl/src/draw/lv_draw_mask.c ****         c->cir_opa[0] = 180;
 4232              		.loc 1 1377 5 is_stmt 1 discriminator 2 view .LVU1449
1377:lvgl/src/draw/lv_draw_mask.c ****         c->cir_opa[0] = 180;
 4233              		.loc 1 1377 7 is_stmt 0 discriminator 2 view .LVU1450
 4234 0042 BAF1010F 		cmp	r10, #1
 4235 0046 17D0     		beq	.L350
1385:lvgl/src/draw/lv_draw_mask.c ****     lv_coord_t * cir_y = &cir_x[(radius + 1) * 2];
 4236              		.loc 1 1385 5 is_stmt 1 view .LVU1451
1385:lvgl/src/draw/lv_draw_mask.c ****     lv_coord_t * cir_y = &cir_x[(radius + 1) * 2];
 4237              		.loc 1 1385 26 is_stmt 0 view .LVU1452
 4238 0048 F000     		lsls	r0, r6, #3
 4239 004a FFF7FEFF 		bl	lv_mem_buf_get
 4240              	.LVL526:
 4241 004e 0746     		mov	r7, r0
 4242              	.LVL527:
1386:lvgl/src/draw/lv_draw_mask.c **** 
 4243              		.loc 1 1386 5 is_stmt 1 view .LVU1453
1386:lvgl/src/draw/lv_draw_mask.c **** 
 4244              		.loc 1 1386 18 is_stmt 0 view .LVU1454
 4245 0050 00EB8606 		add	r6, r0, r6, lsl #2
 4246              	.LVL528:
ARM GAS  /var/folders/21/t9g5rlb91ys800n5npymflf80000gn/T//cc0CxbBx.s 			page 127


1388:lvgl/src/draw/lv_draw_mask.c ****     lv_point_t cp;
 4247              		.loc 1 1388 5 is_stmt 1 view .LVU1455
1389:lvgl/src/draw/lv_draw_mask.c ****     lv_coord_t tmp;
 4248              		.loc 1 1389 5 view .LVU1456
1390:lvgl/src/draw/lv_draw_mask.c ****     circ_init(&cp, &tmp, radius * 4);    /*Upscale by 4*/
 4249              		.loc 1 1390 5 view .LVU1457
1391:lvgl/src/draw/lv_draw_mask.c ****     int32_t i;
 4250              		.loc 1 1391 5 view .LVU1458
1391:lvgl/src/draw/lv_draw_mask.c ****     int32_t i;
 4251              		.loc 1 1391 33 is_stmt 0 view .LVU1459
 4252 0054 4FEA8A02 		lsl	r2, r10, #2
1391:lvgl/src/draw/lv_draw_mask.c ****     int32_t i;
 4253              		.loc 1 1391 5 view .LVU1460
 4254 0058 12B2     		sxth	r2, r2
 4255 005a 0DF12A01 		add	r1, sp, #42
 4256 005e 0BA8     		add	r0, sp, #44
 4257              	.LVL529:
1391:lvgl/src/draw/lv_draw_mask.c ****     int32_t i;
 4258              		.loc 1 1391 5 view .LVU1461
 4259 0060 FFF7FEFF 		bl	circ_init
 4260              	.LVL530:
1392:lvgl/src/draw/lv_draw_mask.c **** 
 4261              		.loc 1 1392 5 is_stmt 1 view .LVU1462
1394:lvgl/src/draw/lv_draw_mask.c ****     uint32_t x_fract[4];
 4262              		.loc 1 1394 5 view .LVU1463
1395:lvgl/src/draw/lv_draw_mask.c ****     lv_coord_t cir_size = 0;
 4263              		.loc 1 1395 5 view .LVU1464
1396:lvgl/src/draw/lv_draw_mask.c ****     x_int[0] = cp.x >> 2;
 4264              		.loc 1 1396 5 view .LVU1465
1397:lvgl/src/draw/lv_draw_mask.c ****     x_fract[0] = 0;
 4265              		.loc 1 1397 5 view .LVU1466
1397:lvgl/src/draw/lv_draw_mask.c ****     x_fract[0] = 0;
 4266              		.loc 1 1397 18 is_stmt 0 view .LVU1467
 4267 0064 BDF92C30 		ldrsh	r3, [sp, #44]
1397:lvgl/src/draw/lv_draw_mask.c ****     x_fract[0] = 0;
 4268              		.loc 1 1397 21 view .LVU1468
 4269 0068 9B10     		asrs	r3, r3, #2
1397:lvgl/src/draw/lv_draw_mask.c ****     x_fract[0] = 0;
 4270              		.loc 1 1397 14 view .LVU1469
 4271 006a 0693     		str	r3, [sp, #24]
1398:lvgl/src/draw/lv_draw_mask.c **** 
 4272              		.loc 1 1398 5 is_stmt 1 view .LVU1470
1398:lvgl/src/draw/lv_draw_mask.c **** 
 4273              		.loc 1 1398 16 is_stmt 0 view .LVU1471
 4274 006c 0023     		movs	r3, #0
 4275 006e 0293     		str	r3, [sp, #8]
1401:lvgl/src/draw/lv_draw_mask.c ****         /*Calculate 4 point of the circle */
 4276              		.loc 1 1401 5 is_stmt 1 view .LVU1472
1396:lvgl/src/draw/lv_draw_mask.c ****     x_int[0] = cp.x >> 2;
 4277              		.loc 1 1396 16 is_stmt 0 view .LVU1473
 4278 0070 1C46     		mov	r4, r3
1388:lvgl/src/draw/lv_draw_mask.c ****     lv_point_t cp;
 4279              		.loc 1 1388 14 view .LVU1474
 4280 0072 9946     		mov	r9, r3
1401:lvgl/src/draw/lv_draw_mask.c ****         /*Calculate 4 point of the circle */
 4281              		.loc 1 1401 10 view .LVU1475
 4282 0074 3CE0     		b	.L324
ARM GAS  /var/folders/21/t9g5rlb91ys800n5npymflf80000gn/T//cc0CxbBx.s 			page 128


 4283              	.LVL531:
 4284              	.L322:
1371:lvgl/src/draw/lv_draw_mask.c ****     c->cir_opa = c->buf;
 4285              		.loc 1 1371 5 is_stmt 1 discriminator 1 view .LVU1476
1371:lvgl/src/draw/lv_draw_mask.c ****     c->cir_opa = c->buf;
 4286              		.loc 1 1371 5 discriminator 1 view .LVU1477
1371:lvgl/src/draw/lv_draw_mask.c ****     c->cir_opa = c->buf;
 4287              		.loc 1 1371 5 discriminator 1 view .LVU1478
1371:lvgl/src/draw/lv_draw_mask.c ****     c->cir_opa = c->buf;
 4288              		.loc 1 1371 5 discriminator 1 view .LVU1479
1371:lvgl/src/draw/lv_draw_mask.c ****     c->cir_opa = c->buf;
 4289              		.loc 1 1371 5 discriminator 1 view .LVU1480
 4290 0076 FEE7     		b	.L322
 4291              	.L350:
1378:lvgl/src/draw/lv_draw_mask.c ****         c->opa_start_on_y[0] = 0;
 4292              		.loc 1 1378 9 view .LVU1481
1378:lvgl/src/draw/lv_draw_mask.c ****         c->opa_start_on_y[0] = 0;
 4293              		.loc 1 1378 23 is_stmt 0 view .LVU1482
 4294 0078 B423     		movs	r3, #180
 4295 007a 0370     		strb	r3, [r0]
1379:lvgl/src/draw/lv_draw_mask.c ****         c->opa_start_on_y[1] = 1;
 4296              		.loc 1 1379 9 is_stmt 1 view .LVU1483
1379:lvgl/src/draw/lv_draw_mask.c ****         c->opa_start_on_y[1] = 1;
 4297              		.loc 1 1379 10 is_stmt 0 view .LVU1484
 4298 007c EA68     		ldr	r2, [r5, #12]
1379:lvgl/src/draw/lv_draw_mask.c ****         c->opa_start_on_y[1] = 1;
 4299              		.loc 1 1379 30 view .LVU1485
 4300 007e 0023     		movs	r3, #0
 4301 0080 1380     		strh	r3, [r2]	@ movhi
1380:lvgl/src/draw/lv_draw_mask.c ****         c->x_start_on_y[0] = 0;
 4302              		.loc 1 1380 9 is_stmt 1 view .LVU1486
1380:lvgl/src/draw/lv_draw_mask.c ****         c->x_start_on_y[0] = 0;
 4303              		.loc 1 1380 10 is_stmt 0 view .LVU1487
 4304 0082 EA68     		ldr	r2, [r5, #12]
1380:lvgl/src/draw/lv_draw_mask.c ****         c->x_start_on_y[0] = 0;
 4305              		.loc 1 1380 30 view .LVU1488
 4306 0084 0121     		movs	r1, #1
 4307 0086 5180     		strh	r1, [r2, #2]	@ movhi
1381:lvgl/src/draw/lv_draw_mask.c ****         return;
 4308              		.loc 1 1381 9 is_stmt 1 view .LVU1489
1381:lvgl/src/draw/lv_draw_mask.c ****         return;
 4309              		.loc 1 1381 10 is_stmt 0 view .LVU1490
 4310 0088 AA68     		ldr	r2, [r5, #8]
1381:lvgl/src/draw/lv_draw_mask.c ****         return;
 4311              		.loc 1 1381 28 view .LVU1491
 4312 008a 1380     		strh	r3, [r2]	@ movhi
1382:lvgl/src/draw/lv_draw_mask.c ****     }
 4313              		.loc 1 1382 9 is_stmt 1 view .LVU1492
 4314 008c 27E1     		b	.L318
 4315              	.LVL532:
 4316              	.L325:
1409:lvgl/src/draw/lv_draw_mask.c **** 
 4317              		.loc 1 1409 9 view .LVU1493
1409:lvgl/src/draw/lv_draw_mask.c **** 
 4318              		.loc 1 1409 11 is_stmt 0 view .LVU1494
 4319 008e B8F1040F 		cmp	r8, #4
 4320 0092 40F0B580 		bne	.L327
ARM GAS  /var/folders/21/t9g5rlb91ys800n5npymflf80000gn/T//cc0CxbBx.s 			page 129


1412:lvgl/src/draw/lv_draw_mask.c ****             cir_x[cir_size] = x_int[0];
 4321              		.loc 1 1412 9 is_stmt 1 view .LVU1495
1412:lvgl/src/draw/lv_draw_mask.c ****             cir_x[cir_size] = x_int[0];
 4322              		.loc 1 1412 17 is_stmt 0 view .LVU1496
 4323 0096 069B     		ldr	r3, [sp, #24]
1412:lvgl/src/draw/lv_draw_mask.c ****             cir_x[cir_size] = x_int[0];
 4324              		.loc 1 1412 29 view .LVU1497
 4325 0098 099A     		ldr	r2, [sp, #36]
1412:lvgl/src/draw/lv_draw_mask.c ****             cir_x[cir_size] = x_int[0];
 4326              		.loc 1 1412 11 view .LVU1498
 4327 009a 9342     		cmp	r3, r2
 4328 009c 4CD0     		beq	.L351
1420:lvgl/src/draw/lv_draw_mask.c ****             cir_x[cir_size] = x_int[0];
 4329              		.loc 1 1420 14 is_stmt 1 view .LVU1499
1420:lvgl/src/draw/lv_draw_mask.c ****             cir_x[cir_size] = x_int[0];
 4330              		.loc 1 1420 34 is_stmt 0 view .LVU1500
 4331 009e 079A     		ldr	r2, [sp, #28]
1420:lvgl/src/draw/lv_draw_mask.c ****             cir_x[cir_size] = x_int[0];
 4332              		.loc 1 1420 16 view .LVU1501
 4333 00a0 9342     		cmp	r3, r2
 4334 00a2 5FD0     		beq	.L330
1421:lvgl/src/draw/lv_draw_mask.c ****             cir_y[cir_size] = y_8th_cnt;
 4335              		.loc 1 1421 13 is_stmt 1 view .LVU1502
1421:lvgl/src/draw/lv_draw_mask.c ****             cir_y[cir_size] = y_8th_cnt;
 4336              		.loc 1 1421 29 is_stmt 0 view .LVU1503
 4337 00a4 27F81430 		strh	r3, [r7, r4, lsl #1]	@ movhi
1422:lvgl/src/draw/lv_draw_mask.c ****             c->cir_opa[cir_size] = x_fract[0];
 4338              		.loc 1 1422 13 is_stmt 1 view .LVU1504
1422:lvgl/src/draw/lv_draw_mask.c ****             c->cir_opa[cir_size] = x_fract[0];
 4339              		.loc 1 1422 29 is_stmt 0 view .LVU1505
 4340 00a8 0FFA89F1 		sxth	r1, r9
 4341 00ac 26F81410 		strh	r1, [r6, r4, lsl #1]	@ movhi
1423:lvgl/src/draw/lv_draw_mask.c ****             c->cir_opa[cir_size] *= 16;
 4342              		.loc 1 1423 13 is_stmt 1 view .LVU1506
1423:lvgl/src/draw/lv_draw_mask.c ****             c->cir_opa[cir_size] *= 16;
 4343              		.loc 1 1423 14 is_stmt 0 view .LVU1507
 4344 00b0 6A68     		ldr	r2, [r5, #4]
1423:lvgl/src/draw/lv_draw_mask.c ****             c->cir_opa[cir_size] *= 16;
 4345              		.loc 1 1423 34 view .LVU1508
 4346 00b2 0298     		ldr	r0, [sp, #8]
 4347 00b4 1055     		strb	r0, [r2, r4]
1424:lvgl/src/draw/lv_draw_mask.c ****             cir_size++;
 4348              		.loc 1 1424 13 is_stmt 1 view .LVU1509
1424:lvgl/src/draw/lv_draw_mask.c ****             cir_size++;
 4349              		.loc 1 1424 14 is_stmt 0 view .LVU1510
 4350 00b6 6868     		ldr	r0, [r5, #4]
1424:lvgl/src/draw/lv_draw_mask.c ****             cir_size++;
 4351              		.loc 1 1424 23 view .LVU1511
 4352 00b8 025D     		ldrb	r2, [r0, r4]	@ zero_extendqisi2
1424:lvgl/src/draw/lv_draw_mask.c ****             cir_size++;
 4353              		.loc 1 1424 34 view .LVU1512
 4354 00ba 1201     		lsls	r2, r2, #4
 4355 00bc 0255     		strb	r2, [r0, r4]
1425:lvgl/src/draw/lv_draw_mask.c **** 
 4356              		.loc 1 1425 13 is_stmt 1 view .LVU1513
1425:lvgl/src/draw/lv_draw_mask.c **** 
 4357              		.loc 1 1425 21 is_stmt 0 view .LVU1514
ARM GAS  /var/folders/21/t9g5rlb91ys800n5npymflf80000gn/T//cc0CxbBx.s 			page 130


 4358 00be A4B2     		uxth	r4, r4
1425:lvgl/src/draw/lv_draw_mask.c **** 
 4359              		.loc 1 1425 21 view .LVU1515
 4360 00c0 621C     		adds	r2, r4, #1
 4361 00c2 12B2     		sxth	r2, r2
 4362              	.LVL533:
1427:lvgl/src/draw/lv_draw_mask.c ****             cir_y[cir_size] = y_8th_cnt;
 4363              		.loc 1 1427 13 is_stmt 1 view .LVU1516
1427:lvgl/src/draw/lv_draw_mask.c ****             cir_y[cir_size] = y_8th_cnt;
 4364              		.loc 1 1427 40 is_stmt 0 view .LVU1517
 4365 00c4 013B     		subs	r3, r3, #1
1427:lvgl/src/draw/lv_draw_mask.c ****             cir_y[cir_size] = y_8th_cnt;
 4366              		.loc 1 1427 29 view .LVU1518
 4367 00c6 27F81230 		strh	r3, [r7, r2, lsl #1]	@ movhi
1428:lvgl/src/draw/lv_draw_mask.c ****             c->cir_opa[cir_size] = 1 * 4 + x_fract[1] + x_fract[2] + x_fract[3];;
 4368              		.loc 1 1428 13 is_stmt 1 view .LVU1519
1428:lvgl/src/draw/lv_draw_mask.c ****             c->cir_opa[cir_size] = 1 * 4 + x_fract[1] + x_fract[2] + x_fract[3];;
 4369              		.loc 1 1428 29 is_stmt 0 view .LVU1520
 4370 00ca 26F81210 		strh	r1, [r6, r2, lsl #1]	@ movhi
1429:lvgl/src/draw/lv_draw_mask.c ****             c->cir_opa[cir_size] *= 16;
 4371              		.loc 1 1429 13 is_stmt 1 view .LVU1521
1429:lvgl/src/draw/lv_draw_mask.c ****             c->cir_opa[cir_size] *= 16;
 4372              		.loc 1 1429 55 is_stmt 0 view .LVU1522
 4373 00ce 039B     		ldr	r3, [sp, #12]
 4374 00d0 0499     		ldr	r1, [sp, #16]
 4375 00d2 0B44     		add	r3, r3, r1
1429:lvgl/src/draw/lv_draw_mask.c ****             c->cir_opa[cir_size] *= 16;
 4376              		.loc 1 1429 14 view .LVU1523
 4377 00d4 6968     		ldr	r1, [r5, #4]
1429:lvgl/src/draw/lv_draw_mask.c ****             c->cir_opa[cir_size] *= 16;
 4378              		.loc 1 1429 68 view .LVU1524
 4379 00d6 0598     		ldr	r0, [sp, #20]
 4380 00d8 50FA83F3 		uxtab	r3, r0, r3
 4381 00dc 0433     		adds	r3, r3, #4
1429:lvgl/src/draw/lv_draw_mask.c ****             c->cir_opa[cir_size] *= 16;
 4382              		.loc 1 1429 34 view .LVU1525
 4383 00de 8B54     		strb	r3, [r1, r2]
1429:lvgl/src/draw/lv_draw_mask.c ****             c->cir_opa[cir_size] *= 16;
 4384              		.loc 1 1429 81 is_stmt 1 view .LVU1526
1430:lvgl/src/draw/lv_draw_mask.c ****             cir_size++;
 4385              		.loc 1 1430 13 view .LVU1527
1430:lvgl/src/draw/lv_draw_mask.c ****             cir_size++;
 4386              		.loc 1 1430 14 is_stmt 0 view .LVU1528
 4387 00e0 6968     		ldr	r1, [r5, #4]
1430:lvgl/src/draw/lv_draw_mask.c ****             cir_size++;
 4388              		.loc 1 1430 23 view .LVU1529
 4389 00e2 8B5C     		ldrb	r3, [r1, r2]	@ zero_extendqisi2
1430:lvgl/src/draw/lv_draw_mask.c ****             cir_size++;
 4390              		.loc 1 1430 34 view .LVU1530
 4391 00e4 1B01     		lsls	r3, r3, #4
 4392 00e6 8B54     		strb	r3, [r1, r2]
1431:lvgl/src/draw/lv_draw_mask.c ****         }
 4393              		.loc 1 1431 13 is_stmt 1 view .LVU1531
1431:lvgl/src/draw/lv_draw_mask.c ****         }
 4394              		.loc 1 1431 21 is_stmt 0 view .LVU1532
 4395 00e8 0234     		adds	r4, r4, #2
 4396 00ea 24B2     		sxth	r4, r4
ARM GAS  /var/folders/21/t9g5rlb91ys800n5npymflf80000gn/T//cc0CxbBx.s 			page 131


 4397              	.LVL534:
 4398              	.L329:
1462:lvgl/src/draw/lv_draw_mask.c ****     }
 4399              		.loc 1 1462 9 is_stmt 1 view .LVU1533
1462:lvgl/src/draw/lv_draw_mask.c ****     }
 4400              		.loc 1 1462 18 is_stmt 0 view .LVU1534
 4401 00ec 09F10109 		add	r9, r9, #1
 4402              	.LVL535:
 4403              	.L324:
1401:lvgl/src/draw/lv_draw_mask.c ****         /*Calculate 4 point of the circle */
 4404              		.loc 1 1401 11 is_stmt 1 view .LVU1535
 4405 00f0 0BA8     		add	r0, sp, #44
 4406 00f2 FFF7FEFF 		bl	circ_cont
 4407              	.LVL536:
 4408 00f6 0028     		cmp	r0, #0
 4409 00f8 00F08280 		beq	.L327
1403:lvgl/src/draw/lv_draw_mask.c ****             circ_next(&cp, &tmp);
 4410              		.loc 1 1403 15 is_stmt 0 view .LVU1536
 4411 00fc 4FF00008 		mov	r8, #0
 4412              	.L332:
 4413              	.LVL537:
1403:lvgl/src/draw/lv_draw_mask.c ****             circ_next(&cp, &tmp);
 4414              		.loc 1 1403 22 is_stmt 1 discriminator 1 view .LVU1537
 4415 0100 B8F1030F 		cmp	r8, #3
 4416 0104 C3DC     		bgt	.L325
1404:lvgl/src/draw/lv_draw_mask.c ****             if(circ_cont(&cp) == false) break;
 4417              		.loc 1 1404 13 view .LVU1538
 4418 0106 0DF12A01 		add	r1, sp, #42
 4419 010a 0BA8     		add	r0, sp, #44
 4420 010c FFF7FEFF 		bl	circ_next
 4421              	.LVL538:
1405:lvgl/src/draw/lv_draw_mask.c ****             x_int[i] = cp.x >> 2;
 4422              		.loc 1 1405 13 view .LVU1539
1405:lvgl/src/draw/lv_draw_mask.c ****             x_int[i] = cp.x >> 2;
 4423              		.loc 1 1405 16 is_stmt 0 view .LVU1540
 4424 0110 0BA8     		add	r0, sp, #44
 4425 0112 FFF7FEFF 		bl	circ_cont
 4426              	.LVL539:
1405:lvgl/src/draw/lv_draw_mask.c ****             x_int[i] = cp.x >> 2;
 4427              		.loc 1 1405 15 view .LVU1541
 4428 0116 0028     		cmp	r0, #0
 4429 0118 B9D0     		beq	.L325
1406:lvgl/src/draw/lv_draw_mask.c ****             x_fract[i] = cp.x & 0x3;
 4430              		.loc 1 1406 13 is_stmt 1 discriminator 2 view .LVU1542
1406:lvgl/src/draw/lv_draw_mask.c ****             x_fract[i] = cp.x & 0x3;
 4431              		.loc 1 1406 26 is_stmt 0 discriminator 2 view .LVU1543
 4432 011a BDF92C30 		ldrsh	r3, [sp, #44]
1406:lvgl/src/draw/lv_draw_mask.c ****             x_fract[i] = cp.x & 0x3;
 4433              		.loc 1 1406 29 discriminator 2 view .LVU1544
 4434 011e 9910     		asrs	r1, r3, #2
1406:lvgl/src/draw/lv_draw_mask.c ****             x_fract[i] = cp.x & 0x3;
 4435              		.loc 1 1406 22 discriminator 2 view .LVU1545
 4436 0120 0CAA     		add	r2, sp, #48
 4437 0122 02EB8802 		add	r2, r2, r8, lsl #2
 4438 0126 42F8181C 		str	r1, [r2, #-24]
1407:lvgl/src/draw/lv_draw_mask.c ****         }
 4439              		.loc 1 1407 13 is_stmt 1 discriminator 2 view .LVU1546
ARM GAS  /var/folders/21/t9g5rlb91ys800n5npymflf80000gn/T//cc0CxbBx.s 			page 132


1407:lvgl/src/draw/lv_draw_mask.c ****         }
 4440              		.loc 1 1407 31 is_stmt 0 discriminator 2 view .LVU1547
 4441 012a 03F00303 		and	r3, r3, #3
1407:lvgl/src/draw/lv_draw_mask.c ****         }
 4442              		.loc 1 1407 24 discriminator 2 view .LVU1548
 4443 012e 42F8283C 		str	r3, [r2, #-40]
1403:lvgl/src/draw/lv_draw_mask.c ****             circ_next(&cp, &tmp);
 4444              		.loc 1 1403 28 is_stmt 1 discriminator 2 view .LVU1549
 4445 0132 08F10108 		add	r8, r8, #1
 4446              	.LVL540:
1403:lvgl/src/draw/lv_draw_mask.c ****             circ_next(&cp, &tmp);
 4447              		.loc 1 1403 28 is_stmt 0 discriminator 2 view .LVU1550
 4448 0136 E3E7     		b	.L332
 4449              	.L351:
1413:lvgl/src/draw/lv_draw_mask.c ****             cir_y[cir_size] = y_8th_cnt;
 4450              		.loc 1 1413 13 is_stmt 1 view .LVU1551
1413:lvgl/src/draw/lv_draw_mask.c ****             cir_y[cir_size] = y_8th_cnt;
 4451              		.loc 1 1413 29 is_stmt 0 view .LVU1552
 4452 0138 27F81430 		strh	r3, [r7, r4, lsl #1]	@ movhi
1414:lvgl/src/draw/lv_draw_mask.c ****             c->cir_opa[cir_size] = x_fract[0] + x_fract[1] + x_fract[2] + x_fract[3];
 4453              		.loc 1 1414 13 is_stmt 1 view .LVU1553
1414:lvgl/src/draw/lv_draw_mask.c ****             c->cir_opa[cir_size] = x_fract[0] + x_fract[1] + x_fract[2] + x_fract[3];
 4454              		.loc 1 1414 29 is_stmt 0 view .LVU1554
 4455 013c 26F81490 		strh	r9, [r6, r4, lsl #1]	@ movhi
1415:lvgl/src/draw/lv_draw_mask.c ****             c->cir_opa[cir_size] *= 16;
 4456              		.loc 1 1415 13 is_stmt 1 view .LVU1555
1415:lvgl/src/draw/lv_draw_mask.c ****             c->cir_opa[cir_size] *= 16;
 4457              		.loc 1 1415 47 is_stmt 0 view .LVU1556
 4458 0140 029B     		ldr	r3, [sp, #8]
 4459 0142 039A     		ldr	r2, [sp, #12]
 4460 0144 1344     		add	r3, r3, r2
1415:lvgl/src/draw/lv_draw_mask.c ****             c->cir_opa[cir_size] *= 16;
 4461              		.loc 1 1415 69 view .LVU1557
 4462 0146 049A     		ldr	r2, [sp, #16]
1415:lvgl/src/draw/lv_draw_mask.c ****             c->cir_opa[cir_size] *= 16;
 4463              		.loc 1 1415 60 view .LVU1558
 4464 0148 52FA83F3 		uxtab	r3, r2, r3
1415:lvgl/src/draw/lv_draw_mask.c ****             c->cir_opa[cir_size] *= 16;
 4465              		.loc 1 1415 14 view .LVU1559
 4466 014c 6A68     		ldr	r2, [r5, #4]
1415:lvgl/src/draw/lv_draw_mask.c ****             c->cir_opa[cir_size] *= 16;
 4467              		.loc 1 1415 73 view .LVU1560
 4468 014e 0599     		ldr	r1, [sp, #20]
 4469 0150 51FA83F3 		uxtab	r3, r1, r3
1415:lvgl/src/draw/lv_draw_mask.c ****             c->cir_opa[cir_size] *= 16;
 4470              		.loc 1 1415 34 view .LVU1561
 4471 0154 1355     		strb	r3, [r2, r4]
1416:lvgl/src/draw/lv_draw_mask.c ****             cir_size++;
 4472              		.loc 1 1416 13 is_stmt 1 view .LVU1562
1416:lvgl/src/draw/lv_draw_mask.c ****             cir_size++;
 4473              		.loc 1 1416 14 is_stmt 0 view .LVU1563
 4474 0156 6A68     		ldr	r2, [r5, #4]
1416:lvgl/src/draw/lv_draw_mask.c ****             cir_size++;
 4475              		.loc 1 1416 23 view .LVU1564
 4476 0158 135D     		ldrb	r3, [r2, r4]	@ zero_extendqisi2
1416:lvgl/src/draw/lv_draw_mask.c ****             cir_size++;
 4477              		.loc 1 1416 34 view .LVU1565
ARM GAS  /var/folders/21/t9g5rlb91ys800n5npymflf80000gn/T//cc0CxbBx.s 			page 133


 4478 015a 1B01     		lsls	r3, r3, #4
 4479 015c 1355     		strb	r3, [r2, r4]
1417:lvgl/src/draw/lv_draw_mask.c ****         }
 4480              		.loc 1 1417 13 is_stmt 1 view .LVU1566
1417:lvgl/src/draw/lv_draw_mask.c ****         }
 4481              		.loc 1 1417 21 is_stmt 0 view .LVU1567
 4482 015e 0134     		adds	r4, r4, #1
 4483              	.LVL541:
1417:lvgl/src/draw/lv_draw_mask.c ****         }
 4484              		.loc 1 1417 21 view .LVU1568
 4485 0160 24B2     		sxth	r4, r4
 4486              	.LVL542:
1417:lvgl/src/draw/lv_draw_mask.c ****         }
 4487              		.loc 1 1417 21 view .LVU1569
 4488 0162 C3E7     		b	.L329
 4489              	.L330:
1434:lvgl/src/draw/lv_draw_mask.c ****             cir_x[cir_size] = x_int[0];
 4490              		.loc 1 1434 14 is_stmt 1 view .LVU1570
1434:lvgl/src/draw/lv_draw_mask.c ****             cir_x[cir_size] = x_int[0];
 4491              		.loc 1 1434 34 is_stmt 0 view .LVU1571
 4492 0164 089A     		ldr	r2, [sp, #32]
1434:lvgl/src/draw/lv_draw_mask.c ****             cir_x[cir_size] = x_int[0];
 4493              		.loc 1 1434 16 view .LVU1572
 4494 0166 9342     		cmp	r3, r2
 4495 0168 23D0     		beq	.L331
1435:lvgl/src/draw/lv_draw_mask.c ****             cir_y[cir_size] = y_8th_cnt;
 4496              		.loc 1 1435 13 is_stmt 1 view .LVU1573
1435:lvgl/src/draw/lv_draw_mask.c ****             cir_y[cir_size] = y_8th_cnt;
 4497              		.loc 1 1435 29 is_stmt 0 view .LVU1574
 4498 016a 27F81430 		strh	r3, [r7, r4, lsl #1]	@ movhi
1436:lvgl/src/draw/lv_draw_mask.c ****             c->cir_opa[cir_size] = x_fract[0] + x_fract[1];
 4499              		.loc 1 1436 13 is_stmt 1 view .LVU1575
1436:lvgl/src/draw/lv_draw_mask.c ****             c->cir_opa[cir_size] = x_fract[0] + x_fract[1];
 4500              		.loc 1 1436 29 is_stmt 0 view .LVU1576
 4501 016e 0FFA89FC 		sxth	ip, r9
 4502 0172 26F814C0 		strh	ip, [r6, r4, lsl #1]	@ movhi
1437:lvgl/src/draw/lv_draw_mask.c ****             c->cir_opa[cir_size] *= 16;
 4503              		.loc 1 1437 13 is_stmt 1 view .LVU1577
1437:lvgl/src/draw/lv_draw_mask.c ****             c->cir_opa[cir_size] *= 16;
 4504              		.loc 1 1437 14 is_stmt 0 view .LVU1578
 4505 0176 6968     		ldr	r1, [r5, #4]
1437:lvgl/src/draw/lv_draw_mask.c ****             c->cir_opa[cir_size] *= 16;
 4506              		.loc 1 1437 47 view .LVU1579
 4507 0178 029A     		ldr	r2, [sp, #8]
 4508 017a 0398     		ldr	r0, [sp, #12]
 4509 017c 0244     		add	r2, r2, r0
1437:lvgl/src/draw/lv_draw_mask.c ****             c->cir_opa[cir_size] *= 16;
 4510              		.loc 1 1437 34 view .LVU1580
 4511 017e 0A55     		strb	r2, [r1, r4]
1438:lvgl/src/draw/lv_draw_mask.c ****             cir_size++;
 4512              		.loc 1 1438 13 is_stmt 1 view .LVU1581
1438:lvgl/src/draw/lv_draw_mask.c ****             cir_size++;
 4513              		.loc 1 1438 14 is_stmt 0 view .LVU1582
 4514 0180 6968     		ldr	r1, [r5, #4]
1438:lvgl/src/draw/lv_draw_mask.c ****             cir_size++;
 4515              		.loc 1 1438 23 view .LVU1583
 4516 0182 0A5D     		ldrb	r2, [r1, r4]	@ zero_extendqisi2
ARM GAS  /var/folders/21/t9g5rlb91ys800n5npymflf80000gn/T//cc0CxbBx.s 			page 134


1438:lvgl/src/draw/lv_draw_mask.c ****             cir_size++;
 4517              		.loc 1 1438 34 view .LVU1584
 4518 0184 1201     		lsls	r2, r2, #4
 4519 0186 0A55     		strb	r2, [r1, r4]
1439:lvgl/src/draw/lv_draw_mask.c **** 
 4520              		.loc 1 1439 13 is_stmt 1 view .LVU1585
1439:lvgl/src/draw/lv_draw_mask.c **** 
 4521              		.loc 1 1439 21 is_stmt 0 view .LVU1586
 4522 0188 A4B2     		uxth	r4, r4
1439:lvgl/src/draw/lv_draw_mask.c **** 
 4523              		.loc 1 1439 21 view .LVU1587
 4524 018a 621C     		adds	r2, r4, #1
 4525 018c 12B2     		sxth	r2, r2
 4526              	.LVL543:
1441:lvgl/src/draw/lv_draw_mask.c ****             cir_y[cir_size] = y_8th_cnt;
 4527              		.loc 1 1441 13 is_stmt 1 view .LVU1588
1441:lvgl/src/draw/lv_draw_mask.c ****             cir_y[cir_size] = y_8th_cnt;
 4528              		.loc 1 1441 40 is_stmt 0 view .LVU1589
 4529 018e 013B     		subs	r3, r3, #1
1441:lvgl/src/draw/lv_draw_mask.c ****             cir_y[cir_size] = y_8th_cnt;
 4530              		.loc 1 1441 29 view .LVU1590
 4531 0190 27F81230 		strh	r3, [r7, r2, lsl #1]	@ movhi
1442:lvgl/src/draw/lv_draw_mask.c ****             c->cir_opa[cir_size] = 2 * 4 + x_fract[2] + x_fract[3];;
 4532              		.loc 1 1442 13 is_stmt 1 view .LVU1591
1442:lvgl/src/draw/lv_draw_mask.c ****             c->cir_opa[cir_size] = 2 * 4 + x_fract[2] + x_fract[3];;
 4533              		.loc 1 1442 29 is_stmt 0 view .LVU1592
 4534 0194 26F812C0 		strh	ip, [r6, r2, lsl #1]	@ movhi
1443:lvgl/src/draw/lv_draw_mask.c ****             c->cir_opa[cir_size] *= 16;
 4535              		.loc 1 1443 13 is_stmt 1 view .LVU1593
1443:lvgl/src/draw/lv_draw_mask.c ****             c->cir_opa[cir_size] *= 16;
 4536              		.loc 1 1443 14 is_stmt 0 view .LVU1594
 4537 0198 6968     		ldr	r1, [r5, #4]
1443:lvgl/src/draw/lv_draw_mask.c ****             c->cir_opa[cir_size] *= 16;
 4538              		.loc 1 1443 55 view .LVU1595
 4539 019a 049B     		ldr	r3, [sp, #16]
 4540 019c 0598     		ldr	r0, [sp, #20]
 4541 019e 0344     		add	r3, r3, r0
 4542 01a0 0833     		adds	r3, r3, #8
1443:lvgl/src/draw/lv_draw_mask.c ****             c->cir_opa[cir_size] *= 16;
 4543              		.loc 1 1443 34 view .LVU1596
 4544 01a2 8B54     		strb	r3, [r1, r2]
1443:lvgl/src/draw/lv_draw_mask.c ****             c->cir_opa[cir_size] *= 16;
 4545              		.loc 1 1443 68 is_stmt 1 view .LVU1597
1444:lvgl/src/draw/lv_draw_mask.c ****             cir_size++;
 4546              		.loc 1 1444 13 view .LVU1598
1444:lvgl/src/draw/lv_draw_mask.c ****             cir_size++;
 4547              		.loc 1 1444 14 is_stmt 0 view .LVU1599
 4548 01a4 6968     		ldr	r1, [r5, #4]
1444:lvgl/src/draw/lv_draw_mask.c ****             cir_size++;
 4549              		.loc 1 1444 23 view .LVU1600
 4550 01a6 8B5C     		ldrb	r3, [r1, r2]	@ zero_extendqisi2
1444:lvgl/src/draw/lv_draw_mask.c ****             cir_size++;
 4551              		.loc 1 1444 34 view .LVU1601
 4552 01a8 1B01     		lsls	r3, r3, #4
 4553 01aa 8B54     		strb	r3, [r1, r2]
1445:lvgl/src/draw/lv_draw_mask.c ****         }
 4554              		.loc 1 1445 13 is_stmt 1 view .LVU1602
ARM GAS  /var/folders/21/t9g5rlb91ys800n5npymflf80000gn/T//cc0CxbBx.s 			page 135


1445:lvgl/src/draw/lv_draw_mask.c ****         }
 4555              		.loc 1 1445 21 is_stmt 0 view .LVU1603
 4556 01ac 0234     		adds	r4, r4, #2
 4557 01ae 24B2     		sxth	r4, r4
 4558              	.LVL544:
1445:lvgl/src/draw/lv_draw_mask.c ****         }
 4559              		.loc 1 1445 21 view .LVU1604
 4560 01b0 9CE7     		b	.L329
 4561              	.L331:
1449:lvgl/src/draw/lv_draw_mask.c ****             cir_y[cir_size] = y_8th_cnt;
 4562              		.loc 1 1449 13 is_stmt 1 view .LVU1605
1449:lvgl/src/draw/lv_draw_mask.c ****             cir_y[cir_size] = y_8th_cnt;
 4563              		.loc 1 1449 29 is_stmt 0 view .LVU1606
 4564 01b2 27F81430 		strh	r3, [r7, r4, lsl #1]	@ movhi
1450:lvgl/src/draw/lv_draw_mask.c ****             c->cir_opa[cir_size] = x_fract[0] + x_fract[1] + x_fract[2];
 4565              		.loc 1 1450 13 is_stmt 1 view .LVU1607
1450:lvgl/src/draw/lv_draw_mask.c ****             c->cir_opa[cir_size] = x_fract[0] + x_fract[1] + x_fract[2];
 4566              		.loc 1 1450 29 is_stmt 0 view .LVU1608
 4567 01b6 0FFA89F1 		sxth	r1, r9
 4568 01ba 26F81410 		strh	r1, [r6, r4, lsl #1]	@ movhi
1451:lvgl/src/draw/lv_draw_mask.c ****             c->cir_opa[cir_size] *= 16;
 4569              		.loc 1 1451 13 is_stmt 1 view .LVU1609
1451:lvgl/src/draw/lv_draw_mask.c ****             c->cir_opa[cir_size] *= 16;
 4570              		.loc 1 1451 47 is_stmt 0 view .LVU1610
 4571 01be 029A     		ldr	r2, [sp, #8]
 4572 01c0 0398     		ldr	r0, [sp, #12]
 4573 01c2 0244     		add	r2, r2, r0
1451:lvgl/src/draw/lv_draw_mask.c ****             c->cir_opa[cir_size] *= 16;
 4574              		.loc 1 1451 14 view .LVU1611
 4575 01c4 6868     		ldr	r0, [r5, #4]
 4576 01c6 0190     		str	r0, [sp, #4]
1451:lvgl/src/draw/lv_draw_mask.c ****             c->cir_opa[cir_size] *= 16;
 4577              		.loc 1 1451 60 view .LVU1612
 4578 01c8 0498     		ldr	r0, [sp, #16]
 4579 01ca 50FA82F2 		uxtab	r2, r0, r2
1451:lvgl/src/draw/lv_draw_mask.c ****             c->cir_opa[cir_size] *= 16;
 4580              		.loc 1 1451 34 view .LVU1613
 4581 01ce 0198     		ldr	r0, [sp, #4]
 4582 01d0 0255     		strb	r2, [r0, r4]
1452:lvgl/src/draw/lv_draw_mask.c ****             cir_size++;
 4583              		.loc 1 1452 13 is_stmt 1 view .LVU1614
1452:lvgl/src/draw/lv_draw_mask.c ****             cir_size++;
 4584              		.loc 1 1452 14 is_stmt 0 view .LVU1615
 4585 01d2 6868     		ldr	r0, [r5, #4]
1452:lvgl/src/draw/lv_draw_mask.c ****             cir_size++;
 4586              		.loc 1 1452 23 view .LVU1616
 4587 01d4 025D     		ldrb	r2, [r0, r4]	@ zero_extendqisi2
1452:lvgl/src/draw/lv_draw_mask.c ****             cir_size++;
 4588              		.loc 1 1452 34 view .LVU1617
 4589 01d6 1201     		lsls	r2, r2, #4
 4590 01d8 0255     		strb	r2, [r0, r4]
1453:lvgl/src/draw/lv_draw_mask.c **** 
 4591              		.loc 1 1453 13 is_stmt 1 view .LVU1618
1453:lvgl/src/draw/lv_draw_mask.c **** 
 4592              		.loc 1 1453 21 is_stmt 0 view .LVU1619
 4593 01da A4B2     		uxth	r4, r4
1453:lvgl/src/draw/lv_draw_mask.c **** 
ARM GAS  /var/folders/21/t9g5rlb91ys800n5npymflf80000gn/T//cc0CxbBx.s 			page 136


 4594              		.loc 1 1453 21 view .LVU1620
 4595 01dc 621C     		adds	r2, r4, #1
 4596 01de 12B2     		sxth	r2, r2
 4597              	.LVL545:
1455:lvgl/src/draw/lv_draw_mask.c ****             cir_y[cir_size] = y_8th_cnt;
 4598              		.loc 1 1455 13 is_stmt 1 view .LVU1621
1455:lvgl/src/draw/lv_draw_mask.c ****             cir_y[cir_size] = y_8th_cnt;
 4599              		.loc 1 1455 40 is_stmt 0 view .LVU1622
 4600 01e0 013B     		subs	r3, r3, #1
1455:lvgl/src/draw/lv_draw_mask.c ****             cir_y[cir_size] = y_8th_cnt;
 4601              		.loc 1 1455 29 view .LVU1623
 4602 01e2 27F81230 		strh	r3, [r7, r2, lsl #1]	@ movhi
1456:lvgl/src/draw/lv_draw_mask.c ****             c->cir_opa[cir_size] = 3 * 4 + x_fract[3];;
 4603              		.loc 1 1456 13 is_stmt 1 view .LVU1624
1456:lvgl/src/draw/lv_draw_mask.c ****             c->cir_opa[cir_size] = 3 * 4 + x_fract[3];;
 4604              		.loc 1 1456 29 is_stmt 0 view .LVU1625
 4605 01e6 26F81210 		strh	r1, [r6, r2, lsl #1]	@ movhi
1457:lvgl/src/draw/lv_draw_mask.c ****             c->cir_opa[cir_size] *= 16;
 4606              		.loc 1 1457 13 is_stmt 1 view .LVU1626
1457:lvgl/src/draw/lv_draw_mask.c ****             c->cir_opa[cir_size] *= 16;
 4607              		.loc 1 1457 14 is_stmt 0 view .LVU1627
 4608 01ea 6968     		ldr	r1, [r5, #4]
1457:lvgl/src/draw/lv_draw_mask.c ****             c->cir_opa[cir_size] *= 16;
 4609              		.loc 1 1457 42 view .LVU1628
 4610 01ec 059B     		ldr	r3, [sp, #20]
 4611 01ee 0C33     		adds	r3, r3, #12
1457:lvgl/src/draw/lv_draw_mask.c ****             c->cir_opa[cir_size] *= 16;
 4612              		.loc 1 1457 34 view .LVU1629
 4613 01f0 8B54     		strb	r3, [r1, r2]
1457:lvgl/src/draw/lv_draw_mask.c ****             c->cir_opa[cir_size] *= 16;
 4614              		.loc 1 1457 55 is_stmt 1 view .LVU1630
1458:lvgl/src/draw/lv_draw_mask.c ****             cir_size++;
 4615              		.loc 1 1458 13 view .LVU1631
1458:lvgl/src/draw/lv_draw_mask.c ****             cir_size++;
 4616              		.loc 1 1458 14 is_stmt 0 view .LVU1632
 4617 01f2 6968     		ldr	r1, [r5, #4]
1458:lvgl/src/draw/lv_draw_mask.c ****             cir_size++;
 4618              		.loc 1 1458 23 view .LVU1633
 4619 01f4 8B5C     		ldrb	r3, [r1, r2]	@ zero_extendqisi2
1458:lvgl/src/draw/lv_draw_mask.c ****             cir_size++;
 4620              		.loc 1 1458 34 view .LVU1634
 4621 01f6 1B01     		lsls	r3, r3, #4
 4622 01f8 8B54     		strb	r3, [r1, r2]
1459:lvgl/src/draw/lv_draw_mask.c ****         }
 4623              		.loc 1 1459 13 is_stmt 1 view .LVU1635
1459:lvgl/src/draw/lv_draw_mask.c ****         }
 4624              		.loc 1 1459 21 is_stmt 0 view .LVU1636
 4625 01fa 0234     		adds	r4, r4, #2
 4626 01fc 24B2     		sxth	r4, r4
 4627              	.LVL546:
1459:lvgl/src/draw/lv_draw_mask.c ****         }
 4628              		.loc 1 1459 21 view .LVU1637
 4629 01fe 75E7     		b	.L329
 4630              	.LVL547:
 4631              	.L327:
1466:lvgl/src/draw/lv_draw_mask.c ****     int32_t mid_int = mid >> 10;
 4632              		.loc 1 1466 5 is_stmt 1 view .LVU1638
ARM GAS  /var/folders/21/t9g5rlb91ys800n5npymflf80000gn/T//cc0CxbBx.s 			page 137


1466:lvgl/src/draw/lv_draw_mask.c ****     int32_t mid_int = mid >> 10;
 4633              		.loc 1 1466 13 is_stmt 0 view .LVU1639
 4634 0200 40F2D323 		movw	r3, #723
 4635 0204 03FB0AFA 		mul	r10, r3, r10
 4636              	.LVL548:
1467:lvgl/src/draw/lv_draw_mask.c ****     if(cir_x[cir_size - 1] != mid_int || cir_y[cir_size - 1] != mid_int) {
 4637              		.loc 1 1467 5 is_stmt 1 view .LVU1640
1467:lvgl/src/draw/lv_draw_mask.c ****     if(cir_x[cir_size - 1] != mid_int || cir_y[cir_size - 1] != mid_int) {
 4638              		.loc 1 1467 13 is_stmt 0 view .LVU1641
 4639 0208 4FEAAA21 		asr	r1, r10, #10
 4640              	.LVL549:
1468:lvgl/src/draw/lv_draw_mask.c ****         int32_t tmp_val = mid - (mid_int << 10);
 4641              		.loc 1 1468 5 is_stmt 1 view .LVU1642
1468:lvgl/src/draw/lv_draw_mask.c ****         int32_t tmp_val = mid - (mid_int << 10);
 4642              		.loc 1 1468 13 is_stmt 0 view .LVU1643
 4643 020c 2246     		mov	r2, r4
 4644 020e 04F10043 		add	r3, r4, #-2147483648
 4645 0212 013B     		subs	r3, r3, #1
 4646 0214 37F91300 		ldrsh	r0, [r7, r3, lsl #1]
1468:lvgl/src/draw/lv_draw_mask.c ****         int32_t tmp_val = mid - (mid_int << 10);
 4647              		.loc 1 1468 7 view .LVU1644
 4648 0218 B0EBAA2F 		cmp	r0, r10, asr #10
 4649 021c 17D0     		beq	.L352
 4650              	.L333:
 4651              	.LBB191:
1469:lvgl/src/draw/lv_draw_mask.c ****         if(tmp_val <= 512) {
 4652              		.loc 1 1469 9 is_stmt 1 view .LVU1645
 4653 021e CAF3090A 		ubfx	r10, r10, #0, #10
 4654              	.LVL550:
1470:lvgl/src/draw/lv_draw_mask.c ****             tmp_val = tmp_val * tmp_val * 2;
 4655              		.loc 1 1470 9 view .LVU1646
1470:lvgl/src/draw/lv_draw_mask.c ****             tmp_val = tmp_val * tmp_val * 2;
 4656              		.loc 1 1470 11 is_stmt 0 view .LVU1647
 4657 0222 BAF5007F 		cmp	r10, #512
 4658 0226 17DC     		bgt	.L335
1471:lvgl/src/draw/lv_draw_mask.c ****             tmp_val = tmp_val >> (10 + 6);
 4659              		.loc 1 1471 13 is_stmt 1 view .LVU1648
1471:lvgl/src/draw/lv_draw_mask.c ****             tmp_val = tmp_val >> (10 + 6);
 4660              		.loc 1 1471 31 is_stmt 0 view .LVU1649
 4661 0228 0AFB0AFA 		mul	r10, r10, r10
 4662              	.LVL551:
1472:lvgl/src/draw/lv_draw_mask.c ****         }
 4663              		.loc 1 1472 13 is_stmt 1 view .LVU1650
1472:lvgl/src/draw/lv_draw_mask.c ****         }
 4664              		.loc 1 1472 21 is_stmt 0 view .LVU1651
 4665 022c 4FEAEA33 		asr	r3, r10, #15
 4666              	.LVL552:
 4667              	.L336:
1481:lvgl/src/draw/lv_draw_mask.c ****         cir_y[cir_size] = mid_int;
 4668              		.loc 1 1481 9 is_stmt 1 view .LVU1652
1481:lvgl/src/draw/lv_draw_mask.c ****         cir_y[cir_size] = mid_int;
 4669              		.loc 1 1481 25 is_stmt 0 view .LVU1653
 4670 0230 09B2     		sxth	r1, r1
 4671              	.LVL553:
1481:lvgl/src/draw/lv_draw_mask.c ****         cir_y[cir_size] = mid_int;
 4672              		.loc 1 1481 25 view .LVU1654
 4673 0232 27F81210 		strh	r1, [r7, r2, lsl #1]	@ movhi
ARM GAS  /var/folders/21/t9g5rlb91ys800n5npymflf80000gn/T//cc0CxbBx.s 			page 138


1482:lvgl/src/draw/lv_draw_mask.c ****         c->cir_opa[cir_size] = tmp_val;
 4674              		.loc 1 1482 9 is_stmt 1 view .LVU1655
1482:lvgl/src/draw/lv_draw_mask.c ****         c->cir_opa[cir_size] = tmp_val;
 4675              		.loc 1 1482 25 is_stmt 0 view .LVU1656
 4676 0236 26F81210 		strh	r1, [r6, r2, lsl #1]	@ movhi
1483:lvgl/src/draw/lv_draw_mask.c ****         c->cir_opa[cir_size] *= 16;
 4677              		.loc 1 1483 9 is_stmt 1 view .LVU1657
1483:lvgl/src/draw/lv_draw_mask.c ****         c->cir_opa[cir_size] *= 16;
 4678              		.loc 1 1483 10 is_stmt 0 view .LVU1658
 4679 023a 6968     		ldr	r1, [r5, #4]
1483:lvgl/src/draw/lv_draw_mask.c ****         c->cir_opa[cir_size] *= 16;
 4680              		.loc 1 1483 30 view .LVU1659
 4681 023c 8B54     		strb	r3, [r1, r2]
1484:lvgl/src/draw/lv_draw_mask.c ****         cir_size++;
 4682              		.loc 1 1484 9 is_stmt 1 view .LVU1660
1484:lvgl/src/draw/lv_draw_mask.c ****         cir_size++;
 4683              		.loc 1 1484 10 is_stmt 0 view .LVU1661
 4684 023e 6968     		ldr	r1, [r5, #4]
1484:lvgl/src/draw/lv_draw_mask.c ****         cir_size++;
 4685              		.loc 1 1484 19 view .LVU1662
 4686 0240 8B5C     		ldrb	r3, [r1, r2]	@ zero_extendqisi2
 4687              	.LVL554:
1484:lvgl/src/draw/lv_draw_mask.c ****         cir_size++;
 4688              		.loc 1 1484 30 view .LVU1663
 4689 0242 1B01     		lsls	r3, r3, #4
 4690 0244 8B54     		strb	r3, [r1, r2]
1485:lvgl/src/draw/lv_draw_mask.c ****     }
 4691              		.loc 1 1485 9 is_stmt 1 view .LVU1664
1485:lvgl/src/draw/lv_draw_mask.c ****     }
 4692              		.loc 1 1485 17 is_stmt 0 view .LVU1665
 4693 0246 0134     		adds	r4, r4, #1
 4694              	.LVL555:
1485:lvgl/src/draw/lv_draw_mask.c ****     }
 4695              		.loc 1 1485 17 view .LVU1666
 4696 0248 24B2     		sxth	r4, r4
 4697              	.LVL556:
 4698              	.L334:
1485:lvgl/src/draw/lv_draw_mask.c ****     }
 4699              		.loc 1 1485 17 view .LVU1667
 4700              	.LBE191:
1489:lvgl/src/draw/lv_draw_mask.c ****         cir_x[cir_size] = cir_y[i];
 4701              		.loc 1 1489 5 is_stmt 1 view .LVU1668
1489:lvgl/src/draw/lv_draw_mask.c ****         cir_x[cir_size] = cir_y[i];
 4702              		.loc 1 1489 11 is_stmt 0 view .LVU1669
 4703 024a A31E     		subs	r3, r4, #2
 4704              	.LVL557:
1489:lvgl/src/draw/lv_draw_mask.c ****         cir_x[cir_size] = cir_y[i];
 4705              		.loc 1 1489 5 view .LVU1670
 4706 024c 1BE0     		b	.L337
 4707              	.LVL558:
 4708              	.L352:
1468:lvgl/src/draw/lv_draw_mask.c ****         int32_t tmp_val = mid - (mid_int << 10);
 4709              		.loc 1 1468 47 discriminator 1 view .LVU1671
 4710 024e 36F91330 		ldrsh	r3, [r6, r3, lsl #1]
1468:lvgl/src/draw/lv_draw_mask.c ****         int32_t tmp_val = mid - (mid_int << 10);
 4711              		.loc 1 1468 39 discriminator 1 view .LVU1672
 4712 0252 8B42     		cmp	r3, r1
ARM GAS  /var/folders/21/t9g5rlb91ys800n5npymflf80000gn/T//cc0CxbBx.s 			page 139


 4713 0254 E3D1     		bne	.L333
 4714 0256 F8E7     		b	.L334
 4715              	.LVL559:
 4716              	.L335:
 4717              	.LBB192:
1475:lvgl/src/draw/lv_draw_mask.c ****             tmp_val = tmp_val * tmp_val * 2;
 4718              		.loc 1 1475 13 is_stmt 1 view .LVU1673
1475:lvgl/src/draw/lv_draw_mask.c ****             tmp_val = tmp_val * tmp_val * 2;
 4719              		.loc 1 1475 21 is_stmt 0 view .LVU1674
 4720 0258 CAF5806A 		rsb	r10, r10, #1024
 4721              	.LVL560:
1476:lvgl/src/draw/lv_draw_mask.c ****             tmp_val = tmp_val >> (10 + 6);
 4722              		.loc 1 1476 13 is_stmt 1 view .LVU1675
1476:lvgl/src/draw/lv_draw_mask.c ****             tmp_val = tmp_val >> (10 + 6);
 4723              		.loc 1 1476 31 is_stmt 0 view .LVU1676
 4724 025c 0AFB0AFA 		mul	r10, r10, r10
 4725              	.LVL561:
1477:lvgl/src/draw/lv_draw_mask.c ****             tmp_val = 15 - tmp_val;
 4726              		.loc 1 1477 13 is_stmt 1 view .LVU1677
1477:lvgl/src/draw/lv_draw_mask.c ****             tmp_val = 15 - tmp_val;
 4727              		.loc 1 1477 21 is_stmt 0 view .LVU1678
 4728 0260 4FEAEA33 		asr	r3, r10, #15
 4729              	.LVL562:
1478:lvgl/src/draw/lv_draw_mask.c ****         }
 4730              		.loc 1 1478 13 is_stmt 1 view .LVU1679
1478:lvgl/src/draw/lv_draw_mask.c ****         }
 4731              		.loc 1 1478 21 is_stmt 0 view .LVU1680
 4732 0264 C3F10F03 		rsb	r3, r3, #15
 4733              	.LVL563:
1478:lvgl/src/draw/lv_draw_mask.c ****         }
 4734              		.loc 1 1478 21 view .LVU1681
 4735 0268 E2E7     		b	.L336
 4736              	.LVL564:
 4737              	.L338:
1478:lvgl/src/draw/lv_draw_mask.c ****         }
 4738              		.loc 1 1478 21 view .LVU1682
 4739              	.LBE192:
1490:lvgl/src/draw/lv_draw_mask.c ****         cir_y[cir_size] = cir_x[i];
 4740              		.loc 1 1490 9 is_stmt 1 discriminator 3 view .LVU1683
1490:lvgl/src/draw/lv_draw_mask.c ****         cir_y[cir_size] = cir_x[i];
 4741              		.loc 1 1490 32 is_stmt 0 discriminator 3 view .LVU1684
 4742 026a 36F91320 		ldrsh	r2, [r6, r3, lsl #1]
1490:lvgl/src/draw/lv_draw_mask.c ****         cir_y[cir_size] = cir_x[i];
 4743              		.loc 1 1490 25 discriminator 3 view .LVU1685
 4744 026e 27F81420 		strh	r2, [r7, r4, lsl #1]	@ movhi
1491:lvgl/src/draw/lv_draw_mask.c ****         c->cir_opa[cir_size] = c->cir_opa[i];
 4745              		.loc 1 1491 9 is_stmt 1 discriminator 3 view .LVU1686
1491:lvgl/src/draw/lv_draw_mask.c ****         c->cir_opa[cir_size] = c->cir_opa[i];
 4746              		.loc 1 1491 32 is_stmt 0 discriminator 3 view .LVU1687
 4747 0272 37F91320 		ldrsh	r2, [r7, r3, lsl #1]
1491:lvgl/src/draw/lv_draw_mask.c ****         c->cir_opa[cir_size] = c->cir_opa[i];
 4748              		.loc 1 1491 25 discriminator 3 view .LVU1688
 4749 0276 26F81420 		strh	r2, [r6, r4, lsl #1]	@ movhi
1492:lvgl/src/draw/lv_draw_mask.c ****     }
 4750              		.loc 1 1492 9 is_stmt 1 discriminator 3 view .LVU1689
1492:lvgl/src/draw/lv_draw_mask.c ****     }
 4751              		.loc 1 1492 33 is_stmt 0 discriminator 3 view .LVU1690
ARM GAS  /var/folders/21/t9g5rlb91ys800n5npymflf80000gn/T//cc0CxbBx.s 			page 140


 4752 027a 6A68     		ldr	r2, [r5, #4]
1492:lvgl/src/draw/lv_draw_mask.c ****     }
 4753              		.loc 1 1492 42 discriminator 3 view .LVU1691
 4754 027c D15C     		ldrb	r1, [r2, r3]	@ zero_extendqisi2
1492:lvgl/src/draw/lv_draw_mask.c ****     }
 4755              		.loc 1 1492 30 discriminator 3 view .LVU1692
 4756 027e 1155     		strb	r1, [r2, r4]
1489:lvgl/src/draw/lv_draw_mask.c ****         cir_x[cir_size] = cir_y[i];
 4757              		.loc 1 1489 38 is_stmt 1 discriminator 3 view .LVU1693
1489:lvgl/src/draw/lv_draw_mask.c ****         cir_x[cir_size] = cir_y[i];
 4758              		.loc 1 1489 36 is_stmt 0 discriminator 3 view .LVU1694
 4759 0280 013B     		subs	r3, r3, #1
 4760              	.LVL565:
1489:lvgl/src/draw/lv_draw_mask.c ****         cir_x[cir_size] = cir_y[i];
 4761              		.loc 1 1489 48 discriminator 3 view .LVU1695
 4762 0282 0134     		adds	r4, r4, #1
 4763              	.LVL566:
1489:lvgl/src/draw/lv_draw_mask.c ****         cir_x[cir_size] = cir_y[i];
 4764              		.loc 1 1489 48 discriminator 3 view .LVU1696
 4765 0284 24B2     		sxth	r4, r4
 4766              	.LVL567:
 4767              	.L337:
1489:lvgl/src/draw/lv_draw_mask.c ****         cir_x[cir_size] = cir_y[i];
 4768              		.loc 1 1489 29 is_stmt 1 discriminator 1 view .LVU1697
 4769 0286 002B     		cmp	r3, #0
 4770 0288 EFDA     		bge	.L338
1495:lvgl/src/draw/lv_draw_mask.c ****     i = 0;
 4771              		.loc 1 1495 5 view .LVU1698
 4772              	.LVL568:
1496:lvgl/src/draw/lv_draw_mask.c ****     c->opa_start_on_y[0] = 0;
 4773              		.loc 1 1496 5 view .LVU1699
1497:lvgl/src/draw/lv_draw_mask.c ****     while(i < cir_size) {
 4774              		.loc 1 1497 5 view .LVU1700
1497:lvgl/src/draw/lv_draw_mask.c ****     while(i < cir_size) {
 4775              		.loc 1 1497 6 is_stmt 0 view .LVU1701
 4776 028a EA68     		ldr	r2, [r5, #12]
1497:lvgl/src/draw/lv_draw_mask.c ****     while(i < cir_size) {
 4777              		.loc 1 1497 26 view .LVU1702
 4778 028c 0023     		movs	r3, #0
 4779 028e 1380     		strh	r3, [r2]	@ movhi
1498:lvgl/src/draw/lv_draw_mask.c ****         c->opa_start_on_y[y] = i;
 4780              		.loc 1 1498 5 is_stmt 1 view .LVU1703
1495:lvgl/src/draw/lv_draw_mask.c ****     i = 0;
 4781              		.loc 1 1495 16 is_stmt 0 view .LVU1704
 4782 0290 9C46     		mov	ip, r3
1498:lvgl/src/draw/lv_draw_mask.c ****         c->opa_start_on_y[y] = i;
 4783              		.loc 1 1498 10 view .LVU1705
 4784 0292 13E0     		b	.L339
 4785              	.LVL569:
 4786              	.L342:
1502:lvgl/src/draw/lv_draw_mask.c ****         }
 4787              		.loc 1 1502 13 is_stmt 1 discriminator 3 view .LVU1706
1502:lvgl/src/draw/lv_draw_mask.c ****         }
 4788              		.loc 1 1502 34 is_stmt 0 discriminator 3 view .LVU1707
 4789 0294 7A5E     		ldrsh	r2, [r7, r1]
 4790 0296 A968     		ldr	r1, [r5, #8]
 4791 0298 31F80080 		ldrh	r8, [r1, r0]
ARM GAS  /var/folders/21/t9g5rlb91ys800n5npymflf80000gn/T//cc0CxbBx.s 			page 141


 4792 029c 4245     		cmp	r2, r8
 4793 029e A8BF     		it	ge
 4794 02a0 4246     		movge	r2, r8
1502:lvgl/src/draw/lv_draw_mask.c ****         }
 4795              		.loc 1 1502 32 discriminator 3 view .LVU1708
 4796 02a2 0A52     		strh	r2, [r1, r0]	@ movhi
1501:lvgl/src/draw/lv_draw_mask.c ****             c->x_start_on_y[y] = LV_MIN(c->x_start_on_y[y], cir_x[i]);
 4797              		.loc 1 1501 56 is_stmt 1 discriminator 3 view .LVU1709
 4798 02a4 0133     		adds	r3, r3, #1
 4799              	.LVL570:
 4800              	.L340:
1501:lvgl/src/draw/lv_draw_mask.c ****             c->x_start_on_y[y] = LV_MIN(c->x_start_on_y[y], cir_x[i]);
 4801              		.loc 1 1501 29 discriminator 1 view .LVU1710
1501:lvgl/src/draw/lv_draw_mask.c ****             c->x_start_on_y[y] = LV_MIN(c->x_start_on_y[y], cir_x[i]);
 4802              		.loc 1 1501 20 is_stmt 0 discriminator 1 view .LVU1711
 4803 02a6 5900     		lsls	r1, r3, #1
 4804 02a8 36F91320 		ldrsh	r2, [r6, r3, lsl #1]
1501:lvgl/src/draw/lv_draw_mask.c ****             c->x_start_on_y[y] = LV_MIN(c->x_start_on_y[y], cir_x[i]);
 4805              		.loc 1 1501 29 discriminator 1 view .LVU1712
 4806 02ac 6245     		cmp	r2, ip
 4807 02ae 01D1     		bne	.L341
1501:lvgl/src/draw/lv_draw_mask.c ****             c->x_start_on_y[y] = LV_MIN(c->x_start_on_y[y], cir_x[i]);
 4808              		.loc 1 1501 29 discriminator 2 view .LVU1713
 4809 02b0 9E45     		cmp	lr, r3
 4810 02b2 EFDC     		bgt	.L342
 4811              	.L341:
1504:lvgl/src/draw/lv_draw_mask.c ****     }
 4812              		.loc 1 1504 9 is_stmt 1 view .LVU1714
1504:lvgl/src/draw/lv_draw_mask.c ****     }
 4813              		.loc 1 1504 10 is_stmt 0 view .LVU1715
 4814 02b4 0CF1010C 		add	ip, ip, #1
 4815              	.LVL571:
1504:lvgl/src/draw/lv_draw_mask.c ****     }
 4816              		.loc 1 1504 10 view .LVU1716
 4817 02b8 0FFA8CFC 		sxth	ip, ip
 4818              	.LVL572:
 4819              	.L339:
1498:lvgl/src/draw/lv_draw_mask.c ****         c->opa_start_on_y[y] = i;
 4820              		.loc 1 1498 13 is_stmt 1 view .LVU1717
 4821 02bc A646     		mov	lr, r4
 4822 02be 9C42     		cmp	r4, r3
 4823 02c0 0ADD     		ble	.L353
1499:lvgl/src/draw/lv_draw_mask.c ****         c->x_start_on_y[y] = cir_x[i];
 4824              		.loc 1 1499 9 view .LVU1718
1499:lvgl/src/draw/lv_draw_mask.c ****         c->x_start_on_y[y] = cir_x[i];
 4825              		.loc 1 1499 10 is_stmt 0 view .LVU1719
 4826 02c2 EA68     		ldr	r2, [r5, #12]
1499:lvgl/src/draw/lv_draw_mask.c ****         c->x_start_on_y[y] = cir_x[i];
 4827              		.loc 1 1499 26 view .LVU1720
 4828 02c4 4FEA4C00 		lsl	r0, ip, #1
1499:lvgl/src/draw/lv_draw_mask.c ****         c->x_start_on_y[y] = cir_x[i];
 4829              		.loc 1 1499 30 view .LVU1721
 4830 02c8 22F81C30 		strh	r3, [r2, ip, lsl #1]	@ movhi
1500:lvgl/src/draw/lv_draw_mask.c ****         for(; cir_y[i] == y && i < (int32_t)cir_size; i++) {
 4831              		.loc 1 1500 9 is_stmt 1 view .LVU1722
1500:lvgl/src/draw/lv_draw_mask.c ****         for(; cir_y[i] == y && i < (int32_t)cir_size; i++) {
 4832              		.loc 1 1500 10 is_stmt 0 view .LVU1723
ARM GAS  /var/folders/21/t9g5rlb91ys800n5npymflf80000gn/T//cc0CxbBx.s 			page 142


 4833 02cc AA68     		ldr	r2, [r5, #8]
1500:lvgl/src/draw/lv_draw_mask.c ****         for(; cir_y[i] == y && i < (int32_t)cir_size; i++) {
 4834              		.loc 1 1500 35 view .LVU1724
 4835 02ce 37F81310 		ldrh	r1, [r7, r3, lsl #1]
1500:lvgl/src/draw/lv_draw_mask.c ****         for(; cir_y[i] == y && i < (int32_t)cir_size; i++) {
 4836              		.loc 1 1500 28 view .LVU1725
 4837 02d2 22F81C10 		strh	r1, [r2, ip, lsl #1]	@ movhi
1501:lvgl/src/draw/lv_draw_mask.c ****             c->x_start_on_y[y] = LV_MIN(c->x_start_on_y[y], cir_x[i]);
 4838              		.loc 1 1501 9 is_stmt 1 view .LVU1726
 4839 02d6 E6E7     		b	.L340
 4840              	.L353:
1507:lvgl/src/draw/lv_draw_mask.c **** }
 4841              		.loc 1 1507 5 view .LVU1727
 4842 02d8 3846     		mov	r0, r7
 4843 02da FFF7FEFF 		bl	lv_mem_buf_release
 4844              	.LVL573:
 4845              	.L318:
1508:lvgl/src/draw/lv_draw_mask.c **** 
 4846              		.loc 1 1508 1 is_stmt 0 view .LVU1728
 4847 02de 0CB0     		add	sp, sp, #48
 4848              	.LCFI20:
 4849              		.cfi_def_cfa_offset 32
 4850              		@ sp needed
 4851 02e0 BDE8F087 		pop	{r4, r5, r6, r7, r8, r9, r10, pc}
 4852              	.LVL574:
 4853              	.L347:
 4854              	.LCFI21:
 4855              		.cfi_def_cfa_offset 0
 4856              		.cfi_restore 4
 4857              		.cfi_restore 5
 4858              		.cfi_restore 6
 4859              		.cfi_restore 7
 4860              		.cfi_restore 8
 4861              		.cfi_restore 9
 4862              		.cfi_restore 10
 4863              		.cfi_restore 14
1508:lvgl/src/draw/lv_draw_mask.c **** 
 4864              		.loc 1 1508 1 view .LVU1729
 4865 02e4 7047     		bx	lr
 4866              		.cfi_endproc
 4867              	.LFE83:
 4869              		.section	.text.lv_draw_mask_add,"ax",%progbits
 4870              		.align	1
 4871              		.global	lv_draw_mask_add
 4872              		.syntax unified
 4873              		.thumb
 4874              		.thumb_func
 4876              	lv_draw_mask_add:
 4877              	.LVL575:
 4878              	.LFB56:
  82:lvgl/src/draw/lv_draw_mask.c ****     /*Look for a free entry*/
 4879              		.loc 1 82 1 is_stmt 1 view -0
 4880              		.cfi_startproc
 4881              		@ args = 0, pretend = 0, frame = 0
 4882              		@ frame_needed = 0, uses_anonymous_args = 0
 4883              		@ link register save eliminated.
  84:lvgl/src/draw/lv_draw_mask.c ****     for(i = 0; i < _LV_MASK_MAX_NUM; i++) {
ARM GAS  /var/folders/21/t9g5rlb91ys800n5npymflf80000gn/T//cc0CxbBx.s 			page 143


 4884              		.loc 1 84 5 view .LVU1731
  85:lvgl/src/draw/lv_draw_mask.c ****         if(LV_GC_ROOT(_lv_draw_mask_list[i]).param == NULL) break;
 4885              		.loc 1 85 5 view .LVU1732
  85:lvgl/src/draw/lv_draw_mask.c ****         if(LV_GC_ROOT(_lv_draw_mask_list[i]).param == NULL) break;
 4886              		.loc 1 85 11 is_stmt 0 view .LVU1733
 4887 0000 0023     		movs	r3, #0
 4888              	.LVL576:
 4889              	.L355:
  85:lvgl/src/draw/lv_draw_mask.c ****         if(LV_GC_ROOT(_lv_draw_mask_list[i]).param == NULL) break;
 4890              		.loc 1 85 18 is_stmt 1 discriminator 1 view .LVU1734
 4891 0002 0F2B     		cmp	r3, #15
 4892 0004 06D8     		bhi	.L356
  86:lvgl/src/draw/lv_draw_mask.c ****     }
 4893              		.loc 1 86 9 view .LVU1735
  86:lvgl/src/draw/lv_draw_mask.c ****     }
 4894              		.loc 1 86 45 is_stmt 0 view .LVU1736
 4895 0006 0A4A     		ldr	r2, .L360
 4896 0008 52F83320 		ldr	r2, [r2, r3, lsl #3]
  86:lvgl/src/draw/lv_draw_mask.c ****     }
 4897              		.loc 1 86 11 view .LVU1737
 4898 000c 12B1     		cbz	r2, .L356
  85:lvgl/src/draw/lv_draw_mask.c ****         if(LV_GC_ROOT(_lv_draw_mask_list[i]).param == NULL) break;
 4899              		.loc 1 85 39 is_stmt 1 discriminator 2 view .LVU1738
 4900 000e 0133     		adds	r3, r3, #1
 4901              	.LVL577:
  85:lvgl/src/draw/lv_draw_mask.c ****         if(LV_GC_ROOT(_lv_draw_mask_list[i]).param == NULL) break;
 4902              		.loc 1 85 39 is_stmt 0 discriminator 2 view .LVU1739
 4903 0010 DBB2     		uxtb	r3, r3
 4904              	.LVL578:
  85:lvgl/src/draw/lv_draw_mask.c ****         if(LV_GC_ROOT(_lv_draw_mask_list[i]).param == NULL) break;
 4905              		.loc 1 85 39 discriminator 2 view .LVU1740
 4906 0012 F6E7     		b	.L355
 4907              	.L356:
  89:lvgl/src/draw/lv_draw_mask.c ****         LV_LOG_WARN("lv_mask_add: no place to add the mask");
 4908              		.loc 1 89 5 is_stmt 1 view .LVU1741
  89:lvgl/src/draw/lv_draw_mask.c ****         LV_LOG_WARN("lv_mask_add: no place to add the mask");
 4909              		.loc 1 89 7 is_stmt 0 view .LVU1742
 4910 0014 0F2B     		cmp	r3, #15
 4911 0016 07D8     		bhi	.L359
  94:lvgl/src/draw/lv_draw_mask.c ****     LV_GC_ROOT(_lv_draw_mask_list[i]).custom_id = custom_id;
 4912              		.loc 1 94 5 is_stmt 1 view .LVU1743
  94:lvgl/src/draw/lv_draw_mask.c ****     LV_GC_ROOT(_lv_draw_mask_list[i]).custom_id = custom_id;
 4913              		.loc 1 94 45 is_stmt 0 view .LVU1744
 4914 0018 054A     		ldr	r2, .L360
 4915 001a 42F83300 		str	r0, [r2, r3, lsl #3]
  95:lvgl/src/draw/lv_draw_mask.c **** 
 4916              		.loc 1 95 5 is_stmt 1 view .LVU1745
  95:lvgl/src/draw/lv_draw_mask.c **** 
 4917              		.loc 1 95 49 is_stmt 0 view .LVU1746
 4918 001e 02EBC302 		add	r2, r2, r3, lsl #3
 4919 0022 5160     		str	r1, [r2, #4]
  97:lvgl/src/draw/lv_draw_mask.c **** }
 4920              		.loc 1 97 5 is_stmt 1 view .LVU1747
  97:lvgl/src/draw/lv_draw_mask.c **** }
 4921              		.loc 1 97 12 is_stmt 0 view .LVU1748
 4922 0024 18B2     		sxth	r0, r3
 4923              	.LVL579:
ARM GAS  /var/folders/21/t9g5rlb91ys800n5npymflf80000gn/T//cc0CxbBx.s 			page 144


  97:lvgl/src/draw/lv_draw_mask.c **** }
 4924              		.loc 1 97 12 view .LVU1749
 4925 0026 7047     		bx	lr
 4926              	.LVL580:
 4927              	.L359:
  91:lvgl/src/draw/lv_draw_mask.c ****     }
 4928              		.loc 1 91 16 view .LVU1750
 4929 0028 4FF0FF30 		mov	r0, #-1
 4930              	.LVL581:
  98:lvgl/src/draw/lv_draw_mask.c **** 
 4931              		.loc 1 98 1 view .LVU1751
 4932 002c 7047     		bx	lr
 4933              	.L361:
 4934 002e 00BF     		.align	2
 4935              	.L360:
 4936 0030 00000000 		.word	_lv_draw_mask_list
 4937              		.cfi_endproc
 4938              	.LFE56:
 4940              		.section	.text.lv_draw_mask_apply,"ax",%progbits
 4941              		.align	1
 4942              		.global	lv_draw_mask_apply
 4943              		.syntax unified
 4944              		.thumb
 4945              		.thumb_func
 4947              	lv_draw_mask_apply:
 4948              	.LVL582:
 4949              	.LFB57:
 113:lvgl/src/draw/lv_draw_mask.c ****     bool changed = false;
 4950              		.loc 1 113 1 is_stmt 1 view -0
 4951              		.cfi_startproc
 4952              		@ args = 0, pretend = 0, frame = 0
 4953              		@ frame_needed = 0, uses_anonymous_args = 0
 113:lvgl/src/draw/lv_draw_mask.c ****     bool changed = false;
 4954              		.loc 1 113 1 is_stmt 0 view .LVU1753
 4955 0000 2DE9F04F 		push	{r4, r5, r6, r7, r8, r9, r10, fp, lr}
 4956              	.LCFI22:
 4957              		.cfi_def_cfa_offset 36
 4958              		.cfi_offset 4, -36
 4959              		.cfi_offset 5, -32
 4960              		.cfi_offset 6, -28
 4961              		.cfi_offset 7, -24
 4962              		.cfi_offset 8, -20
 4963              		.cfi_offset 9, -16
 4964              		.cfi_offset 10, -12
 4965              		.cfi_offset 11, -8
 4966              		.cfi_offset 14, -4
 4967 0004 83B0     		sub	sp, sp, #12
 4968              	.LCFI23:
 4969              		.cfi_def_cfa_offset 48
 4970 0006 8146     		mov	r9, r0
 4971 0008 8846     		mov	r8, r1
 4972 000a 1746     		mov	r7, r2
 4973 000c 1E46     		mov	r6, r3
 114:lvgl/src/draw/lv_draw_mask.c ****     _lv_draw_mask_common_dsc_t * dsc;
 4974              		.loc 1 114 5 is_stmt 1 view .LVU1754
 4975              	.LVL583:
 115:lvgl/src/draw/lv_draw_mask.c **** 
ARM GAS  /var/folders/21/t9g5rlb91ys800n5npymflf80000gn/T//cc0CxbBx.s 			page 145


 4976              		.loc 1 115 5 view .LVU1755
 117:lvgl/src/draw/lv_draw_mask.c **** 
 4977              		.loc 1 117 5 view .LVU1756
 119:lvgl/src/draw/lv_draw_mask.c ****         dsc = m->param;
 4978              		.loc 1 119 5 view .LVU1757
 117:lvgl/src/draw/lv_draw_mask.c **** 
 4979              		.loc 1 117 29 is_stmt 0 view .LVU1758
 4980 000e 104D     		ldr	r5, .L372
 114:lvgl/src/draw/lv_draw_mask.c ****     _lv_draw_mask_common_dsc_t * dsc;
 4981              		.loc 1 114 10 view .LVU1759
 4982 0010 4FF0000A 		mov	r10, #0
 119:lvgl/src/draw/lv_draw_mask.c ****         dsc = m->param;
 4983              		.loc 1 119 10 view .LVU1760
 4984 0014 00E0     		b	.L363
 4985              	.LVL584:
 4986              	.L365:
 4987              	.LBB193:
 126:lvgl/src/draw/lv_draw_mask.c ****     }
 4988              		.loc 1 126 9 is_stmt 1 view .LVU1761
 126:lvgl/src/draw/lv_draw_mask.c ****     }
 4989              		.loc 1 126 10 is_stmt 0 view .LVU1762
 4990 0016 0835     		adds	r5, r5, #8
 4991              	.LVL585:
 4992              	.L363:
 126:lvgl/src/draw/lv_draw_mask.c ****     }
 4993              		.loc 1 126 10 view .LVU1763
 4994              	.LBE193:
 119:lvgl/src/draw/lv_draw_mask.c ****         dsc = m->param;
 4995              		.loc 1 119 11 is_stmt 1 view .LVU1764
 119:lvgl/src/draw/lv_draw_mask.c ****         dsc = m->param;
 4996              		.loc 1 119 12 is_stmt 0 view .LVU1765
 4997 0018 2C68     		ldr	r4, [r5]
 119:lvgl/src/draw/lv_draw_mask.c ****         dsc = m->param;
 4998              		.loc 1 119 11 view .LVU1766
 4999 001a 74B1     		cbz	r4, .L370
 5000              	.LBB194:
 120:lvgl/src/draw/lv_draw_mask.c ****         lv_draw_mask_res_t res = LV_DRAW_MASK_RES_FULL_COVER;
 5001              		.loc 1 120 9 is_stmt 1 view .LVU1767
 5002              	.LVL586:
 121:lvgl/src/draw/lv_draw_mask.c ****         res = dsc->cb(mask_buf, abs_x, abs_y, len, (void *)m->param);
 5003              		.loc 1 121 9 view .LVU1768
 122:lvgl/src/draw/lv_draw_mask.c ****         if(res == LV_DRAW_MASK_RES_TRANSP) return LV_DRAW_MASK_RES_TRANSP;
 5004              		.loc 1 122 9 view .LVU1769
 122:lvgl/src/draw/lv_draw_mask.c ****         if(res == LV_DRAW_MASK_RES_TRANSP) return LV_DRAW_MASK_RES_TRANSP;
 5005              		.loc 1 122 18 is_stmt 0 view .LVU1770
 5006 001c D4F800B0 		ldr	fp, [r4]
 122:lvgl/src/draw/lv_draw_mask.c ****         if(res == LV_DRAW_MASK_RES_TRANSP) return LV_DRAW_MASK_RES_TRANSP;
 5007              		.loc 1 122 15 view .LVU1771
 5008 0020 0094     		str	r4, [sp]
 5009 0022 3346     		mov	r3, r6
 5010 0024 3A46     		mov	r2, r7
 5011 0026 4146     		mov	r1, r8
 5012 0028 4846     		mov	r0, r9
 5013 002a D847     		blx	fp
 5014              	.LVL587:
 123:lvgl/src/draw/lv_draw_mask.c ****         else if(res == LV_DRAW_MASK_RES_CHANGED) changed = true;
 5015              		.loc 1 123 9 is_stmt 1 view .LVU1772
ARM GAS  /var/folders/21/t9g5rlb91ys800n5npymflf80000gn/T//cc0CxbBx.s 			page 146


 123:lvgl/src/draw/lv_draw_mask.c ****         else if(res == LV_DRAW_MASK_RES_CHANGED) changed = true;
 5016              		.loc 1 123 11 is_stmt 0 view .LVU1773
 5017 002c 0346     		mov	r3, r0
 5018 002e 40B1     		cbz	r0, .L364
 124:lvgl/src/draw/lv_draw_mask.c **** 
 5019              		.loc 1 124 14 is_stmt 1 view .LVU1774
 124:lvgl/src/draw/lv_draw_mask.c **** 
 5020              		.loc 1 124 16 is_stmt 0 view .LVU1775
 5021 0030 0228     		cmp	r0, #2
 5022 0032 F0D1     		bne	.L365
 124:lvgl/src/draw/lv_draw_mask.c **** 
 5023              		.loc 1 124 58 view .LVU1776
 5024 0034 4FF0010A 		mov	r10, #1
 5025              	.LVL588:
 124:lvgl/src/draw/lv_draw_mask.c **** 
 5026              		.loc 1 124 58 view .LVU1777
 5027 0038 EDE7     		b	.L365
 5028              	.LVL589:
 5029              	.L370:
 124:lvgl/src/draw/lv_draw_mask.c **** 
 5030              		.loc 1 124 58 view .LVU1778
 5031              	.LBE194:
 129:lvgl/src/draw/lv_draw_mask.c **** }
 5032              		.loc 1 129 5 is_stmt 1 view .LVU1779
 129:lvgl/src/draw/lv_draw_mask.c **** }
 5033              		.loc 1 129 47 is_stmt 0 view .LVU1780
 5034 003a BAF1000F 		cmp	r10, #0
 5035 003e 04D1     		bne	.L371
 5036 0040 0123     		movs	r3, #1
 5037              	.L364:
 130:lvgl/src/draw/lv_draw_mask.c **** 
 5038              		.loc 1 130 1 view .LVU1781
 5039 0042 1846     		mov	r0, r3
 5040 0044 03B0     		add	sp, sp, #12
 5041              	.LCFI24:
 5042              		.cfi_remember_state
 5043              		.cfi_def_cfa_offset 36
 5044              		@ sp needed
 5045 0046 BDE8F08F 		pop	{r4, r5, r6, r7, r8, r9, r10, fp, pc}
 5046              	.LVL590:
 5047              	.L371:
 5048              	.LCFI25:
 5049              		.cfi_restore_state
 129:lvgl/src/draw/lv_draw_mask.c **** }
 5050              		.loc 1 129 47 view .LVU1782
 5051 004a 0223     		movs	r3, #2
 5052 004c F9E7     		b	.L364
 5053              	.L373:
 5054 004e 00BF     		.align	2
 5055              	.L372:
 5056 0050 00000000 		.word	_lv_draw_mask_list
 5057              		.cfi_endproc
 5058              	.LFE57:
 5060              		.section	.text.lv_draw_mask_apply_ids,"ax",%progbits
 5061              		.align	1
 5062              		.global	lv_draw_mask_apply_ids
 5063              		.syntax unified
ARM GAS  /var/folders/21/t9g5rlb91ys800n5npymflf80000gn/T//cc0CxbBx.s 			page 147


 5064              		.thumb
 5065              		.thumb_func
 5067              	lv_draw_mask_apply_ids:
 5068              	.LVL591:
 5069              	.LFB58:
 148:lvgl/src/draw/lv_draw_mask.c ****     bool changed = false;
 5070              		.loc 1 148 1 is_stmt 1 view -0
 5071              		.cfi_startproc
 5072              		@ args = 8, pretend = 0, frame = 8
 5073              		@ frame_needed = 0, uses_anonymous_args = 0
 148:lvgl/src/draw/lv_draw_mask.c ****     bool changed = false;
 5074              		.loc 1 148 1 is_stmt 0 view .LVU1784
 5075 0000 2DE9F04F 		push	{r4, r5, r6, r7, r8, r9, r10, fp, lr}
 5076              	.LCFI26:
 5077              		.cfi_def_cfa_offset 36
 5078              		.cfi_offset 4, -36
 5079              		.cfi_offset 5, -32
 5080              		.cfi_offset 6, -28
 5081              		.cfi_offset 7, -24
 5082              		.cfi_offset 8, -20
 5083              		.cfi_offset 9, -16
 5084              		.cfi_offset 10, -12
 5085              		.cfi_offset 11, -8
 5086              		.cfi_offset 14, -4
 5087 0004 85B0     		sub	sp, sp, #20
 5088              	.LCFI27:
 5089              		.cfi_def_cfa_offset 56
 5090 0006 8346     		mov	fp, r0
 5091 0008 8A46     		mov	r10, r1
 5092 000a 9146     		mov	r9, r2
 5093 000c 9846     		mov	r8, r3
 5094 000e 0E9F     		ldr	r7, [sp, #56]
 5095 0010 BDF93C60 		ldrsh	r6, [sp, #60]
 149:lvgl/src/draw/lv_draw_mask.c ****     _lv_draw_mask_common_dsc_t * dsc;
 5096              		.loc 1 149 5 is_stmt 1 view .LVU1785
 5097              	.LVL592:
 150:lvgl/src/draw/lv_draw_mask.c **** 
 5098              		.loc 1 150 5 view .LVU1786
 152:lvgl/src/draw/lv_draw_mask.c ****         int16_t id = ids[i];
 5099              		.loc 1 152 5 view .LVU1787
 5100              	.LBB195:
 152:lvgl/src/draw/lv_draw_mask.c ****         int16_t id = ids[i];
 5101              		.loc 1 152 9 view .LVU1788
 152:lvgl/src/draw/lv_draw_mask.c ****         int16_t id = ids[i];
 5102              		.loc 1 152 13 is_stmt 0 view .LVU1789
 5103 0014 0024     		movs	r4, #0
 5104              	.LBE195:
 149:lvgl/src/draw/lv_draw_mask.c ****     _lv_draw_mask_common_dsc_t * dsc;
 5105              		.loc 1 149 10 view .LVU1790
 5106 0016 0394     		str	r4, [sp, #12]
 5107              	.LBB197:
 152:lvgl/src/draw/lv_draw_mask.c ****         int16_t id = ids[i];
 5108              		.loc 1 152 5 view .LVU1791
 5109 0018 00E0     		b	.L375
 5110              	.LVL593:
 5111              	.L376:
 152:lvgl/src/draw/lv_draw_mask.c ****         int16_t id = ids[i];
ARM GAS  /var/folders/21/t9g5rlb91ys800n5npymflf80000gn/T//cc0CxbBx.s 			page 148


 5112              		.loc 1 152 36 is_stmt 1 discriminator 2 view .LVU1792
 5113 001a 0134     		adds	r4, r4, #1
 5114              	.LVL594:
 5115              	.L375:
 152:lvgl/src/draw/lv_draw_mask.c ****         int16_t id = ids[i];
 5116              		.loc 1 152 22 discriminator 1 view .LVU1793
 5117 001c A642     		cmp	r6, r4
 5118 001e 17DD     		ble	.L383
 5119              	.LBB196:
 153:lvgl/src/draw/lv_draw_mask.c ****         if(id == LV_MASK_ID_INV) continue;
 5120              		.loc 1 153 9 view .LVU1794
 153:lvgl/src/draw/lv_draw_mask.c ****         if(id == LV_MASK_ID_INV) continue;
 5121              		.loc 1 153 17 is_stmt 0 view .LVU1795
 5122 0020 37F91430 		ldrsh	r3, [r7, r4, lsl #1]
 5123              	.LVL595:
 154:lvgl/src/draw/lv_draw_mask.c ****         dsc = LV_GC_ROOT(_lv_draw_mask_list[id]).param;
 5124              		.loc 1 154 9 is_stmt 1 view .LVU1796
 154:lvgl/src/draw/lv_draw_mask.c ****         dsc = LV_GC_ROOT(_lv_draw_mask_list[id]).param;
 5125              		.loc 1 154 11 is_stmt 0 view .LVU1797
 5126 0024 B3F1FF3F 		cmp	r3, #-1
 5127 0028 F7D0     		beq	.L376
 155:lvgl/src/draw/lv_draw_mask.c ****         if(!dsc) continue;
 5128              		.loc 1 155 9 is_stmt 1 view .LVU1798
 155:lvgl/src/draw/lv_draw_mask.c ****         if(!dsc) continue;
 5129              		.loc 1 155 13 is_stmt 0 view .LVU1799
 5130 002a 0E4A     		ldr	r2, .L385
 5131 002c 52F83330 		ldr	r3, [r2, r3, lsl #3]
 5132              	.LVL596:
 156:lvgl/src/draw/lv_draw_mask.c ****         lv_draw_mask_res_t res = LV_DRAW_MASK_RES_FULL_COVER;
 5133              		.loc 1 156 9 is_stmt 1 view .LVU1800
 156:lvgl/src/draw/lv_draw_mask.c ****         lv_draw_mask_res_t res = LV_DRAW_MASK_RES_FULL_COVER;
 5134              		.loc 1 156 11 is_stmt 0 view .LVU1801
 5135 0030 002B     		cmp	r3, #0
 5136 0032 F2D0     		beq	.L376
 157:lvgl/src/draw/lv_draw_mask.c ****         res = dsc->cb(mask_buf, abs_x, abs_y, len, dsc);
 5137              		.loc 1 157 9 is_stmt 1 view .LVU1802
 5138              	.LVL597:
 158:lvgl/src/draw/lv_draw_mask.c ****         if(res == LV_DRAW_MASK_RES_TRANSP) return LV_DRAW_MASK_RES_TRANSP;
 5139              		.loc 1 158 9 view .LVU1803
 158:lvgl/src/draw/lv_draw_mask.c ****         if(res == LV_DRAW_MASK_RES_TRANSP) return LV_DRAW_MASK_RES_TRANSP;
 5140              		.loc 1 158 18 is_stmt 0 view .LVU1804
 5141 0034 1D68     		ldr	r5, [r3]
 158:lvgl/src/draw/lv_draw_mask.c ****         if(res == LV_DRAW_MASK_RES_TRANSP) return LV_DRAW_MASK_RES_TRANSP;
 5142              		.loc 1 158 15 view .LVU1805
 5143 0036 0093     		str	r3, [sp]
 5144              	.LVL598:
 158:lvgl/src/draw/lv_draw_mask.c ****         if(res == LV_DRAW_MASK_RES_TRANSP) return LV_DRAW_MASK_RES_TRANSP;
 5145              		.loc 1 158 15 view .LVU1806
 5146 0038 4346     		mov	r3, r8
 5147              	.LVL599:
 158:lvgl/src/draw/lv_draw_mask.c ****         if(res == LV_DRAW_MASK_RES_TRANSP) return LV_DRAW_MASK_RES_TRANSP;
 5148              		.loc 1 158 15 view .LVU1807
 5149 003a 4A46     		mov	r2, r9
 5150 003c 5146     		mov	r1, r10
 5151 003e 5846     		mov	r0, fp
 5152 0040 A847     		blx	r5
 5153              	.LVL600:
ARM GAS  /var/folders/21/t9g5rlb91ys800n5npymflf80000gn/T//cc0CxbBx.s 			page 149


 159:lvgl/src/draw/lv_draw_mask.c ****         else if(res == LV_DRAW_MASK_RES_CHANGED) changed = true;
 5154              		.loc 1 159 9 is_stmt 1 view .LVU1808
 159:lvgl/src/draw/lv_draw_mask.c ****         else if(res == LV_DRAW_MASK_RES_CHANGED) changed = true;
 5155              		.loc 1 159 11 is_stmt 0 view .LVU1809
 5156 0042 0346     		mov	r3, r0
 5157 0044 38B1     		cbz	r0, .L377
 160:lvgl/src/draw/lv_draw_mask.c ****     }
 5158              		.loc 1 160 14 is_stmt 1 view .LVU1810
 160:lvgl/src/draw/lv_draw_mask.c ****     }
 5159              		.loc 1 160 16 is_stmt 0 view .LVU1811
 5160 0046 0228     		cmp	r0, #2
 5161 0048 E7D1     		bne	.L376
 160:lvgl/src/draw/lv_draw_mask.c ****     }
 5162              		.loc 1 160 58 view .LVU1812
 5163 004a 0123     		movs	r3, #1
 5164 004c 0393     		str	r3, [sp, #12]
 5165              	.LVL601:
 160:lvgl/src/draw/lv_draw_mask.c ****     }
 5166              		.loc 1 160 58 view .LVU1813
 5167 004e E4E7     		b	.L376
 5168              	.LVL602:
 5169              	.L383:
 160:lvgl/src/draw/lv_draw_mask.c ****     }
 5170              		.loc 1 160 58 view .LVU1814
 5171              	.LBE196:
 5172              	.LBE197:
 163:lvgl/src/draw/lv_draw_mask.c **** }
 5173              		.loc 1 163 5 is_stmt 1 view .LVU1815
 163:lvgl/src/draw/lv_draw_mask.c **** }
 5174              		.loc 1 163 47 is_stmt 0 view .LVU1816
 5175 0050 039B     		ldr	r3, [sp, #12]
 5176 0052 23B9     		cbnz	r3, .L384
 5177 0054 0123     		movs	r3, #1
 5178              	.L377:
 164:lvgl/src/draw/lv_draw_mask.c **** 
 5179              		.loc 1 164 1 view .LVU1817
 5180 0056 1846     		mov	r0, r3
 5181 0058 05B0     		add	sp, sp, #20
 5182              	.LCFI28:
 5183              		.cfi_remember_state
 5184              		.cfi_def_cfa_offset 36
 5185              		@ sp needed
 5186 005a BDE8F08F 		pop	{r4, r5, r6, r7, r8, r9, r10, fp, pc}
 5187              	.LVL603:
 5188              	.L384:
 5189              	.LCFI29:
 5190              		.cfi_restore_state
 163:lvgl/src/draw/lv_draw_mask.c **** }
 5191              		.loc 1 163 47 view .LVU1818
 5192 005e 0223     		movs	r3, #2
 5193 0060 F9E7     		b	.L377
 5194              	.L386:
 5195 0062 00BF     		.align	2
 5196              	.L385:
 5197 0064 00000000 		.word	_lv_draw_mask_list
 5198              		.cfi_endproc
 5199              	.LFE58:
ARM GAS  /var/folders/21/t9g5rlb91ys800n5npymflf80000gn/T//cc0CxbBx.s 			page 150


 5201              		.section	.text.lv_draw_mask_remove_id,"ax",%progbits
 5202              		.align	1
 5203              		.global	lv_draw_mask_remove_id
 5204              		.syntax unified
 5205              		.thumb
 5206              		.thumb_func
 5208              	lv_draw_mask_remove_id:
 5209              	.LVL604:
 5210              	.LFB59:
 173:lvgl/src/draw/lv_draw_mask.c ****     _lv_draw_mask_common_dsc_t * p = NULL;
 5211              		.loc 1 173 1 is_stmt 1 view -0
 5212              		.cfi_startproc
 5213              		@ args = 0, pretend = 0, frame = 0
 5214              		@ frame_needed = 0, uses_anonymous_args = 0
 5215              		@ link register save eliminated.
 173:lvgl/src/draw/lv_draw_mask.c ****     _lv_draw_mask_common_dsc_t * p = NULL;
 5216              		.loc 1 173 1 is_stmt 0 view .LVU1820
 5217 0000 0346     		mov	r3, r0
 174:lvgl/src/draw/lv_draw_mask.c **** 
 5218              		.loc 1 174 5 is_stmt 1 view .LVU1821
 5219              	.LVL605:
 176:lvgl/src/draw/lv_draw_mask.c ****         p = LV_GC_ROOT(_lv_draw_mask_list[id]).param;
 5220              		.loc 1 176 5 view .LVU1822
 176:lvgl/src/draw/lv_draw_mask.c ****         p = LV_GC_ROOT(_lv_draw_mask_list[id]).param;
 5221              		.loc 1 176 7 is_stmt 0 view .LVU1823
 5222 0002 B0F1FF3F 		cmp	r0, #-1
 5223 0006 09D0     		beq	.L389
 177:lvgl/src/draw/lv_draw_mask.c ****         LV_GC_ROOT(_lv_draw_mask_list[id]).param = NULL;
 5224              		.loc 1 177 9 is_stmt 1 view .LVU1824
 177:lvgl/src/draw/lv_draw_mask.c ****         LV_GC_ROOT(_lv_draw_mask_list[id]).param = NULL;
 5225              		.loc 1 177 11 is_stmt 0 view .LVU1825
 5226 0008 054A     		ldr	r2, .L390
 5227 000a 52F83000 		ldr	r0, [r2, r0, lsl #3]
 5228              	.LVL606:
 178:lvgl/src/draw/lv_draw_mask.c ****         LV_GC_ROOT(_lv_draw_mask_list[id]).custom_id = NULL;
 5229              		.loc 1 178 9 is_stmt 1 view .LVU1826
 178:lvgl/src/draw/lv_draw_mask.c ****         LV_GC_ROOT(_lv_draw_mask_list[id]).custom_id = NULL;
 5230              		.loc 1 178 50 is_stmt 0 view .LVU1827
 5231 000e 0021     		movs	r1, #0
 5232 0010 42F83310 		str	r1, [r2, r3, lsl #3]
 179:lvgl/src/draw/lv_draw_mask.c ****     }
 5233              		.loc 1 179 9 is_stmt 1 view .LVU1828
 179:lvgl/src/draw/lv_draw_mask.c ****     }
 5234              		.loc 1 179 54 is_stmt 0 view .LVU1829
 5235 0014 02EBC302 		add	r2, r2, r3, lsl #3
 5236 0018 5160     		str	r1, [r2, #4]
 5237 001a 7047     		bx	lr
 5238              	.LVL607:
 5239              	.L389:
 174:lvgl/src/draw/lv_draw_mask.c **** 
 5240              		.loc 1 174 34 view .LVU1830
 5241 001c 0020     		movs	r0, #0
 5242              	.LVL608:
 182:lvgl/src/draw/lv_draw_mask.c **** }
 5243              		.loc 1 182 5 is_stmt 1 view .LVU1831
 183:lvgl/src/draw/lv_draw_mask.c **** 
 5244              		.loc 1 183 1 is_stmt 0 view .LVU1832
ARM GAS  /var/folders/21/t9g5rlb91ys800n5npymflf80000gn/T//cc0CxbBx.s 			page 151


 5245 001e 7047     		bx	lr
 5246              	.L391:
 5247              		.align	2
 5248              	.L390:
 5249 0020 00000000 		.word	_lv_draw_mask_list
 5250              		.cfi_endproc
 5251              	.LFE59:
 5253              		.section	.text.lv_draw_mask_remove_custom,"ax",%progbits
 5254              		.align	1
 5255              		.global	lv_draw_mask_remove_custom
 5256              		.syntax unified
 5257              		.thumb
 5258              		.thumb_func
 5260              	lv_draw_mask_remove_custom:
 5261              	.LVL609:
 5262              	.LFB60:
 192:lvgl/src/draw/lv_draw_mask.c ****     _lv_draw_mask_common_dsc_t * p = NULL;
 5263              		.loc 1 192 1 is_stmt 1 view -0
 5264              		.cfi_startproc
 5265              		@ args = 0, pretend = 0, frame = 0
 5266              		@ frame_needed = 0, uses_anonymous_args = 0
 192:lvgl/src/draw/lv_draw_mask.c ****     _lv_draw_mask_common_dsc_t * p = NULL;
 5267              		.loc 1 192 1 is_stmt 0 view .LVU1834
 5268 0000 70B5     		push	{r4, r5, r6, lr}
 5269              	.LCFI30:
 5270              		.cfi_def_cfa_offset 16
 5271              		.cfi_offset 4, -16
 5272              		.cfi_offset 5, -12
 5273              		.cfi_offset 6, -8
 5274              		.cfi_offset 14, -4
 5275 0002 0546     		mov	r5, r0
 193:lvgl/src/draw/lv_draw_mask.c ****     uint8_t i;
 5276              		.loc 1 193 5 is_stmt 1 view .LVU1835
 5277              	.LVL610:
 194:lvgl/src/draw/lv_draw_mask.c ****     for(i = 0; i < _LV_MASK_MAX_NUM; i++) {
 5278              		.loc 1 194 5 view .LVU1836
 195:lvgl/src/draw/lv_draw_mask.c ****         if(LV_GC_ROOT(_lv_draw_mask_list[i]).custom_id == custom_id) {
 5279              		.loc 1 195 5 view .LVU1837
 195:lvgl/src/draw/lv_draw_mask.c ****         if(LV_GC_ROOT(_lv_draw_mask_list[i]).custom_id == custom_id) {
 5280              		.loc 1 195 11 is_stmt 0 view .LVU1838
 5281 0004 0024     		movs	r4, #0
 193:lvgl/src/draw/lv_draw_mask.c ****     uint8_t i;
 5282              		.loc 1 193 34 view .LVU1839
 5283 0006 2646     		mov	r6, r4
 195:lvgl/src/draw/lv_draw_mask.c ****         if(LV_GC_ROOT(_lv_draw_mask_list[i]).custom_id == custom_id) {
 5284              		.loc 1 195 5 view .LVU1840
 5285 0008 01E0     		b	.L393
 5286              	.LVL611:
 5287              	.L394:
 195:lvgl/src/draw/lv_draw_mask.c ****         if(LV_GC_ROOT(_lv_draw_mask_list[i]).custom_id == custom_id) {
 5288              		.loc 1 195 39 is_stmt 1 discriminator 2 view .LVU1841
 5289 000a 0134     		adds	r4, r4, #1
 5290              	.LVL612:
 195:lvgl/src/draw/lv_draw_mask.c ****         if(LV_GC_ROOT(_lv_draw_mask_list[i]).custom_id == custom_id) {
 5291              		.loc 1 195 39 is_stmt 0 discriminator 2 view .LVU1842
 5292 000c E4B2     		uxtb	r4, r4
 5293              	.LVL613:
ARM GAS  /var/folders/21/t9g5rlb91ys800n5npymflf80000gn/T//cc0CxbBx.s 			page 152


 5294              	.L393:
 195:lvgl/src/draw/lv_draw_mask.c ****         if(LV_GC_ROOT(_lv_draw_mask_list[i]).custom_id == custom_id) {
 5295              		.loc 1 195 18 is_stmt 1 discriminator 1 view .LVU1843
 5296 000e 0F2C     		cmp	r4, #15
 5297 0010 0CD8     		bhi	.L397
 196:lvgl/src/draw/lv_draw_mask.c ****             p = LV_GC_ROOT(_lv_draw_mask_list[i]).param;
 5298              		.loc 1 196 9 view .LVU1844
 196:lvgl/src/draw/lv_draw_mask.c ****             p = LV_GC_ROOT(_lv_draw_mask_list[i]).param;
 5299              		.loc 1 196 45 is_stmt 0 view .LVU1845
 5300 0012 074B     		ldr	r3, .L398
 5301 0014 03EBC403 		add	r3, r3, r4, lsl #3
 5302 0018 5B68     		ldr	r3, [r3, #4]
 196:lvgl/src/draw/lv_draw_mask.c ****             p = LV_GC_ROOT(_lv_draw_mask_list[i]).param;
 5303              		.loc 1 196 11 view .LVU1846
 5304 001a AB42     		cmp	r3, r5
 5305 001c F5D1     		bne	.L394
 197:lvgl/src/draw/lv_draw_mask.c ****             lv_draw_mask_remove_id(i);
 5306              		.loc 1 197 13 is_stmt 1 view .LVU1847
 197:lvgl/src/draw/lv_draw_mask.c ****             lv_draw_mask_remove_id(i);
 5307              		.loc 1 197 15 is_stmt 0 view .LVU1848
 5308 001e 044B     		ldr	r3, .L398
 5309 0020 53F83460 		ldr	r6, [r3, r4, lsl #3]
 5310              	.LVL614:
 198:lvgl/src/draw/lv_draw_mask.c ****         }
 5311              		.loc 1 198 13 is_stmt 1 view .LVU1849
 5312 0024 2046     		mov	r0, r4
 5313 0026 FFF7FEFF 		bl	lv_draw_mask_remove_id
 5314              	.LVL615:
 5315 002a EEE7     		b	.L394
 5316              	.L397:
 201:lvgl/src/draw/lv_draw_mask.c **** }
 5317              		.loc 1 201 5 view .LVU1850
 202:lvgl/src/draw/lv_draw_mask.c **** 
 5318              		.loc 1 202 1 is_stmt 0 view .LVU1851
 5319 002c 3046     		mov	r0, r6
 5320 002e 70BD     		pop	{r4, r5, r6, pc}
 5321              	.LVL616:
 5322              	.L399:
 202:lvgl/src/draw/lv_draw_mask.c **** 
 5323              		.loc 1 202 1 view .LVU1852
 5324              		.align	2
 5325              	.L398:
 5326 0030 00000000 		.word	_lv_draw_mask_list
 5327              		.cfi_endproc
 5328              	.LFE60:
 5330              		.section	.text.lv_draw_mask_free_param,"ax",%progbits
 5331              		.align	1
 5332              		.global	lv_draw_mask_free_param
 5333              		.syntax unified
 5334              		.thumb
 5335              		.thumb_func
 5337              	lv_draw_mask_free_param:
 5338              	.LVL617:
 5339              	.LFB61:
 212:lvgl/src/draw/lv_draw_mask.c ****     _lv_draw_mask_common_dsc_t * pdsc = p;
 5340              		.loc 1 212 1 is_stmt 1 view -0
 5341              		.cfi_startproc
ARM GAS  /var/folders/21/t9g5rlb91ys800n5npymflf80000gn/T//cc0CxbBx.s 			page 153


 5342              		@ args = 0, pretend = 0, frame = 0
 5343              		@ frame_needed = 0, uses_anonymous_args = 0
 212:lvgl/src/draw/lv_draw_mask.c ****     _lv_draw_mask_common_dsc_t * pdsc = p;
 5344              		.loc 1 212 1 is_stmt 0 view .LVU1854
 5345 0000 10B5     		push	{r4, lr}
 5346              	.LCFI31:
 5347              		.cfi_def_cfa_offset 8
 5348              		.cfi_offset 4, -8
 5349              		.cfi_offset 14, -4
 5350 0002 0446     		mov	r4, r0
 213:lvgl/src/draw/lv_draw_mask.c ****     if(pdsc->type == LV_DRAW_MASK_TYPE_RADIUS) {
 5351              		.loc 1 213 5 is_stmt 1 view .LVU1855
 5352              	.LVL618:
 214:lvgl/src/draw/lv_draw_mask.c ****         lv_draw_mask_radius_param_t * radius_p = (lv_draw_mask_radius_param_t *) p;
 5353              		.loc 1 214 5 view .LVU1856
 214:lvgl/src/draw/lv_draw_mask.c ****         lv_draw_mask_radius_param_t * radius_p = (lv_draw_mask_radius_param_t *) p;
 5354              		.loc 1 214 12 is_stmt 0 view .LVU1857
 5355 0004 0379     		ldrb	r3, [r0, #4]	@ zero_extendqisi2
 214:lvgl/src/draw/lv_draw_mask.c ****         lv_draw_mask_radius_param_t * radius_p = (lv_draw_mask_radius_param_t *) p;
 5356              		.loc 1 214 7 view .LVU1858
 5357 0006 022B     		cmp	r3, #2
 5358 0008 02D0     		beq	.L405
 226:lvgl/src/draw/lv_draw_mask.c ****         lv_draw_mask_polygon_param_t * poly_p = (lv_draw_mask_polygon_param_t *) p;
 5359              		.loc 1 226 10 is_stmt 1 view .LVU1859
 226:lvgl/src/draw/lv_draw_mask.c ****         lv_draw_mask_polygon_param_t * poly_p = (lv_draw_mask_polygon_param_t *) p;
 5360              		.loc 1 226 12 is_stmt 0 view .LVU1860
 5361 000a 052B     		cmp	r3, #5
 5362 000c 11D0     		beq	.L406
 5363              	.LVL619:
 5364              	.L400:
 230:lvgl/src/draw/lv_draw_mask.c **** 
 5365              		.loc 1 230 1 view .LVU1861
 5366 000e 10BD     		pop	{r4, pc}
 5367              	.LVL620:
 5368              	.L405:
 5369              	.LBB198:
 215:lvgl/src/draw/lv_draw_mask.c ****         if(radius_p->circle) {
 5370              		.loc 1 215 9 is_stmt 1 view .LVU1862
 216:lvgl/src/draw/lv_draw_mask.c ****             if(radius_p->circle->life < 0) {
 5371              		.loc 1 216 9 view .LVU1863
 216:lvgl/src/draw/lv_draw_mask.c ****             if(radius_p->circle->life < 0) {
 5372              		.loc 1 216 20 is_stmt 0 view .LVU1864
 5373 0010 4369     		ldr	r3, [r0, #20]
 216:lvgl/src/draw/lv_draw_mask.c ****             if(radius_p->circle->life < 0) {
 5374              		.loc 1 216 11 view .LVU1865
 5375 0012 002B     		cmp	r3, #0
 5376 0014 FBD0     		beq	.L400
 217:lvgl/src/draw/lv_draw_mask.c ****                 lv_mem_free(radius_p->circle->cir_opa);
 5377              		.loc 1 217 13 is_stmt 1 view .LVU1866
 217:lvgl/src/draw/lv_draw_mask.c ****                 lv_mem_free(radius_p->circle->cir_opa);
 5378              		.loc 1 217 32 is_stmt 0 view .LVU1867
 5379 0016 1A69     		ldr	r2, [r3, #16]
 217:lvgl/src/draw/lv_draw_mask.c ****                 lv_mem_free(radius_p->circle->cir_opa);
 5380              		.loc 1 217 15 view .LVU1868
 5381 0018 002A     		cmp	r2, #0
 5382 001a 03DB     		blt	.L407
 222:lvgl/src/draw/lv_draw_mask.c ****             }
ARM GAS  /var/folders/21/t9g5rlb91ys800n5npymflf80000gn/T//cc0CxbBx.s 			page 154


 5383              		.loc 1 222 17 is_stmt 1 view .LVU1869
 222:lvgl/src/draw/lv_draw_mask.c ****             }
 5384              		.loc 1 222 33 is_stmt 0 view .LVU1870
 5385 001c 5A69     		ldr	r2, [r3, #20]
 222:lvgl/src/draw/lv_draw_mask.c ****             }
 5386              		.loc 1 222 43 view .LVU1871
 5387 001e 013A     		subs	r2, r2, #1
 5388 0020 5A61     		str	r2, [r3, #20]
 5389 0022 F4E7     		b	.L400
 5390              	.L407:
 218:lvgl/src/draw/lv_draw_mask.c ****                 lv_mem_free(radius_p->circle);
 5391              		.loc 1 218 17 is_stmt 1 view .LVU1872
 5392 0024 5868     		ldr	r0, [r3, #4]
 5393              	.LVL621:
 218:lvgl/src/draw/lv_draw_mask.c ****                 lv_mem_free(radius_p->circle);
 5394              		.loc 1 218 17 is_stmt 0 view .LVU1873
 5395 0026 FFF7FEFF 		bl	lv_mem_free
 5396              	.LVL622:
 219:lvgl/src/draw/lv_draw_mask.c ****             }
 5397              		.loc 1 219 17 is_stmt 1 view .LVU1874
 5398 002a 6069     		ldr	r0, [r4, #20]
 5399 002c FFF7FEFF 		bl	lv_mem_free
 5400              	.LVL623:
 5401 0030 EDE7     		b	.L400
 5402              	.LVL624:
 5403              	.L406:
 219:lvgl/src/draw/lv_draw_mask.c ****             }
 5404              		.loc 1 219 17 is_stmt 0 view .LVU1875
 5405              	.LBE198:
 5406              	.LBB199:
 227:lvgl/src/draw/lv_draw_mask.c ****         lv_mem_free(poly_p->cfg.points);
 5407              		.loc 1 227 9 is_stmt 1 view .LVU1876
 228:lvgl/src/draw/lv_draw_mask.c ****     }
 5408              		.loc 1 228 9 view .LVU1877
 5409 0032 8068     		ldr	r0, [r0, #8]
 5410              	.LVL625:
 228:lvgl/src/draw/lv_draw_mask.c ****     }
 5411              		.loc 1 228 9 is_stmt 0 view .LVU1878
 5412 0034 FFF7FEFF 		bl	lv_mem_free
 5413              	.LVL626:
 5414              	.LBE199:
 230:lvgl/src/draw/lv_draw_mask.c **** 
 5415              		.loc 1 230 1 view .LVU1879
 5416 0038 E9E7     		b	.L400
 5417              		.cfi_endproc
 5418              	.LFE61:
 5420              		.section	.text._lv_draw_mask_cleanup,"ax",%progbits
 5421              		.align	1
 5422              		.global	_lv_draw_mask_cleanup
 5423              		.syntax unified
 5424              		.thumb
 5425              		.thumb_func
 5427              	_lv_draw_mask_cleanup:
 5428              	.LFB62:
 233:lvgl/src/draw/lv_draw_mask.c ****     uint8_t i;
 5429              		.loc 1 233 1 is_stmt 1 view -0
 5430              		.cfi_startproc
ARM GAS  /var/folders/21/t9g5rlb91ys800n5npymflf80000gn/T//cc0CxbBx.s 			page 155


 5431              		@ args = 0, pretend = 0, frame = 0
 5432              		@ frame_needed = 0, uses_anonymous_args = 0
 5433 0000 38B5     		push	{r3, r4, r5, lr}
 5434              	.LCFI32:
 5435              		.cfi_def_cfa_offset 16
 5436              		.cfi_offset 3, -16
 5437              		.cfi_offset 4, -12
 5438              		.cfi_offset 5, -8
 5439              		.cfi_offset 14, -4
 234:lvgl/src/draw/lv_draw_mask.c ****     for(i = 0; i < LV_CIRCLE_CACHE_SIZE; i++) {
 5440              		.loc 1 234 5 view .LVU1881
 235:lvgl/src/draw/lv_draw_mask.c ****         if(LV_GC_ROOT(_lv_circle_cache[i]).buf) {
 5441              		.loc 1 235 5 view .LVU1882
 5442              	.LVL627:
 235:lvgl/src/draw/lv_draw_mask.c ****         if(LV_GC_ROOT(_lv_circle_cache[i]).buf) {
 5443              		.loc 1 235 11 is_stmt 0 view .LVU1883
 5444 0002 0024     		movs	r4, #0
 235:lvgl/src/draw/lv_draw_mask.c ****         if(LV_GC_ROOT(_lv_circle_cache[i]).buf) {
 5445              		.loc 1 235 5 view .LVU1884
 5446 0004 09E0     		b	.L409
 5447              	.LVL628:
 5448              	.L410:
 239:lvgl/src/draw/lv_draw_mask.c ****     }
 5449              		.loc 1 239 9 is_stmt 1 discriminator 2 view .LVU1885
 239:lvgl/src/draw/lv_draw_mask.c ****     }
 5450              		.loc 1 239 22 is_stmt 0 discriminator 2 view .LVU1886
 5451 0006 C5EBC505 		rsb	r5, r5, r5, lsl #3
 5452 000a AB00     		lsls	r3, r5, #2
 239:lvgl/src/draw/lv_draw_mask.c ****     }
 5453              		.loc 1 239 9 discriminator 2 view .LVU1887
 5454 000c 1C21     		movs	r1, #28
 5455 000e 0A48     		ldr	r0, .L414
 5456 0010 1844     		add	r0, r0, r3
 5457 0012 FFF7FEFF 		bl	lv_memset_00
 5458              	.LVL629:
 235:lvgl/src/draw/lv_draw_mask.c ****         if(LV_GC_ROOT(_lv_circle_cache[i]).buf) {
 5459              		.loc 1 235 43 is_stmt 1 discriminator 2 view .LVU1888
 5460 0016 0134     		adds	r4, r4, #1
 5461              	.LVL630:
 235:lvgl/src/draw/lv_draw_mask.c ****         if(LV_GC_ROOT(_lv_circle_cache[i]).buf) {
 5462              		.loc 1 235 43 is_stmt 0 discriminator 2 view .LVU1889
 5463 0018 E4B2     		uxtb	r4, r4
 5464              	.LVL631:
 5465              	.L409:
 235:lvgl/src/draw/lv_draw_mask.c ****         if(LV_GC_ROOT(_lv_circle_cache[i]).buf) {
 5466              		.loc 1 235 18 is_stmt 1 discriminator 1 view .LVU1890
 5467 001a 032C     		cmp	r4, #3
 5468 001c 0AD8     		bhi	.L413
 236:lvgl/src/draw/lv_draw_mask.c ****             lv_mem_free(LV_GC_ROOT(_lv_circle_cache[i]).buf);
 5469              		.loc 1 236 9 view .LVU1891
 236:lvgl/src/draw/lv_draw_mask.c ****             lv_mem_free(LV_GC_ROOT(_lv_circle_cache[i]).buf);
 5470              		.loc 1 236 43 is_stmt 0 view .LVU1892
 5471 001e 2546     		mov	r5, r4
 5472 0020 C4EBC402 		rsb	r2, r4, r4, lsl #3
 5473 0024 9300     		lsls	r3, r2, #2
 5474 0026 044A     		ldr	r2, .L414
 5475 0028 D058     		ldr	r0, [r2, r3]
ARM GAS  /var/folders/21/t9g5rlb91ys800n5npymflf80000gn/T//cc0CxbBx.s 			page 156


 236:lvgl/src/draw/lv_draw_mask.c ****             lv_mem_free(LV_GC_ROOT(_lv_circle_cache[i]).buf);
 5476              		.loc 1 236 11 view .LVU1893
 5477 002a 0028     		cmp	r0, #0
 5478 002c EBD0     		beq	.L410
 237:lvgl/src/draw/lv_draw_mask.c ****         }
 5479              		.loc 1 237 13 is_stmt 1 view .LVU1894
 5480 002e FFF7FEFF 		bl	lv_mem_free
 5481              	.LVL632:
 5482 0032 E8E7     		b	.L410
 5483              	.L413:
 241:lvgl/src/draw/lv_draw_mask.c **** 
 5484              		.loc 1 241 1 is_stmt 0 view .LVU1895
 5485 0034 38BD     		pop	{r3, r4, r5, pc}
 5486              	.LVL633:
 5487              	.L415:
 241:lvgl/src/draw/lv_draw_mask.c **** 
 5488              		.loc 1 241 1 view .LVU1896
 5489 0036 00BF     		.align	2
 5490              	.L414:
 5491 0038 00000000 		.word	_lv_circle_cache
 5492              		.cfi_endproc
 5493              	.LFE62:
 5495              		.section	.text.lv_draw_mask_get_cnt,"ax",%progbits
 5496              		.align	1
 5497              		.global	lv_draw_mask_get_cnt
 5498              		.syntax unified
 5499              		.thumb
 5500              		.thumb_func
 5502              	lv_draw_mask_get_cnt:
 5503              	.LFB63:
 248:lvgl/src/draw/lv_draw_mask.c ****     uint8_t cnt = 0;
 5504              		.loc 1 248 1 is_stmt 1 view -0
 5505              		.cfi_startproc
 5506              		@ args = 0, pretend = 0, frame = 0
 5507              		@ frame_needed = 0, uses_anonymous_args = 0
 5508              		@ link register save eliminated.
 249:lvgl/src/draw/lv_draw_mask.c ****     uint8_t i;
 5509              		.loc 1 249 5 view .LVU1898
 5510              	.LVL634:
 250:lvgl/src/draw/lv_draw_mask.c ****     for(i = 0; i < _LV_MASK_MAX_NUM; i++) {
 5511              		.loc 1 250 5 view .LVU1899
 251:lvgl/src/draw/lv_draw_mask.c ****         if(LV_GC_ROOT(_lv_draw_mask_list[i]).param) cnt++;
 5512              		.loc 1 251 5 view .LVU1900
 251:lvgl/src/draw/lv_draw_mask.c ****         if(LV_GC_ROOT(_lv_draw_mask_list[i]).param) cnt++;
 5513              		.loc 1 251 11 is_stmt 0 view .LVU1901
 5514 0000 0023     		movs	r3, #0
 249:lvgl/src/draw/lv_draw_mask.c ****     uint8_t i;
 5515              		.loc 1 249 13 view .LVU1902
 5516 0002 1846     		mov	r0, r3
 251:lvgl/src/draw/lv_draw_mask.c ****         if(LV_GC_ROOT(_lv_draw_mask_list[i]).param) cnt++;
 5517              		.loc 1 251 5 view .LVU1903
 5518 0004 03E0     		b	.L417
 5519              	.LVL635:
 5520              	.L421:
 252:lvgl/src/draw/lv_draw_mask.c ****     }
 5521              		.loc 1 252 53 is_stmt 1 discriminator 1 view .LVU1904
 252:lvgl/src/draw/lv_draw_mask.c ****     }
ARM GAS  /var/folders/21/t9g5rlb91ys800n5npymflf80000gn/T//cc0CxbBx.s 			page 157


 5522              		.loc 1 252 56 is_stmt 0 discriminator 1 view .LVU1905
 5523 0006 0130     		adds	r0, r0, #1
 5524              	.LVL636:
 252:lvgl/src/draw/lv_draw_mask.c ****     }
 5525              		.loc 1 252 56 discriminator 1 view .LVU1906
 5526 0008 C0B2     		uxtb	r0, r0
 5527              	.LVL637:
 5528              	.L418:
 251:lvgl/src/draw/lv_draw_mask.c ****         if(LV_GC_ROOT(_lv_draw_mask_list[i]).param) cnt++;
 5529              		.loc 1 251 39 is_stmt 1 discriminator 2 view .LVU1907
 5530 000a 0133     		adds	r3, r3, #1
 5531              	.LVL638:
 251:lvgl/src/draw/lv_draw_mask.c ****         if(LV_GC_ROOT(_lv_draw_mask_list[i]).param) cnt++;
 5532              		.loc 1 251 39 is_stmt 0 discriminator 2 view .LVU1908
 5533 000c DBB2     		uxtb	r3, r3
 5534              	.LVL639:
 5535              	.L417:
 251:lvgl/src/draw/lv_draw_mask.c ****         if(LV_GC_ROOT(_lv_draw_mask_list[i]).param) cnt++;
 5536              		.loc 1 251 18 is_stmt 1 discriminator 1 view .LVU1909
 5537 000e 0F2B     		cmp	r3, #15
 5538 0010 05D8     		bhi	.L420
 252:lvgl/src/draw/lv_draw_mask.c ****     }
 5539              		.loc 1 252 9 view .LVU1910
 252:lvgl/src/draw/lv_draw_mask.c ****     }
 5540              		.loc 1 252 45 is_stmt 0 view .LVU1911
 5541 0012 034A     		ldr	r2, .L422
 5542 0014 52F83320 		ldr	r2, [r2, r3, lsl #3]
 252:lvgl/src/draw/lv_draw_mask.c ****     }
 5543              		.loc 1 252 11 view .LVU1912
 5544 0018 002A     		cmp	r2, #0
 5545 001a F4D1     		bne	.L421
 5546 001c F5E7     		b	.L418
 5547              	.L420:
 254:lvgl/src/draw/lv_draw_mask.c **** }
 5548              		.loc 1 254 5 is_stmt 1 view .LVU1913
 255:lvgl/src/draw/lv_draw_mask.c **** 
 5549              		.loc 1 255 1 is_stmt 0 view .LVU1914
 5550 001e 7047     		bx	lr
 5551              	.L423:
 5552              		.align	2
 5553              	.L422:
 5554 0020 00000000 		.word	_lv_draw_mask_list
 5555              		.cfi_endproc
 5556              	.LFE63:
 5558              		.section	.text.lv_draw_mask_is_any,"ax",%progbits
 5559              		.align	1
 5560              		.global	lv_draw_mask_is_any
 5561              		.syntax unified
 5562              		.thumb
 5563              		.thumb_func
 5565              	lv_draw_mask_is_any:
 5566              	.LVL640:
 5567              	.LFB64:
 258:lvgl/src/draw/lv_draw_mask.c ****     if(a == NULL) return LV_GC_ROOT(_lv_draw_mask_list[0]).param ? true : false;
 5568              		.loc 1 258 1 is_stmt 1 view -0
 5569              		.cfi_startproc
 5570              		@ args = 0, pretend = 0, frame = 0
ARM GAS  /var/folders/21/t9g5rlb91ys800n5npymflf80000gn/T//cc0CxbBx.s 			page 158


 5571              		@ frame_needed = 0, uses_anonymous_args = 0
 258:lvgl/src/draw/lv_draw_mask.c ****     if(a == NULL) return LV_GC_ROOT(_lv_draw_mask_list[0]).param ? true : false;
 5572              		.loc 1 258 1 is_stmt 0 view .LVU1916
 5573 0000 38B5     		push	{r3, r4, r5, lr}
 5574              	.LCFI33:
 5575              		.cfi_def_cfa_offset 16
 5576              		.cfi_offset 3, -16
 5577              		.cfi_offset 4, -12
 5578              		.cfi_offset 5, -8
 5579              		.cfi_offset 14, -4
 259:lvgl/src/draw/lv_draw_mask.c **** 
 5580              		.loc 1 259 5 is_stmt 1 view .LVU1917
 259:lvgl/src/draw/lv_draw_mask.c **** 
 5581              		.loc 1 259 7 is_stmt 0 view .LVU1918
 5582 0002 10B1     		cbz	r0, .L434
 5583 0004 0546     		mov	r5, r0
 262:lvgl/src/draw/lv_draw_mask.c ****         _lv_draw_mask_common_dsc_t * comm_param = LV_GC_ROOT(_lv_draw_mask_list[i]).param;
 5584              		.loc 1 262 11 view .LVU1919
 5585 0006 0024     		movs	r4, #0
 5586 0008 0EE0     		b	.L425
 5587              	.L434:
 259:lvgl/src/draw/lv_draw_mask.c **** 
 5588              		.loc 1 259 19 is_stmt 1 discriminator 1 view .LVU1920
 259:lvgl/src/draw/lv_draw_mask.c **** 
 5589              		.loc 1 259 59 is_stmt 0 discriminator 1 view .LVU1921
 5590 000a 164B     		ldr	r3, .L436
 5591 000c 1868     		ldr	r0, [r3]
 5592              	.LVL641:
 259:lvgl/src/draw/lv_draw_mask.c **** 
 5593              		.loc 1 259 73 discriminator 1 view .LVU1922
 5594 000e 0038     		subs	r0, r0, #0
 5595 0010 18BF     		it	ne
 5596 0012 0120     		movne	r0, #1
 5597 0014 21E0     		b	.L426
 5598              	.LVL642:
 5599              	.L428:
 5600              	.LBB200:
 5601              	.LBB201:
 271:lvgl/src/draw/lv_draw_mask.c ****             }
 5602              		.loc 1 271 17 is_stmt 1 view .LVU1923
 271:lvgl/src/draw/lv_draw_mask.c ****             }
 5603              		.loc 1 271 21 is_stmt 0 view .LVU1924
 5604 0016 B1F91020 		ldrsh	r2, [r1, #16]
 5605 001a 0831     		adds	r1, r1, #8
 5606              	.LVL643:
 271:lvgl/src/draw/lv_draw_mask.c ****             }
 5607              		.loc 1 271 21 view .LVU1925
 5608 001c 2846     		mov	r0, r5
 5609 001e FFF7FEFF 		bl	_lv_area_is_in
 5610              	.LVL644:
 271:lvgl/src/draw/lv_draw_mask.c ****             }
 5611              		.loc 1 271 19 view .LVU1926
 5612 0022 E8B1     		cbz	r0, .L432
 5613              	.LVL645:
 5614              	.L427:
 271:lvgl/src/draw/lv_draw_mask.c ****             }
 5615              		.loc 1 271 19 view .LVU1927
ARM GAS  /var/folders/21/t9g5rlb91ys800n5npymflf80000gn/T//cc0CxbBx.s 			page 159


 5616              	.LBE201:
 5617              	.LBE200:
 262:lvgl/src/draw/lv_draw_mask.c ****         _lv_draw_mask_common_dsc_t * comm_param = LV_GC_ROOT(_lv_draw_mask_list[i]).param;
 5618              		.loc 1 262 39 is_stmt 1 discriminator 2 view .LVU1928
 5619 0024 0134     		adds	r4, r4, #1
 5620              	.LVL646:
 262:lvgl/src/draw/lv_draw_mask.c ****         _lv_draw_mask_common_dsc_t * comm_param = LV_GC_ROOT(_lv_draw_mask_list[i]).param;
 5621              		.loc 1 262 39 is_stmt 0 discriminator 2 view .LVU1929
 5622 0026 E4B2     		uxtb	r4, r4
 5623              	.LVL647:
 5624              	.L425:
 262:lvgl/src/draw/lv_draw_mask.c ****         _lv_draw_mask_common_dsc_t * comm_param = LV_GC_ROOT(_lv_draw_mask_list[i]).param;
 5625              		.loc 1 262 18 is_stmt 1 discriminator 1 view .LVU1930
 5626 0028 0F2C     		cmp	r4, #15
 5627 002a 15D8     		bhi	.L435
 5628              	.LBB204:
 263:lvgl/src/draw/lv_draw_mask.c ****         if(comm_param == NULL) continue;
 5629              		.loc 1 263 9 view .LVU1931
 263:lvgl/src/draw/lv_draw_mask.c ****         if(comm_param == NULL) continue;
 5630              		.loc 1 263 38 is_stmt 0 view .LVU1932
 5631 002c 0D4B     		ldr	r3, .L436
 5632 002e 53F83410 		ldr	r1, [r3, r4, lsl #3]
 5633              	.LVL648:
 264:lvgl/src/draw/lv_draw_mask.c ****         if(comm_param->type == LV_DRAW_MASK_TYPE_RADIUS) {
 5634              		.loc 1 264 9 is_stmt 1 view .LVU1933
 264:lvgl/src/draw/lv_draw_mask.c ****         if(comm_param->type == LV_DRAW_MASK_TYPE_RADIUS) {
 5635              		.loc 1 264 11 is_stmt 0 view .LVU1934
 5636 0032 0029     		cmp	r1, #0
 5637 0034 F6D0     		beq	.L427
 265:lvgl/src/draw/lv_draw_mask.c ****             lv_draw_mask_radius_param_t * radius_param = LV_GC_ROOT(_lv_draw_mask_list[i]).param;
 5638              		.loc 1 265 9 is_stmt 1 view .LVU1935
 265:lvgl/src/draw/lv_draw_mask.c ****             lv_draw_mask_radius_param_t * radius_param = LV_GC_ROOT(_lv_draw_mask_list[i]).param;
 5639              		.loc 1 265 22 is_stmt 0 view .LVU1936
 5640 0036 0B79     		ldrb	r3, [r1, #4]	@ zero_extendqisi2
 265:lvgl/src/draw/lv_draw_mask.c ****             lv_draw_mask_radius_param_t * radius_param = LV_GC_ROOT(_lv_draw_mask_list[i]).param;
 5641              		.loc 1 265 11 view .LVU1937
 5642 0038 022B     		cmp	r3, #2
 5643 003a 0FD1     		bne	.L431
 5644              	.LBB202:
 266:lvgl/src/draw/lv_draw_mask.c ****             if(radius_param->cfg.outer) {
 5645              		.loc 1 266 13 is_stmt 1 view .LVU1938
 5646              	.LVL649:
 267:lvgl/src/draw/lv_draw_mask.c ****                 if(!_lv_area_is_out(a, &radius_param->cfg.rect, radius_param->cfg.radius)) return t
 5647              		.loc 1 267 13 view .LVU1939
 267:lvgl/src/draw/lv_draw_mask.c ****                 if(!_lv_area_is_out(a, &radius_param->cfg.rect, radius_param->cfg.radius)) return t
 5648              		.loc 1 267 16 is_stmt 0 view .LVU1940
 5649 003c 8B7C     		ldrb	r3, [r1, #18]	@ zero_extendqisi2
 267:lvgl/src/draw/lv_draw_mask.c ****                 if(!_lv_area_is_out(a, &radius_param->cfg.rect, radius_param->cfg.radius)) return t
 5650              		.loc 1 267 15 view .LVU1941
 5651 003e 13F0010F 		tst	r3, #1
 5652 0042 E8D0     		beq	.L428
 268:lvgl/src/draw/lv_draw_mask.c ****             }
 5653              		.loc 1 268 17 is_stmt 1 view .LVU1942
 268:lvgl/src/draw/lv_draw_mask.c ****             }
 5654              		.loc 1 268 21 is_stmt 0 view .LVU1943
 5655 0044 B1F91020 		ldrsh	r2, [r1, #16]
 5656 0048 0831     		adds	r1, r1, #8
ARM GAS  /var/folders/21/t9g5rlb91ys800n5npymflf80000gn/T//cc0CxbBx.s 			page 160


 5657              	.LVL650:
 268:lvgl/src/draw/lv_draw_mask.c ****             }
 5658              		.loc 1 268 21 view .LVU1944
 5659 004a 2846     		mov	r0, r5
 5660 004c FFF7FEFF 		bl	_lv_area_is_out
 5661              	.LVL651:
 268:lvgl/src/draw/lv_draw_mask.c ****             }
 5662              		.loc 1 268 19 view .LVU1945
 5663 0050 0028     		cmp	r0, #0
 5664 0052 E7D1     		bne	.L427
 268:lvgl/src/draw/lv_draw_mask.c ****             }
 5665              		.loc 1 268 99 view .LVU1946
 5666 0054 0120     		movs	r0, #1
 5667 0056 00E0     		b	.L426
 5668              	.LVL652:
 5669              	.L435:
 268:lvgl/src/draw/lv_draw_mask.c ****             }
 5670              		.loc 1 268 99 view .LVU1947
 5671              	.LBE202:
 5672              	.LBE204:
 279:lvgl/src/draw/lv_draw_mask.c **** 
 5673              		.loc 1 279 12 view .LVU1948
 5674 0058 0020     		movs	r0, #0
 5675              	.LVL653:
 5676              	.L426:
 281:lvgl/src/draw/lv_draw_mask.c **** 
 5677              		.loc 1 281 1 view .LVU1949
 5678 005a 38BD     		pop	{r3, r4, r5, pc}
 5679              	.LVL654:
 5680              	.L431:
 5681              	.LBB205:
 275:lvgl/src/draw/lv_draw_mask.c ****         }
 5682              		.loc 1 275 20 view .LVU1950
 5683 005c 0120     		movs	r0, #1
 5684 005e FCE7     		b	.L426
 5685              	.LVL655:
 5686              	.L432:
 5687              	.LBB203:
 271:lvgl/src/draw/lv_draw_mask.c ****             }
 5688              		.loc 1 271 98 view .LVU1951
 5689 0060 0120     		movs	r0, #1
 5690 0062 FAE7     		b	.L426
 5691              	.L437:
 5692              		.align	2
 5693              	.L436:
 5694 0064 00000000 		.word	_lv_draw_mask_list
 5695              	.LBE203:
 5696              	.LBE205:
 5697              		.cfi_endproc
 5698              	.LFE64:
 5700              		.section	.text.lv_draw_mask_line_points_init,"ax",%progbits
 5701              		.align	1
 5702              		.global	lv_draw_mask_line_points_init
 5703              		.syntax unified
 5704              		.thumb
 5705              		.thumb_func
 5707              	lv_draw_mask_line_points_init:
ARM GAS  /var/folders/21/t9g5rlb91ys800n5npymflf80000gn/T//cc0CxbBx.s 			page 161


 5708              	.LVL656:
 5709              	.LFB65:
 296:lvgl/src/draw/lv_draw_mask.c ****     lv_memset_00(param, sizeof(lv_draw_mask_line_param_t));
 5710              		.loc 1 296 1 is_stmt 1 view -0
 5711              		.cfi_startproc
 5712              		@ args = 8, pretend = 0, frame = 0
 5713              		@ frame_needed = 0, uses_anonymous_args = 0
 296:lvgl/src/draw/lv_draw_mask.c ****     lv_memset_00(param, sizeof(lv_draw_mask_line_param_t));
 5714              		.loc 1 296 1 is_stmt 0 view .LVU1953
 5715 0000 2DE9F843 		push	{r3, r4, r5, r6, r7, r8, r9, lr}
 5716              	.LCFI34:
 5717              		.cfi_def_cfa_offset 32
 5718              		.cfi_offset 3, -32
 5719              		.cfi_offset 4, -28
 5720              		.cfi_offset 5, -24
 5721              		.cfi_offset 6, -20
 5722              		.cfi_offset 7, -16
 5723              		.cfi_offset 8, -12
 5724              		.cfi_offset 9, -8
 5725              		.cfi_offset 14, -4
 5726 0004 0446     		mov	r4, r0
 5727 0006 8846     		mov	r8, r1
 5728 0008 1546     		mov	r5, r2
 5729 000a 1F46     		mov	r7, r3
 5730 000c BDF92060 		ldrsh	r6, [sp, #32]
 5731 0010 9DF82490 		ldrb	r9, [sp, #36]	@ zero_extendqisi2
 297:lvgl/src/draw/lv_draw_mask.c **** 
 5732              		.loc 1 297 5 is_stmt 1 view .LVU1954
 5733 0014 2C21     		movs	r1, #44
 5734              	.LVL657:
 297:lvgl/src/draw/lv_draw_mask.c **** 
 5735              		.loc 1 297 5 is_stmt 0 view .LVU1955
 5736 0016 FFF7FEFF 		bl	lv_memset_00
 5737              	.LVL658:
 299:lvgl/src/draw/lv_draw_mask.c ****         p1y--;
 5738              		.loc 1 299 5 is_stmt 1 view .LVU1956
 299:lvgl/src/draw/lv_draw_mask.c ****         p1y--;
 5739              		.loc 1 299 7 is_stmt 0 view .LVU1957
 5740 001a B542     		cmp	r5, r6
 5741 001c 57D0     		beq	.L455
 5742              	.LVL659:
 5743              	.L439:
 304:lvgl/src/draw/lv_draw_mask.c ****         lv_coord_t t;
 5744              		.loc 1 304 5 is_stmt 1 view .LVU1958
 304:lvgl/src/draw/lv_draw_mask.c ****         lv_coord_t t;
 5745              		.loc 1 304 7 is_stmt 0 view .LVU1959
 5746 001e B542     		cmp	r5, r6
 5747 0020 05DC     		bgt	.L440
 5748 0022 3346     		mov	r3, r6
 5749 0024 2E46     		mov	r6, r5
 5750              	.LVL660:
 304:lvgl/src/draw/lv_draw_mask.c ****         lv_coord_t t;
 5751              		.loc 1 304 7 view .LVU1960
 5752 0026 1D46     		mov	r5, r3
 5753              	.LVL661:
 304:lvgl/src/draw/lv_draw_mask.c ****         lv_coord_t t;
 5754              		.loc 1 304 7 view .LVU1961
ARM GAS  /var/folders/21/t9g5rlb91ys800n5npymflf80000gn/T//cc0CxbBx.s 			page 162


 5755 0028 3B46     		mov	r3, r7
 5756 002a 4746     		mov	r7, r8
 5757 002c 9846     		mov	r8, r3
 5758              	.L440:
 5759              	.LVL662:
 315:lvgl/src/draw/lv_draw_mask.c ****     param->cfg.p1.y = p1y;
 5760              		.loc 1 315 5 is_stmt 1 view .LVU1962
 315:lvgl/src/draw/lv_draw_mask.c ****     param->cfg.p1.y = p1y;
 5761              		.loc 1 315 21 is_stmt 0 view .LVU1963
 5762 002e 2781     		strh	r7, [r4, #8]	@ movhi
 316:lvgl/src/draw/lv_draw_mask.c ****     param->cfg.p2.x = p2x;
 5763              		.loc 1 316 5 is_stmt 1 view .LVU1964
 316:lvgl/src/draw/lv_draw_mask.c ****     param->cfg.p2.x = p2x;
 5764              		.loc 1 316 21 is_stmt 0 view .LVU1965
 5765 0030 6681     		strh	r6, [r4, #10]	@ movhi
 317:lvgl/src/draw/lv_draw_mask.c ****     param->cfg.p2.y = p2y;
 5766              		.loc 1 317 5 is_stmt 1 view .LVU1966
 317:lvgl/src/draw/lv_draw_mask.c ****     param->cfg.p2.y = p2y;
 5767              		.loc 1 317 21 is_stmt 0 view .LVU1967
 5768 0032 A4F80C80 		strh	r8, [r4, #12]	@ movhi
 318:lvgl/src/draw/lv_draw_mask.c ****     param->cfg.side = side;
 5769              		.loc 1 318 5 is_stmt 1 view .LVU1968
 318:lvgl/src/draw/lv_draw_mask.c ****     param->cfg.side = side;
 5770              		.loc 1 318 21 is_stmt 0 view .LVU1969
 5771 0036 E581     		strh	r5, [r4, #14]	@ movhi
 319:lvgl/src/draw/lv_draw_mask.c **** 
 5772              		.loc 1 319 5 is_stmt 1 view .LVU1970
 319:lvgl/src/draw/lv_draw_mask.c **** 
 5773              		.loc 1 319 21 is_stmt 0 view .LVU1971
 5774 0038 237C     		ldrb	r3, [r4, #16]	@ zero_extendqisi2
 5775 003a 69F30103 		bfi	r3, r9, #0, #2
 5776 003e 2374     		strb	r3, [r4, #16]
 321:lvgl/src/draw/lv_draw_mask.c ****     param->origo.y = p1y;
 5777              		.loc 1 321 5 is_stmt 1 view .LVU1972
 321:lvgl/src/draw/lv_draw_mask.c ****     param->origo.y = p1y;
 5778              		.loc 1 321 20 is_stmt 0 view .LVU1973
 5779 0040 6782     		strh	r7, [r4, #18]	@ movhi
 322:lvgl/src/draw/lv_draw_mask.c ****     param->flat = (LV_ABS(p2x - p1x) > LV_ABS(p2y - p1y)) ? 1 : 0;
 5780              		.loc 1 322 5 is_stmt 1 view .LVU1974
 322:lvgl/src/draw/lv_draw_mask.c ****     param->flat = (LV_ABS(p2x - p1x) > LV_ABS(p2y - p1y)) ? 1 : 0;
 5781              		.loc 1 322 20 is_stmt 0 view .LVU1975
 5782 0042 A682     		strh	r6, [r4, #20]	@ movhi
 323:lvgl/src/draw/lv_draw_mask.c ****     param->yx_steep = 0;
 5783              		.loc 1 323 5 is_stmt 1 view .LVU1976
 323:lvgl/src/draw/lv_draw_mask.c ****     param->yx_steep = 0;
 5784              		.loc 1 323 20 is_stmt 0 view .LVU1977
 5785 0044 A8EB0707 		sub	r7, r8, r7
 5786              	.LVL663:
 323:lvgl/src/draw/lv_draw_mask.c ****     param->yx_steep = 0;
 5787              		.loc 1 323 20 view .LVU1978
 5788 0048 87EAE773 		eor	r3, r7, r7, asr #31
 5789 004c A3EBE773 		sub	r3, r3, r7, asr #31
 323:lvgl/src/draw/lv_draw_mask.c ****     param->yx_steep = 0;
 5790              		.loc 1 323 40 view .LVU1979
 5791 0050 AD1B     		subs	r5, r5, r6
 5792              	.LVL664:
 323:lvgl/src/draw/lv_draw_mask.c ****     param->yx_steep = 0;
ARM GAS  /var/folders/21/t9g5rlb91ys800n5npymflf80000gn/T//cc0CxbBx.s 			page 163


 5793              		.loc 1 323 40 view .LVU1980
 5794 0052 85EAE572 		eor	r2, r5, r5, asr #31
 5795 0056 A2EBE572 		sub	r2, r2, r5, asr #31
 323:lvgl/src/draw/lv_draw_mask.c ****     param->yx_steep = 0;
 5796              		.loc 1 323 63 view .LVU1981
 5797 005a 9342     		cmp	r3, r2
 5798 005c D4BF     		ite	le
 5799 005e 0023     		movle	r3, #0
 5800 0060 0123     		movgt	r3, #1
 323:lvgl/src/draw/lv_draw_mask.c ****     param->yx_steep = 0;
 5801              		.loc 1 323 17 view .LVU1982
 5802 0062 94F82820 		ldrb	r2, [r4, #40]	@ zero_extendqisi2
 5803 0066 63F30002 		bfi	r2, r3, #0, #1
 5804 006a 84F82820 		strb	r2, [r4, #40]
 324:lvgl/src/draw/lv_draw_mask.c ****     param->xy_steep = 0;
 5805              		.loc 1 324 5 is_stmt 1 view .LVU1983
 324:lvgl/src/draw/lv_draw_mask.c ****     param->xy_steep = 0;
 5806              		.loc 1 324 21 is_stmt 0 view .LVU1984
 5807 006e 0023     		movs	r3, #0
 5808 0070 E361     		str	r3, [r4, #28]
 325:lvgl/src/draw/lv_draw_mask.c ****     param->dsc.cb = (lv_draw_mask_xcb_t)lv_draw_mask_line;
 5809              		.loc 1 325 5 is_stmt 1 view .LVU1985
 325:lvgl/src/draw/lv_draw_mask.c ****     param->dsc.cb = (lv_draw_mask_xcb_t)lv_draw_mask_line;
 5810              		.loc 1 325 21 is_stmt 0 view .LVU1986
 5811 0072 A361     		str	r3, [r4, #24]
 326:lvgl/src/draw/lv_draw_mask.c ****     param->dsc.type = LV_DRAW_MASK_TYPE_LINE;
 5812              		.loc 1 326 5 is_stmt 1 view .LVU1987
 326:lvgl/src/draw/lv_draw_mask.c ****     param->dsc.type = LV_DRAW_MASK_TYPE_LINE;
 5813              		.loc 1 326 19 is_stmt 0 view .LVU1988
 5814 0074 3D4A     		ldr	r2, .L459
 5815 0076 2260     		str	r2, [r4]
 327:lvgl/src/draw/lv_draw_mask.c **** 
 5816              		.loc 1 327 5 is_stmt 1 view .LVU1989
 327:lvgl/src/draw/lv_draw_mask.c **** 
 5817              		.loc 1 327 21 is_stmt 0 view .LVU1990
 5818 0078 2371     		strb	r3, [r4, #4]
 329:lvgl/src/draw/lv_draw_mask.c ****     int32_t dy = p2y - p1y;
 5819              		.loc 1 329 5 is_stmt 1 view .LVU1991
 5820              	.LVL665:
 330:lvgl/src/draw/lv_draw_mask.c **** 
 5821              		.loc 1 330 5 view .LVU1992
 332:lvgl/src/draw/lv_draw_mask.c ****         /*Normalize the steep. Delta x should be relative to delta x = 1024*/
 5822              		.loc 1 332 5 view .LVU1993
 332:lvgl/src/draw/lv_draw_mask.c ****         /*Normalize the steep. Delta x should be relative to delta x = 1024*/
 5823              		.loc 1 332 8 is_stmt 0 view .LVU1994
 5824 007a 94F82830 		ldrb	r3, [r4, #40]	@ zero_extendqisi2
 332:lvgl/src/draw/lv_draw_mask.c ****         /*Normalize the steep. Delta x should be relative to delta x = 1024*/
 5825              		.loc 1 332 7 view .LVU1995
 5826 007e 13F0010F 		tst	r3, #1
 5827 0082 2CD0     		beq	.L441
 5828              	.LBB206:
 334:lvgl/src/draw/lv_draw_mask.c **** 
 5829              		.loc 1 334 9 is_stmt 1 view .LVU1996
 336:lvgl/src/draw/lv_draw_mask.c ****             m = (1L << 20) / dx;  /*m is multiplier to normalize y (upscaled by 1024)*/
 5830              		.loc 1 336 9 view .LVU1997
 336:lvgl/src/draw/lv_draw_mask.c ****             m = (1L << 20) / dx;  /*m is multiplier to normalize y (upscaled by 1024)*/
 5831              		.loc 1 336 11 is_stmt 0 view .LVU1998
ARM GAS  /var/folders/21/t9g5rlb91ys800n5npymflf80000gn/T//cc0CxbBx.s 			page 164


 5832 0084 3FB1     		cbz	r7, .L442
 337:lvgl/src/draw/lv_draw_mask.c ****             param->yx_steep = (m * dy) >> 10;
 5833              		.loc 1 337 13 is_stmt 1 view .LVU1999
 337:lvgl/src/draw/lv_draw_mask.c ****             param->yx_steep = (m * dy) >> 10;
 5834              		.loc 1 337 15 is_stmt 0 view .LVU2000
 5835 0086 4FF48013 		mov	r3, #1048576
 5836 008a 93FBF7F3 		sdiv	r3, r3, r7
 5837              	.LVL666:
 338:lvgl/src/draw/lv_draw_mask.c ****         }
 5838              		.loc 1 338 13 is_stmt 1 view .LVU2001
 338:lvgl/src/draw/lv_draw_mask.c ****         }
 5839              		.loc 1 338 34 is_stmt 0 view .LVU2002
 5840 008e 05FB03F3 		mul	r3, r5, r3
 5841              	.LVL667:
 338:lvgl/src/draw/lv_draw_mask.c ****         }
 5842              		.loc 1 338 40 view .LVU2003
 5843 0092 9B12     		asrs	r3, r3, #10
 338:lvgl/src/draw/lv_draw_mask.c ****         }
 5844              		.loc 1 338 29 view .LVU2004
 5845 0094 E361     		str	r3, [r4, #28]
 5846              	.LVL668:
 5847              	.L442:
 341:lvgl/src/draw/lv_draw_mask.c ****             m = (1L << 20) / dy;  /*m is multiplier to normalize x (upscaled by 1024)*/
 5848              		.loc 1 341 9 is_stmt 1 view .LVU2005
 341:lvgl/src/draw/lv_draw_mask.c ****             m = (1L << 20) / dy;  /*m is multiplier to normalize x (upscaled by 1024)*/
 5849              		.loc 1 341 11 is_stmt 0 view .LVU2006
 5850 0096 3DB1     		cbz	r5, .L443
 342:lvgl/src/draw/lv_draw_mask.c ****             param->xy_steep = (m * dx) >> 10;
 5851              		.loc 1 342 13 is_stmt 1 view .LVU2007
 342:lvgl/src/draw/lv_draw_mask.c ****             param->xy_steep = (m * dx) >> 10;
 5852              		.loc 1 342 15 is_stmt 0 view .LVU2008
 5853 0098 4FF48013 		mov	r3, #1048576
 5854 009c 93FBF5F3 		sdiv	r3, r3, r5
 5855              	.LVL669:
 343:lvgl/src/draw/lv_draw_mask.c ****         }
 5856              		.loc 1 343 13 is_stmt 1 view .LVU2009
 343:lvgl/src/draw/lv_draw_mask.c ****         }
 5857              		.loc 1 343 34 is_stmt 0 view .LVU2010
 5858 00a0 07FB03F3 		mul	r3, r7, r3
 5859              	.LVL670:
 343:lvgl/src/draw/lv_draw_mask.c ****         }
 5860              		.loc 1 343 40 view .LVU2011
 5861 00a4 9B12     		asrs	r3, r3, #10
 343:lvgl/src/draw/lv_draw_mask.c ****         }
 5862              		.loc 1 343 29 view .LVU2012
 5863 00a6 A361     		str	r3, [r4, #24]
 5864              	.LVL671:
 5865              	.L443:
 345:lvgl/src/draw/lv_draw_mask.c ****     }
 5866              		.loc 1 345 9 is_stmt 1 view .LVU2013
 345:lvgl/src/draw/lv_draw_mask.c ****     }
 5867              		.loc 1 345 29 is_stmt 0 view .LVU2014
 5868 00a8 E369     		ldr	r3, [r4, #28]
 345:lvgl/src/draw/lv_draw_mask.c ****     }
 5869              		.loc 1 345 22 view .LVU2015
 5870 00aa 2362     		str	r3, [r4, #32]
 5871              	.LVL672:
ARM GAS  /var/folders/21/t9g5rlb91ys800n5npymflf80000gn/T//cc0CxbBx.s 			page 165


 5872              	.L444:
 345:lvgl/src/draw/lv_draw_mask.c ****     }
 5873              		.loc 1 345 22 view .LVU2016
 5874              	.LBE206:
 363:lvgl/src/draw/lv_draw_mask.c ****     else if(param->cfg.side == LV_DRAW_MASK_LINE_SIDE_RIGHT) param->inv = 1;
 5875              		.loc 1 363 5 is_stmt 1 view .LVU2017
 363:lvgl/src/draw/lv_draw_mask.c ****     else if(param->cfg.side == LV_DRAW_MASK_LINE_SIDE_RIGHT) param->inv = 1;
 5876              		.loc 1 363 24 is_stmt 0 view .LVU2018
 5877 00ac 237C     		ldrb	r3, [r4, #16]	@ zero_extendqisi2
 363:lvgl/src/draw/lv_draw_mask.c ****     else if(param->cfg.side == LV_DRAW_MASK_LINE_SIDE_RIGHT) param->inv = 1;
 5878              		.loc 1 363 7 view .LVU2019
 5879 00ae 13F00303 		ands	r3, r3, #3
 5880 00b2 29D1     		bne	.L447
 363:lvgl/src/draw/lv_draw_mask.c ****     else if(param->cfg.side == LV_DRAW_MASK_LINE_SIDE_RIGHT) param->inv = 1;
 5881              		.loc 1 363 56 is_stmt 1 discriminator 1 view .LVU2020
 363:lvgl/src/draw/lv_draw_mask.c ****     else if(param->cfg.side == LV_DRAW_MASK_LINE_SIDE_RIGHT) param->inv = 1;
 5882              		.loc 1 363 67 is_stmt 0 discriminator 1 view .LVU2021
 5883 00b4 94F82830 		ldrb	r3, [r4, #40]	@ zero_extendqisi2
 5884 00b8 6FF34103 		bfc	r3, #1, #1
 5885 00bc 84F82830 		strb	r3, [r4, #40]
 5886              	.L448:
 374:lvgl/src/draw/lv_draw_mask.c ****     if(param->steep < 0) param->spx = -param->spx;
 5887              		.loc 1 374 5 is_stmt 1 view .LVU2022
 374:lvgl/src/draw/lv_draw_mask.c ****     if(param->steep < 0) param->spx = -param->spx;
 5888              		.loc 1 374 23 is_stmt 0 view .LVU2023
 5889 00c0 226A     		ldr	r2, [r4, #32]
 374:lvgl/src/draw/lv_draw_mask.c ****     if(param->steep < 0) param->spx = -param->spx;
 5890              		.loc 1 374 31 view .LVU2024
 5891 00c2 9310     		asrs	r3, r2, #2
 374:lvgl/src/draw/lv_draw_mask.c ****     if(param->steep < 0) param->spx = -param->spx;
 5892              		.loc 1 374 16 view .LVU2025
 5893 00c4 6362     		str	r3, [r4, #36]
 375:lvgl/src/draw/lv_draw_mask.c **** }
 5894              		.loc 1 375 5 is_stmt 1 view .LVU2026
 375:lvgl/src/draw/lv_draw_mask.c **** }
 5895              		.loc 1 375 7 is_stmt 0 view .LVU2027
 5896 00c6 002A     		cmp	r2, #0
 5897 00c8 4DDB     		blt	.L456
 5898              	.L438:
 376:lvgl/src/draw/lv_draw_mask.c **** 
 5899              		.loc 1 376 1 view .LVU2028
 5900 00ca BDE8F883 		pop	{r3, r4, r5, r6, r7, r8, r9, pc}
 5901              	.LVL673:
 5902              	.L455:
 299:lvgl/src/draw/lv_draw_mask.c ****         p1y--;
 5903              		.loc 1 299 19 discriminator 1 view .LVU2029
 5904 00ce B9F1030F 		cmp	r9, #3
 5905 00d2 A4D1     		bne	.L439
 300:lvgl/src/draw/lv_draw_mask.c ****         p2y--;
 5906              		.loc 1 300 9 is_stmt 1 view .LVU2030
 300:lvgl/src/draw/lv_draw_mask.c ****         p2y--;
 5907              		.loc 1 300 12 is_stmt 0 view .LVU2031
 5908 00d4 013D     		subs	r5, r5, #1
 5909 00d6 2DB2     		sxth	r5, r5
 5910              	.LVL674:
 301:lvgl/src/draw/lv_draw_mask.c ****     }
 5911              		.loc 1 301 9 is_stmt 1 view .LVU2032
ARM GAS  /var/folders/21/t9g5rlb91ys800n5npymflf80000gn/T//cc0CxbBx.s 			page 166


 301:lvgl/src/draw/lv_draw_mask.c ****     }
 5912              		.loc 1 301 12 is_stmt 0 view .LVU2033
 5913 00d8 013E     		subs	r6, r6, #1
 5914 00da 36B2     		sxth	r6, r6
 5915              	.LVL675:
 301:lvgl/src/draw/lv_draw_mask.c ****     }
 5916              		.loc 1 301 12 view .LVU2034
 5917 00dc 9FE7     		b	.L439
 5918              	.LVL676:
 5919              	.L441:
 5920              	.LBB207:
 349:lvgl/src/draw/lv_draw_mask.c **** 
 5921              		.loc 1 349 9 is_stmt 1 view .LVU2035
 351:lvgl/src/draw/lv_draw_mask.c ****             m = (1L << 20) / dy;  /*m is multiplier to normalize x (upscaled by 1024)*/
 5922              		.loc 1 351 9 view .LVU2036
 351:lvgl/src/draw/lv_draw_mask.c ****             m = (1L << 20) / dy;  /*m is multiplier to normalize x (upscaled by 1024)*/
 5923              		.loc 1 351 11 is_stmt 0 view .LVU2037
 5924 00de 3DB1     		cbz	r5, .L445
 352:lvgl/src/draw/lv_draw_mask.c ****             param->xy_steep = (m * dx) >> 10;
 5925              		.loc 1 352 13 is_stmt 1 view .LVU2038
 352:lvgl/src/draw/lv_draw_mask.c ****             param->xy_steep = (m * dx) >> 10;
 5926              		.loc 1 352 15 is_stmt 0 view .LVU2039
 5927 00e0 4FF48013 		mov	r3, #1048576
 5928 00e4 93FBF5F3 		sdiv	r3, r3, r5
 5929              	.LVL677:
 353:lvgl/src/draw/lv_draw_mask.c ****         }
 5930              		.loc 1 353 13 is_stmt 1 view .LVU2040
 353:lvgl/src/draw/lv_draw_mask.c ****         }
 5931              		.loc 1 353 34 is_stmt 0 view .LVU2041
 5932 00e8 07FB03F3 		mul	r3, r7, r3
 5933              	.LVL678:
 353:lvgl/src/draw/lv_draw_mask.c ****         }
 5934              		.loc 1 353 40 view .LVU2042
 5935 00ec 9B12     		asrs	r3, r3, #10
 353:lvgl/src/draw/lv_draw_mask.c ****         }
 5936              		.loc 1 353 29 view .LVU2043
 5937 00ee A361     		str	r3, [r4, #24]
 5938              	.LVL679:
 5939              	.L445:
 356:lvgl/src/draw/lv_draw_mask.c ****             m = (1L << 20) / dx;  /*m is multiplier to normalize x (upscaled by 1024)*/
 5940              		.loc 1 356 9 is_stmt 1 view .LVU2044
 356:lvgl/src/draw/lv_draw_mask.c ****             m = (1L << 20) / dx;  /*m is multiplier to normalize x (upscaled by 1024)*/
 5941              		.loc 1 356 11 is_stmt 0 view .LVU2045
 5942 00f0 3FB1     		cbz	r7, .L446
 357:lvgl/src/draw/lv_draw_mask.c ****             param->yx_steep = (m * dy) >> 10;
 5943              		.loc 1 357 13 is_stmt 1 view .LVU2046
 357:lvgl/src/draw/lv_draw_mask.c ****             param->yx_steep = (m * dy) >> 10;
 5944              		.loc 1 357 15 is_stmt 0 view .LVU2047
 5945 00f2 4FF48013 		mov	r3, #1048576
 5946 00f6 93FBF7F3 		sdiv	r3, r3, r7
 5947              	.LVL680:
 358:lvgl/src/draw/lv_draw_mask.c ****         }
 5948              		.loc 1 358 13 is_stmt 1 view .LVU2048
 358:lvgl/src/draw/lv_draw_mask.c ****         }
 5949              		.loc 1 358 34 is_stmt 0 view .LVU2049
 5950 00fa 03FB05F5 		mul	r5, r3, r5
 5951              	.LVL681:
ARM GAS  /var/folders/21/t9g5rlb91ys800n5npymflf80000gn/T//cc0CxbBx.s 			page 167


 358:lvgl/src/draw/lv_draw_mask.c ****         }
 5952              		.loc 1 358 40 view .LVU2050
 5953 00fe AD12     		asrs	r5, r5, #10
 358:lvgl/src/draw/lv_draw_mask.c ****         }
 5954              		.loc 1 358 29 view .LVU2051
 5955 0100 E561     		str	r5, [r4, #28]
 5956              	.LVL682:
 5957              	.L446:
 360:lvgl/src/draw/lv_draw_mask.c ****     }
 5958              		.loc 1 360 9 is_stmt 1 view .LVU2052
 360:lvgl/src/draw/lv_draw_mask.c ****     }
 5959              		.loc 1 360 29 is_stmt 0 view .LVU2053
 5960 0102 A369     		ldr	r3, [r4, #24]
 360:lvgl/src/draw/lv_draw_mask.c ****     }
 5961              		.loc 1 360 22 view .LVU2054
 5962 0104 2362     		str	r3, [r4, #32]
 5963 0106 D1E7     		b	.L444
 5964              	.L447:
 360:lvgl/src/draw/lv_draw_mask.c ****     }
 5965              		.loc 1 360 22 view .LVU2055
 5966              	.LBE207:
 364:lvgl/src/draw/lv_draw_mask.c ****     else if(param->cfg.side == LV_DRAW_MASK_LINE_SIDE_TOP) {
 5967              		.loc 1 364 10 is_stmt 1 view .LVU2056
 364:lvgl/src/draw/lv_draw_mask.c ****     else if(param->cfg.side == LV_DRAW_MASK_LINE_SIDE_TOP) {
 5968              		.loc 1 364 12 is_stmt 0 view .LVU2057
 5969 0108 012B     		cmp	r3, #1
 5970 010a 0DD0     		beq	.L457
 365:lvgl/src/draw/lv_draw_mask.c ****         if(param->steep > 0) param->inv = 1;
 5971              		.loc 1 365 10 is_stmt 1 view .LVU2058
 365:lvgl/src/draw/lv_draw_mask.c ****         if(param->steep > 0) param->inv = 1;
 5972              		.loc 1 365 12 is_stmt 0 view .LVU2059
 5973 010c 022B     		cmp	r3, #2
 5974 010e 12D0     		beq	.L458
 369:lvgl/src/draw/lv_draw_mask.c ****         if(param->steep > 0) param->inv = 0;
 5975              		.loc 1 369 10 is_stmt 1 view .LVU2060
 369:lvgl/src/draw/lv_draw_mask.c ****         if(param->steep > 0) param->inv = 0;
 5976              		.loc 1 369 12 is_stmt 0 view .LVU2061
 5977 0110 032B     		cmp	r3, #3
 5978 0112 D5D1     		bne	.L448
 370:lvgl/src/draw/lv_draw_mask.c ****         else param->inv = 1;
 5979              		.loc 1 370 9 is_stmt 1 view .LVU2062
 370:lvgl/src/draw/lv_draw_mask.c ****         else param->inv = 1;
 5980              		.loc 1 370 17 is_stmt 0 view .LVU2063
 5981 0114 236A     		ldr	r3, [r4, #32]
 370:lvgl/src/draw/lv_draw_mask.c ****         else param->inv = 1;
 5982              		.loc 1 370 11 view .LVU2064
 5983 0116 002B     		cmp	r3, #0
 5984 0118 1EDD     		ble	.L452
 370:lvgl/src/draw/lv_draw_mask.c ****         else param->inv = 1;
 5985              		.loc 1 370 30 is_stmt 1 discriminator 1 view .LVU2065
 370:lvgl/src/draw/lv_draw_mask.c ****         else param->inv = 1;
 5986              		.loc 1 370 41 is_stmt 0 discriminator 1 view .LVU2066
 5987 011a 94F82830 		ldrb	r3, [r4, #40]	@ zero_extendqisi2
 5988 011e 6FF34103 		bfc	r3, #1, #1
 5989 0122 84F82830 		strb	r3, [r4, #40]
 5990 0126 CBE7     		b	.L448
 5991              	.L457:
ARM GAS  /var/folders/21/t9g5rlb91ys800n5npymflf80000gn/T//cc0CxbBx.s 			page 168


 364:lvgl/src/draw/lv_draw_mask.c ****     else if(param->cfg.side == LV_DRAW_MASK_LINE_SIDE_TOP) {
 5992              		.loc 1 364 62 is_stmt 1 discriminator 1 view .LVU2067
 364:lvgl/src/draw/lv_draw_mask.c ****     else if(param->cfg.side == LV_DRAW_MASK_LINE_SIDE_TOP) {
 5993              		.loc 1 364 73 is_stmt 0 discriminator 1 view .LVU2068
 5994 0128 94F82830 		ldrb	r3, [r4, #40]	@ zero_extendqisi2
 5995 012c 43F00203 		orr	r3, r3, #2
 5996 0130 84F82830 		strb	r3, [r4, #40]
 5997 0134 C4E7     		b	.L448
 5998              	.L458:
 366:lvgl/src/draw/lv_draw_mask.c ****         else param->inv = 0;
 5999              		.loc 1 366 9 is_stmt 1 view .LVU2069
 366:lvgl/src/draw/lv_draw_mask.c ****         else param->inv = 0;
 6000              		.loc 1 366 17 is_stmt 0 view .LVU2070
 6001 0136 236A     		ldr	r3, [r4, #32]
 366:lvgl/src/draw/lv_draw_mask.c ****         else param->inv = 0;
 6002              		.loc 1 366 11 view .LVU2071
 6003 0138 002B     		cmp	r3, #0
 6004 013a 06DD     		ble	.L451
 366:lvgl/src/draw/lv_draw_mask.c ****         else param->inv = 0;
 6005              		.loc 1 366 30 is_stmt 1 discriminator 1 view .LVU2072
 366:lvgl/src/draw/lv_draw_mask.c ****         else param->inv = 0;
 6006              		.loc 1 366 41 is_stmt 0 discriminator 1 view .LVU2073
 6007 013c 94F82830 		ldrb	r3, [r4, #40]	@ zero_extendqisi2
 6008 0140 43F00203 		orr	r3, r3, #2
 6009 0144 84F82830 		strb	r3, [r4, #40]
 6010 0148 BAE7     		b	.L448
 6011              	.L451:
 367:lvgl/src/draw/lv_draw_mask.c ****     }
 6012              		.loc 1 367 14 is_stmt 1 view .LVU2074
 367:lvgl/src/draw/lv_draw_mask.c ****     }
 6013              		.loc 1 367 25 is_stmt 0 view .LVU2075
 6014 014a 94F82830 		ldrb	r3, [r4, #40]	@ zero_extendqisi2
 6015 014e 6FF34103 		bfc	r3, #1, #1
 6016 0152 84F82830 		strb	r3, [r4, #40]
 6017 0156 B3E7     		b	.L448
 6018              	.L452:
 371:lvgl/src/draw/lv_draw_mask.c ****     }
 6019              		.loc 1 371 14 is_stmt 1 view .LVU2076
 371:lvgl/src/draw/lv_draw_mask.c ****     }
 6020              		.loc 1 371 25 is_stmt 0 view .LVU2077
 6021 0158 94F82830 		ldrb	r3, [r4, #40]	@ zero_extendqisi2
 6022 015c 43F00203 		orr	r3, r3, #2
 6023 0160 84F82830 		strb	r3, [r4, #40]
 6024 0164 ACE7     		b	.L448
 6025              	.L456:
 375:lvgl/src/draw/lv_draw_mask.c **** }
 6026              		.loc 1 375 26 is_stmt 1 discriminator 1 view .LVU2078
 375:lvgl/src/draw/lv_draw_mask.c **** }
 6027              		.loc 1 375 39 is_stmt 0 discriminator 1 view .LVU2079
 6028 0166 5B42     		rsbs	r3, r3, #0
 375:lvgl/src/draw/lv_draw_mask.c **** }
 6029              		.loc 1 375 37 discriminator 1 view .LVU2080
 6030 0168 6362     		str	r3, [r4, #36]
 376:lvgl/src/draw/lv_draw_mask.c **** 
 6031              		.loc 1 376 1 discriminator 1 view .LVU2081
 6032 016a AEE7     		b	.L438
 6033              	.L460:
ARM GAS  /var/folders/21/t9g5rlb91ys800n5npymflf80000gn/T//cc0CxbBx.s 			page 169


 6034              		.align	2
 6035              	.L459:
 6036 016c 00000000 		.word	lv_draw_mask_line
 6037              		.cfi_endproc
 6038              	.LFE65:
 6040              		.section	.text.lv_draw_mask_polygon,"ax",%progbits
 6041              		.align	1
 6042              		.syntax unified
 6043              		.thumb
 6044              		.thumb_func
 6046              	lv_draw_mask_polygon:
 6047              	.LVL683:
 6048              	.LFB79:
1251:lvgl/src/draw/lv_draw_mask.c ****     uint16_t i;
 6049              		.loc 1 1251 1 is_stmt 1 view -0
 6050              		.cfi_startproc
 6051              		@ args = 4, pretend = 0, frame = 80
 6052              		@ frame_needed = 0, uses_anonymous_args = 0
1251:lvgl/src/draw/lv_draw_mask.c ****     uint16_t i;
 6053              		.loc 1 1251 1 is_stmt 0 view .LVU2083
 6054 0000 2DE9F043 		push	{r4, r5, r6, r7, r8, r9, lr}
 6055              	.LCFI35:
 6056              		.cfi_def_cfa_offset 28
 6057              		.cfi_offset 4, -28
 6058              		.cfi_offset 5, -24
 6059              		.cfi_offset 6, -20
 6060              		.cfi_offset 7, -16
 6061              		.cfi_offset 8, -12
 6062              		.cfi_offset 9, -8
 6063              		.cfi_offset 14, -4
 6064 0004 97B0     		sub	sp, sp, #92
 6065              	.LCFI36:
 6066              		.cfi_def_cfa_offset 120
 6067 0006 0646     		mov	r6, r0
 6068 0008 8846     		mov	r8, r1
 6069 000a 1546     		mov	r5, r2
 6070 000c 1F46     		mov	r7, r3
 6071 000e 1E9C     		ldr	r4, [sp, #120]
1252:lvgl/src/draw/lv_draw_mask.c ****     struct {
 6072              		.loc 1 1252 5 is_stmt 1 view .LVU2084
1253:lvgl/src/draw/lv_draw_mask.c ****         lv_point_t p1;
 6073              		.loc 1 1253 5 view .LVU2085
1257:lvgl/src/draw/lv_draw_mask.c ****     lv_memset_00(&lines, sizeof(lines));
 6074              		.loc 1 1257 5 view .LVU2086
 6075              	.LVL684:
1258:lvgl/src/draw/lv_draw_mask.c ****     int psign_prev = 0;
 6076              		.loc 1 1258 5 view .LVU2087
 6077 0010 1021     		movs	r1, #16
 6078              	.LVL685:
1258:lvgl/src/draw/lv_draw_mask.c ****     int psign_prev = 0;
 6079              		.loc 1 1258 5 is_stmt 0 view .LVU2088
 6080 0012 12A8     		add	r0, sp, #72
 6081              	.LVL686:
1258:lvgl/src/draw/lv_draw_mask.c ****     int psign_prev = 0;
 6082              		.loc 1 1258 5 view .LVU2089
 6083 0014 FFF7FEFF 		bl	lv_memset_00
 6084              	.LVL687:
ARM GAS  /var/folders/21/t9g5rlb91ys800n5npymflf80000gn/T//cc0CxbBx.s 			page 170


1259:lvgl/src/draw/lv_draw_mask.c ****     for(i = 0; i < param->cfg.point_cnt; i++) {
 6085              		.loc 1 1259 5 is_stmt 1 view .LVU2090
1260:lvgl/src/draw/lv_draw_mask.c ****         lv_point_t p1 = param->cfg.points[i];
 6086              		.loc 1 1260 5 view .LVU2091
1259:lvgl/src/draw/lv_draw_mask.c ****     for(i = 0; i < param->cfg.point_cnt; i++) {
 6087              		.loc 1 1259 9 is_stmt 0 view .LVU2092
 6088 0018 4FF00009 		mov	r9, #0
1257:lvgl/src/draw/lv_draw_mask.c ****     lv_memset_00(&lines, sizeof(lines));
 6089              		.loc 1 1257 14 view .LVU2093
 6090 001c 4946     		mov	r1, r9
1260:lvgl/src/draw/lv_draw_mask.c ****         lv_point_t p1 = param->cfg.points[i];
 6091              		.loc 1 1260 11 view .LVU2094
 6092 001e CC46     		mov	ip, r9
1260:lvgl/src/draw/lv_draw_mask.c ****         lv_point_t p1 = param->cfg.points[i];
 6093              		.loc 1 1260 5 view .LVU2095
 6094 0020 38E0     		b	.L462
 6095              	.LVL688:
 6096              	.L485:
 6097              	.LBB208:
1262:lvgl/src/draw/lv_draw_mask.c ****         int pdiff = p1.y - p2.y, psign = pdiff / LV_ABS(pdiff);
 6098              		.loc 1 1262 42 view .LVU2096
 6099 0022 4FF0000E 		mov	lr, #0
 6100              	.L463:
1262:lvgl/src/draw/lv_draw_mask.c ****         int pdiff = p1.y - p2.y, psign = pdiff / LV_ABS(pdiff);
 6101              		.loc 1 1262 20 discriminator 4 view .LVU2097
 6102 0026 52F80E00 		ldr	r0, [r2, lr]	@ unaligned
 6103 002a 0490     		str	r0, [sp, #16]
1263:lvgl/src/draw/lv_draw_mask.c ****         if(pdiff > 0) {
 6104              		.loc 1 1263 9 is_stmt 1 discriminator 4 view .LVU2098
1263:lvgl/src/draw/lv_draw_mask.c ****         if(pdiff > 0) {
 6105              		.loc 1 1263 23 is_stmt 0 discriminator 4 view .LVU2099
 6106 002c BDF90E30 		ldrsh	r3, [sp, #14]
1263:lvgl/src/draw/lv_draw_mask.c ****         if(pdiff > 0) {
 6107              		.loc 1 1263 30 discriminator 4 view .LVU2100
 6108 0030 BDF91220 		ldrsh	r2, [sp, #18]
 6109              	.LVL689:
1263:lvgl/src/draw/lv_draw_mask.c ****         if(pdiff > 0) {
 6110              		.loc 1 1263 48 discriminator 4 view .LVU2101
 6111 0034 981A     		subs	r0, r3, r2
 6112              	.LVL690:
1263:lvgl/src/draw/lv_draw_mask.c ****         if(pdiff > 0) {
 6113              		.loc 1 1263 48 discriminator 4 view .LVU2102
 6114 0036 10D4     		bmi	.L486
 6115              	.LVL691:
1264:lvgl/src/draw/lv_draw_mask.c ****             if(abs_y > p1.y || abs_y < p2.y) continue;
 6116              		.loc 1 1264 9 is_stmt 1 discriminator 4 view .LVU2103
1264:lvgl/src/draw/lv_draw_mask.c ****             if(abs_y > p1.y || abs_y < p2.y) continue;
 6117              		.loc 1 1264 11 is_stmt 0 discriminator 4 view .LVU2104
 6118 0038 0028     		cmp	r0, #0
 6119 003a 39DD     		ble	.L487
1265:lvgl/src/draw/lv_draw_mask.c ****             lines[line_cnt].p1 = p2;
 6120              		.loc 1 1265 13 is_stmt 1 view .LVU2105
1265:lvgl/src/draw/lv_draw_mask.c ****             lines[line_cnt].p1 = p2;
 6121              		.loc 1 1265 15 is_stmt 0 view .LVU2106
 6122 003c AB42     		cmp	r3, r5
 6123 003e 25DB     		blt	.L469
1265:lvgl/src/draw/lv_draw_mask.c ****             lines[line_cnt].p1 = p2;
ARM GAS  /var/folders/21/t9g5rlb91ys800n5npymflf80000gn/T//cc0CxbBx.s 			page 171


 6124              		.loc 1 1265 29 discriminator 2 view .LVU2107
 6125 0040 AA42     		cmp	r2, r5
 6126 0042 23DC     		bgt	.L469
1266:lvgl/src/draw/lv_draw_mask.c ****             lines[line_cnt].p2 = p1;
 6127              		.loc 1 1266 13 is_stmt 1 view .LVU2108
1266:lvgl/src/draw/lv_draw_mask.c ****             lines[line_cnt].p2 = p1;
 6128              		.loc 1 1266 32 is_stmt 0 view .LVU2109
 6129 0044 049B     		ldr	r3, [sp, #16]
 6130 0046 16AA     		add	r2, sp, #88
 6131 0048 02EBC102 		add	r2, r2, r1, lsl #3
 6132 004c 42F8103C 		str	r3, [r2, #-16]
1267:lvgl/src/draw/lv_draw_mask.c ****         }
 6133              		.loc 1 1267 13 is_stmt 1 view .LVU2110
1267:lvgl/src/draw/lv_draw_mask.c ****         }
 6134              		.loc 1 1267 32 is_stmt 0 view .LVU2111
 6135 0050 039B     		ldr	r3, [sp, #12]
 6136 0052 42F80C3C 		str	r3, [r2, #-12]
1263:lvgl/src/draw/lv_draw_mask.c ****         if(pdiff > 0) {
 6137              		.loc 1 1263 48 view .LVU2112
 6138 0056 0120     		movs	r0, #1
 6139              	.LVL692:
1263:lvgl/src/draw/lv_draw_mask.c ****         if(pdiff > 0) {
 6140              		.loc 1 1263 48 view .LVU2113
 6141 0058 0EE0     		b	.L466
 6142              	.LVL693:
 6143              	.L486:
1263:lvgl/src/draw/lv_draw_mask.c ****         if(pdiff > 0) {
 6144              		.loc 1 1263 48 view .LVU2114
 6145 005a 4FF0FF30 		mov	r0, #-1
 6146              	.LVL694:
 6147              	.L464:
1270:lvgl/src/draw/lv_draw_mask.c ****             lines[line_cnt].p1 = p1;
 6148              		.loc 1 1270 13 is_stmt 1 view .LVU2115
1270:lvgl/src/draw/lv_draw_mask.c ****             lines[line_cnt].p1 = p1;
 6149              		.loc 1 1270 15 is_stmt 0 view .LVU2116
 6150 005e AB42     		cmp	r3, r5
 6151 0060 14DC     		bgt	.L469
1270:lvgl/src/draw/lv_draw_mask.c ****             lines[line_cnt].p1 = p1;
 6152              		.loc 1 1270 29 discriminator 2 view .LVU2117
 6153 0062 AA42     		cmp	r2, r5
 6154 0064 12DB     		blt	.L469
1271:lvgl/src/draw/lv_draw_mask.c ****             lines[line_cnt].p2 = p2;
 6155              		.loc 1 1271 13 is_stmt 1 view .LVU2118
1271:lvgl/src/draw/lv_draw_mask.c ****             lines[line_cnt].p2 = p2;
 6156              		.loc 1 1271 32 is_stmt 0 view .LVU2119
 6157 0066 039B     		ldr	r3, [sp, #12]
 6158              	.LVL695:
1271:lvgl/src/draw/lv_draw_mask.c ****             lines[line_cnt].p2 = p2;
 6159              		.loc 1 1271 32 view .LVU2120
 6160 0068 16AA     		add	r2, sp, #88
 6161              	.LVL696:
1271:lvgl/src/draw/lv_draw_mask.c ****             lines[line_cnt].p2 = p2;
 6162              		.loc 1 1271 32 view .LVU2121
 6163 006a 02EBC102 		add	r2, r2, r1, lsl #3
 6164 006e 42F8103C 		str	r3, [r2, #-16]
1272:lvgl/src/draw/lv_draw_mask.c ****         }
 6165              		.loc 1 1272 13 is_stmt 1 view .LVU2122
ARM GAS  /var/folders/21/t9g5rlb91ys800n5npymflf80000gn/T//cc0CxbBx.s 			page 172


1272:lvgl/src/draw/lv_draw_mask.c ****         }
 6166              		.loc 1 1272 32 is_stmt 0 view .LVU2123
 6167 0072 049B     		ldr	r3, [sp, #16]
 6168 0074 42F80C3C 		str	r3, [r2, #-12]
 6169              	.L466:
1274:lvgl/src/draw/lv_draw_mask.c ****         psign_prev = psign;
 6170              		.loc 1 1274 9 is_stmt 1 view .LVU2124
1274:lvgl/src/draw/lv_draw_mask.c ****         psign_prev = psign;
 6171              		.loc 1 1274 11 is_stmt 0 view .LVU2125
 6172 0078 B9F1000F 		cmp	r9, #0
 6173 007c 01D0     		beq	.L467
1274:lvgl/src/draw/lv_draw_mask.c ****         psign_prev = psign;
 6174              		.loc 1 1274 23 discriminator 1 view .LVU2126
 6175 007e 8145     		cmp	r9, r0
 6176 0080 04D0     		beq	.L469
 6177              	.L467:
1275:lvgl/src/draw/lv_draw_mask.c ****         line_cnt++;
 6178              		.loc 1 1275 9 is_stmt 1 view .LVU2127
 6179              	.LVL697:
1276:lvgl/src/draw/lv_draw_mask.c ****         if(line_cnt == 2) break;
 6180              		.loc 1 1276 9 view .LVU2128
1276:lvgl/src/draw/lv_draw_mask.c ****         if(line_cnt == 2) break;
 6181              		.loc 1 1276 17 is_stmt 0 view .LVU2129
 6182 0082 0131     		adds	r1, r1, #1
 6183              	.LVL698:
1276:lvgl/src/draw/lv_draw_mask.c ****         if(line_cnt == 2) break;
 6184              		.loc 1 1276 17 view .LVU2130
 6185 0084 89B2     		uxth	r1, r1
 6186              	.LVL699:
1277:lvgl/src/draw/lv_draw_mask.c ****     }
 6187              		.loc 1 1277 9 is_stmt 1 view .LVU2131
1277:lvgl/src/draw/lv_draw_mask.c ****     }
 6188              		.loc 1 1277 11 is_stmt 0 view .LVU2132
 6189 0086 0229     		cmp	r1, #2
 6190 0088 14D0     		beq	.L470
 6191 008a 8146     		mov	r9, r0
 6192              	.LVL700:
 6193              	.L469:
1277:lvgl/src/draw/lv_draw_mask.c ****     }
 6194              		.loc 1 1277 11 view .LVU2133
 6195              	.LBE208:
1260:lvgl/src/draw/lv_draw_mask.c ****         lv_point_t p1 = param->cfg.points[i];
 6196              		.loc 1 1260 43 is_stmt 1 discriminator 2 view .LVU2134
 6197 008c 0CF1010C 		add	ip, ip, #1
 6198              	.LVL701:
1260:lvgl/src/draw/lv_draw_mask.c ****         lv_point_t p1 = param->cfg.points[i];
 6199              		.loc 1 1260 43 is_stmt 0 discriminator 2 view .LVU2135
 6200 0090 1FFA8CFC 		uxth	ip, ip
 6201              	.LVL702:
 6202              	.L462:
1260:lvgl/src/draw/lv_draw_mask.c ****         lv_point_t p1 = param->cfg.points[i];
 6203              		.loc 1 1260 18 is_stmt 1 discriminator 1 view .LVU2136
1260:lvgl/src/draw/lv_draw_mask.c ****         lv_point_t p1 = param->cfg.points[i];
 6204              		.loc 1 1260 30 is_stmt 0 discriminator 1 view .LVU2137
 6205 0094 A389     		ldrh	r3, [r4, #12]
1260:lvgl/src/draw/lv_draw_mask.c ****         lv_point_t p1 = param->cfg.points[i];
 6206              		.loc 1 1260 18 discriminator 1 view .LVU2138
ARM GAS  /var/folders/21/t9g5rlb91ys800n5npymflf80000gn/T//cc0CxbBx.s 			page 173


 6207 0096 6345     		cmp	r3, ip
 6208 0098 0CD9     		bls	.L470
 6209              	.LBB209:
1261:lvgl/src/draw/lv_draw_mask.c ****         lv_point_t p2 = param->cfg.points[i + 1 < param->cfg.point_cnt ? i + 1 : 0];
 6210              		.loc 1 1261 9 is_stmt 1 view .LVU2139
1261:lvgl/src/draw/lv_draw_mask.c ****         lv_point_t p2 = param->cfg.points[i + 1 < param->cfg.point_cnt ? i + 1 : 0];
 6211              		.loc 1 1261 35 is_stmt 0 view .LVU2140
 6212 009a A268     		ldr	r2, [r4, #8]
1261:lvgl/src/draw/lv_draw_mask.c ****         lv_point_t p2 = param->cfg.points[i + 1 < param->cfg.point_cnt ? i + 1 : 0];
 6213              		.loc 1 1261 20 view .LVU2141
 6214 009c 52F82C00 		ldr	r0, [r2, ip, lsl #2]	@ unaligned
 6215 00a0 0390     		str	r0, [sp, #12]
1262:lvgl/src/draw/lv_draw_mask.c ****         int pdiff = p1.y - p2.y, psign = pdiff / LV_ABS(pdiff);
 6216              		.loc 1 1262 9 is_stmt 1 view .LVU2142
1262:lvgl/src/draw/lv_draw_mask.c ****         int pdiff = p1.y - p2.y, psign = pdiff / LV_ABS(pdiff);
 6217              		.loc 1 1262 45 is_stmt 0 view .LVU2143
 6218 00a2 0CF1010E 		add	lr, ip, #1
1262:lvgl/src/draw/lv_draw_mask.c ****         int pdiff = p1.y - p2.y, psign = pdiff / LV_ABS(pdiff);
 6219              		.loc 1 1262 42 view .LVU2144
 6220 00a6 9E45     		cmp	lr, r3
 6221 00a8 BBDA     		bge	.L485
1262:lvgl/src/draw/lv_draw_mask.c ****         int pdiff = p1.y - p2.y, psign = pdiff / LV_ABS(pdiff);
 6222              		.loc 1 1262 42 discriminator 1 view .LVU2145
 6223 00aa 4FEA8E0E 		lsl	lr, lr, #2
 6224 00ae BAE7     		b	.L463
 6225              	.LVL703:
 6226              	.L487:
1263:lvgl/src/draw/lv_draw_mask.c ****         if(pdiff > 0) {
 6227              		.loc 1 1263 48 view .LVU2146
 6228 00b0 0120     		movs	r0, #1
 6229              	.LVL704:
1263:lvgl/src/draw/lv_draw_mask.c ****         if(pdiff > 0) {
 6230              		.loc 1 1263 48 view .LVU2147
 6231 00b2 D4E7     		b	.L464
 6232              	.LVL705:
 6233              	.L470:
1263:lvgl/src/draw/lv_draw_mask.c ****         if(pdiff > 0) {
 6234              		.loc 1 1263 48 view .LVU2148
 6235              	.LBE209:
1279:lvgl/src/draw/lv_draw_mask.c ****     if(lines[0].p1.x > lines[1].p1.x || lines[0].p2.x > lines[1].p2.x) {
 6236              		.loc 1 1279 5 is_stmt 1 view .LVU2149
1279:lvgl/src/draw/lv_draw_mask.c ****     if(lines[0].p1.x > lines[1].p1.x || lines[0].p2.x > lines[1].p2.x) {
 6237              		.loc 1 1279 7 is_stmt 0 view .LVU2150
 6238 00b4 0229     		cmp	r1, #2
 6239 00b6 40F0BD80 		bne	.L488
1280:lvgl/src/draw/lv_draw_mask.c ****         tmp = lines[0];
 6240              		.loc 1 1280 5 is_stmt 1 view .LVU2151
1280:lvgl/src/draw/lv_draw_mask.c ****         tmp = lines[0];
 6241              		.loc 1 1280 19 is_stmt 0 view .LVU2152
 6242 00ba BDF94820 		ldrsh	r2, [sp, #72]
1280:lvgl/src/draw/lv_draw_mask.c ****         tmp = lines[0];
 6243              		.loc 1 1280 35 view .LVU2153
 6244 00be BDF95030 		ldrsh	r3, [sp, #80]
1280:lvgl/src/draw/lv_draw_mask.c ****         tmp = lines[0];
 6245              		.loc 1 1280 7 view .LVU2154
 6246 00c2 9A42     		cmp	r2, r3
 6247 00c4 05DC     		bgt	.L473
ARM GAS  /var/folders/21/t9g5rlb91ys800n5npymflf80000gn/T//cc0CxbBx.s 			page 174


1280:lvgl/src/draw/lv_draw_mask.c ****         tmp = lines[0];
 6248              		.loc 1 1280 52 discriminator 1 view .LVU2155
 6249 00c6 BDF94C20 		ldrsh	r2, [sp, #76]
1280:lvgl/src/draw/lv_draw_mask.c ****         tmp = lines[0];
 6250              		.loc 1 1280 68 discriminator 1 view .LVU2156
 6251 00ca BDF95430 		ldrsh	r3, [sp, #84]
1280:lvgl/src/draw/lv_draw_mask.c ****         tmp = lines[0];
 6252              		.loc 1 1280 38 discriminator 1 view .LVU2157
 6253 00ce 9A42     		cmp	r2, r3
 6254 00d0 0EDD     		ble	.L474
 6255              	.L473:
1281:lvgl/src/draw/lv_draw_mask.c ****         lines[0] = lines[1];
 6256              		.loc 1 1281 9 is_stmt 1 view .LVU2158
1281:lvgl/src/draw/lv_draw_mask.c ****         lines[0] = lines[1];
 6257              		.loc 1 1281 13 is_stmt 0 view .LVU2159
 6258 00d2 10AA     		add	r2, sp, #64
 6259 00d4 12AC     		add	r4, sp, #72
 6260 00d6 94E80300 		ldm	r4, {r0, r1}
 6261              	.LVL706:
1281:lvgl/src/draw/lv_draw_mask.c ****         lines[0] = lines[1];
 6262              		.loc 1 1281 13 view .LVU2160
 6263 00da 82E80300 		stm	r2, {r0, r1}
1282:lvgl/src/draw/lv_draw_mask.c ****         lines[1] = tmp;
 6264              		.loc 1 1282 9 is_stmt 1 view .LVU2161
1282:lvgl/src/draw/lv_draw_mask.c ****         lines[1] = tmp;
 6265              		.loc 1 1282 18 is_stmt 0 view .LVU2162
 6266 00de 14AB     		add	r3, sp, #80
 6267 00e0 93E80300 		ldm	r3, {r0, r1}
 6268 00e4 84E80300 		stm	r4, {r0, r1}
1283:lvgl/src/draw/lv_draw_mask.c ****     }
 6269              		.loc 1 1283 9 is_stmt 1 view .LVU2163
1283:lvgl/src/draw/lv_draw_mask.c ****     }
 6270              		.loc 1 1283 18 is_stmt 0 view .LVU2164
 6271 00e8 92E80300 		ldm	r2, {r0, r1}
 6272 00ec 83E80300 		stm	r3, {r0, r1}
 6273              	.L474:
1285:lvgl/src/draw/lv_draw_mask.c ****     lv_draw_mask_line_points_init(&line_p, lines[0].p1.x, lines[0].p1.y, lines[0].p2.x, lines[0].p2
 6274              		.loc 1 1285 5 is_stmt 1 view .LVU2165
1286:lvgl/src/draw/lv_draw_mask.c ****                                   LV_DRAW_MASK_LINE_SIDE_RIGHT);
 6275              		.loc 1 1286 5 view .LVU2166
 6276 00f0 0123     		movs	r3, #1
 6277 00f2 0193     		str	r3, [sp, #4]
 6278 00f4 BDF94E30 		ldrsh	r3, [sp, #78]
 6279 00f8 0093     		str	r3, [sp]
 6280 00fa BDF94C30 		ldrsh	r3, [sp, #76]
 6281 00fe BDF94A20 		ldrsh	r2, [sp, #74]
 6282 0102 BDF94810 		ldrsh	r1, [sp, #72]
 6283 0106 05A8     		add	r0, sp, #20
 6284 0108 FFF7FEFF 		bl	lv_draw_mask_line_points_init
 6285              	.LVL707:
1288:lvgl/src/draw/lv_draw_mask.c ****         lv_coord_t x1 = LV_MIN(lines[0].p1.x, lines[0].p2.x);
 6286              		.loc 1 1288 5 view .LVU2167
1288:lvgl/src/draw/lv_draw_mask.c ****         lv_coord_t x1 = LV_MIN(lines[0].p1.x, lines[0].p2.x);
 6287              		.loc 1 1288 14 is_stmt 0 view .LVU2168
 6288 010c 0D9C     		ldr	r4, [sp, #52]
1288:lvgl/src/draw/lv_draw_mask.c ****         lv_coord_t x1 = LV_MIN(lines[0].p1.x, lines[0].p2.x);
 6289              		.loc 1 1288 7 view .LVU2169
ARM GAS  /var/folders/21/t9g5rlb91ys800n5npymflf80000gn/T//cc0CxbBx.s 			page 175


 6290 010e 24B9     		cbnz	r4, .L475
1288:lvgl/src/draw/lv_draw_mask.c ****         lv_coord_t x1 = LV_MIN(lines[0].p1.x, lines[0].p2.x);
 6291              		.loc 1 1288 26 discriminator 1 view .LVU2170
 6292 0110 9DF83C30 		ldrb	r3, [sp, #60]	@ zero_extendqisi2
 6293 0114 13F0010F 		tst	r3, #1
 6294 0118 3AD1     		bne	.L499
 6295              	.L475:
1297:lvgl/src/draw/lv_draw_mask.c ****     lv_draw_mask_free_param(&line_p);
 6296              		.loc 1 1297 5 is_stmt 1 view .LVU2171
1297:lvgl/src/draw/lv_draw_mask.c ****     lv_draw_mask_free_param(&line_p);
 6297              		.loc 1 1297 31 is_stmt 0 view .LVU2172
 6298 011a 0DF11409 		add	r9, sp, #20
 6299 011e CDF80090 		str	r9, [sp]
 6300 0122 3B46     		mov	r3, r7
 6301 0124 2A46     		mov	r2, r5
 6302 0126 4146     		mov	r1, r8
 6303 0128 3046     		mov	r0, r6
 6304 012a FFF7FEFF 		bl	lv_draw_mask_line
 6305              	.LVL708:
 6306 012e 0446     		mov	r4, r0
 6307              	.LVL709:
1298:lvgl/src/draw/lv_draw_mask.c ****     if(res1 == LV_DRAW_MASK_RES_TRANSP) {
 6308              		.loc 1 1298 5 is_stmt 1 view .LVU2173
 6309 0130 4846     		mov	r0, r9
 6310 0132 FFF7FEFF 		bl	lv_draw_mask_free_param
 6311              	.LVL710:
1299:lvgl/src/draw/lv_draw_mask.c ****         return LV_DRAW_MASK_RES_TRANSP;
 6312              		.loc 1 1299 5 view .LVU2174
1299:lvgl/src/draw/lv_draw_mask.c ****         return LV_DRAW_MASK_RES_TRANSP;
 6313              		.loc 1 1299 7 is_stmt 0 view .LVU2175
 6314 0136 002C     		cmp	r4, #0
 6315 0138 7DD0     		beq	.L472
1302:lvgl/src/draw/lv_draw_mask.c ****                                   LV_DRAW_MASK_LINE_SIDE_LEFT);
 6316              		.loc 1 1302 5 is_stmt 1 view .LVU2176
 6317 013a 0023     		movs	r3, #0
 6318 013c 0193     		str	r3, [sp, #4]
 6319 013e BDF95630 		ldrsh	r3, [sp, #86]
 6320 0142 0093     		str	r3, [sp]
 6321 0144 BDF95430 		ldrsh	r3, [sp, #84]
 6322 0148 BDF95220 		ldrsh	r2, [sp, #82]
 6323 014c BDF95010 		ldrsh	r1, [sp, #80]
 6324 0150 4846     		mov	r0, r9
 6325 0152 FFF7FEFF 		bl	lv_draw_mask_line_points_init
 6326              	.LVL711:
1304:lvgl/src/draw/lv_draw_mask.c ****         lv_coord_t x1 = LV_MIN(lines[1].p1.x, lines[1].p2.x);
 6327              		.loc 1 1304 5 view .LVU2177
1304:lvgl/src/draw/lv_draw_mask.c ****         lv_coord_t x1 = LV_MIN(lines[1].p1.x, lines[1].p2.x);
 6328              		.loc 1 1304 14 is_stmt 0 view .LVU2178
 6329 0156 0D98     		ldr	r0, [sp, #52]
1304:lvgl/src/draw/lv_draw_mask.c ****         lv_coord_t x1 = LV_MIN(lines[1].p1.x, lines[1].p2.x);
 6330              		.loc 1 1304 7 view .LVU2179
 6331 0158 20B9     		cbnz	r0, .L480
1304:lvgl/src/draw/lv_draw_mask.c ****         lv_coord_t x1 = LV_MIN(lines[1].p1.x, lines[1].p2.x);
 6332              		.loc 1 1304 26 discriminator 1 view .LVU2180
 6333 015a 9DF83C30 		ldrb	r3, [sp, #60]	@ zero_extendqisi2
 6334 015e 13F0010F 		tst	r3, #1
 6335 0162 3ED1     		bne	.L500
ARM GAS  /var/folders/21/t9g5rlb91ys800n5npymflf80000gn/T//cc0CxbBx.s 			page 176


 6336              	.L480:
1313:lvgl/src/draw/lv_draw_mask.c ****     lv_draw_mask_free_param(&line_p);
 6337              		.loc 1 1313 5 is_stmt 1 view .LVU2181
1313:lvgl/src/draw/lv_draw_mask.c ****     lv_draw_mask_free_param(&line_p);
 6338              		.loc 1 1313 31 is_stmt 0 view .LVU2182
 6339 0164 0DF11409 		add	r9, sp, #20
 6340 0168 CDF80090 		str	r9, [sp]
 6341 016c 3B46     		mov	r3, r7
 6342 016e 2A46     		mov	r2, r5
 6343 0170 4146     		mov	r1, r8
 6344 0172 3046     		mov	r0, r6
 6345 0174 FFF7FEFF 		bl	lv_draw_mask_line
 6346              	.LVL712:
 6347 0178 0546     		mov	r5, r0
 6348              	.LVL713:
1314:lvgl/src/draw/lv_draw_mask.c ****     if(res2 == LV_DRAW_MASK_RES_TRANSP) {
 6349              		.loc 1 1314 5 is_stmt 1 view .LVU2183
 6350 017a 4846     		mov	r0, r9
 6351 017c FFF7FEFF 		bl	lv_draw_mask_free_param
 6352              	.LVL714:
1315:lvgl/src/draw/lv_draw_mask.c ****         return LV_DRAW_MASK_RES_TRANSP;
 6353              		.loc 1 1315 5 view .LVU2184
1315:lvgl/src/draw/lv_draw_mask.c ****         return LV_DRAW_MASK_RES_TRANSP;
 6354              		.loc 1 1315 7 is_stmt 0 view .LVU2185
 6355 0180 002D     		cmp	r5, #0
 6356 0182 5CD0     		beq	.L495
1318:lvgl/src/draw/lv_draw_mask.c ****     return res1;
 6357              		.loc 1 1318 5 is_stmt 1 view .LVU2186
1318:lvgl/src/draw/lv_draw_mask.c ****     return res1;
 6358              		.loc 1 1318 7 is_stmt 0 view .LVU2187
 6359 0184 022C     		cmp	r4, #2
 6360 0186 5CD0     		beq	.L496
1318:lvgl/src/draw/lv_draw_mask.c ****     return res1;
 6361              		.loc 1 1318 41 discriminator 2 view .LVU2188
 6362 0188 022D     		cmp	r5, #2
 6363 018a 54D1     		bne	.L472
1318:lvgl/src/draw/lv_draw_mask.c ****     return res1;
 6364              		.loc 1 1318 85 view .LVU2189
 6365 018c 0224     		movs	r4, #2
 6366              	.LVL715:
1318:lvgl/src/draw/lv_draw_mask.c ****     return res1;
 6367              		.loc 1 1318 85 view .LVU2190
 6368 018e 52E0     		b	.L472
 6369              	.LVL716:
 6370              	.L499:
 6371              	.LBB210:
1289:lvgl/src/draw/lv_draw_mask.c ****         lv_coord_t x2 = LV_MAX(lines[0].p1.x, lines[0].p2.x);
 6372              		.loc 1 1289 9 is_stmt 1 view .LVU2191
1289:lvgl/src/draw/lv_draw_mask.c ****         lv_coord_t x2 = LV_MAX(lines[0].p1.x, lines[0].p2.x);
 6373              		.loc 1 1289 25 is_stmt 0 view .LVU2192
 6374 0190 BDF94CC0 		ldrsh	ip, [sp, #76]
 6375 0194 BDF94830 		ldrsh	r3, [sp, #72]
1289:lvgl/src/draw/lv_draw_mask.c ****         lv_coord_t x2 = LV_MAX(lines[0].p1.x, lines[0].p2.x);
 6376              		.loc 1 1289 20 view .LVU2193
 6377 0198 6546     		mov	r5, ip
 6378 019a 9C45     		cmp	ip, r3
 6379 019c A8BF     		it	ge
ARM GAS  /var/folders/21/t9g5rlb91ys800n5npymflf80000gn/T//cc0CxbBx.s 			page 177


 6380 019e 1D46     		movge	r5, r3
 6381              	.LVL717:
1290:lvgl/src/draw/lv_draw_mask.c ****         for(i = 0; i < len; i++) {
 6382              		.loc 1 1290 9 is_stmt 1 view .LVU2194
1290:lvgl/src/draw/lv_draw_mask.c ****         for(i = 0; i < len; i++) {
 6383              		.loc 1 1290 20 is_stmt 0 view .LVU2195
 6384 01a0 9C45     		cmp	ip, r3
 6385 01a2 B8BF     		it	lt
 6386 01a4 9C46     		movlt	ip, r3
 6387              	.LVL718:
1291:lvgl/src/draw/lv_draw_mask.c ****             mask_buf[i] = mask_mix(mask_buf[i], (abs_x + i >= x1 && abs_x + i <= x2) * 0xFF);
 6388              		.loc 1 1291 9 is_stmt 1 view .LVU2196
1291:lvgl/src/draw/lv_draw_mask.c ****             mask_buf[i] = mask_mix(mask_buf[i], (abs_x + i >= x1 && abs_x + i <= x2) * 0xFF);
 6389              		.loc 1 1291 15 is_stmt 0 view .LVU2197
 6390 01a6 0023     		movs	r3, #0
1291:lvgl/src/draw/lv_draw_mask.c ****             mask_buf[i] = mask_mix(mask_buf[i], (abs_x + i >= x1 && abs_x + i <= x2) * 0xFF);
 6391              		.loc 1 1291 9 view .LVU2198
 6392 01a8 08E0     		b	.L476
 6393              	.LVL719:
 6394              	.L489:
1292:lvgl/src/draw/lv_draw_mask.c ****         }
 6395              		.loc 1 1292 66 view .LVU2199
 6396 01aa 2246     		mov	r2, r4
 6397              	.L477:
1292:lvgl/src/draw/lv_draw_mask.c ****         }
 6398              		.loc 1 1292 27 discriminator 6 view .LVU2200
 6399 01ac 5242     		rsbs	r2, r2, #0
 6400 01ae D2B2     		uxtb	r2, r2
 6401              	.LVL720:
 6402              	.LBB211:
 6403              	.LBI211:
1518:lvgl/src/draw/lv_draw_mask.c **** {
 6404              		.loc 1 1518 46 is_stmt 1 discriminator 6 view .LVU2201
 6405              	.LBB212:
1520:lvgl/src/draw/lv_draw_mask.c ****     if(mask_new <= LV_OPA_MIN) return 0;
 6406              		.loc 1 1520 5 discriminator 6 view .LVU2202
1520:lvgl/src/draw/lv_draw_mask.c ****     if(mask_new <= LV_OPA_MIN) return 0;
 6407              		.loc 1 1520 7 is_stmt 0 discriminator 6 view .LVU2203
 6408 01b0 FC2A     		cmp	r2, #252
 6409 01b2 00D8     		bhi	.L478
1521:lvgl/src/draw/lv_draw_mask.c **** 
 6410              		.loc 1 1521 39 view .LVU2204
 6411 01b4 0021     		movs	r1, #0
 6412              	.LVL721:
 6413              	.L478:
1521:lvgl/src/draw/lv_draw_mask.c **** 
 6414              		.loc 1 1521 39 view .LVU2205
 6415              	.LBE212:
 6416              	.LBE211:
1292:lvgl/src/draw/lv_draw_mask.c ****         }
 6417              		.loc 1 1292 25 view .LVU2206
 6418 01b6 0170     		strb	r1, [r0]
1291:lvgl/src/draw/lv_draw_mask.c ****             mask_buf[i] = mask_mix(mask_buf[i], (abs_x + i >= x1 && abs_x + i <= x2) * 0xFF);
 6419              		.loc 1 1291 30 is_stmt 1 view .LVU2207
 6420 01b8 0133     		adds	r3, r3, #1
 6421              	.LVL722:
1291:lvgl/src/draw/lv_draw_mask.c ****             mask_buf[i] = mask_mix(mask_buf[i], (abs_x + i >= x1 && abs_x + i <= x2) * 0xFF);
ARM GAS  /var/folders/21/t9g5rlb91ys800n5npymflf80000gn/T//cc0CxbBx.s 			page 178


 6422              		.loc 1 1291 30 is_stmt 0 view .LVU2208
 6423 01ba 9BB2     		uxth	r3, r3
 6424              	.LVL723:
 6425              	.L476:
1291:lvgl/src/draw/lv_draw_mask.c ****             mask_buf[i] = mask_mix(mask_buf[i], (abs_x + i >= x1 && abs_x + i <= x2) * 0xFF);
 6426              		.loc 1 1291 22 is_stmt 1 discriminator 2 view .LVU2209
 6427 01bc BB42     		cmp	r3, r7
 6428 01be 0BDA     		bge	.L501
1292:lvgl/src/draw/lv_draw_mask.c ****         }
 6429              		.loc 1 1292 13 view .LVU2210
1292:lvgl/src/draw/lv_draw_mask.c ****         }
 6430              		.loc 1 1292 44 is_stmt 0 view .LVU2211
 6431 01c0 F018     		adds	r0, r6, r3
1292:lvgl/src/draw/lv_draw_mask.c ****         }
 6432              		.loc 1 1292 27 view .LVU2212
 6433 01c2 F15C     		ldrb	r1, [r6, r3]	@ zero_extendqisi2
1292:lvgl/src/draw/lv_draw_mask.c ****         }
 6434              		.loc 1 1292 56 view .LVU2213
 6435 01c4 08EB0302 		add	r2, r8, r3
1292:lvgl/src/draw/lv_draw_mask.c ****         }
 6436              		.loc 1 1292 66 view .LVU2214
 6437 01c8 AA42     		cmp	r2, r5
 6438 01ca EEDB     		blt	.L489
1292:lvgl/src/draw/lv_draw_mask.c ****         }
 6439              		.loc 1 1292 66 discriminator 1 view .LVU2215
 6440 01cc 6245     		cmp	r2, ip
 6441 01ce 01DD     		ble	.L490
1292:lvgl/src/draw/lv_draw_mask.c ****         }
 6442              		.loc 1 1292 66 view .LVU2216
 6443 01d0 2246     		mov	r2, r4
 6444 01d2 EBE7     		b	.L477
 6445              	.L490:
 6446 01d4 0122     		movs	r2, #1
 6447 01d6 E9E7     		b	.L477
 6448              	.L501:
1294:lvgl/src/draw/lv_draw_mask.c ****         return LV_DRAW_MASK_RES_CHANGED;
 6449              		.loc 1 1294 9 is_stmt 1 view .LVU2217
 6450 01d8 05A8     		add	r0, sp, #20
 6451 01da FFF7FEFF 		bl	lv_draw_mask_free_param
 6452              	.LVL724:
1295:lvgl/src/draw/lv_draw_mask.c ****     }
 6453              		.loc 1 1295 9 view .LVU2218
1295:lvgl/src/draw/lv_draw_mask.c ****     }
 6454              		.loc 1 1295 16 is_stmt 0 view .LVU2219
 6455 01de 0224     		movs	r4, #2
 6456 01e0 29E0     		b	.L472
 6457              	.LVL725:
 6458              	.L500:
1295:lvgl/src/draw/lv_draw_mask.c ****     }
 6459              		.loc 1 1295 16 view .LVU2220
 6460              	.LBE210:
 6461              	.LBB213:
1305:lvgl/src/draw/lv_draw_mask.c ****         lv_coord_t x2 = LV_MAX(lines[1].p1.x, lines[1].p2.x);
 6462              		.loc 1 1305 9 is_stmt 1 view .LVU2221
1305:lvgl/src/draw/lv_draw_mask.c ****         lv_coord_t x2 = LV_MAX(lines[1].p1.x, lines[1].p2.x);
 6463              		.loc 1 1305 25 is_stmt 0 view .LVU2222
 6464 01e2 BDF954C0 		ldrsh	ip, [sp, #84]
ARM GAS  /var/folders/21/t9g5rlb91ys800n5npymflf80000gn/T//cc0CxbBx.s 			page 179


 6465 01e6 BDF95030 		ldrsh	r3, [sp, #80]
1305:lvgl/src/draw/lv_draw_mask.c ****         lv_coord_t x2 = LV_MAX(lines[1].p1.x, lines[1].p2.x);
 6466              		.loc 1 1305 20 view .LVU2223
 6467 01ea 6546     		mov	r5, ip
 6468 01ec 9C45     		cmp	ip, r3
 6469 01ee A8BF     		it	ge
 6470 01f0 1D46     		movge	r5, r3
 6471              	.LVL726:
1306:lvgl/src/draw/lv_draw_mask.c ****         for(i = 0; i < len; i++) {
 6472              		.loc 1 1306 9 is_stmt 1 view .LVU2224
1306:lvgl/src/draw/lv_draw_mask.c ****         for(i = 0; i < len; i++) {
 6473              		.loc 1 1306 20 is_stmt 0 view .LVU2225
 6474 01f2 9C45     		cmp	ip, r3
 6475 01f4 B8BF     		it	lt
 6476 01f6 9C46     		movlt	ip, r3
 6477              	.LVL727:
1307:lvgl/src/draw/lv_draw_mask.c ****             mask_buf[i] = mask_mix(mask_buf[i], (abs_x + i >= x1 && abs_x + i <= x2) * 0xFF);
 6478              		.loc 1 1307 9 is_stmt 1 view .LVU2226
1307:lvgl/src/draw/lv_draw_mask.c ****             mask_buf[i] = mask_mix(mask_buf[i], (abs_x + i >= x1 && abs_x + i <= x2) * 0xFF);
 6479              		.loc 1 1307 15 is_stmt 0 view .LVU2227
 6480 01f8 0023     		movs	r3, #0
1307:lvgl/src/draw/lv_draw_mask.c ****             mask_buf[i] = mask_mix(mask_buf[i], (abs_x + i >= x1 && abs_x + i <= x2) * 0xFF);
 6481              		.loc 1 1307 9 view .LVU2228
 6482 01fa 08E0     		b	.L481
 6483              	.LVL728:
 6484              	.L492:
1308:lvgl/src/draw/lv_draw_mask.c ****         }
 6485              		.loc 1 1308 66 view .LVU2229
 6486 01fc 0246     		mov	r2, r0
 6487              	.L482:
1308:lvgl/src/draw/lv_draw_mask.c ****         }
 6488              		.loc 1 1308 27 discriminator 6 view .LVU2230
 6489 01fe 5242     		rsbs	r2, r2, #0
 6490 0200 D2B2     		uxtb	r2, r2
 6491              	.LVL729:
 6492              	.LBB214:
 6493              	.LBI214:
1518:lvgl/src/draw/lv_draw_mask.c **** {
 6494              		.loc 1 1518 46 is_stmt 1 discriminator 6 view .LVU2231
 6495              	.LBB215:
1520:lvgl/src/draw/lv_draw_mask.c ****     if(mask_new <= LV_OPA_MIN) return 0;
 6496              		.loc 1 1520 5 discriminator 6 view .LVU2232
1520:lvgl/src/draw/lv_draw_mask.c ****     if(mask_new <= LV_OPA_MIN) return 0;
 6497              		.loc 1 1520 7 is_stmt 0 discriminator 6 view .LVU2233
 6498 0202 FC2A     		cmp	r2, #252
 6499 0204 00D8     		bhi	.L483
1521:lvgl/src/draw/lv_draw_mask.c **** 
 6500              		.loc 1 1521 39 view .LVU2234
 6501 0206 0021     		movs	r1, #0
 6502              	.LVL730:
 6503              	.L483:
1521:lvgl/src/draw/lv_draw_mask.c **** 
 6504              		.loc 1 1521 39 view .LVU2235
 6505              	.LBE215:
 6506              	.LBE214:
1308:lvgl/src/draw/lv_draw_mask.c ****         }
 6507              		.loc 1 1308 25 view .LVU2236
ARM GAS  /var/folders/21/t9g5rlb91ys800n5npymflf80000gn/T//cc0CxbBx.s 			page 180


 6508 0208 2170     		strb	r1, [r4]
1307:lvgl/src/draw/lv_draw_mask.c ****             mask_buf[i] = mask_mix(mask_buf[i], (abs_x + i >= x1 && abs_x + i <= x2) * 0xFF);
 6509              		.loc 1 1307 30 is_stmt 1 view .LVU2237
 6510 020a 0133     		adds	r3, r3, #1
 6511              	.LVL731:
1307:lvgl/src/draw/lv_draw_mask.c ****             mask_buf[i] = mask_mix(mask_buf[i], (abs_x + i >= x1 && abs_x + i <= x2) * 0xFF);
 6512              		.loc 1 1307 30 is_stmt 0 view .LVU2238
 6513 020c 9BB2     		uxth	r3, r3
 6514              	.LVL732:
 6515              	.L481:
1307:lvgl/src/draw/lv_draw_mask.c ****             mask_buf[i] = mask_mix(mask_buf[i], (abs_x + i >= x1 && abs_x + i <= x2) * 0xFF);
 6516              		.loc 1 1307 22 is_stmt 1 discriminator 2 view .LVU2239
 6517 020e BB42     		cmp	r3, r7
 6518 0210 0BDA     		bge	.L502
1308:lvgl/src/draw/lv_draw_mask.c ****         }
 6519              		.loc 1 1308 13 view .LVU2240
1308:lvgl/src/draw/lv_draw_mask.c ****         }
 6520              		.loc 1 1308 44 is_stmt 0 view .LVU2241
 6521 0212 F418     		adds	r4, r6, r3
1308:lvgl/src/draw/lv_draw_mask.c ****         }
 6522              		.loc 1 1308 27 view .LVU2242
 6523 0214 F15C     		ldrb	r1, [r6, r3]	@ zero_extendqisi2
1308:lvgl/src/draw/lv_draw_mask.c ****         }
 6524              		.loc 1 1308 56 view .LVU2243
 6525 0216 08EB0302 		add	r2, r8, r3
1308:lvgl/src/draw/lv_draw_mask.c ****         }
 6526              		.loc 1 1308 66 view .LVU2244
 6527 021a AA42     		cmp	r2, r5
 6528 021c EEDB     		blt	.L492
1308:lvgl/src/draw/lv_draw_mask.c ****         }
 6529              		.loc 1 1308 66 discriminator 1 view .LVU2245
 6530 021e 6245     		cmp	r2, ip
 6531 0220 01DD     		ble	.L493
1308:lvgl/src/draw/lv_draw_mask.c ****         }
 6532              		.loc 1 1308 66 view .LVU2246
 6533 0222 0246     		mov	r2, r0
 6534 0224 EBE7     		b	.L482
 6535              	.L493:
 6536 0226 0122     		movs	r2, #1
 6537 0228 E9E7     		b	.L482
 6538              	.L502:
1310:lvgl/src/draw/lv_draw_mask.c ****         return LV_DRAW_MASK_RES_CHANGED;
 6539              		.loc 1 1310 9 is_stmt 1 view .LVU2247
 6540 022a 05A8     		add	r0, sp, #20
 6541 022c FFF7FEFF 		bl	lv_draw_mask_free_param
 6542              	.LVL733:
1311:lvgl/src/draw/lv_draw_mask.c ****     }
 6543              		.loc 1 1311 9 view .LVU2248
1311:lvgl/src/draw/lv_draw_mask.c ****     }
 6544              		.loc 1 1311 16 is_stmt 0 view .LVU2249
 6545 0230 0224     		movs	r4, #2
 6546 0232 00E0     		b	.L472
 6547              	.LVL734:
 6548              	.L488:
1311:lvgl/src/draw/lv_draw_mask.c ****     }
 6549              		.loc 1 1311 16 view .LVU2250
 6550              	.LBE213:
ARM GAS  /var/folders/21/t9g5rlb91ys800n5npymflf80000gn/T//cc0CxbBx.s 			page 181


1279:lvgl/src/draw/lv_draw_mask.c ****     if(lines[0].p1.x > lines[1].p1.x || lines[0].p2.x > lines[1].p2.x) {
 6551              		.loc 1 1279 30 view .LVU2251
 6552 0234 0024     		movs	r4, #0
 6553              	.LVL735:
 6554              	.L472:
1320:lvgl/src/draw/lv_draw_mask.c **** /**
 6555              		.loc 1 1320 1 view .LVU2252
 6556 0236 2046     		mov	r0, r4
 6557 0238 17B0     		add	sp, sp, #92
 6558              	.LCFI37:
 6559              		.cfi_remember_state
 6560              		.cfi_def_cfa_offset 28
 6561              		@ sp needed
 6562 023a BDE8F083 		pop	{r4, r5, r6, r7, r8, r9, pc}
 6563              	.LVL736:
 6564              	.L495:
 6565              	.LCFI38:
 6566              		.cfi_restore_state
1316:lvgl/src/draw/lv_draw_mask.c ****     }
 6567              		.loc 1 1316 16 view .LVU2253
 6568 023e 2C46     		mov	r4, r5
 6569              	.LVL737:
1316:lvgl/src/draw/lv_draw_mask.c ****     }
 6570              		.loc 1 1316 16 view .LVU2254
 6571 0240 F9E7     		b	.L472
 6572              	.LVL738:
 6573              	.L496:
1318:lvgl/src/draw/lv_draw_mask.c ****     return res1;
 6574              		.loc 1 1318 85 view .LVU2255
 6575 0242 0224     		movs	r4, #2
 6576              	.LVL739:
1318:lvgl/src/draw/lv_draw_mask.c ****     return res1;
 6577              		.loc 1 1318 85 view .LVU2256
 6578 0244 F7E7     		b	.L472
 6579              		.cfi_endproc
 6580              	.LFE79:
 6582              		.section	.text.lv_draw_mask_line_angle_init,"ax",%progbits
 6583              		.align	1
 6584              		.global	lv_draw_mask_line_angle_init
 6585              		.syntax unified
 6586              		.thumb
 6587              		.thumb_func
 6589              	lv_draw_mask_line_angle_init:
 6590              	.LVL740:
 6591              	.LFB66:
 390:lvgl/src/draw/lv_draw_mask.c ****     /*Find an optimal degree.
 6592              		.loc 1 390 1 is_stmt 1 view -0
 6593              		.cfi_startproc
 6594              		@ args = 4, pretend = 0, frame = 0
 6595              		@ frame_needed = 0, uses_anonymous_args = 0
 390:lvgl/src/draw/lv_draw_mask.c ****     /*Find an optimal degree.
 6596              		.loc 1 390 1 is_stmt 0 view .LVU2258
 6597 0000 2DE9F041 		push	{r4, r5, r6, r7, r8, lr}
 6598              	.LCFI39:
 6599              		.cfi_def_cfa_offset 24
 6600              		.cfi_offset 4, -24
 6601              		.cfi_offset 5, -20
ARM GAS  /var/folders/21/t9g5rlb91ys800n5npymflf80000gn/T//cc0CxbBx.s 			page 182


 6602              		.cfi_offset 6, -16
 6603              		.cfi_offset 7, -12
 6604              		.cfi_offset 8, -8
 6605              		.cfi_offset 14, -4
 6606 0004 82B0     		sub	sp, sp, #8
 6607              	.LCFI40:
 6608              		.cfi_def_cfa_offset 32
 6609 0006 0746     		mov	r7, r0
 6610 0008 0D46     		mov	r5, r1
 6611 000a 1646     		mov	r6, r2
 6612 000c 1C46     		mov	r4, r3
 395:lvgl/src/draw/lv_draw_mask.c **** 
 6613              		.loc 1 395 5 is_stmt 1 view .LVU2259
 395:lvgl/src/draw/lv_draw_mask.c **** 
 6614              		.loc 1 395 7 is_stmt 0 view .LVU2260
 6615 000e B42B     		cmp	r3, #180
 6616 0010 02DD     		ble	.L504
 395:lvgl/src/draw/lv_draw_mask.c **** 
 6617              		.loc 1 395 21 is_stmt 1 discriminator 1 view .LVU2261
 395:lvgl/src/draw/lv_draw_mask.c **** 
 6618              		.loc 1 395 27 is_stmt 0 discriminator 1 view .LVU2262
 6619 0012 A3F1B404 		sub	r4, r3, #180
 6620 0016 24B2     		sxth	r4, r4
 6621              	.LVL741:
 6622              	.L504:
 397:lvgl/src/draw/lv_draw_mask.c ****     int32_t p2y;
 6623              		.loc 1 397 5 is_stmt 1 view .LVU2263
 398:lvgl/src/draw/lv_draw_mask.c **** 
 6624              		.loc 1 398 5 view .LVU2264
 400:lvgl/src/draw/lv_draw_mask.c ****     p2y = (lv_trigo_sin(angle) >> 5) + py;
 6625              		.loc 1 400 5 view .LVU2265
 400:lvgl/src/draw/lv_draw_mask.c ****     p2y = (lv_trigo_sin(angle) >> 5) + py;
 6626              		.loc 1 400 31 is_stmt 0 view .LVU2266
 6627 0018 04F15A00 		add	r0, r4, #90
 6628              	.LVL742:
 400:lvgl/src/draw/lv_draw_mask.c ****     p2y = (lv_trigo_sin(angle) >> 5) + py;
 6629              		.loc 1 400 12 view .LVU2267
 6630 001c 00B2     		sxth	r0, r0
 6631 001e FFF7FEFF 		bl	lv_trigo_sin
 6632              	.LVL743:
 400:lvgl/src/draw/lv_draw_mask.c ****     p2y = (lv_trigo_sin(angle) >> 5) + py;
 6633              		.loc 1 400 37 view .LVU2268
 6634 0022 40F34F18 		sbfx	r8, r0, #5, #16
 6635              	.LVL744:
 401:lvgl/src/draw/lv_draw_mask.c **** 
 6636              		.loc 1 401 5 is_stmt 1 view .LVU2269
 401:lvgl/src/draw/lv_draw_mask.c **** 
 6637              		.loc 1 401 12 is_stmt 0 view .LVU2270
 6638 0026 2046     		mov	r0, r4
 6639 0028 FFF7FEFF 		bl	lv_trigo_sin
 6640              	.LVL745:
 401:lvgl/src/draw/lv_draw_mask.c **** 
 6641              		.loc 1 401 32 view .LVU2271
 6642 002c 40F34F14 		sbfx	r4, r0, #5, #16
 6643              	.LVL746:
 403:lvgl/src/draw/lv_draw_mask.c **** }
 6644              		.loc 1 403 5 is_stmt 1 view .LVU2272
ARM GAS  /var/folders/21/t9g5rlb91ys800n5npymflf80000gn/T//cc0CxbBx.s 			page 183


 6645 0030 08EB0503 		add	r3, r8, r5
 6646 0034 9DF82020 		ldrb	r2, [sp, #32]	@ zero_extendqisi2
 6647 0038 0192     		str	r2, [sp, #4]
 6648 003a 3444     		add	r4, r4, r6
 6649              	.LVL747:
 403:lvgl/src/draw/lv_draw_mask.c **** }
 6650              		.loc 1 403 5 is_stmt 0 view .LVU2273
 6651 003c 24B2     		sxth	r4, r4
 6652 003e 0094     		str	r4, [sp]
 6653 0040 1BB2     		sxth	r3, r3
 6654 0042 3246     		mov	r2, r6
 6655 0044 2946     		mov	r1, r5
 6656 0046 3846     		mov	r0, r7
 6657              	.LVL748:
 403:lvgl/src/draw/lv_draw_mask.c **** }
 6658              		.loc 1 403 5 view .LVU2274
 6659 0048 FFF7FEFF 		bl	lv_draw_mask_line_points_init
 6660              	.LVL749:
 404:lvgl/src/draw/lv_draw_mask.c **** 
 6661              		.loc 1 404 1 view .LVU2275
 6662 004c 02B0     		add	sp, sp, #8
 6663              	.LCFI41:
 6664              		.cfi_def_cfa_offset 24
 6665              		@ sp needed
 6666 004e BDE8F081 		pop	{r4, r5, r6, r7, r8, pc}
 404:lvgl/src/draw/lv_draw_mask.c **** 
 6667              		.loc 1 404 1 view .LVU2276
 6668              		.cfi_endproc
 6669              	.LFE66:
 6671              		.section	.text.lv_draw_mask_angle_init,"ax",%progbits
 6672              		.align	1
 6673              		.global	lv_draw_mask_angle_init
 6674              		.syntax unified
 6675              		.thumb
 6676              		.thumb_func
 6678              	lv_draw_mask_angle_init:
 6679              	.LVL750:
 6680              	.LFB67:
 416:lvgl/src/draw/lv_draw_mask.c ****     lv_draw_mask_line_side_t start_side;
 6681              		.loc 1 416 1 is_stmt 1 view -0
 6682              		.cfi_startproc
 6683              		@ args = 4, pretend = 0, frame = 0
 6684              		@ frame_needed = 0, uses_anonymous_args = 0
 416:lvgl/src/draw/lv_draw_mask.c ****     lv_draw_mask_line_side_t start_side;
 6685              		.loc 1 416 1 is_stmt 0 view .LVU2278
 6686 0000 2DE9F041 		push	{r4, r5, r6, r7, r8, lr}
 6687              	.LCFI42:
 6688              		.cfi_def_cfa_offset 24
 6689              		.cfi_offset 4, -24
 6690              		.cfi_offset 5, -20
 6691              		.cfi_offset 6, -16
 6692              		.cfi_offset 7, -12
 6693              		.cfi_offset 8, -8
 6694              		.cfi_offset 14, -4
 6695 0004 82B0     		sub	sp, sp, #8
 6696              	.LCFI43:
 6697              		.cfi_def_cfa_offset 32
ARM GAS  /var/folders/21/t9g5rlb91ys800n5npymflf80000gn/T//cc0CxbBx.s 			page 184


 6698 0006 0446     		mov	r4, r0
 6699 0008 0E46     		mov	r6, r1
 6700 000a 1746     		mov	r7, r2
 6701 000c BDF92050 		ldrsh	r5, [sp, #32]
 417:lvgl/src/draw/lv_draw_mask.c ****     lv_draw_mask_line_side_t end_side;
 6702              		.loc 1 417 5 is_stmt 1 view .LVU2279
 418:lvgl/src/draw/lv_draw_mask.c **** 
 6703              		.loc 1 418 5 view .LVU2280
 421:lvgl/src/draw/lv_draw_mask.c ****         start_angle = 0;
 6704              		.loc 1 421 5 view .LVU2281
 421:lvgl/src/draw/lv_draw_mask.c ****         start_angle = 0;
 6705              		.loc 1 421 7 is_stmt 0 view .LVU2282
 6706 0010 002B     		cmp	r3, #0
 6707              	.LVL751:
 421:lvgl/src/draw/lv_draw_mask.c ****         start_angle = 0;
 6708              		.loc 1 421 7 view .LVU2283
 6709 0012 05DB     		blt	.L517
 423:lvgl/src/draw/lv_draw_mask.c ****         start_angle = 359;
 6710              		.loc 1 423 10 is_stmt 1 view .LVU2284
 423:lvgl/src/draw/lv_draw_mask.c ****         start_angle = 359;
 6711              		.loc 1 423 12 is_stmt 0 view .LVU2285
 6712 0014 B3F5B47F 		cmp	r3, #360
 6713 0018 03DB     		blt	.L507
 424:lvgl/src/draw/lv_draw_mask.c **** 
 6714              		.loc 1 424 21 view .LVU2286
 6715 001a 40F26713 		movw	r3, #359
 6716 001e 00E0     		b	.L507
 6717              	.L517:
 422:lvgl/src/draw/lv_draw_mask.c ****     else if(start_angle > 359)
 6718              		.loc 1 422 21 view .LVU2287
 6719 0020 0023     		movs	r3, #0
 6720              	.L507:
 6721              	.LVL752:
 426:lvgl/src/draw/lv_draw_mask.c ****         end_angle = 0;
 6722              		.loc 1 426 5 is_stmt 1 view .LVU2288
 426:lvgl/src/draw/lv_draw_mask.c ****         end_angle = 0;
 6723              		.loc 1 426 7 is_stmt 0 view .LVU2289
 6724 0022 002D     		cmp	r5, #0
 6725 0024 05DB     		blt	.L519
 428:lvgl/src/draw/lv_draw_mask.c ****         end_angle = 359;
 6726              		.loc 1 428 10 is_stmt 1 view .LVU2290
 428:lvgl/src/draw/lv_draw_mask.c ****         end_angle = 359;
 6727              		.loc 1 428 12 is_stmt 0 view .LVU2291
 6728 0026 B5F5B47F 		cmp	r5, #360
 6729 002a 03DB     		blt	.L508
 429:lvgl/src/draw/lv_draw_mask.c **** 
 6730              		.loc 1 429 19 view .LVU2292
 6731 002c 40F26715 		movw	r5, #359
 6732 0030 00E0     		b	.L508
 6733              	.L519:
 427:lvgl/src/draw/lv_draw_mask.c ****     else if(end_angle > 359)
 6734              		.loc 1 427 19 view .LVU2293
 6735 0032 0025     		movs	r5, #0
 6736              	.L508:
 6737              	.LVL753:
 431:lvgl/src/draw/lv_draw_mask.c ****         param->delta_deg = 360 - start_angle + end_angle;
 6738              		.loc 1 431 5 is_stmt 1 view .LVU2294
ARM GAS  /var/folders/21/t9g5rlb91ys800n5npymflf80000gn/T//cc0CxbBx.s 			page 185


 431:lvgl/src/draw/lv_draw_mask.c ****         param->delta_deg = 360 - start_angle + end_angle;
 6739              		.loc 1 431 7 is_stmt 0 view .LVU2295
 6740 0034 AB42     		cmp	r3, r5
 6741 0036 11DD     		ble	.L509
 432:lvgl/src/draw/lv_draw_mask.c ****     }
 6742              		.loc 1 432 9 is_stmt 1 view .LVU2296
 432:lvgl/src/draw/lv_draw_mask.c ****     }
 6743              		.loc 1 432 46 is_stmt 0 view .LVU2297
 6744 0038 EA1A     		subs	r2, r5, r3
 6745              	.LVL754:
 432:lvgl/src/draw/lv_draw_mask.c ****     }
 6746              		.loc 1 432 46 view .LVU2298
 6747 003a 02F5B472 		add	r2, r2, #360
 432:lvgl/src/draw/lv_draw_mask.c ****     }
 6748              		.loc 1 432 26 view .LVU2299
 6749 003e A4F86820 		strh	r2, [r4, #104]	@ movhi
 6750              	.L510:
 438:lvgl/src/draw/lv_draw_mask.c ****     param->cfg.end_angle = end_angle;
 6751              		.loc 1 438 5 is_stmt 1 view .LVU2300
 438:lvgl/src/draw/lv_draw_mask.c ****     param->cfg.end_angle = end_angle;
 6752              		.loc 1 438 28 is_stmt 0 view .LVU2301
 6753 0042 A381     		strh	r3, [r4, #12]	@ movhi
 439:lvgl/src/draw/lv_draw_mask.c ****     param->cfg.vertex_p.x = vertex_x;
 6754              		.loc 1 439 5 is_stmt 1 view .LVU2302
 439:lvgl/src/draw/lv_draw_mask.c ****     param->cfg.vertex_p.x = vertex_x;
 6755              		.loc 1 439 26 is_stmt 0 view .LVU2303
 6756 0044 E581     		strh	r5, [r4, #14]	@ movhi
 440:lvgl/src/draw/lv_draw_mask.c ****     param->cfg.vertex_p.y = vertex_y;
 6757              		.loc 1 440 5 is_stmt 1 view .LVU2304
 440:lvgl/src/draw/lv_draw_mask.c ****     param->cfg.vertex_p.y = vertex_y;
 6758              		.loc 1 440 27 is_stmt 0 view .LVU2305
 6759 0046 2681     		strh	r6, [r4, #8]	@ movhi
 441:lvgl/src/draw/lv_draw_mask.c ****     param->dsc.cb = (lv_draw_mask_xcb_t)lv_draw_mask_angle;
 6760              		.loc 1 441 5 is_stmt 1 view .LVU2306
 441:lvgl/src/draw/lv_draw_mask.c ****     param->dsc.cb = (lv_draw_mask_xcb_t)lv_draw_mask_angle;
 6761              		.loc 1 441 27 is_stmt 0 view .LVU2307
 6762 0048 6781     		strh	r7, [r4, #10]	@ movhi
 442:lvgl/src/draw/lv_draw_mask.c ****     param->dsc.type = LV_DRAW_MASK_TYPE_ANGLE;
 6763              		.loc 1 442 5 is_stmt 1 view .LVU2308
 442:lvgl/src/draw/lv_draw_mask.c ****     param->dsc.type = LV_DRAW_MASK_TYPE_ANGLE;
 6764              		.loc 1 442 19 is_stmt 0 view .LVU2309
 6765 004a 1E4A     		ldr	r2, .L525
 6766 004c 2260     		str	r2, [r4]
 443:lvgl/src/draw/lv_draw_mask.c **** 
 6767              		.loc 1 443 5 is_stmt 1 view .LVU2310
 443:lvgl/src/draw/lv_draw_mask.c **** 
 6768              		.loc 1 443 21 is_stmt 0 view .LVU2311
 6769 004e 0122     		movs	r2, #1
 6770 0050 2271     		strb	r2, [r4, #4]
 445:lvgl/src/draw/lv_draw_mask.c **** 
 6771              		.loc 1 445 5 is_stmt 1 view .LVU2312
 445:lvgl/src/draw/lv_draw_mask.c **** 
 6772              		.loc 1 445 5 view .LVU2313
 6773 0052 9AB2     		uxth	r2, r3
 6774 0054 B2F5B47F 		cmp	r2, #360
 6775 0058 07D9     		bls	.L511
 6776              	.L512:
ARM GAS  /var/folders/21/t9g5rlb91ys800n5npymflf80000gn/T//cc0CxbBx.s 			page 186


 445:lvgl/src/draw/lv_draw_mask.c **** 
 6777              		.loc 1 445 5 discriminator 1 view .LVU2314
 445:lvgl/src/draw/lv_draw_mask.c **** 
 6778              		.loc 1 445 5 discriminator 1 view .LVU2315
 445:lvgl/src/draw/lv_draw_mask.c **** 
 6779              		.loc 1 445 5 discriminator 1 view .LVU2316
 445:lvgl/src/draw/lv_draw_mask.c **** 
 6780              		.loc 1 445 5 discriminator 1 view .LVU2317
 445:lvgl/src/draw/lv_draw_mask.c **** 
 6781              		.loc 1 445 5 discriminator 1 view .LVU2318
 6782 005a FEE7     		b	.L512
 6783              	.LVL755:
 6784              	.L509:
 435:lvgl/src/draw/lv_draw_mask.c ****     }
 6785              		.loc 1 435 9 view .LVU2319
 435:lvgl/src/draw/lv_draw_mask.c ****     }
 6786              		.loc 1 435 28 is_stmt 0 view .LVU2320
 6787 005c EA1A     		subs	r2, r5, r3
 6788              	.LVL756:
 435:lvgl/src/draw/lv_draw_mask.c ****     }
 6789              		.loc 1 435 28 view .LVU2321
 6790 005e 002A     		cmp	r2, #0
 6791 0060 B8BF     		it	lt
 6792 0062 5242     		rsblt	r2, r2, #0
 435:lvgl/src/draw/lv_draw_mask.c ****     }
 6793              		.loc 1 435 26 view .LVU2322
 6794 0064 A4F86820 		strh	r2, [r4, #104]	@ movhi
 6795 0068 EBE7     		b	.L510
 6796              	.L511:
 445:lvgl/src/draw/lv_draw_mask.c **** 
 6797              		.loc 1 445 5 is_stmt 1 discriminator 2 view .LVU2323
 447:lvgl/src/draw/lv_draw_mask.c ****         start_side = LV_DRAW_MASK_LINE_SIDE_LEFT;
 6798              		.loc 1 447 5 discriminator 2 view .LVU2324
 447:lvgl/src/draw/lv_draw_mask.c ****         start_side = LV_DRAW_MASK_LINE_SIDE_LEFT;
 6799              		.loc 1 447 7 is_stmt 0 discriminator 2 view .LVU2325
 6800 006a B32A     		cmp	r2, #179
 6801 006c 06D8     		bhi	.L521
 448:lvgl/src/draw/lv_draw_mask.c ****     }
 6802              		.loc 1 448 20 view .LVU2326
 6803 006e 0022     		movs	r2, #0
 6804              	.L513:
 6805              	.LVL757:
 453:lvgl/src/draw/lv_draw_mask.c **** 
 6806              		.loc 1 453 5 is_stmt 1 view .LVU2327
 453:lvgl/src/draw/lv_draw_mask.c **** 
 6807              		.loc 1 453 5 view .LVU2328
 6808 0070 002D     		cmp	r5, #0
 6809 0072 02DB     		blt	.L514
 453:lvgl/src/draw/lv_draw_mask.c **** 
 6810              		.loc 1 453 5 is_stmt 0 discriminator 2 view .LVU2329
 6811 0074 B3F5B47F 		cmp	r3, #360
 6812 0078 02DD     		ble	.L515
 6813              	.L514:
 453:lvgl/src/draw/lv_draw_mask.c **** 
 6814              		.loc 1 453 5 is_stmt 1 discriminator 2 view .LVU2330
 453:lvgl/src/draw/lv_draw_mask.c **** 
 6815              		.loc 1 453 5 discriminator 2 view .LVU2331
ARM GAS  /var/folders/21/t9g5rlb91ys800n5npymflf80000gn/T//cc0CxbBx.s 			page 187


 453:lvgl/src/draw/lv_draw_mask.c **** 
 6816              		.loc 1 453 5 discriminator 2 view .LVU2332
 453:lvgl/src/draw/lv_draw_mask.c **** 
 6817              		.loc 1 453 5 discriminator 2 view .LVU2333
 453:lvgl/src/draw/lv_draw_mask.c **** 
 6818              		.loc 1 453 5 discriminator 2 view .LVU2334
 6819 007a FEE7     		b	.L514
 6820              	.LVL758:
 6821              	.L521:
 451:lvgl/src/draw/lv_draw_mask.c **** 
 6822              		.loc 1 451 20 is_stmt 0 view .LVU2335
 6823 007c 0122     		movs	r2, #1
 6824 007e F7E7     		b	.L513
 6825              	.LVL759:
 6826              	.L515:
 453:lvgl/src/draw/lv_draw_mask.c **** 
 6827              		.loc 1 453 5 is_stmt 1 discriminator 4 view .LVU2336
 455:lvgl/src/draw/lv_draw_mask.c ****         end_side = LV_DRAW_MASK_LINE_SIDE_RIGHT;
 6828              		.loc 1 455 5 discriminator 4 view .LVU2337
 455:lvgl/src/draw/lv_draw_mask.c ****         end_side = LV_DRAW_MASK_LINE_SIDE_RIGHT;
 6829              		.loc 1 455 23 is_stmt 0 discriminator 4 view .LVU2338
 6830 0080 A9B2     		uxth	r1, r5
 6831              	.LVL760:
 455:lvgl/src/draw/lv_draw_mask.c ****         end_side = LV_DRAW_MASK_LINE_SIDE_RIGHT;
 6832              		.loc 1 455 7 discriminator 4 view .LVU2339
 6833 0082 B329     		cmp	r1, #179
 6834 0084 06D9     		bls	.L522
 458:lvgl/src/draw/lv_draw_mask.c ****         end_side = LV_DRAW_MASK_LINE_SIDE_LEFT;
 6835              		.loc 1 458 10 is_stmt 1 view .LVU2340
 458:lvgl/src/draw/lv_draw_mask.c ****         end_side = LV_DRAW_MASK_LINE_SIDE_LEFT;
 6836              		.loc 1 458 30 is_stmt 0 view .LVU2341
 6837 0086 B439     		subs	r1, r1, #180
 6838 0088 89B2     		uxth	r1, r1
 458:lvgl/src/draw/lv_draw_mask.c ****         end_side = LV_DRAW_MASK_LINE_SIDE_LEFT;
 6839              		.loc 1 458 12 view .LVU2342
 6840 008a B329     		cmp	r1, #179
 6841 008c 17D8     		bhi	.L523
 459:lvgl/src/draw/lv_draw_mask.c ****     }
 6842              		.loc 1 459 18 view .LVU2343
 6843 008e 4FF00008 		mov	r8, #0
 6844 0092 01E0     		b	.L516
 6845              	.L522:
 456:lvgl/src/draw/lv_draw_mask.c ****     }
 6846              		.loc 1 456 18 view .LVU2344
 6847 0094 4FF00108 		mov	r8, #1
 6848              	.L516:
 6849              	.LVL761:
 464:lvgl/src/draw/lv_draw_mask.c ****     lv_draw_mask_line_angle_init(&param->end_line, vertex_x, vertex_y, end_angle, end_side);
 6850              		.loc 1 464 5 is_stmt 1 view .LVU2345
 6851 0098 0092     		str	r2, [sp]
 6852 009a 3A46     		mov	r2, r7
 6853              	.LVL762:
 464:lvgl/src/draw/lv_draw_mask.c ****     lv_draw_mask_line_angle_init(&param->end_line, vertex_x, vertex_y, end_angle, end_side);
 6854              		.loc 1 464 5 is_stmt 0 view .LVU2346
 6855 009c 3146     		mov	r1, r6
 6856 009e 04F11000 		add	r0, r4, #16
 6857              	.LVL763:
ARM GAS  /var/folders/21/t9g5rlb91ys800n5npymflf80000gn/T//cc0CxbBx.s 			page 188


 464:lvgl/src/draw/lv_draw_mask.c ****     lv_draw_mask_line_angle_init(&param->end_line, vertex_x, vertex_y, end_angle, end_side);
 6858              		.loc 1 464 5 view .LVU2347
 6859 00a2 FFF7FEFF 		bl	lv_draw_mask_line_angle_init
 6860              	.LVL764:
 465:lvgl/src/draw/lv_draw_mask.c **** }
 6861              		.loc 1 465 5 is_stmt 1 view .LVU2348
 6862 00a6 CDF80080 		str	r8, [sp]
 6863 00aa 2B46     		mov	r3, r5
 6864 00ac 3A46     		mov	r2, r7
 6865 00ae 3146     		mov	r1, r6
 6866 00b0 04F13C00 		add	r0, r4, #60
 6867 00b4 FFF7FEFF 		bl	lv_draw_mask_line_angle_init
 6868              	.LVL765:
 466:lvgl/src/draw/lv_draw_mask.c **** 
 6869              		.loc 1 466 1 is_stmt 0 view .LVU2349
 6870 00b8 02B0     		add	sp, sp, #8
 6871              	.LCFI44:
 6872              		.cfi_remember_state
 6873              		.cfi_def_cfa_offset 24
 6874              		@ sp needed
 6875 00ba BDE8F081 		pop	{r4, r5, r6, r7, r8, pc}
 6876              	.LVL766:
 6877              	.L523:
 6878              	.LCFI45:
 6879              		.cfi_restore_state
 462:lvgl/src/draw/lv_draw_mask.c **** 
 6880              		.loc 1 462 18 view .LVU2350
 6881 00be 4FF00108 		mov	r8, #1
 6882 00c2 E9E7     		b	.L516
 6883              	.L526:
 6884              		.align	2
 6885              	.L525:
 6886 00c4 00000000 		.word	lv_draw_mask_angle
 6887              		.cfi_endproc
 6888              	.LFE67:
 6890              		.section	.text.lv_draw_mask_radius_init,"ax",%progbits
 6891              		.align	1
 6892              		.global	lv_draw_mask_radius_init
 6893              		.syntax unified
 6894              		.thumb
 6895              		.thumb_func
 6897              	lv_draw_mask_radius_init:
 6898              	.LVL767:
 6899              	.LFB68:
 476:lvgl/src/draw/lv_draw_mask.c ****     lv_coord_t w = lv_area_get_width(rect);
 6900              		.loc 1 476 1 is_stmt 1 view -0
 6901              		.cfi_startproc
 6902              		@ args = 0, pretend = 0, frame = 0
 6903              		@ frame_needed = 0, uses_anonymous_args = 0
 476:lvgl/src/draw/lv_draw_mask.c ****     lv_coord_t w = lv_area_get_width(rect);
 6904              		.loc 1 476 1 is_stmt 0 view .LVU2352
 6905 0000 70B5     		push	{r4, r5, r6, lr}
 6906              	.LCFI46:
 6907              		.cfi_def_cfa_offset 16
 6908              		.cfi_offset 4, -16
 6909              		.cfi_offset 5, -12
 6910              		.cfi_offset 6, -8
ARM GAS  /var/folders/21/t9g5rlb91ys800n5npymflf80000gn/T//cc0CxbBx.s 			page 189


 6911              		.cfi_offset 14, -4
 6912 0002 0446     		mov	r4, r0
 6913 0004 1546     		mov	r5, r2
 477:lvgl/src/draw/lv_draw_mask.c ****     lv_coord_t h = lv_area_get_height(rect);
 6914              		.loc 1 477 5 is_stmt 1 view .LVU2353
 6915              	.LVL768:
 6916              	.LBB216:
 6917              	.LBI216:
 123:lvgl/src/draw/../misc/../font/../misc/lv_area.h **** {
 6918              		.loc 2 123 26 view .LVU2354
 6919              	.LBB217:
 125:lvgl/src/draw/../misc/../font/../misc/lv_area.h **** }
 6920              		.loc 2 125 5 view .LVU2355
 125:lvgl/src/draw/../misc/../font/../misc/lv_area.h **** }
 6921              		.loc 2 125 31 is_stmt 0 view .LVU2356
 6922 0006 8A88     		ldrh	r2, [r1, #4]
 6923              	.LVL769:
 125:lvgl/src/draw/../misc/../font/../misc/lv_area.h **** }
 6924              		.loc 2 125 44 view .LVU2357
 6925 0008 B1F90000 		ldrsh	r0, [r1]
 6926              	.LVL770:
 125:lvgl/src/draw/../misc/../font/../misc/lv_area.h **** }
 6927              		.loc 2 125 44 view .LVU2358
 6928 000c 86B2     		uxth	r6, r0
 125:lvgl/src/draw/../misc/../font/../misc/lv_area.h **** }
 6929              		.loc 2 125 36 view .LVU2359
 6930 000e 921B     		subs	r2, r2, r6
 6931 0010 92B2     		uxth	r2, r2
 125:lvgl/src/draw/../misc/../font/../misc/lv_area.h **** }
 6932              		.loc 2 125 49 view .LVU2360
 6933 0012 0132     		adds	r2, r2, #1
 125:lvgl/src/draw/../misc/../font/../misc/lv_area.h **** }
 6934              		.loc 2 125 12 view .LVU2361
 6935 0014 12B2     		sxth	r2, r2
 6936              	.LVL771:
 125:lvgl/src/draw/../misc/../font/../misc/lv_area.h **** }
 6937              		.loc 2 125 12 view .LVU2362
 6938              	.LBE217:
 6939              	.LBE216:
 478:lvgl/src/draw/lv_draw_mask.c ****     int32_t short_side = LV_MIN(w, h);
 6940              		.loc 1 478 5 is_stmt 1 view .LVU2363
 6941              	.LBB218:
 6942              	.LBI218:
 133:lvgl/src/draw/../misc/../font/../misc/lv_area.h **** {
 6943              		.loc 2 133 26 view .LVU2364
 6944              	.LBB219:
 6945              		.loc 2 135 5 view .LVU2365
 6946              		.loc 2 135 31 is_stmt 0 view .LVU2366
 6947 0016 B1F806C0 		ldrh	ip, [r1, #6]
 6948              		.loc 2 135 44 view .LVU2367
 6949 001a 4E88     		ldrh	r6, [r1, #2]
 6950              		.loc 2 135 36 view .LVU2368
 6951 001c ACEB060C 		sub	ip, ip, r6
 6952 0020 1FFA8CFC 		uxth	ip, ip
 6953              		.loc 2 135 49 view .LVU2369
 6954 0024 0CF1010C 		add	ip, ip, #1
 6955              		.loc 2 135 12 view .LVU2370
ARM GAS  /var/folders/21/t9g5rlb91ys800n5npymflf80000gn/T//cc0CxbBx.s 			page 190


 6956 0028 0FFA8CFC 		sxth	ip, ip
 6957              	.LVL772:
 6958              		.loc 2 135 12 view .LVU2371
 6959              	.LBE219:
 6960              	.LBE218:
 479:lvgl/src/draw/lv_draw_mask.c ****     if(radius > short_side >> 1) radius = short_side >> 1;
 6961              		.loc 1 479 5 is_stmt 1 view .LVU2372
 479:lvgl/src/draw/lv_draw_mask.c ****     if(radius > short_side >> 1) radius = short_side >> 1;
 6962              		.loc 1 479 26 is_stmt 0 view .LVU2373
 6963 002c 9445     		cmp	ip, r2
 6964 002e A8BF     		it	ge
 6965 0030 9446     		movge	ip, r2
 6966              	.LVL773:
 480:lvgl/src/draw/lv_draw_mask.c ****     if(radius < 0) radius = 0;
 6967              		.loc 1 480 5 is_stmt 1 view .LVU2374
 480:lvgl/src/draw/lv_draw_mask.c ****     if(radius < 0) radius = 0;
 6968              		.loc 1 480 7 is_stmt 0 view .LVU2375
 6969 0032 B5EB6C0F 		cmp	r5, ip, asr #1
 6970 0036 02DD     		ble	.L528
 6971 0038 4FEA6C02 		asr	r2, ip, #1
 6972              	.LVL774:
 480:lvgl/src/draw/lv_draw_mask.c ****     if(radius < 0) radius = 0;
 6973              		.loc 1 480 34 is_stmt 1 discriminator 1 view .LVU2376
 480:lvgl/src/draw/lv_draw_mask.c ****     if(radius < 0) radius = 0;
 6974              		.loc 1 480 41 is_stmt 0 discriminator 1 view .LVU2377
 6975 003c 15B2     		sxth	r5, r2
 6976              	.LVL775:
 6977              	.L528:
 481:lvgl/src/draw/lv_draw_mask.c **** 
 6978              		.loc 1 481 5 is_stmt 1 view .LVU2378
 481:lvgl/src/draw/lv_draw_mask.c **** 
 6979              		.loc 1 481 7 is_stmt 0 view .LVU2379
 6980 003e 002D     		cmp	r5, #0
 6981 0040 21DB     		blt	.L549
 6982              	.LVL776:
 6983              	.L529:
 483:lvgl/src/draw/lv_draw_mask.c ****     param->cfg.radius = radius;
 6984              		.loc 1 483 5 is_stmt 1 view .LVU2380
 6985              	.LBB220:
 6986              	.LBI220:
 110:lvgl/src/draw/../misc/../font/../misc/lv_area.h **** {
 6987              		.loc 2 110 20 view .LVU2381
 6988              	.LBB221:
 112:lvgl/src/draw/../misc/../font/../misc/lv_area.h ****     dest->y1 = src->y1;
 6989              		.loc 2 112 5 view .LVU2382
 112:lvgl/src/draw/../misc/../font/../misc/lv_area.h ****     dest->y1 = src->y1;
 6990              		.loc 2 112 14 is_stmt 0 view .LVU2383
 6991 0042 2081     		strh	r0, [r4, #8]	@ movhi
 6992              	.LVL777:
 113:lvgl/src/draw/../misc/../font/../misc/lv_area.h ****     dest->x2 = src->x2;
 6993              		.loc 2 113 5 is_stmt 1 view .LVU2384
 113:lvgl/src/draw/../misc/../font/../misc/lv_area.h ****     dest->x2 = src->x2;
 6994              		.loc 2 113 19 is_stmt 0 view .LVU2385
 6995 0044 B1F90220 		ldrsh	r2, [r1, #2]
 113:lvgl/src/draw/../misc/../font/../misc/lv_area.h ****     dest->x2 = src->x2;
 6996              		.loc 2 113 14 view .LVU2386
 6997 0048 6281     		strh	r2, [r4, #10]	@ movhi
ARM GAS  /var/folders/21/t9g5rlb91ys800n5npymflf80000gn/T//cc0CxbBx.s 			page 191


 114:lvgl/src/draw/../misc/../font/../misc/lv_area.h ****     dest->y2 = src->y2;
 6998              		.loc 2 114 5 is_stmt 1 view .LVU2387
 114:lvgl/src/draw/../misc/../font/../misc/lv_area.h ****     dest->y2 = src->y2;
 6999              		.loc 2 114 19 is_stmt 0 view .LVU2388
 7000 004a B1F90420 		ldrsh	r2, [r1, #4]
 114:lvgl/src/draw/../misc/../font/../misc/lv_area.h ****     dest->y2 = src->y2;
 7001              		.loc 2 114 14 view .LVU2389
 7002 004e A281     		strh	r2, [r4, #12]	@ movhi
 115:lvgl/src/draw/../misc/../font/../misc/lv_area.h **** }
 7003              		.loc 2 115 5 is_stmt 1 view .LVU2390
 115:lvgl/src/draw/../misc/../font/../misc/lv_area.h **** }
 7004              		.loc 2 115 19 is_stmt 0 view .LVU2391
 7005 0050 B1F90620 		ldrsh	r2, [r1, #6]
 115:lvgl/src/draw/../misc/../font/../misc/lv_area.h **** }
 7006              		.loc 2 115 14 view .LVU2392
 7007 0054 E281     		strh	r2, [r4, #14]	@ movhi
 7008              	.LVL778:
 115:lvgl/src/draw/../misc/../font/../misc/lv_area.h **** }
 7009              		.loc 2 115 14 view .LVU2393
 7010              	.LBE221:
 7011              	.LBE220:
 484:lvgl/src/draw/lv_draw_mask.c ****     param->cfg.outer = inv ? 1 : 0;
 7012              		.loc 1 484 5 is_stmt 1 view .LVU2394
 484:lvgl/src/draw/lv_draw_mask.c ****     param->cfg.outer = inv ? 1 : 0;
 7013              		.loc 1 484 23 is_stmt 0 view .LVU2395
 7014 0056 2582     		strh	r5, [r4, #16]	@ movhi
 485:lvgl/src/draw/lv_draw_mask.c ****     param->dsc.cb = (lv_draw_mask_xcb_t)lv_draw_mask_radius;
 7015              		.loc 1 485 5 is_stmt 1 view .LVU2396
 485:lvgl/src/draw/lv_draw_mask.c ****     param->dsc.cb = (lv_draw_mask_xcb_t)lv_draw_mask_radius;
 7016              		.loc 1 485 22 is_stmt 0 view .LVU2397
 7017 0058 A27C     		ldrb	r2, [r4, #18]	@ zero_extendqisi2
 7018 005a 63F30002 		bfi	r2, r3, #0, #1
 7019 005e A274     		strb	r2, [r4, #18]
 486:lvgl/src/draw/lv_draw_mask.c ****     param->dsc.type = LV_DRAW_MASK_TYPE_RADIUS;
 7020              		.loc 1 486 5 is_stmt 1 view .LVU2398
 486:lvgl/src/draw/lv_draw_mask.c ****     param->dsc.type = LV_DRAW_MASK_TYPE_RADIUS;
 7021              		.loc 1 486 19 is_stmt 0 view .LVU2399
 7022 0060 3B4B     		ldr	r3, .L556
 7023              	.LVL779:
 486:lvgl/src/draw/lv_draw_mask.c ****     param->dsc.type = LV_DRAW_MASK_TYPE_RADIUS;
 7024              		.loc 1 486 19 view .LVU2400
 7025 0062 2360     		str	r3, [r4]
 487:lvgl/src/draw/lv_draw_mask.c **** 
 7026              		.loc 1 487 5 is_stmt 1 view .LVU2401
 487:lvgl/src/draw/lv_draw_mask.c **** 
 7027              		.loc 1 487 21 is_stmt 0 view .LVU2402
 7028 0064 0223     		movs	r3, #2
 7029 0066 2371     		strb	r3, [r4, #4]
 489:lvgl/src/draw/lv_draw_mask.c ****         param->circle = NULL;
 7030              		.loc 1 489 5 is_stmt 1 view .LVU2403
 489:lvgl/src/draw/lv_draw_mask.c ****         param->circle = NULL;
 7031              		.loc 1 489 7 is_stmt 0 view .LVU2404
 7032 0068 7DB1     		cbz	r5, .L550
 497:lvgl/src/draw/lv_draw_mask.c ****         if(LV_GC_ROOT(_lv_circle_cache[i]).radius == radius) {
 7033              		.loc 1 497 11 view .LVU2405
 7034 006a 0023     		movs	r3, #0
 7035              	.LVL780:
ARM GAS  /var/folders/21/t9g5rlb91ys800n5npymflf80000gn/T//cc0CxbBx.s 			page 192


 7036              	.L530:
 497:lvgl/src/draw/lv_draw_mask.c ****         if(LV_GC_ROOT(_lv_circle_cache[i]).radius == radius) {
 7037              		.loc 1 497 18 is_stmt 1 discriminator 1 view .LVU2406
 7038 006c 032B     		cmp	r3, #3
 7039 006e 29D8     		bhi	.L551
 498:lvgl/src/draw/lv_draw_mask.c ****             LV_GC_ROOT(_lv_circle_cache[i]).used_cnt++;
 7040              		.loc 1 498 9 view .LVU2407
 498:lvgl/src/draw/lv_draw_mask.c ****             LV_GC_ROOT(_lv_circle_cache[i]).used_cnt++;
 7041              		.loc 1 498 43 is_stmt 0 view .LVU2408
 7042 0070 C3EBC301 		rsb	r1, r3, r3, lsl #3
 7043 0074 374A     		ldr	r2, .L556+4
 7044 0076 02EB8102 		add	r2, r2, r1, lsl #2
 7045 007a B2F91820 		ldrsh	r2, [r2, #24]
 498:lvgl/src/draw/lv_draw_mask.c ****             LV_GC_ROOT(_lv_circle_cache[i]).used_cnt++;
 7046              		.loc 1 498 11 view .LVU2409
 7047 007e AA42     		cmp	r2, r5
 7048 0080 06D0     		beq	.L552
 497:lvgl/src/draw/lv_draw_mask.c ****         if(LV_GC_ROOT(_lv_circle_cache[i]).radius == radius) {
 7049              		.loc 1 497 43 is_stmt 1 discriminator 2 view .LVU2410
 7050 0082 0133     		adds	r3, r3, #1
 7051              	.LVL781:
 497:lvgl/src/draw/lv_draw_mask.c ****         if(LV_GC_ROOT(_lv_circle_cache[i]).radius == radius) {
 7052              		.loc 1 497 43 is_stmt 0 discriminator 2 view .LVU2411
 7053 0084 F2E7     		b	.L530
 7054              	.LVL782:
 7055              	.L549:
 481:lvgl/src/draw/lv_draw_mask.c **** 
 7056              		.loc 1 481 27 view .LVU2412
 7057 0086 0025     		movs	r5, #0
 7058              	.LVL783:
 481:lvgl/src/draw/lv_draw_mask.c **** 
 7059              		.loc 1 481 27 view .LVU2413
 7060 0088 DBE7     		b	.L529
 7061              	.LVL784:
 7062              	.L550:
 490:lvgl/src/draw/lv_draw_mask.c ****         return;
 7063              		.loc 1 490 9 is_stmt 1 view .LVU2414
 490:lvgl/src/draw/lv_draw_mask.c ****         return;
 7064              		.loc 1 490 23 is_stmt 0 view .LVU2415
 7065 008a 0023     		movs	r3, #0
 7066 008c 6361     		str	r3, [r4, #20]
 491:lvgl/src/draw/lv_draw_mask.c ****     }
 7067              		.loc 1 491 9 is_stmt 1 view .LVU2416
 7068 008e 4FE0     		b	.L527
 7069              	.LVL785:
 7070              	.L552:
 499:lvgl/src/draw/lv_draw_mask.c ****             CIRCLE_CACHE_AGING(LV_GC_ROOT(_lv_circle_cache[i]).life, radius);
 7071              		.loc 1 499 13 view .LVU2417
 499:lvgl/src/draw/lv_draw_mask.c ****             CIRCLE_CACHE_AGING(LV_GC_ROOT(_lv_circle_cache[i]).life, radius);
 7072              		.loc 1 499 44 is_stmt 0 view .LVU2418
 7073 0090 304A     		ldr	r2, .L556+4
 7074 0092 02EB8102 		add	r2, r2, r1, lsl #2
 7075 0096 5169     		ldr	r1, [r2, #20]
 499:lvgl/src/draw/lv_draw_mask.c ****             CIRCLE_CACHE_AGING(LV_GC_ROOT(_lv_circle_cache[i]).life, radius);
 7076              		.loc 1 499 53 view .LVU2419
 7077 0098 0131     		adds	r1, r1, #1
 7078 009a 5161     		str	r1, [r2, #20]
ARM GAS  /var/folders/21/t9g5rlb91ys800n5npymflf80000gn/T//cc0CxbBx.s 			page 193


 500:lvgl/src/draw/lv_draw_mask.c ****             param->circle = &LV_GC_ROOT(_lv_circle_cache[i]);
 7079              		.loc 1 500 13 is_stmt 1 view .LVU2420
 7080 009c 1269     		ldr	r2, [r2, #16]
 7081 009e 0F2D     		cmp	r5, #15
 7082 00a0 0EDD     		ble	.L546
 500:lvgl/src/draw/lv_draw_mask.c ****             param->circle = &LV_GC_ROOT(_lv_circle_cache[i]);
 7083              		.loc 1 500 13 is_stmt 0 discriminator 1 view .LVU2421
 7084 00a2 2D11     		asrs	r5, r5, #4
 7085              	.LVL786:
 7086              	.L533:
 500:lvgl/src/draw/lv_draw_mask.c ****             param->circle = &LV_GC_ROOT(_lv_circle_cache[i]);
 7087              		.loc 1 500 13 discriminator 4 view .LVU2422
 7088 00a4 2A44     		add	r2, r2, r5
 7089 00a6 B2F57A7F 		cmp	r2, #1000
 7090 00aa A8BF     		it	ge
 7091 00ac 4FF47A72 		movge	r2, #1000
 7092 00b0 2849     		ldr	r1, .L556+4
 7093 00b2 C3EBC300 		rsb	r0, r3, r3, lsl #3
 7094 00b6 01EB8000 		add	r0, r1, r0, lsl #2
 7095 00ba 0261     		str	r2, [r0, #16]
 501:lvgl/src/draw/lv_draw_mask.c ****             return;
 7096              		.loc 1 501 13 is_stmt 1 discriminator 4 view .LVU2423
 501:lvgl/src/draw/lv_draw_mask.c ****             return;
 7097              		.loc 1 501 27 is_stmt 0 discriminator 4 view .LVU2424
 7098 00bc 6061     		str	r0, [r4, #20]
 502:lvgl/src/draw/lv_draw_mask.c ****         }
 7099              		.loc 1 502 13 is_stmt 1 discriminator 4 view .LVU2425
 7100 00be 37E0     		b	.L527
 7101              	.LVL787:
 7102              	.L546:
 500:lvgl/src/draw/lv_draw_mask.c ****             param->circle = &LV_GC_ROOT(_lv_circle_cache[i]);
 7103              		.loc 1 500 13 is_stmt 0 view .LVU2426
 7104 00c0 0125     		movs	r5, #1
 7105              	.LVL788:
 500:lvgl/src/draw/lv_draw_mask.c ****             param->circle = &LV_GC_ROOT(_lv_circle_cache[i]);
 7106              		.loc 1 500 13 view .LVU2427
 7107 00c2 EFE7     		b	.L533
 7108              	.LVL789:
 7109              	.L551:
 507:lvgl/src/draw/lv_draw_mask.c ****     for(i = 0; i < LV_CIRCLE_CACHE_SIZE; i++) {
 7110              		.loc 1 507 41 view .LVU2428
 7111 00c4 0026     		movs	r6, #0
 508:lvgl/src/draw/lv_draw_mask.c ****         if(LV_GC_ROOT(_lv_circle_cache[i]).used_cnt == 0) {
 7112              		.loc 1 508 11 view .LVU2429
 7113 00c6 3346     		mov	r3, r6
 7114              	.LVL790:
 508:lvgl/src/draw/lv_draw_mask.c ****         if(LV_GC_ROOT(_lv_circle_cache[i]).used_cnt == 0) {
 7115              		.loc 1 508 11 view .LVU2430
 7116 00c8 03E0     		b	.L535
 7117              	.LVL791:
 7118              	.L554:
 510:lvgl/src/draw/lv_draw_mask.c ****             else if(LV_GC_ROOT(_lv_circle_cache[i]).life < entry->life) entry = &LV_GC_ROOT(_lv_cir
 7119              		.loc 1 510 24 is_stmt 1 discriminator 1 view .LVU2431
 510:lvgl/src/draw/lv_draw_mask.c ****             else if(LV_GC_ROOT(_lv_circle_cache[i]).life < entry->life) entry = &LV_GC_ROOT(_lv_cir
 7120              		.loc 1 510 30 is_stmt 0 discriminator 1 view .LVU2432
 7121 00ca 224E     		ldr	r6, .L556+4
 7122              	.LVL792:
ARM GAS  /var/folders/21/t9g5rlb91ys800n5npymflf80000gn/T//cc0CxbBx.s 			page 194


 510:lvgl/src/draw/lv_draw_mask.c ****             else if(LV_GC_ROOT(_lv_circle_cache[i]).life < entry->life) entry = &LV_GC_ROOT(_lv_cir
 7123              		.loc 1 510 30 discriminator 1 view .LVU2433
 7124 00cc 06EB8106 		add	r6, r6, r1, lsl #2
 7125              	.LVL793:
 7126              	.L536:
 508:lvgl/src/draw/lv_draw_mask.c ****         if(LV_GC_ROOT(_lv_circle_cache[i]).used_cnt == 0) {
 7127              		.loc 1 508 43 is_stmt 1 discriminator 2 view .LVU2434
 7128 00d0 0133     		adds	r3, r3, #1
 7129              	.LVL794:
 7130              	.L535:
 508:lvgl/src/draw/lv_draw_mask.c ****         if(LV_GC_ROOT(_lv_circle_cache[i]).used_cnt == 0) {
 7131              		.loc 1 508 18 discriminator 1 view .LVU2435
 7132 00d2 032B     		cmp	r3, #3
 7133 00d4 18D8     		bhi	.L553
 509:lvgl/src/draw/lv_draw_mask.c ****             if(!entry) entry = &LV_GC_ROOT(_lv_circle_cache[i]);
 7134              		.loc 1 509 9 view .LVU2436
 509:lvgl/src/draw/lv_draw_mask.c ****             if(!entry) entry = &LV_GC_ROOT(_lv_circle_cache[i]);
 7135              		.loc 1 509 43 is_stmt 0 view .LVU2437
 7136 00d6 C3EBC301 		rsb	r1, r3, r3, lsl #3
 7137 00da 1E4A     		ldr	r2, .L556+4
 7138 00dc 02EB8102 		add	r2, r2, r1, lsl #2
 7139 00e0 5269     		ldr	r2, [r2, #20]
 509:lvgl/src/draw/lv_draw_mask.c ****             if(!entry) entry = &LV_GC_ROOT(_lv_circle_cache[i]);
 7140              		.loc 1 509 11 view .LVU2438
 7141 00e2 002A     		cmp	r2, #0
 7142 00e4 F4D1     		bne	.L536
 510:lvgl/src/draw/lv_draw_mask.c ****             else if(LV_GC_ROOT(_lv_circle_cache[i]).life < entry->life) entry = &LV_GC_ROOT(_lv_cir
 7143              		.loc 1 510 13 is_stmt 1 view .LVU2439
 510:lvgl/src/draw/lv_draw_mask.c ****             else if(LV_GC_ROOT(_lv_circle_cache[i]).life < entry->life) entry = &LV_GC_ROOT(_lv_cir
 7144              		.loc 1 510 15 is_stmt 0 view .LVU2440
 7145 00e6 002E     		cmp	r6, #0
 7146 00e8 EFD0     		beq	.L554
 511:lvgl/src/draw/lv_draw_mask.c ****         }
 7147              		.loc 1 511 18 is_stmt 1 view .LVU2441
 511:lvgl/src/draw/lv_draw_mask.c ****         }
 7148              		.loc 1 511 52 is_stmt 0 view .LVU2442
 7149 00ea C3EBC301 		rsb	r1, r3, r3, lsl #3
 7150 00ee 194A     		ldr	r2, .L556+4
 7151 00f0 02EB8102 		add	r2, r2, r1, lsl #2
 7152 00f4 1169     		ldr	r1, [r2, #16]
 511:lvgl/src/draw/lv_draw_mask.c ****         }
 7153              		.loc 1 511 65 view .LVU2443
 7154 00f6 3269     		ldr	r2, [r6, #16]
 511:lvgl/src/draw/lv_draw_mask.c ****         }
 7155              		.loc 1 511 20 view .LVU2444
 7156 00f8 9142     		cmp	r1, r2
 7157 00fa E9DA     		bge	.L536
 511:lvgl/src/draw/lv_draw_mask.c ****         }
 7158              		.loc 1 511 73 is_stmt 1 discriminator 1 view .LVU2445
 511:lvgl/src/draw/lv_draw_mask.c ****         }
 7159              		.loc 1 511 79 is_stmt 0 discriminator 1 view .LVU2446
 7160 00fc C3EBC302 		rsb	r2, r3, r3, lsl #3
 7161 0100 144E     		ldr	r6, .L556+4
 7162              	.LVL795:
 511:lvgl/src/draw/lv_draw_mask.c ****         }
 7163              		.loc 1 511 79 discriminator 1 view .LVU2447
 7164 0102 06EB8206 		add	r6, r6, r2, lsl #2
ARM GAS  /var/folders/21/t9g5rlb91ys800n5npymflf80000gn/T//cc0CxbBx.s 			page 195


 7165              	.LVL796:
 511:lvgl/src/draw/lv_draw_mask.c ****         }
 7166              		.loc 1 511 79 discriminator 1 view .LVU2448
 7167 0106 E3E7     		b	.L536
 7168              	.L553:
 515:lvgl/src/draw/lv_draw_mask.c ****         entry = lv_mem_alloc(sizeof(_lv_draw_mask_radius_circle_dsc_t));
 7169              		.loc 1 515 5 is_stmt 1 view .LVU2449
 515:lvgl/src/draw/lv_draw_mask.c ****         entry = lv_mem_alloc(sizeof(_lv_draw_mask_radius_circle_dsc_t));
 7170              		.loc 1 515 7 is_stmt 0 view .LVU2450
 7171 0108 9EB1     		cbz	r6, .L555
 522:lvgl/src/draw/lv_draw_mask.c ****         entry->life = 0;
 7172              		.loc 1 522 9 is_stmt 1 view .LVU2451
 522:lvgl/src/draw/lv_draw_mask.c ****         entry->life = 0;
 7173              		.loc 1 522 14 is_stmt 0 view .LVU2452
 7174 010a 7369     		ldr	r3, [r6, #20]
 7175              	.LVL797:
 522:lvgl/src/draw/lv_draw_mask.c ****         entry->life = 0;
 7176              		.loc 1 522 24 view .LVU2453
 7177 010c 0133     		adds	r3, r3, #1
 7178 010e 7361     		str	r3, [r6, #20]
 523:lvgl/src/draw/lv_draw_mask.c ****         CIRCLE_CACHE_AGING(entry->life, radius);
 7179              		.loc 1 523 9 is_stmt 1 view .LVU2454
 523:lvgl/src/draw/lv_draw_mask.c ****         CIRCLE_CACHE_AGING(entry->life, radius);
 7180              		.loc 1 523 21 is_stmt 0 view .LVU2455
 7181 0110 0023     		movs	r3, #0
 7182 0112 3361     		str	r3, [r6, #16]
 524:lvgl/src/draw/lv_draw_mask.c ****     }
 7183              		.loc 1 524 9 is_stmt 1 view .LVU2456
 7184 0114 0F2D     		cmp	r5, #15
 7185 0116 19DD     		ble	.L547
 524:lvgl/src/draw/lv_draw_mask.c ****     }
 7186              		.loc 1 524 9 is_stmt 0 discriminator 1 view .LVU2457
 7187 0118 2B11     		asrs	r3, r5, #4
 7188              	.L543:
 524:lvgl/src/draw/lv_draw_mask.c ****     }
 7189              		.loc 1 524 9 discriminator 4 view .LVU2458
 7190 011a B3F57A7F 		cmp	r3, #1000
 7191 011e A8BF     		it	ge
 7192 0120 4FF47A73 		movge	r3, #1000
 7193 0124 3361     		str	r3, [r6, #16]
 7194              	.LVL798:
 7195              	.L542:
 527:lvgl/src/draw/lv_draw_mask.c **** 
 7196              		.loc 1 527 5 is_stmt 1 view .LVU2459
 527:lvgl/src/draw/lv_draw_mask.c **** 
 7197              		.loc 1 527 19 is_stmt 0 view .LVU2460
 7198 0126 6661     		str	r6, [r4, #20]
 529:lvgl/src/draw/lv_draw_mask.c **** }
 7199              		.loc 1 529 5 is_stmt 1 view .LVU2461
 7200 0128 2946     		mov	r1, r5
 7201 012a 3046     		mov	r0, r6
 7202 012c FFF7FEFF 		bl	circ_calc_aa4
 7203              	.LVL799:
 7204              	.L527:
 530:lvgl/src/draw/lv_draw_mask.c **** 
 7205              		.loc 1 530 1 is_stmt 0 view .LVU2462
 7206 0130 70BD     		pop	{r4, r5, r6, pc}
ARM GAS  /var/folders/21/t9g5rlb91ys800n5npymflf80000gn/T//cc0CxbBx.s 			page 196


 7207              	.LVL800:
 7208              	.L555:
 516:lvgl/src/draw/lv_draw_mask.c ****         LV_ASSERT_MALLOC(entry);
 7209              		.loc 1 516 9 is_stmt 1 view .LVU2463
 516:lvgl/src/draw/lv_draw_mask.c ****         LV_ASSERT_MALLOC(entry);
 7210              		.loc 1 516 17 is_stmt 0 view .LVU2464
 7211 0132 1C20     		movs	r0, #28
 7212 0134 FFF7FEFF 		bl	lv_mem_alloc
 7213              	.LVL801:
 517:lvgl/src/draw/lv_draw_mask.c ****         lv_memset_00(entry, sizeof(_lv_draw_mask_radius_circle_dsc_t));
 7214              		.loc 1 517 9 is_stmt 1 view .LVU2465
 517:lvgl/src/draw/lv_draw_mask.c ****         lv_memset_00(entry, sizeof(_lv_draw_mask_radius_circle_dsc_t));
 7215              		.loc 1 517 9 view .LVU2466
 7216 0138 0646     		mov	r6, r0
 7217 013a 30B1     		cbz	r0, .L541
 517:lvgl/src/draw/lv_draw_mask.c ****         lv_memset_00(entry, sizeof(_lv_draw_mask_radius_circle_dsc_t));
 7218              		.loc 1 517 9 discriminator 2 view .LVU2467
 517:lvgl/src/draw/lv_draw_mask.c ****         lv_memset_00(entry, sizeof(_lv_draw_mask_radius_circle_dsc_t));
 7219              		.loc 1 517 32 discriminator 2 view .LVU2468
 518:lvgl/src/draw/lv_draw_mask.c ****         entry->life = -1;
 7220              		.loc 1 518 9 discriminator 2 view .LVU2469
 7221 013c 1C21     		movs	r1, #28
 7222 013e FFF7FEFF 		bl	lv_memset_00
 7223              	.LVL802:
 519:lvgl/src/draw/lv_draw_mask.c ****     }
 7224              		.loc 1 519 9 discriminator 2 view .LVU2470
 519:lvgl/src/draw/lv_draw_mask.c ****     }
 7225              		.loc 1 519 21 is_stmt 0 discriminator 2 view .LVU2471
 7226 0142 4FF0FF33 		mov	r3, #-1
 7227 0146 3361     		str	r3, [r6, #16]
 7228 0148 EDE7     		b	.L542
 7229              	.LVL803:
 7230              	.L541:
 517:lvgl/src/draw/lv_draw_mask.c ****         lv_memset_00(entry, sizeof(_lv_draw_mask_radius_circle_dsc_t));
 7231              		.loc 1 517 9 is_stmt 1 discriminator 1 view .LVU2472
 517:lvgl/src/draw/lv_draw_mask.c ****         lv_memset_00(entry, sizeof(_lv_draw_mask_radius_circle_dsc_t));
 7232              		.loc 1 517 9 discriminator 1 view .LVU2473
 517:lvgl/src/draw/lv_draw_mask.c ****         lv_memset_00(entry, sizeof(_lv_draw_mask_radius_circle_dsc_t));
 7233              		.loc 1 517 9 discriminator 1 view .LVU2474
 517:lvgl/src/draw/lv_draw_mask.c ****         lv_memset_00(entry, sizeof(_lv_draw_mask_radius_circle_dsc_t));
 7234              		.loc 1 517 9 discriminator 1 view .LVU2475
 517:lvgl/src/draw/lv_draw_mask.c ****         lv_memset_00(entry, sizeof(_lv_draw_mask_radius_circle_dsc_t));
 7235              		.loc 1 517 9 discriminator 1 view .LVU2476
 7236 014a FEE7     		b	.L541
 7237              	.LVL804:
 7238              	.L547:
 524:lvgl/src/draw/lv_draw_mask.c ****     }
 7239              		.loc 1 524 9 is_stmt 0 view .LVU2477
 7240 014c 0123     		movs	r3, #1
 7241 014e E4E7     		b	.L543
 7242              	.L557:
 7243              		.align	2
 7244              	.L556:
 7245 0150 00000000 		.word	lv_draw_mask_radius
 7246 0154 00000000 		.word	_lv_circle_cache
 7247              		.cfi_endproc
 7248              	.LFE68:
ARM GAS  /var/folders/21/t9g5rlb91ys800n5npymflf80000gn/T//cc0CxbBx.s 			page 197


 7250              		.section	.text.lv_draw_mask_fade_init,"ax",%progbits
 7251              		.align	1
 7252              		.global	lv_draw_mask_fade_init
 7253              		.syntax unified
 7254              		.thumb
 7255              		.thumb_func
 7257              	lv_draw_mask_fade_init:
 7258              	.LVL805:
 7259              	.LFB69:
 544:lvgl/src/draw/lv_draw_mask.c ****     lv_area_copy(&param->cfg.coords, coords);
 7260              		.loc 1 544 1 is_stmt 1 view -0
 7261              		.cfi_startproc
 7262              		@ args = 8, pretend = 0, frame = 0
 7263              		@ frame_needed = 0, uses_anonymous_args = 0
 7264              		@ link register save eliminated.
 545:lvgl/src/draw/lv_draw_mask.c ****     param->cfg.opa_top = opa_top;
 7265              		.loc 1 545 5 view .LVU2479
 7266              	.LBB222:
 7267              	.LBI222:
 110:lvgl/src/draw/../misc/../font/../misc/lv_area.h **** {
 7268              		.loc 2 110 20 view .LVU2480
 7269              	.LBB223:
 112:lvgl/src/draw/../misc/../font/../misc/lv_area.h ****     dest->y1 = src->y1;
 7270              		.loc 2 112 5 view .LVU2481
 112:lvgl/src/draw/../misc/../font/../misc/lv_area.h ****     dest->y1 = src->y1;
 7271              		.loc 2 112 19 is_stmt 0 view .LVU2482
 7272 0000 B1F900C0 		ldrsh	ip, [r1]
 112:lvgl/src/draw/../misc/../font/../misc/lv_area.h ****     dest->y1 = src->y1;
 7273              		.loc 2 112 14 view .LVU2483
 7274 0004 A0F808C0 		strh	ip, [r0, #8]	@ movhi
 113:lvgl/src/draw/../misc/../font/../misc/lv_area.h ****     dest->x2 = src->x2;
 7275              		.loc 2 113 5 is_stmt 1 view .LVU2484
 113:lvgl/src/draw/../misc/../font/../misc/lv_area.h ****     dest->x2 = src->x2;
 7276              		.loc 2 113 19 is_stmt 0 view .LVU2485
 7277 0008 B1F902C0 		ldrsh	ip, [r1, #2]
 113:lvgl/src/draw/../misc/../font/../misc/lv_area.h ****     dest->x2 = src->x2;
 7278              		.loc 2 113 14 view .LVU2486
 7279 000c A0F80AC0 		strh	ip, [r0, #10]	@ movhi
 114:lvgl/src/draw/../misc/../font/../misc/lv_area.h ****     dest->y2 = src->y2;
 7280              		.loc 2 114 5 is_stmt 1 view .LVU2487
 114:lvgl/src/draw/../misc/../font/../misc/lv_area.h ****     dest->y2 = src->y2;
 7281              		.loc 2 114 19 is_stmt 0 view .LVU2488
 7282 0010 B1F904C0 		ldrsh	ip, [r1, #4]
 114:lvgl/src/draw/../misc/../font/../misc/lv_area.h ****     dest->y2 = src->y2;
 7283              		.loc 2 114 14 view .LVU2489
 7284 0014 A0F80CC0 		strh	ip, [r0, #12]	@ movhi
 115:lvgl/src/draw/../misc/../font/../misc/lv_area.h **** }
 7285              		.loc 2 115 5 is_stmt 1 view .LVU2490
 115:lvgl/src/draw/../misc/../font/../misc/lv_area.h **** }
 7286              		.loc 2 115 19 is_stmt 0 view .LVU2491
 7287 0018 B1F90610 		ldrsh	r1, [r1, #6]
 7288              	.LVL806:
 115:lvgl/src/draw/../misc/../font/../misc/lv_area.h **** }
 7289              		.loc 2 115 14 view .LVU2492
 7290 001c C181     		strh	r1, [r0, #14]	@ movhi
 7291              	.LVL807:
 115:lvgl/src/draw/../misc/../font/../misc/lv_area.h **** }
ARM GAS  /var/folders/21/t9g5rlb91ys800n5npymflf80000gn/T//cc0CxbBx.s 			page 198


 7292              		.loc 2 115 14 view .LVU2493
 7293              	.LBE223:
 7294              	.LBE222:
 546:lvgl/src/draw/lv_draw_mask.c ****     param->cfg.opa_bottom = opa_bottom;
 7295              		.loc 1 546 5 is_stmt 1 view .LVU2494
 546:lvgl/src/draw/lv_draw_mask.c ****     param->cfg.opa_bottom = opa_bottom;
 7296              		.loc 1 546 24 is_stmt 0 view .LVU2495
 7297 001e 0275     		strb	r2, [r0, #20]
 547:lvgl/src/draw/lv_draw_mask.c ****     param->cfg.y_top = y_top;
 7298              		.loc 1 547 5 is_stmt 1 view .LVU2496
 547:lvgl/src/draw/lv_draw_mask.c ****     param->cfg.y_top = y_top;
 7299              		.loc 1 547 27 is_stmt 0 view .LVU2497
 7300 0020 9DF80020 		ldrb	r2, [sp]	@ zero_extendqisi2
 7301              	.LVL808:
 547:lvgl/src/draw/lv_draw_mask.c ****     param->cfg.y_top = y_top;
 7302              		.loc 1 547 27 view .LVU2498
 7303 0024 4275     		strb	r2, [r0, #21]
 548:lvgl/src/draw/lv_draw_mask.c ****     param->cfg.y_bottom = y_bottom;
 7304              		.loc 1 548 5 is_stmt 1 view .LVU2499
 548:lvgl/src/draw/lv_draw_mask.c ****     param->cfg.y_bottom = y_bottom;
 7305              		.loc 1 548 22 is_stmt 0 view .LVU2500
 7306 0026 0382     		strh	r3, [r0, #16]	@ movhi
 549:lvgl/src/draw/lv_draw_mask.c ****     param->dsc.cb = (lv_draw_mask_xcb_t)lv_draw_mask_fade;
 7307              		.loc 1 549 5 is_stmt 1 view .LVU2501
 549:lvgl/src/draw/lv_draw_mask.c ****     param->dsc.cb = (lv_draw_mask_xcb_t)lv_draw_mask_fade;
 7308              		.loc 1 549 25 is_stmt 0 view .LVU2502
 7309 0028 BDF90430 		ldrsh	r3, [sp, #4]
 7310              	.LVL809:
 549:lvgl/src/draw/lv_draw_mask.c ****     param->dsc.cb = (lv_draw_mask_xcb_t)lv_draw_mask_fade;
 7311              		.loc 1 549 25 view .LVU2503
 7312 002c 4382     		strh	r3, [r0, #18]	@ movhi
 550:lvgl/src/draw/lv_draw_mask.c ****     param->dsc.type = LV_DRAW_MASK_TYPE_FADE;
 7313              		.loc 1 550 5 is_stmt 1 view .LVU2504
 550:lvgl/src/draw/lv_draw_mask.c ****     param->dsc.type = LV_DRAW_MASK_TYPE_FADE;
 7314              		.loc 1 550 19 is_stmt 0 view .LVU2505
 7315 002e 024B     		ldr	r3, .L559
 7316 0030 0360     		str	r3, [r0]
 551:lvgl/src/draw/lv_draw_mask.c **** }
 7317              		.loc 1 551 5 is_stmt 1 view .LVU2506
 551:lvgl/src/draw/lv_draw_mask.c **** }
 7318              		.loc 1 551 21 is_stmt 0 view .LVU2507
 7319 0032 0323     		movs	r3, #3
 7320 0034 0371     		strb	r3, [r0, #4]
 552:lvgl/src/draw/lv_draw_mask.c **** 
 7321              		.loc 1 552 1 view .LVU2508
 7322 0036 7047     		bx	lr
 7323              	.L560:
 7324              		.align	2
 7325              	.L559:
 7326 0038 00000000 		.word	lv_draw_mask_fade
 7327              		.cfi_endproc
 7328              	.LFE69:
 7330              		.section	.text.lv_draw_mask_map_init,"ax",%progbits
 7331              		.align	1
 7332              		.global	lv_draw_mask_map_init
 7333              		.syntax unified
 7334              		.thumb
ARM GAS  /var/folders/21/t9g5rlb91ys800n5npymflf80000gn/T//cc0CxbBx.s 			page 199


 7335              		.thumb_func
 7337              	lv_draw_mask_map_init:
 7338              	.LVL810:
 7339              	.LFB70:
 561:lvgl/src/draw/lv_draw_mask.c ****     lv_area_copy(&param->cfg.coords, coords);
 7340              		.loc 1 561 1 is_stmt 1 view -0
 7341              		.cfi_startproc
 7342              		@ args = 0, pretend = 0, frame = 0
 7343              		@ frame_needed = 0, uses_anonymous_args = 0
 7344              		@ link register save eliminated.
 562:lvgl/src/draw/lv_draw_mask.c ****     param->cfg.map = map;
 7345              		.loc 1 562 5 view .LVU2510
 7346              	.LBB224:
 7347              	.LBI224:
 110:lvgl/src/draw/../misc/../font/../misc/lv_area.h **** {
 7348              		.loc 2 110 20 view .LVU2511
 7349              	.LBB225:
 112:lvgl/src/draw/../misc/../font/../misc/lv_area.h ****     dest->y1 = src->y1;
 7350              		.loc 2 112 5 view .LVU2512
 112:lvgl/src/draw/../misc/../font/../misc/lv_area.h ****     dest->y1 = src->y1;
 7351              		.loc 2 112 19 is_stmt 0 view .LVU2513
 7352 0000 B1F90030 		ldrsh	r3, [r1]
 112:lvgl/src/draw/../misc/../font/../misc/lv_area.h ****     dest->y1 = src->y1;
 7353              		.loc 2 112 14 view .LVU2514
 7354 0004 0381     		strh	r3, [r0, #8]	@ movhi
 113:lvgl/src/draw/../misc/../font/../misc/lv_area.h ****     dest->x2 = src->x2;
 7355              		.loc 2 113 5 is_stmt 1 view .LVU2515
 113:lvgl/src/draw/../misc/../font/../misc/lv_area.h ****     dest->x2 = src->x2;
 7356              		.loc 2 113 19 is_stmt 0 view .LVU2516
 7357 0006 B1F90230 		ldrsh	r3, [r1, #2]
 113:lvgl/src/draw/../misc/../font/../misc/lv_area.h ****     dest->x2 = src->x2;
 7358              		.loc 2 113 14 view .LVU2517
 7359 000a 4381     		strh	r3, [r0, #10]	@ movhi
 114:lvgl/src/draw/../misc/../font/../misc/lv_area.h ****     dest->y2 = src->y2;
 7360              		.loc 2 114 5 is_stmt 1 view .LVU2518
 114:lvgl/src/draw/../misc/../font/../misc/lv_area.h ****     dest->y2 = src->y2;
 7361              		.loc 2 114 19 is_stmt 0 view .LVU2519
 7362 000c B1F90430 		ldrsh	r3, [r1, #4]
 114:lvgl/src/draw/../misc/../font/../misc/lv_area.h ****     dest->y2 = src->y2;
 7363              		.loc 2 114 14 view .LVU2520
 7364 0010 8381     		strh	r3, [r0, #12]	@ movhi
 115:lvgl/src/draw/../misc/../font/../misc/lv_area.h **** }
 7365              		.loc 2 115 5 is_stmt 1 view .LVU2521
 115:lvgl/src/draw/../misc/../font/../misc/lv_area.h **** }
 7366              		.loc 2 115 19 is_stmt 0 view .LVU2522
 7367 0012 B1F90630 		ldrsh	r3, [r1, #6]
 115:lvgl/src/draw/../misc/../font/../misc/lv_area.h **** }
 7368              		.loc 2 115 14 view .LVU2523
 7369 0016 C381     		strh	r3, [r0, #14]	@ movhi
 7370              	.LVL811:
 115:lvgl/src/draw/../misc/../font/../misc/lv_area.h **** }
 7371              		.loc 2 115 14 view .LVU2524
 7372              	.LBE225:
 7373              	.LBE224:
 563:lvgl/src/draw/lv_draw_mask.c ****     param->dsc.cb = (lv_draw_mask_xcb_t)lv_draw_mask_map;
 7374              		.loc 1 563 5 is_stmt 1 view .LVU2525
 563:lvgl/src/draw/lv_draw_mask.c ****     param->dsc.cb = (lv_draw_mask_xcb_t)lv_draw_mask_map;
ARM GAS  /var/folders/21/t9g5rlb91ys800n5npymflf80000gn/T//cc0CxbBx.s 			page 200


 7375              		.loc 1 563 20 is_stmt 0 view .LVU2526
 7376 0018 0261     		str	r2, [r0, #16]
 564:lvgl/src/draw/lv_draw_mask.c ****     param->dsc.type = LV_DRAW_MASK_TYPE_MAP;
 7377              		.loc 1 564 5 is_stmt 1 view .LVU2527
 564:lvgl/src/draw/lv_draw_mask.c ****     param->dsc.type = LV_DRAW_MASK_TYPE_MAP;
 7378              		.loc 1 564 19 is_stmt 0 view .LVU2528
 7379 001a 024B     		ldr	r3, .L562
 7380 001c 0360     		str	r3, [r0]
 565:lvgl/src/draw/lv_draw_mask.c **** }
 7381              		.loc 1 565 5 is_stmt 1 view .LVU2529
 565:lvgl/src/draw/lv_draw_mask.c **** }
 7382              		.loc 1 565 21 is_stmt 0 view .LVU2530
 7383 001e 0423     		movs	r3, #4
 7384 0020 0371     		strb	r3, [r0, #4]
 566:lvgl/src/draw/lv_draw_mask.c **** 
 7385              		.loc 1 566 1 view .LVU2531
 7386 0022 7047     		bx	lr
 7387              	.L563:
 7388              		.align	2
 7389              	.L562:
 7390 0024 00000000 		.word	lv_draw_mask_map
 7391              		.cfi_endproc
 7392              	.LFE70:
 7394              		.section	.text.lv_draw_mask_polygon_init,"ax",%progbits
 7395              		.align	1
 7396              		.global	lv_draw_mask_polygon_init
 7397              		.syntax unified
 7398              		.thumb
 7399              		.thumb_func
 7401              	lv_draw_mask_polygon_init:
 7402              	.LVL812:
 7403              	.LFB71:
 569:lvgl/src/draw/lv_draw_mask.c ****     /*Join adjacent points if they are on the same coordinate*/
 7404              		.loc 1 569 1 is_stmt 1 view -0
 7405              		.cfi_startproc
 7406              		@ args = 0, pretend = 0, frame = 0
 7407              		@ frame_needed = 0, uses_anonymous_args = 0
 569:lvgl/src/draw/lv_draw_mask.c ****     /*Join adjacent points if they are on the same coordinate*/
 7408              		.loc 1 569 1 is_stmt 0 view .LVU2533
 7409 0000 2DE9F843 		push	{r3, r4, r5, r6, r7, r8, r9, lr}
 7410              	.LCFI47:
 7411              		.cfi_def_cfa_offset 32
 7412              		.cfi_offset 3, -32
 7413              		.cfi_offset 4, -28
 7414              		.cfi_offset 5, -24
 7415              		.cfi_offset 6, -20
 7416              		.cfi_offset 7, -16
 7417              		.cfi_offset 8, -12
 7418              		.cfi_offset 9, -8
 7419              		.cfi_offset 14, -4
 7420 0004 0546     		mov	r5, r0
 7421 0006 0C46     		mov	r4, r1
 7422 0008 1646     		mov	r6, r2
 571:lvgl/src/draw/lv_draw_mask.c ****     if(p == NULL) return;
 7423              		.loc 1 571 5 is_stmt 1 view .LVU2534
 571:lvgl/src/draw/lv_draw_mask.c ****     if(p == NULL) return;
 7424              		.loc 1 571 22 is_stmt 0 view .LVU2535
ARM GAS  /var/folders/21/t9g5rlb91ys800n5npymflf80000gn/T//cc0CxbBx.s 			page 201


 7425 000a 9000     		lsls	r0, r2, #2
 7426              	.LVL813:
 571:lvgl/src/draw/lv_draw_mask.c ****     if(p == NULL) return;
 7427              		.loc 1 571 22 view .LVU2536
 7428 000c FFF7FEFF 		bl	lv_mem_alloc
 7429              	.LVL814:
 572:lvgl/src/draw/lv_draw_mask.c ****     uint16_t i;
 7430              		.loc 1 572 5 is_stmt 1 view .LVU2537
 572:lvgl/src/draw/lv_draw_mask.c ****     uint16_t i;
 7431              		.loc 1 572 7 is_stmt 0 view .LVU2538
 7432 0010 0028     		cmp	r0, #0
 7433 0012 3DD0     		beq	.L564
 7434 0014 0746     		mov	r7, r0
 573:lvgl/src/draw/lv_draw_mask.c ****     uint16_t pcnt = 0;
 7435              		.loc 1 573 5 is_stmt 1 view .LVU2539
 574:lvgl/src/draw/lv_draw_mask.c ****     p[0] = points[0];
 7436              		.loc 1 574 5 view .LVU2540
 7437              	.LVL815:
 575:lvgl/src/draw/lv_draw_mask.c ****     for(i = 0; i < point_cnt - 1; i++) {
 7438              		.loc 1 575 5 view .LVU2541
 575:lvgl/src/draw/lv_draw_mask.c ****     for(i = 0; i < point_cnt - 1; i++) {
 7439              		.loc 1 575 10 is_stmt 0 view .LVU2542
 7440 0016 2368     		ldr	r3, [r4]	@ unaligned
 7441 0018 0360     		str	r3, [r0]	@ unaligned
 576:lvgl/src/draw/lv_draw_mask.c ****         if(points[i].x != points[i + 1].x || points[i].y != points[i + 1].y) {
 7442              		.loc 1 576 5 is_stmt 1 view .LVU2543
 7443              	.LVL816:
 574:lvgl/src/draw/lv_draw_mask.c ****     p[0] = points[0];
 7444              		.loc 1 574 14 is_stmt 0 view .LVU2544
 7445 001a 0021     		movs	r1, #0
 576:lvgl/src/draw/lv_draw_mask.c ****         if(points[i].x != points[i + 1].x || points[i].y != points[i + 1].y) {
 7446              		.loc 1 576 11 view .LVU2545
 7447 001c 0B46     		mov	r3, r1
 576:lvgl/src/draw/lv_draw_mask.c ****         if(points[i].x != points[i + 1].x || points[i].y != points[i + 1].y) {
 7448              		.loc 1 576 5 view .LVU2546
 7449 001e 07E0     		b	.L566
 7450              	.LVL817:
 7451              	.L567:
 578:lvgl/src/draw/lv_draw_mask.c ****             pcnt++;
 7452              		.loc 1 578 13 is_stmt 1 view .LVU2547
 578:lvgl/src/draw/lv_draw_mask.c ****             pcnt++;
 7453              		.loc 1 578 21 is_stmt 0 view .LVU2548
 7454 0020 54F80E20 		ldr	r2, [r4, lr]	@ unaligned
 7455 0024 47F82120 		str	r2, [r7, r1, lsl #2]	@ unaligned
 579:lvgl/src/draw/lv_draw_mask.c ****         }
 7456              		.loc 1 579 13 is_stmt 1 view .LVU2549
 579:lvgl/src/draw/lv_draw_mask.c ****         }
 7457              		.loc 1 579 17 is_stmt 0 view .LVU2550
 7458 0028 0131     		adds	r1, r1, #1
 7459              	.LVL818:
 579:lvgl/src/draw/lv_draw_mask.c ****         }
 7460              		.loc 1 579 17 view .LVU2551
 7461 002a 89B2     		uxth	r1, r1
 7462              	.LVL819:
 7463              	.L568:
 576:lvgl/src/draw/lv_draw_mask.c ****         if(points[i].x != points[i + 1].x || points[i].y != points[i + 1].y) {
 7464              		.loc 1 576 36 is_stmt 1 discriminator 2 view .LVU2552
ARM GAS  /var/folders/21/t9g5rlb91ys800n5npymflf80000gn/T//cc0CxbBx.s 			page 202


 7465 002c 0133     		adds	r3, r3, #1
 7466              	.LVL820:
 576:lvgl/src/draw/lv_draw_mask.c ****         if(points[i].x != points[i + 1].x || points[i].y != points[i + 1].y) {
 7467              		.loc 1 576 36 is_stmt 0 discriminator 2 view .LVU2553
 7468 002e 9BB2     		uxth	r3, r3
 7469              	.LVL821:
 7470              	.L566:
 576:lvgl/src/draw/lv_draw_mask.c ****         if(points[i].x != points[i + 1].x || points[i].y != points[i + 1].y) {
 7471              		.loc 1 576 18 is_stmt 1 discriminator 1 view .LVU2554
 576:lvgl/src/draw/lv_draw_mask.c ****         if(points[i].x != points[i + 1].x || points[i].y != points[i + 1].y) {
 7472              		.loc 1 576 30 is_stmt 0 discriminator 1 view .LVU2555
 7473 0030 06F1FF3C 		add	ip, r6, #-1
 576:lvgl/src/draw/lv_draw_mask.c ****         if(points[i].x != points[i + 1].x || points[i].y != points[i + 1].y) {
 7474              		.loc 1 576 18 discriminator 1 view .LVU2556
 7475 0034 6345     		cmp	r3, ip
 7476 0036 14DA     		bge	.L573
 577:lvgl/src/draw/lv_draw_mask.c ****             p[pcnt] = points[i];
 7477              		.loc 1 577 9 is_stmt 1 view .LVU2557
 577:lvgl/src/draw/lv_draw_mask.c ****             p[pcnt] = points[i];
 7478              		.loc 1 577 18 is_stmt 0 view .LVU2558
 7479 0038 4FEA830E 		lsl	lr, r3, #2
 7480 003c 04EB8309 		add	r9, r4, r3, lsl #2
 577:lvgl/src/draw/lv_draw_mask.c ****             p[pcnt] = points[i];
 7481              		.loc 1 577 21 view .LVU2559
 7482 0040 34F92300 		ldrsh	r0, [r4, r3, lsl #2]
 577:lvgl/src/draw/lv_draw_mask.c ****             p[pcnt] = points[i];
 7483              		.loc 1 577 33 view .LVU2560
 7484 0044 03F1010C 		add	ip, r3, #1
 7485 0048 04EB8C08 		add	r8, r4, ip, lsl #2
 577:lvgl/src/draw/lv_draw_mask.c ****             p[pcnt] = points[i];
 7486              		.loc 1 577 40 view .LVU2561
 7487 004c 34F92C20 		ldrsh	r2, [r4, ip, lsl #2]
 577:lvgl/src/draw/lv_draw_mask.c ****             p[pcnt] = points[i];
 7488              		.loc 1 577 11 view .LVU2562
 7489 0050 9042     		cmp	r0, r2
 7490 0052 E5D1     		bne	.L567
 577:lvgl/src/draw/lv_draw_mask.c ****             p[pcnt] = points[i];
 7491              		.loc 1 577 55 discriminator 1 view .LVU2563
 7492 0054 B9F90200 		ldrsh	r0, [r9, #2]
 577:lvgl/src/draw/lv_draw_mask.c ****             p[pcnt] = points[i];
 7493              		.loc 1 577 74 discriminator 1 view .LVU2564
 7494 0058 B8F90220 		ldrsh	r2, [r8, #2]
 577:lvgl/src/draw/lv_draw_mask.c ****             p[pcnt] = points[i];
 7495              		.loc 1 577 43 discriminator 1 view .LVU2565
 7496 005c 9042     		cmp	r0, r2
 7497 005e DFD1     		bne	.L567
 7498 0060 E4E7     		b	.L568
 7499              	.L573:
 583:lvgl/src/draw/lv_draw_mask.c ****         p[pcnt] = points[point_cnt - 1];
 7500              		.loc 1 583 5 is_stmt 1 view .LVU2566
 583:lvgl/src/draw/lv_draw_mask.c ****         p[pcnt] = points[point_cnt - 1];
 7501              		.loc 1 583 17 is_stmt 0 view .LVU2567
 7502 0062 B4F90000 		ldrsh	r0, [r4]
 583:lvgl/src/draw/lv_draw_mask.c ****         p[pcnt] = points[point_cnt - 1];
 7503              		.loc 1 583 29 view .LVU2568
 7504 0066 06F18042 		add	r2, r6, #1073741824
 7505 006a 013A     		subs	r2, r2, #1
ARM GAS  /var/folders/21/t9g5rlb91ys800n5npymflf80000gn/T//cc0CxbBx.s 			page 203


 7506 006c 04EB8206 		add	r6, r4, r2, lsl #2
 583:lvgl/src/draw/lv_draw_mask.c ****         p[pcnt] = points[point_cnt - 1];
 7507              		.loc 1 583 44 view .LVU2569
 7508 0070 34F92230 		ldrsh	r3, [r4, r2, lsl #2]
 7509              	.LVL822:
 583:lvgl/src/draw/lv_draw_mask.c ****         p[pcnt] = points[point_cnt - 1];
 7510              		.loc 1 583 7 view .LVU2570
 7511 0074 9842     		cmp	r0, r3
 7512 0076 0DD0     		beq	.L574
 7513              	.L570:
 584:lvgl/src/draw/lv_draw_mask.c ****         pcnt++;
 7514              		.loc 1 584 9 is_stmt 1 view .LVU2571
 584:lvgl/src/draw/lv_draw_mask.c ****         pcnt++;
 7515              		.loc 1 584 17 is_stmt 0 view .LVU2572
 7516 0078 54F82230 		ldr	r3, [r4, r2, lsl #2]	@ unaligned
 7517 007c 47F82130 		str	r3, [r7, r1, lsl #2]	@ unaligned
 585:lvgl/src/draw/lv_draw_mask.c ****     }
 7518              		.loc 1 585 9 is_stmt 1 view .LVU2573
 585:lvgl/src/draw/lv_draw_mask.c ****     }
 7519              		.loc 1 585 13 is_stmt 0 view .LVU2574
 7520 0080 0131     		adds	r1, r1, #1
 7521              	.LVL823:
 585:lvgl/src/draw/lv_draw_mask.c ****     }
 7522              		.loc 1 585 13 view .LVU2575
 7523 0082 89B2     		uxth	r1, r1
 7524              	.LVL824:
 7525              	.L571:
 587:lvgl/src/draw/lv_draw_mask.c ****     param->cfg.point_cnt = pcnt;
 7526              		.loc 1 587 5 is_stmt 1 view .LVU2576
 587:lvgl/src/draw/lv_draw_mask.c ****     param->cfg.point_cnt = pcnt;
 7527              		.loc 1 587 23 is_stmt 0 view .LVU2577
 7528 0084 AF60     		str	r7, [r5, #8]
 588:lvgl/src/draw/lv_draw_mask.c ****     param->dsc.cb = (lv_draw_mask_xcb_t)lv_draw_mask_polygon;
 7529              		.loc 1 588 5 is_stmt 1 view .LVU2578
 588:lvgl/src/draw/lv_draw_mask.c ****     param->dsc.cb = (lv_draw_mask_xcb_t)lv_draw_mask_polygon;
 7530              		.loc 1 588 26 is_stmt 0 view .LVU2579
 7531 0086 A981     		strh	r1, [r5, #12]	@ movhi
 589:lvgl/src/draw/lv_draw_mask.c ****     param->dsc.type = LV_DRAW_MASK_TYPE_POLYGON;
 7532              		.loc 1 589 5 is_stmt 1 view .LVU2580
 589:lvgl/src/draw/lv_draw_mask.c ****     param->dsc.type = LV_DRAW_MASK_TYPE_POLYGON;
 7533              		.loc 1 589 19 is_stmt 0 view .LVU2581
 7534 0088 064B     		ldr	r3, .L575
 7535 008a 2B60     		str	r3, [r5]
 590:lvgl/src/draw/lv_draw_mask.c **** }
 7536              		.loc 1 590 5 is_stmt 1 view .LVU2582
 590:lvgl/src/draw/lv_draw_mask.c **** }
 7537              		.loc 1 590 21 is_stmt 0 view .LVU2583
 7538 008c 0523     		movs	r3, #5
 7539 008e 2B71     		strb	r3, [r5, #4]
 7540              	.LVL825:
 7541              	.L564:
 591:lvgl/src/draw/lv_draw_mask.c **** 
 7542              		.loc 1 591 1 view .LVU2584
 7543 0090 BDE8F883 		pop	{r3, r4, r5, r6, r7, r8, r9, pc}
 7544              	.LVL826:
 7545              	.L574:
 583:lvgl/src/draw/lv_draw_mask.c ****         p[pcnt] = points[point_cnt - 1];
ARM GAS  /var/folders/21/t9g5rlb91ys800n5npymflf80000gn/T//cc0CxbBx.s 			page 204


 7546              		.loc 1 583 59 discriminator 1 view .LVU2585
 7547 0094 B4F90200 		ldrsh	r0, [r4, #2]
 583:lvgl/src/draw/lv_draw_mask.c ****         p[pcnt] = points[point_cnt - 1];
 7548              		.loc 1 583 86 discriminator 1 view .LVU2586
 7549 0098 B6F90230 		ldrsh	r3, [r6, #2]
 583:lvgl/src/draw/lv_draw_mask.c ****         p[pcnt] = points[point_cnt - 1];
 7550              		.loc 1 583 47 discriminator 1 view .LVU2587
 7551 009c 9842     		cmp	r0, r3
 7552 009e EBD1     		bne	.L570
 7553 00a0 F0E7     		b	.L571
 7554              	.L576:
 7555 00a2 00BF     		.align	2
 7556              	.L575:
 7557 00a4 00000000 		.word	lv_draw_mask_polygon
 7558              		.cfi_endproc
 7559              	.LFE71:
 7561              		.text
 7562              	.Letext0:
 7563              		.file 3 "/usr/local/include/sys/_types/_int16_t.h"
 7564              		.file 4 "/usr/local/include/sys/_types/_int32_t.h"
 7565              		.file 5 "/usr/local/include/_types/_uint8_t.h"
 7566              		.file 6 "/usr/local/include/_types/_uint16_t.h"
 7567              		.file 7 "/usr/local/include/_types/_uint32_t.h"
 7568              		.file 8 "/usr/local/include/arm/_types.h"
 7569              		.file 9 "/usr/local/include/sys/_types/_size_t.h"
 7570              		.file 10 "lvgl/src/draw/../misc/lv_color.h"
 7571              		.file 11 "lvgl/src/draw/lv_draw_mask.h"
 7572              		.file 12 "lvgl/src/draw/../misc/lv_gc.h"
 7573              		.file 13 "lvgl/src/draw/../misc/lv_mem.h"
 7574              		.file 14 "lvgl/src/draw/../misc/lv_math.h"
ARM GAS  /var/folders/21/t9g5rlb91ys800n5npymflf80000gn/T//cc0CxbBx.s 			page 205


DEFINED SYMBOLS
                            *ABS*:00000000 lv_draw_mask.c
/var/folders/21/t9g5rlb91ys800n5npymflf80000gn/T//cc0CxbBx.s:21     .text.lv_draw_mask_fade:00000000 $t
/var/folders/21/t9g5rlb91ys800n5npymflf80000gn/T//cc0CxbBx.s:26     .text.lv_draw_mask_fade:00000000 lv_draw_mask_fade
/var/folders/21/t9g5rlb91ys800n5npymflf80000gn/T//cc0CxbBx.s:396    .text.lv_draw_mask_map:00000000 $t
/var/folders/21/t9g5rlb91ys800n5npymflf80000gn/T//cc0CxbBx.s:401    .text.lv_draw_mask_map:00000000 lv_draw_mask_map
/var/folders/21/t9g5rlb91ys800n5npymflf80000gn/T//cc0CxbBx.s:629    .text.circ_init:00000000 $t
/var/folders/21/t9g5rlb91ys800n5npymflf80000gn/T//cc0CxbBx.s:634    .text.circ_init:00000000 circ_init
/var/folders/21/t9g5rlb91ys800n5npymflf80000gn/T//cc0CxbBx.s:662    .text.circ_cont:00000000 $t
/var/folders/21/t9g5rlb91ys800n5npymflf80000gn/T//cc0CxbBx.s:667    .text.circ_cont:00000000 circ_cont
/var/folders/21/t9g5rlb91ys800n5npymflf80000gn/T//cc0CxbBx.s:691    .text.circ_next:00000000 $t
/var/folders/21/t9g5rlb91ys800n5npymflf80000gn/T//cc0CxbBx.s:696    .text.circ_next:00000000 circ_next
/var/folders/21/t9g5rlb91ys800n5npymflf80000gn/T//cc0CxbBx.s:752    .text.get_next_line:00000000 $t
/var/folders/21/t9g5rlb91ys800n5npymflf80000gn/T//cc0CxbBx.s:757    .text.get_next_line:00000000 get_next_line
/var/folders/21/t9g5rlb91ys800n5npymflf80000gn/T//cc0CxbBx.s:810    .text.line_mask_flat:00000000 $t
/var/folders/21/t9g5rlb91ys800n5npymflf80000gn/T//cc0CxbBx.s:815    .text.line_mask_flat:00000000 line_mask_flat
/var/folders/21/t9g5rlb91ys800n5npymflf80000gn/T//cc0CxbBx.s:1359   .text.line_mask_steep:00000000 $t
/var/folders/21/t9g5rlb91ys800n5npymflf80000gn/T//cc0CxbBx.s:1364   .text.line_mask_steep:00000000 line_mask_steep
/var/folders/21/t9g5rlb91ys800n5npymflf80000gn/T//cc0CxbBx.s:2208   .text.lv_draw_mask_line:00000000 $t
/var/folders/21/t9g5rlb91ys800n5npymflf80000gn/T//cc0CxbBx.s:2213   .text.lv_draw_mask_line:00000000 lv_draw_mask_line
/var/folders/21/t9g5rlb91ys800n5npymflf80000gn/T//cc0CxbBx.s:2477   .text.lv_draw_mask_angle:00000000 $t
/var/folders/21/t9g5rlb91ys800n5npymflf80000gn/T//cc0CxbBx.s:2482   .text.lv_draw_mask_angle:00000000 lv_draw_mask_angle
/var/folders/21/t9g5rlb91ys800n5npymflf80000gn/T//cc0CxbBx.s:3315   .text.lv_draw_mask_radius:00000000 $t
/var/folders/21/t9g5rlb91ys800n5npymflf80000gn/T//cc0CxbBx.s:3320   .text.lv_draw_mask_radius:00000000 lv_draw_mask_radius
/var/folders/21/t9g5rlb91ys800n5npymflf80000gn/T//cc0CxbBx.s:4152   .text.circ_calc_aa4:00000000 $t
/var/folders/21/t9g5rlb91ys800n5npymflf80000gn/T//cc0CxbBx.s:4157   .text.circ_calc_aa4:00000000 circ_calc_aa4
/var/folders/21/t9g5rlb91ys800n5npymflf80000gn/T//cc0CxbBx.s:4870   .text.lv_draw_mask_add:00000000 $t
/var/folders/21/t9g5rlb91ys800n5npymflf80000gn/T//cc0CxbBx.s:4876   .text.lv_draw_mask_add:00000000 lv_draw_mask_add
/var/folders/21/t9g5rlb91ys800n5npymflf80000gn/T//cc0CxbBx.s:4936   .text.lv_draw_mask_add:00000030 $d
/var/folders/21/t9g5rlb91ys800n5npymflf80000gn/T//cc0CxbBx.s:4941   .text.lv_draw_mask_apply:00000000 $t
/var/folders/21/t9g5rlb91ys800n5npymflf80000gn/T//cc0CxbBx.s:4947   .text.lv_draw_mask_apply:00000000 lv_draw_mask_apply
/var/folders/21/t9g5rlb91ys800n5npymflf80000gn/T//cc0CxbBx.s:5056   .text.lv_draw_mask_apply:00000050 $d
/var/folders/21/t9g5rlb91ys800n5npymflf80000gn/T//cc0CxbBx.s:5061   .text.lv_draw_mask_apply_ids:00000000 $t
/var/folders/21/t9g5rlb91ys800n5npymflf80000gn/T//cc0CxbBx.s:5067   .text.lv_draw_mask_apply_ids:00000000 lv_draw_mask_apply_ids
/var/folders/21/t9g5rlb91ys800n5npymflf80000gn/T//cc0CxbBx.s:5197   .text.lv_draw_mask_apply_ids:00000064 $d
/var/folders/21/t9g5rlb91ys800n5npymflf80000gn/T//cc0CxbBx.s:5202   .text.lv_draw_mask_remove_id:00000000 $t
/var/folders/21/t9g5rlb91ys800n5npymflf80000gn/T//cc0CxbBx.s:5208   .text.lv_draw_mask_remove_id:00000000 lv_draw_mask_remove_id
/var/folders/21/t9g5rlb91ys800n5npymflf80000gn/T//cc0CxbBx.s:5249   .text.lv_draw_mask_remove_id:00000020 $d
/var/folders/21/t9g5rlb91ys800n5npymflf80000gn/T//cc0CxbBx.s:5254   .text.lv_draw_mask_remove_custom:00000000 $t
/var/folders/21/t9g5rlb91ys800n5npymflf80000gn/T//cc0CxbBx.s:5260   .text.lv_draw_mask_remove_custom:00000000 lv_draw_mask_remove_custom
/var/folders/21/t9g5rlb91ys800n5npymflf80000gn/T//cc0CxbBx.s:5326   .text.lv_draw_mask_remove_custom:00000030 $d
/var/folders/21/t9g5rlb91ys800n5npymflf80000gn/T//cc0CxbBx.s:5331   .text.lv_draw_mask_free_param:00000000 $t
/var/folders/21/t9g5rlb91ys800n5npymflf80000gn/T//cc0CxbBx.s:5337   .text.lv_draw_mask_free_param:00000000 lv_draw_mask_free_param
/var/folders/21/t9g5rlb91ys800n5npymflf80000gn/T//cc0CxbBx.s:5421   .text._lv_draw_mask_cleanup:00000000 $t
/var/folders/21/t9g5rlb91ys800n5npymflf80000gn/T//cc0CxbBx.s:5427   .text._lv_draw_mask_cleanup:00000000 _lv_draw_mask_cleanup
/var/folders/21/t9g5rlb91ys800n5npymflf80000gn/T//cc0CxbBx.s:5491   .text._lv_draw_mask_cleanup:00000038 $d
/var/folders/21/t9g5rlb91ys800n5npymflf80000gn/T//cc0CxbBx.s:5496   .text.lv_draw_mask_get_cnt:00000000 $t
/var/folders/21/t9g5rlb91ys800n5npymflf80000gn/T//cc0CxbBx.s:5502   .text.lv_draw_mask_get_cnt:00000000 lv_draw_mask_get_cnt
/var/folders/21/t9g5rlb91ys800n5npymflf80000gn/T//cc0CxbBx.s:5554   .text.lv_draw_mask_get_cnt:00000020 $d
/var/folders/21/t9g5rlb91ys800n5npymflf80000gn/T//cc0CxbBx.s:5559   .text.lv_draw_mask_is_any:00000000 $t
/var/folders/21/t9g5rlb91ys800n5npymflf80000gn/T//cc0CxbBx.s:5565   .text.lv_draw_mask_is_any:00000000 lv_draw_mask_is_any
/var/folders/21/t9g5rlb91ys800n5npymflf80000gn/T//cc0CxbBx.s:5694   .text.lv_draw_mask_is_any:00000064 $d
/var/folders/21/t9g5rlb91ys800n5npymflf80000gn/T//cc0CxbBx.s:5701   .text.lv_draw_mask_line_points_init:00000000 $t
/var/folders/21/t9g5rlb91ys800n5npymflf80000gn/T//cc0CxbBx.s:5707   .text.lv_draw_mask_line_points_init:00000000 lv_draw_mask_line_points_init
/var/folders/21/t9g5rlb91ys800n5npymflf80000gn/T//cc0CxbBx.s:6036   .text.lv_draw_mask_line_points_init:0000016c $d
/var/folders/21/t9g5rlb91ys800n5npymflf80000gn/T//cc0CxbBx.s:6041   .text.lv_draw_mask_polygon:00000000 $t
/var/folders/21/t9g5rlb91ys800n5npymflf80000gn/T//cc0CxbBx.s:6046   .text.lv_draw_mask_polygon:00000000 lv_draw_mask_polygon
ARM GAS  /var/folders/21/t9g5rlb91ys800n5npymflf80000gn/T//cc0CxbBx.s 			page 206


/var/folders/21/t9g5rlb91ys800n5npymflf80000gn/T//cc0CxbBx.s:6583   .text.lv_draw_mask_line_angle_init:00000000 $t
/var/folders/21/t9g5rlb91ys800n5npymflf80000gn/T//cc0CxbBx.s:6589   .text.lv_draw_mask_line_angle_init:00000000 lv_draw_mask_line_angle_init
/var/folders/21/t9g5rlb91ys800n5npymflf80000gn/T//cc0CxbBx.s:6672   .text.lv_draw_mask_angle_init:00000000 $t
/var/folders/21/t9g5rlb91ys800n5npymflf80000gn/T//cc0CxbBx.s:6678   .text.lv_draw_mask_angle_init:00000000 lv_draw_mask_angle_init
/var/folders/21/t9g5rlb91ys800n5npymflf80000gn/T//cc0CxbBx.s:6886   .text.lv_draw_mask_angle_init:000000c4 $d
/var/folders/21/t9g5rlb91ys800n5npymflf80000gn/T//cc0CxbBx.s:6891   .text.lv_draw_mask_radius_init:00000000 $t
/var/folders/21/t9g5rlb91ys800n5npymflf80000gn/T//cc0CxbBx.s:6897   .text.lv_draw_mask_radius_init:00000000 lv_draw_mask_radius_init
/var/folders/21/t9g5rlb91ys800n5npymflf80000gn/T//cc0CxbBx.s:7245   .text.lv_draw_mask_radius_init:00000150 $d
/var/folders/21/t9g5rlb91ys800n5npymflf80000gn/T//cc0CxbBx.s:7251   .text.lv_draw_mask_fade_init:00000000 $t
/var/folders/21/t9g5rlb91ys800n5npymflf80000gn/T//cc0CxbBx.s:7257   .text.lv_draw_mask_fade_init:00000000 lv_draw_mask_fade_init
/var/folders/21/t9g5rlb91ys800n5npymflf80000gn/T//cc0CxbBx.s:7326   .text.lv_draw_mask_fade_init:00000038 $d
/var/folders/21/t9g5rlb91ys800n5npymflf80000gn/T//cc0CxbBx.s:7331   .text.lv_draw_mask_map_init:00000000 $t
/var/folders/21/t9g5rlb91ys800n5npymflf80000gn/T//cc0CxbBx.s:7337   .text.lv_draw_mask_map_init:00000000 lv_draw_mask_map_init
/var/folders/21/t9g5rlb91ys800n5npymflf80000gn/T//cc0CxbBx.s:7390   .text.lv_draw_mask_map_init:00000024 $d
/var/folders/21/t9g5rlb91ys800n5npymflf80000gn/T//cc0CxbBx.s:7395   .text.lv_draw_mask_polygon_init:00000000 $t
/var/folders/21/t9g5rlb91ys800n5npymflf80000gn/T//cc0CxbBx.s:7401   .text.lv_draw_mask_polygon_init:00000000 lv_draw_mask_polygon_init
/var/folders/21/t9g5rlb91ys800n5npymflf80000gn/T//cc0CxbBx.s:7557   .text.lv_draw_mask_polygon_init:000000a4 $d

UNDEFINED SYMBOLS
lv_memset_00
lv_mem_free
lv_mem_alloc
lv_mem_buf_get
lv_mem_buf_release
_lv_draw_mask_list
_lv_circle_cache
_lv_area_is_in
_lv_area_is_out
lv_trigo_sin
