ARM GAS  /var/folders/21/t9g5rlb91ys800n5npymflf80000gn/T//cc0CxbBx.s 			page 1


   1              		.cpu cortex-m4
   2              		.arch armv7e-m
   3              		.fpu fpv4-sp-d16
   4              		.eabi_attribute 27, 1
   5              		.eabi_attribute 28, 1
   6              		.eabi_attribute 20, 1
   7              		.eabi_attribute 21, 1
   8              		.eabi_attribute 23, 3
   9              		.eabi_attribute 24, 1
  10              		.eabi_attribute 25, 1
  11              		.eabi_attribute 26, 1
  12              		.eabi_attribute 30, 1
  13              		.eabi_attribute 34, 1
  14              		.eabi_attribute 18, 4
  15              		.file	"lv_draw_mask.c"
  16              		.text
  17              	.Ltext0:
  18              		.cfi_sections	.debug_frame
  19              		.file 1 "lvgl/src/draw/lv_draw_mask.c"
  20              		.section	.text.lv_draw_mask_fade,"ax",%progbits
  21              		.align	1
  22              		.syntax unified
  23              		.thumb
  24              		.thumb_func
  26              	lv_draw_mask_fade:
  27              	.LVL0:
  28              	.LFB77:
   1:lvgl/src/draw/lv_draw_mask.c **** /**
   2:lvgl/src/draw/lv_draw_mask.c ****  * @file lv_mask.c
   3:lvgl/src/draw/lv_draw_mask.c ****  *
   4:lvgl/src/draw/lv_draw_mask.c ****  */
   5:lvgl/src/draw/lv_draw_mask.c **** 
   6:lvgl/src/draw/lv_draw_mask.c **** /*********************
   7:lvgl/src/draw/lv_draw_mask.c ****  *      INCLUDES
   8:lvgl/src/draw/lv_draw_mask.c ****  *********************/
   9:lvgl/src/draw/lv_draw_mask.c **** #include "lv_draw.h"
  10:lvgl/src/draw/lv_draw_mask.c **** #if LV_DRAW_COMPLEX
  11:lvgl/src/draw/lv_draw_mask.c **** #include "../misc/lv_math.h"
  12:lvgl/src/draw/lv_draw_mask.c **** #include "../misc/lv_log.h"
  13:lvgl/src/draw/lv_draw_mask.c **** #include "../misc/lv_assert.h"
  14:lvgl/src/draw/lv_draw_mask.c **** #include "../misc/lv_gc.h"
  15:lvgl/src/draw/lv_draw_mask.c **** 
  16:lvgl/src/draw/lv_draw_mask.c **** /*********************
  17:lvgl/src/draw/lv_draw_mask.c ****  *      DEFINES
  18:lvgl/src/draw/lv_draw_mask.c ****  *********************/
  19:lvgl/src/draw/lv_draw_mask.c **** #define CIRCLE_CACHE_LIFE_MAX   1000
  20:lvgl/src/draw/lv_draw_mask.c **** #define CIRCLE_CACHE_AGING(life, r)   life = LV_MIN(life + (r < 16 ? 1 : (r >> 4)), 1000)
  21:lvgl/src/draw/lv_draw_mask.c **** 
  22:lvgl/src/draw/lv_draw_mask.c **** /**********************
  23:lvgl/src/draw/lv_draw_mask.c ****  *      TYPEDEFS
  24:lvgl/src/draw/lv_draw_mask.c ****  **********************/
  25:lvgl/src/draw/lv_draw_mask.c **** 
  26:lvgl/src/draw/lv_draw_mask.c **** /**********************
  27:lvgl/src/draw/lv_draw_mask.c ****  *  STATIC PROTOTYPES
  28:lvgl/src/draw/lv_draw_mask.c ****  **********************/
  29:lvgl/src/draw/lv_draw_mask.c **** static lv_draw_mask_res_t /* LV_ATTRIBUTE_FAST_MEM */ lv_draw_mask_line(lv_opa_t * mask_buf, lv_coo
  30:lvgl/src/draw/lv_draw_mask.c ****                                                                         lv_coord_t abs_y, lv_coord_
ARM GAS  /var/folders/21/t9g5rlb91ys800n5npymflf80000gn/T//cc0CxbBx.s 			page 2


  31:lvgl/src/draw/lv_draw_mask.c ****                                                                         lv_draw_mask_line_param_t *
  32:lvgl/src/draw/lv_draw_mask.c **** static lv_draw_mask_res_t /* LV_ATTRIBUTE_FAST_MEM */ lv_draw_mask_radius(lv_opa_t * mask_buf, lv_c
  33:lvgl/src/draw/lv_draw_mask.c ****                                                                           lv_coord_t abs_y, lv_coor
  34:lvgl/src/draw/lv_draw_mask.c ****                                                                           lv_draw_mask_radius_param
  35:lvgl/src/draw/lv_draw_mask.c **** static lv_draw_mask_res_t /* LV_ATTRIBUTE_FAST_MEM */ lv_draw_mask_angle(lv_opa_t * mask_buf, lv_co
  36:lvgl/src/draw/lv_draw_mask.c ****                                                                          lv_coord_t abs_y, lv_coord
  37:lvgl/src/draw/lv_draw_mask.c ****                                                                          lv_draw_mask_angle_param_t
  38:lvgl/src/draw/lv_draw_mask.c **** static lv_draw_mask_res_t /* LV_ATTRIBUTE_FAST_MEM */ lv_draw_mask_fade(lv_opa_t * mask_buf, lv_coo
  39:lvgl/src/draw/lv_draw_mask.c ****                                                                         lv_coord_t abs_y, lv_coord_
  40:lvgl/src/draw/lv_draw_mask.c ****                                                                         lv_draw_mask_fade_param_t *
  41:lvgl/src/draw/lv_draw_mask.c **** static lv_draw_mask_res_t /* LV_ATTRIBUTE_FAST_MEM */ lv_draw_mask_map(lv_opa_t * mask_buf, lv_coor
  42:lvgl/src/draw/lv_draw_mask.c ****                                                                        lv_coord_t abs_y, lv_coord_t
  43:lvgl/src/draw/lv_draw_mask.c ****                                                                        lv_draw_mask_map_param_t * p
  44:lvgl/src/draw/lv_draw_mask.c **** static lv_draw_mask_res_t /* LV_ATTRIBUTE_FAST_MEM */ lv_draw_mask_polygon(lv_opa_t * mask_buf, lv_
  45:lvgl/src/draw/lv_draw_mask.c ****                                                                            lv_coord_t abs_y, lv_coo
  46:lvgl/src/draw/lv_draw_mask.c ****                                                                            lv_draw_mask_polygon_par
  47:lvgl/src/draw/lv_draw_mask.c **** 
  48:lvgl/src/draw/lv_draw_mask.c **** static lv_draw_mask_res_t /* LV_ATTRIBUTE_FAST_MEM */ line_mask_flat(lv_opa_t * mask_buf, lv_coord_
  49:lvgl/src/draw/lv_draw_mask.c ****                                                                      lv_coord_t abs_y, lv_coord_t l
  50:lvgl/src/draw/lv_draw_mask.c ****                                                                      lv_draw_mask_line_param_t * p)
  51:lvgl/src/draw/lv_draw_mask.c **** static lv_draw_mask_res_t /* LV_ATTRIBUTE_FAST_MEM */ line_mask_steep(lv_opa_t * mask_buf, lv_coord
  52:lvgl/src/draw/lv_draw_mask.c ****                                                                       lv_coord_t abs_y, lv_coord_t 
  53:lvgl/src/draw/lv_draw_mask.c ****                                                                       lv_draw_mask_line_param_t * p
  54:lvgl/src/draw/lv_draw_mask.c **** 
  55:lvgl/src/draw/lv_draw_mask.c **** static void circ_init(lv_point_t * c, lv_coord_t * tmp, lv_coord_t radius);
  56:lvgl/src/draw/lv_draw_mask.c **** static bool circ_cont(lv_point_t * c);
  57:lvgl/src/draw/lv_draw_mask.c **** static void circ_next(lv_point_t * c, lv_coord_t * tmp);
  58:lvgl/src/draw/lv_draw_mask.c **** static void circ_calc_aa4(_lv_draw_mask_radius_circle_dsc_t * c, lv_coord_t radius);
  59:lvgl/src/draw/lv_draw_mask.c **** static lv_opa_t * get_next_line(_lv_draw_mask_radius_circle_dsc_t * c, lv_coord_t y, lv_coord_t * l
  60:lvgl/src/draw/lv_draw_mask.c ****                                 lv_coord_t * x_start);
  61:lvgl/src/draw/lv_draw_mask.c **** static inline lv_opa_t /* LV_ATTRIBUTE_FAST_MEM */ mask_mix(lv_opa_t mask_act, lv_opa_t mask_new);
  62:lvgl/src/draw/lv_draw_mask.c **** 
  63:lvgl/src/draw/lv_draw_mask.c **** /**********************
  64:lvgl/src/draw/lv_draw_mask.c ****  *  STATIC VARIABLES
  65:lvgl/src/draw/lv_draw_mask.c ****  **********************/
  66:lvgl/src/draw/lv_draw_mask.c **** 
  67:lvgl/src/draw/lv_draw_mask.c **** /**********************
  68:lvgl/src/draw/lv_draw_mask.c ****  *      MACROS
  69:lvgl/src/draw/lv_draw_mask.c ****  **********************/
  70:lvgl/src/draw/lv_draw_mask.c **** 
  71:lvgl/src/draw/lv_draw_mask.c **** /**********************
  72:lvgl/src/draw/lv_draw_mask.c ****  *   GLOBAL FUNCTIONS
  73:lvgl/src/draw/lv_draw_mask.c ****  **********************/
  74:lvgl/src/draw/lv_draw_mask.c **** 
  75:lvgl/src/draw/lv_draw_mask.c **** /**
  76:lvgl/src/draw/lv_draw_mask.c ****  * Add a draw mask. Everything drawn after it (until removing the mask) will be affected by the mas
  77:lvgl/src/draw/lv_draw_mask.c ****  * @param param an initialized mask parameter. Only the pointer is saved.
  78:lvgl/src/draw/lv_draw_mask.c ****  * @param custom_id a custom pointer to identify the mask. Used in `lv_draw_mask_remove_custom`.
  79:lvgl/src/draw/lv_draw_mask.c ****  * @return the an integer, the ID of the mask. Can be used in `lv_draw_mask_remove_id`.
  80:lvgl/src/draw/lv_draw_mask.c ****  */
  81:lvgl/src/draw/lv_draw_mask.c **** int16_t lv_draw_mask_add(void * param, void * custom_id)
  82:lvgl/src/draw/lv_draw_mask.c **** {
  83:lvgl/src/draw/lv_draw_mask.c ****     /*Look for a free entry*/
  84:lvgl/src/draw/lv_draw_mask.c ****     uint8_t i;
  85:lvgl/src/draw/lv_draw_mask.c ****     for(i = 0; i < _LV_MASK_MAX_NUM; i++) {
  86:lvgl/src/draw/lv_draw_mask.c ****         if(LV_GC_ROOT(_lv_draw_mask_list[i]).param == NULL) break;
  87:lvgl/src/draw/lv_draw_mask.c ****     }
ARM GAS  /var/folders/21/t9g5rlb91ys800n5npymflf80000gn/T//cc0CxbBx.s 			page 3


  88:lvgl/src/draw/lv_draw_mask.c **** 
  89:lvgl/src/draw/lv_draw_mask.c ****     if(i >= _LV_MASK_MAX_NUM) {
  90:lvgl/src/draw/lv_draw_mask.c ****         LV_LOG_WARN("lv_mask_add: no place to add the mask");
  91:lvgl/src/draw/lv_draw_mask.c ****         return LV_MASK_ID_INV;
  92:lvgl/src/draw/lv_draw_mask.c ****     }
  93:lvgl/src/draw/lv_draw_mask.c **** 
  94:lvgl/src/draw/lv_draw_mask.c ****     LV_GC_ROOT(_lv_draw_mask_list[i]).param = param;
  95:lvgl/src/draw/lv_draw_mask.c ****     LV_GC_ROOT(_lv_draw_mask_list[i]).custom_id = custom_id;
  96:lvgl/src/draw/lv_draw_mask.c **** 
  97:lvgl/src/draw/lv_draw_mask.c ****     return i;
  98:lvgl/src/draw/lv_draw_mask.c **** }
  99:lvgl/src/draw/lv_draw_mask.c **** 
 100:lvgl/src/draw/lv_draw_mask.c **** /**
 101:lvgl/src/draw/lv_draw_mask.c ****  * Apply the added buffers on a line. Used internally by the library's drawing routines.
 102:lvgl/src/draw/lv_draw_mask.c ****  * @param mask_buf store the result mask here. Has to be `len` byte long. Should be initialized wit
 103:lvgl/src/draw/lv_draw_mask.c ****  * @param abs_x absolute X coordinate where the line to calculate start
 104:lvgl/src/draw/lv_draw_mask.c ****  * @param abs_y absolute Y coordinate where the line to calculate start
 105:lvgl/src/draw/lv_draw_mask.c ****  * @param len length of the line to calculate (in pixel count)
 106:lvgl/src/draw/lv_draw_mask.c ****  * @return One of these values:
 107:lvgl/src/draw/lv_draw_mask.c ****  * - `LV_DRAW_MASK_RES_FULL_TRANSP`: the whole line is transparent. `mask_buf` is not set to zero
 108:lvgl/src/draw/lv_draw_mask.c ****  * - `LV_DRAW_MASK_RES_FULL_COVER`: the whole line is fully visible. `mask_buf` is unchanged
 109:lvgl/src/draw/lv_draw_mask.c ****  * - `LV_DRAW_MASK_RES_CHANGED`: `mask_buf` has changed, it shows the desired opacity of each pixel
 110:lvgl/src/draw/lv_draw_mask.c ****  */
 111:lvgl/src/draw/lv_draw_mask.c **** lv_draw_mask_res_t LV_ATTRIBUTE_FAST_MEM lv_draw_mask_apply(lv_opa_t * mask_buf, lv_coord_t abs_x,
 112:lvgl/src/draw/lv_draw_mask.c ****                                                             lv_coord_t abs_y, lv_coord_t len)
 113:lvgl/src/draw/lv_draw_mask.c **** {
 114:lvgl/src/draw/lv_draw_mask.c ****     bool changed = false;
 115:lvgl/src/draw/lv_draw_mask.c ****     _lv_draw_mask_common_dsc_t * dsc;
 116:lvgl/src/draw/lv_draw_mask.c **** 
 117:lvgl/src/draw/lv_draw_mask.c ****     _lv_draw_mask_saved_t * m = LV_GC_ROOT(_lv_draw_mask_list);
 118:lvgl/src/draw/lv_draw_mask.c **** 
 119:lvgl/src/draw/lv_draw_mask.c ****     while(m->param) {
 120:lvgl/src/draw/lv_draw_mask.c ****         dsc = m->param;
 121:lvgl/src/draw/lv_draw_mask.c ****         lv_draw_mask_res_t res = LV_DRAW_MASK_RES_FULL_COVER;
 122:lvgl/src/draw/lv_draw_mask.c ****         res = dsc->cb(mask_buf, abs_x, abs_y, len, (void *)m->param);
 123:lvgl/src/draw/lv_draw_mask.c ****         if(res == LV_DRAW_MASK_RES_TRANSP) return LV_DRAW_MASK_RES_TRANSP;
 124:lvgl/src/draw/lv_draw_mask.c ****         else if(res == LV_DRAW_MASK_RES_CHANGED) changed = true;
 125:lvgl/src/draw/lv_draw_mask.c **** 
 126:lvgl/src/draw/lv_draw_mask.c ****         m++;
 127:lvgl/src/draw/lv_draw_mask.c ****     }
 128:lvgl/src/draw/lv_draw_mask.c **** 
 129:lvgl/src/draw/lv_draw_mask.c ****     return changed ? LV_DRAW_MASK_RES_CHANGED : LV_DRAW_MASK_RES_FULL_COVER;
 130:lvgl/src/draw/lv_draw_mask.c **** }
 131:lvgl/src/draw/lv_draw_mask.c **** 
 132:lvgl/src/draw/lv_draw_mask.c **** /**
 133:lvgl/src/draw/lv_draw_mask.c ****  * Apply the specified buffers on a line. Used internally by the library's drawing routines.
 134:lvgl/src/draw/lv_draw_mask.c ****  * @param mask_buf store the result mask here. Has to be `len` byte long. Should be initialized wit
 135:lvgl/src/draw/lv_draw_mask.c ****  * @param abs_x absolute X coordinate where the line to calculate start
 136:lvgl/src/draw/lv_draw_mask.c ****  * @param abs_y absolute Y coordinate where the line to calculate start
 137:lvgl/src/draw/lv_draw_mask.c ****  * @param len length of the line to calculate (in pixel count)
 138:lvgl/src/draw/lv_draw_mask.c ****  * @param ids ID array of added buffers
 139:lvgl/src/draw/lv_draw_mask.c ****  * @param ids_count number of ID array
 140:lvgl/src/draw/lv_draw_mask.c ****  * @return One of these values:
 141:lvgl/src/draw/lv_draw_mask.c ****  * - `LV_DRAW_MASK_RES_FULL_TRANSP`: the whole line is transparent. `mask_buf` is not set to zero
 142:lvgl/src/draw/lv_draw_mask.c ****  * - `LV_DRAW_MASK_RES_FULL_COVER`: the whole line is fully visible. `mask_buf` is unchanged
 143:lvgl/src/draw/lv_draw_mask.c ****  * - `LV_DRAW_MASK_RES_CHANGED`: `mask_buf` has changed, it shows the desired opacity of each pixel
 144:lvgl/src/draw/lv_draw_mask.c ****  */
ARM GAS  /var/folders/21/t9g5rlb91ys800n5npymflf80000gn/T//cc0CxbBx.s 			page 4


 145:lvgl/src/draw/lv_draw_mask.c **** lv_draw_mask_res_t LV_ATTRIBUTE_FAST_MEM lv_draw_mask_apply_ids(lv_opa_t * mask_buf, lv_coord_t abs
 146:lvgl/src/draw/lv_draw_mask.c ****                                                                 lv_coord_t abs_y, lv_coord_t len,
 147:lvgl/src/draw/lv_draw_mask.c ****                                                                 const int16_t * ids, int16_t ids_co
 148:lvgl/src/draw/lv_draw_mask.c **** {
 149:lvgl/src/draw/lv_draw_mask.c ****     bool changed = false;
 150:lvgl/src/draw/lv_draw_mask.c ****     _lv_draw_mask_common_dsc_t * dsc;
 151:lvgl/src/draw/lv_draw_mask.c **** 
 152:lvgl/src/draw/lv_draw_mask.c ****     for(int i = 0; i < ids_count; i++) {
 153:lvgl/src/draw/lv_draw_mask.c ****         int16_t id = ids[i];
 154:lvgl/src/draw/lv_draw_mask.c ****         if(id == LV_MASK_ID_INV) continue;
 155:lvgl/src/draw/lv_draw_mask.c ****         dsc = LV_GC_ROOT(_lv_draw_mask_list[id]).param;
 156:lvgl/src/draw/lv_draw_mask.c ****         if(!dsc) continue;
 157:lvgl/src/draw/lv_draw_mask.c ****         lv_draw_mask_res_t res = LV_DRAW_MASK_RES_FULL_COVER;
 158:lvgl/src/draw/lv_draw_mask.c ****         res = dsc->cb(mask_buf, abs_x, abs_y, len, dsc);
 159:lvgl/src/draw/lv_draw_mask.c ****         if(res == LV_DRAW_MASK_RES_TRANSP) return LV_DRAW_MASK_RES_TRANSP;
 160:lvgl/src/draw/lv_draw_mask.c ****         else if(res == LV_DRAW_MASK_RES_CHANGED) changed = true;
 161:lvgl/src/draw/lv_draw_mask.c ****     }
 162:lvgl/src/draw/lv_draw_mask.c **** 
 163:lvgl/src/draw/lv_draw_mask.c ****     return changed ? LV_DRAW_MASK_RES_CHANGED : LV_DRAW_MASK_RES_FULL_COVER;
 164:lvgl/src/draw/lv_draw_mask.c **** }
 165:lvgl/src/draw/lv_draw_mask.c **** 
 166:lvgl/src/draw/lv_draw_mask.c **** /**
 167:lvgl/src/draw/lv_draw_mask.c ****  * Remove a mask with a given ID
 168:lvgl/src/draw/lv_draw_mask.c ****  * @param id the ID of the mask.  Returned by `lv_draw_mask_add`
 169:lvgl/src/draw/lv_draw_mask.c ****  * @return the parameter of the removed mask.
 170:lvgl/src/draw/lv_draw_mask.c ****  * If more masks have `custom_id` ID then the last mask's parameter will be returned
 171:lvgl/src/draw/lv_draw_mask.c ****  */
 172:lvgl/src/draw/lv_draw_mask.c **** void * lv_draw_mask_remove_id(int16_t id)
 173:lvgl/src/draw/lv_draw_mask.c **** {
 174:lvgl/src/draw/lv_draw_mask.c ****     _lv_draw_mask_common_dsc_t * p = NULL;
 175:lvgl/src/draw/lv_draw_mask.c **** 
 176:lvgl/src/draw/lv_draw_mask.c ****     if(id != LV_MASK_ID_INV) {
 177:lvgl/src/draw/lv_draw_mask.c ****         p = LV_GC_ROOT(_lv_draw_mask_list[id]).param;
 178:lvgl/src/draw/lv_draw_mask.c ****         LV_GC_ROOT(_lv_draw_mask_list[id]).param = NULL;
 179:lvgl/src/draw/lv_draw_mask.c ****         LV_GC_ROOT(_lv_draw_mask_list[id]).custom_id = NULL;
 180:lvgl/src/draw/lv_draw_mask.c ****     }
 181:lvgl/src/draw/lv_draw_mask.c **** 
 182:lvgl/src/draw/lv_draw_mask.c ****     return p;
 183:lvgl/src/draw/lv_draw_mask.c **** }
 184:lvgl/src/draw/lv_draw_mask.c **** 
 185:lvgl/src/draw/lv_draw_mask.c **** /**
 186:lvgl/src/draw/lv_draw_mask.c ****  * Remove all mask with a given custom ID
 187:lvgl/src/draw/lv_draw_mask.c ****  * @param custom_id a pointer used in `lv_draw_mask_add`
 188:lvgl/src/draw/lv_draw_mask.c ****  * @return return the parameter of the removed mask.
 189:lvgl/src/draw/lv_draw_mask.c ****  * If more masks have `custom_id` ID then the last mask's parameter will be returned
 190:lvgl/src/draw/lv_draw_mask.c ****  */
 191:lvgl/src/draw/lv_draw_mask.c **** void * lv_draw_mask_remove_custom(void * custom_id)
 192:lvgl/src/draw/lv_draw_mask.c **** {
 193:lvgl/src/draw/lv_draw_mask.c ****     _lv_draw_mask_common_dsc_t * p = NULL;
 194:lvgl/src/draw/lv_draw_mask.c ****     uint8_t i;
 195:lvgl/src/draw/lv_draw_mask.c ****     for(i = 0; i < _LV_MASK_MAX_NUM; i++) {
 196:lvgl/src/draw/lv_draw_mask.c ****         if(LV_GC_ROOT(_lv_draw_mask_list[i]).custom_id == custom_id) {
 197:lvgl/src/draw/lv_draw_mask.c ****             p = LV_GC_ROOT(_lv_draw_mask_list[i]).param;
 198:lvgl/src/draw/lv_draw_mask.c ****             lv_draw_mask_remove_id(i);
 199:lvgl/src/draw/lv_draw_mask.c ****         }
 200:lvgl/src/draw/lv_draw_mask.c ****     }
 201:lvgl/src/draw/lv_draw_mask.c ****     return p;
ARM GAS  /var/folders/21/t9g5rlb91ys800n5npymflf80000gn/T//cc0CxbBx.s 			page 5


 202:lvgl/src/draw/lv_draw_mask.c **** }
 203:lvgl/src/draw/lv_draw_mask.c **** 
 204:lvgl/src/draw/lv_draw_mask.c **** /**
 205:lvgl/src/draw/lv_draw_mask.c ****  * Free the data from the parameter.
 206:lvgl/src/draw/lv_draw_mask.c ****  * It's called inside `lv_draw_mask_remove_id` and `lv_draw_mask_remove_custom`
 207:lvgl/src/draw/lv_draw_mask.c ****  * Needs to be called only in special cases when the mask is not added by `lv_draw_mask_add`
 208:lvgl/src/draw/lv_draw_mask.c ****  * and not removed by `lv_draw_mask_remove_id` or `lv_draw_mask_remove_custom`
 209:lvgl/src/draw/lv_draw_mask.c ****  * @param p pointer to a mask parameter
 210:lvgl/src/draw/lv_draw_mask.c ****  */
 211:lvgl/src/draw/lv_draw_mask.c **** void lv_draw_mask_free_param(void * p)
 212:lvgl/src/draw/lv_draw_mask.c **** {
 213:lvgl/src/draw/lv_draw_mask.c ****     _lv_draw_mask_common_dsc_t * pdsc = p;
 214:lvgl/src/draw/lv_draw_mask.c ****     if(pdsc->type == LV_DRAW_MASK_TYPE_RADIUS) {
 215:lvgl/src/draw/lv_draw_mask.c ****         lv_draw_mask_radius_param_t * radius_p = (lv_draw_mask_radius_param_t *) p;
 216:lvgl/src/draw/lv_draw_mask.c ****         if(radius_p->circle) {
 217:lvgl/src/draw/lv_draw_mask.c ****             if(radius_p->circle->life < 0) {
 218:lvgl/src/draw/lv_draw_mask.c ****                 lv_mem_free(radius_p->circle->cir_opa);
 219:lvgl/src/draw/lv_draw_mask.c ****                 lv_mem_free(radius_p->circle);
 220:lvgl/src/draw/lv_draw_mask.c ****             }
 221:lvgl/src/draw/lv_draw_mask.c ****             else {
 222:lvgl/src/draw/lv_draw_mask.c ****                 radius_p->circle->used_cnt--;
 223:lvgl/src/draw/lv_draw_mask.c ****             }
 224:lvgl/src/draw/lv_draw_mask.c ****         }
 225:lvgl/src/draw/lv_draw_mask.c ****     }
 226:lvgl/src/draw/lv_draw_mask.c ****     else if(pdsc->type == LV_DRAW_MASK_TYPE_POLYGON) {
 227:lvgl/src/draw/lv_draw_mask.c ****         lv_draw_mask_polygon_param_t * poly_p = (lv_draw_mask_polygon_param_t *) p;
 228:lvgl/src/draw/lv_draw_mask.c ****         lv_mem_free(poly_p->cfg.points);
 229:lvgl/src/draw/lv_draw_mask.c ****     }
 230:lvgl/src/draw/lv_draw_mask.c **** }
 231:lvgl/src/draw/lv_draw_mask.c **** 
 232:lvgl/src/draw/lv_draw_mask.c **** void _lv_draw_mask_cleanup(void)
 233:lvgl/src/draw/lv_draw_mask.c **** {
 234:lvgl/src/draw/lv_draw_mask.c ****     uint8_t i;
 235:lvgl/src/draw/lv_draw_mask.c ****     for(i = 0; i < LV_CIRCLE_CACHE_SIZE; i++) {
 236:lvgl/src/draw/lv_draw_mask.c ****         if(LV_GC_ROOT(_lv_circle_cache[i]).buf) {
 237:lvgl/src/draw/lv_draw_mask.c ****             lv_mem_free(LV_GC_ROOT(_lv_circle_cache[i]).buf);
 238:lvgl/src/draw/lv_draw_mask.c ****         }
 239:lvgl/src/draw/lv_draw_mask.c ****         lv_memset_00(&LV_GC_ROOT(_lv_circle_cache[i]), sizeof(LV_GC_ROOT(_lv_circle_cache[i])));
 240:lvgl/src/draw/lv_draw_mask.c ****     }
 241:lvgl/src/draw/lv_draw_mask.c **** }
 242:lvgl/src/draw/lv_draw_mask.c **** 
 243:lvgl/src/draw/lv_draw_mask.c **** /**
 244:lvgl/src/draw/lv_draw_mask.c ****  * Count the currently added masks
 245:lvgl/src/draw/lv_draw_mask.c ****  * @return number of active masks
 246:lvgl/src/draw/lv_draw_mask.c ****  */
 247:lvgl/src/draw/lv_draw_mask.c **** uint8_t LV_ATTRIBUTE_FAST_MEM lv_draw_mask_get_cnt(void)
 248:lvgl/src/draw/lv_draw_mask.c **** {
 249:lvgl/src/draw/lv_draw_mask.c ****     uint8_t cnt = 0;
 250:lvgl/src/draw/lv_draw_mask.c ****     uint8_t i;
 251:lvgl/src/draw/lv_draw_mask.c ****     for(i = 0; i < _LV_MASK_MAX_NUM; i++) {
 252:lvgl/src/draw/lv_draw_mask.c ****         if(LV_GC_ROOT(_lv_draw_mask_list[i]).param) cnt++;
 253:lvgl/src/draw/lv_draw_mask.c ****     }
 254:lvgl/src/draw/lv_draw_mask.c ****     return cnt;
 255:lvgl/src/draw/lv_draw_mask.c **** }
 256:lvgl/src/draw/lv_draw_mask.c **** 
 257:lvgl/src/draw/lv_draw_mask.c **** bool lv_draw_mask_is_any(const lv_area_t * a)
 258:lvgl/src/draw/lv_draw_mask.c **** {
ARM GAS  /var/folders/21/t9g5rlb91ys800n5npymflf80000gn/T//cc0CxbBx.s 			page 6


 259:lvgl/src/draw/lv_draw_mask.c ****     if(a == NULL) return LV_GC_ROOT(_lv_draw_mask_list[0]).param ? true : false;
 260:lvgl/src/draw/lv_draw_mask.c **** 
 261:lvgl/src/draw/lv_draw_mask.c ****     uint8_t i;
 262:lvgl/src/draw/lv_draw_mask.c ****     for(i = 0; i < _LV_MASK_MAX_NUM; i++) {
 263:lvgl/src/draw/lv_draw_mask.c ****         _lv_draw_mask_common_dsc_t * comm_param = LV_GC_ROOT(_lv_draw_mask_list[i]).param;
 264:lvgl/src/draw/lv_draw_mask.c ****         if(comm_param == NULL) continue;
 265:lvgl/src/draw/lv_draw_mask.c ****         if(comm_param->type == LV_DRAW_MASK_TYPE_RADIUS) {
 266:lvgl/src/draw/lv_draw_mask.c ****             lv_draw_mask_radius_param_t * radius_param = LV_GC_ROOT(_lv_draw_mask_list[i]).param;
 267:lvgl/src/draw/lv_draw_mask.c ****             if(radius_param->cfg.outer) {
 268:lvgl/src/draw/lv_draw_mask.c ****                 if(!_lv_area_is_out(a, &radius_param->cfg.rect, radius_param->cfg.radius)) return t
 269:lvgl/src/draw/lv_draw_mask.c ****             }
 270:lvgl/src/draw/lv_draw_mask.c ****             else {
 271:lvgl/src/draw/lv_draw_mask.c ****                 if(!_lv_area_is_in(a, &radius_param->cfg.rect, radius_param->cfg.radius)) return tr
 272:lvgl/src/draw/lv_draw_mask.c ****             }
 273:lvgl/src/draw/lv_draw_mask.c ****         }
 274:lvgl/src/draw/lv_draw_mask.c ****         else {
 275:lvgl/src/draw/lv_draw_mask.c ****             return true;
 276:lvgl/src/draw/lv_draw_mask.c ****         }
 277:lvgl/src/draw/lv_draw_mask.c ****     }
 278:lvgl/src/draw/lv_draw_mask.c **** 
 279:lvgl/src/draw/lv_draw_mask.c ****     return false;
 280:lvgl/src/draw/lv_draw_mask.c **** 
 281:lvgl/src/draw/lv_draw_mask.c **** }
 282:lvgl/src/draw/lv_draw_mask.c **** 
 283:lvgl/src/draw/lv_draw_mask.c **** /**
 284:lvgl/src/draw/lv_draw_mask.c ****  *Initialize a line mask from two points.
 285:lvgl/src/draw/lv_draw_mask.c ****  * @param param pointer to a `lv_draw_mask_param_t` to initialize
 286:lvgl/src/draw/lv_draw_mask.c ****  * @param p1x X coordinate of the first point of the line
 287:lvgl/src/draw/lv_draw_mask.c ****  * @param p1y Y coordinate of the first point of the line
 288:lvgl/src/draw/lv_draw_mask.c ****  * @param p2x X coordinate of the second point of the line
 289:lvgl/src/draw/lv_draw_mask.c ****  * @param p2y y coordinate of the second point of the line
 290:lvgl/src/draw/lv_draw_mask.c ****  * @param side and element of `lv_draw_mask_line_side_t` to describe which side to keep.
 291:lvgl/src/draw/lv_draw_mask.c ****  * With `LV_DRAW_MASK_LINE_SIDE_LEFT/RIGHT` and horizontal line all pixels are kept
 292:lvgl/src/draw/lv_draw_mask.c ****  * With `LV_DRAW_MASK_LINE_SIDE_TOP/BOTTOM` and vertical line all pixels are kept
 293:lvgl/src/draw/lv_draw_mask.c ****  */
 294:lvgl/src/draw/lv_draw_mask.c **** void lv_draw_mask_line_points_init(lv_draw_mask_line_param_t * param, lv_coord_t p1x, lv_coord_t p1
 295:lvgl/src/draw/lv_draw_mask.c ****                                    lv_coord_t p2y, lv_draw_mask_line_side_t side)
 296:lvgl/src/draw/lv_draw_mask.c **** {
 297:lvgl/src/draw/lv_draw_mask.c ****     lv_memset_00(param, sizeof(lv_draw_mask_line_param_t));
 298:lvgl/src/draw/lv_draw_mask.c **** 
 299:lvgl/src/draw/lv_draw_mask.c ****     if(p1y == p2y && side == LV_DRAW_MASK_LINE_SIDE_BOTTOM) {
 300:lvgl/src/draw/lv_draw_mask.c ****         p1y--;
 301:lvgl/src/draw/lv_draw_mask.c ****         p2y--;
 302:lvgl/src/draw/lv_draw_mask.c ****     }
 303:lvgl/src/draw/lv_draw_mask.c **** 
 304:lvgl/src/draw/lv_draw_mask.c ****     if(p1y > p2y) {
 305:lvgl/src/draw/lv_draw_mask.c ****         lv_coord_t t;
 306:lvgl/src/draw/lv_draw_mask.c ****         t = p2x;
 307:lvgl/src/draw/lv_draw_mask.c ****         p2x = p1x;
 308:lvgl/src/draw/lv_draw_mask.c ****         p1x = t;
 309:lvgl/src/draw/lv_draw_mask.c **** 
 310:lvgl/src/draw/lv_draw_mask.c ****         t = p2y;
 311:lvgl/src/draw/lv_draw_mask.c ****         p2y = p1y;
 312:lvgl/src/draw/lv_draw_mask.c ****         p1y = t;
 313:lvgl/src/draw/lv_draw_mask.c ****     }
 314:lvgl/src/draw/lv_draw_mask.c **** 
 315:lvgl/src/draw/lv_draw_mask.c ****     param->cfg.p1.x = p1x;
ARM GAS  /var/folders/21/t9g5rlb91ys800n5npymflf80000gn/T//cc0CxbBx.s 			page 7


 316:lvgl/src/draw/lv_draw_mask.c ****     param->cfg.p1.y = p1y;
 317:lvgl/src/draw/lv_draw_mask.c ****     param->cfg.p2.x = p2x;
 318:lvgl/src/draw/lv_draw_mask.c ****     param->cfg.p2.y = p2y;
 319:lvgl/src/draw/lv_draw_mask.c ****     param->cfg.side = side;
 320:lvgl/src/draw/lv_draw_mask.c **** 
 321:lvgl/src/draw/lv_draw_mask.c ****     param->origo.x = p1x;
 322:lvgl/src/draw/lv_draw_mask.c ****     param->origo.y = p1y;
 323:lvgl/src/draw/lv_draw_mask.c ****     param->flat = (LV_ABS(p2x - p1x) > LV_ABS(p2y - p1y)) ? 1 : 0;
 324:lvgl/src/draw/lv_draw_mask.c ****     param->yx_steep = 0;
 325:lvgl/src/draw/lv_draw_mask.c ****     param->xy_steep = 0;
 326:lvgl/src/draw/lv_draw_mask.c ****     param->dsc.cb = (lv_draw_mask_xcb_t)lv_draw_mask_line;
 327:lvgl/src/draw/lv_draw_mask.c ****     param->dsc.type = LV_DRAW_MASK_TYPE_LINE;
 328:lvgl/src/draw/lv_draw_mask.c **** 
 329:lvgl/src/draw/lv_draw_mask.c ****     int32_t dx = p2x - p1x;
 330:lvgl/src/draw/lv_draw_mask.c ****     int32_t dy = p2y - p1y;
 331:lvgl/src/draw/lv_draw_mask.c **** 
 332:lvgl/src/draw/lv_draw_mask.c ****     if(param->flat) {
 333:lvgl/src/draw/lv_draw_mask.c ****         /*Normalize the steep. Delta x should be relative to delta x = 1024*/
 334:lvgl/src/draw/lv_draw_mask.c ****         int32_t m;
 335:lvgl/src/draw/lv_draw_mask.c **** 
 336:lvgl/src/draw/lv_draw_mask.c ****         if(dx) {
 337:lvgl/src/draw/lv_draw_mask.c ****             m = (1L << 20) / dx;  /*m is multiplier to normalize y (upscaled by 1024)*/
 338:lvgl/src/draw/lv_draw_mask.c ****             param->yx_steep = (m * dy) >> 10;
 339:lvgl/src/draw/lv_draw_mask.c ****         }
 340:lvgl/src/draw/lv_draw_mask.c **** 
 341:lvgl/src/draw/lv_draw_mask.c ****         if(dy) {
 342:lvgl/src/draw/lv_draw_mask.c ****             m = (1L << 20) / dy;  /*m is multiplier to normalize x (upscaled by 1024)*/
 343:lvgl/src/draw/lv_draw_mask.c ****             param->xy_steep = (m * dx) >> 10;
 344:lvgl/src/draw/lv_draw_mask.c ****         }
 345:lvgl/src/draw/lv_draw_mask.c ****         param->steep = param->yx_steep;
 346:lvgl/src/draw/lv_draw_mask.c ****     }
 347:lvgl/src/draw/lv_draw_mask.c ****     else {
 348:lvgl/src/draw/lv_draw_mask.c ****         /*Normalize the steep. Delta y should be relative to delta x = 1024*/
 349:lvgl/src/draw/lv_draw_mask.c ****         int32_t m;
 350:lvgl/src/draw/lv_draw_mask.c **** 
 351:lvgl/src/draw/lv_draw_mask.c ****         if(dy) {
 352:lvgl/src/draw/lv_draw_mask.c ****             m = (1L << 20) / dy;  /*m is multiplier to normalize x (upscaled by 1024)*/
 353:lvgl/src/draw/lv_draw_mask.c ****             param->xy_steep = (m * dx) >> 10;
 354:lvgl/src/draw/lv_draw_mask.c ****         }
 355:lvgl/src/draw/lv_draw_mask.c **** 
 356:lvgl/src/draw/lv_draw_mask.c ****         if(dx) {
 357:lvgl/src/draw/lv_draw_mask.c ****             m = (1L << 20) / dx;  /*m is multiplier to normalize x (upscaled by 1024)*/
 358:lvgl/src/draw/lv_draw_mask.c ****             param->yx_steep = (m * dy) >> 10;
 359:lvgl/src/draw/lv_draw_mask.c ****         }
 360:lvgl/src/draw/lv_draw_mask.c ****         param->steep = param->xy_steep;
 361:lvgl/src/draw/lv_draw_mask.c ****     }
 362:lvgl/src/draw/lv_draw_mask.c **** 
 363:lvgl/src/draw/lv_draw_mask.c ****     if(param->cfg.side == LV_DRAW_MASK_LINE_SIDE_LEFT) param->inv = 0;
 364:lvgl/src/draw/lv_draw_mask.c ****     else if(param->cfg.side == LV_DRAW_MASK_LINE_SIDE_RIGHT) param->inv = 1;
 365:lvgl/src/draw/lv_draw_mask.c ****     else if(param->cfg.side == LV_DRAW_MASK_LINE_SIDE_TOP) {
 366:lvgl/src/draw/lv_draw_mask.c ****         if(param->steep > 0) param->inv = 1;
 367:lvgl/src/draw/lv_draw_mask.c ****         else param->inv = 0;
 368:lvgl/src/draw/lv_draw_mask.c ****     }
 369:lvgl/src/draw/lv_draw_mask.c ****     else if(param->cfg.side == LV_DRAW_MASK_LINE_SIDE_BOTTOM) {
 370:lvgl/src/draw/lv_draw_mask.c ****         if(param->steep > 0) param->inv = 0;
 371:lvgl/src/draw/lv_draw_mask.c ****         else param->inv = 1;
 372:lvgl/src/draw/lv_draw_mask.c ****     }
ARM GAS  /var/folders/21/t9g5rlb91ys800n5npymflf80000gn/T//cc0CxbBx.s 			page 8


 373:lvgl/src/draw/lv_draw_mask.c **** 
 374:lvgl/src/draw/lv_draw_mask.c ****     param->spx = param->steep >> 2;
 375:lvgl/src/draw/lv_draw_mask.c ****     if(param->steep < 0) param->spx = -param->spx;
 376:lvgl/src/draw/lv_draw_mask.c **** }
 377:lvgl/src/draw/lv_draw_mask.c **** 
 378:lvgl/src/draw/lv_draw_mask.c **** /**
 379:lvgl/src/draw/lv_draw_mask.c ****  *Initialize a line mask from a point and an angle.
 380:lvgl/src/draw/lv_draw_mask.c ****  * @param param pointer to a `lv_draw_mask_param_t` to initialize
 381:lvgl/src/draw/lv_draw_mask.c ****  * @param px X coordinate of a point of the line
 382:lvgl/src/draw/lv_draw_mask.c ****  * @param py X coordinate of a point of the line
 383:lvgl/src/draw/lv_draw_mask.c ****  * @param angle right 0 deg, bottom: 90
 384:lvgl/src/draw/lv_draw_mask.c ****  * @param side and element of `lv_draw_mask_line_side_t` to describe which side to keep.
 385:lvgl/src/draw/lv_draw_mask.c ****  * With `LV_DRAW_MASK_LINE_SIDE_LEFT/RIGHT` and horizontal line all pixels are kept
 386:lvgl/src/draw/lv_draw_mask.c ****  * With `LV_DRAW_MASK_LINE_SIDE_TOP/BOTTOM` and vertical line all pixels are kept
 387:lvgl/src/draw/lv_draw_mask.c ****  */
 388:lvgl/src/draw/lv_draw_mask.c **** void lv_draw_mask_line_angle_init(lv_draw_mask_line_param_t * param, lv_coord_t p1x, lv_coord_t py,
 389:lvgl/src/draw/lv_draw_mask.c ****                                   lv_draw_mask_line_side_t side)
 390:lvgl/src/draw/lv_draw_mask.c **** {
 391:lvgl/src/draw/lv_draw_mask.c ****     /*Find an optimal degree.
 392:lvgl/src/draw/lv_draw_mask.c ****      *lv_mask_line_points_init will swap the points to keep the smaller y in p1
 393:lvgl/src/draw/lv_draw_mask.c ****      *Theoretically a line with `angle` or `angle+180` is the same only the points are swapped
 394:lvgl/src/draw/lv_draw_mask.c ****      *Find the degree which keeps the origo in place*/
 395:lvgl/src/draw/lv_draw_mask.c ****     if(angle > 180) angle -= 180; /*> 180 will swap the origo*/
 396:lvgl/src/draw/lv_draw_mask.c **** 
 397:lvgl/src/draw/lv_draw_mask.c ****     int32_t p2x;
 398:lvgl/src/draw/lv_draw_mask.c ****     int32_t p2y;
 399:lvgl/src/draw/lv_draw_mask.c **** 
 400:lvgl/src/draw/lv_draw_mask.c ****     p2x = (lv_trigo_sin(angle + 90) >> 5) + p1x;
 401:lvgl/src/draw/lv_draw_mask.c ****     p2y = (lv_trigo_sin(angle) >> 5) + py;
 402:lvgl/src/draw/lv_draw_mask.c **** 
 403:lvgl/src/draw/lv_draw_mask.c ****     lv_draw_mask_line_points_init(param, p1x, py, p2x, p2y, side);
 404:lvgl/src/draw/lv_draw_mask.c **** }
 405:lvgl/src/draw/lv_draw_mask.c **** 
 406:lvgl/src/draw/lv_draw_mask.c **** /**
 407:lvgl/src/draw/lv_draw_mask.c ****  * Initialize an angle mask.
 408:lvgl/src/draw/lv_draw_mask.c ****  * @param param pointer to a `lv_draw_mask_param_t` to initialize
 409:lvgl/src/draw/lv_draw_mask.c ****  * @param vertex_x X coordinate of the angle vertex (absolute coordinates)
 410:lvgl/src/draw/lv_draw_mask.c ****  * @param vertex_y Y coordinate of the angle vertex (absolute coordinates)
 411:lvgl/src/draw/lv_draw_mask.c ****  * @param start_angle start angle in degrees. 0 deg on the right, 90 deg, on the bottom
 412:lvgl/src/draw/lv_draw_mask.c ****  * @param end_angle end angle
 413:lvgl/src/draw/lv_draw_mask.c ****  */
 414:lvgl/src/draw/lv_draw_mask.c **** void lv_draw_mask_angle_init(lv_draw_mask_angle_param_t * param, lv_coord_t vertex_x, lv_coord_t ve
 415:lvgl/src/draw/lv_draw_mask.c ****                              lv_coord_t start_angle, lv_coord_t end_angle)
 416:lvgl/src/draw/lv_draw_mask.c **** {
 417:lvgl/src/draw/lv_draw_mask.c ****     lv_draw_mask_line_side_t start_side;
 418:lvgl/src/draw/lv_draw_mask.c ****     lv_draw_mask_line_side_t end_side;
 419:lvgl/src/draw/lv_draw_mask.c **** 
 420:lvgl/src/draw/lv_draw_mask.c ****     /*Constrain the input angles*/
 421:lvgl/src/draw/lv_draw_mask.c ****     if(start_angle < 0)
 422:lvgl/src/draw/lv_draw_mask.c ****         start_angle = 0;
 423:lvgl/src/draw/lv_draw_mask.c ****     else if(start_angle > 359)
 424:lvgl/src/draw/lv_draw_mask.c ****         start_angle = 359;
 425:lvgl/src/draw/lv_draw_mask.c **** 
 426:lvgl/src/draw/lv_draw_mask.c ****     if(end_angle < 0)
 427:lvgl/src/draw/lv_draw_mask.c ****         end_angle = 0;
 428:lvgl/src/draw/lv_draw_mask.c ****     else if(end_angle > 359)
 429:lvgl/src/draw/lv_draw_mask.c ****         end_angle = 359;
ARM GAS  /var/folders/21/t9g5rlb91ys800n5npymflf80000gn/T//cc0CxbBx.s 			page 9


 430:lvgl/src/draw/lv_draw_mask.c **** 
 431:lvgl/src/draw/lv_draw_mask.c ****     if(end_angle < start_angle) {
 432:lvgl/src/draw/lv_draw_mask.c ****         param->delta_deg = 360 - start_angle + end_angle;
 433:lvgl/src/draw/lv_draw_mask.c ****     }
 434:lvgl/src/draw/lv_draw_mask.c ****     else {
 435:lvgl/src/draw/lv_draw_mask.c ****         param->delta_deg = LV_ABS(end_angle - start_angle);
 436:lvgl/src/draw/lv_draw_mask.c ****     }
 437:lvgl/src/draw/lv_draw_mask.c **** 
 438:lvgl/src/draw/lv_draw_mask.c ****     param->cfg.start_angle = start_angle;
 439:lvgl/src/draw/lv_draw_mask.c ****     param->cfg.end_angle = end_angle;
 440:lvgl/src/draw/lv_draw_mask.c ****     param->cfg.vertex_p.x = vertex_x;
 441:lvgl/src/draw/lv_draw_mask.c ****     param->cfg.vertex_p.y = vertex_y;
 442:lvgl/src/draw/lv_draw_mask.c ****     param->dsc.cb = (lv_draw_mask_xcb_t)lv_draw_mask_angle;
 443:lvgl/src/draw/lv_draw_mask.c ****     param->dsc.type = LV_DRAW_MASK_TYPE_ANGLE;
 444:lvgl/src/draw/lv_draw_mask.c **** 
 445:lvgl/src/draw/lv_draw_mask.c ****     LV_ASSERT_MSG(start_angle >= 0 && start_angle <= 360, "Unexpected start angle");
 446:lvgl/src/draw/lv_draw_mask.c **** 
 447:lvgl/src/draw/lv_draw_mask.c ****     if(start_angle >= 0 && start_angle < 180) {
 448:lvgl/src/draw/lv_draw_mask.c ****         start_side = LV_DRAW_MASK_LINE_SIDE_LEFT;
 449:lvgl/src/draw/lv_draw_mask.c ****     }
 450:lvgl/src/draw/lv_draw_mask.c ****     else
 451:lvgl/src/draw/lv_draw_mask.c ****         start_side = LV_DRAW_MASK_LINE_SIDE_RIGHT; /*silence compiler*/
 452:lvgl/src/draw/lv_draw_mask.c **** 
 453:lvgl/src/draw/lv_draw_mask.c ****     LV_ASSERT_MSG(end_angle >= 0 && start_angle <= 360, "Unexpected end angle");
 454:lvgl/src/draw/lv_draw_mask.c **** 
 455:lvgl/src/draw/lv_draw_mask.c ****     if(end_angle >= 0 && end_angle < 180) {
 456:lvgl/src/draw/lv_draw_mask.c ****         end_side = LV_DRAW_MASK_LINE_SIDE_RIGHT;
 457:lvgl/src/draw/lv_draw_mask.c ****     }
 458:lvgl/src/draw/lv_draw_mask.c ****     else if(end_angle >= 180 && end_angle < 360) {
 459:lvgl/src/draw/lv_draw_mask.c ****         end_side = LV_DRAW_MASK_LINE_SIDE_LEFT;
 460:lvgl/src/draw/lv_draw_mask.c ****     }
 461:lvgl/src/draw/lv_draw_mask.c ****     else
 462:lvgl/src/draw/lv_draw_mask.c ****         end_side = LV_DRAW_MASK_LINE_SIDE_RIGHT; /*silence compiler*/
 463:lvgl/src/draw/lv_draw_mask.c **** 
 464:lvgl/src/draw/lv_draw_mask.c ****     lv_draw_mask_line_angle_init(&param->start_line, vertex_x, vertex_y, start_angle, start_side);
 465:lvgl/src/draw/lv_draw_mask.c ****     lv_draw_mask_line_angle_init(&param->end_line, vertex_x, vertex_y, end_angle, end_side);
 466:lvgl/src/draw/lv_draw_mask.c **** }
 467:lvgl/src/draw/lv_draw_mask.c **** 
 468:lvgl/src/draw/lv_draw_mask.c **** /**
 469:lvgl/src/draw/lv_draw_mask.c ****  * Initialize a fade mask.
 470:lvgl/src/draw/lv_draw_mask.c ****  * @param param pointer to an `lv_draw_mask_radius_param_t` to initialize
 471:lvgl/src/draw/lv_draw_mask.c ****  * @param rect coordinates of the rectangle to affect (absolute coordinates)
 472:lvgl/src/draw/lv_draw_mask.c ****  * @param radius radius of the rectangle
 473:lvgl/src/draw/lv_draw_mask.c ****  * @param inv true: keep the pixels inside the rectangle; keep the pixels outside of the rectangle
 474:lvgl/src/draw/lv_draw_mask.c ****  */
 475:lvgl/src/draw/lv_draw_mask.c **** void lv_draw_mask_radius_init(lv_draw_mask_radius_param_t * param, const lv_area_t * rect, lv_coord
 476:lvgl/src/draw/lv_draw_mask.c **** {
 477:lvgl/src/draw/lv_draw_mask.c ****     lv_coord_t w = lv_area_get_width(rect);
 478:lvgl/src/draw/lv_draw_mask.c ****     lv_coord_t h = lv_area_get_height(rect);
 479:lvgl/src/draw/lv_draw_mask.c ****     int32_t short_side = LV_MIN(w, h);
 480:lvgl/src/draw/lv_draw_mask.c ****     if(radius > short_side >> 1) radius = short_side >> 1;
 481:lvgl/src/draw/lv_draw_mask.c ****     if(radius < 0) radius = 0;
 482:lvgl/src/draw/lv_draw_mask.c **** 
 483:lvgl/src/draw/lv_draw_mask.c ****     lv_area_copy(&param->cfg.rect, rect);
 484:lvgl/src/draw/lv_draw_mask.c ****     param->cfg.radius = radius;
 485:lvgl/src/draw/lv_draw_mask.c ****     param->cfg.outer = inv ? 1 : 0;
 486:lvgl/src/draw/lv_draw_mask.c ****     param->dsc.cb = (lv_draw_mask_xcb_t)lv_draw_mask_radius;
ARM GAS  /var/folders/21/t9g5rlb91ys800n5npymflf80000gn/T//cc0CxbBx.s 			page 10


 487:lvgl/src/draw/lv_draw_mask.c ****     param->dsc.type = LV_DRAW_MASK_TYPE_RADIUS;
 488:lvgl/src/draw/lv_draw_mask.c **** 
 489:lvgl/src/draw/lv_draw_mask.c ****     if(radius == 0) {
 490:lvgl/src/draw/lv_draw_mask.c ****         param->circle = NULL;
 491:lvgl/src/draw/lv_draw_mask.c ****         return;
 492:lvgl/src/draw/lv_draw_mask.c ****     }
 493:lvgl/src/draw/lv_draw_mask.c **** 
 494:lvgl/src/draw/lv_draw_mask.c ****     uint32_t i;
 495:lvgl/src/draw/lv_draw_mask.c **** 
 496:lvgl/src/draw/lv_draw_mask.c ****     /*Try to reuse a circle cache entry*/
 497:lvgl/src/draw/lv_draw_mask.c ****     for(i = 0; i < LV_CIRCLE_CACHE_SIZE; i++) {
 498:lvgl/src/draw/lv_draw_mask.c ****         if(LV_GC_ROOT(_lv_circle_cache[i]).radius == radius) {
 499:lvgl/src/draw/lv_draw_mask.c ****             LV_GC_ROOT(_lv_circle_cache[i]).used_cnt++;
 500:lvgl/src/draw/lv_draw_mask.c ****             CIRCLE_CACHE_AGING(LV_GC_ROOT(_lv_circle_cache[i]).life, radius);
 501:lvgl/src/draw/lv_draw_mask.c ****             param->circle = &LV_GC_ROOT(_lv_circle_cache[i]);
 502:lvgl/src/draw/lv_draw_mask.c ****             return;
 503:lvgl/src/draw/lv_draw_mask.c ****         }
 504:lvgl/src/draw/lv_draw_mask.c ****     }
 505:lvgl/src/draw/lv_draw_mask.c **** 
 506:lvgl/src/draw/lv_draw_mask.c ****     /*If not found find a free entry with lowest life*/
 507:lvgl/src/draw/lv_draw_mask.c ****     _lv_draw_mask_radius_circle_dsc_t * entry = NULL;
 508:lvgl/src/draw/lv_draw_mask.c ****     for(i = 0; i < LV_CIRCLE_CACHE_SIZE; i++) {
 509:lvgl/src/draw/lv_draw_mask.c ****         if(LV_GC_ROOT(_lv_circle_cache[i]).used_cnt == 0) {
 510:lvgl/src/draw/lv_draw_mask.c ****             if(!entry) entry = &LV_GC_ROOT(_lv_circle_cache[i]);
 511:lvgl/src/draw/lv_draw_mask.c ****             else if(LV_GC_ROOT(_lv_circle_cache[i]).life < entry->life) entry = &LV_GC_ROOT(_lv_cir
 512:lvgl/src/draw/lv_draw_mask.c ****         }
 513:lvgl/src/draw/lv_draw_mask.c ****     }
 514:lvgl/src/draw/lv_draw_mask.c **** 
 515:lvgl/src/draw/lv_draw_mask.c ****     if(!entry) {
 516:lvgl/src/draw/lv_draw_mask.c ****         entry = lv_mem_alloc(sizeof(_lv_draw_mask_radius_circle_dsc_t));
 517:lvgl/src/draw/lv_draw_mask.c ****         LV_ASSERT_MALLOC(entry);
 518:lvgl/src/draw/lv_draw_mask.c ****         lv_memset_00(entry, sizeof(_lv_draw_mask_radius_circle_dsc_t));
 519:lvgl/src/draw/lv_draw_mask.c ****         entry->life = -1;
 520:lvgl/src/draw/lv_draw_mask.c ****     }
 521:lvgl/src/draw/lv_draw_mask.c ****     else {
 522:lvgl/src/draw/lv_draw_mask.c ****         entry->used_cnt++;
 523:lvgl/src/draw/lv_draw_mask.c ****         entry->life = 0;
 524:lvgl/src/draw/lv_draw_mask.c ****         CIRCLE_CACHE_AGING(entry->life, radius);
 525:lvgl/src/draw/lv_draw_mask.c ****     }
 526:lvgl/src/draw/lv_draw_mask.c **** 
 527:lvgl/src/draw/lv_draw_mask.c ****     param->circle = entry;
 528:lvgl/src/draw/lv_draw_mask.c **** 
 529:lvgl/src/draw/lv_draw_mask.c ****     circ_calc_aa4(param->circle, radius);
 530:lvgl/src/draw/lv_draw_mask.c **** }
 531:lvgl/src/draw/lv_draw_mask.c **** 
 532:lvgl/src/draw/lv_draw_mask.c **** /**
 533:lvgl/src/draw/lv_draw_mask.c ****  * Initialize a fade mask.
 534:lvgl/src/draw/lv_draw_mask.c ****  * @param param pointer to a `lv_draw_mask_param_t` to initialize
 535:lvgl/src/draw/lv_draw_mask.c ****  * @param coords coordinates of the area to affect (absolute coordinates)
 536:lvgl/src/draw/lv_draw_mask.c ****  * @param opa_top opacity on the top
 537:lvgl/src/draw/lv_draw_mask.c ****  * @param y_top at which coordinate start to change to opacity to `opa_bottom`
 538:lvgl/src/draw/lv_draw_mask.c ****  * @param opa_bottom opacity at the bottom
 539:lvgl/src/draw/lv_draw_mask.c ****  * @param y_bottom at which coordinate reach `opa_bottom`.
 540:lvgl/src/draw/lv_draw_mask.c ****  */
 541:lvgl/src/draw/lv_draw_mask.c **** void lv_draw_mask_fade_init(lv_draw_mask_fade_param_t * param, const lv_area_t * coords, lv_opa_t o
 542:lvgl/src/draw/lv_draw_mask.c ****                             lv_coord_t y_top,
 543:lvgl/src/draw/lv_draw_mask.c ****                             lv_opa_t opa_bottom, lv_coord_t y_bottom)
ARM GAS  /var/folders/21/t9g5rlb91ys800n5npymflf80000gn/T//cc0CxbBx.s 			page 11


 544:lvgl/src/draw/lv_draw_mask.c **** {
 545:lvgl/src/draw/lv_draw_mask.c ****     lv_area_copy(&param->cfg.coords, coords);
 546:lvgl/src/draw/lv_draw_mask.c ****     param->cfg.opa_top = opa_top;
 547:lvgl/src/draw/lv_draw_mask.c ****     param->cfg.opa_bottom = opa_bottom;
 548:lvgl/src/draw/lv_draw_mask.c ****     param->cfg.y_top = y_top;
 549:lvgl/src/draw/lv_draw_mask.c ****     param->cfg.y_bottom = y_bottom;
 550:lvgl/src/draw/lv_draw_mask.c ****     param->dsc.cb = (lv_draw_mask_xcb_t)lv_draw_mask_fade;
 551:lvgl/src/draw/lv_draw_mask.c ****     param->dsc.type = LV_DRAW_MASK_TYPE_FADE;
 552:lvgl/src/draw/lv_draw_mask.c **** }
 553:lvgl/src/draw/lv_draw_mask.c **** 
 554:lvgl/src/draw/lv_draw_mask.c **** /**
 555:lvgl/src/draw/lv_draw_mask.c ****  * Initialize a map mask.
 556:lvgl/src/draw/lv_draw_mask.c ****  * @param param pointer to a `lv_draw_mask_param_t` to initialize
 557:lvgl/src/draw/lv_draw_mask.c ****  * @param coords coordinates of the map (absolute coordinates)
 558:lvgl/src/draw/lv_draw_mask.c ****  * @param map array of bytes with the mask values
 559:lvgl/src/draw/lv_draw_mask.c ****  */
 560:lvgl/src/draw/lv_draw_mask.c **** void lv_draw_mask_map_init(lv_draw_mask_map_param_t * param, const lv_area_t * coords, const lv_opa
 561:lvgl/src/draw/lv_draw_mask.c **** {
 562:lvgl/src/draw/lv_draw_mask.c ****     lv_area_copy(&param->cfg.coords, coords);
 563:lvgl/src/draw/lv_draw_mask.c ****     param->cfg.map = map;
 564:lvgl/src/draw/lv_draw_mask.c ****     param->dsc.cb = (lv_draw_mask_xcb_t)lv_draw_mask_map;
 565:lvgl/src/draw/lv_draw_mask.c ****     param->dsc.type = LV_DRAW_MASK_TYPE_MAP;
 566:lvgl/src/draw/lv_draw_mask.c **** }
 567:lvgl/src/draw/lv_draw_mask.c **** 
 568:lvgl/src/draw/lv_draw_mask.c **** void lv_draw_mask_polygon_init(lv_draw_mask_polygon_param_t * param, const lv_point_t * points, uin
 569:lvgl/src/draw/lv_draw_mask.c **** {
 570:lvgl/src/draw/lv_draw_mask.c ****     /*Join adjacent points if they are on the same coordinate*/
 571:lvgl/src/draw/lv_draw_mask.c ****     lv_point_t * p = lv_mem_alloc(point_cnt * sizeof(lv_point_t));
 572:lvgl/src/draw/lv_draw_mask.c ****     if(p == NULL) return;
 573:lvgl/src/draw/lv_draw_mask.c ****     uint16_t i;
 574:lvgl/src/draw/lv_draw_mask.c ****     uint16_t pcnt = 0;
 575:lvgl/src/draw/lv_draw_mask.c ****     p[0] = points[0];
 576:lvgl/src/draw/lv_draw_mask.c ****     for(i = 0; i < point_cnt - 1; i++) {
 577:lvgl/src/draw/lv_draw_mask.c ****         if(points[i].x != points[i + 1].x || points[i].y != points[i + 1].y) {
 578:lvgl/src/draw/lv_draw_mask.c ****             p[pcnt] = points[i];
 579:lvgl/src/draw/lv_draw_mask.c ****             pcnt++;
 580:lvgl/src/draw/lv_draw_mask.c ****         }
 581:lvgl/src/draw/lv_draw_mask.c ****     }
 582:lvgl/src/draw/lv_draw_mask.c ****     /*The first and the last points are also adjacent*/
 583:lvgl/src/draw/lv_draw_mask.c ****     if(points[0].x != points[point_cnt - 1].x || points[0].y != points[point_cnt - 1].y) {
 584:lvgl/src/draw/lv_draw_mask.c ****         p[pcnt] = points[point_cnt - 1];
 585:lvgl/src/draw/lv_draw_mask.c ****         pcnt++;
 586:lvgl/src/draw/lv_draw_mask.c ****     }
 587:lvgl/src/draw/lv_draw_mask.c ****     param->cfg.points = p;
 588:lvgl/src/draw/lv_draw_mask.c ****     param->cfg.point_cnt = pcnt;
 589:lvgl/src/draw/lv_draw_mask.c ****     param->dsc.cb = (lv_draw_mask_xcb_t)lv_draw_mask_polygon;
 590:lvgl/src/draw/lv_draw_mask.c ****     param->dsc.type = LV_DRAW_MASK_TYPE_POLYGON;
 591:lvgl/src/draw/lv_draw_mask.c **** }
 592:lvgl/src/draw/lv_draw_mask.c **** 
 593:lvgl/src/draw/lv_draw_mask.c **** /**********************
 594:lvgl/src/draw/lv_draw_mask.c ****  *   STATIC FUNCTIONS
 595:lvgl/src/draw/lv_draw_mask.c ****  **********************/
 596:lvgl/src/draw/lv_draw_mask.c **** 
 597:lvgl/src/draw/lv_draw_mask.c **** static lv_draw_mask_res_t LV_ATTRIBUTE_FAST_MEM lv_draw_mask_line(lv_opa_t * mask_buf, lv_coord_t a
 598:lvgl/src/draw/lv_draw_mask.c ****                                                                   lv_coord_t abs_y, lv_coord_t len,
 599:lvgl/src/draw/lv_draw_mask.c ****                                                                   lv_draw_mask_line_param_t * p)
 600:lvgl/src/draw/lv_draw_mask.c **** {
ARM GAS  /var/folders/21/t9g5rlb91ys800n5npymflf80000gn/T//cc0CxbBx.s 			page 12


 601:lvgl/src/draw/lv_draw_mask.c ****     /*Make to points relative to the vertex*/
 602:lvgl/src/draw/lv_draw_mask.c ****     abs_y -= p->origo.y;
 603:lvgl/src/draw/lv_draw_mask.c ****     abs_x -= p->origo.x;
 604:lvgl/src/draw/lv_draw_mask.c **** 
 605:lvgl/src/draw/lv_draw_mask.c ****     /*Handle special cases*/
 606:lvgl/src/draw/lv_draw_mask.c ****     if(p->steep == 0) {
 607:lvgl/src/draw/lv_draw_mask.c ****         /*Horizontal*/
 608:lvgl/src/draw/lv_draw_mask.c ****         if(p->flat) {
 609:lvgl/src/draw/lv_draw_mask.c ****             /*Non sense: Can't be on the right/left of a horizontal line*/
 610:lvgl/src/draw/lv_draw_mask.c ****             if(p->cfg.side == LV_DRAW_MASK_LINE_SIDE_LEFT ||
 611:lvgl/src/draw/lv_draw_mask.c ****                p->cfg.side == LV_DRAW_MASK_LINE_SIDE_RIGHT) return LV_DRAW_MASK_RES_FULL_COVER;
 612:lvgl/src/draw/lv_draw_mask.c ****             else if(p->cfg.side == LV_DRAW_MASK_LINE_SIDE_TOP && abs_y + 1 < 0) return LV_DRAW_MASK
 613:lvgl/src/draw/lv_draw_mask.c ****             else if(p->cfg.side == LV_DRAW_MASK_LINE_SIDE_BOTTOM && abs_y > 0) return LV_DRAW_MASK_
 614:lvgl/src/draw/lv_draw_mask.c ****             else {
 615:lvgl/src/draw/lv_draw_mask.c ****                 return LV_DRAW_MASK_RES_TRANSP;
 616:lvgl/src/draw/lv_draw_mask.c ****             }
 617:lvgl/src/draw/lv_draw_mask.c ****         }
 618:lvgl/src/draw/lv_draw_mask.c ****         /*Vertical*/
 619:lvgl/src/draw/lv_draw_mask.c ****         else {
 620:lvgl/src/draw/lv_draw_mask.c ****             /*Non sense: Can't be on the top/bottom of a vertical line*/
 621:lvgl/src/draw/lv_draw_mask.c ****             if(p->cfg.side == LV_DRAW_MASK_LINE_SIDE_TOP ||
 622:lvgl/src/draw/lv_draw_mask.c ****                p->cfg.side == LV_DRAW_MASK_LINE_SIDE_BOTTOM) return LV_DRAW_MASK_RES_FULL_COVER;
 623:lvgl/src/draw/lv_draw_mask.c ****             else if(p->cfg.side == LV_DRAW_MASK_LINE_SIDE_RIGHT && abs_x > 0) return LV_DRAW_MASK_R
 624:lvgl/src/draw/lv_draw_mask.c ****             else if(p->cfg.side == LV_DRAW_MASK_LINE_SIDE_LEFT) {
 625:lvgl/src/draw/lv_draw_mask.c ****                 if(abs_x + len < 0) return LV_DRAW_MASK_RES_FULL_COVER;
 626:lvgl/src/draw/lv_draw_mask.c ****                 else {
 627:lvgl/src/draw/lv_draw_mask.c ****                     int32_t k = - abs_x;
 628:lvgl/src/draw/lv_draw_mask.c ****                     if(k < 0) return LV_DRAW_MASK_RES_TRANSP;
 629:lvgl/src/draw/lv_draw_mask.c ****                     if(k >= 0 && k < len) lv_memset_00(&mask_buf[k], len - k);
 630:lvgl/src/draw/lv_draw_mask.c ****                     return  LV_DRAW_MASK_RES_CHANGED;
 631:lvgl/src/draw/lv_draw_mask.c ****                 }
 632:lvgl/src/draw/lv_draw_mask.c ****             }
 633:lvgl/src/draw/lv_draw_mask.c ****             else {
 634:lvgl/src/draw/lv_draw_mask.c ****                 if(abs_x + len < 0) return LV_DRAW_MASK_RES_TRANSP;
 635:lvgl/src/draw/lv_draw_mask.c ****                 else {
 636:lvgl/src/draw/lv_draw_mask.c ****                     int32_t k = - abs_x;
 637:lvgl/src/draw/lv_draw_mask.c ****                     if(k < 0) k = 0;
 638:lvgl/src/draw/lv_draw_mask.c ****                     if(k >= len) return LV_DRAW_MASK_RES_TRANSP;
 639:lvgl/src/draw/lv_draw_mask.c ****                     else if(k >= 0 && k < len) lv_memset_00(&mask_buf[0], k);
 640:lvgl/src/draw/lv_draw_mask.c ****                     return  LV_DRAW_MASK_RES_CHANGED;
 641:lvgl/src/draw/lv_draw_mask.c ****                 }
 642:lvgl/src/draw/lv_draw_mask.c ****             }
 643:lvgl/src/draw/lv_draw_mask.c ****         }
 644:lvgl/src/draw/lv_draw_mask.c ****     }
 645:lvgl/src/draw/lv_draw_mask.c **** 
 646:lvgl/src/draw/lv_draw_mask.c ****     lv_draw_mask_res_t res;
 647:lvgl/src/draw/lv_draw_mask.c ****     if(p->flat) {
 648:lvgl/src/draw/lv_draw_mask.c ****         res = line_mask_flat(mask_buf, abs_x, abs_y, len, p);
 649:lvgl/src/draw/lv_draw_mask.c ****     }
 650:lvgl/src/draw/lv_draw_mask.c ****     else {
 651:lvgl/src/draw/lv_draw_mask.c ****         res = line_mask_steep(mask_buf, abs_x, abs_y, len, p);
 652:lvgl/src/draw/lv_draw_mask.c ****     }
 653:lvgl/src/draw/lv_draw_mask.c **** 
 654:lvgl/src/draw/lv_draw_mask.c ****     return res;
 655:lvgl/src/draw/lv_draw_mask.c **** }
 656:lvgl/src/draw/lv_draw_mask.c **** 
 657:lvgl/src/draw/lv_draw_mask.c **** static lv_draw_mask_res_t LV_ATTRIBUTE_FAST_MEM line_mask_flat(lv_opa_t * mask_buf, lv_coord_t abs_
ARM GAS  /var/folders/21/t9g5rlb91ys800n5npymflf80000gn/T//cc0CxbBx.s 			page 13


 658:lvgl/src/draw/lv_draw_mask.c ****                                                                lv_coord_t len,
 659:lvgl/src/draw/lv_draw_mask.c ****                                                                lv_draw_mask_line_param_t * p)
 660:lvgl/src/draw/lv_draw_mask.c **** {
 661:lvgl/src/draw/lv_draw_mask.c **** 
 662:lvgl/src/draw/lv_draw_mask.c ****     int32_t y_at_x;
 663:lvgl/src/draw/lv_draw_mask.c ****     y_at_x = (int32_t)((int32_t)p->yx_steep * abs_x) >> 10;
 664:lvgl/src/draw/lv_draw_mask.c **** 
 665:lvgl/src/draw/lv_draw_mask.c ****     if(p->yx_steep > 0) {
 666:lvgl/src/draw/lv_draw_mask.c ****         if(y_at_x > abs_y) {
 667:lvgl/src/draw/lv_draw_mask.c ****             if(p->inv) {
 668:lvgl/src/draw/lv_draw_mask.c ****                 return LV_DRAW_MASK_RES_FULL_COVER;
 669:lvgl/src/draw/lv_draw_mask.c ****             }
 670:lvgl/src/draw/lv_draw_mask.c ****             else {
 671:lvgl/src/draw/lv_draw_mask.c ****                 return LV_DRAW_MASK_RES_TRANSP;
 672:lvgl/src/draw/lv_draw_mask.c ****             }
 673:lvgl/src/draw/lv_draw_mask.c ****         }
 674:lvgl/src/draw/lv_draw_mask.c ****     }
 675:lvgl/src/draw/lv_draw_mask.c ****     else {
 676:lvgl/src/draw/lv_draw_mask.c ****         if(y_at_x < abs_y) {
 677:lvgl/src/draw/lv_draw_mask.c ****             if(p->inv) {
 678:lvgl/src/draw/lv_draw_mask.c ****                 return LV_DRAW_MASK_RES_FULL_COVER;
 679:lvgl/src/draw/lv_draw_mask.c ****             }
 680:lvgl/src/draw/lv_draw_mask.c ****             else {
 681:lvgl/src/draw/lv_draw_mask.c ****                 return LV_DRAW_MASK_RES_TRANSP;
 682:lvgl/src/draw/lv_draw_mask.c ****             }
 683:lvgl/src/draw/lv_draw_mask.c ****         }
 684:lvgl/src/draw/lv_draw_mask.c ****     }
 685:lvgl/src/draw/lv_draw_mask.c **** 
 686:lvgl/src/draw/lv_draw_mask.c ****     /*At the end of the mask if the limit line is smaller than the mask's y.
 687:lvgl/src/draw/lv_draw_mask.c ****      *Then the mask is in the "good" area*/
 688:lvgl/src/draw/lv_draw_mask.c ****     y_at_x = (int32_t)((int32_t)p->yx_steep * (abs_x + len)) >> 10;
 689:lvgl/src/draw/lv_draw_mask.c ****     if(p->yx_steep > 0) {
 690:lvgl/src/draw/lv_draw_mask.c ****         if(y_at_x < abs_y) {
 691:lvgl/src/draw/lv_draw_mask.c ****             if(p->inv) {
 692:lvgl/src/draw/lv_draw_mask.c ****                 return LV_DRAW_MASK_RES_TRANSP;
 693:lvgl/src/draw/lv_draw_mask.c ****             }
 694:lvgl/src/draw/lv_draw_mask.c ****             else {
 695:lvgl/src/draw/lv_draw_mask.c ****                 return LV_DRAW_MASK_RES_FULL_COVER;
 696:lvgl/src/draw/lv_draw_mask.c ****             }
 697:lvgl/src/draw/lv_draw_mask.c ****         }
 698:lvgl/src/draw/lv_draw_mask.c ****     }
 699:lvgl/src/draw/lv_draw_mask.c ****     else {
 700:lvgl/src/draw/lv_draw_mask.c ****         if(y_at_x > abs_y) {
 701:lvgl/src/draw/lv_draw_mask.c ****             if(p->inv) {
 702:lvgl/src/draw/lv_draw_mask.c ****                 return LV_DRAW_MASK_RES_TRANSP;
 703:lvgl/src/draw/lv_draw_mask.c ****             }
 704:lvgl/src/draw/lv_draw_mask.c ****             else {
 705:lvgl/src/draw/lv_draw_mask.c ****                 return LV_DRAW_MASK_RES_FULL_COVER;
 706:lvgl/src/draw/lv_draw_mask.c ****             }
 707:lvgl/src/draw/lv_draw_mask.c ****         }
 708:lvgl/src/draw/lv_draw_mask.c ****     }
 709:lvgl/src/draw/lv_draw_mask.c **** 
 710:lvgl/src/draw/lv_draw_mask.c ****     int32_t xe;
 711:lvgl/src/draw/lv_draw_mask.c ****     if(p->yx_steep > 0) xe = ((abs_y * 256) * p->xy_steep) >> 10;
 712:lvgl/src/draw/lv_draw_mask.c ****     else xe = (((abs_y + 1) * 256) * p->xy_steep) >> 10;
 713:lvgl/src/draw/lv_draw_mask.c **** 
 714:lvgl/src/draw/lv_draw_mask.c ****     int32_t xei = xe >> 8;
ARM GAS  /var/folders/21/t9g5rlb91ys800n5npymflf80000gn/T//cc0CxbBx.s 			page 14


 715:lvgl/src/draw/lv_draw_mask.c ****     int32_t xef = xe & 0xFF;
 716:lvgl/src/draw/lv_draw_mask.c **** 
 717:lvgl/src/draw/lv_draw_mask.c ****     int32_t px_h;
 718:lvgl/src/draw/lv_draw_mask.c ****     if(xef == 0) px_h = 255;
 719:lvgl/src/draw/lv_draw_mask.c ****     else px_h = 255 - (((255 - xef) * p->spx) >> 8);
 720:lvgl/src/draw/lv_draw_mask.c ****     int32_t k = xei - abs_x;
 721:lvgl/src/draw/lv_draw_mask.c ****     lv_opa_t m;
 722:lvgl/src/draw/lv_draw_mask.c **** 
 723:lvgl/src/draw/lv_draw_mask.c ****     if(xef) {
 724:lvgl/src/draw/lv_draw_mask.c ****         if(k >= 0 && k < len) {
 725:lvgl/src/draw/lv_draw_mask.c ****             m = 255 - (((255 - xef) * (255 - px_h)) >> 9);
 726:lvgl/src/draw/lv_draw_mask.c ****             if(p->inv) m = 255 - m;
 727:lvgl/src/draw/lv_draw_mask.c ****             mask_buf[k] = mask_mix(mask_buf[k], m);
 728:lvgl/src/draw/lv_draw_mask.c ****         }
 729:lvgl/src/draw/lv_draw_mask.c ****         k++;
 730:lvgl/src/draw/lv_draw_mask.c ****     }
 731:lvgl/src/draw/lv_draw_mask.c **** 
 732:lvgl/src/draw/lv_draw_mask.c ****     while(px_h > p->spx) {
 733:lvgl/src/draw/lv_draw_mask.c ****         if(k >= 0 && k < len) {
 734:lvgl/src/draw/lv_draw_mask.c ****             m = px_h - (p->spx >> 1);
 735:lvgl/src/draw/lv_draw_mask.c ****             if(p->inv) m = 255 - m;
 736:lvgl/src/draw/lv_draw_mask.c ****             mask_buf[k] = mask_mix(mask_buf[k], m);
 737:lvgl/src/draw/lv_draw_mask.c ****         }
 738:lvgl/src/draw/lv_draw_mask.c ****         px_h -= p->spx;
 739:lvgl/src/draw/lv_draw_mask.c ****         k++;
 740:lvgl/src/draw/lv_draw_mask.c ****         if(k >= len) break;
 741:lvgl/src/draw/lv_draw_mask.c ****     }
 742:lvgl/src/draw/lv_draw_mask.c **** 
 743:lvgl/src/draw/lv_draw_mask.c ****     if(k < len && k >= 0) {
 744:lvgl/src/draw/lv_draw_mask.c ****         int32_t x_inters = (px_h * p->xy_steep) >> 10;
 745:lvgl/src/draw/lv_draw_mask.c ****         m = (x_inters * px_h) >> 9;
 746:lvgl/src/draw/lv_draw_mask.c ****         if(p->yx_steep < 0) m = 255 - m;
 747:lvgl/src/draw/lv_draw_mask.c ****         if(p->inv) m = 255 - m;
 748:lvgl/src/draw/lv_draw_mask.c ****         mask_buf[k] = mask_mix(mask_buf[k], m);
 749:lvgl/src/draw/lv_draw_mask.c ****     }
 750:lvgl/src/draw/lv_draw_mask.c **** 
 751:lvgl/src/draw/lv_draw_mask.c ****     if(p->inv) {
 752:lvgl/src/draw/lv_draw_mask.c ****         k = xei - abs_x;
 753:lvgl/src/draw/lv_draw_mask.c ****         if(k > len) {
 754:lvgl/src/draw/lv_draw_mask.c ****             return LV_DRAW_MASK_RES_TRANSP;
 755:lvgl/src/draw/lv_draw_mask.c ****         }
 756:lvgl/src/draw/lv_draw_mask.c ****         if(k >= 0) {
 757:lvgl/src/draw/lv_draw_mask.c ****             lv_memset_00(&mask_buf[0], k);
 758:lvgl/src/draw/lv_draw_mask.c ****         }
 759:lvgl/src/draw/lv_draw_mask.c ****     }
 760:lvgl/src/draw/lv_draw_mask.c ****     else {
 761:lvgl/src/draw/lv_draw_mask.c ****         k++;
 762:lvgl/src/draw/lv_draw_mask.c ****         if(k < 0) {
 763:lvgl/src/draw/lv_draw_mask.c ****             return LV_DRAW_MASK_RES_TRANSP;
 764:lvgl/src/draw/lv_draw_mask.c ****         }
 765:lvgl/src/draw/lv_draw_mask.c ****         if(k <= len) {
 766:lvgl/src/draw/lv_draw_mask.c ****             lv_memset_00(&mask_buf[k], len - k);
 767:lvgl/src/draw/lv_draw_mask.c ****         }
 768:lvgl/src/draw/lv_draw_mask.c ****     }
 769:lvgl/src/draw/lv_draw_mask.c **** 
 770:lvgl/src/draw/lv_draw_mask.c ****     return LV_DRAW_MASK_RES_CHANGED;
 771:lvgl/src/draw/lv_draw_mask.c **** }
ARM GAS  /var/folders/21/t9g5rlb91ys800n5npymflf80000gn/T//cc0CxbBx.s 			page 15


 772:lvgl/src/draw/lv_draw_mask.c **** 
 773:lvgl/src/draw/lv_draw_mask.c **** static lv_draw_mask_res_t LV_ATTRIBUTE_FAST_MEM line_mask_steep(lv_opa_t * mask_buf, lv_coord_t abs
 774:lvgl/src/draw/lv_draw_mask.c ****                                                                 lv_coord_t len,
 775:lvgl/src/draw/lv_draw_mask.c ****                                                                 lv_draw_mask_line_param_t * p)
 776:lvgl/src/draw/lv_draw_mask.c **** {
 777:lvgl/src/draw/lv_draw_mask.c ****     int32_t k;
 778:lvgl/src/draw/lv_draw_mask.c ****     int32_t x_at_y;
 779:lvgl/src/draw/lv_draw_mask.c ****     /*At the beginning of the mask if the limit line is greater than the mask's y.
 780:lvgl/src/draw/lv_draw_mask.c ****      *Then the mask is in the "wrong" area*/
 781:lvgl/src/draw/lv_draw_mask.c ****     x_at_y = (int32_t)((int32_t)p->xy_steep * abs_y) >> 10;
 782:lvgl/src/draw/lv_draw_mask.c ****     if(p->xy_steep > 0) x_at_y++;
 783:lvgl/src/draw/lv_draw_mask.c ****     if(x_at_y < abs_x) {
 784:lvgl/src/draw/lv_draw_mask.c ****         if(p->inv) {
 785:lvgl/src/draw/lv_draw_mask.c ****             return LV_DRAW_MASK_RES_FULL_COVER;
 786:lvgl/src/draw/lv_draw_mask.c ****         }
 787:lvgl/src/draw/lv_draw_mask.c ****         else {
 788:lvgl/src/draw/lv_draw_mask.c ****             return LV_DRAW_MASK_RES_TRANSP;
 789:lvgl/src/draw/lv_draw_mask.c ****         }
 790:lvgl/src/draw/lv_draw_mask.c ****     }
 791:lvgl/src/draw/lv_draw_mask.c **** 
 792:lvgl/src/draw/lv_draw_mask.c ****     /*At the end of the mask if the limit line is smaller than the mask's y.
 793:lvgl/src/draw/lv_draw_mask.c ****      *Then the mask is in the "good" area*/
 794:lvgl/src/draw/lv_draw_mask.c ****     x_at_y = (int32_t)((int32_t)p->xy_steep * (abs_y)) >> 10;
 795:lvgl/src/draw/lv_draw_mask.c ****     if(x_at_y > abs_x + len) {
 796:lvgl/src/draw/lv_draw_mask.c ****         if(p->inv) {
 797:lvgl/src/draw/lv_draw_mask.c ****             return LV_DRAW_MASK_RES_TRANSP;
 798:lvgl/src/draw/lv_draw_mask.c ****         }
 799:lvgl/src/draw/lv_draw_mask.c ****         else {
 800:lvgl/src/draw/lv_draw_mask.c ****             return LV_DRAW_MASK_RES_FULL_COVER;
 801:lvgl/src/draw/lv_draw_mask.c ****         }
 802:lvgl/src/draw/lv_draw_mask.c ****     }
 803:lvgl/src/draw/lv_draw_mask.c **** 
 804:lvgl/src/draw/lv_draw_mask.c ****     /*X start*/
 805:lvgl/src/draw/lv_draw_mask.c ****     int32_t xs = ((abs_y * 256) * p->xy_steep) >> 10;
 806:lvgl/src/draw/lv_draw_mask.c ****     int32_t xsi = xs >> 8;
 807:lvgl/src/draw/lv_draw_mask.c ****     int32_t xsf = xs & 0xFF;
 808:lvgl/src/draw/lv_draw_mask.c **** 
 809:lvgl/src/draw/lv_draw_mask.c ****     /*X end*/
 810:lvgl/src/draw/lv_draw_mask.c ****     int32_t xe = (((abs_y + 1) * 256) * p->xy_steep) >> 10;
 811:lvgl/src/draw/lv_draw_mask.c ****     int32_t xei = xe >> 8;
 812:lvgl/src/draw/lv_draw_mask.c ****     int32_t xef = xe & 0xFF;
 813:lvgl/src/draw/lv_draw_mask.c **** 
 814:lvgl/src/draw/lv_draw_mask.c ****     lv_opa_t m;
 815:lvgl/src/draw/lv_draw_mask.c **** 
 816:lvgl/src/draw/lv_draw_mask.c ****     k = xsi - abs_x;
 817:lvgl/src/draw/lv_draw_mask.c ****     if(xsi != xei && (p->xy_steep < 0 && xsf == 0)) {
 818:lvgl/src/draw/lv_draw_mask.c ****         xsf = 0xFF;
 819:lvgl/src/draw/lv_draw_mask.c ****         xsi = xei;
 820:lvgl/src/draw/lv_draw_mask.c ****         k--;
 821:lvgl/src/draw/lv_draw_mask.c ****     }
 822:lvgl/src/draw/lv_draw_mask.c **** 
 823:lvgl/src/draw/lv_draw_mask.c ****     if(xsi == xei) {
 824:lvgl/src/draw/lv_draw_mask.c ****         if(k >= 0 && k < len) {
 825:lvgl/src/draw/lv_draw_mask.c ****             m = (xsf + xef) >> 1;
 826:lvgl/src/draw/lv_draw_mask.c ****             if(p->inv) m = 255 - m;
 827:lvgl/src/draw/lv_draw_mask.c ****             mask_buf[k] = mask_mix(mask_buf[k], m);
 828:lvgl/src/draw/lv_draw_mask.c ****         }
ARM GAS  /var/folders/21/t9g5rlb91ys800n5npymflf80000gn/T//cc0CxbBx.s 			page 16


 829:lvgl/src/draw/lv_draw_mask.c ****         k++;
 830:lvgl/src/draw/lv_draw_mask.c **** 
 831:lvgl/src/draw/lv_draw_mask.c ****         if(p->inv) {
 832:lvgl/src/draw/lv_draw_mask.c ****             k = xsi - abs_x;
 833:lvgl/src/draw/lv_draw_mask.c ****             if(k >= len) {
 834:lvgl/src/draw/lv_draw_mask.c ****                 return LV_DRAW_MASK_RES_TRANSP;
 835:lvgl/src/draw/lv_draw_mask.c ****             }
 836:lvgl/src/draw/lv_draw_mask.c ****             if(k >= 0) lv_memset_00(&mask_buf[0], k);
 837:lvgl/src/draw/lv_draw_mask.c **** 
 838:lvgl/src/draw/lv_draw_mask.c ****         }
 839:lvgl/src/draw/lv_draw_mask.c ****         else {
 840:lvgl/src/draw/lv_draw_mask.c ****             if(k > len) k = len;
 841:lvgl/src/draw/lv_draw_mask.c ****             if(k == 0) return LV_DRAW_MASK_RES_TRANSP;
 842:lvgl/src/draw/lv_draw_mask.c ****             else if(k > 0) lv_memset_00(&mask_buf[k],  len - k);
 843:lvgl/src/draw/lv_draw_mask.c ****         }
 844:lvgl/src/draw/lv_draw_mask.c **** 
 845:lvgl/src/draw/lv_draw_mask.c ****     }
 846:lvgl/src/draw/lv_draw_mask.c ****     else {
 847:lvgl/src/draw/lv_draw_mask.c ****         int32_t y_inters;
 848:lvgl/src/draw/lv_draw_mask.c ****         if(p->xy_steep < 0) {
 849:lvgl/src/draw/lv_draw_mask.c ****             y_inters = (xsf * (-p->yx_steep)) >> 10;
 850:lvgl/src/draw/lv_draw_mask.c ****             if(k >= 0 && k < len) {
 851:lvgl/src/draw/lv_draw_mask.c ****                 m = (y_inters * xsf) >> 9;
 852:lvgl/src/draw/lv_draw_mask.c ****                 if(p->inv) m = 255 - m;
 853:lvgl/src/draw/lv_draw_mask.c ****                 mask_buf[k] = mask_mix(mask_buf[k], m);
 854:lvgl/src/draw/lv_draw_mask.c ****             }
 855:lvgl/src/draw/lv_draw_mask.c ****             k--;
 856:lvgl/src/draw/lv_draw_mask.c **** 
 857:lvgl/src/draw/lv_draw_mask.c ****             int32_t x_inters = ((255 - y_inters) * (-p->xy_steep)) >> 10;
 858:lvgl/src/draw/lv_draw_mask.c **** 
 859:lvgl/src/draw/lv_draw_mask.c ****             if(k >= 0 && k < len) {
 860:lvgl/src/draw/lv_draw_mask.c ****                 m = 255 - (((255 - y_inters) * x_inters) >> 9);
 861:lvgl/src/draw/lv_draw_mask.c ****                 if(p->inv) m = 255 - m;
 862:lvgl/src/draw/lv_draw_mask.c ****                 mask_buf[k] = mask_mix(mask_buf[k], m);
 863:lvgl/src/draw/lv_draw_mask.c ****             }
 864:lvgl/src/draw/lv_draw_mask.c **** 
 865:lvgl/src/draw/lv_draw_mask.c ****             k += 2;
 866:lvgl/src/draw/lv_draw_mask.c **** 
 867:lvgl/src/draw/lv_draw_mask.c ****             if(p->inv) {
 868:lvgl/src/draw/lv_draw_mask.c ****                 k = xsi - abs_x - 1;
 869:lvgl/src/draw/lv_draw_mask.c **** 
 870:lvgl/src/draw/lv_draw_mask.c ****                 if(k > len) k = len;
 871:lvgl/src/draw/lv_draw_mask.c ****                 else if(k > 0) lv_memset_00(&mask_buf[0],  k);
 872:lvgl/src/draw/lv_draw_mask.c **** 
 873:lvgl/src/draw/lv_draw_mask.c ****             }
 874:lvgl/src/draw/lv_draw_mask.c ****             else {
 875:lvgl/src/draw/lv_draw_mask.c ****                 if(k > len) return LV_DRAW_MASK_RES_FULL_COVER;
 876:lvgl/src/draw/lv_draw_mask.c ****                 if(k >= 0) lv_memset_00(&mask_buf[k],  len - k);
 877:lvgl/src/draw/lv_draw_mask.c ****             }
 878:lvgl/src/draw/lv_draw_mask.c **** 
 879:lvgl/src/draw/lv_draw_mask.c ****         }
 880:lvgl/src/draw/lv_draw_mask.c ****         else {
 881:lvgl/src/draw/lv_draw_mask.c ****             y_inters = ((255 - xsf) * p->yx_steep) >> 10;
 882:lvgl/src/draw/lv_draw_mask.c ****             if(k >= 0 && k < len) {
 883:lvgl/src/draw/lv_draw_mask.c ****                 m = 255 - ((y_inters * (255 - xsf)) >> 9);
 884:lvgl/src/draw/lv_draw_mask.c ****                 if(p->inv) m = 255 - m;
 885:lvgl/src/draw/lv_draw_mask.c ****                 mask_buf[k] = mask_mix(mask_buf[k], m);
ARM GAS  /var/folders/21/t9g5rlb91ys800n5npymflf80000gn/T//cc0CxbBx.s 			page 17


 886:lvgl/src/draw/lv_draw_mask.c ****             }
 887:lvgl/src/draw/lv_draw_mask.c **** 
 888:lvgl/src/draw/lv_draw_mask.c ****             k++;
 889:lvgl/src/draw/lv_draw_mask.c **** 
 890:lvgl/src/draw/lv_draw_mask.c ****             int32_t x_inters = ((255 - y_inters) * p->xy_steep) >> 10;
 891:lvgl/src/draw/lv_draw_mask.c ****             if(k >= 0 && k < len) {
 892:lvgl/src/draw/lv_draw_mask.c ****                 m = ((255 - y_inters) * x_inters) >> 9;
 893:lvgl/src/draw/lv_draw_mask.c ****                 if(p->inv) m = 255 - m;
 894:lvgl/src/draw/lv_draw_mask.c ****                 mask_buf[k] = mask_mix(mask_buf[k], m);
 895:lvgl/src/draw/lv_draw_mask.c ****             }
 896:lvgl/src/draw/lv_draw_mask.c ****             k++;
 897:lvgl/src/draw/lv_draw_mask.c **** 
 898:lvgl/src/draw/lv_draw_mask.c ****             if(p->inv) {
 899:lvgl/src/draw/lv_draw_mask.c ****                 k = xsi - abs_x;
 900:lvgl/src/draw/lv_draw_mask.c ****                 if(k > len)  return LV_DRAW_MASK_RES_TRANSP;
 901:lvgl/src/draw/lv_draw_mask.c ****                 if(k >= 0) lv_memset_00(&mask_buf[0],  k);
 902:lvgl/src/draw/lv_draw_mask.c **** 
 903:lvgl/src/draw/lv_draw_mask.c ****             }
 904:lvgl/src/draw/lv_draw_mask.c ****             else {
 905:lvgl/src/draw/lv_draw_mask.c ****                 if(k > len) k = len;
 906:lvgl/src/draw/lv_draw_mask.c ****                 if(k == 0) return LV_DRAW_MASK_RES_TRANSP;
 907:lvgl/src/draw/lv_draw_mask.c ****                 else if(k > 0) lv_memset_00(&mask_buf[k],  len - k);
 908:lvgl/src/draw/lv_draw_mask.c ****             }
 909:lvgl/src/draw/lv_draw_mask.c ****         }
 910:lvgl/src/draw/lv_draw_mask.c ****     }
 911:lvgl/src/draw/lv_draw_mask.c **** 
 912:lvgl/src/draw/lv_draw_mask.c ****     return LV_DRAW_MASK_RES_CHANGED;
 913:lvgl/src/draw/lv_draw_mask.c **** }
 914:lvgl/src/draw/lv_draw_mask.c **** 
 915:lvgl/src/draw/lv_draw_mask.c **** static lv_draw_mask_res_t LV_ATTRIBUTE_FAST_MEM lv_draw_mask_angle(lv_opa_t * mask_buf, lv_coord_t 
 916:lvgl/src/draw/lv_draw_mask.c ****                                                                    lv_coord_t abs_y, lv_coord_t len
 917:lvgl/src/draw/lv_draw_mask.c ****                                                                    lv_draw_mask_angle_param_t * p)
 918:lvgl/src/draw/lv_draw_mask.c **** {
 919:lvgl/src/draw/lv_draw_mask.c ****     int32_t rel_y = abs_y - p->cfg.vertex_p.y;
 920:lvgl/src/draw/lv_draw_mask.c ****     int32_t rel_x = abs_x - p->cfg.vertex_p.x;
 921:lvgl/src/draw/lv_draw_mask.c **** 
 922:lvgl/src/draw/lv_draw_mask.c ****     if(p->cfg.start_angle < 180 && p->cfg.end_angle < 180 &&
 923:lvgl/src/draw/lv_draw_mask.c ****        p->cfg.start_angle != 0  && p->cfg.end_angle != 0 &&
 924:lvgl/src/draw/lv_draw_mask.c ****        p->cfg.start_angle > p->cfg.end_angle) {
 925:lvgl/src/draw/lv_draw_mask.c **** 
 926:lvgl/src/draw/lv_draw_mask.c ****         if(abs_y < p->cfg.vertex_p.y) {
 927:lvgl/src/draw/lv_draw_mask.c ****             return LV_DRAW_MASK_RES_FULL_COVER;
 928:lvgl/src/draw/lv_draw_mask.c ****         }
 929:lvgl/src/draw/lv_draw_mask.c **** 
 930:lvgl/src/draw/lv_draw_mask.c ****         /*Start angle mask can work only from the end of end angle mask*/
 931:lvgl/src/draw/lv_draw_mask.c ****         int32_t end_angle_first = (rel_y * p->end_line.xy_steep) >> 10;
 932:lvgl/src/draw/lv_draw_mask.c ****         int32_t start_angle_last = ((rel_y + 1) * p->start_line.xy_steep) >> 10;
 933:lvgl/src/draw/lv_draw_mask.c **** 
 934:lvgl/src/draw/lv_draw_mask.c ****         /*Do not let the line end cross the vertex else it will affect the opposite part*/
 935:lvgl/src/draw/lv_draw_mask.c ****         if(p->cfg.start_angle > 270 && p->cfg.start_angle <= 359 && start_angle_last < 0) start_ang
 936:lvgl/src/draw/lv_draw_mask.c ****         else if(p->cfg.start_angle > 0 && p->cfg.start_angle <= 90 && start_angle_last < 0) start_a
 937:lvgl/src/draw/lv_draw_mask.c ****         else if(p->cfg.start_angle > 90 && p->cfg.start_angle < 270 && start_angle_last > 0) start_
 938:lvgl/src/draw/lv_draw_mask.c **** 
 939:lvgl/src/draw/lv_draw_mask.c ****         if(p->cfg.end_angle > 270 && p->cfg.end_angle <= 359 && start_angle_last < 0) start_angle_l
 940:lvgl/src/draw/lv_draw_mask.c ****         else if(p->cfg.end_angle > 0 &&   p->cfg.end_angle <= 90 && start_angle_last < 0) start_ang
 941:lvgl/src/draw/lv_draw_mask.c ****         else if(p->cfg.end_angle > 90 &&  p->cfg.end_angle < 270 && start_angle_last > 0) start_ang
 942:lvgl/src/draw/lv_draw_mask.c **** 
ARM GAS  /var/folders/21/t9g5rlb91ys800n5npymflf80000gn/T//cc0CxbBx.s 			page 18


 943:lvgl/src/draw/lv_draw_mask.c ****         int32_t dist = (end_angle_first - start_angle_last) >> 1;
 944:lvgl/src/draw/lv_draw_mask.c **** 
 945:lvgl/src/draw/lv_draw_mask.c ****         lv_draw_mask_res_t res1 = LV_DRAW_MASK_RES_FULL_COVER;
 946:lvgl/src/draw/lv_draw_mask.c ****         lv_draw_mask_res_t res2 = LV_DRAW_MASK_RES_FULL_COVER;
 947:lvgl/src/draw/lv_draw_mask.c **** 
 948:lvgl/src/draw/lv_draw_mask.c ****         int32_t tmp = start_angle_last + dist - rel_x;
 949:lvgl/src/draw/lv_draw_mask.c ****         if(tmp > len) tmp = len;
 950:lvgl/src/draw/lv_draw_mask.c ****         if(tmp > 0) {
 951:lvgl/src/draw/lv_draw_mask.c ****             res1 = lv_draw_mask_line(&mask_buf[0], abs_x, abs_y, tmp, &p->start_line);
 952:lvgl/src/draw/lv_draw_mask.c ****             if(res1 == LV_DRAW_MASK_RES_TRANSP) {
 953:lvgl/src/draw/lv_draw_mask.c ****                 lv_memset_00(&mask_buf[0], tmp);
 954:lvgl/src/draw/lv_draw_mask.c ****             }
 955:lvgl/src/draw/lv_draw_mask.c ****         }
 956:lvgl/src/draw/lv_draw_mask.c **** 
 957:lvgl/src/draw/lv_draw_mask.c ****         if(tmp > len) tmp = len;
 958:lvgl/src/draw/lv_draw_mask.c ****         if(tmp < 0) tmp = 0;
 959:lvgl/src/draw/lv_draw_mask.c ****         res2 = lv_draw_mask_line(&mask_buf[tmp], abs_x + tmp, abs_y, len - tmp, &p->end_line);
 960:lvgl/src/draw/lv_draw_mask.c ****         if(res2 == LV_DRAW_MASK_RES_TRANSP) {
 961:lvgl/src/draw/lv_draw_mask.c ****             lv_memset_00(&mask_buf[tmp], len - tmp);
 962:lvgl/src/draw/lv_draw_mask.c ****         }
 963:lvgl/src/draw/lv_draw_mask.c ****         if(res1 == res2) return res1;
 964:lvgl/src/draw/lv_draw_mask.c ****         else return LV_DRAW_MASK_RES_CHANGED;
 965:lvgl/src/draw/lv_draw_mask.c ****     }
 966:lvgl/src/draw/lv_draw_mask.c ****     else if(p->cfg.start_angle > 180 && p->cfg.end_angle > 180 && p->cfg.start_angle > p->cfg.end_a
 967:lvgl/src/draw/lv_draw_mask.c **** 
 968:lvgl/src/draw/lv_draw_mask.c ****         if(abs_y > p->cfg.vertex_p.y) {
 969:lvgl/src/draw/lv_draw_mask.c ****             return LV_DRAW_MASK_RES_FULL_COVER;
 970:lvgl/src/draw/lv_draw_mask.c ****         }
 971:lvgl/src/draw/lv_draw_mask.c **** 
 972:lvgl/src/draw/lv_draw_mask.c ****         /*Start angle mask can work only from the end of end angle mask*/
 973:lvgl/src/draw/lv_draw_mask.c ****         int32_t end_angle_first = (rel_y * p->end_line.xy_steep) >> 10;
 974:lvgl/src/draw/lv_draw_mask.c ****         int32_t start_angle_last = ((rel_y + 1) * p->start_line.xy_steep) >> 10;
 975:lvgl/src/draw/lv_draw_mask.c **** 
 976:lvgl/src/draw/lv_draw_mask.c ****         /*Do not let the line end cross the vertex else it will affect the opposite part*/
 977:lvgl/src/draw/lv_draw_mask.c ****         if(p->cfg.start_angle > 270 && p->cfg.start_angle <= 359 && start_angle_last < 0) start_ang
 978:lvgl/src/draw/lv_draw_mask.c ****         else if(p->cfg.start_angle > 0 && p->cfg.start_angle <= 90 && start_angle_last < 0) start_a
 979:lvgl/src/draw/lv_draw_mask.c ****         else if(p->cfg.start_angle > 90 && p->cfg.start_angle < 270 && start_angle_last > 0) start_
 980:lvgl/src/draw/lv_draw_mask.c **** 
 981:lvgl/src/draw/lv_draw_mask.c ****         if(p->cfg.end_angle > 270 && p->cfg.end_angle <= 359 && start_angle_last < 0) start_angle_l
 982:lvgl/src/draw/lv_draw_mask.c ****         else if(p->cfg.end_angle > 0 &&   p->cfg.end_angle <= 90 && start_angle_last < 0) start_ang
 983:lvgl/src/draw/lv_draw_mask.c ****         else if(p->cfg.end_angle > 90 &&  p->cfg.end_angle < 270 && start_angle_last > 0) start_ang
 984:lvgl/src/draw/lv_draw_mask.c **** 
 985:lvgl/src/draw/lv_draw_mask.c ****         int32_t dist = (end_angle_first - start_angle_last) >> 1;
 986:lvgl/src/draw/lv_draw_mask.c **** 
 987:lvgl/src/draw/lv_draw_mask.c ****         lv_draw_mask_res_t res1 = LV_DRAW_MASK_RES_FULL_COVER;
 988:lvgl/src/draw/lv_draw_mask.c ****         lv_draw_mask_res_t res2 = LV_DRAW_MASK_RES_FULL_COVER;
 989:lvgl/src/draw/lv_draw_mask.c **** 
 990:lvgl/src/draw/lv_draw_mask.c ****         int32_t tmp = start_angle_last + dist - rel_x;
 991:lvgl/src/draw/lv_draw_mask.c ****         if(tmp > len) tmp = len;
 992:lvgl/src/draw/lv_draw_mask.c ****         if(tmp > 0) {
 993:lvgl/src/draw/lv_draw_mask.c ****             res1 = lv_draw_mask_line(&mask_buf[0], abs_x, abs_y, tmp, (lv_draw_mask_line_param_t *)
 994:lvgl/src/draw/lv_draw_mask.c ****             if(res1 == LV_DRAW_MASK_RES_TRANSP) {
 995:lvgl/src/draw/lv_draw_mask.c ****                 lv_memset_00(&mask_buf[0], tmp);
 996:lvgl/src/draw/lv_draw_mask.c ****             }
 997:lvgl/src/draw/lv_draw_mask.c ****         }
 998:lvgl/src/draw/lv_draw_mask.c **** 
 999:lvgl/src/draw/lv_draw_mask.c ****         if(tmp > len) tmp = len;
ARM GAS  /var/folders/21/t9g5rlb91ys800n5npymflf80000gn/T//cc0CxbBx.s 			page 19


1000:lvgl/src/draw/lv_draw_mask.c ****         if(tmp < 0) tmp = 0;
1001:lvgl/src/draw/lv_draw_mask.c ****         res2 = lv_draw_mask_line(&mask_buf[tmp], abs_x + tmp, abs_y, len - tmp, (lv_draw_mask_line_
1002:lvgl/src/draw/lv_draw_mask.c ****         if(res2 == LV_DRAW_MASK_RES_TRANSP) {
1003:lvgl/src/draw/lv_draw_mask.c ****             lv_memset_00(&mask_buf[tmp], len - tmp);
1004:lvgl/src/draw/lv_draw_mask.c ****         }
1005:lvgl/src/draw/lv_draw_mask.c ****         if(res1 == res2) return res1;
1006:lvgl/src/draw/lv_draw_mask.c ****         else return LV_DRAW_MASK_RES_CHANGED;
1007:lvgl/src/draw/lv_draw_mask.c ****     }
1008:lvgl/src/draw/lv_draw_mask.c ****     else  {
1009:lvgl/src/draw/lv_draw_mask.c **** 
1010:lvgl/src/draw/lv_draw_mask.c ****         lv_draw_mask_res_t res1 = LV_DRAW_MASK_RES_FULL_COVER;
1011:lvgl/src/draw/lv_draw_mask.c ****         lv_draw_mask_res_t res2 = LV_DRAW_MASK_RES_FULL_COVER;
1012:lvgl/src/draw/lv_draw_mask.c **** 
1013:lvgl/src/draw/lv_draw_mask.c ****         if(p->cfg.start_angle == 180) {
1014:lvgl/src/draw/lv_draw_mask.c ****             if(abs_y < p->cfg.vertex_p.y) res1 = LV_DRAW_MASK_RES_FULL_COVER;
1015:lvgl/src/draw/lv_draw_mask.c ****             else res1 = LV_DRAW_MASK_RES_UNKNOWN;
1016:lvgl/src/draw/lv_draw_mask.c ****         }
1017:lvgl/src/draw/lv_draw_mask.c ****         else if(p->cfg.start_angle == 0) {
1018:lvgl/src/draw/lv_draw_mask.c ****             if(abs_y < p->cfg.vertex_p.y) res1 = LV_DRAW_MASK_RES_UNKNOWN;
1019:lvgl/src/draw/lv_draw_mask.c ****             else res1 = LV_DRAW_MASK_RES_FULL_COVER;
1020:lvgl/src/draw/lv_draw_mask.c ****         }
1021:lvgl/src/draw/lv_draw_mask.c ****         else if((p->cfg.start_angle < 180 && abs_y < p->cfg.vertex_p.y) ||
1022:lvgl/src/draw/lv_draw_mask.c ****                 (p->cfg.start_angle > 180 && abs_y >= p->cfg.vertex_p.y)) {
1023:lvgl/src/draw/lv_draw_mask.c ****             res1 = LV_DRAW_MASK_RES_UNKNOWN;
1024:lvgl/src/draw/lv_draw_mask.c ****         }
1025:lvgl/src/draw/lv_draw_mask.c ****         else  {
1026:lvgl/src/draw/lv_draw_mask.c ****             res1 = lv_draw_mask_line(mask_buf, abs_x, abs_y, len, &p->start_line);
1027:lvgl/src/draw/lv_draw_mask.c ****         }
1028:lvgl/src/draw/lv_draw_mask.c **** 
1029:lvgl/src/draw/lv_draw_mask.c ****         if(p->cfg.end_angle == 180) {
1030:lvgl/src/draw/lv_draw_mask.c ****             if(abs_y < p->cfg.vertex_p.y) res2 = LV_DRAW_MASK_RES_UNKNOWN;
1031:lvgl/src/draw/lv_draw_mask.c ****             else res2 = LV_DRAW_MASK_RES_FULL_COVER;
1032:lvgl/src/draw/lv_draw_mask.c ****         }
1033:lvgl/src/draw/lv_draw_mask.c ****         else if(p->cfg.end_angle == 0) {
1034:lvgl/src/draw/lv_draw_mask.c ****             if(abs_y < p->cfg.vertex_p.y) res2 = LV_DRAW_MASK_RES_FULL_COVER;
1035:lvgl/src/draw/lv_draw_mask.c ****             else res2 = LV_DRAW_MASK_RES_UNKNOWN;
1036:lvgl/src/draw/lv_draw_mask.c ****         }
1037:lvgl/src/draw/lv_draw_mask.c ****         else if((p->cfg.end_angle < 180 && abs_y < p->cfg.vertex_p.y) ||
1038:lvgl/src/draw/lv_draw_mask.c ****                 (p->cfg.end_angle > 180 && abs_y >= p->cfg.vertex_p.y)) {
1039:lvgl/src/draw/lv_draw_mask.c ****             res2 = LV_DRAW_MASK_RES_UNKNOWN;
1040:lvgl/src/draw/lv_draw_mask.c ****         }
1041:lvgl/src/draw/lv_draw_mask.c ****         else {
1042:lvgl/src/draw/lv_draw_mask.c ****             res2 = lv_draw_mask_line(mask_buf, abs_x, abs_y, len, &p->end_line);
1043:lvgl/src/draw/lv_draw_mask.c ****         }
1044:lvgl/src/draw/lv_draw_mask.c **** 
1045:lvgl/src/draw/lv_draw_mask.c ****         if(res1 == LV_DRAW_MASK_RES_TRANSP || res2 == LV_DRAW_MASK_RES_TRANSP) return LV_DRAW_MASK_
1046:lvgl/src/draw/lv_draw_mask.c ****         else if(res1 == LV_DRAW_MASK_RES_UNKNOWN && res2 == LV_DRAW_MASK_RES_UNKNOWN) return LV_DRA
1047:lvgl/src/draw/lv_draw_mask.c ****         else if(res1 == LV_DRAW_MASK_RES_FULL_COVER &&  res2 == LV_DRAW_MASK_RES_FULL_COVER) return
1048:lvgl/src/draw/lv_draw_mask.c ****         else return LV_DRAW_MASK_RES_CHANGED;
1049:lvgl/src/draw/lv_draw_mask.c ****     }
1050:lvgl/src/draw/lv_draw_mask.c **** }
1051:lvgl/src/draw/lv_draw_mask.c **** 
1052:lvgl/src/draw/lv_draw_mask.c **** static lv_draw_mask_res_t LV_ATTRIBUTE_FAST_MEM lv_draw_mask_radius(lv_opa_t * mask_buf, lv_coord_t
1053:lvgl/src/draw/lv_draw_mask.c ****                                                                     lv_coord_t abs_y, lv_coord_t le
1054:lvgl/src/draw/lv_draw_mask.c ****                                                                     lv_draw_mask_radius_param_t * p
1055:lvgl/src/draw/lv_draw_mask.c **** {
1056:lvgl/src/draw/lv_draw_mask.c ****     bool outer = p->cfg.outer;
ARM GAS  /var/folders/21/t9g5rlb91ys800n5npymflf80000gn/T//cc0CxbBx.s 			page 20


1057:lvgl/src/draw/lv_draw_mask.c ****     int32_t radius = p->cfg.radius;
1058:lvgl/src/draw/lv_draw_mask.c ****     lv_area_t rect;
1059:lvgl/src/draw/lv_draw_mask.c ****     lv_area_copy(&rect, &p->cfg.rect);
1060:lvgl/src/draw/lv_draw_mask.c **** 
1061:lvgl/src/draw/lv_draw_mask.c ****     if(outer == false) {
1062:lvgl/src/draw/lv_draw_mask.c ****         if((abs_y < rect.y1 || abs_y > rect.y2)) {
1063:lvgl/src/draw/lv_draw_mask.c ****             return LV_DRAW_MASK_RES_TRANSP;
1064:lvgl/src/draw/lv_draw_mask.c ****         }
1065:lvgl/src/draw/lv_draw_mask.c ****     }
1066:lvgl/src/draw/lv_draw_mask.c ****     else {
1067:lvgl/src/draw/lv_draw_mask.c ****         if(abs_y < rect.y1 || abs_y > rect.y2) {
1068:lvgl/src/draw/lv_draw_mask.c ****             return LV_DRAW_MASK_RES_FULL_COVER;
1069:lvgl/src/draw/lv_draw_mask.c ****         }
1070:lvgl/src/draw/lv_draw_mask.c ****     }
1071:lvgl/src/draw/lv_draw_mask.c **** 
1072:lvgl/src/draw/lv_draw_mask.c ****     if((abs_x >= rect.x1 + radius && abs_x + len <= rect.x2 - radius) ||
1073:lvgl/src/draw/lv_draw_mask.c ****        (abs_y >= rect.y1 + radius && abs_y <= rect.y2 - radius)) {
1074:lvgl/src/draw/lv_draw_mask.c ****         if(outer == false) {
1075:lvgl/src/draw/lv_draw_mask.c ****             /*Remove the edges*/
1076:lvgl/src/draw/lv_draw_mask.c ****             int32_t last = rect.x1 - abs_x;
1077:lvgl/src/draw/lv_draw_mask.c ****             if(last > len) return LV_DRAW_MASK_RES_TRANSP;
1078:lvgl/src/draw/lv_draw_mask.c ****             if(last >= 0) {
1079:lvgl/src/draw/lv_draw_mask.c ****                 lv_memset_00(&mask_buf[0], last);
1080:lvgl/src/draw/lv_draw_mask.c ****             }
1081:lvgl/src/draw/lv_draw_mask.c **** 
1082:lvgl/src/draw/lv_draw_mask.c ****             int32_t first = rect.x2 - abs_x + 1;
1083:lvgl/src/draw/lv_draw_mask.c ****             if(first <= 0) return LV_DRAW_MASK_RES_TRANSP;
1084:lvgl/src/draw/lv_draw_mask.c ****             else if(first < len) {
1085:lvgl/src/draw/lv_draw_mask.c ****                 lv_memset_00(&mask_buf[first], len - first);
1086:lvgl/src/draw/lv_draw_mask.c ****             }
1087:lvgl/src/draw/lv_draw_mask.c ****             if(last == 0 && first == len) return LV_DRAW_MASK_RES_FULL_COVER;
1088:lvgl/src/draw/lv_draw_mask.c ****             else return LV_DRAW_MASK_RES_CHANGED;
1089:lvgl/src/draw/lv_draw_mask.c ****         }
1090:lvgl/src/draw/lv_draw_mask.c ****         else {
1091:lvgl/src/draw/lv_draw_mask.c ****             int32_t first = rect.x1 - abs_x;
1092:lvgl/src/draw/lv_draw_mask.c ****             if(first < 0) first = 0;
1093:lvgl/src/draw/lv_draw_mask.c ****             if(first <= len) {
1094:lvgl/src/draw/lv_draw_mask.c ****                 int32_t last = rect.x2 - abs_x - first + 1;
1095:lvgl/src/draw/lv_draw_mask.c ****                 if(first + last > len) last = len - first;
1096:lvgl/src/draw/lv_draw_mask.c ****                 if(last >= 0) {
1097:lvgl/src/draw/lv_draw_mask.c ****                     lv_memset_00(&mask_buf[first], last);
1098:lvgl/src/draw/lv_draw_mask.c ****                 }
1099:lvgl/src/draw/lv_draw_mask.c ****             }
1100:lvgl/src/draw/lv_draw_mask.c ****         }
1101:lvgl/src/draw/lv_draw_mask.c ****         return LV_DRAW_MASK_RES_CHANGED;
1102:lvgl/src/draw/lv_draw_mask.c ****     }
1103:lvgl/src/draw/lv_draw_mask.c ****     //    printf("exec: x:%d.. %d, y:%d: r:%d, %s\n", abs_x, abs_x + len - 1, abs_y, p->cfg.radius,
1104:lvgl/src/draw/lv_draw_mask.c **** 
1105:lvgl/src/draw/lv_draw_mask.c ****     //    if( abs_x == 276 && abs_x + len - 1 == 479 && abs_y == 63 && p->cfg.radius == 5 && p->cfg
1106:lvgl/src/draw/lv_draw_mask.c ****     //        char x = 0;
1107:lvgl/src/draw/lv_draw_mask.c ****     //    }
1108:lvgl/src/draw/lv_draw_mask.c ****     //exec: x:276.. 479, y:63: r:5, inv)
1109:lvgl/src/draw/lv_draw_mask.c **** 
1110:lvgl/src/draw/lv_draw_mask.c ****     int32_t k = rect.x1 - abs_x; /*First relevant coordinate on the of the mask*/
1111:lvgl/src/draw/lv_draw_mask.c ****     int32_t w = lv_area_get_width(&rect);
1112:lvgl/src/draw/lv_draw_mask.c ****     int32_t h = lv_area_get_height(&rect);
1113:lvgl/src/draw/lv_draw_mask.c ****     abs_x -= rect.x1;
ARM GAS  /var/folders/21/t9g5rlb91ys800n5npymflf80000gn/T//cc0CxbBx.s 			page 21


1114:lvgl/src/draw/lv_draw_mask.c ****     abs_y -= rect.y1;
1115:lvgl/src/draw/lv_draw_mask.c **** 
1116:lvgl/src/draw/lv_draw_mask.c ****     lv_coord_t aa_len;
1117:lvgl/src/draw/lv_draw_mask.c ****     lv_coord_t x_start;
1118:lvgl/src/draw/lv_draw_mask.c ****     lv_coord_t cir_y;
1119:lvgl/src/draw/lv_draw_mask.c ****     if(abs_y < radius) {
1120:lvgl/src/draw/lv_draw_mask.c ****         cir_y = radius - abs_y - 1;
1121:lvgl/src/draw/lv_draw_mask.c ****     }
1122:lvgl/src/draw/lv_draw_mask.c ****     else {
1123:lvgl/src/draw/lv_draw_mask.c ****         cir_y = abs_y - (h - radius);
1124:lvgl/src/draw/lv_draw_mask.c ****     }
1125:lvgl/src/draw/lv_draw_mask.c ****     lv_opa_t * aa_opa = get_next_line(p->circle, cir_y, &aa_len, &x_start);
1126:lvgl/src/draw/lv_draw_mask.c ****     lv_coord_t cir_x_right = k + w - radius + x_start;
1127:lvgl/src/draw/lv_draw_mask.c ****     lv_coord_t cir_x_left = k + radius - x_start - 1;
1128:lvgl/src/draw/lv_draw_mask.c ****     lv_coord_t i;
1129:lvgl/src/draw/lv_draw_mask.c **** 
1130:lvgl/src/draw/lv_draw_mask.c ****     if(outer == false) {
1131:lvgl/src/draw/lv_draw_mask.c ****         for(i = 0; i < aa_len; i++) {
1132:lvgl/src/draw/lv_draw_mask.c ****             lv_opa_t opa = aa_opa[aa_len - i - 1];
1133:lvgl/src/draw/lv_draw_mask.c ****             if(cir_x_right + i >= 0 && cir_x_right + i < len) {
1134:lvgl/src/draw/lv_draw_mask.c ****                 mask_buf[cir_x_right + i] = mask_mix(opa, mask_buf[cir_x_right + i]);
1135:lvgl/src/draw/lv_draw_mask.c ****             }
1136:lvgl/src/draw/lv_draw_mask.c ****             if(cir_x_left - i >= 0 && cir_x_left - i < len) {
1137:lvgl/src/draw/lv_draw_mask.c ****                 mask_buf[cir_x_left - i] = mask_mix(opa, mask_buf[cir_x_left - i]);
1138:lvgl/src/draw/lv_draw_mask.c ****             }
1139:lvgl/src/draw/lv_draw_mask.c ****         }
1140:lvgl/src/draw/lv_draw_mask.c **** 
1141:lvgl/src/draw/lv_draw_mask.c ****         /*Clean the right side*/
1142:lvgl/src/draw/lv_draw_mask.c ****         cir_x_right = LV_CLAMP(0, cir_x_right + i, len);
1143:lvgl/src/draw/lv_draw_mask.c ****         lv_memset_00(&mask_buf[cir_x_right], len - cir_x_right);
1144:lvgl/src/draw/lv_draw_mask.c **** 
1145:lvgl/src/draw/lv_draw_mask.c ****         /*Clean the left side*/
1146:lvgl/src/draw/lv_draw_mask.c ****         cir_x_left = LV_CLAMP(0, cir_x_left - aa_len + 1, len);
1147:lvgl/src/draw/lv_draw_mask.c ****         lv_memset_00(&mask_buf[0], cir_x_left);
1148:lvgl/src/draw/lv_draw_mask.c ****     }
1149:lvgl/src/draw/lv_draw_mask.c ****     else {
1150:lvgl/src/draw/lv_draw_mask.c ****         for(i = 0; i < aa_len; i++) {
1151:lvgl/src/draw/lv_draw_mask.c ****             lv_opa_t opa = 255 - (aa_opa[aa_len - 1 - i]);
1152:lvgl/src/draw/lv_draw_mask.c ****             if(cir_x_right + i >= 0 && cir_x_right + i < len) {
1153:lvgl/src/draw/lv_draw_mask.c ****                 mask_buf[cir_x_right + i] = mask_mix(opa, mask_buf[cir_x_right + i]);
1154:lvgl/src/draw/lv_draw_mask.c ****             }
1155:lvgl/src/draw/lv_draw_mask.c ****             if(cir_x_left - i >= 0 && cir_x_left - i < len) {
1156:lvgl/src/draw/lv_draw_mask.c ****                 mask_buf[cir_x_left - i] = mask_mix(opa, mask_buf[cir_x_left - i]);
1157:lvgl/src/draw/lv_draw_mask.c ****             }
1158:lvgl/src/draw/lv_draw_mask.c ****         }
1159:lvgl/src/draw/lv_draw_mask.c **** 
1160:lvgl/src/draw/lv_draw_mask.c ****         lv_coord_t clr_start = LV_CLAMP(0, cir_x_left + 1, len);
1161:lvgl/src/draw/lv_draw_mask.c ****         lv_coord_t clr_len = LV_CLAMP(0, cir_x_right - clr_start, len - clr_start);
1162:lvgl/src/draw/lv_draw_mask.c ****         lv_memset_00(&mask_buf[clr_start], clr_len);
1163:lvgl/src/draw/lv_draw_mask.c ****     }
1164:lvgl/src/draw/lv_draw_mask.c **** 
1165:lvgl/src/draw/lv_draw_mask.c ****     return LV_DRAW_MASK_RES_CHANGED;
1166:lvgl/src/draw/lv_draw_mask.c **** }
1167:lvgl/src/draw/lv_draw_mask.c **** 
1168:lvgl/src/draw/lv_draw_mask.c **** static lv_draw_mask_res_t LV_ATTRIBUTE_FAST_MEM lv_draw_mask_fade(lv_opa_t * mask_buf, lv_coord_t a
1169:lvgl/src/draw/lv_draw_mask.c ****                                                                   lv_coord_t abs_y, lv_coord_t len,
1170:lvgl/src/draw/lv_draw_mask.c ****                                                                   lv_draw_mask_fade_param_t * p)
ARM GAS  /var/folders/21/t9g5rlb91ys800n5npymflf80000gn/T//cc0CxbBx.s 			page 22


1171:lvgl/src/draw/lv_draw_mask.c **** {
  29              		.loc 1 1171 1 view -0
  30              		.cfi_startproc
  31              		@ args = 4, pretend = 0, frame = 0
  32              		@ frame_needed = 0, uses_anonymous_args = 0
  33              		.loc 1 1171 1 is_stmt 0 view .LVU1
  34 0000 70B5     		push	{r4, r5, r6, lr}
  35              	.LCFI0:
  36              		.cfi_def_cfa_offset 16
  37              		.cfi_offset 4, -16
  38              		.cfi_offset 5, -12
  39              		.cfi_offset 6, -8
  40              		.cfi_offset 14, -4
  41 0002 049C     		ldr	r4, [sp, #16]
1172:lvgl/src/draw/lv_draw_mask.c ****     if(abs_y < p->cfg.coords.y1) return LV_DRAW_MASK_RES_FULL_COVER;
  42              		.loc 1 1172 5 is_stmt 1 view .LVU2
  43              		.loc 1 1172 29 is_stmt 0 view .LVU3
  44 0004 B4F90AC0 		ldrsh	ip, [r4, #10]
  45              		.loc 1 1172 7 view .LVU4
  46 0008 9445     		cmp	ip, r2
  47 000a 00F39080 		bgt	.L16
1173:lvgl/src/draw/lv_draw_mask.c ****     if(abs_y > p->cfg.coords.y2) return LV_DRAW_MASK_RES_FULL_COVER;
  48              		.loc 1 1173 5 is_stmt 1 view .LVU5
  49              		.loc 1 1173 29 is_stmt 0 view .LVU6
  50 000e B4F90EC0 		ldrsh	ip, [r4, #14]
  51              		.loc 1 1173 7 view .LVU7
  52 0012 9445     		cmp	ip, r2
  53 0014 C0F28D80 		blt	.L17
1174:lvgl/src/draw/lv_draw_mask.c ****     if(abs_x + len < p->cfg.coords.x1) return LV_DRAW_MASK_RES_FULL_COVER;
  54              		.loc 1 1174 5 is_stmt 1 view .LVU8
  55              		.loc 1 1174 14 is_stmt 0 view .LVU9
  56 0018 5D18     		adds	r5, r3, r1
  57              		.loc 1 1174 35 view .LVU10
  58 001a B4F908E0 		ldrsh	lr, [r4, #8]
  59              		.loc 1 1174 7 view .LVU11
  60 001e 7545     		cmp	r5, lr
  61 0020 C0F28980 		blt	.L18
1175:lvgl/src/draw/lv_draw_mask.c ****     if(abs_x > p->cfg.coords.x2) return LV_DRAW_MASK_RES_FULL_COVER;
  62              		.loc 1 1175 5 is_stmt 1 view .LVU12
  63              		.loc 1 1175 29 is_stmt 0 view .LVU13
  64 0024 B4F90CC0 		ldrsh	ip, [r4, #12]
  65              		.loc 1 1175 7 view .LVU14
  66 0028 8C45     		cmp	ip, r1
  67 002a C0F28680 		blt	.L19
1176:lvgl/src/draw/lv_draw_mask.c **** 
1177:lvgl/src/draw/lv_draw_mask.c ****     if(abs_x + len > p->cfg.coords.x2) len -= abs_x + len - p->cfg.coords.x2 - 1;
  68              		.loc 1 1177 5 is_stmt 1 view .LVU15
  69              		.loc 1 1177 7 is_stmt 0 view .LVU16
  70 002e 6545     		cmp	r5, ip
  71 0030 0ADD     		ble	.L3
  72              		.loc 1 1177 40 is_stmt 1 discriminator 1 view .LVU17
  73              		.loc 1 1177 74 is_stmt 0 discriminator 1 view .LVU18
  74 0032 1FFA8CFC 		uxth	ip, ip
  75              		.loc 1 1177 53 discriminator 1 view .LVU19
  76 0036 9EB2     		uxth	r6, r3
  77 0038 7518     		adds	r5, r6, r1
  78 003a ADB2     		uxth	r5, r5
ARM GAS  /var/folders/21/t9g5rlb91ys800n5npymflf80000gn/T//cc0CxbBx.s 			page 23


  79              		.loc 1 1177 78 discriminator 1 view .LVU20
  80 003c ACEB0503 		sub	r3, ip, r5
  81              	.LVL1:
  82              		.loc 1 1177 44 discriminator 1 view .LVU21
  83 0040 16FA83F3 		uxtah	r3, r6, r3
  84 0044 0133     		adds	r3, r3, #1
  85 0046 1BB2     		sxth	r3, r3
  86              	.LVL2:
  87              	.L3:
1178:lvgl/src/draw/lv_draw_mask.c **** 
1179:lvgl/src/draw/lv_draw_mask.c ****     if(abs_x < p->cfg.coords.x1) {
  88              		.loc 1 1179 5 is_stmt 1 view .LVU22
  89              		.loc 1 1179 7 is_stmt 0 view .LVU23
  90 0048 8E45     		cmp	lr, r1
  91 004a 05DD     		ble	.L4
  92              	.LBB72:
1180:lvgl/src/draw/lv_draw_mask.c ****         int32_t x_ofs = 0;
  93              		.loc 1 1180 9 is_stmt 1 view .LVU24
  94              	.LVL3:
1181:lvgl/src/draw/lv_draw_mask.c ****         x_ofs = p->cfg.coords.x1 - abs_x;
  95              		.loc 1 1181 9 view .LVU25
  96              		.loc 1 1181 15 is_stmt 0 view .LVU26
  97 004c AEEB010E 		sub	lr, lr, r1
  98              	.LVL4:
1182:lvgl/src/draw/lv_draw_mask.c ****         len -= x_ofs;
  99              		.loc 1 1182 9 is_stmt 1 view .LVU27
 100              		.loc 1 1182 13 is_stmt 0 view .LVU28
 101 0050 A3EB0E03 		sub	r3, r3, lr
 102              	.LVL5:
 103              		.loc 1 1182 13 view .LVU29
 104 0054 1BB2     		sxth	r3, r3
 105              	.LVL6:
1183:lvgl/src/draw/lv_draw_mask.c ****         mask_buf += x_ofs;
 106              		.loc 1 1183 9 is_stmt 1 view .LVU30
 107              		.loc 1 1183 18 is_stmt 0 view .LVU31
 108 0056 7044     		add	r0, r0, lr
 109              	.LVL7:
 110              	.L4:
 111              		.loc 1 1183 18 view .LVU32
 112              	.LBE72:
1184:lvgl/src/draw/lv_draw_mask.c ****     }
1185:lvgl/src/draw/lv_draw_mask.c **** 
1186:lvgl/src/draw/lv_draw_mask.c ****     int32_t i;
 113              		.loc 1 1186 5 is_stmt 1 view .LVU33
1187:lvgl/src/draw/lv_draw_mask.c **** 
1188:lvgl/src/draw/lv_draw_mask.c ****     if(abs_y <= p->cfg.y_top) {
 114              		.loc 1 1188 5 view .LVU34
 115              		.loc 1 1188 23 is_stmt 0 view .LVU35
 116 0058 B4F91050 		ldrsh	r5, [r4, #16]
 117              		.loc 1 1188 7 view .LVU36
 118 005c 9542     		cmp	r5, r2
 119 005e 2CDA     		bge	.L28
1189:lvgl/src/draw/lv_draw_mask.c ****         for(i = 0; i < len; i++) {
1190:lvgl/src/draw/lv_draw_mask.c ****             mask_buf[i] = mask_mix(mask_buf[i], p->cfg.opa_top);
1191:lvgl/src/draw/lv_draw_mask.c ****         }
1192:lvgl/src/draw/lv_draw_mask.c ****         return LV_DRAW_MASK_RES_CHANGED;
1193:lvgl/src/draw/lv_draw_mask.c ****     }
ARM GAS  /var/folders/21/t9g5rlb91ys800n5npymflf80000gn/T//cc0CxbBx.s 			page 24


1194:lvgl/src/draw/lv_draw_mask.c ****     else if(abs_y >= p->cfg.y_bottom) {
 120              		.loc 1 1194 10 is_stmt 1 view .LVU37
 121              		.loc 1 1194 28 is_stmt 0 view .LVU38
 122 0060 B4F91210 		ldrsh	r1, [r4, #18]
 123              	.LVL8:
 124              		.loc 1 1194 12 view .LVU39
 125 0064 9142     		cmp	r1, r2
 126 0066 46DD     		ble	.L22
 127              	.LBB73:
1195:lvgl/src/draw/lv_draw_mask.c ****         for(i = 0; i < len; i++) {
1196:lvgl/src/draw/lv_draw_mask.c ****             mask_buf[i] = mask_mix(mask_buf[i], p->cfg.opa_bottom);
1197:lvgl/src/draw/lv_draw_mask.c ****         }
1198:lvgl/src/draw/lv_draw_mask.c ****         return LV_DRAW_MASK_RES_CHANGED;
1199:lvgl/src/draw/lv_draw_mask.c ****     }
1200:lvgl/src/draw/lv_draw_mask.c ****     else {
1201:lvgl/src/draw/lv_draw_mask.c ****         /*Calculate the opa proportionally*/
1202:lvgl/src/draw/lv_draw_mask.c ****         int16_t opa_diff = p->cfg.opa_bottom - p->cfg.opa_top;
 128              		.loc 1 1202 9 is_stmt 1 view .LVU40
 129              		.loc 1 1202 34 is_stmt 0 view .LVU41
 130 0068 94F815C0 		ldrb	ip, [r4, #21]	@ zero_extendqisi2
 131              		.loc 1 1202 54 view .LVU42
 132 006c 247D     		ldrb	r4, [r4, #20]	@ zero_extendqisi2
 133              		.loc 1 1202 17 view .LVU43
 134 006e ACEB040C 		sub	ip, ip, r4
 135              	.LVL9:
1203:lvgl/src/draw/lv_draw_mask.c ****         int32_t y_diff = p->cfg.y_bottom - p->cfg.y_top + 1;
 136              		.loc 1 1203 9 is_stmt 1 view .LVU44
 137              		.loc 1 1203 42 is_stmt 0 view .LVU45
 138 0072 491B     		subs	r1, r1, r5
 139              		.loc 1 1203 17 view .LVU46
 140 0074 0131     		adds	r1, r1, #1
 141              	.LVL10:
1204:lvgl/src/draw/lv_draw_mask.c ****         lv_opa_t opa_act = (int32_t)((int32_t)(abs_y - p->cfg.y_top) * opa_diff) / y_diff;
 142              		.loc 1 1204 9 is_stmt 1 view .LVU47
 143              		.loc 1 1204 38 is_stmt 0 view .LVU48
 144 0076 521B     		subs	r2, r2, r5
 145              	.LVL11:
 146              		.loc 1 1204 28 view .LVU49
 147 0078 02FB0CFC 		mul	ip, r2, ip
 148              	.LVL12:
 149              		.loc 1 1204 82 view .LVU50
 150 007c 9CFBF1FC 		sdiv	ip, ip, r1
 151              	.LVL13:
1205:lvgl/src/draw/lv_draw_mask.c ****         opa_act += p->cfg.opa_top;
 152              		.loc 1 1205 9 is_stmt 1 view .LVU51
 153              		.loc 1 1205 17 is_stmt 0 view .LVU52
 154 0080 54FA8CFC 		uxtab	ip, r4, ip
 155              	.LVL14:
 156              		.loc 1 1205 17 view .LVU53
 157 0084 5FFA8CFC 		uxtb	ip, ip
 158              	.LVL15:
1206:lvgl/src/draw/lv_draw_mask.c **** 
1207:lvgl/src/draw/lv_draw_mask.c ****         for(i = 0; i < len; i++) {
 159              		.loc 1 1207 9 is_stmt 1 view .LVU54
 160              		.loc 1 1207 15 is_stmt 0 view .LVU55
 161 0088 0021     		movs	r1, #0
 162              	.LVL16:
ARM GAS  /var/folders/21/t9g5rlb91ys800n5npymflf80000gn/T//cc0CxbBx.s 			page 25


 163              		.loc 1 1207 9 view .LVU56
 164 008a 42E0     		b	.L13
 165              	.LVL17:
 166              	.L30:
 167              		.loc 1 1207 9 view .LVU57
 168              	.LBE73:
 169              	.LBB78:
 170              	.LBB79:
1208:lvgl/src/draw/lv_draw_mask.c ****             mask_buf[i] = mask_mix(mask_buf[i], opa_act);
1209:lvgl/src/draw/lv_draw_mask.c ****         }
1210:lvgl/src/draw/lv_draw_mask.c ****         return LV_DRAW_MASK_RES_CHANGED;
1211:lvgl/src/draw/lv_draw_mask.c ****     }
1212:lvgl/src/draw/lv_draw_mask.c **** }
1213:lvgl/src/draw/lv_draw_mask.c **** 
1214:lvgl/src/draw/lv_draw_mask.c **** static lv_draw_mask_res_t LV_ATTRIBUTE_FAST_MEM lv_draw_mask_map(lv_opa_t * mask_buf, lv_coord_t ab
1215:lvgl/src/draw/lv_draw_mask.c ****                                                                  lv_coord_t abs_y, lv_coord_t len,
1216:lvgl/src/draw/lv_draw_mask.c ****                                                                  lv_draw_mask_map_param_t * p)
1217:lvgl/src/draw/lv_draw_mask.c **** {
1218:lvgl/src/draw/lv_draw_mask.c ****     /*Handle out of the mask cases*/
1219:lvgl/src/draw/lv_draw_mask.c ****     if(abs_y < p->cfg.coords.y1) return LV_DRAW_MASK_RES_FULL_COVER;
1220:lvgl/src/draw/lv_draw_mask.c ****     if(abs_y > p->cfg.coords.y2) return LV_DRAW_MASK_RES_FULL_COVER;
1221:lvgl/src/draw/lv_draw_mask.c ****     if(abs_x + len < p->cfg.coords.x1) return LV_DRAW_MASK_RES_FULL_COVER;
1222:lvgl/src/draw/lv_draw_mask.c ****     if(abs_x > p->cfg.coords.x2) return LV_DRAW_MASK_RES_FULL_COVER;
1223:lvgl/src/draw/lv_draw_mask.c **** 
1224:lvgl/src/draw/lv_draw_mask.c ****     /*Got to the current row in the map*/
1225:lvgl/src/draw/lv_draw_mask.c ****     const lv_opa_t * map_tmp = p->cfg.map;
1226:lvgl/src/draw/lv_draw_mask.c ****     map_tmp += (abs_y - p->cfg.coords.y1) * lv_area_get_width(&p->cfg.coords);
1227:lvgl/src/draw/lv_draw_mask.c **** 
1228:lvgl/src/draw/lv_draw_mask.c ****     if(abs_x + len > p->cfg.coords.x2) len -= abs_x + len - p->cfg.coords.x2 - 1;
1229:lvgl/src/draw/lv_draw_mask.c **** 
1230:lvgl/src/draw/lv_draw_mask.c ****     if(abs_x < p->cfg.coords.x1) {
1231:lvgl/src/draw/lv_draw_mask.c ****         int32_t x_ofs = 0;
1232:lvgl/src/draw/lv_draw_mask.c ****         x_ofs = p->cfg.coords.x1 - abs_x;
1233:lvgl/src/draw/lv_draw_mask.c ****         len -= x_ofs;
1234:lvgl/src/draw/lv_draw_mask.c ****         mask_buf += x_ofs;
1235:lvgl/src/draw/lv_draw_mask.c ****     }
1236:lvgl/src/draw/lv_draw_mask.c ****     else {
1237:lvgl/src/draw/lv_draw_mask.c ****         map_tmp += (abs_x - p->cfg.coords.x1);
1238:lvgl/src/draw/lv_draw_mask.c ****     }
1239:lvgl/src/draw/lv_draw_mask.c **** 
1240:lvgl/src/draw/lv_draw_mask.c ****     int32_t i;
1241:lvgl/src/draw/lv_draw_mask.c ****     for(i = 0; i < len; i++) {
1242:lvgl/src/draw/lv_draw_mask.c ****         mask_buf[i] = mask_mix(mask_buf[i], map_tmp[i]);
1243:lvgl/src/draw/lv_draw_mask.c ****     }
1244:lvgl/src/draw/lv_draw_mask.c **** 
1245:lvgl/src/draw/lv_draw_mask.c ****     return LV_DRAW_MASK_RES_CHANGED;
1246:lvgl/src/draw/lv_draw_mask.c **** }
1247:lvgl/src/draw/lv_draw_mask.c **** 
1248:lvgl/src/draw/lv_draw_mask.c **** static lv_draw_mask_res_t LV_ATTRIBUTE_FAST_MEM lv_draw_mask_polygon(lv_opa_t * mask_buf, lv_coord_
1249:lvgl/src/draw/lv_draw_mask.c ****                                                                      lv_coord_t abs_y, lv_coord_t l
1250:lvgl/src/draw/lv_draw_mask.c ****                                                                      lv_draw_mask_polygon_param_t *
1251:lvgl/src/draw/lv_draw_mask.c **** {
1252:lvgl/src/draw/lv_draw_mask.c ****     uint16_t i;
1253:lvgl/src/draw/lv_draw_mask.c ****     struct {
1254:lvgl/src/draw/lv_draw_mask.c ****         lv_point_t p1;
1255:lvgl/src/draw/lv_draw_mask.c ****         lv_point_t p2;
1256:lvgl/src/draw/lv_draw_mask.c ****     } lines[2], tmp;
ARM GAS  /var/folders/21/t9g5rlb91ys800n5npymflf80000gn/T//cc0CxbBx.s 			page 26


1257:lvgl/src/draw/lv_draw_mask.c ****     uint16_t line_cnt = 0;
1258:lvgl/src/draw/lv_draw_mask.c ****     lv_memset_00(&lines, sizeof(lines));
1259:lvgl/src/draw/lv_draw_mask.c ****     int psign_prev = 0;
1260:lvgl/src/draw/lv_draw_mask.c ****     for(i = 0; i < param->cfg.point_cnt; i++) {
1261:lvgl/src/draw/lv_draw_mask.c ****         lv_point_t p1 = param->cfg.points[i];
1262:lvgl/src/draw/lv_draw_mask.c ****         lv_point_t p2 = param->cfg.points[i + 1 < param->cfg.point_cnt ? i + 1 : 0];
1263:lvgl/src/draw/lv_draw_mask.c ****         int pdiff = p1.y - p2.y, psign = pdiff / LV_ABS(pdiff);
1264:lvgl/src/draw/lv_draw_mask.c ****         if(pdiff > 0) {
1265:lvgl/src/draw/lv_draw_mask.c ****             if(abs_y > p1.y || abs_y < p2.y) continue;
1266:lvgl/src/draw/lv_draw_mask.c ****             lines[line_cnt].p1 = p2;
1267:lvgl/src/draw/lv_draw_mask.c ****             lines[line_cnt].p2 = p1;
1268:lvgl/src/draw/lv_draw_mask.c ****         }
1269:lvgl/src/draw/lv_draw_mask.c ****         else {
1270:lvgl/src/draw/lv_draw_mask.c ****             if(abs_y < p1.y || abs_y > p2.y) continue;
1271:lvgl/src/draw/lv_draw_mask.c ****             lines[line_cnt].p1 = p1;
1272:lvgl/src/draw/lv_draw_mask.c ****             lines[line_cnt].p2 = p2;
1273:lvgl/src/draw/lv_draw_mask.c ****         }
1274:lvgl/src/draw/lv_draw_mask.c ****         if(psign_prev && psign_prev == psign) continue;
1275:lvgl/src/draw/lv_draw_mask.c ****         psign_prev = psign;
1276:lvgl/src/draw/lv_draw_mask.c ****         line_cnt++;
1277:lvgl/src/draw/lv_draw_mask.c ****         if(line_cnt == 2) break;
1278:lvgl/src/draw/lv_draw_mask.c ****     }
1279:lvgl/src/draw/lv_draw_mask.c ****     if(line_cnt != 2) return LV_DRAW_MASK_RES_TRANSP;
1280:lvgl/src/draw/lv_draw_mask.c ****     if(lines[0].p1.x > lines[1].p1.x || lines[0].p2.x > lines[1].p2.x) {
1281:lvgl/src/draw/lv_draw_mask.c ****         tmp = lines[0];
1282:lvgl/src/draw/lv_draw_mask.c ****         lines[0] = lines[1];
1283:lvgl/src/draw/lv_draw_mask.c ****         lines[1] = tmp;
1284:lvgl/src/draw/lv_draw_mask.c ****     }
1285:lvgl/src/draw/lv_draw_mask.c ****     lv_draw_mask_line_param_t line_p;
1286:lvgl/src/draw/lv_draw_mask.c ****     lv_draw_mask_line_points_init(&line_p, lines[0].p1.x, lines[0].p1.y, lines[0].p2.x, lines[0].p2
1287:lvgl/src/draw/lv_draw_mask.c ****                                   LV_DRAW_MASK_LINE_SIDE_RIGHT);
1288:lvgl/src/draw/lv_draw_mask.c ****     if(line_p.steep == 0 && line_p.flat) {
1289:lvgl/src/draw/lv_draw_mask.c ****         lv_coord_t x1 = LV_MIN(lines[0].p1.x, lines[0].p2.x);
1290:lvgl/src/draw/lv_draw_mask.c ****         lv_coord_t x2 = LV_MAX(lines[0].p1.x, lines[0].p2.x);
1291:lvgl/src/draw/lv_draw_mask.c ****         for(i = 0; i < len; i++) {
1292:lvgl/src/draw/lv_draw_mask.c ****             mask_buf[i] = mask_mix(mask_buf[i], (abs_x + i >= x1 && abs_x + i <= x2) * 0xFF);
1293:lvgl/src/draw/lv_draw_mask.c ****         }
1294:lvgl/src/draw/lv_draw_mask.c ****         lv_draw_mask_free_param(&line_p);
1295:lvgl/src/draw/lv_draw_mask.c ****         return LV_DRAW_MASK_RES_CHANGED;
1296:lvgl/src/draw/lv_draw_mask.c ****     }
1297:lvgl/src/draw/lv_draw_mask.c ****     lv_draw_mask_res_t res1 = lv_draw_mask_line(mask_buf, abs_x, abs_y, len, &line_p);
1298:lvgl/src/draw/lv_draw_mask.c ****     lv_draw_mask_free_param(&line_p);
1299:lvgl/src/draw/lv_draw_mask.c ****     if(res1 == LV_DRAW_MASK_RES_TRANSP) {
1300:lvgl/src/draw/lv_draw_mask.c ****         return LV_DRAW_MASK_RES_TRANSP;
1301:lvgl/src/draw/lv_draw_mask.c ****     }
1302:lvgl/src/draw/lv_draw_mask.c ****     lv_draw_mask_line_points_init(&line_p, lines[1].p1.x, lines[1].p1.y, lines[1].p2.x, lines[1].p2
1303:lvgl/src/draw/lv_draw_mask.c ****                                   LV_DRAW_MASK_LINE_SIDE_LEFT);
1304:lvgl/src/draw/lv_draw_mask.c ****     if(line_p.steep == 0 && line_p.flat) {
1305:lvgl/src/draw/lv_draw_mask.c ****         lv_coord_t x1 = LV_MIN(lines[1].p1.x, lines[1].p2.x);
1306:lvgl/src/draw/lv_draw_mask.c ****         lv_coord_t x2 = LV_MAX(lines[1].p1.x, lines[1].p2.x);
1307:lvgl/src/draw/lv_draw_mask.c ****         for(i = 0; i < len; i++) {
1308:lvgl/src/draw/lv_draw_mask.c ****             mask_buf[i] = mask_mix(mask_buf[i], (abs_x + i >= x1 && abs_x + i <= x2) * 0xFF);
1309:lvgl/src/draw/lv_draw_mask.c ****         }
1310:lvgl/src/draw/lv_draw_mask.c ****         lv_draw_mask_free_param(&line_p);
1311:lvgl/src/draw/lv_draw_mask.c ****         return LV_DRAW_MASK_RES_CHANGED;
1312:lvgl/src/draw/lv_draw_mask.c ****     }
1313:lvgl/src/draw/lv_draw_mask.c ****     lv_draw_mask_res_t res2 = lv_draw_mask_line(mask_buf, abs_x, abs_y, len, &line_p);
ARM GAS  /var/folders/21/t9g5rlb91ys800n5npymflf80000gn/T//cc0CxbBx.s 			page 27


1314:lvgl/src/draw/lv_draw_mask.c ****     lv_draw_mask_free_param(&line_p);
1315:lvgl/src/draw/lv_draw_mask.c ****     if(res2 == LV_DRAW_MASK_RES_TRANSP) {
1316:lvgl/src/draw/lv_draw_mask.c ****         return LV_DRAW_MASK_RES_TRANSP;
1317:lvgl/src/draw/lv_draw_mask.c ****     }
1318:lvgl/src/draw/lv_draw_mask.c ****     if(res1 == LV_DRAW_MASK_RES_CHANGED || res2 == LV_DRAW_MASK_RES_CHANGED) return LV_DRAW_MASK_RE
1319:lvgl/src/draw/lv_draw_mask.c ****     return res1;
1320:lvgl/src/draw/lv_draw_mask.c **** }
1321:lvgl/src/draw/lv_draw_mask.c **** /**
1322:lvgl/src/draw/lv_draw_mask.c ****  * Initialize the circle drawing
1323:lvgl/src/draw/lv_draw_mask.c ****  * @param c pointer to a point. The coordinates will be calculated here
1324:lvgl/src/draw/lv_draw_mask.c ****  * @param tmp point to a variable. It will store temporary data
1325:lvgl/src/draw/lv_draw_mask.c ****  * @param radius radius of the circle
1326:lvgl/src/draw/lv_draw_mask.c ****  */
1327:lvgl/src/draw/lv_draw_mask.c **** static void circ_init(lv_point_t * c, lv_coord_t * tmp, lv_coord_t radius)
1328:lvgl/src/draw/lv_draw_mask.c **** {
1329:lvgl/src/draw/lv_draw_mask.c ****     c->x = radius;
1330:lvgl/src/draw/lv_draw_mask.c ****     c->y = 0;
1331:lvgl/src/draw/lv_draw_mask.c ****     *tmp = 1 - radius;
1332:lvgl/src/draw/lv_draw_mask.c **** }
1333:lvgl/src/draw/lv_draw_mask.c **** 
1334:lvgl/src/draw/lv_draw_mask.c **** /**
1335:lvgl/src/draw/lv_draw_mask.c ****  * Test the circle drawing is ready or not
1336:lvgl/src/draw/lv_draw_mask.c ****  * @param c same as in circ_init
1337:lvgl/src/draw/lv_draw_mask.c ****  * @return true if the circle is not ready yet
1338:lvgl/src/draw/lv_draw_mask.c ****  */
1339:lvgl/src/draw/lv_draw_mask.c **** static bool circ_cont(lv_point_t * c)
1340:lvgl/src/draw/lv_draw_mask.c **** {
1341:lvgl/src/draw/lv_draw_mask.c ****     return c->y <= c->x ? true : false;
1342:lvgl/src/draw/lv_draw_mask.c **** }
1343:lvgl/src/draw/lv_draw_mask.c **** 
1344:lvgl/src/draw/lv_draw_mask.c **** /**
1345:lvgl/src/draw/lv_draw_mask.c ****  * Get the next point from the circle
1346:lvgl/src/draw/lv_draw_mask.c ****  * @param c same as in circ_init. The next point stored here.
1347:lvgl/src/draw/lv_draw_mask.c ****  * @param tmp same as in circ_init.
1348:lvgl/src/draw/lv_draw_mask.c ****  */
1349:lvgl/src/draw/lv_draw_mask.c **** static void circ_next(lv_point_t * c, lv_coord_t * tmp)
1350:lvgl/src/draw/lv_draw_mask.c **** {
1351:lvgl/src/draw/lv_draw_mask.c **** 
1352:lvgl/src/draw/lv_draw_mask.c ****     if(*tmp <= 0) {
1353:lvgl/src/draw/lv_draw_mask.c ****         (*tmp) += 2 * c->y + 3; /*Change in decision criterion for y -> y+1*/
1354:lvgl/src/draw/lv_draw_mask.c ****     }
1355:lvgl/src/draw/lv_draw_mask.c ****     else {
1356:lvgl/src/draw/lv_draw_mask.c ****         (*tmp) += 2 * (c->y - c->x) + 5; /*Change for y -> y+1, x -> x-1*/
1357:lvgl/src/draw/lv_draw_mask.c ****         c->x--;
1358:lvgl/src/draw/lv_draw_mask.c ****     }
1359:lvgl/src/draw/lv_draw_mask.c ****     c->y++;
1360:lvgl/src/draw/lv_draw_mask.c **** }
1361:lvgl/src/draw/lv_draw_mask.c **** 
1362:lvgl/src/draw/lv_draw_mask.c **** static void circ_calc_aa4(_lv_draw_mask_radius_circle_dsc_t * c, lv_coord_t radius)
1363:lvgl/src/draw/lv_draw_mask.c **** {
1364:lvgl/src/draw/lv_draw_mask.c ****     if(radius == 0) return;
1365:lvgl/src/draw/lv_draw_mask.c ****     c->radius = radius;
1366:lvgl/src/draw/lv_draw_mask.c **** 
1367:lvgl/src/draw/lv_draw_mask.c ****     /*Allocate buffers*/
1368:lvgl/src/draw/lv_draw_mask.c ****     if(c->buf) lv_mem_free(c->buf);
1369:lvgl/src/draw/lv_draw_mask.c **** 
1370:lvgl/src/draw/lv_draw_mask.c ****     c->buf = lv_mem_alloc(radius * 6 + 6);  /*Use uint16_t for opa_start_on_y and x_start_on_y*/
ARM GAS  /var/folders/21/t9g5rlb91ys800n5npymflf80000gn/T//cc0CxbBx.s 			page 28


1371:lvgl/src/draw/lv_draw_mask.c ****     LV_ASSERT_MALLOC(c->buf);
1372:lvgl/src/draw/lv_draw_mask.c ****     c->cir_opa = c->buf;
1373:lvgl/src/draw/lv_draw_mask.c ****     c->opa_start_on_y = (uint16_t *)(c->buf + 2 * radius + 2);
1374:lvgl/src/draw/lv_draw_mask.c ****     c->x_start_on_y = (uint16_t *)(c->buf + 4 * radius + 4);
1375:lvgl/src/draw/lv_draw_mask.c **** 
1376:lvgl/src/draw/lv_draw_mask.c ****     /*Special case, handle manually*/
1377:lvgl/src/draw/lv_draw_mask.c ****     if(radius == 1) {
1378:lvgl/src/draw/lv_draw_mask.c ****         c->cir_opa[0] = 180;
1379:lvgl/src/draw/lv_draw_mask.c ****         c->opa_start_on_y[0] = 0;
1380:lvgl/src/draw/lv_draw_mask.c ****         c->opa_start_on_y[1] = 1;
1381:lvgl/src/draw/lv_draw_mask.c ****         c->x_start_on_y[0] = 0;
1382:lvgl/src/draw/lv_draw_mask.c ****         return;
1383:lvgl/src/draw/lv_draw_mask.c ****     }
1384:lvgl/src/draw/lv_draw_mask.c **** 
1385:lvgl/src/draw/lv_draw_mask.c ****     lv_coord_t * cir_x = lv_mem_buf_get((radius + 1) * 2 * 2 * sizeof(lv_coord_t));
1386:lvgl/src/draw/lv_draw_mask.c ****     lv_coord_t * cir_y = &cir_x[(radius + 1) * 2];
1387:lvgl/src/draw/lv_draw_mask.c **** 
1388:lvgl/src/draw/lv_draw_mask.c ****     uint32_t y_8th_cnt = 0;
1389:lvgl/src/draw/lv_draw_mask.c ****     lv_point_t cp;
1390:lvgl/src/draw/lv_draw_mask.c ****     lv_coord_t tmp;
1391:lvgl/src/draw/lv_draw_mask.c ****     circ_init(&cp, &tmp, radius * 4);    /*Upscale by 4*/
1392:lvgl/src/draw/lv_draw_mask.c ****     int32_t i;
1393:lvgl/src/draw/lv_draw_mask.c **** 
1394:lvgl/src/draw/lv_draw_mask.c ****     uint32_t x_int[4];
1395:lvgl/src/draw/lv_draw_mask.c ****     uint32_t x_fract[4];
1396:lvgl/src/draw/lv_draw_mask.c ****     lv_coord_t cir_size = 0;
1397:lvgl/src/draw/lv_draw_mask.c ****     x_int[0] = cp.x >> 2;
1398:lvgl/src/draw/lv_draw_mask.c ****     x_fract[0] = 0;
1399:lvgl/src/draw/lv_draw_mask.c **** 
1400:lvgl/src/draw/lv_draw_mask.c ****     /*Calculate an 1/8 circle*/
1401:lvgl/src/draw/lv_draw_mask.c ****     while(circ_cont(&cp)) {
1402:lvgl/src/draw/lv_draw_mask.c ****         /*Calculate 4 point of the circle */
1403:lvgl/src/draw/lv_draw_mask.c ****         for(i = 0; i < 4; i++) {
1404:lvgl/src/draw/lv_draw_mask.c ****             circ_next(&cp, &tmp);
1405:lvgl/src/draw/lv_draw_mask.c ****             if(circ_cont(&cp) == false) break;
1406:lvgl/src/draw/lv_draw_mask.c ****             x_int[i] = cp.x >> 2;
1407:lvgl/src/draw/lv_draw_mask.c ****             x_fract[i] = cp.x & 0x3;
1408:lvgl/src/draw/lv_draw_mask.c ****         }
1409:lvgl/src/draw/lv_draw_mask.c ****         if(i != 4) break;
1410:lvgl/src/draw/lv_draw_mask.c **** 
1411:lvgl/src/draw/lv_draw_mask.c ****         /*All lines on the same x when downscaled*/
1412:lvgl/src/draw/lv_draw_mask.c ****         if(x_int[0] == x_int[3]) {
1413:lvgl/src/draw/lv_draw_mask.c ****             cir_x[cir_size] = x_int[0];
1414:lvgl/src/draw/lv_draw_mask.c ****             cir_y[cir_size] = y_8th_cnt;
1415:lvgl/src/draw/lv_draw_mask.c ****             c->cir_opa[cir_size] = x_fract[0] + x_fract[1] + x_fract[2] + x_fract[3];
1416:lvgl/src/draw/lv_draw_mask.c ****             c->cir_opa[cir_size] *= 16;
1417:lvgl/src/draw/lv_draw_mask.c ****             cir_size++;
1418:lvgl/src/draw/lv_draw_mask.c ****         }
1419:lvgl/src/draw/lv_draw_mask.c ****         /*Second line on new x when downscaled*/
1420:lvgl/src/draw/lv_draw_mask.c ****         else if(x_int[0] != x_int[1]) {
1421:lvgl/src/draw/lv_draw_mask.c ****             cir_x[cir_size] = x_int[0];
1422:lvgl/src/draw/lv_draw_mask.c ****             cir_y[cir_size] = y_8th_cnt;
1423:lvgl/src/draw/lv_draw_mask.c ****             c->cir_opa[cir_size] = x_fract[0];
1424:lvgl/src/draw/lv_draw_mask.c ****             c->cir_opa[cir_size] *= 16;
1425:lvgl/src/draw/lv_draw_mask.c ****             cir_size++;
1426:lvgl/src/draw/lv_draw_mask.c **** 
1427:lvgl/src/draw/lv_draw_mask.c ****             cir_x[cir_size] = x_int[0] - 1;
ARM GAS  /var/folders/21/t9g5rlb91ys800n5npymflf80000gn/T//cc0CxbBx.s 			page 29


1428:lvgl/src/draw/lv_draw_mask.c ****             cir_y[cir_size] = y_8th_cnt;
1429:lvgl/src/draw/lv_draw_mask.c ****             c->cir_opa[cir_size] = 1 * 4 + x_fract[1] + x_fract[2] + x_fract[3];;
1430:lvgl/src/draw/lv_draw_mask.c ****             c->cir_opa[cir_size] *= 16;
1431:lvgl/src/draw/lv_draw_mask.c ****             cir_size++;
1432:lvgl/src/draw/lv_draw_mask.c ****         }
1433:lvgl/src/draw/lv_draw_mask.c ****         /*Third line on new x when downscaled*/
1434:lvgl/src/draw/lv_draw_mask.c ****         else if(x_int[0] != x_int[2]) {
1435:lvgl/src/draw/lv_draw_mask.c ****             cir_x[cir_size] = x_int[0];
1436:lvgl/src/draw/lv_draw_mask.c ****             cir_y[cir_size] = y_8th_cnt;
1437:lvgl/src/draw/lv_draw_mask.c ****             c->cir_opa[cir_size] = x_fract[0] + x_fract[1];
1438:lvgl/src/draw/lv_draw_mask.c ****             c->cir_opa[cir_size] *= 16;
1439:lvgl/src/draw/lv_draw_mask.c ****             cir_size++;
1440:lvgl/src/draw/lv_draw_mask.c **** 
1441:lvgl/src/draw/lv_draw_mask.c ****             cir_x[cir_size] = x_int[0] - 1;
1442:lvgl/src/draw/lv_draw_mask.c ****             cir_y[cir_size] = y_8th_cnt;
1443:lvgl/src/draw/lv_draw_mask.c ****             c->cir_opa[cir_size] = 2 * 4 + x_fract[2] + x_fract[3];;
1444:lvgl/src/draw/lv_draw_mask.c ****             c->cir_opa[cir_size] *= 16;
1445:lvgl/src/draw/lv_draw_mask.c ****             cir_size++;
1446:lvgl/src/draw/lv_draw_mask.c ****         }
1447:lvgl/src/draw/lv_draw_mask.c ****         /*Forth line on new x when downscaled*/
1448:lvgl/src/draw/lv_draw_mask.c ****         else {
1449:lvgl/src/draw/lv_draw_mask.c ****             cir_x[cir_size] = x_int[0];
1450:lvgl/src/draw/lv_draw_mask.c ****             cir_y[cir_size] = y_8th_cnt;
1451:lvgl/src/draw/lv_draw_mask.c ****             c->cir_opa[cir_size] = x_fract[0] + x_fract[1] + x_fract[2];
1452:lvgl/src/draw/lv_draw_mask.c ****             c->cir_opa[cir_size] *= 16;
1453:lvgl/src/draw/lv_draw_mask.c ****             cir_size++;
1454:lvgl/src/draw/lv_draw_mask.c **** 
1455:lvgl/src/draw/lv_draw_mask.c ****             cir_x[cir_size] = x_int[0] - 1;
1456:lvgl/src/draw/lv_draw_mask.c ****             cir_y[cir_size] = y_8th_cnt;
1457:lvgl/src/draw/lv_draw_mask.c ****             c->cir_opa[cir_size] = 3 * 4 + x_fract[3];;
1458:lvgl/src/draw/lv_draw_mask.c ****             c->cir_opa[cir_size] *= 16;
1459:lvgl/src/draw/lv_draw_mask.c ****             cir_size++;
1460:lvgl/src/draw/lv_draw_mask.c ****         }
1461:lvgl/src/draw/lv_draw_mask.c **** 
1462:lvgl/src/draw/lv_draw_mask.c ****         y_8th_cnt++;
1463:lvgl/src/draw/lv_draw_mask.c ****     }
1464:lvgl/src/draw/lv_draw_mask.c **** 
1465:lvgl/src/draw/lv_draw_mask.c ****     /*The point on the 1/8 circle is special, calculate it manually*/
1466:lvgl/src/draw/lv_draw_mask.c ****     int32_t mid = radius * 723;
1467:lvgl/src/draw/lv_draw_mask.c ****     int32_t mid_int = mid >> 10;
1468:lvgl/src/draw/lv_draw_mask.c ****     if(cir_x[cir_size - 1] != mid_int || cir_y[cir_size - 1] != mid_int) {
1469:lvgl/src/draw/lv_draw_mask.c ****         int32_t tmp_val = mid - (mid_int << 10);
1470:lvgl/src/draw/lv_draw_mask.c ****         if(tmp_val <= 512) {
1471:lvgl/src/draw/lv_draw_mask.c ****             tmp_val = tmp_val * tmp_val * 2;
1472:lvgl/src/draw/lv_draw_mask.c ****             tmp_val = tmp_val >> (10 + 6);
1473:lvgl/src/draw/lv_draw_mask.c ****         }
1474:lvgl/src/draw/lv_draw_mask.c ****         else {
1475:lvgl/src/draw/lv_draw_mask.c ****             tmp_val = 1024 - tmp_val;
1476:lvgl/src/draw/lv_draw_mask.c ****             tmp_val = tmp_val * tmp_val * 2;
1477:lvgl/src/draw/lv_draw_mask.c ****             tmp_val = tmp_val >> (10 + 6);
1478:lvgl/src/draw/lv_draw_mask.c ****             tmp_val = 15 - tmp_val;
1479:lvgl/src/draw/lv_draw_mask.c ****         }
1480:lvgl/src/draw/lv_draw_mask.c **** 
1481:lvgl/src/draw/lv_draw_mask.c ****         cir_x[cir_size] = mid_int;
1482:lvgl/src/draw/lv_draw_mask.c ****         cir_y[cir_size] = mid_int;
1483:lvgl/src/draw/lv_draw_mask.c ****         c->cir_opa[cir_size] = tmp_val;
1484:lvgl/src/draw/lv_draw_mask.c ****         c->cir_opa[cir_size] *= 16;
ARM GAS  /var/folders/21/t9g5rlb91ys800n5npymflf80000gn/T//cc0CxbBx.s 			page 30


1485:lvgl/src/draw/lv_draw_mask.c ****         cir_size++;
1486:lvgl/src/draw/lv_draw_mask.c ****     }
1487:lvgl/src/draw/lv_draw_mask.c **** 
1488:lvgl/src/draw/lv_draw_mask.c ****     /*Build the second octet by mirroring the first*/
1489:lvgl/src/draw/lv_draw_mask.c ****     for(i = cir_size - 2; i >= 0; i--, cir_size++) {
1490:lvgl/src/draw/lv_draw_mask.c ****         cir_x[cir_size] = cir_y[i];
1491:lvgl/src/draw/lv_draw_mask.c ****         cir_y[cir_size] = cir_x[i];
1492:lvgl/src/draw/lv_draw_mask.c ****         c->cir_opa[cir_size] = c->cir_opa[i];
1493:lvgl/src/draw/lv_draw_mask.c ****     }
1494:lvgl/src/draw/lv_draw_mask.c **** 
1495:lvgl/src/draw/lv_draw_mask.c ****     lv_coord_t y = 0;
1496:lvgl/src/draw/lv_draw_mask.c ****     i = 0;
1497:lvgl/src/draw/lv_draw_mask.c ****     c->opa_start_on_y[0] = 0;
1498:lvgl/src/draw/lv_draw_mask.c ****     while(i < cir_size) {
1499:lvgl/src/draw/lv_draw_mask.c ****         c->opa_start_on_y[y] = i;
1500:lvgl/src/draw/lv_draw_mask.c ****         c->x_start_on_y[y] = cir_x[i];
1501:lvgl/src/draw/lv_draw_mask.c ****         for(; cir_y[i] == y && i < (int32_t)cir_size; i++) {
1502:lvgl/src/draw/lv_draw_mask.c ****             c->x_start_on_y[y] = LV_MIN(c->x_start_on_y[y], cir_x[i]);
1503:lvgl/src/draw/lv_draw_mask.c ****         }
1504:lvgl/src/draw/lv_draw_mask.c ****         y++;
1505:lvgl/src/draw/lv_draw_mask.c ****     }
1506:lvgl/src/draw/lv_draw_mask.c **** 
1507:lvgl/src/draw/lv_draw_mask.c ****     lv_mem_buf_release(cir_x);
1508:lvgl/src/draw/lv_draw_mask.c **** }
1509:lvgl/src/draw/lv_draw_mask.c **** 
1510:lvgl/src/draw/lv_draw_mask.c **** static lv_opa_t * get_next_line(_lv_draw_mask_radius_circle_dsc_t * c, lv_coord_t y, lv_coord_t * l
1511:lvgl/src/draw/lv_draw_mask.c ****                                 lv_coord_t * x_start)
1512:lvgl/src/draw/lv_draw_mask.c **** {
1513:lvgl/src/draw/lv_draw_mask.c ****     *len = c->opa_start_on_y[y + 1] - c->opa_start_on_y[y];
1514:lvgl/src/draw/lv_draw_mask.c ****     *x_start = c->x_start_on_y[y];
1515:lvgl/src/draw/lv_draw_mask.c ****     return &c->cir_opa[c->opa_start_on_y[y]];
1516:lvgl/src/draw/lv_draw_mask.c **** }
1517:lvgl/src/draw/lv_draw_mask.c **** 
1518:lvgl/src/draw/lv_draw_mask.c **** static inline lv_opa_t LV_ATTRIBUTE_FAST_MEM mask_mix(lv_opa_t mask_act, lv_opa_t mask_new)
1519:lvgl/src/draw/lv_draw_mask.c **** {
1520:lvgl/src/draw/lv_draw_mask.c ****     if(mask_new >= LV_OPA_MAX) return mask_act;
1521:lvgl/src/draw/lv_draw_mask.c ****     if(mask_new <= LV_OPA_MIN) return 0;
1522:lvgl/src/draw/lv_draw_mask.c **** 
1523:lvgl/src/draw/lv_draw_mask.c ****     return LV_UDIV255(mask_act * mask_new);// >> 8);
 171              		.loc 1 1523 5 is_stmt 1 view .LVU58
 172              		.loc 1 1523 12 is_stmt 0 view .LVU59
 173 008c 05FB02F2 		mul	r2, r5, r2
 174              	.LVL18:
 175              		.loc 1 1523 12 view .LVU60
 176 0090 02EB0225 		add	r5, r2, r2, lsl #8
 177              	.LVL19:
 178              		.loc 1 1523 12 view .LVU61
 179 0094 02EBC512 		add	r2, r2, r5, lsl #7
 180 0098 C2F3C752 		ubfx	r2, r2, #23, #8
 181              	.L7:
 182              	.LVL20:
 183              		.loc 1 1523 12 view .LVU62
 184              	.LBE79:
 185              	.LBE78:
1190:lvgl/src/draw/lv_draw_mask.c ****         }
 186              		.loc 1 1190 25 view .LVU63
 187 009c 8CF80020 		strb	r2, [ip]
ARM GAS  /var/folders/21/t9g5rlb91ys800n5npymflf80000gn/T//cc0CxbBx.s 			page 31


1189:lvgl/src/draw/lv_draw_mask.c ****             mask_buf[i] = mask_mix(mask_buf[i], p->cfg.opa_top);
 188              		.loc 1 1189 30 is_stmt 1 view .LVU64
 189 00a0 0131     		adds	r1, r1, #1
 190              	.LVL21:
 191              	.L5:
1189:lvgl/src/draw/lv_draw_mask.c ****             mask_buf[i] = mask_mix(mask_buf[i], p->cfg.opa_top);
 192              		.loc 1 1189 22 discriminator 1 view .LVU65
 193 00a2 8B42     		cmp	r3, r1
 194 00a4 0BDD     		ble	.L29
1190:lvgl/src/draw/lv_draw_mask.c ****         }
 195              		.loc 1 1190 13 discriminator 3 view .LVU66
1190:lvgl/src/draw/lv_draw_mask.c ****         }
 196              		.loc 1 1190 44 is_stmt 0 discriminator 3 view .LVU67
 197 00a6 00EB010C 		add	ip, r0, r1
1190:lvgl/src/draw/lv_draw_mask.c ****         }
 198              		.loc 1 1190 27 discriminator 3 view .LVU68
 199 00aa 425C     		ldrb	r2, [r0, r1]	@ zero_extendqisi2
 200 00ac 257D     		ldrb	r5, [r4, #20]	@ zero_extendqisi2
 201              	.LVL22:
 202              	.LBB81:
 203              	.LBI78:
1518:lvgl/src/draw/lv_draw_mask.c **** {
 204              		.loc 1 1518 46 is_stmt 1 discriminator 3 view .LVU69
 205              	.LBB80:
1520:lvgl/src/draw/lv_draw_mask.c ****     if(mask_new <= LV_OPA_MIN) return 0;
 206              		.loc 1 1520 5 discriminator 3 view .LVU70
1520:lvgl/src/draw/lv_draw_mask.c ****     if(mask_new <= LV_OPA_MIN) return 0;
 207              		.loc 1 1520 7 is_stmt 0 discriminator 3 view .LVU71
 208 00ae FC2D     		cmp	r5, #252
 209 00b0 F4D8     		bhi	.L7
1521:lvgl/src/draw/lv_draw_mask.c **** 
 210              		.loc 1 1521 5 is_stmt 1 view .LVU72
1521:lvgl/src/draw/lv_draw_mask.c **** 
 211              		.loc 1 1521 7 is_stmt 0 view .LVU73
 212 00b2 022D     		cmp	r5, #2
 213 00b4 EAD8     		bhi	.L30
1521:lvgl/src/draw/lv_draw_mask.c **** 
 214              		.loc 1 1521 39 view .LVU74
 215 00b6 0022     		movs	r2, #0
 216              	.LVL23:
1521:lvgl/src/draw/lv_draw_mask.c **** 
 217              		.loc 1 1521 39 view .LVU75
 218 00b8 F0E7     		b	.L7
 219              	.LVL24:
 220              	.L28:
1521:lvgl/src/draw/lv_draw_mask.c **** 
 221              		.loc 1 1521 39 view .LVU76
 222              	.LBE80:
 223              	.LBE81:
1189:lvgl/src/draw/lv_draw_mask.c ****             mask_buf[i] = mask_mix(mask_buf[i], p->cfg.opa_top);
 224              		.loc 1 1189 15 view .LVU77
 225 00ba 0021     		movs	r1, #0
 226              	.LVL25:
1189:lvgl/src/draw/lv_draw_mask.c ****             mask_buf[i] = mask_mix(mask_buf[i], p->cfg.opa_top);
 227              		.loc 1 1189 15 view .LVU78
 228 00bc F1E7     		b	.L5
 229              	.LVL26:
ARM GAS  /var/folders/21/t9g5rlb91ys800n5npymflf80000gn/T//cc0CxbBx.s 			page 32


 230              	.L29:
1192:lvgl/src/draw/lv_draw_mask.c ****     }
 231              		.loc 1 1192 16 view .LVU79
 232 00be 0220     		movs	r0, #2
 233              	.LVL27:
1192:lvgl/src/draw/lv_draw_mask.c ****     }
 234              		.loc 1 1192 16 view .LVU80
 235 00c0 36E0     		b	.L2
 236              	.LVL28:
 237              	.L32:
 238              	.LBB82:
 239              	.LBB83:
 240              		.loc 1 1523 5 is_stmt 1 view .LVU81
 241              		.loc 1 1523 12 is_stmt 0 view .LVU82
 242 00c2 0CFB02F2 		mul	r2, ip, r2
 243              	.LVL29:
 244              		.loc 1 1523 12 view .LVU83
 245 00c6 02EB0225 		add	r5, r2, r2, lsl #8
 246 00ca 02EBC512 		add	r2, r2, r5, lsl #7
 247 00ce C2F3C752 		ubfx	r2, r2, #23, #8
 248              	.L11:
 249              	.LVL30:
 250              		.loc 1 1523 12 view .LVU84
 251              	.LBE83:
 252              	.LBE82:
1196:lvgl/src/draw/lv_draw_mask.c ****         }
 253              		.loc 1 1196 25 view .LVU85
 254 00d2 8EF80020 		strb	r2, [lr]
1195:lvgl/src/draw/lv_draw_mask.c ****             mask_buf[i] = mask_mix(mask_buf[i], p->cfg.opa_bottom);
 255              		.loc 1 1195 30 is_stmt 1 view .LVU86
 256 00d6 0131     		adds	r1, r1, #1
 257              	.LVL31:
 258              	.L9:
1195:lvgl/src/draw/lv_draw_mask.c ****             mask_buf[i] = mask_mix(mask_buf[i], p->cfg.opa_bottom);
 259              		.loc 1 1195 22 discriminator 1 view .LVU87
 260 00d8 8B42     		cmp	r3, r1
 261 00da 0EDD     		ble	.L31
1196:lvgl/src/draw/lv_draw_mask.c ****         }
 262              		.loc 1 1196 13 discriminator 3 view .LVU88
1196:lvgl/src/draw/lv_draw_mask.c ****         }
 263              		.loc 1 1196 44 is_stmt 0 discriminator 3 view .LVU89
 264 00dc 00EB010E 		add	lr, r0, r1
1196:lvgl/src/draw/lv_draw_mask.c ****         }
 265              		.loc 1 1196 27 discriminator 3 view .LVU90
 266 00e0 425C     		ldrb	r2, [r0, r1]	@ zero_extendqisi2
 267 00e2 94F815C0 		ldrb	ip, [r4, #21]	@ zero_extendqisi2
 268              	.LVL32:
 269              	.LBB85:
 270              	.LBI82:
1518:lvgl/src/draw/lv_draw_mask.c **** {
 271              		.loc 1 1518 46 is_stmt 1 discriminator 3 view .LVU91
 272              	.LBB84:
1520:lvgl/src/draw/lv_draw_mask.c ****     if(mask_new <= LV_OPA_MIN) return 0;
 273              		.loc 1 1520 5 discriminator 3 view .LVU92
1520:lvgl/src/draw/lv_draw_mask.c ****     if(mask_new <= LV_OPA_MIN) return 0;
 274              		.loc 1 1520 7 is_stmt 0 discriminator 3 view .LVU93
 275 00e6 BCF1FC0F 		cmp	ip, #252
ARM GAS  /var/folders/21/t9g5rlb91ys800n5npymflf80000gn/T//cc0CxbBx.s 			page 33


 276 00ea F2D8     		bhi	.L11
1521:lvgl/src/draw/lv_draw_mask.c **** 
 277              		.loc 1 1521 5 is_stmt 1 view .LVU94
1521:lvgl/src/draw/lv_draw_mask.c **** 
 278              		.loc 1 1521 7 is_stmt 0 view .LVU95
 279 00ec BCF1020F 		cmp	ip, #2
 280 00f0 E7D8     		bhi	.L32
1521:lvgl/src/draw/lv_draw_mask.c **** 
 281              		.loc 1 1521 39 view .LVU96
 282 00f2 0022     		movs	r2, #0
 283              	.LVL33:
1521:lvgl/src/draw/lv_draw_mask.c **** 
 284              		.loc 1 1521 39 view .LVU97
 285 00f4 EDE7     		b	.L11
 286              	.LVL34:
 287              	.L22:
1521:lvgl/src/draw/lv_draw_mask.c **** 
 288              		.loc 1 1521 39 view .LVU98
 289              	.LBE84:
 290              	.LBE85:
1195:lvgl/src/draw/lv_draw_mask.c ****             mask_buf[i] = mask_mix(mask_buf[i], p->cfg.opa_bottom);
 291              		.loc 1 1195 15 view .LVU99
 292 00f6 0021     		movs	r1, #0
 293 00f8 EEE7     		b	.L9
 294              	.LVL35:
 295              	.L31:
1198:lvgl/src/draw/lv_draw_mask.c ****     }
 296              		.loc 1 1198 16 view .LVU100
 297 00fa 0220     		movs	r0, #2
 298              	.LVL36:
1198:lvgl/src/draw/lv_draw_mask.c ****     }
 299              		.loc 1 1198 16 view .LVU101
 300 00fc 18E0     		b	.L2
 301              	.LVL37:
 302              	.L34:
 303              	.LBB86:
 304              	.LBB74:
 305              	.LBB75:
 306              		.loc 1 1523 5 is_stmt 1 view .LVU102
 307              		.loc 1 1523 12 is_stmt 0 view .LVU103
 308 00fe 0CFB02F2 		mul	r2, ip, r2
 309              	.LVL38:
 310              		.loc 1 1523 12 view .LVU104
 311 0102 02EB0225 		add	r5, r2, r2, lsl #8
 312 0106 02EBC512 		add	r2, r2, r5, lsl #7
 313 010a C2F3C752 		ubfx	r2, r2, #23, #8
 314              	.L14:
 315              	.LVL39:
 316              		.loc 1 1523 12 view .LVU105
 317              	.LBE75:
 318              	.LBE74:
1208:lvgl/src/draw/lv_draw_mask.c ****         }
 319              		.loc 1 1208 25 view .LVU106
 320 010e 2270     		strb	r2, [r4]
1207:lvgl/src/draw/lv_draw_mask.c ****             mask_buf[i] = mask_mix(mask_buf[i], opa_act);
 321              		.loc 1 1207 30 is_stmt 1 view .LVU107
 322 0110 0131     		adds	r1, r1, #1
ARM GAS  /var/folders/21/t9g5rlb91ys800n5npymflf80000gn/T//cc0CxbBx.s 			page 34


 323              	.LVL40:
 324              	.L13:
1207:lvgl/src/draw/lv_draw_mask.c ****             mask_buf[i] = mask_mix(mask_buf[i], opa_act);
 325              		.loc 1 1207 22 discriminator 1 view .LVU108
 326 0112 8B42     		cmp	r3, r1
 327 0114 09DD     		ble	.L33
1208:lvgl/src/draw/lv_draw_mask.c ****         }
 328              		.loc 1 1208 13 discriminator 3 view .LVU109
1208:lvgl/src/draw/lv_draw_mask.c ****         }
 329              		.loc 1 1208 44 is_stmt 0 discriminator 3 view .LVU110
 330 0116 4418     		adds	r4, r0, r1
1208:lvgl/src/draw/lv_draw_mask.c ****         }
 331              		.loc 1 1208 27 discriminator 3 view .LVU111
 332 0118 425C     		ldrb	r2, [r0, r1]	@ zero_extendqisi2
 333              	.LVL41:
 334              	.LBB77:
 335              	.LBI74:
1518:lvgl/src/draw/lv_draw_mask.c **** {
 336              		.loc 1 1518 46 is_stmt 1 discriminator 3 view .LVU112
 337              	.LBB76:
1520:lvgl/src/draw/lv_draw_mask.c ****     if(mask_new <= LV_OPA_MIN) return 0;
 338              		.loc 1 1520 5 discriminator 3 view .LVU113
1520:lvgl/src/draw/lv_draw_mask.c ****     if(mask_new <= LV_OPA_MIN) return 0;
 339              		.loc 1 1520 7 is_stmt 0 discriminator 3 view .LVU114
 340 011a BCF1FC0F 		cmp	ip, #252
 341 011e F6D8     		bhi	.L14
1521:lvgl/src/draw/lv_draw_mask.c **** 
 342              		.loc 1 1521 5 is_stmt 1 view .LVU115
1521:lvgl/src/draw/lv_draw_mask.c **** 
 343              		.loc 1 1521 7 is_stmt 0 view .LVU116
 344 0120 BCF1020F 		cmp	ip, #2
 345 0124 EBD8     		bhi	.L34
1521:lvgl/src/draw/lv_draw_mask.c **** 
 346              		.loc 1 1521 39 view .LVU117
 347 0126 0022     		movs	r2, #0
 348              	.LVL42:
1521:lvgl/src/draw/lv_draw_mask.c **** 
 349              		.loc 1 1521 39 view .LVU118
 350 0128 F1E7     		b	.L14
 351              	.LVL43:
 352              	.L33:
1521:lvgl/src/draw/lv_draw_mask.c **** 
 353              		.loc 1 1521 39 view .LVU119
 354              	.LBE76:
 355              	.LBE77:
1210:lvgl/src/draw/lv_draw_mask.c ****     }
 356              		.loc 1 1210 16 view .LVU120
 357 012a 0220     		movs	r0, #2
 358              	.LVL44:
1210:lvgl/src/draw/lv_draw_mask.c ****     }
 359              		.loc 1 1210 16 view .LVU121
 360 012c 00E0     		b	.L2
 361              	.LVL45:
 362              	.L16:
1210:lvgl/src/draw/lv_draw_mask.c ****     }
 363              		.loc 1 1210 16 view .LVU122
 364              	.LBE86:
ARM GAS  /var/folders/21/t9g5rlb91ys800n5npymflf80000gn/T//cc0CxbBx.s 			page 35


1172:lvgl/src/draw/lv_draw_mask.c ****     if(abs_y > p->cfg.coords.y2) return LV_DRAW_MASK_RES_FULL_COVER;
 365              		.loc 1 1172 41 view .LVU123
 366 012e 0120     		movs	r0, #1
 367              	.LVL46:
 368              	.L2:
1212:lvgl/src/draw/lv_draw_mask.c **** 
 369              		.loc 1 1212 1 view .LVU124
 370 0130 70BD     		pop	{r4, r5, r6, pc}
 371              	.LVL47:
 372              	.L17:
1173:lvgl/src/draw/lv_draw_mask.c ****     if(abs_x + len < p->cfg.coords.x1) return LV_DRAW_MASK_RES_FULL_COVER;
 373              		.loc 1 1173 41 view .LVU125
 374 0132 0120     		movs	r0, #1
 375              	.LVL48:
1173:lvgl/src/draw/lv_draw_mask.c ****     if(abs_x + len < p->cfg.coords.x1) return LV_DRAW_MASK_RES_FULL_COVER;
 376              		.loc 1 1173 41 view .LVU126
 377 0134 FCE7     		b	.L2
 378              	.LVL49:
 379              	.L18:
1174:lvgl/src/draw/lv_draw_mask.c ****     if(abs_x > p->cfg.coords.x2) return LV_DRAW_MASK_RES_FULL_COVER;
 380              		.loc 1 1174 47 view .LVU127
 381 0136 0120     		movs	r0, #1
 382              	.LVL50:
1174:lvgl/src/draw/lv_draw_mask.c ****     if(abs_x > p->cfg.coords.x2) return LV_DRAW_MASK_RES_FULL_COVER;
 383              		.loc 1 1174 47 view .LVU128
 384 0138 FAE7     		b	.L2
 385              	.LVL51:
 386              	.L19:
1175:lvgl/src/draw/lv_draw_mask.c **** 
 387              		.loc 1 1175 41 view .LVU129
 388 013a 0120     		movs	r0, #1
 389              	.LVL52:
1175:lvgl/src/draw/lv_draw_mask.c **** 
 390              		.loc 1 1175 41 view .LVU130
 391 013c F8E7     		b	.L2
 392              		.cfi_endproc
 393              	.LFE77:
 395              		.section	.text.lv_draw_mask_map,"ax",%progbits
 396              		.align	1
 397              		.syntax unified
 398              		.thumb
 399              		.thumb_func
 401              	lv_draw_mask_map:
 402              	.LVL53:
 403              	.LFB78:
1217:lvgl/src/draw/lv_draw_mask.c ****     /*Handle out of the mask cases*/
 404              		.loc 1 1217 1 is_stmt 1 view -0
 405              		.cfi_startproc
 406              		@ args = 4, pretend = 0, frame = 0
 407              		@ frame_needed = 0, uses_anonymous_args = 0
1217:lvgl/src/draw/lv_draw_mask.c ****     /*Handle out of the mask cases*/
 408              		.loc 1 1217 1 is_stmt 0 view .LVU132
 409 0000 2DE9F041 		push	{r4, r5, r6, r7, r8, lr}
 410              	.LCFI1:
 411              		.cfi_def_cfa_offset 24
 412              		.cfi_offset 4, -24
 413              		.cfi_offset 5, -20
ARM GAS  /var/folders/21/t9g5rlb91ys800n5npymflf80000gn/T//cc0CxbBx.s 			page 36


 414              		.cfi_offset 6, -16
 415              		.cfi_offset 7, -12
 416              		.cfi_offset 8, -8
 417              		.cfi_offset 14, -4
 418 0004 069C     		ldr	r4, [sp, #24]
1219:lvgl/src/draw/lv_draw_mask.c ****     if(abs_y > p->cfg.coords.y2) return LV_DRAW_MASK_RES_FULL_COVER;
 419              		.loc 1 1219 5 is_stmt 1 view .LVU133
1219:lvgl/src/draw/lv_draw_mask.c ****     if(abs_y > p->cfg.coords.y2) return LV_DRAW_MASK_RES_FULL_COVER;
 420              		.loc 1 1219 29 is_stmt 0 view .LVU134
 421 0006 B4F90AC0 		ldrsh	ip, [r4, #10]
1219:lvgl/src/draw/lv_draw_mask.c ****     if(abs_y > p->cfg.coords.y2) return LV_DRAW_MASK_RES_FULL_COVER;
 422              		.loc 1 1219 7 view .LVU135
 423 000a 9445     		cmp	ip, r2
 424 000c 4DDC     		bgt	.L43
1220:lvgl/src/draw/lv_draw_mask.c ****     if(abs_x + len < p->cfg.coords.x1) return LV_DRAW_MASK_RES_FULL_COVER;
 425              		.loc 1 1220 5 is_stmt 1 view .LVU136
1220:lvgl/src/draw/lv_draw_mask.c ****     if(abs_x + len < p->cfg.coords.x1) return LV_DRAW_MASK_RES_FULL_COVER;
 426              		.loc 1 1220 29 is_stmt 0 view .LVU137
 427 000e B4F90E50 		ldrsh	r5, [r4, #14]
1220:lvgl/src/draw/lv_draw_mask.c ****     if(abs_x + len < p->cfg.coords.x1) return LV_DRAW_MASK_RES_FULL_COVER;
 428              		.loc 1 1220 7 view .LVU138
 429 0012 9542     		cmp	r5, r2
 430 0014 4CDB     		blt	.L44
1221:lvgl/src/draw/lv_draw_mask.c ****     if(abs_x > p->cfg.coords.x2) return LV_DRAW_MASK_RES_FULL_COVER;
 431              		.loc 1 1221 5 is_stmt 1 view .LVU139
1221:lvgl/src/draw/lv_draw_mask.c ****     if(abs_x > p->cfg.coords.x2) return LV_DRAW_MASK_RES_FULL_COVER;
 432              		.loc 1 1221 14 is_stmt 0 view .LVU140
 433 0016 5D18     		adds	r5, r3, r1
1221:lvgl/src/draw/lv_draw_mask.c ****     if(abs_x > p->cfg.coords.x2) return LV_DRAW_MASK_RES_FULL_COVER;
 434              		.loc 1 1221 35 view .LVU141
 435 0018 B4F908E0 		ldrsh	lr, [r4, #8]
1221:lvgl/src/draw/lv_draw_mask.c ****     if(abs_x > p->cfg.coords.x2) return LV_DRAW_MASK_RES_FULL_COVER;
 436              		.loc 1 1221 7 view .LVU142
 437 001c 7545     		cmp	r5, lr
 438 001e 49DB     		blt	.L45
1222:lvgl/src/draw/lv_draw_mask.c **** 
 439              		.loc 1 1222 5 is_stmt 1 view .LVU143
1222:lvgl/src/draw/lv_draw_mask.c **** 
 440              		.loc 1 1222 29 is_stmt 0 view .LVU144
 441 0020 B4F90C60 		ldrsh	r6, [r4, #12]
1222:lvgl/src/draw/lv_draw_mask.c **** 
 442              		.loc 1 1222 7 view .LVU145
 443 0024 8E42     		cmp	r6, r1
 444 0026 47DB     		blt	.L46
1225:lvgl/src/draw/lv_draw_mask.c ****     map_tmp += (abs_y - p->cfg.coords.y1) * lv_area_get_width(&p->cfg.coords);
 445              		.loc 1 1225 5 is_stmt 1 view .LVU146
1225:lvgl/src/draw/lv_draw_mask.c ****     map_tmp += (abs_y - p->cfg.coords.y1) * lv_area_get_width(&p->cfg.coords);
 446              		.loc 1 1225 22 is_stmt 0 view .LVU147
 447 0028 2769     		ldr	r7, [r4, #16]
 448              	.LVL54:
1226:lvgl/src/draw/lv_draw_mask.c **** 
 449              		.loc 1 1226 5 is_stmt 1 view .LVU148
1226:lvgl/src/draw/lv_draw_mask.c **** 
 450              		.loc 1 1226 23 is_stmt 0 view .LVU149
 451 002a A2EB0C02 		sub	r2, r2, ip
 452              	.LVL55:
 453              	.LBB87:
ARM GAS  /var/folders/21/t9g5rlb91ys800n5npymflf80000gn/T//cc0CxbBx.s 			page 37


 454              	.LBI87:
 455              		.file 2 "lvgl/src/draw/../misc/../font/../misc/lv_area.h"
   1:lvgl/src/draw/../misc/../font/../misc/lv_area.h **** /**
   2:lvgl/src/draw/../misc/../font/../misc/lv_area.h ****  * @file lv_area.h
   3:lvgl/src/draw/../misc/../font/../misc/lv_area.h ****  *
   4:lvgl/src/draw/../misc/../font/../misc/lv_area.h ****  */
   5:lvgl/src/draw/../misc/../font/../misc/lv_area.h **** 
   6:lvgl/src/draw/../misc/../font/../misc/lv_area.h **** #ifndef LV_AREA_H
   7:lvgl/src/draw/../misc/../font/../misc/lv_area.h **** #define LV_AREA_H
   8:lvgl/src/draw/../misc/../font/../misc/lv_area.h **** 
   9:lvgl/src/draw/../misc/../font/../misc/lv_area.h **** #ifdef __cplusplus
  10:lvgl/src/draw/../misc/../font/../misc/lv_area.h **** extern "C" {
  11:lvgl/src/draw/../misc/../font/../misc/lv_area.h **** #endif
  12:lvgl/src/draw/../misc/../font/../misc/lv_area.h **** 
  13:lvgl/src/draw/../misc/../font/../misc/lv_area.h **** /*********************
  14:lvgl/src/draw/../misc/../font/../misc/lv_area.h ****  *      INCLUDES
  15:lvgl/src/draw/../misc/../font/../misc/lv_area.h ****  *********************/
  16:lvgl/src/draw/../misc/../font/../misc/lv_area.h **** #include "../lv_conf_internal.h"
  17:lvgl/src/draw/../misc/../font/../misc/lv_area.h **** #include <stdbool.h>
  18:lvgl/src/draw/../misc/../font/../misc/lv_area.h **** #include <stdint.h>
  19:lvgl/src/draw/../misc/../font/../misc/lv_area.h **** 
  20:lvgl/src/draw/../misc/../font/../misc/lv_area.h **** /*********************
  21:lvgl/src/draw/../misc/../font/../misc/lv_area.h ****  *      DEFINES
  22:lvgl/src/draw/../misc/../font/../misc/lv_area.h ****  *********************/
  23:lvgl/src/draw/../misc/../font/../misc/lv_area.h **** 
  24:lvgl/src/draw/../misc/../font/../misc/lv_area.h **** #if LV_USE_LARGE_COORD
  25:lvgl/src/draw/../misc/../font/../misc/lv_area.h **** typedef int32_t lv_coord_t;
  26:lvgl/src/draw/../misc/../font/../misc/lv_area.h **** #else
  27:lvgl/src/draw/../misc/../font/../misc/lv_area.h **** typedef int16_t lv_coord_t;
  28:lvgl/src/draw/../misc/../font/../misc/lv_area.h **** #endif
  29:lvgl/src/draw/../misc/../font/../misc/lv_area.h **** 
  30:lvgl/src/draw/../misc/../font/../misc/lv_area.h **** /**********************
  31:lvgl/src/draw/../misc/../font/../misc/lv_area.h ****  *      TYPEDEFS
  32:lvgl/src/draw/../misc/../font/../misc/lv_area.h ****  **********************/
  33:lvgl/src/draw/../misc/../font/../misc/lv_area.h **** 
  34:lvgl/src/draw/../misc/../font/../misc/lv_area.h **** /**
  35:lvgl/src/draw/../misc/../font/../misc/lv_area.h ****  * Represents a point on the screen.
  36:lvgl/src/draw/../misc/../font/../misc/lv_area.h ****  */
  37:lvgl/src/draw/../misc/../font/../misc/lv_area.h **** typedef struct {
  38:lvgl/src/draw/../misc/../font/../misc/lv_area.h ****     lv_coord_t x;
  39:lvgl/src/draw/../misc/../font/../misc/lv_area.h ****     lv_coord_t y;
  40:lvgl/src/draw/../misc/../font/../misc/lv_area.h **** } lv_point_t;
  41:lvgl/src/draw/../misc/../font/../misc/lv_area.h **** 
  42:lvgl/src/draw/../misc/../font/../misc/lv_area.h **** /** Represents an area of the screen.*/
  43:lvgl/src/draw/../misc/../font/../misc/lv_area.h **** typedef struct {
  44:lvgl/src/draw/../misc/../font/../misc/lv_area.h ****     lv_coord_t x1;
  45:lvgl/src/draw/../misc/../font/../misc/lv_area.h ****     lv_coord_t y1;
  46:lvgl/src/draw/../misc/../font/../misc/lv_area.h ****     lv_coord_t x2;
  47:lvgl/src/draw/../misc/../font/../misc/lv_area.h ****     lv_coord_t y2;
  48:lvgl/src/draw/../misc/../font/../misc/lv_area.h **** } lv_area_t;
  49:lvgl/src/draw/../misc/../font/../misc/lv_area.h **** 
  50:lvgl/src/draw/../misc/../font/../misc/lv_area.h **** /** Alignments*/
  51:lvgl/src/draw/../misc/../font/../misc/lv_area.h **** enum {
  52:lvgl/src/draw/../misc/../font/../misc/lv_area.h ****     LV_ALIGN_DEFAULT = 0,
  53:lvgl/src/draw/../misc/../font/../misc/lv_area.h ****     LV_ALIGN_TOP_LEFT,
  54:lvgl/src/draw/../misc/../font/../misc/lv_area.h ****     LV_ALIGN_TOP_MID,
  55:lvgl/src/draw/../misc/../font/../misc/lv_area.h ****     LV_ALIGN_TOP_RIGHT,
ARM GAS  /var/folders/21/t9g5rlb91ys800n5npymflf80000gn/T//cc0CxbBx.s 			page 38


  56:lvgl/src/draw/../misc/../font/../misc/lv_area.h ****     LV_ALIGN_BOTTOM_LEFT,
  57:lvgl/src/draw/../misc/../font/../misc/lv_area.h ****     LV_ALIGN_BOTTOM_MID,
  58:lvgl/src/draw/../misc/../font/../misc/lv_area.h ****     LV_ALIGN_BOTTOM_RIGHT,
  59:lvgl/src/draw/../misc/../font/../misc/lv_area.h ****     LV_ALIGN_LEFT_MID,
  60:lvgl/src/draw/../misc/../font/../misc/lv_area.h ****     LV_ALIGN_RIGHT_MID,
  61:lvgl/src/draw/../misc/../font/../misc/lv_area.h ****     LV_ALIGN_CENTER,
  62:lvgl/src/draw/../misc/../font/../misc/lv_area.h **** 
  63:lvgl/src/draw/../misc/../font/../misc/lv_area.h ****     LV_ALIGN_OUT_TOP_LEFT,
  64:lvgl/src/draw/../misc/../font/../misc/lv_area.h ****     LV_ALIGN_OUT_TOP_MID,
  65:lvgl/src/draw/../misc/../font/../misc/lv_area.h ****     LV_ALIGN_OUT_TOP_RIGHT,
  66:lvgl/src/draw/../misc/../font/../misc/lv_area.h ****     LV_ALIGN_OUT_BOTTOM_LEFT,
  67:lvgl/src/draw/../misc/../font/../misc/lv_area.h ****     LV_ALIGN_OUT_BOTTOM_MID,
  68:lvgl/src/draw/../misc/../font/../misc/lv_area.h ****     LV_ALIGN_OUT_BOTTOM_RIGHT,
  69:lvgl/src/draw/../misc/../font/../misc/lv_area.h ****     LV_ALIGN_OUT_LEFT_TOP,
  70:lvgl/src/draw/../misc/../font/../misc/lv_area.h ****     LV_ALIGN_OUT_LEFT_MID,
  71:lvgl/src/draw/../misc/../font/../misc/lv_area.h ****     LV_ALIGN_OUT_LEFT_BOTTOM,
  72:lvgl/src/draw/../misc/../font/../misc/lv_area.h ****     LV_ALIGN_OUT_RIGHT_TOP,
  73:lvgl/src/draw/../misc/../font/../misc/lv_area.h ****     LV_ALIGN_OUT_RIGHT_MID,
  74:lvgl/src/draw/../misc/../font/../misc/lv_area.h ****     LV_ALIGN_OUT_RIGHT_BOTTOM,
  75:lvgl/src/draw/../misc/../font/../misc/lv_area.h **** };
  76:lvgl/src/draw/../misc/../font/../misc/lv_area.h **** typedef uint8_t lv_align_t;
  77:lvgl/src/draw/../misc/../font/../misc/lv_area.h **** 
  78:lvgl/src/draw/../misc/../font/../misc/lv_area.h **** enum {
  79:lvgl/src/draw/../misc/../font/../misc/lv_area.h ****     LV_DIR_NONE     = 0x00,
  80:lvgl/src/draw/../misc/../font/../misc/lv_area.h ****     LV_DIR_LEFT     = (1 << 0),
  81:lvgl/src/draw/../misc/../font/../misc/lv_area.h ****     LV_DIR_RIGHT    = (1 << 1),
  82:lvgl/src/draw/../misc/../font/../misc/lv_area.h ****     LV_DIR_TOP      = (1 << 2),
  83:lvgl/src/draw/../misc/../font/../misc/lv_area.h ****     LV_DIR_BOTTOM   = (1 << 3),
  84:lvgl/src/draw/../misc/../font/../misc/lv_area.h ****     LV_DIR_HOR      = LV_DIR_LEFT | LV_DIR_RIGHT,
  85:lvgl/src/draw/../misc/../font/../misc/lv_area.h ****     LV_DIR_VER      = LV_DIR_TOP | LV_DIR_BOTTOM,
  86:lvgl/src/draw/../misc/../font/../misc/lv_area.h ****     LV_DIR_ALL      = LV_DIR_HOR | LV_DIR_VER,
  87:lvgl/src/draw/../misc/../font/../misc/lv_area.h **** };
  88:lvgl/src/draw/../misc/../font/../misc/lv_area.h **** 
  89:lvgl/src/draw/../misc/../font/../misc/lv_area.h **** typedef uint8_t lv_dir_t;
  90:lvgl/src/draw/../misc/../font/../misc/lv_area.h **** 
  91:lvgl/src/draw/../misc/../font/../misc/lv_area.h **** /**********************
  92:lvgl/src/draw/../misc/../font/../misc/lv_area.h ****  * GLOBAL PROTOTYPES
  93:lvgl/src/draw/../misc/../font/../misc/lv_area.h ****  **********************/
  94:lvgl/src/draw/../misc/../font/../misc/lv_area.h **** 
  95:lvgl/src/draw/../misc/../font/../misc/lv_area.h **** /**
  96:lvgl/src/draw/../misc/../font/../misc/lv_area.h ****  * Initialize an area
  97:lvgl/src/draw/../misc/../font/../misc/lv_area.h ****  * @param area_p pointer to an area
  98:lvgl/src/draw/../misc/../font/../misc/lv_area.h ****  * @param x1 left coordinate of the area
  99:lvgl/src/draw/../misc/../font/../misc/lv_area.h ****  * @param y1 top coordinate of the area
 100:lvgl/src/draw/../misc/../font/../misc/lv_area.h ****  * @param x2 right coordinate of the area
 101:lvgl/src/draw/../misc/../font/../misc/lv_area.h ****  * @param y2 bottom coordinate of the area
 102:lvgl/src/draw/../misc/../font/../misc/lv_area.h ****  */
 103:lvgl/src/draw/../misc/../font/../misc/lv_area.h **** void lv_area_set(lv_area_t * area_p, lv_coord_t x1, lv_coord_t y1, lv_coord_t x2, lv_coord_t y2);
 104:lvgl/src/draw/../misc/../font/../misc/lv_area.h **** 
 105:lvgl/src/draw/../misc/../font/../misc/lv_area.h **** /**
 106:lvgl/src/draw/../misc/../font/../misc/lv_area.h ****  * Copy an area
 107:lvgl/src/draw/../misc/../font/../misc/lv_area.h ****  * @param dest pointer to the destination area
 108:lvgl/src/draw/../misc/../font/../misc/lv_area.h ****  * @param src pointer to the source area
 109:lvgl/src/draw/../misc/../font/../misc/lv_area.h ****  */
 110:lvgl/src/draw/../misc/../font/../misc/lv_area.h **** inline static void lv_area_copy(lv_area_t * dest, const lv_area_t * src)
 111:lvgl/src/draw/../misc/../font/../misc/lv_area.h **** {
 112:lvgl/src/draw/../misc/../font/../misc/lv_area.h ****     dest->x1 = src->x1;
ARM GAS  /var/folders/21/t9g5rlb91ys800n5npymflf80000gn/T//cc0CxbBx.s 			page 39


 113:lvgl/src/draw/../misc/../font/../misc/lv_area.h ****     dest->y1 = src->y1;
 114:lvgl/src/draw/../misc/../font/../misc/lv_area.h ****     dest->x2 = src->x2;
 115:lvgl/src/draw/../misc/../font/../misc/lv_area.h ****     dest->y2 = src->y2;
 116:lvgl/src/draw/../misc/../font/../misc/lv_area.h **** }
 117:lvgl/src/draw/../misc/../font/../misc/lv_area.h **** 
 118:lvgl/src/draw/../misc/../font/../misc/lv_area.h **** /**
 119:lvgl/src/draw/../misc/../font/../misc/lv_area.h ****  * Get the width of an area
 120:lvgl/src/draw/../misc/../font/../misc/lv_area.h ****  * @param area_p pointer to an area
 121:lvgl/src/draw/../misc/../font/../misc/lv_area.h ****  * @return the width of the area (if x1 == x2 -> width = 1)
 122:lvgl/src/draw/../misc/../font/../misc/lv_area.h ****  */
 123:lvgl/src/draw/../misc/../font/../misc/lv_area.h **** static inline lv_coord_t lv_area_get_width(const lv_area_t * area_p)
 456              		.loc 2 123 26 is_stmt 1 view .LVU150
 457              	.LBB88:
 124:lvgl/src/draw/../misc/../font/../misc/lv_area.h **** {
 125:lvgl/src/draw/../misc/../font/../misc/lv_area.h ****     return (lv_coord_t)(area_p->x2 - area_p->x1 + 1);
 458              		.loc 2 125 5 view .LVU151
 459              		.loc 2 125 31 is_stmt 0 view .LVU152
 460 002e 1FFA86F8 		uxth	r8, r6
 461              		.loc 2 125 44 view .LVU153
 462 0032 1FFA8EF4 		uxth	r4, lr
 463              	.LVL56:
 464              		.loc 2 125 36 view .LVU154
 465 0036 A8EB0404 		sub	r4, r8, r4
 466 003a A4B2     		uxth	r4, r4
 467              		.loc 2 125 49 view .LVU155
 468 003c 0134     		adds	r4, r4, #1
 469              		.loc 2 125 12 view .LVU156
 470 003e 24B2     		sxth	r4, r4
 471              	.LVL57:
 472              		.loc 2 125 12 view .LVU157
 473              	.LBE88:
 474              	.LBE87:
1226:lvgl/src/draw/lv_draw_mask.c **** 
 475              		.loc 1 1226 13 view .LVU158
 476 0040 04FB027C 		mla	ip, r4, r2, r7
 477              	.LVL58:
1228:lvgl/src/draw/lv_draw_mask.c **** 
 478              		.loc 1 1228 5 is_stmt 1 view .LVU159
1228:lvgl/src/draw/lv_draw_mask.c **** 
 479              		.loc 1 1228 7 is_stmt 0 view .LVU160
 480 0044 B542     		cmp	r5, r6
 481 0046 08DD     		ble	.L37
1228:lvgl/src/draw/lv_draw_mask.c **** 
 482              		.loc 1 1228 40 is_stmt 1 discriminator 1 view .LVU161
1228:lvgl/src/draw/lv_draw_mask.c **** 
 483              		.loc 1 1228 53 is_stmt 0 discriminator 1 view .LVU162
 484 0048 9CB2     		uxth	r4, r3
 485 004a 6218     		adds	r2, r4, r1
 486 004c 92B2     		uxth	r2, r2
1228:lvgl/src/draw/lv_draw_mask.c **** 
 487              		.loc 1 1228 78 discriminator 1 view .LVU163
 488 004e A8EB0203 		sub	r3, r8, r2
 489              	.LVL59:
1228:lvgl/src/draw/lv_draw_mask.c **** 
 490              		.loc 1 1228 44 discriminator 1 view .LVU164
 491 0052 14FA83F3 		uxtah	r3, r4, r3
 492 0056 0133     		adds	r3, r3, #1
ARM GAS  /var/folders/21/t9g5rlb91ys800n5npymflf80000gn/T//cc0CxbBx.s 			page 40


 493 0058 1BB2     		sxth	r3, r3
 494              	.LVL60:
 495              	.L37:
1230:lvgl/src/draw/lv_draw_mask.c ****         int32_t x_ofs = 0;
 496              		.loc 1 1230 5 is_stmt 1 view .LVU165
1230:lvgl/src/draw/lv_draw_mask.c ****         int32_t x_ofs = 0;
 497              		.loc 1 1230 7 is_stmt 0 view .LVU166
 498 005a 8E45     		cmp	lr, r1
 499 005c 07DD     		ble	.L38
 500              	.LBB89:
1231:lvgl/src/draw/lv_draw_mask.c ****         x_ofs = p->cfg.coords.x1 - abs_x;
 501              		.loc 1 1231 9 is_stmt 1 view .LVU167
 502              	.LVL61:
1232:lvgl/src/draw/lv_draw_mask.c ****         len -= x_ofs;
 503              		.loc 1 1232 9 view .LVU168
1232:lvgl/src/draw/lv_draw_mask.c ****         len -= x_ofs;
 504              		.loc 1 1232 15 is_stmt 0 view .LVU169
 505 005e AEEB010E 		sub	lr, lr, r1
 506              	.LVL62:
1233:lvgl/src/draw/lv_draw_mask.c ****         mask_buf += x_ofs;
 507              		.loc 1 1233 9 is_stmt 1 view .LVU170
1233:lvgl/src/draw/lv_draw_mask.c ****         mask_buf += x_ofs;
 508              		.loc 1 1233 13 is_stmt 0 view .LVU171
 509 0062 A3EB0E03 		sub	r3, r3, lr
 510              	.LVL63:
1233:lvgl/src/draw/lv_draw_mask.c ****         mask_buf += x_ofs;
 511              		.loc 1 1233 13 view .LVU172
 512 0066 1BB2     		sxth	r3, r3
 513              	.LVL64:
1234:lvgl/src/draw/lv_draw_mask.c ****     }
 514              		.loc 1 1234 9 is_stmt 1 view .LVU173
1234:lvgl/src/draw/lv_draw_mask.c ****     }
 515              		.loc 1 1234 18 is_stmt 0 view .LVU174
 516 0068 7044     		add	r0, r0, lr
 517              	.LVL65:
 518              	.L39:
1234:lvgl/src/draw/lv_draw_mask.c ****     }
 519              		.loc 1 1234 18 view .LVU175
 520              	.LBE89:
1240:lvgl/src/draw/lv_draw_mask.c ****     for(i = 0; i < len; i++) {
 521              		.loc 1 1240 5 is_stmt 1 view .LVU176
1241:lvgl/src/draw/lv_draw_mask.c ****         mask_buf[i] = mask_mix(mask_buf[i], map_tmp[i]);
 522              		.loc 1 1241 5 view .LVU177
1241:lvgl/src/draw/lv_draw_mask.c ****         mask_buf[i] = mask_mix(mask_buf[i], map_tmp[i]);
 523              		.loc 1 1241 11 is_stmt 0 view .LVU178
 524 006a 0022     		movs	r2, #0
1241:lvgl/src/draw/lv_draw_mask.c ****         mask_buf[i] = mask_mix(mask_buf[i], map_tmp[i]);
 525              		.loc 1 1241 5 view .LVU179
 526 006c 06E0     		b	.L40
 527              	.LVL66:
 528              	.L38:
1237:lvgl/src/draw/lv_draw_mask.c ****     }
 529              		.loc 1 1237 9 is_stmt 1 view .LVU180
1237:lvgl/src/draw/lv_draw_mask.c ****     }
 530              		.loc 1 1237 27 is_stmt 0 view .LVU181
 531 006e A1EB0E01 		sub	r1, r1, lr
 532              	.LVL67:
ARM GAS  /var/folders/21/t9g5rlb91ys800n5npymflf80000gn/T//cc0CxbBx.s 			page 41


1237:lvgl/src/draw/lv_draw_mask.c ****     }
 533              		.loc 1 1237 17 view .LVU182
 534 0072 8C44     		add	ip, ip, r1
 535              	.LVL68:
1237:lvgl/src/draw/lv_draw_mask.c ****     }
 536              		.loc 1 1237 17 view .LVU183
 537 0074 F9E7     		b	.L39
 538              	.LVL69:
 539              	.L47:
 540              	.LBB90:
 541              	.LBB91:
1521:lvgl/src/draw/lv_draw_mask.c **** 
 542              		.loc 1 1521 39 view .LVU184
 543 0076 0021     		movs	r1, #0
 544              	.LVL70:
 545              	.L41:
1521:lvgl/src/draw/lv_draw_mask.c **** 
 546              		.loc 1 1521 39 view .LVU185
 547              	.LBE91:
 548              	.LBE90:
1242:lvgl/src/draw/lv_draw_mask.c ****     }
 549              		.loc 1 1242 21 view .LVU186
 550 0078 2170     		strb	r1, [r4]
1241:lvgl/src/draw/lv_draw_mask.c ****         mask_buf[i] = mask_mix(mask_buf[i], map_tmp[i]);
 551              		.loc 1 1241 26 is_stmt 1 view .LVU187
 552 007a 0132     		adds	r2, r2, #1
 553              	.LVL71:
 554              	.L40:
1241:lvgl/src/draw/lv_draw_mask.c ****         mask_buf[i] = mask_mix(mask_buf[i], map_tmp[i]);
 555              		.loc 1 1241 18 discriminator 1 view .LVU188
 556 007c 9342     		cmp	r3, r2
 557 007e 12DD     		ble	.L49
1242:lvgl/src/draw/lv_draw_mask.c ****     }
 558              		.loc 1 1242 9 discriminator 3 view .LVU189
1242:lvgl/src/draw/lv_draw_mask.c ****     }
 559              		.loc 1 1242 40 is_stmt 0 discriminator 3 view .LVU190
 560 0080 8418     		adds	r4, r0, r2
1242:lvgl/src/draw/lv_draw_mask.c ****     }
 561              		.loc 1 1242 23 discriminator 3 view .LVU191
 562 0082 815C     		ldrb	r1, [r0, r2]	@ zero_extendqisi2
 563 0084 1CF802E0 		ldrb	lr, [ip, r2]	@ zero_extendqisi2
 564              	.LVL72:
 565              	.LBB93:
 566              	.LBI90:
1518:lvgl/src/draw/lv_draw_mask.c **** {
 567              		.loc 1 1518 46 is_stmt 1 discriminator 3 view .LVU192
 568              	.LBB92:
1520:lvgl/src/draw/lv_draw_mask.c ****     if(mask_new <= LV_OPA_MIN) return 0;
 569              		.loc 1 1520 5 discriminator 3 view .LVU193
1520:lvgl/src/draw/lv_draw_mask.c ****     if(mask_new <= LV_OPA_MIN) return 0;
 570              		.loc 1 1520 7 is_stmt 0 discriminator 3 view .LVU194
 571 0088 BEF1FC0F 		cmp	lr, #252
 572 008c F4D8     		bhi	.L41
1521:lvgl/src/draw/lv_draw_mask.c **** 
 573              		.loc 1 1521 5 is_stmt 1 view .LVU195
1521:lvgl/src/draw/lv_draw_mask.c **** 
 574              		.loc 1 1521 7 is_stmt 0 view .LVU196
ARM GAS  /var/folders/21/t9g5rlb91ys800n5npymflf80000gn/T//cc0CxbBx.s 			page 42


 575 008e BEF1020F 		cmp	lr, #2
 576 0092 F0D9     		bls	.L47
 577              		.loc 1 1523 5 is_stmt 1 view .LVU197
 578              		.loc 1 1523 12 is_stmt 0 view .LVU198
 579 0094 0EFB01F1 		mul	r1, lr, r1
 580              	.LVL73:
 581              		.loc 1 1523 12 view .LVU199
 582 0098 01EB0125 		add	r5, r1, r1, lsl #8
 583 009c 01EBC511 		add	r1, r1, r5, lsl #7
 584 00a0 C1F3C751 		ubfx	r1, r1, #23, #8
 585 00a4 E8E7     		b	.L41
 586              	.LVL74:
 587              	.L49:
 588              		.loc 1 1523 12 view .LVU200
 589              	.LBE92:
 590              	.LBE93:
1245:lvgl/src/draw/lv_draw_mask.c **** }
 591              		.loc 1 1245 12 view .LVU201
 592 00a6 0220     		movs	r0, #2
 593              	.LVL75:
1245:lvgl/src/draw/lv_draw_mask.c **** }
 594              		.loc 1 1245 12 view .LVU202
 595 00a8 00E0     		b	.L36
 596              	.LVL76:
 597              	.L43:
1219:lvgl/src/draw/lv_draw_mask.c ****     if(abs_y > p->cfg.coords.y2) return LV_DRAW_MASK_RES_FULL_COVER;
 598              		.loc 1 1219 41 view .LVU203
 599 00aa 0120     		movs	r0, #1
 600              	.LVL77:
 601              	.L36:
1246:lvgl/src/draw/lv_draw_mask.c **** 
 602              		.loc 1 1246 1 view .LVU204
 603 00ac BDE8F081 		pop	{r4, r5, r6, r7, r8, pc}
 604              	.LVL78:
 605              	.L44:
1220:lvgl/src/draw/lv_draw_mask.c ****     if(abs_x + len < p->cfg.coords.x1) return LV_DRAW_MASK_RES_FULL_COVER;
 606              		.loc 1 1220 41 view .LVU205
 607 00b0 0120     		movs	r0, #1
 608              	.LVL79:
1220:lvgl/src/draw/lv_draw_mask.c ****     if(abs_x + len < p->cfg.coords.x1) return LV_DRAW_MASK_RES_FULL_COVER;
 609              		.loc 1 1220 41 view .LVU206
 610 00b2 FBE7     		b	.L36
 611              	.LVL80:
 612              	.L45:
1221:lvgl/src/draw/lv_draw_mask.c ****     if(abs_x > p->cfg.coords.x2) return LV_DRAW_MASK_RES_FULL_COVER;
 613              		.loc 1 1221 47 view .LVU207
 614 00b4 0120     		movs	r0, #1
 615              	.LVL81:
1221:lvgl/src/draw/lv_draw_mask.c ****     if(abs_x > p->cfg.coords.x2) return LV_DRAW_MASK_RES_FULL_COVER;
 616              		.loc 1 1221 47 view .LVU208
 617 00b6 F9E7     		b	.L36
 618              	.LVL82:
 619              	.L46:
1222:lvgl/src/draw/lv_draw_mask.c **** 
 620              		.loc 1 1222 41 view .LVU209
 621 00b8 0120     		movs	r0, #1
 622              	.LVL83:
ARM GAS  /var/folders/21/t9g5rlb91ys800n5npymflf80000gn/T//cc0CxbBx.s 			page 43


1222:lvgl/src/draw/lv_draw_mask.c **** 
 623              		.loc 1 1222 41 view .LVU210
 624 00ba F7E7     		b	.L36
 625              		.cfi_endproc
 626              	.LFE78:
 628              		.section	.text.circ_init,"ax",%progbits
 629              		.align	1
 630              		.syntax unified
 631              		.thumb
 632              		.thumb_func
 634              	circ_init:
 635              	.LVL84:
 636              	.LFB80:
1328:lvgl/src/draw/lv_draw_mask.c ****     c->x = radius;
 637              		.loc 1 1328 1 is_stmt 1 view -0
 638              		.cfi_startproc
 639              		@ args = 0, pretend = 0, frame = 0
 640              		@ frame_needed = 0, uses_anonymous_args = 0
 641              		@ link register save eliminated.
1329:lvgl/src/draw/lv_draw_mask.c ****     c->y = 0;
 642              		.loc 1 1329 5 view .LVU212
1329:lvgl/src/draw/lv_draw_mask.c ****     c->y = 0;
 643              		.loc 1 1329 10 is_stmt 0 view .LVU213
 644 0000 0280     		strh	r2, [r0]	@ movhi
1330:lvgl/src/draw/lv_draw_mask.c ****     *tmp = 1 - radius;
 645              		.loc 1 1330 5 is_stmt 1 view .LVU214
1330:lvgl/src/draw/lv_draw_mask.c ****     *tmp = 1 - radius;
 646              		.loc 1 1330 10 is_stmt 0 view .LVU215
 647 0002 0023     		movs	r3, #0
 648 0004 4380     		strh	r3, [r0, #2]	@ movhi
1331:lvgl/src/draw/lv_draw_mask.c **** }
 649              		.loc 1 1331 5 is_stmt 1 view .LVU216
1331:lvgl/src/draw/lv_draw_mask.c **** }
 650              		.loc 1 1331 14 is_stmt 0 view .LVU217
 651 0006 C2F10102 		rsb	r2, r2, #1
 652              	.LVL85:
1331:lvgl/src/draw/lv_draw_mask.c **** }
 653              		.loc 1 1331 10 view .LVU218
 654 000a 0A80     		strh	r2, [r1]	@ movhi
 655              	.LVL86:
1332:lvgl/src/draw/lv_draw_mask.c **** 
 656              		.loc 1 1332 1 view .LVU219
 657 000c 7047     		bx	lr
 658              		.cfi_endproc
 659              	.LFE80:
 661              		.section	.text.circ_cont,"ax",%progbits
 662              		.align	1
 663              		.syntax unified
 664              		.thumb
 665              		.thumb_func
 667              	circ_cont:
 668              	.LVL87:
 669              	.LFB81:
1340:lvgl/src/draw/lv_draw_mask.c ****     return c->y <= c->x ? true : false;
 670              		.loc 1 1340 1 is_stmt 1 view -0
 671              		.cfi_startproc
 672              		@ args = 0, pretend = 0, frame = 0
ARM GAS  /var/folders/21/t9g5rlb91ys800n5npymflf80000gn/T//cc0CxbBx.s 			page 44


 673              		@ frame_needed = 0, uses_anonymous_args = 0
 674              		@ link register save eliminated.
1341:lvgl/src/draw/lv_draw_mask.c **** }
 675              		.loc 1 1341 5 view .LVU221
1341:lvgl/src/draw/lv_draw_mask.c **** }
 676              		.loc 1 1341 13 is_stmt 0 view .LVU222
 677 0000 B0F90220 		ldrsh	r2, [r0, #2]
1341:lvgl/src/draw/lv_draw_mask.c **** }
 678              		.loc 1 1341 21 view .LVU223
 679 0004 B0F90000 		ldrsh	r0, [r0]
 680              	.LVL88:
1342:lvgl/src/draw/lv_draw_mask.c **** 
 681              		.loc 1 1342 1 view .LVU224
 682 0008 8242     		cmp	r2, r0
 683 000a CCBF     		ite	gt
 684 000c 0020     		movgt	r0, #0
 685 000e 0120     		movle	r0, #1
 686 0010 7047     		bx	lr
 687              		.cfi_endproc
 688              	.LFE81:
 690              		.section	.text.circ_next,"ax",%progbits
 691              		.align	1
 692              		.syntax unified
 693              		.thumb
 694              		.thumb_func
 696              	circ_next:
 697              	.LVL89:
 698              	.LFB82:
1350:lvgl/src/draw/lv_draw_mask.c **** 
 699              		.loc 1 1350 1 is_stmt 1 view -0
 700              		.cfi_startproc
 701              		@ args = 0, pretend = 0, frame = 0
 702              		@ frame_needed = 0, uses_anonymous_args = 0
 703              		@ link register save eliminated.
1352:lvgl/src/draw/lv_draw_mask.c ****         (*tmp) += 2 * c->y + 3; /*Change in decision criterion for y -> y+1*/
 704              		.loc 1 1352 5 view .LVU226
1352:lvgl/src/draw/lv_draw_mask.c ****         (*tmp) += 2 * c->y + 3; /*Change in decision criterion for y -> y+1*/
 705              		.loc 1 1352 8 is_stmt 0 view .LVU227
 706 0000 B1F90030 		ldrsh	r3, [r1]
1352:lvgl/src/draw/lv_draw_mask.c ****         (*tmp) += 2 * c->y + 3; /*Change in decision criterion for y -> y+1*/
 707              		.loc 1 1352 7 view .LVU228
 708 0004 002B     		cmp	r3, #0
 709 0006 12DD     		ble	.L55
1356:lvgl/src/draw/lv_draw_mask.c ****         c->x--;
 710              		.loc 1 1356 9 is_stmt 1 view .LVU229
1356:lvgl/src/draw/lv_draw_mask.c ****         c->x--;
 711              		.loc 1 1356 25 is_stmt 0 view .LVU230
 712 0008 B0F90220 		ldrsh	r2, [r0, #2]
1356:lvgl/src/draw/lv_draw_mask.c ****         c->x--;
 713              		.loc 1 1356 32 view .LVU231
 714 000c B0F900C0 		ldrsh	ip, [r0]
1356:lvgl/src/draw/lv_draw_mask.c ****         c->x--;
 715              		.loc 1 1356 29 view .LVU232
 716 0010 A2EB0C02 		sub	r2, r2, ip
1356:lvgl/src/draw/lv_draw_mask.c ****         c->x--;
 717              		.loc 1 1356 16 view .LVU233
 718 0014 03EB4203 		add	r3, r3, r2, lsl #1
ARM GAS  /var/folders/21/t9g5rlb91ys800n5npymflf80000gn/T//cc0CxbBx.s 			page 45


 719 0018 0533     		adds	r3, r3, #5
 720 001a 0B80     		strh	r3, [r1]	@ movhi
1357:lvgl/src/draw/lv_draw_mask.c ****     }
 721              		.loc 1 1357 9 is_stmt 1 view .LVU234
1357:lvgl/src/draw/lv_draw_mask.c ****     }
 722              		.loc 1 1357 10 is_stmt 0 view .LVU235
 723 001c B0F90030 		ldrsh	r3, [r0]
1357:lvgl/src/draw/lv_draw_mask.c ****     }
 724              		.loc 1 1357 13 view .LVU236
 725 0020 013B     		subs	r3, r3, #1
 726 0022 0380     		strh	r3, [r0]	@ movhi
 727              	.L54:
1359:lvgl/src/draw/lv_draw_mask.c **** }
 728              		.loc 1 1359 5 is_stmt 1 view .LVU237
1359:lvgl/src/draw/lv_draw_mask.c **** }
 729              		.loc 1 1359 6 is_stmt 0 view .LVU238
 730 0024 B0F90230 		ldrsh	r3, [r0, #2]
1359:lvgl/src/draw/lv_draw_mask.c **** }
 731              		.loc 1 1359 9 view .LVU239
 732 0028 0133     		adds	r3, r3, #1
 733 002a 4380     		strh	r3, [r0, #2]	@ movhi
1360:lvgl/src/draw/lv_draw_mask.c **** 
 734              		.loc 1 1360 1 view .LVU240
 735 002c 7047     		bx	lr
 736              	.L55:
1353:lvgl/src/draw/lv_draw_mask.c ****     }
 737              		.loc 1 1353 9 is_stmt 1 view .LVU241
1353:lvgl/src/draw/lv_draw_mask.c ****     }
 738              		.loc 1 1353 24 is_stmt 0 view .LVU242
 739 002e 4288     		ldrh	r2, [r0, #2]
1353:lvgl/src/draw/lv_draw_mask.c ****     }
 740              		.loc 1 1353 21 view .LVU243
 741 0030 5200     		lsls	r2, r2, #1
 742 0032 92B2     		uxth	r2, r2
1353:lvgl/src/draw/lv_draw_mask.c ****     }
 743              		.loc 1 1353 16 view .LVU244
 744 0034 1344     		add	r3, r3, r2
 745 0036 0333     		adds	r3, r3, #3
 746 0038 0B80     		strh	r3, [r1]	@ movhi
 747 003a F3E7     		b	.L54
 748              		.cfi_endproc
 749              	.LFE82:
 751              		.section	.text.get_next_line,"ax",%progbits
 752              		.align	1
 753              		.syntax unified
 754              		.thumb
 755              		.thumb_func
 757              	get_next_line:
 758              	.LVL90:
 759              	.LFB84:
1512:lvgl/src/draw/lv_draw_mask.c ****     *len = c->opa_start_on_y[y + 1] - c->opa_start_on_y[y];
 760              		.loc 1 1512 1 is_stmt 1 view -0
 761              		.cfi_startproc
 762              		@ args = 0, pretend = 0, frame = 0
 763              		@ frame_needed = 0, uses_anonymous_args = 0
 764              		@ link register save eliminated.
1512:lvgl/src/draw/lv_draw_mask.c ****     *len = c->opa_start_on_y[y + 1] - c->opa_start_on_y[y];
ARM GAS  /var/folders/21/t9g5rlb91ys800n5npymflf80000gn/T//cc0CxbBx.s 			page 46


 765              		.loc 1 1512 1 is_stmt 0 view .LVU246
 766 0000 10B4     		push	{r4}
 767              	.LCFI2:
 768              		.cfi_def_cfa_offset 4
 769              		.cfi_offset 4, -4
1513:lvgl/src/draw/lv_draw_mask.c ****     *x_start = c->x_start_on_y[y];
 770              		.loc 1 1513 5 is_stmt 1 view .LVU247
1513:lvgl/src/draw/lv_draw_mask.c ****     *x_start = c->x_start_on_y[y];
 771              		.loc 1 1513 13 is_stmt 0 view .LVU248
 772 0002 C468     		ldr	r4, [r0, #12]
1513:lvgl/src/draw/lv_draw_mask.c ****     *x_start = c->x_start_on_y[y];
 773              		.loc 1 1513 29 view .LVU249
 774 0004 01F1010C 		add	ip, r1, #1
 775 0008 34F81CC0 		ldrh	ip, [r4, ip, lsl #1]
1513:lvgl/src/draw/lv_draw_mask.c ****     *x_start = c->x_start_on_y[y];
 776              		.loc 1 1513 56 view .LVU250
 777 000c 34F81140 		ldrh	r4, [r4, r1, lsl #1]
1513:lvgl/src/draw/lv_draw_mask.c ****     *x_start = c->x_start_on_y[y];
 778              		.loc 1 1513 37 view .LVU251
 779 0010 ACEB040C 		sub	ip, ip, r4
1513:lvgl/src/draw/lv_draw_mask.c ****     *x_start = c->x_start_on_y[y];
 780              		.loc 1 1513 10 view .LVU252
 781 0014 A2F800C0 		strh	ip, [r2]	@ movhi
1514:lvgl/src/draw/lv_draw_mask.c ****     return &c->cir_opa[c->opa_start_on_y[y]];
 782              		.loc 1 1514 5 is_stmt 1 view .LVU253
1514:lvgl/src/draw/lv_draw_mask.c ****     return &c->cir_opa[c->opa_start_on_y[y]];
 783              		.loc 1 1514 17 is_stmt 0 view .LVU254
 784 0018 8268     		ldr	r2, [r0, #8]
 785              	.LVL91:
1514:lvgl/src/draw/lv_draw_mask.c ****     return &c->cir_opa[c->opa_start_on_y[y]];
 786              		.loc 1 1514 31 view .LVU255
 787 001a 32F91120 		ldrsh	r2, [r2, r1, lsl #1]
1514:lvgl/src/draw/lv_draw_mask.c ****     return &c->cir_opa[c->opa_start_on_y[y]];
 788              		.loc 1 1514 14 view .LVU256
 789 001e 1A80     		strh	r2, [r3]	@ movhi
1515:lvgl/src/draw/lv_draw_mask.c **** }
 790              		.loc 1 1515 5 is_stmt 1 view .LVU257
1515:lvgl/src/draw/lv_draw_mask.c **** }
 791              		.loc 1 1515 14 is_stmt 0 view .LVU258
 792 0020 4268     		ldr	r2, [r0, #4]
1515:lvgl/src/draw/lv_draw_mask.c **** }
 793              		.loc 1 1515 25 view .LVU259
 794 0022 C368     		ldr	r3, [r0, #12]
 795              	.LVL92:
1515:lvgl/src/draw/lv_draw_mask.c **** }
 796              		.loc 1 1515 41 view .LVU260
 797 0024 33F81100 		ldrh	r0, [r3, r1, lsl #1]
 798              	.LVL93:
1516:lvgl/src/draw/lv_draw_mask.c **** 
 799              		.loc 1 1516 1 view .LVU261
 800 0028 1044     		add	r0, r0, r2
 801 002a 5DF8044B 		ldr	r4, [sp], #4
 802              	.LCFI3:
 803              		.cfi_restore 4
 804              		.cfi_def_cfa_offset 0
 805 002e 7047     		bx	lr
 806              		.cfi_endproc
ARM GAS  /var/folders/21/t9g5rlb91ys800n5npymflf80000gn/T//cc0CxbBx.s 			page 47


 807              	.LFE84:
 809              		.section	.text.line_mask_flat,"ax",%progbits
 810              		.align	1
 811              		.syntax unified
 812              		.thumb
 813              		.thumb_func
 815              	line_mask_flat:
 816              	.LVL94:
 817              	.LFB73:
 660:lvgl/src/draw/lv_draw_mask.c **** 
 818              		.loc 1 660 1 is_stmt 1 view -0
 819              		.cfi_startproc
 820              		@ args = 4, pretend = 0, frame = 0
 821              		@ frame_needed = 0, uses_anonymous_args = 0
 660:lvgl/src/draw/lv_draw_mask.c **** 
 822              		.loc 1 660 1 is_stmt 0 view .LVU263
 823 0000 70B5     		push	{r4, r5, r6, lr}
 824              	.LCFI4:
 825              		.cfi_def_cfa_offset 16
 826              		.cfi_offset 4, -16
 827              		.cfi_offset 5, -12
 828              		.cfi_offset 6, -8
 829              		.cfi_offset 14, -4
 830 0002 0546     		mov	r5, r0
 831 0004 049C     		ldr	r4, [sp, #16]
 662:lvgl/src/draw/lv_draw_mask.c ****     y_at_x = (int32_t)((int32_t)p->yx_steep * abs_x) >> 10;
 832              		.loc 1 662 5 is_stmt 1 view .LVU264
 663:lvgl/src/draw/lv_draw_mask.c **** 
 833              		.loc 1 663 5 view .LVU265
 663:lvgl/src/draw/lv_draw_mask.c **** 
 834              		.loc 1 663 34 is_stmt 0 view .LVU266
 835 0006 E069     		ldr	r0, [r4, #28]
 836              	.LVL95:
 663:lvgl/src/draw/lv_draw_mask.c **** 
 837              		.loc 1 663 14 view .LVU267
 838 0008 01FB00FC 		mul	ip, r1, r0
 663:lvgl/src/draw/lv_draw_mask.c **** 
 839              		.loc 1 663 12 view .LVU268
 840 000c 4FEAAC2C 		asr	ip, ip, #10
 841              	.LVL96:
 665:lvgl/src/draw/lv_draw_mask.c ****         if(y_at_x > abs_y) {
 842              		.loc 1 665 5 is_stmt 1 view .LVU269
 665:lvgl/src/draw/lv_draw_mask.c ****         if(y_at_x > abs_y) {
 843              		.loc 1 665 7 is_stmt 0 view .LVU270
 844 0010 0028     		cmp	r0, #0
 845 0012 08DD     		ble	.L59
 666:lvgl/src/draw/lv_draw_mask.c ****             if(p->inv) {
 846              		.loc 1 666 9 is_stmt 1 view .LVU271
 666:lvgl/src/draw/lv_draw_mask.c ****             if(p->inv) {
 847              		.loc 1 666 11 is_stmt 0 view .LVU272
 848 0014 6245     		cmp	r2, ip
 849 0016 0FDA     		bge	.L60
 667:lvgl/src/draw/lv_draw_mask.c ****                 return LV_DRAW_MASK_RES_FULL_COVER;
 850              		.loc 1 667 13 is_stmt 1 view .LVU273
 667:lvgl/src/draw/lv_draw_mask.c ****                 return LV_DRAW_MASK_RES_FULL_COVER;
 851              		.loc 1 667 16 is_stmt 0 view .LVU274
 852 0018 94F82800 		ldrb	r0, [r4, #40]	@ zero_extendqisi2
ARM GAS  /var/folders/21/t9g5rlb91ys800n5npymflf80000gn/T//cc0CxbBx.s 			page 48


 667:lvgl/src/draw/lv_draw_mask.c ****                 return LV_DRAW_MASK_RES_FULL_COVER;
 853              		.loc 1 667 15 view .LVU275
 854 001c 10F00200 		ands	r0, r0, #2
 855 0020 00D0     		beq	.L61
 668:lvgl/src/draw/lv_draw_mask.c ****             }
 856              		.loc 1 668 24 view .LVU276
 857 0022 0120     		movs	r0, #1
 858              	.LVL97:
 859              	.L61:
 771:lvgl/src/draw/lv_draw_mask.c **** 
 860              		.loc 1 771 1 view .LVU277
 861 0024 70BD     		pop	{r4, r5, r6, pc}
 862              	.LVL98:
 863              	.L59:
 676:lvgl/src/draw/lv_draw_mask.c ****             if(p->inv) {
 864              		.loc 1 676 9 is_stmt 1 view .LVU278
 676:lvgl/src/draw/lv_draw_mask.c ****             if(p->inv) {
 865              		.loc 1 676 11 is_stmt 0 view .LVU279
 866 0026 6245     		cmp	r2, ip
 867 0028 06DD     		ble	.L60
 677:lvgl/src/draw/lv_draw_mask.c ****                 return LV_DRAW_MASK_RES_FULL_COVER;
 868              		.loc 1 677 13 is_stmt 1 view .LVU280
 677:lvgl/src/draw/lv_draw_mask.c ****                 return LV_DRAW_MASK_RES_FULL_COVER;
 869              		.loc 1 677 16 is_stmt 0 view .LVU281
 870 002a 94F82800 		ldrb	r0, [r4, #40]	@ zero_extendqisi2
 677:lvgl/src/draw/lv_draw_mask.c ****                 return LV_DRAW_MASK_RES_FULL_COVER;
 871              		.loc 1 677 15 view .LVU282
 872 002e 10F00200 		ands	r0, r0, #2
 873 0032 F7D0     		beq	.L61
 678:lvgl/src/draw/lv_draw_mask.c ****             }
 874              		.loc 1 678 24 view .LVU283
 875 0034 0120     		movs	r0, #1
 876 0036 F5E7     		b	.L61
 877              	.L60:
 688:lvgl/src/draw/lv_draw_mask.c ****     if(p->yx_steep > 0) {
 878              		.loc 1 688 5 is_stmt 1 view .LVU284
 688:lvgl/src/draw/lv_draw_mask.c ****     if(p->yx_steep > 0) {
 879              		.loc 1 688 54 is_stmt 0 view .LVU285
 880 0038 01EB030C 		add	ip, r1, r3
 881              	.LVL99:
 688:lvgl/src/draw/lv_draw_mask.c ****     if(p->yx_steep > 0) {
 882              		.loc 1 688 14 view .LVU286
 883 003c 0CFB00FC 		mul	ip, ip, r0
 688:lvgl/src/draw/lv_draw_mask.c ****     if(p->yx_steep > 0) {
 884              		.loc 1 688 12 view .LVU287
 885 0040 4FEAAC2C 		asr	ip, ip, #10
 886              	.LVL100:
 689:lvgl/src/draw/lv_draw_mask.c ****         if(y_at_x < abs_y) {
 887              		.loc 1 689 5 is_stmt 1 view .LVU288
 689:lvgl/src/draw/lv_draw_mask.c ****         if(y_at_x < abs_y) {
 888              		.loc 1 689 7 is_stmt 0 view .LVU289
 889 0044 0028     		cmp	r0, #0
 890 0046 09DD     		ble	.L62
 690:lvgl/src/draw/lv_draw_mask.c ****             if(p->inv) {
 891              		.loc 1 690 9 is_stmt 1 view .LVU290
 690:lvgl/src/draw/lv_draw_mask.c ****             if(p->inv) {
 892              		.loc 1 690 11 is_stmt 0 view .LVU291
ARM GAS  /var/folders/21/t9g5rlb91ys800n5npymflf80000gn/T//cc0CxbBx.s 			page 49


 893 0048 6245     		cmp	r2, ip
 894 004a 11DD     		ble	.L63
 691:lvgl/src/draw/lv_draw_mask.c ****                 return LV_DRAW_MASK_RES_TRANSP;
 895              		.loc 1 691 13 is_stmt 1 view .LVU292
 691:lvgl/src/draw/lv_draw_mask.c ****                 return LV_DRAW_MASK_RES_TRANSP;
 896              		.loc 1 691 16 is_stmt 0 view .LVU293
 897 004c 94F82830 		ldrb	r3, [r4, #40]	@ zero_extendqisi2
 898              	.LVL101:
 691:lvgl/src/draw/lv_draw_mask.c ****                 return LV_DRAW_MASK_RES_TRANSP;
 899              		.loc 1 691 15 view .LVU294
 900 0050 13F0020F 		tst	r3, #2
 901 0054 00F0D280 		beq	.L82
 692:lvgl/src/draw/lv_draw_mask.c ****             }
 902              		.loc 1 692 24 view .LVU295
 903 0058 0020     		movs	r0, #0
 904 005a E3E7     		b	.L61
 905              	.LVL102:
 906              	.L62:
 700:lvgl/src/draw/lv_draw_mask.c ****             if(p->inv) {
 907              		.loc 1 700 9 is_stmt 1 view .LVU296
 700:lvgl/src/draw/lv_draw_mask.c ****             if(p->inv) {
 908              		.loc 1 700 11 is_stmt 0 view .LVU297
 909 005c 6245     		cmp	r2, ip
 910 005e 07DA     		bge	.L63
 701:lvgl/src/draw/lv_draw_mask.c ****                 return LV_DRAW_MASK_RES_TRANSP;
 911              		.loc 1 701 13 is_stmt 1 view .LVU298
 701:lvgl/src/draw/lv_draw_mask.c ****                 return LV_DRAW_MASK_RES_TRANSP;
 912              		.loc 1 701 16 is_stmt 0 view .LVU299
 913 0060 94F82830 		ldrb	r3, [r4, #40]	@ zero_extendqisi2
 914              	.LVL103:
 701:lvgl/src/draw/lv_draw_mask.c ****                 return LV_DRAW_MASK_RES_TRANSP;
 915              		.loc 1 701 15 view .LVU300
 916 0064 13F0020F 		tst	r3, #2
 917 0068 00F0CA80 		beq	.L83
 702:lvgl/src/draw/lv_draw_mask.c ****             }
 918              		.loc 1 702 24 view .LVU301
 919 006c 0020     		movs	r0, #0
 920 006e D9E7     		b	.L61
 921              	.LVL104:
 922              	.L63:
 710:lvgl/src/draw/lv_draw_mask.c ****     if(p->yx_steep > 0) xe = ((abs_y * 256) * p->xy_steep) >> 10;
 923              		.loc 1 710 5 is_stmt 1 view .LVU302
 711:lvgl/src/draw/lv_draw_mask.c ****     else xe = (((abs_y + 1) * 256) * p->xy_steep) >> 10;
 924              		.loc 1 711 5 view .LVU303
 711:lvgl/src/draw/lv_draw_mask.c ****     else xe = (((abs_y + 1) * 256) * p->xy_steep) >> 10;
 925              		.loc 1 711 7 is_stmt 0 view .LVU304
 926 0070 0028     		cmp	r0, #0
 927 0072 38DD     		ble	.L64
 711:lvgl/src/draw/lv_draw_mask.c ****     else xe = (((abs_y + 1) * 256) * p->xy_steep) >> 10;
 928              		.loc 1 711 25 is_stmt 1 discriminator 1 view .LVU305
 711:lvgl/src/draw/lv_draw_mask.c ****     else xe = (((abs_y + 1) * 256) * p->xy_steep) >> 10;
 929              		.loc 1 711 48 is_stmt 0 discriminator 1 view .LVU306
 930 0074 A069     		ldr	r0, [r4, #24]
 711:lvgl/src/draw/lv_draw_mask.c ****     else xe = (((abs_y + 1) * 256) * p->xy_steep) >> 10;
 931              		.loc 1 711 45 discriminator 1 view .LVU307
 932 0076 00FB02F2 		mul	r2, r0, r2
 933              	.LVL105:
ARM GAS  /var/folders/21/t9g5rlb91ys800n5npymflf80000gn/T//cc0CxbBx.s 			page 50


 711:lvgl/src/draw/lv_draw_mask.c ****     else xe = (((abs_y + 1) * 256) * p->xy_steep) >> 10;
 934              		.loc 1 711 28 discriminator 1 view .LVU308
 935 007a 42F39502 		sbfx	r2, r2, #2, #22
 936              	.LVL106:
 937              	.L65:
 714:lvgl/src/draw/lv_draw_mask.c ****     int32_t xef = xe & 0xFF;
 938              		.loc 1 714 5 is_stmt 1 view .LVU309
 714:lvgl/src/draw/lv_draw_mask.c ****     int32_t xef = xe & 0xFF;
 939              		.loc 1 714 13 is_stmt 0 view .LVU310
 940 007e 1612     		asrs	r6, r2, #8
 941              	.LVL107:
 715:lvgl/src/draw/lv_draw_mask.c **** 
 942              		.loc 1 715 5 is_stmt 1 view .LVU311
 717:lvgl/src/draw/lv_draw_mask.c ****     if(xef == 0) px_h = 255;
 943              		.loc 1 717 5 view .LVU312
 718:lvgl/src/draw/lv_draw_mask.c ****     else px_h = 255 - (((255 - xef) * p->spx) >> 8);
 944              		.loc 1 718 5 view .LVU313
 718:lvgl/src/draw/lv_draw_mask.c ****     else px_h = 255 - (((255 - xef) * p->spx) >> 8);
 945              		.loc 1 718 7 is_stmt 0 view .LVU314
 946 0080 12F0FF02 		ands	r2, r2, #255
 947              	.LVL108:
 718:lvgl/src/draw/lv_draw_mask.c ****     else px_h = 255 - (((255 - xef) * p->spx) >> 8);
 948              		.loc 1 718 7 view .LVU315
 949 0084 35D0     		beq	.L84
 719:lvgl/src/draw/lv_draw_mask.c ****     int32_t k = xei - abs_x;
 950              		.loc 1 719 10 is_stmt 1 view .LVU316
 719:lvgl/src/draw/lv_draw_mask.c ****     int32_t k = xei - abs_x;
 951              		.loc 1 719 30 is_stmt 0 view .LVU317
 952 0086 C2F1FF0C 		rsb	ip, r2, #255
 953              	.LVL109:
 719:lvgl/src/draw/lv_draw_mask.c ****     int32_t k = xei - abs_x;
 954              		.loc 1 719 40 view .LVU318
 955 008a 606A     		ldr	r0, [r4, #36]
 719:lvgl/src/draw/lv_draw_mask.c ****     int32_t k = xei - abs_x;
 956              		.loc 1 719 37 view .LVU319
 957 008c 00FB0CFC 		mul	ip, r0, ip
 719:lvgl/src/draw/lv_draw_mask.c ****     int32_t k = xei - abs_x;
 958              		.loc 1 719 47 view .LVU320
 959 0090 4FEA2C2C 		asr	ip, ip, #8
 719:lvgl/src/draw/lv_draw_mask.c ****     int32_t k = xei - abs_x;
 960              		.loc 1 719 15 view .LVU321
 961 0094 CCF1FF0C 		rsb	ip, ip, #255
 962              	.LVL110:
 963              	.L66:
 720:lvgl/src/draw/lv_draw_mask.c ****     lv_opa_t m;
 964              		.loc 1 720 5 is_stmt 1 view .LVU322
 720:lvgl/src/draw/lv_draw_mask.c ****     lv_opa_t m;
 965              		.loc 1 720 13 is_stmt 0 view .LVU323
 966 0098 711A     		subs	r1, r6, r1
 967              	.LVL111:
 721:lvgl/src/draw/lv_draw_mask.c **** 
 968              		.loc 1 721 5 is_stmt 1 view .LVU324
 723:lvgl/src/draw/lv_draw_mask.c ****         if(k >= 0 && k < len) {
 969              		.loc 1 723 5 view .LVU325
 723:lvgl/src/draw/lv_draw_mask.c ****         if(k >= 0 && k < len) {
 970              		.loc 1 723 7 is_stmt 0 view .LVU326
 971 009a 002A     		cmp	r2, #0
ARM GAS  /var/folders/21/t9g5rlb91ys800n5npymflf80000gn/T//cc0CxbBx.s 			page 51


 972 009c 5FD0     		beq	.L85
 724:lvgl/src/draw/lv_draw_mask.c ****             m = 255 - (((255 - xef) * (255 - px_h)) >> 9);
 973              		.loc 1 724 9 is_stmt 1 view .LVU327
 724:lvgl/src/draw/lv_draw_mask.c ****             m = 255 - (((255 - xef) * (255 - px_h)) >> 9);
 974              		.loc 1 724 11 is_stmt 0 view .LVU328
 975 009e 0029     		cmp	r1, #0
 976 00a0 1FDB     		blt	.L68
 724:lvgl/src/draw/lv_draw_mask.c ****             m = 255 - (((255 - xef) * (255 - px_h)) >> 9);
 977              		.loc 1 724 19 discriminator 1 view .LVU329
 978 00a2 8B42     		cmp	r3, r1
 979 00a4 1DDD     		ble	.L68
 725:lvgl/src/draw/lv_draw_mask.c ****             if(p->inv) m = 255 - m;
 980              		.loc 1 725 13 is_stmt 1 view .LVU330
 725:lvgl/src/draw/lv_draw_mask.c ****             if(p->inv) m = 255 - m;
 981              		.loc 1 725 30 is_stmt 0 view .LVU331
 982 00a6 C2F1FF02 		rsb	r2, r2, #255
 725:lvgl/src/draw/lv_draw_mask.c ****             if(p->inv) m = 255 - m;
 983              		.loc 1 725 44 view .LVU332
 984 00aa CCF1FF00 		rsb	r0, ip, #255
 725:lvgl/src/draw/lv_draw_mask.c ****             if(p->inv) m = 255 - m;
 985              		.loc 1 725 37 view .LVU333
 986 00ae 00FB02F2 		mul	r2, r0, r2
 725:lvgl/src/draw/lv_draw_mask.c ****             if(p->inv) m = 255 - m;
 987              		.loc 1 725 21 view .LVU334
 988 00b2 C2F34722 		ubfx	r2, r2, #9, #8
 725:lvgl/src/draw/lv_draw_mask.c ****             if(p->inv) m = 255 - m;
 989              		.loc 1 725 15 view .LVU335
 990 00b6 D043     		mvns	r0, r2
 991 00b8 C0B2     		uxtb	r0, r0
 992              	.LVL112:
 726:lvgl/src/draw/lv_draw_mask.c ****             mask_buf[k] = mask_mix(mask_buf[k], m);
 993              		.loc 1 726 13 is_stmt 1 view .LVU336
 726:lvgl/src/draw/lv_draw_mask.c ****             mask_buf[k] = mask_mix(mask_buf[k], m);
 994              		.loc 1 726 16 is_stmt 0 view .LVU337
 995 00ba 94F82860 		ldrb	r6, [r4, #40]	@ zero_extendqisi2
 996              	.LVL113:
 726:lvgl/src/draw/lv_draw_mask.c ****             mask_buf[k] = mask_mix(mask_buf[k], m);
 997              		.loc 1 726 15 view .LVU338
 998 00be 16F0020F 		tst	r6, #2
 999 00c2 00D1     		bne	.L69
 725:lvgl/src/draw/lv_draw_mask.c ****             if(p->inv) m = 255 - m;
 1000              		.loc 1 725 15 view .LVU339
 1001 00c4 0246     		mov	r2, r0
 1002              	.L69:
 1003              	.LVL114:
 727:lvgl/src/draw/lv_draw_mask.c ****         }
 1004              		.loc 1 727 13 is_stmt 1 view .LVU340
 727:lvgl/src/draw/lv_draw_mask.c ****         }
 1005              		.loc 1 727 27 is_stmt 0 view .LVU341
 1006 00c6 685C     		ldrb	r0, [r5, r1]	@ zero_extendqisi2
 1007              	.LVL115:
 1008              	.LBB94:
 1009              	.LBI94:
1518:lvgl/src/draw/lv_draw_mask.c **** {
 1010              		.loc 1 1518 46 is_stmt 1 view .LVU342
 1011              	.LBB95:
1520:lvgl/src/draw/lv_draw_mask.c ****     if(mask_new <= LV_OPA_MIN) return 0;
ARM GAS  /var/folders/21/t9g5rlb91ys800n5npymflf80000gn/T//cc0CxbBx.s 			page 52


 1012              		.loc 1 1520 5 view .LVU343
1520:lvgl/src/draw/lv_draw_mask.c ****     if(mask_new <= LV_OPA_MIN) return 0;
 1013              		.loc 1 1520 7 is_stmt 0 view .LVU344
 1014 00c8 FC2A     		cmp	r2, #252
 1015 00ca 09D8     		bhi	.L70
1521:lvgl/src/draw/lv_draw_mask.c **** 
 1016              		.loc 1 1521 5 is_stmt 1 view .LVU345
1521:lvgl/src/draw/lv_draw_mask.c **** 
 1017              		.loc 1 1521 7 is_stmt 0 view .LVU346
 1018 00cc 022A     		cmp	r2, #2
 1019 00ce 13D9     		bls	.L86
 1020              		.loc 1 1523 5 is_stmt 1 view .LVU347
 1021              		.loc 1 1523 12 is_stmt 0 view .LVU348
 1022 00d0 00FB02F2 		mul	r2, r0, r2
 1023              	.LVL116:
 1024              		.loc 1 1523 12 view .LVU349
 1025 00d4 02EB0220 		add	r0, r2, r2, lsl #8
 1026              	.LVL117:
 1027              		.loc 1 1523 12 view .LVU350
 1028 00d8 02EBC012 		add	r2, r2, r0, lsl #7
 1029 00dc C2F3C750 		ubfx	r0, r2, #23, #8
 1030              	.L70:
 1031              	.LVL118:
 1032              		.loc 1 1523 12 view .LVU351
 1033              	.LBE95:
 1034              	.LBE94:
 727:lvgl/src/draw/lv_draw_mask.c ****         }
 1035              		.loc 1 727 25 view .LVU352
 1036 00e0 6854     		strb	r0, [r5, r1]
 1037              	.LVL119:
 1038              	.L68:
 729:lvgl/src/draw/lv_draw_mask.c ****     }
 1039              		.loc 1 729 9 is_stmt 1 view .LVU353
 729:lvgl/src/draw/lv_draw_mask.c ****     }
 1040              		.loc 1 729 10 is_stmt 0 view .LVU354
 1041 00e2 4A1C     		adds	r2, r1, #1
 1042              	.LVL120:
 729:lvgl/src/draw/lv_draw_mask.c ****     }
 1043              		.loc 1 729 10 view .LVU355
 1044 00e4 12E0     		b	.L75
 1045              	.LVL121:
 1046              	.L64:
 712:lvgl/src/draw/lv_draw_mask.c **** 
 1047              		.loc 1 712 10 is_stmt 1 view .LVU356
 712:lvgl/src/draw/lv_draw_mask.c **** 
 1048              		.loc 1 712 39 is_stmt 0 view .LVU357
 1049 00e6 A069     		ldr	r0, [r4, #24]
 712:lvgl/src/draw/lv_draw_mask.c **** 
 1050              		.loc 1 712 36 view .LVU358
 1051 00e8 02FB0000 		mla	r0, r2, r0, r0
 712:lvgl/src/draw/lv_draw_mask.c **** 
 1052              		.loc 1 712 13 view .LVU359
 1053 00ec 40F39502 		sbfx	r2, r0, #2, #22
 1054              	.LVL122:
 712:lvgl/src/draw/lv_draw_mask.c **** 
 1055              		.loc 1 712 13 view .LVU360
 1056 00f0 C5E7     		b	.L65
ARM GAS  /var/folders/21/t9g5rlb91ys800n5npymflf80000gn/T//cc0CxbBx.s 			page 53


 1057              	.LVL123:
 1058              	.L84:
 718:lvgl/src/draw/lv_draw_mask.c ****     else px_h = 255 - (((255 - xef) * p->spx) >> 8);
 1059              		.loc 1 718 23 view .LVU361
 1060 00f2 4FF0FF0C 		mov	ip, #255
 1061              	.LVL124:
 718:lvgl/src/draw/lv_draw_mask.c ****     else px_h = 255 - (((255 - xef) * p->spx) >> 8);
 1062              		.loc 1 718 23 view .LVU362
 1063 00f6 CFE7     		b	.L66
 1064              	.LVL125:
 1065              	.L86:
 1066              	.LBB97:
 1067              	.LBB96:
1521:lvgl/src/draw/lv_draw_mask.c **** 
 1068              		.loc 1 1521 39 view .LVU363
 1069 00f8 0020     		movs	r0, #0
 1070              	.LVL126:
1521:lvgl/src/draw/lv_draw_mask.c **** 
 1071              		.loc 1 1521 39 view .LVU364
 1072 00fa F1E7     		b	.L70
 1073              	.LVL127:
 1074              	.L87:
1521:lvgl/src/draw/lv_draw_mask.c **** 
 1075              		.loc 1 1521 39 view .LVU365
 1076              	.LBE96:
 1077              	.LBE97:
 1078              	.LBB98:
 1079              	.LBB99:
 1080 00fc 0020     		movs	r0, #0
 1081              	.LVL128:
 1082              	.L73:
1521:lvgl/src/draw/lv_draw_mask.c **** 
 1083              		.loc 1 1521 39 view .LVU366
 1084              	.LBE99:
 1085              	.LBE98:
 736:lvgl/src/draw/lv_draw_mask.c ****         }
 1086              		.loc 1 736 25 view .LVU367
 1087 00fe 3070     		strb	r0, [r6]
 1088              	.LVL129:
 1089              	.L71:
 738:lvgl/src/draw/lv_draw_mask.c ****         k++;
 1090              		.loc 1 738 9 is_stmt 1 view .LVU368
 738:lvgl/src/draw/lv_draw_mask.c ****         k++;
 1091              		.loc 1 738 18 is_stmt 0 view .LVU369
 1092 0100 606A     		ldr	r0, [r4, #36]
 738:lvgl/src/draw/lv_draw_mask.c ****         k++;
 1093              		.loc 1 738 14 view .LVU370
 1094 0102 ACEB000C 		sub	ip, ip, r0
 1095              	.LVL130:
 739:lvgl/src/draw/lv_draw_mask.c ****         if(k >= len) break;
 1096              		.loc 1 739 9 is_stmt 1 view .LVU371
 739:lvgl/src/draw/lv_draw_mask.c ****         if(k >= len) break;
 1097              		.loc 1 739 10 is_stmt 0 view .LVU372
 1098 0106 0132     		adds	r2, r2, #1
 1099              	.LVL131:
 740:lvgl/src/draw/lv_draw_mask.c ****     }
 1100              		.loc 1 740 9 is_stmt 1 view .LVU373
ARM GAS  /var/folders/21/t9g5rlb91ys800n5npymflf80000gn/T//cc0CxbBx.s 			page 54


 740:lvgl/src/draw/lv_draw_mask.c ****     }
 1101              		.loc 1 740 11 is_stmt 0 view .LVU374
 1102 0108 9342     		cmp	r3, r2
 1103 010a 2ADD     		ble	.L74
 1104              	.L75:
 732:lvgl/src/draw/lv_draw_mask.c ****         if(k >= 0 && k < len) {
 1105              		.loc 1 732 16 is_stmt 1 view .LVU375
 732:lvgl/src/draw/lv_draw_mask.c ****         if(k >= 0 && k < len) {
 1106              		.loc 1 732 19 is_stmt 0 view .LVU376
 1107 010c 606A     		ldr	r0, [r4, #36]
 732:lvgl/src/draw/lv_draw_mask.c ****         if(k >= 0 && k < len) {
 1108              		.loc 1 732 16 view .LVU377
 1109 010e 6045     		cmp	r0, ip
 1110 0110 27DA     		bge	.L74
 733:lvgl/src/draw/lv_draw_mask.c ****             m = px_h - (p->spx >> 1);
 1111              		.loc 1 733 9 is_stmt 1 view .LVU378
 733:lvgl/src/draw/lv_draw_mask.c ****             m = px_h - (p->spx >> 1);
 1112              		.loc 1 733 11 is_stmt 0 view .LVU379
 1113 0112 002A     		cmp	r2, #0
 1114 0114 F4DB     		blt	.L71
 733:lvgl/src/draw/lv_draw_mask.c ****             m = px_h - (p->spx >> 1);
 1115              		.loc 1 733 19 discriminator 1 view .LVU380
 1116 0116 9342     		cmp	r3, r2
 1117 0118 F2DD     		ble	.L71
 734:lvgl/src/draw/lv_draw_mask.c ****             if(p->inv) m = 255 - m;
 1118              		.loc 1 734 13 is_stmt 1 view .LVU381
 734:lvgl/src/draw/lv_draw_mask.c ****             if(p->inv) m = 255 - m;
 1119              		.loc 1 734 22 is_stmt 0 view .LVU382
 1120 011a 5FFA8CFE 		uxtb	lr, ip
 1121 011e C0F34700 		ubfx	r0, r0, #1, #8
 734:lvgl/src/draw/lv_draw_mask.c ****             if(p->inv) m = 255 - m;
 1122              		.loc 1 734 15 view .LVU383
 1123 0122 AEEB000E 		sub	lr, lr, r0
 1124 0126 5FFA8EFE 		uxtb	lr, lr
 1125              	.LVL132:
 735:lvgl/src/draw/lv_draw_mask.c ****             mask_buf[k] = mask_mix(mask_buf[k], m);
 1126              		.loc 1 735 13 is_stmt 1 view .LVU384
 735:lvgl/src/draw/lv_draw_mask.c ****             mask_buf[k] = mask_mix(mask_buf[k], m);
 1127              		.loc 1 735 16 is_stmt 0 view .LVU385
 1128 012a 94F82800 		ldrb	r0, [r4, #40]	@ zero_extendqisi2
 735:lvgl/src/draw/lv_draw_mask.c ****             mask_buf[k] = mask_mix(mask_buf[k], m);
 1129              		.loc 1 735 15 view .LVU386
 1130 012e 10F0020F 		tst	r0, #2
 1131 0132 03D0     		beq	.L72
 735:lvgl/src/draw/lv_draw_mask.c ****             mask_buf[k] = mask_mix(mask_buf[k], m);
 1132              		.loc 1 735 24 is_stmt 1 discriminator 1 view .LVU387
 735:lvgl/src/draw/lv_draw_mask.c ****             mask_buf[k] = mask_mix(mask_buf[k], m);
 1133              		.loc 1 735 26 is_stmt 0 discriminator 1 view .LVU388
 1134 0134 6FEA0E0E 		mvn	lr, lr
 1135              	.LVL133:
 735:lvgl/src/draw/lv_draw_mask.c ****             mask_buf[k] = mask_mix(mask_buf[k], m);
 1136              		.loc 1 735 26 discriminator 1 view .LVU389
 1137 0138 5FFA8EFE 		uxtb	lr, lr
 1138              	.LVL134:
 1139              	.L72:
 736:lvgl/src/draw/lv_draw_mask.c ****         }
 1140              		.loc 1 736 13 is_stmt 1 view .LVU390
ARM GAS  /var/folders/21/t9g5rlb91ys800n5npymflf80000gn/T//cc0CxbBx.s 			page 55


 736:lvgl/src/draw/lv_draw_mask.c ****         }
 1141              		.loc 1 736 44 is_stmt 0 view .LVU391
 1142 013c AE18     		adds	r6, r5, r2
 736:lvgl/src/draw/lv_draw_mask.c ****         }
 1143              		.loc 1 736 27 view .LVU392
 1144 013e A85C     		ldrb	r0, [r5, r2]	@ zero_extendqisi2
 1145              	.LVL135:
 1146              	.LBB101:
 1147              	.LBI98:
1518:lvgl/src/draw/lv_draw_mask.c **** {
 1148              		.loc 1 1518 46 is_stmt 1 view .LVU393
 1149              	.LBB100:
1520:lvgl/src/draw/lv_draw_mask.c ****     if(mask_new <= LV_OPA_MIN) return 0;
 1150              		.loc 1 1520 5 view .LVU394
1520:lvgl/src/draw/lv_draw_mask.c ****     if(mask_new <= LV_OPA_MIN) return 0;
 1151              		.loc 1 1520 7 is_stmt 0 view .LVU395
 1152 0140 BEF1FC0F 		cmp	lr, #252
 1153 0144 DBD8     		bhi	.L73
1521:lvgl/src/draw/lv_draw_mask.c **** 
 1154              		.loc 1 1521 5 is_stmt 1 view .LVU396
1521:lvgl/src/draw/lv_draw_mask.c **** 
 1155              		.loc 1 1521 7 is_stmt 0 view .LVU397
 1156 0146 BEF1020F 		cmp	lr, #2
 1157 014a D7D9     		bls	.L87
 1158              		.loc 1 1523 5 is_stmt 1 view .LVU398
 1159              		.loc 1 1523 12 is_stmt 0 view .LVU399
 1160 014c 0EFB00F0 		mul	r0, lr, r0
 1161              	.LVL136:
 1162              		.loc 1 1523 12 view .LVU400
 1163 0150 00EB002E 		add	lr, r0, r0, lsl #8
 1164              	.LVL137:
 1165              		.loc 1 1523 12 view .LVU401
 1166 0154 00EBCE10 		add	r0, r0, lr, lsl #7
 1167 0158 C0F3C750 		ubfx	r0, r0, #23, #8
 1168 015c CFE7     		b	.L73
 1169              	.LVL138:
 1170              	.L85:
 1171              		.loc 1 1523 12 view .LVU402
 1172              	.LBE100:
 1173              	.LBE101:
 720:lvgl/src/draw/lv_draw_mask.c ****     lv_opa_t m;
 1174              		.loc 1 720 13 view .LVU403
 1175 015e 0A46     		mov	r2, r1
 1176 0160 D4E7     		b	.L75
 1177              	.LVL139:
 1178              	.L74:
 743:lvgl/src/draw/lv_draw_mask.c ****         int32_t x_inters = (px_h * p->xy_steep) >> 10;
 1179              		.loc 1 743 5 is_stmt 1 view .LVU404
 743:lvgl/src/draw/lv_draw_mask.c ****         int32_t x_inters = (px_h * p->xy_steep) >> 10;
 1180              		.loc 1 743 7 is_stmt 0 view .LVU405
 1181 0162 9342     		cmp	r3, r2
 1182 0164 26DD     		ble	.L77
 743:lvgl/src/draw/lv_draw_mask.c ****         int32_t x_inters = (px_h * p->xy_steep) >> 10;
 1183              		.loc 1 743 16 discriminator 1 view .LVU406
 1184 0166 002A     		cmp	r2, #0
 1185 0168 24DB     		blt	.L77
 1186              	.LBB102:
ARM GAS  /var/folders/21/t9g5rlb91ys800n5npymflf80000gn/T//cc0CxbBx.s 			page 56


 744:lvgl/src/draw/lv_draw_mask.c ****         m = (x_inters * px_h) >> 9;
 1187              		.loc 1 744 9 is_stmt 1 view .LVU407
 744:lvgl/src/draw/lv_draw_mask.c ****         m = (x_inters * px_h) >> 9;
 1188              		.loc 1 744 37 is_stmt 0 view .LVU408
 1189 016a A069     		ldr	r0, [r4, #24]
 744:lvgl/src/draw/lv_draw_mask.c ****         m = (x_inters * px_h) >> 9;
 1190              		.loc 1 744 34 view .LVU409
 1191 016c 0CFB00F0 		mul	r0, ip, r0
 744:lvgl/src/draw/lv_draw_mask.c ****         m = (x_inters * px_h) >> 9;
 1192              		.loc 1 744 17 view .LVU410
 1193 0170 8012     		asrs	r0, r0, #10
 1194              	.LVL140:
 745:lvgl/src/draw/lv_draw_mask.c ****         if(p->yx_steep < 0) m = 255 - m;
 1195              		.loc 1 745 9 is_stmt 1 view .LVU411
 745:lvgl/src/draw/lv_draw_mask.c ****         if(p->yx_steep < 0) m = 255 - m;
 1196              		.loc 1 745 23 is_stmt 0 view .LVU412
 1197 0172 00FB0CFC 		mul	ip, r0, ip
 1198              	.LVL141:
 745:lvgl/src/draw/lv_draw_mask.c ****         if(p->yx_steep < 0) m = 255 - m;
 1199              		.loc 1 745 11 view .LVU413
 1200 0176 CCF3472C 		ubfx	ip, ip, #9, #8
 1201              	.LVL142:
 746:lvgl/src/draw/lv_draw_mask.c ****         if(p->inv) m = 255 - m;
 1202              		.loc 1 746 9 is_stmt 1 view .LVU414
 746:lvgl/src/draw/lv_draw_mask.c ****         if(p->inv) m = 255 - m;
 1203              		.loc 1 746 13 is_stmt 0 view .LVU415
 1204 017a E069     		ldr	r0, [r4, #28]
 1205              	.LVL143:
 746:lvgl/src/draw/lv_draw_mask.c ****         if(p->inv) m = 255 - m;
 1206              		.loc 1 746 11 view .LVU416
 1207 017c 0028     		cmp	r0, #0
 1208 017e 24DB     		blt	.L93
 1209              	.L78:
 747:lvgl/src/draw/lv_draw_mask.c ****         mask_buf[k] = mask_mix(mask_buf[k], m);
 1210              		.loc 1 747 9 is_stmt 1 view .LVU417
 747:lvgl/src/draw/lv_draw_mask.c ****         mask_buf[k] = mask_mix(mask_buf[k], m);
 1211              		.loc 1 747 12 is_stmt 0 view .LVU418
 1212 0180 94F82800 		ldrb	r0, [r4, #40]	@ zero_extendqisi2
 747:lvgl/src/draw/lv_draw_mask.c ****         mask_buf[k] = mask_mix(mask_buf[k], m);
 1213              		.loc 1 747 11 view .LVU419
 1214 0184 10F0020F 		tst	r0, #2
 1215 0188 03D0     		beq	.L79
 747:lvgl/src/draw/lv_draw_mask.c ****         mask_buf[k] = mask_mix(mask_buf[k], m);
 1216              		.loc 1 747 20 is_stmt 1 discriminator 1 view .LVU420
 747:lvgl/src/draw/lv_draw_mask.c ****         mask_buf[k] = mask_mix(mask_buf[k], m);
 1217              		.loc 1 747 22 is_stmt 0 discriminator 1 view .LVU421
 1218 018a 6FEA0C0C 		mvn	ip, ip
 1219              	.LVL144:
 747:lvgl/src/draw/lv_draw_mask.c ****         mask_buf[k] = mask_mix(mask_buf[k], m);
 1220              		.loc 1 747 22 discriminator 1 view .LVU422
 1221 018e 5FFA8CFC 		uxtb	ip, ip
 1222              	.LVL145:
 1223              	.L79:
 748:lvgl/src/draw/lv_draw_mask.c ****     }
 1224              		.loc 1 748 9 is_stmt 1 view .LVU423
 748:lvgl/src/draw/lv_draw_mask.c ****     }
 1225              		.loc 1 748 40 is_stmt 0 view .LVU424
ARM GAS  /var/folders/21/t9g5rlb91ys800n5npymflf80000gn/T//cc0CxbBx.s 			page 57


 1226 0192 AE18     		adds	r6, r5, r2
 748:lvgl/src/draw/lv_draw_mask.c ****     }
 1227              		.loc 1 748 23 view .LVU425
 1228 0194 A85C     		ldrb	r0, [r5, r2]	@ zero_extendqisi2
 1229              	.LVL146:
 1230              	.LBB103:
 1231              	.LBI103:
1518:lvgl/src/draw/lv_draw_mask.c **** {
 1232              		.loc 1 1518 46 is_stmt 1 view .LVU426
 1233              	.LBB104:
1520:lvgl/src/draw/lv_draw_mask.c ****     if(mask_new <= LV_OPA_MIN) return 0;
 1234              		.loc 1 1520 5 view .LVU427
1520:lvgl/src/draw/lv_draw_mask.c ****     if(mask_new <= LV_OPA_MIN) return 0;
 1235              		.loc 1 1520 7 is_stmt 0 view .LVU428
 1236 0196 BCF1FC0F 		cmp	ip, #252
 1237 019a 0AD8     		bhi	.L80
1521:lvgl/src/draw/lv_draw_mask.c **** 
 1238              		.loc 1 1521 5 is_stmt 1 view .LVU429
1521:lvgl/src/draw/lv_draw_mask.c **** 
 1239              		.loc 1 1521 7 is_stmt 0 view .LVU430
 1240 019c BCF1020F 		cmp	ip, #2
 1241 01a0 18D9     		bls	.L88
 1242              		.loc 1 1523 5 is_stmt 1 view .LVU431
 1243              		.loc 1 1523 12 is_stmt 0 view .LVU432
 1244 01a2 0CFB00F0 		mul	r0, ip, r0
 1245              	.LVL147:
 1246              		.loc 1 1523 12 view .LVU433
 1247 01a6 00EB002C 		add	ip, r0, r0, lsl #8
 1248              	.LVL148:
 1249              		.loc 1 1523 12 view .LVU434
 1250 01aa 00EBCC10 		add	r0, r0, ip, lsl #7
 1251 01ae C0F3C750 		ubfx	r0, r0, #23, #8
 1252              	.L80:
 1253              	.LVL149:
 1254              		.loc 1 1523 12 view .LVU435
 1255              	.LBE104:
 1256              	.LBE103:
 748:lvgl/src/draw/lv_draw_mask.c ****     }
 1257              		.loc 1 748 21 view .LVU436
 1258 01b2 3070     		strb	r0, [r6]
 1259              	.LVL150:
 1260              	.L77:
 748:lvgl/src/draw/lv_draw_mask.c ****     }
 1261              		.loc 1 748 21 view .LVU437
 1262              	.LBE102:
 751:lvgl/src/draw/lv_draw_mask.c ****         k = xei - abs_x;
 1263              		.loc 1 751 5 is_stmt 1 view .LVU438
 751:lvgl/src/draw/lv_draw_mask.c ****         k = xei - abs_x;
 1264              		.loc 1 751 8 is_stmt 0 view .LVU439
 1265 01b4 94F82800 		ldrb	r0, [r4, #40]	@ zero_extendqisi2
 751:lvgl/src/draw/lv_draw_mask.c ****         k = xei - abs_x;
 1266              		.loc 1 751 7 view .LVU440
 1267 01b8 10F00200 		ands	r0, r0, #2
 1268 01bc 11D0     		beq	.L81
 752:lvgl/src/draw/lv_draw_mask.c ****         if(k > len) {
 1269              		.loc 1 752 9 is_stmt 1 view .LVU441
 1270              	.LVL151:
ARM GAS  /var/folders/21/t9g5rlb91ys800n5npymflf80000gn/T//cc0CxbBx.s 			page 58


 753:lvgl/src/draw/lv_draw_mask.c ****             return LV_DRAW_MASK_RES_TRANSP;
 1271              		.loc 1 753 9 view .LVU442
 753:lvgl/src/draw/lv_draw_mask.c ****             return LV_DRAW_MASK_RES_TRANSP;
 1272              		.loc 1 753 11 is_stmt 0 view .LVU443
 1273 01be 8B42     		cmp	r3, r1
 1274 01c0 20DB     		blt	.L89
 756:lvgl/src/draw/lv_draw_mask.c ****             lv_memset_00(&mask_buf[0], k);
 1275              		.loc 1 756 9 is_stmt 1 view .LVU444
 756:lvgl/src/draw/lv_draw_mask.c ****             lv_memset_00(&mask_buf[0], k);
 1276              		.loc 1 756 11 is_stmt 0 view .LVU445
 1277 01c2 0029     		cmp	r1, #0
 1278 01c4 08DA     		bge	.L94
 770:lvgl/src/draw/lv_draw_mask.c **** }
 1279              		.loc 1 770 12 view .LVU446
 1280 01c6 0220     		movs	r0, #2
 1281 01c8 2CE7     		b	.L61
 1282              	.LVL152:
 1283              	.L93:
 1284              	.LBB107:
 746:lvgl/src/draw/lv_draw_mask.c ****         if(p->inv) m = 255 - m;
 1285              		.loc 1 746 29 is_stmt 1 discriminator 1 view .LVU447
 746:lvgl/src/draw/lv_draw_mask.c ****         if(p->inv) m = 255 - m;
 1286              		.loc 1 746 31 is_stmt 0 discriminator 1 view .LVU448
 1287 01ca 6FEA0C0C 		mvn	ip, ip
 1288              	.LVL153:
 746:lvgl/src/draw/lv_draw_mask.c ****         if(p->inv) m = 255 - m;
 1289              		.loc 1 746 31 discriminator 1 view .LVU449
 1290 01ce 5FFA8CFC 		uxtb	ip, ip
 1291              	.LVL154:
 746:lvgl/src/draw/lv_draw_mask.c ****         if(p->inv) m = 255 - m;
 1292              		.loc 1 746 31 discriminator 1 view .LVU450
 1293 01d2 D5E7     		b	.L78
 1294              	.LVL155:
 1295              	.L88:
 1296              	.LBB106:
 1297              	.LBB105:
1521:lvgl/src/draw/lv_draw_mask.c **** 
 1298              		.loc 1 1521 39 view .LVU451
 1299 01d4 0020     		movs	r0, #0
 1300              	.LVL156:
1521:lvgl/src/draw/lv_draw_mask.c **** 
 1301              		.loc 1 1521 39 view .LVU452
 1302 01d6 ECE7     		b	.L80
 1303              	.LVL157:
 1304              	.L94:
1521:lvgl/src/draw/lv_draw_mask.c **** 
 1305              		.loc 1 1521 39 view .LVU453
 1306              	.LBE105:
 1307              	.LBE106:
 1308              	.LBE107:
 757:lvgl/src/draw/lv_draw_mask.c ****         }
 1309              		.loc 1 757 13 is_stmt 1 view .LVU454
 1310 01d8 2846     		mov	r0, r5
 1311 01da FFF7FEFF 		bl	lv_memset_00
 1312              	.LVL158:
 770:lvgl/src/draw/lv_draw_mask.c **** }
 1313              		.loc 1 770 12 is_stmt 0 view .LVU455
ARM GAS  /var/folders/21/t9g5rlb91ys800n5npymflf80000gn/T//cc0CxbBx.s 			page 59


 1314 01de 0220     		movs	r0, #2
 1315 01e0 20E7     		b	.L61
 1316              	.LVL159:
 1317              	.L81:
 761:lvgl/src/draw/lv_draw_mask.c ****         if(k < 0) {
 1318              		.loc 1 761 9 is_stmt 1 view .LVU456
 762:lvgl/src/draw/lv_draw_mask.c ****             return LV_DRAW_MASK_RES_TRANSP;
 1319              		.loc 1 762 9 view .LVU457
 762:lvgl/src/draw/lv_draw_mask.c ****             return LV_DRAW_MASK_RES_TRANSP;
 1320              		.loc 1 762 11 is_stmt 0 view .LVU458
 1321 01e2 0132     		adds	r2, r2, #1
 1322              	.LVL160:
 762:lvgl/src/draw/lv_draw_mask.c ****             return LV_DRAW_MASK_RES_TRANSP;
 1323              		.loc 1 762 11 view .LVU459
 1324 01e4 3FF51EAF 		bmi	.L61
 765:lvgl/src/draw/lv_draw_mask.c ****             lv_memset_00(&mask_buf[k], len - k);
 1325              		.loc 1 765 9 is_stmt 1 view .LVU460
 765:lvgl/src/draw/lv_draw_mask.c ****             lv_memset_00(&mask_buf[k], len - k);
 1326              		.loc 1 765 11 is_stmt 0 view .LVU461
 1327 01e8 9342     		cmp	r3, r2
 1328 01ea 01DA     		bge	.L95
 770:lvgl/src/draw/lv_draw_mask.c **** }
 1329              		.loc 1 770 12 view .LVU462
 1330 01ec 0220     		movs	r0, #2
 1331 01ee 19E7     		b	.L61
 1332              	.L95:
 766:lvgl/src/draw/lv_draw_mask.c ****         }
 1333              		.loc 1 766 13 is_stmt 1 view .LVU463
 1334 01f0 991A     		subs	r1, r3, r2
 1335 01f2 A818     		adds	r0, r5, r2
 1336 01f4 FFF7FEFF 		bl	lv_memset_00
 1337              	.LVL161:
 770:lvgl/src/draw/lv_draw_mask.c **** }
 1338              		.loc 1 770 12 is_stmt 0 view .LVU464
 1339 01f8 0220     		movs	r0, #2
 1340 01fa 13E7     		b	.L61
 1341              	.LVL162:
 1342              	.L82:
 695:lvgl/src/draw/lv_draw_mask.c ****             }
 1343              		.loc 1 695 24 view .LVU465
 1344 01fc 0120     		movs	r0, #1
 1345 01fe 11E7     		b	.L61
 1346              	.L83:
 705:lvgl/src/draw/lv_draw_mask.c ****             }
 1347              		.loc 1 705 24 view .LVU466
 1348 0200 0120     		movs	r0, #1
 1349 0202 0FE7     		b	.L61
 1350              	.LVL163:
 1351              	.L89:
 754:lvgl/src/draw/lv_draw_mask.c ****         }
 1352              		.loc 1 754 20 view .LVU467
 1353 0204 0020     		movs	r0, #0
 1354 0206 0DE7     		b	.L61
 1355              		.cfi_endproc
 1356              	.LFE73:
 1358              		.section	.text.line_mask_steep,"ax",%progbits
 1359              		.align	1
ARM GAS  /var/folders/21/t9g5rlb91ys800n5npymflf80000gn/T//cc0CxbBx.s 			page 60


 1360              		.syntax unified
 1361              		.thumb
 1362              		.thumb_func
 1364              	line_mask_steep:
 1365              	.LVL164:
 1366              	.LFB74:
 776:lvgl/src/draw/lv_draw_mask.c ****     int32_t k;
 1367              		.loc 1 776 1 is_stmt 1 view -0
 1368              		.cfi_startproc
 1369              		@ args = 4, pretend = 0, frame = 0
 1370              		@ frame_needed = 0, uses_anonymous_args = 0
 776:lvgl/src/draw/lv_draw_mask.c ****     int32_t k;
 1371              		.loc 1 776 1 is_stmt 0 view .LVU469
 1372 0000 F8B5     		push	{r3, r4, r5, r6, r7, lr}
 1373              	.LCFI5:
 1374              		.cfi_def_cfa_offset 24
 1375              		.cfi_offset 3, -24
 1376              		.cfi_offset 4, -20
 1377              		.cfi_offset 5, -16
 1378              		.cfi_offset 6, -12
 1379              		.cfi_offset 7, -8
 1380              		.cfi_offset 14, -4
 1381 0002 8446     		mov	ip, r0
 1382 0004 069C     		ldr	r4, [sp, #24]
 777:lvgl/src/draw/lv_draw_mask.c ****     int32_t x_at_y;
 1383              		.loc 1 777 5 is_stmt 1 view .LVU470
 778:lvgl/src/draw/lv_draw_mask.c ****     /*At the beginning of the mask if the limit line is greater than the mask's y.
 1384              		.loc 1 778 5 view .LVU471
 781:lvgl/src/draw/lv_draw_mask.c ****     if(p->xy_steep > 0) x_at_y++;
 1385              		.loc 1 781 5 view .LVU472
 781:lvgl/src/draw/lv_draw_mask.c ****     if(p->xy_steep > 0) x_at_y++;
 1386              		.loc 1 781 34 is_stmt 0 view .LVU473
 1387 0006 A069     		ldr	r0, [r4, #24]
 1388              	.LVL165:
 781:lvgl/src/draw/lv_draw_mask.c ****     if(p->xy_steep > 0) x_at_y++;
 1389              		.loc 1 781 14 view .LVU474
 1390 0008 02FB00F5 		mul	r5, r2, r0
 781:lvgl/src/draw/lv_draw_mask.c ****     if(p->xy_steep > 0) x_at_y++;
 1391              		.loc 1 781 12 view .LVU475
 1392 000c 4FEAA52E 		asr	lr, r5, #10
 1393              	.LVL166:
 782:lvgl/src/draw/lv_draw_mask.c ****     if(x_at_y < abs_x) {
 1394              		.loc 1 782 5 is_stmt 1 view .LVU476
 782:lvgl/src/draw/lv_draw_mask.c ****     if(x_at_y < abs_x) {
 1395              		.loc 1 782 7 is_stmt 0 view .LVU477
 1396 0010 0028     		cmp	r0, #0
 1397 0012 0ADD     		ble	.L124
 782:lvgl/src/draw/lv_draw_mask.c ****     if(x_at_y < abs_x) {
 1398              		.loc 1 782 25 is_stmt 1 discriminator 1 view .LVU478
 782:lvgl/src/draw/lv_draw_mask.c ****     if(x_at_y < abs_x) {
 1399              		.loc 1 782 31 is_stmt 0 discriminator 1 view .LVU479
 1400 0014 0EF10106 		add	r6, lr, #1
 1401              	.LVL167:
 1402              	.L97:
 783:lvgl/src/draw/lv_draw_mask.c ****         if(p->inv) {
 1403              		.loc 1 783 5 is_stmt 1 view .LVU480
 783:lvgl/src/draw/lv_draw_mask.c ****         if(p->inv) {
ARM GAS  /var/folders/21/t9g5rlb91ys800n5npymflf80000gn/T//cc0CxbBx.s 			page 61


 1404              		.loc 1 783 7 is_stmt 0 view .LVU481
 1405 0018 B142     		cmp	r1, r6
 1406 001a 08DD     		ble	.L98
 784:lvgl/src/draw/lv_draw_mask.c ****             return LV_DRAW_MASK_RES_FULL_COVER;
 1407              		.loc 1 784 9 is_stmt 1 view .LVU482
 784:lvgl/src/draw/lv_draw_mask.c ****             return LV_DRAW_MASK_RES_FULL_COVER;
 1408              		.loc 1 784 12 is_stmt 0 view .LVU483
 1409 001c 94F82800 		ldrb	r0, [r4, #40]	@ zero_extendqisi2
 784:lvgl/src/draw/lv_draw_mask.c ****             return LV_DRAW_MASK_RES_FULL_COVER;
 1410              		.loc 1 784 11 view .LVU484
 1411 0020 10F00200 		ands	r0, r0, #2
 1412 0024 00D0     		beq	.L99
 785:lvgl/src/draw/lv_draw_mask.c ****         }
 1413              		.loc 1 785 20 view .LVU485
 1414 0026 0120     		movs	r0, #1
 1415              	.LVL168:
 1416              	.L99:
 913:lvgl/src/draw/lv_draw_mask.c **** 
 1417              		.loc 1 913 1 view .LVU486
 1418 0028 F8BD     		pop	{r3, r4, r5, r6, r7, pc}
 1419              	.LVL169:
 1420              	.L124:
 781:lvgl/src/draw/lv_draw_mask.c ****     if(p->xy_steep > 0) x_at_y++;
 1421              		.loc 1 781 12 view .LVU487
 1422 002a 7646     		mov	r6, lr
 1423 002c F4E7     		b	.L97
 1424              	.LVL170:
 1425              	.L98:
 794:lvgl/src/draw/lv_draw_mask.c ****     if(x_at_y > abs_x + len) {
 1426              		.loc 1 794 5 is_stmt 1 view .LVU488
 795:lvgl/src/draw/lv_draw_mask.c ****         if(p->inv) {
 1427              		.loc 1 795 5 view .LVU489
 795:lvgl/src/draw/lv_draw_mask.c ****         if(p->inv) {
 1428              		.loc 1 795 23 is_stmt 0 view .LVU490
 1429 002e CE18     		adds	r6, r1, r3
 795:lvgl/src/draw/lv_draw_mask.c ****         if(p->inv) {
 1430              		.loc 1 795 7 view .LVU491
 1431 0030 7645     		cmp	r6, lr
 1432 0032 07DA     		bge	.L100
 796:lvgl/src/draw/lv_draw_mask.c ****             return LV_DRAW_MASK_RES_TRANSP;
 1433              		.loc 1 796 9 is_stmt 1 view .LVU492
 796:lvgl/src/draw/lv_draw_mask.c ****             return LV_DRAW_MASK_RES_TRANSP;
 1434              		.loc 1 796 12 is_stmt 0 view .LVU493
 1435 0034 94F82830 		ldrb	r3, [r4, #40]	@ zero_extendqisi2
 1436              	.LVL171:
 796:lvgl/src/draw/lv_draw_mask.c ****             return LV_DRAW_MASK_RES_TRANSP;
 1437              		.loc 1 796 11 view .LVU494
 1438 0038 13F0020F 		tst	r3, #2
 1439 003c 00F04D81 		beq	.L125
 797:lvgl/src/draw/lv_draw_mask.c ****         }
 1440              		.loc 1 797 20 view .LVU495
 1441 0040 0020     		movs	r0, #0
 1442 0042 F1E7     		b	.L99
 1443              	.LVL172:
 1444              	.L100:
 805:lvgl/src/draw/lv_draw_mask.c ****     int32_t xsi = xs >> 8;
 1445              		.loc 1 805 5 is_stmt 1 view .LVU496
ARM GAS  /var/folders/21/t9g5rlb91ys800n5npymflf80000gn/T//cc0CxbBx.s 			page 62


 806:lvgl/src/draw/lv_draw_mask.c ****     int32_t xsf = xs & 0xFF;
 1446              		.loc 1 806 5 view .LVU497
 806:lvgl/src/draw/lv_draw_mask.c ****     int32_t xsf = xs & 0xFF;
 1447              		.loc 1 806 13 is_stmt 0 view .LVU498
 1448 0044 45F38D2E 		sbfx	lr, r5, #10, #14
 1449              	.LVL173:
 807:lvgl/src/draw/lv_draw_mask.c **** 
 1450              		.loc 1 807 5 is_stmt 1 view .LVU499
 807:lvgl/src/draw/lv_draw_mask.c **** 
 1451              		.loc 1 807 13 is_stmt 0 view .LVU500
 1452 0048 C5F38705 		ubfx	r5, r5, #2, #8
 1453              	.LVL174:
 810:lvgl/src/draw/lv_draw_mask.c ****     int32_t xei = xe >> 8;
 1454              		.loc 1 810 5 is_stmt 1 view .LVU501
 810:lvgl/src/draw/lv_draw_mask.c ****     int32_t xei = xe >> 8;
 1455              		.loc 1 810 39 is_stmt 0 view .LVU502
 1456 004c 02FB0002 		mla	r2, r2, r0, r0
 1457              	.LVL175:
 811:lvgl/src/draw/lv_draw_mask.c ****     int32_t xef = xe & 0xFF;
 1458              		.loc 1 811 5 is_stmt 1 view .LVU503
 811:lvgl/src/draw/lv_draw_mask.c ****     int32_t xef = xe & 0xFF;
 1459              		.loc 1 811 13 is_stmt 0 view .LVU504
 1460 0050 42F38D27 		sbfx	r7, r2, #10, #14
 1461              	.LVL176:
 812:lvgl/src/draw/lv_draw_mask.c **** 
 1462              		.loc 1 812 5 is_stmt 1 view .LVU505
 812:lvgl/src/draw/lv_draw_mask.c **** 
 1463              		.loc 1 812 13 is_stmt 0 view .LVU506
 1464 0054 C2F38702 		ubfx	r2, r2, #2, #8
 1465              	.LVL177:
 814:lvgl/src/draw/lv_draw_mask.c **** 
 1466              		.loc 1 814 5 is_stmt 1 view .LVU507
 816:lvgl/src/draw/lv_draw_mask.c ****     if(xsi != xei && (p->xy_steep < 0 && xsf == 0)) {
 1467              		.loc 1 816 5 view .LVU508
 816:lvgl/src/draw/lv_draw_mask.c ****     if(xsi != xei && (p->xy_steep < 0 && xsf == 0)) {
 1468              		.loc 1 816 7 is_stmt 0 view .LVU509
 1469 0058 AEEB0106 		sub	r6, lr, r1
 1470              	.LVL178:
 817:lvgl/src/draw/lv_draw_mask.c ****         xsf = 0xFF;
 1471              		.loc 1 817 5 is_stmt 1 view .LVU510
 817:lvgl/src/draw/lv_draw_mask.c ****         xsf = 0xFF;
 1472              		.loc 1 817 7 is_stmt 0 view .LVU511
 1473 005c BE45     		cmp	lr, r7
 1474 005e 01D0     		beq	.L101
 817:lvgl/src/draw/lv_draw_mask.c ****         xsf = 0xFF;
 1475              		.loc 1 817 19 discriminator 1 view .LVU512
 1476 0060 0028     		cmp	r0, #0
 1477 0062 63DB     		blt	.L144
 1478              	.LVL179:
 1479              	.L101:
 823:lvgl/src/draw/lv_draw_mask.c ****         if(k >= 0 && k < len) {
 1480              		.loc 1 823 5 is_stmt 1 view .LVU513
 823:lvgl/src/draw/lv_draw_mask.c ****         if(k >= 0 && k < len) {
 1481              		.loc 1 823 7 is_stmt 0 view .LVU514
 1482 0064 BE45     		cmp	lr, r7
 1483 0066 67D0     		beq	.L145
 1484              	.LBB108:
ARM GAS  /var/folders/21/t9g5rlb91ys800n5npymflf80000gn/T//cc0CxbBx.s 			page 63


 847:lvgl/src/draw/lv_draw_mask.c ****         if(p->xy_steep < 0) {
 1485              		.loc 1 847 9 is_stmt 1 view .LVU515
 848:lvgl/src/draw/lv_draw_mask.c ****             y_inters = (xsf * (-p->yx_steep)) >> 10;
 1486              		.loc 1 848 9 view .LVU516
 848:lvgl/src/draw/lv_draw_mask.c ****             y_inters = (xsf * (-p->yx_steep)) >> 10;
 1487              		.loc 1 848 11 is_stmt 0 view .LVU517
 1488 0068 0028     		cmp	r0, #0
 1489 006a C0F2AB80 		blt	.L146
 1490              	.LBB109:
 881:lvgl/src/draw/lv_draw_mask.c ****             if(k >= 0 && k < len) {
 1491              		.loc 1 881 13 is_stmt 1 view .LVU518
 881:lvgl/src/draw/lv_draw_mask.c ****             if(k >= 0 && k < len) {
 1492              		.loc 1 881 30 is_stmt 0 view .LVU519
 1493 006e C5F1FF05 		rsb	r5, r5, #255
 1494              	.LVL180:
 881:lvgl/src/draw/lv_draw_mask.c ****             if(k >= 0 && k < len) {
 1495              		.loc 1 881 40 view .LVU520
 1496 0072 E269     		ldr	r2, [r4, #28]
 1497              	.LVL181:
 881:lvgl/src/draw/lv_draw_mask.c ****             if(k >= 0 && k < len) {
 1498              		.loc 1 881 37 view .LVU521
 1499 0074 05FB02F2 		mul	r2, r5, r2
 881:lvgl/src/draw/lv_draw_mask.c ****             if(k >= 0 && k < len) {
 1500              		.loc 1 881 22 view .LVU522
 1501 0078 9212     		asrs	r2, r2, #10
 1502              	.LVL182:
 882:lvgl/src/draw/lv_draw_mask.c ****                 m = 255 - ((y_inters * (255 - xsf)) >> 9);
 1503              		.loc 1 882 13 is_stmt 1 view .LVU523
 882:lvgl/src/draw/lv_draw_mask.c ****                 m = 255 - ((y_inters * (255 - xsf)) >> 9);
 1504              		.loc 1 882 15 is_stmt 0 view .LVU524
 1505 007a 002E     		cmp	r6, #0
 1506 007c 1FDB     		blt	.L116
 882:lvgl/src/draw/lv_draw_mask.c ****                 m = 255 - ((y_inters * (255 - xsf)) >> 9);
 1507              		.loc 1 882 23 discriminator 1 view .LVU525
 1508 007e B342     		cmp	r3, r6
 1509 0080 1DDD     		ble	.L116
 883:lvgl/src/draw/lv_draw_mask.c ****                 if(p->inv) m = 255 - m;
 1510              		.loc 1 883 17 is_stmt 1 view .LVU526
 883:lvgl/src/draw/lv_draw_mask.c ****                 if(p->inv) m = 255 - m;
 1511              		.loc 1 883 38 is_stmt 0 view .LVU527
 1512 0082 02FB05F5 		mul	r5, r2, r5
 883:lvgl/src/draw/lv_draw_mask.c ****                 if(p->inv) m = 255 - m;
 1513              		.loc 1 883 25 view .LVU528
 1514 0086 C5F34725 		ubfx	r5, r5, #9, #8
 883:lvgl/src/draw/lv_draw_mask.c ****                 if(p->inv) m = 255 - m;
 1515              		.loc 1 883 19 view .LVU529
 1516 008a E843     		mvns	r0, r5
 1517 008c C0B2     		uxtb	r0, r0
 1518              	.LVL183:
 884:lvgl/src/draw/lv_draw_mask.c ****                 mask_buf[k] = mask_mix(mask_buf[k], m);
 1519              		.loc 1 884 17 is_stmt 1 view .LVU530
 884:lvgl/src/draw/lv_draw_mask.c ****                 mask_buf[k] = mask_mix(mask_buf[k], m);
 1520              		.loc 1 884 20 is_stmt 0 view .LVU531
 1521 008e 94F82870 		ldrb	r7, [r4, #40]	@ zero_extendqisi2
 1522              	.LVL184:
 884:lvgl/src/draw/lv_draw_mask.c ****                 mask_buf[k] = mask_mix(mask_buf[k], m);
 1523              		.loc 1 884 19 view .LVU532
ARM GAS  /var/folders/21/t9g5rlb91ys800n5npymflf80000gn/T//cc0CxbBx.s 			page 64


 1524 0092 17F0020F 		tst	r7, #2
 1525 0096 00D1     		bne	.L117
 883:lvgl/src/draw/lv_draw_mask.c ****                 if(p->inv) m = 255 - m;
 1526              		.loc 1 883 19 view .LVU533
 1527 0098 0546     		mov	r5, r0
 1528              	.L117:
 1529              	.LVL185:
 885:lvgl/src/draw/lv_draw_mask.c ****             }
 1530              		.loc 1 885 17 is_stmt 1 view .LVU534
 885:lvgl/src/draw/lv_draw_mask.c ****             }
 1531              		.loc 1 885 48 is_stmt 0 view .LVU535
 1532 009a 0CEB0607 		add	r7, ip, r6
 885:lvgl/src/draw/lv_draw_mask.c ****             }
 1533              		.loc 1 885 31 view .LVU536
 1534 009e 1CF80600 		ldrb	r0, [ip, r6]	@ zero_extendqisi2
 1535              	.LVL186:
 1536              	.LBB110:
 1537              	.LBI110:
1518:lvgl/src/draw/lv_draw_mask.c **** {
 1538              		.loc 1 1518 46 is_stmt 1 view .LVU537
 1539              	.LBB111:
1520:lvgl/src/draw/lv_draw_mask.c ****     if(mask_new <= LV_OPA_MIN) return 0;
 1540              		.loc 1 1520 5 view .LVU538
1520:lvgl/src/draw/lv_draw_mask.c ****     if(mask_new <= LV_OPA_MIN) return 0;
 1541              		.loc 1 1520 7 is_stmt 0 view .LVU539
 1542 00a2 FC2D     		cmp	r5, #252
 1543 00a4 0AD8     		bhi	.L118
1521:lvgl/src/draw/lv_draw_mask.c **** 
 1544              		.loc 1 1521 5 is_stmt 1 view .LVU540
1521:lvgl/src/draw/lv_draw_mask.c **** 
 1545              		.loc 1 1521 7 is_stmt 0 view .LVU541
 1546 00a6 022D     		cmp	r5, #2
 1547 00a8 40F2FD80 		bls	.L137
 1548              		.loc 1 1523 5 is_stmt 1 view .LVU542
 1549              		.loc 1 1523 12 is_stmt 0 view .LVU543
 1550 00ac 05FB00F0 		mul	r0, r5, r0
 1551              	.LVL187:
 1552              		.loc 1 1523 12 view .LVU544
 1553 00b0 00EB0025 		add	r5, r0, r0, lsl #8
 1554              	.LVL188:
 1555              		.loc 1 1523 12 view .LVU545
 1556 00b4 00EBC510 		add	r0, r0, r5, lsl #7
 1557 00b8 C0F3C750 		ubfx	r0, r0, #23, #8
 1558              	.L118:
 1559              	.LVL189:
 1560              		.loc 1 1523 12 view .LVU546
 1561              	.LBE111:
 1562              	.LBE110:
 885:lvgl/src/draw/lv_draw_mask.c ****             }
 1563              		.loc 1 885 29 view .LVU547
 1564 00bc 3870     		strb	r0, [r7]
 1565              	.LVL190:
 1566              	.L116:
 888:lvgl/src/draw/lv_draw_mask.c **** 
 1567              		.loc 1 888 13 is_stmt 1 view .LVU548
 890:lvgl/src/draw/lv_draw_mask.c ****             if(k >= 0 && k < len) {
 1568              		.loc 1 890 13 view .LVU549
ARM GAS  /var/folders/21/t9g5rlb91ys800n5npymflf80000gn/T//cc0CxbBx.s 			page 65


 890:lvgl/src/draw/lv_draw_mask.c ****             if(k >= 0 && k < len) {
 1569              		.loc 1 890 38 is_stmt 0 view .LVU550
 1570 00be C2F1FF02 		rsb	r2, r2, #255
 1571              	.LVL191:
 890:lvgl/src/draw/lv_draw_mask.c ****             if(k >= 0 && k < len) {
 1572              		.loc 1 890 53 view .LVU551
 1573 00c2 A069     		ldr	r0, [r4, #24]
 890:lvgl/src/draw/lv_draw_mask.c ****             if(k >= 0 && k < len) {
 1574              		.loc 1 890 50 view .LVU552
 1575 00c4 02FB00F0 		mul	r0, r2, r0
 890:lvgl/src/draw/lv_draw_mask.c ****             if(k >= 0 && k < len) {
 1576              		.loc 1 890 21 view .LVU553
 1577 00c8 8012     		asrs	r0, r0, #10
 1578              	.LVL192:
 891:lvgl/src/draw/lv_draw_mask.c ****                 m = ((255 - y_inters) * x_inters) >> 9;
 1579              		.loc 1 891 13 is_stmt 1 view .LVU554
 891:lvgl/src/draw/lv_draw_mask.c ****                 m = ((255 - y_inters) * x_inters) >> 9;
 1580              		.loc 1 891 15 is_stmt 0 view .LVU555
 1581 00ca 751C     		adds	r5, r6, #1
 1582              	.LVL193:
 891:lvgl/src/draw/lv_draw_mask.c ****                 m = ((255 - y_inters) * x_inters) >> 9;
 1583              		.loc 1 891 15 view .LVU556
 1584 00cc 1DD4     		bmi	.L119
 891:lvgl/src/draw/lv_draw_mask.c ****                 m = ((255 - y_inters) * x_inters) >> 9;
 1585              		.loc 1 891 23 discriminator 1 view .LVU557
 1586 00ce AB42     		cmp	r3, r5
 1587 00d0 1BDD     		ble	.L119
 892:lvgl/src/draw/lv_draw_mask.c ****                 if(p->inv) m = 255 - m;
 1588              		.loc 1 892 17 is_stmt 1 view .LVU558
 892:lvgl/src/draw/lv_draw_mask.c ****                 if(p->inv) m = 255 - m;
 1589              		.loc 1 892 39 is_stmt 0 view .LVU559
 1590 00d2 00FB02F2 		mul	r2, r0, r2
 892:lvgl/src/draw/lv_draw_mask.c ****                 if(p->inv) m = 255 - m;
 1591              		.loc 1 892 19 view .LVU560
 1592 00d6 C2F34722 		ubfx	r2, r2, #9, #8
 1593              	.LVL194:
 893:lvgl/src/draw/lv_draw_mask.c ****                 mask_buf[k] = mask_mix(mask_buf[k], m);
 1594              		.loc 1 893 17 is_stmt 1 view .LVU561
 893:lvgl/src/draw/lv_draw_mask.c ****                 mask_buf[k] = mask_mix(mask_buf[k], m);
 1595              		.loc 1 893 20 is_stmt 0 view .LVU562
 1596 00da 94F82800 		ldrb	r0, [r4, #40]	@ zero_extendqisi2
 1597              	.LVL195:
 893:lvgl/src/draw/lv_draw_mask.c ****                 mask_buf[k] = mask_mix(mask_buf[k], m);
 1598              		.loc 1 893 19 view .LVU563
 1599 00de 10F0020F 		tst	r0, #2
 1600 00e2 01D0     		beq	.L120
 893:lvgl/src/draw/lv_draw_mask.c ****                 mask_buf[k] = mask_mix(mask_buf[k], m);
 1601              		.loc 1 893 28 is_stmt 1 discriminator 1 view .LVU564
 893:lvgl/src/draw/lv_draw_mask.c ****                 mask_buf[k] = mask_mix(mask_buf[k], m);
 1602              		.loc 1 893 30 is_stmt 0 discriminator 1 view .LVU565
 1603 00e4 D243     		mvns	r2, r2
 1604              	.LVL196:
 893:lvgl/src/draw/lv_draw_mask.c ****                 mask_buf[k] = mask_mix(mask_buf[k], m);
 1605              		.loc 1 893 30 discriminator 1 view .LVU566
 1606 00e6 D2B2     		uxtb	r2, r2
 1607              	.LVL197:
 1608              	.L120:
ARM GAS  /var/folders/21/t9g5rlb91ys800n5npymflf80000gn/T//cc0CxbBx.s 			page 66


 894:lvgl/src/draw/lv_draw_mask.c ****             }
 1609              		.loc 1 894 17 is_stmt 1 view .LVU567
 894:lvgl/src/draw/lv_draw_mask.c ****             }
 1610              		.loc 1 894 31 is_stmt 0 view .LVU568
 1611 00e8 1CF80500 		ldrb	r0, [ip, r5]	@ zero_extendqisi2
 1612              	.LVL198:
 1613              	.LBB113:
 1614              	.LBI113:
1518:lvgl/src/draw/lv_draw_mask.c **** {
 1615              		.loc 1 1518 46 is_stmt 1 view .LVU569
 1616              	.LBB114:
1520:lvgl/src/draw/lv_draw_mask.c ****     if(mask_new <= LV_OPA_MIN) return 0;
 1617              		.loc 1 1520 5 view .LVU570
1520:lvgl/src/draw/lv_draw_mask.c ****     if(mask_new <= LV_OPA_MIN) return 0;
 1618              		.loc 1 1520 7 is_stmt 0 view .LVU571
 1619 00ec FC2A     		cmp	r2, #252
 1620 00ee 0AD8     		bhi	.L121
1521:lvgl/src/draw/lv_draw_mask.c **** 
 1621              		.loc 1 1521 5 is_stmt 1 view .LVU572
1521:lvgl/src/draw/lv_draw_mask.c **** 
 1622              		.loc 1 1521 7 is_stmt 0 view .LVU573
 1623 00f0 022A     		cmp	r2, #2
 1624 00f2 40F2DA80 		bls	.L138
 1625              		.loc 1 1523 5 is_stmt 1 view .LVU574
 1626              		.loc 1 1523 12 is_stmt 0 view .LVU575
 1627 00f6 02FB00F0 		mul	r0, r2, r0
 1628              	.LVL199:
 1629              		.loc 1 1523 12 view .LVU576
 1630 00fa 00EB0022 		add	r2, r0, r0, lsl #8
 1631              	.LVL200:
 1632              		.loc 1 1523 12 view .LVU577
 1633 00fe 00EBC210 		add	r0, r0, r2, lsl #7
 1634 0102 C0F3C750 		ubfx	r0, r0, #23, #8
 1635              	.L121:
 1636              	.LVL201:
 1637              		.loc 1 1523 12 view .LVU578
 1638              	.LBE114:
 1639              	.LBE113:
 894:lvgl/src/draw/lv_draw_mask.c ****             }
 1640              		.loc 1 894 29 view .LVU579
 1641 0106 0CF80500 		strb	r0, [ip, r5]
 1642              	.LVL202:
 1643              	.L119:
 896:lvgl/src/draw/lv_draw_mask.c **** 
 1644              		.loc 1 896 13 is_stmt 1 view .LVU580
 896:lvgl/src/draw/lv_draw_mask.c **** 
 1645              		.loc 1 896 14 is_stmt 0 view .LVU581
 1646 010a 0236     		adds	r6, r6, #2
 1647              	.LVL203:
 898:lvgl/src/draw/lv_draw_mask.c ****                 k = xsi - abs_x;
 1648              		.loc 1 898 13 is_stmt 1 view .LVU582
 898:lvgl/src/draw/lv_draw_mask.c ****                 k = xsi - abs_x;
 1649              		.loc 1 898 16 is_stmt 0 view .LVU583
 1650 010c 94F82800 		ldrb	r0, [r4, #40]	@ zero_extendqisi2
 898:lvgl/src/draw/lv_draw_mask.c ****                 k = xsi - abs_x;
 1651              		.loc 1 898 15 view .LVU584
 1652 0110 10F00200 		ands	r0, r0, #2
ARM GAS  /var/folders/21/t9g5rlb91ys800n5npymflf80000gn/T//cc0CxbBx.s 			page 67


 1653 0114 00F0D080 		beq	.L122
 899:lvgl/src/draw/lv_draw_mask.c ****                 if(k > len)  return LV_DRAW_MASK_RES_TRANSP;
 1654              		.loc 1 899 17 is_stmt 1 view .LVU585
 899:lvgl/src/draw/lv_draw_mask.c ****                 if(k > len)  return LV_DRAW_MASK_RES_TRANSP;
 1655              		.loc 1 899 19 is_stmt 0 view .LVU586
 1656 0118 AEEB0101 		sub	r1, lr, r1
 1657              	.LVL204:
 900:lvgl/src/draw/lv_draw_mask.c ****                 if(k >= 0) lv_memset_00(&mask_buf[0],  k);
 1658              		.loc 1 900 17 is_stmt 1 view .LVU587
 900:lvgl/src/draw/lv_draw_mask.c ****                 if(k >= 0) lv_memset_00(&mask_buf[0],  k);
 1659              		.loc 1 900 19 is_stmt 0 view .LVU588
 1660 011c 8B42     		cmp	r3, r1
 1661 011e C0F2E480 		blt	.L139
 901:lvgl/src/draw/lv_draw_mask.c **** 
 1662              		.loc 1 901 17 is_stmt 1 view .LVU589
 901:lvgl/src/draw/lv_draw_mask.c **** 
 1663              		.loc 1 901 19 is_stmt 0 view .LVU590
 1664 0122 0029     		cmp	r1, #0
 1665 0124 80F2C380 		bge	.L147
 1666              	.LBE109:
 1667              	.LBE108:
 912:lvgl/src/draw/lv_draw_mask.c **** }
 1668              		.loc 1 912 12 view .LVU591
 1669 0128 0220     		movs	r0, #2
 1670 012a 7DE7     		b	.L99
 1671              	.LVL205:
 1672              	.L144:
 817:lvgl/src/draw/lv_draw_mask.c ****         xsf = 0xFF;
 1673              		.loc 1 817 39 discriminator 2 view .LVU592
 1674 012c 002D     		cmp	r5, #0
 1675 012e 99D1     		bne	.L101
 818:lvgl/src/draw/lv_draw_mask.c ****         xsi = xei;
 1676              		.loc 1 818 9 is_stmt 1 view .LVU593
 1677              	.LVL206:
 819:lvgl/src/draw/lv_draw_mask.c ****         k--;
 1678              		.loc 1 819 9 view .LVU594
 820:lvgl/src/draw/lv_draw_mask.c ****     }
 1679              		.loc 1 820 9 view .LVU595
 820:lvgl/src/draw/lv_draw_mask.c ****     }
 1680              		.loc 1 820 10 is_stmt 0 view .LVU596
 1681 0130 013E     		subs	r6, r6, #1
 1682              	.LVL207:
 819:lvgl/src/draw/lv_draw_mask.c ****         k--;
 1683              		.loc 1 819 13 view .LVU597
 1684 0132 BE46     		mov	lr, r7
 818:lvgl/src/draw/lv_draw_mask.c ****         xsi = xei;
 1685              		.loc 1 818 13 view .LVU598
 1686 0134 FF25     		movs	r5, #255
 1687 0136 95E7     		b	.L101
 1688              	.LVL208:
 1689              	.L145:
 824:lvgl/src/draw/lv_draw_mask.c ****             m = (xsf + xef) >> 1;
 1690              		.loc 1 824 9 is_stmt 1 view .LVU599
 824:lvgl/src/draw/lv_draw_mask.c ****             m = (xsf + xef) >> 1;
 1691              		.loc 1 824 11 is_stmt 0 view .LVU600
 1692 0138 002E     		cmp	r6, #0
 1693 013a 1CDB     		blt	.L103
ARM GAS  /var/folders/21/t9g5rlb91ys800n5npymflf80000gn/T//cc0CxbBx.s 			page 68


 824:lvgl/src/draw/lv_draw_mask.c ****             m = (xsf + xef) >> 1;
 1694              		.loc 1 824 19 discriminator 1 view .LVU601
 1695 013c B342     		cmp	r3, r6
 1696 013e 1ADD     		ble	.L103
 825:lvgl/src/draw/lv_draw_mask.c ****             if(p->inv) m = 255 - m;
 1697              		.loc 1 825 13 is_stmt 1 view .LVU602
 825:lvgl/src/draw/lv_draw_mask.c ****             if(p->inv) m = 255 - m;
 1698              		.loc 1 825 22 is_stmt 0 view .LVU603
 1699 0140 2A44     		add	r2, r2, r5
 1700              	.LVL209:
 825:lvgl/src/draw/lv_draw_mask.c ****             if(p->inv) m = 255 - m;
 1701              		.loc 1 825 15 view .LVU604
 1702 0142 C2F34702 		ubfx	r2, r2, #1, #8
 1703              	.LVL210:
 826:lvgl/src/draw/lv_draw_mask.c ****             mask_buf[k] = mask_mix(mask_buf[k], m);
 1704              		.loc 1 826 13 is_stmt 1 view .LVU605
 826:lvgl/src/draw/lv_draw_mask.c ****             mask_buf[k] = mask_mix(mask_buf[k], m);
 1705              		.loc 1 826 16 is_stmt 0 view .LVU606
 1706 0146 94F82800 		ldrb	r0, [r4, #40]	@ zero_extendqisi2
 826:lvgl/src/draw/lv_draw_mask.c ****             mask_buf[k] = mask_mix(mask_buf[k], m);
 1707              		.loc 1 826 15 view .LVU607
 1708 014a 10F0020F 		tst	r0, #2
 1709 014e 01D0     		beq	.L104
 826:lvgl/src/draw/lv_draw_mask.c ****             mask_buf[k] = mask_mix(mask_buf[k], m);
 1710              		.loc 1 826 24 is_stmt 1 discriminator 1 view .LVU608
 826:lvgl/src/draw/lv_draw_mask.c ****             mask_buf[k] = mask_mix(mask_buf[k], m);
 1711              		.loc 1 826 26 is_stmt 0 discriminator 1 view .LVU609
 1712 0150 D243     		mvns	r2, r2
 1713              	.LVL211:
 826:lvgl/src/draw/lv_draw_mask.c ****             mask_buf[k] = mask_mix(mask_buf[k], m);
 1714              		.loc 1 826 26 discriminator 1 view .LVU610
 1715 0152 D2B2     		uxtb	r2, r2
 1716              	.LVL212:
 1717              	.L104:
 827:lvgl/src/draw/lv_draw_mask.c ****         }
 1718              		.loc 1 827 13 is_stmt 1 view .LVU611
 827:lvgl/src/draw/lv_draw_mask.c ****         }
 1719              		.loc 1 827 44 is_stmt 0 view .LVU612
 1720 0154 0CEB0605 		add	r5, ip, r6
 1721              	.LVL213:
 827:lvgl/src/draw/lv_draw_mask.c ****         }
 1722              		.loc 1 827 27 view .LVU613
 1723 0158 1CF80600 		ldrb	r0, [ip, r6]	@ zero_extendqisi2
 1724              	.LVL214:
 1725              	.LBB135:
 1726              	.LBI135:
1518:lvgl/src/draw/lv_draw_mask.c **** {
 1727              		.loc 1 1518 46 is_stmt 1 view .LVU614
 1728              	.LBB136:
1520:lvgl/src/draw/lv_draw_mask.c ****     if(mask_new <= LV_OPA_MIN) return 0;
 1729              		.loc 1 1520 5 view .LVU615
1520:lvgl/src/draw/lv_draw_mask.c ****     if(mask_new <= LV_OPA_MIN) return 0;
 1730              		.loc 1 1520 7 is_stmt 0 view .LVU616
 1731 015c FC2A     		cmp	r2, #252
 1732 015e 09D8     		bhi	.L105
1521:lvgl/src/draw/lv_draw_mask.c **** 
 1733              		.loc 1 1521 5 is_stmt 1 view .LVU617
ARM GAS  /var/folders/21/t9g5rlb91ys800n5npymflf80000gn/T//cc0CxbBx.s 			page 69


1521:lvgl/src/draw/lv_draw_mask.c **** 
 1734              		.loc 1 1521 7 is_stmt 0 view .LVU618
 1735 0160 022A     		cmp	r2, #2
 1736 0162 17D9     		bls	.L126
 1737              		.loc 1 1523 5 is_stmt 1 view .LVU619
 1738              		.loc 1 1523 12 is_stmt 0 view .LVU620
 1739 0164 00FB02F2 		mul	r2, r0, r2
 1740              	.LVL215:
 1741              		.loc 1 1523 12 view .LVU621
 1742 0168 02EB0220 		add	r0, r2, r2, lsl #8
 1743              	.LVL216:
 1744              		.loc 1 1523 12 view .LVU622
 1745 016c 02EBC012 		add	r2, r2, r0, lsl #7
 1746 0170 C2F3C750 		ubfx	r0, r2, #23, #8
 1747              	.L105:
 1748              	.LVL217:
 1749              		.loc 1 1523 12 view .LVU623
 1750              	.LBE136:
 1751              	.LBE135:
 827:lvgl/src/draw/lv_draw_mask.c ****         }
 1752              		.loc 1 827 25 view .LVU624
 1753 0174 2870     		strb	r0, [r5]
 1754              	.LVL218:
 1755              	.L103:
 829:lvgl/src/draw/lv_draw_mask.c **** 
 1756              		.loc 1 829 9 is_stmt 1 view .LVU625
 829:lvgl/src/draw/lv_draw_mask.c **** 
 1757              		.loc 1 829 10 is_stmt 0 view .LVU626
 1758 0176 0136     		adds	r6, r6, #1
 1759              	.LVL219:
 831:lvgl/src/draw/lv_draw_mask.c ****             k = xsi - abs_x;
 1760              		.loc 1 831 9 is_stmt 1 view .LVU627
 831:lvgl/src/draw/lv_draw_mask.c ****             k = xsi - abs_x;
 1761              		.loc 1 831 12 is_stmt 0 view .LVU628
 1762 0178 94F82800 		ldrb	r0, [r4, #40]	@ zero_extendqisi2
 831:lvgl/src/draw/lv_draw_mask.c ****             k = xsi - abs_x;
 1763              		.loc 1 831 11 view .LVU629
 1764 017c 10F00200 		ands	r0, r0, #2
 1765 0180 0FD0     		beq	.L106
 832:lvgl/src/draw/lv_draw_mask.c ****             if(k >= len) {
 1766              		.loc 1 832 13 is_stmt 1 view .LVU630
 832:lvgl/src/draw/lv_draw_mask.c ****             if(k >= len) {
 1767              		.loc 1 832 15 is_stmt 0 view .LVU631
 1768 0182 AEEB0101 		sub	r1, lr, r1
 1769              	.LVL220:
 833:lvgl/src/draw/lv_draw_mask.c ****                 return LV_DRAW_MASK_RES_TRANSP;
 1770              		.loc 1 833 13 is_stmt 1 view .LVU632
 833:lvgl/src/draw/lv_draw_mask.c ****                 return LV_DRAW_MASK_RES_TRANSP;
 1771              		.loc 1 833 15 is_stmt 0 view .LVU633
 1772 0186 8B42     		cmp	r3, r1
 1773 0188 40F3A980 		ble	.L127
 836:lvgl/src/draw/lv_draw_mask.c **** 
 1774              		.loc 1 836 13 is_stmt 1 view .LVU634
 836:lvgl/src/draw/lv_draw_mask.c **** 
 1775              		.loc 1 836 15 is_stmt 0 view .LVU635
 1776 018c 0029     		cmp	r1, #0
 1777 018e 03DA     		bge	.L148
ARM GAS  /var/folders/21/t9g5rlb91ys800n5npymflf80000gn/T//cc0CxbBx.s 			page 70


 912:lvgl/src/draw/lv_draw_mask.c **** }
 1778              		.loc 1 912 12 view .LVU636
 1779 0190 0220     		movs	r0, #2
 1780 0192 49E7     		b	.L99
 1781              	.LVL221:
 1782              	.L126:
 1783              	.LBB138:
 1784              	.LBB137:
1521:lvgl/src/draw/lv_draw_mask.c **** 
 1785              		.loc 1 1521 39 view .LVU637
 1786 0194 0020     		movs	r0, #0
 1787              	.LVL222:
1521:lvgl/src/draw/lv_draw_mask.c **** 
 1788              		.loc 1 1521 39 view .LVU638
 1789 0196 EDE7     		b	.L105
 1790              	.LVL223:
 1791              	.L148:
1521:lvgl/src/draw/lv_draw_mask.c **** 
 1792              		.loc 1 1521 39 view .LVU639
 1793              	.LBE137:
 1794              	.LBE138:
 836:lvgl/src/draw/lv_draw_mask.c **** 
 1795              		.loc 1 836 24 is_stmt 1 discriminator 1 view .LVU640
 1796 0198 6046     		mov	r0, ip
 1797 019a FFF7FEFF 		bl	lv_memset_00
 1798              	.LVL224:
 912:lvgl/src/draw/lv_draw_mask.c **** }
 1799              		.loc 1 912 12 is_stmt 0 discriminator 1 view .LVU641
 1800 019e 0220     		movs	r0, #2
 1801 01a0 42E7     		b	.L99
 1802              	.LVL225:
 1803              	.L106:
 840:lvgl/src/draw/lv_draw_mask.c ****             if(k == 0) return LV_DRAW_MASK_RES_TRANSP;
 1804              		.loc 1 840 13 is_stmt 1 view .LVU642
 840:lvgl/src/draw/lv_draw_mask.c ****             if(k == 0) return LV_DRAW_MASK_RES_TRANSP;
 1805              		.loc 1 840 15 is_stmt 0 view .LVU643
 1806 01a2 B342     		cmp	r3, r6
 1807 01a4 00DA     		bge	.L107
 840:lvgl/src/draw/lv_draw_mask.c ****             if(k == 0) return LV_DRAW_MASK_RES_TRANSP;
 1808              		.loc 1 840 27 view .LVU644
 1809 01a6 1E46     		mov	r6, r3
 1810              	.LVL226:
 1811              	.L107:
 841:lvgl/src/draw/lv_draw_mask.c ****             else if(k > 0) lv_memset_00(&mask_buf[k],  len - k);
 1812              		.loc 1 841 13 is_stmt 1 view .LVU645
 841:lvgl/src/draw/lv_draw_mask.c ****             else if(k > 0) lv_memset_00(&mask_buf[k],  len - k);
 1813              		.loc 1 841 15 is_stmt 0 view .LVU646
 1814 01a8 002E     		cmp	r6, #0
 1815 01aa 3FF43DAF 		beq	.L99
 842:lvgl/src/draw/lv_draw_mask.c ****         }
 1816              		.loc 1 842 18 is_stmt 1 view .LVU647
 842:lvgl/src/draw/lv_draw_mask.c ****         }
 1817              		.loc 1 842 20 is_stmt 0 view .LVU648
 1818 01ae 002E     		cmp	r6, #0
 1819 01b0 01DC     		bgt	.L149
 912:lvgl/src/draw/lv_draw_mask.c **** }
 1820              		.loc 1 912 12 view .LVU649
ARM GAS  /var/folders/21/t9g5rlb91ys800n5npymflf80000gn/T//cc0CxbBx.s 			page 71


 1821 01b2 0220     		movs	r0, #2
 1822 01b4 38E7     		b	.L99
 1823              	.L149:
 842:lvgl/src/draw/lv_draw_mask.c ****         }
 1824              		.loc 1 842 28 is_stmt 1 discriminator 1 view .LVU650
 1825 01b6 991B     		subs	r1, r3, r6
 1826              	.LVL227:
 842:lvgl/src/draw/lv_draw_mask.c ****         }
 1827              		.loc 1 842 28 is_stmt 0 discriminator 1 view .LVU651
 1828 01b8 0CEB0600 		add	r0, ip, r6
 1829 01bc FFF7FEFF 		bl	lv_memset_00
 1830              	.LVL228:
 912:lvgl/src/draw/lv_draw_mask.c **** }
 1831              		.loc 1 912 12 discriminator 1 view .LVU652
 1832 01c0 0220     		movs	r0, #2
 1833 01c2 31E7     		b	.L99
 1834              	.LVL229:
 1835              	.L146:
 1836              	.LBB139:
 1837              	.LBB118:
 849:lvgl/src/draw/lv_draw_mask.c ****             if(k >= 0 && k < len) {
 1838              		.loc 1 849 13 is_stmt 1 view .LVU653
 849:lvgl/src/draw/lv_draw_mask.c ****             if(k >= 0 && k < len) {
 1839              		.loc 1 849 34 is_stmt 0 view .LVU654
 1840 01c4 E069     		ldr	r0, [r4, #28]
 849:lvgl/src/draw/lv_draw_mask.c ****             if(k >= 0 && k < len) {
 1841              		.loc 1 849 32 view .LVU655
 1842 01c6 4042     		rsbs	r0, r0, #0
 849:lvgl/src/draw/lv_draw_mask.c ****             if(k >= 0 && k < len) {
 1843              		.loc 1 849 29 view .LVU656
 1844 01c8 05FB00F0 		mul	r0, r5, r0
 849:lvgl/src/draw/lv_draw_mask.c ****             if(k >= 0 && k < len) {
 1845              		.loc 1 849 22 view .LVU657
 1846 01cc 8012     		asrs	r0, r0, #10
 1847              	.LVL230:
 850:lvgl/src/draw/lv_draw_mask.c ****                 m = (y_inters * xsf) >> 9;
 1848              		.loc 1 850 13 is_stmt 1 view .LVU658
 850:lvgl/src/draw/lv_draw_mask.c ****                 m = (y_inters * xsf) >> 9;
 1849              		.loc 1 850 15 is_stmt 0 view .LVU659
 1850 01ce 002E     		cmp	r6, #0
 1851 01d0 1DDB     		blt	.L109
 850:lvgl/src/draw/lv_draw_mask.c ****                 m = (y_inters * xsf) >> 9;
 1852              		.loc 1 850 23 discriminator 1 view .LVU660
 1853 01d2 B342     		cmp	r3, r6
 1854 01d4 1BDD     		ble	.L109
 851:lvgl/src/draw/lv_draw_mask.c ****                 if(p->inv) m = 255 - m;
 1855              		.loc 1 851 17 is_stmt 1 view .LVU661
 851:lvgl/src/draw/lv_draw_mask.c ****                 if(p->inv) m = 255 - m;
 1856              		.loc 1 851 31 is_stmt 0 view .LVU662
 1857 01d6 00FB05F5 		mul	r5, r0, r5
 1858              	.LVL231:
 851:lvgl/src/draw/lv_draw_mask.c ****                 if(p->inv) m = 255 - m;
 1859              		.loc 1 851 19 view .LVU663
 1860 01da C5F34725 		ubfx	r5, r5, #9, #8
 1861              	.LVL232:
 852:lvgl/src/draw/lv_draw_mask.c ****                 mask_buf[k] = mask_mix(mask_buf[k], m);
 1862              		.loc 1 852 17 is_stmt 1 view .LVU664
ARM GAS  /var/folders/21/t9g5rlb91ys800n5npymflf80000gn/T//cc0CxbBx.s 			page 72


 852:lvgl/src/draw/lv_draw_mask.c ****                 mask_buf[k] = mask_mix(mask_buf[k], m);
 1863              		.loc 1 852 20 is_stmt 0 view .LVU665
 1864 01de 94F82820 		ldrb	r2, [r4, #40]	@ zero_extendqisi2
 1865              	.LVL233:
 852:lvgl/src/draw/lv_draw_mask.c ****                 mask_buf[k] = mask_mix(mask_buf[k], m);
 1866              		.loc 1 852 19 view .LVU666
 1867 01e2 12F0020F 		tst	r2, #2
 1868 01e6 01D0     		beq	.L110
 852:lvgl/src/draw/lv_draw_mask.c ****                 mask_buf[k] = mask_mix(mask_buf[k], m);
 1869              		.loc 1 852 28 is_stmt 1 discriminator 1 view .LVU667
 852:lvgl/src/draw/lv_draw_mask.c ****                 mask_buf[k] = mask_mix(mask_buf[k], m);
 1870              		.loc 1 852 30 is_stmt 0 discriminator 1 view .LVU668
 1871 01e8 ED43     		mvns	r5, r5
 1872              	.LVL234:
 852:lvgl/src/draw/lv_draw_mask.c ****                 mask_buf[k] = mask_mix(mask_buf[k], m);
 1873              		.loc 1 852 30 discriminator 1 view .LVU669
 1874 01ea EDB2     		uxtb	r5, r5
 1875              	.LVL235:
 1876              	.L110:
 853:lvgl/src/draw/lv_draw_mask.c ****             }
 1877              		.loc 1 853 17 is_stmt 1 view .LVU670
 853:lvgl/src/draw/lv_draw_mask.c ****             }
 1878              		.loc 1 853 48 is_stmt 0 view .LVU671
 1879 01ec 0CEB0607 		add	r7, ip, r6
 1880              	.LVL236:
 853:lvgl/src/draw/lv_draw_mask.c ****             }
 1881              		.loc 1 853 31 view .LVU672
 1882 01f0 1CF80620 		ldrb	r2, [ip, r6]	@ zero_extendqisi2
 1883              	.LVL237:
 1884              	.LBB119:
 1885              	.LBI119:
1518:lvgl/src/draw/lv_draw_mask.c **** {
 1886              		.loc 1 1518 46 is_stmt 1 view .LVU673
 1887              	.LBB120:
1520:lvgl/src/draw/lv_draw_mask.c ****     if(mask_new <= LV_OPA_MIN) return 0;
 1888              		.loc 1 1520 5 view .LVU674
1520:lvgl/src/draw/lv_draw_mask.c ****     if(mask_new <= LV_OPA_MIN) return 0;
 1889              		.loc 1 1520 7 is_stmt 0 view .LVU675
 1890 01f4 FC2D     		cmp	r5, #252
 1891 01f6 09D8     		bhi	.L111
1521:lvgl/src/draw/lv_draw_mask.c **** 
 1892              		.loc 1 1521 5 is_stmt 1 view .LVU676
1521:lvgl/src/draw/lv_draw_mask.c **** 
 1893              		.loc 1 1521 7 is_stmt 0 view .LVU677
 1894 01f8 022D     		cmp	r5, #2
 1895 01fa 3ED9     		bls	.L131
 1896              		.loc 1 1523 5 is_stmt 1 view .LVU678
 1897              		.loc 1 1523 12 is_stmt 0 view .LVU679
 1898 01fc 05FB02F2 		mul	r2, r5, r2
 1899              	.LVL238:
 1900              		.loc 1 1523 12 view .LVU680
 1901 0200 02EB0225 		add	r5, r2, r2, lsl #8
 1902              	.LVL239:
 1903              		.loc 1 1523 12 view .LVU681
 1904 0204 02EBC512 		add	r2, r2, r5, lsl #7
 1905 0208 C2F3C752 		ubfx	r2, r2, #23, #8
 1906              	.L111:
ARM GAS  /var/folders/21/t9g5rlb91ys800n5npymflf80000gn/T//cc0CxbBx.s 			page 73


 1907              	.LVL240:
 1908              		.loc 1 1523 12 view .LVU682
 1909              	.LBE120:
 1910              	.LBE119:
 853:lvgl/src/draw/lv_draw_mask.c ****             }
 1911              		.loc 1 853 29 view .LVU683
 1912 020c 3A70     		strb	r2, [r7]
 1913              	.LVL241:
 1914              	.L109:
 855:lvgl/src/draw/lv_draw_mask.c **** 
 1915              		.loc 1 855 13 is_stmt 1 view .LVU684
 857:lvgl/src/draw/lv_draw_mask.c **** 
 1916              		.loc 1 857 13 view .LVU685
 857:lvgl/src/draw/lv_draw_mask.c **** 
 1917              		.loc 1 857 38 is_stmt 0 view .LVU686
 1918 020e C0F1FF00 		rsb	r0, r0, #255
 1919              	.LVL242:
 857:lvgl/src/draw/lv_draw_mask.c **** 
 1920              		.loc 1 857 55 view .LVU687
 1921 0212 A269     		ldr	r2, [r4, #24]
 857:lvgl/src/draw/lv_draw_mask.c **** 
 1922              		.loc 1 857 53 view .LVU688
 1923 0214 5242     		rsbs	r2, r2, #0
 857:lvgl/src/draw/lv_draw_mask.c **** 
 1924              		.loc 1 857 50 view .LVU689
 1925 0216 00FB02F2 		mul	r2, r0, r2
 857:lvgl/src/draw/lv_draw_mask.c **** 
 1926              		.loc 1 857 21 view .LVU690
 1927 021a 9212     		asrs	r2, r2, #10
 1928              	.LVL243:
 859:lvgl/src/draw/lv_draw_mask.c ****                 m = 255 - (((255 - y_inters) * x_inters) >> 9);
 1929              		.loc 1 859 13 is_stmt 1 view .LVU691
 859:lvgl/src/draw/lv_draw_mask.c ****                 m = 255 - (((255 - y_inters) * x_inters) >> 9);
 1930              		.loc 1 859 15 is_stmt 0 view .LVU692
 1931 021c 751E     		subs	r5, r6, #1
 1932              	.LVL244:
 859:lvgl/src/draw/lv_draw_mask.c ****                 m = 255 - (((255 - y_inters) * x_inters) >> 9);
 1933              		.loc 1 859 15 view .LVU693
 1934 021e 1DD4     		bmi	.L112
 859:lvgl/src/draw/lv_draw_mask.c ****                 m = 255 - (((255 - y_inters) * x_inters) >> 9);
 1935              		.loc 1 859 23 discriminator 1 view .LVU694
 1936 0220 AB42     		cmp	r3, r5
 1937 0222 1BDD     		ble	.L112
 860:lvgl/src/draw/lv_draw_mask.c ****                 if(p->inv) m = 255 - m;
 1938              		.loc 1 860 17 is_stmt 1 view .LVU695
 860:lvgl/src/draw/lv_draw_mask.c ****                 if(p->inv) m = 255 - m;
 1939              		.loc 1 860 46 is_stmt 0 view .LVU696
 1940 0224 02FB00F0 		mul	r0, r2, r0
 860:lvgl/src/draw/lv_draw_mask.c ****                 if(p->inv) m = 255 - m;
 1941              		.loc 1 860 25 view .LVU697
 1942 0228 C0F34720 		ubfx	r0, r0, #9, #8
 860:lvgl/src/draw/lv_draw_mask.c ****                 if(p->inv) m = 255 - m;
 1943              		.loc 1 860 19 view .LVU698
 1944 022c C243     		mvns	r2, r0
 1945              	.LVL245:
 860:lvgl/src/draw/lv_draw_mask.c ****                 if(p->inv) m = 255 - m;
 1946              		.loc 1 860 19 view .LVU699
ARM GAS  /var/folders/21/t9g5rlb91ys800n5npymflf80000gn/T//cc0CxbBx.s 			page 74


 1947 022e D2B2     		uxtb	r2, r2
 1948              	.LVL246:
 861:lvgl/src/draw/lv_draw_mask.c ****                 mask_buf[k] = mask_mix(mask_buf[k], m);
 1949              		.loc 1 861 17 is_stmt 1 view .LVU700
 861:lvgl/src/draw/lv_draw_mask.c ****                 mask_buf[k] = mask_mix(mask_buf[k], m);
 1950              		.loc 1 861 20 is_stmt 0 view .LVU701
 1951 0230 94F82870 		ldrb	r7, [r4, #40]	@ zero_extendqisi2
 861:lvgl/src/draw/lv_draw_mask.c ****                 mask_buf[k] = mask_mix(mask_buf[k], m);
 1952              		.loc 1 861 19 view .LVU702
 1953 0234 17F0020F 		tst	r7, #2
 1954 0238 00D1     		bne	.L113
 860:lvgl/src/draw/lv_draw_mask.c ****                 if(p->inv) m = 255 - m;
 1955              		.loc 1 860 19 view .LVU703
 1956 023a 1046     		mov	r0, r2
 1957              	.L113:
 1958              	.LVL247:
 862:lvgl/src/draw/lv_draw_mask.c ****             }
 1959              		.loc 1 862 17 is_stmt 1 view .LVU704
 862:lvgl/src/draw/lv_draw_mask.c ****             }
 1960              		.loc 1 862 31 is_stmt 0 view .LVU705
 1961 023c 1CF80520 		ldrb	r2, [ip, r5]	@ zero_extendqisi2
 1962              	.LVL248:
 1963              	.LBB122:
 1964              	.LBI122:
1518:lvgl/src/draw/lv_draw_mask.c **** {
 1965              		.loc 1 1518 46 is_stmt 1 view .LVU706
 1966              	.LBB123:
1520:lvgl/src/draw/lv_draw_mask.c ****     if(mask_new <= LV_OPA_MIN) return 0;
 1967              		.loc 1 1520 5 view .LVU707
