ARM GAS  /var/folders/21/t9g5rlb91ys800n5npymflf80000gn/T//cce6JCY2.s 			page 1


   1              		.cpu cortex-m4
   2              		.arch armv7e-m
   3              		.fpu fpv4-sp-d16
   4              		.eabi_attribute 27, 1
   5              		.eabi_attribute 28, 1
   6              		.eabi_attribute 20, 1
   7              		.eabi_attribute 21, 1
   8              		.eabi_attribute 23, 3
   9              		.eabi_attribute 24, 1
  10              		.eabi_attribute 25, 1
  11              		.eabi_attribute 26, 1
  12              		.eabi_attribute 30, 1
  13              		.eabi_attribute 34, 1
  14              		.eabi_attribute 18, 4
  15              		.file	"lv_grid.c"
  16              		.text
  17              	.Ltext0:
  18              		.cfi_sections	.debug_frame
  19              		.file 1 "lvgl/src/extra/layouts/grid/lv_grid.c"
  20              		.section	.text.grid_align,"ax",%progbits
  21              		.align	1
  22              		.syntax unified
  23              		.thumb
  24              		.thumb_func
  26              	grid_align:
  27              	.LVL0:
  28              	.LFB217:
   1:lvgl/src/extra/layouts/grid/lv_grid.c **** /**
   2:lvgl/src/extra/layouts/grid/lv_grid.c ****  * @file lv_grid.c
   3:lvgl/src/extra/layouts/grid/lv_grid.c ****  *
   4:lvgl/src/extra/layouts/grid/lv_grid.c ****  */
   5:lvgl/src/extra/layouts/grid/lv_grid.c **** 
   6:lvgl/src/extra/layouts/grid/lv_grid.c **** /*********************
   7:lvgl/src/extra/layouts/grid/lv_grid.c ****  *      INCLUDES
   8:lvgl/src/extra/layouts/grid/lv_grid.c ****  *********************/
   9:lvgl/src/extra/layouts/grid/lv_grid.c **** #include "../lv_layouts.h"
  10:lvgl/src/extra/layouts/grid/lv_grid.c **** 
  11:lvgl/src/extra/layouts/grid/lv_grid.c **** #if LV_USE_GRID
  12:lvgl/src/extra/layouts/grid/lv_grid.c **** 
  13:lvgl/src/extra/layouts/grid/lv_grid.c **** /*********************
  14:lvgl/src/extra/layouts/grid/lv_grid.c ****  *      DEFINES
  15:lvgl/src/extra/layouts/grid/lv_grid.c ****  *********************/
  16:lvgl/src/extra/layouts/grid/lv_grid.c **** /**
  17:lvgl/src/extra/layouts/grid/lv_grid.c ****  * Some helper defines
  18:lvgl/src/extra/layouts/grid/lv_grid.c ****  */
  19:lvgl/src/extra/layouts/grid/lv_grid.c **** #define IS_FR(x)       (x >= LV_COORD_MAX - 100)
  20:lvgl/src/extra/layouts/grid/lv_grid.c **** #define IS_CONTENT(x)  (x == LV_COORD_MAX - 101)
  21:lvgl/src/extra/layouts/grid/lv_grid.c **** #define GET_FR(x)      (x - (LV_COORD_MAX - 100))
  22:lvgl/src/extra/layouts/grid/lv_grid.c **** 
  23:lvgl/src/extra/layouts/grid/lv_grid.c **** /**********************
  24:lvgl/src/extra/layouts/grid/lv_grid.c ****  *      TYPEDEFS
  25:lvgl/src/extra/layouts/grid/lv_grid.c ****  **********************/
  26:lvgl/src/extra/layouts/grid/lv_grid.c **** typedef struct {
  27:lvgl/src/extra/layouts/grid/lv_grid.c ****     uint32_t col;
  28:lvgl/src/extra/layouts/grid/lv_grid.c ****     uint32_t row;
  29:lvgl/src/extra/layouts/grid/lv_grid.c ****     lv_point_t grid_abs;
  30:lvgl/src/extra/layouts/grid/lv_grid.c **** } item_repos_hint_t;
ARM GAS  /var/folders/21/t9g5rlb91ys800n5npymflf80000gn/T//cce6JCY2.s 			page 2


  31:lvgl/src/extra/layouts/grid/lv_grid.c **** 
  32:lvgl/src/extra/layouts/grid/lv_grid.c **** typedef struct {
  33:lvgl/src/extra/layouts/grid/lv_grid.c ****     lv_coord_t * x;
  34:lvgl/src/extra/layouts/grid/lv_grid.c ****     lv_coord_t * y;
  35:lvgl/src/extra/layouts/grid/lv_grid.c ****     lv_coord_t * w;
  36:lvgl/src/extra/layouts/grid/lv_grid.c ****     lv_coord_t * h;
  37:lvgl/src/extra/layouts/grid/lv_grid.c ****     uint32_t col_num;
  38:lvgl/src/extra/layouts/grid/lv_grid.c ****     uint32_t row_num;
  39:lvgl/src/extra/layouts/grid/lv_grid.c ****     lv_coord_t grid_w;
  40:lvgl/src/extra/layouts/grid/lv_grid.c ****     lv_coord_t grid_h;
  41:lvgl/src/extra/layouts/grid/lv_grid.c **** } _lv_grid_calc_t;
  42:lvgl/src/extra/layouts/grid/lv_grid.c **** 
  43:lvgl/src/extra/layouts/grid/lv_grid.c **** /**********************
  44:lvgl/src/extra/layouts/grid/lv_grid.c ****  *  GLOBAL PROTOTYPES
  45:lvgl/src/extra/layouts/grid/lv_grid.c ****  **********************/
  46:lvgl/src/extra/layouts/grid/lv_grid.c **** 
  47:lvgl/src/extra/layouts/grid/lv_grid.c **** /**********************
  48:lvgl/src/extra/layouts/grid/lv_grid.c ****  *  STATIC PROTOTYPES
  49:lvgl/src/extra/layouts/grid/lv_grid.c ****  **********************/
  50:lvgl/src/extra/layouts/grid/lv_grid.c **** static void grid_update(lv_obj_t * cont, void * user_data);
  51:lvgl/src/extra/layouts/grid/lv_grid.c **** static void calc(lv_obj_t * obj, _lv_grid_calc_t * calc);
  52:lvgl/src/extra/layouts/grid/lv_grid.c **** static void calc_free(_lv_grid_calc_t * calc);
  53:lvgl/src/extra/layouts/grid/lv_grid.c **** static void calc_cols(lv_obj_t * cont, _lv_grid_calc_t * c);
  54:lvgl/src/extra/layouts/grid/lv_grid.c **** static void calc_rows(lv_obj_t * cont, _lv_grid_calc_t * c);
  55:lvgl/src/extra/layouts/grid/lv_grid.c **** static void item_repos(lv_obj_t * item, _lv_grid_calc_t * c, item_repos_hint_t * hint);
  56:lvgl/src/extra/layouts/grid/lv_grid.c **** static lv_coord_t grid_align(lv_coord_t cont_size,  bool auto_size, uint8_t align, lv_coord_t gap, 
  57:lvgl/src/extra/layouts/grid/lv_grid.c ****                              lv_coord_t * size_array, lv_coord_t * pos_array, bool reverse);
  58:lvgl/src/extra/layouts/grid/lv_grid.c **** static uint32_t count_tracks(const lv_coord_t * templ);
  59:lvgl/src/extra/layouts/grid/lv_grid.c **** 
  60:lvgl/src/extra/layouts/grid/lv_grid.c **** static inline const lv_coord_t * get_col_dsc(lv_obj_t * obj)
  61:lvgl/src/extra/layouts/grid/lv_grid.c **** {
  62:lvgl/src/extra/layouts/grid/lv_grid.c ****     return lv_obj_get_style_grid_column_dsc_array(obj, 0);
  63:lvgl/src/extra/layouts/grid/lv_grid.c **** }
  64:lvgl/src/extra/layouts/grid/lv_grid.c **** static inline const lv_coord_t * get_row_dsc(lv_obj_t * obj)
  65:lvgl/src/extra/layouts/grid/lv_grid.c **** {
  66:lvgl/src/extra/layouts/grid/lv_grid.c ****     return lv_obj_get_style_grid_row_dsc_array(obj, 0);
  67:lvgl/src/extra/layouts/grid/lv_grid.c **** }
  68:lvgl/src/extra/layouts/grid/lv_grid.c **** static inline uint8_t get_col_pos(lv_obj_t * obj)
  69:lvgl/src/extra/layouts/grid/lv_grid.c **** {
  70:lvgl/src/extra/layouts/grid/lv_grid.c ****     return lv_obj_get_style_grid_cell_column_pos(obj, 0);
  71:lvgl/src/extra/layouts/grid/lv_grid.c **** }
  72:lvgl/src/extra/layouts/grid/lv_grid.c **** static inline uint8_t get_row_pos(lv_obj_t * obj)
  73:lvgl/src/extra/layouts/grid/lv_grid.c **** {
  74:lvgl/src/extra/layouts/grid/lv_grid.c ****     return lv_obj_get_style_grid_cell_row_pos(obj, 0);
  75:lvgl/src/extra/layouts/grid/lv_grid.c **** }
  76:lvgl/src/extra/layouts/grid/lv_grid.c **** static inline uint8_t get_col_span(lv_obj_t * obj)
  77:lvgl/src/extra/layouts/grid/lv_grid.c **** {
  78:lvgl/src/extra/layouts/grid/lv_grid.c ****     return lv_obj_get_style_grid_cell_column_span(obj, 0);
  79:lvgl/src/extra/layouts/grid/lv_grid.c **** }
  80:lvgl/src/extra/layouts/grid/lv_grid.c **** static inline uint8_t get_row_span(lv_obj_t * obj)
  81:lvgl/src/extra/layouts/grid/lv_grid.c **** {
  82:lvgl/src/extra/layouts/grid/lv_grid.c ****     return lv_obj_get_style_grid_cell_row_span(obj, 0);
  83:lvgl/src/extra/layouts/grid/lv_grid.c **** }
  84:lvgl/src/extra/layouts/grid/lv_grid.c **** static inline uint8_t get_cell_col_align(lv_obj_t * obj)
  85:lvgl/src/extra/layouts/grid/lv_grid.c **** {
  86:lvgl/src/extra/layouts/grid/lv_grid.c ****     return lv_obj_get_style_grid_cell_x_align(obj, 0);
  87:lvgl/src/extra/layouts/grid/lv_grid.c **** }
ARM GAS  /var/folders/21/t9g5rlb91ys800n5npymflf80000gn/T//cce6JCY2.s 			page 3


  88:lvgl/src/extra/layouts/grid/lv_grid.c **** static inline uint8_t get_cell_row_align(lv_obj_t * obj)
  89:lvgl/src/extra/layouts/grid/lv_grid.c **** {
  90:lvgl/src/extra/layouts/grid/lv_grid.c ****     return lv_obj_get_style_grid_cell_y_align(obj, 0);
  91:lvgl/src/extra/layouts/grid/lv_grid.c **** }
  92:lvgl/src/extra/layouts/grid/lv_grid.c **** static inline uint8_t get_grid_col_align(lv_obj_t * obj)
  93:lvgl/src/extra/layouts/grid/lv_grid.c **** {
  94:lvgl/src/extra/layouts/grid/lv_grid.c ****     return lv_obj_get_style_grid_column_align(obj, 0);
  95:lvgl/src/extra/layouts/grid/lv_grid.c **** }
  96:lvgl/src/extra/layouts/grid/lv_grid.c **** static inline uint8_t get_grid_row_align(lv_obj_t * obj)
  97:lvgl/src/extra/layouts/grid/lv_grid.c **** {
  98:lvgl/src/extra/layouts/grid/lv_grid.c ****     return lv_obj_get_style_grid_row_align(obj, 0);
  99:lvgl/src/extra/layouts/grid/lv_grid.c **** }
 100:lvgl/src/extra/layouts/grid/lv_grid.c **** 
 101:lvgl/src/extra/layouts/grid/lv_grid.c **** /**********************
 102:lvgl/src/extra/layouts/grid/lv_grid.c ****  *  GLOBAL VARIABLES
 103:lvgl/src/extra/layouts/grid/lv_grid.c ****  **********************/
 104:lvgl/src/extra/layouts/grid/lv_grid.c **** uint16_t LV_LAYOUT_GRID;
 105:lvgl/src/extra/layouts/grid/lv_grid.c **** lv_style_prop_t LV_STYLE_GRID_COLUMN_DSC_ARRAY;
 106:lvgl/src/extra/layouts/grid/lv_grid.c **** lv_style_prop_t LV_STYLE_GRID_COLUMN_ALIGN;
 107:lvgl/src/extra/layouts/grid/lv_grid.c **** lv_style_prop_t LV_STYLE_GRID_ROW_DSC_ARRAY;
 108:lvgl/src/extra/layouts/grid/lv_grid.c **** lv_style_prop_t LV_STYLE_GRID_ROW_ALIGN;
 109:lvgl/src/extra/layouts/grid/lv_grid.c **** lv_style_prop_t LV_STYLE_GRID_CELL_COLUMN_POS;
 110:lvgl/src/extra/layouts/grid/lv_grid.c **** lv_style_prop_t LV_STYLE_GRID_CELL_COLUMN_SPAN;
 111:lvgl/src/extra/layouts/grid/lv_grid.c **** lv_style_prop_t LV_STYLE_GRID_CELL_X_ALIGN;
 112:lvgl/src/extra/layouts/grid/lv_grid.c **** lv_style_prop_t LV_STYLE_GRID_CELL_ROW_POS;
 113:lvgl/src/extra/layouts/grid/lv_grid.c **** lv_style_prop_t LV_STYLE_GRID_CELL_ROW_SPAN;
 114:lvgl/src/extra/layouts/grid/lv_grid.c **** lv_style_prop_t LV_STYLE_GRID_CELL_Y_ALIGN;
 115:lvgl/src/extra/layouts/grid/lv_grid.c **** 
 116:lvgl/src/extra/layouts/grid/lv_grid.c **** /**********************
 117:lvgl/src/extra/layouts/grid/lv_grid.c ****  *  STATIC VARIABLES
 118:lvgl/src/extra/layouts/grid/lv_grid.c ****  **********************/
 119:lvgl/src/extra/layouts/grid/lv_grid.c **** 
 120:lvgl/src/extra/layouts/grid/lv_grid.c **** /**********************
 121:lvgl/src/extra/layouts/grid/lv_grid.c ****  *      MACROS
 122:lvgl/src/extra/layouts/grid/lv_grid.c ****  **********************/
 123:lvgl/src/extra/layouts/grid/lv_grid.c **** 
 124:lvgl/src/extra/layouts/grid/lv_grid.c **** /**********************
 125:lvgl/src/extra/layouts/grid/lv_grid.c ****  *   GLOBAL FUNCTIONS
 126:lvgl/src/extra/layouts/grid/lv_grid.c ****  **********************/
 127:lvgl/src/extra/layouts/grid/lv_grid.c **** 
 128:lvgl/src/extra/layouts/grid/lv_grid.c **** void lv_grid_init(void)
 129:lvgl/src/extra/layouts/grid/lv_grid.c **** {
 130:lvgl/src/extra/layouts/grid/lv_grid.c ****     LV_LAYOUT_GRID = lv_layout_register(grid_update, NULL);
 131:lvgl/src/extra/layouts/grid/lv_grid.c **** 
 132:lvgl/src/extra/layouts/grid/lv_grid.c ****     LV_STYLE_GRID_COLUMN_DSC_ARRAY = lv_style_register_prop(LV_STYLE_PROP_LAYOUT_REFR);
 133:lvgl/src/extra/layouts/grid/lv_grid.c ****     LV_STYLE_GRID_ROW_DSC_ARRAY = lv_style_register_prop(LV_STYLE_PROP_LAYOUT_REFR);
 134:lvgl/src/extra/layouts/grid/lv_grid.c ****     LV_STYLE_GRID_COLUMN_ALIGN = lv_style_register_prop(LV_STYLE_PROP_LAYOUT_REFR);
 135:lvgl/src/extra/layouts/grid/lv_grid.c ****     LV_STYLE_GRID_ROW_ALIGN = lv_style_register_prop(LV_STYLE_PROP_LAYOUT_REFR);
 136:lvgl/src/extra/layouts/grid/lv_grid.c **** 
 137:lvgl/src/extra/layouts/grid/lv_grid.c ****     LV_STYLE_GRID_CELL_ROW_SPAN = lv_style_register_prop(LV_STYLE_PROP_LAYOUT_REFR);
 138:lvgl/src/extra/layouts/grid/lv_grid.c ****     LV_STYLE_GRID_CELL_ROW_POS = lv_style_register_prop(LV_STYLE_PROP_LAYOUT_REFR);
 139:lvgl/src/extra/layouts/grid/lv_grid.c ****     LV_STYLE_GRID_CELL_COLUMN_SPAN = lv_style_register_prop(LV_STYLE_PROP_LAYOUT_REFR);
 140:lvgl/src/extra/layouts/grid/lv_grid.c ****     LV_STYLE_GRID_CELL_COLUMN_POS = lv_style_register_prop(LV_STYLE_PROP_LAYOUT_REFR);
 141:lvgl/src/extra/layouts/grid/lv_grid.c ****     LV_STYLE_GRID_CELL_X_ALIGN = lv_style_register_prop(LV_STYLE_PROP_LAYOUT_REFR);
 142:lvgl/src/extra/layouts/grid/lv_grid.c ****     LV_STYLE_GRID_CELL_Y_ALIGN = lv_style_register_prop(LV_STYLE_PROP_LAYOUT_REFR);
 143:lvgl/src/extra/layouts/grid/lv_grid.c **** }
 144:lvgl/src/extra/layouts/grid/lv_grid.c **** 
ARM GAS  /var/folders/21/t9g5rlb91ys800n5npymflf80000gn/T//cce6JCY2.s 			page 4


 145:lvgl/src/extra/layouts/grid/lv_grid.c **** void lv_obj_set_grid_dsc_array(lv_obj_t * obj, const lv_coord_t col_dsc[], const lv_coord_t row_dsc
 146:lvgl/src/extra/layouts/grid/lv_grid.c **** {
 147:lvgl/src/extra/layouts/grid/lv_grid.c ****     lv_obj_set_style_grid_column_dsc_array(obj, col_dsc, 0);
 148:lvgl/src/extra/layouts/grid/lv_grid.c ****     lv_obj_set_style_grid_row_dsc_array(obj, row_dsc, 0);
 149:lvgl/src/extra/layouts/grid/lv_grid.c ****     lv_obj_set_style_layout(obj, LV_LAYOUT_GRID, 0);
 150:lvgl/src/extra/layouts/grid/lv_grid.c **** }
 151:lvgl/src/extra/layouts/grid/lv_grid.c **** 
 152:lvgl/src/extra/layouts/grid/lv_grid.c **** void lv_obj_set_grid_align(lv_obj_t * obj, lv_grid_align_t column_align, lv_grid_align_t row_align)
 153:lvgl/src/extra/layouts/grid/lv_grid.c **** {
 154:lvgl/src/extra/layouts/grid/lv_grid.c ****     lv_obj_set_style_grid_column_align(obj, column_align, 0);
 155:lvgl/src/extra/layouts/grid/lv_grid.c ****     lv_obj_set_style_grid_row_align(obj, row_align, 0);
 156:lvgl/src/extra/layouts/grid/lv_grid.c **** 
 157:lvgl/src/extra/layouts/grid/lv_grid.c **** }
 158:lvgl/src/extra/layouts/grid/lv_grid.c **** 
 159:lvgl/src/extra/layouts/grid/lv_grid.c **** void lv_obj_set_grid_cell(lv_obj_t * obj, lv_grid_align_t x_align, uint8_t col_pos, uint8_t col_spa
 160:lvgl/src/extra/layouts/grid/lv_grid.c ****                           lv_grid_align_t y_align, uint8_t row_pos, uint8_t row_span)
 161:lvgl/src/extra/layouts/grid/lv_grid.c **** 
 162:lvgl/src/extra/layouts/grid/lv_grid.c **** {
 163:lvgl/src/extra/layouts/grid/lv_grid.c ****     lv_obj_set_style_grid_cell_column_pos(obj, col_pos, 0);
 164:lvgl/src/extra/layouts/grid/lv_grid.c ****     lv_obj_set_style_grid_cell_row_pos(obj, row_pos, 0);
 165:lvgl/src/extra/layouts/grid/lv_grid.c ****     lv_obj_set_style_grid_cell_x_align(obj, x_align, 0);
 166:lvgl/src/extra/layouts/grid/lv_grid.c ****     lv_obj_set_style_grid_cell_column_span(obj, col_span, 0);
 167:lvgl/src/extra/layouts/grid/lv_grid.c ****     lv_obj_set_style_grid_cell_row_span(obj, row_span, 0);
 168:lvgl/src/extra/layouts/grid/lv_grid.c ****     lv_obj_set_style_grid_cell_y_align(obj, y_align, 0);
 169:lvgl/src/extra/layouts/grid/lv_grid.c **** 
 170:lvgl/src/extra/layouts/grid/lv_grid.c ****     lv_obj_mark_layout_as_dirty(lv_obj_get_parent(obj));
 171:lvgl/src/extra/layouts/grid/lv_grid.c **** }
 172:lvgl/src/extra/layouts/grid/lv_grid.c **** 
 173:lvgl/src/extra/layouts/grid/lv_grid.c **** void lv_style_set_grid_row_dsc_array(lv_style_t * style, const lv_coord_t value[])
 174:lvgl/src/extra/layouts/grid/lv_grid.c **** {
 175:lvgl/src/extra/layouts/grid/lv_grid.c ****     lv_style_value_t v = {
 176:lvgl/src/extra/layouts/grid/lv_grid.c ****         .ptr = (const void *)value
 177:lvgl/src/extra/layouts/grid/lv_grid.c ****     };
 178:lvgl/src/extra/layouts/grid/lv_grid.c ****     lv_style_set_prop(style, LV_STYLE_GRID_ROW_DSC_ARRAY, v);
 179:lvgl/src/extra/layouts/grid/lv_grid.c **** }
 180:lvgl/src/extra/layouts/grid/lv_grid.c **** 
 181:lvgl/src/extra/layouts/grid/lv_grid.c **** void lv_style_set_grid_column_dsc_array(lv_style_t * style, const lv_coord_t value[])
 182:lvgl/src/extra/layouts/grid/lv_grid.c **** {
 183:lvgl/src/extra/layouts/grid/lv_grid.c ****     lv_style_value_t v = {
 184:lvgl/src/extra/layouts/grid/lv_grid.c ****         .ptr = (const void *)value
 185:lvgl/src/extra/layouts/grid/lv_grid.c ****     };
 186:lvgl/src/extra/layouts/grid/lv_grid.c ****     lv_style_set_prop(style, LV_STYLE_GRID_COLUMN_DSC_ARRAY, v);
 187:lvgl/src/extra/layouts/grid/lv_grid.c **** }
 188:lvgl/src/extra/layouts/grid/lv_grid.c **** 
 189:lvgl/src/extra/layouts/grid/lv_grid.c **** void lv_style_set_grid_row_align(lv_style_t * style, lv_grid_align_t value)
 190:lvgl/src/extra/layouts/grid/lv_grid.c **** {
 191:lvgl/src/extra/layouts/grid/lv_grid.c ****     lv_style_value_t v = {
 192:lvgl/src/extra/layouts/grid/lv_grid.c ****         .num = (lv_grid_align_t)value
 193:lvgl/src/extra/layouts/grid/lv_grid.c ****     };
 194:lvgl/src/extra/layouts/grid/lv_grid.c ****     lv_style_set_prop(style, LV_STYLE_GRID_ROW_ALIGN, v);
 195:lvgl/src/extra/layouts/grid/lv_grid.c **** }
 196:lvgl/src/extra/layouts/grid/lv_grid.c **** 
 197:lvgl/src/extra/layouts/grid/lv_grid.c **** void lv_style_set_grid_column_align(lv_style_t * style, lv_grid_align_t value)
 198:lvgl/src/extra/layouts/grid/lv_grid.c **** {
 199:lvgl/src/extra/layouts/grid/lv_grid.c ****     lv_style_value_t v = {
 200:lvgl/src/extra/layouts/grid/lv_grid.c ****         .num = (lv_grid_align_t)value
 201:lvgl/src/extra/layouts/grid/lv_grid.c ****     };
ARM GAS  /var/folders/21/t9g5rlb91ys800n5npymflf80000gn/T//cce6JCY2.s 			page 5


 202:lvgl/src/extra/layouts/grid/lv_grid.c ****     lv_style_set_prop(style, LV_STYLE_GRID_COLUMN_ALIGN, v);
 203:lvgl/src/extra/layouts/grid/lv_grid.c **** }
 204:lvgl/src/extra/layouts/grid/lv_grid.c **** 
 205:lvgl/src/extra/layouts/grid/lv_grid.c **** void lv_style_set_grid_cell_column_pos(lv_style_t * style, lv_coord_t value)
 206:lvgl/src/extra/layouts/grid/lv_grid.c **** {
 207:lvgl/src/extra/layouts/grid/lv_grid.c ****     lv_style_value_t v = {
 208:lvgl/src/extra/layouts/grid/lv_grid.c ****         .num = value
 209:lvgl/src/extra/layouts/grid/lv_grid.c ****     };
 210:lvgl/src/extra/layouts/grid/lv_grid.c ****     lv_style_set_prop(style, LV_STYLE_GRID_CELL_COLUMN_POS, v);
 211:lvgl/src/extra/layouts/grid/lv_grid.c **** }
 212:lvgl/src/extra/layouts/grid/lv_grid.c **** 
 213:lvgl/src/extra/layouts/grid/lv_grid.c **** void lv_style_set_grid_cell_column_span(lv_style_t * style, lv_coord_t value)
 214:lvgl/src/extra/layouts/grid/lv_grid.c **** {
 215:lvgl/src/extra/layouts/grid/lv_grid.c ****     lv_style_value_t v = {
 216:lvgl/src/extra/layouts/grid/lv_grid.c ****         .num = value
 217:lvgl/src/extra/layouts/grid/lv_grid.c ****     };
 218:lvgl/src/extra/layouts/grid/lv_grid.c ****     lv_style_set_prop(style, LV_STYLE_GRID_CELL_COLUMN_SPAN, v);
 219:lvgl/src/extra/layouts/grid/lv_grid.c **** }
 220:lvgl/src/extra/layouts/grid/lv_grid.c **** 
 221:lvgl/src/extra/layouts/grid/lv_grid.c **** void lv_style_set_grid_cell_row_pos(lv_style_t * style, lv_coord_t value)
 222:lvgl/src/extra/layouts/grid/lv_grid.c **** {
 223:lvgl/src/extra/layouts/grid/lv_grid.c ****     lv_style_value_t v = {
 224:lvgl/src/extra/layouts/grid/lv_grid.c ****         .num = value
 225:lvgl/src/extra/layouts/grid/lv_grid.c ****     };
 226:lvgl/src/extra/layouts/grid/lv_grid.c ****     lv_style_set_prop(style, LV_STYLE_GRID_CELL_ROW_POS, v);
 227:lvgl/src/extra/layouts/grid/lv_grid.c **** }
 228:lvgl/src/extra/layouts/grid/lv_grid.c **** 
 229:lvgl/src/extra/layouts/grid/lv_grid.c **** void lv_style_set_grid_cell_row_span(lv_style_t * style, lv_coord_t value)
 230:lvgl/src/extra/layouts/grid/lv_grid.c **** {
 231:lvgl/src/extra/layouts/grid/lv_grid.c ****     lv_style_value_t v = {
 232:lvgl/src/extra/layouts/grid/lv_grid.c ****         .num = value
 233:lvgl/src/extra/layouts/grid/lv_grid.c ****     };
 234:lvgl/src/extra/layouts/grid/lv_grid.c ****     lv_style_set_prop(style, LV_STYLE_GRID_CELL_ROW_SPAN, v);
 235:lvgl/src/extra/layouts/grid/lv_grid.c **** }
 236:lvgl/src/extra/layouts/grid/lv_grid.c **** 
 237:lvgl/src/extra/layouts/grid/lv_grid.c **** void lv_style_set_grid_cell_x_align(lv_style_t * style, lv_coord_t value)
 238:lvgl/src/extra/layouts/grid/lv_grid.c **** {
 239:lvgl/src/extra/layouts/grid/lv_grid.c ****     lv_style_value_t v = {
 240:lvgl/src/extra/layouts/grid/lv_grid.c ****         .num = value
 241:lvgl/src/extra/layouts/grid/lv_grid.c ****     };
 242:lvgl/src/extra/layouts/grid/lv_grid.c ****     lv_style_set_prop(style, LV_STYLE_GRID_CELL_X_ALIGN, v);
 243:lvgl/src/extra/layouts/grid/lv_grid.c **** }
 244:lvgl/src/extra/layouts/grid/lv_grid.c **** 
 245:lvgl/src/extra/layouts/grid/lv_grid.c **** void lv_style_set_grid_cell_y_align(lv_style_t * style, lv_coord_t value)
 246:lvgl/src/extra/layouts/grid/lv_grid.c **** {
 247:lvgl/src/extra/layouts/grid/lv_grid.c ****     lv_style_value_t v = {
 248:lvgl/src/extra/layouts/grid/lv_grid.c ****         .num = value
 249:lvgl/src/extra/layouts/grid/lv_grid.c ****     };
 250:lvgl/src/extra/layouts/grid/lv_grid.c ****     lv_style_set_prop(style, LV_STYLE_GRID_CELL_Y_ALIGN, v);
 251:lvgl/src/extra/layouts/grid/lv_grid.c **** }
 252:lvgl/src/extra/layouts/grid/lv_grid.c **** 
 253:lvgl/src/extra/layouts/grid/lv_grid.c **** void lv_obj_set_style_grid_row_dsc_array(lv_obj_t * obj, const lv_coord_t value[], lv_style_selecto
 254:lvgl/src/extra/layouts/grid/lv_grid.c **** {
 255:lvgl/src/extra/layouts/grid/lv_grid.c ****     lv_style_value_t v = {
 256:lvgl/src/extra/layouts/grid/lv_grid.c ****         .ptr = (const void *)value
 257:lvgl/src/extra/layouts/grid/lv_grid.c ****     };
 258:lvgl/src/extra/layouts/grid/lv_grid.c ****     lv_obj_set_local_style_prop(obj, LV_STYLE_GRID_ROW_DSC_ARRAY, v, selector);
ARM GAS  /var/folders/21/t9g5rlb91ys800n5npymflf80000gn/T//cce6JCY2.s 			page 6


 259:lvgl/src/extra/layouts/grid/lv_grid.c **** }
 260:lvgl/src/extra/layouts/grid/lv_grid.c **** 
 261:lvgl/src/extra/layouts/grid/lv_grid.c **** void lv_obj_set_style_grid_column_dsc_array(lv_obj_t * obj, const lv_coord_t value[], lv_style_sele
 262:lvgl/src/extra/layouts/grid/lv_grid.c **** {
 263:lvgl/src/extra/layouts/grid/lv_grid.c ****     lv_style_value_t v = {
 264:lvgl/src/extra/layouts/grid/lv_grid.c ****         .ptr = (const void *)value
 265:lvgl/src/extra/layouts/grid/lv_grid.c ****     };
 266:lvgl/src/extra/layouts/grid/lv_grid.c ****     lv_obj_set_local_style_prop(obj, LV_STYLE_GRID_COLUMN_DSC_ARRAY, v, selector);
 267:lvgl/src/extra/layouts/grid/lv_grid.c **** }
 268:lvgl/src/extra/layouts/grid/lv_grid.c **** 
 269:lvgl/src/extra/layouts/grid/lv_grid.c **** void lv_obj_set_style_grid_row_align(lv_obj_t * obj, lv_grid_align_t value, lv_style_selector_t sel
 270:lvgl/src/extra/layouts/grid/lv_grid.c **** {
 271:lvgl/src/extra/layouts/grid/lv_grid.c ****     lv_style_value_t v = {
 272:lvgl/src/extra/layouts/grid/lv_grid.c ****         .num = (int32_t) value
 273:lvgl/src/extra/layouts/grid/lv_grid.c ****     };
 274:lvgl/src/extra/layouts/grid/lv_grid.c ****     lv_obj_set_local_style_prop(obj, LV_STYLE_GRID_ROW_ALIGN, v, selector);
 275:lvgl/src/extra/layouts/grid/lv_grid.c **** }
 276:lvgl/src/extra/layouts/grid/lv_grid.c **** 
 277:lvgl/src/extra/layouts/grid/lv_grid.c **** void lv_obj_set_style_grid_column_align(lv_obj_t * obj, lv_grid_align_t value, lv_style_selector_t 
 278:lvgl/src/extra/layouts/grid/lv_grid.c **** {
 279:lvgl/src/extra/layouts/grid/lv_grid.c ****     lv_style_value_t v = {
 280:lvgl/src/extra/layouts/grid/lv_grid.c ****         .num = (int32_t) value
 281:lvgl/src/extra/layouts/grid/lv_grid.c ****     };
 282:lvgl/src/extra/layouts/grid/lv_grid.c ****     lv_obj_set_local_style_prop(obj, LV_STYLE_GRID_COLUMN_ALIGN, v, selector);
 283:lvgl/src/extra/layouts/grid/lv_grid.c **** }
 284:lvgl/src/extra/layouts/grid/lv_grid.c **** 
 285:lvgl/src/extra/layouts/grid/lv_grid.c **** void lv_obj_set_style_grid_cell_column_pos(lv_obj_t * obj, lv_coord_t value, lv_style_selector_t se
 286:lvgl/src/extra/layouts/grid/lv_grid.c **** {
 287:lvgl/src/extra/layouts/grid/lv_grid.c ****     lv_style_value_t v = {
 288:lvgl/src/extra/layouts/grid/lv_grid.c ****         .num = value
 289:lvgl/src/extra/layouts/grid/lv_grid.c ****     };
 290:lvgl/src/extra/layouts/grid/lv_grid.c ****     lv_obj_set_local_style_prop(obj, LV_STYLE_GRID_CELL_COLUMN_POS, v, selector);
 291:lvgl/src/extra/layouts/grid/lv_grid.c **** }
 292:lvgl/src/extra/layouts/grid/lv_grid.c **** 
 293:lvgl/src/extra/layouts/grid/lv_grid.c **** void lv_obj_set_style_grid_cell_column_span(lv_obj_t * obj, lv_coord_t value, lv_style_selector_t s
 294:lvgl/src/extra/layouts/grid/lv_grid.c **** {
 295:lvgl/src/extra/layouts/grid/lv_grid.c ****     lv_style_value_t v = {
 296:lvgl/src/extra/layouts/grid/lv_grid.c ****         .num = value
 297:lvgl/src/extra/layouts/grid/lv_grid.c ****     };
 298:lvgl/src/extra/layouts/grid/lv_grid.c ****     lv_obj_set_local_style_prop(obj, LV_STYLE_GRID_CELL_COLUMN_SPAN, v, selector);
 299:lvgl/src/extra/layouts/grid/lv_grid.c **** }
 300:lvgl/src/extra/layouts/grid/lv_grid.c **** 
 301:lvgl/src/extra/layouts/grid/lv_grid.c **** void lv_obj_set_style_grid_cell_row_pos(lv_obj_t * obj, lv_coord_t value, lv_style_selector_t selec
 302:lvgl/src/extra/layouts/grid/lv_grid.c **** {
 303:lvgl/src/extra/layouts/grid/lv_grid.c ****     lv_style_value_t v = {
 304:lvgl/src/extra/layouts/grid/lv_grid.c ****         .num = value
 305:lvgl/src/extra/layouts/grid/lv_grid.c ****     };
 306:lvgl/src/extra/layouts/grid/lv_grid.c ****     lv_obj_set_local_style_prop(obj, LV_STYLE_GRID_CELL_ROW_POS, v, selector);
 307:lvgl/src/extra/layouts/grid/lv_grid.c **** }
 308:lvgl/src/extra/layouts/grid/lv_grid.c **** 
 309:lvgl/src/extra/layouts/grid/lv_grid.c **** void lv_obj_set_style_grid_cell_row_span(lv_obj_t * obj, lv_coord_t value, lv_style_selector_t sele
 310:lvgl/src/extra/layouts/grid/lv_grid.c **** {
 311:lvgl/src/extra/layouts/grid/lv_grid.c ****     lv_style_value_t v = {
 312:lvgl/src/extra/layouts/grid/lv_grid.c ****         .num = value
 313:lvgl/src/extra/layouts/grid/lv_grid.c ****     };
 314:lvgl/src/extra/layouts/grid/lv_grid.c ****     lv_obj_set_local_style_prop(obj, LV_STYLE_GRID_CELL_ROW_SPAN, v, selector);
 315:lvgl/src/extra/layouts/grid/lv_grid.c **** }
ARM GAS  /var/folders/21/t9g5rlb91ys800n5npymflf80000gn/T//cce6JCY2.s 			page 7


 316:lvgl/src/extra/layouts/grid/lv_grid.c **** 
 317:lvgl/src/extra/layouts/grid/lv_grid.c **** void lv_obj_set_style_grid_cell_x_align(lv_obj_t * obj, lv_coord_t value, lv_style_selector_t selec
 318:lvgl/src/extra/layouts/grid/lv_grid.c **** {
 319:lvgl/src/extra/layouts/grid/lv_grid.c ****     lv_style_value_t v = {
 320:lvgl/src/extra/layouts/grid/lv_grid.c ****         .num = value
 321:lvgl/src/extra/layouts/grid/lv_grid.c ****     };
 322:lvgl/src/extra/layouts/grid/lv_grid.c ****     lv_obj_set_local_style_prop(obj, LV_STYLE_GRID_CELL_X_ALIGN, v, selector);
 323:lvgl/src/extra/layouts/grid/lv_grid.c **** }
 324:lvgl/src/extra/layouts/grid/lv_grid.c **** 
 325:lvgl/src/extra/layouts/grid/lv_grid.c **** void lv_obj_set_style_grid_cell_y_align(lv_obj_t * obj, lv_coord_t value, lv_style_selector_t selec
 326:lvgl/src/extra/layouts/grid/lv_grid.c **** {
 327:lvgl/src/extra/layouts/grid/lv_grid.c ****     lv_style_value_t v = {
 328:lvgl/src/extra/layouts/grid/lv_grid.c ****         .num = value
 329:lvgl/src/extra/layouts/grid/lv_grid.c ****     };
 330:lvgl/src/extra/layouts/grid/lv_grid.c ****     lv_obj_set_local_style_prop(obj, LV_STYLE_GRID_CELL_Y_ALIGN, v, selector);
 331:lvgl/src/extra/layouts/grid/lv_grid.c **** }
 332:lvgl/src/extra/layouts/grid/lv_grid.c **** 
 333:lvgl/src/extra/layouts/grid/lv_grid.c **** /**********************
 334:lvgl/src/extra/layouts/grid/lv_grid.c ****  *   STATIC FUNCTIONS
 335:lvgl/src/extra/layouts/grid/lv_grid.c ****  **********************/
 336:lvgl/src/extra/layouts/grid/lv_grid.c **** 
 337:lvgl/src/extra/layouts/grid/lv_grid.c **** static void grid_update(lv_obj_t * cont, void * user_data)
 338:lvgl/src/extra/layouts/grid/lv_grid.c **** {
 339:lvgl/src/extra/layouts/grid/lv_grid.c ****     LV_LOG_INFO("update %p container", (void *)cont);
 340:lvgl/src/extra/layouts/grid/lv_grid.c ****     LV_UNUSED(user_data);
 341:lvgl/src/extra/layouts/grid/lv_grid.c **** 
 342:lvgl/src/extra/layouts/grid/lv_grid.c ****     const lv_coord_t * col_templ = get_col_dsc(cont);
 343:lvgl/src/extra/layouts/grid/lv_grid.c ****     const lv_coord_t * row_templ = get_row_dsc(cont);
 344:lvgl/src/extra/layouts/grid/lv_grid.c ****     if(col_templ == NULL || row_templ == NULL) return;
 345:lvgl/src/extra/layouts/grid/lv_grid.c **** 
 346:lvgl/src/extra/layouts/grid/lv_grid.c ****     _lv_grid_calc_t c;
 347:lvgl/src/extra/layouts/grid/lv_grid.c ****     calc(cont, &c);
 348:lvgl/src/extra/layouts/grid/lv_grid.c **** 
 349:lvgl/src/extra/layouts/grid/lv_grid.c ****     item_repos_hint_t hint;
 350:lvgl/src/extra/layouts/grid/lv_grid.c ****     lv_memset_00(&hint, sizeof(hint));
 351:lvgl/src/extra/layouts/grid/lv_grid.c **** 
 352:lvgl/src/extra/layouts/grid/lv_grid.c ****     /*Calculate the grids absolute x and y coordinates.
 353:lvgl/src/extra/layouts/grid/lv_grid.c ****      *It will be used as helper during item repositioning to avoid calculating this value for every
 354:lvgl/src/extra/layouts/grid/lv_grid.c ****     lv_coord_t border_widt = lv_obj_get_style_border_width(cont, LV_PART_MAIN);
 355:lvgl/src/extra/layouts/grid/lv_grid.c ****     lv_coord_t pad_left = lv_obj_get_style_pad_left(cont, LV_PART_MAIN) + border_widt;
 356:lvgl/src/extra/layouts/grid/lv_grid.c ****     lv_coord_t pad_top = lv_obj_get_style_pad_top(cont, LV_PART_MAIN) + border_widt;
 357:lvgl/src/extra/layouts/grid/lv_grid.c ****     hint.grid_abs.x = pad_left + cont->coords.x1 - lv_obj_get_scroll_x(cont);
 358:lvgl/src/extra/layouts/grid/lv_grid.c ****     hint.grid_abs.y = pad_top + cont->coords.y1 - lv_obj_get_scroll_y(cont);
 359:lvgl/src/extra/layouts/grid/lv_grid.c **** 
 360:lvgl/src/extra/layouts/grid/lv_grid.c ****     uint32_t i;
 361:lvgl/src/extra/layouts/grid/lv_grid.c ****     for(i = 0; i < cont->spec_attr->child_cnt; i++) {
 362:lvgl/src/extra/layouts/grid/lv_grid.c ****         lv_obj_t * item = cont->spec_attr->children[i];
 363:lvgl/src/extra/layouts/grid/lv_grid.c ****         item_repos(item, &c, &hint);
 364:lvgl/src/extra/layouts/grid/lv_grid.c ****     }
 365:lvgl/src/extra/layouts/grid/lv_grid.c ****     calc_free(&c);
 366:lvgl/src/extra/layouts/grid/lv_grid.c **** 
 367:lvgl/src/extra/layouts/grid/lv_grid.c ****     lv_coord_t w_set = lv_obj_get_style_width(cont, LV_PART_MAIN);
 368:lvgl/src/extra/layouts/grid/lv_grid.c ****     lv_coord_t h_set = lv_obj_get_style_height(cont, LV_PART_MAIN);
 369:lvgl/src/extra/layouts/grid/lv_grid.c ****     if(w_set == LV_SIZE_CONTENT || h_set == LV_SIZE_CONTENT) {
 370:lvgl/src/extra/layouts/grid/lv_grid.c ****         lv_obj_refr_size(cont);
 371:lvgl/src/extra/layouts/grid/lv_grid.c ****     }
 372:lvgl/src/extra/layouts/grid/lv_grid.c **** 
ARM GAS  /var/folders/21/t9g5rlb91ys800n5npymflf80000gn/T//cce6JCY2.s 			page 8


 373:lvgl/src/extra/layouts/grid/lv_grid.c ****     lv_event_send(cont, LV_EVENT_LAYOUT_CHANGED, NULL);
 374:lvgl/src/extra/layouts/grid/lv_grid.c **** 
 375:lvgl/src/extra/layouts/grid/lv_grid.c ****     LV_TRACE_LAYOUT("finished");
 376:lvgl/src/extra/layouts/grid/lv_grid.c **** }
 377:lvgl/src/extra/layouts/grid/lv_grid.c **** 
 378:lvgl/src/extra/layouts/grid/lv_grid.c **** /**
 379:lvgl/src/extra/layouts/grid/lv_grid.c ****  * Calculate the grid cells coordinates
 380:lvgl/src/extra/layouts/grid/lv_grid.c ****  * @param cont an object that has a grid
 381:lvgl/src/extra/layouts/grid/lv_grid.c ****  * @param calc store the calculated cells sizes here
 382:lvgl/src/extra/layouts/grid/lv_grid.c ****  * @note `_lv_grid_calc_free(calc_out)` needs to be called when `calc_out` is not needed anymore
 383:lvgl/src/extra/layouts/grid/lv_grid.c ****  */
 384:lvgl/src/extra/layouts/grid/lv_grid.c **** static void calc(lv_obj_t * cont, _lv_grid_calc_t * calc_out)
 385:lvgl/src/extra/layouts/grid/lv_grid.c **** {
 386:lvgl/src/extra/layouts/grid/lv_grid.c ****     if(lv_obj_get_child(cont, 0) == NULL) {
 387:lvgl/src/extra/layouts/grid/lv_grid.c ****         lv_memset_00(calc_out, sizeof(_lv_grid_calc_t));
 388:lvgl/src/extra/layouts/grid/lv_grid.c ****         return;
 389:lvgl/src/extra/layouts/grid/lv_grid.c ****     }
 390:lvgl/src/extra/layouts/grid/lv_grid.c **** 
 391:lvgl/src/extra/layouts/grid/lv_grid.c ****     calc_rows(cont, calc_out);
 392:lvgl/src/extra/layouts/grid/lv_grid.c ****     calc_cols(cont, calc_out);
 393:lvgl/src/extra/layouts/grid/lv_grid.c **** 
 394:lvgl/src/extra/layouts/grid/lv_grid.c ****     lv_coord_t col_gap = lv_obj_get_style_pad_column(cont, LV_PART_MAIN);
 395:lvgl/src/extra/layouts/grid/lv_grid.c ****     lv_coord_t row_gap = lv_obj_get_style_pad_row(cont, LV_PART_MAIN);
 396:lvgl/src/extra/layouts/grid/lv_grid.c **** 
 397:lvgl/src/extra/layouts/grid/lv_grid.c ****     bool rev = lv_obj_get_style_base_dir(cont, LV_PART_MAIN) == LV_BASE_DIR_RTL ? true : false;
 398:lvgl/src/extra/layouts/grid/lv_grid.c **** 
 399:lvgl/src/extra/layouts/grid/lv_grid.c ****     lv_coord_t w_set = lv_obj_get_style_width(cont, LV_PART_MAIN);
 400:lvgl/src/extra/layouts/grid/lv_grid.c ****     lv_coord_t h_set = lv_obj_get_style_height(cont, LV_PART_MAIN);
 401:lvgl/src/extra/layouts/grid/lv_grid.c ****     bool auto_w = (w_set == LV_SIZE_CONTENT && !cont->w_layout) ? true : false;
 402:lvgl/src/extra/layouts/grid/lv_grid.c ****     lv_coord_t cont_w = lv_obj_get_content_width(cont);
 403:lvgl/src/extra/layouts/grid/lv_grid.c ****     calc_out->grid_w = grid_align(cont_w, auto_w, get_grid_col_align(cont), col_gap, calc_out->col_
 404:lvgl/src/extra/layouts/grid/lv_grid.c ****                                   calc_out->x, rev);
 405:lvgl/src/extra/layouts/grid/lv_grid.c **** 
 406:lvgl/src/extra/layouts/grid/lv_grid.c ****     bool auto_h = (h_set == LV_SIZE_CONTENT && !cont->h_layout) ? true : false;
 407:lvgl/src/extra/layouts/grid/lv_grid.c ****     lv_coord_t cont_h = lv_obj_get_content_height(cont);
 408:lvgl/src/extra/layouts/grid/lv_grid.c ****     calc_out->grid_h = grid_align(cont_h, auto_h, get_grid_row_align(cont), row_gap, calc_out->row_
 409:lvgl/src/extra/layouts/grid/lv_grid.c ****                                   calc_out->y, false);
 410:lvgl/src/extra/layouts/grid/lv_grid.c **** 
 411:lvgl/src/extra/layouts/grid/lv_grid.c ****     LV_ASSERT_MEM_INTEGRITY();
 412:lvgl/src/extra/layouts/grid/lv_grid.c **** }
 413:lvgl/src/extra/layouts/grid/lv_grid.c **** 
 414:lvgl/src/extra/layouts/grid/lv_grid.c **** /**
 415:lvgl/src/extra/layouts/grid/lv_grid.c ****  * Free the a grid calculation's data
 416:lvgl/src/extra/layouts/grid/lv_grid.c ****  * @param calc pointer to the calculated grid cell coordinates
 417:lvgl/src/extra/layouts/grid/lv_grid.c ****  */
 418:lvgl/src/extra/layouts/grid/lv_grid.c **** static void calc_free(_lv_grid_calc_t * calc)
 419:lvgl/src/extra/layouts/grid/lv_grid.c **** {
 420:lvgl/src/extra/layouts/grid/lv_grid.c ****     lv_mem_buf_release(calc->x);
 421:lvgl/src/extra/layouts/grid/lv_grid.c ****     lv_mem_buf_release(calc->y);
 422:lvgl/src/extra/layouts/grid/lv_grid.c ****     lv_mem_buf_release(calc->w);
 423:lvgl/src/extra/layouts/grid/lv_grid.c ****     lv_mem_buf_release(calc->h);
 424:lvgl/src/extra/layouts/grid/lv_grid.c **** }
 425:lvgl/src/extra/layouts/grid/lv_grid.c **** 
 426:lvgl/src/extra/layouts/grid/lv_grid.c **** static void calc_cols(lv_obj_t * cont, _lv_grid_calc_t * c)
 427:lvgl/src/extra/layouts/grid/lv_grid.c **** {
 428:lvgl/src/extra/layouts/grid/lv_grid.c ****     const lv_coord_t * col_templ = get_col_dsc(cont);
 429:lvgl/src/extra/layouts/grid/lv_grid.c ****     lv_coord_t cont_w = lv_obj_get_content_width(cont);
ARM GAS  /var/folders/21/t9g5rlb91ys800n5npymflf80000gn/T//cce6JCY2.s 			page 9


 430:lvgl/src/extra/layouts/grid/lv_grid.c **** 
 431:lvgl/src/extra/layouts/grid/lv_grid.c ****     c->col_num = count_tracks(col_templ);
 432:lvgl/src/extra/layouts/grid/lv_grid.c ****     c->x = lv_mem_buf_get(sizeof(lv_coord_t) * c->col_num);
 433:lvgl/src/extra/layouts/grid/lv_grid.c ****     c->w = lv_mem_buf_get(sizeof(lv_coord_t) * c->col_num);
 434:lvgl/src/extra/layouts/grid/lv_grid.c **** 
 435:lvgl/src/extra/layouts/grid/lv_grid.c ****     /*Set sizes for CONTENT cells*/
 436:lvgl/src/extra/layouts/grid/lv_grid.c ****     uint32_t i;
 437:lvgl/src/extra/layouts/grid/lv_grid.c ****     for(i = 0; i < c->col_num; i++) {
 438:lvgl/src/extra/layouts/grid/lv_grid.c ****         lv_coord_t size = LV_COORD_MIN;
 439:lvgl/src/extra/layouts/grid/lv_grid.c ****         if(IS_CONTENT(col_templ[i])) {
 440:lvgl/src/extra/layouts/grid/lv_grid.c ****             /*Check the size of children of this cell*/
 441:lvgl/src/extra/layouts/grid/lv_grid.c ****             uint32_t ci;
 442:lvgl/src/extra/layouts/grid/lv_grid.c ****             for(ci = 0; ci < lv_obj_get_child_cnt(cont); ci++) {
 443:lvgl/src/extra/layouts/grid/lv_grid.c ****                 lv_obj_t * item = lv_obj_get_child(cont, ci);
 444:lvgl/src/extra/layouts/grid/lv_grid.c ****                 if(lv_obj_has_flag_any(item, LV_OBJ_FLAG_IGNORE_LAYOUT | LV_OBJ_FLAG_HIDDEN | LV_OB
 445:lvgl/src/extra/layouts/grid/lv_grid.c ****                 uint32_t col_span = get_col_span(item);
 446:lvgl/src/extra/layouts/grid/lv_grid.c ****                 if(col_span != 1) continue;
 447:lvgl/src/extra/layouts/grid/lv_grid.c **** 
 448:lvgl/src/extra/layouts/grid/lv_grid.c ****                 uint32_t col_pos = get_col_pos(item);
 449:lvgl/src/extra/layouts/grid/lv_grid.c ****                 if(col_pos != i) continue;
 450:lvgl/src/extra/layouts/grid/lv_grid.c **** 
 451:lvgl/src/extra/layouts/grid/lv_grid.c ****                 size = LV_MAX(size, lv_obj_get_width(item));
 452:lvgl/src/extra/layouts/grid/lv_grid.c ****             }
 453:lvgl/src/extra/layouts/grid/lv_grid.c ****             if(size >= 0) c->w[i] = size;
 454:lvgl/src/extra/layouts/grid/lv_grid.c ****             else c->w[i] = 0;
 455:lvgl/src/extra/layouts/grid/lv_grid.c ****         }
 456:lvgl/src/extra/layouts/grid/lv_grid.c ****     }
 457:lvgl/src/extra/layouts/grid/lv_grid.c **** 
 458:lvgl/src/extra/layouts/grid/lv_grid.c ****     uint32_t col_fr_cnt = 0;
 459:lvgl/src/extra/layouts/grid/lv_grid.c ****     lv_coord_t grid_w = 0;
 460:lvgl/src/extra/layouts/grid/lv_grid.c **** 
 461:lvgl/src/extra/layouts/grid/lv_grid.c ****     for(i = 0; i < c->col_num; i++) {
 462:lvgl/src/extra/layouts/grid/lv_grid.c ****         lv_coord_t x = col_templ[i];
 463:lvgl/src/extra/layouts/grid/lv_grid.c ****         if(IS_FR(x)) {
 464:lvgl/src/extra/layouts/grid/lv_grid.c ****             col_fr_cnt += GET_FR(x);
 465:lvgl/src/extra/layouts/grid/lv_grid.c ****         }
 466:lvgl/src/extra/layouts/grid/lv_grid.c ****         else if(IS_CONTENT(x)) {
 467:lvgl/src/extra/layouts/grid/lv_grid.c ****             grid_w += c->w[i];
 468:lvgl/src/extra/layouts/grid/lv_grid.c ****         }
 469:lvgl/src/extra/layouts/grid/lv_grid.c ****         else {
 470:lvgl/src/extra/layouts/grid/lv_grid.c ****             c->w[i] = x;
 471:lvgl/src/extra/layouts/grid/lv_grid.c ****             grid_w += x;
 472:lvgl/src/extra/layouts/grid/lv_grid.c ****         }
 473:lvgl/src/extra/layouts/grid/lv_grid.c ****     }
 474:lvgl/src/extra/layouts/grid/lv_grid.c **** 
 475:lvgl/src/extra/layouts/grid/lv_grid.c ****     lv_coord_t col_gap = lv_obj_get_style_pad_column(cont, LV_PART_MAIN);
 476:lvgl/src/extra/layouts/grid/lv_grid.c ****     cont_w -= col_gap * (c->col_num - 1);
 477:lvgl/src/extra/layouts/grid/lv_grid.c ****     lv_coord_t free_w = cont_w - grid_w;
 478:lvgl/src/extra/layouts/grid/lv_grid.c ****     if(free_w < 0) free_w = 0;
 479:lvgl/src/extra/layouts/grid/lv_grid.c **** 
 480:lvgl/src/extra/layouts/grid/lv_grid.c ****     int32_t last_fr_i = -1;
 481:lvgl/src/extra/layouts/grid/lv_grid.c ****     int32_t last_fr_x = 0;
 482:lvgl/src/extra/layouts/grid/lv_grid.c ****     for(i = 0; i < c->col_num; i++) {
 483:lvgl/src/extra/layouts/grid/lv_grid.c ****         lv_coord_t x = col_templ[i];
 484:lvgl/src/extra/layouts/grid/lv_grid.c ****         if(IS_FR(x)) {
 485:lvgl/src/extra/layouts/grid/lv_grid.c ****             lv_coord_t f = GET_FR(x);
 486:lvgl/src/extra/layouts/grid/lv_grid.c ****             c->w[i] = (free_w * f) / col_fr_cnt;
ARM GAS  /var/folders/21/t9g5rlb91ys800n5npymflf80000gn/T//cce6JCY2.s 			page 10


 487:lvgl/src/extra/layouts/grid/lv_grid.c ****             last_fr_i = i;
 488:lvgl/src/extra/layouts/grid/lv_grid.c ****             last_fr_x = f;
 489:lvgl/src/extra/layouts/grid/lv_grid.c ****         }
 490:lvgl/src/extra/layouts/grid/lv_grid.c ****     }
 491:lvgl/src/extra/layouts/grid/lv_grid.c **** 
 492:lvgl/src/extra/layouts/grid/lv_grid.c ****     /*To avoid rounding errors set the last FR track to the remaining size */
 493:lvgl/src/extra/layouts/grid/lv_grid.c ****     if(last_fr_i >= 0) {
 494:lvgl/src/extra/layouts/grid/lv_grid.c ****         c->w[last_fr_i] = free_w - ((free_w * (col_fr_cnt - last_fr_x)) / col_fr_cnt);
 495:lvgl/src/extra/layouts/grid/lv_grid.c ****     }
 496:lvgl/src/extra/layouts/grid/lv_grid.c **** }
 497:lvgl/src/extra/layouts/grid/lv_grid.c **** 
 498:lvgl/src/extra/layouts/grid/lv_grid.c **** static void calc_rows(lv_obj_t * cont, _lv_grid_calc_t * c)
 499:lvgl/src/extra/layouts/grid/lv_grid.c **** {
 500:lvgl/src/extra/layouts/grid/lv_grid.c ****     uint32_t i;
 501:lvgl/src/extra/layouts/grid/lv_grid.c ****     const lv_coord_t * row_templ = get_row_dsc(cont);
 502:lvgl/src/extra/layouts/grid/lv_grid.c ****     c->row_num = count_tracks(row_templ);
 503:lvgl/src/extra/layouts/grid/lv_grid.c ****     c->y = lv_mem_buf_get(sizeof(lv_coord_t) * c->row_num);
 504:lvgl/src/extra/layouts/grid/lv_grid.c ****     c->h = lv_mem_buf_get(sizeof(lv_coord_t) * c->row_num);
 505:lvgl/src/extra/layouts/grid/lv_grid.c ****     /*Set sizes for CONTENT cells*/
 506:lvgl/src/extra/layouts/grid/lv_grid.c ****     for(i = 0; i < c->row_num; i++) {
 507:lvgl/src/extra/layouts/grid/lv_grid.c ****         lv_coord_t size = LV_COORD_MIN;
 508:lvgl/src/extra/layouts/grid/lv_grid.c ****         if(IS_CONTENT(row_templ[i])) {
 509:lvgl/src/extra/layouts/grid/lv_grid.c ****             /*Check the size of children of this cell*/
 510:lvgl/src/extra/layouts/grid/lv_grid.c ****             uint32_t ci;
 511:lvgl/src/extra/layouts/grid/lv_grid.c ****             for(ci = 0; ci < lv_obj_get_child_cnt(cont); ci++) {
 512:lvgl/src/extra/layouts/grid/lv_grid.c ****                 lv_obj_t * item = lv_obj_get_child(cont, ci);
 513:lvgl/src/extra/layouts/grid/lv_grid.c ****                 if(lv_obj_has_flag_any(item, LV_OBJ_FLAG_IGNORE_LAYOUT | LV_OBJ_FLAG_HIDDEN | LV_OB
 514:lvgl/src/extra/layouts/grid/lv_grid.c ****                 uint32_t row_span = get_row_span(item);
 515:lvgl/src/extra/layouts/grid/lv_grid.c ****                 if(row_span != 1) continue;
 516:lvgl/src/extra/layouts/grid/lv_grid.c **** 
 517:lvgl/src/extra/layouts/grid/lv_grid.c ****                 uint32_t row_pos = get_row_pos(item);
 518:lvgl/src/extra/layouts/grid/lv_grid.c ****                 if(row_pos != i) continue;
 519:lvgl/src/extra/layouts/grid/lv_grid.c **** 
 520:lvgl/src/extra/layouts/grid/lv_grid.c ****                 size = LV_MAX(size, lv_obj_get_height(item));
 521:lvgl/src/extra/layouts/grid/lv_grid.c ****             }
 522:lvgl/src/extra/layouts/grid/lv_grid.c ****             if(size >= 0) c->h[i] = size;
 523:lvgl/src/extra/layouts/grid/lv_grid.c ****             else c->h[i] = 0;
 524:lvgl/src/extra/layouts/grid/lv_grid.c ****         }
 525:lvgl/src/extra/layouts/grid/lv_grid.c ****     }
 526:lvgl/src/extra/layouts/grid/lv_grid.c **** 
 527:lvgl/src/extra/layouts/grid/lv_grid.c ****     uint32_t row_fr_cnt = 0;
 528:lvgl/src/extra/layouts/grid/lv_grid.c ****     lv_coord_t grid_h = 0;
 529:lvgl/src/extra/layouts/grid/lv_grid.c **** 
 530:lvgl/src/extra/layouts/grid/lv_grid.c ****     for(i = 0; i < c->row_num; i++) {
 531:lvgl/src/extra/layouts/grid/lv_grid.c ****         lv_coord_t x = row_templ[i];
 532:lvgl/src/extra/layouts/grid/lv_grid.c ****         if(IS_FR(x)) {
 533:lvgl/src/extra/layouts/grid/lv_grid.c ****             row_fr_cnt += GET_FR(x);
 534:lvgl/src/extra/layouts/grid/lv_grid.c ****         }
 535:lvgl/src/extra/layouts/grid/lv_grid.c ****         else if(IS_CONTENT(x)) {
 536:lvgl/src/extra/layouts/grid/lv_grid.c ****             grid_h += c->h[i];
 537:lvgl/src/extra/layouts/grid/lv_grid.c ****         }
 538:lvgl/src/extra/layouts/grid/lv_grid.c ****         else {
 539:lvgl/src/extra/layouts/grid/lv_grid.c ****             c->h[i] = x;
 540:lvgl/src/extra/layouts/grid/lv_grid.c ****             grid_h += x;
 541:lvgl/src/extra/layouts/grid/lv_grid.c ****         }
 542:lvgl/src/extra/layouts/grid/lv_grid.c ****     }
 543:lvgl/src/extra/layouts/grid/lv_grid.c **** 
ARM GAS  /var/folders/21/t9g5rlb91ys800n5npymflf80000gn/T//cce6JCY2.s 			page 11


 544:lvgl/src/extra/layouts/grid/lv_grid.c ****     lv_coord_t row_gap = lv_obj_get_style_pad_row(cont, LV_PART_MAIN);
 545:lvgl/src/extra/layouts/grid/lv_grid.c ****     lv_coord_t cont_h = lv_obj_get_content_height(cont) - row_gap * (c->row_num - 1);
 546:lvgl/src/extra/layouts/grid/lv_grid.c ****     lv_coord_t free_h = cont_h - grid_h;
 547:lvgl/src/extra/layouts/grid/lv_grid.c ****     if(free_h < 0) free_h = 0;
 548:lvgl/src/extra/layouts/grid/lv_grid.c **** 
 549:lvgl/src/extra/layouts/grid/lv_grid.c ****     int32_t last_fr_i = -1;
 550:lvgl/src/extra/layouts/grid/lv_grid.c ****     int32_t last_fr_x = 0;
 551:lvgl/src/extra/layouts/grid/lv_grid.c ****     for(i = 0; i < c->row_num; i++) {
 552:lvgl/src/extra/layouts/grid/lv_grid.c ****         lv_coord_t x = row_templ[i];
 553:lvgl/src/extra/layouts/grid/lv_grid.c ****         if(IS_FR(x)) {
 554:lvgl/src/extra/layouts/grid/lv_grid.c ****             lv_coord_t f = GET_FR(x);
 555:lvgl/src/extra/layouts/grid/lv_grid.c ****             c->h[i] = (free_h * f) / row_fr_cnt;
 556:lvgl/src/extra/layouts/grid/lv_grid.c ****             last_fr_i = i;
 557:lvgl/src/extra/layouts/grid/lv_grid.c ****             last_fr_x = f;
 558:lvgl/src/extra/layouts/grid/lv_grid.c ****         }
 559:lvgl/src/extra/layouts/grid/lv_grid.c ****     }
 560:lvgl/src/extra/layouts/grid/lv_grid.c **** 
 561:lvgl/src/extra/layouts/grid/lv_grid.c ****     /*To avoid rounding errors set the last FR track to the remaining size */
 562:lvgl/src/extra/layouts/grid/lv_grid.c ****     if(last_fr_i >= 0) {
 563:lvgl/src/extra/layouts/grid/lv_grid.c ****         c->h[last_fr_i] = free_h - ((free_h * (row_fr_cnt - last_fr_x)) / row_fr_cnt);
 564:lvgl/src/extra/layouts/grid/lv_grid.c ****     }
 565:lvgl/src/extra/layouts/grid/lv_grid.c **** }
 566:lvgl/src/extra/layouts/grid/lv_grid.c **** 
 567:lvgl/src/extra/layouts/grid/lv_grid.c **** /**
 568:lvgl/src/extra/layouts/grid/lv_grid.c ****  * Reposition a grid item in its cell
 569:lvgl/src/extra/layouts/grid/lv_grid.c ****  * @param item a grid item to reposition
 570:lvgl/src/extra/layouts/grid/lv_grid.c ****  * @param calc the calculated grid of `cont`
 571:lvgl/src/extra/layouts/grid/lv_grid.c ****  * @param child_id_ext helper value if the ID of the child is know (order from the oldest) else -1
 572:lvgl/src/extra/layouts/grid/lv_grid.c ****  * @param grid_abs helper value, the absolute position of the grid, NULL if unknown
 573:lvgl/src/extra/layouts/grid/lv_grid.c ****  */
 574:lvgl/src/extra/layouts/grid/lv_grid.c **** static void item_repos(lv_obj_t * item, _lv_grid_calc_t * c, item_repos_hint_t * hint)
 575:lvgl/src/extra/layouts/grid/lv_grid.c **** {
 576:lvgl/src/extra/layouts/grid/lv_grid.c ****     if(lv_obj_has_flag_any(item, LV_OBJ_FLAG_IGNORE_LAYOUT | LV_OBJ_FLAG_HIDDEN | LV_OBJ_FLAG_FLOAT
 577:lvgl/src/extra/layouts/grid/lv_grid.c ****     uint32_t col_span = get_col_span(item);
 578:lvgl/src/extra/layouts/grid/lv_grid.c ****     uint32_t row_span = get_row_span(item);
 579:lvgl/src/extra/layouts/grid/lv_grid.c ****     if(row_span == 0 || col_span == 0) return;
 580:lvgl/src/extra/layouts/grid/lv_grid.c **** 
 581:lvgl/src/extra/layouts/grid/lv_grid.c ****     uint32_t col_pos = get_col_pos(item);
 582:lvgl/src/extra/layouts/grid/lv_grid.c ****     uint32_t row_pos = get_row_pos(item);
 583:lvgl/src/extra/layouts/grid/lv_grid.c ****     lv_grid_align_t col_align = get_cell_col_align(item);
 584:lvgl/src/extra/layouts/grid/lv_grid.c ****     lv_grid_align_t row_align = get_cell_row_align(item);
 585:lvgl/src/extra/layouts/grid/lv_grid.c **** 
 586:lvgl/src/extra/layouts/grid/lv_grid.c ****     lv_coord_t col_x1 = c->x[col_pos];
 587:lvgl/src/extra/layouts/grid/lv_grid.c ****     lv_coord_t col_x2 = c->x[col_pos + col_span - 1] + c->w[col_pos + col_span - 1];
 588:lvgl/src/extra/layouts/grid/lv_grid.c ****     lv_coord_t col_w = col_x2 - col_x1;
 589:lvgl/src/extra/layouts/grid/lv_grid.c **** 
 590:lvgl/src/extra/layouts/grid/lv_grid.c ****     lv_coord_t row_y1 = c->y[row_pos];
 591:lvgl/src/extra/layouts/grid/lv_grid.c ****     lv_coord_t row_y2 = c->y[row_pos + row_span - 1] + c->h[row_pos + row_span - 1];
 592:lvgl/src/extra/layouts/grid/lv_grid.c ****     lv_coord_t row_h = row_y2 - row_y1;
 593:lvgl/src/extra/layouts/grid/lv_grid.c **** 
 594:lvgl/src/extra/layouts/grid/lv_grid.c ****     /*If the item has RTL base dir switch start and end*/
 595:lvgl/src/extra/layouts/grid/lv_grid.c ****     if(lv_obj_get_style_base_dir(item, LV_PART_MAIN) == LV_BASE_DIR_RTL) {
 596:lvgl/src/extra/layouts/grid/lv_grid.c ****         if(col_align == LV_GRID_ALIGN_START) col_align = LV_GRID_ALIGN_END;
 597:lvgl/src/extra/layouts/grid/lv_grid.c ****         else if(col_align == LV_GRID_ALIGN_END) col_align = LV_GRID_ALIGN_START;
 598:lvgl/src/extra/layouts/grid/lv_grid.c ****     }
 599:lvgl/src/extra/layouts/grid/lv_grid.c **** 
 600:lvgl/src/extra/layouts/grid/lv_grid.c ****     lv_coord_t x;
ARM GAS  /var/folders/21/t9g5rlb91ys800n5npymflf80000gn/T//cce6JCY2.s 			page 12


 601:lvgl/src/extra/layouts/grid/lv_grid.c ****     lv_coord_t y;
 602:lvgl/src/extra/layouts/grid/lv_grid.c ****     lv_coord_t item_w = lv_area_get_width(&item->coords);
 603:lvgl/src/extra/layouts/grid/lv_grid.c ****     lv_coord_t item_h = lv_area_get_height(&item->coords);
 604:lvgl/src/extra/layouts/grid/lv_grid.c **** 
 605:lvgl/src/extra/layouts/grid/lv_grid.c ****     switch(col_align) {
 606:lvgl/src/extra/layouts/grid/lv_grid.c ****         default:
 607:lvgl/src/extra/layouts/grid/lv_grid.c ****         case LV_GRID_ALIGN_START:
 608:lvgl/src/extra/layouts/grid/lv_grid.c ****             x = c->x[col_pos];
 609:lvgl/src/extra/layouts/grid/lv_grid.c ****             item->w_layout = 0;
 610:lvgl/src/extra/layouts/grid/lv_grid.c ****             break;
 611:lvgl/src/extra/layouts/grid/lv_grid.c ****         case LV_GRID_ALIGN_STRETCH:
 612:lvgl/src/extra/layouts/grid/lv_grid.c ****             x = c->x[col_pos];
 613:lvgl/src/extra/layouts/grid/lv_grid.c ****             item_w = col_w;
 614:lvgl/src/extra/layouts/grid/lv_grid.c ****             item->w_layout = 1;
 615:lvgl/src/extra/layouts/grid/lv_grid.c ****             break;
 616:lvgl/src/extra/layouts/grid/lv_grid.c ****         case LV_GRID_ALIGN_CENTER:
 617:lvgl/src/extra/layouts/grid/lv_grid.c ****             x = c->x[col_pos] + (col_w - item_w) / 2;
 618:lvgl/src/extra/layouts/grid/lv_grid.c ****             item->w_layout = 0;
 619:lvgl/src/extra/layouts/grid/lv_grid.c ****             break;
 620:lvgl/src/extra/layouts/grid/lv_grid.c ****         case LV_GRID_ALIGN_END:
 621:lvgl/src/extra/layouts/grid/lv_grid.c ****             x = c->x[col_pos] + col_w - lv_obj_get_width(item);
 622:lvgl/src/extra/layouts/grid/lv_grid.c ****             item->w_layout = 0;
 623:lvgl/src/extra/layouts/grid/lv_grid.c ****             break;
 624:lvgl/src/extra/layouts/grid/lv_grid.c ****     }
 625:lvgl/src/extra/layouts/grid/lv_grid.c **** 
 626:lvgl/src/extra/layouts/grid/lv_grid.c ****     switch(row_align) {
 627:lvgl/src/extra/layouts/grid/lv_grid.c ****         default:
 628:lvgl/src/extra/layouts/grid/lv_grid.c ****         case LV_GRID_ALIGN_START:
 629:lvgl/src/extra/layouts/grid/lv_grid.c ****             y = c->y[row_pos];
 630:lvgl/src/extra/layouts/grid/lv_grid.c ****             item->h_layout = 0;
 631:lvgl/src/extra/layouts/grid/lv_grid.c ****             break;
 632:lvgl/src/extra/layouts/grid/lv_grid.c ****         case LV_GRID_ALIGN_STRETCH:
 633:lvgl/src/extra/layouts/grid/lv_grid.c ****             y = c->y[row_pos];
 634:lvgl/src/extra/layouts/grid/lv_grid.c ****             item_h = row_h;
 635:lvgl/src/extra/layouts/grid/lv_grid.c ****             item->h_layout = 1;
 636:lvgl/src/extra/layouts/grid/lv_grid.c ****             break;
 637:lvgl/src/extra/layouts/grid/lv_grid.c ****         case LV_GRID_ALIGN_CENTER:
 638:lvgl/src/extra/layouts/grid/lv_grid.c ****             y = c->y[row_pos] + (row_h - item_h) / 2;
 639:lvgl/src/extra/layouts/grid/lv_grid.c ****             item->h_layout = 0;
 640:lvgl/src/extra/layouts/grid/lv_grid.c ****             break;
 641:lvgl/src/extra/layouts/grid/lv_grid.c ****         case LV_GRID_ALIGN_END:
 642:lvgl/src/extra/layouts/grid/lv_grid.c ****             y = c->y[row_pos] + row_h - lv_obj_get_height(item);
 643:lvgl/src/extra/layouts/grid/lv_grid.c ****             item->h_layout = 0;
 644:lvgl/src/extra/layouts/grid/lv_grid.c ****             break;
 645:lvgl/src/extra/layouts/grid/lv_grid.c ****     }
 646:lvgl/src/extra/layouts/grid/lv_grid.c **** 
 647:lvgl/src/extra/layouts/grid/lv_grid.c ****     /*Set a new size if required*/
 648:lvgl/src/extra/layouts/grid/lv_grid.c ****     if(lv_obj_get_width(item) != item_w || lv_obj_get_height(item) != item_h) {
 649:lvgl/src/extra/layouts/grid/lv_grid.c ****         lv_area_t old_coords;
 650:lvgl/src/extra/layouts/grid/lv_grid.c ****         lv_area_copy(&old_coords, &item->coords);
 651:lvgl/src/extra/layouts/grid/lv_grid.c ****         lv_obj_invalidate(item);
 652:lvgl/src/extra/layouts/grid/lv_grid.c ****         lv_area_set_width(&item->coords, item_w);
 653:lvgl/src/extra/layouts/grid/lv_grid.c ****         lv_area_set_height(&item->coords, item_h);
 654:lvgl/src/extra/layouts/grid/lv_grid.c ****         lv_obj_invalidate(item);
 655:lvgl/src/extra/layouts/grid/lv_grid.c ****         lv_event_send(item, LV_EVENT_SIZE_CHANGED, &old_coords);
 656:lvgl/src/extra/layouts/grid/lv_grid.c ****         lv_event_send(lv_obj_get_parent(item), LV_EVENT_CHILD_CHANGED, item);
 657:lvgl/src/extra/layouts/grid/lv_grid.c **** 
ARM GAS  /var/folders/21/t9g5rlb91ys800n5npymflf80000gn/T//cce6JCY2.s 			page 13


 658:lvgl/src/extra/layouts/grid/lv_grid.c ****     }
 659:lvgl/src/extra/layouts/grid/lv_grid.c **** 
 660:lvgl/src/extra/layouts/grid/lv_grid.c ****     /*Handle percentage value of translate*/
 661:lvgl/src/extra/layouts/grid/lv_grid.c ****     lv_coord_t tr_x = lv_obj_get_style_translate_x(item, LV_PART_MAIN);
 662:lvgl/src/extra/layouts/grid/lv_grid.c ****     lv_coord_t tr_y = lv_obj_get_style_translate_y(item, LV_PART_MAIN);
 663:lvgl/src/extra/layouts/grid/lv_grid.c ****     lv_coord_t w = lv_obj_get_width(item);
 664:lvgl/src/extra/layouts/grid/lv_grid.c ****     lv_coord_t h = lv_obj_get_height(item);
 665:lvgl/src/extra/layouts/grid/lv_grid.c ****     if(LV_COORD_IS_PCT(tr_x)) tr_x = (w * LV_COORD_GET_PCT(tr_x)) / 100;
 666:lvgl/src/extra/layouts/grid/lv_grid.c ****     if(LV_COORD_IS_PCT(tr_y)) tr_y = (h * LV_COORD_GET_PCT(tr_y)) / 100;
 667:lvgl/src/extra/layouts/grid/lv_grid.c **** 
 668:lvgl/src/extra/layouts/grid/lv_grid.c ****     x += tr_x;
 669:lvgl/src/extra/layouts/grid/lv_grid.c ****     y += tr_y;
 670:lvgl/src/extra/layouts/grid/lv_grid.c **** 
 671:lvgl/src/extra/layouts/grid/lv_grid.c ****     lv_coord_t diff_x = hint->grid_abs.x + x - item->coords.x1;
 672:lvgl/src/extra/layouts/grid/lv_grid.c ****     lv_coord_t diff_y = hint->grid_abs.y + y - item->coords.y1;
 673:lvgl/src/extra/layouts/grid/lv_grid.c ****     if(diff_x || diff_y) {
 674:lvgl/src/extra/layouts/grid/lv_grid.c ****         lv_obj_invalidate(item);
 675:lvgl/src/extra/layouts/grid/lv_grid.c ****         item->coords.x1 += diff_x;
 676:lvgl/src/extra/layouts/grid/lv_grid.c ****         item->coords.x2 += diff_x;
 677:lvgl/src/extra/layouts/grid/lv_grid.c ****         item->coords.y1 += diff_y;
 678:lvgl/src/extra/layouts/grid/lv_grid.c ****         item->coords.y2 += diff_y;
 679:lvgl/src/extra/layouts/grid/lv_grid.c ****         lv_obj_invalidate(item);
 680:lvgl/src/extra/layouts/grid/lv_grid.c ****         lv_obj_move_children_by(item, diff_x, diff_y, false);
 681:lvgl/src/extra/layouts/grid/lv_grid.c ****     }
 682:lvgl/src/extra/layouts/grid/lv_grid.c **** }
 683:lvgl/src/extra/layouts/grid/lv_grid.c **** 
 684:lvgl/src/extra/layouts/grid/lv_grid.c **** /**
 685:lvgl/src/extra/layouts/grid/lv_grid.c ****  * Place the grid track according to align methods. It keeps the track sizes but sets their positio
 686:lvgl/src/extra/layouts/grid/lv_grid.c ****  * It can process both columns or rows according to the passed parameters.
 687:lvgl/src/extra/layouts/grid/lv_grid.c ****  * @param cont_size size of the containers content area (width/height)
 688:lvgl/src/extra/layouts/grid/lv_grid.c ****  * @param auto_size true: the container has auto size in the current direction
 689:lvgl/src/extra/layouts/grid/lv_grid.c ****  * @param align align method
 690:lvgl/src/extra/layouts/grid/lv_grid.c ****  * @param gap grid gap
 691:lvgl/src/extra/layouts/grid/lv_grid.c ****  * @param track_num number of tracks
 692:lvgl/src/extra/layouts/grid/lv_grid.c ****  * @param size_array array with the track sizes
 693:lvgl/src/extra/layouts/grid/lv_grid.c ****  * @param pos_array write the positions of the tracks here
 694:lvgl/src/extra/layouts/grid/lv_grid.c ****  * @return the total size of the grid
 695:lvgl/src/extra/layouts/grid/lv_grid.c ****  */
 696:lvgl/src/extra/layouts/grid/lv_grid.c **** static lv_coord_t grid_align(lv_coord_t cont_size,  bool auto_size, uint8_t align, lv_coord_t gap, 
 697:lvgl/src/extra/layouts/grid/lv_grid.c ****                              lv_coord_t * size_array, lv_coord_t * pos_array, bool reverse)
 698:lvgl/src/extra/layouts/grid/lv_grid.c **** {
  29              		.loc 1 698 1 view -0
  30              		.cfi_startproc
  31              		@ args = 16, pretend = 0, frame = 0
  32              		@ frame_needed = 0, uses_anonymous_args = 0
  33              		.loc 1 698 1 is_stmt 0 view .LVU1
  34 0000 2DE9F041 		push	{r4, r5, r6, r7, r8, lr}
  35              	.LCFI0:
  36              		.cfi_def_cfa_offset 24
  37              		.cfi_offset 4, -24
  38              		.cfi_offset 5, -20
  39              		.cfi_offset 6, -16
  40              		.cfi_offset 7, -12
  41              		.cfi_offset 8, -8
  42              		.cfi_offset 14, -4
  43 0004 8446     		mov	ip, r0
  44 0006 069D     		ldr	r5, [sp, #24]
ARM GAS  /var/folders/21/t9g5rlb91ys800n5npymflf80000gn/T//cce6JCY2.s 			page 14


  45 0008 079E     		ldr	r6, [sp, #28]
  46 000a 089C     		ldr	r4, [sp, #32]
  47 000c 9DF82470 		ldrb	r7, [sp, #36]	@ zero_extendqisi2
 699:lvgl/src/extra/layouts/grid/lv_grid.c ****     lv_coord_t grid_size = 0;
  48              		.loc 1 699 5 is_stmt 1 view .LVU2
  49              	.LVL1:
 700:lvgl/src/extra/layouts/grid/lv_grid.c ****     uint32_t i;
  50              		.loc 1 700 5 view .LVU3
 701:lvgl/src/extra/layouts/grid/lv_grid.c **** 
 702:lvgl/src/extra/layouts/grid/lv_grid.c ****     if(auto_size) {
  51              		.loc 1 702 5 view .LVU4
  52              		.loc 1 702 7 is_stmt 0 view .LVU5
  53 0010 19B1     		cbz	r1, .L2
 703:lvgl/src/extra/layouts/grid/lv_grid.c ****         pos_array[0] = 0;
  54              		.loc 1 703 9 is_stmt 1 view .LVU6
  55              		.loc 1 703 22 is_stmt 0 view .LVU7
  56 0012 0022     		movs	r2, #0
  57              	.LVL2:
  58              		.loc 1 703 22 view .LVU8
  59 0014 2280     		strh	r2, [r4]	@ movhi
  60              	.LVL3:
  61              	.L3:
 704:lvgl/src/extra/layouts/grid/lv_grid.c ****     }
 705:lvgl/src/extra/layouts/grid/lv_grid.c ****     else {
 706:lvgl/src/extra/layouts/grid/lv_grid.c ****         /*With spaced alignment gap will be calculated from the remaining space*/
 707:lvgl/src/extra/layouts/grid/lv_grid.c ****         if(align == LV_GRID_ALIGN_SPACE_AROUND || align == LV_GRID_ALIGN_SPACE_BETWEEN || align == 
 708:lvgl/src/extra/layouts/grid/lv_grid.c ****             gap = 0;
 709:lvgl/src/extra/layouts/grid/lv_grid.c ****             if(track_num == 1) align = LV_GRID_ALIGN_CENTER;
 710:lvgl/src/extra/layouts/grid/lv_grid.c ****         }
 711:lvgl/src/extra/layouts/grid/lv_grid.c **** 
 712:lvgl/src/extra/layouts/grid/lv_grid.c ****         /*Get the full grid size with gap*/
 713:lvgl/src/extra/layouts/grid/lv_grid.c ****         for(i = 0; i < track_num; i++) {
 714:lvgl/src/extra/layouts/grid/lv_grid.c ****             grid_size += size_array[i] + gap;
 715:lvgl/src/extra/layouts/grid/lv_grid.c ****         }
 716:lvgl/src/extra/layouts/grid/lv_grid.c ****         grid_size -= gap;
 717:lvgl/src/extra/layouts/grid/lv_grid.c **** 
 718:lvgl/src/extra/layouts/grid/lv_grid.c ****         /*Calculate the position of the first item and set gap is necessary*/
 719:lvgl/src/extra/layouts/grid/lv_grid.c ****         switch(align) {
 720:lvgl/src/extra/layouts/grid/lv_grid.c ****             case LV_GRID_ALIGN_START:
 721:lvgl/src/extra/layouts/grid/lv_grid.c ****                 pos_array[0] = 0;
 722:lvgl/src/extra/layouts/grid/lv_grid.c ****                 break;
 723:lvgl/src/extra/layouts/grid/lv_grid.c ****             case LV_GRID_ALIGN_CENTER:
 724:lvgl/src/extra/layouts/grid/lv_grid.c ****                 pos_array[0] = (cont_size - grid_size) / 2;
 725:lvgl/src/extra/layouts/grid/lv_grid.c ****                 break;
 726:lvgl/src/extra/layouts/grid/lv_grid.c ****             case LV_GRID_ALIGN_END:
 727:lvgl/src/extra/layouts/grid/lv_grid.c ****                 pos_array[0] = cont_size - grid_size;
 728:lvgl/src/extra/layouts/grid/lv_grid.c ****                 break;
 729:lvgl/src/extra/layouts/grid/lv_grid.c ****             case LV_GRID_ALIGN_SPACE_BETWEEN:
 730:lvgl/src/extra/layouts/grid/lv_grid.c ****                 pos_array[0] = 0;
 731:lvgl/src/extra/layouts/grid/lv_grid.c ****                 gap = (lv_coord_t)(cont_size - grid_size) / (lv_coord_t)(track_num - 1);
 732:lvgl/src/extra/layouts/grid/lv_grid.c ****                 break;
 733:lvgl/src/extra/layouts/grid/lv_grid.c ****             case LV_GRID_ALIGN_SPACE_AROUND:
 734:lvgl/src/extra/layouts/grid/lv_grid.c ****                 gap = (lv_coord_t)(cont_size - grid_size) / (lv_coord_t)(track_num);
 735:lvgl/src/extra/layouts/grid/lv_grid.c ****                 pos_array[0] = gap / 2;
 736:lvgl/src/extra/layouts/grid/lv_grid.c ****                 break;
 737:lvgl/src/extra/layouts/grid/lv_grid.c ****             case LV_GRID_ALIGN_SPACE_EVENLY:
 738:lvgl/src/extra/layouts/grid/lv_grid.c ****                 gap = (lv_coord_t)(cont_size - grid_size) / (lv_coord_t)(track_num + 1);
ARM GAS  /var/folders/21/t9g5rlb91ys800n5npymflf80000gn/T//cce6JCY2.s 			page 15


 739:lvgl/src/extra/layouts/grid/lv_grid.c ****                 pos_array[0] = gap;
 740:lvgl/src/extra/layouts/grid/lv_grid.c ****                 break;
 741:lvgl/src/extra/layouts/grid/lv_grid.c **** 
 742:lvgl/src/extra/layouts/grid/lv_grid.c ****         }
 743:lvgl/src/extra/layouts/grid/lv_grid.c ****     }
 744:lvgl/src/extra/layouts/grid/lv_grid.c **** 
 745:lvgl/src/extra/layouts/grid/lv_grid.c ****     /*Set the position of all tracks from the start position, gaps and track sizes*/
 746:lvgl/src/extra/layouts/grid/lv_grid.c ****     for(i = 0; i < track_num - 1; i++) {
  62              		.loc 1 746 5 is_stmt 1 view .LVU9
  63              		.loc 1 746 11 is_stmt 0 view .LVU10
  64 0016 0022     		movs	r2, #0
  65              		.loc 1 746 5 view .LVU11
  66 0018 6BE0     		b	.L14
  67              	.LVL4:
  68              	.L2:
 707:lvgl/src/extra/layouts/grid/lv_grid.c ****             gap = 0;
  69              		.loc 1 707 9 is_stmt 1 view .LVU12
 707:lvgl/src/extra/layouts/grid/lv_grid.c ****             gap = 0;
  70              		.loc 1 707 88 is_stmt 0 view .LVU13
  71 001a 111F     		subs	r1, r2, #4
  72              	.LVL5:
 707:lvgl/src/extra/layouts/grid/lv_grid.c ****             gap = 0;
  73              		.loc 1 707 88 view .LVU14
  74 001c C9B2     		uxtb	r1, r1
 707:lvgl/src/extra/layouts/grid/lv_grid.c ****             gap = 0;
  75              		.loc 1 707 11 view .LVU15
  76 001e 0229     		cmp	r1, #2
  77 0020 02D8     		bhi	.L4
 708:lvgl/src/extra/layouts/grid/lv_grid.c ****             if(track_num == 1) align = LV_GRID_ALIGN_CENTER;
  78              		.loc 1 708 13 is_stmt 1 view .LVU16
  79              	.LVL6:
 709:lvgl/src/extra/layouts/grid/lv_grid.c ****         }
  80              		.loc 1 709 13 view .LVU17
 709:lvgl/src/extra/layouts/grid/lv_grid.c ****         }
  81              		.loc 1 709 15 is_stmt 0 view .LVU18
  82 0022 012D     		cmp	r5, #1
  83 0024 0CD0     		beq	.L19
 708:lvgl/src/extra/layouts/grid/lv_grid.c ****             if(track_num == 1) align = LV_GRID_ALIGN_CENTER;
  84              		.loc 1 708 17 view .LVU19
  85 0026 0023     		movs	r3, #0
  86              	.LVL7:
  87              	.L4:
 713:lvgl/src/extra/layouts/grid/lv_grid.c ****             grid_size += size_array[i] + gap;
  88              		.loc 1 713 9 is_stmt 1 view .LVU20
 713:lvgl/src/extra/layouts/grid/lv_grid.c ****             grid_size += size_array[i] + gap;
  89              		.loc 1 713 15 is_stmt 0 view .LVU21
  90 0028 0020     		movs	r0, #0
  91              	.LVL8:
 699:lvgl/src/extra/layouts/grid/lv_grid.c ****     uint32_t i;
  92              		.loc 1 699 16 view .LVU22
  93 002a 0146     		mov	r1, r0
  94              	.LVL9:
  95              	.L5:
 713:lvgl/src/extra/layouts/grid/lv_grid.c ****             grid_size += size_array[i] + gap;
  96              		.loc 1 713 22 is_stmt 1 discriminator 1 view .LVU23
  97 002c A842     		cmp	r0, r5
  98 002e 0AD2     		bcs	.L23
ARM GAS  /var/folders/21/t9g5rlb91ys800n5npymflf80000gn/T//cce6JCY2.s 			page 16


 714:lvgl/src/extra/layouts/grid/lv_grid.c ****         }
  99              		.loc 1 714 13 discriminator 3 view .LVU24
 714:lvgl/src/extra/layouts/grid/lv_grid.c ****         }
 100              		.loc 1 714 36 is_stmt 0 discriminator 3 view .LVU25
 101 0030 36F810E0 		ldrh	lr, [r6, r0, lsl #1]
 714:lvgl/src/extra/layouts/grid/lv_grid.c ****         }
 102              		.loc 1 714 40 discriminator 3 view .LVU26
 103 0034 9E44     		add	lr, lr, r3
 714:lvgl/src/extra/layouts/grid/lv_grid.c ****         }
 104              		.loc 1 714 23 discriminator 3 view .LVU27
 105 0036 11FA8EF1 		uxtah	r1, r1, lr
 106              	.LVL10:
 714:lvgl/src/extra/layouts/grid/lv_grid.c ****         }
 107              		.loc 1 714 23 discriminator 3 view .LVU28
 108 003a 09B2     		sxth	r1, r1
 109              	.LVL11:
 713:lvgl/src/extra/layouts/grid/lv_grid.c ****             grid_size += size_array[i] + gap;
 110              		.loc 1 713 36 is_stmt 1 discriminator 3 view .LVU29
 111 003c 0130     		adds	r0, r0, #1
 112              	.LVL12:
 713:lvgl/src/extra/layouts/grid/lv_grid.c ****             grid_size += size_array[i] + gap;
 113              		.loc 1 713 36 is_stmt 0 discriminator 3 view .LVU30
 114 003e F5E7     		b	.L5
 115              	.LVL13:
 116              	.L19:
 708:lvgl/src/extra/layouts/grid/lv_grid.c ****             if(track_num == 1) align = LV_GRID_ALIGN_CENTER;
 117              		.loc 1 708 17 view .LVU31
 118 0040 0023     		movs	r3, #0
 709:lvgl/src/extra/layouts/grid/lv_grid.c ****         }
 119              		.loc 1 709 38 view .LVU32
 120 0042 0122     		movs	r2, #1
 121              	.LVL14:
 709:lvgl/src/extra/layouts/grid/lv_grid.c ****         }
 122              		.loc 1 709 38 view .LVU33
 123 0044 F0E7     		b	.L4
 124              	.LVL15:
 125              	.L23:
 716:lvgl/src/extra/layouts/grid/lv_grid.c **** 
 126              		.loc 1 716 9 is_stmt 1 view .LVU34
 716:lvgl/src/extra/layouts/grid/lv_grid.c **** 
 127              		.loc 1 716 19 is_stmt 0 view .LVU35
 128 0046 89B2     		uxth	r1, r1
 716:lvgl/src/extra/layouts/grid/lv_grid.c **** 
 129              		.loc 1 716 19 view .LVU36
 130 0048 98B2     		uxth	r0, r3
 131              	.LVL16:
 716:lvgl/src/extra/layouts/grid/lv_grid.c **** 
 132              		.loc 1 716 19 view .LVU37
 133 004a A1EB000E 		sub	lr, r1, r0
 134 004e 0FFA8EFE 		sxth	lr, lr
 135              	.LVL17:
 719:lvgl/src/extra/layouts/grid/lv_grid.c ****             case LV_GRID_ALIGN_START:
 136              		.loc 1 719 9 is_stmt 1 view .LVU38
 137 0052 062A     		cmp	r2, #6
 138 0054 DFD8     		bhi	.L3
 139 0056 0FF20808 		adr	r8, .L8
 140 005a 58F822F0 		ldr	pc, [r8, r2, lsl #2]
ARM GAS  /var/folders/21/t9g5rlb91ys800n5npymflf80000gn/T//cce6JCY2.s 			page 17


 141 005e 00BF     		.p2align 2
 142              	.L8:
 143 0060 7D000000 		.word	.L13+1
 144 0064 83000000 		.word	.L12+1
 145 0068 93000000 		.word	.L11+1
 146 006c 17000000 		.word	.L3+1
 147 0070 CB000000 		.word	.L10+1
 148 0074 B1000000 		.word	.L9+1
 149 0078 9B000000 		.word	.L7+1
 150              		.p2align 1
 151              	.L13:
 721:lvgl/src/extra/layouts/grid/lv_grid.c ****                 break;
 152              		.loc 1 721 17 view .LVU39
 721:lvgl/src/extra/layouts/grid/lv_grid.c ****                 break;
 153              		.loc 1 721 30 is_stmt 0 view .LVU40
 154 007c 0022     		movs	r2, #0
 155              	.LVL18:
 721:lvgl/src/extra/layouts/grid/lv_grid.c ****                 break;
 156              		.loc 1 721 30 view .LVU41
 157 007e 2280     		strh	r2, [r4]	@ movhi
 722:lvgl/src/extra/layouts/grid/lv_grid.c ****             case LV_GRID_ALIGN_CENTER:
 158              		.loc 1 722 17 is_stmt 1 view .LVU42
 159 0080 C9E7     		b	.L3
 160              	.LVL19:
 161              	.L12:
 724:lvgl/src/extra/layouts/grid/lv_grid.c ****                 break;
 162              		.loc 1 724 17 view .LVU43
 724:lvgl/src/extra/layouts/grid/lv_grid.c ****                 break;
 163              		.loc 1 724 43 is_stmt 0 view .LVU44
 164 0082 ACEB0E0E 		sub	lr, ip, lr
 165              	.LVL20:
 724:lvgl/src/extra/layouts/grid/lv_grid.c ****                 break;
 166              		.loc 1 724 56 view .LVU45
 167 0086 0EEBDE7E 		add	lr, lr, lr, lsr #31
 168 008a 4FEA6E02 		asr	r2, lr, #1
 169              	.LVL21:
 724:lvgl/src/extra/layouts/grid/lv_grid.c ****                 break;
 170              		.loc 1 724 30 view .LVU46
 171 008e 2280     		strh	r2, [r4]	@ movhi
 725:lvgl/src/extra/layouts/grid/lv_grid.c ****             case LV_GRID_ALIGN_END:
 172              		.loc 1 725 17 is_stmt 1 view .LVU47
 173 0090 C1E7     		b	.L3
 174              	.LVL22:
 175              	.L11:
 727:lvgl/src/extra/layouts/grid/lv_grid.c ****                 break;
 176              		.loc 1 727 17 view .LVU48
 727:lvgl/src/extra/layouts/grid/lv_grid.c ****                 break;
 177              		.loc 1 727 42 is_stmt 0 view .LVU49
 178 0092 421A     		subs	r2, r0, r1
 179              	.LVL23:
 727:lvgl/src/extra/layouts/grid/lv_grid.c ****                 break;
 180              		.loc 1 727 42 view .LVU50
 181 0094 6244     		add	r2, r2, ip
 727:lvgl/src/extra/layouts/grid/lv_grid.c ****                 break;
 182              		.loc 1 727 30 view .LVU51
 183 0096 2280     		strh	r2, [r4]	@ movhi
 728:lvgl/src/extra/layouts/grid/lv_grid.c ****             case LV_GRID_ALIGN_SPACE_BETWEEN:
ARM GAS  /var/folders/21/t9g5rlb91ys800n5npymflf80000gn/T//cce6JCY2.s 			page 18


 184              		.loc 1 728 17 is_stmt 1 view .LVU52
 185 0098 BDE7     		b	.L3
 186              	.LVL24:
 187              	.L7:
 730:lvgl/src/extra/layouts/grid/lv_grid.c ****                 gap = (lv_coord_t)(cont_size - grid_size) / (lv_coord_t)(track_num - 1);
 188              		.loc 1 730 17 view .LVU53
 730:lvgl/src/extra/layouts/grid/lv_grid.c ****                 gap = (lv_coord_t)(cont_size - grid_size) / (lv_coord_t)(track_num - 1);
 189              		.loc 1 730 30 is_stmt 0 view .LVU54
 190 009a 0023     		movs	r3, #0
 191              	.LVL25:
 730:lvgl/src/extra/layouts/grid/lv_grid.c ****                 gap = (lv_coord_t)(cont_size - grid_size) / (lv_coord_t)(track_num - 1);
 192              		.loc 1 730 30 view .LVU55
 193 009c 2380     		strh	r3, [r4]	@ movhi
 731:lvgl/src/extra/layouts/grid/lv_grid.c ****                 break;
 194              		.loc 1 731 17 is_stmt 1 view .LVU56
 731:lvgl/src/extra/layouts/grid/lv_grid.c ****                 break;
 195              		.loc 1 731 46 is_stmt 0 view .LVU57
 196 009e 431A     		subs	r3, r0, r1
 197 00a0 6344     		add	r3, r3, ip
 731:lvgl/src/extra/layouts/grid/lv_grid.c ****                 break;
 198              		.loc 1 731 23 view .LVU58
 199 00a2 1BB2     		sxth	r3, r3
 731:lvgl/src/extra/layouts/grid/lv_grid.c ****                 break;
 200              		.loc 1 731 84 view .LVU59
 201 00a4 6A1E     		subs	r2, r5, #1
 202              	.LVL26:
 731:lvgl/src/extra/layouts/grid/lv_grid.c ****                 break;
 203              		.loc 1 731 61 view .LVU60
 204 00a6 12B2     		sxth	r2, r2
 731:lvgl/src/extra/layouts/grid/lv_grid.c ****                 break;
 205              		.loc 1 731 59 view .LVU61
 206 00a8 93FBF2F3 		sdiv	r3, r3, r2
 731:lvgl/src/extra/layouts/grid/lv_grid.c ****                 break;
 207              		.loc 1 731 21 view .LVU62
 208 00ac 1BB2     		sxth	r3, r3
 209              	.LVL27:
 732:lvgl/src/extra/layouts/grid/lv_grid.c ****             case LV_GRID_ALIGN_SPACE_AROUND:
 210              		.loc 1 732 17 is_stmt 1 view .LVU63
 211 00ae B2E7     		b	.L3
 212              	.LVL28:
 213              	.L9:
 734:lvgl/src/extra/layouts/grid/lv_grid.c ****                 pos_array[0] = gap / 2;
 214              		.loc 1 734 17 view .LVU64
 734:lvgl/src/extra/layouts/grid/lv_grid.c ****                 pos_array[0] = gap / 2;
 215              		.loc 1 734 46 is_stmt 0 view .LVU65
 216 00b0 421A     		subs	r2, r0, r1
 217              	.LVL29:
 734:lvgl/src/extra/layouts/grid/lv_grid.c ****                 pos_array[0] = gap / 2;
 218              		.loc 1 734 46 view .LVU66
 219 00b2 6244     		add	r2, r2, ip
 734:lvgl/src/extra/layouts/grid/lv_grid.c ****                 pos_array[0] = gap / 2;
 220              		.loc 1 734 23 view .LVU67
 221 00b4 12B2     		sxth	r2, r2
 734:lvgl/src/extra/layouts/grid/lv_grid.c ****                 pos_array[0] = gap / 2;
 222              		.loc 1 734 61 view .LVU68
 223 00b6 2BB2     		sxth	r3, r5
 224              	.LVL30:
ARM GAS  /var/folders/21/t9g5rlb91ys800n5npymflf80000gn/T//cce6JCY2.s 			page 19


 734:lvgl/src/extra/layouts/grid/lv_grid.c ****                 pos_array[0] = gap / 2;
 225              		.loc 1 734 59 view .LVU69
 226 00b8 92FBF3F2 		sdiv	r2, r2, r3
 734:lvgl/src/extra/layouts/grid/lv_grid.c ****                 pos_array[0] = gap / 2;
 227              		.loc 1 734 21 view .LVU70
 228 00bc 13B2     		sxth	r3, r2
 229              	.LVL31:
 735:lvgl/src/extra/layouts/grid/lv_grid.c ****                 break;
 230              		.loc 1 735 17 is_stmt 1 view .LVU71
 735:lvgl/src/extra/layouts/grid/lv_grid.c ****                 break;
 231              		.loc 1 735 30 is_stmt 0 view .LVU72
 232 00be C2F3C032 		ubfx	r2, r2, #15, #1
 233 00c2 1A44     		add	r2, r2, r3
 234 00c4 5210     		asrs	r2, r2, #1
 235 00c6 2280     		strh	r2, [r4]	@ movhi
 736:lvgl/src/extra/layouts/grid/lv_grid.c ****             case LV_GRID_ALIGN_SPACE_EVENLY:
 236              		.loc 1 736 17 is_stmt 1 view .LVU73
 237 00c8 A5E7     		b	.L3
 238              	.LVL32:
 239              	.L10:
 738:lvgl/src/extra/layouts/grid/lv_grid.c ****                 pos_array[0] = gap;
 240              		.loc 1 738 17 view .LVU74
 738:lvgl/src/extra/layouts/grid/lv_grid.c ****                 pos_array[0] = gap;
 241              		.loc 1 738 46 is_stmt 0 view .LVU75
 242 00ca 431A     		subs	r3, r0, r1
 243              	.LVL33:
 738:lvgl/src/extra/layouts/grid/lv_grid.c ****                 pos_array[0] = gap;
 244              		.loc 1 738 46 view .LVU76
 245 00cc 6344     		add	r3, r3, ip
 738:lvgl/src/extra/layouts/grid/lv_grid.c ****                 pos_array[0] = gap;
 246              		.loc 1 738 23 view .LVU77
 247 00ce 1BB2     		sxth	r3, r3
 738:lvgl/src/extra/layouts/grid/lv_grid.c ****                 pos_array[0] = gap;
 248              		.loc 1 738 84 view .LVU78
 249 00d0 6A1C     		adds	r2, r5, #1
 250              	.LVL34:
 738:lvgl/src/extra/layouts/grid/lv_grid.c ****                 pos_array[0] = gap;
 251              		.loc 1 738 61 view .LVU79
 252 00d2 12B2     		sxth	r2, r2
 738:lvgl/src/extra/layouts/grid/lv_grid.c ****                 pos_array[0] = gap;
 253              		.loc 1 738 59 view .LVU80
 254 00d4 93FBF2F3 		sdiv	r3, r3, r2
 738:lvgl/src/extra/layouts/grid/lv_grid.c ****                 pos_array[0] = gap;
 255              		.loc 1 738 21 view .LVU81
 256 00d8 1BB2     		sxth	r3, r3
 257              	.LVL35:
 739:lvgl/src/extra/layouts/grid/lv_grid.c ****                 break;
 258              		.loc 1 739 17 is_stmt 1 view .LVU82
 739:lvgl/src/extra/layouts/grid/lv_grid.c ****                 break;
 259              		.loc 1 739 30 is_stmt 0 view .LVU83
 260 00da 2380     		strh	r3, [r4]	@ movhi
 740:lvgl/src/extra/layouts/grid/lv_grid.c **** 
 261              		.loc 1 740 17 is_stmt 1 view .LVU84
 262 00dc 9BE7     		b	.L3
 263              	.LVL36:
 264              	.L15:
 747:lvgl/src/extra/layouts/grid/lv_grid.c ****         pos_array[i + 1] = pos_array[i] + size_array[i] + gap;
ARM GAS  /var/folders/21/t9g5rlb91ys800n5npymflf80000gn/T//cce6JCY2.s 			page 20


 265              		.loc 1 747 9 discriminator 3 view .LVU85
 266              		.loc 1 747 37 is_stmt 0 discriminator 3 view .LVU86
 267 00de 34F81210 		ldrh	r1, [r4, r2, lsl #1]
 268              		.loc 1 747 53 discriminator 3 view .LVU87
 269 00e2 36F81200 		ldrh	r0, [r6, r2, lsl #1]
 270              		.loc 1 747 41 discriminator 3 view .LVU88
 271 00e6 0144     		add	r1, r1, r0
 272              		.loc 1 747 18 discriminator 3 view .LVU89
 273 00e8 0132     		adds	r2, r2, #1
 274              	.LVL37:
 275              		.loc 1 747 57 discriminator 3 view .LVU90
 276 00ea 13FA81F1 		uxtah	r1, r3, r1
 277              		.loc 1 747 26 discriminator 3 view .LVU91
 278 00ee 24F81210 		strh	r1, [r4, r2, lsl #1]	@ movhi
 746:lvgl/src/extra/layouts/grid/lv_grid.c ****         pos_array[i + 1] = pos_array[i] + size_array[i] + gap;
 279              		.loc 1 746 36 is_stmt 1 discriminator 3 view .LVU92
 280              	.LVL38:
 281              	.L14:
 746:lvgl/src/extra/layouts/grid/lv_grid.c ****         pos_array[i + 1] = pos_array[i] + size_array[i] + gap;
 282              		.loc 1 746 18 discriminator 1 view .LVU93
 746:lvgl/src/extra/layouts/grid/lv_grid.c ****         pos_array[i + 1] = pos_array[i] + size_array[i] + gap;
 283              		.loc 1 746 30 is_stmt 0 discriminator 1 view .LVU94
 284 00f2 691E     		subs	r1, r5, #1
 746:lvgl/src/extra/layouts/grid/lv_grid.c ****         pos_array[i + 1] = pos_array[i] + size_array[i] + gap;
 285              		.loc 1 746 18 discriminator 1 view .LVU95
 286 00f4 9142     		cmp	r1, r2
 287 00f6 F2D8     		bhi	.L15
 748:lvgl/src/extra/layouts/grid/lv_grid.c ****     }
 749:lvgl/src/extra/layouts/grid/lv_grid.c **** 
 750:lvgl/src/extra/layouts/grid/lv_grid.c ****     lv_coord_t total_gird_size = pos_array[track_num - 1] + size_array[track_num - 1] - pos_array[0
 288              		.loc 1 750 5 is_stmt 1 view .LVU96
 289              		.loc 1 750 43 is_stmt 0 view .LVU97
 290 00f8 05F10043 		add	r3, r5, #-2147483648
 291              	.LVL39:
 292              		.loc 1 750 43 view .LVU98
 293 00fc 013B     		subs	r3, r3, #1
 294 00fe 34F81300 		ldrh	r0, [r4, r3, lsl #1]
 295              		.loc 1 750 71 view .LVU99
 296 0102 36F81330 		ldrh	r3, [r6, r3, lsl #1]
 297              		.loc 1 750 59 view .LVU100
 298 0106 1844     		add	r0, r0, r3
 299 0108 80B2     		uxth	r0, r0
 300              		.loc 1 750 98 view .LVU101
 301 010a 2388     		ldrh	r3, [r4]
 302              		.loc 1 750 87 view .LVU102
 303 010c C01A     		subs	r0, r0, r3
 304              		.loc 1 750 16 view .LVU103
 305 010e 00B2     		sxth	r0, r0
 306              	.LVL40:
 751:lvgl/src/extra/layouts/grid/lv_grid.c **** 
 752:lvgl/src/extra/layouts/grid/lv_grid.c ****     if(reverse) {
 307              		.loc 1 752 5 is_stmt 1 view .LVU104
 308              		.loc 1 752 7 is_stmt 0 view .LVU105
 309 0110 0FB9     		cbnz	r7, .L20
 310              	.L17:
 753:lvgl/src/extra/layouts/grid/lv_grid.c ****         for(i = 0; i < track_num; i++) {
 754:lvgl/src/extra/layouts/grid/lv_grid.c ****             pos_array[i] = cont_size - pos_array[i] - size_array[i];
ARM GAS  /var/folders/21/t9g5rlb91ys800n5npymflf80000gn/T//cce6JCY2.s 			page 21


 755:lvgl/src/extra/layouts/grid/lv_grid.c ****         }
 756:lvgl/src/extra/layouts/grid/lv_grid.c **** 
 757:lvgl/src/extra/layouts/grid/lv_grid.c ****     }
 758:lvgl/src/extra/layouts/grid/lv_grid.c **** 
 759:lvgl/src/extra/layouts/grid/lv_grid.c ****     /*Return the full size of the grid*/
 760:lvgl/src/extra/layouts/grid/lv_grid.c ****     return total_gird_size;
 311              		.loc 1 760 5 is_stmt 1 view .LVU106
 761:lvgl/src/extra/layouts/grid/lv_grid.c **** }
 312              		.loc 1 761 1 is_stmt 0 view .LVU107
 313 0112 BDE8F081 		pop	{r4, r5, r6, r7, r8, pc}
 314              	.LVL41:
 315              	.L20:
 753:lvgl/src/extra/layouts/grid/lv_grid.c ****         for(i = 0; i < track_num; i++) {
 316              		.loc 1 753 15 view .LVU108
 317 0116 0022     		movs	r2, #0
 318              	.LVL42:
 319              	.L16:
 753:lvgl/src/extra/layouts/grid/lv_grid.c ****         for(i = 0; i < track_num; i++) {
 320              		.loc 1 753 22 is_stmt 1 discriminator 1 view .LVU109
 321 0118 AA42     		cmp	r2, r5
 322 011a FAD2     		bcs	.L17
 754:lvgl/src/extra/layouts/grid/lv_grid.c ****         }
 323              		.loc 1 754 13 discriminator 3 view .LVU110
 754:lvgl/src/extra/layouts/grid/lv_grid.c ****         }
 324              		.loc 1 754 49 is_stmt 0 discriminator 3 view .LVU111
 325 011c 34F81230 		ldrh	r3, [r4, r2, lsl #1]
 754:lvgl/src/extra/layouts/grid/lv_grid.c ****         }
 326              		.loc 1 754 38 discriminator 3 view .LVU112
 327 0120 ACEB0303 		sub	r3, ip, r3
 328 0124 9BB2     		uxth	r3, r3
 754:lvgl/src/extra/layouts/grid/lv_grid.c ****         }
 329              		.loc 1 754 65 discriminator 3 view .LVU113
 330 0126 36F81210 		ldrh	r1, [r6, r2, lsl #1]
 754:lvgl/src/extra/layouts/grid/lv_grid.c ****         }
 331              		.loc 1 754 53 discriminator 3 view .LVU114
 332 012a 5B1A     		subs	r3, r3, r1
 754:lvgl/src/extra/layouts/grid/lv_grid.c ****         }
 333              		.loc 1 754 26 discriminator 3 view .LVU115
 334 012c 24F81230 		strh	r3, [r4, r2, lsl #1]	@ movhi
 753:lvgl/src/extra/layouts/grid/lv_grid.c ****         for(i = 0; i < track_num; i++) {
 335              		.loc 1 753 36 is_stmt 1 discriminator 3 view .LVU116
 336 0130 0132     		adds	r2, r2, #1
 337              	.LVL43:
 753:lvgl/src/extra/layouts/grid/lv_grid.c ****         for(i = 0; i < track_num; i++) {
 338              		.loc 1 753 36 is_stmt 0 discriminator 3 view .LVU117
 339 0132 F1E7     		b	.L16
 340              		.cfi_endproc
 341              	.LFE217:
 343              		.section	.text.count_tracks,"ax",%progbits
 344              		.align	1
 345              		.syntax unified
 346              		.thumb
 347              		.thumb_func
 349              	count_tracks:
 350              	.LVL44:
 351              	.LFB218:
 762:lvgl/src/extra/layouts/grid/lv_grid.c **** 
ARM GAS  /var/folders/21/t9g5rlb91ys800n5npymflf80000gn/T//cce6JCY2.s 			page 22


 763:lvgl/src/extra/layouts/grid/lv_grid.c **** static uint32_t count_tracks(const lv_coord_t * templ)
 764:lvgl/src/extra/layouts/grid/lv_grid.c **** {
 352              		.loc 1 764 1 is_stmt 1 view -0
 353              		.cfi_startproc
 354              		@ args = 0, pretend = 0, frame = 0
 355              		@ frame_needed = 0, uses_anonymous_args = 0
 356              		@ link register save eliminated.
 357              		.loc 1 764 1 is_stmt 0 view .LVU119
 358 0000 0146     		mov	r1, r0
 765:lvgl/src/extra/layouts/grid/lv_grid.c ****     uint32_t i;
 359              		.loc 1 765 5 is_stmt 1 view .LVU120
 766:lvgl/src/extra/layouts/grid/lv_grid.c ****     for(i = 0; templ[i] != LV_GRID_TEMPLATE_LAST; i++);
 360              		.loc 1 766 5 view .LVU121
 361              	.LVL45:
 362              		.loc 1 766 11 is_stmt 0 view .LVU122
 363 0002 0020     		movs	r0, #0
 364              	.LVL46:
 365              		.loc 1 766 5 view .LVU123
 366 0004 00E0     		b	.L25
 367              	.LVL47:
 368              	.L26:
 369              		.loc 1 766 52 is_stmt 1 discriminator 3 view .LVU124
 370 0006 0130     		adds	r0, r0, #1
 371              	.LVL48:
 372              	.L25:
 373              		.loc 1 766 25 discriminator 1 view .LVU125
 374              		.loc 1 766 21 is_stmt 0 discriminator 1 view .LVU126
 375 0008 31F91020 		ldrsh	r2, [r1, r0, lsl #1]
 376              		.loc 1 766 25 discriminator 1 view .LVU127
 377 000c 41F6FF73 		movw	r3, #8191
 378 0010 9A42     		cmp	r2, r3
 379 0012 F8D1     		bne	.L26
 767:lvgl/src/extra/layouts/grid/lv_grid.c **** 
 768:lvgl/src/extra/layouts/grid/lv_grid.c ****     return i;
 380              		.loc 1 768 5 is_stmt 1 view .LVU128
 769:lvgl/src/extra/layouts/grid/lv_grid.c **** }
 381              		.loc 1 769 1 is_stmt 0 view .LVU129
 382 0014 7047     		bx	lr
 383              		.cfi_endproc
 384              	.LFE218:
 386              		.section	.text.get_col_dsc,"ax",%progbits
 387              		.align	1
 388              		.syntax unified
 389              		.thumb
 390              		.thumb_func
 392              	get_col_dsc:
 393              	.LVL49:
 394              	.LFB177:
  61:lvgl/src/extra/layouts/grid/lv_grid.c ****     return lv_obj_get_style_grid_column_dsc_array(obj, 0);
 395              		.loc 1 61 1 is_stmt 1 view -0
 396              		.cfi_startproc
 397              		@ args = 0, pretend = 0, frame = 0
 398              		@ frame_needed = 0, uses_anonymous_args = 0
  61:lvgl/src/extra/layouts/grid/lv_grid.c ****     return lv_obj_get_style_grid_column_dsc_array(obj, 0);
 399              		.loc 1 61 1 is_stmt 0 view .LVU131
 400 0000 08B5     		push	{r3, lr}
 401              	.LCFI1:
ARM GAS  /var/folders/21/t9g5rlb91ys800n5npymflf80000gn/T//cce6JCY2.s 			page 23


 402              		.cfi_def_cfa_offset 8
 403              		.cfi_offset 3, -8
 404              		.cfi_offset 14, -4
  62:lvgl/src/extra/layouts/grid/lv_grid.c **** }
 405              		.loc 1 62 5 is_stmt 1 view .LVU132
 406              	.LVL50:
 407              	.LBB72:
 408              	.LBI72:
 409              		.file 2 "lvgl/src/extra/layouts/grid/../grid/lv_grid.h"
   1:lvgl/src/extra/layouts/grid/../grid/lv_grid.h **** /**
   2:lvgl/src/extra/layouts/grid/../grid/lv_grid.h ****  * @file lv_grid.h
   3:lvgl/src/extra/layouts/grid/../grid/lv_grid.h ****  *
   4:lvgl/src/extra/layouts/grid/../grid/lv_grid.h ****  */
   5:lvgl/src/extra/layouts/grid/../grid/lv_grid.h **** 
   6:lvgl/src/extra/layouts/grid/../grid/lv_grid.h **** #ifndef LV_GRID_H
   7:lvgl/src/extra/layouts/grid/../grid/lv_grid.h **** #define LV_GRID_H
   8:lvgl/src/extra/layouts/grid/../grid/lv_grid.h **** 
   9:lvgl/src/extra/layouts/grid/../grid/lv_grid.h **** #ifdef __cplusplus
  10:lvgl/src/extra/layouts/grid/../grid/lv_grid.h **** extern "C" {
  11:lvgl/src/extra/layouts/grid/../grid/lv_grid.h **** #endif
  12:lvgl/src/extra/layouts/grid/../grid/lv_grid.h **** 
  13:lvgl/src/extra/layouts/grid/../grid/lv_grid.h **** /*********************
  14:lvgl/src/extra/layouts/grid/../grid/lv_grid.h ****  *      INCLUDES
  15:lvgl/src/extra/layouts/grid/../grid/lv_grid.h ****  *********************/
  16:lvgl/src/extra/layouts/grid/../grid/lv_grid.h **** #include "../../../core/lv_obj.h"
  17:lvgl/src/extra/layouts/grid/../grid/lv_grid.h **** #if LV_USE_GRID
  18:lvgl/src/extra/layouts/grid/../grid/lv_grid.h **** 
  19:lvgl/src/extra/layouts/grid/../grid/lv_grid.h **** /*********************
  20:lvgl/src/extra/layouts/grid/../grid/lv_grid.h ****  *      DEFINES
  21:lvgl/src/extra/layouts/grid/../grid/lv_grid.h ****  *********************/
  22:lvgl/src/extra/layouts/grid/../grid/lv_grid.h **** /**
  23:lvgl/src/extra/layouts/grid/../grid/lv_grid.h ****  * Can be used track size to make the track fill the free space.
  24:lvgl/src/extra/layouts/grid/../grid/lv_grid.h ****  * @param x how much space to take proportionally to other FR tracks
  25:lvgl/src/extra/layouts/grid/../grid/lv_grid.h ****  * @return a special track size
  26:lvgl/src/extra/layouts/grid/../grid/lv_grid.h ****  */
  27:lvgl/src/extra/layouts/grid/../grid/lv_grid.h **** #define LV_GRID_FR(x)          (LV_COORD_MAX - 100 + x)
  28:lvgl/src/extra/layouts/grid/../grid/lv_grid.h **** 
  29:lvgl/src/extra/layouts/grid/../grid/lv_grid.h **** #define LV_GRID_CONTENT        (LV_COORD_MAX - 101)
  30:lvgl/src/extra/layouts/grid/../grid/lv_grid.h **** LV_EXPORT_CONST_INT(LV_GRID_CONTENT);
  31:lvgl/src/extra/layouts/grid/../grid/lv_grid.h **** 
  32:lvgl/src/extra/layouts/grid/../grid/lv_grid.h **** #define LV_GRID_TEMPLATE_LAST  (LV_COORD_MAX)
  33:lvgl/src/extra/layouts/grid/../grid/lv_grid.h **** LV_EXPORT_CONST_INT(LV_GRID_TEMPLATE_LAST);
  34:lvgl/src/extra/layouts/grid/../grid/lv_grid.h **** 
  35:lvgl/src/extra/layouts/grid/../grid/lv_grid.h **** /**********************
  36:lvgl/src/extra/layouts/grid/../grid/lv_grid.h ****  *      TYPEDEFS
  37:lvgl/src/extra/layouts/grid/../grid/lv_grid.h ****  **********************/
  38:lvgl/src/extra/layouts/grid/../grid/lv_grid.h **** 
  39:lvgl/src/extra/layouts/grid/../grid/lv_grid.h **** /*Can't include lv_obj.h because it includes this header file*/
  40:lvgl/src/extra/layouts/grid/../grid/lv_grid.h **** struct _lv_obj_t;
  41:lvgl/src/extra/layouts/grid/../grid/lv_grid.h **** 
  42:lvgl/src/extra/layouts/grid/../grid/lv_grid.h **** typedef enum {
  43:lvgl/src/extra/layouts/grid/../grid/lv_grid.h ****     LV_GRID_ALIGN_START,
  44:lvgl/src/extra/layouts/grid/../grid/lv_grid.h ****     LV_GRID_ALIGN_CENTER,
  45:lvgl/src/extra/layouts/grid/../grid/lv_grid.h ****     LV_GRID_ALIGN_END,
  46:lvgl/src/extra/layouts/grid/../grid/lv_grid.h ****     LV_GRID_ALIGN_STRETCH,
  47:lvgl/src/extra/layouts/grid/../grid/lv_grid.h ****     LV_GRID_ALIGN_SPACE_EVENLY,
  48:lvgl/src/extra/layouts/grid/../grid/lv_grid.h ****     LV_GRID_ALIGN_SPACE_AROUND,
ARM GAS  /var/folders/21/t9g5rlb91ys800n5npymflf80000gn/T//cce6JCY2.s 			page 24


  49:lvgl/src/extra/layouts/grid/../grid/lv_grid.h ****     LV_GRID_ALIGN_SPACE_BETWEEN,
  50:lvgl/src/extra/layouts/grid/../grid/lv_grid.h **** } lv_grid_align_t;
  51:lvgl/src/extra/layouts/grid/../grid/lv_grid.h **** 
  52:lvgl/src/extra/layouts/grid/../grid/lv_grid.h **** /**********************
  53:lvgl/src/extra/layouts/grid/../grid/lv_grid.h ****  * GLOBAL VARIABLES
  54:lvgl/src/extra/layouts/grid/../grid/lv_grid.h ****  **********************/
  55:lvgl/src/extra/layouts/grid/../grid/lv_grid.h **** 
  56:lvgl/src/extra/layouts/grid/../grid/lv_grid.h **** extern uint16_t LV_LAYOUT_GRID;
  57:lvgl/src/extra/layouts/grid/../grid/lv_grid.h **** extern lv_style_prop_t LV_STYLE_GRID_COLUMN_DSC_ARRAY;
  58:lvgl/src/extra/layouts/grid/../grid/lv_grid.h **** extern lv_style_prop_t LV_STYLE_GRID_COLUMN_ALIGN;
  59:lvgl/src/extra/layouts/grid/../grid/lv_grid.h **** extern lv_style_prop_t LV_STYLE_GRID_ROW_DSC_ARRAY;
  60:lvgl/src/extra/layouts/grid/../grid/lv_grid.h **** extern lv_style_prop_t LV_STYLE_GRID_ROW_ALIGN;
  61:lvgl/src/extra/layouts/grid/../grid/lv_grid.h **** extern lv_style_prop_t LV_STYLE_GRID_CELL_COLUMN_POS;
  62:lvgl/src/extra/layouts/grid/../grid/lv_grid.h **** extern lv_style_prop_t LV_STYLE_GRID_CELL_COLUMN_SPAN;
  63:lvgl/src/extra/layouts/grid/../grid/lv_grid.h **** extern lv_style_prop_t LV_STYLE_GRID_CELL_X_ALIGN;
  64:lvgl/src/extra/layouts/grid/../grid/lv_grid.h **** extern lv_style_prop_t LV_STYLE_GRID_CELL_ROW_POS;
  65:lvgl/src/extra/layouts/grid/../grid/lv_grid.h **** extern lv_style_prop_t LV_STYLE_GRID_CELL_ROW_SPAN;
  66:lvgl/src/extra/layouts/grid/../grid/lv_grid.h **** extern lv_style_prop_t LV_STYLE_GRID_CELL_Y_ALIGN;
  67:lvgl/src/extra/layouts/grid/../grid/lv_grid.h **** 
  68:lvgl/src/extra/layouts/grid/../grid/lv_grid.h **** /**********************
  69:lvgl/src/extra/layouts/grid/../grid/lv_grid.h ****  * GLOBAL PROTOTYPES
  70:lvgl/src/extra/layouts/grid/../grid/lv_grid.h ****  **********************/
  71:lvgl/src/extra/layouts/grid/../grid/lv_grid.h **** 
  72:lvgl/src/extra/layouts/grid/../grid/lv_grid.h **** void lv_grid_init(void);
  73:lvgl/src/extra/layouts/grid/../grid/lv_grid.h **** 
  74:lvgl/src/extra/layouts/grid/../grid/lv_grid.h **** void lv_obj_set_grid_dsc_array(lv_obj_t * obj, const lv_coord_t col_dsc[], const lv_coord_t row_dsc
  75:lvgl/src/extra/layouts/grid/../grid/lv_grid.h **** 
  76:lvgl/src/extra/layouts/grid/../grid/lv_grid.h **** void lv_obj_set_grid_align(lv_obj_t * obj, lv_grid_align_t column_align, lv_grid_align_t row_align)
  77:lvgl/src/extra/layouts/grid/../grid/lv_grid.h **** 
  78:lvgl/src/extra/layouts/grid/../grid/lv_grid.h **** /**
  79:lvgl/src/extra/layouts/grid/../grid/lv_grid.h ****  * Set the cell of an object. The object's parent needs to have grid layout, else nothing will happ
  80:lvgl/src/extra/layouts/grid/../grid/lv_grid.h ****  * @param obj pointer to an object
  81:lvgl/src/extra/layouts/grid/../grid/lv_grid.h ****  * @param column_align the vertical alignment in the cell. `LV_GRID_START/END/CENTER/STRETCH`
  82:lvgl/src/extra/layouts/grid/../grid/lv_grid.h ****  * @param col_pos column ID
  83:lvgl/src/extra/layouts/grid/../grid/lv_grid.h ****  * @param col_span number of columns to take (>= 1)
  84:lvgl/src/extra/layouts/grid/../grid/lv_grid.h ****  * @param row_align the horizontal alignment in the cell. `LV_GRID_START/END/CENTER/STRETCH`
  85:lvgl/src/extra/layouts/grid/../grid/lv_grid.h ****  * @param row_pos row ID
  86:lvgl/src/extra/layouts/grid/../grid/lv_grid.h ****  * @param row_span number of rows to take (>= 1)
  87:lvgl/src/extra/layouts/grid/../grid/lv_grid.h ****  */
  88:lvgl/src/extra/layouts/grid/../grid/lv_grid.h **** void lv_obj_set_grid_cell(lv_obj_t * obj, lv_grid_align_t column_align, uint8_t col_pos, uint8_t co
  89:lvgl/src/extra/layouts/grid/../grid/lv_grid.h ****                           lv_grid_align_t row_align, uint8_t row_pos, uint8_t row_span);
  90:lvgl/src/extra/layouts/grid/../grid/lv_grid.h **** 
  91:lvgl/src/extra/layouts/grid/../grid/lv_grid.h **** /**
  92:lvgl/src/extra/layouts/grid/../grid/lv_grid.h ****  * Just a wrapper to `LV_GRID_FR` for bindings.
  93:lvgl/src/extra/layouts/grid/../grid/lv_grid.h ****  */
  94:lvgl/src/extra/layouts/grid/../grid/lv_grid.h **** static inline lv_coord_t lv_grid_fr(uint8_t x)
  95:lvgl/src/extra/layouts/grid/../grid/lv_grid.h **** {
  96:lvgl/src/extra/layouts/grid/../grid/lv_grid.h ****     return LV_GRID_FR(x);
  97:lvgl/src/extra/layouts/grid/../grid/lv_grid.h **** }
  98:lvgl/src/extra/layouts/grid/../grid/lv_grid.h **** 
  99:lvgl/src/extra/layouts/grid/../grid/lv_grid.h **** void lv_style_set_grid_row_dsc_array(lv_style_t * style, const lv_coord_t value[]);
 100:lvgl/src/extra/layouts/grid/../grid/lv_grid.h **** void lv_style_set_grid_column_dsc_array(lv_style_t * style, const lv_coord_t value[]);
 101:lvgl/src/extra/layouts/grid/../grid/lv_grid.h **** void lv_style_set_grid_row_align(lv_style_t * style, lv_grid_align_t value);
 102:lvgl/src/extra/layouts/grid/../grid/lv_grid.h **** void lv_style_set_grid_column_align(lv_style_t * style, lv_grid_align_t value);
 103:lvgl/src/extra/layouts/grid/../grid/lv_grid.h **** void lv_style_set_grid_cell_column_pos(lv_style_t * style, lv_coord_t value);
 104:lvgl/src/extra/layouts/grid/../grid/lv_grid.h **** void lv_style_set_grid_cell_column_span(lv_style_t * style, lv_coord_t value);
 105:lvgl/src/extra/layouts/grid/../grid/lv_grid.h **** void lv_style_set_grid_cell_row_pos(lv_style_t * style, lv_coord_t value);
ARM GAS  /var/folders/21/t9g5rlb91ys800n5npymflf80000gn/T//cce6JCY2.s 			page 25


 106:lvgl/src/extra/layouts/grid/../grid/lv_grid.h **** void lv_style_set_grid_cell_row_span(lv_style_t * style, lv_coord_t value);
 107:lvgl/src/extra/layouts/grid/../grid/lv_grid.h **** void lv_style_set_grid_cell_x_align(lv_style_t * style, lv_coord_t value);
 108:lvgl/src/extra/layouts/grid/../grid/lv_grid.h **** void lv_style_set_grid_cell_y_align(lv_style_t * style, lv_coord_t value);
 109:lvgl/src/extra/layouts/grid/../grid/lv_grid.h **** 
 110:lvgl/src/extra/layouts/grid/../grid/lv_grid.h **** void lv_obj_set_style_grid_row_dsc_array(lv_obj_t * obj, const lv_coord_t value[], lv_style_selecto
 111:lvgl/src/extra/layouts/grid/../grid/lv_grid.h **** void lv_obj_set_style_grid_column_dsc_array(lv_obj_t * obj, const lv_coord_t value[], lv_style_sele
 112:lvgl/src/extra/layouts/grid/../grid/lv_grid.h **** void lv_obj_set_style_grid_row_align(lv_obj_t * obj, lv_grid_align_t value, lv_style_selector_t sel
 113:lvgl/src/extra/layouts/grid/../grid/lv_grid.h **** void lv_obj_set_style_grid_column_align(lv_obj_t * obj, lv_grid_align_t value, lv_style_selector_t 
 114:lvgl/src/extra/layouts/grid/../grid/lv_grid.h **** void lv_obj_set_style_grid_cell_column_pos(lv_obj_t * obj, lv_coord_t value, lv_style_selector_t se
 115:lvgl/src/extra/layouts/grid/../grid/lv_grid.h **** void lv_obj_set_style_grid_cell_column_span(lv_obj_t * obj, lv_coord_t value, lv_style_selector_t s
 116:lvgl/src/extra/layouts/grid/../grid/lv_grid.h **** void lv_obj_set_style_grid_cell_row_pos(lv_obj_t * obj, lv_coord_t value, lv_style_selector_t selec
 117:lvgl/src/extra/layouts/grid/../grid/lv_grid.h **** void lv_obj_set_style_grid_cell_row_span(lv_obj_t * obj, lv_coord_t value, lv_style_selector_t sele
 118:lvgl/src/extra/layouts/grid/../grid/lv_grid.h **** void lv_obj_set_style_grid_cell_x_align(lv_obj_t * obj, lv_coord_t value, lv_style_selector_t selec
 119:lvgl/src/extra/layouts/grid/../grid/lv_grid.h **** void lv_obj_set_style_grid_cell_y_align(lv_obj_t * obj, lv_coord_t value, lv_style_selector_t selec
 120:lvgl/src/extra/layouts/grid/../grid/lv_grid.h **** 
 121:lvgl/src/extra/layouts/grid/../grid/lv_grid.h **** static inline const lv_coord_t * lv_obj_get_style_grid_row_dsc_array(const lv_obj_t * obj, uint32_t
 122:lvgl/src/extra/layouts/grid/../grid/lv_grid.h **** {
 123:lvgl/src/extra/layouts/grid/../grid/lv_grid.h ****     lv_style_value_t v = lv_obj_get_style_prop(obj, part, LV_STYLE_GRID_ROW_DSC_ARRAY);
 124:lvgl/src/extra/layouts/grid/../grid/lv_grid.h ****     return (const lv_coord_t *)v.ptr;
 125:lvgl/src/extra/layouts/grid/../grid/lv_grid.h **** }
 126:lvgl/src/extra/layouts/grid/../grid/lv_grid.h **** 
 127:lvgl/src/extra/layouts/grid/../grid/lv_grid.h **** static inline const lv_coord_t * lv_obj_get_style_grid_column_dsc_array(const lv_obj_t * obj, uint3
 410              		.loc 2 127 34 view .LVU133
 411              	.LBB73:
 128:lvgl/src/extra/layouts/grid/../grid/lv_grid.h **** {
 129:lvgl/src/extra/layouts/grid/../grid/lv_grid.h ****     lv_style_value_t v = lv_obj_get_style_prop(obj, part, LV_STYLE_GRID_COLUMN_DSC_ARRAY);
 412              		.loc 2 129 5 view .LVU134
 413              		.loc 2 129 26 is_stmt 0 view .LVU135
 414 0002 034B     		ldr	r3, .L29
 415 0004 1A88     		ldrh	r2, [r3]
 416 0006 0021     		movs	r1, #0
 417 0008 FFF7FEFF 		bl	lv_obj_get_style_prop
 418              	.LVL51:
 130:lvgl/src/extra/layouts/grid/../grid/lv_grid.h ****     return (const lv_coord_t *)v.ptr;
 419              		.loc 2 130 5 is_stmt 1 view .LVU136
 420              		.loc 2 130 5 is_stmt 0 view .LVU137
 421              	.LBE73:
 422              	.LBE72:
  63:lvgl/src/extra/layouts/grid/lv_grid.c **** static inline const lv_coord_t * get_row_dsc(lv_obj_t * obj)
 423              		.loc 1 63 1 view .LVU138
 424 000c 08BD     		pop	{r3, pc}
 425              	.L30:
 426 000e 00BF     		.align	2
 427              	.L29:
 428 0010 00000000 		.word	LV_STYLE_GRID_COLUMN_DSC_ARRAY
 429              		.cfi_endproc
 430              	.LFE177:
 432              		.section	.text.get_row_dsc,"ax",%progbits
 433              		.align	1
 434              		.syntax unified
 435              		.thumb
 436              		.thumb_func
 438              	get_row_dsc:
 439              	.LVL52:
 440              	.LFB178:
  65:lvgl/src/extra/layouts/grid/lv_grid.c ****     return lv_obj_get_style_grid_row_dsc_array(obj, 0);
 441              		.loc 1 65 1 is_stmt 1 view -0
ARM GAS  /var/folders/21/t9g5rlb91ys800n5npymflf80000gn/T//cce6JCY2.s 			page 26


 442              		.cfi_startproc
 443              		@ args = 0, pretend = 0, frame = 0
 444              		@ frame_needed = 0, uses_anonymous_args = 0
  65:lvgl/src/extra/layouts/grid/lv_grid.c ****     return lv_obj_get_style_grid_row_dsc_array(obj, 0);
 445              		.loc 1 65 1 is_stmt 0 view .LVU140
 446 0000 08B5     		push	{r3, lr}
 447              	.LCFI2:
 448              		.cfi_def_cfa_offset 8
 449              		.cfi_offset 3, -8
 450              		.cfi_offset 14, -4
  66:lvgl/src/extra/layouts/grid/lv_grid.c **** }
 451              		.loc 1 66 5 is_stmt 1 view .LVU141
 452              	.LVL53:
 453              	.LBB74:
 454              	.LBI74:
 121:lvgl/src/extra/layouts/grid/../grid/lv_grid.h **** {
 455              		.loc 2 121 34 view .LVU142
 456              	.LBB75:
 123:lvgl/src/extra/layouts/grid/../grid/lv_grid.h ****     return (const lv_coord_t *)v.ptr;
 457              		.loc 2 123 5 view .LVU143
 123:lvgl/src/extra/layouts/grid/../grid/lv_grid.h ****     return (const lv_coord_t *)v.ptr;
 458              		.loc 2 123 26 is_stmt 0 view .LVU144
 459 0002 034B     		ldr	r3, .L33
 460 0004 1A88     		ldrh	r2, [r3]
 461 0006 0021     		movs	r1, #0
 462 0008 FFF7FEFF 		bl	lv_obj_get_style_prop
 463              	.LVL54:
 124:lvgl/src/extra/layouts/grid/../grid/lv_grid.h **** }
 464              		.loc 2 124 5 is_stmt 1 view .LVU145
 124:lvgl/src/extra/layouts/grid/../grid/lv_grid.h **** }
 465              		.loc 2 124 5 is_stmt 0 view .LVU146
 466              	.LBE75:
 467              	.LBE74:
  67:lvgl/src/extra/layouts/grid/lv_grid.c **** static inline uint8_t get_col_pos(lv_obj_t * obj)
 468              		.loc 1 67 1 view .LVU147
 469 000c 08BD     		pop	{r3, pc}
 470              	.L34:
 471 000e 00BF     		.align	2
 472              	.L33:
 473 0010 00000000 		.word	LV_STYLE_GRID_ROW_DSC_ARRAY
 474              		.cfi_endproc
 475              	.LFE178:
 477              		.section	.text.get_row_span,"ax",%progbits
 478              		.align	1
 479              		.syntax unified
 480              		.thumb
 481              		.thumb_func
 483              	get_row_span:
 484              	.LVL55:
 485              	.LFB182:
  81:lvgl/src/extra/layouts/grid/lv_grid.c ****     return lv_obj_get_style_grid_cell_row_span(obj, 0);
 486              		.loc 1 81 1 is_stmt 1 view -0
 487              		.cfi_startproc
 488              		@ args = 0, pretend = 0, frame = 0
 489              		@ frame_needed = 0, uses_anonymous_args = 0
  81:lvgl/src/extra/layouts/grid/lv_grid.c ****     return lv_obj_get_style_grid_cell_row_span(obj, 0);
 490              		.loc 1 81 1 is_stmt 0 view .LVU149
ARM GAS  /var/folders/21/t9g5rlb91ys800n5npymflf80000gn/T//cce6JCY2.s 			page 27


 491 0000 08B5     		push	{r3, lr}
 492              	.LCFI3:
 493              		.cfi_def_cfa_offset 8
 494              		.cfi_offset 3, -8
 495              		.cfi_offset 14, -4
  82:lvgl/src/extra/layouts/grid/lv_grid.c **** }
 496              		.loc 1 82 5 is_stmt 1 view .LVU150
 497              	.LVL56:
 498              	.LBB76:
 499              	.LBI76:
 131:lvgl/src/extra/layouts/grid/../grid/lv_grid.h **** }
 132:lvgl/src/extra/layouts/grid/../grid/lv_grid.h **** 
 133:lvgl/src/extra/layouts/grid/../grid/lv_grid.h **** static inline lv_grid_align_t lv_obj_get_style_grid_row_align(const lv_obj_t * obj, uint32_t part)
 134:lvgl/src/extra/layouts/grid/../grid/lv_grid.h **** {
 135:lvgl/src/extra/layouts/grid/../grid/lv_grid.h ****     lv_style_value_t v = lv_obj_get_style_prop(obj, part, LV_STYLE_GRID_ROW_ALIGN);
 136:lvgl/src/extra/layouts/grid/../grid/lv_grid.h ****     return (lv_grid_align_t)v.num;
 137:lvgl/src/extra/layouts/grid/../grid/lv_grid.h **** }
 138:lvgl/src/extra/layouts/grid/../grid/lv_grid.h **** 
 139:lvgl/src/extra/layouts/grid/../grid/lv_grid.h **** static inline lv_grid_align_t lv_obj_get_style_grid_column_align(const lv_obj_t * obj, uint32_t par
 140:lvgl/src/extra/layouts/grid/../grid/lv_grid.h **** {
 141:lvgl/src/extra/layouts/grid/../grid/lv_grid.h ****     lv_style_value_t v = lv_obj_get_style_prop(obj, part, LV_STYLE_GRID_COLUMN_ALIGN);
 142:lvgl/src/extra/layouts/grid/../grid/lv_grid.h ****     return (lv_grid_align_t)v.num;
 143:lvgl/src/extra/layouts/grid/../grid/lv_grid.h **** }
 144:lvgl/src/extra/layouts/grid/../grid/lv_grid.h **** 
 145:lvgl/src/extra/layouts/grid/../grid/lv_grid.h **** static inline lv_coord_t lv_obj_get_style_grid_cell_column_pos(const lv_obj_t * obj, uint32_t part)
 146:lvgl/src/extra/layouts/grid/../grid/lv_grid.h **** {
 147:lvgl/src/extra/layouts/grid/../grid/lv_grid.h ****     lv_style_value_t v = lv_obj_get_style_prop(obj, part, LV_STYLE_GRID_CELL_COLUMN_POS);
 148:lvgl/src/extra/layouts/grid/../grid/lv_grid.h ****     return (lv_coord_t)v.num;
 149:lvgl/src/extra/layouts/grid/../grid/lv_grid.h **** }
 150:lvgl/src/extra/layouts/grid/../grid/lv_grid.h **** 
 151:lvgl/src/extra/layouts/grid/../grid/lv_grid.h **** static inline lv_coord_t lv_obj_get_style_grid_cell_column_span(const lv_obj_t * obj, uint32_t part
 152:lvgl/src/extra/layouts/grid/../grid/lv_grid.h **** {
 153:lvgl/src/extra/layouts/grid/../grid/lv_grid.h ****     lv_style_value_t v = lv_obj_get_style_prop(obj, part, LV_STYLE_GRID_CELL_COLUMN_SPAN);
 154:lvgl/src/extra/layouts/grid/../grid/lv_grid.h ****     return (lv_coord_t)v.num;
 155:lvgl/src/extra/layouts/grid/../grid/lv_grid.h **** }
 156:lvgl/src/extra/layouts/grid/../grid/lv_grid.h **** 
 157:lvgl/src/extra/layouts/grid/../grid/lv_grid.h **** static inline lv_coord_t lv_obj_get_style_grid_cell_row_pos(const lv_obj_t * obj, uint32_t part)
 158:lvgl/src/extra/layouts/grid/../grid/lv_grid.h **** {
 159:lvgl/src/extra/layouts/grid/../grid/lv_grid.h ****     lv_style_value_t v = lv_obj_get_style_prop(obj, part, LV_STYLE_GRID_CELL_ROW_POS);
 160:lvgl/src/extra/layouts/grid/../grid/lv_grid.h ****     return (lv_coord_t)v.num;
 161:lvgl/src/extra/layouts/grid/../grid/lv_grid.h **** }
 162:lvgl/src/extra/layouts/grid/../grid/lv_grid.h **** 
 163:lvgl/src/extra/layouts/grid/../grid/lv_grid.h **** static inline lv_coord_t lv_obj_get_style_grid_cell_row_span(const lv_obj_t * obj, uint32_t part)
 500              		.loc 2 163 26 view .LVU151
 501              	.LBB77:
 164:lvgl/src/extra/layouts/grid/../grid/lv_grid.h **** {
 165:lvgl/src/extra/layouts/grid/../grid/lv_grid.h ****     lv_style_value_t v = lv_obj_get_style_prop(obj, part, LV_STYLE_GRID_CELL_ROW_SPAN);
 502              		.loc 2 165 5 view .LVU152
 503              		.loc 2 165 26 is_stmt 0 view .LVU153
 504 0002 034B     		ldr	r3, .L37
 505 0004 1A88     		ldrh	r2, [r3]
 506 0006 0021     		movs	r1, #0
 507 0008 FFF7FEFF 		bl	lv_obj_get_style_prop
 508              	.LVL57:
 166:lvgl/src/extra/layouts/grid/../grid/lv_grid.h ****     return (lv_coord_t)v.num;
 509              		.loc 2 166 5 is_stmt 1 view .LVU154
 510              		.loc 2 166 5 is_stmt 0 view .LVU155
ARM GAS  /var/folders/21/t9g5rlb91ys800n5npymflf80000gn/T//cce6JCY2.s 			page 28


 511              	.LBE77:
 512              	.LBE76:
  83:lvgl/src/extra/layouts/grid/lv_grid.c **** static inline uint8_t get_cell_col_align(lv_obj_t * obj)
 513              		.loc 1 83 1 view .LVU156
 514 000c C0B2     		uxtb	r0, r0
 515 000e 08BD     		pop	{r3, pc}
 516              	.L38:
 517              		.align	2
 518              	.L37:
 519 0010 00000000 		.word	LV_STYLE_GRID_CELL_ROW_SPAN
 520              		.cfi_endproc
 521              	.LFE182:
 523              		.section	.text.get_row_pos,"ax",%progbits
 524              		.align	1
 525              		.syntax unified
 526              		.thumb
 527              		.thumb_func
 529              	get_row_pos:
 530              	.LVL58:
 531              	.LFB180:
  73:lvgl/src/extra/layouts/grid/lv_grid.c ****     return lv_obj_get_style_grid_cell_row_pos(obj, 0);
 532              		.loc 1 73 1 is_stmt 1 view -0
 533              		.cfi_startproc
 534              		@ args = 0, pretend = 0, frame = 0
 535              		@ frame_needed = 0, uses_anonymous_args = 0
  73:lvgl/src/extra/layouts/grid/lv_grid.c ****     return lv_obj_get_style_grid_cell_row_pos(obj, 0);
 536              		.loc 1 73 1 is_stmt 0 view .LVU158
 537 0000 08B5     		push	{r3, lr}
 538              	.LCFI4:
 539              		.cfi_def_cfa_offset 8
 540              		.cfi_offset 3, -8
 541              		.cfi_offset 14, -4
  74:lvgl/src/extra/layouts/grid/lv_grid.c **** }
 542              		.loc 1 74 5 is_stmt 1 view .LVU159
 543              	.LVL59:
 544              	.LBB78:
 545              	.LBI78:
 157:lvgl/src/extra/layouts/grid/../grid/lv_grid.h **** {
 546              		.loc 2 157 26 view .LVU160
 547              	.LBB79:
 159:lvgl/src/extra/layouts/grid/../grid/lv_grid.h ****     return (lv_coord_t)v.num;
 548              		.loc 2 159 5 view .LVU161
 159:lvgl/src/extra/layouts/grid/../grid/lv_grid.h ****     return (lv_coord_t)v.num;
 549              		.loc 2 159 26 is_stmt 0 view .LVU162
 550 0002 034B     		ldr	r3, .L41
 551 0004 1A88     		ldrh	r2, [r3]
 552 0006 0021     		movs	r1, #0
 553 0008 FFF7FEFF 		bl	lv_obj_get_style_prop
 554              	.LVL60:
 160:lvgl/src/extra/layouts/grid/../grid/lv_grid.h **** }
 555              		.loc 2 160 5 is_stmt 1 view .LVU163
 160:lvgl/src/extra/layouts/grid/../grid/lv_grid.h **** }
 556              		.loc 2 160 5 is_stmt 0 view .LVU164
 557              	.LBE79:
 558              	.LBE78:
  75:lvgl/src/extra/layouts/grid/lv_grid.c **** static inline uint8_t get_col_span(lv_obj_t * obj)
 559              		.loc 1 75 1 view .LVU165
ARM GAS  /var/folders/21/t9g5rlb91ys800n5npymflf80000gn/T//cce6JCY2.s 			page 29


 560 000c C0B2     		uxtb	r0, r0
 561 000e 08BD     		pop	{r3, pc}
 562              	.L42:
 563              		.align	2
 564              	.L41:
 565 0010 00000000 		.word	LV_STYLE_GRID_CELL_ROW_POS
 566              		.cfi_endproc
 567              	.LFE180:
 569              		.section	.text.get_col_span,"ax",%progbits
 570              		.align	1
 571              		.syntax unified
 572              		.thumb
 573              		.thumb_func
 575              	get_col_span:
 576              	.LVL61:
 577              	.LFB181:
  77:lvgl/src/extra/layouts/grid/lv_grid.c ****     return lv_obj_get_style_grid_cell_column_span(obj, 0);
 578              		.loc 1 77 1 is_stmt 1 view -0
 579              		.cfi_startproc
 580              		@ args = 0, pretend = 0, frame = 0
 581              		@ frame_needed = 0, uses_anonymous_args = 0
  77:lvgl/src/extra/layouts/grid/lv_grid.c ****     return lv_obj_get_style_grid_cell_column_span(obj, 0);
 582              		.loc 1 77 1 is_stmt 0 view .LVU167
 583 0000 08B5     		push	{r3, lr}
 584              	.LCFI5:
 585              		.cfi_def_cfa_offset 8
 586              		.cfi_offset 3, -8
 587              		.cfi_offset 14, -4
  78:lvgl/src/extra/layouts/grid/lv_grid.c **** }
 588              		.loc 1 78 5 is_stmt 1 view .LVU168
 589              	.LVL62:
 590              	.LBB80:
 591              	.LBI80:
 151:lvgl/src/extra/layouts/grid/../grid/lv_grid.h **** {
 592              		.loc 2 151 26 view .LVU169
 593              	.LBB81:
 153:lvgl/src/extra/layouts/grid/../grid/lv_grid.h ****     return (lv_coord_t)v.num;
 594              		.loc 2 153 5 view .LVU170
 153:lvgl/src/extra/layouts/grid/../grid/lv_grid.h ****     return (lv_coord_t)v.num;
 595              		.loc 2 153 26 is_stmt 0 view .LVU171
 596 0002 034B     		ldr	r3, .L45
 597 0004 1A88     		ldrh	r2, [r3]
 598 0006 0021     		movs	r1, #0
 599 0008 FFF7FEFF 		bl	lv_obj_get_style_prop
 600              	.LVL63:
 154:lvgl/src/extra/layouts/grid/../grid/lv_grid.h **** }
 601              		.loc 2 154 5 is_stmt 1 view .LVU172
 154:lvgl/src/extra/layouts/grid/../grid/lv_grid.h **** }
 602              		.loc 2 154 5 is_stmt 0 view .LVU173
 603              	.LBE81:
 604              	.LBE80:
  79:lvgl/src/extra/layouts/grid/lv_grid.c **** static inline uint8_t get_row_span(lv_obj_t * obj)
 605              		.loc 1 79 1 view .LVU174
 606 000c C0B2     		uxtb	r0, r0
 607 000e 08BD     		pop	{r3, pc}
 608              	.L46:
 609              		.align	2
ARM GAS  /var/folders/21/t9g5rlb91ys800n5npymflf80000gn/T//cce6JCY2.s 			page 30


 610              	.L45:
 611 0010 00000000 		.word	LV_STYLE_GRID_CELL_COLUMN_SPAN
 612              		.cfi_endproc
 613              	.LFE181:
 615              		.section	.text.get_col_pos,"ax",%progbits
 616              		.align	1
 617              		.syntax unified
 618              		.thumb
 619              		.thumb_func
 621              	get_col_pos:
 622              	.LVL64:
 623              	.LFB179:
  69:lvgl/src/extra/layouts/grid/lv_grid.c ****     return lv_obj_get_style_grid_cell_column_pos(obj, 0);
 624              		.loc 1 69 1 is_stmt 1 view -0
 625              		.cfi_startproc
 626              		@ args = 0, pretend = 0, frame = 0
 627              		@ frame_needed = 0, uses_anonymous_args = 0
  69:lvgl/src/extra/layouts/grid/lv_grid.c ****     return lv_obj_get_style_grid_cell_column_pos(obj, 0);
 628              		.loc 1 69 1 is_stmt 0 view .LVU176
 629 0000 08B5     		push	{r3, lr}
 630              	.LCFI6:
 631              		.cfi_def_cfa_offset 8
 632              		.cfi_offset 3, -8
 633              		.cfi_offset 14, -4
  70:lvgl/src/extra/layouts/grid/lv_grid.c **** }
 634              		.loc 1 70 5 is_stmt 1 view .LVU177
 635              	.LVL65:
 636              	.LBB82:
 637              	.LBI82:
 145:lvgl/src/extra/layouts/grid/../grid/lv_grid.h **** {
 638              		.loc 2 145 26 view .LVU178
 639              	.LBB83:
 147:lvgl/src/extra/layouts/grid/../grid/lv_grid.h ****     return (lv_coord_t)v.num;
 640              		.loc 2 147 5 view .LVU179
 147:lvgl/src/extra/layouts/grid/../grid/lv_grid.h ****     return (lv_coord_t)v.num;
 641              		.loc 2 147 26 is_stmt 0 view .LVU180
 642 0002 034B     		ldr	r3, .L49
 643 0004 1A88     		ldrh	r2, [r3]
 644 0006 0021     		movs	r1, #0
 645 0008 FFF7FEFF 		bl	lv_obj_get_style_prop
 646              	.LVL66:
 148:lvgl/src/extra/layouts/grid/../grid/lv_grid.h **** }
 647              		.loc 2 148 5 is_stmt 1 view .LVU181
 148:lvgl/src/extra/layouts/grid/../grid/lv_grid.h **** }
 648              		.loc 2 148 5 is_stmt 0 view .LVU182
 649              	.LBE83:
 650              	.LBE82:
  71:lvgl/src/extra/layouts/grid/lv_grid.c **** static inline uint8_t get_row_pos(lv_obj_t * obj)
 651              		.loc 1 71 1 view .LVU183
 652 000c C0B2     		uxtb	r0, r0
 653 000e 08BD     		pop	{r3, pc}
 654              	.L50:
 655              		.align	2
 656              	.L49:
 657 0010 00000000 		.word	LV_STYLE_GRID_CELL_COLUMN_POS
 658              		.cfi_endproc
 659              	.LFE179:
ARM GAS  /var/folders/21/t9g5rlb91ys800n5npymflf80000gn/T//cce6JCY2.s 			page 31


 661              		.section	.text.get_grid_col_align,"ax",%progbits
 662              		.align	1
 663              		.syntax unified
 664              		.thumb
 665              		.thumb_func
 667              	get_grid_col_align:
 668              	.LVL67:
 669              	.LFB185:
  93:lvgl/src/extra/layouts/grid/lv_grid.c ****     return lv_obj_get_style_grid_column_align(obj, 0);
 670              		.loc 1 93 1 is_stmt 1 view -0
 671              		.cfi_startproc
 672              		@ args = 0, pretend = 0, frame = 0
 673              		@ frame_needed = 0, uses_anonymous_args = 0
  93:lvgl/src/extra/layouts/grid/lv_grid.c ****     return lv_obj_get_style_grid_column_align(obj, 0);
 674              		.loc 1 93 1 is_stmt 0 view .LVU185
 675 0000 08B5     		push	{r3, lr}
 676              	.LCFI7:
 677              		.cfi_def_cfa_offset 8
 678              		.cfi_offset 3, -8
 679              		.cfi_offset 14, -4
  94:lvgl/src/extra/layouts/grid/lv_grid.c **** }
 680              		.loc 1 94 5 is_stmt 1 view .LVU186
 681              	.LVL68:
 682              	.LBB84:
 683              	.LBI84:
 139:lvgl/src/extra/layouts/grid/../grid/lv_grid.h **** {
 684              		.loc 2 139 31 view .LVU187
 685              	.LBB85:
 141:lvgl/src/extra/layouts/grid/../grid/lv_grid.h ****     return (lv_grid_align_t)v.num;
 686              		.loc 2 141 5 view .LVU188
 141:lvgl/src/extra/layouts/grid/../grid/lv_grid.h ****     return (lv_grid_align_t)v.num;
 687              		.loc 2 141 26 is_stmt 0 view .LVU189
 688 0002 034B     		ldr	r3, .L53
 689 0004 1A88     		ldrh	r2, [r3]
 690 0006 0021     		movs	r1, #0
 691 0008 FFF7FEFF 		bl	lv_obj_get_style_prop
 692              	.LVL69:
 142:lvgl/src/extra/layouts/grid/../grid/lv_grid.h **** }
 693              		.loc 2 142 5 is_stmt 1 view .LVU190
 142:lvgl/src/extra/layouts/grid/../grid/lv_grid.h **** }
 694              		.loc 2 142 5 is_stmt 0 view .LVU191
 695              	.LBE85:
 696              	.LBE84:
  95:lvgl/src/extra/layouts/grid/lv_grid.c **** static inline uint8_t get_grid_row_align(lv_obj_t * obj)
 697              		.loc 1 95 1 view .LVU192
 698 000c C0B2     		uxtb	r0, r0
 699 000e 08BD     		pop	{r3, pc}
 700              	.L54:
 701              		.align	2
 702              	.L53:
 703 0010 00000000 		.word	LV_STYLE_GRID_COLUMN_ALIGN
 704              		.cfi_endproc
 705              	.LFE185:
 707              		.section	.text.get_grid_row_align,"ax",%progbits
 708              		.align	1
 709              		.syntax unified
 710              		.thumb
ARM GAS  /var/folders/21/t9g5rlb91ys800n5npymflf80000gn/T//cce6JCY2.s 			page 32


 711              		.thumb_func
 713              	get_grid_row_align:
 714              	.LVL70:
 715              	.LFB186:
  97:lvgl/src/extra/layouts/grid/lv_grid.c ****     return lv_obj_get_style_grid_row_align(obj, 0);
 716              		.loc 1 97 1 is_stmt 1 view -0
 717              		.cfi_startproc
 718              		@ args = 0, pretend = 0, frame = 0
 719              		@ frame_needed = 0, uses_anonymous_args = 0
  97:lvgl/src/extra/layouts/grid/lv_grid.c ****     return lv_obj_get_style_grid_row_align(obj, 0);
 720              		.loc 1 97 1 is_stmt 0 view .LVU194
 721 0000 08B5     		push	{r3, lr}
 722              	.LCFI8:
 723              		.cfi_def_cfa_offset 8
 724              		.cfi_offset 3, -8
 725              		.cfi_offset 14, -4
  98:lvgl/src/extra/layouts/grid/lv_grid.c **** }
 726              		.loc 1 98 5 is_stmt 1 view .LVU195
 727              	.LVL71:
 728              	.LBB86:
 729              	.LBI86:
 133:lvgl/src/extra/layouts/grid/../grid/lv_grid.h **** {
 730              		.loc 2 133 31 view .LVU196
 731              	.LBB87:
 135:lvgl/src/extra/layouts/grid/../grid/lv_grid.h ****     return (lv_grid_align_t)v.num;
 732              		.loc 2 135 5 view .LVU197
 135:lvgl/src/extra/layouts/grid/../grid/lv_grid.h ****     return (lv_grid_align_t)v.num;
 733              		.loc 2 135 26 is_stmt 0 view .LVU198
 734 0002 034B     		ldr	r3, .L57
 735 0004 1A88     		ldrh	r2, [r3]
 736 0006 0021     		movs	r1, #0
 737 0008 FFF7FEFF 		bl	lv_obj_get_style_prop
 738              	.LVL72:
 136:lvgl/src/extra/layouts/grid/../grid/lv_grid.h **** }
 739              		.loc 2 136 5 is_stmt 1 view .LVU199
 136:lvgl/src/extra/layouts/grid/../grid/lv_grid.h **** }
 740              		.loc 2 136 5 is_stmt 0 view .LVU200
 741              	.LBE87:
 742              	.LBE86:
  99:lvgl/src/extra/layouts/grid/lv_grid.c **** 
 743              		.loc 1 99 1 view .LVU201
 744 000c C0B2     		uxtb	r0, r0
 745 000e 08BD     		pop	{r3, pc}
 746              	.L58:
 747              		.align	2
 748              	.L57:
 749 0010 00000000 		.word	LV_STYLE_GRID_ROW_ALIGN
 750              		.cfi_endproc
 751              	.LFE186:
 753              		.section	.text.get_cell_col_align,"ax",%progbits
 754              		.align	1
 755              		.syntax unified
 756              		.thumb
 757              		.thumb_func
 759              	get_cell_col_align:
 760              	.LVL73:
 761              	.LFB183:
ARM GAS  /var/folders/21/t9g5rlb91ys800n5npymflf80000gn/T//cce6JCY2.s 			page 33


  85:lvgl/src/extra/layouts/grid/lv_grid.c ****     return lv_obj_get_style_grid_cell_x_align(obj, 0);
 762              		.loc 1 85 1 is_stmt 1 view -0
 763              		.cfi_startproc
 764              		@ args = 0, pretend = 0, frame = 0
 765              		@ frame_needed = 0, uses_anonymous_args = 0
  85:lvgl/src/extra/layouts/grid/lv_grid.c ****     return lv_obj_get_style_grid_cell_x_align(obj, 0);
 766              		.loc 1 85 1 is_stmt 0 view .LVU203
 767 0000 08B5     		push	{r3, lr}
 768              	.LCFI9:
 769              		.cfi_def_cfa_offset 8
 770              		.cfi_offset 3, -8
 771              		.cfi_offset 14, -4
  86:lvgl/src/extra/layouts/grid/lv_grid.c **** }
 772              		.loc 1 86 5 is_stmt 1 view .LVU204
 773              	.LVL74:
 774              	.LBB88:
 775              	.LBI88:
 167:lvgl/src/extra/layouts/grid/../grid/lv_grid.h **** }
 168:lvgl/src/extra/layouts/grid/../grid/lv_grid.h **** 
 169:lvgl/src/extra/layouts/grid/../grid/lv_grid.h **** static inline lv_coord_t lv_obj_get_style_grid_cell_x_align(const lv_obj_t * obj, uint32_t part)
 776              		.loc 2 169 26 view .LVU205
 777              	.LBB89:
 170:lvgl/src/extra/layouts/grid/../grid/lv_grid.h **** {
 171:lvgl/src/extra/layouts/grid/../grid/lv_grid.h ****     lv_style_value_t v = lv_obj_get_style_prop(obj, part, LV_STYLE_GRID_CELL_X_ALIGN);
 778              		.loc 2 171 5 view .LVU206
 779              		.loc 2 171 26 is_stmt 0 view .LVU207
 780 0002 034B     		ldr	r3, .L61
 781 0004 1A88     		ldrh	r2, [r3]
 782 0006 0021     		movs	r1, #0
 783 0008 FFF7FEFF 		bl	lv_obj_get_style_prop
 784              	.LVL75:
 172:lvgl/src/extra/layouts/grid/../grid/lv_grid.h ****     return (lv_coord_t)v.num;
 785              		.loc 2 172 5 is_stmt 1 view .LVU208
 786              		.loc 2 172 5 is_stmt 0 view .LVU209
 787              	.LBE89:
 788              	.LBE88:
  87:lvgl/src/extra/layouts/grid/lv_grid.c **** static inline uint8_t get_cell_row_align(lv_obj_t * obj)
 789              		.loc 1 87 1 view .LVU210
 790 000c C0B2     		uxtb	r0, r0
 791 000e 08BD     		pop	{r3, pc}
 792              	.L62:
 793              		.align	2
 794              	.L61:
 795 0010 00000000 		.word	LV_STYLE_GRID_CELL_X_ALIGN
 796              		.cfi_endproc
 797              	.LFE183:
 799              		.section	.text.get_cell_row_align,"ax",%progbits
 800              		.align	1
 801              		.syntax unified
 802              		.thumb
 803              		.thumb_func
 805              	get_cell_row_align:
 806              	.LVL76:
 807              	.LFB184:
  89:lvgl/src/extra/layouts/grid/lv_grid.c ****     return lv_obj_get_style_grid_cell_y_align(obj, 0);
 808              		.loc 1 89 1 is_stmt 1 view -0
 809              		.cfi_startproc
ARM GAS  /var/folders/21/t9g5rlb91ys800n5npymflf80000gn/T//cce6JCY2.s 			page 34


 810              		@ args = 0, pretend = 0, frame = 0
 811              		@ frame_needed = 0, uses_anonymous_args = 0
  89:lvgl/src/extra/layouts/grid/lv_grid.c ****     return lv_obj_get_style_grid_cell_y_align(obj, 0);
 812              		.loc 1 89 1 is_stmt 0 view .LVU212
 813 0000 08B5     		push	{r3, lr}
 814              	.LCFI10:
 815              		.cfi_def_cfa_offset 8
 816              		.cfi_offset 3, -8
 817              		.cfi_offset 14, -4
  90:lvgl/src/extra/layouts/grid/lv_grid.c **** }
 818              		.loc 1 90 5 is_stmt 1 view .LVU213
 819              	.LVL77:
 820              	.LBB90:
 821              	.LBI90:
 173:lvgl/src/extra/layouts/grid/../grid/lv_grid.h **** }
 174:lvgl/src/extra/layouts/grid/../grid/lv_grid.h **** 
 175:lvgl/src/extra/layouts/grid/../grid/lv_grid.h **** static inline lv_coord_t lv_obj_get_style_grid_cell_y_align(const lv_obj_t * obj, uint32_t part)
 822              		.loc 2 175 26 view .LVU214
 823              	.LBB91:
 176:lvgl/src/extra/layouts/grid/../grid/lv_grid.h **** {
 177:lvgl/src/extra/layouts/grid/../grid/lv_grid.h ****     lv_style_value_t v = lv_obj_get_style_prop(obj, part, LV_STYLE_GRID_CELL_Y_ALIGN);
 824              		.loc 2 177 5 view .LVU215
 825              		.loc 2 177 26 is_stmt 0 view .LVU216
 826 0002 034B     		ldr	r3, .L65
 827 0004 1A88     		ldrh	r2, [r3]
 828 0006 0021     		movs	r1, #0
 829 0008 FFF7FEFF 		bl	lv_obj_get_style_prop
 830              	.LVL78:
 178:lvgl/src/extra/layouts/grid/../grid/lv_grid.h ****     return (lv_coord_t)v.num;
 831              		.loc 2 178 5 is_stmt 1 view .LVU217
 832              		.loc 2 178 5 is_stmt 0 view .LVU218
 833              	.LBE91:
 834              	.LBE90:
  91:lvgl/src/extra/layouts/grid/lv_grid.c **** static inline uint8_t get_grid_col_align(lv_obj_t * obj)
 835              		.loc 1 91 1 view .LVU219
 836 000c C0B2     		uxtb	r0, r0
 837 000e 08BD     		pop	{r3, pc}
 838              	.L66:
 839              		.align	2
 840              	.L65:
 841 0010 00000000 		.word	LV_STYLE_GRID_CELL_Y_ALIGN
 842              		.cfi_endproc
 843              	.LFE184:
 845              		.section	.text.calc_rows,"ax",%progbits
 846              		.align	1
 847              		.syntax unified
 848              		.thumb
 849              		.thumb_func
 851              	calc_rows:
 852              	.LVL79:
 853              	.LFB215:
 499:lvgl/src/extra/layouts/grid/lv_grid.c ****     uint32_t i;
 854              		.loc 1 499 1 is_stmt 1 view -0
 855              		.cfi_startproc
 856              		@ args = 0, pretend = 0, frame = 0
 857              		@ frame_needed = 0, uses_anonymous_args = 0
 499:lvgl/src/extra/layouts/grid/lv_grid.c ****     uint32_t i;
ARM GAS  /var/folders/21/t9g5rlb91ys800n5npymflf80000gn/T//cce6JCY2.s 			page 35


 858              		.loc 1 499 1 is_stmt 0 view .LVU221
 859 0000 2DE9F84F 		push	{r3, r4, r5, r6, r7, r8, r9, r10, fp, lr}
 860              	.LCFI11:
 861              		.cfi_def_cfa_offset 40
 862              		.cfi_offset 3, -40
 863              		.cfi_offset 4, -36
 864              		.cfi_offset 5, -32
 865              		.cfi_offset 6, -28
 866              		.cfi_offset 7, -24
 867              		.cfi_offset 8, -20
 868              		.cfi_offset 9, -16
 869              		.cfi_offset 10, -12
 870              		.cfi_offset 11, -8
 871              		.cfi_offset 14, -4
 872 0004 8046     		mov	r8, r0
 873 0006 0C46     		mov	r4, r1
 500:lvgl/src/extra/layouts/grid/lv_grid.c ****     const lv_coord_t * row_templ = get_row_dsc(cont);
 874              		.loc 1 500 5 is_stmt 1 view .LVU222
 501:lvgl/src/extra/layouts/grid/lv_grid.c ****     c->row_num = count_tracks(row_templ);
 875              		.loc 1 501 5 view .LVU223
 501:lvgl/src/extra/layouts/grid/lv_grid.c ****     c->row_num = count_tracks(row_templ);
 876              		.loc 1 501 36 is_stmt 0 view .LVU224
 877 0008 FFF7FEFF 		bl	get_row_dsc
 878              	.LVL80:
 501:lvgl/src/extra/layouts/grid/lv_grid.c ****     c->row_num = count_tracks(row_templ);
 879              		.loc 1 501 36 view .LVU225
 880 000c 0746     		mov	r7, r0
 881              	.LVL81:
 502:lvgl/src/extra/layouts/grid/lv_grid.c ****     c->y = lv_mem_buf_get(sizeof(lv_coord_t) * c->row_num);
 882              		.loc 1 502 5 is_stmt 1 view .LVU226
 502:lvgl/src/extra/layouts/grid/lv_grid.c ****     c->y = lv_mem_buf_get(sizeof(lv_coord_t) * c->row_num);
 883              		.loc 1 502 18 is_stmt 0 view .LVU227
 884 000e FFF7FEFF 		bl	count_tracks
 885              	.LVL82:
 502:lvgl/src/extra/layouts/grid/lv_grid.c ****     c->y = lv_mem_buf_get(sizeof(lv_coord_t) * c->row_num);
 886              		.loc 1 502 16 view .LVU228
 887 0012 6061     		str	r0, [r4, #20]
 503:lvgl/src/extra/layouts/grid/lv_grid.c ****     c->h = lv_mem_buf_get(sizeof(lv_coord_t) * c->row_num);
 888              		.loc 1 503 5 is_stmt 1 view .LVU229
 503:lvgl/src/extra/layouts/grid/lv_grid.c ****     c->h = lv_mem_buf_get(sizeof(lv_coord_t) * c->row_num);
 889              		.loc 1 503 12 is_stmt 0 view .LVU230
 890 0014 4000     		lsls	r0, r0, #1
 891 0016 FFF7FEFF 		bl	lv_mem_buf_get
 892              	.LVL83:
 503:lvgl/src/extra/layouts/grid/lv_grid.c ****     c->h = lv_mem_buf_get(sizeof(lv_coord_t) * c->row_num);
 893              		.loc 1 503 10 view .LVU231
 894 001a 6060     		str	r0, [r4, #4]
 504:lvgl/src/extra/layouts/grid/lv_grid.c ****     /*Set sizes for CONTENT cells*/
 895              		.loc 1 504 5 is_stmt 1 view .LVU232
 504:lvgl/src/extra/layouts/grid/lv_grid.c ****     /*Set sizes for CONTENT cells*/
 896              		.loc 1 504 49 is_stmt 0 view .LVU233
 897 001c 6069     		ldr	r0, [r4, #20]
 504:lvgl/src/extra/layouts/grid/lv_grid.c ****     /*Set sizes for CONTENT cells*/
 898              		.loc 1 504 12 view .LVU234
 899 001e 4000     		lsls	r0, r0, #1
 900 0020 FFF7FEFF 		bl	lv_mem_buf_get
 901              	.LVL84:
ARM GAS  /var/folders/21/t9g5rlb91ys800n5npymflf80000gn/T//cce6JCY2.s 			page 36


 504:lvgl/src/extra/layouts/grid/lv_grid.c ****     /*Set sizes for CONTENT cells*/
 902              		.loc 1 504 10 view .LVU235
 903 0024 E060     		str	r0, [r4, #12]
 506:lvgl/src/extra/layouts/grid/lv_grid.c ****         lv_coord_t size = LV_COORD_MIN;
 904              		.loc 1 506 5 is_stmt 1 view .LVU236
 905              	.LVL85:
 506:lvgl/src/extra/layouts/grid/lv_grid.c ****         lv_coord_t size = LV_COORD_MIN;
 906              		.loc 1 506 11 is_stmt 0 view .LVU237
 907 0026 0026     		movs	r6, #0
 506:lvgl/src/extra/layouts/grid/lv_grid.c ****         lv_coord_t size = LV_COORD_MIN;
 908              		.loc 1 506 5 view .LVU238
 909 0028 2AE0     		b	.L68
 910              	.LVL86:
 911              	.L71:
 912              	.LBB92:
 913              	.LBB93:
 511:lvgl/src/extra/layouts/grid/lv_grid.c ****                 lv_obj_t * item = lv_obj_get_child(cont, ci);
 914              		.loc 1 511 60 is_stmt 1 discriminator 2 view .LVU239
 915 002a 0135     		adds	r5, r5, #1
 916              	.LVL87:
 917              	.L69:
 511:lvgl/src/extra/layouts/grid/lv_grid.c ****                 lv_obj_t * item = lv_obj_get_child(cont, ci);
 918              		.loc 1 511 28 discriminator 1 view .LVU240
 511:lvgl/src/extra/layouts/grid/lv_grid.c ****                 lv_obj_t * item = lv_obj_get_child(cont, ci);
 919              		.loc 1 511 30 is_stmt 0 discriminator 1 view .LVU241
 920 002c 4046     		mov	r0, r8
 921 002e FFF7FEFF 		bl	lv_obj_get_child_cnt
 922              	.LVL88:
 511:lvgl/src/extra/layouts/grid/lv_grid.c ****                 lv_obj_t * item = lv_obj_get_child(cont, ci);
 923              		.loc 1 511 28 discriminator 1 view .LVU242
 924 0032 A842     		cmp	r0, r5
 925 0034 1DD9     		bls	.L88
 926              	.LBB94:
 512:lvgl/src/extra/layouts/grid/lv_grid.c ****                 if(lv_obj_has_flag_any(item, LV_OBJ_FLAG_IGNORE_LAYOUT | LV_OBJ_FLAG_HIDDEN | LV_OB
 927              		.loc 1 512 17 is_stmt 1 view .LVU243
 512:lvgl/src/extra/layouts/grid/lv_grid.c ****                 if(lv_obj_has_flag_any(item, LV_OBJ_FLAG_IGNORE_LAYOUT | LV_OBJ_FLAG_HIDDEN | LV_OB
 928              		.loc 1 512 35 is_stmt 0 view .LVU244
 929 0036 2946     		mov	r1, r5
 930 0038 4046     		mov	r0, r8
 931 003a FFF7FEFF 		bl	lv_obj_get_child
 932              	.LVL89:
 933 003e 8146     		mov	r9, r0
 934              	.LVL90:
 513:lvgl/src/extra/layouts/grid/lv_grid.c ****                 uint32_t row_span = get_row_span(item);
 935              		.loc 1 513 17 is_stmt 1 view .LVU245
 513:lvgl/src/extra/layouts/grid/lv_grid.c ****                 uint32_t row_span = get_row_span(item);
 936              		.loc 1 513 20 is_stmt 0 view .LVU246
 937 0040 4B49     		ldr	r1, .L94
 938 0042 FFF7FEFF 		bl	lv_obj_has_flag_any
 939              	.LVL91:
 513:lvgl/src/extra/layouts/grid/lv_grid.c ****                 uint32_t row_span = get_row_span(item);
 940              		.loc 1 513 19 view .LVU247
 941 0046 0028     		cmp	r0, #0
 942 0048 EFD1     		bne	.L71
 514:lvgl/src/extra/layouts/grid/lv_grid.c ****                 if(row_span != 1) continue;
 943              		.loc 1 514 17 is_stmt 1 view .LVU248
 514:lvgl/src/extra/layouts/grid/lv_grid.c ****                 if(row_span != 1) continue;
ARM GAS  /var/folders/21/t9g5rlb91ys800n5npymflf80000gn/T//cce6JCY2.s 			page 37


 944              		.loc 1 514 37 is_stmt 0 view .LVU249
 945 004a 4846     		mov	r0, r9
 946 004c FFF7FEFF 		bl	get_row_span
 947              	.LVL92:
 515:lvgl/src/extra/layouts/grid/lv_grid.c **** 
 948              		.loc 1 515 17 is_stmt 1 view .LVU250
 515:lvgl/src/extra/layouts/grid/lv_grid.c **** 
 949              		.loc 1 515 19 is_stmt 0 view .LVU251
 950 0050 0128     		cmp	r0, #1
 951 0052 EAD1     		bne	.L71
 517:lvgl/src/extra/layouts/grid/lv_grid.c ****                 if(row_pos != i) continue;
 952              		.loc 1 517 17 is_stmt 1 view .LVU252
 517:lvgl/src/extra/layouts/grid/lv_grid.c ****                 if(row_pos != i) continue;
 953              		.loc 1 517 36 is_stmt 0 view .LVU253
 954 0054 4846     		mov	r0, r9
 955              	.LVL93:
 517:lvgl/src/extra/layouts/grid/lv_grid.c ****                 if(row_pos != i) continue;
 956              		.loc 1 517 36 view .LVU254
 957 0056 FFF7FEFF 		bl	get_row_pos
 958              	.LVL94:
 518:lvgl/src/extra/layouts/grid/lv_grid.c **** 
 959              		.loc 1 518 17 is_stmt 1 view .LVU255
 518:lvgl/src/extra/layouts/grid/lv_grid.c **** 
 960              		.loc 1 518 19 is_stmt 0 view .LVU256
 961 005a 8642     		cmp	r6, r0
 962 005c E5D1     		bne	.L71
 520:lvgl/src/extra/layouts/grid/lv_grid.c ****             }
 963              		.loc 1 520 17 is_stmt 1 view .LVU257
 520:lvgl/src/extra/layouts/grid/lv_grid.c ****             }
 964              		.loc 1 520 24 is_stmt 0 view .LVU258
 965 005e 4846     		mov	r0, r9
 966              	.LVL95:
 520:lvgl/src/extra/layouts/grid/lv_grid.c ****             }
 967              		.loc 1 520 24 view .LVU259
 968 0060 FFF7FEFF 		bl	lv_obj_get_height
 969              	.LVL96:
 520:lvgl/src/extra/layouts/grid/lv_grid.c ****             }
 970              		.loc 1 520 22 view .LVU260
 971 0064 5845     		cmp	r0, fp
 972 0066 E0DB     		blt	.L71
 520:lvgl/src/extra/layouts/grid/lv_grid.c ****             }
 973              		.loc 1 520 24 discriminator 1 view .LVU261
 974 0068 4846     		mov	r0, r9
 975 006a FFF7FEFF 		bl	lv_obj_get_height
 976              	.LVL97:
 977 006e 8346     		mov	fp, r0
 978              	.LVL98:
 520:lvgl/src/extra/layouts/grid/lv_grid.c ****             }
 979              		.loc 1 520 24 discriminator 1 view .LVU262
 980 0070 DBE7     		b	.L71
 981              	.LVL99:
 982              	.L88:
 520:lvgl/src/extra/layouts/grid/lv_grid.c ****             }
 983              		.loc 1 520 24 discriminator 1 view .LVU263
 984              	.LBE94:
 522:lvgl/src/extra/layouts/grid/lv_grid.c ****             else c->h[i] = 0;
 985              		.loc 1 522 13 is_stmt 1 view .LVU264
ARM GAS  /var/folders/21/t9g5rlb91ys800n5npymflf80000gn/T//cce6JCY2.s 			page 38


 522:lvgl/src/extra/layouts/grid/lv_grid.c ****             else c->h[i] = 0;
 986              		.loc 1 522 15 is_stmt 0 view .LVU265
 987 0072 BBF1000F 		cmp	fp, #0
 988 0076 12DB     		blt	.L73
 522:lvgl/src/extra/layouts/grid/lv_grid.c ****             else c->h[i] = 0;
 989              		.loc 1 522 27 is_stmt 1 discriminator 1 view .LVU266
 522:lvgl/src/extra/layouts/grid/lv_grid.c ****             else c->h[i] = 0;
 990              		.loc 1 522 28 is_stmt 0 discriminator 1 view .LVU267
 991 0078 E368     		ldr	r3, [r4, #12]
 522:lvgl/src/extra/layouts/grid/lv_grid.c ****             else c->h[i] = 0;
 992              		.loc 1 522 35 discriminator 1 view .LVU268
 993 007a 23F80AB0 		strh	fp, [r3, r10]	@ movhi
 994              	.LVL100:
 995              	.L70:
 522:lvgl/src/extra/layouts/grid/lv_grid.c ****             else c->h[i] = 0;
 996              		.loc 1 522 35 discriminator 1 view .LVU269
 997              	.LBE93:
 998              	.LBE92:
 506:lvgl/src/extra/layouts/grid/lv_grid.c ****         lv_coord_t size = LV_COORD_MIN;
 999              		.loc 1 506 33 is_stmt 1 discriminator 2 view .LVU270
 1000 007e 0136     		adds	r6, r6, #1
 1001              	.LVL101:
 1002              	.L68:
 506:lvgl/src/extra/layouts/grid/lv_grid.c ****         lv_coord_t size = LV_COORD_MIN;
 1003              		.loc 1 506 18 discriminator 1 view .LVU271
 506:lvgl/src/extra/layouts/grid/lv_grid.c ****         lv_coord_t size = LV_COORD_MIN;
 1004              		.loc 1 506 21 is_stmt 0 discriminator 1 view .LVU272
 1005 0080 6369     		ldr	r3, [r4, #20]
 506:lvgl/src/extra/layouts/grid/lv_grid.c ****         lv_coord_t size = LV_COORD_MIN;
 1006              		.loc 1 506 18 discriminator 1 view .LVU273
 1007 0082 B342     		cmp	r3, r6
 1008 0084 10D9     		bls	.L89
 1009              	.LBB97:
 507:lvgl/src/extra/layouts/grid/lv_grid.c ****         if(IS_CONTENT(row_templ[i])) {
 1010              		.loc 1 507 9 is_stmt 1 view .LVU274
 1011              	.LVL102:
 508:lvgl/src/extra/layouts/grid/lv_grid.c ****             /*Check the size of children of this cell*/
 1012              		.loc 1 508 9 view .LVU275
 508:lvgl/src/extra/layouts/grid/lv_grid.c ****             /*Check the size of children of this cell*/
 1013              		.loc 1 508 12 is_stmt 0 view .LVU276
 1014 0086 4FEA460A 		lsl	r10, r6, #1
 1015 008a 37F91620 		ldrsh	r2, [r7, r6, lsl #1]
 508:lvgl/src/extra/layouts/grid/lv_grid.c ****             /*Check the size of children of this cell*/
 1016              		.loc 1 508 11 view .LVU277
 1017 008e 41F69A73 		movw	r3, #8090
 1018 0092 9A42     		cmp	r2, r3
 1019 0094 F3D1     		bne	.L70
 1020              	.LBB95:
 511:lvgl/src/extra/layouts/grid/lv_grid.c ****                 lv_obj_t * item = lv_obj_get_child(cont, ci);
 1021              		.loc 1 511 20 view .LVU278
 1022 0096 0025     		movs	r5, #0
 1023              	.LBE95:
 507:lvgl/src/extra/layouts/grid/lv_grid.c ****         if(IS_CONTENT(row_templ[i])) {
 1024              		.loc 1 507 20 view .LVU279
 1025 0098 DFF8D8B0 		ldr	fp, .L94+4
 1026 009c C6E7     		b	.L69
 1027              	.LVL103:
ARM GAS  /var/folders/21/t9g5rlb91ys800n5npymflf80000gn/T//cce6JCY2.s 			page 39


 1028              	.L73:
 1029              	.LBB96:
 523:lvgl/src/extra/layouts/grid/lv_grid.c ****         }
 1030              		.loc 1 523 18 is_stmt 1 view .LVU280
 523:lvgl/src/extra/layouts/grid/lv_grid.c ****         }
 1031              		.loc 1 523 19 is_stmt 0 view .LVU281
 1032 009e E368     		ldr	r3, [r4, #12]
 523:lvgl/src/extra/layouts/grid/lv_grid.c ****         }
 1033              		.loc 1 523 26 view .LVU282
 1034 00a0 0022     		movs	r2, #0
 1035 00a2 23F80A20 		strh	r2, [r3, r10]	@ movhi
 1036 00a6 EAE7     		b	.L70
 1037              	.LVL104:
 1038              	.L89:
 523:lvgl/src/extra/layouts/grid/lv_grid.c ****         }
 1039              		.loc 1 523 26 view .LVU283
 1040              	.LBE96:
 1041              	.LBE97:
 528:lvgl/src/extra/layouts/grid/lv_grid.c **** 
 1042              		.loc 1 528 16 view .LVU284
 1043 00a8 0026     		movs	r6, #0
 1044              	.LVL105:
 527:lvgl/src/extra/layouts/grid/lv_grid.c ****     lv_coord_t grid_h = 0;
 1045              		.loc 1 527 14 view .LVU285
 1046 00aa 3546     		mov	r5, r6
 530:lvgl/src/extra/layouts/grid/lv_grid.c ****         lv_coord_t x = row_templ[i];
 1047              		.loc 1 530 11 view .LVU286
 1048 00ac 3246     		mov	r2, r6
 1049 00ae 08E0     		b	.L75
 1050              	.LVL106:
 1051              	.L76:
 1052              	.LBB98:
 535:lvgl/src/extra/layouts/grid/lv_grid.c ****             grid_h += c->h[i];
 1053              		.loc 1 535 14 is_stmt 1 view .LVU287
 535:lvgl/src/extra/layouts/grid/lv_grid.c ****             grid_h += c->h[i];
 1054              		.loc 1 535 16 is_stmt 0 view .LVU288
 1055 00b0 41F69A71 		movw	r1, #8090
 1056 00b4 8B42     		cmp	r3, r1
 1057 00b6 13D0     		beq	.L90
 539:lvgl/src/extra/layouts/grid/lv_grid.c ****             grid_h += x;
 1058              		.loc 1 539 13 is_stmt 1 view .LVU289
 539:lvgl/src/extra/layouts/grid/lv_grid.c ****             grid_h += x;
 1059              		.loc 1 539 14 is_stmt 0 view .LVU290
 1060 00b8 E168     		ldr	r1, [r4, #12]
 539:lvgl/src/extra/layouts/grid/lv_grid.c ****             grid_h += x;
 1061              		.loc 1 539 21 view .LVU291
 1062 00ba 0B52     		strh	r3, [r1, r0]	@ movhi
 540:lvgl/src/extra/layouts/grid/lv_grid.c ****         }
 1063              		.loc 1 540 13 is_stmt 1 view .LVU292
 540:lvgl/src/extra/layouts/grid/lv_grid.c ****         }
 1064              		.loc 1 540 20 is_stmt 0 view .LVU293
 1065 00bc 3344     		add	r3, r3, r6
 1066              	.LVL107:
 540:lvgl/src/extra/layouts/grid/lv_grid.c ****         }
 1067              		.loc 1 540 20 view .LVU294
 1068 00be 1EB2     		sxth	r6, r3
 1069              	.LVL108:
ARM GAS  /var/folders/21/t9g5rlb91ys800n5npymflf80000gn/T//cce6JCY2.s 			page 40


 1070              	.L77:
 540:lvgl/src/extra/layouts/grid/lv_grid.c ****         }
 1071              		.loc 1 540 20 view .LVU295
 1072              	.LBE98:
 530:lvgl/src/extra/layouts/grid/lv_grid.c ****         lv_coord_t x = row_templ[i];
 1073              		.loc 1 530 33 is_stmt 1 discriminator 2 view .LVU296
 1074 00c0 0132     		adds	r2, r2, #1
 1075              	.LVL109:
 1076              	.L75:
 530:lvgl/src/extra/layouts/grid/lv_grid.c ****         lv_coord_t x = row_templ[i];
 1077              		.loc 1 530 18 discriminator 1 view .LVU297
 530:lvgl/src/extra/layouts/grid/lv_grid.c ****         lv_coord_t x = row_templ[i];
 1078              		.loc 1 530 21 is_stmt 0 discriminator 1 view .LVU298
 1079 00c2 6369     		ldr	r3, [r4, #20]
 530:lvgl/src/extra/layouts/grid/lv_grid.c ****         lv_coord_t x = row_templ[i];
 1080              		.loc 1 530 18 discriminator 1 view .LVU299
 1081 00c4 9342     		cmp	r3, r2
 1082 00c6 10D9     		bls	.L91
 1083              	.LBB99:
 531:lvgl/src/extra/layouts/grid/lv_grid.c ****         if(IS_FR(x)) {
 1084              		.loc 1 531 9 is_stmt 1 view .LVU300
 531:lvgl/src/extra/layouts/grid/lv_grid.c ****         if(IS_FR(x)) {
 1085              		.loc 1 531 33 is_stmt 0 view .LVU301
 1086 00c8 5000     		lsls	r0, r2, #1
 531:lvgl/src/extra/layouts/grid/lv_grid.c ****         if(IS_FR(x)) {
 1087              		.loc 1 531 20 view .LVU302
 1088 00ca 37F91230 		ldrsh	r3, [r7, r2, lsl #1]
 1089              	.LVL110:
 532:lvgl/src/extra/layouts/grid/lv_grid.c ****             row_fr_cnt += GET_FR(x);
 1090              		.loc 1 532 9 is_stmt 1 view .LVU303
 532:lvgl/src/extra/layouts/grid/lv_grid.c ****             row_fr_cnt += GET_FR(x);
 1091              		.loc 1 532 11 is_stmt 0 view .LVU304
 1092 00ce 41F69A71 		movw	r1, #8090
 1093 00d2 8B42     		cmp	r3, r1
 1094 00d4 ECDD     		ble	.L76
 533:lvgl/src/extra/layouts/grid/lv_grid.c ****         }
 1095              		.loc 1 533 13 is_stmt 1 view .LVU305
 533:lvgl/src/extra/layouts/grid/lv_grid.c ****         }
 1096              		.loc 1 533 24 is_stmt 0 view .LVU306
 1097 00d6 2B44     		add	r3, r3, r5
 1098              	.LVL111:
 533:lvgl/src/extra/layouts/grid/lv_grid.c ****         }
 1099              		.loc 1 533 24 view .LVU307
 1100 00d8 A3F5FC55 		sub	r5, r3, #8064
 1101              	.LVL112:
 533:lvgl/src/extra/layouts/grid/lv_grid.c ****         }
 1102              		.loc 1 533 24 view .LVU308
 1103 00dc 1B3D     		subs	r5, r5, #27
 1104              	.LVL113:
 533:lvgl/src/extra/layouts/grid/lv_grid.c ****         }
 1105              		.loc 1 533 24 view .LVU309
 1106 00de EFE7     		b	.L77
 1107              	.LVL114:
 1108              	.L90:
 536:lvgl/src/extra/layouts/grid/lv_grid.c ****         }
 1109              		.loc 1 536 13 is_stmt 1 view .LVU310
 536:lvgl/src/extra/layouts/grid/lv_grid.c ****         }
ARM GAS  /var/folders/21/t9g5rlb91ys800n5npymflf80000gn/T//cce6JCY2.s 			page 41


 1110              		.loc 1 536 24 is_stmt 0 view .LVU311
 1111 00e0 E368     		ldr	r3, [r4, #12]
 1112              	.LVL115:
 536:lvgl/src/extra/layouts/grid/lv_grid.c ****         }
 1113              		.loc 1 536 27 view .LVU312
 1114 00e2 1B5A     		ldrh	r3, [r3, r0]
 536:lvgl/src/extra/layouts/grid/lv_grid.c ****         }
 1115              		.loc 1 536 20 view .LVU313
 1116 00e4 3344     		add	r3, r3, r6
 1117 00e6 1EB2     		sxth	r6, r3
 1118              	.LVL116:
 536:lvgl/src/extra/layouts/grid/lv_grid.c ****         }
 1119              		.loc 1 536 20 view .LVU314
 1120 00e8 EAE7     		b	.L77
 1121              	.LVL117:
 1122              	.L91:
 536:lvgl/src/extra/layouts/grid/lv_grid.c ****         }
 1123              		.loc 1 536 20 view .LVU315
 1124              	.LBE99:
 544:lvgl/src/extra/layouts/grid/lv_grid.c ****     lv_coord_t cont_h = lv_obj_get_content_height(cont) - row_gap * (c->row_num - 1);
 1125              		.loc 1 544 5 is_stmt 1 view .LVU316
 1126              	.LBB100:
 1127              	.LBI100:
 1128              		.file 3 "lvgl/src/extra/layouts/grid/../flex/../../../core/lv_obj_style_gen.h"
   1:lvgl/src/extra/layouts/grid/../flex/../../../core/lv_obj_style_gen.h **** static inline lv_coord_t lv_obj_get_style_width(const struct _lv_obj_t * obj, uint32_t part)
   2:lvgl/src/extra/layouts/grid/../flex/../../../core/lv_obj_style_gen.h **** {
   3:lvgl/src/extra/layouts/grid/../flex/../../../core/lv_obj_style_gen.h ****     lv_style_value_t v = lv_obj_get_style_prop(obj, part, LV_STYLE_WIDTH);
   4:lvgl/src/extra/layouts/grid/../flex/../../../core/lv_obj_style_gen.h ****     return (lv_coord_t)v.num;
   5:lvgl/src/extra/layouts/grid/../flex/../../../core/lv_obj_style_gen.h **** }
   6:lvgl/src/extra/layouts/grid/../flex/../../../core/lv_obj_style_gen.h **** 
   7:lvgl/src/extra/layouts/grid/../flex/../../../core/lv_obj_style_gen.h **** static inline lv_coord_t lv_obj_get_style_min_width(const struct _lv_obj_t * obj, uint32_t part)
   8:lvgl/src/extra/layouts/grid/../flex/../../../core/lv_obj_style_gen.h **** {
   9:lvgl/src/extra/layouts/grid/../flex/../../../core/lv_obj_style_gen.h ****     lv_style_value_t v = lv_obj_get_style_prop(obj, part, LV_STYLE_MIN_WIDTH);
  10:lvgl/src/extra/layouts/grid/../flex/../../../core/lv_obj_style_gen.h ****     return (lv_coord_t)v.num;
  11:lvgl/src/extra/layouts/grid/../flex/../../../core/lv_obj_style_gen.h **** }
  12:lvgl/src/extra/layouts/grid/../flex/../../../core/lv_obj_style_gen.h **** 
  13:lvgl/src/extra/layouts/grid/../flex/../../../core/lv_obj_style_gen.h **** static inline lv_coord_t lv_obj_get_style_max_width(const struct _lv_obj_t * obj, uint32_t part)
  14:lvgl/src/extra/layouts/grid/../flex/../../../core/lv_obj_style_gen.h **** {
  15:lvgl/src/extra/layouts/grid/../flex/../../../core/lv_obj_style_gen.h ****     lv_style_value_t v = lv_obj_get_style_prop(obj, part, LV_STYLE_MAX_WIDTH);
  16:lvgl/src/extra/layouts/grid/../flex/../../../core/lv_obj_style_gen.h ****     return (lv_coord_t)v.num;
  17:lvgl/src/extra/layouts/grid/../flex/../../../core/lv_obj_style_gen.h **** }
  18:lvgl/src/extra/layouts/grid/../flex/../../../core/lv_obj_style_gen.h **** 
  19:lvgl/src/extra/layouts/grid/../flex/../../../core/lv_obj_style_gen.h **** static inline lv_coord_t lv_obj_get_style_height(const struct _lv_obj_t * obj, uint32_t part)
  20:lvgl/src/extra/layouts/grid/../flex/../../../core/lv_obj_style_gen.h **** {
  21:lvgl/src/extra/layouts/grid/../flex/../../../core/lv_obj_style_gen.h ****     lv_style_value_t v = lv_obj_get_style_prop(obj, part, LV_STYLE_HEIGHT);
  22:lvgl/src/extra/layouts/grid/../flex/../../../core/lv_obj_style_gen.h ****     return (lv_coord_t)v.num;
  23:lvgl/src/extra/layouts/grid/../flex/../../../core/lv_obj_style_gen.h **** }
  24:lvgl/src/extra/layouts/grid/../flex/../../../core/lv_obj_style_gen.h **** 
  25:lvgl/src/extra/layouts/grid/../flex/../../../core/lv_obj_style_gen.h **** static inline lv_coord_t lv_obj_get_style_min_height(const struct _lv_obj_t * obj, uint32_t part)
  26:lvgl/src/extra/layouts/grid/../flex/../../../core/lv_obj_style_gen.h **** {
  27:lvgl/src/extra/layouts/grid/../flex/../../../core/lv_obj_style_gen.h ****     lv_style_value_t v = lv_obj_get_style_prop(obj, part, LV_STYLE_MIN_HEIGHT);
  28:lvgl/src/extra/layouts/grid/../flex/../../../core/lv_obj_style_gen.h ****     return (lv_coord_t)v.num;
  29:lvgl/src/extra/layouts/grid/../flex/../../../core/lv_obj_style_gen.h **** }
  30:lvgl/src/extra/layouts/grid/../flex/../../../core/lv_obj_style_gen.h **** 
  31:lvgl/src/extra/layouts/grid/../flex/../../../core/lv_obj_style_gen.h **** static inline lv_coord_t lv_obj_get_style_max_height(const struct _lv_obj_t * obj, uint32_t part)
  32:lvgl/src/extra/layouts/grid/../flex/../../../core/lv_obj_style_gen.h **** {
  33:lvgl/src/extra/layouts/grid/../flex/../../../core/lv_obj_style_gen.h ****     lv_style_value_t v = lv_obj_get_style_prop(obj, part, LV_STYLE_MAX_HEIGHT);
ARM GAS  /var/folders/21/t9g5rlb91ys800n5npymflf80000gn/T//cce6JCY2.s 			page 42


  34:lvgl/src/extra/layouts/grid/../flex/../../../core/lv_obj_style_gen.h ****     return (lv_coord_t)v.num;
  35:lvgl/src/extra/layouts/grid/../flex/../../../core/lv_obj_style_gen.h **** }
  36:lvgl/src/extra/layouts/grid/../flex/../../../core/lv_obj_style_gen.h **** 
  37:lvgl/src/extra/layouts/grid/../flex/../../../core/lv_obj_style_gen.h **** static inline lv_coord_t lv_obj_get_style_x(const struct _lv_obj_t * obj, uint32_t part)
  38:lvgl/src/extra/layouts/grid/../flex/../../../core/lv_obj_style_gen.h **** {
  39:lvgl/src/extra/layouts/grid/../flex/../../../core/lv_obj_style_gen.h ****     lv_style_value_t v = lv_obj_get_style_prop(obj, part, LV_STYLE_X);
  40:lvgl/src/extra/layouts/grid/../flex/../../../core/lv_obj_style_gen.h ****     return (lv_coord_t)v.num;
  41:lvgl/src/extra/layouts/grid/../flex/../../../core/lv_obj_style_gen.h **** }
  42:lvgl/src/extra/layouts/grid/../flex/../../../core/lv_obj_style_gen.h **** 
  43:lvgl/src/extra/layouts/grid/../flex/../../../core/lv_obj_style_gen.h **** static inline lv_coord_t lv_obj_get_style_y(const struct _lv_obj_t * obj, uint32_t part)
  44:lvgl/src/extra/layouts/grid/../flex/../../../core/lv_obj_style_gen.h **** {
  45:lvgl/src/extra/layouts/grid/../flex/../../../core/lv_obj_style_gen.h ****     lv_style_value_t v = lv_obj_get_style_prop(obj, part, LV_STYLE_Y);
  46:lvgl/src/extra/layouts/grid/../flex/../../../core/lv_obj_style_gen.h ****     return (lv_coord_t)v.num;
  47:lvgl/src/extra/layouts/grid/../flex/../../../core/lv_obj_style_gen.h **** }
  48:lvgl/src/extra/layouts/grid/../flex/../../../core/lv_obj_style_gen.h **** 
  49:lvgl/src/extra/layouts/grid/../flex/../../../core/lv_obj_style_gen.h **** static inline lv_align_t lv_obj_get_style_align(const struct _lv_obj_t * obj, uint32_t part)
  50:lvgl/src/extra/layouts/grid/../flex/../../../core/lv_obj_style_gen.h **** {
  51:lvgl/src/extra/layouts/grid/../flex/../../../core/lv_obj_style_gen.h ****     lv_style_value_t v = lv_obj_get_style_prop(obj, part, LV_STYLE_ALIGN);
  52:lvgl/src/extra/layouts/grid/../flex/../../../core/lv_obj_style_gen.h ****     return (lv_align_t)v.num;
  53:lvgl/src/extra/layouts/grid/../flex/../../../core/lv_obj_style_gen.h **** }
  54:lvgl/src/extra/layouts/grid/../flex/../../../core/lv_obj_style_gen.h **** 
  55:lvgl/src/extra/layouts/grid/../flex/../../../core/lv_obj_style_gen.h **** static inline lv_coord_t lv_obj_get_style_transform_width(const struct _lv_obj_t * obj, uint32_t pa
  56:lvgl/src/extra/layouts/grid/../flex/../../../core/lv_obj_style_gen.h **** {
  57:lvgl/src/extra/layouts/grid/../flex/../../../core/lv_obj_style_gen.h ****     lv_style_value_t v = lv_obj_get_style_prop(obj, part, LV_STYLE_TRANSFORM_WIDTH);
  58:lvgl/src/extra/layouts/grid/../flex/../../../core/lv_obj_style_gen.h ****     return (lv_coord_t)v.num;
  59:lvgl/src/extra/layouts/grid/../flex/../../../core/lv_obj_style_gen.h **** }
  60:lvgl/src/extra/layouts/grid/../flex/../../../core/lv_obj_style_gen.h **** 
  61:lvgl/src/extra/layouts/grid/../flex/../../../core/lv_obj_style_gen.h **** static inline lv_coord_t lv_obj_get_style_transform_height(const struct _lv_obj_t * obj, uint32_t p
  62:lvgl/src/extra/layouts/grid/../flex/../../../core/lv_obj_style_gen.h **** {
  63:lvgl/src/extra/layouts/grid/../flex/../../../core/lv_obj_style_gen.h ****     lv_style_value_t v = lv_obj_get_style_prop(obj, part, LV_STYLE_TRANSFORM_HEIGHT);
  64:lvgl/src/extra/layouts/grid/../flex/../../../core/lv_obj_style_gen.h ****     return (lv_coord_t)v.num;
  65:lvgl/src/extra/layouts/grid/../flex/../../../core/lv_obj_style_gen.h **** }
  66:lvgl/src/extra/layouts/grid/../flex/../../../core/lv_obj_style_gen.h **** 
  67:lvgl/src/extra/layouts/grid/../flex/../../../core/lv_obj_style_gen.h **** static inline lv_coord_t lv_obj_get_style_translate_x(const struct _lv_obj_t * obj, uint32_t part)
  68:lvgl/src/extra/layouts/grid/../flex/../../../core/lv_obj_style_gen.h **** {
  69:lvgl/src/extra/layouts/grid/../flex/../../../core/lv_obj_style_gen.h ****     lv_style_value_t v = lv_obj_get_style_prop(obj, part, LV_STYLE_TRANSLATE_X);
  70:lvgl/src/extra/layouts/grid/../flex/../../../core/lv_obj_style_gen.h ****     return (lv_coord_t)v.num;
  71:lvgl/src/extra/layouts/grid/../flex/../../../core/lv_obj_style_gen.h **** }
  72:lvgl/src/extra/layouts/grid/../flex/../../../core/lv_obj_style_gen.h **** 
  73:lvgl/src/extra/layouts/grid/../flex/../../../core/lv_obj_style_gen.h **** static inline lv_coord_t lv_obj_get_style_translate_y(const struct _lv_obj_t * obj, uint32_t part)
  74:lvgl/src/extra/layouts/grid/../flex/../../../core/lv_obj_style_gen.h **** {
  75:lvgl/src/extra/layouts/grid/../flex/../../../core/lv_obj_style_gen.h ****     lv_style_value_t v = lv_obj_get_style_prop(obj, part, LV_STYLE_TRANSLATE_Y);
  76:lvgl/src/extra/layouts/grid/../flex/../../../core/lv_obj_style_gen.h ****     return (lv_coord_t)v.num;
  77:lvgl/src/extra/layouts/grid/../flex/../../../core/lv_obj_style_gen.h **** }
  78:lvgl/src/extra/layouts/grid/../flex/../../../core/lv_obj_style_gen.h **** 
  79:lvgl/src/extra/layouts/grid/../flex/../../../core/lv_obj_style_gen.h **** static inline lv_coord_t lv_obj_get_style_transform_zoom(const struct _lv_obj_t * obj, uint32_t par
  80:lvgl/src/extra/layouts/grid/../flex/../../../core/lv_obj_style_gen.h **** {
  81:lvgl/src/extra/layouts/grid/../flex/../../../core/lv_obj_style_gen.h ****     lv_style_value_t v = lv_obj_get_style_prop(obj, part, LV_STYLE_TRANSFORM_ZOOM);
  82:lvgl/src/extra/layouts/grid/../flex/../../../core/lv_obj_style_gen.h ****     return (lv_coord_t)v.num;
  83:lvgl/src/extra/layouts/grid/../flex/../../../core/lv_obj_style_gen.h **** }
  84:lvgl/src/extra/layouts/grid/../flex/../../../core/lv_obj_style_gen.h **** 
  85:lvgl/src/extra/layouts/grid/../flex/../../../core/lv_obj_style_gen.h **** static inline lv_coord_t lv_obj_get_style_transform_angle(const struct _lv_obj_t * obj, uint32_t pa
  86:lvgl/src/extra/layouts/grid/../flex/../../../core/lv_obj_style_gen.h **** {
  87:lvgl/src/extra/layouts/grid/../flex/../../../core/lv_obj_style_gen.h ****     lv_style_value_t v = lv_obj_get_style_prop(obj, part, LV_STYLE_TRANSFORM_ANGLE);
  88:lvgl/src/extra/layouts/grid/../flex/../../../core/lv_obj_style_gen.h ****     return (lv_coord_t)v.num;
  89:lvgl/src/extra/layouts/grid/../flex/../../../core/lv_obj_style_gen.h **** }
  90:lvgl/src/extra/layouts/grid/../flex/../../../core/lv_obj_style_gen.h **** 
ARM GAS  /var/folders/21/t9g5rlb91ys800n5npymflf80000gn/T//cce6JCY2.s 			page 43


  91:lvgl/src/extra/layouts/grid/../flex/../../../core/lv_obj_style_gen.h **** static inline lv_coord_t lv_obj_get_style_transform_pivot_x(const struct _lv_obj_t * obj, uint32_t 
  92:lvgl/src/extra/layouts/grid/../flex/../../../core/lv_obj_style_gen.h **** {
  93:lvgl/src/extra/layouts/grid/../flex/../../../core/lv_obj_style_gen.h ****     lv_style_value_t v = lv_obj_get_style_prop(obj, part, LV_STYLE_TRANSFORM_PIVOT_X);
  94:lvgl/src/extra/layouts/grid/../flex/../../../core/lv_obj_style_gen.h ****     return (lv_coord_t)v.num;
  95:lvgl/src/extra/layouts/grid/../flex/../../../core/lv_obj_style_gen.h **** }
  96:lvgl/src/extra/layouts/grid/../flex/../../../core/lv_obj_style_gen.h **** 
  97:lvgl/src/extra/layouts/grid/../flex/../../../core/lv_obj_style_gen.h **** static inline lv_coord_t lv_obj_get_style_transform_pivot_y(const struct _lv_obj_t * obj, uint32_t 
  98:lvgl/src/extra/layouts/grid/../flex/../../../core/lv_obj_style_gen.h **** {
  99:lvgl/src/extra/layouts/grid/../flex/../../../core/lv_obj_style_gen.h ****     lv_style_value_t v = lv_obj_get_style_prop(obj, part, LV_STYLE_TRANSFORM_PIVOT_Y);
 100:lvgl/src/extra/layouts/grid/../flex/../../../core/lv_obj_style_gen.h ****     return (lv_coord_t)v.num;
 101:lvgl/src/extra/layouts/grid/../flex/../../../core/lv_obj_style_gen.h **** }
 102:lvgl/src/extra/layouts/grid/../flex/../../../core/lv_obj_style_gen.h **** 
 103:lvgl/src/extra/layouts/grid/../flex/../../../core/lv_obj_style_gen.h **** static inline lv_coord_t lv_obj_get_style_pad_top(const struct _lv_obj_t * obj, uint32_t part)
 104:lvgl/src/extra/layouts/grid/../flex/../../../core/lv_obj_style_gen.h **** {
 105:lvgl/src/extra/layouts/grid/../flex/../../../core/lv_obj_style_gen.h ****     lv_style_value_t v = lv_obj_get_style_prop(obj, part, LV_STYLE_PAD_TOP);
 106:lvgl/src/extra/layouts/grid/../flex/../../../core/lv_obj_style_gen.h ****     return (lv_coord_t)v.num;
 107:lvgl/src/extra/layouts/grid/../flex/../../../core/lv_obj_style_gen.h **** }
 108:lvgl/src/extra/layouts/grid/../flex/../../../core/lv_obj_style_gen.h **** 
 109:lvgl/src/extra/layouts/grid/../flex/../../../core/lv_obj_style_gen.h **** static inline lv_coord_t lv_obj_get_style_pad_bottom(const struct _lv_obj_t * obj, uint32_t part)
 110:lvgl/src/extra/layouts/grid/../flex/../../../core/lv_obj_style_gen.h **** {
 111:lvgl/src/extra/layouts/grid/../flex/../../../core/lv_obj_style_gen.h ****     lv_style_value_t v = lv_obj_get_style_prop(obj, part, LV_STYLE_PAD_BOTTOM);
 112:lvgl/src/extra/layouts/grid/../flex/../../../core/lv_obj_style_gen.h ****     return (lv_coord_t)v.num;
 113:lvgl/src/extra/layouts/grid/../flex/../../../core/lv_obj_style_gen.h **** }
 114:lvgl/src/extra/layouts/grid/../flex/../../../core/lv_obj_style_gen.h **** 
 115:lvgl/src/extra/layouts/grid/../flex/../../../core/lv_obj_style_gen.h **** static inline lv_coord_t lv_obj_get_style_pad_left(const struct _lv_obj_t * obj, uint32_t part)
 116:lvgl/src/extra/layouts/grid/../flex/../../../core/lv_obj_style_gen.h **** {
 117:lvgl/src/extra/layouts/grid/../flex/../../../core/lv_obj_style_gen.h ****     lv_style_value_t v = lv_obj_get_style_prop(obj, part, LV_STYLE_PAD_LEFT);
 118:lvgl/src/extra/layouts/grid/../flex/../../../core/lv_obj_style_gen.h ****     return (lv_coord_t)v.num;
 119:lvgl/src/extra/layouts/grid/../flex/../../../core/lv_obj_style_gen.h **** }
 120:lvgl/src/extra/layouts/grid/../flex/../../../core/lv_obj_style_gen.h **** 
 121:lvgl/src/extra/layouts/grid/../flex/../../../core/lv_obj_style_gen.h **** static inline lv_coord_t lv_obj_get_style_pad_right(const struct _lv_obj_t * obj, uint32_t part)
 122:lvgl/src/extra/layouts/grid/../flex/../../../core/lv_obj_style_gen.h **** {
 123:lvgl/src/extra/layouts/grid/../flex/../../../core/lv_obj_style_gen.h ****     lv_style_value_t v = lv_obj_get_style_prop(obj, part, LV_STYLE_PAD_RIGHT);
 124:lvgl/src/extra/layouts/grid/../flex/../../../core/lv_obj_style_gen.h ****     return (lv_coord_t)v.num;
 125:lvgl/src/extra/layouts/grid/../flex/../../../core/lv_obj_style_gen.h **** }
 126:lvgl/src/extra/layouts/grid/../flex/../../../core/lv_obj_style_gen.h **** 
 127:lvgl/src/extra/layouts/grid/../flex/../../../core/lv_obj_style_gen.h **** static inline lv_coord_t lv_obj_get_style_pad_row(const struct _lv_obj_t * obj, uint32_t part)
 1129              		.loc 3 127 26 view .LVU317
 1130              	.LBB101:
 128:lvgl/src/extra/layouts/grid/../flex/../../../core/lv_obj_style_gen.h **** {
 129:lvgl/src/extra/layouts/grid/../flex/../../../core/lv_obj_style_gen.h ****     lv_style_value_t v = lv_obj_get_style_prop(obj, part, LV_STYLE_PAD_ROW);
 1131              		.loc 3 129 5 view .LVU318
 1132              		.loc 3 129 26 is_stmt 0 view .LVU319
 1133 00ea 1422     		movs	r2, #20
 1134              	.LVL118:
 1135              		.loc 3 129 26 view .LVU320
 1136 00ec 0021     		movs	r1, #0
 1137 00ee 4046     		mov	r0, r8
 1138 00f0 FFF7FEFF 		bl	lv_obj_get_style_prop
 1139              	.LVL119:
 130:lvgl/src/extra/layouts/grid/../flex/../../../core/lv_obj_style_gen.h ****     return (lv_coord_t)v.num;
 1140              		.loc 3 130 5 is_stmt 1 view .LVU321
 1141              		.loc 3 130 12 is_stmt 0 view .LVU322
 1142 00f4 0FFA80F9 		sxth	r9, r0
 1143              	.LVL120:
 1144              		.loc 3 130 12 view .LVU323
 1145              	.LBE101:
ARM GAS  /var/folders/21/t9g5rlb91ys800n5npymflf80000gn/T//cce6JCY2.s 			page 44


 1146              	.LBE100:
 545:lvgl/src/extra/layouts/grid/lv_grid.c ****     lv_coord_t free_h = cont_h - grid_h;
 1147              		.loc 1 545 5 is_stmt 1 view .LVU324
 545:lvgl/src/extra/layouts/grid/lv_grid.c ****     lv_coord_t free_h = cont_h - grid_h;
 1148              		.loc 1 545 25 is_stmt 0 view .LVU325
 1149 00f8 4046     		mov	r0, r8
 1150 00fa FFF7FEFF 		bl	lv_obj_get_content_height
 1151              	.LVL121:
 1152 00fe 81B2     		uxth	r1, r0
 545:lvgl/src/extra/layouts/grid/lv_grid.c ****     lv_coord_t free_h = cont_h - grid_h;
 1153              		.loc 1 545 71 view .LVU326
 1154 0100 6369     		ldr	r3, [r4, #20]
 545:lvgl/src/extra/layouts/grid/lv_grid.c ****     lv_coord_t free_h = cont_h - grid_h;
 1155              		.loc 1 545 81 view .LVU327
 1156 0102 013B     		subs	r3, r3, #1
 545:lvgl/src/extra/layouts/grid/lv_grid.c ****     lv_coord_t free_h = cont_h - grid_h;
 1157              		.loc 1 545 57 view .LVU328
 1158 0104 19FB03F9 		smulbb	r9, r9, r3
 1159              	.LVL122:
 545:lvgl/src/extra/layouts/grid/lv_grid.c ****     lv_coord_t free_h = cont_h - grid_h;
 1160              		.loc 1 545 57 view .LVU329
 1161 0108 A1EB0901 		sub	r1, r1, r9
 1162 010c 89B2     		uxth	r1, r1
 1163              	.LVL123:
 546:lvgl/src/extra/layouts/grid/lv_grid.c ****     if(free_h < 0) free_h = 0;
 1164              		.loc 1 546 5 is_stmt 1 view .LVU330
 546:lvgl/src/extra/layouts/grid/lv_grid.c ****     if(free_h < 0) free_h = 0;
 1165              		.loc 1 546 32 is_stmt 0 view .LVU331
 1166 010e 891B     		subs	r1, r1, r6
 1167              	.LVL124:
 546:lvgl/src/extra/layouts/grid/lv_grid.c ****     if(free_h < 0) free_h = 0;
 1168              		.loc 1 546 16 view .LVU332
 1169 0110 09B2     		sxth	r1, r1
 1170              	.LVL125:
 547:lvgl/src/extra/layouts/grid/lv_grid.c **** 
 1171              		.loc 1 547 5 is_stmt 1 view .LVU333
 547:lvgl/src/extra/layouts/grid/lv_grid.c **** 
 1172              		.loc 1 547 7 is_stmt 0 view .LVU334
 1173 0112 0029     		cmp	r1, #0
 1174 0114 04DB     		blt	.L92
 1175              	.LVL126:
 1176              	.L80:
 549:lvgl/src/extra/layouts/grid/lv_grid.c ****     int32_t last_fr_x = 0;
 1177              		.loc 1 549 5 is_stmt 1 view .LVU335
 550:lvgl/src/extra/layouts/grid/lv_grid.c ****     for(i = 0; i < c->row_num; i++) {
 1178              		.loc 1 550 5 view .LVU336
 551:lvgl/src/extra/layouts/grid/lv_grid.c ****         lv_coord_t x = row_templ[i];
 1179              		.loc 1 551 5 view .LVU337
 550:lvgl/src/extra/layouts/grid/lv_grid.c ****     for(i = 0; i < c->row_num; i++) {
 1180              		.loc 1 550 13 is_stmt 0 view .LVU338
 1181 0116 0026     		movs	r6, #0
 1182              	.LVL127:
 549:lvgl/src/extra/layouts/grid/lv_grid.c ****     int32_t last_fr_x = 0;
 1183              		.loc 1 549 13 view .LVU339
 1184 0118 4FF0FF3C 		mov	ip, #-1
 551:lvgl/src/extra/layouts/grid/lv_grid.c ****         lv_coord_t x = row_templ[i];
 1185              		.loc 1 551 11 view .LVU340
ARM GAS  /var/folders/21/t9g5rlb91ys800n5npymflf80000gn/T//cce6JCY2.s 			page 45


 1186 011c 3346     		mov	r3, r6
 551:lvgl/src/extra/layouts/grid/lv_grid.c ****         lv_coord_t x = row_templ[i];
 1187              		.loc 1 551 5 view .LVU341
 1188 011e 02E0     		b	.L81
 1189              	.LVL128:
 1190              	.L92:
 547:lvgl/src/extra/layouts/grid/lv_grid.c **** 
 1191              		.loc 1 547 27 view .LVU342
 1192 0120 0021     		movs	r1, #0
 1193              	.LVL129:
 547:lvgl/src/extra/layouts/grid/lv_grid.c **** 
 1194              		.loc 1 547 27 view .LVU343
 1195 0122 F8E7     		b	.L80
 1196              	.LVL130:
 1197              	.L82:
 551:lvgl/src/extra/layouts/grid/lv_grid.c ****         lv_coord_t x = row_templ[i];
 1198              		.loc 1 551 33 is_stmt 1 discriminator 2 view .LVU344
 1199 0124 0133     		adds	r3, r3, #1
 1200              	.LVL131:
 1201              	.L81:
 551:lvgl/src/extra/layouts/grid/lv_grid.c ****         lv_coord_t x = row_templ[i];
 1202              		.loc 1 551 18 discriminator 1 view .LVU345
 551:lvgl/src/extra/layouts/grid/lv_grid.c ****         lv_coord_t x = row_templ[i];
 1203              		.loc 1 551 21 is_stmt 0 discriminator 1 view .LVU346
 1204 0126 6269     		ldr	r2, [r4, #20]
 551:lvgl/src/extra/layouts/grid/lv_grid.c ****         lv_coord_t x = row_templ[i];
 1205              		.loc 1 551 18 discriminator 1 view .LVU347
 1206 0128 9A42     		cmp	r2, r3
 1207 012a 12D9     		bls	.L93
 1208              	.LBB102:
 552:lvgl/src/extra/layouts/grid/lv_grid.c ****         if(IS_FR(x)) {
 1209              		.loc 1 552 9 is_stmt 1 view .LVU348
 552:lvgl/src/extra/layouts/grid/lv_grid.c ****         if(IS_FR(x)) {
 1210              		.loc 1 552 20 is_stmt 0 view .LVU349
 1211 012c 37F91320 		ldrsh	r2, [r7, r3, lsl #1]
 1212              	.LVL132:
 553:lvgl/src/extra/layouts/grid/lv_grid.c ****             lv_coord_t f = GET_FR(x);
 1213              		.loc 1 553 9 is_stmt 1 view .LVU350
 553:lvgl/src/extra/layouts/grid/lv_grid.c ****             lv_coord_t f = GET_FR(x);
 1214              		.loc 1 553 11 is_stmt 0 view .LVU351
 1215 0130 41F69A70 		movw	r0, #8090
 1216 0134 8242     		cmp	r2, r0
 1217 0136 F5DD     		ble	.L82
 1218              	.LBB103:
 554:lvgl/src/extra/layouts/grid/lv_grid.c ****             c->h[i] = (free_h * f) / row_fr_cnt;
 1219              		.loc 1 554 13 is_stmt 1 view .LVU352
 554:lvgl/src/extra/layouts/grid/lv_grid.c ****             c->h[i] = (free_h * f) / row_fr_cnt;
 1220              		.loc 1 554 28 is_stmt 0 view .LVU353
 1221 0138 A2F5FC52 		sub	r2, r2, #8064
 1222              	.LVL133:
 554:lvgl/src/extra/layouts/grid/lv_grid.c ****             c->h[i] = (free_h * f) / row_fr_cnt;
 1223              		.loc 1 554 28 view .LVU354
 1224 013c 1B3A     		subs	r2, r2, #27
 1225              	.LVL134:
 554:lvgl/src/extra/layouts/grid/lv_grid.c ****             c->h[i] = (free_h * f) / row_fr_cnt;
 1226              		.loc 1 554 24 view .LVU355
 1227 013e 16B2     		sxth	r6, r2
ARM GAS  /var/folders/21/t9g5rlb91ys800n5npymflf80000gn/T//cce6JCY2.s 			page 46


 1228              	.LVL135:
 555:lvgl/src/extra/layouts/grid/lv_grid.c ****             last_fr_i = i;
 1229              		.loc 1 555 13 is_stmt 1 view .LVU356
 555:lvgl/src/extra/layouts/grid/lv_grid.c ****             last_fr_i = i;
 1230              		.loc 1 555 31 is_stmt 0 view .LVU357
 1231 0140 06FB01F2 		mul	r2, r6, r1
 1232              	.LVL136:
 555:lvgl/src/extra/layouts/grid/lv_grid.c ****             last_fr_i = i;
 1233              		.loc 1 555 36 view .LVU358
 1234 0144 B2FBF5F2 		udiv	r2, r2, r5
 555:lvgl/src/extra/layouts/grid/lv_grid.c ****             last_fr_i = i;
 1235              		.loc 1 555 14 view .LVU359
 1236 0148 E068     		ldr	r0, [r4, #12]
 555:lvgl/src/extra/layouts/grid/lv_grid.c ****             last_fr_i = i;
 1237              		.loc 1 555 21 view .LVU360
 1238 014a 20F81320 		strh	r2, [r0, r3, lsl #1]	@ movhi
 1239              	.LVL137:
 556:lvgl/src/extra/layouts/grid/lv_grid.c ****             last_fr_x = f;
 1240              		.loc 1 556 13 is_stmt 1 view .LVU361
 556:lvgl/src/extra/layouts/grid/lv_grid.c ****             last_fr_x = f;
 1241              		.loc 1 556 23 is_stmt 0 view .LVU362
 1242 014e 9C46     		mov	ip, r3
 1243              	.LVL138:
 557:lvgl/src/extra/layouts/grid/lv_grid.c ****         }
 1244              		.loc 1 557 13 is_stmt 1 view .LVU363
 557:lvgl/src/extra/layouts/grid/lv_grid.c ****         }
 1245              		.loc 1 557 13 is_stmt 0 view .LVU364
 1246 0150 E8E7     		b	.L82
 1247              	.LVL139:
 1248              	.L93:
 557:lvgl/src/extra/layouts/grid/lv_grid.c ****         }
 1249              		.loc 1 557 13 view .LVU365
 1250              	.LBE103:
 1251              	.LBE102:
 562:lvgl/src/extra/layouts/grid/lv_grid.c ****         c->h[last_fr_i] = free_h - ((free_h * (row_fr_cnt - last_fr_x)) / row_fr_cnt);
 1252              		.loc 1 562 5 is_stmt 1 view .LVU366
 562:lvgl/src/extra/layouts/grid/lv_grid.c ****         c->h[last_fr_i] = free_h - ((free_h * (row_fr_cnt - last_fr_x)) / row_fr_cnt);
 1253              		.loc 1 562 7 is_stmt 0 view .LVU367
 1254 0152 BCF1000F 		cmp	ip, #0
 1255 0156 08DB     		blt	.L67
 563:lvgl/src/extra/layouts/grid/lv_grid.c ****     }
 1256              		.loc 1 563 9 is_stmt 1 view .LVU368
 563:lvgl/src/extra/layouts/grid/lv_grid.c ****     }
 1257              		.loc 1 563 59 is_stmt 0 view .LVU369
 1258 0158 AB1B     		subs	r3, r5, r6
 1259              	.LVL140:
 563:lvgl/src/extra/layouts/grid/lv_grid.c ****     }
 1260              		.loc 1 563 45 view .LVU370
 1261 015a 01FB03F3 		mul	r3, r1, r3
 563:lvgl/src/extra/layouts/grid/lv_grid.c ****     }
 1262              		.loc 1 563 73 view .LVU371
 1263 015e B3FBF5F3 		udiv	r3, r3, r5
 563:lvgl/src/extra/layouts/grid/lv_grid.c ****     }
 1264              		.loc 1 563 10 view .LVU372
 1265 0162 E268     		ldr	r2, [r4, #12]
 563:lvgl/src/extra/layouts/grid/lv_grid.c ****     }
 1266              		.loc 1 563 34 view .LVU373
ARM GAS  /var/folders/21/t9g5rlb91ys800n5npymflf80000gn/T//cce6JCY2.s 			page 47


 1267 0164 C91A     		subs	r1, r1, r3
 1268              	.LVL141:
 563:lvgl/src/extra/layouts/grid/lv_grid.c ****     }
 1269              		.loc 1 563 25 view .LVU374
 1270 0166 22F81C10 		strh	r1, [r2, ip, lsl #1]	@ movhi
 1271              	.L67:
 565:lvgl/src/extra/layouts/grid/lv_grid.c **** 
 1272              		.loc 1 565 1 view .LVU375
 1273 016a BDE8F88F 		pop	{r3, r4, r5, r6, r7, r8, r9, r10, fp, pc}
 1274              	.LVL142:
 1275              	.L95:
 565:lvgl/src/extra/layouts/grid/lv_grid.c **** 
 1276              		.loc 1 565 1 view .LVU376
 1277 016e 00BF     		.align	2
 1278              	.L94:
 1279 0170 01000600 		.word	393217
 1280 0174 01E0FFFF 		.word	-8191
 1281              		.cfi_endproc
 1282              	.LFE215:
 1284              		.section	.text.calc_cols,"ax",%progbits
 1285              		.align	1
 1286              		.syntax unified
 1287              		.thumb
 1288              		.thumb_func
 1290              	calc_cols:
 1291              	.LVL143:
 1292              	.LFB214:
 427:lvgl/src/extra/layouts/grid/lv_grid.c ****     const lv_coord_t * col_templ = get_col_dsc(cont);
 1293              		.loc 1 427 1 is_stmt 1 view -0
 1294              		.cfi_startproc
 1295              		@ args = 0, pretend = 0, frame = 8
 1296              		@ frame_needed = 0, uses_anonymous_args = 0
 427:lvgl/src/extra/layouts/grid/lv_grid.c ****     const lv_coord_t * col_templ = get_col_dsc(cont);
 1297              		.loc 1 427 1 is_stmt 0 view .LVU378
 1298 0000 2DE9F04F 		push	{r4, r5, r6, r7, r8, r9, r10, fp, lr}
 1299              	.LCFI12:
 1300              		.cfi_def_cfa_offset 36
 1301              		.cfi_offset 4, -36
 1302              		.cfi_offset 5, -32
 1303              		.cfi_offset 6, -28
 1304              		.cfi_offset 7, -24
 1305              		.cfi_offset 8, -20
 1306              		.cfi_offset 9, -16
 1307              		.cfi_offset 10, -12
 1308              		.cfi_offset 11, -8
 1309              		.cfi_offset 14, -4
 1310 0004 83B0     		sub	sp, sp, #12
 1311              	.LCFI13:
 1312              		.cfi_def_cfa_offset 48
 1313 0006 8146     		mov	r9, r0
 1314 0008 0C46     		mov	r4, r1
 428:lvgl/src/extra/layouts/grid/lv_grid.c ****     lv_coord_t cont_w = lv_obj_get_content_width(cont);
 1315              		.loc 1 428 5 is_stmt 1 view .LVU379
 428:lvgl/src/extra/layouts/grid/lv_grid.c ****     lv_coord_t cont_w = lv_obj_get_content_width(cont);
 1316              		.loc 1 428 36 is_stmt 0 view .LVU380
 1317 000a FFF7FEFF 		bl	get_col_dsc
 1318              	.LVL144:
ARM GAS  /var/folders/21/t9g5rlb91ys800n5npymflf80000gn/T//cce6JCY2.s 			page 48


 428:lvgl/src/extra/layouts/grid/lv_grid.c ****     lv_coord_t cont_w = lv_obj_get_content_width(cont);
 1319              		.loc 1 428 36 view .LVU381
 1320 000e 8046     		mov	r8, r0
 1321              	.LVL145:
 429:lvgl/src/extra/layouts/grid/lv_grid.c **** 
 1322              		.loc 1 429 5 is_stmt 1 view .LVU382
 429:lvgl/src/extra/layouts/grid/lv_grid.c **** 
 1323              		.loc 1 429 25 is_stmt 0 view .LVU383
 1324 0010 4846     		mov	r0, r9
 1325              	.LVL146:
 429:lvgl/src/extra/layouts/grid/lv_grid.c **** 
 1326              		.loc 1 429 25 view .LVU384
 1327 0012 FFF7FEFF 		bl	lv_obj_get_content_width
 1328              	.LVL147:
 1329 0016 0190     		str	r0, [sp, #4]
 1330              	.LVL148:
 431:lvgl/src/extra/layouts/grid/lv_grid.c ****     c->x = lv_mem_buf_get(sizeof(lv_coord_t) * c->col_num);
 1331              		.loc 1 431 5 is_stmt 1 view .LVU385
 431:lvgl/src/extra/layouts/grid/lv_grid.c ****     c->x = lv_mem_buf_get(sizeof(lv_coord_t) * c->col_num);
 1332              		.loc 1 431 18 is_stmt 0 view .LVU386
 1333 0018 4046     		mov	r0, r8
 1334 001a FFF7FEFF 		bl	count_tracks
 1335              	.LVL149:
 431:lvgl/src/extra/layouts/grid/lv_grid.c ****     c->x = lv_mem_buf_get(sizeof(lv_coord_t) * c->col_num);
 1336              		.loc 1 431 16 view .LVU387
 1337 001e 2061     		str	r0, [r4, #16]
 432:lvgl/src/extra/layouts/grid/lv_grid.c ****     c->w = lv_mem_buf_get(sizeof(lv_coord_t) * c->col_num);
 1338              		.loc 1 432 5 is_stmt 1 view .LVU388
 432:lvgl/src/extra/layouts/grid/lv_grid.c ****     c->w = lv_mem_buf_get(sizeof(lv_coord_t) * c->col_num);
 1339              		.loc 1 432 12 is_stmt 0 view .LVU389
 1340 0020 4000     		lsls	r0, r0, #1
 1341 0022 FFF7FEFF 		bl	lv_mem_buf_get
 1342              	.LVL150:
 432:lvgl/src/extra/layouts/grid/lv_grid.c ****     c->w = lv_mem_buf_get(sizeof(lv_coord_t) * c->col_num);
 1343              		.loc 1 432 10 view .LVU390
 1344 0026 2060     		str	r0, [r4]
 433:lvgl/src/extra/layouts/grid/lv_grid.c **** 
 1345              		.loc 1 433 5 is_stmt 1 view .LVU391
 433:lvgl/src/extra/layouts/grid/lv_grid.c **** 
 1346              		.loc 1 433 49 is_stmt 0 view .LVU392
 1347 0028 2069     		ldr	r0, [r4, #16]
 433:lvgl/src/extra/layouts/grid/lv_grid.c **** 
 1348              		.loc 1 433 12 view .LVU393
 1349 002a 4000     		lsls	r0, r0, #1
 1350 002c FFF7FEFF 		bl	lv_mem_buf_get
 1351              	.LVL151:
 433:lvgl/src/extra/layouts/grid/lv_grid.c **** 
 1352              		.loc 1 433 10 view .LVU394
 1353 0030 A060     		str	r0, [r4, #8]
 436:lvgl/src/extra/layouts/grid/lv_grid.c ****     for(i = 0; i < c->col_num; i++) {
 1354              		.loc 1 436 5 is_stmt 1 view .LVU395
 437:lvgl/src/extra/layouts/grid/lv_grid.c ****         lv_coord_t size = LV_COORD_MIN;
 1355              		.loc 1 437 5 view .LVU396
 1356              	.LVL152:
 437:lvgl/src/extra/layouts/grid/lv_grid.c ****         lv_coord_t size = LV_COORD_MIN;
 1357              		.loc 1 437 11 is_stmt 0 view .LVU397
 1358 0032 0026     		movs	r6, #0
ARM GAS  /var/folders/21/t9g5rlb91ys800n5npymflf80000gn/T//cce6JCY2.s 			page 49


 437:lvgl/src/extra/layouts/grid/lv_grid.c ****         lv_coord_t size = LV_COORD_MIN;
 1359              		.loc 1 437 5 view .LVU398
 1360 0034 2AE0     		b	.L97
 1361              	.LVL153:
 1362              	.L100:
 1363              	.LBB104:
 1364              	.LBB105:
 442:lvgl/src/extra/layouts/grid/lv_grid.c ****                 lv_obj_t * item = lv_obj_get_child(cont, ci);
 1365              		.loc 1 442 60 is_stmt 1 discriminator 2 view .LVU399
 1366 0036 0135     		adds	r5, r5, #1
 1367              	.LVL154:
 1368              	.L98:
 442:lvgl/src/extra/layouts/grid/lv_grid.c ****                 lv_obj_t * item = lv_obj_get_child(cont, ci);
 1369              		.loc 1 442 28 discriminator 1 view .LVU400
 442:lvgl/src/extra/layouts/grid/lv_grid.c ****                 lv_obj_t * item = lv_obj_get_child(cont, ci);
 1370              		.loc 1 442 30 is_stmt 0 discriminator 1 view .LVU401
 1371 0038 4846     		mov	r0, r9
 1372 003a FFF7FEFF 		bl	lv_obj_get_child_cnt
 1373              	.LVL155:
 442:lvgl/src/extra/layouts/grid/lv_grid.c ****                 lv_obj_t * item = lv_obj_get_child(cont, ci);
 1374              		.loc 1 442 28 discriminator 1 view .LVU402
 1375 003e A842     		cmp	r0, r5
 1376 0040 1DD9     		bls	.L117
 1377              	.LBB106:
 443:lvgl/src/extra/layouts/grid/lv_grid.c ****                 if(lv_obj_has_flag_any(item, LV_OBJ_FLAG_IGNORE_LAYOUT | LV_OBJ_FLAG_HIDDEN | LV_OB
 1378              		.loc 1 443 17 is_stmt 1 view .LVU403
 443:lvgl/src/extra/layouts/grid/lv_grid.c ****                 if(lv_obj_has_flag_any(item, LV_OBJ_FLAG_IGNORE_LAYOUT | LV_OBJ_FLAG_HIDDEN | LV_OB
 1379              		.loc 1 443 35 is_stmt 0 view .LVU404
 1380 0042 2946     		mov	r1, r5
 1381 0044 4846     		mov	r0, r9
 1382 0046 FFF7FEFF 		bl	lv_obj_get_child
 1383              	.LVL156:
 1384 004a 0746     		mov	r7, r0
 1385              	.LVL157:
 444:lvgl/src/extra/layouts/grid/lv_grid.c ****                 uint32_t col_span = get_col_span(item);
 1386              		.loc 1 444 17 is_stmt 1 view .LVU405
 444:lvgl/src/extra/layouts/grid/lv_grid.c ****                 uint32_t col_span = get_col_span(item);
 1387              		.loc 1 444 20 is_stmt 0 view .LVU406
 1388 004c 4849     		ldr	r1, .L123
 1389 004e FFF7FEFF 		bl	lv_obj_has_flag_any
 1390              	.LVL158:
 444:lvgl/src/extra/layouts/grid/lv_grid.c ****                 uint32_t col_span = get_col_span(item);
 1391              		.loc 1 444 19 view .LVU407
 1392 0052 0028     		cmp	r0, #0
 1393 0054 EFD1     		bne	.L100
 445:lvgl/src/extra/layouts/grid/lv_grid.c ****                 if(col_span != 1) continue;
 1394              		.loc 1 445 17 is_stmt 1 view .LVU408
 445:lvgl/src/extra/layouts/grid/lv_grid.c ****                 if(col_span != 1) continue;
 1395              		.loc 1 445 37 is_stmt 0 view .LVU409
 1396 0056 3846     		mov	r0, r7
 1397 0058 FFF7FEFF 		bl	get_col_span
 1398              	.LVL159:
 446:lvgl/src/extra/layouts/grid/lv_grid.c **** 
 1399              		.loc 1 446 17 is_stmt 1 view .LVU410
 446:lvgl/src/extra/layouts/grid/lv_grid.c **** 
 1400              		.loc 1 446 19 is_stmt 0 view .LVU411
 1401 005c 0128     		cmp	r0, #1
ARM GAS  /var/folders/21/t9g5rlb91ys800n5npymflf80000gn/T//cce6JCY2.s 			page 50


 1402 005e EAD1     		bne	.L100
 448:lvgl/src/extra/layouts/grid/lv_grid.c ****                 if(col_pos != i) continue;
 1403              		.loc 1 448 17 is_stmt 1 view .LVU412
 448:lvgl/src/extra/layouts/grid/lv_grid.c ****                 if(col_pos != i) continue;
 1404              		.loc 1 448 36 is_stmt 0 view .LVU413
 1405 0060 3846     		mov	r0, r7
 1406              	.LVL160:
 448:lvgl/src/extra/layouts/grid/lv_grid.c ****                 if(col_pos != i) continue;
 1407              		.loc 1 448 36 view .LVU414
 1408 0062 FFF7FEFF 		bl	get_col_pos
 1409              	.LVL161:
 449:lvgl/src/extra/layouts/grid/lv_grid.c **** 
 1410              		.loc 1 449 17 is_stmt 1 view .LVU415
 449:lvgl/src/extra/layouts/grid/lv_grid.c **** 
 1411              		.loc 1 449 19 is_stmt 0 view .LVU416
 1412 0066 8642     		cmp	r6, r0
 1413 0068 E5D1     		bne	.L100
 451:lvgl/src/extra/layouts/grid/lv_grid.c ****             }
 1414              		.loc 1 451 17 is_stmt 1 view .LVU417
 451:lvgl/src/extra/layouts/grid/lv_grid.c ****             }
 1415              		.loc 1 451 24 is_stmt 0 view .LVU418
 1416 006a 3846     		mov	r0, r7
 1417              	.LVL162:
 451:lvgl/src/extra/layouts/grid/lv_grid.c ****             }
 1418              		.loc 1 451 24 view .LVU419
 1419 006c FFF7FEFF 		bl	lv_obj_get_width
 1420              	.LVL163:
 451:lvgl/src/extra/layouts/grid/lv_grid.c ****             }
 1421              		.loc 1 451 22 view .LVU420
 1422 0070 5845     		cmp	r0, fp
 1423 0072 E0DB     		blt	.L100
 451:lvgl/src/extra/layouts/grid/lv_grid.c ****             }
 1424              		.loc 1 451 24 discriminator 1 view .LVU421
 1425 0074 3846     		mov	r0, r7
 1426 0076 FFF7FEFF 		bl	lv_obj_get_width
 1427              	.LVL164:
 1428 007a 8346     		mov	fp, r0
 1429              	.LVL165:
 451:lvgl/src/extra/layouts/grid/lv_grid.c ****             }
 1430              		.loc 1 451 24 discriminator 1 view .LVU422
 1431 007c DBE7     		b	.L100
 1432              	.LVL166:
 1433              	.L117:
 451:lvgl/src/extra/layouts/grid/lv_grid.c ****             }
 1434              		.loc 1 451 24 discriminator 1 view .LVU423
 1435              	.LBE106:
 453:lvgl/src/extra/layouts/grid/lv_grid.c ****             else c->w[i] = 0;
 1436              		.loc 1 453 13 is_stmt 1 view .LVU424
 453:lvgl/src/extra/layouts/grid/lv_grid.c ****             else c->w[i] = 0;
 1437              		.loc 1 453 15 is_stmt 0 view .LVU425
 1438 007e BBF1000F 		cmp	fp, #0
 1439 0082 12DB     		blt	.L102
 453:lvgl/src/extra/layouts/grid/lv_grid.c ****             else c->w[i] = 0;
 1440              		.loc 1 453 27 is_stmt 1 discriminator 1 view .LVU426
 453:lvgl/src/extra/layouts/grid/lv_grid.c ****             else c->w[i] = 0;
 1441              		.loc 1 453 28 is_stmt 0 discriminator 1 view .LVU427
 1442 0084 A368     		ldr	r3, [r4, #8]
ARM GAS  /var/folders/21/t9g5rlb91ys800n5npymflf80000gn/T//cce6JCY2.s 			page 51


 453:lvgl/src/extra/layouts/grid/lv_grid.c ****             else c->w[i] = 0;
 1443              		.loc 1 453 35 discriminator 1 view .LVU428
 1444 0086 23F80AB0 		strh	fp, [r3, r10]	@ movhi
 1445              	.LVL167:
 1446              	.L99:
 453:lvgl/src/extra/layouts/grid/lv_grid.c ****             else c->w[i] = 0;
 1447              		.loc 1 453 35 discriminator 1 view .LVU429
 1448              	.LBE105:
 1449              	.LBE104:
 437:lvgl/src/extra/layouts/grid/lv_grid.c ****         lv_coord_t size = LV_COORD_MIN;
 1450              		.loc 1 437 33 is_stmt 1 discriminator 2 view .LVU430
 1451 008a 0136     		adds	r6, r6, #1
 1452              	.LVL168:
 1453              	.L97:
 437:lvgl/src/extra/layouts/grid/lv_grid.c ****         lv_coord_t size = LV_COORD_MIN;
 1454              		.loc 1 437 18 discriminator 1 view .LVU431
 437:lvgl/src/extra/layouts/grid/lv_grid.c ****         lv_coord_t size = LV_COORD_MIN;
 1455              		.loc 1 437 21 is_stmt 0 discriminator 1 view .LVU432
 1456 008c 2369     		ldr	r3, [r4, #16]
 437:lvgl/src/extra/layouts/grid/lv_grid.c ****         lv_coord_t size = LV_COORD_MIN;
 1457              		.loc 1 437 18 discriminator 1 view .LVU433
 1458 008e B342     		cmp	r3, r6
 1459 0090 10D9     		bls	.L118
 1460              	.LBB109:
 438:lvgl/src/extra/layouts/grid/lv_grid.c ****         if(IS_CONTENT(col_templ[i])) {
 1461              		.loc 1 438 9 is_stmt 1 view .LVU434
 1462              	.LVL169:
 439:lvgl/src/extra/layouts/grid/lv_grid.c ****             /*Check the size of children of this cell*/
 1463              		.loc 1 439 9 view .LVU435
 439:lvgl/src/extra/layouts/grid/lv_grid.c ****             /*Check the size of children of this cell*/
 1464              		.loc 1 439 12 is_stmt 0 view .LVU436
 1465 0092 4FEA460A 		lsl	r10, r6, #1
 1466 0096 38F91620 		ldrsh	r2, [r8, r6, lsl #1]
 439:lvgl/src/extra/layouts/grid/lv_grid.c ****             /*Check the size of children of this cell*/
 1467              		.loc 1 439 11 view .LVU437
 1468 009a 41F69A73 		movw	r3, #8090
 1469 009e 9A42     		cmp	r2, r3
 1470 00a0 F3D1     		bne	.L99
 1471              	.LBB107:
 442:lvgl/src/extra/layouts/grid/lv_grid.c ****                 lv_obj_t * item = lv_obj_get_child(cont, ci);
 1472              		.loc 1 442 20 view .LVU438
 1473 00a2 0025     		movs	r5, #0
 1474              	.LBE107:
 438:lvgl/src/extra/layouts/grid/lv_grid.c ****         if(IS_CONTENT(col_templ[i])) {
 1475              		.loc 1 438 20 view .LVU439
 1476 00a4 DFF8CCB0 		ldr	fp, .L123+4
 1477 00a8 C6E7     		b	.L98
 1478              	.LVL170:
 1479              	.L102:
 1480              	.LBB108:
 454:lvgl/src/extra/layouts/grid/lv_grid.c ****         }
 1481              		.loc 1 454 18 is_stmt 1 view .LVU440
 454:lvgl/src/extra/layouts/grid/lv_grid.c ****         }
 1482              		.loc 1 454 19 is_stmt 0 view .LVU441
 1483 00aa A368     		ldr	r3, [r4, #8]
 454:lvgl/src/extra/layouts/grid/lv_grid.c ****         }
 1484              		.loc 1 454 26 view .LVU442
ARM GAS  /var/folders/21/t9g5rlb91ys800n5npymflf80000gn/T//cce6JCY2.s 			page 52


 1485 00ac 0022     		movs	r2, #0
 1486 00ae 23F80A20 		strh	r2, [r3, r10]	@ movhi
 1487 00b2 EAE7     		b	.L99
 1488              	.LVL171:
 1489              	.L118:
 454:lvgl/src/extra/layouts/grid/lv_grid.c ****         }
 1490              		.loc 1 454 26 view .LVU443
 1491              	.LBE108:
 1492              	.LBE109:
 459:lvgl/src/extra/layouts/grid/lv_grid.c **** 
 1493              		.loc 1 459 16 view .LVU444
 1494 00b4 0026     		movs	r6, #0
 1495              	.LVL172:
 458:lvgl/src/extra/layouts/grid/lv_grid.c ****     lv_coord_t grid_w = 0;
 1496              		.loc 1 458 14 view .LVU445
 1497 00b6 3546     		mov	r5, r6
 461:lvgl/src/extra/layouts/grid/lv_grid.c ****         lv_coord_t x = col_templ[i];
 1498              		.loc 1 461 11 view .LVU446
 1499 00b8 3246     		mov	r2, r6
 1500 00ba 08E0     		b	.L104
 1501              	.LVL173:
 1502              	.L105:
 1503              	.LBB110:
 466:lvgl/src/extra/layouts/grid/lv_grid.c ****             grid_w += c->w[i];
 1504              		.loc 1 466 14 is_stmt 1 view .LVU447
 466:lvgl/src/extra/layouts/grid/lv_grid.c ****             grid_w += c->w[i];
 1505              		.loc 1 466 16 is_stmt 0 view .LVU448
 1506 00bc 41F69A71 		movw	r1, #8090
 1507 00c0 8B42     		cmp	r3, r1
 1508 00c2 13D0     		beq	.L119
 470:lvgl/src/extra/layouts/grid/lv_grid.c ****             grid_w += x;
 1509              		.loc 1 470 13 is_stmt 1 view .LVU449
 470:lvgl/src/extra/layouts/grid/lv_grid.c ****             grid_w += x;
 1510              		.loc 1 470 14 is_stmt 0 view .LVU450
 1511 00c4 A168     		ldr	r1, [r4, #8]
 470:lvgl/src/extra/layouts/grid/lv_grid.c ****             grid_w += x;
 1512              		.loc 1 470 21 view .LVU451
 1513 00c6 0B52     		strh	r3, [r1, r0]	@ movhi
 471:lvgl/src/extra/layouts/grid/lv_grid.c ****         }
 1514              		.loc 1 471 13 is_stmt 1 view .LVU452
 471:lvgl/src/extra/layouts/grid/lv_grid.c ****         }
 1515              		.loc 1 471 20 is_stmt 0 view .LVU453
 1516 00c8 3344     		add	r3, r3, r6
 1517              	.LVL174:
 471:lvgl/src/extra/layouts/grid/lv_grid.c ****         }
 1518              		.loc 1 471 20 view .LVU454
 1519 00ca 1EB2     		sxth	r6, r3
 1520              	.LVL175:
 1521              	.L106:
 471:lvgl/src/extra/layouts/grid/lv_grid.c ****         }
 1522              		.loc 1 471 20 view .LVU455
 1523              	.LBE110:
 461:lvgl/src/extra/layouts/grid/lv_grid.c ****         lv_coord_t x = col_templ[i];
 1524              		.loc 1 461 33 is_stmt 1 discriminator 2 view .LVU456
 1525 00cc 0132     		adds	r2, r2, #1
 1526              	.LVL176:
 1527              	.L104:
ARM GAS  /var/folders/21/t9g5rlb91ys800n5npymflf80000gn/T//cce6JCY2.s 			page 53


 461:lvgl/src/extra/layouts/grid/lv_grid.c ****         lv_coord_t x = col_templ[i];
 1528              		.loc 1 461 18 discriminator 1 view .LVU457
 461:lvgl/src/extra/layouts/grid/lv_grid.c ****         lv_coord_t x = col_templ[i];
 1529              		.loc 1 461 21 is_stmt 0 discriminator 1 view .LVU458
 1530 00ce 2369     		ldr	r3, [r4, #16]
 461:lvgl/src/extra/layouts/grid/lv_grid.c ****         lv_coord_t x = col_templ[i];
 1531              		.loc 1 461 18 discriminator 1 view .LVU459
 1532 00d0 9342     		cmp	r3, r2
 1533 00d2 10D9     		bls	.L120
 1534              	.LBB111:
 462:lvgl/src/extra/layouts/grid/lv_grid.c ****         if(IS_FR(x)) {
 1535              		.loc 1 462 9 is_stmt 1 view .LVU460
 462:lvgl/src/extra/layouts/grid/lv_grid.c ****         if(IS_FR(x)) {
 1536              		.loc 1 462 33 is_stmt 0 view .LVU461
 1537 00d4 5000     		lsls	r0, r2, #1
 462:lvgl/src/extra/layouts/grid/lv_grid.c ****         if(IS_FR(x)) {
 1538              		.loc 1 462 20 view .LVU462
 1539 00d6 38F91230 		ldrsh	r3, [r8, r2, lsl #1]
 1540              	.LVL177:
 463:lvgl/src/extra/layouts/grid/lv_grid.c ****             col_fr_cnt += GET_FR(x);
 1541              		.loc 1 463 9 is_stmt 1 view .LVU463
 463:lvgl/src/extra/layouts/grid/lv_grid.c ****             col_fr_cnt += GET_FR(x);
 1542              		.loc 1 463 11 is_stmt 0 view .LVU464
 1543 00da 41F69A71 		movw	r1, #8090
 1544 00de 8B42     		cmp	r3, r1
 1545 00e0 ECDD     		ble	.L105
 464:lvgl/src/extra/layouts/grid/lv_grid.c ****         }
 1546              		.loc 1 464 13 is_stmt 1 view .LVU465
 464:lvgl/src/extra/layouts/grid/lv_grid.c ****         }
 1547              		.loc 1 464 24 is_stmt 0 view .LVU466
 1548 00e2 2B44     		add	r3, r3, r5
 1549              	.LVL178:
 464:lvgl/src/extra/layouts/grid/lv_grid.c ****         }
 1550              		.loc 1 464 24 view .LVU467
 1551 00e4 A3F5FC55 		sub	r5, r3, #8064
 1552              	.LVL179:
 464:lvgl/src/extra/layouts/grid/lv_grid.c ****         }
 1553              		.loc 1 464 24 view .LVU468
 1554 00e8 1B3D     		subs	r5, r5, #27
 1555              	.LVL180:
 464:lvgl/src/extra/layouts/grid/lv_grid.c ****         }
 1556              		.loc 1 464 24 view .LVU469
 1557 00ea EFE7     		b	.L106
 1558              	.LVL181:
 1559              	.L119:
 467:lvgl/src/extra/layouts/grid/lv_grid.c ****         }
 1560              		.loc 1 467 13 is_stmt 1 view .LVU470
 467:lvgl/src/extra/layouts/grid/lv_grid.c ****         }
 1561              		.loc 1 467 24 is_stmt 0 view .LVU471
 1562 00ec A368     		ldr	r3, [r4, #8]
 1563              	.LVL182:
 467:lvgl/src/extra/layouts/grid/lv_grid.c ****         }
 1564              		.loc 1 467 27 view .LVU472
 1565 00ee 1B5A     		ldrh	r3, [r3, r0]
 467:lvgl/src/extra/layouts/grid/lv_grid.c ****         }
 1566              		.loc 1 467 20 view .LVU473
 1567 00f0 3344     		add	r3, r3, r6
ARM GAS  /var/folders/21/t9g5rlb91ys800n5npymflf80000gn/T//cce6JCY2.s 			page 54


 1568 00f2 1EB2     		sxth	r6, r3
 1569              	.LVL183:
 467:lvgl/src/extra/layouts/grid/lv_grid.c ****         }
 1570              		.loc 1 467 20 view .LVU474
 1571 00f4 EAE7     		b	.L106
 1572              	.LVL184:
 1573              	.L120:
 467:lvgl/src/extra/layouts/grid/lv_grid.c ****         }
 1574              		.loc 1 467 20 view .LVU475
 1575              	.LBE111:
 475:lvgl/src/extra/layouts/grid/lv_grid.c ****     cont_w -= col_gap * (c->col_num - 1);
 1576              		.loc 1 475 5 is_stmt 1 view .LVU476
 1577              	.LBB112:
 1578              	.LBI112:
 131:lvgl/src/extra/layouts/grid/../flex/../../../core/lv_obj_style_gen.h **** }
 132:lvgl/src/extra/layouts/grid/../flex/../../../core/lv_obj_style_gen.h **** 
 133:lvgl/src/extra/layouts/grid/../flex/../../../core/lv_obj_style_gen.h **** static inline lv_coord_t lv_obj_get_style_pad_column(const struct _lv_obj_t * obj, uint32_t part)
 1579              		.loc 3 133 26 view .LVU477
 1580              	.LBB113:
 134:lvgl/src/extra/layouts/grid/../flex/../../../core/lv_obj_style_gen.h **** {
 135:lvgl/src/extra/layouts/grid/../flex/../../../core/lv_obj_style_gen.h ****     lv_style_value_t v = lv_obj_get_style_prop(obj, part, LV_STYLE_PAD_COLUMN);
 1581              		.loc 3 135 5 view .LVU478
 1582              		.loc 3 135 26 is_stmt 0 view .LVU479
 1583 00f6 1522     		movs	r2, #21
 1584              	.LVL185:
 1585              		.loc 3 135 26 view .LVU480
 1586 00f8 0021     		movs	r1, #0
 1587 00fa 4846     		mov	r0, r9
 1588 00fc FFF7FEFF 		bl	lv_obj_get_style_prop
 1589              	.LVL186:
 136:lvgl/src/extra/layouts/grid/../flex/../../../core/lv_obj_style_gen.h ****     return (lv_coord_t)v.num;
 1590              		.loc 3 136 5 is_stmt 1 view .LVU481
 1591              		.loc 3 136 5 is_stmt 0 view .LVU482
 1592              	.LBE113:
 1593              	.LBE112:
 476:lvgl/src/extra/layouts/grid/lv_grid.c ****     lv_coord_t free_w = cont_w - grid_w;
 1594              		.loc 1 476 5 is_stmt 1 view .LVU483
 476:lvgl/src/extra/layouts/grid/lv_grid.c ****     lv_coord_t free_w = cont_w - grid_w;
 1595              		.loc 1 476 27 is_stmt 0 view .LVU484
 1596 0100 2369     		ldr	r3, [r4, #16]
 476:lvgl/src/extra/layouts/grid/lv_grid.c ****     lv_coord_t free_w = cont_w - grid_w;
 1597              		.loc 1 476 37 view .LVU485
 1598 0102 013B     		subs	r3, r3, #1
 476:lvgl/src/extra/layouts/grid/lv_grid.c ****     lv_coord_t free_w = cont_w - grid_w;
 1599              		.loc 1 476 12 view .LVU486
 1600 0104 10FB03F0 		smulbb	r0, r0, r3
 1601              	.LVL187:
 476:lvgl/src/extra/layouts/grid/lv_grid.c ****     lv_coord_t free_w = cont_w - grid_w;
 1602              		.loc 1 476 12 view .LVU487
 1603 0108 019B     		ldr	r3, [sp, #4]
 1604 010a 191A     		subs	r1, r3, r0
 1605 010c 89B2     		uxth	r1, r1
 1606              	.LVL188:
 477:lvgl/src/extra/layouts/grid/lv_grid.c ****     if(free_w < 0) free_w = 0;
 1607              		.loc 1 477 5 is_stmt 1 view .LVU488
 477:lvgl/src/extra/layouts/grid/lv_grid.c ****     if(free_w < 0) free_w = 0;
 1608              		.loc 1 477 32 is_stmt 0 view .LVU489
ARM GAS  /var/folders/21/t9g5rlb91ys800n5npymflf80000gn/T//cce6JCY2.s 			page 55


 1609 010e 891B     		subs	r1, r1, r6
 1610              	.LVL189:
 477:lvgl/src/extra/layouts/grid/lv_grid.c ****     if(free_w < 0) free_w = 0;
 1611              		.loc 1 477 16 view .LVU490
 1612 0110 09B2     		sxth	r1, r1
 1613              	.LVL190:
 478:lvgl/src/extra/layouts/grid/lv_grid.c **** 
 1614              		.loc 1 478 5 is_stmt 1 view .LVU491
 478:lvgl/src/extra/layouts/grid/lv_grid.c **** 
 1615              		.loc 1 478 7 is_stmt 0 view .LVU492
 1616 0112 0029     		cmp	r1, #0
 1617 0114 04DB     		blt	.L121
 1618              	.LVL191:
 1619              	.L109:
 480:lvgl/src/extra/layouts/grid/lv_grid.c ****     int32_t last_fr_x = 0;
 1620              		.loc 1 480 5 is_stmt 1 view .LVU493
 481:lvgl/src/extra/layouts/grid/lv_grid.c ****     for(i = 0; i < c->col_num; i++) {
 1621              		.loc 1 481 5 view .LVU494
 482:lvgl/src/extra/layouts/grid/lv_grid.c ****         lv_coord_t x = col_templ[i];
 1622              		.loc 1 482 5 view .LVU495
 481:lvgl/src/extra/layouts/grid/lv_grid.c ****     for(i = 0; i < c->col_num; i++) {
 1623              		.loc 1 481 13 is_stmt 0 view .LVU496
 1624 0116 0026     		movs	r6, #0
 1625              	.LVL192:
 480:lvgl/src/extra/layouts/grid/lv_grid.c ****     int32_t last_fr_x = 0;
 1626              		.loc 1 480 13 view .LVU497
 1627 0118 4FF0FF37 		mov	r7, #-1
 482:lvgl/src/extra/layouts/grid/lv_grid.c ****         lv_coord_t x = col_templ[i];
 1628              		.loc 1 482 11 view .LVU498
 1629 011c 3346     		mov	r3, r6
 1630              	.LVL193:
 482:lvgl/src/extra/layouts/grid/lv_grid.c ****         lv_coord_t x = col_templ[i];
 1631              		.loc 1 482 5 view .LVU499
 1632 011e 02E0     		b	.L110
 1633              	.LVL194:
 1634              	.L121:
 478:lvgl/src/extra/layouts/grid/lv_grid.c **** 
 1635              		.loc 1 478 27 view .LVU500
 1636 0120 0021     		movs	r1, #0
 1637              	.LVL195:
 478:lvgl/src/extra/layouts/grid/lv_grid.c **** 
 1638              		.loc 1 478 27 view .LVU501
 1639 0122 F8E7     		b	.L109
 1640              	.LVL196:
 1641              	.L111:
 482:lvgl/src/extra/layouts/grid/lv_grid.c ****         lv_coord_t x = col_templ[i];
 1642              		.loc 1 482 33 is_stmt 1 discriminator 2 view .LVU502
 1643 0124 0133     		adds	r3, r3, #1
 1644              	.LVL197:
 1645              	.L110:
 482:lvgl/src/extra/layouts/grid/lv_grid.c ****         lv_coord_t x = col_templ[i];
 1646              		.loc 1 482 18 discriminator 1 view .LVU503
 482:lvgl/src/extra/layouts/grid/lv_grid.c ****         lv_coord_t x = col_templ[i];
 1647              		.loc 1 482 21 is_stmt 0 discriminator 1 view .LVU504
 1648 0126 2269     		ldr	r2, [r4, #16]
 482:lvgl/src/extra/layouts/grid/lv_grid.c ****         lv_coord_t x = col_templ[i];
 1649              		.loc 1 482 18 discriminator 1 view .LVU505
ARM GAS  /var/folders/21/t9g5rlb91ys800n5npymflf80000gn/T//cce6JCY2.s 			page 56


 1650 0128 9A42     		cmp	r2, r3
 1651 012a 12D9     		bls	.L122
 1652              	.LBB114:
 483:lvgl/src/extra/layouts/grid/lv_grid.c ****         if(IS_FR(x)) {
 1653              		.loc 1 483 9 is_stmt 1 view .LVU506
 483:lvgl/src/extra/layouts/grid/lv_grid.c ****         if(IS_FR(x)) {
 1654              		.loc 1 483 20 is_stmt 0 view .LVU507
 1655 012c 38F91320 		ldrsh	r2, [r8, r3, lsl #1]
 1656              	.LVL198:
 484:lvgl/src/extra/layouts/grid/lv_grid.c ****             lv_coord_t f = GET_FR(x);
 1657              		.loc 1 484 9 is_stmt 1 view .LVU508
 484:lvgl/src/extra/layouts/grid/lv_grid.c ****             lv_coord_t f = GET_FR(x);
 1658              		.loc 1 484 11 is_stmt 0 view .LVU509
 1659 0130 41F69A70 		movw	r0, #8090
 1660 0134 8242     		cmp	r2, r0
 1661 0136 F5DD     		ble	.L111
 1662              	.LBB115:
 485:lvgl/src/extra/layouts/grid/lv_grid.c ****             c->w[i] = (free_w * f) / col_fr_cnt;
 1663              		.loc 1 485 13 is_stmt 1 view .LVU510
 485:lvgl/src/extra/layouts/grid/lv_grid.c ****             c->w[i] = (free_w * f) / col_fr_cnt;
 1664              		.loc 1 485 28 is_stmt 0 view .LVU511
 1665 0138 A2F5FC52 		sub	r2, r2, #8064
 1666              	.LVL199:
 485:lvgl/src/extra/layouts/grid/lv_grid.c ****             c->w[i] = (free_w * f) / col_fr_cnt;
 1667              		.loc 1 485 28 view .LVU512
 1668 013c 1B3A     		subs	r2, r2, #27
 1669              	.LVL200:
 485:lvgl/src/extra/layouts/grid/lv_grid.c ****             c->w[i] = (free_w * f) / col_fr_cnt;
 1670              		.loc 1 485 24 view .LVU513
 1671 013e 16B2     		sxth	r6, r2
 1672              	.LVL201:
 486:lvgl/src/extra/layouts/grid/lv_grid.c ****             last_fr_i = i;
 1673              		.loc 1 486 13 is_stmt 1 view .LVU514
 486:lvgl/src/extra/layouts/grid/lv_grid.c ****             last_fr_i = i;
 1674              		.loc 1 486 31 is_stmt 0 view .LVU515
 1675 0140 06FB01F2 		mul	r2, r6, r1
 1676              	.LVL202:
 486:lvgl/src/extra/layouts/grid/lv_grid.c ****             last_fr_i = i;
 1677              		.loc 1 486 36 view .LVU516
 1678 0144 B2FBF5F2 		udiv	r2, r2, r5
 486:lvgl/src/extra/layouts/grid/lv_grid.c ****             last_fr_i = i;
 1679              		.loc 1 486 14 view .LVU517
 1680 0148 A068     		ldr	r0, [r4, #8]
 486:lvgl/src/extra/layouts/grid/lv_grid.c ****             last_fr_i = i;
 1681              		.loc 1 486 21 view .LVU518
 1682 014a 20F81320 		strh	r2, [r0, r3, lsl #1]	@ movhi
 1683              	.LVL203:
 487:lvgl/src/extra/layouts/grid/lv_grid.c ****             last_fr_x = f;
 1684              		.loc 1 487 13 is_stmt 1 view .LVU519
 487:lvgl/src/extra/layouts/grid/lv_grid.c ****             last_fr_x = f;
 1685              		.loc 1 487 23 is_stmt 0 view .LVU520
 1686 014e 1F46     		mov	r7, r3
 1687              	.LVL204:
 488:lvgl/src/extra/layouts/grid/lv_grid.c ****         }
 1688              		.loc 1 488 13 is_stmt 1 view .LVU521
 488:lvgl/src/extra/layouts/grid/lv_grid.c ****         }
 1689              		.loc 1 488 13 is_stmt 0 view .LVU522
ARM GAS  /var/folders/21/t9g5rlb91ys800n5npymflf80000gn/T//cce6JCY2.s 			page 57


 1690 0150 E8E7     		b	.L111
 1691              	.LVL205:
 1692              	.L122:
 488:lvgl/src/extra/layouts/grid/lv_grid.c ****         }
 1693              		.loc 1 488 13 view .LVU523
 1694              	.LBE115:
 1695              	.LBE114:
 493:lvgl/src/extra/layouts/grid/lv_grid.c ****         c->w[last_fr_i] = free_w - ((free_w * (col_fr_cnt - last_fr_x)) / col_fr_cnt);
 1696              		.loc 1 493 5 is_stmt 1 view .LVU524
 493:lvgl/src/extra/layouts/grid/lv_grid.c ****         c->w[last_fr_i] = free_w - ((free_w * (col_fr_cnt - last_fr_x)) / col_fr_cnt);
 1697              		.loc 1 493 7 is_stmt 0 view .LVU525
 1698 0152 002F     		cmp	r7, #0
 1699 0154 08DB     		blt	.L96
 494:lvgl/src/extra/layouts/grid/lv_grid.c ****     }
 1700              		.loc 1 494 9 is_stmt 1 view .LVU526
 494:lvgl/src/extra/layouts/grid/lv_grid.c ****     }
 1701              		.loc 1 494 59 is_stmt 0 view .LVU527
 1702 0156 AB1B     		subs	r3, r5, r6
 1703              	.LVL206:
 494:lvgl/src/extra/layouts/grid/lv_grid.c ****     }
 1704              		.loc 1 494 45 view .LVU528
 1705 0158 01FB03F3 		mul	r3, r1, r3
 494:lvgl/src/extra/layouts/grid/lv_grid.c ****     }
 1706              		.loc 1 494 73 view .LVU529
 1707 015c B3FBF5F3 		udiv	r3, r3, r5
 494:lvgl/src/extra/layouts/grid/lv_grid.c ****     }
 1708              		.loc 1 494 10 view .LVU530
 1709 0160 A268     		ldr	r2, [r4, #8]
 494:lvgl/src/extra/layouts/grid/lv_grid.c ****     }
 1710              		.loc 1 494 34 view .LVU531
 1711 0162 C91A     		subs	r1, r1, r3
 1712              	.LVL207:
 494:lvgl/src/extra/layouts/grid/lv_grid.c ****     }
 1713              		.loc 1 494 25 view .LVU532
 1714 0164 22F81710 		strh	r1, [r2, r7, lsl #1]	@ movhi
 1715              	.L96:
 496:lvgl/src/extra/layouts/grid/lv_grid.c **** 
 1716              		.loc 1 496 1 view .LVU533
 1717 0168 03B0     		add	sp, sp, #12
 1718              	.LCFI14:
 1719              		.cfi_def_cfa_offset 36
 1720              		@ sp needed
 1721 016a BDE8F08F 		pop	{r4, r5, r6, r7, r8, r9, r10, fp, pc}
 1722              	.LVL208:
 1723              	.L124:
 496:lvgl/src/extra/layouts/grid/lv_grid.c **** 
 1724              		.loc 1 496 1 view .LVU534
 1725 016e 00BF     		.align	2
 1726              	.L123:
 1727 0170 01000600 		.word	393217
 1728 0174 01E0FFFF 		.word	-8191
 1729              		.cfi_endproc
 1730              	.LFE214:
 1732              		.section	.text.calc,"ax",%progbits
 1733              		.align	1
 1734              		.syntax unified
 1735              		.thumb
ARM GAS  /var/folders/21/t9g5rlb91ys800n5npymflf80000gn/T//cce6JCY2.s 			page 58


 1736              		.thumb_func
 1738              	calc:
 1739              	.LVL209:
 1740              	.LFB212:
 385:lvgl/src/extra/layouts/grid/lv_grid.c ****     if(lv_obj_get_child(cont, 0) == NULL) {
 1741              		.loc 1 385 1 is_stmt 1 view -0
 1742              		.cfi_startproc
 1743              		@ args = 0, pretend = 0, frame = 0
 1744              		@ frame_needed = 0, uses_anonymous_args = 0
 385:lvgl/src/extra/layouts/grid/lv_grid.c ****     if(lv_obj_get_child(cont, 0) == NULL) {
 1745              		.loc 1 385 1 is_stmt 0 view .LVU536
 1746 0000 2DE9F04F 		push	{r4, r5, r6, r7, r8, r9, r10, fp, lr}
 1747              	.LCFI15:
 1748              		.cfi_def_cfa_offset 36
 1749              		.cfi_offset 4, -36
 1750              		.cfi_offset 5, -32
 1751              		.cfi_offset 6, -28
 1752              		.cfi_offset 7, -24
 1753              		.cfi_offset 8, -20
 1754              		.cfi_offset 9, -16
 1755              		.cfi_offset 10, -12
 1756              		.cfi_offset 11, -8
 1757              		.cfi_offset 14, -4
 1758 0004 85B0     		sub	sp, sp, #20
 1759              	.LCFI16:
 1760              		.cfi_def_cfa_offset 56
 1761 0006 0446     		mov	r4, r0
 1762 0008 0D46     		mov	r5, r1
 386:lvgl/src/extra/layouts/grid/lv_grid.c ****         lv_memset_00(calc_out, sizeof(_lv_grid_calc_t));
 1763              		.loc 1 386 5 is_stmt 1 view .LVU537
 386:lvgl/src/extra/layouts/grid/lv_grid.c ****         lv_memset_00(calc_out, sizeof(_lv_grid_calc_t));
 1764              		.loc 1 386 8 is_stmt 0 view .LVU538
 1765 000a 0021     		movs	r1, #0
 1766              	.LVL210:
 386:lvgl/src/extra/layouts/grid/lv_grid.c ****         lv_memset_00(calc_out, sizeof(_lv_grid_calc_t));
 1767              		.loc 1 386 8 view .LVU539
 1768 000c FFF7FEFF 		bl	lv_obj_get_child
 1769              	.LVL211:
 386:lvgl/src/extra/layouts/grid/lv_grid.c ****         lv_memset_00(calc_out, sizeof(_lv_grid_calc_t));
 1770              		.loc 1 386 7 view .LVU540
 1771 0010 0028     		cmp	r0, #0
 1772 0012 66D0     		beq	.L135
 391:lvgl/src/extra/layouts/grid/lv_grid.c ****     calc_cols(cont, calc_out);
 1773              		.loc 1 391 5 is_stmt 1 view .LVU541
 1774 0014 2946     		mov	r1, r5
 1775 0016 2046     		mov	r0, r4
 1776 0018 FFF7FEFF 		bl	calc_rows
 1777              	.LVL212:
 392:lvgl/src/extra/layouts/grid/lv_grid.c **** 
 1778              		.loc 1 392 5 view .LVU542
 1779 001c 2946     		mov	r1, r5
 1780 001e 2046     		mov	r0, r4
 1781 0020 FFF7FEFF 		bl	calc_cols
 1782              	.LVL213:
 394:lvgl/src/extra/layouts/grid/lv_grid.c ****     lv_coord_t row_gap = lv_obj_get_style_pad_row(cont, LV_PART_MAIN);
 1783              		.loc 1 394 5 view .LVU543
 1784              	.LBB116:
ARM GAS  /var/folders/21/t9g5rlb91ys800n5npymflf80000gn/T//cce6JCY2.s 			page 59


 1785              	.LBI116:
 133:lvgl/src/extra/layouts/grid/../flex/../../../core/lv_obj_style_gen.h **** {
 1786              		.loc 3 133 26 view .LVU544
 1787              	.LBB117:
 135:lvgl/src/extra/layouts/grid/../flex/../../../core/lv_obj_style_gen.h ****     return (lv_coord_t)v.num;
 1788              		.loc 3 135 5 view .LVU545
 135:lvgl/src/extra/layouts/grid/../flex/../../../core/lv_obj_style_gen.h ****     return (lv_coord_t)v.num;
 1789              		.loc 3 135 26 is_stmt 0 view .LVU546
 1790 0024 1522     		movs	r2, #21
 1791 0026 0021     		movs	r1, #0
 1792 0028 2046     		mov	r0, r4
 1793 002a FFF7FEFF 		bl	lv_obj_get_style_prop
 1794              	.LVL214:
 1795              		.loc 3 136 5 is_stmt 1 view .LVU547
 1796              		.loc 3 136 12 is_stmt 0 view .LVU548
 1797 002e 0FFA80FA 		sxth	r10, r0
 1798              	.LVL215:
 1799              		.loc 3 136 12 view .LVU549
 1800              	.LBE117:
 1801              	.LBE116:
 395:lvgl/src/extra/layouts/grid/lv_grid.c **** 
 1802              		.loc 1 395 5 is_stmt 1 view .LVU550
 1803              	.LBB118:
 1804              	.LBI118:
 127:lvgl/src/extra/layouts/grid/../flex/../../../core/lv_obj_style_gen.h **** {
 1805              		.loc 3 127 26 view .LVU551
 1806              	.LBB119:
 129:lvgl/src/extra/layouts/grid/../flex/../../../core/lv_obj_style_gen.h ****     return (lv_coord_t)v.num;
 1807              		.loc 3 129 5 view .LVU552
 129:lvgl/src/extra/layouts/grid/../flex/../../../core/lv_obj_style_gen.h ****     return (lv_coord_t)v.num;
 1808              		.loc 3 129 26 is_stmt 0 view .LVU553
 1809 0032 1422     		movs	r2, #20
 1810 0034 0021     		movs	r1, #0
 1811 0036 2046     		mov	r0, r4
 1812 0038 FFF7FEFF 		bl	lv_obj_get_style_prop
 1813              	.LVL216:
 130:lvgl/src/extra/layouts/grid/../flex/../../../core/lv_obj_style_gen.h **** }
 1814              		.loc 3 130 5 is_stmt 1 view .LVU554
 130:lvgl/src/extra/layouts/grid/../flex/../../../core/lv_obj_style_gen.h **** }
 1815              		.loc 3 130 12 is_stmt 0 view .LVU555
 1816 003c 07B2     		sxth	r7, r0
 1817              	.LVL217:
 130:lvgl/src/extra/layouts/grid/../flex/../../../core/lv_obj_style_gen.h **** }
 1818              		.loc 3 130 12 view .LVU556
 1819              	.LBE119:
 1820              	.LBE118:
 397:lvgl/src/extra/layouts/grid/lv_grid.c **** 
 1821              		.loc 1 397 5 is_stmt 1 view .LVU557
 1822              	.LBB120:
 1823              	.LBI120:
 137:lvgl/src/extra/layouts/grid/../flex/../../../core/lv_obj_style_gen.h **** }
 138:lvgl/src/extra/layouts/grid/../flex/../../../core/lv_obj_style_gen.h **** 
 139:lvgl/src/extra/layouts/grid/../flex/../../../core/lv_obj_style_gen.h **** static inline lv_color_t lv_obj_get_style_bg_color(const struct _lv_obj_t * obj, uint32_t part)
 140:lvgl/src/extra/layouts/grid/../flex/../../../core/lv_obj_style_gen.h **** {
 141:lvgl/src/extra/layouts/grid/../flex/../../../core/lv_obj_style_gen.h ****     lv_style_value_t v = lv_obj_get_style_prop(obj, part, LV_STYLE_BG_COLOR);
 142:lvgl/src/extra/layouts/grid/../flex/../../../core/lv_obj_style_gen.h ****     return v.color;
 143:lvgl/src/extra/layouts/grid/../flex/../../../core/lv_obj_style_gen.h **** }
ARM GAS  /var/folders/21/t9g5rlb91ys800n5npymflf80000gn/T//cce6JCY2.s 			page 60


 144:lvgl/src/extra/layouts/grid/../flex/../../../core/lv_obj_style_gen.h **** 
 145:lvgl/src/extra/layouts/grid/../flex/../../../core/lv_obj_style_gen.h **** static inline lv_color_t lv_obj_get_style_bg_color_filtered(const struct _lv_obj_t * obj, uint32_t 
 146:lvgl/src/extra/layouts/grid/../flex/../../../core/lv_obj_style_gen.h **** {
 147:lvgl/src/extra/layouts/grid/../flex/../../../core/lv_obj_style_gen.h ****     lv_style_value_t v = _lv_obj_style_apply_color_filter(obj, part, lv_obj_get_style_prop(obj, par
 148:lvgl/src/extra/layouts/grid/../flex/../../../core/lv_obj_style_gen.h ****     return v.color;
 149:lvgl/src/extra/layouts/grid/../flex/../../../core/lv_obj_style_gen.h **** }
 150:lvgl/src/extra/layouts/grid/../flex/../../../core/lv_obj_style_gen.h **** 
 151:lvgl/src/extra/layouts/grid/../flex/../../../core/lv_obj_style_gen.h **** static inline lv_opa_t lv_obj_get_style_bg_opa(const struct _lv_obj_t * obj, uint32_t part)
 152:lvgl/src/extra/layouts/grid/../flex/../../../core/lv_obj_style_gen.h **** {
 153:lvgl/src/extra/layouts/grid/../flex/../../../core/lv_obj_style_gen.h ****     lv_style_value_t v = lv_obj_get_style_prop(obj, part, LV_STYLE_BG_OPA);
 154:lvgl/src/extra/layouts/grid/../flex/../../../core/lv_obj_style_gen.h ****     return (lv_opa_t)v.num;
 155:lvgl/src/extra/layouts/grid/../flex/../../../core/lv_obj_style_gen.h **** }
 156:lvgl/src/extra/layouts/grid/../flex/../../../core/lv_obj_style_gen.h **** 
 157:lvgl/src/extra/layouts/grid/../flex/../../../core/lv_obj_style_gen.h **** static inline lv_color_t lv_obj_get_style_bg_grad_color(const struct _lv_obj_t * obj, uint32_t part
 158:lvgl/src/extra/layouts/grid/../flex/../../../core/lv_obj_style_gen.h **** {
 159:lvgl/src/extra/layouts/grid/../flex/../../../core/lv_obj_style_gen.h ****     lv_style_value_t v = lv_obj_get_style_prop(obj, part, LV_STYLE_BG_GRAD_COLOR);
 160:lvgl/src/extra/layouts/grid/../flex/../../../core/lv_obj_style_gen.h ****     return v.color;
 161:lvgl/src/extra/layouts/grid/../flex/../../../core/lv_obj_style_gen.h **** }
 162:lvgl/src/extra/layouts/grid/../flex/../../../core/lv_obj_style_gen.h **** 
 163:lvgl/src/extra/layouts/grid/../flex/../../../core/lv_obj_style_gen.h **** static inline lv_color_t lv_obj_get_style_bg_grad_color_filtered(const struct _lv_obj_t * obj, uint
 164:lvgl/src/extra/layouts/grid/../flex/../../../core/lv_obj_style_gen.h **** {
 165:lvgl/src/extra/layouts/grid/../flex/../../../core/lv_obj_style_gen.h ****     lv_style_value_t v = _lv_obj_style_apply_color_filter(obj, part, lv_obj_get_style_prop(obj, par
 166:lvgl/src/extra/layouts/grid/../flex/../../../core/lv_obj_style_gen.h ****     return v.color;
 167:lvgl/src/extra/layouts/grid/../flex/../../../core/lv_obj_style_gen.h **** }
 168:lvgl/src/extra/layouts/grid/../flex/../../../core/lv_obj_style_gen.h **** 
 169:lvgl/src/extra/layouts/grid/../flex/../../../core/lv_obj_style_gen.h **** static inline lv_grad_dir_t lv_obj_get_style_bg_grad_dir(const struct _lv_obj_t * obj, uint32_t par
 170:lvgl/src/extra/layouts/grid/../flex/../../../core/lv_obj_style_gen.h **** {
 171:lvgl/src/extra/layouts/grid/../flex/../../../core/lv_obj_style_gen.h ****     lv_style_value_t v = lv_obj_get_style_prop(obj, part, LV_STYLE_BG_GRAD_DIR);
 172:lvgl/src/extra/layouts/grid/../flex/../../../core/lv_obj_style_gen.h ****     return (lv_grad_dir_t)v.num;
 173:lvgl/src/extra/layouts/grid/../flex/../../../core/lv_obj_style_gen.h **** }
 174:lvgl/src/extra/layouts/grid/../flex/../../../core/lv_obj_style_gen.h **** 
 175:lvgl/src/extra/layouts/grid/../flex/../../../core/lv_obj_style_gen.h **** static inline lv_coord_t lv_obj_get_style_bg_main_stop(const struct _lv_obj_t * obj, uint32_t part)
 176:lvgl/src/extra/layouts/grid/../flex/../../../core/lv_obj_style_gen.h **** {
 177:lvgl/src/extra/layouts/grid/../flex/../../../core/lv_obj_style_gen.h ****     lv_style_value_t v = lv_obj_get_style_prop(obj, part, LV_STYLE_BG_MAIN_STOP);
 178:lvgl/src/extra/layouts/grid/../flex/../../../core/lv_obj_style_gen.h ****     return (lv_coord_t)v.num;
 179:lvgl/src/extra/layouts/grid/../flex/../../../core/lv_obj_style_gen.h **** }
 180:lvgl/src/extra/layouts/grid/../flex/../../../core/lv_obj_style_gen.h **** 
 181:lvgl/src/extra/layouts/grid/../flex/../../../core/lv_obj_style_gen.h **** static inline lv_coord_t lv_obj_get_style_bg_grad_stop(const struct _lv_obj_t * obj, uint32_t part)
 182:lvgl/src/extra/layouts/grid/../flex/../../../core/lv_obj_style_gen.h **** {
 183:lvgl/src/extra/layouts/grid/../flex/../../../core/lv_obj_style_gen.h ****     lv_style_value_t v = lv_obj_get_style_prop(obj, part, LV_STYLE_BG_GRAD_STOP);
 184:lvgl/src/extra/layouts/grid/../flex/../../../core/lv_obj_style_gen.h ****     return (lv_coord_t)v.num;
 185:lvgl/src/extra/layouts/grid/../flex/../../../core/lv_obj_style_gen.h **** }
 186:lvgl/src/extra/layouts/grid/../flex/../../../core/lv_obj_style_gen.h **** 
 187:lvgl/src/extra/layouts/grid/../flex/../../../core/lv_obj_style_gen.h **** static inline const lv_grad_dsc_t * lv_obj_get_style_bg_grad(const struct _lv_obj_t * obj, uint32_t
 188:lvgl/src/extra/layouts/grid/../flex/../../../core/lv_obj_style_gen.h **** {
 189:lvgl/src/extra/layouts/grid/../flex/../../../core/lv_obj_style_gen.h ****     lv_style_value_t v = lv_obj_get_style_prop(obj, part, LV_STYLE_BG_GRAD);
 190:lvgl/src/extra/layouts/grid/../flex/../../../core/lv_obj_style_gen.h ****     return (const lv_grad_dsc_t *)v.ptr;
 191:lvgl/src/extra/layouts/grid/../flex/../../../core/lv_obj_style_gen.h **** }
 192:lvgl/src/extra/layouts/grid/../flex/../../../core/lv_obj_style_gen.h **** 
 193:lvgl/src/extra/layouts/grid/../flex/../../../core/lv_obj_style_gen.h **** static inline lv_dither_mode_t lv_obj_get_style_bg_dither_mode(const struct _lv_obj_t * obj, uint32
 194:lvgl/src/extra/layouts/grid/../flex/../../../core/lv_obj_style_gen.h **** {
 195:lvgl/src/extra/layouts/grid/../flex/../../../core/lv_obj_style_gen.h ****     lv_style_value_t v = lv_obj_get_style_prop(obj, part, LV_STYLE_BG_DITHER_MODE);
 196:lvgl/src/extra/layouts/grid/../flex/../../../core/lv_obj_style_gen.h ****     return (lv_dither_mode_t)v.num;
 197:lvgl/src/extra/layouts/grid/../flex/../../../core/lv_obj_style_gen.h **** }
 198:lvgl/src/extra/layouts/grid/../flex/../../../core/lv_obj_style_gen.h **** 
 199:lvgl/src/extra/layouts/grid/../flex/../../../core/lv_obj_style_gen.h **** static inline const void * lv_obj_get_style_bg_img_src(const struct _lv_obj_t * obj, uint32_t part)
 200:lvgl/src/extra/layouts/grid/../flex/../../../core/lv_obj_style_gen.h **** {
ARM GAS  /var/folders/21/t9g5rlb91ys800n5npymflf80000gn/T//cce6JCY2.s 			page 61


 201:lvgl/src/extra/layouts/grid/../flex/../../../core/lv_obj_style_gen.h ****     lv_style_value_t v = lv_obj_get_style_prop(obj, part, LV_STYLE_BG_IMG_SRC);
 202:lvgl/src/extra/layouts/grid/../flex/../../../core/lv_obj_style_gen.h ****     return (const void *)v.ptr;
 203:lvgl/src/extra/layouts/grid/../flex/../../../core/lv_obj_style_gen.h **** }
 204:lvgl/src/extra/layouts/grid/../flex/../../../core/lv_obj_style_gen.h **** 
 205:lvgl/src/extra/layouts/grid/../flex/../../../core/lv_obj_style_gen.h **** static inline lv_opa_t lv_obj_get_style_bg_img_opa(const struct _lv_obj_t * obj, uint32_t part)
 206:lvgl/src/extra/layouts/grid/../flex/../../../core/lv_obj_style_gen.h **** {
 207:lvgl/src/extra/layouts/grid/../flex/../../../core/lv_obj_style_gen.h ****     lv_style_value_t v = lv_obj_get_style_prop(obj, part, LV_STYLE_BG_IMG_OPA);
 208:lvgl/src/extra/layouts/grid/../flex/../../../core/lv_obj_style_gen.h ****     return (lv_opa_t)v.num;
 209:lvgl/src/extra/layouts/grid/../flex/../../../core/lv_obj_style_gen.h **** }
 210:lvgl/src/extra/layouts/grid/../flex/../../../core/lv_obj_style_gen.h **** 
 211:lvgl/src/extra/layouts/grid/../flex/../../../core/lv_obj_style_gen.h **** static inline lv_color_t lv_obj_get_style_bg_img_recolor(const struct _lv_obj_t * obj, uint32_t par
 212:lvgl/src/extra/layouts/grid/../flex/../../../core/lv_obj_style_gen.h **** {
 213:lvgl/src/extra/layouts/grid/../flex/../../../core/lv_obj_style_gen.h ****     lv_style_value_t v = lv_obj_get_style_prop(obj, part, LV_STYLE_BG_IMG_RECOLOR);
 214:lvgl/src/extra/layouts/grid/../flex/../../../core/lv_obj_style_gen.h ****     return v.color;
 215:lvgl/src/extra/layouts/grid/../flex/../../../core/lv_obj_style_gen.h **** }
 216:lvgl/src/extra/layouts/grid/../flex/../../../core/lv_obj_style_gen.h **** 
 217:lvgl/src/extra/layouts/grid/../flex/../../../core/lv_obj_style_gen.h **** static inline lv_color_t lv_obj_get_style_bg_img_recolor_filtered(const struct _lv_obj_t * obj, uin
 218:lvgl/src/extra/layouts/grid/../flex/../../../core/lv_obj_style_gen.h **** {
 219:lvgl/src/extra/layouts/grid/../flex/../../../core/lv_obj_style_gen.h ****     lv_style_value_t v = _lv_obj_style_apply_color_filter(obj, part, lv_obj_get_style_prop(obj, par
 220:lvgl/src/extra/layouts/grid/../flex/../../../core/lv_obj_style_gen.h ****     return v.color;
 221:lvgl/src/extra/layouts/grid/../flex/../../../core/lv_obj_style_gen.h **** }
 222:lvgl/src/extra/layouts/grid/../flex/../../../core/lv_obj_style_gen.h **** 
 223:lvgl/src/extra/layouts/grid/../flex/../../../core/lv_obj_style_gen.h **** static inline lv_opa_t lv_obj_get_style_bg_img_recolor_opa(const struct _lv_obj_t * obj, uint32_t p
 224:lvgl/src/extra/layouts/grid/../flex/../../../core/lv_obj_style_gen.h **** {
 225:lvgl/src/extra/layouts/grid/../flex/../../../core/lv_obj_style_gen.h ****     lv_style_value_t v = lv_obj_get_style_prop(obj, part, LV_STYLE_BG_IMG_RECOLOR_OPA);
 226:lvgl/src/extra/layouts/grid/../flex/../../../core/lv_obj_style_gen.h ****     return (lv_opa_t)v.num;
 227:lvgl/src/extra/layouts/grid/../flex/../../../core/lv_obj_style_gen.h **** }
 228:lvgl/src/extra/layouts/grid/../flex/../../../core/lv_obj_style_gen.h **** 
 229:lvgl/src/extra/layouts/grid/../flex/../../../core/lv_obj_style_gen.h **** static inline bool lv_obj_get_style_bg_img_tiled(const struct _lv_obj_t * obj, uint32_t part)
 230:lvgl/src/extra/layouts/grid/../flex/../../../core/lv_obj_style_gen.h **** {
 231:lvgl/src/extra/layouts/grid/../flex/../../../core/lv_obj_style_gen.h ****     lv_style_value_t v = lv_obj_get_style_prop(obj, part, LV_STYLE_BG_IMG_TILED);
 232:lvgl/src/extra/layouts/grid/../flex/../../../core/lv_obj_style_gen.h ****     return (bool)v.num;
 233:lvgl/src/extra/layouts/grid/../flex/../../../core/lv_obj_style_gen.h **** }
 234:lvgl/src/extra/layouts/grid/../flex/../../../core/lv_obj_style_gen.h **** 
 235:lvgl/src/extra/layouts/grid/../flex/../../../core/lv_obj_style_gen.h **** static inline lv_color_t lv_obj_get_style_border_color(const struct _lv_obj_t * obj, uint32_t part)
 236:lvgl/src/extra/layouts/grid/../flex/../../../core/lv_obj_style_gen.h **** {
 237:lvgl/src/extra/layouts/grid/../flex/../../../core/lv_obj_style_gen.h ****     lv_style_value_t v = lv_obj_get_style_prop(obj, part, LV_STYLE_BORDER_COLOR);
 238:lvgl/src/extra/layouts/grid/../flex/../../../core/lv_obj_style_gen.h ****     return v.color;
 239:lvgl/src/extra/layouts/grid/../flex/../../../core/lv_obj_style_gen.h **** }
 240:lvgl/src/extra/layouts/grid/../flex/../../../core/lv_obj_style_gen.h **** 
 241:lvgl/src/extra/layouts/grid/../flex/../../../core/lv_obj_style_gen.h **** static inline lv_color_t lv_obj_get_style_border_color_filtered(const struct _lv_obj_t * obj, uint3
 242:lvgl/src/extra/layouts/grid/../flex/../../../core/lv_obj_style_gen.h **** {
 243:lvgl/src/extra/layouts/grid/../flex/../../../core/lv_obj_style_gen.h ****     lv_style_value_t v = _lv_obj_style_apply_color_filter(obj, part, lv_obj_get_style_prop(obj, par
 244:lvgl/src/extra/layouts/grid/../flex/../../../core/lv_obj_style_gen.h ****     return v.color;
 245:lvgl/src/extra/layouts/grid/../flex/../../../core/lv_obj_style_gen.h **** }
 246:lvgl/src/extra/layouts/grid/../flex/../../../core/lv_obj_style_gen.h **** 
 247:lvgl/src/extra/layouts/grid/../flex/../../../core/lv_obj_style_gen.h **** static inline lv_opa_t lv_obj_get_style_border_opa(const struct _lv_obj_t * obj, uint32_t part)
 248:lvgl/src/extra/layouts/grid/../flex/../../../core/lv_obj_style_gen.h **** {
 249:lvgl/src/extra/layouts/grid/../flex/../../../core/lv_obj_style_gen.h ****     lv_style_value_t v = lv_obj_get_style_prop(obj, part, LV_STYLE_BORDER_OPA);
 250:lvgl/src/extra/layouts/grid/../flex/../../../core/lv_obj_style_gen.h ****     return (lv_opa_t)v.num;
 251:lvgl/src/extra/layouts/grid/../flex/../../../core/lv_obj_style_gen.h **** }
 252:lvgl/src/extra/layouts/grid/../flex/../../../core/lv_obj_style_gen.h **** 
 253:lvgl/src/extra/layouts/grid/../flex/../../../core/lv_obj_style_gen.h **** static inline lv_coord_t lv_obj_get_style_border_width(const struct _lv_obj_t * obj, uint32_t part)
 254:lvgl/src/extra/layouts/grid/../flex/../../../core/lv_obj_style_gen.h **** {
 255:lvgl/src/extra/layouts/grid/../flex/../../../core/lv_obj_style_gen.h ****     lv_style_value_t v = lv_obj_get_style_prop(obj, part, LV_STYLE_BORDER_WIDTH);
 256:lvgl/src/extra/layouts/grid/../flex/../../../core/lv_obj_style_gen.h ****     return (lv_coord_t)v.num;
 257:lvgl/src/extra/layouts/grid/../flex/../../../core/lv_obj_style_gen.h **** }
ARM GAS  /var/folders/21/t9g5rlb91ys800n5npymflf80000gn/T//cce6JCY2.s 			page 62


 258:lvgl/src/extra/layouts/grid/../flex/../../../core/lv_obj_style_gen.h **** 
 259:lvgl/src/extra/layouts/grid/../flex/../../../core/lv_obj_style_gen.h **** static inline lv_border_side_t lv_obj_get_style_border_side(const struct _lv_obj_t * obj, uint32_t 
 260:lvgl/src/extra/layouts/grid/../flex/../../../core/lv_obj_style_gen.h **** {
 261:lvgl/src/extra/layouts/grid/../flex/../../../core/lv_obj_style_gen.h ****     lv_style_value_t v = lv_obj_get_style_prop(obj, part, LV_STYLE_BORDER_SIDE);
 262:lvgl/src/extra/layouts/grid/../flex/../../../core/lv_obj_style_gen.h ****     return (lv_border_side_t)v.num;
 263:lvgl/src/extra/layouts/grid/../flex/../../../core/lv_obj_style_gen.h **** }
 264:lvgl/src/extra/layouts/grid/../flex/../../../core/lv_obj_style_gen.h **** 
 265:lvgl/src/extra/layouts/grid/../flex/../../../core/lv_obj_style_gen.h **** static inline bool lv_obj_get_style_border_post(const struct _lv_obj_t * obj, uint32_t part)
 266:lvgl/src/extra/layouts/grid/../flex/../../../core/lv_obj_style_gen.h **** {
 267:lvgl/src/extra/layouts/grid/../flex/../../../core/lv_obj_style_gen.h ****     lv_style_value_t v = lv_obj_get_style_prop(obj, part, LV_STYLE_BORDER_POST);
 268:lvgl/src/extra/layouts/grid/../flex/../../../core/lv_obj_style_gen.h ****     return (bool)v.num;
 269:lvgl/src/extra/layouts/grid/../flex/../../../core/lv_obj_style_gen.h **** }
 270:lvgl/src/extra/layouts/grid/../flex/../../../core/lv_obj_style_gen.h **** 
 271:lvgl/src/extra/layouts/grid/../flex/../../../core/lv_obj_style_gen.h **** static inline lv_coord_t lv_obj_get_style_outline_width(const struct _lv_obj_t * obj, uint32_t part
 272:lvgl/src/extra/layouts/grid/../flex/../../../core/lv_obj_style_gen.h **** {
 273:lvgl/src/extra/layouts/grid/../flex/../../../core/lv_obj_style_gen.h ****     lv_style_value_t v = lv_obj_get_style_prop(obj, part, LV_STYLE_OUTLINE_WIDTH);
 274:lvgl/src/extra/layouts/grid/../flex/../../../core/lv_obj_style_gen.h ****     return (lv_coord_t)v.num;
 275:lvgl/src/extra/layouts/grid/../flex/../../../core/lv_obj_style_gen.h **** }
 276:lvgl/src/extra/layouts/grid/../flex/../../../core/lv_obj_style_gen.h **** 
 277:lvgl/src/extra/layouts/grid/../flex/../../../core/lv_obj_style_gen.h **** static inline lv_color_t lv_obj_get_style_outline_color(const struct _lv_obj_t * obj, uint32_t part
 278:lvgl/src/extra/layouts/grid/../flex/../../../core/lv_obj_style_gen.h **** {
 279:lvgl/src/extra/layouts/grid/../flex/../../../core/lv_obj_style_gen.h ****     lv_style_value_t v = lv_obj_get_style_prop(obj, part, LV_STYLE_OUTLINE_COLOR);
 280:lvgl/src/extra/layouts/grid/../flex/../../../core/lv_obj_style_gen.h ****     return v.color;
 281:lvgl/src/extra/layouts/grid/../flex/../../../core/lv_obj_style_gen.h **** }
 282:lvgl/src/extra/layouts/grid/../flex/../../../core/lv_obj_style_gen.h **** 
 283:lvgl/src/extra/layouts/grid/../flex/../../../core/lv_obj_style_gen.h **** static inline lv_color_t lv_obj_get_style_outline_color_filtered(const struct _lv_obj_t * obj, uint
 284:lvgl/src/extra/layouts/grid/../flex/../../../core/lv_obj_style_gen.h **** {
 285:lvgl/src/extra/layouts/grid/../flex/../../../core/lv_obj_style_gen.h ****     lv_style_value_t v = _lv_obj_style_apply_color_filter(obj, part, lv_obj_get_style_prop(obj, par
 286:lvgl/src/extra/layouts/grid/../flex/../../../core/lv_obj_style_gen.h ****     return v.color;
 287:lvgl/src/extra/layouts/grid/../flex/../../../core/lv_obj_style_gen.h **** }
 288:lvgl/src/extra/layouts/grid/../flex/../../../core/lv_obj_style_gen.h **** 
 289:lvgl/src/extra/layouts/grid/../flex/../../../core/lv_obj_style_gen.h **** static inline lv_opa_t lv_obj_get_style_outline_opa(const struct _lv_obj_t * obj, uint32_t part)
 290:lvgl/src/extra/layouts/grid/../flex/../../../core/lv_obj_style_gen.h **** {
 291:lvgl/src/extra/layouts/grid/../flex/../../../core/lv_obj_style_gen.h ****     lv_style_value_t v = lv_obj_get_style_prop(obj, part, LV_STYLE_OUTLINE_OPA);
 292:lvgl/src/extra/layouts/grid/../flex/../../../core/lv_obj_style_gen.h ****     return (lv_opa_t)v.num;
 293:lvgl/src/extra/layouts/grid/../flex/../../../core/lv_obj_style_gen.h **** }
 294:lvgl/src/extra/layouts/grid/../flex/../../../core/lv_obj_style_gen.h **** 
 295:lvgl/src/extra/layouts/grid/../flex/../../../core/lv_obj_style_gen.h **** static inline lv_coord_t lv_obj_get_style_outline_pad(const struct _lv_obj_t * obj, uint32_t part)
 296:lvgl/src/extra/layouts/grid/../flex/../../../core/lv_obj_style_gen.h **** {
 297:lvgl/src/extra/layouts/grid/../flex/../../../core/lv_obj_style_gen.h ****     lv_style_value_t v = lv_obj_get_style_prop(obj, part, LV_STYLE_OUTLINE_PAD);
 298:lvgl/src/extra/layouts/grid/../flex/../../../core/lv_obj_style_gen.h ****     return (lv_coord_t)v.num;
 299:lvgl/src/extra/layouts/grid/../flex/../../../core/lv_obj_style_gen.h **** }
 300:lvgl/src/extra/layouts/grid/../flex/../../../core/lv_obj_style_gen.h **** 
 301:lvgl/src/extra/layouts/grid/../flex/../../../core/lv_obj_style_gen.h **** static inline lv_coord_t lv_obj_get_style_shadow_width(const struct _lv_obj_t * obj, uint32_t part)
 302:lvgl/src/extra/layouts/grid/../flex/../../../core/lv_obj_style_gen.h **** {
 303:lvgl/src/extra/layouts/grid/../flex/../../../core/lv_obj_style_gen.h ****     lv_style_value_t v = lv_obj_get_style_prop(obj, part, LV_STYLE_SHADOW_WIDTH);
 304:lvgl/src/extra/layouts/grid/../flex/../../../core/lv_obj_style_gen.h ****     return (lv_coord_t)v.num;
 305:lvgl/src/extra/layouts/grid/../flex/../../../core/lv_obj_style_gen.h **** }
 306:lvgl/src/extra/layouts/grid/../flex/../../../core/lv_obj_style_gen.h **** 
 307:lvgl/src/extra/layouts/grid/../flex/../../../core/lv_obj_style_gen.h **** static inline lv_coord_t lv_obj_get_style_shadow_ofs_x(const struct _lv_obj_t * obj, uint32_t part)
 308:lvgl/src/extra/layouts/grid/../flex/../../../core/lv_obj_style_gen.h **** {
 309:lvgl/src/extra/layouts/grid/../flex/../../../core/lv_obj_style_gen.h ****     lv_style_value_t v = lv_obj_get_style_prop(obj, part, LV_STYLE_SHADOW_OFS_X);
 310:lvgl/src/extra/layouts/grid/../flex/../../../core/lv_obj_style_gen.h ****     return (lv_coord_t)v.num;
 311:lvgl/src/extra/layouts/grid/../flex/../../../core/lv_obj_style_gen.h **** }
 312:lvgl/src/extra/layouts/grid/../flex/../../../core/lv_obj_style_gen.h **** 
 313:lvgl/src/extra/layouts/grid/../flex/../../../core/lv_obj_style_gen.h **** static inline lv_coord_t lv_obj_get_style_shadow_ofs_y(const struct _lv_obj_t * obj, uint32_t part)
 314:lvgl/src/extra/layouts/grid/../flex/../../../core/lv_obj_style_gen.h **** {
ARM GAS  /var/folders/21/t9g5rlb91ys800n5npymflf80000gn/T//cce6JCY2.s 			page 63


 315:lvgl/src/extra/layouts/grid/../flex/../../../core/lv_obj_style_gen.h ****     lv_style_value_t v = lv_obj_get_style_prop(obj, part, LV_STYLE_SHADOW_OFS_Y);
 316:lvgl/src/extra/layouts/grid/../flex/../../../core/lv_obj_style_gen.h ****     return (lv_coord_t)v.num;
 317:lvgl/src/extra/layouts/grid/../flex/../../../core/lv_obj_style_gen.h **** }
 318:lvgl/src/extra/layouts/grid/../flex/../../../core/lv_obj_style_gen.h **** 
 319:lvgl/src/extra/layouts/grid/../flex/../../../core/lv_obj_style_gen.h **** static inline lv_coord_t lv_obj_get_style_shadow_spread(const struct _lv_obj_t * obj, uint32_t part
 320:lvgl/src/extra/layouts/grid/../flex/../../../core/lv_obj_style_gen.h **** {
 321:lvgl/src/extra/layouts/grid/../flex/../../../core/lv_obj_style_gen.h ****     lv_style_value_t v = lv_obj_get_style_prop(obj, part, LV_STYLE_SHADOW_SPREAD);
 322:lvgl/src/extra/layouts/grid/../flex/../../../core/lv_obj_style_gen.h ****     return (lv_coord_t)v.num;
 323:lvgl/src/extra/layouts/grid/../flex/../../../core/lv_obj_style_gen.h **** }
 324:lvgl/src/extra/layouts/grid/../flex/../../../core/lv_obj_style_gen.h **** 
 325:lvgl/src/extra/layouts/grid/../flex/../../../core/lv_obj_style_gen.h **** static inline lv_color_t lv_obj_get_style_shadow_color(const struct _lv_obj_t * obj, uint32_t part)
 326:lvgl/src/extra/layouts/grid/../flex/../../../core/lv_obj_style_gen.h **** {
 327:lvgl/src/extra/layouts/grid/../flex/../../../core/lv_obj_style_gen.h ****     lv_style_value_t v = lv_obj_get_style_prop(obj, part, LV_STYLE_SHADOW_COLOR);
 328:lvgl/src/extra/layouts/grid/../flex/../../../core/lv_obj_style_gen.h ****     return v.color;
 329:lvgl/src/extra/layouts/grid/../flex/../../../core/lv_obj_style_gen.h **** }
 330:lvgl/src/extra/layouts/grid/../flex/../../../core/lv_obj_style_gen.h **** 
 331:lvgl/src/extra/layouts/grid/../flex/../../../core/lv_obj_style_gen.h **** static inline lv_color_t lv_obj_get_style_shadow_color_filtered(const struct _lv_obj_t * obj, uint3
 332:lvgl/src/extra/layouts/grid/../flex/../../../core/lv_obj_style_gen.h **** {
 333:lvgl/src/extra/layouts/grid/../flex/../../../core/lv_obj_style_gen.h ****     lv_style_value_t v = _lv_obj_style_apply_color_filter(obj, part, lv_obj_get_style_prop(obj, par
 334:lvgl/src/extra/layouts/grid/../flex/../../../core/lv_obj_style_gen.h ****     return v.color;
 335:lvgl/src/extra/layouts/grid/../flex/../../../core/lv_obj_style_gen.h **** }
 336:lvgl/src/extra/layouts/grid/../flex/../../../core/lv_obj_style_gen.h **** 
 337:lvgl/src/extra/layouts/grid/../flex/../../../core/lv_obj_style_gen.h **** static inline lv_opa_t lv_obj_get_style_shadow_opa(const struct _lv_obj_t * obj, uint32_t part)
 338:lvgl/src/extra/layouts/grid/../flex/../../../core/lv_obj_style_gen.h **** {
 339:lvgl/src/extra/layouts/grid/../flex/../../../core/lv_obj_style_gen.h ****     lv_style_value_t v = lv_obj_get_style_prop(obj, part, LV_STYLE_SHADOW_OPA);
 340:lvgl/src/extra/layouts/grid/../flex/../../../core/lv_obj_style_gen.h ****     return (lv_opa_t)v.num;
 341:lvgl/src/extra/layouts/grid/../flex/../../../core/lv_obj_style_gen.h **** }
 342:lvgl/src/extra/layouts/grid/../flex/../../../core/lv_obj_style_gen.h **** 
 343:lvgl/src/extra/layouts/grid/../flex/../../../core/lv_obj_style_gen.h **** static inline lv_opa_t lv_obj_get_style_img_opa(const struct _lv_obj_t * obj, uint32_t part)
 344:lvgl/src/extra/layouts/grid/../flex/../../../core/lv_obj_style_gen.h **** {
 345:lvgl/src/extra/layouts/grid/../flex/../../../core/lv_obj_style_gen.h ****     lv_style_value_t v = lv_obj_get_style_prop(obj, part, LV_STYLE_IMG_OPA);
 346:lvgl/src/extra/layouts/grid/../flex/../../../core/lv_obj_style_gen.h ****     return (lv_opa_t)v.num;
 347:lvgl/src/extra/layouts/grid/../flex/../../../core/lv_obj_style_gen.h **** }
 348:lvgl/src/extra/layouts/grid/../flex/../../../core/lv_obj_style_gen.h **** 
 349:lvgl/src/extra/layouts/grid/../flex/../../../core/lv_obj_style_gen.h **** static inline lv_color_t lv_obj_get_style_img_recolor(const struct _lv_obj_t * obj, uint32_t part)
 350:lvgl/src/extra/layouts/grid/../flex/../../../core/lv_obj_style_gen.h **** {
 351:lvgl/src/extra/layouts/grid/../flex/../../../core/lv_obj_style_gen.h ****     lv_style_value_t v = lv_obj_get_style_prop(obj, part, LV_STYLE_IMG_RECOLOR);
 352:lvgl/src/extra/layouts/grid/../flex/../../../core/lv_obj_style_gen.h ****     return v.color;
 353:lvgl/src/extra/layouts/grid/../flex/../../../core/lv_obj_style_gen.h **** }
 354:lvgl/src/extra/layouts/grid/../flex/../../../core/lv_obj_style_gen.h **** 
 355:lvgl/src/extra/layouts/grid/../flex/../../../core/lv_obj_style_gen.h **** static inline lv_color_t lv_obj_get_style_img_recolor_filtered(const struct _lv_obj_t * obj, uint32
 356:lvgl/src/extra/layouts/grid/../flex/../../../core/lv_obj_style_gen.h **** {
 357:lvgl/src/extra/layouts/grid/../flex/../../../core/lv_obj_style_gen.h ****     lv_style_value_t v = _lv_obj_style_apply_color_filter(obj, part, lv_obj_get_style_prop(obj, par
 358:lvgl/src/extra/layouts/grid/../flex/../../../core/lv_obj_style_gen.h ****     return v.color;
 359:lvgl/src/extra/layouts/grid/../flex/../../../core/lv_obj_style_gen.h **** }
 360:lvgl/src/extra/layouts/grid/../flex/../../../core/lv_obj_style_gen.h **** 
 361:lvgl/src/extra/layouts/grid/../flex/../../../core/lv_obj_style_gen.h **** static inline lv_opa_t lv_obj_get_style_img_recolor_opa(const struct _lv_obj_t * obj, uint32_t part
 362:lvgl/src/extra/layouts/grid/../flex/../../../core/lv_obj_style_gen.h **** {
 363:lvgl/src/extra/layouts/grid/../flex/../../../core/lv_obj_style_gen.h ****     lv_style_value_t v = lv_obj_get_style_prop(obj, part, LV_STYLE_IMG_RECOLOR_OPA);
 364:lvgl/src/extra/layouts/grid/../flex/../../../core/lv_obj_style_gen.h ****     return (lv_opa_t)v.num;
 365:lvgl/src/extra/layouts/grid/../flex/../../../core/lv_obj_style_gen.h **** }
 366:lvgl/src/extra/layouts/grid/../flex/../../../core/lv_obj_style_gen.h **** 
 367:lvgl/src/extra/layouts/grid/../flex/../../../core/lv_obj_style_gen.h **** static inline lv_coord_t lv_obj_get_style_line_width(const struct _lv_obj_t * obj, uint32_t part)
 368:lvgl/src/extra/layouts/grid/../flex/../../../core/lv_obj_style_gen.h **** {
 369:lvgl/src/extra/layouts/grid/../flex/../../../core/lv_obj_style_gen.h ****     lv_style_value_t v = lv_obj_get_style_prop(obj, part, LV_STYLE_LINE_WIDTH);
 370:lvgl/src/extra/layouts/grid/../flex/../../../core/lv_obj_style_gen.h ****     return (lv_coord_t)v.num;
 371:lvgl/src/extra/layouts/grid/../flex/../../../core/lv_obj_style_gen.h **** }
ARM GAS  /var/folders/21/t9g5rlb91ys800n5npymflf80000gn/T//cce6JCY2.s 			page 64


 372:lvgl/src/extra/layouts/grid/../flex/../../../core/lv_obj_style_gen.h **** 
 373:lvgl/src/extra/layouts/grid/../flex/../../../core/lv_obj_style_gen.h **** static inline lv_coord_t lv_obj_get_style_line_dash_width(const struct _lv_obj_t * obj, uint32_t pa
 374:lvgl/src/extra/layouts/grid/../flex/../../../core/lv_obj_style_gen.h **** {
 375:lvgl/src/extra/layouts/grid/../flex/../../../core/lv_obj_style_gen.h ****     lv_style_value_t v = lv_obj_get_style_prop(obj, part, LV_STYLE_LINE_DASH_WIDTH);
 376:lvgl/src/extra/layouts/grid/../flex/../../../core/lv_obj_style_gen.h ****     return (lv_coord_t)v.num;
 377:lvgl/src/extra/layouts/grid/../flex/../../../core/lv_obj_style_gen.h **** }
 378:lvgl/src/extra/layouts/grid/../flex/../../../core/lv_obj_style_gen.h **** 
 379:lvgl/src/extra/layouts/grid/../flex/../../../core/lv_obj_style_gen.h **** static inline lv_coord_t lv_obj_get_style_line_dash_gap(const struct _lv_obj_t * obj, uint32_t part
 380:lvgl/src/extra/layouts/grid/../flex/../../../core/lv_obj_style_gen.h **** {
 381:lvgl/src/extra/layouts/grid/../flex/../../../core/lv_obj_style_gen.h ****     lv_style_value_t v = lv_obj_get_style_prop(obj, part, LV_STYLE_LINE_DASH_GAP);
 382:lvgl/src/extra/layouts/grid/../flex/../../../core/lv_obj_style_gen.h ****     return (lv_coord_t)v.num;
 383:lvgl/src/extra/layouts/grid/../flex/../../../core/lv_obj_style_gen.h **** }
 384:lvgl/src/extra/layouts/grid/../flex/../../../core/lv_obj_style_gen.h **** 
 385:lvgl/src/extra/layouts/grid/../flex/../../../core/lv_obj_style_gen.h **** static inline bool lv_obj_get_style_line_rounded(const struct _lv_obj_t * obj, uint32_t part)
 386:lvgl/src/extra/layouts/grid/../flex/../../../core/lv_obj_style_gen.h **** {
 387:lvgl/src/extra/layouts/grid/../flex/../../../core/lv_obj_style_gen.h ****     lv_style_value_t v = lv_obj_get_style_prop(obj, part, LV_STYLE_LINE_ROUNDED);
 388:lvgl/src/extra/layouts/grid/../flex/../../../core/lv_obj_style_gen.h ****     return (bool)v.num;
 389:lvgl/src/extra/layouts/grid/../flex/../../../core/lv_obj_style_gen.h **** }
 390:lvgl/src/extra/layouts/grid/../flex/../../../core/lv_obj_style_gen.h **** 
 391:lvgl/src/extra/layouts/grid/../flex/../../../core/lv_obj_style_gen.h **** static inline lv_color_t lv_obj_get_style_line_color(const struct _lv_obj_t * obj, uint32_t part)
 392:lvgl/src/extra/layouts/grid/../flex/../../../core/lv_obj_style_gen.h **** {
 393:lvgl/src/extra/layouts/grid/../flex/../../../core/lv_obj_style_gen.h ****     lv_style_value_t v = lv_obj_get_style_prop(obj, part, LV_STYLE_LINE_COLOR);
 394:lvgl/src/extra/layouts/grid/../flex/../../../core/lv_obj_style_gen.h ****     return v.color;
 395:lvgl/src/extra/layouts/grid/../flex/../../../core/lv_obj_style_gen.h **** }
 396:lvgl/src/extra/layouts/grid/../flex/../../../core/lv_obj_style_gen.h **** 
 397:lvgl/src/extra/layouts/grid/../flex/../../../core/lv_obj_style_gen.h **** static inline lv_color_t lv_obj_get_style_line_color_filtered(const struct _lv_obj_t * obj, uint32_
 398:lvgl/src/extra/layouts/grid/../flex/../../../core/lv_obj_style_gen.h **** {
 399:lvgl/src/extra/layouts/grid/../flex/../../../core/lv_obj_style_gen.h ****     lv_style_value_t v = _lv_obj_style_apply_color_filter(obj, part, lv_obj_get_style_prop(obj, par
 400:lvgl/src/extra/layouts/grid/../flex/../../../core/lv_obj_style_gen.h ****     return v.color;
 401:lvgl/src/extra/layouts/grid/../flex/../../../core/lv_obj_style_gen.h **** }
 402:lvgl/src/extra/layouts/grid/../flex/../../../core/lv_obj_style_gen.h **** 
 403:lvgl/src/extra/layouts/grid/../flex/../../../core/lv_obj_style_gen.h **** static inline lv_opa_t lv_obj_get_style_line_opa(const struct _lv_obj_t * obj, uint32_t part)
 404:lvgl/src/extra/layouts/grid/../flex/../../../core/lv_obj_style_gen.h **** {
 405:lvgl/src/extra/layouts/grid/../flex/../../../core/lv_obj_style_gen.h ****     lv_style_value_t v = lv_obj_get_style_prop(obj, part, LV_STYLE_LINE_OPA);
 406:lvgl/src/extra/layouts/grid/../flex/../../../core/lv_obj_style_gen.h ****     return (lv_opa_t)v.num;
 407:lvgl/src/extra/layouts/grid/../flex/../../../core/lv_obj_style_gen.h **** }
 408:lvgl/src/extra/layouts/grid/../flex/../../../core/lv_obj_style_gen.h **** 
 409:lvgl/src/extra/layouts/grid/../flex/../../../core/lv_obj_style_gen.h **** static inline lv_coord_t lv_obj_get_style_arc_width(const struct _lv_obj_t * obj, uint32_t part)
 410:lvgl/src/extra/layouts/grid/../flex/../../../core/lv_obj_style_gen.h **** {
 411:lvgl/src/extra/layouts/grid/../flex/../../../core/lv_obj_style_gen.h ****     lv_style_value_t v = lv_obj_get_style_prop(obj, part, LV_STYLE_ARC_WIDTH);
 412:lvgl/src/extra/layouts/grid/../flex/../../../core/lv_obj_style_gen.h ****     return (lv_coord_t)v.num;
 413:lvgl/src/extra/layouts/grid/../flex/../../../core/lv_obj_style_gen.h **** }
 414:lvgl/src/extra/layouts/grid/../flex/../../../core/lv_obj_style_gen.h **** 
 415:lvgl/src/extra/layouts/grid/../flex/../../../core/lv_obj_style_gen.h **** static inline bool lv_obj_get_style_arc_rounded(const struct _lv_obj_t * obj, uint32_t part)
 416:lvgl/src/extra/layouts/grid/../flex/../../../core/lv_obj_style_gen.h **** {
 417:lvgl/src/extra/layouts/grid/../flex/../../../core/lv_obj_style_gen.h ****     lv_style_value_t v = lv_obj_get_style_prop(obj, part, LV_STYLE_ARC_ROUNDED);
 418:lvgl/src/extra/layouts/grid/../flex/../../../core/lv_obj_style_gen.h ****     return (bool)v.num;
 419:lvgl/src/extra/layouts/grid/../flex/../../../core/lv_obj_style_gen.h **** }
 420:lvgl/src/extra/layouts/grid/../flex/../../../core/lv_obj_style_gen.h **** 
 421:lvgl/src/extra/layouts/grid/../flex/../../../core/lv_obj_style_gen.h **** static inline lv_color_t lv_obj_get_style_arc_color(const struct _lv_obj_t * obj, uint32_t part)
 422:lvgl/src/extra/layouts/grid/../flex/../../../core/lv_obj_style_gen.h **** {
 423:lvgl/src/extra/layouts/grid/../flex/../../../core/lv_obj_style_gen.h ****     lv_style_value_t v = lv_obj_get_style_prop(obj, part, LV_STYLE_ARC_COLOR);
 424:lvgl/src/extra/layouts/grid/../flex/../../../core/lv_obj_style_gen.h ****     return v.color;
 425:lvgl/src/extra/layouts/grid/../flex/../../../core/lv_obj_style_gen.h **** }
 426:lvgl/src/extra/layouts/grid/../flex/../../../core/lv_obj_style_gen.h **** 
 427:lvgl/src/extra/layouts/grid/../flex/../../../core/lv_obj_style_gen.h **** static inline lv_color_t lv_obj_get_style_arc_color_filtered(const struct _lv_obj_t * obj, uint32_t
 428:lvgl/src/extra/layouts/grid/../flex/../../../core/lv_obj_style_gen.h **** {
ARM GAS  /var/folders/21/t9g5rlb91ys800n5npymflf80000gn/T//cce6JCY2.s 			page 65


 429:lvgl/src/extra/layouts/grid/../flex/../../../core/lv_obj_style_gen.h ****     lv_style_value_t v = _lv_obj_style_apply_color_filter(obj, part, lv_obj_get_style_prop(obj, par
 430:lvgl/src/extra/layouts/grid/../flex/../../../core/lv_obj_style_gen.h ****     return v.color;
 431:lvgl/src/extra/layouts/grid/../flex/../../../core/lv_obj_style_gen.h **** }
 432:lvgl/src/extra/layouts/grid/../flex/../../../core/lv_obj_style_gen.h **** 
 433:lvgl/src/extra/layouts/grid/../flex/../../../core/lv_obj_style_gen.h **** static inline lv_opa_t lv_obj_get_style_arc_opa(const struct _lv_obj_t * obj, uint32_t part)
 434:lvgl/src/extra/layouts/grid/../flex/../../../core/lv_obj_style_gen.h **** {
 435:lvgl/src/extra/layouts/grid/../flex/../../../core/lv_obj_style_gen.h ****     lv_style_value_t v = lv_obj_get_style_prop(obj, part, LV_STYLE_ARC_OPA);
 436:lvgl/src/extra/layouts/grid/../flex/../../../core/lv_obj_style_gen.h ****     return (lv_opa_t)v.num;
 437:lvgl/src/extra/layouts/grid/../flex/../../../core/lv_obj_style_gen.h **** }
 438:lvgl/src/extra/layouts/grid/../flex/../../../core/lv_obj_style_gen.h **** 
 439:lvgl/src/extra/layouts/grid/../flex/../../../core/lv_obj_style_gen.h **** static inline const void * lv_obj_get_style_arc_img_src(const struct _lv_obj_t * obj, uint32_t part
 440:lvgl/src/extra/layouts/grid/../flex/../../../core/lv_obj_style_gen.h **** {
 441:lvgl/src/extra/layouts/grid/../flex/../../../core/lv_obj_style_gen.h ****     lv_style_value_t v = lv_obj_get_style_prop(obj, part, LV_STYLE_ARC_IMG_SRC);
 442:lvgl/src/extra/layouts/grid/../flex/../../../core/lv_obj_style_gen.h ****     return (const void *)v.ptr;
 443:lvgl/src/extra/layouts/grid/../flex/../../../core/lv_obj_style_gen.h **** }
 444:lvgl/src/extra/layouts/grid/../flex/../../../core/lv_obj_style_gen.h **** 
 445:lvgl/src/extra/layouts/grid/../flex/../../../core/lv_obj_style_gen.h **** static inline lv_color_t lv_obj_get_style_text_color(const struct _lv_obj_t * obj, uint32_t part)
 446:lvgl/src/extra/layouts/grid/../flex/../../../core/lv_obj_style_gen.h **** {
 447:lvgl/src/extra/layouts/grid/../flex/../../../core/lv_obj_style_gen.h ****     lv_style_value_t v = lv_obj_get_style_prop(obj, part, LV_STYLE_TEXT_COLOR);
 448:lvgl/src/extra/layouts/grid/../flex/../../../core/lv_obj_style_gen.h ****     return v.color;
 449:lvgl/src/extra/layouts/grid/../flex/../../../core/lv_obj_style_gen.h **** }
 450:lvgl/src/extra/layouts/grid/../flex/../../../core/lv_obj_style_gen.h **** 
 451:lvgl/src/extra/layouts/grid/../flex/../../../core/lv_obj_style_gen.h **** static inline lv_color_t lv_obj_get_style_text_color_filtered(const struct _lv_obj_t * obj, uint32_
 452:lvgl/src/extra/layouts/grid/../flex/../../../core/lv_obj_style_gen.h **** {
 453:lvgl/src/extra/layouts/grid/../flex/../../../core/lv_obj_style_gen.h ****     lv_style_value_t v = _lv_obj_style_apply_color_filter(obj, part, lv_obj_get_style_prop(obj, par
 454:lvgl/src/extra/layouts/grid/../flex/../../../core/lv_obj_style_gen.h ****     return v.color;
 455:lvgl/src/extra/layouts/grid/../flex/../../../core/lv_obj_style_gen.h **** }
 456:lvgl/src/extra/layouts/grid/../flex/../../../core/lv_obj_style_gen.h **** 
 457:lvgl/src/extra/layouts/grid/../flex/../../../core/lv_obj_style_gen.h **** static inline lv_opa_t lv_obj_get_style_text_opa(const struct _lv_obj_t * obj, uint32_t part)
 458:lvgl/src/extra/layouts/grid/../flex/../../../core/lv_obj_style_gen.h **** {
 459:lvgl/src/extra/layouts/grid/../flex/../../../core/lv_obj_style_gen.h ****     lv_style_value_t v = lv_obj_get_style_prop(obj, part, LV_STYLE_TEXT_OPA);
 460:lvgl/src/extra/layouts/grid/../flex/../../../core/lv_obj_style_gen.h ****     return (lv_opa_t)v.num;
 461:lvgl/src/extra/layouts/grid/../flex/../../../core/lv_obj_style_gen.h **** }
 462:lvgl/src/extra/layouts/grid/../flex/../../../core/lv_obj_style_gen.h **** 
 463:lvgl/src/extra/layouts/grid/../flex/../../../core/lv_obj_style_gen.h **** static inline const lv_font_t * lv_obj_get_style_text_font(const struct _lv_obj_t * obj, uint32_t p
 464:lvgl/src/extra/layouts/grid/../flex/../../../core/lv_obj_style_gen.h **** {
 465:lvgl/src/extra/layouts/grid/../flex/../../../core/lv_obj_style_gen.h ****     lv_style_value_t v = lv_obj_get_style_prop(obj, part, LV_STYLE_TEXT_FONT);
 466:lvgl/src/extra/layouts/grid/../flex/../../../core/lv_obj_style_gen.h ****     return (const lv_font_t *)v.ptr;
 467:lvgl/src/extra/layouts/grid/../flex/../../../core/lv_obj_style_gen.h **** }
 468:lvgl/src/extra/layouts/grid/../flex/../../../core/lv_obj_style_gen.h **** 
 469:lvgl/src/extra/layouts/grid/../flex/../../../core/lv_obj_style_gen.h **** static inline lv_coord_t lv_obj_get_style_text_letter_space(const struct _lv_obj_t * obj, uint32_t 
 470:lvgl/src/extra/layouts/grid/../flex/../../../core/lv_obj_style_gen.h **** {
 471:lvgl/src/extra/layouts/grid/../flex/../../../core/lv_obj_style_gen.h ****     lv_style_value_t v = lv_obj_get_style_prop(obj, part, LV_STYLE_TEXT_LETTER_SPACE);
 472:lvgl/src/extra/layouts/grid/../flex/../../../core/lv_obj_style_gen.h ****     return (lv_coord_t)v.num;
 473:lvgl/src/extra/layouts/grid/../flex/../../../core/lv_obj_style_gen.h **** }
 474:lvgl/src/extra/layouts/grid/../flex/../../../core/lv_obj_style_gen.h **** 
 475:lvgl/src/extra/layouts/grid/../flex/../../../core/lv_obj_style_gen.h **** static inline lv_coord_t lv_obj_get_style_text_line_space(const struct _lv_obj_t * obj, uint32_t pa
 476:lvgl/src/extra/layouts/grid/../flex/../../../core/lv_obj_style_gen.h **** {
 477:lvgl/src/extra/layouts/grid/../flex/../../../core/lv_obj_style_gen.h ****     lv_style_value_t v = lv_obj_get_style_prop(obj, part, LV_STYLE_TEXT_LINE_SPACE);
 478:lvgl/src/extra/layouts/grid/../flex/../../../core/lv_obj_style_gen.h ****     return (lv_coord_t)v.num;
 479:lvgl/src/extra/layouts/grid/../flex/../../../core/lv_obj_style_gen.h **** }
 480:lvgl/src/extra/layouts/grid/../flex/../../../core/lv_obj_style_gen.h **** 
 481:lvgl/src/extra/layouts/grid/../flex/../../../core/lv_obj_style_gen.h **** static inline lv_text_decor_t lv_obj_get_style_text_decor(const struct _lv_obj_t * obj, uint32_t pa
 482:lvgl/src/extra/layouts/grid/../flex/../../../core/lv_obj_style_gen.h **** {
 483:lvgl/src/extra/layouts/grid/../flex/../../../core/lv_obj_style_gen.h ****     lv_style_value_t v = lv_obj_get_style_prop(obj, part, LV_STYLE_TEXT_DECOR);
 484:lvgl/src/extra/layouts/grid/../flex/../../../core/lv_obj_style_gen.h ****     return (lv_text_decor_t)v.num;
 485:lvgl/src/extra/layouts/grid/../flex/../../../core/lv_obj_style_gen.h **** }
ARM GAS  /var/folders/21/t9g5rlb91ys800n5npymflf80000gn/T//cce6JCY2.s 			page 66


 486:lvgl/src/extra/layouts/grid/../flex/../../../core/lv_obj_style_gen.h **** 
 487:lvgl/src/extra/layouts/grid/../flex/../../../core/lv_obj_style_gen.h **** static inline lv_text_align_t lv_obj_get_style_text_align(const struct _lv_obj_t * obj, uint32_t pa
 488:lvgl/src/extra/layouts/grid/../flex/../../../core/lv_obj_style_gen.h **** {
 489:lvgl/src/extra/layouts/grid/../flex/../../../core/lv_obj_style_gen.h ****     lv_style_value_t v = lv_obj_get_style_prop(obj, part, LV_STYLE_TEXT_ALIGN);
 490:lvgl/src/extra/layouts/grid/../flex/../../../core/lv_obj_style_gen.h ****     return (lv_text_align_t)v.num;
 491:lvgl/src/extra/layouts/grid/../flex/../../../core/lv_obj_style_gen.h **** }
 492:lvgl/src/extra/layouts/grid/../flex/../../../core/lv_obj_style_gen.h **** 
 493:lvgl/src/extra/layouts/grid/../flex/../../../core/lv_obj_style_gen.h **** static inline lv_coord_t lv_obj_get_style_radius(const struct _lv_obj_t * obj, uint32_t part)
 494:lvgl/src/extra/layouts/grid/../flex/../../../core/lv_obj_style_gen.h **** {
 495:lvgl/src/extra/layouts/grid/../flex/../../../core/lv_obj_style_gen.h ****     lv_style_value_t v = lv_obj_get_style_prop(obj, part, LV_STYLE_RADIUS);
 496:lvgl/src/extra/layouts/grid/../flex/../../../core/lv_obj_style_gen.h ****     return (lv_coord_t)v.num;
 497:lvgl/src/extra/layouts/grid/../flex/../../../core/lv_obj_style_gen.h **** }
 498:lvgl/src/extra/layouts/grid/../flex/../../../core/lv_obj_style_gen.h **** 
 499:lvgl/src/extra/layouts/grid/../flex/../../../core/lv_obj_style_gen.h **** static inline bool lv_obj_get_style_clip_corner(const struct _lv_obj_t * obj, uint32_t part)
 500:lvgl/src/extra/layouts/grid/../flex/../../../core/lv_obj_style_gen.h **** {
 501:lvgl/src/extra/layouts/grid/../flex/../../../core/lv_obj_style_gen.h ****     lv_style_value_t v = lv_obj_get_style_prop(obj, part, LV_STYLE_CLIP_CORNER);
 502:lvgl/src/extra/layouts/grid/../flex/../../../core/lv_obj_style_gen.h ****     return (bool)v.num;
 503:lvgl/src/extra/layouts/grid/../flex/../../../core/lv_obj_style_gen.h **** }
 504:lvgl/src/extra/layouts/grid/../flex/../../../core/lv_obj_style_gen.h **** 
 505:lvgl/src/extra/layouts/grid/../flex/../../../core/lv_obj_style_gen.h **** static inline lv_opa_t lv_obj_get_style_opa(const struct _lv_obj_t * obj, uint32_t part)
 506:lvgl/src/extra/layouts/grid/../flex/../../../core/lv_obj_style_gen.h **** {
 507:lvgl/src/extra/layouts/grid/../flex/../../../core/lv_obj_style_gen.h ****     lv_style_value_t v = lv_obj_get_style_prop(obj, part, LV_STYLE_OPA);
 508:lvgl/src/extra/layouts/grid/../flex/../../../core/lv_obj_style_gen.h ****     return (lv_opa_t)v.num;
 509:lvgl/src/extra/layouts/grid/../flex/../../../core/lv_obj_style_gen.h **** }
 510:lvgl/src/extra/layouts/grid/../flex/../../../core/lv_obj_style_gen.h **** 
 511:lvgl/src/extra/layouts/grid/../flex/../../../core/lv_obj_style_gen.h **** static inline lv_opa_t lv_obj_get_style_opa_layered(const struct _lv_obj_t * obj, uint32_t part)
 512:lvgl/src/extra/layouts/grid/../flex/../../../core/lv_obj_style_gen.h **** {
 513:lvgl/src/extra/layouts/grid/../flex/../../../core/lv_obj_style_gen.h ****     lv_style_value_t v = lv_obj_get_style_prop(obj, part, LV_STYLE_OPA_LAYERED);
 514:lvgl/src/extra/layouts/grid/../flex/../../../core/lv_obj_style_gen.h ****     return (lv_opa_t)v.num;
 515:lvgl/src/extra/layouts/grid/../flex/../../../core/lv_obj_style_gen.h **** }
 516:lvgl/src/extra/layouts/grid/../flex/../../../core/lv_obj_style_gen.h **** 
 517:lvgl/src/extra/layouts/grid/../flex/../../../core/lv_obj_style_gen.h **** static inline const lv_color_filter_dsc_t * lv_obj_get_style_color_filter_dsc(const struct _lv_obj_
 518:lvgl/src/extra/layouts/grid/../flex/../../../core/lv_obj_style_gen.h **** {
 519:lvgl/src/extra/layouts/grid/../flex/../../../core/lv_obj_style_gen.h ****     lv_style_value_t v = lv_obj_get_style_prop(obj, part, LV_STYLE_COLOR_FILTER_DSC);
 520:lvgl/src/extra/layouts/grid/../flex/../../../core/lv_obj_style_gen.h ****     return (const lv_color_filter_dsc_t *)v.ptr;
 521:lvgl/src/extra/layouts/grid/../flex/../../../core/lv_obj_style_gen.h **** }
 522:lvgl/src/extra/layouts/grid/../flex/../../../core/lv_obj_style_gen.h **** 
 523:lvgl/src/extra/layouts/grid/../flex/../../../core/lv_obj_style_gen.h **** static inline lv_opa_t lv_obj_get_style_color_filter_opa(const struct _lv_obj_t * obj, uint32_t par
 524:lvgl/src/extra/layouts/grid/../flex/../../../core/lv_obj_style_gen.h **** {
 525:lvgl/src/extra/layouts/grid/../flex/../../../core/lv_obj_style_gen.h ****     lv_style_value_t v = lv_obj_get_style_prop(obj, part, LV_STYLE_COLOR_FILTER_OPA);
 526:lvgl/src/extra/layouts/grid/../flex/../../../core/lv_obj_style_gen.h ****     return (lv_opa_t)v.num;
 527:lvgl/src/extra/layouts/grid/../flex/../../../core/lv_obj_style_gen.h **** }
 528:lvgl/src/extra/layouts/grid/../flex/../../../core/lv_obj_style_gen.h **** 
 529:lvgl/src/extra/layouts/grid/../flex/../../../core/lv_obj_style_gen.h **** static inline const lv_anim_t * lv_obj_get_style_anim(const struct _lv_obj_t * obj, uint32_t part)
 530:lvgl/src/extra/layouts/grid/../flex/../../../core/lv_obj_style_gen.h **** {
 531:lvgl/src/extra/layouts/grid/../flex/../../../core/lv_obj_style_gen.h ****     lv_style_value_t v = lv_obj_get_style_prop(obj, part, LV_STYLE_ANIM);
 532:lvgl/src/extra/layouts/grid/../flex/../../../core/lv_obj_style_gen.h ****     return (const lv_anim_t *)v.ptr;
 533:lvgl/src/extra/layouts/grid/../flex/../../../core/lv_obj_style_gen.h **** }
 534:lvgl/src/extra/layouts/grid/../flex/../../../core/lv_obj_style_gen.h **** 
 535:lvgl/src/extra/layouts/grid/../flex/../../../core/lv_obj_style_gen.h **** static inline uint32_t lv_obj_get_style_anim_time(const struct _lv_obj_t * obj, uint32_t part)
 536:lvgl/src/extra/layouts/grid/../flex/../../../core/lv_obj_style_gen.h **** {
 537:lvgl/src/extra/layouts/grid/../flex/../../../core/lv_obj_style_gen.h ****     lv_style_value_t v = lv_obj_get_style_prop(obj, part, LV_STYLE_ANIM_TIME);
 538:lvgl/src/extra/layouts/grid/../flex/../../../core/lv_obj_style_gen.h ****     return (uint32_t)v.num;
 539:lvgl/src/extra/layouts/grid/../flex/../../../core/lv_obj_style_gen.h **** }
 540:lvgl/src/extra/layouts/grid/../flex/../../../core/lv_obj_style_gen.h **** 
 541:lvgl/src/extra/layouts/grid/../flex/../../../core/lv_obj_style_gen.h **** static inline uint32_t lv_obj_get_style_anim_speed(const struct _lv_obj_t * obj, uint32_t part)
 542:lvgl/src/extra/layouts/grid/../flex/../../../core/lv_obj_style_gen.h **** {
ARM GAS  /var/folders/21/t9g5rlb91ys800n5npymflf80000gn/T//cce6JCY2.s 			page 67


 543:lvgl/src/extra/layouts/grid/../flex/../../../core/lv_obj_style_gen.h ****     lv_style_value_t v = lv_obj_get_style_prop(obj, part, LV_STYLE_ANIM_SPEED);
 544:lvgl/src/extra/layouts/grid/../flex/../../../core/lv_obj_style_gen.h ****     return (uint32_t)v.num;
 545:lvgl/src/extra/layouts/grid/../flex/../../../core/lv_obj_style_gen.h **** }
 546:lvgl/src/extra/layouts/grid/../flex/../../../core/lv_obj_style_gen.h **** 
 547:lvgl/src/extra/layouts/grid/../flex/../../../core/lv_obj_style_gen.h **** static inline const lv_style_transition_dsc_t * lv_obj_get_style_transition(const struct _lv_obj_t 
 548:lvgl/src/extra/layouts/grid/../flex/../../../core/lv_obj_style_gen.h **** {
 549:lvgl/src/extra/layouts/grid/../flex/../../../core/lv_obj_style_gen.h ****     lv_style_value_t v = lv_obj_get_style_prop(obj, part, LV_STYLE_TRANSITION);
 550:lvgl/src/extra/layouts/grid/../flex/../../../core/lv_obj_style_gen.h ****     return (const lv_style_transition_dsc_t *)v.ptr;
 551:lvgl/src/extra/layouts/grid/../flex/../../../core/lv_obj_style_gen.h **** }
 552:lvgl/src/extra/layouts/grid/../flex/../../../core/lv_obj_style_gen.h **** 
 553:lvgl/src/extra/layouts/grid/../flex/../../../core/lv_obj_style_gen.h **** static inline lv_blend_mode_t lv_obj_get_style_blend_mode(const struct _lv_obj_t * obj, uint32_t pa
 554:lvgl/src/extra/layouts/grid/../flex/../../../core/lv_obj_style_gen.h **** {
 555:lvgl/src/extra/layouts/grid/../flex/../../../core/lv_obj_style_gen.h ****     lv_style_value_t v = lv_obj_get_style_prop(obj, part, LV_STYLE_BLEND_MODE);
 556:lvgl/src/extra/layouts/grid/../flex/../../../core/lv_obj_style_gen.h ****     return (lv_blend_mode_t)v.num;
 557:lvgl/src/extra/layouts/grid/../flex/../../../core/lv_obj_style_gen.h **** }
 558:lvgl/src/extra/layouts/grid/../flex/../../../core/lv_obj_style_gen.h **** 
 559:lvgl/src/extra/layouts/grid/../flex/../../../core/lv_obj_style_gen.h **** static inline uint16_t lv_obj_get_style_layout(const struct _lv_obj_t * obj, uint32_t part)
 560:lvgl/src/extra/layouts/grid/../flex/../../../core/lv_obj_style_gen.h **** {
 561:lvgl/src/extra/layouts/grid/../flex/../../../core/lv_obj_style_gen.h ****     lv_style_value_t v = lv_obj_get_style_prop(obj, part, LV_STYLE_LAYOUT);
 562:lvgl/src/extra/layouts/grid/../flex/../../../core/lv_obj_style_gen.h ****     return (uint16_t)v.num;
 563:lvgl/src/extra/layouts/grid/../flex/../../../core/lv_obj_style_gen.h **** }
 564:lvgl/src/extra/layouts/grid/../flex/../../../core/lv_obj_style_gen.h **** 
 565:lvgl/src/extra/layouts/grid/../flex/../../../core/lv_obj_style_gen.h **** static inline lv_base_dir_t lv_obj_get_style_base_dir(const struct _lv_obj_t * obj, uint32_t part)
 1824              		.loc 3 565 29 view .LVU558
 1825              	.LBB121:
 566:lvgl/src/extra/layouts/grid/../flex/../../../core/lv_obj_style_gen.h **** {
 567:lvgl/src/extra/layouts/grid/../flex/../../../core/lv_obj_style_gen.h ****     lv_style_value_t v = lv_obj_get_style_prop(obj, part, LV_STYLE_BASE_DIR);
 1826              		.loc 3 567 5 view .LVU559
 1827              		.loc 3 567 26 is_stmt 0 view .LVU560
 1828 003e 1622     		movs	r2, #22
 1829 0040 0021     		movs	r1, #0
 1830 0042 2046     		mov	r0, r4
 1831 0044 FFF7FEFF 		bl	lv_obj_get_style_prop
 1832              	.LVL218:
 568:lvgl/src/extra/layouts/grid/../flex/../../../core/lv_obj_style_gen.h ****     return (lv_base_dir_t)v.num;
 1833              		.loc 3 568 5 is_stmt 1 view .LVU561
 1834              		.loc 3 568 12 is_stmt 0 view .LVU562
 1835 0048 C6B2     		uxtb	r6, r0
 1836              	.LVL219:
 1837              		.loc 3 568 12 view .LVU563
 1838              	.LBE121:
 1839              	.LBE120:
 397:lvgl/src/extra/layouts/grid/lv_grid.c **** 
 1840              		.loc 1 397 10 view .LVU564
 1841 004a 012E     		cmp	r6, #1
 1842 004c 14BF     		ite	ne
 1843 004e 0026     		movne	r6, #0
 1844 0050 0126     		moveq	r6, #1
 1845              	.LVL220:
 399:lvgl/src/extra/layouts/grid/lv_grid.c ****     lv_coord_t h_set = lv_obj_get_style_height(cont, LV_PART_MAIN);
 1846              		.loc 1 399 5 is_stmt 1 view .LVU565
 1847              	.LBB122:
 1848              	.LBI122:
   1:lvgl/src/extra/layouts/grid/../flex/../../../core/lv_obj_style_gen.h **** {
 1849              		.loc 3 1 26 view .LVU566
 1850              	.LBB123:
   3:lvgl/src/extra/layouts/grid/../flex/../../../core/lv_obj_style_gen.h ****     return (lv_coord_t)v.num;
ARM GAS  /var/folders/21/t9g5rlb91ys800n5npymflf80000gn/T//cce6JCY2.s 			page 68


 1851              		.loc 3 3 5 view .LVU567
   3:lvgl/src/extra/layouts/grid/../flex/../../../core/lv_obj_style_gen.h ****     return (lv_coord_t)v.num;
 1852              		.loc 3 3 26 is_stmt 0 view .LVU568
 1853 0052 0122     		movs	r2, #1
 1854 0054 0021     		movs	r1, #0
 1855 0056 2046     		mov	r0, r4
 1856 0058 FFF7FEFF 		bl	lv_obj_get_style_prop
 1857              	.LVL221:
   4:lvgl/src/extra/layouts/grid/../flex/../../../core/lv_obj_style_gen.h **** }
 1858              		.loc 3 4 5 is_stmt 1 view .LVU569
   4:lvgl/src/extra/layouts/grid/../flex/../../../core/lv_obj_style_gen.h **** }
 1859              		.loc 3 4 12 is_stmt 0 view .LVU570
 1860 005c 0FFA80F9 		sxth	r9, r0
 1861              	.LVL222:
   4:lvgl/src/extra/layouts/grid/../flex/../../../core/lv_obj_style_gen.h **** }
 1862              		.loc 3 4 12 view .LVU571
 1863              	.LBE123:
 1864              	.LBE122:
 400:lvgl/src/extra/layouts/grid/lv_grid.c ****     bool auto_w = (w_set == LV_SIZE_CONTENT && !cont->w_layout) ? true : false;
 1865              		.loc 1 400 5 is_stmt 1 view .LVU572
 1866              	.LBB124:
 1867              	.LBI124:
  19:lvgl/src/extra/layouts/grid/../flex/../../../core/lv_obj_style_gen.h **** {
 1868              		.loc 3 19 26 view .LVU573
 1869              	.LBB125:
  21:lvgl/src/extra/layouts/grid/../flex/../../../core/lv_obj_style_gen.h ****     return (lv_coord_t)v.num;
 1870              		.loc 3 21 5 view .LVU574
  21:lvgl/src/extra/layouts/grid/../flex/../../../core/lv_obj_style_gen.h ****     return (lv_coord_t)v.num;
 1871              		.loc 3 21 26 is_stmt 0 view .LVU575
 1872 0060 0422     		movs	r2, #4
 1873 0062 0021     		movs	r1, #0
 1874 0064 2046     		mov	r0, r4
 1875 0066 FFF7FEFF 		bl	lv_obj_get_style_prop
 1876              	.LVL223:
  22:lvgl/src/extra/layouts/grid/../flex/../../../core/lv_obj_style_gen.h **** }
 1877              		.loc 3 22 5 is_stmt 1 view .LVU576
  22:lvgl/src/extra/layouts/grid/../flex/../../../core/lv_obj_style_gen.h **** }
 1878              		.loc 3 22 12 is_stmt 0 view .LVU577
 1879 006a 0FFA80F8 		sxth	r8, r0
 1880              	.LVL224:
  22:lvgl/src/extra/layouts/grid/../flex/../../../core/lv_obj_style_gen.h **** }
 1881              		.loc 3 22 12 view .LVU578
 1882              	.LBE125:
 1883              	.LBE124:
 401:lvgl/src/extra/layouts/grid/lv_grid.c ****     lv_coord_t cont_w = lv_obj_get_content_width(cont);
 1884              		.loc 1 401 5 is_stmt 1 view .LVU579
 401:lvgl/src/extra/layouts/grid/lv_grid.c ****     lv_coord_t cont_w = lv_obj_get_content_width(cont);
 1885              		.loc 1 401 72 is_stmt 0 view .LVU580
 1886 006e 42F2D173 		movw	r3, #10193
 1887 0072 9945     		cmp	r9, r3
 1888 0074 3AD0     		beq	.L136
 1889 0076 4FF0000B 		mov	fp, #0
 1890              	.L128:
 1891              	.LVL225:
 402:lvgl/src/extra/layouts/grid/lv_grid.c ****     calc_out->grid_w = grid_align(cont_w, auto_w, get_grid_col_align(cont), col_gap, calc_out->col_
 1892              		.loc 1 402 5 is_stmt 1 discriminator 6 view .LVU581
 402:lvgl/src/extra/layouts/grid/lv_grid.c ****     calc_out->grid_w = grid_align(cont_w, auto_w, get_grid_col_align(cont), col_gap, calc_out->col_
ARM GAS  /var/folders/21/t9g5rlb91ys800n5npymflf80000gn/T//cce6JCY2.s 			page 69


 1893              		.loc 1 402 25 is_stmt 0 discriminator 6 view .LVU582
 1894 007a 2046     		mov	r0, r4
 1895 007c FFF7FEFF 		bl	lv_obj_get_content_width
 1896              	.LVL226:
 1897 0080 8146     		mov	r9, r0
 1898              	.LVL227:
 403:lvgl/src/extra/layouts/grid/lv_grid.c ****                                   calc_out->x, rev);
 1899              		.loc 1 403 5 is_stmt 1 discriminator 6 view .LVU583
 403:lvgl/src/extra/layouts/grid/lv_grid.c ****                                   calc_out->x, rev);
 1900              		.loc 1 403 24 is_stmt 0 discriminator 6 view .LVU584
 1901 0082 2046     		mov	r0, r4
 1902 0084 FFF7FEFF 		bl	get_grid_col_align
 1903              	.LVL228:
 1904 0088 0246     		mov	r2, r0
 1905 008a 0396     		str	r6, [sp, #12]
 1906 008c 2B68     		ldr	r3, [r5]
 1907 008e 0293     		str	r3, [sp, #8]
 1908 0090 AB68     		ldr	r3, [r5, #8]
 1909 0092 0193     		str	r3, [sp, #4]
 1910 0094 2B69     		ldr	r3, [r5, #16]
 1911 0096 0093     		str	r3, [sp]
 1912 0098 5346     		mov	r3, r10
 1913 009a 5946     		mov	r1, fp
 1914 009c 4846     		mov	r0, r9
 1915 009e FFF7FEFF 		bl	grid_align
 1916              	.LVL229:
 403:lvgl/src/extra/layouts/grid/lv_grid.c ****                                   calc_out->x, rev);
 1917              		.loc 1 403 22 discriminator 6 view .LVU585
 1918 00a2 2883     		strh	r0, [r5, #24]	@ movhi
 406:lvgl/src/extra/layouts/grid/lv_grid.c ****     lv_coord_t cont_h = lv_obj_get_content_height(cont);
 1919              		.loc 1 406 5 is_stmt 1 discriminator 6 view .LVU586
 406:lvgl/src/extra/layouts/grid/lv_grid.c ****     lv_coord_t cont_h = lv_obj_get_content_height(cont);
 1920              		.loc 1 406 72 is_stmt 0 discriminator 6 view .LVU587
 1921 00a4 42F2D173 		movw	r3, #10193
 1922 00a8 9845     		cmp	r8, r3
 1923 00aa 2AD0     		beq	.L137
 406:lvgl/src/extra/layouts/grid/lv_grid.c ****     lv_coord_t cont_h = lv_obj_get_content_height(cont);
 1924              		.loc 1 406 72 view .LVU588
 1925 00ac 4FF00008 		mov	r8, #0
 1926              	.LVL230:
 1927              	.L129:
 407:lvgl/src/extra/layouts/grid/lv_grid.c ****     calc_out->grid_h = grid_align(cont_h, auto_h, get_grid_row_align(cont), row_gap, calc_out->row_
 1928              		.loc 1 407 5 is_stmt 1 discriminator 6 view .LVU589
 407:lvgl/src/extra/layouts/grid/lv_grid.c ****     calc_out->grid_h = grid_align(cont_h, auto_h, get_grid_row_align(cont), row_gap, calc_out->row_
 1929              		.loc 1 407 25 is_stmt 0 discriminator 6 view .LVU590
 1930 00b0 2046     		mov	r0, r4
 1931 00b2 FFF7FEFF 		bl	lv_obj_get_content_height
 1932              	.LVL231:
 1933 00b6 0646     		mov	r6, r0
 1934              	.LVL232:
 408:lvgl/src/extra/layouts/grid/lv_grid.c ****                                   calc_out->y, false);
 1935              		.loc 1 408 5 is_stmt 1 discriminator 6 view .LVU591
 408:lvgl/src/extra/layouts/grid/lv_grid.c ****                                   calc_out->y, false);
 1936              		.loc 1 408 24 is_stmt 0 discriminator 6 view .LVU592
 1937 00b8 2046     		mov	r0, r4
 1938 00ba FFF7FEFF 		bl	get_grid_row_align
 1939              	.LVL233:
ARM GAS  /var/folders/21/t9g5rlb91ys800n5npymflf80000gn/T//cce6JCY2.s 			page 70


 1940 00be 0246     		mov	r2, r0
 1941 00c0 0023     		movs	r3, #0
 1942 00c2 0393     		str	r3, [sp, #12]
 1943 00c4 6B68     		ldr	r3, [r5, #4]
 1944 00c6 0293     		str	r3, [sp, #8]
 1945 00c8 EB68     		ldr	r3, [r5, #12]
 1946 00ca 0193     		str	r3, [sp, #4]
 1947 00cc 6B69     		ldr	r3, [r5, #20]
 1948 00ce 0093     		str	r3, [sp]
 1949 00d0 3B46     		mov	r3, r7
 1950 00d2 4146     		mov	r1, r8
 1951 00d4 3046     		mov	r0, r6
 1952 00d6 FFF7FEFF 		bl	grid_align
 1953              	.LVL234:
 408:lvgl/src/extra/layouts/grid/lv_grid.c ****                                   calc_out->y, false);
 1954              		.loc 1 408 22 discriminator 6 view .LVU593
 1955 00da 6883     		strh	r0, [r5, #26]	@ movhi
 411:lvgl/src/extra/layouts/grid/lv_grid.c **** }
 1956              		.loc 1 411 30 is_stmt 1 discriminator 6 view .LVU594
 1957              	.LVL235:
 1958              	.L125:
 412:lvgl/src/extra/layouts/grid/lv_grid.c **** 
 1959              		.loc 1 412 1 is_stmt 0 view .LVU595
 1960 00dc 05B0     		add	sp, sp, #20
 1961              	.LCFI17:
 1962              		.cfi_remember_state
 1963              		.cfi_def_cfa_offset 36
 1964              		@ sp needed
 1965 00de BDE8F08F 		pop	{r4, r5, r6, r7, r8, r9, r10, fp, pc}
 1966              	.LVL236:
 1967              	.L135:
 1968              	.LCFI18:
 1969              		.cfi_restore_state
 387:lvgl/src/extra/layouts/grid/lv_grid.c ****         return;
 1970              		.loc 1 387 9 is_stmt 1 view .LVU596
 1971 00e2 1C21     		movs	r1, #28
 1972 00e4 2846     		mov	r0, r5
 1973 00e6 FFF7FEFF 		bl	lv_memset_00
 1974              	.LVL237:
 388:lvgl/src/extra/layouts/grid/lv_grid.c ****     }
 1975              		.loc 1 388 9 view .LVU597
 1976 00ea F7E7     		b	.L125
 1977              	.LVL238:
 1978              	.L136:
 401:lvgl/src/extra/layouts/grid/lv_grid.c ****     lv_coord_t cont_w = lv_obj_get_content_width(cont);
 1979              		.loc 1 401 48 is_stmt 0 discriminator 1 view .LVU598
 1980 00ec 94F82330 		ldrb	r3, [r4, #35]	@ zero_extendqisi2
 401:lvgl/src/extra/layouts/grid/lv_grid.c ****     lv_coord_t cont_w = lv_obj_get_content_width(cont);
 1981              		.loc 1 401 72 discriminator 1 view .LVU599
 1982 00f0 13F0080F 		tst	r3, #8
 1983 00f4 02D0     		beq	.L131
 401:lvgl/src/extra/layouts/grid/lv_grid.c ****     lv_coord_t cont_w = lv_obj_get_content_width(cont);
 1984              		.loc 1 401 72 view .LVU600
 1985 00f6 4FF0000B 		mov	fp, #0
 1986 00fa BEE7     		b	.L128
 1987              	.L131:
 1988 00fc 4FF0010B 		mov	fp, #1
ARM GAS  /var/folders/21/t9g5rlb91ys800n5npymflf80000gn/T//cce6JCY2.s 			page 71


 1989 0100 BBE7     		b	.L128
 1990              	.LVL239:
 1991              	.L137:
 406:lvgl/src/extra/layouts/grid/lv_grid.c ****     lv_coord_t cont_h = lv_obj_get_content_height(cont);
 1992              		.loc 1 406 48 discriminator 1 view .LVU601
 1993 0102 94F82330 		ldrb	r3, [r4, #35]	@ zero_extendqisi2
 406:lvgl/src/extra/layouts/grid/lv_grid.c ****     lv_coord_t cont_h = lv_obj_get_content_height(cont);
 1994              		.loc 1 406 72 discriminator 1 view .LVU602
 1995 0106 13F0040F 		tst	r3, #4
 1996 010a 02D0     		beq	.L133
 406:lvgl/src/extra/layouts/grid/lv_grid.c ****     lv_coord_t cont_h = lv_obj_get_content_height(cont);
 1997              		.loc 1 406 72 view .LVU603
 1998 010c 4FF00008 		mov	r8, #0
 1999              	.LVL240:
 406:lvgl/src/extra/layouts/grid/lv_grid.c ****     lv_coord_t cont_h = lv_obj_get_content_height(cont);
 2000              		.loc 1 406 72 view .LVU604
 2001 0110 CEE7     		b	.L129
 2002              	.LVL241:
 2003              	.L133:
 406:lvgl/src/extra/layouts/grid/lv_grid.c ****     lv_coord_t cont_h = lv_obj_get_content_height(cont);
 2004              		.loc 1 406 72 view .LVU605
 2005 0112 4FF00108 		mov	r8, #1
 2006              	.LVL242:
 406:lvgl/src/extra/layouts/grid/lv_grid.c ****     lv_coord_t cont_h = lv_obj_get_content_height(cont);
 2007              		.loc 1 406 72 view .LVU606
 2008 0116 CBE7     		b	.L129
 2009              		.cfi_endproc
 2010              	.LFE212:
 2012              		.section	.text.item_repos,"ax",%progbits
 2013              		.align	1
 2014              		.syntax unified
 2015              		.thumb
 2016              		.thumb_func
 2018              	item_repos:
 2019              	.LVL243:
 2020              	.LFB216:
 575:lvgl/src/extra/layouts/grid/lv_grid.c ****     if(lv_obj_has_flag_any(item, LV_OBJ_FLAG_IGNORE_LAYOUT | LV_OBJ_FLAG_HIDDEN | LV_OBJ_FLAG_FLOAT
 2021              		.loc 1 575 1 is_stmt 1 view -0
 2022              		.cfi_startproc
 2023              		@ args = 0, pretend = 0, frame = 32
 2024              		@ frame_needed = 0, uses_anonymous_args = 0
 575:lvgl/src/extra/layouts/grid/lv_grid.c ****     if(lv_obj_has_flag_any(item, LV_OBJ_FLAG_IGNORE_LAYOUT | LV_OBJ_FLAG_HIDDEN | LV_OBJ_FLAG_FLOAT
 2025              		.loc 1 575 1 is_stmt 0 view .LVU608
 2026 0000 2DE9F04F 		push	{r4, r5, r6, r7, r8, r9, r10, fp, lr}
 2027              	.LCFI19:
 2028              		.cfi_def_cfa_offset 36
 2029              		.cfi_offset 4, -36
 2030              		.cfi_offset 5, -32
 2031              		.cfi_offset 6, -28
 2032              		.cfi_offset 7, -24
 2033              		.cfi_offset 8, -20
 2034              		.cfi_offset 9, -16
 2035              		.cfi_offset 10, -12
 2036              		.cfi_offset 11, -8
 2037              		.cfi_offset 14, -4
 2038 0004 89B0     		sub	sp, sp, #36
 2039              	.LCFI20:
ARM GAS  /var/folders/21/t9g5rlb91ys800n5npymflf80000gn/T//cce6JCY2.s 			page 72


 2040              		.cfi_def_cfa_offset 72
 2041 0006 0446     		mov	r4, r0
 2042 0008 0D46     		mov	r5, r1
 2043 000a 0192     		str	r2, [sp, #4]
 576:lvgl/src/extra/layouts/grid/lv_grid.c ****     uint32_t col_span = get_col_span(item);
 2044              		.loc 1 576 5 is_stmt 1 view .LVU609
 576:lvgl/src/extra/layouts/grid/lv_grid.c ****     uint32_t col_span = get_col_span(item);
 2045              		.loc 1 576 8 is_stmt 0 view .LVU610
 2046 000c C249     		ldr	r1, .L166
 2047              	.LVL244:
 576:lvgl/src/extra/layouts/grid/lv_grid.c ****     uint32_t col_span = get_col_span(item);
 2048              		.loc 1 576 8 view .LVU611
 2049 000e FFF7FEFF 		bl	lv_obj_has_flag_any
 2050              	.LVL245:
 576:lvgl/src/extra/layouts/grid/lv_grid.c ****     uint32_t col_span = get_col_span(item);
 2051              		.loc 1 576 7 view .LVU612
 2052 0012 10B1     		cbz	r0, .L161
 2053              	.LVL246:
 2054              	.L138:
 682:lvgl/src/extra/layouts/grid/lv_grid.c **** 
 2055              		.loc 1 682 1 view .LVU613
 2056 0014 09B0     		add	sp, sp, #36
 2057              	.LCFI21:
 2058              		.cfi_remember_state
 2059              		.cfi_def_cfa_offset 36
 2060              		@ sp needed
 2061 0016 BDE8F08F 		pop	{r4, r5, r6, r7, r8, r9, r10, fp, pc}
 2062              	.LVL247:
 2063              	.L161:
 2064              	.LCFI22:
 2065              		.cfi_restore_state
 577:lvgl/src/extra/layouts/grid/lv_grid.c ****     uint32_t row_span = get_row_span(item);
 2066              		.loc 1 577 5 is_stmt 1 view .LVU614
 577:lvgl/src/extra/layouts/grid/lv_grid.c ****     uint32_t row_span = get_row_span(item);
 2067              		.loc 1 577 25 is_stmt 0 view .LVU615
 2068 001a 2046     		mov	r0, r4
 2069 001c FFF7FEFF 		bl	get_col_span
 2070              	.LVL248:
 2071 0020 0646     		mov	r6, r0
 2072              	.LVL249:
 578:lvgl/src/extra/layouts/grid/lv_grid.c ****     if(row_span == 0 || col_span == 0) return;
 2073              		.loc 1 578 5 is_stmt 1 view .LVU616
 578:lvgl/src/extra/layouts/grid/lv_grid.c ****     if(row_span == 0 || col_span == 0) return;
 2074              		.loc 1 578 25 is_stmt 0 view .LVU617
 2075 0022 2046     		mov	r0, r4
 2076              	.LVL250:
 578:lvgl/src/extra/layouts/grid/lv_grid.c ****     if(row_span == 0 || col_span == 0) return;
 2077              		.loc 1 578 25 view .LVU618
 2078 0024 FFF7FEFF 		bl	get_row_span
 2079              	.LVL251:
 579:lvgl/src/extra/layouts/grid/lv_grid.c **** 
 2080              		.loc 1 579 5 is_stmt 1 view .LVU619
 579:lvgl/src/extra/layouts/grid/lv_grid.c **** 
 2081              		.loc 1 579 7 is_stmt 0 view .LVU620
 2082 0028 0746     		mov	r7, r0
 2083 002a 0028     		cmp	r0, #0
 2084 002c F2D0     		beq	.L138
ARM GAS  /var/folders/21/t9g5rlb91ys800n5npymflf80000gn/T//cce6JCY2.s 			page 73


 579:lvgl/src/extra/layouts/grid/lv_grid.c **** 
 2085              		.loc 1 579 22 discriminator 2 view .LVU621
 2086 002e 002E     		cmp	r6, #0
 2087 0030 F0D0     		beq	.L138
 581:lvgl/src/extra/layouts/grid/lv_grid.c ****     uint32_t row_pos = get_row_pos(item);
 2088              		.loc 1 581 5 is_stmt 1 view .LVU622
 581:lvgl/src/extra/layouts/grid/lv_grid.c ****     uint32_t row_pos = get_row_pos(item);
 2089              		.loc 1 581 24 is_stmt 0 view .LVU623
 2090 0032 2046     		mov	r0, r4
 2091              	.LVL252:
 581:lvgl/src/extra/layouts/grid/lv_grid.c ****     uint32_t row_pos = get_row_pos(item);
 2092              		.loc 1 581 24 view .LVU624
 2093 0034 FFF7FEFF 		bl	get_col_pos
 2094              	.LVL253:
 2095 0038 8346     		mov	fp, r0
 2096              	.LVL254:
 582:lvgl/src/extra/layouts/grid/lv_grid.c ****     lv_grid_align_t col_align = get_cell_col_align(item);
 2097              		.loc 1 582 5 is_stmt 1 view .LVU625
 582:lvgl/src/extra/layouts/grid/lv_grid.c ****     lv_grid_align_t col_align = get_cell_col_align(item);
 2098              		.loc 1 582 24 is_stmt 0 view .LVU626
 2099 003a 2046     		mov	r0, r4
 2100              	.LVL255:
 582:lvgl/src/extra/layouts/grid/lv_grid.c ****     lv_grid_align_t col_align = get_cell_col_align(item);
 2101              		.loc 1 582 24 view .LVU627
 2102 003c FFF7FEFF 		bl	get_row_pos
 2103              	.LVL256:
 2104 0040 8246     		mov	r10, r0
 2105              	.LVL257:
 583:lvgl/src/extra/layouts/grid/lv_grid.c ****     lv_grid_align_t row_align = get_cell_row_align(item);
 2106              		.loc 1 583 5 is_stmt 1 view .LVU628
 583:lvgl/src/extra/layouts/grid/lv_grid.c ****     lv_grid_align_t row_align = get_cell_row_align(item);
 2107              		.loc 1 583 33 is_stmt 0 view .LVU629
 2108 0042 2046     		mov	r0, r4
 2109              	.LVL258:
 583:lvgl/src/extra/layouts/grid/lv_grid.c ****     lv_grid_align_t row_align = get_cell_row_align(item);
 2110              		.loc 1 583 33 view .LVU630
 2111 0044 FFF7FEFF 		bl	get_cell_col_align
 2112              	.LVL259:
 2113 0048 8046     		mov	r8, r0
 2114              	.LVL260:
 584:lvgl/src/extra/layouts/grid/lv_grid.c **** 
 2115              		.loc 1 584 5 is_stmt 1 view .LVU631
 584:lvgl/src/extra/layouts/grid/lv_grid.c **** 
 2116              		.loc 1 584 33 is_stmt 0 view .LVU632
 2117 004a 2046     		mov	r0, r4
 2118 004c FFF7FEFF 		bl	get_cell_row_align
 2119              	.LVL261:
 2120 0050 8146     		mov	r9, r0
 2121              	.LVL262:
 586:lvgl/src/extra/layouts/grid/lv_grid.c ****     lv_coord_t col_x2 = c->x[col_pos + col_span - 1] + c->w[col_pos + col_span - 1];
 2122              		.loc 1 586 5 is_stmt 1 view .LVU633
 586:lvgl/src/extra/layouts/grid/lv_grid.c ****     lv_coord_t col_x2 = c->x[col_pos + col_span - 1] + c->w[col_pos + col_span - 1];
 2123              		.loc 1 586 26 is_stmt 0 view .LVU634
 2124 0052 2B68     		ldr	r3, [r5]
 586:lvgl/src/extra/layouts/grid/lv_grid.c ****     lv_coord_t col_x2 = c->x[col_pos + col_span - 1] + c->w[col_pos + col_span - 1];
 2125              		.loc 1 586 16 view .LVU635
 2126 0054 33F91B20 		ldrsh	r2, [r3, fp, lsl #1]
ARM GAS  /var/folders/21/t9g5rlb91ys800n5npymflf80000gn/T//cce6JCY2.s 			page 74


 2127              	.LVL263:
 587:lvgl/src/extra/layouts/grid/lv_grid.c ****     lv_coord_t col_w = col_x2 - col_x1;
 2128              		.loc 1 587 5 is_stmt 1 view .LVU636
 587:lvgl/src/extra/layouts/grid/lv_grid.c ****     lv_coord_t col_w = col_x2 - col_x1;
 2129              		.loc 1 587 38 is_stmt 0 view .LVU637
 2130 0058 5E44     		add	r6, r6, fp
 2131              	.LVL264:
 587:lvgl/src/extra/layouts/grid/lv_grid.c ****     lv_coord_t col_w = col_x2 - col_x1;
 2132              		.loc 1 587 29 view .LVU638
 2133 005a 6FF00041 		mvn	r1, #-2147483648
 2134 005e 0E44     		add	r6, r6, r1
 2135 0060 33F81630 		ldrh	r3, [r3, r6, lsl #1]
 2136              	.LVL265:
 587:lvgl/src/extra/layouts/grid/lv_grid.c ****     lv_coord_t col_w = col_x2 - col_x1;
 2137              		.loc 1 587 57 view .LVU639
 2138 0064 A868     		ldr	r0, [r5, #8]
 587:lvgl/src/extra/layouts/grid/lv_grid.c ****     lv_coord_t col_w = col_x2 - col_x1;
 2139              		.loc 1 587 60 view .LVU640
 2140 0066 30F81600 		ldrh	r0, [r0, r6, lsl #1]
 587:lvgl/src/extra/layouts/grid/lv_grid.c ****     lv_coord_t col_w = col_x2 - col_x1;
 2141              		.loc 1 587 54 view .LVU641
 2142 006a 0344     		add	r3, r3, r0
 2143 006c 9BB2     		uxth	r3, r3
 2144              	.LVL266:
 588:lvgl/src/extra/layouts/grid/lv_grid.c **** 
 2145              		.loc 1 588 5 is_stmt 1 view .LVU642
 588:lvgl/src/extra/layouts/grid/lv_grid.c **** 
 2146              		.loc 1 588 31 is_stmt 0 view .LVU643
 2147 006e 9B1A     		subs	r3, r3, r2
 2148              	.LVL267:
 588:lvgl/src/extra/layouts/grid/lv_grid.c **** 
 2149              		.loc 1 588 31 view .LVU644
 2150 0070 9AB2     		uxth	r2, r3
 2151 0072 0492     		str	r2, [sp, #16]
 588:lvgl/src/extra/layouts/grid/lv_grid.c **** 
 2152              		.loc 1 588 16 view .LVU645
 2153 0074 1BB2     		sxth	r3, r3
 2154 0076 0293     		str	r3, [sp, #8]
 2155              	.LVL268:
 590:lvgl/src/extra/layouts/grid/lv_grid.c ****     lv_coord_t row_y2 = c->y[row_pos + row_span - 1] + c->h[row_pos + row_span - 1];
 2156              		.loc 1 590 5 is_stmt 1 view .LVU646
 590:lvgl/src/extra/layouts/grid/lv_grid.c ****     lv_coord_t row_y2 = c->y[row_pos + row_span - 1] + c->h[row_pos + row_span - 1];
 2157              		.loc 1 590 26 is_stmt 0 view .LVU647
 2158 0078 6B68     		ldr	r3, [r5, #4]
 590:lvgl/src/extra/layouts/grid/lv_grid.c ****     lv_coord_t row_y2 = c->y[row_pos + row_span - 1] + c->h[row_pos + row_span - 1];
 2159              		.loc 1 590 16 view .LVU648
 2160 007a 33F91A20 		ldrsh	r2, [r3, r10, lsl #1]
 2161              	.LVL269:
 591:lvgl/src/extra/layouts/grid/lv_grid.c ****     lv_coord_t row_h = row_y2 - row_y1;
 2162              		.loc 1 591 5 is_stmt 1 view .LVU649
 591:lvgl/src/extra/layouts/grid/lv_grid.c ****     lv_coord_t row_h = row_y2 - row_y1;
 2163              		.loc 1 591 38 is_stmt 0 view .LVU650
 2164 007e 5744     		add	r7, r7, r10
 2165              	.LVL270:
 591:lvgl/src/extra/layouts/grid/lv_grid.c ****     lv_coord_t row_h = row_y2 - row_y1;
 2166              		.loc 1 591 29 view .LVU651
 2167 0080 0F44     		add	r7, r7, r1
ARM GAS  /var/folders/21/t9g5rlb91ys800n5npymflf80000gn/T//cce6JCY2.s 			page 75


 2168 0082 33F81730 		ldrh	r3, [r3, r7, lsl #1]
 2169              	.LVL271:
 591:lvgl/src/extra/layouts/grid/lv_grid.c ****     lv_coord_t row_h = row_y2 - row_y1;
 2170              		.loc 1 591 57 view .LVU652
 2171 0086 E968     		ldr	r1, [r5, #12]
 591:lvgl/src/extra/layouts/grid/lv_grid.c ****     lv_coord_t row_h = row_y2 - row_y1;
 2172              		.loc 1 591 60 view .LVU653
 2173 0088 31F81710 		ldrh	r1, [r1, r7, lsl #1]
 591:lvgl/src/extra/layouts/grid/lv_grid.c ****     lv_coord_t row_h = row_y2 - row_y1;
 2174              		.loc 1 591 54 view .LVU654
 2175 008c 0B44     		add	r3, r3, r1
 2176 008e 9BB2     		uxth	r3, r3
 2177              	.LVL272:
 592:lvgl/src/extra/layouts/grid/lv_grid.c **** 
 2178              		.loc 1 592 5 is_stmt 1 view .LVU655
 592:lvgl/src/extra/layouts/grid/lv_grid.c **** 
 2179              		.loc 1 592 31 is_stmt 0 view .LVU656
 2180 0090 9B1A     		subs	r3, r3, r2
 2181              	.LVL273:
 592:lvgl/src/extra/layouts/grid/lv_grid.c **** 
 2182              		.loc 1 592 31 view .LVU657
 2183 0092 9AB2     		uxth	r2, r3
 2184 0094 0592     		str	r2, [sp, #20]
 592:lvgl/src/extra/layouts/grid/lv_grid.c **** 
 2185              		.loc 1 592 16 view .LVU658
 2186 0096 1BB2     		sxth	r3, r3
 2187 0098 0393     		str	r3, [sp, #12]
 2188              	.LVL274:
 595:lvgl/src/extra/layouts/grid/lv_grid.c ****         if(col_align == LV_GRID_ALIGN_START) col_align = LV_GRID_ALIGN_END;
 2189              		.loc 1 595 5 is_stmt 1 view .LVU659
 2190              	.LBB126:
 2191              	.LBI126:
 565:lvgl/src/extra/layouts/grid/../flex/../../../core/lv_obj_style_gen.h **** {
 2192              		.loc 3 565 29 view .LVU660
 2193              	.LBB127:
 567:lvgl/src/extra/layouts/grid/../flex/../../../core/lv_obj_style_gen.h ****     return (lv_base_dir_t)v.num;
 2194              		.loc 3 567 5 view .LVU661
 567:lvgl/src/extra/layouts/grid/../flex/../../../core/lv_obj_style_gen.h ****     return (lv_base_dir_t)v.num;
 2195              		.loc 3 567 26 is_stmt 0 view .LVU662
 2196 009a 1622     		movs	r2, #22
 2197 009c 0021     		movs	r1, #0
 2198              	.LVL275:
 567:lvgl/src/extra/layouts/grid/../flex/../../../core/lv_obj_style_gen.h ****     return (lv_base_dir_t)v.num;
 2199              		.loc 3 567 26 view .LVU663
 2200 009e 2046     		mov	r0, r4
 2201              	.LVL276:
 567:lvgl/src/extra/layouts/grid/../flex/../../../core/lv_obj_style_gen.h ****     return (lv_base_dir_t)v.num;
 2202              		.loc 3 567 26 view .LVU664
 2203 00a0 FFF7FEFF 		bl	lv_obj_get_style_prop
 2204              	.LVL277:
 2205              		.loc 3 568 5 is_stmt 1 view .LVU665
 2206              		.loc 3 568 12 is_stmt 0 view .LVU666
 2207 00a4 C0B2     		uxtb	r0, r0
 2208              	.LVL278:
 2209              		.loc 3 568 12 view .LVU667
 2210              	.LBE127:
 2211              	.LBE126:
ARM GAS  /var/folders/21/t9g5rlb91ys800n5npymflf80000gn/T//cce6JCY2.s 			page 76


 595:lvgl/src/extra/layouts/grid/lv_grid.c ****         if(col_align == LV_GRID_ALIGN_START) col_align = LV_GRID_ALIGN_END;
 2212              		.loc 1 595 7 view .LVU668
 2213 00a6 0128     		cmp	r0, #1
 2214 00a8 00F0C080 		beq	.L162
 2215              	.LVL279:
 2216              	.L140:
 600:lvgl/src/extra/layouts/grid/lv_grid.c ****     lv_coord_t y;
 2217              		.loc 1 600 5 is_stmt 1 view .LVU669
 601:lvgl/src/extra/layouts/grid/lv_grid.c ****     lv_coord_t item_w = lv_area_get_width(&item->coords);
 2218              		.loc 1 601 5 view .LVU670
 602:lvgl/src/extra/layouts/grid/lv_grid.c ****     lv_coord_t item_h = lv_area_get_height(&item->coords);
 2219              		.loc 1 602 5 view .LVU671
 2220              	.LBB128:
 2221              	.LBI128:
 2222              		.file 4 "lvgl/src/extra/layouts/grid/../flex/../../../core/../misc/../font/../misc/lv_area.h"
   1:lvgl/src/extra/layouts/grid/../flex/../../../core/../misc/../font/../misc/lv_area.h **** /**
   2:lvgl/src/extra/layouts/grid/../flex/../../../core/../misc/../font/../misc/lv_area.h ****  * @file lv_area.h
   3:lvgl/src/extra/layouts/grid/../flex/../../../core/../misc/../font/../misc/lv_area.h ****  *
   4:lvgl/src/extra/layouts/grid/../flex/../../../core/../misc/../font/../misc/lv_area.h ****  */
   5:lvgl/src/extra/layouts/grid/../flex/../../../core/../misc/../font/../misc/lv_area.h **** 
   6:lvgl/src/extra/layouts/grid/../flex/../../../core/../misc/../font/../misc/lv_area.h **** #ifndef LV_AREA_H
   7:lvgl/src/extra/layouts/grid/../flex/../../../core/../misc/../font/../misc/lv_area.h **** #define LV_AREA_H
   8:lvgl/src/extra/layouts/grid/../flex/../../../core/../misc/../font/../misc/lv_area.h **** 
   9:lvgl/src/extra/layouts/grid/../flex/../../../core/../misc/../font/../misc/lv_area.h **** #ifdef __cplusplus
  10:lvgl/src/extra/layouts/grid/../flex/../../../core/../misc/../font/../misc/lv_area.h **** extern "C" {
  11:lvgl/src/extra/layouts/grid/../flex/../../../core/../misc/../font/../misc/lv_area.h **** #endif
  12:lvgl/src/extra/layouts/grid/../flex/../../../core/../misc/../font/../misc/lv_area.h **** 
  13:lvgl/src/extra/layouts/grid/../flex/../../../core/../misc/../font/../misc/lv_area.h **** /*********************
  14:lvgl/src/extra/layouts/grid/../flex/../../../core/../misc/../font/../misc/lv_area.h ****  *      INCLUDES
  15:lvgl/src/extra/layouts/grid/../flex/../../../core/../misc/../font/../misc/lv_area.h ****  *********************/
  16:lvgl/src/extra/layouts/grid/../flex/../../../core/../misc/../font/../misc/lv_area.h **** #include "../lv_conf_internal.h"
  17:lvgl/src/extra/layouts/grid/../flex/../../../core/../misc/../font/../misc/lv_area.h **** #include <stdbool.h>
  18:lvgl/src/extra/layouts/grid/../flex/../../../core/../misc/../font/../misc/lv_area.h **** #include <stdint.h>
  19:lvgl/src/extra/layouts/grid/../flex/../../../core/../misc/../font/../misc/lv_area.h **** 
  20:lvgl/src/extra/layouts/grid/../flex/../../../core/../misc/../font/../misc/lv_area.h **** /*********************
  21:lvgl/src/extra/layouts/grid/../flex/../../../core/../misc/../font/../misc/lv_area.h ****  *      DEFINES
  22:lvgl/src/extra/layouts/grid/../flex/../../../core/../misc/../font/../misc/lv_area.h ****  *********************/
  23:lvgl/src/extra/layouts/grid/../flex/../../../core/../misc/../font/../misc/lv_area.h **** 
  24:lvgl/src/extra/layouts/grid/../flex/../../../core/../misc/../font/../misc/lv_area.h **** #if LV_USE_LARGE_COORD
  25:lvgl/src/extra/layouts/grid/../flex/../../../core/../misc/../font/../misc/lv_area.h **** typedef int32_t lv_coord_t;
  26:lvgl/src/extra/layouts/grid/../flex/../../../core/../misc/../font/../misc/lv_area.h **** #else
  27:lvgl/src/extra/layouts/grid/../flex/../../../core/../misc/../font/../misc/lv_area.h **** typedef int16_t lv_coord_t;
  28:lvgl/src/extra/layouts/grid/../flex/../../../core/../misc/../font/../misc/lv_area.h **** #endif
  29:lvgl/src/extra/layouts/grid/../flex/../../../core/../misc/../font/../misc/lv_area.h **** 
  30:lvgl/src/extra/layouts/grid/../flex/../../../core/../misc/../font/../misc/lv_area.h **** /**********************
  31:lvgl/src/extra/layouts/grid/../flex/../../../core/../misc/../font/../misc/lv_area.h ****  *      TYPEDEFS
  32:lvgl/src/extra/layouts/grid/../flex/../../../core/../misc/../font/../misc/lv_area.h ****  **********************/
  33:lvgl/src/extra/layouts/grid/../flex/../../../core/../misc/../font/../misc/lv_area.h **** 
  34:lvgl/src/extra/layouts/grid/../flex/../../../core/../misc/../font/../misc/lv_area.h **** /**
  35:lvgl/src/extra/layouts/grid/../flex/../../../core/../misc/../font/../misc/lv_area.h ****  * Represents a point on the screen.
  36:lvgl/src/extra/layouts/grid/../flex/../../../core/../misc/../font/../misc/lv_area.h ****  */
  37:lvgl/src/extra/layouts/grid/../flex/../../../core/../misc/../font/../misc/lv_area.h **** typedef struct {
  38:lvgl/src/extra/layouts/grid/../flex/../../../core/../misc/../font/../misc/lv_area.h ****     lv_coord_t x;
  39:lvgl/src/extra/layouts/grid/../flex/../../../core/../misc/../font/../misc/lv_area.h ****     lv_coord_t y;
  40:lvgl/src/extra/layouts/grid/../flex/../../../core/../misc/../font/../misc/lv_area.h **** } lv_point_t;
  41:lvgl/src/extra/layouts/grid/../flex/../../../core/../misc/../font/../misc/lv_area.h **** 
  42:lvgl/src/extra/layouts/grid/../flex/../../../core/../misc/../font/../misc/lv_area.h **** /** Represents an area of the screen.*/
ARM GAS  /var/folders/21/t9g5rlb91ys800n5npymflf80000gn/T//cce6JCY2.s 			page 77


  43:lvgl/src/extra/layouts/grid/../flex/../../../core/../misc/../font/../misc/lv_area.h **** typedef struct {
  44:lvgl/src/extra/layouts/grid/../flex/../../../core/../misc/../font/../misc/lv_area.h ****     lv_coord_t x1;
  45:lvgl/src/extra/layouts/grid/../flex/../../../core/../misc/../font/../misc/lv_area.h ****     lv_coord_t y1;
  46:lvgl/src/extra/layouts/grid/../flex/../../../core/../misc/../font/../misc/lv_area.h ****     lv_coord_t x2;
  47:lvgl/src/extra/layouts/grid/../flex/../../../core/../misc/../font/../misc/lv_area.h ****     lv_coord_t y2;
  48:lvgl/src/extra/layouts/grid/../flex/../../../core/../misc/../font/../misc/lv_area.h **** } lv_area_t;
  49:lvgl/src/extra/layouts/grid/../flex/../../../core/../misc/../font/../misc/lv_area.h **** 
  50:lvgl/src/extra/layouts/grid/../flex/../../../core/../misc/../font/../misc/lv_area.h **** /** Alignments*/
  51:lvgl/src/extra/layouts/grid/../flex/../../../core/../misc/../font/../misc/lv_area.h **** enum {
  52:lvgl/src/extra/layouts/grid/../flex/../../../core/../misc/../font/../misc/lv_area.h ****     LV_ALIGN_DEFAULT = 0,
  53:lvgl/src/extra/layouts/grid/../flex/../../../core/../misc/../font/../misc/lv_area.h ****     LV_ALIGN_TOP_LEFT,
  54:lvgl/src/extra/layouts/grid/../flex/../../../core/../misc/../font/../misc/lv_area.h ****     LV_ALIGN_TOP_MID,
  55:lvgl/src/extra/layouts/grid/../flex/../../../core/../misc/../font/../misc/lv_area.h ****     LV_ALIGN_TOP_RIGHT,
  56:lvgl/src/extra/layouts/grid/../flex/../../../core/../misc/../font/../misc/lv_area.h ****     LV_ALIGN_BOTTOM_LEFT,
  57:lvgl/src/extra/layouts/grid/../flex/../../../core/../misc/../font/../misc/lv_area.h ****     LV_ALIGN_BOTTOM_MID,
  58:lvgl/src/extra/layouts/grid/../flex/../../../core/../misc/../font/../misc/lv_area.h ****     LV_ALIGN_BOTTOM_RIGHT,
  59:lvgl/src/extra/layouts/grid/../flex/../../../core/../misc/../font/../misc/lv_area.h ****     LV_ALIGN_LEFT_MID,
  60:lvgl/src/extra/layouts/grid/../flex/../../../core/../misc/../font/../misc/lv_area.h ****     LV_ALIGN_RIGHT_MID,
  61:lvgl/src/extra/layouts/grid/../flex/../../../core/../misc/../font/../misc/lv_area.h ****     LV_ALIGN_CENTER,
  62:lvgl/src/extra/layouts/grid/../flex/../../../core/../misc/../font/../misc/lv_area.h **** 
  63:lvgl/src/extra/layouts/grid/../flex/../../../core/../misc/../font/../misc/lv_area.h ****     LV_ALIGN_OUT_TOP_LEFT,
  64:lvgl/src/extra/layouts/grid/../flex/../../../core/../misc/../font/../misc/lv_area.h ****     LV_ALIGN_OUT_TOP_MID,
  65:lvgl/src/extra/layouts/grid/../flex/../../../core/../misc/../font/../misc/lv_area.h ****     LV_ALIGN_OUT_TOP_RIGHT,
  66:lvgl/src/extra/layouts/grid/../flex/../../../core/../misc/../font/../misc/lv_area.h ****     LV_ALIGN_OUT_BOTTOM_LEFT,
  67:lvgl/src/extra/layouts/grid/../flex/../../../core/../misc/../font/../misc/lv_area.h ****     LV_ALIGN_OUT_BOTTOM_MID,
  68:lvgl/src/extra/layouts/grid/../flex/../../../core/../misc/../font/../misc/lv_area.h ****     LV_ALIGN_OUT_BOTTOM_RIGHT,
  69:lvgl/src/extra/layouts/grid/../flex/../../../core/../misc/../font/../misc/lv_area.h ****     LV_ALIGN_OUT_LEFT_TOP,
  70:lvgl/src/extra/layouts/grid/../flex/../../../core/../misc/../font/../misc/lv_area.h ****     LV_ALIGN_OUT_LEFT_MID,
  71:lvgl/src/extra/layouts/grid/../flex/../../../core/../misc/../font/../misc/lv_area.h ****     LV_ALIGN_OUT_LEFT_BOTTOM,
  72:lvgl/src/extra/layouts/grid/../flex/../../../core/../misc/../font/../misc/lv_area.h ****     LV_ALIGN_OUT_RIGHT_TOP,
  73:lvgl/src/extra/layouts/grid/../flex/../../../core/../misc/../font/../misc/lv_area.h ****     LV_ALIGN_OUT_RIGHT_MID,
  74:lvgl/src/extra/layouts/grid/../flex/../../../core/../misc/../font/../misc/lv_area.h ****     LV_ALIGN_OUT_RIGHT_BOTTOM,
  75:lvgl/src/extra/layouts/grid/../flex/../../../core/../misc/../font/../misc/lv_area.h **** };
  76:lvgl/src/extra/layouts/grid/../flex/../../../core/../misc/../font/../misc/lv_area.h **** typedef uint8_t lv_align_t;
  77:lvgl/src/extra/layouts/grid/../flex/../../../core/../misc/../font/../misc/lv_area.h **** 
  78:lvgl/src/extra/layouts/grid/../flex/../../../core/../misc/../font/../misc/lv_area.h **** enum {
  79:lvgl/src/extra/layouts/grid/../flex/../../../core/../misc/../font/../misc/lv_area.h ****     LV_DIR_NONE     = 0x00,
  80:lvgl/src/extra/layouts/grid/../flex/../../../core/../misc/../font/../misc/lv_area.h ****     LV_DIR_LEFT     = (1 << 0),
  81:lvgl/src/extra/layouts/grid/../flex/../../../core/../misc/../font/../misc/lv_area.h ****     LV_DIR_RIGHT    = (1 << 1),
  82:lvgl/src/extra/layouts/grid/../flex/../../../core/../misc/../font/../misc/lv_area.h ****     LV_DIR_TOP      = (1 << 2),
  83:lvgl/src/extra/layouts/grid/../flex/../../../core/../misc/../font/../misc/lv_area.h ****     LV_DIR_BOTTOM   = (1 << 3),
  84:lvgl/src/extra/layouts/grid/../flex/../../../core/../misc/../font/../misc/lv_area.h ****     LV_DIR_HOR      = LV_DIR_LEFT | LV_DIR_RIGHT,
  85:lvgl/src/extra/layouts/grid/../flex/../../../core/../misc/../font/../misc/lv_area.h ****     LV_DIR_VER      = LV_DIR_TOP | LV_DIR_BOTTOM,
  86:lvgl/src/extra/layouts/grid/../flex/../../../core/../misc/../font/../misc/lv_area.h ****     LV_DIR_ALL      = LV_DIR_HOR | LV_DIR_VER,
  87:lvgl/src/extra/layouts/grid/../flex/../../../core/../misc/../font/../misc/lv_area.h **** };
  88:lvgl/src/extra/layouts/grid/../flex/../../../core/../misc/../font/../misc/lv_area.h **** 
  89:lvgl/src/extra/layouts/grid/../flex/../../../core/../misc/../font/../misc/lv_area.h **** typedef uint8_t lv_dir_t;
  90:lvgl/src/extra/layouts/grid/../flex/../../../core/../misc/../font/../misc/lv_area.h **** 
  91:lvgl/src/extra/layouts/grid/../flex/../../../core/../misc/../font/../misc/lv_area.h **** /**********************
  92:lvgl/src/extra/layouts/grid/../flex/../../../core/../misc/../font/../misc/lv_area.h ****  * GLOBAL PROTOTYPES
  93:lvgl/src/extra/layouts/grid/../flex/../../../core/../misc/../font/../misc/lv_area.h ****  **********************/
  94:lvgl/src/extra/layouts/grid/../flex/../../../core/../misc/../font/../misc/lv_area.h **** 
  95:lvgl/src/extra/layouts/grid/../flex/../../../core/../misc/../font/../misc/lv_area.h **** /**
  96:lvgl/src/extra/layouts/grid/../flex/../../../core/../misc/../font/../misc/lv_area.h ****  * Initialize an area
  97:lvgl/src/extra/layouts/grid/../flex/../../../core/../misc/../font/../misc/lv_area.h ****  * @param area_p pointer to an area
  98:lvgl/src/extra/layouts/grid/../flex/../../../core/../misc/../font/../misc/lv_area.h ****  * @param x1 left coordinate of the area
  99:lvgl/src/extra/layouts/grid/../flex/../../../core/../misc/../font/../misc/lv_area.h ****  * @param y1 top coordinate of the area
ARM GAS  /var/folders/21/t9g5rlb91ys800n5npymflf80000gn/T//cce6JCY2.s 			page 78


 100:lvgl/src/extra/layouts/grid/../flex/../../../core/../misc/../font/../misc/lv_area.h ****  * @param x2 right coordinate of the area
 101:lvgl/src/extra/layouts/grid/../flex/../../../core/../misc/../font/../misc/lv_area.h ****  * @param y2 bottom coordinate of the area
 102:lvgl/src/extra/layouts/grid/../flex/../../../core/../misc/../font/../misc/lv_area.h ****  */
 103:lvgl/src/extra/layouts/grid/../flex/../../../core/../misc/../font/../misc/lv_area.h **** void lv_area_set(lv_area_t * area_p, lv_coord_t x1, lv_coord_t y1, lv_coord_t x2, lv_coord_t y2);
 104:lvgl/src/extra/layouts/grid/../flex/../../../core/../misc/../font/../misc/lv_area.h **** 
 105:lvgl/src/extra/layouts/grid/../flex/../../../core/../misc/../font/../misc/lv_area.h **** /**
 106:lvgl/src/extra/layouts/grid/../flex/../../../core/../misc/../font/../misc/lv_area.h ****  * Copy an area
 107:lvgl/src/extra/layouts/grid/../flex/../../../core/../misc/../font/../misc/lv_area.h ****  * @param dest pointer to the destination area
 108:lvgl/src/extra/layouts/grid/../flex/../../../core/../misc/../font/../misc/lv_area.h ****  * @param src pointer to the source area
 109:lvgl/src/extra/layouts/grid/../flex/../../../core/../misc/../font/../misc/lv_area.h ****  */
 110:lvgl/src/extra/layouts/grid/../flex/../../../core/../misc/../font/../misc/lv_area.h **** inline static void lv_area_copy(lv_area_t * dest, const lv_area_t * src)
 111:lvgl/src/extra/layouts/grid/../flex/../../../core/../misc/../font/../misc/lv_area.h **** {
 112:lvgl/src/extra/layouts/grid/../flex/../../../core/../misc/../font/../misc/lv_area.h ****     dest->x1 = src->x1;
 113:lvgl/src/extra/layouts/grid/../flex/../../../core/../misc/../font/../misc/lv_area.h ****     dest->y1 = src->y1;
 114:lvgl/src/extra/layouts/grid/../flex/../../../core/../misc/../font/../misc/lv_area.h ****     dest->x2 = src->x2;
 115:lvgl/src/extra/layouts/grid/../flex/../../../core/../misc/../font/../misc/lv_area.h ****     dest->y2 = src->y2;
 116:lvgl/src/extra/layouts/grid/../flex/../../../core/../misc/../font/../misc/lv_area.h **** }
 117:lvgl/src/extra/layouts/grid/../flex/../../../core/../misc/../font/../misc/lv_area.h **** 
 118:lvgl/src/extra/layouts/grid/../flex/../../../core/../misc/../font/../misc/lv_area.h **** /**
 119:lvgl/src/extra/layouts/grid/../flex/../../../core/../misc/../font/../misc/lv_area.h ****  * Get the width of an area
 120:lvgl/src/extra/layouts/grid/../flex/../../../core/../misc/../font/../misc/lv_area.h ****  * @param area_p pointer to an area
 121:lvgl/src/extra/layouts/grid/../flex/../../../core/../misc/../font/../misc/lv_area.h ****  * @return the width of the area (if x1 == x2 -> width = 1)
 122:lvgl/src/extra/layouts/grid/../flex/../../../core/../misc/../font/../misc/lv_area.h ****  */
 123:lvgl/src/extra/layouts/grid/../flex/../../../core/../misc/../font/../misc/lv_area.h **** static inline lv_coord_t lv_area_get_width(const lv_area_t * area_p)
 2223              		.loc 4 123 26 view .LVU672
 2224              	.LBB129:
 124:lvgl/src/extra/layouts/grid/../flex/../../../core/../misc/../font/../misc/lv_area.h **** {
 125:lvgl/src/extra/layouts/grid/../flex/../../../core/../misc/../font/../misc/lv_area.h ****     return (lv_coord_t)(area_p->x2 - area_p->x1 + 1);
 2225              		.loc 4 125 5 view .LVU673
 2226              		.loc 4 125 31 is_stmt 0 view .LVU674
 2227 00ac 268B     		ldrh	r6, [r4, #24]
 2228              		.loc 4 125 44 view .LVU675
 2229 00ae A38A     		ldrh	r3, [r4, #20]
 2230              		.loc 4 125 36 view .LVU676
 2231 00b0 F61A     		subs	r6, r6, r3
 2232 00b2 B6B2     		uxth	r6, r6
 2233              		.loc 4 125 49 view .LVU677
 2234 00b4 0136     		adds	r6, r6, #1
 2235              		.loc 4 125 12 view .LVU678
 2236 00b6 36B2     		sxth	r6, r6
 2237              	.LVL280:
 2238              		.loc 4 125 12 view .LVU679
 2239              	.LBE129:
 2240              	.LBE128:
 603:lvgl/src/extra/layouts/grid/lv_grid.c **** 
 2241              		.loc 1 603 5 is_stmt 1 view .LVU680
 2242              	.LBB130:
 2243              	.LBI130:
 126:lvgl/src/extra/layouts/grid/../flex/../../../core/../misc/../font/../misc/lv_area.h **** }
 127:lvgl/src/extra/layouts/grid/../flex/../../../core/../misc/../font/../misc/lv_area.h **** 
 128:lvgl/src/extra/layouts/grid/../flex/../../../core/../misc/../font/../misc/lv_area.h **** /**
 129:lvgl/src/extra/layouts/grid/../flex/../../../core/../misc/../font/../misc/lv_area.h ****  * Get the height of an area
 130:lvgl/src/extra/layouts/grid/../flex/../../../core/../misc/../font/../misc/lv_area.h ****  * @param area_p pointer to an area
 131:lvgl/src/extra/layouts/grid/../flex/../../../core/../misc/../font/../misc/lv_area.h ****  * @return the height of the area (if y1 == y2 -> height = 1)
 132:lvgl/src/extra/layouts/grid/../flex/../../../core/../misc/../font/../misc/lv_area.h ****  */
 133:lvgl/src/extra/layouts/grid/../flex/../../../core/../misc/../font/../misc/lv_area.h **** static inline lv_coord_t lv_area_get_height(const lv_area_t * area_p)
 2244              		.loc 4 133 26 view .LVU681
ARM GAS  /var/folders/21/t9g5rlb91ys800n5npymflf80000gn/T//cce6JCY2.s 			page 79


 2245              	.LBB131:
 134:lvgl/src/extra/layouts/grid/../flex/../../../core/../misc/../font/../misc/lv_area.h **** {
 135:lvgl/src/extra/layouts/grid/../flex/../../../core/../misc/../font/../misc/lv_area.h ****     return (lv_coord_t)(area_p->y2 - area_p->y1 + 1);
 2246              		.loc 4 135 5 view .LVU682
 2247              		.loc 4 135 31 is_stmt 0 view .LVU683
 2248 00b8 678B     		ldrh	r7, [r4, #26]
 2249              		.loc 4 135 44 view .LVU684
 2250 00ba E38A     		ldrh	r3, [r4, #22]
 2251              		.loc 4 135 36 view .LVU685
 2252 00bc FF1A     		subs	r7, r7, r3
 2253 00be BFB2     		uxth	r7, r7
 2254              		.loc 4 135 49 view .LVU686
 2255 00c0 0137     		adds	r7, r7, #1
 2256              		.loc 4 135 12 view .LVU687
 2257 00c2 3FB2     		sxth	r7, r7
 2258              	.LVL281:
 2259              		.loc 4 135 12 view .LVU688
 2260              	.LBE131:
 2261              	.LBE130:
 605:lvgl/src/extra/layouts/grid/lv_grid.c ****         default:
 2262              		.loc 1 605 5 is_stmt 1 view .LVU689
 2263 00c4 B8F1020F 		cmp	r8, #2
 2264 00c8 00F0DA80 		beq	.L141
 2265 00cc B8F1030F 		cmp	r8, #3
 2266 00d0 00F0B980 		beq	.L142
 2267 00d4 B8F1010F 		cmp	r8, #1
 2268 00d8 00F0C080 		beq	.L143
 608:lvgl/src/extra/layouts/grid/lv_grid.c ****             item->w_layout = 0;
 2269              		.loc 1 608 13 view .LVU690
 608:lvgl/src/extra/layouts/grid/lv_grid.c ****             item->w_layout = 0;
 2270              		.loc 1 608 18 is_stmt 0 view .LVU691
 2271 00dc 2B68     		ldr	r3, [r5]
 608:lvgl/src/extra/layouts/grid/lv_grid.c ****             item->w_layout = 0;
 2272              		.loc 1 608 15 view .LVU692
 2273 00de 33F91B80 		ldrsh	r8, [r3, fp, lsl #1]
 2274              	.LVL282:
 609:lvgl/src/extra/layouts/grid/lv_grid.c ****             break;
 2275              		.loc 1 609 13 is_stmt 1 view .LVU693
 609:lvgl/src/extra/layouts/grid/lv_grid.c ****             break;
 2276              		.loc 1 609 28 is_stmt 0 view .LVU694
 2277 00e2 94F82330 		ldrb	r3, [r4, #35]	@ zero_extendqisi2
 2278 00e6 6FF3C303 		bfc	r3, #3, #1
 2279 00ea 84F82330 		strb	r3, [r4, #35]
 2280              	.LVL283:
 610:lvgl/src/extra/layouts/grid/lv_grid.c ****         case LV_GRID_ALIGN_STRETCH:
 2281              		.loc 1 610 13 is_stmt 1 view .LVU695
 2282              	.L144:
 626:lvgl/src/extra/layouts/grid/lv_grid.c ****         default:
 2283              		.loc 1 626 5 view .LVU696
 2284 00ee B9F1020F 		cmp	r9, #2
 2285 00f2 00F0F780 		beq	.L145
 626:lvgl/src/extra/layouts/grid/lv_grid.c ****         default:
 2286              		.loc 1 626 5 is_stmt 0 view .LVU697
 2287 00f6 B9F1030F 		cmp	r9, #3
 2288 00fa 00F0D780 		beq	.L146
 2289 00fe B9F1010F 		cmp	r9, #1
 2290 0102 00F0DE80 		beq	.L147
ARM GAS  /var/folders/21/t9g5rlb91ys800n5npymflf80000gn/T//cce6JCY2.s 			page 80


 629:lvgl/src/extra/layouts/grid/lv_grid.c ****             item->h_layout = 0;
 2291              		.loc 1 629 13 is_stmt 1 view .LVU698
 629:lvgl/src/extra/layouts/grid/lv_grid.c ****             item->h_layout = 0;
 2292              		.loc 1 629 18 is_stmt 0 view .LVU699
 2293 0106 6B68     		ldr	r3, [r5, #4]
 629:lvgl/src/extra/layouts/grid/lv_grid.c ****             item->h_layout = 0;
 2294              		.loc 1 629 15 view .LVU700
 2295 0108 33F91A50 		ldrsh	r5, [r3, r10, lsl #1]
 2296              	.LVL284:
 630:lvgl/src/extra/layouts/grid/lv_grid.c ****             break;
 2297              		.loc 1 630 13 is_stmt 1 view .LVU701
 630:lvgl/src/extra/layouts/grid/lv_grid.c ****             break;
 2298              		.loc 1 630 28 is_stmt 0 view .LVU702
 2299 010c 94F82330 		ldrb	r3, [r4, #35]	@ zero_extendqisi2
 2300 0110 6FF38203 		bfc	r3, #2, #1
 2301 0114 84F82330 		strb	r3, [r4, #35]
 631:lvgl/src/extra/layouts/grid/lv_grid.c ****         case LV_GRID_ALIGN_STRETCH:
 2302              		.loc 1 631 13 is_stmt 1 view .LVU703
 2303              	.LVL285:
 2304              	.L148:
 648:lvgl/src/extra/layouts/grid/lv_grid.c ****         lv_area_t old_coords;
 2305              		.loc 1 648 5 view .LVU704
 648:lvgl/src/extra/layouts/grid/lv_grid.c ****         lv_area_t old_coords;
 2306              		.loc 1 648 8 is_stmt 0 view .LVU705
 2307 0118 2046     		mov	r0, r4
 2308 011a FFF7FEFF 		bl	lv_obj_get_width
 2309              	.LVL286:
 648:lvgl/src/extra/layouts/grid/lv_grid.c ****         lv_area_t old_coords;
 2310              		.loc 1 648 7 view .LVU706
 2311 011e B042     		cmp	r0, r6
 2312 0120 00F0F380 		beq	.L163
 2313              	.L149:
 2314              	.LBB132:
 649:lvgl/src/extra/layouts/grid/lv_grid.c ****         lv_area_copy(&old_coords, &item->coords);
 2315              		.loc 1 649 9 is_stmt 1 view .LVU707
 650:lvgl/src/extra/layouts/grid/lv_grid.c ****         lv_obj_invalidate(item);
 2316              		.loc 1 650 9 view .LVU708
 2317              	.LVL287:
 2318              	.LBB133:
 2319              	.LBI133:
 110:lvgl/src/extra/layouts/grid/../flex/../../../core/../misc/../font/../misc/lv_area.h **** {
 2320              		.loc 4 110 20 view .LVU709
 2321              	.LBB134:
 112:lvgl/src/extra/layouts/grid/../flex/../../../core/../misc/../font/../misc/lv_area.h ****     dest->y1 = src->y1;
 2322              		.loc 4 112 5 view .LVU710
 112:lvgl/src/extra/layouts/grid/../flex/../../../core/../misc/../font/../misc/lv_area.h ****     dest->y1 = src->y1;
 2323              		.loc 4 112 19 is_stmt 0 view .LVU711
 2324 0124 B4F91430 		ldrsh	r3, [r4, #20]
 112:lvgl/src/extra/layouts/grid/../flex/../../../core/../misc/../font/../misc/lv_area.h ****     dest->y1 = src->y1;
 2325              		.loc 4 112 14 view .LVU712
 2326 0128 ADF81830 		strh	r3, [sp, #24]	@ movhi
 113:lvgl/src/extra/layouts/grid/../flex/../../../core/../misc/../font/../misc/lv_area.h ****     dest->x2 = src->x2;
 2327              		.loc 4 113 5 is_stmt 1 view .LVU713
 113:lvgl/src/extra/layouts/grid/../flex/../../../core/../misc/../font/../misc/lv_area.h ****     dest->x2 = src->x2;
 2328              		.loc 4 113 19 is_stmt 0 view .LVU714
 2329 012c B4F91630 		ldrsh	r3, [r4, #22]
 113:lvgl/src/extra/layouts/grid/../flex/../../../core/../misc/../font/../misc/lv_area.h ****     dest->x2 = src->x2;
ARM GAS  /var/folders/21/t9g5rlb91ys800n5npymflf80000gn/T//cce6JCY2.s 			page 81


 2330              		.loc 4 113 14 view .LVU715
 2331 0130 ADF81A30 		strh	r3, [sp, #26]	@ movhi
 114:lvgl/src/extra/layouts/grid/../flex/../../../core/../misc/../font/../misc/lv_area.h ****     dest->y2 = src->y2;
 2332              		.loc 4 114 5 is_stmt 1 view .LVU716
 114:lvgl/src/extra/layouts/grid/../flex/../../../core/../misc/../font/../misc/lv_area.h ****     dest->y2 = src->y2;
 2333              		.loc 4 114 19 is_stmt 0 view .LVU717
 2334 0134 B4F91830 		ldrsh	r3, [r4, #24]
 114:lvgl/src/extra/layouts/grid/../flex/../../../core/../misc/../font/../misc/lv_area.h ****     dest->y2 = src->y2;
 2335              		.loc 4 114 14 view .LVU718
 2336 0138 ADF81C30 		strh	r3, [sp, #28]	@ movhi
 115:lvgl/src/extra/layouts/grid/../flex/../../../core/../misc/../font/../misc/lv_area.h **** }
 2337              		.loc 4 115 5 is_stmt 1 view .LVU719
 115:lvgl/src/extra/layouts/grid/../flex/../../../core/../misc/../font/../misc/lv_area.h **** }
 2338              		.loc 4 115 19 is_stmt 0 view .LVU720
 2339 013c B4F91A30 		ldrsh	r3, [r4, #26]
 115:lvgl/src/extra/layouts/grid/../flex/../../../core/../misc/../font/../misc/lv_area.h **** }
 2340              		.loc 4 115 14 view .LVU721
 2341 0140 ADF81E30 		strh	r3, [sp, #30]	@ movhi
 2342              	.LVL288:
 115:lvgl/src/extra/layouts/grid/../flex/../../../core/../misc/../font/../misc/lv_area.h **** }
 2343              		.loc 4 115 14 view .LVU722
 2344              	.LBE134:
 2345              	.LBE133:
 651:lvgl/src/extra/layouts/grid/lv_grid.c ****         lv_area_set_width(&item->coords, item_w);
 2346              		.loc 1 651 9 is_stmt 1 view .LVU723
 2347 0144 2046     		mov	r0, r4
 2348 0146 FFF7FEFF 		bl	lv_obj_invalidate
 2349              	.LVL289:
 652:lvgl/src/extra/layouts/grid/lv_grid.c ****         lv_area_set_height(&item->coords, item_h);
 2350              		.loc 1 652 9 view .LVU724
 2351 014a 04F11403 		add	r3, r4, #20
 2352 014e 3146     		mov	r1, r6
 2353 0150 1E46     		mov	r6, r3
 2354              	.LVL290:
 652:lvgl/src/extra/layouts/grid/lv_grid.c ****         lv_area_set_height(&item->coords, item_h);
 2355              		.loc 1 652 9 is_stmt 0 view .LVU725
 2356 0152 1846     		mov	r0, r3
 2357 0154 FFF7FEFF 		bl	lv_area_set_width
 2358              	.LVL291:
 653:lvgl/src/extra/layouts/grid/lv_grid.c ****         lv_obj_invalidate(item);
 2359              		.loc 1 653 9 is_stmt 1 view .LVU726
 2360 0158 3946     		mov	r1, r7
 2361 015a 3046     		mov	r0, r6
 2362 015c FFF7FEFF 		bl	lv_area_set_height
 2363              	.LVL292:
 654:lvgl/src/extra/layouts/grid/lv_grid.c ****         lv_event_send(item, LV_EVENT_SIZE_CHANGED, &old_coords);
 2364              		.loc 1 654 9 view .LVU727
 2365 0160 2046     		mov	r0, r4
 2366 0162 FFF7FEFF 		bl	lv_obj_invalidate
 2367              	.LVL293:
 655:lvgl/src/extra/layouts/grid/lv_grid.c ****         lv_event_send(lv_obj_get_parent(item), LV_EVENT_CHILD_CHANGED, item);
 2368              		.loc 1 655 9 view .LVU728
 2369 0166 06AA     		add	r2, sp, #24
 2370 0168 2921     		movs	r1, #41
 2371 016a 2046     		mov	r0, r4
 2372 016c FFF7FEFF 		bl	lv_event_send
 2373              	.LVL294:
ARM GAS  /var/folders/21/t9g5rlb91ys800n5npymflf80000gn/T//cce6JCY2.s 			page 82


 656:lvgl/src/extra/layouts/grid/lv_grid.c **** 
 2374              		.loc 1 656 9 view .LVU729
 2375 0170 2046     		mov	r0, r4
 2376 0172 FFF7FEFF 		bl	lv_obj_get_parent
 2377              	.LVL295:
 2378 0176 2246     		mov	r2, r4
 2379 0178 2221     		movs	r1, #34
 2380 017a FFF7FEFF 		bl	lv_event_send
 2381              	.LVL296:
 2382              	.L150:
 656:lvgl/src/extra/layouts/grid/lv_grid.c **** 
 2383              		.loc 1 656 9 is_stmt 0 view .LVU730
 2384              	.LBE132:
 661:lvgl/src/extra/layouts/grid/lv_grid.c ****     lv_coord_t tr_y = lv_obj_get_style_translate_y(item, LV_PART_MAIN);
 2385              		.loc 1 661 5 is_stmt 1 view .LVU731
 2386              	.LBB135:
 2387              	.LBI135:
  67:lvgl/src/extra/layouts/grid/../flex/../../../core/lv_obj_style_gen.h **** {
 2388              		.loc 3 67 26 view .LVU732
 2389              	.LBB136:
  69:lvgl/src/extra/layouts/grid/../flex/../../../core/lv_obj_style_gen.h ****     return (lv_coord_t)v.num;
 2390              		.loc 3 69 5 view .LVU733
  69:lvgl/src/extra/layouts/grid/../flex/../../../core/lv_obj_style_gen.h ****     return (lv_coord_t)v.num;
 2391              		.loc 3 69 26 is_stmt 0 view .LVU734
 2392 017e 6B22     		movs	r2, #107
 2393 0180 0021     		movs	r1, #0
 2394 0182 2046     		mov	r0, r4
 2395 0184 FFF7FEFF 		bl	lv_obj_get_style_prop
 2396              	.LVL297:
 2397 0188 0746     		mov	r7, r0
 2398              	.LVL298:
  70:lvgl/src/extra/layouts/grid/../flex/../../../core/lv_obj_style_gen.h **** }
 2399              		.loc 3 70 5 is_stmt 1 view .LVU735
  70:lvgl/src/extra/layouts/grid/../flex/../../../core/lv_obj_style_gen.h **** }
 2400              		.loc 3 70 12 is_stmt 0 view .LVU736
 2401 018a 0FFA80FA 		sxth	r10, r0
 2402              	.LVL299:
  70:lvgl/src/extra/layouts/grid/../flex/../../../core/lv_obj_style_gen.h **** }
 2403              		.loc 3 70 12 view .LVU737
 2404              	.LBE136:
 2405              	.LBE135:
 662:lvgl/src/extra/layouts/grid/lv_grid.c ****     lv_coord_t w = lv_obj_get_width(item);
 2406              		.loc 1 662 5 is_stmt 1 view .LVU738
 2407              	.LBB137:
 2408              	.LBI137:
  73:lvgl/src/extra/layouts/grid/../flex/../../../core/lv_obj_style_gen.h **** {
 2409              		.loc 3 73 26 view .LVU739
 2410              	.LBB138:
  75:lvgl/src/extra/layouts/grid/../flex/../../../core/lv_obj_style_gen.h ****     return (lv_coord_t)v.num;
 2411              		.loc 3 75 5 view .LVU740
  75:lvgl/src/extra/layouts/grid/../flex/../../../core/lv_obj_style_gen.h ****     return (lv_coord_t)v.num;
 2412              		.loc 3 75 26 is_stmt 0 view .LVU741
 2413 018e 6C22     		movs	r2, #108
 2414 0190 0021     		movs	r1, #0
 2415 0192 2046     		mov	r0, r4
  75:lvgl/src/extra/layouts/grid/../flex/../../../core/lv_obj_style_gen.h ****     return (lv_coord_t)v.num;
 2416              		.loc 3 75 26 view .LVU742
ARM GAS  /var/folders/21/t9g5rlb91ys800n5npymflf80000gn/T//cce6JCY2.s 			page 83


 2417 0194 FFF7FEFF 		bl	lv_obj_get_style_prop
 2418              	.LVL300:
 2419 0198 0646     		mov	r6, r0
  76:lvgl/src/extra/layouts/grid/../flex/../../../core/lv_obj_style_gen.h **** }
 2420              		.loc 3 76 5 is_stmt 1 view .LVU743
  76:lvgl/src/extra/layouts/grid/../flex/../../../core/lv_obj_style_gen.h **** }
 2421              		.loc 3 76 12 is_stmt 0 view .LVU744
 2422 019a 0FFA80F9 		sxth	r9, r0
 2423              	.LVL301:
  76:lvgl/src/extra/layouts/grid/../flex/../../../core/lv_obj_style_gen.h **** }
 2424              		.loc 3 76 12 view .LVU745
 2425              	.LBE138:
 2426              	.LBE137:
 663:lvgl/src/extra/layouts/grid/lv_grid.c ****     lv_coord_t h = lv_obj_get_height(item);
 2427              		.loc 1 663 5 is_stmt 1 view .LVU746
 663:lvgl/src/extra/layouts/grid/lv_grid.c ****     lv_coord_t h = lv_obj_get_height(item);
 2428              		.loc 1 663 20 is_stmt 0 view .LVU747
 2429 019e 2046     		mov	r0, r4
 2430 01a0 FFF7FEFF 		bl	lv_obj_get_width
 2431              	.LVL302:
 2432 01a4 8346     		mov	fp, r0
 2433              	.LVL303:
 664:lvgl/src/extra/layouts/grid/lv_grid.c ****     if(LV_COORD_IS_PCT(tr_x)) tr_x = (w * LV_COORD_GET_PCT(tr_x)) / 100;
 2434              		.loc 1 664 5 is_stmt 1 view .LVU748
 664:lvgl/src/extra/layouts/grid/lv_grid.c ****     if(LV_COORD_IS_PCT(tr_x)) tr_x = (w * LV_COORD_GET_PCT(tr_x)) / 100;
 2435              		.loc 1 664 20 is_stmt 0 view .LVU749
 2436 01a6 2046     		mov	r0, r4
 2437 01a8 FFF7FEFF 		bl	lv_obj_get_height
 2438              	.LVL304:
 665:lvgl/src/extra/layouts/grid/lv_grid.c ****     if(LV_COORD_IS_PCT(tr_y)) tr_y = (h * LV_COORD_GET_PCT(tr_y)) / 100;
 2439              		.loc 1 665 5 is_stmt 1 view .LVU750
 665:lvgl/src/extra/layouts/grid/lv_grid.c ****     if(LV_COORD_IS_PCT(tr_y)) tr_y = (h * LV_COORD_GET_PCT(tr_y)) / 100;
 2440              		.loc 1 665 8 is_stmt 0 view .LVU751
 2441 01ac 07F4C047 		and	r7, r7, #24576
 2442              	.LVL305:
 665:lvgl/src/extra/layouts/grid/lv_grid.c ****     if(LV_COORD_IS_PCT(tr_y)) tr_y = (h * LV_COORD_GET_PCT(tr_y)) / 100;
 2443              		.loc 1 665 7 view .LVU752
 2444 01b0 B7F5005F 		cmp	r7, #8192
 2445 01b4 00F0B280 		beq	.L164
 2446              	.LVL306:
 2447              	.L151:
 666:lvgl/src/extra/layouts/grid/lv_grid.c **** 
 2448              		.loc 1 666 5 is_stmt 1 view .LVU753
 666:lvgl/src/extra/layouts/grid/lv_grid.c **** 
 2449              		.loc 1 666 8 is_stmt 0 view .LVU754
 2450 01b8 06F4C046 		and	r6, r6, #24576
 666:lvgl/src/extra/layouts/grid/lv_grid.c **** 
 2451              		.loc 1 666 7 view .LVU755
 2452 01bc B6F5005F 		cmp	r6, #8192
 2453 01c0 00F0C380 		beq	.L165
 2454              	.LVL307:
 2455              	.L154:
 668:lvgl/src/extra/layouts/grid/lv_grid.c ****     y += tr_y;
 2456              		.loc 1 668 5 is_stmt 1 view .LVU756
 668:lvgl/src/extra/layouts/grid/lv_grid.c ****     y += tr_y;
 2457              		.loc 1 668 7 is_stmt 0 view .LVU757
 2458 01c4 08EB0A06 		add	r6, r8, r10
ARM GAS  /var/folders/21/t9g5rlb91ys800n5npymflf80000gn/T//cce6JCY2.s 			page 84


 2459              	.LVL308:
 669:lvgl/src/extra/layouts/grid/lv_grid.c **** 
 2460              		.loc 1 669 5 is_stmt 1 view .LVU758
 669:lvgl/src/extra/layouts/grid/lv_grid.c **** 
 2461              		.loc 1 669 7 is_stmt 0 view .LVU759
 2462 01c8 05EB0902 		add	r2, r5, r9
 2463              	.LVL309:
 671:lvgl/src/extra/layouts/grid/lv_grid.c ****     lv_coord_t diff_y = hint->grid_abs.y + y - item->coords.y1;
 2464              		.loc 1 671 5 is_stmt 1 view .LVU760
 671:lvgl/src/extra/layouts/grid/lv_grid.c ****     lv_coord_t diff_y = hint->grid_abs.y + y - item->coords.y1;
 2465              		.loc 1 671 39 is_stmt 0 view .LVU761
 2466 01cc 0199     		ldr	r1, [sp, #4]
 2467 01ce 0B89     		ldrh	r3, [r1, #8]
 671:lvgl/src/extra/layouts/grid/lv_grid.c ****     lv_coord_t diff_y = hint->grid_abs.y + y - item->coords.y1;
 2468              		.loc 1 671 42 view .LVU762
 2469 01d0 13FA86F6 		uxtah	r6, r3, r6
 2470              	.LVL310:
 671:lvgl/src/extra/layouts/grid/lv_grid.c ****     lv_coord_t diff_y = hint->grid_abs.y + y - item->coords.y1;
 2471              		.loc 1 671 42 view .LVU763
 2472 01d4 B6B2     		uxth	r6, r6
 671:lvgl/src/extra/layouts/grid/lv_grid.c ****     lv_coord_t diff_y = hint->grid_abs.y + y - item->coords.y1;
 2473              		.loc 1 671 60 view .LVU764
 2474 01d6 A38A     		ldrh	r3, [r4, #20]
 671:lvgl/src/extra/layouts/grid/lv_grid.c ****     lv_coord_t diff_y = hint->grid_abs.y + y - item->coords.y1;
 2475              		.loc 1 671 46 view .LVU765
 2476 01d8 F61A     		subs	r6, r6, r3
 2477 01da B7B2     		uxth	r7, r6
 671:lvgl/src/extra/layouts/grid/lv_grid.c ****     lv_coord_t diff_y = hint->grid_abs.y + y - item->coords.y1;
 2478              		.loc 1 671 16 view .LVU766
 2479 01dc 36B2     		sxth	r6, r6
 2480              	.LVL311:
 672:lvgl/src/extra/layouts/grid/lv_grid.c ****     if(diff_x || diff_y) {
 2481              		.loc 1 672 5 is_stmt 1 view .LVU767
 672:lvgl/src/extra/layouts/grid/lv_grid.c ****     if(diff_x || diff_y) {
 2482              		.loc 1 672 39 is_stmt 0 view .LVU768
 2483 01de 4B89     		ldrh	r3, [r1, #10]
 672:lvgl/src/extra/layouts/grid/lv_grid.c ****     if(diff_x || diff_y) {
 2484              		.loc 1 672 42 view .LVU769
 2485 01e0 13FA82F2 		uxtah	r2, r3, r2
 2486              	.LVL312:
 672:lvgl/src/extra/layouts/grid/lv_grid.c ****     if(diff_x || diff_y) {
 2487              		.loc 1 672 42 view .LVU770
 2488 01e4 92B2     		uxth	r2, r2
 672:lvgl/src/extra/layouts/grid/lv_grid.c ****     if(diff_x || diff_y) {
 2489              		.loc 1 672 60 view .LVU771
 2490 01e6 E38A     		ldrh	r3, [r4, #22]
 672:lvgl/src/extra/layouts/grid/lv_grid.c ****     if(diff_x || diff_y) {
 2491              		.loc 1 672 46 view .LVU772
 2492 01e8 D21A     		subs	r2, r2, r3
 2493 01ea 1FFA82F8 		uxth	r8, r2
 2494              	.LVL313:
 672:lvgl/src/extra/layouts/grid/lv_grid.c ****     if(diff_x || diff_y) {
 2495              		.loc 1 672 16 view .LVU773
 2496 01ee 15B2     		sxth	r5, r2
 2497              	.LVL314:
 673:lvgl/src/extra/layouts/grid/lv_grid.c ****         lv_obj_invalidate(item);
 2498              		.loc 1 673 5 is_stmt 1 view .LVU774
ARM GAS  /var/folders/21/t9g5rlb91ys800n5npymflf80000gn/T//cce6JCY2.s 			page 85


 673:lvgl/src/extra/layouts/grid/lv_grid.c ****         lv_obj_invalidate(item);
 2499              		.loc 1 673 7 is_stmt 0 view .LVU775
 2500 01f0 16B9     		cbnz	r6, .L157
 673:lvgl/src/extra/layouts/grid/lv_grid.c ****         lv_obj_invalidate(item);
 2501              		.loc 1 673 15 discriminator 1 view .LVU776
 2502 01f2 002D     		cmp	r5, #0
 2503 01f4 3FF40EAF 		beq	.L138
 2504              	.L157:
 674:lvgl/src/extra/layouts/grid/lv_grid.c ****         item->coords.x1 += diff_x;
 2505              		.loc 1 674 9 is_stmt 1 view .LVU777
 2506 01f8 2046     		mov	r0, r4
 2507 01fa FFF7FEFF 		bl	lv_obj_invalidate
 2508              	.LVL315:
 675:lvgl/src/extra/layouts/grid/lv_grid.c ****         item->coords.x2 += diff_x;
 2509              		.loc 1 675 9 view .LVU778
 675:lvgl/src/extra/layouts/grid/lv_grid.c ****         item->coords.x2 += diff_x;
 2510              		.loc 1 675 21 is_stmt 0 view .LVU779
 2511 01fe A38A     		ldrh	r3, [r4, #20]
 675:lvgl/src/extra/layouts/grid/lv_grid.c ****         item->coords.x2 += diff_x;
 2512              		.loc 1 675 25 view .LVU780
 2513 0200 3B44     		add	r3, r3, r7
 2514 0202 A382     		strh	r3, [r4, #20]	@ movhi
 676:lvgl/src/extra/layouts/grid/lv_grid.c ****         item->coords.y1 += diff_y;
 2515              		.loc 1 676 9 is_stmt 1 view .LVU781
 676:lvgl/src/extra/layouts/grid/lv_grid.c ****         item->coords.y1 += diff_y;
 2516              		.loc 1 676 21 is_stmt 0 view .LVU782
 2517 0204 238B     		ldrh	r3, [r4, #24]
 676:lvgl/src/extra/layouts/grid/lv_grid.c ****         item->coords.y1 += diff_y;
 2518              		.loc 1 676 25 view .LVU783
 2519 0206 1F44     		add	r7, r7, r3
 2520 0208 2783     		strh	r7, [r4, #24]	@ movhi
 677:lvgl/src/extra/layouts/grid/lv_grid.c ****         item->coords.y2 += diff_y;
 2521              		.loc 1 677 9 is_stmt 1 view .LVU784
 677:lvgl/src/extra/layouts/grid/lv_grid.c ****         item->coords.y2 += diff_y;
 2522              		.loc 1 677 21 is_stmt 0 view .LVU785
 2523 020a E38A     		ldrh	r3, [r4, #22]
 677:lvgl/src/extra/layouts/grid/lv_grid.c ****         item->coords.y2 += diff_y;
 2524              		.loc 1 677 25 view .LVU786
 2525 020c 4344     		add	r3, r3, r8
 2526 020e E382     		strh	r3, [r4, #22]	@ movhi
 678:lvgl/src/extra/layouts/grid/lv_grid.c ****         lv_obj_invalidate(item);
 2527              		.loc 1 678 9 is_stmt 1 view .LVU787
 678:lvgl/src/extra/layouts/grid/lv_grid.c ****         lv_obj_invalidate(item);
 2528              		.loc 1 678 21 is_stmt 0 view .LVU788
 2529 0210 638B     		ldrh	r3, [r4, #26]
 678:lvgl/src/extra/layouts/grid/lv_grid.c ****         lv_obj_invalidate(item);
 2530              		.loc 1 678 25 view .LVU789
 2531 0212 9844     		add	r8, r8, r3
 2532 0214 A4F81A80 		strh	r8, [r4, #26]	@ movhi
 679:lvgl/src/extra/layouts/grid/lv_grid.c ****         lv_obj_move_children_by(item, diff_x, diff_y, false);
 2533              		.loc 1 679 9 is_stmt 1 view .LVU790
 2534 0218 2046     		mov	r0, r4
 2535 021a FFF7FEFF 		bl	lv_obj_invalidate
 2536              	.LVL316:
 680:lvgl/src/extra/layouts/grid/lv_grid.c ****     }
 2537              		.loc 1 680 9 view .LVU791
 2538 021e 0023     		movs	r3, #0
ARM GAS  /var/folders/21/t9g5rlb91ys800n5npymflf80000gn/T//cce6JCY2.s 			page 86


 2539 0220 2A46     		mov	r2, r5
 2540 0222 3146     		mov	r1, r6
 2541 0224 2046     		mov	r0, r4
 2542 0226 FFF7FEFF 		bl	lv_obj_move_children_by
 2543              	.LVL317:
 2544 022a F3E6     		b	.L138
 2545              	.LVL318:
 2546              	.L162:
 596:lvgl/src/extra/layouts/grid/lv_grid.c ****         else if(col_align == LV_GRID_ALIGN_END) col_align = LV_GRID_ALIGN_START;
 2547              		.loc 1 596 9 view .LVU792
 596:lvgl/src/extra/layouts/grid/lv_grid.c ****         else if(col_align == LV_GRID_ALIGN_END) col_align = LV_GRID_ALIGN_START;
 2548              		.loc 1 596 11 is_stmt 0 view .LVU793
 2549 022c B8F1000F 		cmp	r8, #0
 2550 0230 06D0     		beq	.L158
 597:lvgl/src/extra/layouts/grid/lv_grid.c ****     }
 2551              		.loc 1 597 14 is_stmt 1 view .LVU794
 597:lvgl/src/extra/layouts/grid/lv_grid.c ****     }
 2552              		.loc 1 597 16 is_stmt 0 view .LVU795
 2553 0232 B8F1020F 		cmp	r8, #2
 2554 0236 7FF439AF 		bne	.L140
 597:lvgl/src/extra/layouts/grid/lv_grid.c ****     }
 2555              		.loc 1 597 59 view .LVU796
 2556 023a 4FF00008 		mov	r8, #0
 2557              	.LVL319:
 597:lvgl/src/extra/layouts/grid/lv_grid.c ****     }
 2558              		.loc 1 597 59 view .LVU797
 2559 023e 35E7     		b	.L140
 2560              	.LVL320:
 2561              	.L158:
 596:lvgl/src/extra/layouts/grid/lv_grid.c ****         else if(col_align == LV_GRID_ALIGN_END) col_align = LV_GRID_ALIGN_START;
 2562              		.loc 1 596 56 view .LVU798
 2563 0240 4FF00208 		mov	r8, #2
 2564              	.LVL321:
 596:lvgl/src/extra/layouts/grid/lv_grid.c ****         else if(col_align == LV_GRID_ALIGN_END) col_align = LV_GRID_ALIGN_START;
 2565              		.loc 1 596 56 view .LVU799
 2566 0244 32E7     		b	.L140
 2567              	.LVL322:
 2568              	.L142:
 612:lvgl/src/extra/layouts/grid/lv_grid.c ****             item_w = col_w;
 2569              		.loc 1 612 13 is_stmt 1 view .LVU800
 612:lvgl/src/extra/layouts/grid/lv_grid.c ****             item_w = col_w;
 2570              		.loc 1 612 18 is_stmt 0 view .LVU801
 2571 0246 2B68     		ldr	r3, [r5]
 612:lvgl/src/extra/layouts/grid/lv_grid.c ****             item_w = col_w;
 2572              		.loc 1 612 15 view .LVU802
 2573 0248 33F91B80 		ldrsh	r8, [r3, fp, lsl #1]
 2574              	.LVL323:
 613:lvgl/src/extra/layouts/grid/lv_grid.c ****             item->w_layout = 1;
 2575              		.loc 1 613 13 is_stmt 1 view .LVU803
 614:lvgl/src/extra/layouts/grid/lv_grid.c ****             break;
 2576              		.loc 1 614 13 view .LVU804
 614:lvgl/src/extra/layouts/grid/lv_grid.c ****             break;
 2577              		.loc 1 614 28 is_stmt 0 view .LVU805
 2578 024c 94F82330 		ldrb	r3, [r4, #35]	@ zero_extendqisi2
 2579 0250 43F00803 		orr	r3, r3, #8
 2580 0254 84F82330 		strb	r3, [r4, #35]
 2581              	.LVL324:
ARM GAS  /var/folders/21/t9g5rlb91ys800n5npymflf80000gn/T//cce6JCY2.s 			page 87


 615:lvgl/src/extra/layouts/grid/lv_grid.c ****         case LV_GRID_ALIGN_CENTER:
 2582              		.loc 1 615 13 is_stmt 1 view .LVU806
 613:lvgl/src/extra/layouts/grid/lv_grid.c ****             item->w_layout = 1;
 2583              		.loc 1 613 20 is_stmt 0 view .LVU807
 2584 0258 029E     		ldr	r6, [sp, #8]
 615:lvgl/src/extra/layouts/grid/lv_grid.c ****         case LV_GRID_ALIGN_CENTER:
 2585              		.loc 1 615 13 view .LVU808
 2586 025a 48E7     		b	.L144
 2587              	.LVL325:
 2588              	.L143:
 617:lvgl/src/extra/layouts/grid/lv_grid.c ****             item->w_layout = 0;
 2589              		.loc 1 617 13 is_stmt 1 view .LVU809
 617:lvgl/src/extra/layouts/grid/lv_grid.c ****             item->w_layout = 0;
 2590              		.loc 1 617 18 is_stmt 0 view .LVU810
 2591 025c 2B68     		ldr	r3, [r5]
 617:lvgl/src/extra/layouts/grid/lv_grid.c ****             item->w_layout = 0;
 2592              		.loc 1 617 21 view .LVU811
 2593 025e 33F81B80 		ldrh	r8, [r3, fp, lsl #1]
 2594              	.LVL326:
 617:lvgl/src/extra/layouts/grid/lv_grid.c ****             item->w_layout = 0;
 2595              		.loc 1 617 40 view .LVU812
 2596 0262 029B     		ldr	r3, [sp, #8]
 2597 0264 9B1B     		subs	r3, r3, r6
 617:lvgl/src/extra/layouts/grid/lv_grid.c ****             item->w_layout = 0;
 2598              		.loc 1 617 50 view .LVU813
 2599 0266 03EBD373 		add	r3, r3, r3, lsr #31
 617:lvgl/src/extra/layouts/grid/lv_grid.c ****             item->w_layout = 0;
 2600              		.loc 1 617 31 view .LVU814
 2601 026a 08EB6308 		add	r8, r8, r3, asr #1
 617:lvgl/src/extra/layouts/grid/lv_grid.c ****             item->w_layout = 0;
 2602              		.loc 1 617 15 view .LVU815
 2603 026e 0FFA88F8 		sxth	r8, r8
 2604              	.LVL327:
 618:lvgl/src/extra/layouts/grid/lv_grid.c ****             break;
 2605              		.loc 1 618 13 is_stmt 1 view .LVU816
 618:lvgl/src/extra/layouts/grid/lv_grid.c ****             break;
 2606              		.loc 1 618 28 is_stmt 0 view .LVU817
 2607 0272 94F82330 		ldrb	r3, [r4, #35]	@ zero_extendqisi2
 2608 0276 6FF3C303 		bfc	r3, #3, #1
 2609 027a 84F82330 		strb	r3, [r4, #35]
 2610              	.LVL328:
 619:lvgl/src/extra/layouts/grid/lv_grid.c ****         case LV_GRID_ALIGN_END:
 2611              		.loc 1 619 13 is_stmt 1 view .LVU818
 2612 027e 36E7     		b	.L144
 2613              	.LVL329:
 2614              	.L141:
 621:lvgl/src/extra/layouts/grid/lv_grid.c ****             item->w_layout = 0;
 2615              		.loc 1 621 13 view .LVU819
 621:lvgl/src/extra/layouts/grid/lv_grid.c ****             item->w_layout = 0;
 2616              		.loc 1 621 18 is_stmt 0 view .LVU820
 2617 0280 2B68     		ldr	r3, [r5]
 621:lvgl/src/extra/layouts/grid/lv_grid.c ****             item->w_layout = 0;
 2618              		.loc 1 621 21 view .LVU821
 2619 0282 33F81B30 		ldrh	r3, [r3, fp, lsl #1]
 621:lvgl/src/extra/layouts/grid/lv_grid.c ****             item->w_layout = 0;
 2620              		.loc 1 621 31 view .LVU822
 2621 0286 049A     		ldr	r2, [sp, #16]
ARM GAS  /var/folders/21/t9g5rlb91ys800n5npymflf80000gn/T//cce6JCY2.s 			page 88


 2622 0288 1A44     		add	r2, r2, r3
 2623 028a 1FFA82F8 		uxth	r8, r2
 2624              	.LVL330:
 621:lvgl/src/extra/layouts/grid/lv_grid.c ****             item->w_layout = 0;
 2625              		.loc 1 621 41 view .LVU823
 2626 028e 2046     		mov	r0, r4
 2627 0290 FFF7FEFF 		bl	lv_obj_get_width
 2628              	.LVL331:
 2629 0294 80B2     		uxth	r0, r0
 621:lvgl/src/extra/layouts/grid/lv_grid.c ****             item->w_layout = 0;
 2630              		.loc 1 621 39 view .LVU824
 2631 0296 A8EB0008 		sub	r8, r8, r0
 621:lvgl/src/extra/layouts/grid/lv_grid.c ****             item->w_layout = 0;
 2632              		.loc 1 621 15 view .LVU825
 2633 029a 0FFA88F8 		sxth	r8, r8
 2634              	.LVL332:
 622:lvgl/src/extra/layouts/grid/lv_grid.c ****             break;
 2635              		.loc 1 622 13 is_stmt 1 view .LVU826
 622:lvgl/src/extra/layouts/grid/lv_grid.c ****             break;
 2636              		.loc 1 622 28 is_stmt 0 view .LVU827
 2637 029e 94F82330 		ldrb	r3, [r4, #35]	@ zero_extendqisi2
 2638 02a2 6FF3C303 		bfc	r3, #3, #1
 2639 02a6 84F82330 		strb	r3, [r4, #35]
 2640              	.LVL333:
 623:lvgl/src/extra/layouts/grid/lv_grid.c ****     }
 2641              		.loc 1 623 13 is_stmt 1 view .LVU828
 2642 02aa 20E7     		b	.L144
 2643              	.L146:
 633:lvgl/src/extra/layouts/grid/lv_grid.c ****             item_h = row_h;
 2644              		.loc 1 633 13 view .LVU829
 633:lvgl/src/extra/layouts/grid/lv_grid.c ****             item_h = row_h;
 2645              		.loc 1 633 18 is_stmt 0 view .LVU830
 2646 02ac 6B68     		ldr	r3, [r5, #4]
 633:lvgl/src/extra/layouts/grid/lv_grid.c ****             item_h = row_h;
 2647              		.loc 1 633 15 view .LVU831
 2648 02ae 33F91A50 		ldrsh	r5, [r3, r10, lsl #1]
 2649              	.LVL334:
 634:lvgl/src/extra/layouts/grid/lv_grid.c ****             item->h_layout = 1;
 2650              		.loc 1 634 13 is_stmt 1 view .LVU832
 635:lvgl/src/extra/layouts/grid/lv_grid.c ****             break;
 2651              		.loc 1 635 13 view .LVU833
 635:lvgl/src/extra/layouts/grid/lv_grid.c ****             break;
 2652              		.loc 1 635 28 is_stmt 0 view .LVU834
 2653 02b2 94F82330 		ldrb	r3, [r4, #35]	@ zero_extendqisi2
 2654 02b6 43F00403 		orr	r3, r3, #4
 2655 02ba 84F82330 		strb	r3, [r4, #35]
 2656              	.LVL335:
 636:lvgl/src/extra/layouts/grid/lv_grid.c ****         case LV_GRID_ALIGN_CENTER:
 2657              		.loc 1 636 13 is_stmt 1 view .LVU835
 634:lvgl/src/extra/layouts/grid/lv_grid.c ****             item->h_layout = 1;
 2658              		.loc 1 634 20 is_stmt 0 view .LVU836
 2659 02be 039F     		ldr	r7, [sp, #12]
 636:lvgl/src/extra/layouts/grid/lv_grid.c ****         case LV_GRID_ALIGN_CENTER:
 2660              		.loc 1 636 13 view .LVU837
 2661 02c0 2AE7     		b	.L148
 2662              	.LVL336:
 2663              	.L147:
ARM GAS  /var/folders/21/t9g5rlb91ys800n5npymflf80000gn/T//cce6JCY2.s 			page 89


 638:lvgl/src/extra/layouts/grid/lv_grid.c ****             item->h_layout = 0;
 2664              		.loc 1 638 13 is_stmt 1 view .LVU838
 638:lvgl/src/extra/layouts/grid/lv_grid.c ****             item->h_layout = 0;
 2665              		.loc 1 638 18 is_stmt 0 view .LVU839
 2666 02c2 6B68     		ldr	r3, [r5, #4]
 638:lvgl/src/extra/layouts/grid/lv_grid.c ****             item->h_layout = 0;
 2667              		.loc 1 638 21 view .LVU840
 2668 02c4 33F81A50 		ldrh	r5, [r3, r10, lsl #1]
 2669              	.LVL337:
 638:lvgl/src/extra/layouts/grid/lv_grid.c ****             item->h_layout = 0;
 2670              		.loc 1 638 40 view .LVU841
 2671 02c8 039B     		ldr	r3, [sp, #12]
 2672 02ca DB1B     		subs	r3, r3, r7
 638:lvgl/src/extra/layouts/grid/lv_grid.c ****             item->h_layout = 0;
 2673              		.loc 1 638 50 view .LVU842
 2674 02cc 03EBD373 		add	r3, r3, r3, lsr #31
 638:lvgl/src/extra/layouts/grid/lv_grid.c ****             item->h_layout = 0;
 2675              		.loc 1 638 31 view .LVU843
 2676 02d0 05EB6305 		add	r5, r5, r3, asr #1
 638:lvgl/src/extra/layouts/grid/lv_grid.c ****             item->h_layout = 0;
 2677              		.loc 1 638 15 view .LVU844
 2678 02d4 2DB2     		sxth	r5, r5
 2679              	.LVL338:
 639:lvgl/src/extra/layouts/grid/lv_grid.c ****             break;
 2680              		.loc 1 639 13 is_stmt 1 view .LVU845
 639:lvgl/src/extra/layouts/grid/lv_grid.c ****             break;
 2681              		.loc 1 639 28 is_stmt 0 view .LVU846
 2682 02d6 94F82330 		ldrb	r3, [r4, #35]	@ zero_extendqisi2
 2683 02da 6FF38203 		bfc	r3, #2, #1
 2684 02de 84F82330 		strb	r3, [r4, #35]
 640:lvgl/src/extra/layouts/grid/lv_grid.c ****         case LV_GRID_ALIGN_END:
 2685              		.loc 1 640 13 is_stmt 1 view .LVU847
 2686 02e2 19E7     		b	.L148
 2687              	.LVL339:
 2688              	.L145:
 642:lvgl/src/extra/layouts/grid/lv_grid.c ****             item->h_layout = 0;
 2689              		.loc 1 642 13 view .LVU848
 642:lvgl/src/extra/layouts/grid/lv_grid.c ****             item->h_layout = 0;
 2690              		.loc 1 642 18 is_stmt 0 view .LVU849
 2691 02e4 6B68     		ldr	r3, [r5, #4]
 642:lvgl/src/extra/layouts/grid/lv_grid.c ****             item->h_layout = 0;
 2692              		.loc 1 642 21 view .LVU850
 2693 02e6 33F81A30 		ldrh	r3, [r3, r10, lsl #1]
 642:lvgl/src/extra/layouts/grid/lv_grid.c ****             item->h_layout = 0;
 2694              		.loc 1 642 31 view .LVU851
 2695 02ea 059D     		ldr	r5, [sp, #20]
 2696              	.LVL340:
 642:lvgl/src/extra/layouts/grid/lv_grid.c ****             item->h_layout = 0;
 2697              		.loc 1 642 31 view .LVU852
 2698 02ec 1D44     		add	r5, r5, r3
 2699 02ee ADB2     		uxth	r5, r5
 642:lvgl/src/extra/layouts/grid/lv_grid.c ****             item->h_layout = 0;
 2700              		.loc 1 642 41 view .LVU853
 2701 02f0 2046     		mov	r0, r4
 2702 02f2 FFF7FEFF 		bl	lv_obj_get_height
 2703              	.LVL341:
 2704 02f6 80B2     		uxth	r0, r0
ARM GAS  /var/folders/21/t9g5rlb91ys800n5npymflf80000gn/T//cce6JCY2.s 			page 90


 642:lvgl/src/extra/layouts/grid/lv_grid.c ****             item->h_layout = 0;
 2705              		.loc 1 642 39 view .LVU854
 2706 02f8 2D1A     		subs	r5, r5, r0
 642:lvgl/src/extra/layouts/grid/lv_grid.c ****             item->h_layout = 0;
 2707              		.loc 1 642 15 view .LVU855
 2708 02fa 2DB2     		sxth	r5, r5
 2709              	.LVL342:
 643:lvgl/src/extra/layouts/grid/lv_grid.c ****             break;
 2710              		.loc 1 643 13 is_stmt 1 view .LVU856
 643:lvgl/src/extra/layouts/grid/lv_grid.c ****             break;
 2711              		.loc 1 643 28 is_stmt 0 view .LVU857
 2712 02fc 94F82330 		ldrb	r3, [r4, #35]	@ zero_extendqisi2
 2713 0300 6FF38203 		bfc	r3, #2, #1
 2714 0304 84F82330 		strb	r3, [r4, #35]
 644:lvgl/src/extra/layouts/grid/lv_grid.c ****     }
 2715              		.loc 1 644 13 is_stmt 1 view .LVU858
 2716 0308 06E7     		b	.L148
 2717              	.L163:
 648:lvgl/src/extra/layouts/grid/lv_grid.c ****         lv_area_t old_coords;
 2718              		.loc 1 648 44 is_stmt 0 discriminator 1 view .LVU859
 2719 030a 2046     		mov	r0, r4
 2720 030c FFF7FEFF 		bl	lv_obj_get_height
 2721              	.LVL343:
 648:lvgl/src/extra/layouts/grid/lv_grid.c ****         lv_area_t old_coords;
 2722              		.loc 1 648 41 discriminator 1 view .LVU860
 2723 0310 B842     		cmp	r0, r7
 2724 0312 7FF407AF 		bne	.L149
 2725 0316 32E7     		b	.L150
 2726              	.L167:
 2727              		.align	2
 2728              	.L166:
 2729 0318 01000600 		.word	393217
 2730              	.LVL344:
 2731              	.L164:
 665:lvgl/src/extra/layouts/grid/lv_grid.c ****     if(LV_COORD_IS_PCT(tr_y)) tr_y = (h * LV_COORD_GET_PCT(tr_y)) / 100;
 2732              		.loc 1 665 8 discriminator 1 view .LVU861
 2733 031c 2AF4C043 		bic	r3, r10, #24576
 2734 0320 B3F5FA6F 		cmp	r3, #2000
 2735 0324 3FF748AF 		bgt	.L151
 665:lvgl/src/extra/layouts/grid/lv_grid.c ****     if(LV_COORD_IS_PCT(tr_y)) tr_y = (h * LV_COORD_GET_PCT(tr_y)) / 100;
 2736              		.loc 1 665 31 is_stmt 1 discriminator 2 view .LVU862
 665:lvgl/src/extra/layouts/grid/lv_grid.c ****     if(LV_COORD_IS_PCT(tr_y)) tr_y = (h * LV_COORD_GET_PCT(tr_y)) / 100;
 2737              		.loc 1 665 43 is_stmt 0 discriminator 2 view .LVU863
 2738 0328 B3F57A7F 		cmp	r3, #1000
 2739 032c 01DD     		ble	.L153
 665:lvgl/src/extra/layouts/grid/lv_grid.c ****     if(LV_COORD_IS_PCT(tr_y)) tr_y = (h * LV_COORD_GET_PCT(tr_y)) / 100;
 2740              		.loc 1 665 43 discriminator 3 view .LVU864
 2741 032e C3F57A73 		rsb	r3, r3, #1000
 2742              	.L153:
 665:lvgl/src/extra/layouts/grid/lv_grid.c ****     if(LV_COORD_IS_PCT(tr_y)) tr_y = (h * LV_COORD_GET_PCT(tr_y)) / 100;
 2743              		.loc 1 665 41 discriminator 6 view .LVU865
 2744 0332 03FB0BFB 		mul	fp, r3, fp
 2745              	.LVL345:
 665:lvgl/src/extra/layouts/grid/lv_grid.c ****     if(LV_COORD_IS_PCT(tr_y)) tr_y = (h * LV_COORD_GET_PCT(tr_y)) / 100;
 2746              		.loc 1 665 67 discriminator 6 view .LVU866
 2747 0336 104B     		ldr	r3, .L168
 2748 0338 83FB0B23 		smull	r2, r3, r3, fp
ARM GAS  /var/folders/21/t9g5rlb91ys800n5npymflf80000gn/T//cce6JCY2.s 			page 91


 2749 033c 4FEAEB7B 		asr	fp, fp, #31
 2750 0340 CBEB631B 		rsb	fp, fp, r3, asr #5
 665:lvgl/src/extra/layouts/grid/lv_grid.c ****     if(LV_COORD_IS_PCT(tr_y)) tr_y = (h * LV_COORD_GET_PCT(tr_y)) / 100;
 2751              		.loc 1 665 36 discriminator 6 view .LVU867
 2752 0344 0FFA8BFA 		sxth	r10, fp
 2753              	.LVL346:
 665:lvgl/src/extra/layouts/grid/lv_grid.c ****     if(LV_COORD_IS_PCT(tr_y)) tr_y = (h * LV_COORD_GET_PCT(tr_y)) / 100;
 2754              		.loc 1 665 36 discriminator 6 view .LVU868
 2755 0348 36E7     		b	.L151
 2756              	.L165:
 666:lvgl/src/extra/layouts/grid/lv_grid.c **** 
 2757              		.loc 1 666 8 discriminator 1 view .LVU869
 2758 034a 29F4C043 		bic	r3, r9, #24576
 2759 034e B3F5FA6F 		cmp	r3, #2000
 2760 0352 3FF737AF 		bgt	.L154
 666:lvgl/src/extra/layouts/grid/lv_grid.c **** 
 2761              		.loc 1 666 31 is_stmt 1 discriminator 2 view .LVU870
 666:lvgl/src/extra/layouts/grid/lv_grid.c **** 
 2762              		.loc 1 666 43 is_stmt 0 discriminator 2 view .LVU871
 2763 0356 B3F57A7F 		cmp	r3, #1000
 2764 035a 01DD     		ble	.L156
 666:lvgl/src/extra/layouts/grid/lv_grid.c **** 
 2765              		.loc 1 666 43 discriminator 3 view .LVU872
 2766 035c C3F57A73 		rsb	r3, r3, #1000
 2767              	.L156:
 666:lvgl/src/extra/layouts/grid/lv_grid.c **** 
 2768              		.loc 1 666 41 discriminator 6 view .LVU873
 2769 0360 03FB00F0 		mul	r0, r3, r0
 2770              	.LVL347:
 666:lvgl/src/extra/layouts/grid/lv_grid.c **** 
 2771              		.loc 1 666 67 discriminator 6 view .LVU874
 2772 0364 044B     		ldr	r3, .L168
 2773 0366 83FB0023 		smull	r2, r3, r3, r0
 2774 036a C017     		asrs	r0, r0, #31
 2775 036c C0EB6310 		rsb	r0, r0, r3, asr #5
 666:lvgl/src/extra/layouts/grid/lv_grid.c **** 
 2776              		.loc 1 666 36 discriminator 6 view .LVU875
 2777 0370 0FFA80F9 		sxth	r9, r0
 2778              	.LVL348:
 666:lvgl/src/extra/layouts/grid/lv_grid.c **** 
 2779              		.loc 1 666 36 discriminator 6 view .LVU876
 2780 0374 26E7     		b	.L154
 2781              	.L169:
 2782 0376 00BF     		.align	2
 2783              	.L168:
 2784 0378 1F85EB51 		.word	1374389535
 2785              		.cfi_endproc
 2786              	.LFE216:
 2788              		.section	.text.calc_free,"ax",%progbits
 2789              		.align	1
 2790              		.syntax unified
 2791              		.thumb
 2792              		.thumb_func
 2794              	calc_free:
 2795              	.LVL349:
 2796              	.LFB213:
 419:lvgl/src/extra/layouts/grid/lv_grid.c ****     lv_mem_buf_release(calc->x);
ARM GAS  /var/folders/21/t9g5rlb91ys800n5npymflf80000gn/T//cce6JCY2.s 			page 92


 2797              		.loc 1 419 1 is_stmt 1 view -0
 2798              		.cfi_startproc
 2799              		@ args = 0, pretend = 0, frame = 0
 2800              		@ frame_needed = 0, uses_anonymous_args = 0
 419:lvgl/src/extra/layouts/grid/lv_grid.c ****     lv_mem_buf_release(calc->x);
 2801              		.loc 1 419 1 is_stmt 0 view .LVU878
 2802 0000 10B5     		push	{r4, lr}
 2803              	.LCFI23:
 2804              		.cfi_def_cfa_offset 8
 2805              		.cfi_offset 4, -8
 2806              		.cfi_offset 14, -4
 2807 0002 0446     		mov	r4, r0
 420:lvgl/src/extra/layouts/grid/lv_grid.c ****     lv_mem_buf_release(calc->y);
 2808              		.loc 1 420 5 is_stmt 1 view .LVU879
 2809 0004 0068     		ldr	r0, [r0]
 2810              	.LVL350:
 420:lvgl/src/extra/layouts/grid/lv_grid.c ****     lv_mem_buf_release(calc->y);
 2811              		.loc 1 420 5 is_stmt 0 view .LVU880
 2812 0006 FFF7FEFF 		bl	lv_mem_buf_release
 2813              	.LVL351:
 421:lvgl/src/extra/layouts/grid/lv_grid.c ****     lv_mem_buf_release(calc->w);
 2814              		.loc 1 421 5 is_stmt 1 view .LVU881
 2815 000a 6068     		ldr	r0, [r4, #4]
 2816 000c FFF7FEFF 		bl	lv_mem_buf_release
 2817              	.LVL352:
 422:lvgl/src/extra/layouts/grid/lv_grid.c ****     lv_mem_buf_release(calc->h);
 2818              		.loc 1 422 5 view .LVU882
 2819 0010 A068     		ldr	r0, [r4, #8]
 2820 0012 FFF7FEFF 		bl	lv_mem_buf_release
 2821              	.LVL353:
 423:lvgl/src/extra/layouts/grid/lv_grid.c **** }
 2822              		.loc 1 423 5 view .LVU883
 2823 0016 E068     		ldr	r0, [r4, #12]
 2824 0018 FFF7FEFF 		bl	lv_mem_buf_release
 2825              	.LVL354:
 424:lvgl/src/extra/layouts/grid/lv_grid.c **** 
 2826              		.loc 1 424 1 is_stmt 0 view .LVU884
 2827 001c 10BD     		pop	{r4, pc}
 424:lvgl/src/extra/layouts/grid/lv_grid.c **** 
 2828              		.loc 1 424 1 view .LVU885
 2829              		.cfi_endproc
 2830              	.LFE213:
 2832              		.section	.text.grid_update,"ax",%progbits
 2833              		.align	1
 2834              		.syntax unified
 2835              		.thumb
 2836              		.thumb_func
 2838              	grid_update:
 2839              	.LVL355:
 2840              	.LFB211:
 338:lvgl/src/extra/layouts/grid/lv_grid.c ****     LV_LOG_INFO("update %p container", (void *)cont);
 2841              		.loc 1 338 1 is_stmt 1 view -0
 2842              		.cfi_startproc
 2843              		@ args = 0, pretend = 0, frame = 40
 2844              		@ frame_needed = 0, uses_anonymous_args = 0
 338:lvgl/src/extra/layouts/grid/lv_grid.c ****     LV_LOG_INFO("update %p container", (void *)cont);
 2845              		.loc 1 338 1 is_stmt 0 view .LVU887
ARM GAS  /var/folders/21/t9g5rlb91ys800n5npymflf80000gn/T//cce6JCY2.s 			page 93


 2846 0000 70B5     		push	{r4, r5, r6, lr}
 2847              	.LCFI24:
 2848              		.cfi_def_cfa_offset 16
 2849              		.cfi_offset 4, -16
 2850              		.cfi_offset 5, -12
 2851              		.cfi_offset 6, -8
 2852              		.cfi_offset 14, -4
 2853 0002 8AB0     		sub	sp, sp, #40
 2854              	.LCFI25:
 2855              		.cfi_def_cfa_offset 56
 2856 0004 0546     		mov	r5, r0
 339:lvgl/src/extra/layouts/grid/lv_grid.c ****     LV_UNUSED(user_data);
 2857              		.loc 1 339 5 is_stmt 1 view .LVU888
 339:lvgl/src/extra/layouts/grid/lv_grid.c ****     LV_UNUSED(user_data);
 2858              		.loc 1 339 5 view .LVU889
 339:lvgl/src/extra/layouts/grid/lv_grid.c ****     LV_UNUSED(user_data);
 2859              		.loc 1 339 5 view .LVU890
 340:lvgl/src/extra/layouts/grid/lv_grid.c **** 
 2860              		.loc 1 340 5 view .LVU891
 342:lvgl/src/extra/layouts/grid/lv_grid.c ****     const lv_coord_t * row_templ = get_row_dsc(cont);
 2861              		.loc 1 342 5 view .LVU892
 342:lvgl/src/extra/layouts/grid/lv_grid.c ****     const lv_coord_t * row_templ = get_row_dsc(cont);
 2862              		.loc 1 342 36 is_stmt 0 view .LVU893
 2863 0006 FFF7FEFF 		bl	get_col_dsc
 2864              	.LVL356:
 342:lvgl/src/extra/layouts/grid/lv_grid.c ****     const lv_coord_t * row_templ = get_row_dsc(cont);
 2865              		.loc 1 342 36 view .LVU894
 2866 000a 0446     		mov	r4, r0
 2867              	.LVL357:
 343:lvgl/src/extra/layouts/grid/lv_grid.c ****     if(col_templ == NULL || row_templ == NULL) return;
 2868              		.loc 1 343 5 is_stmt 1 view .LVU895
 343:lvgl/src/extra/layouts/grid/lv_grid.c ****     if(col_templ == NULL || row_templ == NULL) return;
 2869              		.loc 1 343 36 is_stmt 0 view .LVU896
 2870 000c 2846     		mov	r0, r5
 2871              	.LVL358:
 343:lvgl/src/extra/layouts/grid/lv_grid.c ****     if(col_templ == NULL || row_templ == NULL) return;
 2872              		.loc 1 343 36 view .LVU897
 2873 000e FFF7FEFF 		bl	get_row_dsc
 2874              	.LVL359:
 344:lvgl/src/extra/layouts/grid/lv_grid.c **** 
 2875              		.loc 1 344 5 is_stmt 1 view .LVU898
 344:lvgl/src/extra/layouts/grid/lv_grid.c **** 
 2876              		.loc 1 344 7 is_stmt 0 view .LVU899
 2877 0012 002C     		cmp	r4, #0
 2878 0014 5CD0     		beq	.L172
 344:lvgl/src/extra/layouts/grid/lv_grid.c **** 
 2879              		.loc 1 344 26 discriminator 2 view .LVU900
 2880 0016 0028     		cmp	r0, #0
 2881 0018 5AD0     		beq	.L172
 346:lvgl/src/extra/layouts/grid/lv_grid.c ****     calc(cont, &c);
 2882              		.loc 1 346 5 is_stmt 1 view .LVU901
 347:lvgl/src/extra/layouts/grid/lv_grid.c **** 
 2883              		.loc 1 347 5 view .LVU902
 2884 001a 03A9     		add	r1, sp, #12
 2885 001c 2846     		mov	r0, r5
 2886              	.LVL360:
 347:lvgl/src/extra/layouts/grid/lv_grid.c **** 
ARM GAS  /var/folders/21/t9g5rlb91ys800n5npymflf80000gn/T//cce6JCY2.s 			page 94


 2887              		.loc 1 347 5 is_stmt 0 view .LVU903
 2888 001e FFF7FEFF 		bl	calc
 2889              	.LVL361:
 349:lvgl/src/extra/layouts/grid/lv_grid.c ****     lv_memset_00(&hint, sizeof(hint));
 2890              		.loc 1 349 5 is_stmt 1 view .LVU904
 350:lvgl/src/extra/layouts/grid/lv_grid.c **** 
 2891              		.loc 1 350 5 view .LVU905
 2892 0022 0C21     		movs	r1, #12
 2893 0024 6846     		mov	r0, sp
 2894 0026 FFF7FEFF 		bl	lv_memset_00
 2895              	.LVL362:
 354:lvgl/src/extra/layouts/grid/lv_grid.c ****     lv_coord_t pad_left = lv_obj_get_style_pad_left(cont, LV_PART_MAIN) + border_widt;
 2896              		.loc 1 354 5 view .LVU906
 2897              	.LBB139:
 2898              	.LBI139:
 253:lvgl/src/extra/layouts/grid/../flex/../../../core/lv_obj_style_gen.h **** {
 2899              		.loc 3 253 26 view .LVU907
 2900              	.LBB140:
 255:lvgl/src/extra/layouts/grid/../flex/../../../core/lv_obj_style_gen.h ****     return (lv_coord_t)v.num;
 2901              		.loc 3 255 5 view .LVU908
 255:lvgl/src/extra/layouts/grid/../flex/../../../core/lv_obj_style_gen.h ****     return (lv_coord_t)v.num;
 2902              		.loc 3 255 26 is_stmt 0 view .LVU909
 2903 002a 3222     		movs	r2, #50
 2904 002c 0021     		movs	r1, #0
 2905 002e 2846     		mov	r0, r5
 2906 0030 FFF7FEFF 		bl	lv_obj_get_style_prop
 2907              	.LVL363:
 2908 0034 0646     		mov	r6, r0
 2909              	.LVL364:
 256:lvgl/src/extra/layouts/grid/../flex/../../../core/lv_obj_style_gen.h **** }
 2910              		.loc 3 256 5 is_stmt 1 view .LVU910
 256:lvgl/src/extra/layouts/grid/../flex/../../../core/lv_obj_style_gen.h **** }
 2911              		.loc 3 256 5 is_stmt 0 view .LVU911
 2912              	.LBE140:
 2913              	.LBE139:
 355:lvgl/src/extra/layouts/grid/lv_grid.c ****     lv_coord_t pad_top = lv_obj_get_style_pad_top(cont, LV_PART_MAIN) + border_widt;
 2914              		.loc 1 355 5 is_stmt 1 view .LVU912
 2915              	.LBB141:
 2916              	.LBI141:
 115:lvgl/src/extra/layouts/grid/../flex/../../../core/lv_obj_style_gen.h **** {
 2917              		.loc 3 115 26 view .LVU913
 2918              	.LBB142:
 117:lvgl/src/extra/layouts/grid/../flex/../../../core/lv_obj_style_gen.h ****     return (lv_coord_t)v.num;
 2919              		.loc 3 117 5 view .LVU914
 117:lvgl/src/extra/layouts/grid/../flex/../../../core/lv_obj_style_gen.h ****     return (lv_coord_t)v.num;
 2920              		.loc 3 117 26 is_stmt 0 view .LVU915
 2921 0036 1222     		movs	r2, #18
 2922 0038 0021     		movs	r1, #0
 2923 003a 2846     		mov	r0, r5
 2924 003c FFF7FEFF 		bl	lv_obj_get_style_prop
 2925              	.LVL365:
 118:lvgl/src/extra/layouts/grid/../flex/../../../core/lv_obj_style_gen.h **** }
 2926              		.loc 3 118 5 is_stmt 1 view .LVU916
 118:lvgl/src/extra/layouts/grid/../flex/../../../core/lv_obj_style_gen.h **** }
 2927              		.loc 3 118 5 is_stmt 0 view .LVU917
 2928              	.LBE142:
 2929              	.LBE141:
ARM GAS  /var/folders/21/t9g5rlb91ys800n5npymflf80000gn/T//cce6JCY2.s 			page 95


 355:lvgl/src/extra/layouts/grid/lv_grid.c ****     lv_coord_t pad_top = lv_obj_get_style_pad_top(cont, LV_PART_MAIN) + border_widt;
 2930              		.loc 1 355 73 view .LVU918
 2931 0040 B6B2     		uxth	r6, r6
 355:lvgl/src/extra/layouts/grid/lv_grid.c ****     lv_coord_t pad_top = lv_obj_get_style_pad_top(cont, LV_PART_MAIN) + border_widt;
 2932              		.loc 1 355 73 view .LVU919
 2933 0042 16FA80F4 		uxtah	r4, r6, r0
 2934              	.LVL366:
 355:lvgl/src/extra/layouts/grid/lv_grid.c ****     lv_coord_t pad_top = lv_obj_get_style_pad_top(cont, LV_PART_MAIN) + border_widt;
 2935              		.loc 1 355 73 view .LVU920
 2936 0046 A4B2     		uxth	r4, r4
 2937              	.LVL367:
 356:lvgl/src/extra/layouts/grid/lv_grid.c ****     hint.grid_abs.x = pad_left + cont->coords.x1 - lv_obj_get_scroll_x(cont);
 2938              		.loc 1 356 5 is_stmt 1 view .LVU921
 2939              	.LBB143:
 2940              	.LBI143:
 103:lvgl/src/extra/layouts/grid/../flex/../../../core/lv_obj_style_gen.h **** {
 2941              		.loc 3 103 26 view .LVU922
 2942              	.LBB144:
 105:lvgl/src/extra/layouts/grid/../flex/../../../core/lv_obj_style_gen.h ****     return (lv_coord_t)v.num;
 2943              		.loc 3 105 5 view .LVU923
 105:lvgl/src/extra/layouts/grid/../flex/../../../core/lv_obj_style_gen.h ****     return (lv_coord_t)v.num;
 2944              		.loc 3 105 26 is_stmt 0 view .LVU924
 2945 0048 1022     		movs	r2, #16
 2946 004a 0021     		movs	r1, #0
 2947 004c 2846     		mov	r0, r5
 2948 004e FFF7FEFF 		bl	lv_obj_get_style_prop
 2949              	.LVL368:
 106:lvgl/src/extra/layouts/grid/../flex/../../../core/lv_obj_style_gen.h **** }
 2950              		.loc 3 106 5 is_stmt 1 view .LVU925
 106:lvgl/src/extra/layouts/grid/../flex/../../../core/lv_obj_style_gen.h **** }
 2951              		.loc 3 106 5 is_stmt 0 view .LVU926
 2952              	.LBE144:
 2953              	.LBE143:
 356:lvgl/src/extra/layouts/grid/lv_grid.c ****     hint.grid_abs.x = pad_left + cont->coords.x1 - lv_obj_get_scroll_x(cont);
 2954              		.loc 1 356 71 view .LVU927
 2955 0052 16FA80F6 		uxtah	r6, r6, r0
 2956              	.LVL369:
 356:lvgl/src/extra/layouts/grid/lv_grid.c ****     hint.grid_abs.x = pad_left + cont->coords.x1 - lv_obj_get_scroll_x(cont);
 2957              		.loc 1 356 71 view .LVU928
 2958 0056 B6B2     		uxth	r6, r6
 2959              	.LVL370:
 357:lvgl/src/extra/layouts/grid/lv_grid.c ****     hint.grid_abs.y = pad_top + cont->coords.y1 - lv_obj_get_scroll_y(cont);
 2960              		.loc 1 357 5 is_stmt 1 view .LVU929
 357:lvgl/src/extra/layouts/grid/lv_grid.c ****     hint.grid_abs.y = pad_top + cont->coords.y1 - lv_obj_get_scroll_y(cont);
 2961              		.loc 1 357 46 is_stmt 0 view .LVU930
 2962 0058 AB8A     		ldrh	r3, [r5, #20]
 357:lvgl/src/extra/layouts/grid/lv_grid.c ****     hint.grid_abs.y = pad_top + cont->coords.y1 - lv_obj_get_scroll_y(cont);
 2963              		.loc 1 357 32 view .LVU931
 2964 005a 1C44     		add	r4, r4, r3
 2965              	.LVL371:
 357:lvgl/src/extra/layouts/grid/lv_grid.c ****     hint.grid_abs.y = pad_top + cont->coords.y1 - lv_obj_get_scroll_y(cont);
 2966              		.loc 1 357 32 view .LVU932
 2967 005c A4B2     		uxth	r4, r4
 357:lvgl/src/extra/layouts/grid/lv_grid.c ****     hint.grid_abs.y = pad_top + cont->coords.y1 - lv_obj_get_scroll_y(cont);
 2968              		.loc 1 357 52 view .LVU933
 2969 005e 2846     		mov	r0, r5
 2970 0060 FFF7FEFF 		bl	lv_obj_get_scroll_x
ARM GAS  /var/folders/21/t9g5rlb91ys800n5npymflf80000gn/T//cce6JCY2.s 			page 96


 2971              	.LVL372:
 2972 0064 80B2     		uxth	r0, r0
 357:lvgl/src/extra/layouts/grid/lv_grid.c ****     hint.grid_abs.y = pad_top + cont->coords.y1 - lv_obj_get_scroll_y(cont);
 2973              		.loc 1 357 50 view .LVU934
 2974 0066 241A     		subs	r4, r4, r0
 357:lvgl/src/extra/layouts/grid/lv_grid.c ****     hint.grid_abs.y = pad_top + cont->coords.y1 - lv_obj_get_scroll_y(cont);
 2975              		.loc 1 357 21 view .LVU935
 2976 0068 ADF80840 		strh	r4, [sp, #8]	@ movhi
 358:lvgl/src/extra/layouts/grid/lv_grid.c **** 
 2977              		.loc 1 358 5 is_stmt 1 view .LVU936
 358:lvgl/src/extra/layouts/grid/lv_grid.c **** 
 2978              		.loc 1 358 45 is_stmt 0 view .LVU937
 2979 006c EB8A     		ldrh	r3, [r5, #22]
 358:lvgl/src/extra/layouts/grid/lv_grid.c **** 
 2980              		.loc 1 358 31 view .LVU938
 2981 006e F418     		adds	r4, r6, r3
 2982 0070 A4B2     		uxth	r4, r4
 358:lvgl/src/extra/layouts/grid/lv_grid.c **** 
 2983              		.loc 1 358 51 view .LVU939
 2984 0072 2846     		mov	r0, r5
 2985 0074 FFF7FEFF 		bl	lv_obj_get_scroll_y
 2986              	.LVL373:
 2987 0078 80B2     		uxth	r0, r0
 358:lvgl/src/extra/layouts/grid/lv_grid.c **** 
 2988              		.loc 1 358 49 view .LVU940
 2989 007a 241A     		subs	r4, r4, r0
 358:lvgl/src/extra/layouts/grid/lv_grid.c **** 
 2990              		.loc 1 358 21 view .LVU941
 2991 007c ADF80A40 		strh	r4, [sp, #10]	@ movhi
 360:lvgl/src/extra/layouts/grid/lv_grid.c ****     for(i = 0; i < cont->spec_attr->child_cnt; i++) {
 2992              		.loc 1 360 5 is_stmt 1 view .LVU942
 361:lvgl/src/extra/layouts/grid/lv_grid.c ****         lv_obj_t * item = cont->spec_attr->children[i];
 2993              		.loc 1 361 5 view .LVU943
 2994              	.LVL374:
 361:lvgl/src/extra/layouts/grid/lv_grid.c ****         lv_obj_t * item = cont->spec_attr->children[i];
 2995              		.loc 1 361 11 is_stmt 0 view .LVU944
 2996 0080 0024     		movs	r4, #0
 361:lvgl/src/extra/layouts/grid/lv_grid.c ****         lv_obj_t * item = cont->spec_attr->children[i];
 2997              		.loc 1 361 5 view .LVU945
 2998 0082 07E0     		b	.L176
 2999              	.LVL375:
 3000              	.L177:
 3001              	.LBB145:
 362:lvgl/src/extra/layouts/grid/lv_grid.c ****         item_repos(item, &c, &hint);
 3002              		.loc 1 362 9 is_stmt 1 discriminator 3 view .LVU946
 362:lvgl/src/extra/layouts/grid/lv_grid.c ****         item_repos(item, &c, &hint);
 3003              		.loc 1 362 42 is_stmt 0 discriminator 3 view .LVU947
 3004 0084 1B68     		ldr	r3, [r3]
 3005              	.LVL376:
 363:lvgl/src/extra/layouts/grid/lv_grid.c ****     }
 3006              		.loc 1 363 9 is_stmt 1 discriminator 3 view .LVU948
 3007 0086 6A46     		mov	r2, sp
 3008 0088 03A9     		add	r1, sp, #12
 3009 008a 53F82400 		ldr	r0, [r3, r4, lsl #2]
 3010 008e FFF7FEFF 		bl	item_repos
 3011              	.LVL377:
 363:lvgl/src/extra/layouts/grid/lv_grid.c ****     }
ARM GAS  /var/folders/21/t9g5rlb91ys800n5npymflf80000gn/T//cce6JCY2.s 			page 97


 3012              		.loc 1 363 9 is_stmt 0 discriminator 3 view .LVU949
 3013              	.LBE145:
 361:lvgl/src/extra/layouts/grid/lv_grid.c ****         lv_obj_t * item = cont->spec_attr->children[i];
 3014              		.loc 1 361 49 is_stmt 1 discriminator 3 view .LVU950
 3015 0092 0134     		adds	r4, r4, #1
 3016              	.LVL378:
 3017              	.L176:
 361:lvgl/src/extra/layouts/grid/lv_grid.c ****         lv_obj_t * item = cont->spec_attr->children[i];
 3018              		.loc 1 361 18 discriminator 1 view .LVU951
 361:lvgl/src/extra/layouts/grid/lv_grid.c ****         lv_obj_t * item = cont->spec_attr->children[i];
 3019              		.loc 1 361 24 is_stmt 0 discriminator 1 view .LVU952
 3020 0094 AB68     		ldr	r3, [r5, #8]
 361:lvgl/src/extra/layouts/grid/lv_grid.c ****         lv_obj_t * item = cont->spec_attr->children[i];
 3021              		.loc 1 361 35 discriminator 1 view .LVU953
 3022 0096 5A68     		ldr	r2, [r3, #4]
 361:lvgl/src/extra/layouts/grid/lv_grid.c ****         lv_obj_t * item = cont->spec_attr->children[i];
 3023              		.loc 1 361 18 discriminator 1 view .LVU954
 3024 0098 A242     		cmp	r2, r4
 3025 009a F3D8     		bhi	.L177
 365:lvgl/src/extra/layouts/grid/lv_grid.c **** 
 3026              		.loc 1 365 5 is_stmt 1 view .LVU955
 3027 009c 03A8     		add	r0, sp, #12
 3028 009e FFF7FEFF 		bl	calc_free
 3029              	.LVL379:
 367:lvgl/src/extra/layouts/grid/lv_grid.c ****     lv_coord_t h_set = lv_obj_get_style_height(cont, LV_PART_MAIN);
 3030              		.loc 1 367 5 view .LVU956
 3031              	.LBB146:
 3032              	.LBI146:
   1:lvgl/src/extra/layouts/grid/../flex/../../../core/lv_obj_style_gen.h **** {
 3033              		.loc 3 1 26 view .LVU957
 3034              	.LBB147:
   3:lvgl/src/extra/layouts/grid/../flex/../../../core/lv_obj_style_gen.h ****     return (lv_coord_t)v.num;
 3035              		.loc 3 3 5 view .LVU958
   3:lvgl/src/extra/layouts/grid/../flex/../../../core/lv_obj_style_gen.h ****     return (lv_coord_t)v.num;
 3036              		.loc 3 3 26 is_stmt 0 view .LVU959
 3037 00a2 0122     		movs	r2, #1
 3038 00a4 0021     		movs	r1, #0
 3039 00a6 2846     		mov	r0, r5
 3040 00a8 FFF7FEFF 		bl	lv_obj_get_style_prop
 3041              	.LVL380:
   4:lvgl/src/extra/layouts/grid/../flex/../../../core/lv_obj_style_gen.h **** }
 3042              		.loc 3 4 5 is_stmt 1 view .LVU960
   4:lvgl/src/extra/layouts/grid/../flex/../../../core/lv_obj_style_gen.h **** }
 3043              		.loc 3 4 12 is_stmt 0 view .LVU961
 3044 00ac 04B2     		sxth	r4, r0
 3045              	.LVL381:
   4:lvgl/src/extra/layouts/grid/../flex/../../../core/lv_obj_style_gen.h **** }
 3046              		.loc 3 4 12 view .LVU962
 3047              	.LBE147:
 3048              	.LBE146:
 368:lvgl/src/extra/layouts/grid/lv_grid.c ****     if(w_set == LV_SIZE_CONTENT || h_set == LV_SIZE_CONTENT) {
 3049              		.loc 1 368 5 is_stmt 1 view .LVU963
 3050              	.LBB148:
 3051              	.LBI148:
  19:lvgl/src/extra/layouts/grid/../flex/../../../core/lv_obj_style_gen.h **** {
 3052              		.loc 3 19 26 view .LVU964
 3053              	.LBB149:
ARM GAS  /var/folders/21/t9g5rlb91ys800n5npymflf80000gn/T//cce6JCY2.s 			page 98


  21:lvgl/src/extra/layouts/grid/../flex/../../../core/lv_obj_style_gen.h ****     return (lv_coord_t)v.num;
 3054              		.loc 3 21 5 view .LVU965
  21:lvgl/src/extra/layouts/grid/../flex/../../../core/lv_obj_style_gen.h ****     return (lv_coord_t)v.num;
 3055              		.loc 3 21 26 is_stmt 0 view .LVU966
 3056 00ae 0422     		movs	r2, #4
 3057 00b0 0021     		movs	r1, #0
 3058 00b2 2846     		mov	r0, r5
 3059 00b4 FFF7FEFF 		bl	lv_obj_get_style_prop
 3060              	.LVL382:
  22:lvgl/src/extra/layouts/grid/../flex/../../../core/lv_obj_style_gen.h **** }
 3061              		.loc 3 22 5 is_stmt 1 view .LVU967
  22:lvgl/src/extra/layouts/grid/../flex/../../../core/lv_obj_style_gen.h **** }
 3062              		.loc 3 22 12 is_stmt 0 view .LVU968
 3063 00b8 00B2     		sxth	r0, r0
 3064              	.LVL383:
  22:lvgl/src/extra/layouts/grid/../flex/../../../core/lv_obj_style_gen.h **** }
 3065              		.loc 3 22 12 view .LVU969
 3066              	.LBE149:
 3067              	.LBE148:
 369:lvgl/src/extra/layouts/grid/lv_grid.c ****         lv_obj_refr_size(cont);
 3068              		.loc 1 369 5 is_stmt 1 view .LVU970
 369:lvgl/src/extra/layouts/grid/lv_grid.c ****         lv_obj_refr_size(cont);
 3069              		.loc 1 369 7 is_stmt 0 view .LVU971
 3070 00ba 42F2D173 		movw	r3, #10193
 3071 00be 9C42     		cmp	r4, r3
 3072 00c0 08D0     		beq	.L178
 369:lvgl/src/extra/layouts/grid/lv_grid.c ****         lv_obj_refr_size(cont);
 3073              		.loc 1 369 33 discriminator 1 view .LVU972
 3074 00c2 9842     		cmp	r0, r3
 3075 00c4 06D0     		beq	.L178
 3076              	.LVL384:
 3077              	.L179:
 373:lvgl/src/extra/layouts/grid/lv_grid.c **** 
 3078              		.loc 1 373 5 is_stmt 1 view .LVU973
 3079 00c6 0022     		movs	r2, #0
 3080 00c8 2B21     		movs	r1, #43
 3081 00ca 2846     		mov	r0, r5
 3082 00cc FFF7FEFF 		bl	lv_event_send
 3083              	.LVL385:
 375:lvgl/src/extra/layouts/grid/lv_grid.c **** }
 3084              		.loc 1 375 32 view .LVU974
 3085              	.L172:
 376:lvgl/src/extra/layouts/grid/lv_grid.c **** 
 3086              		.loc 1 376 1 is_stmt 0 view .LVU975
 3087 00d0 0AB0     		add	sp, sp, #40
 3088              	.LCFI26:
 3089              		.cfi_remember_state
 3090              		.cfi_def_cfa_offset 16
 3091              		@ sp needed
 3092 00d2 70BD     		pop	{r4, r5, r6, pc}
 3093              	.LVL386:
 3094              	.L178:
 3095              	.LCFI27:
 3096              		.cfi_restore_state
 370:lvgl/src/extra/layouts/grid/lv_grid.c ****     }
 3097              		.loc 1 370 9 is_stmt 1 view .LVU976
 3098 00d4 2846     		mov	r0, r5
ARM GAS  /var/folders/21/t9g5rlb91ys800n5npymflf80000gn/T//cce6JCY2.s 			page 99


 3099              	.LVL387:
 370:lvgl/src/extra/layouts/grid/lv_grid.c ****     }
 3100              		.loc 1 370 9 is_stmt 0 view .LVU977
 3101 00d6 FFF7FEFF 		bl	lv_obj_refr_size
 3102              	.LVL388:
 3103 00da F4E7     		b	.L179
 3104              		.cfi_endproc
 3105              	.LFE211:
 3107              		.section	.text.lv_grid_init,"ax",%progbits
 3108              		.align	1
 3109              		.global	lv_grid_init
 3110              		.syntax unified
 3111              		.thumb
 3112              		.thumb_func
 3114              	lv_grid_init:
 3115              	.LFB187:
 129:lvgl/src/extra/layouts/grid/lv_grid.c ****     LV_LAYOUT_GRID = lv_layout_register(grid_update, NULL);
 3116              		.loc 1 129 1 is_stmt 1 view -0
 3117              		.cfi_startproc
 3118              		@ args = 0, pretend = 0, frame = 0
 3119              		@ frame_needed = 0, uses_anonymous_args = 0
 3120 0000 08B5     		push	{r3, lr}
 3121              	.LCFI28:
 3122              		.cfi_def_cfa_offset 8
 3123              		.cfi_offset 3, -8
 3124              		.cfi_offset 14, -4
 130:lvgl/src/extra/layouts/grid/lv_grid.c **** 
 3125              		.loc 1 130 5 view .LVU979
 130:lvgl/src/extra/layouts/grid/lv_grid.c **** 
 3126              		.loc 1 130 22 is_stmt 0 view .LVU980
 3127 0002 0021     		movs	r1, #0
 3128 0004 1B48     		ldr	r0, .L183
 3129 0006 FFF7FEFF 		bl	lv_layout_register
 3130              	.LVL389:
 130:lvgl/src/extra/layouts/grid/lv_grid.c **** 
 3131              		.loc 1 130 20 view .LVU981
 3132 000a 1B4B     		ldr	r3, .L183+4
 3133 000c 1880     		strh	r0, [r3]	@ movhi
 132:lvgl/src/extra/layouts/grid/lv_grid.c ****     LV_STYLE_GRID_ROW_DSC_ARRAY = lv_style_register_prop(LV_STYLE_PROP_LAYOUT_REFR);
 3134              		.loc 1 132 5 is_stmt 1 view .LVU982
 132:lvgl/src/extra/layouts/grid/lv_grid.c ****     LV_STYLE_GRID_ROW_DSC_ARRAY = lv_style_register_prop(LV_STYLE_PROP_LAYOUT_REFR);
 3135              		.loc 1 132 38 is_stmt 0 view .LVU983
 3136 000e 0420     		movs	r0, #4
 3137 0010 FFF7FEFF 		bl	lv_style_register_prop
 3138              	.LVL390:
 132:lvgl/src/extra/layouts/grid/lv_grid.c ****     LV_STYLE_GRID_ROW_DSC_ARRAY = lv_style_register_prop(LV_STYLE_PROP_LAYOUT_REFR);
 3139              		.loc 1 132 36 view .LVU984
 3140 0014 194B     		ldr	r3, .L183+8
 3141 0016 1880     		strh	r0, [r3]	@ movhi
 133:lvgl/src/extra/layouts/grid/lv_grid.c ****     LV_STYLE_GRID_COLUMN_ALIGN = lv_style_register_prop(LV_STYLE_PROP_LAYOUT_REFR);
 3142              		.loc 1 133 5 is_stmt 1 view .LVU985
 133:lvgl/src/extra/layouts/grid/lv_grid.c ****     LV_STYLE_GRID_COLUMN_ALIGN = lv_style_register_prop(LV_STYLE_PROP_LAYOUT_REFR);
 3143              		.loc 1 133 35 is_stmt 0 view .LVU986
 3144 0018 0420     		movs	r0, #4
 3145 001a FFF7FEFF 		bl	lv_style_register_prop
 3146              	.LVL391:
 133:lvgl/src/extra/layouts/grid/lv_grid.c ****     LV_STYLE_GRID_COLUMN_ALIGN = lv_style_register_prop(LV_STYLE_PROP_LAYOUT_REFR);
ARM GAS  /var/folders/21/t9g5rlb91ys800n5npymflf80000gn/T//cce6JCY2.s 			page 100


 3147              		.loc 1 133 33 view .LVU987
 3148 001e 184B     		ldr	r3, .L183+12
 3149 0020 1880     		strh	r0, [r3]	@ movhi
 134:lvgl/src/extra/layouts/grid/lv_grid.c ****     LV_STYLE_GRID_ROW_ALIGN = lv_style_register_prop(LV_STYLE_PROP_LAYOUT_REFR);
 3150              		.loc 1 134 5 is_stmt 1 view .LVU988
 134:lvgl/src/extra/layouts/grid/lv_grid.c ****     LV_STYLE_GRID_ROW_ALIGN = lv_style_register_prop(LV_STYLE_PROP_LAYOUT_REFR);
 3151              		.loc 1 134 34 is_stmt 0 view .LVU989
 3152 0022 0420     		movs	r0, #4
 3153 0024 FFF7FEFF 		bl	lv_style_register_prop
 3154              	.LVL392:
 134:lvgl/src/extra/layouts/grid/lv_grid.c ****     LV_STYLE_GRID_ROW_ALIGN = lv_style_register_prop(LV_STYLE_PROP_LAYOUT_REFR);
 3155              		.loc 1 134 32 view .LVU990
 3156 0028 164B     		ldr	r3, .L183+16
 3157 002a 1880     		strh	r0, [r3]	@ movhi
 135:lvgl/src/extra/layouts/grid/lv_grid.c **** 
 3158              		.loc 1 135 5 is_stmt 1 view .LVU991
 135:lvgl/src/extra/layouts/grid/lv_grid.c **** 
 3159              		.loc 1 135 31 is_stmt 0 view .LVU992
 3160 002c 0420     		movs	r0, #4
 3161 002e FFF7FEFF 		bl	lv_style_register_prop
 3162              	.LVL393:
 135:lvgl/src/extra/layouts/grid/lv_grid.c **** 
 3163              		.loc 1 135 29 view .LVU993
 3164 0032 154B     		ldr	r3, .L183+20
 3165 0034 1880     		strh	r0, [r3]	@ movhi
 137:lvgl/src/extra/layouts/grid/lv_grid.c ****     LV_STYLE_GRID_CELL_ROW_POS = lv_style_register_prop(LV_STYLE_PROP_LAYOUT_REFR);
 3166              		.loc 1 137 5 is_stmt 1 view .LVU994
 137:lvgl/src/extra/layouts/grid/lv_grid.c ****     LV_STYLE_GRID_CELL_ROW_POS = lv_style_register_prop(LV_STYLE_PROP_LAYOUT_REFR);
 3167              		.loc 1 137 35 is_stmt 0 view .LVU995
 3168 0036 0420     		movs	r0, #4
 3169 0038 FFF7FEFF 		bl	lv_style_register_prop
 3170              	.LVL394:
 137:lvgl/src/extra/layouts/grid/lv_grid.c ****     LV_STYLE_GRID_CELL_ROW_POS = lv_style_register_prop(LV_STYLE_PROP_LAYOUT_REFR);
 3171              		.loc 1 137 33 view .LVU996
 3172 003c 134B     		ldr	r3, .L183+24
 3173 003e 1880     		strh	r0, [r3]	@ movhi
 138:lvgl/src/extra/layouts/grid/lv_grid.c ****     LV_STYLE_GRID_CELL_COLUMN_SPAN = lv_style_register_prop(LV_STYLE_PROP_LAYOUT_REFR);
 3174              		.loc 1 138 5 is_stmt 1 view .LVU997
 138:lvgl/src/extra/layouts/grid/lv_grid.c ****     LV_STYLE_GRID_CELL_COLUMN_SPAN = lv_style_register_prop(LV_STYLE_PROP_LAYOUT_REFR);
 3175              		.loc 1 138 34 is_stmt 0 view .LVU998
 3176 0040 0420     		movs	r0, #4
 3177 0042 FFF7FEFF 		bl	lv_style_register_prop
 3178              	.LVL395:
 138:lvgl/src/extra/layouts/grid/lv_grid.c ****     LV_STYLE_GRID_CELL_COLUMN_SPAN = lv_style_register_prop(LV_STYLE_PROP_LAYOUT_REFR);
 3179              		.loc 1 138 32 view .LVU999
 3180 0046 124B     		ldr	r3, .L183+28
 3181 0048 1880     		strh	r0, [r3]	@ movhi
 139:lvgl/src/extra/layouts/grid/lv_grid.c ****     LV_STYLE_GRID_CELL_COLUMN_POS = lv_style_register_prop(LV_STYLE_PROP_LAYOUT_REFR);
 3182              		.loc 1 139 5 is_stmt 1 view .LVU1000
 139:lvgl/src/extra/layouts/grid/lv_grid.c ****     LV_STYLE_GRID_CELL_COLUMN_POS = lv_style_register_prop(LV_STYLE_PROP_LAYOUT_REFR);
 3183              		.loc 1 139 38 is_stmt 0 view .LVU1001
 3184 004a 0420     		movs	r0, #4
 3185 004c FFF7FEFF 		bl	lv_style_register_prop
 3186              	.LVL396:
 139:lvgl/src/extra/layouts/grid/lv_grid.c ****     LV_STYLE_GRID_CELL_COLUMN_POS = lv_style_register_prop(LV_STYLE_PROP_LAYOUT_REFR);
 3187              		.loc 1 139 36 view .LVU1002
 3188 0050 104B     		ldr	r3, .L183+32
ARM GAS  /var/folders/21/t9g5rlb91ys800n5npymflf80000gn/T//cce6JCY2.s 			page 101


 3189 0052 1880     		strh	r0, [r3]	@ movhi
 140:lvgl/src/extra/layouts/grid/lv_grid.c ****     LV_STYLE_GRID_CELL_X_ALIGN = lv_style_register_prop(LV_STYLE_PROP_LAYOUT_REFR);
 3190              		.loc 1 140 5 is_stmt 1 view .LVU1003
 140:lvgl/src/extra/layouts/grid/lv_grid.c ****     LV_STYLE_GRID_CELL_X_ALIGN = lv_style_register_prop(LV_STYLE_PROP_LAYOUT_REFR);
 3191              		.loc 1 140 37 is_stmt 0 view .LVU1004
 3192 0054 0420     		movs	r0, #4
 3193 0056 FFF7FEFF 		bl	lv_style_register_prop
 3194              	.LVL397:
 140:lvgl/src/extra/layouts/grid/lv_grid.c ****     LV_STYLE_GRID_CELL_X_ALIGN = lv_style_register_prop(LV_STYLE_PROP_LAYOUT_REFR);
 3195              		.loc 1 140 35 view .LVU1005
 3196 005a 0F4B     		ldr	r3, .L183+36
 3197 005c 1880     		strh	r0, [r3]	@ movhi
 141:lvgl/src/extra/layouts/grid/lv_grid.c ****     LV_STYLE_GRID_CELL_Y_ALIGN = lv_style_register_prop(LV_STYLE_PROP_LAYOUT_REFR);
 3198              		.loc 1 141 5 is_stmt 1 view .LVU1006
 141:lvgl/src/extra/layouts/grid/lv_grid.c ****     LV_STYLE_GRID_CELL_Y_ALIGN = lv_style_register_prop(LV_STYLE_PROP_LAYOUT_REFR);
 3199              		.loc 1 141 34 is_stmt 0 view .LVU1007
 3200 005e 0420     		movs	r0, #4
 3201 0060 FFF7FEFF 		bl	lv_style_register_prop
 3202              	.LVL398:
 141:lvgl/src/extra/layouts/grid/lv_grid.c ****     LV_STYLE_GRID_CELL_Y_ALIGN = lv_style_register_prop(LV_STYLE_PROP_LAYOUT_REFR);
 3203              		.loc 1 141 32 view .LVU1008
 3204 0064 0D4B     		ldr	r3, .L183+40
 3205 0066 1880     		strh	r0, [r3]	@ movhi
 142:lvgl/src/extra/layouts/grid/lv_grid.c **** }
 3206              		.loc 1 142 5 is_stmt 1 view .LVU1009
 142:lvgl/src/extra/layouts/grid/lv_grid.c **** }
 3207              		.loc 1 142 34 is_stmt 0 view .LVU1010
 3208 0068 0420     		movs	r0, #4
 3209 006a FFF7FEFF 		bl	lv_style_register_prop
 3210              	.LVL399:
 142:lvgl/src/extra/layouts/grid/lv_grid.c **** }
 3211              		.loc 1 142 32 view .LVU1011
 3212 006e 0C4B     		ldr	r3, .L183+44
 3213 0070 1880     		strh	r0, [r3]	@ movhi
 143:lvgl/src/extra/layouts/grid/lv_grid.c **** 
 3214              		.loc 1 143 1 view .LVU1012
 3215 0072 08BD     		pop	{r3, pc}
 3216              	.L184:
 3217              		.align	2
 3218              	.L183:
 3219 0074 00000000 		.word	grid_update
 3220 0078 00000000 		.word	LV_LAYOUT_GRID
 3221 007c 00000000 		.word	LV_STYLE_GRID_COLUMN_DSC_ARRAY
 3222 0080 00000000 		.word	LV_STYLE_GRID_ROW_DSC_ARRAY
 3223 0084 00000000 		.word	LV_STYLE_GRID_COLUMN_ALIGN
 3224 0088 00000000 		.word	LV_STYLE_GRID_ROW_ALIGN
 3225 008c 00000000 		.word	LV_STYLE_GRID_CELL_ROW_SPAN
 3226 0090 00000000 		.word	LV_STYLE_GRID_CELL_ROW_POS
 3227 0094 00000000 		.word	LV_STYLE_GRID_CELL_COLUMN_SPAN
 3228 0098 00000000 		.word	LV_STYLE_GRID_CELL_COLUMN_POS
 3229 009c 00000000 		.word	LV_STYLE_GRID_CELL_X_ALIGN
 3230 00a0 00000000 		.word	LV_STYLE_GRID_CELL_Y_ALIGN
 3231              		.cfi_endproc
 3232              	.LFE187:
 3234              		.section	.text.lv_style_set_grid_row_dsc_array,"ax",%progbits
 3235              		.align	1
 3236              		.global	lv_style_set_grid_row_dsc_array
ARM GAS  /var/folders/21/t9g5rlb91ys800n5npymflf80000gn/T//cce6JCY2.s 			page 102


 3237              		.syntax unified
 3238              		.thumb
 3239              		.thumb_func
 3241              	lv_style_set_grid_row_dsc_array:
 3242              	.LVL400:
 3243              	.LFB191:
 174:lvgl/src/extra/layouts/grid/lv_grid.c ****     lv_style_value_t v = {
 3244              		.loc 1 174 1 is_stmt 1 view -0
 3245              		.cfi_startproc
 3246              		@ args = 0, pretend = 0, frame = 0
 3247              		@ frame_needed = 0, uses_anonymous_args = 0
 174:lvgl/src/extra/layouts/grid/lv_grid.c ****     lv_style_value_t v = {
 3248              		.loc 1 174 1 is_stmt 0 view .LVU1014
 3249 0000 08B5     		push	{r3, lr}
 3250              	.LCFI29:
 3251              		.cfi_def_cfa_offset 8
 3252              		.cfi_offset 3, -8
 3253              		.cfi_offset 14, -4
 3254 0002 0A46     		mov	r2, r1
 175:lvgl/src/extra/layouts/grid/lv_grid.c ****         .ptr = (const void *)value
 3255              		.loc 1 175 5 is_stmt 1 view .LVU1015
 178:lvgl/src/extra/layouts/grid/lv_grid.c **** }
 3256              		.loc 1 178 5 view .LVU1016
 3257 0004 024B     		ldr	r3, .L187
 3258 0006 1988     		ldrh	r1, [r3]
 3259              	.LVL401:
 178:lvgl/src/extra/layouts/grid/lv_grid.c **** }
 3260              		.loc 1 178 5 is_stmt 0 view .LVU1017
 3261 0008 FFF7FEFF 		bl	lv_style_set_prop
 3262              	.LVL402:
 179:lvgl/src/extra/layouts/grid/lv_grid.c **** 
 3263              		.loc 1 179 1 view .LVU1018
 3264 000c 08BD     		pop	{r3, pc}
 3265              	.L188:
 3266 000e 00BF     		.align	2
 3267              	.L187:
 3268 0010 00000000 		.word	LV_STYLE_GRID_ROW_DSC_ARRAY
 3269              		.cfi_endproc
 3270              	.LFE191:
 3272              		.section	.text.lv_style_set_grid_column_dsc_array,"ax",%progbits
 3273              		.align	1
 3274              		.global	lv_style_set_grid_column_dsc_array
 3275              		.syntax unified
 3276              		.thumb
 3277              		.thumb_func
 3279              	lv_style_set_grid_column_dsc_array:
 3280              	.LVL403:
 3281              	.LFB192:
 182:lvgl/src/extra/layouts/grid/lv_grid.c ****     lv_style_value_t v = {
 3282              		.loc 1 182 1 is_stmt 1 view -0
 3283              		.cfi_startproc
 3284              		@ args = 0, pretend = 0, frame = 0
 3285              		@ frame_needed = 0, uses_anonymous_args = 0
 182:lvgl/src/extra/layouts/grid/lv_grid.c ****     lv_style_value_t v = {
 3286              		.loc 1 182 1 is_stmt 0 view .LVU1020
 3287 0000 08B5     		push	{r3, lr}
 3288              	.LCFI30:
ARM GAS  /var/folders/21/t9g5rlb91ys800n5npymflf80000gn/T//cce6JCY2.s 			page 103


 3289              		.cfi_def_cfa_offset 8
 3290              		.cfi_offset 3, -8
 3291              		.cfi_offset 14, -4
 3292 0002 0A46     		mov	r2, r1
 183:lvgl/src/extra/layouts/grid/lv_grid.c ****         .ptr = (const void *)value
 3293              		.loc 1 183 5 is_stmt 1 view .LVU1021
 186:lvgl/src/extra/layouts/grid/lv_grid.c **** }
 3294              		.loc 1 186 5 view .LVU1022
 3295 0004 024B     		ldr	r3, .L191
 3296 0006 1988     		ldrh	r1, [r3]
 3297              	.LVL404:
 186:lvgl/src/extra/layouts/grid/lv_grid.c **** }
 3298              		.loc 1 186 5 is_stmt 0 view .LVU1023
 3299 0008 FFF7FEFF 		bl	lv_style_set_prop
 3300              	.LVL405:
 187:lvgl/src/extra/layouts/grid/lv_grid.c **** 
 3301              		.loc 1 187 1 view .LVU1024
 3302 000c 08BD     		pop	{r3, pc}
 3303              	.L192:
 3304 000e 00BF     		.align	2
 3305              	.L191:
 3306 0010 00000000 		.word	LV_STYLE_GRID_COLUMN_DSC_ARRAY
 3307              		.cfi_endproc
 3308              	.LFE192:
 3310              		.section	.text.lv_style_set_grid_row_align,"ax",%progbits
 3311              		.align	1
 3312              		.global	lv_style_set_grid_row_align
 3313              		.syntax unified
 3314              		.thumb
 3315              		.thumb_func
 3317              	lv_style_set_grid_row_align:
 3318              	.LVL406:
 3319              	.LFB193:
 190:lvgl/src/extra/layouts/grid/lv_grid.c ****     lv_style_value_t v = {
 3320              		.loc 1 190 1 is_stmt 1 view -0
 3321              		.cfi_startproc
 3322              		@ args = 0, pretend = 0, frame = 0
 3323              		@ frame_needed = 0, uses_anonymous_args = 0
 190:lvgl/src/extra/layouts/grid/lv_grid.c ****     lv_style_value_t v = {
 3324              		.loc 1 190 1 is_stmt 0 view .LVU1026
 3325 0000 08B5     		push	{r3, lr}
 3326              	.LCFI31:
 3327              		.cfi_def_cfa_offset 8
 3328              		.cfi_offset 3, -8
 3329              		.cfi_offset 14, -4
 3330 0002 0A46     		mov	r2, r1
 191:lvgl/src/extra/layouts/grid/lv_grid.c ****         .num = (lv_grid_align_t)value
 3331              		.loc 1 191 5 is_stmt 1 view .LVU1027
 194:lvgl/src/extra/layouts/grid/lv_grid.c **** }
 3332              		.loc 1 194 5 view .LVU1028
 3333 0004 024B     		ldr	r3, .L195
 3334 0006 1988     		ldrh	r1, [r3]
 3335              	.LVL407:
 194:lvgl/src/extra/layouts/grid/lv_grid.c **** }
 3336              		.loc 1 194 5 is_stmt 0 view .LVU1029
 3337 0008 FFF7FEFF 		bl	lv_style_set_prop
 3338              	.LVL408:
ARM GAS  /var/folders/21/t9g5rlb91ys800n5npymflf80000gn/T//cce6JCY2.s 			page 104


 195:lvgl/src/extra/layouts/grid/lv_grid.c **** 
 3339              		.loc 1 195 1 view .LVU1030
 3340 000c 08BD     		pop	{r3, pc}
 3341              	.L196:
 3342 000e 00BF     		.align	2
 3343              	.L195:
 3344 0010 00000000 		.word	LV_STYLE_GRID_ROW_ALIGN
 3345              		.cfi_endproc
 3346              	.LFE193:
 3348              		.section	.text.lv_style_set_grid_column_align,"ax",%progbits
 3349              		.align	1
 3350              		.global	lv_style_set_grid_column_align
 3351              		.syntax unified
 3352              		.thumb
 3353              		.thumb_func
 3355              	lv_style_set_grid_column_align:
 3356              	.LVL409:
 3357              	.LFB194:
 198:lvgl/src/extra/layouts/grid/lv_grid.c ****     lv_style_value_t v = {
 3358              		.loc 1 198 1 is_stmt 1 view -0
 3359              		.cfi_startproc
 3360              		@ args = 0, pretend = 0, frame = 0
 3361              		@ frame_needed = 0, uses_anonymous_args = 0
 198:lvgl/src/extra/layouts/grid/lv_grid.c ****     lv_style_value_t v = {
 3362              		.loc 1 198 1 is_stmt 0 view .LVU1032
 3363 0000 08B5     		push	{r3, lr}
 3364              	.LCFI32:
 3365              		.cfi_def_cfa_offset 8
 3366              		.cfi_offset 3, -8
 3367              		.cfi_offset 14, -4
 3368 0002 0A46     		mov	r2, r1
 199:lvgl/src/extra/layouts/grid/lv_grid.c ****         .num = (lv_grid_align_t)value
 3369              		.loc 1 199 5 is_stmt 1 view .LVU1033
 202:lvgl/src/extra/layouts/grid/lv_grid.c **** }
 3370              		.loc 1 202 5 view .LVU1034
 3371 0004 024B     		ldr	r3, .L199
 3372 0006 1988     		ldrh	r1, [r3]
 3373              	.LVL410:
 202:lvgl/src/extra/layouts/grid/lv_grid.c **** }
 3374              		.loc 1 202 5 is_stmt 0 view .LVU1035
 3375 0008 FFF7FEFF 		bl	lv_style_set_prop
 3376              	.LVL411:
 203:lvgl/src/extra/layouts/grid/lv_grid.c **** 
 3377              		.loc 1 203 1 view .LVU1036
 3378 000c 08BD     		pop	{r3, pc}
 3379              	.L200:
 3380 000e 00BF     		.align	2
 3381              	.L199:
 3382 0010 00000000 		.word	LV_STYLE_GRID_COLUMN_ALIGN
 3383              		.cfi_endproc
 3384              	.LFE194:
 3386              		.section	.text.lv_style_set_grid_cell_column_pos,"ax",%progbits
 3387              		.align	1
 3388              		.global	lv_style_set_grid_cell_column_pos
 3389              		.syntax unified
 3390              		.thumb
 3391              		.thumb_func
ARM GAS  /var/folders/21/t9g5rlb91ys800n5npymflf80000gn/T//cce6JCY2.s 			page 105


 3393              	lv_style_set_grid_cell_column_pos:
 3394              	.LVL412:
 3395              	.LFB195:
 206:lvgl/src/extra/layouts/grid/lv_grid.c ****     lv_style_value_t v = {
 3396              		.loc 1 206 1 is_stmt 1 view -0
 3397              		.cfi_startproc
 3398              		@ args = 0, pretend = 0, frame = 0
 3399              		@ frame_needed = 0, uses_anonymous_args = 0
 206:lvgl/src/extra/layouts/grid/lv_grid.c ****     lv_style_value_t v = {
 3400              		.loc 1 206 1 is_stmt 0 view .LVU1038
 3401 0000 08B5     		push	{r3, lr}
 3402              	.LCFI33:
 3403              		.cfi_def_cfa_offset 8
 3404              		.cfi_offset 3, -8
 3405              		.cfi_offset 14, -4
 3406 0002 0A46     		mov	r2, r1
 207:lvgl/src/extra/layouts/grid/lv_grid.c ****         .num = value
 3407              		.loc 1 207 5 is_stmt 1 view .LVU1039
 210:lvgl/src/extra/layouts/grid/lv_grid.c **** }
 3408              		.loc 1 210 5 view .LVU1040
 3409 0004 024B     		ldr	r3, .L203
 3410 0006 1988     		ldrh	r1, [r3]
 3411              	.LVL413:
 210:lvgl/src/extra/layouts/grid/lv_grid.c **** }
 3412              		.loc 1 210 5 is_stmt 0 view .LVU1041
 3413 0008 FFF7FEFF 		bl	lv_style_set_prop
 3414              	.LVL414:
 211:lvgl/src/extra/layouts/grid/lv_grid.c **** 
 3415              		.loc 1 211 1 view .LVU1042
 3416 000c 08BD     		pop	{r3, pc}
 3417              	.L204:
 3418 000e 00BF     		.align	2
 3419              	.L203:
 3420 0010 00000000 		.word	LV_STYLE_GRID_CELL_COLUMN_POS
 3421              		.cfi_endproc
 3422              	.LFE195:
 3424              		.section	.text.lv_style_set_grid_cell_column_span,"ax",%progbits
 3425              		.align	1
 3426              		.global	lv_style_set_grid_cell_column_span
 3427              		.syntax unified
 3428              		.thumb
 3429              		.thumb_func
 3431              	lv_style_set_grid_cell_column_span:
 3432              	.LVL415:
 3433              	.LFB196:
 214:lvgl/src/extra/layouts/grid/lv_grid.c ****     lv_style_value_t v = {
 3434              		.loc 1 214 1 is_stmt 1 view -0
 3435              		.cfi_startproc
 3436              		@ args = 0, pretend = 0, frame = 0
 3437              		@ frame_needed = 0, uses_anonymous_args = 0
 214:lvgl/src/extra/layouts/grid/lv_grid.c ****     lv_style_value_t v = {
 3438              		.loc 1 214 1 is_stmt 0 view .LVU1044
 3439 0000 08B5     		push	{r3, lr}
 3440              	.LCFI34:
 3441              		.cfi_def_cfa_offset 8
 3442              		.cfi_offset 3, -8
 3443              		.cfi_offset 14, -4
ARM GAS  /var/folders/21/t9g5rlb91ys800n5npymflf80000gn/T//cce6JCY2.s 			page 106


 3444 0002 0A46     		mov	r2, r1
 215:lvgl/src/extra/layouts/grid/lv_grid.c ****         .num = value
 3445              		.loc 1 215 5 is_stmt 1 view .LVU1045
 218:lvgl/src/extra/layouts/grid/lv_grid.c **** }
 3446              		.loc 1 218 5 view .LVU1046
 3447 0004 024B     		ldr	r3, .L207
 3448 0006 1988     		ldrh	r1, [r3]
 3449              	.LVL416:
 218:lvgl/src/extra/layouts/grid/lv_grid.c **** }
 3450              		.loc 1 218 5 is_stmt 0 view .LVU1047
 3451 0008 FFF7FEFF 		bl	lv_style_set_prop
 3452              	.LVL417:
 219:lvgl/src/extra/layouts/grid/lv_grid.c **** 
 3453              		.loc 1 219 1 view .LVU1048
 3454 000c 08BD     		pop	{r3, pc}
 3455              	.L208:
 3456 000e 00BF     		.align	2
 3457              	.L207:
 3458 0010 00000000 		.word	LV_STYLE_GRID_CELL_COLUMN_SPAN
 3459              		.cfi_endproc
 3460              	.LFE196:
 3462              		.section	.text.lv_style_set_grid_cell_row_pos,"ax",%progbits
 3463              		.align	1
 3464              		.global	lv_style_set_grid_cell_row_pos
 3465              		.syntax unified
 3466              		.thumb
 3467              		.thumb_func
 3469              	lv_style_set_grid_cell_row_pos:
 3470              	.LVL418:
 3471              	.LFB197:
 222:lvgl/src/extra/layouts/grid/lv_grid.c ****     lv_style_value_t v = {
 3472              		.loc 1 222 1 is_stmt 1 view -0
 3473              		.cfi_startproc
 3474              		@ args = 0, pretend = 0, frame = 0
 3475              		@ frame_needed = 0, uses_anonymous_args = 0
 222:lvgl/src/extra/layouts/grid/lv_grid.c ****     lv_style_value_t v = {
 3476              		.loc 1 222 1 is_stmt 0 view .LVU1050
 3477 0000 08B5     		push	{r3, lr}
 3478              	.LCFI35:
 3479              		.cfi_def_cfa_offset 8
 3480              		.cfi_offset 3, -8
 3481              		.cfi_offset 14, -4
 3482 0002 0A46     		mov	r2, r1
 223:lvgl/src/extra/layouts/grid/lv_grid.c ****         .num = value
 3483              		.loc 1 223 5 is_stmt 1 view .LVU1051
 226:lvgl/src/extra/layouts/grid/lv_grid.c **** }
 3484              		.loc 1 226 5 view .LVU1052
 3485 0004 024B     		ldr	r3, .L211
 3486 0006 1988     		ldrh	r1, [r3]
 3487              	.LVL419:
 226:lvgl/src/extra/layouts/grid/lv_grid.c **** }
 3488              		.loc 1 226 5 is_stmt 0 view .LVU1053
 3489 0008 FFF7FEFF 		bl	lv_style_set_prop
 3490              	.LVL420:
 227:lvgl/src/extra/layouts/grid/lv_grid.c **** 
 3491              		.loc 1 227 1 view .LVU1054
 3492 000c 08BD     		pop	{r3, pc}
ARM GAS  /var/folders/21/t9g5rlb91ys800n5npymflf80000gn/T//cce6JCY2.s 			page 107


 3493              	.L212:
 3494 000e 00BF     		.align	2
 3495              	.L211:
 3496 0010 00000000 		.word	LV_STYLE_GRID_CELL_ROW_POS
 3497              		.cfi_endproc
 3498              	.LFE197:
 3500              		.section	.text.lv_style_set_grid_cell_row_span,"ax",%progbits
 3501              		.align	1
 3502              		.global	lv_style_set_grid_cell_row_span
 3503              		.syntax unified
 3504              		.thumb
 3505              		.thumb_func
 3507              	lv_style_set_grid_cell_row_span:
 3508              	.LVL421:
 3509              	.LFB198:
 230:lvgl/src/extra/layouts/grid/lv_grid.c ****     lv_style_value_t v = {
 3510              		.loc 1 230 1 is_stmt 1 view -0
 3511              		.cfi_startproc
 3512              		@ args = 0, pretend = 0, frame = 0
 3513              		@ frame_needed = 0, uses_anonymous_args = 0
 230:lvgl/src/extra/layouts/grid/lv_grid.c ****     lv_style_value_t v = {
 3514              		.loc 1 230 1 is_stmt 0 view .LVU1056
 3515 0000 08B5     		push	{r3, lr}
 3516              	.LCFI36:
 3517              		.cfi_def_cfa_offset 8
 3518              		.cfi_offset 3, -8
 3519              		.cfi_offset 14, -4
 3520 0002 0A46     		mov	r2, r1
 231:lvgl/src/extra/layouts/grid/lv_grid.c ****         .num = value
 3521              		.loc 1 231 5 is_stmt 1 view .LVU1057
 234:lvgl/src/extra/layouts/grid/lv_grid.c **** }
 3522              		.loc 1 234 5 view .LVU1058
 3523 0004 024B     		ldr	r3, .L215
 3524 0006 1988     		ldrh	r1, [r3]
 3525              	.LVL422:
 234:lvgl/src/extra/layouts/grid/lv_grid.c **** }
 3526              		.loc 1 234 5 is_stmt 0 view .LVU1059
 3527 0008 FFF7FEFF 		bl	lv_style_set_prop
 3528              	.LVL423:
 235:lvgl/src/extra/layouts/grid/lv_grid.c **** 
 3529              		.loc 1 235 1 view .LVU1060
 3530 000c 08BD     		pop	{r3, pc}
 3531              	.L216:
 3532 000e 00BF     		.align	2
 3533              	.L215:
 3534 0010 00000000 		.word	LV_STYLE_GRID_CELL_ROW_SPAN
 3535              		.cfi_endproc
 3536              	.LFE198:
 3538              		.section	.text.lv_style_set_grid_cell_x_align,"ax",%progbits
 3539              		.align	1
 3540              		.global	lv_style_set_grid_cell_x_align
 3541              		.syntax unified
 3542              		.thumb
 3543              		.thumb_func
 3545              	lv_style_set_grid_cell_x_align:
 3546              	.LVL424:
 3547              	.LFB199:
ARM GAS  /var/folders/21/t9g5rlb91ys800n5npymflf80000gn/T//cce6JCY2.s 			page 108


 238:lvgl/src/extra/layouts/grid/lv_grid.c ****     lv_style_value_t v = {
 3548              		.loc 1 238 1 is_stmt 1 view -0
 3549              		.cfi_startproc
 3550              		@ args = 0, pretend = 0, frame = 0
 3551              		@ frame_needed = 0, uses_anonymous_args = 0
 238:lvgl/src/extra/layouts/grid/lv_grid.c ****     lv_style_value_t v = {
 3552              		.loc 1 238 1 is_stmt 0 view .LVU1062
 3553 0000 08B5     		push	{r3, lr}
 3554              	.LCFI37:
 3555              		.cfi_def_cfa_offset 8
 3556              		.cfi_offset 3, -8
 3557              		.cfi_offset 14, -4
 3558 0002 0A46     		mov	r2, r1
 239:lvgl/src/extra/layouts/grid/lv_grid.c ****         .num = value
 3559              		.loc 1 239 5 is_stmt 1 view .LVU1063
 242:lvgl/src/extra/layouts/grid/lv_grid.c **** }
 3560              		.loc 1 242 5 view .LVU1064
 3561 0004 024B     		ldr	r3, .L219
 3562 0006 1988     		ldrh	r1, [r3]
 3563              	.LVL425:
 242:lvgl/src/extra/layouts/grid/lv_grid.c **** }
 3564              		.loc 1 242 5 is_stmt 0 view .LVU1065
 3565 0008 FFF7FEFF 		bl	lv_style_set_prop
 3566              	.LVL426:
 243:lvgl/src/extra/layouts/grid/lv_grid.c **** 
 3567              		.loc 1 243 1 view .LVU1066
 3568 000c 08BD     		pop	{r3, pc}
 3569              	.L220:
 3570 000e 00BF     		.align	2
 3571              	.L219:
 3572 0010 00000000 		.word	LV_STYLE_GRID_CELL_X_ALIGN
 3573              		.cfi_endproc
 3574              	.LFE199:
 3576              		.section	.text.lv_style_set_grid_cell_y_align,"ax",%progbits
 3577              		.align	1
 3578              		.global	lv_style_set_grid_cell_y_align
 3579              		.syntax unified
 3580              		.thumb
 3581              		.thumb_func
 3583              	lv_style_set_grid_cell_y_align:
 3584              	.LVL427:
 3585              	.LFB200:
 246:lvgl/src/extra/layouts/grid/lv_grid.c ****     lv_style_value_t v = {
 3586              		.loc 1 246 1 is_stmt 1 view -0
 3587              		.cfi_startproc
 3588              		@ args = 0, pretend = 0, frame = 0
 3589              		@ frame_needed = 0, uses_anonymous_args = 0
 246:lvgl/src/extra/layouts/grid/lv_grid.c ****     lv_style_value_t v = {
 3590              		.loc 1 246 1 is_stmt 0 view .LVU1068
 3591 0000 08B5     		push	{r3, lr}
 3592              	.LCFI38:
 3593              		.cfi_def_cfa_offset 8
 3594              		.cfi_offset 3, -8
 3595              		.cfi_offset 14, -4
 3596 0002 0A46     		mov	r2, r1
 247:lvgl/src/extra/layouts/grid/lv_grid.c ****         .num = value
 3597              		.loc 1 247 5 is_stmt 1 view .LVU1069
ARM GAS  /var/folders/21/t9g5rlb91ys800n5npymflf80000gn/T//cce6JCY2.s 			page 109


 250:lvgl/src/extra/layouts/grid/lv_grid.c **** }
 3598              		.loc 1 250 5 view .LVU1070
 3599 0004 024B     		ldr	r3, .L223
 3600 0006 1988     		ldrh	r1, [r3]
 3601              	.LVL428:
 250:lvgl/src/extra/layouts/grid/lv_grid.c **** }
 3602              		.loc 1 250 5 is_stmt 0 view .LVU1071
 3603 0008 FFF7FEFF 		bl	lv_style_set_prop
 3604              	.LVL429:
 251:lvgl/src/extra/layouts/grid/lv_grid.c **** 
 3605              		.loc 1 251 1 view .LVU1072
 3606 000c 08BD     		pop	{r3, pc}
 3607              	.L224:
 3608 000e 00BF     		.align	2
 3609              	.L223:
 3610 0010 00000000 		.word	LV_STYLE_GRID_CELL_Y_ALIGN
 3611              		.cfi_endproc
 3612              	.LFE200:
 3614              		.section	.text.lv_obj_set_style_grid_row_dsc_array,"ax",%progbits
 3615              		.align	1
 3616              		.global	lv_obj_set_style_grid_row_dsc_array
 3617              		.syntax unified
 3618              		.thumb
 3619              		.thumb_func
 3621              	lv_obj_set_style_grid_row_dsc_array:
 3622              	.LVL430:
 3623              	.LFB201:
 254:lvgl/src/extra/layouts/grid/lv_grid.c ****     lv_style_value_t v = {
 3624              		.loc 1 254 1 is_stmt 1 view -0
 3625              		.cfi_startproc
 3626              		@ args = 0, pretend = 0, frame = 0
 3627              		@ frame_needed = 0, uses_anonymous_args = 0
 254:lvgl/src/extra/layouts/grid/lv_grid.c ****     lv_style_value_t v = {
 3628              		.loc 1 254 1 is_stmt 0 view .LVU1074
 3629 0000 08B5     		push	{r3, lr}
 3630              	.LCFI39:
 3631              		.cfi_def_cfa_offset 8
 3632              		.cfi_offset 3, -8
 3633              		.cfi_offset 14, -4
 3634 0002 1346     		mov	r3, r2
 255:lvgl/src/extra/layouts/grid/lv_grid.c ****         .ptr = (const void *)value
 3635              		.loc 1 255 5 is_stmt 1 view .LVU1075
 258:lvgl/src/extra/layouts/grid/lv_grid.c **** }
 3636              		.loc 1 258 5 view .LVU1076
 3637 0004 0A46     		mov	r2, r1
 3638              	.LVL431:
 258:lvgl/src/extra/layouts/grid/lv_grid.c **** }
 3639              		.loc 1 258 5 is_stmt 0 view .LVU1077
 3640 0006 0249     		ldr	r1, .L227
 3641              	.LVL432:
 258:lvgl/src/extra/layouts/grid/lv_grid.c **** }
 3642              		.loc 1 258 5 view .LVU1078
 3643 0008 0988     		ldrh	r1, [r1]
 3644 000a FFF7FEFF 		bl	lv_obj_set_local_style_prop
 3645              	.LVL433:
 259:lvgl/src/extra/layouts/grid/lv_grid.c **** 
 3646              		.loc 1 259 1 view .LVU1079
ARM GAS  /var/folders/21/t9g5rlb91ys800n5npymflf80000gn/T//cce6JCY2.s 			page 110


 3647 000e 08BD     		pop	{r3, pc}
 3648              	.L228:
 3649              		.align	2
 3650              	.L227:
 3651 0010 00000000 		.word	LV_STYLE_GRID_ROW_DSC_ARRAY
 3652              		.cfi_endproc
 3653              	.LFE201:
 3655              		.section	.text.lv_obj_set_style_grid_column_dsc_array,"ax",%progbits
 3656              		.align	1
 3657              		.global	lv_obj_set_style_grid_column_dsc_array
 3658              		.syntax unified
 3659              		.thumb
 3660              		.thumb_func
 3662              	lv_obj_set_style_grid_column_dsc_array:
 3663              	.LVL434:
 3664              	.LFB202:
 262:lvgl/src/extra/layouts/grid/lv_grid.c ****     lv_style_value_t v = {
 3665              		.loc 1 262 1 is_stmt 1 view -0
 3666              		.cfi_startproc
 3667              		@ args = 0, pretend = 0, frame = 0
 3668              		@ frame_needed = 0, uses_anonymous_args = 0
 262:lvgl/src/extra/layouts/grid/lv_grid.c ****     lv_style_value_t v = {
 3669              		.loc 1 262 1 is_stmt 0 view .LVU1081
 3670 0000 08B5     		push	{r3, lr}
 3671              	.LCFI40:
 3672              		.cfi_def_cfa_offset 8
 3673              		.cfi_offset 3, -8
 3674              		.cfi_offset 14, -4
 3675 0002 1346     		mov	r3, r2
 263:lvgl/src/extra/layouts/grid/lv_grid.c ****         .ptr = (const void *)value
 3676              		.loc 1 263 5 is_stmt 1 view .LVU1082
 266:lvgl/src/extra/layouts/grid/lv_grid.c **** }
 3677              		.loc 1 266 5 view .LVU1083
 3678 0004 0A46     		mov	r2, r1
 3679              	.LVL435:
 266:lvgl/src/extra/layouts/grid/lv_grid.c **** }
 3680              		.loc 1 266 5 is_stmt 0 view .LVU1084
 3681 0006 0249     		ldr	r1, .L231
 3682              	.LVL436:
 266:lvgl/src/extra/layouts/grid/lv_grid.c **** }
 3683              		.loc 1 266 5 view .LVU1085
 3684 0008 0988     		ldrh	r1, [r1]
 3685 000a FFF7FEFF 		bl	lv_obj_set_local_style_prop
 3686              	.LVL437:
 267:lvgl/src/extra/layouts/grid/lv_grid.c **** 
 3687              		.loc 1 267 1 view .LVU1086
 3688 000e 08BD     		pop	{r3, pc}
 3689              	.L232:
 3690              		.align	2
 3691              	.L231:
 3692 0010 00000000 		.word	LV_STYLE_GRID_COLUMN_DSC_ARRAY
 3693              		.cfi_endproc
 3694              	.LFE202:
 3696              		.section	.text.lv_obj_set_grid_dsc_array,"ax",%progbits
 3697              		.align	1
 3698              		.global	lv_obj_set_grid_dsc_array
 3699              		.syntax unified
ARM GAS  /var/folders/21/t9g5rlb91ys800n5npymflf80000gn/T//cce6JCY2.s 			page 111


 3700              		.thumb
 3701              		.thumb_func
 3703              	lv_obj_set_grid_dsc_array:
 3704              	.LVL438:
 3705              	.LFB188:
 146:lvgl/src/extra/layouts/grid/lv_grid.c ****     lv_obj_set_style_grid_column_dsc_array(obj, col_dsc, 0);
 3706              		.loc 1 146 1 is_stmt 1 view -0
 3707              		.cfi_startproc
 3708              		@ args = 0, pretend = 0, frame = 0
 3709              		@ frame_needed = 0, uses_anonymous_args = 0
 146:lvgl/src/extra/layouts/grid/lv_grid.c ****     lv_obj_set_style_grid_column_dsc_array(obj, col_dsc, 0);
 3710              		.loc 1 146 1 is_stmt 0 view .LVU1088
 3711 0000 38B5     		push	{r3, r4, r5, lr}
 3712              	.LCFI41:
 3713              		.cfi_def_cfa_offset 16
 3714              		.cfi_offset 3, -16
 3715              		.cfi_offset 4, -12
 3716              		.cfi_offset 5, -8
 3717              		.cfi_offset 14, -4
 3718 0002 0446     		mov	r4, r0
 3719 0004 1546     		mov	r5, r2
 147:lvgl/src/extra/layouts/grid/lv_grid.c ****     lv_obj_set_style_grid_row_dsc_array(obj, row_dsc, 0);
 3720              		.loc 1 147 5 is_stmt 1 view .LVU1089
 3721 0006 0022     		movs	r2, #0
 3722              	.LVL439:
 147:lvgl/src/extra/layouts/grid/lv_grid.c ****     lv_obj_set_style_grid_row_dsc_array(obj, row_dsc, 0);
 3723              		.loc 1 147 5 is_stmt 0 view .LVU1090
 3724 0008 FFF7FEFF 		bl	lv_obj_set_style_grid_column_dsc_array
 3725              	.LVL440:
 148:lvgl/src/extra/layouts/grid/lv_grid.c ****     lv_obj_set_style_layout(obj, LV_LAYOUT_GRID, 0);
 3726              		.loc 1 148 5 is_stmt 1 view .LVU1091
 3727 000c 0022     		movs	r2, #0
 3728 000e 2946     		mov	r1, r5
 3729 0010 2046     		mov	r0, r4
 3730 0012 FFF7FEFF 		bl	lv_obj_set_style_grid_row_dsc_array
 3731              	.LVL441:
 149:lvgl/src/extra/layouts/grid/lv_grid.c **** }
 3732              		.loc 1 149 5 view .LVU1092
 3733 0016 0022     		movs	r2, #0
 3734 0018 024B     		ldr	r3, .L235
 3735 001a 1988     		ldrh	r1, [r3]
 3736 001c 2046     		mov	r0, r4
 3737 001e FFF7FEFF 		bl	lv_obj_set_style_layout
 3738              	.LVL442:
 150:lvgl/src/extra/layouts/grid/lv_grid.c **** 
 3739              		.loc 1 150 1 is_stmt 0 view .LVU1093
 3740 0022 38BD     		pop	{r3, r4, r5, pc}
 3741              	.LVL443:
 3742              	.L236:
 150:lvgl/src/extra/layouts/grid/lv_grid.c **** 
 3743              		.loc 1 150 1 view .LVU1094
 3744              		.align	2
 3745              	.L235:
 3746 0024 00000000 		.word	LV_LAYOUT_GRID
 3747              		.cfi_endproc
 3748              	.LFE188:
 3750              		.section	.text.lv_obj_set_style_grid_row_align,"ax",%progbits
ARM GAS  /var/folders/21/t9g5rlb91ys800n5npymflf80000gn/T//cce6JCY2.s 			page 112


 3751              		.align	1
 3752              		.global	lv_obj_set_style_grid_row_align
 3753              		.syntax unified
 3754              		.thumb
 3755              		.thumb_func
 3757              	lv_obj_set_style_grid_row_align:
 3758              	.LVL444:
 3759              	.LFB203:
 270:lvgl/src/extra/layouts/grid/lv_grid.c ****     lv_style_value_t v = {
 3760              		.loc 1 270 1 is_stmt 1 view -0
 3761              		.cfi_startproc
 3762              		@ args = 0, pretend = 0, frame = 0
 3763              		@ frame_needed = 0, uses_anonymous_args = 0
 270:lvgl/src/extra/layouts/grid/lv_grid.c ****     lv_style_value_t v = {
 3764              		.loc 1 270 1 is_stmt 0 view .LVU1096
 3765 0000 08B5     		push	{r3, lr}
 3766              	.LCFI42:
 3767              		.cfi_def_cfa_offset 8
 3768              		.cfi_offset 3, -8
 3769              		.cfi_offset 14, -4
 3770 0002 1346     		mov	r3, r2
 271:lvgl/src/extra/layouts/grid/lv_grid.c ****         .num = (int32_t) value
 3771              		.loc 1 271 5 is_stmt 1 view .LVU1097
 274:lvgl/src/extra/layouts/grid/lv_grid.c **** }
 3772              		.loc 1 274 5 view .LVU1098
 3773 0004 0A46     		mov	r2, r1
 3774              	.LVL445:
 274:lvgl/src/extra/layouts/grid/lv_grid.c **** }
 3775              		.loc 1 274 5 is_stmt 0 view .LVU1099
 3776 0006 0249     		ldr	r1, .L239
 3777              	.LVL446:
 274:lvgl/src/extra/layouts/grid/lv_grid.c **** }
 3778              		.loc 1 274 5 view .LVU1100
 3779 0008 0988     		ldrh	r1, [r1]
 3780 000a FFF7FEFF 		bl	lv_obj_set_local_style_prop
 3781              	.LVL447:
 275:lvgl/src/extra/layouts/grid/lv_grid.c **** 
 3782              		.loc 1 275 1 view .LVU1101
 3783 000e 08BD     		pop	{r3, pc}
 3784              	.L240:
 3785              		.align	2
 3786              	.L239:
 3787 0010 00000000 		.word	LV_STYLE_GRID_ROW_ALIGN
 3788              		.cfi_endproc
 3789              	.LFE203:
 3791              		.section	.text.lv_obj_set_style_grid_column_align,"ax",%progbits
 3792              		.align	1
 3793              		.global	lv_obj_set_style_grid_column_align
 3794              		.syntax unified
 3795              		.thumb
 3796              		.thumb_func
 3798              	lv_obj_set_style_grid_column_align:
 3799              	.LVL448:
 3800              	.LFB204:
 278:lvgl/src/extra/layouts/grid/lv_grid.c ****     lv_style_value_t v = {
 3801              		.loc 1 278 1 is_stmt 1 view -0
 3802              		.cfi_startproc
ARM GAS  /var/folders/21/t9g5rlb91ys800n5npymflf80000gn/T//cce6JCY2.s 			page 113


 3803              		@ args = 0, pretend = 0, frame = 0
 3804              		@ frame_needed = 0, uses_anonymous_args = 0
 278:lvgl/src/extra/layouts/grid/lv_grid.c ****     lv_style_value_t v = {
 3805              		.loc 1 278 1 is_stmt 0 view .LVU1103
 3806 0000 08B5     		push	{r3, lr}
 3807              	.LCFI43:
 3808              		.cfi_def_cfa_offset 8
 3809              		.cfi_offset 3, -8
 3810              		.cfi_offset 14, -4
 3811 0002 1346     		mov	r3, r2
 279:lvgl/src/extra/layouts/grid/lv_grid.c ****         .num = (int32_t) value
 3812              		.loc 1 279 5 is_stmt 1 view .LVU1104
 282:lvgl/src/extra/layouts/grid/lv_grid.c **** }
 3813              		.loc 1 282 5 view .LVU1105
 3814 0004 0A46     		mov	r2, r1
 3815              	.LVL449:
 282:lvgl/src/extra/layouts/grid/lv_grid.c **** }
 3816              		.loc 1 282 5 is_stmt 0 view .LVU1106
 3817 0006 0249     		ldr	r1, .L243
 3818              	.LVL450:
 282:lvgl/src/extra/layouts/grid/lv_grid.c **** }
 3819              		.loc 1 282 5 view .LVU1107
 3820 0008 0988     		ldrh	r1, [r1]
 3821 000a FFF7FEFF 		bl	lv_obj_set_local_style_prop
 3822              	.LVL451:
 283:lvgl/src/extra/layouts/grid/lv_grid.c **** 
 3823              		.loc 1 283 1 view .LVU1108
 3824 000e 08BD     		pop	{r3, pc}
 3825              	.L244:
 3826              		.align	2
 3827              	.L243:
 3828 0010 00000000 		.word	LV_STYLE_GRID_COLUMN_ALIGN
 3829              		.cfi_endproc
 3830              	.LFE204:
 3832              		.section	.text.lv_obj_set_grid_align,"ax",%progbits
 3833              		.align	1
 3834              		.global	lv_obj_set_grid_align
 3835              		.syntax unified
 3836              		.thumb
 3837              		.thumb_func
 3839              	lv_obj_set_grid_align:
 3840              	.LVL452:
 3841              	.LFB189:
 153:lvgl/src/extra/layouts/grid/lv_grid.c ****     lv_obj_set_style_grid_column_align(obj, column_align, 0);
 3842              		.loc 1 153 1 is_stmt 1 view -0
 3843              		.cfi_startproc
 3844              		@ args = 0, pretend = 0, frame = 0
 3845              		@ frame_needed = 0, uses_anonymous_args = 0
 153:lvgl/src/extra/layouts/grid/lv_grid.c ****     lv_obj_set_style_grid_column_align(obj, column_align, 0);
 3846              		.loc 1 153 1 is_stmt 0 view .LVU1110
 3847 0000 38B5     		push	{r3, r4, r5, lr}
 3848              	.LCFI44:
 3849              		.cfi_def_cfa_offset 16
 3850              		.cfi_offset 3, -16
 3851              		.cfi_offset 4, -12
 3852              		.cfi_offset 5, -8
 3853              		.cfi_offset 14, -4
ARM GAS  /var/folders/21/t9g5rlb91ys800n5npymflf80000gn/T//cce6JCY2.s 			page 114


 3854 0002 0446     		mov	r4, r0
 3855 0004 1546     		mov	r5, r2
 154:lvgl/src/extra/layouts/grid/lv_grid.c ****     lv_obj_set_style_grid_row_align(obj, row_align, 0);
 3856              		.loc 1 154 5 is_stmt 1 view .LVU1111
 3857 0006 0022     		movs	r2, #0
 3858              	.LVL453:
 154:lvgl/src/extra/layouts/grid/lv_grid.c ****     lv_obj_set_style_grid_row_align(obj, row_align, 0);
 3859              		.loc 1 154 5 is_stmt 0 view .LVU1112
 3860 0008 FFF7FEFF 		bl	lv_obj_set_style_grid_column_align
 3861              	.LVL454:
 155:lvgl/src/extra/layouts/grid/lv_grid.c **** 
 3862              		.loc 1 155 5 is_stmt 1 view .LVU1113
 3863 000c 0022     		movs	r2, #0
 3864 000e 2946     		mov	r1, r5
 3865 0010 2046     		mov	r0, r4
 3866 0012 FFF7FEFF 		bl	lv_obj_set_style_grid_row_align
 3867              	.LVL455:
 157:lvgl/src/extra/layouts/grid/lv_grid.c **** 
 3868              		.loc 1 157 1 is_stmt 0 view .LVU1114
 3869 0016 38BD     		pop	{r3, r4, r5, pc}
 157:lvgl/src/extra/layouts/grid/lv_grid.c **** 
 3870              		.loc 1 157 1 view .LVU1115
 3871              		.cfi_endproc
 3872              	.LFE189:
 3874              		.section	.text.lv_obj_set_style_grid_cell_column_pos,"ax",%progbits
 3875              		.align	1
 3876              		.global	lv_obj_set_style_grid_cell_column_pos
 3877              		.syntax unified
 3878              		.thumb
 3879              		.thumb_func
 3881              	lv_obj_set_style_grid_cell_column_pos:
 3882              	.LVL456:
 3883              	.LFB205:
 286:lvgl/src/extra/layouts/grid/lv_grid.c ****     lv_style_value_t v = {
 3884              		.loc 1 286 1 is_stmt 1 view -0
 3885              		.cfi_startproc
 3886              		@ args = 0, pretend = 0, frame = 0
 3887              		@ frame_needed = 0, uses_anonymous_args = 0
 286:lvgl/src/extra/layouts/grid/lv_grid.c ****     lv_style_value_t v = {
 3888              		.loc 1 286 1 is_stmt 0 view .LVU1117
 3889 0000 08B5     		push	{r3, lr}
 3890              	.LCFI45:
 3891              		.cfi_def_cfa_offset 8
 3892              		.cfi_offset 3, -8
 3893              		.cfi_offset 14, -4
 3894 0002 1346     		mov	r3, r2
 287:lvgl/src/extra/layouts/grid/lv_grid.c ****         .num = value
 3895              		.loc 1 287 5 is_stmt 1 view .LVU1118
 290:lvgl/src/extra/layouts/grid/lv_grid.c **** }
 3896              		.loc 1 290 5 view .LVU1119
 3897 0004 0A46     		mov	r2, r1
 3898              	.LVL457:
 290:lvgl/src/extra/layouts/grid/lv_grid.c **** }
 3899              		.loc 1 290 5 is_stmt 0 view .LVU1120
 3900 0006 0249     		ldr	r1, .L249
 3901              	.LVL458:
 290:lvgl/src/extra/layouts/grid/lv_grid.c **** }
ARM GAS  /var/folders/21/t9g5rlb91ys800n5npymflf80000gn/T//cce6JCY2.s 			page 115


 3902              		.loc 1 290 5 view .LVU1121
 3903 0008 0988     		ldrh	r1, [r1]
 3904 000a FFF7FEFF 		bl	lv_obj_set_local_style_prop
 3905              	.LVL459:
 291:lvgl/src/extra/layouts/grid/lv_grid.c **** 
 3906              		.loc 1 291 1 view .LVU1122
 3907 000e 08BD     		pop	{r3, pc}
 3908              	.L250:
 3909              		.align	2
 3910              	.L249:
 3911 0010 00000000 		.word	LV_STYLE_GRID_CELL_COLUMN_POS
 3912              		.cfi_endproc
 3913              	.LFE205:
 3915              		.section	.text.lv_obj_set_style_grid_cell_column_span,"ax",%progbits
 3916              		.align	1
 3917              		.global	lv_obj_set_style_grid_cell_column_span
 3918              		.syntax unified
 3919              		.thumb
 3920              		.thumb_func
 3922              	lv_obj_set_style_grid_cell_column_span:
 3923              	.LVL460:
 3924              	.LFB206:
 294:lvgl/src/extra/layouts/grid/lv_grid.c ****     lv_style_value_t v = {
 3925              		.loc 1 294 1 is_stmt 1 view -0
 3926              		.cfi_startproc
 3927              		@ args = 0, pretend = 0, frame = 0
 3928              		@ frame_needed = 0, uses_anonymous_args = 0
 294:lvgl/src/extra/layouts/grid/lv_grid.c ****     lv_style_value_t v = {
 3929              		.loc 1 294 1 is_stmt 0 view .LVU1124
 3930 0000 08B5     		push	{r3, lr}
 3931              	.LCFI46:
 3932              		.cfi_def_cfa_offset 8
 3933              		.cfi_offset 3, -8
 3934              		.cfi_offset 14, -4
 3935 0002 1346     		mov	r3, r2
 295:lvgl/src/extra/layouts/grid/lv_grid.c ****         .num = value
 3936              		.loc 1 295 5 is_stmt 1 view .LVU1125
 298:lvgl/src/extra/layouts/grid/lv_grid.c **** }
 3937              		.loc 1 298 5 view .LVU1126
 3938 0004 0A46     		mov	r2, r1
 3939              	.LVL461:
 298:lvgl/src/extra/layouts/grid/lv_grid.c **** }
 3940              		.loc 1 298 5 is_stmt 0 view .LVU1127
 3941 0006 0249     		ldr	r1, .L253
 3942              	.LVL462:
 298:lvgl/src/extra/layouts/grid/lv_grid.c **** }
 3943              		.loc 1 298 5 view .LVU1128
 3944 0008 0988     		ldrh	r1, [r1]
 3945 000a FFF7FEFF 		bl	lv_obj_set_local_style_prop
 3946              	.LVL463:
 299:lvgl/src/extra/layouts/grid/lv_grid.c **** 
 3947              		.loc 1 299 1 view .LVU1129
 3948 000e 08BD     		pop	{r3, pc}
 3949              	.L254:
 3950              		.align	2
 3951              	.L253:
 3952 0010 00000000 		.word	LV_STYLE_GRID_CELL_COLUMN_SPAN
ARM GAS  /var/folders/21/t9g5rlb91ys800n5npymflf80000gn/T//cce6JCY2.s 			page 116


 3953              		.cfi_endproc
 3954              	.LFE206:
 3956              		.section	.text.lv_obj_set_style_grid_cell_row_pos,"ax",%progbits
 3957              		.align	1
 3958              		.global	lv_obj_set_style_grid_cell_row_pos
 3959              		.syntax unified
 3960              		.thumb
 3961              		.thumb_func
 3963              	lv_obj_set_style_grid_cell_row_pos:
 3964              	.LVL464:
 3965              	.LFB207:
 302:lvgl/src/extra/layouts/grid/lv_grid.c ****     lv_style_value_t v = {
 3966              		.loc 1 302 1 is_stmt 1 view -0
 3967              		.cfi_startproc
 3968              		@ args = 0, pretend = 0, frame = 0
 3969              		@ frame_needed = 0, uses_anonymous_args = 0
 302:lvgl/src/extra/layouts/grid/lv_grid.c ****     lv_style_value_t v = {
 3970              		.loc 1 302 1 is_stmt 0 view .LVU1131
 3971 0000 08B5     		push	{r3, lr}
 3972              	.LCFI47:
 3973              		.cfi_def_cfa_offset 8
 3974              		.cfi_offset 3, -8
 3975              		.cfi_offset 14, -4
 3976 0002 1346     		mov	r3, r2
 303:lvgl/src/extra/layouts/grid/lv_grid.c ****         .num = value
 3977              		.loc 1 303 5 is_stmt 1 view .LVU1132
 306:lvgl/src/extra/layouts/grid/lv_grid.c **** }
 3978              		.loc 1 306 5 view .LVU1133
 3979 0004 0A46     		mov	r2, r1
 3980              	.LVL465:
 306:lvgl/src/extra/layouts/grid/lv_grid.c **** }
 3981              		.loc 1 306 5 is_stmt 0 view .LVU1134
 3982 0006 0249     		ldr	r1, .L257
 3983              	.LVL466:
 306:lvgl/src/extra/layouts/grid/lv_grid.c **** }
 3984              		.loc 1 306 5 view .LVU1135
 3985 0008 0988     		ldrh	r1, [r1]
 3986 000a FFF7FEFF 		bl	lv_obj_set_local_style_prop
 3987              	.LVL467:
 307:lvgl/src/extra/layouts/grid/lv_grid.c **** 
 3988              		.loc 1 307 1 view .LVU1136
 3989 000e 08BD     		pop	{r3, pc}
 3990              	.L258:
 3991              		.align	2
 3992              	.L257:
 3993 0010 00000000 		.word	LV_STYLE_GRID_CELL_ROW_POS
 3994              		.cfi_endproc
 3995              	.LFE207:
 3997              		.section	.text.lv_obj_set_style_grid_cell_row_span,"ax",%progbits
 3998              		.align	1
 3999              		.global	lv_obj_set_style_grid_cell_row_span
 4000              		.syntax unified
 4001              		.thumb
 4002              		.thumb_func
 4004              	lv_obj_set_style_grid_cell_row_span:
 4005              	.LVL468:
 4006              	.LFB208:
ARM GAS  /var/folders/21/t9g5rlb91ys800n5npymflf80000gn/T//cce6JCY2.s 			page 117


 310:lvgl/src/extra/layouts/grid/lv_grid.c ****     lv_style_value_t v = {
 4007              		.loc 1 310 1 is_stmt 1 view -0
 4008              		.cfi_startproc
 4009              		@ args = 0, pretend = 0, frame = 0
 4010              		@ frame_needed = 0, uses_anonymous_args = 0
 310:lvgl/src/extra/layouts/grid/lv_grid.c ****     lv_style_value_t v = {
 4011              		.loc 1 310 1 is_stmt 0 view .LVU1138
 4012 0000 08B5     		push	{r3, lr}
 4013              	.LCFI48:
 4014              		.cfi_def_cfa_offset 8
 4015              		.cfi_offset 3, -8
 4016              		.cfi_offset 14, -4
 4017 0002 1346     		mov	r3, r2
 311:lvgl/src/extra/layouts/grid/lv_grid.c ****         .num = value
 4018              		.loc 1 311 5 is_stmt 1 view .LVU1139
 314:lvgl/src/extra/layouts/grid/lv_grid.c **** }
 4019              		.loc 1 314 5 view .LVU1140
 4020 0004 0A46     		mov	r2, r1
 4021              	.LVL469:
 314:lvgl/src/extra/layouts/grid/lv_grid.c **** }
 4022              		.loc 1 314 5 is_stmt 0 view .LVU1141
 4023 0006 0249     		ldr	r1, .L261
 4024              	.LVL470:
 314:lvgl/src/extra/layouts/grid/lv_grid.c **** }
 4025              		.loc 1 314 5 view .LVU1142
 4026 0008 0988     		ldrh	r1, [r1]
 4027 000a FFF7FEFF 		bl	lv_obj_set_local_style_prop
 4028              	.LVL471:
 315:lvgl/src/extra/layouts/grid/lv_grid.c **** 
 4029              		.loc 1 315 1 view .LVU1143
 4030 000e 08BD     		pop	{r3, pc}
 4031              	.L262:
 4032              		.align	2
 4033              	.L261:
 4034 0010 00000000 		.word	LV_STYLE_GRID_CELL_ROW_SPAN
 4035              		.cfi_endproc
 4036              	.LFE208:
 4038              		.section	.text.lv_obj_set_style_grid_cell_x_align,"ax",%progbits
 4039              		.align	1
 4040              		.global	lv_obj_set_style_grid_cell_x_align
 4041              		.syntax unified
 4042              		.thumb
 4043              		.thumb_func
 4045              	lv_obj_set_style_grid_cell_x_align:
 4046              	.LVL472:
 4047              	.LFB209:
 318:lvgl/src/extra/layouts/grid/lv_grid.c ****     lv_style_value_t v = {
 4048              		.loc 1 318 1 is_stmt 1 view -0
 4049              		.cfi_startproc
 4050              		@ args = 0, pretend = 0, frame = 0
 4051              		@ frame_needed = 0, uses_anonymous_args = 0
 318:lvgl/src/extra/layouts/grid/lv_grid.c ****     lv_style_value_t v = {
 4052              		.loc 1 318 1 is_stmt 0 view .LVU1145
 4053 0000 08B5     		push	{r3, lr}
 4054              	.LCFI49:
 4055              		.cfi_def_cfa_offset 8
 4056              		.cfi_offset 3, -8
ARM GAS  /var/folders/21/t9g5rlb91ys800n5npymflf80000gn/T//cce6JCY2.s 			page 118


 4057              		.cfi_offset 14, -4
 4058 0002 1346     		mov	r3, r2
 319:lvgl/src/extra/layouts/grid/lv_grid.c ****         .num = value
 4059              		.loc 1 319 5 is_stmt 1 view .LVU1146
 322:lvgl/src/extra/layouts/grid/lv_grid.c **** }
 4060              		.loc 1 322 5 view .LVU1147
 4061 0004 0A46     		mov	r2, r1
 4062              	.LVL473:
 322:lvgl/src/extra/layouts/grid/lv_grid.c **** }
 4063              		.loc 1 322 5 is_stmt 0 view .LVU1148
 4064 0006 0249     		ldr	r1, .L265
 4065              	.LVL474:
 322:lvgl/src/extra/layouts/grid/lv_grid.c **** }
 4066              		.loc 1 322 5 view .LVU1149
 4067 0008 0988     		ldrh	r1, [r1]
 4068 000a FFF7FEFF 		bl	lv_obj_set_local_style_prop
 4069              	.LVL475:
 323:lvgl/src/extra/layouts/grid/lv_grid.c **** 
 4070              		.loc 1 323 1 view .LVU1150
 4071 000e 08BD     		pop	{r3, pc}
 4072              	.L266:
 4073              		.align	2
 4074              	.L265:
 4075 0010 00000000 		.word	LV_STYLE_GRID_CELL_X_ALIGN
 4076              		.cfi_endproc
 4077              	.LFE209:
 4079              		.section	.text.lv_obj_set_style_grid_cell_y_align,"ax",%progbits
 4080              		.align	1
 4081              		.global	lv_obj_set_style_grid_cell_y_align
 4082              		.syntax unified
 4083              		.thumb
 4084              		.thumb_func
 4086              	lv_obj_set_style_grid_cell_y_align:
 4087              	.LVL476:
 4088              	.LFB210:
 326:lvgl/src/extra/layouts/grid/lv_grid.c ****     lv_style_value_t v = {
 4089              		.loc 1 326 1 is_stmt 1 view -0
 4090              		.cfi_startproc
 4091              		@ args = 0, pretend = 0, frame = 0
 4092              		@ frame_needed = 0, uses_anonymous_args = 0
 326:lvgl/src/extra/layouts/grid/lv_grid.c ****     lv_style_value_t v = {
 4093              		.loc 1 326 1 is_stmt 0 view .LVU1152
 4094 0000 08B5     		push	{r3, lr}
 4095              	.LCFI50:
 4096              		.cfi_def_cfa_offset 8
 4097              		.cfi_offset 3, -8
 4098              		.cfi_offset 14, -4
 4099 0002 1346     		mov	r3, r2
 327:lvgl/src/extra/layouts/grid/lv_grid.c ****         .num = value
 4100              		.loc 1 327 5 is_stmt 1 view .LVU1153
 330:lvgl/src/extra/layouts/grid/lv_grid.c **** }
 4101              		.loc 1 330 5 view .LVU1154
 4102 0004 0A46     		mov	r2, r1
 4103              	.LVL477:
 330:lvgl/src/extra/layouts/grid/lv_grid.c **** }
 4104              		.loc 1 330 5 is_stmt 0 view .LVU1155
 4105 0006 0249     		ldr	r1, .L269
ARM GAS  /var/folders/21/t9g5rlb91ys800n5npymflf80000gn/T//cce6JCY2.s 			page 119


 4106              	.LVL478:
 330:lvgl/src/extra/layouts/grid/lv_grid.c **** }
 4107              		.loc 1 330 5 view .LVU1156
 4108 0008 0988     		ldrh	r1, [r1]
 4109 000a FFF7FEFF 		bl	lv_obj_set_local_style_prop
 4110              	.LVL479:
 331:lvgl/src/extra/layouts/grid/lv_grid.c **** 
 4111              		.loc 1 331 1 view .LVU1157
 4112 000e 08BD     		pop	{r3, pc}
 4113              	.L270:
 4114              		.align	2
 4115              	.L269:
 4116 0010 00000000 		.word	LV_STYLE_GRID_CELL_Y_ALIGN
 4117              		.cfi_endproc
 4118              	.LFE210:
 4120              		.section	.text.lv_obj_set_grid_cell,"ax",%progbits
 4121              		.align	1
 4122              		.global	lv_obj_set_grid_cell
 4123              		.syntax unified
 4124              		.thumb
 4125              		.thumb_func
 4127              	lv_obj_set_grid_cell:
 4128              	.LVL480:
 4129              	.LFB190:
 162:lvgl/src/extra/layouts/grid/lv_grid.c ****     lv_obj_set_style_grid_cell_column_pos(obj, col_pos, 0);
 4130              		.loc 1 162 1 is_stmt 1 view -0
 4131              		.cfi_startproc
 4132              		@ args = 12, pretend = 0, frame = 0
 4133              		@ frame_needed = 0, uses_anonymous_args = 0
 162:lvgl/src/extra/layouts/grid/lv_grid.c ****     lv_obj_set_style_grid_cell_column_pos(obj, col_pos, 0);
 4134              		.loc 1 162 1 is_stmt 0 view .LVU1159
 4135 0000 70B5     		push	{r4, r5, r6, lr}
 4136              	.LCFI51:
 4137              		.cfi_def_cfa_offset 16
 4138              		.cfi_offset 4, -16
 4139              		.cfi_offset 5, -12
 4140              		.cfi_offset 6, -8
 4141              		.cfi_offset 14, -4
 4142 0002 0446     		mov	r4, r0
 4143 0004 0E46     		mov	r6, r1
 4144 0006 1146     		mov	r1, r2
 4145              	.LVL481:
 162:lvgl/src/extra/layouts/grid/lv_grid.c ****     lv_obj_set_style_grid_cell_column_pos(obj, col_pos, 0);
 4146              		.loc 1 162 1 view .LVU1160
 4147 0008 1D46     		mov	r5, r3
 163:lvgl/src/extra/layouts/grid/lv_grid.c ****     lv_obj_set_style_grid_cell_row_pos(obj, row_pos, 0);
 4148              		.loc 1 163 5 is_stmt 1 view .LVU1161
 4149 000a 0022     		movs	r2, #0
 4150              	.LVL482:
 163:lvgl/src/extra/layouts/grid/lv_grid.c ****     lv_obj_set_style_grid_cell_row_pos(obj, row_pos, 0);
 4151              		.loc 1 163 5 is_stmt 0 view .LVU1162
 4152 000c FFF7FEFF 		bl	lv_obj_set_style_grid_cell_column_pos
 4153              	.LVL483:
 164:lvgl/src/extra/layouts/grid/lv_grid.c ****     lv_obj_set_style_grid_cell_x_align(obj, x_align, 0);
 4154              		.loc 1 164 5 is_stmt 1 view .LVU1163
 4155 0010 0022     		movs	r2, #0
 4156 0012 9DF81410 		ldrb	r1, [sp, #20]	@ zero_extendqisi2
ARM GAS  /var/folders/21/t9g5rlb91ys800n5npymflf80000gn/T//cce6JCY2.s 			page 120


 4157 0016 2046     		mov	r0, r4
 4158 0018 FFF7FEFF 		bl	lv_obj_set_style_grid_cell_row_pos
 4159              	.LVL484:
 165:lvgl/src/extra/layouts/grid/lv_grid.c ****     lv_obj_set_style_grid_cell_column_span(obj, col_span, 0);
 4160              		.loc 1 165 5 view .LVU1164
 4161 001c 0022     		movs	r2, #0
 4162 001e 3146     		mov	r1, r6
 4163 0020 2046     		mov	r0, r4
 4164 0022 FFF7FEFF 		bl	lv_obj_set_style_grid_cell_x_align
 4165              	.LVL485:
 166:lvgl/src/extra/layouts/grid/lv_grid.c ****     lv_obj_set_style_grid_cell_row_span(obj, row_span, 0);
 4166              		.loc 1 166 5 view .LVU1165
 4167 0026 0022     		movs	r2, #0
 4168 0028 2946     		mov	r1, r5
 4169 002a 2046     		mov	r0, r4
 4170 002c FFF7FEFF 		bl	lv_obj_set_style_grid_cell_column_span
 4171              	.LVL486:
 167:lvgl/src/extra/layouts/grid/lv_grid.c ****     lv_obj_set_style_grid_cell_y_align(obj, y_align, 0);
 4172              		.loc 1 167 5 view .LVU1166
 4173 0030 0022     		movs	r2, #0
 4174 0032 9DF81810 		ldrb	r1, [sp, #24]	@ zero_extendqisi2
 4175 0036 2046     		mov	r0, r4
 4176 0038 FFF7FEFF 		bl	lv_obj_set_style_grid_cell_row_span
 4177              	.LVL487:
 168:lvgl/src/extra/layouts/grid/lv_grid.c **** 
 4178              		.loc 1 168 5 view .LVU1167
 4179 003c 0022     		movs	r2, #0
 4180 003e 9DF81010 		ldrb	r1, [sp, #16]	@ zero_extendqisi2
 4181 0042 2046     		mov	r0, r4
 4182 0044 FFF7FEFF 		bl	lv_obj_set_style_grid_cell_y_align
 4183              	.LVL488:
 170:lvgl/src/extra/layouts/grid/lv_grid.c **** }
 4184              		.loc 1 170 5 view .LVU1168
 4185 0048 2046     		mov	r0, r4
 4186 004a FFF7FEFF 		bl	lv_obj_get_parent
 4187              	.LVL489:
 4188 004e FFF7FEFF 		bl	lv_obj_mark_layout_as_dirty
 4189              	.LVL490:
 171:lvgl/src/extra/layouts/grid/lv_grid.c **** 
 4190              		.loc 1 171 1 is_stmt 0 view .LVU1169
 4191 0052 70BD     		pop	{r4, r5, r6, pc}
 171:lvgl/src/extra/layouts/grid/lv_grid.c **** 
 4192              		.loc 1 171 1 view .LVU1170
 4193              		.cfi_endproc
 4194              	.LFE190:
 4196              		.global	LV_STYLE_GRID_CELL_Y_ALIGN
 4197              		.section	.bss.LV_STYLE_GRID_CELL_Y_ALIGN,"aw",%nobits
 4198              		.align	1
 4201              	LV_STYLE_GRID_CELL_Y_ALIGN:
 4202 0000 0000     		.space	2
 4203              		.global	LV_STYLE_GRID_CELL_ROW_SPAN
 4204              		.section	.bss.LV_STYLE_GRID_CELL_ROW_SPAN,"aw",%nobits
 4205              		.align	1
 4208              	LV_STYLE_GRID_CELL_ROW_SPAN:
 4209 0000 0000     		.space	2
 4210              		.global	LV_STYLE_GRID_CELL_ROW_POS
 4211              		.section	.bss.LV_STYLE_GRID_CELL_ROW_POS,"aw",%nobits
ARM GAS  /var/folders/21/t9g5rlb91ys800n5npymflf80000gn/T//cce6JCY2.s 			page 121


 4212              		.align	1
 4215              	LV_STYLE_GRID_CELL_ROW_POS:
 4216 0000 0000     		.space	2
 4217              		.global	LV_STYLE_GRID_CELL_X_ALIGN
 4218              		.section	.bss.LV_STYLE_GRID_CELL_X_ALIGN,"aw",%nobits
 4219              		.align	1
 4222              	LV_STYLE_GRID_CELL_X_ALIGN:
 4223 0000 0000     		.space	2
 4224              		.global	LV_STYLE_GRID_CELL_COLUMN_SPAN
 4225              		.section	.bss.LV_STYLE_GRID_CELL_COLUMN_SPAN,"aw",%nobits
 4226              		.align	1
 4229              	LV_STYLE_GRID_CELL_COLUMN_SPAN:
 4230 0000 0000     		.space	2
 4231              		.global	LV_STYLE_GRID_CELL_COLUMN_POS
 4232              		.section	.bss.LV_STYLE_GRID_CELL_COLUMN_POS,"aw",%nobits
 4233              		.align	1
 4236              	LV_STYLE_GRID_CELL_COLUMN_POS:
 4237 0000 0000     		.space	2
 4238              		.global	LV_STYLE_GRID_ROW_ALIGN
 4239              		.section	.bss.LV_STYLE_GRID_ROW_ALIGN,"aw",%nobits
 4240              		.align	1
 4243              	LV_STYLE_GRID_ROW_ALIGN:
 4244 0000 0000     		.space	2
 4245              		.global	LV_STYLE_GRID_ROW_DSC_ARRAY
 4246              		.section	.bss.LV_STYLE_GRID_ROW_DSC_ARRAY,"aw",%nobits
 4247              		.align	1
 4250              	LV_STYLE_GRID_ROW_DSC_ARRAY:
 4251 0000 0000     		.space	2
 4252              		.global	LV_STYLE_GRID_COLUMN_ALIGN
 4253              		.section	.bss.LV_STYLE_GRID_COLUMN_ALIGN,"aw",%nobits
 4254              		.align	1
 4257              	LV_STYLE_GRID_COLUMN_ALIGN:
 4258 0000 0000     		.space	2
 4259              		.global	LV_STYLE_GRID_COLUMN_DSC_ARRAY
 4260              		.section	.bss.LV_STYLE_GRID_COLUMN_DSC_ARRAY,"aw",%nobits
 4261              		.align	1
 4264              	LV_STYLE_GRID_COLUMN_DSC_ARRAY:
 4265 0000 0000     		.space	2
 4266              		.global	LV_LAYOUT_GRID
 4267              		.section	.bss.LV_LAYOUT_GRID,"aw",%nobits
 4268              		.align	1
 4271              	LV_LAYOUT_GRID:
 4272 0000 0000     		.space	2
 4273              		.text
 4274              	.Letext0:
 4275              		.file 5 "/usr/local/include/sys/_types/_int16_t.h"
 4276              		.file 6 "/usr/local/include/sys/_types/_int32_t.h"
 4277              		.file 7 "/usr/local/include/_types/_uint8_t.h"
 4278              		.file 8 "/usr/local/include/_types/_uint16_t.h"
 4279              		.file 9 "/usr/local/include/_types/_uint32_t.h"
 4280              		.file 10 "/usr/local/include/arm/_types.h"
 4281              		.file 11 "/usr/local/include/sys/_types/_size_t.h"
 4282              		.file 12 "lvgl/src/extra/layouts/grid/../flex/../../../core/../misc/lv_types.h"
 4283              		.file 13 "lvgl/src/extra/layouts/grid/../flex/../../../core/../misc/lv_color.h"
 4284              		.file 14 "lvgl/src/extra/layouts/grid/../flex/../../../core/../misc/lv_bidi.h"
 4285              		.file 15 "lvgl/src/extra/layouts/grid/../flex/../../../core/../misc/lv_style.h"
 4286              		.file 16 "lvgl/src/extra/layouts/grid/../flex/../../../core/../hal/../draw/sw/../../core/lv_obj_po
ARM GAS  /var/folders/21/t9g5rlb91ys800n5npymflf80000gn/T//cce6JCY2.s 			page 122


 4287              		.file 17 "lvgl/src/extra/layouts/grid/../flex/../../../core/lv_obj.h"
 4288              		.file 18 "lvgl/src/extra/layouts/grid/../flex/../../../core/../hal/../misc/lv_ll.h"
 4289              		.file 19 "lvgl/src/extra/layouts/grid/../flex/../../../core/lv_group.h"
 4290              		.file 20 "lvgl/src/extra/layouts/grid/../flex/../../../core/lv_obj_scroll.h"
 4291              		.file 21 "lvgl/src/extra/layouts/grid/../flex/../../../core/lv_obj_style.h"
 4292              		.file 22 "lvgl/src/extra/layouts/grid/../flex/../../../core/lv_obj_class.h"
 4293              		.file 23 "lvgl/src/extra/layouts/grid/../flex/../../../core/lv_event.h"
 4294              		.file 24 "lvgl/src/extra/layouts/grid/../flex/../../../core/../misc/lv_mem.h"
 4295              		.file 25 "lvgl/src/extra/layouts/grid/../flex/../../../core/lv_obj_tree.h"
ARM GAS  /var/folders/21/t9g5rlb91ys800n5npymflf80000gn/T//cce6JCY2.s 			page 123


DEFINED SYMBOLS
                            *ABS*:00000000 lv_grid.c
/var/folders/21/t9g5rlb91ys800n5npymflf80000gn/T//cce6JCY2.s:21     .text.grid_align:00000000 $t
/var/folders/21/t9g5rlb91ys800n5npymflf80000gn/T//cce6JCY2.s:26     .text.grid_align:00000000 grid_align
/var/folders/21/t9g5rlb91ys800n5npymflf80000gn/T//cce6JCY2.s:143    .text.grid_align:00000060 $d
/var/folders/21/t9g5rlb91ys800n5npymflf80000gn/T//cce6JCY2.s:150    .text.grid_align:0000007c $t
/var/folders/21/t9g5rlb91ys800n5npymflf80000gn/T//cce6JCY2.s:344    .text.count_tracks:00000000 $t
/var/folders/21/t9g5rlb91ys800n5npymflf80000gn/T//cce6JCY2.s:349    .text.count_tracks:00000000 count_tracks
/var/folders/21/t9g5rlb91ys800n5npymflf80000gn/T//cce6JCY2.s:387    .text.get_col_dsc:00000000 $t
/var/folders/21/t9g5rlb91ys800n5npymflf80000gn/T//cce6JCY2.s:392    .text.get_col_dsc:00000000 get_col_dsc
/var/folders/21/t9g5rlb91ys800n5npymflf80000gn/T//cce6JCY2.s:428    .text.get_col_dsc:00000010 $d
/var/folders/21/t9g5rlb91ys800n5npymflf80000gn/T//cce6JCY2.s:4264   .bss.LV_STYLE_GRID_COLUMN_DSC_ARRAY:00000000 LV_STYLE_GRID_COLUMN_DSC_ARRAY
/var/folders/21/t9g5rlb91ys800n5npymflf80000gn/T//cce6JCY2.s:433    .text.get_row_dsc:00000000 $t
/var/folders/21/t9g5rlb91ys800n5npymflf80000gn/T//cce6JCY2.s:438    .text.get_row_dsc:00000000 get_row_dsc
/var/folders/21/t9g5rlb91ys800n5npymflf80000gn/T//cce6JCY2.s:473    .text.get_row_dsc:00000010 $d
/var/folders/21/t9g5rlb91ys800n5npymflf80000gn/T//cce6JCY2.s:4250   .bss.LV_STYLE_GRID_ROW_DSC_ARRAY:00000000 LV_STYLE_GRID_ROW_DSC_ARRAY
/var/folders/21/t9g5rlb91ys800n5npymflf80000gn/T//cce6JCY2.s:478    .text.get_row_span:00000000 $t
/var/folders/21/t9g5rlb91ys800n5npymflf80000gn/T//cce6JCY2.s:483    .text.get_row_span:00000000 get_row_span
/var/folders/21/t9g5rlb91ys800n5npymflf80000gn/T//cce6JCY2.s:519    .text.get_row_span:00000010 $d
/var/folders/21/t9g5rlb91ys800n5npymflf80000gn/T//cce6JCY2.s:4208   .bss.LV_STYLE_GRID_CELL_ROW_SPAN:00000000 LV_STYLE_GRID_CELL_ROW_SPAN
/var/folders/21/t9g5rlb91ys800n5npymflf80000gn/T//cce6JCY2.s:524    .text.get_row_pos:00000000 $t
/var/folders/21/t9g5rlb91ys800n5npymflf80000gn/T//cce6JCY2.s:529    .text.get_row_pos:00000000 get_row_pos
/var/folders/21/t9g5rlb91ys800n5npymflf80000gn/T//cce6JCY2.s:565    .text.get_row_pos:00000010 $d
/var/folders/21/t9g5rlb91ys800n5npymflf80000gn/T//cce6JCY2.s:4215   .bss.LV_STYLE_GRID_CELL_ROW_POS:00000000 LV_STYLE_GRID_CELL_ROW_POS
/var/folders/21/t9g5rlb91ys800n5npymflf80000gn/T//cce6JCY2.s:570    .text.get_col_span:00000000 $t
/var/folders/21/t9g5rlb91ys800n5npymflf80000gn/T//cce6JCY2.s:575    .text.get_col_span:00000000 get_col_span
/var/folders/21/t9g5rlb91ys800n5npymflf80000gn/T//cce6JCY2.s:611    .text.get_col_span:00000010 $d
/var/folders/21/t9g5rlb91ys800n5npymflf80000gn/T//cce6JCY2.s:4229   .bss.LV_STYLE_GRID_CELL_COLUMN_SPAN:00000000 LV_STYLE_GRID_CELL_COLUMN_SPAN
/var/folders/21/t9g5rlb91ys800n5npymflf80000gn/T//cce6JCY2.s:616    .text.get_col_pos:00000000 $t
/var/folders/21/t9g5rlb91ys800n5npymflf80000gn/T//cce6JCY2.s:621    .text.get_col_pos:00000000 get_col_pos
/var/folders/21/t9g5rlb91ys800n5npymflf80000gn/T//cce6JCY2.s:657    .text.get_col_pos:00000010 $d
/var/folders/21/t9g5rlb91ys800n5npymflf80000gn/T//cce6JCY2.s:4236   .bss.LV_STYLE_GRID_CELL_COLUMN_POS:00000000 LV_STYLE_GRID_CELL_COLUMN_POS
/var/folders/21/t9g5rlb91ys800n5npymflf80000gn/T//cce6JCY2.s:662    .text.get_grid_col_align:00000000 $t
/var/folders/21/t9g5rlb91ys800n5npymflf80000gn/T//cce6JCY2.s:667    .text.get_grid_col_align:00000000 get_grid_col_align
/var/folders/21/t9g5rlb91ys800n5npymflf80000gn/T//cce6JCY2.s:703    .text.get_grid_col_align:00000010 $d
/var/folders/21/t9g5rlb91ys800n5npymflf80000gn/T//cce6JCY2.s:4257   .bss.LV_STYLE_GRID_COLUMN_ALIGN:00000000 LV_STYLE_GRID_COLUMN_ALIGN
/var/folders/21/t9g5rlb91ys800n5npymflf80000gn/T//cce6JCY2.s:708    .text.get_grid_row_align:00000000 $t
/var/folders/21/t9g5rlb91ys800n5npymflf80000gn/T//cce6JCY2.s:713    .text.get_grid_row_align:00000000 get_grid_row_align
/var/folders/21/t9g5rlb91ys800n5npymflf80000gn/T//cce6JCY2.s:749    .text.get_grid_row_align:00000010 $d
/var/folders/21/t9g5rlb91ys800n5npymflf80000gn/T//cce6JCY2.s:4243   .bss.LV_STYLE_GRID_ROW_ALIGN:00000000 LV_STYLE_GRID_ROW_ALIGN
/var/folders/21/t9g5rlb91ys800n5npymflf80000gn/T//cce6JCY2.s:754    .text.get_cell_col_align:00000000 $t
/var/folders/21/t9g5rlb91ys800n5npymflf80000gn/T//cce6JCY2.s:759    .text.get_cell_col_align:00000000 get_cell_col_align
/var/folders/21/t9g5rlb91ys800n5npymflf80000gn/T//cce6JCY2.s:795    .text.get_cell_col_align:00000010 $d
/var/folders/21/t9g5rlb91ys800n5npymflf80000gn/T//cce6JCY2.s:4222   .bss.LV_STYLE_GRID_CELL_X_ALIGN:00000000 LV_STYLE_GRID_CELL_X_ALIGN
/var/folders/21/t9g5rlb91ys800n5npymflf80000gn/T//cce6JCY2.s:800    .text.get_cell_row_align:00000000 $t
/var/folders/21/t9g5rlb91ys800n5npymflf80000gn/T//cce6JCY2.s:805    .text.get_cell_row_align:00000000 get_cell_row_align
/var/folders/21/t9g5rlb91ys800n5npymflf80000gn/T//cce6JCY2.s:841    .text.get_cell_row_align:00000010 $d
/var/folders/21/t9g5rlb91ys800n5npymflf80000gn/T//cce6JCY2.s:4201   .bss.LV_STYLE_GRID_CELL_Y_ALIGN:00000000 LV_STYLE_GRID_CELL_Y_ALIGN
/var/folders/21/t9g5rlb91ys800n5npymflf80000gn/T//cce6JCY2.s:846    .text.calc_rows:00000000 $t
/var/folders/21/t9g5rlb91ys800n5npymflf80000gn/T//cce6JCY2.s:851    .text.calc_rows:00000000 calc_rows
/var/folders/21/t9g5rlb91ys800n5npymflf80000gn/T//cce6JCY2.s:1279   .text.calc_rows:00000170 $d
/var/folders/21/t9g5rlb91ys800n5npymflf80000gn/T//cce6JCY2.s:1285   .text.calc_cols:00000000 $t
/var/folders/21/t9g5rlb91ys800n5npymflf80000gn/T//cce6JCY2.s:1290   .text.calc_cols:00000000 calc_cols
/var/folders/21/t9g5rlb91ys800n5npymflf80000gn/T//cce6JCY2.s:1727   .text.calc_cols:00000170 $d
/var/folders/21/t9g5rlb91ys800n5npymflf80000gn/T//cce6JCY2.s:1733   .text.calc:00000000 $t
/var/folders/21/t9g5rlb91ys800n5npymflf80000gn/T//cce6JCY2.s:1738   .text.calc:00000000 calc
/var/folders/21/t9g5rlb91ys800n5npymflf80000gn/T//cce6JCY2.s:2013   .text.item_repos:00000000 $t
ARM GAS  /var/folders/21/t9g5rlb91ys800n5npymflf80000gn/T//cce6JCY2.s 			page 124


/var/folders/21/t9g5rlb91ys800n5npymflf80000gn/T//cce6JCY2.s:2018   .text.item_repos:00000000 item_repos
/var/folders/21/t9g5rlb91ys800n5npymflf80000gn/T//cce6JCY2.s:2729   .text.item_repos:00000318 $d
/var/folders/21/t9g5rlb91ys800n5npymflf80000gn/T//cce6JCY2.s:2733   .text.item_repos:0000031c $t
/var/folders/21/t9g5rlb91ys800n5npymflf80000gn/T//cce6JCY2.s:2784   .text.item_repos:00000378 $d
/var/folders/21/t9g5rlb91ys800n5npymflf80000gn/T//cce6JCY2.s:2789   .text.calc_free:00000000 $t
/var/folders/21/t9g5rlb91ys800n5npymflf80000gn/T//cce6JCY2.s:2794   .text.calc_free:00000000 calc_free
/var/folders/21/t9g5rlb91ys800n5npymflf80000gn/T//cce6JCY2.s:2833   .text.grid_update:00000000 $t
/var/folders/21/t9g5rlb91ys800n5npymflf80000gn/T//cce6JCY2.s:2838   .text.grid_update:00000000 grid_update
/var/folders/21/t9g5rlb91ys800n5npymflf80000gn/T//cce6JCY2.s:3108   .text.lv_grid_init:00000000 $t
/var/folders/21/t9g5rlb91ys800n5npymflf80000gn/T//cce6JCY2.s:3114   .text.lv_grid_init:00000000 lv_grid_init
/var/folders/21/t9g5rlb91ys800n5npymflf80000gn/T//cce6JCY2.s:3219   .text.lv_grid_init:00000074 $d
/var/folders/21/t9g5rlb91ys800n5npymflf80000gn/T//cce6JCY2.s:4271   .bss.LV_LAYOUT_GRID:00000000 LV_LAYOUT_GRID
/var/folders/21/t9g5rlb91ys800n5npymflf80000gn/T//cce6JCY2.s:3235   .text.lv_style_set_grid_row_dsc_array:00000000 $t
/var/folders/21/t9g5rlb91ys800n5npymflf80000gn/T//cce6JCY2.s:3241   .text.lv_style_set_grid_row_dsc_array:00000000 lv_style_set_grid_row_dsc_array
/var/folders/21/t9g5rlb91ys800n5npymflf80000gn/T//cce6JCY2.s:3268   .text.lv_style_set_grid_row_dsc_array:00000010 $d
/var/folders/21/t9g5rlb91ys800n5npymflf80000gn/T//cce6JCY2.s:3273   .text.lv_style_set_grid_column_dsc_array:00000000 $t
/var/folders/21/t9g5rlb91ys800n5npymflf80000gn/T//cce6JCY2.s:3279   .text.lv_style_set_grid_column_dsc_array:00000000 lv_style_set_grid_column_dsc_array
/var/folders/21/t9g5rlb91ys800n5npymflf80000gn/T//cce6JCY2.s:3306   .text.lv_style_set_grid_column_dsc_array:00000010 $d
/var/folders/21/t9g5rlb91ys800n5npymflf80000gn/T//cce6JCY2.s:3311   .text.lv_style_set_grid_row_align:00000000 $t
/var/folders/21/t9g5rlb91ys800n5npymflf80000gn/T//cce6JCY2.s:3317   .text.lv_style_set_grid_row_align:00000000 lv_style_set_grid_row_align
/var/folders/21/t9g5rlb91ys800n5npymflf80000gn/T//cce6JCY2.s:3344   .text.lv_style_set_grid_row_align:00000010 $d
/var/folders/21/t9g5rlb91ys800n5npymflf80000gn/T//cce6JCY2.s:3349   .text.lv_style_set_grid_column_align:00000000 $t
/var/folders/21/t9g5rlb91ys800n5npymflf80000gn/T//cce6JCY2.s:3355   .text.lv_style_set_grid_column_align:00000000 lv_style_set_grid_column_align
/var/folders/21/t9g5rlb91ys800n5npymflf80000gn/T//cce6JCY2.s:3382   .text.lv_style_set_grid_column_align:00000010 $d
/var/folders/21/t9g5rlb91ys800n5npymflf80000gn/T//cce6JCY2.s:3387   .text.lv_style_set_grid_cell_column_pos:00000000 $t
/var/folders/21/t9g5rlb91ys800n5npymflf80000gn/T//cce6JCY2.s:3393   .text.lv_style_set_grid_cell_column_pos:00000000 lv_style_set_grid_cell_column_pos
/var/folders/21/t9g5rlb91ys800n5npymflf80000gn/T//cce6JCY2.s:3420   .text.lv_style_set_grid_cell_column_pos:00000010 $d
/var/folders/21/t9g5rlb91ys800n5npymflf80000gn/T//cce6JCY2.s:3425   .text.lv_style_set_grid_cell_column_span:00000000 $t
/var/folders/21/t9g5rlb91ys800n5npymflf80000gn/T//cce6JCY2.s:3431   .text.lv_style_set_grid_cell_column_span:00000000 lv_style_set_grid_cell_column_span
/var/folders/21/t9g5rlb91ys800n5npymflf80000gn/T//cce6JCY2.s:3458   .text.lv_style_set_grid_cell_column_span:00000010 $d
/var/folders/21/t9g5rlb91ys800n5npymflf80000gn/T//cce6JCY2.s:3463   .text.lv_style_set_grid_cell_row_pos:00000000 $t
/var/folders/21/t9g5rlb91ys800n5npymflf80000gn/T//cce6JCY2.s:3469   .text.lv_style_set_grid_cell_row_pos:00000000 lv_style_set_grid_cell_row_pos
/var/folders/21/t9g5rlb91ys800n5npymflf80000gn/T//cce6JCY2.s:3496   .text.lv_style_set_grid_cell_row_pos:00000010 $d
/var/folders/21/t9g5rlb91ys800n5npymflf80000gn/T//cce6JCY2.s:3501   .text.lv_style_set_grid_cell_row_span:00000000 $t
/var/folders/21/t9g5rlb91ys800n5npymflf80000gn/T//cce6JCY2.s:3507   .text.lv_style_set_grid_cell_row_span:00000000 lv_style_set_grid_cell_row_span
/var/folders/21/t9g5rlb91ys800n5npymflf80000gn/T//cce6JCY2.s:3534   .text.lv_style_set_grid_cell_row_span:00000010 $d
/var/folders/21/t9g5rlb91ys800n5npymflf80000gn/T//cce6JCY2.s:3539   .text.lv_style_set_grid_cell_x_align:00000000 $t
/var/folders/21/t9g5rlb91ys800n5npymflf80000gn/T//cce6JCY2.s:3545   .text.lv_style_set_grid_cell_x_align:00000000 lv_style_set_grid_cell_x_align
/var/folders/21/t9g5rlb91ys800n5npymflf80000gn/T//cce6JCY2.s:3572   .text.lv_style_set_grid_cell_x_align:00000010 $d
/var/folders/21/t9g5rlb91ys800n5npymflf80000gn/T//cce6JCY2.s:3577   .text.lv_style_set_grid_cell_y_align:00000000 $t
/var/folders/21/t9g5rlb91ys800n5npymflf80000gn/T//cce6JCY2.s:3583   .text.lv_style_set_grid_cell_y_align:00000000 lv_style_set_grid_cell_y_align
/var/folders/21/t9g5rlb91ys800n5npymflf80000gn/T//cce6JCY2.s:3610   .text.lv_style_set_grid_cell_y_align:00000010 $d
/var/folders/21/t9g5rlb91ys800n5npymflf80000gn/T//cce6JCY2.s:3615   .text.lv_obj_set_style_grid_row_dsc_array:00000000 $t
/var/folders/21/t9g5rlb91ys800n5npymflf80000gn/T//cce6JCY2.s:3621   .text.lv_obj_set_style_grid_row_dsc_array:00000000 lv_obj_set_style_grid_row_dsc_array
/var/folders/21/t9g5rlb91ys800n5npymflf80000gn/T//cce6JCY2.s:3651   .text.lv_obj_set_style_grid_row_dsc_array:00000010 $d
/var/folders/21/t9g5rlb91ys800n5npymflf80000gn/T//cce6JCY2.s:3656   .text.lv_obj_set_style_grid_column_dsc_array:00000000 $t
/var/folders/21/t9g5rlb91ys800n5npymflf80000gn/T//cce6JCY2.s:3662   .text.lv_obj_set_style_grid_column_dsc_array:00000000 lv_obj_set_style_grid_column_dsc_array
/var/folders/21/t9g5rlb91ys800n5npymflf80000gn/T//cce6JCY2.s:3692   .text.lv_obj_set_style_grid_column_dsc_array:00000010 $d
/var/folders/21/t9g5rlb91ys800n5npymflf80000gn/T//cce6JCY2.s:3697   .text.lv_obj_set_grid_dsc_array:00000000 $t
/var/folders/21/t9g5rlb91ys800n5npymflf80000gn/T//cce6JCY2.s:3703   .text.lv_obj_set_grid_dsc_array:00000000 lv_obj_set_grid_dsc_array
/var/folders/21/t9g5rlb91ys800n5npymflf80000gn/T//cce6JCY2.s:3746   .text.lv_obj_set_grid_dsc_array:00000024 $d
/var/folders/21/t9g5rlb91ys800n5npymflf80000gn/T//cce6JCY2.s:3751   .text.lv_obj_set_style_grid_row_align:00000000 $t
/var/folders/21/t9g5rlb91ys800n5npymflf80000gn/T//cce6JCY2.s:3757   .text.lv_obj_set_style_grid_row_align:00000000 lv_obj_set_style_grid_row_align
/var/folders/21/t9g5rlb91ys800n5npymflf80000gn/T//cce6JCY2.s:3787   .text.lv_obj_set_style_grid_row_align:00000010 $d
/var/folders/21/t9g5rlb91ys800n5npymflf80000gn/T//cce6JCY2.s:3792   .text.lv_obj_set_style_grid_column_align:00000000 $t
/var/folders/21/t9g5rlb91ys800n5npymflf80000gn/T//cce6JCY2.s:3798   .text.lv_obj_set_style_grid_column_align:00000000 lv_obj_set_style_grid_column_align
/var/folders/21/t9g5rlb91ys800n5npymflf80000gn/T//cce6JCY2.s:3828   .text.lv_obj_set_style_grid_column_align:00000010 $d
ARM GAS  /var/folders/21/t9g5rlb91ys800n5npymflf80000gn/T//cce6JCY2.s 			page 125


/var/folders/21/t9g5rlb91ys800n5npymflf80000gn/T//cce6JCY2.s:3833   .text.lv_obj_set_grid_align:00000000 $t
/var/folders/21/t9g5rlb91ys800n5npymflf80000gn/T//cce6JCY2.s:3839   .text.lv_obj_set_grid_align:00000000 lv_obj_set_grid_align
/var/folders/21/t9g5rlb91ys800n5npymflf80000gn/T//cce6JCY2.s:3875   .text.lv_obj_set_style_grid_cell_column_pos:00000000 $t
/var/folders/21/t9g5rlb91ys800n5npymflf80000gn/T//cce6JCY2.s:3881   .text.lv_obj_set_style_grid_cell_column_pos:00000000 lv_obj_set_style_grid_cell_column_pos
/var/folders/21/t9g5rlb91ys800n5npymflf80000gn/T//cce6JCY2.s:3911   .text.lv_obj_set_style_grid_cell_column_pos:00000010 $d
/var/folders/21/t9g5rlb91ys800n5npymflf80000gn/T//cce6JCY2.s:3916   .text.lv_obj_set_style_grid_cell_column_span:00000000 $t
/var/folders/21/t9g5rlb91ys800n5npymflf80000gn/T//cce6JCY2.s:3922   .text.lv_obj_set_style_grid_cell_column_span:00000000 lv_obj_set_style_grid_cell_column_span
/var/folders/21/t9g5rlb91ys800n5npymflf80000gn/T//cce6JCY2.s:3952   .text.lv_obj_set_style_grid_cell_column_span:00000010 $d
/var/folders/21/t9g5rlb91ys800n5npymflf80000gn/T//cce6JCY2.s:3957   .text.lv_obj_set_style_grid_cell_row_pos:00000000 $t
/var/folders/21/t9g5rlb91ys800n5npymflf80000gn/T//cce6JCY2.s:3963   .text.lv_obj_set_style_grid_cell_row_pos:00000000 lv_obj_set_style_grid_cell_row_pos
/var/folders/21/t9g5rlb91ys800n5npymflf80000gn/T//cce6JCY2.s:3993   .text.lv_obj_set_style_grid_cell_row_pos:00000010 $d
/var/folders/21/t9g5rlb91ys800n5npymflf80000gn/T//cce6JCY2.s:3998   .text.lv_obj_set_style_grid_cell_row_span:00000000 $t
/var/folders/21/t9g5rlb91ys800n5npymflf80000gn/T//cce6JCY2.s:4004   .text.lv_obj_set_style_grid_cell_row_span:00000000 lv_obj_set_style_grid_cell_row_span
/var/folders/21/t9g5rlb91ys800n5npymflf80000gn/T//cce6JCY2.s:4034   .text.lv_obj_set_style_grid_cell_row_span:00000010 $d
/var/folders/21/t9g5rlb91ys800n5npymflf80000gn/T//cce6JCY2.s:4039   .text.lv_obj_set_style_grid_cell_x_align:00000000 $t
/var/folders/21/t9g5rlb91ys800n5npymflf80000gn/T//cce6JCY2.s:4045   .text.lv_obj_set_style_grid_cell_x_align:00000000 lv_obj_set_style_grid_cell_x_align
/var/folders/21/t9g5rlb91ys800n5npymflf80000gn/T//cce6JCY2.s:4075   .text.lv_obj_set_style_grid_cell_x_align:00000010 $d
/var/folders/21/t9g5rlb91ys800n5npymflf80000gn/T//cce6JCY2.s:4080   .text.lv_obj_set_style_grid_cell_y_align:00000000 $t
/var/folders/21/t9g5rlb91ys800n5npymflf80000gn/T//cce6JCY2.s:4086   .text.lv_obj_set_style_grid_cell_y_align:00000000 lv_obj_set_style_grid_cell_y_align
/var/folders/21/t9g5rlb91ys800n5npymflf80000gn/T//cce6JCY2.s:4116   .text.lv_obj_set_style_grid_cell_y_align:00000010 $d
/var/folders/21/t9g5rlb91ys800n5npymflf80000gn/T//cce6JCY2.s:4121   .text.lv_obj_set_grid_cell:00000000 $t
/var/folders/21/t9g5rlb91ys800n5npymflf80000gn/T//cce6JCY2.s:4127   .text.lv_obj_set_grid_cell:00000000 lv_obj_set_grid_cell
/var/folders/21/t9g5rlb91ys800n5npymflf80000gn/T//cce6JCY2.s:4198   .bss.LV_STYLE_GRID_CELL_Y_ALIGN:00000000 $d
/var/folders/21/t9g5rlb91ys800n5npymflf80000gn/T//cce6JCY2.s:4205   .bss.LV_STYLE_GRID_CELL_ROW_SPAN:00000000 $d
/var/folders/21/t9g5rlb91ys800n5npymflf80000gn/T//cce6JCY2.s:4212   .bss.LV_STYLE_GRID_CELL_ROW_POS:00000000 $d
/var/folders/21/t9g5rlb91ys800n5npymflf80000gn/T//cce6JCY2.s:4219   .bss.LV_STYLE_GRID_CELL_X_ALIGN:00000000 $d
/var/folders/21/t9g5rlb91ys800n5npymflf80000gn/T//cce6JCY2.s:4226   .bss.LV_STYLE_GRID_CELL_COLUMN_SPAN:00000000 $d
/var/folders/21/t9g5rlb91ys800n5npymflf80000gn/T//cce6JCY2.s:4233   .bss.LV_STYLE_GRID_CELL_COLUMN_POS:00000000 $d
/var/folders/21/t9g5rlb91ys800n5npymflf80000gn/T//cce6JCY2.s:4240   .bss.LV_STYLE_GRID_ROW_ALIGN:00000000 $d
/var/folders/21/t9g5rlb91ys800n5npymflf80000gn/T//cce6JCY2.s:4247   .bss.LV_STYLE_GRID_ROW_DSC_ARRAY:00000000 $d
/var/folders/21/t9g5rlb91ys800n5npymflf80000gn/T//cce6JCY2.s:4254   .bss.LV_STYLE_GRID_COLUMN_ALIGN:00000000 $d
/var/folders/21/t9g5rlb91ys800n5npymflf80000gn/T//cce6JCY2.s:4261   .bss.LV_STYLE_GRID_COLUMN_DSC_ARRAY:00000000 $d
/var/folders/21/t9g5rlb91ys800n5npymflf80000gn/T//cce6JCY2.s:4268   .bss.LV_LAYOUT_GRID:00000000 $d

UNDEFINED SYMBOLS
lv_obj_get_style_prop
lv_mem_buf_get
lv_obj_get_child_cnt
lv_obj_get_child
lv_obj_has_flag_any
lv_obj_get_height
lv_obj_get_content_height
lv_obj_get_content_width
lv_obj_get_width
lv_memset_00
lv_obj_invalidate
lv_area_set_width
lv_area_set_height
lv_event_send
lv_obj_get_parent
lv_obj_move_children_by
lv_mem_buf_release
lv_obj_get_scroll_x
lv_obj_get_scroll_y
lv_obj_refr_size
lv_layout_register
lv_style_register_prop
ARM GAS  /var/folders/21/t9g5rlb91ys800n5npymflf80000gn/T//cce6JCY2.s 			page 126


lv_style_set_prop
lv_obj_set_local_style_prop
lv_obj_set_style_layout
lv_obj_mark_layout_as_dirty
