ARM GAS  /var/folders/21/t9g5rlb91ys800n5npymflf80000gn/T//cce6JCY2.s 			page 1


   1              		.cpu cortex-m4
   2              		.arch armv7e-m
   3              		.fpu fpv4-sp-d16
   4              		.eabi_attribute 27, 1
   5              		.eabi_attribute 28, 1
   6              		.eabi_attribute 20, 1
   7              		.eabi_attribute 21, 1
   8              		.eabi_attribute 23, 3
   9              		.eabi_attribute 24, 1
  10              		.eabi_attribute 25, 1
  11              		.eabi_attribute 26, 1
  12              		.eabi_attribute 30, 1
  13              		.eabi_attribute 34, 1
  14              		.eabi_attribute 18, 4
  15              		.file	"lv_grid.c"
  16              		.text
  17              	.Ltext0:
  18              		.cfi_sections	.debug_frame
  19              		.file 1 "lvgl/src/extra/layouts/grid/lv_grid.c"
  20              		.section	.text.grid_align,"ax",%progbits
  21              		.align	1
  22              		.syntax unified
  23              		.thumb
  24              		.thumb_func
  26              	grid_align:
  27              	.LVL0:
  28              	.LFB217:
   1:lvgl/src/extra/layouts/grid/lv_grid.c **** /**
   2:lvgl/src/extra/layouts/grid/lv_grid.c ****  * @file lv_grid.c
   3:lvgl/src/extra/layouts/grid/lv_grid.c ****  *
   4:lvgl/src/extra/layouts/grid/lv_grid.c ****  */
   5:lvgl/src/extra/layouts/grid/lv_grid.c **** 
   6:lvgl/src/extra/layouts/grid/lv_grid.c **** /*********************
   7:lvgl/src/extra/layouts/grid/lv_grid.c ****  *      INCLUDES
   8:lvgl/src/extra/layouts/grid/lv_grid.c ****  *********************/
   9:lvgl/src/extra/layouts/grid/lv_grid.c **** #include "../lv_layouts.h"
  10:lvgl/src/extra/layouts/grid/lv_grid.c **** 
  11:lvgl/src/extra/layouts/grid/lv_grid.c **** #if LV_USE_GRID
  12:lvgl/src/extra/layouts/grid/lv_grid.c **** 
  13:lvgl/src/extra/layouts/grid/lv_grid.c **** /*********************
  14:lvgl/src/extra/layouts/grid/lv_grid.c ****  *      DEFINES
  15:lvgl/src/extra/layouts/grid/lv_grid.c ****  *********************/
  16:lvgl/src/extra/layouts/grid/lv_grid.c **** /**
  17:lvgl/src/extra/layouts/grid/lv_grid.c ****  * Some helper defines
  18:lvgl/src/extra/layouts/grid/lv_grid.c ****  */
  19:lvgl/src/extra/layouts/grid/lv_grid.c **** #define IS_FR(x)       (x >= LV_COORD_MAX - 100)
  20:lvgl/src/extra/layouts/grid/lv_grid.c **** #define IS_CONTENT(x)  (x == LV_COORD_MAX - 101)
  21:lvgl/src/extra/layouts/grid/lv_grid.c **** #define GET_FR(x)      (x - (LV_COORD_MAX - 100))
  22:lvgl/src/extra/layouts/grid/lv_grid.c **** 
  23:lvgl/src/extra/layouts/grid/lv_grid.c **** /**********************
  24:lvgl/src/extra/layouts/grid/lv_grid.c ****  *      TYPEDEFS
  25:lvgl/src/extra/layouts/grid/lv_grid.c ****  **********************/
  26:lvgl/src/extra/layouts/grid/lv_grid.c **** typedef struct {
  27:lvgl/src/extra/layouts/grid/lv_grid.c ****     uint32_t col;
  28:lvgl/src/extra/layouts/grid/lv_grid.c ****     uint32_t row;
  29:lvgl/src/extra/layouts/grid/lv_grid.c ****     lv_point_t grid_abs;
  30:lvgl/src/extra/layouts/grid/lv_grid.c **** } item_repos_hint_t;
ARM GAS  /var/folders/21/t9g5rlb91ys800n5npymflf80000gn/T//cce6JCY2.s 			page 2


  31:lvgl/src/extra/layouts/grid/lv_grid.c **** 
  32:lvgl/src/extra/layouts/grid/lv_grid.c **** typedef struct {
  33:lvgl/src/extra/layouts/grid/lv_grid.c ****     lv_coord_t * x;
  34:lvgl/src/extra/layouts/grid/lv_grid.c ****     lv_coord_t * y;
  35:lvgl/src/extra/layouts/grid/lv_grid.c ****     lv_coord_t * w;
  36:lvgl/src/extra/layouts/grid/lv_grid.c ****     lv_coord_t * h;
  37:lvgl/src/extra/layouts/grid/lv_grid.c ****     uint32_t col_num;
  38:lvgl/src/extra/layouts/grid/lv_grid.c ****     uint32_t row_num;
  39:lvgl/src/extra/layouts/grid/lv_grid.c ****     lv_coord_t grid_w;
  40:lvgl/src/extra/layouts/grid/lv_grid.c ****     lv_coord_t grid_h;
  41:lvgl/src/extra/layouts/grid/lv_grid.c **** } _lv_grid_calc_t;
  42:lvgl/src/extra/layouts/grid/lv_grid.c **** 
  43:lvgl/src/extra/layouts/grid/lv_grid.c **** /**********************
  44:lvgl/src/extra/layouts/grid/lv_grid.c ****  *  GLOBAL PROTOTYPES
  45:lvgl/src/extra/layouts/grid/lv_grid.c ****  **********************/
  46:lvgl/src/extra/layouts/grid/lv_grid.c **** 
  47:lvgl/src/extra/layouts/grid/lv_grid.c **** /**********************
  48:lvgl/src/extra/layouts/grid/lv_grid.c ****  *  STATIC PROTOTYPES
  49:lvgl/src/extra/layouts/grid/lv_grid.c ****  **********************/
  50:lvgl/src/extra/layouts/grid/lv_grid.c **** static void grid_update(lv_obj_t * cont, void * user_data);
  51:lvgl/src/extra/layouts/grid/lv_grid.c **** static void calc(lv_obj_t * obj, _lv_grid_calc_t * calc);
  52:lvgl/src/extra/layouts/grid/lv_grid.c **** static void calc_free(_lv_grid_calc_t * calc);
  53:lvgl/src/extra/layouts/grid/lv_grid.c **** static void calc_cols(lv_obj_t * cont, _lv_grid_calc_t * c);
  54:lvgl/src/extra/layouts/grid/lv_grid.c **** static void calc_rows(lv_obj_t * cont, _lv_grid_calc_t * c);
  55:lvgl/src/extra/layouts/grid/lv_grid.c **** static void item_repos(lv_obj_t * item, _lv_grid_calc_t * c, item_repos_hint_t * hint);
  56:lvgl/src/extra/layouts/grid/lv_grid.c **** static lv_coord_t grid_align(lv_coord_t cont_size,  bool auto_size, uint8_t align, lv_coord_t gap, 
  57:lvgl/src/extra/layouts/grid/lv_grid.c ****                              lv_coord_t * size_array, lv_coord_t * pos_array, bool reverse);
  58:lvgl/src/extra/layouts/grid/lv_grid.c **** static uint32_t count_tracks(const lv_coord_t * templ);
  59:lvgl/src/extra/layouts/grid/lv_grid.c **** 
  60:lvgl/src/extra/layouts/grid/lv_grid.c **** static inline const lv_coord_t * get_col_dsc(lv_obj_t * obj)
  61:lvgl/src/extra/layouts/grid/lv_grid.c **** {
  62:lvgl/src/extra/layouts/grid/lv_grid.c ****     return lv_obj_get_style_grid_column_dsc_array(obj, 0);
  63:lvgl/src/extra/layouts/grid/lv_grid.c **** }
  64:lvgl/src/extra/layouts/grid/lv_grid.c **** static inline const lv_coord_t * get_row_dsc(lv_obj_t * obj)
  65:lvgl/src/extra/layouts/grid/lv_grid.c **** {
  66:lvgl/src/extra/layouts/grid/lv_grid.c ****     return lv_obj_get_style_grid_row_dsc_array(obj, 0);
  67:lvgl/src/extra/layouts/grid/lv_grid.c **** }
  68:lvgl/src/extra/layouts/grid/lv_grid.c **** static inline uint8_t get_col_pos(lv_obj_t * obj)
  69:lvgl/src/extra/layouts/grid/lv_grid.c **** {
  70:lvgl/src/extra/layouts/grid/lv_grid.c ****     return lv_obj_get_style_grid_cell_column_pos(obj, 0);
  71:lvgl/src/extra/layouts/grid/lv_grid.c **** }
  72:lvgl/src/extra/layouts/grid/lv_grid.c **** static inline uint8_t get_row_pos(lv_obj_t * obj)
  73:lvgl/src/extra/layouts/grid/lv_grid.c **** {
  74:lvgl/src/extra/layouts/grid/lv_grid.c ****     return lv_obj_get_style_grid_cell_row_pos(obj, 0);
  75:lvgl/src/extra/layouts/grid/lv_grid.c **** }
  76:lvgl/src/extra/layouts/grid/lv_grid.c **** static inline uint8_t get_col_span(lv_obj_t * obj)
  77:lvgl/src/extra/layouts/grid/lv_grid.c **** {
  78:lvgl/src/extra/layouts/grid/lv_grid.c ****     return lv_obj_get_style_grid_cell_column_span(obj, 0);
  79:lvgl/src/extra/layouts/grid/lv_grid.c **** }
  80:lvgl/src/extra/layouts/grid/lv_grid.c **** static inline uint8_t get_row_span(lv_obj_t * obj)
  81:lvgl/src/extra/layouts/grid/lv_grid.c **** {
  82:lvgl/src/extra/layouts/grid/lv_grid.c ****     return lv_obj_get_style_grid_cell_row_span(obj, 0);
  83:lvgl/src/extra/layouts/grid/lv_grid.c **** }
  84:lvgl/src/extra/layouts/grid/lv_grid.c **** static inline uint8_t get_cell_col_align(lv_obj_t * obj)
  85:lvgl/src/extra/layouts/grid/lv_grid.c **** {
  86:lvgl/src/extra/layouts/grid/lv_grid.c ****     return lv_obj_get_style_grid_cell_x_align(obj, 0);
  87:lvgl/src/extra/layouts/grid/lv_grid.c **** }
ARM GAS  /var/folders/21/t9g5rlb91ys800n5npymflf80000gn/T//cce6JCY2.s 			page 3


  88:lvgl/src/extra/layouts/grid/lv_grid.c **** static inline uint8_t get_cell_row_align(lv_obj_t * obj)
  89:lvgl/src/extra/layouts/grid/lv_grid.c **** {
  90:lvgl/src/extra/layouts/grid/lv_grid.c ****     return lv_obj_get_style_grid_cell_y_align(obj, 0);
  91:lvgl/src/extra/layouts/grid/lv_grid.c **** }
  92:lvgl/src/extra/layouts/grid/lv_grid.c **** static inline uint8_t get_grid_col_align(lv_obj_t * obj)
  93:lvgl/src/extra/layouts/grid/lv_grid.c **** {
  94:lvgl/src/extra/layouts/grid/lv_grid.c ****     return lv_obj_get_style_grid_column_align(obj, 0);
  95:lvgl/src/extra/layouts/grid/lv_grid.c **** }
  96:lvgl/src/extra/layouts/grid/lv_grid.c **** static inline uint8_t get_grid_row_align(lv_obj_t * obj)
  97:lvgl/src/extra/layouts/grid/lv_grid.c **** {
  98:lvgl/src/extra/layouts/grid/lv_grid.c ****     return lv_obj_get_style_grid_row_align(obj, 0);
  99:lvgl/src/extra/layouts/grid/lv_grid.c **** }
 100:lvgl/src/extra/layouts/grid/lv_grid.c **** 
 101:lvgl/src/extra/layouts/grid/lv_grid.c **** /**********************
 102:lvgl/src/extra/layouts/grid/lv_grid.c ****  *  GLOBAL VARIABLES
 103:lvgl/src/extra/layouts/grid/lv_grid.c ****  **********************/
 104:lvgl/src/extra/layouts/grid/lv_grid.c **** uint16_t LV_LAYOUT_GRID;
 105:lvgl/src/extra/layouts/grid/lv_grid.c **** lv_style_prop_t LV_STYLE_GRID_COLUMN_DSC_ARRAY;
 106:lvgl/src/extra/layouts/grid/lv_grid.c **** lv_style_prop_t LV_STYLE_GRID_COLUMN_ALIGN;
 107:lvgl/src/extra/layouts/grid/lv_grid.c **** lv_style_prop_t LV_STYLE_GRID_ROW_DSC_ARRAY;
 108:lvgl/src/extra/layouts/grid/lv_grid.c **** lv_style_prop_t LV_STYLE_GRID_ROW_ALIGN;
 109:lvgl/src/extra/layouts/grid/lv_grid.c **** lv_style_prop_t LV_STYLE_GRID_CELL_COLUMN_POS;
 110:lvgl/src/extra/layouts/grid/lv_grid.c **** lv_style_prop_t LV_STYLE_GRID_CELL_COLUMN_SPAN;
 111:lvgl/src/extra/layouts/grid/lv_grid.c **** lv_style_prop_t LV_STYLE_GRID_CELL_X_ALIGN;
 112:lvgl/src/extra/layouts/grid/lv_grid.c **** lv_style_prop_t LV_STYLE_GRID_CELL_ROW_POS;
 113:lvgl/src/extra/layouts/grid/lv_grid.c **** lv_style_prop_t LV_STYLE_GRID_CELL_ROW_SPAN;
 114:lvgl/src/extra/layouts/grid/lv_grid.c **** lv_style_prop_t LV_STYLE_GRID_CELL_Y_ALIGN;
 115:lvgl/src/extra/layouts/grid/lv_grid.c **** 
 116:lvgl/src/extra/layouts/grid/lv_grid.c **** /**********************
 117:lvgl/src/extra/layouts/grid/lv_grid.c ****  *  STATIC VARIABLES
 118:lvgl/src/extra/layouts/grid/lv_grid.c ****  **********************/
 119:lvgl/src/extra/layouts/grid/lv_grid.c **** 
 120:lvgl/src/extra/layouts/grid/lv_grid.c **** /**********************
 121:lvgl/src/extra/layouts/grid/lv_grid.c ****  *      MACROS
 122:lvgl/src/extra/layouts/grid/lv_grid.c ****  **********************/
 123:lvgl/src/extra/layouts/grid/lv_grid.c **** 
 124:lvgl/src/extra/layouts/grid/lv_grid.c **** /**********************
 125:lvgl/src/extra/layouts/grid/lv_grid.c ****  *   GLOBAL FUNCTIONS
 126:lvgl/src/extra/layouts/grid/lv_grid.c ****  **********************/
 127:lvgl/src/extra/layouts/grid/lv_grid.c **** 
 128:lvgl/src/extra/layouts/grid/lv_grid.c **** void lv_grid_init(void)
 129:lvgl/src/extra/layouts/grid/lv_grid.c **** {
 130:lvgl/src/extra/layouts/grid/lv_grid.c ****     LV_LAYOUT_GRID = lv_layout_register(grid_update, NULL);
 131:lvgl/src/extra/layouts/grid/lv_grid.c **** 
 132:lvgl/src/extra/layouts/grid/lv_grid.c ****     LV_STYLE_GRID_COLUMN_DSC_ARRAY = lv_style_register_prop(LV_STYLE_PROP_LAYOUT_REFR);
 133:lvgl/src/extra/layouts/grid/lv_grid.c ****     LV_STYLE_GRID_ROW_DSC_ARRAY = lv_style_register_prop(LV_STYLE_PROP_LAYOUT_REFR);
 134:lvgl/src/extra/layouts/grid/lv_grid.c ****     LV_STYLE_GRID_COLUMN_ALIGN = lv_style_register_prop(LV_STYLE_PROP_LAYOUT_REFR);
 135:lvgl/src/extra/layouts/grid/lv_grid.c ****     LV_STYLE_GRID_ROW_ALIGN = lv_style_register_prop(LV_STYLE_PROP_LAYOUT_REFR);
 136:lvgl/src/extra/layouts/grid/lv_grid.c **** 
 137:lvgl/src/extra/layouts/grid/lv_grid.c ****     LV_STYLE_GRID_CELL_ROW_SPAN = lv_style_register_prop(LV_STYLE_PROP_LAYOUT_REFR);
 138:lvgl/src/extra/layouts/grid/lv_grid.c ****     LV_STYLE_GRID_CELL_ROW_POS = lv_style_register_prop(LV_STYLE_PROP_LAYOUT_REFR);
 139:lvgl/src/extra/layouts/grid/lv_grid.c ****     LV_STYLE_GRID_CELL_COLUMN_SPAN = lv_style_register_prop(LV_STYLE_PROP_LAYOUT_REFR);
 140:lvgl/src/extra/layouts/grid/lv_grid.c ****     LV_STYLE_GRID_CELL_COLUMN_POS = lv_style_register_prop(LV_STYLE_PROP_LAYOUT_REFR);
 141:lvgl/src/extra/layouts/grid/lv_grid.c ****     LV_STYLE_GRID_CELL_X_ALIGN = lv_style_register_prop(LV_STYLE_PROP_LAYOUT_REFR);
 142:lvgl/src/extra/layouts/grid/lv_grid.c ****     LV_STYLE_GRID_CELL_Y_ALIGN = lv_style_register_prop(LV_STYLE_PROP_LAYOUT_REFR);
 143:lvgl/src/extra/layouts/grid/lv_grid.c **** }
 144:lvgl/src/extra/layouts/grid/lv_grid.c **** 
ARM GAS  /var/folders/21/t9g5rlb91ys800n5npymflf80000gn/T//cce6JCY2.s 			page 4


 145:lvgl/src/extra/layouts/grid/lv_grid.c **** void lv_obj_set_grid_dsc_array(lv_obj_t * obj, const lv_coord_t col_dsc[], const lv_coord_t row_dsc
 146:lvgl/src/extra/layouts/grid/lv_grid.c **** {
 147:lvgl/src/extra/layouts/grid/lv_grid.c ****     lv_obj_set_style_grid_column_dsc_array(obj, col_dsc, 0);
 148:lvgl/src/extra/layouts/grid/lv_grid.c ****     lv_obj_set_style_grid_row_dsc_array(obj, row_dsc, 0);
 149:lvgl/src/extra/layouts/grid/lv_grid.c ****     lv_obj_set_style_layout(obj, LV_LAYOUT_GRID, 0);
 150:lvgl/src/extra/layouts/grid/lv_grid.c **** }
 151:lvgl/src/extra/layouts/grid/lv_grid.c **** 
 152:lvgl/src/extra/layouts/grid/lv_grid.c **** void lv_obj_set_grid_align(lv_obj_t * obj, lv_grid_align_t column_align, lv_grid_align_t row_align)
 153:lvgl/src/extra/layouts/grid/lv_grid.c **** {
 154:lvgl/src/extra/layouts/grid/lv_grid.c ****     lv_obj_set_style_grid_column_align(obj, column_align, 0);
 155:lvgl/src/extra/layouts/grid/lv_grid.c ****     lv_obj_set_style_grid_row_align(obj, row_align, 0);
 156:lvgl/src/extra/layouts/grid/lv_grid.c **** 
 157:lvgl/src/extra/layouts/grid/lv_grid.c **** }
 158:lvgl/src/extra/layouts/grid/lv_grid.c **** 
 159:lvgl/src/extra/layouts/grid/lv_grid.c **** void lv_obj_set_grid_cell(lv_obj_t * obj, lv_grid_align_t x_align, uint8_t col_pos, uint8_t col_spa
 160:lvgl/src/extra/layouts/grid/lv_grid.c ****                           lv_grid_align_t y_align, uint8_t row_pos, uint8_t row_span)
 161:lvgl/src/extra/layouts/grid/lv_grid.c **** 
 162:lvgl/src/extra/layouts/grid/lv_grid.c **** {
 163:lvgl/src/extra/layouts/grid/lv_grid.c ****     lv_obj_set_style_grid_cell_column_pos(obj, col_pos, 0);
 164:lvgl/src/extra/layouts/grid/lv_grid.c ****     lv_obj_set_style_grid_cell_row_pos(obj, row_pos, 0);
 165:lvgl/src/extra/layouts/grid/lv_grid.c ****     lv_obj_set_style_grid_cell_x_align(obj, x_align, 0);
 166:lvgl/src/extra/layouts/grid/lv_grid.c ****     lv_obj_set_style_grid_cell_column_span(obj, col_span, 0);
 167:lvgl/src/extra/layouts/grid/lv_grid.c ****     lv_obj_set_style_grid_cell_row_span(obj, row_span, 0);
 168:lvgl/src/extra/layouts/grid/lv_grid.c ****     lv_obj_set_style_grid_cell_y_align(obj, y_align, 0);
 169:lvgl/src/extra/layouts/grid/lv_grid.c **** 
 170:lvgl/src/extra/layouts/grid/lv_grid.c ****     lv_obj_mark_layout_as_dirty(lv_obj_get_parent(obj));
 171:lvgl/src/extra/layouts/grid/lv_grid.c **** }
 172:lvgl/src/extra/layouts/grid/lv_grid.c **** 
 173:lvgl/src/extra/layouts/grid/lv_grid.c **** void lv_style_set_grid_row_dsc_array(lv_style_t * style, const lv_coord_t value[])
 174:lvgl/src/extra/layouts/grid/lv_grid.c **** {
 175:lvgl/src/extra/layouts/grid/lv_grid.c ****     lv_style_value_t v = {
 176:lvgl/src/extra/layouts/grid/lv_grid.c ****         .ptr = (const void *)value
 177:lvgl/src/extra/layouts/grid/lv_grid.c ****     };
 178:lvgl/src/extra/layouts/grid/lv_grid.c ****     lv_style_set_prop(style, LV_STYLE_GRID_ROW_DSC_ARRAY, v);
 179:lvgl/src/extra/layouts/grid/lv_grid.c **** }
 180:lvgl/src/extra/layouts/grid/lv_grid.c **** 
 181:lvgl/src/extra/layouts/grid/lv_grid.c **** void lv_style_set_grid_column_dsc_array(lv_style_t * style, const lv_coord_t value[])
 182:lvgl/src/extra/layouts/grid/lv_grid.c **** {
 183:lvgl/src/extra/layouts/grid/lv_grid.c ****     lv_style_value_t v = {
 184:lvgl/src/extra/layouts/grid/lv_grid.c ****         .ptr = (const void *)value
 185:lvgl/src/extra/layouts/grid/lv_grid.c ****     };
 186:lvgl/src/extra/layouts/grid/lv_grid.c ****     lv_style_set_prop(style, LV_STYLE_GRID_COLUMN_DSC_ARRAY, v);
 187:lvgl/src/extra/layouts/grid/lv_grid.c **** }
 188:lvgl/src/extra/layouts/grid/lv_grid.c **** 
 189:lvgl/src/extra/layouts/grid/lv_grid.c **** void lv_style_set_grid_row_align(lv_style_t * style, lv_grid_align_t value)
 190:lvgl/src/extra/layouts/grid/lv_grid.c **** {
 191:lvgl/src/extra/layouts/grid/lv_grid.c ****     lv_style_value_t v = {
 192:lvgl/src/extra/layouts/grid/lv_grid.c ****         .num = (lv_grid_align_t)value
 193:lvgl/src/extra/layouts/grid/lv_grid.c ****     };
 194:lvgl/src/extra/layouts/grid/lv_grid.c ****     lv_style_set_prop(style, LV_STYLE_GRID_ROW_ALIGN, v);
 195:lvgl/src/extra/layouts/grid/lv_grid.c **** }
 196:lvgl/src/extra/layouts/grid/lv_grid.c **** 
 197:lvgl/src/extra/layouts/grid/lv_grid.c **** void lv_style_set_grid_column_align(lv_style_t * style, lv_grid_align_t value)
 198:lvgl/src/extra/layouts/grid/lv_grid.c **** {
 199:lvgl/src/extra/layouts/grid/lv_grid.c ****     lv_style_value_t v = {
 200:lvgl/src/extra/layouts/grid/lv_grid.c ****         .num = (lv_grid_align_t)value
 201:lvgl/src/extra/layouts/grid/lv_grid.c ****     };
ARM GAS  /var/folders/21/t9g5rlb91ys800n5npymflf80000gn/T//cce6JCY2.s 			page 5


 202:lvgl/src/extra/layouts/grid/lv_grid.c ****     lv_style_set_prop(style, LV_STYLE_GRID_COLUMN_ALIGN, v);
 203:lvgl/src/extra/layouts/grid/lv_grid.c **** }
 204:lvgl/src/extra/layouts/grid/lv_grid.c **** 
 205:lvgl/src/extra/layouts/grid/lv_grid.c **** void lv_style_set_grid_cell_column_pos(lv_style_t * style, lv_coord_t value)
 206:lvgl/src/extra/layouts/grid/lv_grid.c **** {
 207:lvgl/src/extra/layouts/grid/lv_grid.c ****     lv_style_value_t v = {
 208:lvgl/src/extra/layouts/grid/lv_grid.c ****         .num = value
 209:lvgl/src/extra/layouts/grid/lv_grid.c ****     };
 210:lvgl/src/extra/layouts/grid/lv_grid.c ****     lv_style_set_prop(style, LV_STYLE_GRID_CELL_COLUMN_POS, v);
 211:lvgl/src/extra/layouts/grid/lv_grid.c **** }
 212:lvgl/src/extra/layouts/grid/lv_grid.c **** 
 213:lvgl/src/extra/layouts/grid/lv_grid.c **** void lv_style_set_grid_cell_column_span(lv_style_t * style, lv_coord_t value)
 214:lvgl/src/extra/layouts/grid/lv_grid.c **** {
 215:lvgl/src/extra/layouts/grid/lv_grid.c ****     lv_style_value_t v = {
 216:lvgl/src/extra/layouts/grid/lv_grid.c ****         .num = value
 217:lvgl/src/extra/layouts/grid/lv_grid.c ****     };
 218:lvgl/src/extra/layouts/grid/lv_grid.c ****     lv_style_set_prop(style, LV_STYLE_GRID_CELL_COLUMN_SPAN, v);
 219:lvgl/src/extra/layouts/grid/lv_grid.c **** }
 220:lvgl/src/extra/layouts/grid/lv_grid.c **** 
 221:lvgl/src/extra/layouts/grid/lv_grid.c **** void lv_style_set_grid_cell_row_pos(lv_style_t * style, lv_coord_t value)
 222:lvgl/src/extra/layouts/grid/lv_grid.c **** {
 223:lvgl/src/extra/layouts/grid/lv_grid.c ****     lv_style_value_t v = {
 224:lvgl/src/extra/layouts/grid/lv_grid.c ****         .num = value
 225:lvgl/src/extra/layouts/grid/lv_grid.c ****     };
 226:lvgl/src/extra/layouts/grid/lv_grid.c ****     lv_style_set_prop(style, LV_STYLE_GRID_CELL_ROW_POS, v);
 227:lvgl/src/extra/layouts/grid/lv_grid.c **** }
 228:lvgl/src/extra/layouts/grid/lv_grid.c **** 
 229:lvgl/src/extra/layouts/grid/lv_grid.c **** void lv_style_set_grid_cell_row_span(lv_style_t * style, lv_coord_t value)
 230:lvgl/src/extra/layouts/grid/lv_grid.c **** {
 231:lvgl/src/extra/layouts/grid/lv_grid.c ****     lv_style_value_t v = {
 232:lvgl/src/extra/layouts/grid/lv_grid.c ****         .num = value
 233:lvgl/src/extra/layouts/grid/lv_grid.c ****     };
 234:lvgl/src/extra/layouts/grid/lv_grid.c ****     lv_style_set_prop(style, LV_STYLE_GRID_CELL_ROW_SPAN, v);
 235:lvgl/src/extra/layouts/grid/lv_grid.c **** }
 236:lvgl/src/extra/layouts/grid/lv_grid.c **** 
 237:lvgl/src/extra/layouts/grid/lv_grid.c **** void lv_style_set_grid_cell_x_align(lv_style_t * style, lv_coord_t value)
 238:lvgl/src/extra/layouts/grid/lv_grid.c **** {
 239:lvgl/src/extra/layouts/grid/lv_grid.c ****     lv_style_value_t v = {
 240:lvgl/src/extra/layouts/grid/lv_grid.c ****         .num = value
 241:lvgl/src/extra/layouts/grid/lv_grid.c ****     };
 242:lvgl/src/extra/layouts/grid/lv_grid.c ****     lv_style_set_prop(style, LV_STYLE_GRID_CELL_X_ALIGN, v);
 243:lvgl/src/extra/layouts/grid/lv_grid.c **** }
 244:lvgl/src/extra/layouts/grid/lv_grid.c **** 
 245:lvgl/src/extra/layouts/grid/lv_grid.c **** void lv_style_set_grid_cell_y_align(lv_style_t * style, lv_coord_t value)
 246:lvgl/src/extra/layouts/grid/lv_grid.c **** {
 247:lvgl/src/extra/layouts/grid/lv_grid.c ****     lv_style_value_t v = {
 248:lvgl/src/extra/layouts/grid/lv_grid.c ****         .num = value
 249:lvgl/src/extra/layouts/grid/lv_grid.c ****     };
 250:lvgl/src/extra/layouts/grid/lv_grid.c ****     lv_style_set_prop(style, LV_STYLE_GRID_CELL_Y_ALIGN, v);
 251:lvgl/src/extra/layouts/grid/lv_grid.c **** }
 252:lvgl/src/extra/layouts/grid/lv_grid.c **** 
 253:lvgl/src/extra/layouts/grid/lv_grid.c **** void lv_obj_set_style_grid_row_dsc_array(lv_obj_t * obj, const lv_coord_t value[], lv_style_selecto
 254:lvgl/src/extra/layouts/grid/lv_grid.c **** {
 255:lvgl/src/extra/layouts/grid/lv_grid.c ****     lv_style_value_t v = {
 256:lvgl/src/extra/layouts/grid/lv_grid.c ****         .ptr = (const void *)value
 257:lvgl/src/extra/layouts/grid/lv_grid.c ****     };
 258:lvgl/src/extra/layouts/grid/lv_grid.c ****     lv_obj_set_local_style_prop(obj, LV_STYLE_GRID_ROW_DSC_ARRAY, v, selector);
ARM GAS  /var/folders/21/t9g5rlb91ys800n5npymflf80000gn/T//cce6JCY2.s 			page 6


 259:lvgl/src/extra/layouts/grid/lv_grid.c **** }
 260:lvgl/src/extra/layouts/grid/lv_grid.c **** 
 261:lvgl/src/extra/layouts/grid/lv_grid.c **** void lv_obj_set_style_grid_column_dsc_array(lv_obj_t * obj, const lv_coord_t value[], lv_style_sele
 262:lvgl/src/extra/layouts/grid/lv_grid.c **** {
 263:lvgl/src/extra/layouts/grid/lv_grid.c ****     lv_style_value_t v = {
 264:lvgl/src/extra/layouts/grid/lv_grid.c ****         .ptr = (const void *)value
 265:lvgl/src/extra/layouts/grid/lv_grid.c ****     };
 266:lvgl/src/extra/layouts/grid/lv_grid.c ****     lv_obj_set_local_style_prop(obj, LV_STYLE_GRID_COLUMN_DSC_ARRAY, v, selector);
 267:lvgl/src/extra/layouts/grid/lv_grid.c **** }
 268:lvgl/src/extra/layouts/grid/lv_grid.c **** 
 269:lvgl/src/extra/layouts/grid/lv_grid.c **** void lv_obj_set_style_grid_row_align(lv_obj_t * obj, lv_grid_align_t value, lv_style_selector_t sel
 270:lvgl/src/extra/layouts/grid/lv_grid.c **** {
 271:lvgl/src/extra/layouts/grid/lv_grid.c ****     lv_style_value_t v = {
 272:lvgl/src/extra/layouts/grid/lv_grid.c ****         .num = (int32_t) value
 273:lvgl/src/extra/layouts/grid/lv_grid.c ****     };
 274:lvgl/src/extra/layouts/grid/lv_grid.c ****     lv_obj_set_local_style_prop(obj, LV_STYLE_GRID_ROW_ALIGN, v, selector);
 275:lvgl/src/extra/layouts/grid/lv_grid.c **** }
 276:lvgl/src/extra/layouts/grid/lv_grid.c **** 
 277:lvgl/src/extra/layouts/grid/lv_grid.c **** void lv_obj_set_style_grid_column_align(lv_obj_t * obj, lv_grid_align_t value, lv_style_selector_t 
 278:lvgl/src/extra/layouts/grid/lv_grid.c **** {
 279:lvgl/src/extra/layouts/grid/lv_grid.c ****     lv_style_value_t v = {
 280:lvgl/src/extra/layouts/grid/lv_grid.c ****         .num = (int32_t) value
 281:lvgl/src/extra/layouts/grid/lv_grid.c ****     };
 282:lvgl/src/extra/layouts/grid/lv_grid.c ****     lv_obj_set_local_style_prop(obj, LV_STYLE_GRID_COLUMN_ALIGN, v, selector);
 283:lvgl/src/extra/layouts/grid/lv_grid.c **** }
 284:lvgl/src/extra/layouts/grid/lv_grid.c **** 
 285:lvgl/src/extra/layouts/grid/lv_grid.c **** void lv_obj_set_style_grid_cell_column_pos(lv_obj_t * obj, lv_coord_t value, lv_style_selector_t se
 286:lvgl/src/extra/layouts/grid/lv_grid.c **** {
 287:lvgl/src/extra/layouts/grid/lv_grid.c ****     lv_style_value_t v = {
 288:lvgl/src/extra/layouts/grid/lv_grid.c ****         .num = value
 289:lvgl/src/extra/layouts/grid/lv_grid.c ****     };
 290:lvgl/src/extra/layouts/grid/lv_grid.c ****     lv_obj_set_local_style_prop(obj, LV_STYLE_GRID_CELL_COLUMN_POS, v, selector);
 291:lvgl/src/extra/layouts/grid/lv_grid.c **** }
 292:lvgl/src/extra/layouts/grid/lv_grid.c **** 
 293:lvgl/src/extra/layouts/grid/lv_grid.c **** void lv_obj_set_style_grid_cell_column_span(lv_obj_t * obj, lv_coord_t value, lv_style_selector_t s
 294:lvgl/src/extra/layouts/grid/lv_grid.c **** {
 295:lvgl/src/extra/layouts/grid/lv_grid.c ****     lv_style_value_t v = {
 296:lvgl/src/extra/layouts/grid/lv_grid.c ****         .num = value
 297:lvgl/src/extra/layouts/grid/lv_grid.c ****     };
 298:lvgl/src/extra/layouts/grid/lv_grid.c ****     lv_obj_set_local_style_prop(obj, LV_STYLE_GRID_CELL_COLUMN_SPAN, v, selector);
 299:lvgl/src/extra/layouts/grid/lv_grid.c **** }
 300:lvgl/src/extra/layouts/grid/lv_grid.c **** 
 301:lvgl/src/extra/layouts/grid/lv_grid.c **** void lv_obj_set_style_grid_cell_row_pos(lv_obj_t * obj, lv_coord_t value, lv_style_selector_t selec
 302:lvgl/src/extra/layouts/grid/lv_grid.c **** {
 303:lvgl/src/extra/layouts/grid/lv_grid.c ****     lv_style_value_t v = {
 304:lvgl/src/extra/layouts/grid/lv_grid.c ****         .num = value
 305:lvgl/src/extra/layouts/grid/lv_grid.c ****     };
 306:lvgl/src/extra/layouts/grid/lv_grid.c ****     lv_obj_set_local_style_prop(obj, LV_STYLE_GRID_CELL_ROW_POS, v, selector);
 307:lvgl/src/extra/layouts/grid/lv_grid.c **** }
 308:lvgl/src/extra/layouts/grid/lv_grid.c **** 
 309:lvgl/src/extra/layouts/grid/lv_grid.c **** void lv_obj_set_style_grid_cell_row_span(lv_obj_t * obj, lv_coord_t value, lv_style_selector_t sele
 310:lvgl/src/extra/layouts/grid/lv_grid.c **** {
 311:lvgl/src/extra/layouts/grid/lv_grid.c ****     lv_style_value_t v = {
 312:lvgl/src/extra/layouts/grid/lv_grid.c ****         .num = value
 313:lvgl/src/extra/layouts/grid/lv_grid.c ****     };
 314:lvgl/src/extra/layouts/grid/lv_grid.c ****     lv_obj_set_local_style_prop(obj, LV_STYLE_GRID_CELL_ROW_SPAN, v, selector);
 315:lvgl/src/extra/layouts/grid/lv_grid.c **** }
ARM GAS  /var/folders/21/t9g5rlb91ys800n5npymflf80000gn/T//cce6JCY2.s 			page 7


 316:lvgl/src/extra/layouts/grid/lv_grid.c **** 
 317:lvgl/src/extra/layouts/grid/lv_grid.c **** void lv_obj_set_style_grid_cell_x_align(lv_obj_t * obj, lv_coord_t value, lv_style_selector_t selec
 318:lvgl/src/extra/layouts/grid/lv_grid.c **** {
 319:lvgl/src/extra/layouts/grid/lv_grid.c ****     lv_style_value_t v = {
 320:lvgl/src/extra/layouts/grid/lv_grid.c ****         .num = value
 321:lvgl/src/extra/layouts/grid/lv_grid.c ****     };
 322:lvgl/src/extra/layouts/grid/lv_grid.c ****     lv_obj_set_local_style_prop(obj, LV_STYLE_GRID_CELL_X_ALIGN, v, selector);
 323:lvgl/src/extra/layouts/grid/lv_grid.c **** }
 324:lvgl/src/extra/layouts/grid/lv_grid.c **** 
 325:lvgl/src/extra/layouts/grid/lv_grid.c **** void lv_obj_set_style_grid_cell_y_align(lv_obj_t * obj, lv_coord_t value, lv_style_selector_t selec
 326:lvgl/src/extra/layouts/grid/lv_grid.c **** {
 327:lvgl/src/extra/layouts/grid/lv_grid.c ****     lv_style_value_t v = {
 328:lvgl/src/extra/layouts/grid/lv_grid.c ****         .num = value
 329:lvgl/src/extra/layouts/grid/lv_grid.c ****     };
 330:lvgl/src/extra/layouts/grid/lv_grid.c ****     lv_obj_set_local_style_prop(obj, LV_STYLE_GRID_CELL_Y_ALIGN, v, selector);
 331:lvgl/src/extra/layouts/grid/lv_grid.c **** }
 332:lvgl/src/extra/layouts/grid/lv_grid.c **** 
 333:lvgl/src/extra/layouts/grid/lv_grid.c **** /**********************
 334:lvgl/src/extra/layouts/grid/lv_grid.c ****  *   STATIC FUNCTIONS
 335:lvgl/src/extra/layouts/grid/lv_grid.c ****  **********************/
 336:lvgl/src/extra/layouts/grid/lv_grid.c **** 
 337:lvgl/src/extra/layouts/grid/lv_grid.c **** static void grid_update(lv_obj_t * cont, void * user_data)
 338:lvgl/src/extra/layouts/grid/lv_grid.c **** {
 339:lvgl/src/extra/layouts/grid/lv_grid.c ****     LV_LOG_INFO("update %p container", (void *)cont);
 340:lvgl/src/extra/layouts/grid/lv_grid.c ****     LV_UNUSED(user_data);
 341:lvgl/src/extra/layouts/grid/lv_grid.c **** 
 342:lvgl/src/extra/layouts/grid/lv_grid.c ****     const lv_coord_t * col_templ = get_col_dsc(cont);
 343:lvgl/src/extra/layouts/grid/lv_grid.c ****     const lv_coord_t * row_templ = get_row_dsc(cont);
 344:lvgl/src/extra/layouts/grid/lv_grid.c ****     if(col_templ == NULL || row_templ == NULL) return;
 345:lvgl/src/extra/layouts/grid/lv_grid.c **** 
 346:lvgl/src/extra/layouts/grid/lv_grid.c ****     _lv_grid_calc_t c;
 347:lvgl/src/extra/layouts/grid/lv_grid.c ****     calc(cont, &c);
 348:lvgl/src/extra/layouts/grid/lv_grid.c **** 
 349:lvgl/src/extra/layouts/grid/lv_grid.c ****     item_repos_hint_t hint;
 350:lvgl/src/extra/layouts/grid/lv_grid.c ****     lv_memset_00(&hint, sizeof(hint));
 351:lvgl/src/extra/layouts/grid/lv_grid.c **** 
 352:lvgl/src/extra/layouts/grid/lv_grid.c ****     /*Calculate the grids absolute x and y coordinates.
 353:lvgl/src/extra/layouts/grid/lv_grid.c ****      *It will be used as helper during item repositioning to avoid calculating this value for every
 354:lvgl/src/extra/layouts/grid/lv_grid.c ****     lv_coord_t border_widt = lv_obj_get_style_border_width(cont, LV_PART_MAIN);
 355:lvgl/src/extra/layouts/grid/lv_grid.c ****     lv_coord_t pad_left = lv_obj_get_style_pad_left(cont, LV_PART_MAIN) + border_widt;
 356:lvgl/src/extra/layouts/grid/lv_grid.c ****     lv_coord_t pad_top = lv_obj_get_style_pad_top(cont, LV_PART_MAIN) + border_widt;
 357:lvgl/src/extra/layouts/grid/lv_grid.c ****     hint.grid_abs.x = pad_left + cont->coords.x1 - lv_obj_get_scroll_x(cont);
 358:lvgl/src/extra/layouts/grid/lv_grid.c ****     hint.grid_abs.y = pad_top + cont->coords.y1 - lv_obj_get_scroll_y(cont);
 359:lvgl/src/extra/layouts/grid/lv_grid.c **** 
 360:lvgl/src/extra/layouts/grid/lv_grid.c ****     uint32_t i;
 361:lvgl/src/extra/layouts/grid/lv_grid.c ****     for(i = 0; i < cont->spec_attr->child_cnt; i++) {
 362:lvgl/src/extra/layouts/grid/lv_grid.c ****         lv_obj_t * item = cont->spec_attr->children[i];
 363:lvgl/src/extra/layouts/grid/lv_grid.c ****         item_repos(item, &c, &hint);
 364:lvgl/src/extra/layouts/grid/lv_grid.c ****     }
 365:lvgl/src/extra/layouts/grid/lv_grid.c ****     calc_free(&c);
 366:lvgl/src/extra/layouts/grid/lv_grid.c **** 
 367:lvgl/src/extra/layouts/grid/lv_grid.c ****     lv_coord_t w_set = lv_obj_get_style_width(cont, LV_PART_MAIN);
 368:lvgl/src/extra/layouts/grid/lv_grid.c ****     lv_coord_t h_set = lv_obj_get_style_height(cont, LV_PART_MAIN);
 369:lvgl/src/extra/layouts/grid/lv_grid.c ****     if(w_set == LV_SIZE_CONTENT || h_set == LV_SIZE_CONTENT) {
 370:lvgl/src/extra/layouts/grid/lv_grid.c ****         lv_obj_refr_size(cont);
 371:lvgl/src/extra/layouts/grid/lv_grid.c ****     }
 372:lvgl/src/extra/layouts/grid/lv_grid.c **** 
ARM GAS  /var/folders/21/t9g5rlb91ys800n5npymflf80000gn/T//cce6JCY2.s 			page 8


 373:lvgl/src/extra/layouts/grid/lv_grid.c ****     lv_event_send(cont, LV_EVENT_LAYOUT_CHANGED, NULL);
 374:lvgl/src/extra/layouts/grid/lv_grid.c **** 
 375:lvgl/src/extra/layouts/grid/lv_grid.c ****     LV_TRACE_LAYOUT("finished");
 376:lvgl/src/extra/layouts/grid/lv_grid.c **** }
 377:lvgl/src/extra/layouts/grid/lv_grid.c **** 
 378:lvgl/src/extra/layouts/grid/lv_grid.c **** /**
 379:lvgl/src/extra/layouts/grid/lv_grid.c ****  * Calculate the grid cells coordinates
 380:lvgl/src/extra/layouts/grid/lv_grid.c ****  * @param cont an object that has a grid
 381:lvgl/src/extra/layouts/grid/lv_grid.c ****  * @param calc store the calculated cells sizes here
 382:lvgl/src/extra/layouts/grid/lv_grid.c ****  * @note `_lv_grid_calc_free(calc_out)` needs to be called when `calc_out` is not needed anymore
 383:lvgl/src/extra/layouts/grid/lv_grid.c ****  */
 384:lvgl/src/extra/layouts/grid/lv_grid.c **** static void calc(lv_obj_t * cont, _lv_grid_calc_t * calc_out)
 385:lvgl/src/extra/layouts/grid/lv_grid.c **** {
 386:lvgl/src/extra/layouts/grid/lv_grid.c ****     if(lv_obj_get_child(cont, 0) == NULL) {
 387:lvgl/src/extra/layouts/grid/lv_grid.c ****         lv_memset_00(calc_out, sizeof(_lv_grid_calc_t));
 388:lvgl/src/extra/layouts/grid/lv_grid.c ****         return;
 389:lvgl/src/extra/layouts/grid/lv_grid.c ****     }
 390:lvgl/src/extra/layouts/grid/lv_grid.c **** 
 391:lvgl/src/extra/layouts/grid/lv_grid.c ****     calc_rows(cont, calc_out);
 392:lvgl/src/extra/layouts/grid/lv_grid.c ****     calc_cols(cont, calc_out);
 393:lvgl/src/extra/layouts/grid/lv_grid.c **** 
 394:lvgl/src/extra/layouts/grid/lv_grid.c ****     lv_coord_t col_gap = lv_obj_get_style_pad_column(cont, LV_PART_MAIN);
 395:lvgl/src/extra/layouts/grid/lv_grid.c ****     lv_coord_t row_gap = lv_obj_get_style_pad_row(cont, LV_PART_MAIN);
 396:lvgl/src/extra/layouts/grid/lv_grid.c **** 
 397:lvgl/src/extra/layouts/grid/lv_grid.c ****     bool rev = lv_obj_get_style_base_dir(cont, LV_PART_MAIN) == LV_BASE_DIR_RTL ? true : false;
 398:lvgl/src/extra/layouts/grid/lv_grid.c **** 
 399:lvgl/src/extra/layouts/grid/lv_grid.c ****     lv_coord_t w_set = lv_obj_get_style_width(cont, LV_PART_MAIN);
 400:lvgl/src/extra/layouts/grid/lv_grid.c ****     lv_coord_t h_set = lv_obj_get_style_height(cont, LV_PART_MAIN);
 401:lvgl/src/extra/layouts/grid/lv_grid.c ****     bool auto_w = (w_set == LV_SIZE_CONTENT && !cont->w_layout) ? true : false;
 402:lvgl/src/extra/layouts/grid/lv_grid.c ****     lv_coord_t cont_w = lv_obj_get_content_width(cont);
 403:lvgl/src/extra/layouts/grid/lv_grid.c ****     calc_out->grid_w = grid_align(cont_w, auto_w, get_grid_col_align(cont), col_gap, calc_out->col_
 404:lvgl/src/extra/layouts/grid/lv_grid.c ****                                   calc_out->x, rev);
 405:lvgl/src/extra/layouts/grid/lv_grid.c **** 
 406:lvgl/src/extra/layouts/grid/lv_grid.c ****     bool auto_h = (h_set == LV_SIZE_CONTENT && !cont->h_layout) ? true : false;
 407:lvgl/src/extra/layouts/grid/lv_grid.c ****     lv_coord_t cont_h = lv_obj_get_content_height(cont);
 408:lvgl/src/extra/layouts/grid/lv_grid.c ****     calc_out->grid_h = grid_align(cont_h, auto_h, get_grid_row_align(cont), row_gap, calc_out->row_
 409:lvgl/src/extra/layouts/grid/lv_grid.c ****                                   calc_out->y, false);
 410:lvgl/src/extra/layouts/grid/lv_grid.c **** 
 411:lvgl/src/extra/layouts/grid/lv_grid.c ****     LV_ASSERT_MEM_INTEGRITY();
 412:lvgl/src/extra/layouts/grid/lv_grid.c **** }
 413:lvgl/src/extra/layouts/grid/lv_grid.c **** 
 414:lvgl/src/extra/layouts/grid/lv_grid.c **** /**
 415:lvgl/src/extra/layouts/grid/lv_grid.c ****  * Free the a grid calculation's data
 416:lvgl/src/extra/layouts/grid/lv_grid.c ****  * @param calc pointer to the calculated grid cell coordinates
 417:lvgl/src/extra/layouts/grid/lv_grid.c ****  */
 418:lvgl/src/extra/layouts/grid/lv_grid.c **** static void calc_free(_lv_grid_calc_t * calc)
 419:lvgl/src/extra/layouts/grid/lv_grid.c **** {
 420:lvgl/src/extra/layouts/grid/lv_grid.c ****     lv_mem_buf_release(calc->x);
 421:lvgl/src/extra/layouts/grid/lv_grid.c ****     lv_mem_buf_release(calc->y);
 422:lvgl/src/extra/layouts/grid/lv_grid.c ****     lv_mem_buf_release(calc->w);
 423:lvgl/src/extra/layouts/grid/lv_grid.c ****     lv_mem_buf_release(calc->h);
 424:lvgl/src/extra/layouts/grid/lv_grid.c **** }
 425:lvgl/src/extra/layouts/grid/lv_grid.c **** 
 426:lvgl/src/extra/layouts/grid/lv_grid.c **** static void calc_cols(lv_obj_t * cont, _lv_grid_calc_t * c)
 427:lvgl/src/extra/layouts/grid/lv_grid.c **** {
 428:lvgl/src/extra/layouts/grid/lv_grid.c ****     const lv_coord_t * col_templ = get_col_dsc(cont);
 429:lvgl/src/extra/layouts/grid/lv_grid.c ****     lv_coord_t cont_w = lv_obj_get_content_width(cont);
ARM GAS  /var/folders/21/t9g5rlb91ys800n5npymflf80000gn/T//cce6JCY2.s 			page 9


 430:lvgl/src/extra/layouts/grid/lv_grid.c **** 
 431:lvgl/src/extra/layouts/grid/lv_grid.c ****     c->col_num = count_tracks(col_templ);
 432:lvgl/src/extra/layouts/grid/lv_grid.c ****     c->x = lv_mem_buf_get(sizeof(lv_coord_t) * c->col_num);
 433:lvgl/src/extra/layouts/grid/lv_grid.c ****     c->w = lv_mem_buf_get(sizeof(lv_coord_t) * c->col_num);
 434:lvgl/src/extra/layouts/grid/lv_grid.c **** 
 435:lvgl/src/extra/layouts/grid/lv_grid.c ****     /*Set sizes for CONTENT cells*/
 436:lvgl/src/extra/layouts/grid/lv_grid.c ****     uint32_t i;
 437:lvgl/src/extra/layouts/grid/lv_grid.c ****     for(i = 0; i < c->col_num; i++) {
 438:lvgl/src/extra/layouts/grid/lv_grid.c ****         lv_coord_t size = LV_COORD_MIN;
 439:lvgl/src/extra/layouts/grid/lv_grid.c ****         if(IS_CONTENT(col_templ[i])) {
 440:lvgl/src/extra/layouts/grid/lv_grid.c ****             /*Check the size of children of this cell*/
 441:lvgl/src/extra/layouts/grid/lv_grid.c ****             uint32_t ci;
 442:lvgl/src/extra/layouts/grid/lv_grid.c ****             for(ci = 0; ci < lv_obj_get_child_cnt(cont); ci++) {
 443:lvgl/src/extra/layouts/grid/lv_grid.c ****                 lv_obj_t * item = lv_obj_get_child(cont, ci);
 444:lvgl/src/extra/layouts/grid/lv_grid.c ****                 if(lv_obj_has_flag_any(item, LV_OBJ_FLAG_IGNORE_LAYOUT | LV_OBJ_FLAG_HIDDEN | LV_OB
 445:lvgl/src/extra/layouts/grid/lv_grid.c ****                 uint32_t col_span = get_col_span(item);
 446:lvgl/src/extra/layouts/grid/lv_grid.c ****                 if(col_span != 1) continue;
 447:lvgl/src/extra/layouts/grid/lv_grid.c **** 
 448:lvgl/src/extra/layouts/grid/lv_grid.c ****                 uint32_t col_pos = get_col_pos(item);
 449:lvgl/src/extra/layouts/grid/lv_grid.c ****                 if(col_pos != i) continue;
 450:lvgl/src/extra/layouts/grid/lv_grid.c **** 
 451:lvgl/src/extra/layouts/grid/lv_grid.c ****                 size = LV_MAX(size, lv_obj_get_width(item));
 452:lvgl/src/extra/layouts/grid/lv_grid.c ****             }
 453:lvgl/src/extra/layouts/grid/lv_grid.c ****             if(size >= 0) c->w[i] = size;
 454:lvgl/src/extra/layouts/grid/lv_grid.c ****             else c->w[i] = 0;
 455:lvgl/src/extra/layouts/grid/lv_grid.c ****         }
 456:lvgl/src/extra/layouts/grid/lv_grid.c ****     }
 457:lvgl/src/extra/layouts/grid/lv_grid.c **** 
 458:lvgl/src/extra/layouts/grid/lv_grid.c ****     uint32_t col_fr_cnt = 0;
 459:lvgl/src/extra/layouts/grid/lv_grid.c ****     lv_coord_t grid_w = 0;
 460:lvgl/src/extra/layouts/grid/lv_grid.c **** 
 461:lvgl/src/extra/layouts/grid/lv_grid.c ****     for(i = 0; i < c->col_num; i++) {
 462:lvgl/src/extra/layouts/grid/lv_grid.c ****         lv_coord_t x = col_templ[i];
 463:lvgl/src/extra/layouts/grid/lv_grid.c ****         if(IS_FR(x)) {
 464:lvgl/src/extra/layouts/grid/lv_grid.c ****             col_fr_cnt += GET_FR(x);
 465:lvgl/src/extra/layouts/grid/lv_grid.c ****         }
 466:lvgl/src/extra/layouts/grid/lv_grid.c ****         else if(IS_CONTENT(x)) {
 467:lvgl/src/extra/layouts/grid/lv_grid.c ****             grid_w += c->w[i];
 468:lvgl/src/extra/layouts/grid/lv_grid.c ****         }
 469:lvgl/src/extra/layouts/grid/lv_grid.c ****         else {
 470:lvgl/src/extra/layouts/grid/lv_grid.c ****             c->w[i] = x;
 471:lvgl/src/extra/layouts/grid/lv_grid.c ****             grid_w += x;
 472:lvgl/src/extra/layouts/grid/lv_grid.c ****         }
 473:lvgl/src/extra/layouts/grid/lv_grid.c ****     }
 474:lvgl/src/extra/layouts/grid/lv_grid.c **** 
 475:lvgl/src/extra/layouts/grid/lv_grid.c ****     lv_coord_t col_gap = lv_obj_get_style_pad_column(cont, LV_PART_MAIN);
 476:lvgl/src/extra/layouts/grid/lv_grid.c ****     cont_w -= col_gap * (c->col_num - 1);
 477:lvgl/src/extra/layouts/grid/lv_grid.c ****     lv_coord_t free_w = cont_w - grid_w;
 478:lvgl/src/extra/layouts/grid/lv_grid.c ****     if(free_w < 0) free_w = 0;
 479:lvgl/src/extra/layouts/grid/lv_grid.c **** 
 480:lvgl/src/extra/layouts/grid/lv_grid.c ****     int32_t last_fr_i = -1;
 481:lvgl/src/extra/layouts/grid/lv_grid.c ****     int32_t last_fr_x = 0;
 482:lvgl/src/extra/layouts/grid/lv_grid.c ****     for(i = 0; i < c->col_num; i++) {
 483:lvgl/src/extra/layouts/grid/lv_grid.c ****         lv_coord_t x = col_templ[i];
 484:lvgl/src/extra/layouts/grid/lv_grid.c ****         if(IS_FR(x)) {
 485:lvgl/src/extra/layouts/grid/lv_grid.c ****             lv_coord_t f = GET_FR(x);
 486:lvgl/src/extra/layouts/grid/lv_grid.c ****             c->w[i] = (free_w * f) / col_fr_cnt;
ARM GAS  /var/folders/21/t9g5rlb91ys800n5npymflf80000gn/T//cce6JCY2.s 			page 10


 487:lvgl/src/extra/layouts/grid/lv_grid.c ****             last_fr_i = i;
 488:lvgl/src/extra/layouts/grid/lv_grid.c ****             last_fr_x = f;
 489:lvgl/src/extra/layouts/grid/lv_grid.c ****         }
 490:lvgl/src/extra/layouts/grid/lv_grid.c ****     }
 491:lvgl/src/extra/layouts/grid/lv_grid.c **** 
 492:lvgl/src/extra/layouts/grid/lv_grid.c ****     /*To avoid rounding errors set the last FR track to the remaining size */
 493:lvgl/src/extra/layouts/grid/lv_grid.c ****     if(last_fr_i >= 0) {
 494:lvgl/src/extra/layouts/grid/lv_grid.c ****         c->w[last_fr_i] = free_w - ((free_w * (col_fr_cnt - last_fr_x)) / col_fr_cnt);
 495:lvgl/src/extra/layouts/grid/lv_grid.c ****     }
 496:lvgl/src/extra/layouts/grid/lv_grid.c **** }
 497:lvgl/src/extra/layouts/grid/lv_grid.c **** 
 498:lvgl/src/extra/layouts/grid/lv_grid.c **** static void calc_rows(lv_obj_t * cont, _lv_grid_calc_t * c)
 499:lvgl/src/extra/layouts/grid/lv_grid.c **** {
 500:lvgl/src/extra/layouts/grid/lv_grid.c ****     uint32_t i;
 501:lvgl/src/extra/layouts/grid/lv_grid.c ****     const lv_coord_t * row_templ = get_row_dsc(cont);
 502:lvgl/src/extra/layouts/grid/lv_grid.c ****     c->row_num = count_tracks(row_templ);
 503:lvgl/src/extra/layouts/grid/lv_grid.c ****     c->y = lv_mem_buf_get(sizeof(lv_coord_t) * c->row_num);
 504:lvgl/src/extra/layouts/grid/lv_grid.c ****     c->h = lv_mem_buf_get(sizeof(lv_coord_t) * c->row_num);
 505:lvgl/src/extra/layouts/grid/lv_grid.c ****     /*Set sizes for CONTENT cells*/
 506:lvgl/src/extra/layouts/grid/lv_grid.c ****     for(i = 0; i < c->row_num; i++) {
 507:lvgl/src/extra/layouts/grid/lv_grid.c ****         lv_coord_t size = LV_COORD_MIN;
 508:lvgl/src/extra/layouts/grid/lv_grid.c ****         if(IS_CONTENT(row_templ[i])) {
 509:lvgl/src/extra/layouts/grid/lv_grid.c ****             /*Check the size of children of this cell*/
 510:lvgl/src/extra/layouts/grid/lv_grid.c ****             uint32_t ci;
 511:lvgl/src/extra/layouts/grid/lv_grid.c ****             for(ci = 0; ci < lv_obj_get_child_cnt(cont); ci++) {
 512:lvgl/src/extra/layouts/grid/lv_grid.c ****                 lv_obj_t * item = lv_obj_get_child(cont, ci);
 513:lvgl/src/extra/layouts/grid/lv_grid.c ****                 if(lv_obj_has_flag_any(item, LV_OBJ_FLAG_IGNORE_LAYOUT | LV_OBJ_FLAG_HIDDEN | LV_OB
 514:lvgl/src/extra/layouts/grid/lv_grid.c ****                 uint32_t row_span = get_row_span(item);
 515:lvgl/src/extra/layouts/grid/lv_grid.c ****                 if(row_span != 1) continue;
 516:lvgl/src/extra/layouts/grid/lv_grid.c **** 
 517:lvgl/src/extra/layouts/grid/lv_grid.c ****                 uint32_t row_pos = get_row_pos(item);
 518:lvgl/src/extra/layouts/grid/lv_grid.c ****                 if(row_pos != i) continue;
 519:lvgl/src/extra/layouts/grid/lv_grid.c **** 
 520:lvgl/src/extra/layouts/grid/lv_grid.c ****                 size = LV_MAX(size, lv_obj_get_height(item));
 521:lvgl/src/extra/layouts/grid/lv_grid.c ****             }
 522:lvgl/src/extra/layouts/grid/lv_grid.c ****             if(size >= 0) c->h[i] = size;
 523:lvgl/src/extra/layouts/grid/lv_grid.c ****             else c->h[i] = 0;
 524:lvgl/src/extra/layouts/grid/lv_grid.c ****         }
 525:lvgl/src/extra/layouts/grid/lv_grid.c ****     }
 526:lvgl/src/extra/layouts/grid/lv_grid.c **** 
 527:lvgl/src/extra/layouts/grid/lv_grid.c ****     uint32_t row_fr_cnt = 0;
 528:lvgl/src/extra/layouts/grid/lv_grid.c ****     lv_coord_t grid_h = 0;
 529:lvgl/src/extra/layouts/grid/lv_grid.c **** 
 530:lvgl/src/extra/layouts/grid/lv_grid.c ****     for(i = 0; i < c->row_num; i++) {
 531:lvgl/src/extra/layouts/grid/lv_grid.c ****         lv_coord_t x = row_templ[i];
 532:lvgl/src/extra/layouts/grid/lv_grid.c ****         if(IS_FR(x)) {
 533:lvgl/src/extra/layouts/grid/lv_grid.c ****             row_fr_cnt += GET_FR(x);
 534:lvgl/src/extra/layouts/grid/lv_grid.c ****         }
 535:lvgl/src/extra/layouts/grid/lv_grid.c ****         else if(IS_CONTENT(x)) {
 536:lvgl/src/extra/layouts/grid/lv_grid.c ****             grid_h += c->h[i];
 537:lvgl/src/extra/layouts/grid/lv_grid.c ****         }
 538:lvgl/src/extra/layouts/grid/lv_grid.c ****         else {
 539:lvgl/src/extra/layouts/grid/lv_grid.c ****             c->h[i] = x;
 540:lvgl/src/extra/layouts/grid/lv_grid.c ****             grid_h += x;
 541:lvgl/src/extra/layouts/grid/lv_grid.c ****         }
 542:lvgl/src/extra/layouts/grid/lv_grid.c ****     }
 543:lvgl/src/extra/layouts/grid/lv_grid.c **** 
ARM GAS  /var/folders/21/t9g5rlb91ys800n5npymflf80000gn/T//cce6JCY2.s 			page 11


 544:lvgl/src/extra/layouts/grid/lv_grid.c ****     lv_coord_t row_gap = lv_obj_get_style_pad_row(cont, LV_PART_MAIN);
 545:lvgl/src/extra/layouts/grid/lv_grid.c ****     lv_coord_t cont_h = lv_obj_get_content_height(cont) - row_gap * (c->row_num - 1);
 546:lvgl/src/extra/layouts/grid/lv_grid.c ****     lv_coord_t free_h = cont_h - grid_h;
 547:lvgl/src/extra/layouts/grid/lv_grid.c ****     if(free_h < 0) free_h = 0;
 548:lvgl/src/extra/layouts/grid/lv_grid.c **** 
 549:lvgl/src/extra/layouts/grid/lv_grid.c ****     int32_t last_fr_i = -1;
 550:lvgl/src/extra/layouts/grid/lv_grid.c ****     int32_t last_fr_x = 0;
 551:lvgl/src/extra/layouts/grid/lv_grid.c ****     for(i = 0; i < c->row_num; i++) {
 552:lvgl/src/extra/layouts/grid/lv_grid.c ****         lv_coord_t x = row_templ[i];
 553:lvgl/src/extra/layouts/grid/lv_grid.c ****         if(IS_FR(x)) {
 554:lvgl/src/extra/layouts/grid/lv_grid.c ****             lv_coord_t f = GET_FR(x);
 555:lvgl/src/extra/layouts/grid/lv_grid.c ****             c->h[i] = (free_h * f) / row_fr_cnt;
 556:lvgl/src/extra/layouts/grid/lv_grid.c ****             last_fr_i = i;
 557:lvgl/src/extra/layouts/grid/lv_grid.c ****             last_fr_x = f;
 558:lvgl/src/extra/layouts/grid/lv_grid.c ****         }
 559:lvgl/src/extra/layouts/grid/lv_grid.c ****     }
 560:lvgl/src/extra/layouts/grid/lv_grid.c **** 
 561:lvgl/src/extra/layouts/grid/lv_grid.c ****     /*To avoid rounding errors set the last FR track to the remaining size */
 562:lvgl/src/extra/layouts/grid/lv_grid.c ****     if(last_fr_i >= 0) {
 563:lvgl/src/extra/layouts/grid/lv_grid.c ****         c->h[last_fr_i] = free_h - ((free_h * (row_fr_cnt - last_fr_x)) / row_fr_cnt);
 564:lvgl/src/extra/layouts/grid/lv_grid.c ****     }
 565:lvgl/src/extra/layouts/grid/lv_grid.c **** }
 566:lvgl/src/extra/layouts/grid/lv_grid.c **** 
 567:lvgl/src/extra/layouts/grid/lv_grid.c **** /**
 568:lvgl/src/extra/layouts/grid/lv_grid.c ****  * Reposition a grid item in its cell
 569:lvgl/src/extra/layouts/grid/lv_grid.c ****  * @param item a grid item to reposition
 570:lvgl/src/extra/layouts/grid/lv_grid.c ****  * @param calc the calculated grid of `cont`
 571:lvgl/src/extra/layouts/grid/lv_grid.c ****  * @param child_id_ext helper value if the ID of the child is know (order from the oldest) else -1
 572:lvgl/src/extra/layouts/grid/lv_grid.c ****  * @param grid_abs helper value, the absolute position of the grid, NULL if unknown
 573:lvgl/src/extra/layouts/grid/lv_grid.c ****  */
 574:lvgl/src/extra/layouts/grid/lv_grid.c **** static void item_repos(lv_obj_t * item, _lv_grid_calc_t * c, item_repos_hint_t * hint)
 575:lvgl/src/extra/layouts/grid/lv_grid.c **** {
 576:lvgl/src/extra/layouts/grid/lv_grid.c ****     if(lv_obj_has_flag_any(item, LV_OBJ_FLAG_IGNORE_LAYOUT | LV_OBJ_FLAG_HIDDEN | LV_OBJ_FLAG_FLOAT
 577:lvgl/src/extra/layouts/grid/lv_grid.c ****     uint32_t col_span = get_col_span(item);
 578:lvgl/src/extra/layouts/grid/lv_grid.c ****     uint32_t row_span = get_row_span(item);
 579:lvgl/src/extra/layouts/grid/lv_grid.c ****     if(row_span == 0 || col_span == 0) return;
 580:lvgl/src/extra/layouts/grid/lv_grid.c **** 
 581:lvgl/src/extra/layouts/grid/lv_grid.c ****     uint32_t col_pos = get_col_pos(item);
 582:lvgl/src/extra/layouts/grid/lv_grid.c ****     uint32_t row_pos = get_row_pos(item);
 583:lvgl/src/extra/layouts/grid/lv_grid.c ****     lv_grid_align_t col_align = get_cell_col_align(item);
 584:lvgl/src/extra/layouts/grid/lv_grid.c ****     lv_grid_align_t row_align = get_cell_row_align(item);
 585:lvgl/src/extra/layouts/grid/lv_grid.c **** 
 586:lvgl/src/extra/layouts/grid/lv_grid.c ****     lv_coord_t col_x1 = c->x[col_pos];
 587:lvgl/src/extra/layouts/grid/lv_grid.c ****     lv_coord_t col_x2 = c->x[col_pos + col_span - 1] + c->w[col_pos + col_span - 1];
 588:lvgl/src/extra/layouts/grid/lv_grid.c ****     lv_coord_t col_w = col_x2 - col_x1;
 589:lvgl/src/extra/layouts/grid/lv_grid.c **** 
 590:lvgl/src/extra/layouts/grid/lv_grid.c ****     lv_coord_t row_y1 = c->y[row_pos];
 591:lvgl/src/extra/layouts/grid/lv_grid.c ****     lv_coord_t row_y2 = c->y[row_pos + row_span - 1] + c->h[row_pos + row_span - 1];
 592:lvgl/src/extra/layouts/grid/lv_grid.c ****     lv_coord_t row_h = row_y2 - row_y1;
 593:lvgl/src/extra/layouts/grid/lv_grid.c **** 
 594:lvgl/src/extra/layouts/grid/lv_grid.c ****     /*If the item has RTL base dir switch start and end*/
 595:lvgl/src/extra/layouts/grid/lv_grid.c ****     if(lv_obj_get_style_base_dir(item, LV_PART_MAIN) == LV_BASE_DIR_RTL) {
 596:lvgl/src/extra/layouts/grid/lv_grid.c ****         if(col_align == LV_GRID_ALIGN_START) col_align = LV_GRID_ALIGN_END;
 597:lvgl/src/extra/layouts/grid/lv_grid.c ****         else if(col_align == LV_GRID_ALIGN_END) col_align = LV_GRID_ALIGN_START;
 598:lvgl/src/extra/layouts/grid/lv_grid.c ****     }
 599:lvgl/src/extra/layouts/grid/lv_grid.c **** 
 600:lvgl/src/extra/layouts/grid/lv_grid.c ****     lv_coord_t x;
ARM GAS  /var/folders/21/t9g5rlb91ys800n5npymflf80000gn/T//cce6JCY2.s 			page 12


 601:lvgl/src/extra/layouts/grid/lv_grid.c ****     lv_coord_t y;
 602:lvgl/src/extra/layouts/grid/lv_grid.c ****     lv_coord_t item_w = lv_area_get_width(&item->coords);
 603:lvgl/src/extra/layouts/grid/lv_grid.c ****     lv_coord_t item_h = lv_area_get_height(&item->coords);
 604:lvgl/src/extra/layouts/grid/lv_grid.c **** 
 605:lvgl/src/extra/layouts/grid/lv_grid.c ****     switch(col_align) {
 606:lvgl/src/extra/layouts/grid/lv_grid.c ****         default:
 607:lvgl/src/extra/layouts/grid/lv_grid.c ****         case LV_GRID_ALIGN_START:
 608:lvgl/src/extra/layouts/grid/lv_grid.c ****             x = c->x[col_pos];
 609:lvgl/src/extra/layouts/grid/lv_grid.c ****             item->w_layout = 0;
 610:lvgl/src/extra/layouts/grid/lv_grid.c ****             break;
 611:lvgl/src/extra/layouts/grid/lv_grid.c ****         case LV_GRID_ALIGN_STRETCH:
 612:lvgl/src/extra/layouts/grid/lv_grid.c ****             x = c->x[col_pos];
 613:lvgl/src/extra/layouts/grid/lv_grid.c ****             item_w = col_w;
 614:lvgl/src/extra/layouts/grid/lv_grid.c ****             item->w_layout = 1;
 615:lvgl/src/extra/layouts/grid/lv_grid.c ****             break;
 616:lvgl/src/extra/layouts/grid/lv_grid.c ****         case LV_GRID_ALIGN_CENTER:
 617:lvgl/src/extra/layouts/grid/lv_grid.c ****             x = c->x[col_pos] + (col_w - item_w) / 2;
 618:lvgl/src/extra/layouts/grid/lv_grid.c ****             item->w_layout = 0;
 619:lvgl/src/extra/layouts/grid/lv_grid.c ****             break;
 620:lvgl/src/extra/layouts/grid/lv_grid.c ****         case LV_GRID_ALIGN_END:
 621:lvgl/src/extra/layouts/grid/lv_grid.c ****             x = c->x[col_pos] + col_w - lv_obj_get_width(item);
 622:lvgl/src/extra/layouts/grid/lv_grid.c ****             item->w_layout = 0;
 623:lvgl/src/extra/layouts/grid/lv_grid.c ****             break;
 624:lvgl/src/extra/layouts/grid/lv_grid.c ****     }
 625:lvgl/src/extra/layouts/grid/lv_grid.c **** 
 626:lvgl/src/extra/layouts/grid/lv_grid.c ****     switch(row_align) {
 627:lvgl/src/extra/layouts/grid/lv_grid.c ****         default:
 628:lvgl/src/extra/layouts/grid/lv_grid.c ****         case LV_GRID_ALIGN_START:
 629:lvgl/src/extra/layouts/grid/lv_grid.c ****             y = c->y[row_pos];
 630:lvgl/src/extra/layouts/grid/lv_grid.c ****             item->h_layout = 0;
 631:lvgl/src/extra/layouts/grid/lv_grid.c ****             break;
 632:lvgl/src/extra/layouts/grid/lv_grid.c ****         case LV_GRID_ALIGN_STRETCH:
 633:lvgl/src/extra/layouts/grid/lv_grid.c ****             y = c->y[row_pos];
 634:lvgl/src/extra/layouts/grid/lv_grid.c ****             item_h = row_h;
 635:lvgl/src/extra/layouts/grid/lv_grid.c ****             item->h_layout = 1;
 636:lvgl/src/extra/layouts/grid/lv_grid.c ****             break;
 637:lvgl/src/extra/layouts/grid/lv_grid.c ****         case LV_GRID_ALIGN_CENTER:
 638:lvgl/src/extra/layouts/grid/lv_grid.c ****             y = c->y[row_pos] + (row_h - item_h) / 2;
 639:lvgl/src/extra/layouts/grid/lv_grid.c ****             item->h_layout = 0;
 640:lvgl/src/extra/layouts/grid/lv_grid.c ****             break;
 641:lvgl/src/extra/layouts/grid/lv_grid.c ****         case LV_GRID_ALIGN_END:
 642:lvgl/src/extra/layouts/grid/lv_grid.c ****             y = c->y[row_pos] + row_h - lv_obj_get_height(item);
 643:lvgl/src/extra/layouts/grid/lv_grid.c ****             item->h_layout = 0;
 644:lvgl/src/extra/layouts/grid/lv_grid.c ****             break;
 645:lvgl/src/extra/layouts/grid/lv_grid.c ****     }
 646:lvgl/src/extra/layouts/grid/lv_grid.c **** 
 647:lvgl/src/extra/layouts/grid/lv_grid.c ****     /*Set a new size if required*/
 648:lvgl/src/extra/layouts/grid/lv_grid.c ****     if(lv_obj_get_width(item) != item_w || lv_obj_get_height(item) != item_h) {
 649:lvgl/src/extra/layouts/grid/lv_grid.c ****         lv_area_t old_coords;
 650:lvgl/src/extra/layouts/grid/lv_grid.c ****         lv_area_copy(&old_coords, &item->coords);
 651:lvgl/src/extra/layouts/grid/lv_grid.c ****         lv_obj_invalidate(item);
 652:lvgl/src/extra/layouts/grid/lv_grid.c ****         lv_area_set_width(&item->coords, item_w);
 653:lvgl/src/extra/layouts/grid/lv_grid.c ****         lv_area_set_height(&item->coords, item_h);
 654:lvgl/src/extra/layouts/grid/lv_grid.c ****         lv_obj_invalidate(item);
 655:lvgl/src/extra/layouts/grid/lv_grid.c ****         lv_event_send(item, LV_EVENT_SIZE_CHANGED, &old_coords);
 656:lvgl/src/extra/layouts/grid/lv_grid.c ****         lv_event_send(lv_obj_get_parent(item), LV_EVENT_CHILD_CHANGED, item);
 657:lvgl/src/extra/layouts/grid/lv_grid.c **** 
ARM GAS  /var/folders/21/t9g5rlb91ys800n5npymflf80000gn/T//cce6JCY2.s 			page 13


 658:lvgl/src/extra/layouts/grid/lv_grid.c ****     }
 659:lvgl/src/extra/layouts/grid/lv_grid.c **** 
 660:lvgl/src/extra/layouts/grid/lv_grid.c ****     /*Handle percentage value of translate*/
 661:lvgl/src/extra/layouts/grid/lv_grid.c ****     lv_coord_t tr_x = lv_obj_get_style_translate_x(item, LV_PART_MAIN);
 662:lvgl/src/extra/layouts/grid/lv_grid.c ****     lv_coord_t tr_y = lv_obj_get_style_translate_y(item, LV_PART_MAIN);
 663:lvgl/src/extra/layouts/grid/lv_grid.c ****     lv_coord_t w = lv_obj_get_width(item);
 664:lvgl/src/extra/layouts/grid/lv_grid.c ****     lv_coord_t h = lv_obj_get_height(item);
 665:lvgl/src/extra/layouts/grid/lv_grid.c ****     if(LV_COORD_IS_PCT(tr_x)) tr_x = (w * LV_COORD_GET_PCT(tr_x)) / 100;
 666:lvgl/src/extra/layouts/grid/lv_grid.c ****     if(LV_COORD_IS_PCT(tr_y)) tr_y = (h * LV_COORD_GET_PCT(tr_y)) / 100;
 667:lvgl/src/extra/layouts/grid/lv_grid.c **** 
 668:lvgl/src/extra/layouts/grid/lv_grid.c ****     x += tr_x;
 669:lvgl/src/extra/layouts/grid/lv_grid.c ****     y += tr_y;
 670:lvgl/src/extra/layouts/grid/lv_grid.c **** 
 671:lvgl/src/extra/layouts/grid/lv_grid.c ****     lv_coord_t diff_x = hint->grid_abs.x + x - item->coords.x1;
 672:lvgl/src/extra/layouts/grid/lv_grid.c ****     lv_coord_t diff_y = hint->grid_abs.y + y - item->coords.y1;
 673:lvgl/src/extra/layouts/grid/lv_grid.c ****     if(diff_x || diff_y) {
 674:lvgl/src/extra/layouts/grid/lv_grid.c ****         lv_obj_invalidate(item);
 675:lvgl/src/extra/layouts/grid/lv_grid.c ****         item->coords.x1 += diff_x;
 676:lvgl/src/extra/layouts/grid/lv_grid.c ****         item->coords.x2 += diff_x;
 677:lvgl/src/extra/layouts/grid/lv_grid.c ****         item->coords.y1 += diff_y;
 678:lvgl/src/extra/layouts/grid/lv_grid.c ****         item->coords.y2 += diff_y;
 679:lvgl/src/extra/layouts/grid/lv_grid.c ****         lv_obj_invalidate(item);
 680:lvgl/src/extra/layouts/grid/lv_grid.c ****         lv_obj_move_children_by(item, diff_x, diff_y, false);
 681:lvgl/src/extra/layouts/grid/lv_grid.c ****     }
 682:lvgl/src/extra/layouts/grid/lv_grid.c **** }
 683:lvgl/src/extra/layouts/grid/lv_grid.c **** 
 684:lvgl/src/extra/layouts/grid/lv_grid.c **** /**
 685:lvgl/src/extra/layouts/grid/lv_grid.c ****  * Place the grid track according to align methods. It keeps the track sizes but sets their positio
 686:lvgl/src/extra/layouts/grid/lv_grid.c ****  * It can process both columns or rows according to the passed parameters.
 687:lvgl/src/extra/layouts/grid/lv_grid.c ****  * @param cont_size size of the containers content area (width/height)
 688:lvgl/src/extra/layouts/grid/lv_grid.c ****  * @param auto_size true: the container has auto size in the current direction
 689:lvgl/src/extra/layouts/grid/lv_grid.c ****  * @param align align method
 690:lvgl/src/extra/layouts/grid/lv_grid.c ****  * @param gap grid gap
 691:lvgl/src/extra/layouts/grid/lv_grid.c ****  * @param track_num number of tracks
 692:lvgl/src/extra/layouts/grid/lv_grid.c ****  * @param size_array array with the track sizes
 693:lvgl/src/extra/layouts/grid/lv_grid.c ****  * @param pos_array write the positions of the tracks here
 694:lvgl/src/extra/layouts/grid/lv_grid.c ****  * @return the total size of the grid
 695:lvgl/src/extra/layouts/grid/lv_grid.c ****  */
 696:lvgl/src/extra/layouts/grid/lv_grid.c **** static lv_coord_t grid_align(lv_coord_t cont_size,  bool auto_size, uint8_t align, lv_coord_t gap, 
 697:lvgl/src/extra/layouts/grid/lv_grid.c ****                              lv_coord_t * size_array, lv_coord_t * pos_array, bool reverse)
 698:lvgl/src/extra/layouts/grid/lv_grid.c **** {
  29              		.loc 1 698 1 view -0
  30              		.cfi_startproc
  31              		@ args = 16, pretend = 0, frame = 0
  32              		@ frame_needed = 0, uses_anonymous_args = 0
  33              		.loc 1 698 1 is_stmt 0 view .LVU1
  34 0000 2DE9F041 		push	{r4, r5, r6, r7, r8, lr}
  35              	.LCFI0:
  36              		.cfi_def_cfa_offset 24
  37              		.cfi_offset 4, -24
  38              		.cfi_offset 5, -20
  39              		.cfi_offset 6, -16
  40              		.cfi_offset 7, -12
  41              		.cfi_offset 8, -8
  42              		.cfi_offset 14, -4
  43 0004 8446     		mov	ip, r0
  44 0006 069D     		ldr	r5, [sp, #24]
ARM GAS  /var/folders/21/t9g5rlb91ys800n5npymflf80000gn/T//cce6JCY2.s 			page 14


  45 0008 079E     		ldr	r6, [sp, #28]
  46 000a 089C     		ldr	r4, [sp, #32]
  47 000c 9DF82470 		ldrb	r7, [sp, #36]	@ zero_extendqisi2
 699:lvgl/src/extra/layouts/grid/lv_grid.c ****     lv_coord_t grid_size = 0;
  48              		.loc 1 699 5 is_stmt 1 view .LVU2
  49              	.LVL1:
 700:lvgl/src/extra/layouts/grid/lv_grid.c ****     uint32_t i;
  50              		.loc 1 700 5 view .LVU3
 701:lvgl/src/extra/layouts/grid/lv_grid.c **** 
 702:lvgl/src/extra/layouts/grid/lv_grid.c ****     if(auto_size) {
  51              		.loc 1 702 5 view .LVU4
  52              		.loc 1 702 7 is_stmt 0 view .LVU5
  53 0010 19B1     		cbz	r1, .L2
 703:lvgl/src/extra/layouts/grid/lv_grid.c ****         pos_array[0] = 0;
  54              		.loc 1 703 9 is_stmt 1 view .LVU6
  55              		.loc 1 703 22 is_stmt 0 view .LVU7
  56 0012 0022     		movs	r2, #0
  57              	.LVL2:
  58              		.loc 1 703 22 view .LVU8
  59 0014 2280     		strh	r2, [r4]	@ movhi
  60              	.LVL3:
  61              	.L3:
 704:lvgl/src/extra/layouts/grid/lv_grid.c ****     }
 705:lvgl/src/extra/layouts/grid/lv_grid.c ****     else {
 706:lvgl/src/extra/layouts/grid/lv_grid.c ****         /*With spaced alignment gap will be calculated from the remaining space*/
 707:lvgl/src/extra/layouts/grid/lv_grid.c ****         if(align == LV_GRID_ALIGN_SPACE_AROUND || align == LV_GRID_ALIGN_SPACE_BETWEEN || align == 
 708:lvgl/src/extra/layouts/grid/lv_grid.c ****             gap = 0;
 709:lvgl/src/extra/layouts/grid/lv_grid.c ****             if(track_num == 1) align = LV_GRID_ALIGN_CENTER;
 710:lvgl/src/extra/layouts/grid/lv_grid.c ****         }
 711:lvgl/src/extra/layouts/grid/lv_grid.c **** 
 712:lvgl/src/extra/layouts/grid/lv_grid.c ****         /*Get the full grid size with gap*/
 713:lvgl/src/extra/layouts/grid/lv_grid.c ****         for(i = 0; i < track_num; i++) {
 714:lvgl/src/extra/layouts/grid/lv_grid.c ****             grid_size += size_array[i] + gap;
 715:lvgl/src/extra/layouts/grid/lv_grid.c ****         }
 716:lvgl/src/extra/layouts/grid/lv_grid.c ****         grid_size -= gap;
 717:lvgl/src/extra/layouts/grid/lv_grid.c **** 
 718:lvgl/src/extra/layouts/grid/lv_grid.c ****         /*Calculate the position of the first item and set gap is necessary*/
 719:lvgl/src/extra/layouts/grid/lv_grid.c ****         switch(align) {
 720:lvgl/src/extra/layouts/grid/lv_grid.c ****             case LV_GRID_ALIGN_START:
 721:lvgl/src/extra/layouts/grid/lv_grid.c ****                 pos_array[0] = 0;
 722:lvgl/src/extra/layouts/grid/lv_grid.c ****                 break;
 723:lvgl/src/extra/layouts/grid/lv_grid.c ****             case LV_GRID_ALIGN_CENTER:
 724:lvgl/src/extra/layouts/grid/lv_grid.c ****                 pos_array[0] = (cont_size - grid_size) / 2;
 725:lvgl/src/extra/layouts/grid/lv_grid.c ****                 break;
 726:lvgl/src/extra/layouts/grid/lv_grid.c ****             case LV_GRID_ALIGN_END:
 727:lvgl/src/extra/layouts/grid/lv_grid.c ****                 pos_array[0] = cont_size - grid_size;
 728:lvgl/src/extra/layouts/grid/lv_grid.c ****                 break;
 729:lvgl/src/extra/layouts/grid/lv_grid.c ****             case LV_GRID_ALIGN_SPACE_BETWEEN:
 730:lvgl/src/extra/layouts/grid/lv_grid.c ****                 pos_array[0] = 0;
 731:lvgl/src/extra/layouts/grid/lv_grid.c ****                 gap = (lv_coord_t)(cont_size - grid_size) / (lv_coord_t)(track_num - 1);
 732:lvgl/src/extra/layouts/grid/lv_grid.c ****                 break;
 733:lvgl/src/extra/layouts/grid/lv_grid.c ****             case LV_GRID_ALIGN_SPACE_AROUND:
 734:lvgl/src/extra/layouts/grid/lv_grid.c ****                 gap = (lv_coord_t)(cont_size - grid_size) / (lv_coord_t)(track_num);
 735:lvgl/src/extra/layouts/grid/lv_grid.c ****                 pos_array[0] = gap / 2;
 736:lvgl/src/extra/layouts/grid/lv_grid.c ****                 break;
 737:lvgl/src/extra/layouts/grid/lv_grid.c ****             case LV_GRID_ALIGN_SPACE_EVENLY:
 738:lvgl/src/extra/layouts/grid/lv_grid.c ****                 gap = (lv_coord_t)(cont_size - grid_size) / (lv_coord_t)(track_num + 1);
ARM GAS  /var/folders/21/t9g5rlb91ys800n5npymflf80000gn/T//cce6JCY2.s 			page 15


 739:lvgl/src/extra/layouts/grid/lv_grid.c ****                 pos_array[0] = gap;
 740:lvgl/src/extra/layouts/grid/lv_grid.c ****                 break;
 741:lvgl/src/extra/layouts/grid/lv_grid.c **** 
 742:lvgl/src/extra/layouts/grid/lv_grid.c ****         }
 743:lvgl/src/extra/layouts/grid/lv_grid.c ****     }
 744:lvgl/src/extra/layouts/grid/lv_grid.c **** 
 745:lvgl/src/extra/layouts/grid/lv_grid.c ****     /*Set the position of all tracks from the start position, gaps and track sizes*/
 746:lvgl/src/extra/layouts/grid/lv_grid.c ****     for(i = 0; i < track_num - 1; i++) {
  62              		.loc 1 746 5 is_stmt 1 view .LVU9
  63              		.loc 1 746 11 is_stmt 0 view .LVU10
  64 0016 0022     		movs	r2, #0
  65              		.loc 1 746 5 view .LVU11
  66 0018 6BE0     		b	.L14
  67              	.LVL4:
  68              	.L2:
 707:lvgl/src/extra/layouts/grid/lv_grid.c ****             gap = 0;
  69              		.loc 1 707 9 is_stmt 1 view .LVU12
 707:lvgl/src/extra/layouts/grid/lv_grid.c ****             gap = 0;
  70              		.loc 1 707 88 is_stmt 0 view .LVU13
  71 001a 111F     		subs	r1, r2, #4
  72              	.LVL5:
 707:lvgl/src/extra/layouts/grid/lv_grid.c ****             gap = 0;
  73              		.loc 1 707 88 view .LVU14
  74 001c C9B2     		uxtb	r1, r1
 707:lvgl/src/extra/layouts/grid/lv_grid.c ****             gap = 0;
  75              		.loc 1 707 11 view .LVU15
  76 001e 0229     		cmp	r1, #2
  77 0020 02D8     		bhi	.L4
 708:lvgl/src/extra/layouts/grid/lv_grid.c ****             if(track_num == 1) align = LV_GRID_ALIGN_CENTER;
  78              		.loc 1 708 13 is_stmt 1 view .LVU16
  79              	.LVL6:
 709:lvgl/src/extra/layouts/grid/lv_grid.c ****         }
  80              		.loc 1 709 13 view .LVU17
 709:lvgl/src/extra/layouts/grid/lv_grid.c ****         }
  81              		.loc 1 709 15 is_stmt 0 view .LVU18
  82 0022 012D     		cmp	r5, #1
  83 0024 0CD0     		beq	.L19
 708:lvgl/src/extra/layouts/grid/lv_grid.c ****             if(track_num == 1) align = LV_GRID_ALIGN_CENTER;
  84              		.loc 1 708 17 view .LVU19
  85 0026 0023     		movs	r3, #0
  86              	.LVL7:
  87              	.L4:
 713:lvgl/src/extra/layouts/grid/lv_grid.c ****             grid_size += size_array[i] + gap;
  88              		.loc 1 713 9 is_stmt 1 view .LVU20
 713:lvgl/src/extra/layouts/grid/lv_grid.c ****             grid_size += size_array[i] + gap;
  89              		.loc 1 713 15 is_stmt 0 view .LVU21
  90 0028 0020     		movs	r0, #0
  91              	.LVL8:
 699:lvgl/src/extra/layouts/grid/lv_grid.c ****     uint32_t i;
  92              		.loc 1 699 16 view .LVU22
  93 002a 0146     		mov	r1, r0
  94              	.LVL9:
  95              	.L5:
 713:lvgl/src/extra/layouts/grid/lv_grid.c ****             grid_size += size_array[i] + gap;
  96              		.loc 1 713 22 is_stmt 1 discriminator 1 view .LVU23
  97 002c A842     		cmp	r0, r5
  98 002e 0AD2     		bcs	.L23
ARM GAS  /var/folders/21/t9g5rlb91ys800n5npymflf80000gn/T//cce6JCY2.s 			page 16


 714:lvgl/src/extra/layouts/grid/lv_grid.c ****         }
  99              		.loc 1 714 13 discriminator 3 view .LVU24
 714:lvgl/src/extra/layouts/grid/lv_grid.c ****         }
 100              		.loc 1 714 36 is_stmt 0 discriminator 3 view .LVU25
 101 0030 36F810E0 		ldrh	lr, [r6, r0, lsl #1]
 714:lvgl/src/extra/layouts/grid/lv_grid.c ****         }
 102              		.loc 1 714 40 discriminator 3 view .LVU26
 103 0034 9E44     		add	lr, lr, r3
 714:lvgl/src/extra/layouts/grid/lv_grid.c ****         }
 104              		.loc 1 714 23 discriminator 3 view .LVU27
 105 0036 11FA8EF1 		uxtah	r1, r1, lr
 106              	.LVL10:
 714:lvgl/src/extra/layouts/grid/lv_grid.c ****         }
 107              		.loc 1 714 23 discriminator 3 view .LVU28
 108 003a 09B2     		sxth	r1, r1
 109              	.LVL11:
 713:lvgl/src/extra/layouts/grid/lv_grid.c ****             grid_size += size_array[i] + gap;
 110              		.loc 1 713 36 is_stmt 1 discriminator 3 view .LVU29
 111 003c 0130     		adds	r0, r0, #1
 112              	.LVL12:
 713:lvgl/src/extra/layouts/grid/lv_grid.c ****             grid_size += size_array[i] + gap;
 113              		.loc 1 713 36 is_stmt 0 discriminator 3 view .LVU30
 114 003e F5E7     		b	.L5
 115              	.LVL13:
 116              	.L19:
 708:lvgl/src/extra/layouts/grid/lv_grid.c ****             if(track_num == 1) align = LV_GRID_ALIGN_CENTER;
 117              		.loc 1 708 17 view .LVU31
 118 0040 0023     		movs	r3, #0
 709:lvgl/src/extra/layouts/grid/lv_grid.c ****         }
 119              		.loc 1 709 38 view .LVU32
 120 0042 0122     		movs	r2, #1
 121              	.LVL14:
 709:lvgl/src/extra/layouts/grid/lv_grid.c ****         }
 122              		.loc 1 709 38 view .LVU33
 123 0044 F0E7     		b	.L4
 124              	.LVL15:
 125              	.L23:
 716:lvgl/src/extra/layouts/grid/lv_grid.c **** 
 126              		.loc 1 716 9 is_stmt 1 view .LVU34
 716:lvgl/src/extra/layouts/grid/lv_grid.c **** 
 127              		.loc 1 716 19 is_stmt 0 view .LVU35
 128 0046 89B2     		uxth	r1, r1
 716:lvgl/src/extra/layouts/grid/lv_grid.c **** 
 129              		.loc 1 716 19 view .LVU36
 130 0048 98B2     		uxth	r0, r3
 131              	.LVL16:
 716:lvgl/src/extra/layouts/grid/lv_grid.c **** 
 132              		.loc 1 716 19 view .LVU37
 133 004a A1EB000E 		sub	lr, r1, r0
 134 004e 0FFA8EFE 		sxth	lr, lr
 135              	.LVL17:
 719:lvgl/src/extra/layouts/grid/lv_grid.c ****             case LV_GRID_ALIGN_START:
 136              		.loc 1 719 9 is_stmt 1 view .LVU38
 137 0052 062A     		cmp	r2, #6
 138 0054 DFD8     		bhi	.L3
 139 0056 0FF20808 		adr	r8, .L8
 140 005a 58F822F0 		ldr	pc, [r8, r2, lsl #2]
ARM GAS  /var/folders/21/t9g5rlb91ys800n5npymflf80000gn/T//cce6JCY2.s 			page 17


 141 005e 00BF     		.p2align 2
 142              	.L8:
 143 0060 7D000000 		.word	.L13+1
 144 0064 83000000 		.word	.L12+1
 145 0068 93000000 		.word	.L11+1
 146 006c 17000000 		.word	.L3+1
 147 0070 CB000000 		.word	.L10+1
 148 0074 B1000000 		.word	.L9+1
 149 0078 9B000000 		.word	.L7+1
 150              		.p2align 1
 151              	.L13:
 721:lvgl/src/extra/layouts/grid/lv_grid.c ****                 break;
 152              		.loc 1 721 17 view .LVU39
 721:lvgl/src/extra/layouts/grid/lv_grid.c ****                 break;
 153              		.loc 1 721 30 is_stmt 0 view .LVU40
 154 007c 0022     		movs	r2, #0
 155              	.LVL18:
 721:lvgl/src/extra/layouts/grid/lv_grid.c ****                 break;
 156              		.loc 1 721 30 view .LVU41
 157 007e 2280     		strh	r2, [r4]	@ movhi
 722:lvgl/src/extra/layouts/grid/lv_grid.c ****             case LV_GRID_ALIGN_CENTER:
 158              		.loc 1 722 17 is_stmt 1 view .LVU42
 159 0080 C9E7     		b	.L3
 160              	.LVL19:
 161              	.L12:
 724:lvgl/src/extra/layouts/grid/lv_grid.c ****                 break;
 162              		.loc 1 724 17 view .LVU43
 724:lvgl/src/extra/layouts/grid/lv_grid.c ****                 break;
 163              		.loc 1 724 43 is_stmt 0 view .LVU44
 164 0082 ACEB0E0E 		sub	lr, ip, lr
 165              	.LVL20:
 724:lvgl/src/extra/layouts/grid/lv_grid.c ****                 break;
 166              		.loc 1 724 56 view .LVU45
 167 0086 0EEBDE7E 		add	lr, lr, lr, lsr #31
 168 008a 4FEA6E02 		asr	r2, lr, #1
 169              	.LVL21:
 724:lvgl/src/extra/layouts/grid/lv_grid.c ****                 break;
 170              		.loc 1 724 30 view .LVU46
 171 008e 2280     		strh	r2, [r4]	@ movhi
 725:lvgl/src/extra/layouts/grid/lv_grid.c ****             case LV_GRID_ALIGN_END:
 172              		.loc 1 725 17 is_stmt 1 view .LVU47
 173 0090 C1E7     		b	.L3
 174              	.LVL22:
 175              	.L11:
 727:lvgl/src/extra/layouts/grid/lv_grid.c ****                 break;
 176              		.loc 1 727 17 view .LVU48
 727:lvgl/src/extra/layouts/grid/lv_grid.c ****                 break;
 177              		.loc 1 727 42 is_stmt 0 view .LVU49
 178 0092 421A     		subs	r2, r0, r1
 179              	.LVL23:
 727:lvgl/src/extra/layouts/grid/lv_grid.c ****                 break;
 180              		.loc 1 727 42 view .LVU50
 181 0094 6244     		add	r2, r2, ip
 727:lvgl/src/extra/layouts/grid/lv_grid.c ****                 break;
 182              		.loc 1 727 30 view .LVU51
 183 0096 2280     		strh	r2, [r4]	@ movhi
 728:lvgl/src/extra/layouts/grid/lv_grid.c ****             case LV_GRID_ALIGN_SPACE_BETWEEN:
ARM GAS  /var/folders/21/t9g5rlb91ys800n5npymflf80000gn/T//cce6JCY2.s 			page 18


 184              		.loc 1 728 17 is_stmt 1 view .LVU52
 185 0098 BDE7     		b	.L3
 186              	.LVL24:
 187              	.L7:
 730:lvgl/src/extra/layouts/grid/lv_grid.c ****                 gap = (lv_coord_t)(cont_size - grid_size) / (lv_coord_t)(track_num - 1);
 188              		.loc 1 730 17 view .LVU53
 730:lvgl/src/extra/layouts/grid/lv_grid.c ****                 gap = (lv_coord_t)(cont_size - grid_size) / (lv_coord_t)(track_num - 1);
 189              		.loc 1 730 30 is_stmt 0 view .LVU54
 190 009a 0023     		movs	r3, #0
 191              	.LVL25:
 730:lvgl/src/extra/layouts/grid/lv_grid.c ****                 gap = (lv_coord_t)(cont_size - grid_size) / (lv_coord_t)(track_num - 1);
 192              		.loc 1 730 30 view .LVU55
 193 009c 2380     		strh	r3, [r4]	@ movhi
 731:lvgl/src/extra/layouts/grid/lv_grid.c ****                 break;
 194              		.loc 1 731 17 is_stmt 1 view .LVU56
 731:lvgl/src/extra/layouts/grid/lv_grid.c ****                 break;
 195              		.loc 1 731 46 is_stmt 0 view .LVU57
 196 009e 431A     		subs	r3, r0, r1
 197 00a0 6344     		add	r3, r3, ip
 731:lvgl/src/extra/layouts/grid/lv_grid.c ****                 break;
 198              		.loc 1 731 23 view .LVU58
 199 00a2 1BB2     		sxth	r3, r3
 731:lvgl/src/extra/layouts/grid/lv_grid.c ****                 break;
 200              		.loc 1 731 84 view .LVU59
 201 00a4 6A1E     		subs	r2, r5, #1
 202              	.LVL26:
 731:lvgl/src/extra/layouts/grid/lv_grid.c ****                 break;
 203              		.loc 1 731 61 view .LVU60
 204 00a6 12B2     		sxth	r2, r2
 731:lvgl/src/extra/layouts/grid/lv_grid.c ****                 break;
 205              		.loc 1 731 59 view .LVU61
 206 00a8 93FBF2F3 		sdiv	r3, r3, r2
 731:lvgl/src/extra/layouts/grid/lv_grid.c ****                 break;
 207              		.loc 1 731 21 view .LVU62
 208 00ac 1BB2     		sxth	r3, r3
 209              	.LVL27:
 732:lvgl/src/extra/layouts/grid/lv_grid.c ****             case LV_GRID_ALIGN_SPACE_AROUND:
 210              		.loc 1 732 17 is_stmt 1 view .LVU63
 211 00ae B2E7     		b	.L3
 212              	.LVL28:
 213              	.L9:
 734:lvgl/src/extra/layouts/grid/lv_grid.c ****                 pos_array[0] = gap / 2;
 214              		.loc 1 734 17 view .LVU64
 734:lvgl/src/extra/layouts/grid/lv_grid.c ****                 pos_array[0] = gap / 2;
 215              		.loc 1 734 46 is_stmt 0 view .LVU65
 216 00b0 421A     		subs	r2, r0, r1
 217              	.LVL29:
 734:lvgl/src/extra/layouts/grid/lv_grid.c ****                 pos_array[0] = gap / 2;
 218              		.loc 1 734 46 view .LVU66
 219 00b2 6244     		add	r2, r2, ip
 734:lvgl/src/extra/layouts/grid/lv_grid.c ****                 pos_array[0] = gap / 2;
 220              		.loc 1 734 23 view .LVU67
 221 00b4 12B2     		sxth	r2, r2
 734:lvgl/src/extra/layouts/grid/lv_grid.c ****                 pos_array[0] = gap / 2;
 222              		.loc 1 734 61 view .LVU68
 223 00b6 2BB2     		sxth	r3, r5
 224              	.LVL30:
ARM GAS  /var/folders/21/t9g5rlb91ys800n5npymflf80000gn/T//cce6JCY2.s 			page 19


 734:lvgl/src/extra/layouts/grid/lv_grid.c ****                 pos_array[0] = gap / 2;
 225              		.loc 1 734 59 view .LVU69
 226 00b8 92FBF3F2 		sdiv	r2, r2, r3
 734:lvgl/src/extra/layouts/grid/lv_grid.c ****                 pos_array[0] = gap / 2;
 227              		.loc 1 734 21 view .LVU70
 228 00bc 13B2     		sxth	r3, r2
 229              	.LVL31:
 735:lvgl/src/extra/layouts/grid/lv_grid.c ****                 break;
 230              		.loc 1 735 17 is_stmt 1 view .LVU71
 735:lvgl/src/extra/layouts/grid/lv_grid.c ****                 break;
 231              		.loc 1 735 30 is_stmt 0 view .LVU72
 232 00be C2F3C032 		ubfx	r2, r2, #15, #1
 233 00c2 1A44     		add	r2, r2, r3
 234 00c4 5210     		asrs	r2, r2, #1
 235 00c6 2280     		strh	r2, [r4]	@ movhi
 736:lvgl/src/extra/layouts/grid/lv_grid.c ****             case LV_GRID_ALIGN_SPACE_EVENLY:
 236              		.loc 1 736 17 is_stmt 1 view .LVU73
 237 00c8 A5E7     		b	.L3
 238              	.LVL32:
 239              	.L10:
 738:lvgl/src/extra/layouts/grid/lv_grid.c ****                 pos_array[0] = gap;
 240              		.loc 1 738 17 view .LVU74
 738:lvgl/src/extra/layouts/grid/lv_grid.c ****                 pos_array[0] = gap;
 241              		.loc 1 738 46 is_stmt 0 view .LVU75
 242 00ca 431A     		subs	r3, r0, r1
 243              	.LVL33:
 738:lvgl/src/extra/layouts/grid/lv_grid.c ****                 pos_array[0] = gap;
 244              		.loc 1 738 46 view .LVU76
 245 00cc 6344     		add	r3, r3, ip
 738:lvgl/src/extra/layouts/grid/lv_grid.c ****                 pos_array[0] = gap;
 246              		.loc 1 738 23 view .LVU77
 247 00ce 1BB2     		sxth	r3, r3
 738:lvgl/src/extra/layouts/grid/lv_grid.c ****                 pos_array[0] = gap;
 248              		.loc 1 738 84 view .LVU78
 249 00d0 6A1C     		adds	r2, r5, #1
 250              	.LVL34:
 738:lvgl/src/extra/layouts/grid/lv_grid.c ****                 pos_array[0] = gap;
 251              		.loc 1 738 61 view .LVU79
 252 00d2 12B2     		sxth	r2, r2
 738:lvgl/src/extra/layouts/grid/lv_grid.c ****                 pos_array[0] = gap;
 253              		.loc 1 738 59 view .LVU80
 254 00d4 93FBF2F3 		sdiv	r3, r3, r2
 738:lvgl/src/extra/layouts/grid/lv_grid.c ****                 pos_array[0] = gap;
 255              		.loc 1 738 21 view .LVU81
 256 00d8 1BB2     		sxth	r3, r3
 257              	.LVL35:
 739:lvgl/src/extra/layouts/grid/lv_grid.c ****                 break;
 258              		.loc 1 739 17 is_stmt 1 view .LVU82
 739:lvgl/src/extra/layouts/grid/lv_grid.c ****                 break;
 259              		.loc 1 739 30 is_stmt 0 view .LVU83
 260 00da 2380     		strh	r3, [r4]	@ movhi
 740:lvgl/src/extra/layouts/grid/lv_grid.c **** 
 261              		.loc 1 740 17 is_stmt 1 view .LVU84
 262 00dc 9BE7     		b	.L3
 263              	.LVL36:
 264              	.L15:
 747:lvgl/src/extra/layouts/grid/lv_grid.c ****         pos_array[i + 1] = pos_array[i] + size_array[i] + gap;
ARM GAS  /var/folders/21/t9g5rlb91ys800n5npymflf80000gn/T//cce6JCY2.s 			page 20


 265              		.loc 1 747 9 discriminator 3 view .LVU85
 266              		.loc 1 747 37 is_stmt 0 discriminator 3 view .LVU86
 267 00de 34F81210 		ldrh	r1, [r4, r2, lsl #1]
 268              		.loc 1 747 53 discriminator 3 view .LVU87
 269 00e2 36F81200 		ldrh	r0, [r6, r2, lsl #1]
 270              		.loc 1 747 41 discriminator 3 view .LVU88
 271 00e6 0144     		add	r1, r1, r0
 272              		.loc 1 747 18 discriminator 3 view .LVU89
 273 00e8 0132     		adds	r2, r2, #1
 274              	.LVL37:
 275              		.loc 1 747 57 discriminator 3 view .LVU90
 276 00ea 13FA81F1 		uxtah	r1, r3, r1
 277              		.loc 1 747 26 discriminator 3 view .LVU91
 278 00ee 24F81210 		strh	r1, [r4, r2, lsl #1]	@ movhi
 746:lvgl/src/extra/layouts/grid/lv_grid.c ****         pos_array[i + 1] = pos_array[i] + size_array[i] + gap;
 279              		.loc 1 746 36 is_stmt 1 discriminator 3 view .LVU92
 280              	.LVL38:
 281              	.L14:
 746:lvgl/src/extra/layouts/grid/lv_grid.c ****         pos_array[i + 1] = pos_array[i] + size_array[i] + gap;
 282              		.loc 1 746 18 discriminator 1 view .LVU93
 746:lvgl/src/extra/layouts/grid/lv_grid.c ****         pos_array[i + 1] = pos_array[i] + size_array[i] + gap;
 283              		.loc 1 746 30 is_stmt 0 discriminator 1 view .LVU94
 284 00f2 691E     		subs	r1, r5, #1
 746:lvgl/src/extra/layouts/grid/lv_grid.c ****         pos_array[i + 1] = pos_array[i] + size_array[i] + gap;
 285              		.loc 1 746 18 discriminator 1 view .LVU95
 286 00f4 9142     		cmp	r1, r2
 287 00f6 F2D8     		bhi	.L15
 748:lvgl/src/extra/layouts/grid/lv_grid.c ****     }
 749:lvgl/src/extra/layouts/grid/lv_grid.c **** 
 750:lvgl/src/extra/layouts/grid/lv_grid.c ****     lv_coord_t total_gird_size = pos_array[track_num - 1] + size_array[track_num - 1] - pos_array[0
 288              		.loc 1 750 5 is_stmt 1 view .LVU96
 289              		.loc 1 750 43 is_stmt 0 view .LVU97
 290 00f8 05F10043 		add	r3, r5, #-2147483648
 291              	.LVL39:
 292              		.loc 1 750 43 view .LVU98
 293 00fc 013B     		subs	r3, r3, #1
 294 00fe 34F81300 		ldrh	r0, [r4, r3, lsl #1]
 295              		.loc 1 750 71 view .LVU99
 296 0102 36F81330 		ldrh	r3, [r6, r3, lsl #1]
 297              		.loc 1 750 59 view .LVU100
 298 0106 1844     		add	r0, r0, r3
 299 0108 80B2     		uxth	r0, r0
 300              		.loc 1 750 98 view .LVU101
 301 010a 2388     		ldrh	r3, [r4]
 302              		.loc 1 750 87 view .LVU102
 303 010c C01A     		subs	r0, r0, r3
 304              		.loc 1 750 16 view .LVU103
 305 010e 00B2     		sxth	r0, r0
 306              	.LVL40:
 751:lvgl/src/extra/layouts/grid/lv_grid.c **** 
 752:lvgl/src/extra/layouts/grid/lv_grid.c ****     if(reverse) {
 307              		.loc 1 752 5 is_stmt 1 view .LVU104
 308              		.loc 1 752 7 is_stmt 0 view .LVU105
 309 0110 0FB9     		cbnz	r7, .L20
 310              	.L17:
 753:lvgl/src/extra/layouts/grid/lv_grid.c ****         for(i = 0; i < track_num; i++) {
 754:lvgl/src/extra/layouts/grid/lv_grid.c ****             pos_array[i] = cont_size - pos_array[i] - size_array[i];
ARM GAS  /var/folders/21/t9g5rlb91ys800n5npymflf80000gn/T//cce6JCY2.s 			page 21


 755:lvgl/src/extra/layouts/grid/lv_grid.c ****         }
 756:lvgl/src/extra/layouts/grid/lv_grid.c **** 
 757:lvgl/src/extra/layouts/grid/lv_grid.c ****     }
 758:lvgl/src/extra/layouts/grid/lv_grid.c **** 
 759:lvgl/src/extra/layouts/grid/lv_grid.c ****     /*Return the full size of the grid*/
 760:lvgl/src/extra/layouts/grid/lv_grid.c ****     return total_gird_size;
 311              		.loc 1 760 5 is_stmt 1 view .LVU106
 761:lvgl/src/extra/layouts/grid/lv_grid.c **** }
 312              		.loc 1 761 1 is_stmt 0 view .LVU107
 313 0112 BDE8F081 		pop	{r4, r5, r6, r7, r8, pc}
 314              	.LVL41:
 315              	.L20:
 753:lvgl/src/extra/layouts/grid/lv_grid.c ****         for(i = 0; i < track_num; i++) {
 316              		.loc 1 753 15 view .LVU108
 317 0116 0022     		movs	r2, #0
 318              	.LVL42:
 319              	.L16:
 753:lvgl/src/extra/layouts/grid/lv_grid.c ****         for(i = 0; i < track_num; i++) {
 320              		.loc 1 753 22 is_stmt 1 discriminator 1 view .LVU109
 321 0118 AA42     		cmp	r2, r5
 322 011a FAD2     		bcs	.L17
 754:lvgl/src/extra/layouts/grid/lv_grid.c ****         }
 323              		.loc 1 754 13 discriminator 3 view .LVU110
 754:lvgl/src/extra/layouts/grid/lv_grid.c ****         }
 324              		.loc 1 754 49 is_stmt 0 discriminator 3 view .LVU111
 325 011c 34F81230 		ldrh	r3, [r4, r2, lsl #1]
 754:lvgl/src/extra/layouts/grid/lv_grid.c ****         }
 326              		.loc 1 754 38 discriminator 3 view .LVU112
 327 0120 ACEB0303 		sub	r3, ip, r3
 328 0124 9BB2     		uxth	r3, r3
 754:lvgl/src/extra/layouts/grid/lv_grid.c ****         }
 329              		.loc 1 754 65 discriminator 3 view .LVU113
 330 0126 36F81210 		ldrh	r1, [r6, r2, lsl #1]
 754:lvgl/src/extra/layouts/grid/lv_grid.c ****         }
 331              		.loc 1 754 53 discriminator 3 view .LVU114
 332 012a 5B1A     		subs	r3, r3, r1
 754:lvgl/src/extra/layouts/grid/lv_grid.c ****         }
 333              		.loc 1 754 26 discriminator 3 view .LVU115
 334 012c 24F81230 		strh	r3, [r4, r2, lsl #1]	@ movhi
 753:lvgl/src/extra/layouts/grid/lv_grid.c ****         for(i = 0; i < track_num; i++) {
 335              		.loc 1 753 36 is_stmt 1 discriminator 3 view .LVU116
 336 0130 0132     		adds	r2, r2, #1
 337              	.LVL43:
 753:lvgl/src/extra/layouts/grid/lv_grid.c ****         for(i = 0; i < track_num; i++) {
 338              		.loc 1 753 36 is_stmt 0 discriminator 3 view .LVU117
 339 0132 F1E7     		b	.L16
 340              		.cfi_endproc
 341              	.LFE217:
 343              		.section	.text.count_tracks,"ax",%progbits
 344              		.align	1
 345              		.syntax unified
 346              		.thumb
 347              		.thumb_func
 349              	count_tracks:
 350              	.LVL44:
 351              	.LFB218:
 762:lvgl/src/extra/layouts/grid/lv_grid.c **** 
ARM GAS  /var/folders/21/t9g5rlb91ys800n5npymflf80000gn/T//cce6JCY2.s 			page 22


 763:lvgl/src/extra/layouts/grid/lv_grid.c **** static uint32_t count_tracks(const lv_coord_t * templ)
 764:lvgl/src/extra/layouts/grid/lv_grid.c **** {
 352              		.loc 1 764 1 is_stmt 1 view -0
 353              		.cfi_startproc
 354              		@ args = 0, pretend = 0, frame = 0
 355              		@ frame_needed = 0, uses_anonymous_args = 0
 356              		@ link register save eliminated.
 357              		.loc 1 764 1 is_stmt 0 view .LVU119
 358 0000 0146     		mov	r1, r0
 765:lvgl/src/extra/layouts/grid/lv_grid.c ****     uint32_t i;
 359              		.loc 1 765 5 is_stmt 1 view .LVU120
 766:lvgl/src/extra/layouts/grid/lv_grid.c ****     for(i = 0; templ[i] != LV_GRID_TEMPLATE_LAST; i++);
 360              		.loc 1 766 5 view .LVU121
 361              	.LVL45:
 362              		.loc 1 766 11 is_stmt 0 view .LVU122
 363 0002 0020     		movs	r0, #0
 364              	.LVL46:
 365              		.loc 1 766 5 view .LVU123
 366 0004 00E0     		b	.L25
 367              	.LVL47:
 368              	.L26:
 369              		.loc 1 766 52 is_stmt 1 discriminator 3 view .LVU124
 370 0006 0130     		adds	r0, r0, #1
 371              	.LVL48:
 372              	.L25:
 373              		.loc 1 766 25 discriminator 1 view .LVU125
 374              		.loc 1 766 21 is_stmt 0 discriminator 1 view .LVU126
 375 0008 31F91020 		ldrsh	r2, [r1, r0, lsl #1]
 376              		.loc 1 766 25 discriminator 1 view .LVU127
 377 000c 41F6FF73 		movw	r3, #8191
 378 0010 9A42     		cmp	r2, r3
 379 0012 F8D1     		bne	.L26
 767:lvgl/src/extra/layouts/grid/lv_grid.c **** 
 768:lvgl/src/extra/layouts/grid/lv_grid.c ****     return i;
 380              		.loc 1 768 5 is_stmt 1 view .LVU128
 769:lvgl/src/extra/layouts/grid/lv_grid.c **** }
 381              		.loc 1 769 1 is_stmt 0 view .LVU129
 382 0014 7047     		bx	lr
 383              		.cfi_endproc
 384              	.LFE218:
 386              		.section	.text.get_col_dsc,"ax",%progbits
 387              		.align	1
 388              		.syntax unified
 389              		.thumb
 390              		.thumb_func
 392              	get_col_dsc:
 393              	.LVL49:
 394              	.LFB177:
  61:lvgl/src/extra/layouts/grid/lv_grid.c ****     return lv_obj_get_style_grid_column_dsc_array(obj, 0);
 395              		.loc 1 61 1 is_stmt 1 view -0
 396              		.cfi_startproc
 397              		@ args = 0, pretend = 0, frame = 0
 398              		@ frame_needed = 0, uses_anonymous_args = 0
  61:lvgl/src/extra/layouts/grid/lv_grid.c ****     return lv_obj_get_style_grid_column_dsc_array(obj, 0);
 399              		.loc 1 61 1 is_stmt 0 view .LVU131
 400 0000 08B5     		push	{r3, lr}
 401              	.LCFI1:
ARM GAS  /var/folders/21/t9g5rlb91ys800n5npymflf80000gn/T//cce6JCY2.s 			page 23


 402              		.cfi_def_cfa_offset 8
 403              		.cfi_offset 3, -8
 404              		.cfi_offset 14, -4
  62:lvgl/src/extra/layouts/grid/lv_grid.c **** }
 405              		.loc 1 62 5 is_stmt 1 view .LVU132
 406              	.LVL50:
 407              	.LBB72:
 408              	.LBI72:
 409              		.file 2 "lvgl/src/extra/layouts/grid/../grid/lv_grid.h"
   1:lvgl/src/extra/layouts/grid/../grid/lv_grid.h **** /**
   2:lvgl/src/extra/layouts/grid/../grid/lv_grid.h ****  * @file lv_grid.h
   3:lvgl/src/extra/layouts/grid/../grid/lv_grid.h ****  *
   4:lvgl/src/extra/layouts/grid/../grid/lv_grid.h ****  */
   5:lvgl/src/extra/layouts/grid/../grid/lv_grid.h **** 
   6:lvgl/src/extra/layouts/grid/../grid/lv_grid.h **** #ifndef LV_GRID_H
   7:lvgl/src/extra/layouts/grid/../grid/lv_grid.h **** #define LV_GRID_H
   8:lvgl/src/extra/layouts/grid/../grid/lv_grid.h **** 
   9:lvgl/src/extra/layouts/grid/../grid/lv_grid.h **** #ifdef __cplusplus
  10:lvgl/src/extra/layouts/grid/../grid/lv_grid.h **** extern "C" {
  11:lvgl/src/extra/layouts/grid/../grid/lv_grid.h **** #endif
  12:lvgl/src/extra/layouts/grid/../grid/lv_grid.h **** 
  13:lvgl/src/extra/layouts/grid/../grid/lv_grid.h **** /*********************
  14:lvgl/src/extra/layouts/grid/../grid/lv_grid.h ****  *      INCLUDES
  15:lvgl/src/extra/layouts/grid/../grid/lv_grid.h ****  *********************/
  16:lvgl/src/extra/layouts/grid/../grid/lv_grid.h **** #include "../../../core/lv_obj.h"
  17:lvgl/src/extra/layouts/grid/../grid/lv_grid.h **** #if LV_USE_GRID
  18:lvgl/src/extra/layouts/grid/../grid/lv_grid.h **** 
  19:lvgl/src/extra/layouts/grid/../grid/lv_grid.h **** /*********************
  20:lvgl/src/extra/layouts/grid/../grid/lv_grid.h ****  *      DEFINES
  21:lvgl/src/extra/layouts/grid/../grid/lv_grid.h ****  *********************/
  22:lvgl/src/extra/layouts/grid/../grid/lv_grid.h **** /**
  23:lvgl/src/extra/layouts/grid/../grid/lv_grid.h ****  * Can be used track size to make the track fill the free space.
  24:lvgl/src/extra/layouts/grid/../grid/lv_grid.h ****  * @param x how much space to take proportionally to other FR tracks
  25:lvgl/src/extra/layouts/grid/../grid/lv_grid.h ****  * @return a special track size
  26:lvgl/src/extra/layouts/grid/../grid/lv_grid.h ****  */
  27:lvgl/src/extra/layouts/grid/../grid/lv_grid.h **** #define LV_GRID_FR(x)          (LV_COORD_MAX - 100 + x)
  28:lvgl/src/extra/layouts/grid/../grid/lv_grid.h **** 
  29:lvgl/src/extra/layouts/grid/../grid/lv_grid.h **** #define LV_GRID_CONTENT        (LV_COORD_MAX - 101)
  30:lvgl/src/extra/layouts/grid/../grid/lv_grid.h **** LV_EXPORT_CONST_INT(LV_GRID_CONTENT);
  31:lvgl/src/extra/layouts/grid/../grid/lv_grid.h **** 
  32:lvgl/src/extra/layouts/grid/../grid/lv_grid.h **** #define LV_GRID_TEMPLATE_LAST  (LV_COORD_MAX)
  33:lvgl/src/extra/layouts/grid/../grid/lv_grid.h **** LV_EXPORT_CONST_INT(LV_GRID_TEMPLATE_LAST);
  34:lvgl/src/extra/layouts/grid/../grid/lv_grid.h **** 
  35:lvgl/src/extra/layouts/grid/../grid/lv_grid.h **** /**********************
  36:lvgl/src/extra/layouts/grid/../grid/lv_grid.h ****  *      TYPEDEFS
  37:lvgl/src/extra/layouts/grid/../grid/lv_grid.h ****  **********************/
  38:lvgl/src/extra/layouts/grid/../grid/lv_grid.h **** 
  39:lvgl/src/extra/layouts/grid/../grid/lv_grid.h **** /*Can't include lv_obj.h because it includes this header file*/
  40:lvgl/src/extra/layouts/grid/../grid/lv_grid.h **** struct _lv_obj_t;
  41:lvgl/src/extra/layouts/grid/../grid/lv_grid.h **** 
  42:lvgl/src/extra/layouts/grid/../grid/lv_grid.h **** typedef enum {
  43:lvgl/src/extra/layouts/grid/../grid/lv_grid.h ****     LV_GRID_ALIGN_START,
  44:lvgl/src/extra/layouts/grid/../grid/lv_grid.h ****     LV_GRID_ALIGN_CENTER,
  45:lvgl/src/extra/layouts/grid/../grid/lv_grid.h ****     LV_GRID_ALIGN_END,
  46:lvgl/src/extra/layouts/grid/../grid/lv_grid.h ****     LV_GRID_ALIGN_STRETCH,
  47:lvgl/src/extra/layouts/grid/../grid/lv_grid.h ****     LV_GRID_ALIGN_SPACE_EVENLY,
  48:lvgl/src/extra/layouts/grid/../grid/lv_grid.h ****     LV_GRID_ALIGN_SPACE_AROUND,
ARM GAS  /var/folders/21/t9g5rlb91ys800n5npymflf80000gn/T//cce6JCY2.s 			page 24


  49:lvgl/src/extra/layouts/grid/../grid/lv_grid.h ****     LV_GRID_ALIGN_SPACE_BETWEEN,
  50:lvgl/src/extra/layouts/grid/../grid/lv_grid.h **** } lv_grid_align_t;
  51:lvgl/src/extra/layouts/grid/../grid/lv_grid.h **** 
  52:lvgl/src/extra/layouts/grid/../grid/lv_grid.h **** /**********************
  53:lvgl/src/extra/layouts/grid/../grid/lv_grid.h ****  * GLOBAL VARIABLES
  54:lvgl/src/extra/layouts/grid/../grid/lv_grid.h ****  **********************/
  55:lvgl/src/extra/layouts/grid/../grid/lv_grid.h **** 
  56:lvgl/src/extra/layouts/grid/../grid/lv_grid.h **** extern uint16_t LV_LAYOUT_GRID;
  57:lvgl/src/extra/layouts/grid/../grid/lv_grid.h **** extern lv_style_prop_t LV_STYLE_GRID_COLUMN_DSC_ARRAY;
  58:lvgl/src/extra/layouts/grid/../grid/lv_grid.h **** extern lv_style_prop_t LV_STYLE_GRID_COLUMN_ALIGN;
  59:lvgl/src/extra/layouts/grid/../grid/lv_grid.h **** extern lv_style_prop_t LV_STYLE_GRID_ROW_DSC_ARRAY;
  60:lvgl/src/extra/layouts/grid/../grid/lv_grid.h **** extern lv_style_prop_t LV_STYLE_GRID_ROW_ALIGN;
  61:lvgl/src/extra/layouts/grid/../grid/lv_grid.h **** extern lv_style_prop_t LV_STYLE_GRID_CELL_COLUMN_POS;
  62:lvgl/src/extra/layouts/grid/../grid/lv_grid.h **** extern lv_style_prop_t LV_STYLE_GRID_CELL_COLUMN_SPAN;
  63:lvgl/src/extra/layouts/grid/../grid/lv_grid.h **** extern lv_style_prop_t LV_STYLE_GRID_CELL_X_ALIGN;
  64:lvgl/src/extra/layouts/grid/../grid/lv_grid.h **** extern lv_style_prop_t LV_STYLE_GRID_CELL_ROW_POS;
  65:lvgl/src/extra/layouts/grid/../grid/lv_grid.h **** extern lv_style_prop_t LV_STYLE_GRID_CELL_ROW_SPAN;
  66:lvgl/src/extra/layouts/grid/../grid/lv_grid.h **** extern lv_style_prop_t LV_STYLE_GRID_CELL_Y_ALIGN;
  67:lvgl/src/extra/layouts/grid/../grid/lv_grid.h **** 
  68:lvgl/src/extra/layouts/grid/../grid/lv_grid.h **** /**********************
  69:lvgl/src/extra/layouts/grid/../grid/lv_grid.h ****  * GLOBAL PROTOTYPES
  70:lvgl/src/extra/layouts/grid/../grid/lv_grid.h ****  **********************/
  71:lvgl/src/extra/layouts/grid/../grid/lv_grid.h **** 
  72:lvgl/src/extra/layouts/grid/../grid/lv_grid.h **** void lv_grid_init(void);
  73:lvgl/src/extra/layouts/grid/../grid/lv_grid.h **** 
  74:lvgl/src/extra/layouts/grid/../grid/lv_grid.h **** void lv_obj_set_grid_dsc_array(lv_obj_t * obj, const lv_coord_t col_dsc[], const lv_coord_t row_dsc
  75:lvgl/src/extra/layouts/grid/../grid/lv_grid.h **** 
  76:lvgl/src/extra/layouts/grid/../grid/lv_grid.h **** void lv_obj_set_grid_align(lv_obj_t * obj, lv_grid_align_t column_align, lv_grid_align_t row_align)
  77:lvgl/src/extra/layouts/grid/../grid/lv_grid.h **** 
  78:lvgl/src/extra/layouts/grid/../grid/lv_grid.h **** /**
  79:lvgl/src/extra/layouts/grid/../grid/lv_grid.h ****  * Set the cell of an object. The object's parent needs to have grid layout, else nothing will happ
  80:lvgl/src/extra/layouts/grid/../grid/lv_grid.h ****  * @param obj pointer to an object
  81:lvgl/src/extra/layouts/grid/../grid/lv_grid.h ****  * @param column_align the vertical alignment in the cell. `LV_GRID_START/END/CENTER/STRETCH`
  82:lvgl/src/extra/layouts/grid/../grid/lv_grid.h ****  * @param col_pos column ID
  83:lvgl/src/extra/layouts/grid/../grid/lv_grid.h ****  * @param col_span number of columns to take (>= 1)
  84:lvgl/src/extra/layouts/grid/../grid/lv_grid.h ****  * @param row_align the horizontal alignment in the cell. `LV_GRID_START/END/CENTER/STRETCH`
  85:lvgl/src/extra/layouts/grid/../grid/lv_grid.h ****  * @param row_pos row ID
  86:lvgl/src/extra/layouts/grid/../grid/lv_grid.h ****  * @param row_span number of rows to take (>= 1)
  87:lvgl/src/extra/layouts/grid/../grid/lv_grid.h ****  */
  88:lvgl/src/extra/layouts/grid/../grid/lv_grid.h **** void lv_obj_set_grid_cell(lv_obj_t * obj, lv_grid_align_t column_align, uint8_t col_pos, uint8_t co
  89:lvgl/src/extra/layouts/grid/../grid/lv_grid.h ****                           lv_grid_align_t row_align, uint8_t row_pos, uint8_t row_span);
  90:lvgl/src/extra/layouts/grid/../grid/lv_grid.h **** 
  91:lvgl/src/extra/layouts/grid/../grid/lv_grid.h **** /**
  92:lvgl/src/extra/layouts/grid/../grid/lv_grid.h ****  * Just a wrapper to `LV_GRID_FR` for bindings.
  93:lvgl/src/extra/layouts/grid/../grid/lv_grid.h ****  */
  94:lvgl/src/extra/layouts/grid/../grid/lv_grid.h **** static inline lv_coord_t lv_grid_fr(uint8_t x)
  95:lvgl/src/extra/layouts/grid/../grid/lv_grid.h **** {
  96:lvgl/src/extra/layouts/grid/../grid/lv_grid.h ****     return LV_GRID_FR(x);
  97:lvgl/src/extra/layouts/grid/../grid/lv_grid.h **** }
  98:lvgl/src/extra/layouts/grid/../grid/lv_grid.h **** 
  99:lvgl/src/extra/layouts/grid/../grid/lv_grid.h **** void lv_style_set_grid_row_dsc_array(lv_style_t * style, const lv_coord_t value[]);
 100:lvgl/src/extra/layouts/grid/../grid/lv_grid.h **** void lv_style_set_grid_column_dsc_array(lv_style_t * style, const lv_coord_t value[]);
 101:lvgl/src/extra/layouts/grid/../grid/lv_grid.h **** void lv_style_set_grid_row_align(lv_style_t * style, lv_grid_align_t value);
 102:lvgl/src/extra/layouts/grid/../grid/lv_grid.h **** void lv_style_set_grid_column_align(lv_style_t * style, lv_grid_align_t value);
 103:lvgl/src/extra/layouts/grid/../grid/lv_grid.h **** void lv_style_set_grid_cell_column_pos(lv_style_t * style, lv_coord_t value);
 104:lvgl/src/extra/layouts/grid/../grid/lv_grid.h **** void lv_style_set_grid_cell_column_span(lv_style_t * style, lv_coord_t value);
 105:lvgl/src/extra/layouts/grid/../grid/lv_grid.h **** void lv_style_set_grid_cell_row_pos(lv_style_t * style, lv_coord_t value);
ARM GAS  /var/folders/21/t9g5rlb91ys800n5npymflf80000gn/T//cce6JCY2.s 			page 25


 106:lvgl/src/extra/layouts/grid/../grid/lv_grid.h **** void lv_style_set_grid_cell_row_span(lv_style_t * style, lv_coord_t value);
 107:lvgl/src/extra/layouts/grid/../grid/lv_grid.h **** void lv_style_set_grid_cell_x_align(lv_style_t * style, lv_coord_t value);
 108:lvgl/src/extra/layouts/grid/../grid/lv_grid.h **** void lv_style_set_grid_cell_y_align(lv_style_t * style, lv_coord_t value);
 109:lvgl/src/extra/layouts/grid/../grid/lv_grid.h **** 
 110:lvgl/src/extra/layouts/grid/../grid/lv_grid.h **** void lv_obj_set_style_grid_row_dsc_array(lv_obj_t * obj, const lv_coord_t value[], lv_style_selecto
 111:lvgl/src/extra/layouts/grid/../grid/lv_grid.h **** void lv_obj_set_style_grid_column_dsc_array(lv_obj_t * obj, const lv_coord_t value[], lv_style_sele
 112:lvgl/src/extra/layouts/grid/../grid/lv_grid.h **** void lv_obj_set_style_grid_row_align(lv_obj_t * obj, lv_grid_align_t value, lv_style_selector_t sel
 113:lvgl/src/extra/layouts/grid/../grid/lv_grid.h **** void lv_obj_set_style_grid_column_align(lv_obj_t * obj, lv_grid_align_t value, lv_style_selector_t 
 114:lvgl/src/extra/layouts/grid/../grid/lv_grid.h **** void lv_obj_set_style_grid_cell_column_pos(lv_obj_t * obj, lv_coord_t value, lv_style_selector_t se
 115:lvgl/src/extra/layouts/grid/../grid/lv_grid.h **** void lv_obj_set_style_grid_cell_column_span(lv_obj_t * obj, lv_coord_t value, lv_style_selector_t s
 116:lvgl/src/extra/layouts/grid/../grid/lv_grid.h **** void lv_obj_set_style_grid_cell_row_pos(lv_obj_t * obj, lv_coord_t value, lv_style_selector_t selec
 117:lvgl/src/extra/layouts/grid/../grid/lv_grid.h **** void lv_obj_set_style_grid_cell_row_span(lv_obj_t * obj, lv_coord_t value, lv_style_selector_t sele
 118:lvgl/src/extra/layouts/grid/../grid/lv_grid.h **** void lv_obj_set_style_grid_cell_x_align(lv_obj_t * obj, lv_coord_t value, lv_style_selector_t selec
 119:lvgl/src/extra/layouts/grid/../grid/lv_grid.h **** void lv_obj_set_style_grid_cell_y_align(lv_obj_t * obj, lv_coord_t value, lv_style_selector_t selec
 120:lvgl/src/extra/layouts/grid/../grid/lv_grid.h **** 
 121:lvgl/src/extra/layouts/grid/../grid/lv_grid.h **** static inline const lv_coord_t * lv_obj_get_style_grid_row_dsc_array(const lv_obj_t * obj, uint32_t
 122:lvgl/src/extra/layouts/grid/../grid/lv_grid.h **** {
 123:lvgl/src/extra/layouts/grid/../grid/lv_grid.h ****     lv_style_value_t v = lv_obj_get_style_prop(obj, part, LV_STYLE_GRID_ROW_DSC_ARRAY);
 124:lvgl/src/extra/layouts/grid/../grid/lv_grid.h ****     return (const lv_coord_t *)v.ptr;
 125:lvgl/src/extra/layouts/grid/../grid/lv_grid.h **** }
 126:lvgl/src/extra/layouts/grid/../grid/lv_grid.h **** 
 127:lvgl/src/extra/layouts/grid/../grid/lv_grid.h **** static inline const lv_coord_t * lv_obj_get_style_grid_column_dsc_array(const lv_obj_t * obj, uint3
 410              		.loc 2 127 34 view .LVU133
 411              	.LBB73:
 128:lvgl/src/extra/layouts/grid/../grid/lv_grid.h **** {
 129:lvgl/src/extra/layouts/grid/../grid/lv_grid.h ****     lv_style_value_t v = lv_obj_get_style_prop(obj, part, LV_STYLE_GRID_COLUMN_DSC_ARRAY);
 412              		.loc 2 129 5 view .LVU134
 413              		.loc 2 129 26 is_stmt 0 view .LVU135
 414 0002 034B     		ldr	r3, .L29
 415 0004 1A88     		ldrh	r2, [r3]
 416 0006 0021     		movs	r1, #0
 417 0008 FFF7FEFF 		bl	lv_obj_get_style_prop
 418              	.LVL51:
 130:lvgl/src/extra/layouts/grid/../grid/lv_grid.h ****     return (const lv_coord_t *)v.ptr;
 419              		.loc 2 130 5 is_stmt 1 view .LVU136
 420              		.loc 2 130 5 is_stmt 0 view .LVU137
 421              	.LBE73:
 422              	.LBE72:
  63:lvgl/src/extra/layouts/grid/lv_grid.c **** static inline const lv_coord_t * get_row_dsc(lv_obj_t * obj)
 423              		.loc 1 63 1 view .LVU138
 424 000c 08BD     		pop	{r3, pc}
 425              	.L30:
 426 000e 00BF     		.align	2
 427              	.L29:
 428 0010 00000000 		.word	LV_STYLE_GRID_COLUMN_DSC_ARRAY
 429              		.cfi_endproc
 430              	.LFE177:
 432              		.section	.text.get_row_dsc,"ax",%progbits
 433              		.align	1
 434              		.syntax unified
 435              		.thumb
 436              		.thumb_func
 438              	get_row_dsc:
 439              	.LVL52:
 440              	.LFB178:
  65:lvgl/src/extra/layouts/grid/lv_grid.c ****     return lv_obj_get_style_grid_row_dsc_array(obj, 0);
 441              		.loc 1 65 1 is_stmt 1 view -0
ARM GAS  /var/folders/21/t9g5rlb91ys800n5npymflf80000gn/T//cce6JCY2.s 			page 26


 442              		.cfi_startproc
 443              		@ args = 0, pretend = 0, frame = 0
 444              		@ frame_needed = 0, uses_anonymous_args = 0
  65:lvgl/src/extra/layouts/grid/lv_grid.c ****     return lv_obj_get_style_grid_row_dsc_array(obj, 0);
 445              		.loc 1 65 1 is_stmt 0 view .LVU140
 446 0000 08B5     		push	{r3, lr}
 447              	.LCFI2:
 448              		.cfi_def_cfa_offset 8
 449              		.cfi_offset 3, -8
 450              		.cfi_offset 14, -4
  66:lvgl/src/extra/layouts/grid/lv_grid.c **** }
 451              		.loc 1 66 5 is_stmt 1 view .LVU141
 452              	.LVL53:
 453              	.LBB74:
 454              	.LBI74:
 121:lvgl/src/extra/layouts/grid/../grid/lv_grid.h **** {
 455              		.loc 2 121 34 view .LVU142
 456              	.LBB75:
 123:lvgl/src/extra/layouts/grid/../grid/lv_grid.h ****     return (const lv_coord_t *)v.ptr;
 457              		.loc 2 123 5 view .LVU143
 123:lvgl/src/extra/layouts/grid/../grid/lv_grid.h ****     return (const lv_coord_t *)v.ptr;
 458              		.loc 2 123 26 is_stmt 0 view .LVU144
 459 0002 034B     		ldr	r3, .L33
 460 0004 1A88     		ldrh	r2, [r3]
 461 0006 0021     		movs	r1, #0
 462 0008 FFF7FEFF 		bl	lv_obj_get_style_prop
 463              	.LVL54:
 124:lvgl/src/extra/layouts/grid/../grid/lv_grid.h **** }
 464              		.loc 2 124 5 is_stmt 1 view .LVU145
 124:lvgl/src/extra/layouts/grid/../grid/lv_grid.h **** }
 465              		.loc 2 124 5 is_stmt 0 view .LVU146
 466              	.LBE75:
 467              	.LBE74:
  67:lvgl/src/extra/layouts/grid/lv_grid.c **** static inline uint8_t get_col_pos(lv_obj_t * obj)
 468              		.loc 1 67 1 view .LVU147
 469 000c 08BD     		pop	{r3, pc}
 470              	.L34:
 471 000e 00BF     		.align	2
 472              	.L33:
 473 0010 00000000 		.word	LV_STYLE_GRID_ROW_DSC_ARRAY
 474              		.cfi_endproc
 475              	.LFE178:
 477              		.section	.text.get_row_span,"ax",%progbits
 478              		.align	1
 479              		.syntax unified
 480              		.thumb
 481              		.thumb_func
 483              	get_row_span:
 484              	.LVL55:
 485              	.LFB182:
  81:lvgl/src/extra/layouts/grid/lv_grid.c ****     return lv_obj_get_style_grid_cell_row_span(obj, 0);
 486              		.loc 1 81 1 is_stmt 1 view -0
 487              		.cfi_startproc
 488              		@ args = 0, pretend = 0, frame = 0
 489              		@ frame_needed = 0, uses_anonymous_args = 0
  81:lvgl/src/extra/layouts/grid/lv_grid.c ****     return lv_obj_get_style_grid_cell_row_span(obj, 0);
 490              		.loc 1 81 1 is_stmt 0 view .LVU149
ARM GAS  /var/folders/21/t9g5rlb91ys800n5npymflf80000gn/T//cce6JCY2.s 			page 27


 491 0000 08B5     		push	{r3, lr}
 492              	.LCFI3:
 493              		.cfi_def_cfa_offset 8
 494              		.cfi_offset 3, -8
 495              		.cfi_offset 14, -4
  82:lvgl/src/extra/layouts/grid/lv_grid.c **** }
 496              		.loc 1 82 5 is_stmt 1 view .LVU150
 497              	.LVL56:
 498              	.LBB76:
 499              	.LBI76:
 131:lvgl/src/extra/layouts/grid/../grid/lv_grid.h **** }
 132:lvgl/src/extra/layouts/grid/../grid/lv_grid.h **** 
 133:lvgl/src/extra/layouts/grid/../grid/lv_grid.h **** static inline lv_grid_align_t lv_obj_get_style_grid_row_align(const lv_obj_t * obj, uint32_t part)
 134:lvgl/src/extra/layouts/grid/../grid/lv_grid.h **** {
 135:lvgl/src/extra/layouts/grid/../grid/lv_grid.h ****     lv_style_value_t v = lv_obj_get_style_prop(obj, part, LV_STYLE_GRID_ROW_ALIGN);
 136:lvgl/src/extra/layouts/grid/../grid/lv_grid.h ****     return (lv_grid_align_t)v.num;
 137:lvgl/src/extra/layouts/grid/../grid/lv_grid.h **** }
 138:lvgl/src/extra/layouts/grid/../grid/lv_grid.h **** 
 139:lvgl/src/extra/layouts/grid/../grid/lv_grid.h **** static inline lv_grid_align_t lv_obj_get_style_grid_column_align(const lv_obj_t * obj, uint32_t par
 140:lvgl/src/extra/layouts/grid/../grid/lv_grid.h **** {
 141:lvgl/src/extra/layouts/grid/../grid/lv_grid.h ****     lv_style_value_t v = lv_obj_get_style_prop(obj, part, LV_STYLE_GRID_COLUMN_ALIGN);
 142:lvgl/src/extra/layouts/grid/../grid/lv_grid.h ****     return (lv_grid_align_t)v.num;
 143:lvgl/src/extra/layouts/grid/../grid/lv_grid.h **** }
 144:lvgl/src/extra/layouts/grid/../grid/lv_grid.h **** 
 145:lvgl/src/extra/layouts/grid/../grid/lv_grid.h **** static inline lv_coord_t lv_obj_get_style_grid_cell_column_pos(const lv_obj_t * obj, uint32_t part)
 146:lvgl/src/extra/layouts/grid/../grid/lv_grid.h **** {
 147:lvgl/src/extra/layouts/grid/../grid/lv_grid.h ****     lv_style_value_t v = lv_obj_get_style_prop(obj, part, LV_STYLE_GRID_CELL_COLUMN_POS);
 148:lvgl/src/extra/layouts/grid/../grid/lv_grid.h ****     return (lv_coord_t)v.num;
 149:lvgl/src/extra/layouts/grid/../grid/lv_grid.h **** }
 150:lvgl/src/extra/layouts/grid/../grid/lv_grid.h **** 
 151:lvgl/src/extra/layouts/grid/../grid/lv_grid.h **** static inline lv_coord_t lv_obj_get_style_grid_cell_column_span(const lv_obj_t * obj, uint32_t part
 152:lvgl/src/extra/layouts/grid/../grid/lv_grid.h **** {
 153:lvgl/src/extra/layouts/grid/../grid/lv_grid.h ****     lv_style_value_t v = lv_obj_get_style_prop(obj, part, LV_STYLE_GRID_CELL_COLUMN_SPAN);
 154:lvgl/src/extra/layouts/grid/../grid/lv_grid.h ****     return (lv_coord_t)v.num;
 155:lvgl/src/extra/layouts/grid/../grid/lv_grid.h **** }
 156:lvgl/src/extra/layouts/grid/../grid/lv_grid.h **** 
 157:lvgl/src/extra/layouts/grid/../grid/lv_grid.h **** static inline lv_coord_t lv_obj_get_style_grid_cell_row_pos(const lv_obj_t * obj, uint32_t part)
 158:lvgl/src/extra/layouts/grid/../grid/lv_grid.h **** {
 159:lvgl/src/extra/layouts/grid/../grid/lv_grid.h ****     lv_style_value_t v = lv_obj_get_style_prop(obj, part, LV_STYLE_GRID_CELL_ROW_POS);
 160:lvgl/src/extra/layouts/grid/../grid/lv_grid.h ****     return (lv_coord_t)v.num;
 161:lvgl/src/extra/layouts/grid/../grid/lv_grid.h **** }
 162:lvgl/src/extra/layouts/grid/../grid/lv_grid.h **** 
 163:lvgl/src/extra/layouts/grid/../grid/lv_grid.h **** static inline lv_coord_t lv_obj_get_style_grid_cell_row_span(const lv_obj_t * obj, uint32_t part)
 500              		.loc 2 163 26 view .LVU151
 501              	.LBB77:
 164:lvgl/src/extra/layouts/grid/../grid/lv_grid.h **** {
 165:lvgl/src/extra/layouts/grid/../grid/lv_grid.h ****     lv_style_value_t v = lv_obj_get_style_prop(obj, part, LV_STYLE_GRID_CELL_ROW_SPAN);
 502              		.loc 2 165 5 view .LVU152
 503              		.loc 2 165 26 is_stmt 0 view .LVU153
 504 0002 034B     		ldr	r3, .L37
 505 0004 1A88     		ldrh	r2, [r3]
 506 0006 0021     		movs	r1, #0
 507 0008 FFF7FEFF 		bl	lv_obj_get_style_prop
 508              	.LVL57:
 166:lvgl/src/extra/layouts/grid/../grid/lv_grid.h ****     return (lv_coord_t)v.num;
 509              		.loc 2 166 5 is_stmt 1 view .LVU154
 510              		.loc 2 166 5 is_stmt 0 view .LVU155
ARM GAS  /var/folders/21/t9g5rlb91ys800n5npymflf80000gn/T//cce6JCY2.s 			page 28


 511              	.LBE77:
 512              	.LBE76:
  83:lvgl/src/extra/layouts/grid/lv_grid.c **** static inline uint8_t get_cell_col_align(lv_obj_t * obj)
 513              		.loc 1 83 1 view .LVU156
 514 000c C0B2     		uxtb	r0, r0
 515 000e 08BD     		pop	{r3, pc}
 516              	.L38:
 517              		.align	2
 518              	.L37:
 519 0010 00000000 		.word	LV_STYLE_GRID_CELL_ROW_SPAN
 520              		.cfi_endproc
 521              	.LFE182:
 523              		.section	.text.get_row_pos,"ax",%progbits
 524              		.align	1
 525              		.syntax unified
 526              		.thumb
 527              		.thumb_func
 529              	get_row_pos:
 530              	.LVL58:
 531              	.LFB180:
  73:lvgl/src/extra/layouts/grid/lv_grid.c ****     return lv_obj_get_style_grid_cell_row_pos(obj, 0);
 532              		.loc 1 73 1 is_stmt 1 view -0
 533              		.cfi_startproc
 534              		@ args = 0, pretend = 0, frame = 0
 535              		@ frame_needed = 0, uses_anonymous_args = 0
  73:lvgl/src/extra/layouts/grid/lv_grid.c ****     return lv_obj_get_style_grid_cell_row_pos(obj, 0);
 536              		.loc 1 73 1 is_stmt 0 view .LVU158
 537 0000 08B5     		push	{r3, lr}
 538              	.LCFI4:
 539              		.cfi_def_cfa_offset 8
 540              		.cfi_offset 3, -8
 541              		.cfi_offset 14, -4
  74:lvgl/src/extra/layouts/grid/lv_grid.c **** }
 542              		.loc 1 74 5 is_stmt 1 view .LVU159
 543              	.LVL59:
 544              	.LBB78:
 545              	.LBI78:
 157:lvgl/src/extra/layouts/grid/../grid/lv_grid.h **** {
 546              		.loc 2 157 26 view .LVU160
 547              	.LBB79:
 159:lvgl/src/extra/layouts/grid/../grid/lv_grid.h ****     return (lv_coord_t)v.num;
 548              		.loc 2 159 5 view .LVU161
 159:lvgl/src/extra/layouts/grid/../grid/lv_grid.h ****     return (lv_coord_t)v.num;
 549              		.loc 2 159 26 is_stmt 0 view .LVU162
 550 0002 034B     		ldr	r3, .L41
 551 0004 1A88     		ldrh	r2, [r3]
 552 0006 0021     		movs	r1, #0
 553 0008 FFF7FEFF 		bl	lv_obj_get_style_prop
 554              	.LVL60:
 160:lvgl/src/extra/layouts/grid/../grid/lv_grid.h **** }
 555              		.loc 2 160 5 is_stmt 1 view .LVU163
 160:lvgl/src/extra/layouts/grid/../grid/lv_grid.h **** }
 556              		.loc 2 160 5 is_stmt 0 view .LVU164
 557              	.LBE79:
 558              	.LBE78:
  75:lvgl/src/extra/layouts/grid/lv_grid.c **** static inline uint8_t get_col_span(lv_obj_t * obj)
 559              		.loc 1 75 1 view .LVU165
ARM GAS  /var/folders/21/t9g5rlb91ys800n5npymflf80000gn/T//cce6JCY2.s 			page 29


 560 000c C0B2     		uxtb	r0, r0
 561 000e 08BD     		pop	{r3, pc}
 562              	.L42:
 563              		.align	2
 564              	.L41:
 565 0010 00000000 		.word	LV_STYLE_GRID_CELL_ROW_POS
 566              		.cfi_endproc
 567              	.LFE180:
 569              		.section	.text.get_col_span,"ax",%progbits
 570              		.align	1
 571              		.syntax unified
 572              		.thumb
 573              		.thumb_func
 575              	get_col_span:
 576              	.LVL61:
 577              	.LFB181:
  77:lvgl/src/extra/layouts/grid/lv_grid.c ****     return lv_obj_get_style_grid_cell_column_span(obj, 0);
 578              		.loc 1 77 1 is_stmt 1 view -0
 579              		.cfi_startproc
 580              		@ args = 0, pretend = 0, frame = 0
 581              		@ frame_needed = 0, uses_anonymous_args = 0
  77:lvgl/src/extra/layouts/grid/lv_grid.c ****     return lv_obj_get_style_grid_cell_column_span(obj, 0);
 582              		.loc 1 77 1 is_stmt 0 view .LVU167
 583 0000 08B5     		push	{r3, lr}
 584              	.LCFI5:
 585              		.cfi_def_cfa_offset 8
 586              		.cfi_offset 3, -8
 587              		.cfi_offset 14, -4
  78:lvgl/src/extra/layouts/grid/lv_grid.c **** }
 588              		.loc 1 78 5 is_stmt 1 view .LVU168
 589              	.LVL62:
 590              	.LBB80:
 591              	.LBI80:
 151:lvgl/src/extra/layouts/grid/../grid/lv_grid.h **** {
 592              		.loc 2 151 26 view .LVU169
 593              	.LBB81:
 153:lvgl/src/extra/layouts/grid/../grid/lv_grid.h ****     return (lv_coord_t)v.num;
 594              		.loc 2 153 5 view .LVU170
 153:lvgl/src/extra/layouts/grid/../grid/lv_grid.h ****     return (lv_coord_t)v.num;
 595              		.loc 2 153 26 is_stmt 0 view .LVU171
 596 0002 034B     		ldr	r3, .L45
 597 0004 1A88     		ldrh	r2, [r3]
 598 0006 0021     		movs	r1, #0
 599 0008 FFF7FEFF 		bl	lv_obj_get_style_prop
 600              	.LVL63:
 154:lvgl/src/extra/layouts/grid/../grid/lv_grid.h **** }
 601              		.loc 2 154 5 is_stmt 1 view .LVU172
 154:lvgl/src/extra/layouts/grid/../grid/lv_grid.h **** }
 602              		.loc 2 154 5 is_stmt 0 view .LVU173
 603              	.LBE81:
 604              	.LBE80:
  79:lvgl/src/extra/layouts/grid/lv_grid.c **** static inline uint8_t get_row_span(lv_obj_t * obj)
 605              		.loc 1 79 1 view .LVU174
 606 000c C0B2     		uxtb	r0, r0
 607 000e 08BD     		pop	{r3, pc}
 608              	.L46:
 609              		.align	2
ARM GAS  /var/folders/21/t9g5rlb91ys800n5npymflf80000gn/T//cce6JCY2.s 			page 30


 610              	.L45:
 611 0010 00000000 		.word	LV_STYLE_GRID_CELL_COLUMN_SPAN
 612              		.cfi_endproc
 613              	.LFE181:
 615              		.section	.text.get_col_pos,"ax",%progbits
 616              		.align	1
 617              		.syntax unified
 618              		.thumb
 619              		.thumb_func
 621              	get_col_pos:
 622              	.LVL64:
 623              	.LFB179:
  69:lvgl/src/extra/layouts/grid/lv_grid.c ****     return lv_obj_get_style_grid_cell_column_pos(obj, 0);
 624              		.loc 1 69 1 is_stmt 1 view -0
 625              		.cfi_startproc
 626              		@ args = 0, pretend = 0, frame = 0
 627              		@ frame_needed = 0, uses_anonymous_args = 0
  69:lvgl/src/extra/layouts/grid/lv_grid.c ****     return lv_obj_get_style_grid_cell_column_pos(obj, 0);
 628              		.loc 1 69 1 is_stmt 0 view .LVU176
 629 0000 08B5     		push	{r3, lr}
 630              	.LCFI6:
 631              		.cfi_def_cfa_offset 8
 632              		.cfi_offset 3, -8
 633              		.cfi_offset 14, -4
  70:lvgl/src/extra/layouts/grid/lv_grid.c **** }
 634              		.loc 1 70 5 is_stmt 1 view .LVU177
 635              	.LVL65:
 636              	.LBB82:
 637              	.LBI82:
 145:lvgl/src/extra/layouts/grid/../grid/lv_grid.h **** {
 638              		.loc 2 145 26 view .LVU178
 639              	.LBB83:
 147:lvgl/src/extra/layouts/grid/../grid/lv_grid.h ****     return (lv_coord_t)v.num;
 640              		.loc 2 147 5 view .LVU179
 147:lvgl/src/extra/layouts/grid/../grid/lv_grid.h ****     return (lv_coord_t)v.num;
 641              		.loc 2 147 26 is_stmt 0 view .LVU180
 642 0002 034B     		ldr	r3, .L49
 643 0004 1A88     		ldrh	r2, [r3]
 644 0006 0021     		movs	r1, #0
 645 0008 FFF7FEFF 		bl	lv_obj_get_style_prop
 646              	.LVL66:
 148:lvgl/src/extra/layouts/grid/../grid/lv_grid.h **** }
 647              		.loc 2 148 5 is_stmt 1 view .LVU181
 148:lvgl/src/extra/layouts/grid/../grid/lv_grid.h **** }
 648              		.loc 2 148 5 is_stmt 0 view .LVU182
 649              	.LBE83:
 650              	.LBE82:
  71:lvgl/src/extra/layouts/grid/lv_grid.c **** static inline uint8_t get_row_pos(lv_obj_t * obj)
 651              		.loc 1 71 1 view .LVU183
 652 000c C0B2     		uxtb	r0, r0
 653 000e 08BD     		pop	{r3, pc}
 654              	.L50:
 655              		.align	2
 656              	.L49:
 657 0010 00000000 		.word	LV_STYLE_GRID_CELL_COLUMN_POS
 658              		.cfi_endproc
 659              	.LFE179:
ARM GAS  /var/folders/21/t9g5rlb91ys800n5npymflf80000gn/T//cce6JCY2.s 			page 31


 661              		.section	.text.get_grid_col_align,"ax",%progbits
 662              		.align	1
 663              		.syntax unified
 664              		.thumb
 665              		.thumb_func
 667              	get_grid_col_align:
 668              	.LVL67:
 669              	.LFB185:
  93:lvgl/src/extra/layouts/grid/lv_grid.c ****     return lv_obj_get_style_grid_column_align(obj, 0);
 670              		.loc 1 93 1 is_stmt 1 view -0
 671              		.cfi_startproc
 672              		@ args = 0, pretend = 0, frame = 0
 673              		@ frame_needed = 0, uses_anonymous_args = 0
  93:lvgl/src/extra/layouts/grid/lv_grid.c ****     return lv_obj_get_style_grid_column_align(obj, 0);
 674              		.loc 1 93 1 is_stmt 0 view .LVU185
 675 0000 08B5     		push	{r3, lr}
 676              	.LCFI7:
 677              		.cfi_def_cfa_offset 8
 678              		.cfi_offset 3, -8
 679              		.cfi_offset 14, -4
  94:lvgl/src/extra/layouts/grid/lv_grid.c **** }
 680              		.loc 1 94 5 is_stmt 1 view .LVU186
 681              	.LVL68:
 682              	.LBB84:
 683              	.LBI84:
 139:lvgl/src/extra/layouts/grid/../grid/lv_grid.h **** {
 684              		.loc 2 139 31 view .LVU187
 685              	.LBB85:
 141:lvgl/src/extra/layouts/grid/../grid/lv_grid.h ****     return (lv_grid_align_t)v.num;
 686              		.loc 2 141 5 view .LVU188
 141:lvgl/src/extra/layouts/grid/../grid/lv_grid.h ****     return (lv_grid_align_t)v.num;
 687              		.loc 2 141 26 is_stmt 0 view .LVU189
 688 0002 034B     		ldr	r3, .L53
 689 0004 1A88     		ldrh	r2, [r3]
 690 0006 0021     		movs	r1, #0
 691 0008 FFF7FEFF 		bl	lv_obj_get_style_prop
 692              	.LVL69:
 142:lvgl/src/extra/layouts/grid/../grid/lv_grid.h **** }
 693              		.loc 2 142 5 is_stmt 1 view .LVU190
 142:lvgl/src/extra/layouts/grid/../grid/lv_grid.h **** }
 694              		.loc 2 142 5 is_stmt 0 view .LVU191
 695              	.LBE85:
 696              	.LBE84:
  95:lvgl/src/extra/layouts/grid/lv_grid.c **** static inline uint8_t get_grid_row_align(lv_obj_t * obj)
 697              		.loc 1 95 1 view .LVU192
 698 000c C0B2     		uxtb	r0, r0
 699 000e 08BD     		pop	{r3, pc}
 700              	.L54:
 701              		.align	2
 702              	.L53:
 703 0010 00000000 		.word	LV_STYLE_GRID_COLUMN_ALIGN
 704              		.cfi_endproc
 705              	.LFE185:
 707              		.section	.text.get_grid_row_align,"ax",%progbits
 708              		.align	1
 709              		.syntax unified
 710              		.thumb
ARM GAS  /var/folders/21/t9g5rlb91ys800n5npymflf80000gn/T//cce6JCY2.s 			page 32


 711              		.thumb_func
 713              	get_grid_row_align:
 714              	.LVL70:
 715              	.LFB186:
  97:lvgl/src/extra/layouts/grid/lv_grid.c ****     return lv_obj_get_style_grid_row_align(obj, 0);
 716              		.loc 1 97 1 is_stmt 1 view -0
 717              		.cfi_startproc
 718              		@ args = 0, pretend = 0, frame = 0
 719              		@ frame_needed = 0, uses_anonymous_args = 0
  97:lvgl/src/extra/layouts/grid/lv_grid.c ****     return lv_obj_get_style_grid_row_align(obj, 0);
 720              		.loc 1 97 1 is_stmt 0 view .LVU194
 721 0000 08B5     		push	{r3, lr}
 722              	.LCFI8:
 723              		.cfi_def_cfa_offset 8
 724              		.cfi_offset 3, -8
 725              		.cfi_offset 14, -4
  98:lvgl/src/extra/layouts/grid/lv_grid.c **** }
 726              		.loc 1 98 5 is_stmt 1 view .LVU195
 727              	.LVL71:
 728              	.LBB86:
 729              	.LBI86:
 133:lvgl/src/extra/layouts/grid/../grid/lv_grid.h **** {
 730              		.loc 2 133 31 view .LVU196
 731              	.LBB87:
 135:lvgl/src/extra/layouts/grid/../grid/lv_grid.h ****     return (lv_grid_align_t)v.num;
 732              		.loc 2 135 5 view .LVU197
 135:lvgl/src/extra/layouts/grid/../grid/lv_grid.h ****     return (lv_grid_align_t)v.num;
 733              		.loc 2 135 26 is_stmt 0 view .LVU198
 734 0002 034B     		ldr	r3, .L57
 735 0004 1A88     		ldrh	r2, [r3]
 736 0006 0021     		movs	r1, #0
 737 0008 FFF7FEFF 		bl	lv_obj_get_style_prop
 738              	.LVL72:
 136:lvgl/src/extra/layouts/grid/../grid/lv_grid.h **** }
 739              		.loc 2 136 5 is_stmt 1 view .LVU199
 136:lvgl/src/extra/layouts/grid/../grid/lv_grid.h **** }
 740              		.loc 2 136 5 is_stmt 0 view .LVU200
 741              	.LBE87:
 742              	.LBE86:
  99:lvgl/src/extra/layouts/grid/lv_grid.c **** 
 743              		.loc 1 99 1 view .LVU201
 744 000c C0B2     		uxtb	r0, r0
 745 000e 08BD     		pop	{r3, pc}
 746              	.L58:
 747              		.align	2
 748              	.L57:
 749 0010 00000000 		.word	LV_STYLE_GRID_ROW_ALIGN
 750              		.cfi_endproc
 751              	.LFE186:
 753              		.section	.text.get_cell_col_align,"ax",%progbits
 754              		.align	1
 755              		.syntax unified
 756              		.thumb
 757              		.thumb_func
 759              	get_cell_col_align:
 760              	.LVL73:
 761              	.LFB183:
ARM GAS  /var/folders/21/t9g5rlb91ys800n5npymflf80000gn/T//cce6JCY2.s 			page 33


  85:lvgl/src/extra/layouts/grid/lv_grid.c ****     return lv_obj_get_style_grid_cell_x_align(obj, 0);
 762              		.loc 1 85 1 is_stmt 1 view -0
 763              		.cfi_startproc
 764              		@ args = 0, pretend = 0, frame = 0
 765              		@ frame_needed = 0, uses_anonymous_args = 0
  85:lvgl/src/extra/layouts/grid/lv_grid.c ****     return lv_obj_get_style_grid_cell_x_align(obj, 0);
 766              		.loc 1 85 1 is_stmt 0 view .LVU203
 767 0000 08B5     		push	{r3, lr}
 768              	.LCFI9:
 769              		.cfi_def_cfa_offset 8
 770              		.cfi_offset 3, -8
 771              		.cfi_offset 14, -4
  86:lvgl/src/extra/layouts/grid/lv_grid.c **** }
 772              		.loc 1 86 5 is_stmt 1 view .LVU204
 773              	.LVL74:
 774              	.LBB88:
 775              	.LBI88:
 167:lvgl/src/extra/layouts/grid/../grid/lv_grid.h **** }
 168:lvgl/src/extra/layouts/grid/../grid/lv_grid.h **** 
 169:lvgl/src/extra/layouts/grid/../grid/lv_grid.h **** static inline lv_coord_t lv_obj_get_style_grid_cell_x_align(const lv_obj_t * obj, uint32_t part)
 776              		.loc 2 169 26 view .LVU205
 777              	.LBB89:
 170:lvgl/src/extra/layouts/grid/../grid/lv_grid.h **** {
 171:lvgl/src/extra/layouts/grid/../grid/lv_grid.h ****     lv_style_value_t v = lv_obj_get_style_prop(obj, part, LV_STYLE_GRID_CELL_X_ALIGN);
 778              		.loc 2 171 5 view .LVU206
 779              		.loc 2 171 26 is_stmt 0 view .LVU207
 780 0002 034B     		ldr	r3, .L61
 781 0004 1A88     		ldrh	r2, [r3]
 782 0006 0021     		movs	r1, #0
 783 0008 FFF7FEFF 		bl	lv_obj_get_style_prop
 784              	.LVL75:
 172:lvgl/src/extra/layouts/grid/../grid/lv_grid.h ****     return (lv_coord_t)v.num;
 785              		.loc 2 172 5 is_stmt 1 view .LVU208
 786              		.loc 2 172 5 is_stmt 0 view .LVU209
 787              	.LBE89:
 788              	.LBE88:
  87:lvgl/src/extra/layouts/grid/lv_grid.c **** static inline uint8_t get_cell_row_align(lv_obj_t * obj)
 789              		.loc 1 87 1 view .LVU210
 790 000c C0B2     		uxtb	r0, r0
 791 000e 08BD     		pop	{r3, pc}
 792              	.L62:
 793              		.align	2
 794              	.L61:
 795 0010 00000000 		.word	LV_STYLE_GRID_CELL_X_ALIGN
 796              		.cfi_endproc
 797              	.LFE183:
 799              		.section	.text.get_cell_row_align,"ax",%progbits
 800              		.align	1
 801              		.syntax unified
 802              		.thumb
 803              		.thumb_func
 805              	get_cell_row_align:
 806              	.LVL76:
 807              	.LFB184:
  89:lvgl/src/extra/layouts/grid/lv_grid.c ****     return lv_obj_get_style_grid_cell_y_align(obj, 0);
 808              		.loc 1 89 1 is_stmt 1 view -0
 809              		.cfi_startproc
ARM GAS  /var/folders/21/t9g5rlb91ys800n5npymflf80000gn/T//cce6JCY2.s 			page 34


 810              		@ args = 0, pretend = 0, frame = 0
 811              		@ frame_needed = 0, uses_anonymous_args = 0
  89:lvgl/src/extra/layouts/grid/lv_grid.c ****     return lv_obj_get_style_grid_cell_y_align(obj, 0);
 812              		.loc 1 89 1 is_stmt 0 view .LVU212
 813 0000 08B5     		push	{r3, lr}
 814              	.LCFI10:
 815              		.cfi_def_cfa_offset 8
 816              		.cfi_offset 3, -8
 817              		.cfi_offset 14, -4
  90:lvgl/src/extra/layouts/grid/lv_grid.c **** }
 818              		.loc 1 90 5 is_stmt 1 view .LVU213
 819              	.LVL77:
 820              	.LBB90:
 821              	.LBI90:
 173:lvgl/src/extra/layouts/grid/../grid/lv_grid.h **** }
 174:lvgl/src/extra/layouts/grid/../grid/lv_grid.h **** 
 175:lvgl/src/extra/layouts/grid/../grid/lv_grid.h **** static inline lv_coord_t lv_obj_get_style_grid_cell_y_align(const lv_obj_t * obj, uint32_t part)
 822              		.loc 2 175 26 view .LVU214
 823              	.LBB91:
 176:lvgl/src/extra/layouts/grid/../grid/lv_grid.h **** {
 177:lvgl/src/extra/layouts/grid/../grid/lv_grid.h ****     lv_style_value_t v = lv_obj_get_style_prop(obj, part, LV_STYLE_GRID_CELL_Y_ALIGN);
 824              		.loc 2 177 5 view .LVU215
 825              		.loc 2 177 26 is_stmt 0 view .LVU216
 826 0002 034B     		ldr	r3, .L65
 827 0004 1A88     		ldrh	r2, [r3]
 828 0006 0021     		movs	r1, #0
 829 0008 FFF7FEFF 		bl	lv_obj_get_style_prop
 830              	.LVL78:
 178:lvgl/src/extra/layouts/grid/../grid/lv_grid.h ****     return (lv_coord_t)v.num;
 831              		.loc 2 178 5 is_stmt 1 view .LVU217
 832              		.loc 2 178 5 is_stmt 0 view .LVU218
 833              	.LBE91:
 834              	.LBE90:
  91:lvgl/src/extra/layouts/grid/lv_grid.c **** static inline uint8_t get_grid_col_align(lv_obj_t * obj)
 835              		.loc 1 91 1 view .LVU219
 836 000c C0B2     		uxtb	r0, r0
 837 000e 08BD     		pop	{r3, pc}
 838              	.L66:
 839              		.align	2
 840              	.L65:
 841 0010 00000000 		.word	LV_STYLE_GRID_CELL_Y_ALIGN
 842              		.cfi_endproc
 843              	.LFE184:
 845              		.section	.text.calc_rows,"ax",%progbits
 846              		.align	1
 847              		.syntax unified
 848              		.thumb
 849              		.thumb_func
 851              	calc_rows:
 852              	.LVL79:
 853              	.LFB215:
 499:lvgl/src/extra/layouts/grid/lv_grid.c ****     uint32_t i;
 854              		.loc 1 499 1 is_stmt 1 view -0
 855              		.cfi_startproc
 856              		@ args = 0, pretend = 0, frame = 0
 857              		@ frame_needed = 0, uses_anonymous_args = 0
 499:lvgl/src/extra/layouts/grid/lv_grid.c ****     uint32_t i;
ARM GAS  /var/folders/21/t9g5rlb91ys800n5npymflf80000gn/T//cce6JCY2.s 			page 35


 858              		.loc 1 499 1 is_stmt 0 view .LVU221
 859 0000 2DE9F84F 		push	{r3, r4, r5, r6, r7, r8, r9, r10, fp, lr}
 860              	.LCFI11:
 861              		.cfi_def_cfa_offset 40
 862              		.cfi_offset 3, -40
 863              		.cfi_offset 4, -36
 864              		.cfi_offset 5, -32
 865              		.cfi_offset 6, -28
 866              		.cfi_offset 7, -24
 867              		.cfi_offset 8, -20
 868              		.cfi_offset 9, -16
 869              		.cfi_offset 10, -12
 870              		.cfi_offset 11, -8
 871              		.cfi_offset 14, -4
 872 0004 8046     		mov	r8, r0
 873 0006 0C46     		mov	r4, r1
 500:lvgl/src/extra/layouts/grid/lv_grid.c ****     const lv_coord_t * row_templ = get_row_dsc(cont);
 874              		.loc 1 500 5 is_stmt 1 view .LVU222
 501:lvgl/src/extra/layouts/grid/lv_grid.c ****     c->row_num = count_tracks(row_templ);
 875              		.loc 1 501 5 view .LVU223
 501:lvgl/src/extra/layouts/grid/lv_grid.c ****     c->row_num = count_tracks(row_templ);
 876              		.loc 1 501 36 is_stmt 0 view .LVU224
 877 0008 FFF7FEFF 		bl	get_row_dsc
 878              	.LVL80:
 501:lvgl/src/extra/layouts/grid/lv_grid.c ****     c->row_num = count_tracks(row_templ);
 879              		.loc 1 501 36 view .LVU225
 880 000c 0746     		mov	r7, r0
 881              	.LVL81:
 502:lvgl/src/extra/layouts/grid/lv_grid.c ****     c->y = lv_mem_buf_get(sizeof(lv_coord_t) * c->row_num);
 882              		.loc 1 502 5 is_stmt 1 view .LVU226
 502:lvgl/src/extra/layouts/grid/lv_grid.c ****     c->y = lv_mem_buf_get(sizeof(lv_coord_t) * c->row_num);
 883              		.loc 1 502 18 is_stmt 0 view .LVU227
 884 000e FFF7FEFF 		bl	count_tracks
 885              	.LVL82:
 502:lvgl/src/extra/layouts/grid/lv_grid.c ****     c->y = lv_mem_buf_get(sizeof(lv_coord_t) * c->row_num);
 886              		.loc 1 502 16 view .LVU228
 887 0012 6061     		str	r0, [r4, #20]
 503:lvgl/src/extra/layouts/grid/lv_grid.c ****     c->h = lv_mem_buf_get(sizeof(lv_coord_t) * c->row_num);
 888              		.loc 1 503 5 is_stmt 1 view .LVU229
 503:lvgl/src/extra/layouts/grid/lv_grid.c ****     c->h = lv_mem_buf_get(sizeof(lv_coord_t) * c->row_num);
 889              		.loc 1 503 12 is_stmt 0 view .LVU230
 890 0014 4000     		lsls	r0, r0, #1
 891 0016 FFF7FEFF 		bl	lv_mem_buf_get
 892              	.LVL83:
 503:lvgl/src/extra/layouts/grid/lv_grid.c ****     c->h = lv_mem_buf_get(sizeof(lv_coord_t) * c->row_num);
 893              		.loc 1 503 10 view .LVU231
 894 001a 6060     		str	r0, [r4, #4]
 504:lvgl/src/extra/layouts/grid/lv_grid.c ****     /*Set sizes for CONTENT cells*/
 895              		.loc 1 504 5 is_stmt 1 view .LVU232
 504:lvgl/src/extra/layouts/grid/lv_grid.c ****     /*Set sizes for CONTENT cells*/
 896              		.loc 1 504 49 is_stmt 0 view .LVU233
 897 001c 6069     		ldr	r0, [r4, #20]
 504:lvgl/src/extra/layouts/grid/lv_grid.c ****     /*Set sizes for CONTENT cells*/
 898              		.loc 1 504 12 view .LVU234
 899 001e 4000     		lsls	r0, r0, #1
 900 0020 FFF7FEFF 		bl	lv_mem_buf_get
 901              	.LVL84:
ARM GAS  /var/folders/21/t9g5rlb91ys800n5npymflf80000gn/T//cce6JCY2.s 			page 36


 504:lvgl/src/extra/layouts/grid/lv_grid.c ****     /*Set sizes for CONTENT cells*/
 902              		.loc 1 504 10 view .LVU235
 903 0024 E060     		str	r0, [r4, #12]
 506:lvgl/src/extra/layouts/grid/lv_grid.c ****         lv_coord_t size = LV_COORD_MIN;
 904              		.loc 1 506 5 is_stmt 1 view .LVU236
 905              	.LVL85:
 506:lvgl/src/extra/layouts/grid/lv_grid.c ****         lv_coord_t size = LV_COORD_MIN;
 906              		.loc 1 506 11 is_stmt 0 view .LVU237
 907 0026 0026     		movs	r6, #0
 506:lvgl/src/extra/layouts/grid/lv_grid.c ****         lv_coord_t size = LV_COORD_MIN;
 908              		.loc 1 506 5 view .LVU238
 909 0028 2AE0     		b	.L68
 910              	.LVL86:
 911              	.L71:
 912              	.LBB92:
 913              	.LBB93:
 511:lvgl/src/extra/layouts/grid/lv_grid.c ****                 lv_obj_t * item = lv_obj_get_child(cont, ci);
 914              		.loc 1 511 60 is_stmt 1 discriminator 2 view .LVU239
 915 002a 0135     		adds	r5, r5, #1
 916              	.LVL87:
 917              	.L69:
 511:lvgl/src/extra/layouts/grid/lv_grid.c ****                 lv_obj_t * item = lv_obj_get_child(cont, ci);
 918              		.loc 1 511 28 discriminator 1 view .LVU240
 511:lvgl/src/extra/layouts/grid/lv_grid.c ****                 lv_obj_t * item = lv_obj_get_child(cont, ci);
 919              		.loc 1 511 30 is_stmt 0 discriminator 1 view .LVU241
 920 002c 4046     		mov	r0, r8
 921 002e FFF7FEFF 		bl	lv_obj_get_child_cnt
 922              	.LVL88:
 511:lvgl/src/extra/layouts/grid/lv_grid.c ****                 lv_obj_t * item = lv_obj_get_child(cont, ci);
 923              		.loc 1 511 28 discriminator 1 view .LVU242
 924 0032 A842     		cmp	r0, r5
 925 0034 1DD9     		bls	.L88
 926              	.LBB94:
 512:lvgl/src/extra/layouts/grid/lv_grid.c ****                 if(lv_obj_has_flag_any(item, LV_OBJ_FLAG_IGNORE_LAYOUT | LV_OBJ_FLAG_HIDDEN | LV_OB
 927              		.loc 1 512 17 is_stmt 1 view .LVU243
 512:lvgl/src/extra/layouts/grid/lv_grid.c ****                 if(lv_obj_has_flag_any(item, LV_OBJ_FLAG_IGNORE_LAYOUT | LV_OBJ_FLAG_HIDDEN | LV_OB
 928              		.loc 1 512 35 is_stmt 0 view .LVU244
 929 0036 2946     		mov	r1, r5
 930 0038 4046     		mov	r0, r8
 931 003a FFF7FEFF 		bl	lv_obj_get_child
 932              	.LVL89:
 933 003e 8146     		mov	r9, r0
 934              	.LVL90:
 513:lvgl/src/extra/layouts/grid/lv_grid.c ****                 uint32_t row_span = get_row_span(item);
 935              		.loc 1 513 17 is_stmt 1 view .LVU245
 513:lvgl/src/extra/layouts/grid/lv_grid.c ****                 uint32_t row_span = get_row_span(item);
 936              		.loc 1 513 20 is_stmt 0 view .LVU246
 937 0040 4B49     		ldr	r1, .L94
 938 0042 FFF7FEFF 		bl	lv_obj_has_flag_any
 939              	.LVL91:
 513:lvgl/src/extra/layouts/grid/lv_grid.c ****                 uint32_t row_span = get_row_span(item);
 940              		.loc 1 513 19 view .LVU247
 941 0046 0028     		cmp	r0, #0
 942 0048 EFD1     		bne	.L71
 514:lvgl/src/extra/layouts/grid/lv_grid.c ****                 if(row_span != 1) continue;
 943              		.loc 1 514 17 is_stmt 1 view .LVU248
 514:lvgl/src/extra/layouts/grid/lv_grid.c ****                 if(row_span != 1) continue;
ARM GAS  /var/folders/21/t9g5rlb91ys800n5npymflf80000gn/T//cce6JCY2.s 			page 37


 944              		.loc 1 514 37 is_stmt 0 view .LVU249
 945 004a 4846     		mov	r0, r9
 946 004c FFF7FEFF 		bl	get_row_span
 947              	.LVL92:
 515:lvgl/src/extra/layouts/grid/lv_grid.c **** 
 948              		.loc 1 515 17 is_stmt 1 view .LVU250
 515:lvgl/src/extra/layouts/grid/lv_grid.c **** 
 949              		.loc 1 515 19 is_stmt 0 view .LVU251
 950 0050 0128     		cmp	r0, #1
 951 0052 EAD1     		bne	.L71
 517:lvgl/src/extra/layouts/grid/lv_grid.c ****                 if(row_pos != i) continue;
 952              		.loc 1 517 17 is_stmt 1 view .LVU252
 517:lvgl/src/extra/layouts/grid/lv_grid.c ****                 if(row_pos != i) continue;
 953              		.loc 1 517 36 is_stmt 0 view .LVU253
 954 0054 4846     		mov	r0, r9
 955              	.LVL93:
 517:lvgl/src/extra/layouts/grid/lv_grid.c ****                 if(row_pos != i) continue;
 956              		.loc 1 517 36 view .LVU254
 957 0056 FFF7FEFF 		bl	get_row_pos
 958              	.LVL94:
 518:lvgl/src/extra/layouts/grid/lv_grid.c **** 
 959              		.loc 1 518 17 is_stmt 1 view .LVU255
 518:lvgl/src/extra/layouts/grid/lv_grid.c **** 
 960              		.loc 1 518 19 is_stmt 0 view .LVU256
 961 005a 8642     		cmp	r6, r0
 962 005c E5D1     		bne	.L71
 520:lvgl/src/extra/layouts/grid/lv_grid.c ****             }
 963              		.loc 1 520 17 is_stmt 1 view .LVU257
 520:lvgl/src/extra/layouts/grid/lv_grid.c ****             }
 964              		.loc 1 520 24 is_stmt 0 view .LVU258
 965 005e 4846     		mov	r0, r9
 966              	.LVL95:
 520:lvgl/src/extra/layouts/grid/lv_grid.c ****             }
 967              		.loc 1 520 24 view .LVU259
 968 0060 FFF7FEFF 		bl	lv_obj_get_height
 969              	.LVL96:
 520:lvgl/src/extra/layouts/grid/lv_grid.c ****             }
 970              		.loc 1 520 22 view .LVU260
 971 0064 5845     		cmp	r0, fp
 972 0066 E0DB     		blt	.L71
 520:lvgl/src/extra/layouts/grid/lv_grid.c ****             }
 973              		.loc 1 520 24 discriminator 1 view .LVU261
 974 0068 4846     		mov	r0, r9
 975 006a FFF7FEFF 		bl	lv_obj_get_height
 976              	.LVL97:
 977 006e 8346     		mov	fp, r0
 978              	.LVL98:
 520:lvgl/src/extra/layouts/grid/lv_grid.c ****             }
 979              		.loc 1 520 24 discriminator 1 view .LVU262
 980 0070 DBE7     		b	.L71
 981              	.LVL99:
 982              	.L88:
 520:lvgl/src/extra/layouts/grid/lv_grid.c ****             }
 983              		.loc 1 520 24 discriminator 1 view .LVU263
 984              	.LBE94:
 522:lvgl/src/extra/layouts/grid/lv_grid.c ****             else c->h[i] = 0;
 985              		.loc 1 522 13 is_stmt 1 view .LVU264
ARM GAS  /var/folders/21/t9g5rlb91ys800n5npymflf80000gn/T//cce6JCY2.s 			page 38


 522:lvgl/src/extra/layouts/grid/lv_grid.c ****             else c->h[i] = 0;
 986              		.loc 1 522 15 is_stmt 0 view .LVU265
 987 0072 BBF1000F 		cmp	fp, #0
 988 0076 12DB     		blt	.L73
 522:lvgl/src/extra/layouts/grid/lv_grid.c ****             else c->h[i] = 0;
 989              		.loc 1 522 27 is_stmt 1 discriminator 1 view .LVU266
 522:lvgl/src/extra/layouts/grid/lv_grid.c ****             else c->h[i] = 0;
 990              		.loc 1 522 28 is_stmt 0 discriminator 1 view .LVU267
 991 0078 E368     		ldr	r3, [r4, #12]
 522:lvgl/src/extra/layouts/grid/lv_grid.c ****             else c->h[i] = 0;
 992              		.loc 1 522 35 discriminator 1 view .LVU268
 993 007a 23F80AB0 		strh	fp, [r3, r10]	@ movhi
 994              	.LVL100:
 995              	.L70:
 522:lvgl/src/extra/layouts/grid/lv_grid.c ****             else c->h[i] = 0;
 996              		.loc 1 522 35 discriminator 1 view .LVU269
 997              	.LBE93:
 998              	.LBE92:
 506:lvgl/src/extra/layouts/grid/lv_grid.c ****         lv_coord_t size = LV_COORD_MIN;
 999              		.loc 1 506 33 is_stmt 1 discriminator 2 view .LVU270
 1000 007e 0136     		adds	r6, r6, #1
 1001              	.LVL101:
 1002              	.L68:
 506:lvgl/src/extra/layouts/grid/lv_grid.c ****         lv_coord_t size = LV_COORD_MIN;
 1003              		.loc 1 506 18 discriminator 1 view .LVU271
 506:lvgl/src/extra/layouts/grid/lv_grid.c ****         lv_coord_t size = LV_COORD_MIN;
 1004              		.loc 1 506 21 is_stmt 0 discriminator 1 view .LVU272
 1005 0080 6369     		ldr	r3, [r4, #20]
 506:lvgl/src/extra/layouts/grid/lv_grid.c ****         lv_coord_t size = LV_COORD_MIN;
 1006              		.loc 1 506 18 discriminator 1 view .LVU273
 1007 0082 B342     		cmp	r3, r6
 1008 0084 10D9     		bls	.L89
 1009              	.LBB97:
 507:lvgl/src/extra/layouts/grid/lv_grid.c ****         if(IS_CONTENT(row_templ[i])) {
 1010              		.loc 1 507 9 is_stmt 1 view .LVU274
 1011              	.LVL102:
 508:lvgl/src/extra/layouts/grid/lv_grid.c ****             /*Check the size of children of this cell*/
 1012              		.loc 1 508 9 view .LVU275
 508:lvgl/src/extra/layouts/grid/lv_grid.c ****             /*Check the size of children of this cell*/
 1013              		.loc 1 508 12 is_stmt 0 view .LVU276
 1014 0086 4FEA460A 		lsl	r10, r6, #1
 1015 008a 37F91620 		ldrsh	r2, [r7, r6, lsl #1]
 508:lvgl/src/extra/layouts/grid/lv_grid.c ****             /*Check the size of children of this cell*/
 1016              		.loc 1 508 11 view .LVU277
 1017 008e 41F69A73 		movw	r3, #8090
 1018 0092 9A42     		cmp	r2, r3
 1019 0094 F3D1     		bne	.L70
 1020              	.LBB95:
 511:lvgl/src/extra/layouts/grid/lv_grid.c ****                 lv_obj_t * item = lv_obj_get_child(cont, ci);
 1021              		.loc 1 511 20 view .LVU278
 1022 0096 0025     		movs	r5, #0
 1023              	.LBE95:
 507:lvgl/src/extra/layouts/grid/lv_grid.c ****         if(IS_CONTENT(row_templ[i])) {
 1024              		.loc 1 507 20 view .LVU279
 1025 0098 DFF8D8B0 		ldr	fp, .L94+4
 1026 009c C6E7     		b	.L69
 1027              	.LVL103:
ARM GAS  /var/folders/21/t9g5rlb91ys800n5npymflf80000gn/T//cce6JCY2.s 			page 39


 1028              	.L73:
 1029              	.LBB96:
 523:lvgl/src/extra/layouts/grid/lv_grid.c ****         }
 1030              		.loc 1 523 18 is_stmt 1 view .LVU280
 523:lvgl/src/extra/layouts/grid/lv_grid.c ****         }
 1031              		.loc 1 523 19 is_stmt 0 view .LVU281
 1032 009e E368     		ldr	r3, [r4, #12]
 523:lvgl/src/extra/layouts/grid/lv_grid.c ****         }
 1033              		.loc 1 523 26 view .LVU282
 1034 00a0 0022     		movs	r2, #0
 1035 00a2 23F80A20 		strh	r2, [r3, r10]	@ movhi
 1036 00a6 EAE7     		b	.L70
 1037              	.LVL104:
 1038              	.L89:
 523:lvgl/src/extra/layouts/grid/lv_grid.c ****         }
 1039              		.loc 1 523 26 view .LVU283
 1040              	.LBE96:
 1041              	.LBE97:
 528:lvgl/src/extra/layouts/grid/lv_grid.c **** 
 1042              		.loc 1 528 16 view .LVU284
 1043 00a8 0026     		movs	r6, #0
 1044              	.LVL105:
 527:lvgl/src/extra/layouts/grid/lv_grid.c ****     lv_coord_t grid_h = 0;
 1045              		.loc 1 527 14 view .LVU285
 1046 00aa 3546     		mov	r5, r6
 530:lvgl/src/extra/layouts/grid/lv_grid.c ****         lv_coord_t x = row_templ[i];
 1047              		.loc 1 530 11 view .LVU286
 1048 00ac 3246     		mov	r2, r6
 1049 00ae 08E0     		b	.L75
 1050              	.LVL106:
 1051              	.L76:
 1052              	.LBB98:
 535:lvgl/src/extra/layouts/grid/lv_grid.c ****             grid_h += c->h[i];
 1053              		.loc 1 535 14 is_stmt 1 view .LVU287
 535:lvgl/src/extra/layouts/grid/lv_grid.c ****             grid_h += c->h[i];
 1054              		.loc 1 535 16 is_stmt 0 view .LVU288
 1055 00b0 41F69A71 		movw	r1, #8090
 1056 00b4 8B42     		cmp	r3, r1
 1057 00b6 13D0     		beq	.L90
 539:lvgl/src/extra/layouts/grid/lv_grid.c ****             grid_h += x;
 1058              		.loc 1 539 13 is_stmt 1 view .LVU289
 539:lvgl/src/extra/layouts/grid/lv_grid.c ****             grid_h += x;
 1059              		.loc 1 539 14 is_stmt 0 view .LVU290
 1060 00b8 E168     		ldr	r1, [r4, #12]
 539:lvgl/src/extra/layouts/grid/lv_grid.c ****             grid_h += x;
 1061              		.loc 1 539 21 view .LVU291
 1062 00ba 0B52     		strh	r3, [r1, r0]	@ movhi
 540:lvgl/src/extra/layouts/grid/lv_grid.c ****         }
 1063              		.loc 1 540 13 is_stmt 1 view .LVU292
 540:lvgl/src/extra/layouts/grid/lv_grid.c ****         }
 1064              		.loc 1 540 20 is_stmt 0 view .LVU293
 1065 00bc 3344     		add	r3, r3, r6
 1066              	.LVL107:
 540:lvgl/src/extra/layouts/grid/lv_grid.c ****         }
 1067              		.loc 1 540 20 view .LVU294
 1068 00be 1EB2     		sxth	r6, r3
 1069              	.LVL108:
ARM GAS  /var/folders/21/t9g5rlb91ys800n5npymflf80000gn/T//cce6JCY2.s 			page 40


 1070              	.L77:
 540:lvgl/src/extra/layouts/grid/lv_grid.c ****         }
 1071              		.loc 1 540 20 view .LVU295
 1072              	.LBE98:
 530:lvgl/src/extra/layouts/grid/lv_grid.c ****         lv_coord_t x = row_templ[i];
 1073              		.loc 1 530 33 is_stmt 1 discriminator 2 view .LVU296
 1074 00c0 0132     		adds	r2, r2, #1
 1075              	.LVL109:
 1076              	.L75:
 530:lvgl/src/extra/layouts/grid/lv_grid.c ****         lv_coord_t x = row_templ[i];
 1077              		.loc 1 530 18 discriminator 1 view .LVU297
 530:lvgl/src/extra/layouts/grid/lv_grid.c ****         lv_coord_t x = row_templ[i];
 1078              		.loc 1 530 21 is_stmt 0 discriminator 1 view .LVU298
 1079 00c2 6369     		ldr	r3, [r4, #20]
 530:lvgl/src/extra/layouts/grid/lv_grid.c ****         lv_coord_t x = row_templ[i];
 1080              		.loc 1 530 18 discriminator 1 view .LVU299
 1081 00c4 9342     		cmp	r3, r2
 1082 00c6 10D9     		bls	.L91
 1083              	.LBB99:
 531:lvgl/src/extra/layouts/grid/lv_grid.c ****         if(IS_FR(x)) {
 1084              		.loc 1 531 9 is_stmt 1 view .LVU300
 531:lvgl/src/extra/layouts/grid/lv_grid.c ****         if(IS_FR(x)) {
 1085              		.loc 1 531 33 is_stmt 0 view .LVU301
 1086 00c8 5000     		lsls	r0, r2, #1
 531:lvgl/src/extra/layouts/grid/lv_grid.c ****         if(IS_FR(x)) {
 1087              		.loc 1 531 20 view .LVU302
 1088 00ca 37F91230 		ldrsh	r3, [r7, r2, lsl #1]
 1089              	.LVL110:
 532:lvgl/src/extra/layouts/grid/lv_grid.c ****             row_fr_cnt += GET_FR(x);
 1090              		.loc 1 532 9 is_stmt 1 view .LVU303
 532:lvgl/src/extra/layouts/grid/lv_grid.c ****             row_fr_cnt += GET_FR(x);
 1091              		.loc 1 532 11 is_stmt 0 view .LVU304
 1092 00ce 41F69A71 		movw	r1, #8090
 1093 00d2 8B42     		cmp	r3, r1
 1094 00d4 ECDD     		ble	.L76
 533:lvgl/src/extra/layouts/grid/lv_grid.c ****         }
 1095              		.loc 1 533 13 is_stmt 1 view .LVU305
 533:lvgl/src/extra/layouts/grid/lv_grid.c ****         }
 1096              		.loc 1 533 24 is_stmt 0 view .LVU306
 1097 00d6 2B44     		add	r3, r3, r5
 1098              	.LVL111:
 533:lvgl/src/extra/layouts/grid/lv_grid.c ****         }
 1099              		.loc 1 533 24 view .LVU307
 1100 00d8 A3F5FC55 		sub	r5, r3, #8064
 1101              	.LVL112:
 533:lvgl/src/extra/layouts/grid/lv_grid.c ****         }
 1102              		.loc 1 533 24 view .LVU308
 1103 00dc 1B3D     		subs	r5, r5, #27
 1104              	.LVL113:
 533:lvgl/src/extra/layouts/grid/lv_grid.c ****         }
 1105              		.loc 1 533 24 view .LVU309
 1106 00de EFE7     		b	.L77
 1107              	.LVL114:
 1108              	.L90:
 536:lvgl/src/extra/layouts/grid/lv_grid.c ****         }
 1109              		.loc 1 536 13 is_stmt 1 view .LVU310
 536:lvgl/src/extra/layouts/grid/lv_grid.c ****         }
ARM GAS  /var/folders/21/t9g5rlb91ys800n5npymflf80000gn/T//cce6JCY2.s 			page 41


 1110              		.loc 1 536 24 is_stmt 0 view .LVU311
 1111 00e0 E368     		ldr	r3, [r4, #12]
 1112              	.LVL115:
 536:lvgl/src/extra/layouts/grid/lv_grid.c ****         }
 1113              		.loc 1 536 27 view .LVU312
 1114 00e2 1B5A     		ldrh	r3, [r3, r0]
 536:lvgl/src/extra/layouts/grid/lv_grid.c ****         }
 1115              		.loc 1 536 20 view .LVU313
 1116 00e4 3344     		add	r3, r3, r6
 1117 00e6 1EB2     		sxth	r6, r3
 1118              	.LVL116:
 536:lvgl/src/extra/layouts/grid/lv_grid.c ****         }
 1119              		.loc 1 536 20 view .LVU314
 1120 00e8 EAE7     		b	.L77
 1121              	.LVL117:
 1122              	.L91:
 536:lvgl/src/extra/layouts/grid/lv_grid.c ****         }
 1123              		.loc 1 536 20 view .LVU315
 1124              	.LBE99:
 544:lvgl/src/extra/layouts/grid/lv_grid.c ****     lv_coord_t cont_h = lv_obj_get_content_height(cont) - row_gap * (c->row_num - 1);
 1125              		.loc 1 544 5 is_stmt 1 view .LVU316
 1126              	.LBB100:
 1127              	.LBI100:
 1128              		.file 3 "lvgl/src/extra/layouts/grid/../flex/../../../core/lv_obj_style_gen.h"
   1:lvgl/src/extra/layouts/grid/../flex/../../../core/lv_obj_style_gen.h **** static inline lv_coord_t lv_obj_get_style_width(const struct _lv_obj_t * obj, uint32_t part)
   2:lvgl/src/extra/layouts/grid/../flex/../../../core/lv_obj_style_gen.h **** {
   3:lvgl/src/extra/layouts/grid/../flex/../../../core/lv_obj_style_gen.h ****     lv_style_value_t v = lv_obj_get_style_prop(obj, part, LV_STYLE_WIDTH);
   4:lvgl/src/extra/layouts/grid/../flex/../../../core/lv_obj_style_gen.h ****     return (lv_coord_t)v.num;
   5:lvgl/src/extra/layouts/grid/../flex/../../../core/lv_obj_style_gen.h **** }
   6:lvgl/src/extra/layouts/grid/../flex/../../../core/lv_obj_style_gen.h **** 
   7:lvgl/src/extra/layouts/grid/../flex/../../../core/lv_obj_style_gen.h **** static inline lv_coord_t lv_obj_get_style_min_width(const struct _lv_obj_t * obj, uint32_t part)
   8:lvgl/src/extra/layouts/grid/../flex/../../../core/lv_obj_style_gen.h **** {
   9:lvgl/src/extra/layouts/grid/../flex/../../../core/lv_obj_style_gen.h ****     lv_style_value_t v = lv_obj_get_style_prop(obj, part, LV_STYLE_MIN_WIDTH);
  10:lvgl/src/extra/layouts/grid/../flex/../../../core/lv_obj_style_gen.h ****     return (lv_coord_t)v.num;
  11:lvgl/src/extra/layouts/grid/../flex/../../../core/lv_obj_style_gen.h **** }
  12:lvgl/src/extra/layouts/grid/../flex/../../../core/lv_obj_style_gen.h **** 
  13:lvgl/src/extra/layouts/grid/../flex/../../../core/lv_obj_style_gen.h **** static inline lv_coord_t lv_obj_get_style_max_width(const struct _lv_obj_t * obj, uint32_t part)
  14:lvgl/src/extra/layouts/grid/../flex/../../../core/lv_obj_style_gen.h **** {
  15:lvgl/src/extra/layouts/grid/../flex/../../../core/lv_obj_style_gen.h ****     lv_style_value_t v = lv_obj_get_style_prop(obj, part, LV_STYLE_MAX_WIDTH);
  16:lvgl/src/extra/layouts/grid/../flex/../../../core/lv_obj_style_gen.h ****     return (lv_coord_t)v.num;
  17:lvgl/src/extra/layouts/grid/../flex/../../../core/lv_obj_style_gen.h **** }
  18:lvgl/src/extra/layouts/grid/../flex/../../../core/lv_obj_style_gen.h **** 
  19:lvgl/src/extra/layouts/grid/../flex/../../../core/lv_obj_style_gen.h **** static inline lv_coord_t lv_obj_get_style_height(const struct _lv_obj_t * obj, uint32_t part)
  20:lvgl/src/extra/layouts/grid/../flex/../../../core/lv_obj_style_gen.h **** {
  21:lvgl/src/extra/layouts/grid/../flex/../../../core/lv_obj_style_gen.h ****     lv_style_value_t v = lv_obj_get_style_prop(obj, part, LV_STYLE_HEIGHT);
  22:lvgl/src/extra/layouts/grid/../flex/../../../core/lv_obj_style_gen.h ****     return (lv_coord_t)v.num;
  23:lvgl/src/extra/layouts/grid/../flex/../../../core/lv_obj_style_gen.h **** }
  24:lvgl/src/extra/layouts/grid/../flex/../../../core/lv_obj_style_gen.h **** 
  25:lvgl/src/extra/layouts/grid/../flex/../../../core/lv_obj_style_gen.h **** static inline lv_coord_t lv_obj_get_style_min_height(const struct _lv_obj_t * obj, uint32_t part)
  26:lvgl/src/extra/layouts/grid/../flex/../../../core/lv_obj_style_gen.h **** {
  27:lvgl/src/extra/layouts/grid/../flex/../../../core/lv_obj_style_gen.h ****     lv_style_value_t v = lv_obj_get_style_prop(obj, part, LV_STYLE_MIN_HEIGHT);
  28:lvgl/src/extra/layouts/grid/../flex/../../../core/lv_obj_style_gen.h ****     return (lv_coord_t)v.num;
  29:lvgl/src/extra/layouts/grid/../flex/../../../core/lv_obj_style_gen.h **** }
  30:lvgl/src/extra/layouts/grid/../flex/../../../core/lv_obj_style_gen.h **** 
  31:lvgl/src/extra/layouts/grid/../flex/../../../core/lv_obj_style_gen.h **** static inline lv_coord_t lv_obj_get_style_max_height(const struct _lv_obj_t * obj, uint32_t part)
  32:lvgl/src/extra/layouts/grid/../flex/../../../core/lv_obj_style_gen.h **** {
  33:lvgl/src/extra/layouts/grid/../flex/../../../core/lv_obj_style_gen.h ****     lv_style_value_t v = lv_obj_get_style_prop(obj, part, LV_STYLE_MAX_HEIGHT);
ARM GAS  /var/folders/21/t9g5rlb91ys800n5npymflf80000gn/T//cce6JCY2.s 			page 42


  34:lvgl/src/extra/layouts/grid/../flex/../../../core/lv_obj_style_gen.h ****     return (lv_coord_t)v.num;
  35:lvgl/src/extra/layouts/grid/../flex/../../../core/lv_obj_style_gen.h **** }
  36:lvgl/src/extra/layouts/grid/../flex/../../../core/lv_obj_style_gen.h **** 
  37:lvgl/src/extra/layouts/grid/../flex/../../../core/lv_obj_style_gen.h **** static inline lv_coord_t lv_obj_get_style_x(const struct _lv_obj_t * obj, uint32_t part)
  38:lvgl/src/extra/layouts/grid/../flex/../../../core/lv_obj_style_gen.h **** {
  39:lvgl/src/extra/layouts/grid/../flex/../../../core/lv_obj_style_gen.h ****     lv_style_value_t v = lv_obj_get_style_prop(obj, part, LV_STYLE_X);
  40:lvgl/src/extra/layouts/grid/../flex/../../../core/lv_obj_style_gen.h ****     return (lv_coord_t)v.num;
  41:lvgl/src/extra/layouts/grid/../flex/../../../core/lv_obj_style_gen.h **** }
  42:lvgl/src/extra/layouts/grid/../flex/../../../core/lv_obj_style_gen.h **** 
  43:lvgl/src/extra/layouts/grid/../flex/../../../core/lv_obj_style_gen.h **** static inline lv_coord_t lv_obj_get_style_y(const struct _lv_obj_t * obj, uint32_t part)
  44:lvgl/src/extra/layouts/grid/../flex/../../../core/lv_obj_style_gen.h **** {
  45:lvgl/src/extra/layouts/grid/../flex/../../../core/lv_obj_style_gen.h ****     lv_style_value_t v = lv_obj_get_style_prop(obj, part, LV_STYLE_Y);
  46:lvgl/src/extra/layouts/grid/../flex/../../../core/lv_obj_style_gen.h ****     return (lv_coord_t)v.num;
  47:lvgl/src/extra/layouts/grid/../flex/../../../core/lv_obj_style_gen.h **** }
  48:lvgl/src/extra/layouts/grid/../flex/../../../core/lv_obj_style_gen.h **** 
  49:lvgl/src/extra/layouts/grid/../flex/../../../core/lv_obj_style_gen.h **** static inline lv_align_t lv_obj_get_style_align(const struct _lv_obj_t * obj, uint32_t part)
  50:lvgl/src/extra/layouts/grid/../flex/../../../core/lv_obj_style_gen.h **** {
  51:lvgl/src/extra/layouts/grid/../flex/../../../core/lv_obj_style_gen.h ****     lv_style_value_t v = lv_obj_get_style_prop(obj, part, LV_STYLE_ALIGN);
  52:lvgl/src/extra/layouts/grid/../flex/../../../core/lv_obj_style_gen.h ****     return (lv_align_t)v.num;
  53:lvgl/src/extra/layouts/grid/../flex/../../../core/lv_obj_style_gen.h **** }
  54:lvgl/src/extra/layouts/grid/../flex/../../../core/lv_obj_style_gen.h **** 
  55:lvgl/src/extra/layouts/grid/../flex/../../../core/lv_obj_style_gen.h **** static inline lv_coord_t lv_obj_get_style_transform_width(const struct _lv_obj_t * obj, uint32_t pa
  56:lvgl/src/extra/layouts/grid/../flex/../../../core/lv_obj_style_gen.h **** {
  57:lvgl/src/extra/layouts/grid/../flex/../../../core/lv_obj_style_gen.h ****     lv_style_value_t v = lv_obj_get_style_prop(obj, part, LV_STYLE_TRANSFORM_WIDTH);
  58:lvgl/src/extra/layouts/grid/../flex/../../../core/lv_obj_style_gen.h ****     return (lv_coord_t)v.num;
  59:lvgl/src/extra/layouts/grid/../flex/../../../core/lv_obj_style_gen.h **** }
  60:lvgl/src/extra/layouts/grid/../flex/../../../core/lv_obj_style_gen.h **** 
  61:lvgl/src/extra/layouts/grid/../flex/../../../core/lv_obj_style_gen.h **** static inline lv_coord_t lv_obj_get_style_transform_height(const struct _lv_obj_t * obj, uint32_t p
  62:lvgl/src/extra/layouts/grid/../flex/../../../core/lv_obj_style_gen.h **** {
  63:lvgl/src/extra/layouts/grid/../flex/../../../core/lv_obj_style_gen.h ****     lv_style_value_t v = lv_obj_get_style_prop(obj, part, LV_STYLE_TRANSFORM_HEIGHT);
  64:lvgl/src/extra/layouts/grid/../flex/../../../core/lv_obj_style_gen.h ****     return (lv_coord_t)v.num;
  65:lvgl/src/extra/layouts/grid/../flex/../../../core/lv_obj_style_gen.h **** }
  66:lvgl/src/extra/layouts/grid/../flex/../../../core/lv_obj_style_gen.h **** 
  67:lvgl/src/extra/layouts/grid/../flex/../../../core/lv_obj_style_gen.h **** static inline lv_coord_t lv_obj_get_style_translate_x(const struct _lv_obj_t * obj, uint32_t part)
  68:lvgl/src/extra/layouts/grid/../flex/../../../core/lv_obj_style_gen.h **** {
  69:lvgl/src/extra/layouts/grid/../flex/../../../core/lv_obj_style_gen.h ****     lv_style_value_t v = lv_obj_get_style_prop(obj, part, LV_STYLE_TRANSLATE_X);
  70:lvgl/src/extra/layouts/grid/../flex/../../../core/lv_obj_style_gen.h ****     return (lv_coord_t)v.num;
  71:lvgl/src/extra/layouts/grid/../flex/../../../core/lv_obj_style_gen.h **** }
  72:lvgl/src/extra/layouts/grid/../flex/../../../core/lv_obj_style_gen.h **** 
  73:lvgl/src/extra/layouts/grid/../flex/../../../core/lv_obj_style_gen.h **** static inline lv_coord_t lv_obj_get_style_translate_y(const struct _lv_obj_t * obj, uint32_t part)
  74:lvgl/src/extra/layouts/grid/../flex/../../../core/lv_obj_style_gen.h **** {
  75:lvgl/src/extra/layouts/grid/../flex/../../../core/lv_obj_style_gen.h ****     lv_style_value_t v = lv_obj_get_style_prop(obj, part, LV_STYLE_TRANSLATE_Y);
  76:lvgl/src/extra/layouts/grid/../flex/../../../core/lv_obj_style_gen.h ****     return (lv_coord_t)v.num;
  77:lvgl/src/extra/layouts/grid/../flex/../../../core/lv_obj_style_gen.h **** }
  78:lvgl/src/extra/layouts/grid/../flex/../../../core/lv_obj_style_gen.h **** 
  79:lvgl/src/extra/layouts/grid/../flex/../../../core/lv_obj_style_gen.h **** static inline lv_coord_t lv_obj_get_style_transform_zoom(const struct _lv_obj_t * obj, uint32_t par
  80:lvgl/src/extra/layouts/grid/../flex/../../../core/lv_obj_style_gen.h **** {
  81:lvgl/src/extra/layouts/grid/../flex/../../../core/lv_obj_style_gen.h ****     lv_style_value_t v = lv_obj_get_style_prop(obj, part, LV_STYLE_TRANSFORM_ZOOM);
  82:lvgl/src/extra/layouts/grid/../flex/../../../core/lv_obj_style_gen.h ****     return (lv_coord_t)v.num;
  83:lvgl/src/extra/layouts/grid/../flex/../../../core/lv_obj_style_gen.h **** }
  84:lvgl/src/extra/layouts/grid/../flex/../../../core/lv_obj_style_gen.h **** 
  85:lvgl/src/extra/layouts/grid/../flex/../../../core/lv_obj_style_gen.h **** static inline lv_coord_t lv_obj_get_style_transform_angle(const struct _lv_obj_t * obj, uint32_t pa
  86:lvgl/src/extra/layouts/grid/../flex/../../../core/lv_obj_style_gen.h **** {
  87:lvgl/src/extra/layouts/grid/../flex/../../../core/lv_obj_style_gen.h ****     lv_style_value_t v = lv_obj_get_style_prop(obj, part, LV_STYLE_TRANSFORM_ANGLE);
  88:lvgl/src/extra/layouts/grid/../flex/../../../core/lv_obj_style_gen.h ****     return (lv_coord_t)v.num;
  89:lvgl/src/extra/layouts/grid/../flex/../../../core/lv_obj_style_gen.h **** }
  90:lvgl/src/extra/layouts/grid/../flex/../../../core/lv_obj_style_gen.h **** 
ARM GAS  /var/folders/21/t9g5rlb91ys800n5npymflf80000gn/T//cce6JCY2.s 			page 43


  91:lvgl/src/extra/layouts/grid/../flex/../../../core/lv_obj_style_gen.h **** static inline lv_coord_t lv_obj_get_style_transform_pivot_x(const struct _lv_obj_t * obj, uint32_t 
  92:lvgl/src/extra/layouts/grid/../flex/../../../core/lv_obj_style_gen.h **** {
  93:lvgl/src/extra/layouts/grid/../flex/../../../core/lv_obj_style_gen.h ****     lv_style_value_t v = lv_obj_get_style_prop(obj, part, LV_STYLE_TRANSFORM_PIVOT_X);
  94:lvgl/src/extra/layouts/grid/../flex/../../../core/lv_obj_style_gen.h ****     return (lv_coord_t)v.num;
  95:lvgl/src/extra/layouts/grid/../flex/../../../core/lv_obj_style_gen.h **** }
  96:lvgl/src/extra/layouts/grid/../flex/../../../core/lv_obj_style_gen.h **** 
  97:lvgl/src/extra/layouts/grid/../flex/../../../core/lv_obj_style_gen.h **** static inline lv_coord_t lv_obj_get_style_transform_pivot_y(const struct _lv_obj_t * obj, uint32_t 
  98:lvgl/src/extra/layouts/grid/../flex/../../../core/lv_obj_style_gen.h **** {
  99:lvgl/src/extra/layouts/grid/../flex/../../../core/lv_obj_style_gen.h ****     lv_style_value_t v = lv_obj_get_style_prop(obj, part, LV_STYLE_TRANSFORM_PIVOT_Y);
 100:lvgl/src/extra/layouts/grid/../flex/../../../core/lv_obj_style_gen.h ****     return (lv_coord_t)v.num;
 101:lvgl/src/extra/layouts/grid/../flex/../../../core/lv_obj_style_gen.h **** }
 102:lvgl/src/extra/layouts/grid/../flex/../../../core/lv_obj_style_gen.h **** 
 103:lvgl/src/extra/layouts/grid/../flex/../../../core/lv_obj_style_gen.h **** static inline lv_coord_t lv_obj_get_style_pad_top(const struct _lv_obj_t * obj, uint32_t part)
 104:lvgl/src/extra/layouts/grid/../flex/../../../core/lv_obj_style_gen.h **** {
 105:lvgl/src/extra/layouts/grid/../flex/../../../core/lv_obj_style_gen.h ****     lv_style_value_t v = lv_obj_get_style_prop(obj, part, LV_STYLE_PAD_TOP);
 106:lvgl/src/extra/layouts/grid/../flex/../../../core/lv_obj_style_gen.h ****     return (lv_coord_t)v.num;
 107:lvgl/src/extra/layouts/grid/../flex/../../../core/lv_obj_style_gen.h **** }
 108:lvgl/src/extra/layouts/grid/../flex/../../../core/lv_obj_style_gen.h **** 
 109:lvgl/src/extra/layouts/grid/../flex/../../../core/lv_obj_style_gen.h **** static inline lv_coord_t lv_obj_get_style_pad_bottom(const struct _lv_obj_t * obj, uint32_t part)
 110:lvgl/src/extra/layouts/grid/../flex/../../../core/lv_obj_style_gen.h **** {
 111:lvgl/src/extra/layouts/grid/../flex/../../../core/lv_obj_style_gen.h ****     lv_style_value_t v = lv_obj_get_style_prop(obj, part, LV_STYLE_PAD_BOTTOM);
 112:lvgl/src/extra/layouts/grid/../flex/../../../core/lv_obj_style_gen.h ****     return (lv_coord_t)v.num;
 113:lvgl/src/extra/layouts/grid/../flex/../../../core/lv_obj_style_gen.h **** }
 114:lvgl/src/extra/layouts/grid/../flex/../../../core/lv_obj_style_gen.h **** 
 115:lvgl/src/extra/layouts/grid/../flex/../../../core/lv_obj_style_gen.h **** static inline lv_coord_t lv_obj_get_style_pad_left(const struct _lv_obj_t * obj, uint32_t part)
 116:lvgl/src/extra/layouts/grid/../flex/../../../core/lv_obj_style_gen.h **** {
 117:lvgl/src/extra/layouts/grid/../flex/../../../core/lv_obj_style_gen.h ****     lv_style_value_t v = lv_obj_get_style_prop(obj, part, LV_STYLE_PAD_LEFT);
 118:lvgl/src/extra/layouts/grid/../flex/../../../core/lv_obj_style_gen.h ****     return (lv_coord_t)v.num;
 119:lvgl/src/extra/layouts/grid/../flex/../../../core/lv_obj_style_gen.h **** }
 120:lvgl/src/extra/layouts/grid/../flex/../../../core/lv_obj_style_gen.h **** 
 121:lvgl/src/extra/layouts/grid/../flex/../../../core/lv_obj_style_gen.h **** static inline lv_coord_t lv_obj_get_style_pad_right(const struct _lv_obj_t * obj, uint32_t part)
 122:lvgl/src/extra/layouts/grid/../flex/../../../core/lv_obj_style_gen.h **** {
 123:lvgl/src/extra/layouts/grid/../flex/../../../core/lv_obj_style_gen.h ****     lv_style_value_t v = lv_obj_get_style_prop(obj, part, LV_STYLE_PAD_RIGHT);
 124:lvgl/src/extra/layouts/grid/../flex/../../../core/lv_obj_style_gen.h ****     return (lv_coord_t)v.num;
 125:lvgl/src/extra/layouts/grid/../flex/../../../core/lv_obj_style_gen.h **** }
 126:lvgl/src/extra/layouts/grid/../flex/../../../core/lv_obj_style_gen.h **** 
 127:lvgl/src/extra/layouts/grid/../flex/../../../core/lv_obj_style_gen.h **** static inline lv_coord_t lv_obj_get_style_pad_row(const struct _lv_obj_t * obj, uint32_t part)
 1129              		.loc 3 127 26 view .LVU317
 1130              	.LBB101:
 128:lvgl/src/extra/layouts/grid/../flex/../../../core/lv_obj_style_gen.h **** {
 129:lvgl/src/extra/layouts/grid/../flex/../../../core/lv_obj_style_gen.h ****     lv_style_value_t v = lv_obj_get_style_prop(obj, part, LV_STYLE_PAD_ROW);
 1131              		.loc 3 129 5 view .LVU318
 1132              		.loc 3 129 26 is_stmt 0 view .LVU319
 1133 00ea 1422     		movs	r2, #20
 1134              	.LVL118:
 1135              		.loc 3 129 26 view .LVU320
 1136 00ec 0021     		movs	r1, #0
 1137 00ee 4046     		mov	r0, r8
 1138 00f0 FFF7FEFF 		bl	lv_obj_get_style_prop
 1139              	.LVL119:
 130:lvgl/src/extra/layouts/grid/../flex/../../../core/lv_obj_style_gen.h ****     return (lv_coord_t)v.num;
 1140              		.loc 3 130 5 is_stmt 1 view .LVU321
 1141              		.loc 3 130 12 is_stmt 0 view .LVU322
 1142 00f4 0FFA80F9 		sxth	r9, r0
 1143              	.LVL120:
 1144              		.loc 3 130 12 view .LVU323
 1145              	.LBE101:
ARM GAS  /var/folders/21/t9g5rlb91ys800n5npymflf80000gn/T//cce6JCY2.s 			page 44


 1146              	.LBE100:
 545:lvgl/src/extra/layouts/grid/lv_grid.c ****     lv_coord_t free_h = cont_h - grid_h;
 1147              		.loc 1 545 5 is_stmt 1 view .LVU324
 545:lvgl/src/extra/layouts/grid/lv_grid.c ****     lv_coord_t free_h = cont_h - grid_h;
 1148              		.loc 1 545 25 is_stmt 0 view .LVU325
 1149 00f8 4046     		mov	r0, r8
 1150 00fa FFF7FEFF 		bl	lv_obj_get_content_height
 1151              	.LVL121:
 1152 00fe 81B2     		uxth	r1, r0
 545:lvgl/src/extra/layouts/grid/lv_grid.c ****     lv_coord_t free_h = cont_h - grid_h;
 1153              		.loc 1 545 71 view .LVU326
 1154 0100 6369     		ldr	r3, [r4, #20]
 545:lvgl/src/extra/layouts/grid/lv_grid.c ****     lv_coord_t free_h = cont_h - grid_h;
 1155              		.loc 1 545 81 view .LVU327
 1156 0102 013B     		subs	r3, r3, #1
 545:lvgl/src/extra/layouts/grid/lv_grid.c ****     lv_coord_t free_h = cont_h - grid_h;
 1157              		.loc 1 545 57 view .LVU328
 1158 0104 19FB03F9 		smulbb	r9, r9, r3
 1159              	.LVL122:
 545:lvgl/src/extra/layouts/grid/lv_grid.c ****     lv_coord_t free_h = cont_h - grid_h;
 1160              		.loc 1 545 57 view .LVU329
 1161 0108 A1EB0901 		sub	r1, r1, r9
 1162 010c 89B2     		uxth	r1, r1
 1163              	.LVL123:
 546:lvgl/src/extra/layouts/grid/lv_grid.c ****     if(free_h < 0) free_h = 0;
 1164              		.loc 1 546 5 is_stmt 1 view .LVU330
 546:lvgl/src/extra/layouts/grid/lv_grid.c ****     if(free_h < 0) free_h = 0;
 1165              		.loc 1 546 32 is_stmt 0 view .LVU331
 1166 010e 891B     		subs	r1, r1, r6
 1167              	.LVL124:
 546:lvgl/src/extra/layouts/grid/lv_grid.c ****     if(free_h < 0) free_h = 0;
 1168              		.loc 1 546 16 view .LVU332
 1169 0110 09B2     		sxth	r1, r1
 1170              	.LVL125:
 547:lvgl/src/extra/layouts/grid/lv_grid.c **** 
 1171              		.loc 1 547 5 is_stmt 1 view .LVU333
 547:lvgl/src/extra/layouts/grid/lv_grid.c **** 
 1172              		.loc 1 547 7 is_stmt 0 view .LVU334
 1173 0112 0029     		cmp	r1, #0
 1174 0114 04DB     		blt	.L92
 1175              	.LVL126:
 1176              	.L80:
 549:lvgl/src/extra/layouts/grid/lv_grid.c ****     int32_t last_fr_x = 0;
 1177              		.loc 1 549 5 is_stmt 1 view .LVU335
 550:lvgl/src/extra/layouts/grid/lv_grid.c ****     for(i = 0; i < c->row_num; i++) {
 1178              		.loc 1 550 5 view .LVU336
 551:lvgl/src/extra/layouts/grid/lv_grid.c ****         lv_coord_t x = row_templ[i];
 1179              		.loc 1 551 5 view .LVU337
 550:lvgl/src/extra/layouts/grid/lv_grid.c ****     for(i = 0; i < c->row_num; i++) {
 1180              		.loc 1 550 13 is_stmt 0 view .LVU338
 1181 0116 0026     		movs	r6, #0
 1182              	.LVL127:
 549:lvgl/src/extra/layouts/grid/lv_grid.c ****     int32_t last_fr_x = 0;
 1183              		.loc 1 549 13 view .LVU339
 1184 0118 4FF0FF3C 		mov	ip, #-1
 551:lvgl/src/extra/layouts/grid/lv_grid.c ****         lv_coord_t x = row_templ[i];
 1185              		.loc 1 551 11 view .LVU340
ARM GAS  /var/folders/21/t9g5rlb91ys800n5npymflf80000gn/T//cce6JCY2.s 			page 45


 1186 011c 3346     		mov	r3, r6
 551:lvgl/src/extra/layouts/grid/lv_grid.c ****         lv_coord_t x = row_templ[i];
 1187              		.loc 1 551 5 view .LVU341
 1188 011e 02E0     		b	.L81
 1189              	.LVL128:
 1190              	.L92:
 547:lvgl/src/extra/layouts/grid/lv_grid.c **** 
 1191              		.loc 1 547 27 view .LVU342
 1192 0120 0021     		movs	r1, #0
 1193              	.LVL129:
 547:lvgl/src/extra/layouts/grid/lv_grid.c **** 
 1194              		.loc 1 547 27 view .LVU343
 1195 0122 F8E7     		b	.L80
 1196              	.LVL130:
 1197              	.L82:
 551:lvgl/src/extra/layouts/grid/lv_grid.c ****         lv_coord_t x = row_templ[i];
 1198              		.loc 1 551 33 is_stmt 1 discriminator 2 view .LVU344
 1199 0124 0133     		adds	r3, r3, #1
 1200              	.LVL131:
 1201              	.L81:
 551:lvgl/src/extra/layouts/grid/lv_grid.c ****         lv_coord_t x = row_templ[i];
 1202              		.loc 1 551 18 discriminator 1 view .LVU345
 551:lvgl/src/extra/layouts/grid/lv_grid.c ****         lv_coord_t x = row_templ[i];
 1203              		.loc 1 551 21 is_stmt 0 discriminator 1 view .LVU346
 1204 0126 6269     		ldr	r2, [r4, #20]
 551:lvgl/src/extra/layouts/grid/lv_grid.c ****         lv_coord_t x = row_templ[i];
 1205              		.loc 1 551 18 discriminator 1 view .LVU347
 1206 0128 9A42     		cmp	r2, r3
 1207 012a 12D9     		bls	.L93
 1208              	.LBB102:
 552:lvgl/src/extra/layouts/grid/lv_grid.c ****         if(IS_FR(x)) {
 1209              		.loc 1 552 9 is_stmt 1 view .LVU348
 552:lvgl/src/extra/layouts/grid/lv_grid.c ****         if(IS_FR(x)) {
 1210              		.loc 1 552 20 is_stmt 0 view .LVU349
 1211 012c 37F91320 		ldrsh	r2, [r7, r3, lsl #1]
 1212              	.LVL132:
 553:lvgl/src/extra/layouts/grid/lv_grid.c ****             lv_coord_t f = GET_FR(x);
 1213              		.loc 1 553 9 is_stmt 1 view .LVU350
 553:lvgl/src/extra/layouts/grid/lv_grid.c ****             lv_coord_t f = GET_FR(x);
 1214              		.loc 1 553 11 is_stmt 0 view .LVU351
 1215 0130 41F69A70 		movw	r0, #8090
 1216 0134 8242     		cmp	r2, r0
 1217 0136 F5DD     		ble	.L82
 1218              	.LBB103:
 554:lvgl/src/extra/layouts/grid/lv_grid.c ****             c->h[i] = (free_h * f) / row_fr_cnt;
 1219              		.loc 1 554 13 is_stmt 1 view .LVU352
 554:lvgl/src/extra/layouts/grid/lv_grid.c ****             c->h[i] = (free_h * f) / row_fr_cnt;
 1220              		.loc 1 554 28 is_stmt 0 view .LVU353
 1221 0138 A2F5FC52 		sub	r2, r2, #8064
 1222              	.LVL133:
 554:lvgl/src/extra/layouts/grid/lv_grid.c ****             c->h[i] = (free_h * f) / row_fr_cnt;
 1223              		.loc 1 554 28 view .LVU354
 1224 013c 1B3A     		subs	r2, r2, #27
 1225              	.LVL134:
 554:lvgl/src/extra/layouts/grid/lv_grid.c ****             c->h[i] = (free_h * f) / row_fr_cnt;
 1226              		.loc 1 554 24 view .LVU355
 1227 013e 16B2     		sxth	r6, r2
ARM GAS  /var/folders/21/t9g5rlb91ys800n5npymflf80000gn/T//cce6JCY2.s 			page 46


 1228              	.LVL135:
 555:lvgl/src/extra/layouts/grid/lv_grid.c ****             last_fr_i = i;
 1229              		.loc 1 555 13 is_stmt 1 view .LVU356
 555:lvgl/src/extra/layouts/grid/lv_grid.c ****             last_fr_i = i;
 1230              		.loc 1 555 31 is_stmt 0 view .LVU357
 1231 0140 06FB01F2 		mul	r2, r6, r1
 1232              	.LVL136:
 555:lvgl/src/extra/layouts/grid/lv_grid.c ****             last_fr_i = i;
 1233              		.loc 1 555 36 view .LVU358
 1234 0144 B2FBF5F2 		udiv	r2, r2, r5
 555:lvgl/src/extra/layouts/grid/lv_grid.c ****             last_fr_i = i;
 1235              		.loc 1 555 14 view .LVU359
 1236 0148 E068     		ldr	r0, [r4, #12]
 555:lvgl/src/extra/layouts/grid/lv_grid.c ****             last_fr_i = i;
 1237              		.loc 1 555 21 view .LVU360
 1238 014a 20F81320 		strh	r2, [r0, r3, lsl #1]	@ movhi
 1239              	.LVL137:
 556:lvgl/src/extra/layouts/grid/lv_grid.c ****             last_fr_x = f;
 1240              		.loc 1 556 13 is_stmt 1 view .LVU361
 556:lvgl/src/extra/layouts/grid/lv_grid.c ****             last_fr_x = f;
 1241              		.loc 1 556 23 is_stmt 0 view .LVU362
 1242 014e 9C46     		mov	ip, r3
 1243              	.LVL138:
 557:lvgl/src/extra/layouts/grid/lv_grid.c ****         }
 1244              		.loc 1 557 13 is_stmt 1 view .LVU363
 557:lvgl/src/extra/layouts/grid/lv_grid.c ****         }
 1245              		.loc 1 557 13 is_stmt 0 view .LVU364
 1246 0150 E8E7     		b	.L82
 1247              	.LVL139:
 1248              	.L93:
 557:lvgl/src/extra/layouts/grid/lv_grid.c ****         }
 1249              		.loc 1 557 13 view .LVU365
 1250              	.LBE103:
 1251              	.LBE102:
 562:lvgl/src/extra/layouts/grid/lv_grid.c ****         c->h[last_fr_i] = free_h - ((free_h * (row_fr_cnt - last_fr_x)) / row_fr_cnt);
 1252              		.loc 1 562 5 is_stmt 1 view .LVU366
 562:lvgl/src/extra/layouts/grid/lv_grid.c ****         c->h[last_fr_i] = free_h - ((free_h * (row_fr_cnt - last_fr_x)) / row_fr_cnt);
 1253              		.loc 1 562 7 is_stmt 0 view .LVU367
 1254 0152 BCF1000F 		cmp	ip, #0
 1255 0156 08DB     		blt	.L67
 563:lvgl/src/extra/layouts/grid/lv_grid.c ****     }
 1256              		.loc 1 563 9 is_stmt 1 view .LVU368
 563:lvgl/src/extra/layouts/grid/lv_grid.c ****     }
 1257              		.loc 1 563 59 is_stmt 0 view .LVU369
 1258 0158 AB1B     		subs	r3, r5, r6
 1259              	.LVL140:
 563:lvgl/src/extra/layouts/grid/lv_grid.c ****     }
 1260              		.loc 1 563 45 view .LVU370
 1261 015a 01FB03F3 		mul	r3, r1, r3
 563:lvgl/src/extra/layouts/grid/lv_grid.c ****     }
 1262              		.loc 1 563 73 view .LVU371
 1263 015e B3FBF5F3 		udiv	r3, r3, r5
 563:lvgl/src/extra/layouts/grid/lv_grid.c ****     }
 1264              		.loc 1 563 10 view .LVU372
 1265 0162 E268     		ldr	r2, [r4, #12]
 563:lvgl/src/extra/layouts/grid/lv_grid.c ****     }
 1266              		.loc 1 563 34 view .LVU373
ARM GAS  /var/folders/21/t9g5rlb91ys800n5npymflf80000gn/T//cce6JCY2.s 			page 47


 1267 0164 C91A     		subs	r1, r1, r3
 1268              	.LVL141:
 563:lvgl/src/extra/layouts/grid/lv_grid.c ****     }
 1269              		.loc 1 563 25 view .LVU374
 1270 0166 22F81C10 		strh	r1, [r2, ip, lsl #1]	@ movhi
 1271              	.L67:
 565:lvgl/src/extra/layouts/grid/lv_grid.c **** 
 1272              		.loc 1 565 1 view .LVU375
 1273 016a BDE8F88F 		pop	{r3, r4, r5, r6, r7, r8, r9, r10, fp, pc}
 1274              	.LVL142:
 1275              	.L95:
 565:lvgl/src/extra/layouts/grid/lv_grid.c **** 
 1276              		.loc 1 565 1 view .LVU376
 1277 016e 00BF     		.align	2
 1278              	.L94:
 1279 0170 01000600 		.word	393217
 1280 0174 01E0FFFF 		.word	-8191
 1281              		.cfi_endproc
 1282              	.LFE215:
 1284              		.section	.text.calc_cols,"ax",%progbits
 1285              		.align	1
 1286              		.syntax unified
 1287              		.thumb
 1288              		.thumb_func
 1290              	calc_cols:
 1291              	.LVL143:
 1292              	.LFB214:
 427:lvgl/src/extra/layouts/grid/lv_grid.c ****     const lv_coord_t * col_templ = get_col_dsc(cont);
 1293              		.loc 1 427 1 is_stmt 1 view -0
 1294              		.cfi_startproc
 1295              		@ args = 0, pretend = 0, frame = 8
 1296              		@ frame_needed = 0, uses_anonymous_args = 0
 427:lvgl/src/extra/layouts/grid/lv_grid.c ****     const lv_coord_t * col_templ = get_col_dsc(cont);
 1297              		.loc 1 427 1 is_stmt 0 view .LVU378
 1298 0000 2DE9F04F 		push	{r4, r5, r6, r7, r8, r9, r10, fp, lr}
 1299              	.LCFI12:
 1300              		.cfi_def_cfa_offset 36
 1301              		.cfi_offset 4, -36
 1302              		.cfi_offset 5, -32
 1303              		.cfi_offset 6, -28
 1304              		.cfi_offset 7, -24
 1305              		.cfi_offset 8, -20
 1306              		.cfi_offset 9, -16
 1307              		.cfi_offset 10, -12
 1308              		.cfi_offset 11, -8
 1309              		.cfi_offset 14, -4
 1310 0004 83B0     		sub	sp, sp, #12
 1311              	.LCFI13:
 1312              		.cfi_def_cfa_offset 48
 1313 0006 8146     		mov	r9, r0
 1314 0008 0C46     		mov	r4, r1
 428:lvgl/src/extra/layouts/grid/lv_grid.c ****     lv_coord_t cont_w = lv_obj_get_content_width(cont);
 1315              		.loc 1 428 5 is_stmt 1 view .LVU379
 428:lvgl/src/extra/layouts/grid/lv_grid.c ****     lv_coord_t cont_w = lv_obj_get_content_width(cont);
 1316              		.loc 1 428 36 is_stmt 0 view .LVU380
 1317 000a FFF7FEFF 		bl	get_col_dsc
 1318              	.LVL144:
ARM GAS  /var/folders/21/t9g5rlb91ys800n5npymflf80000gn/T//cce6JCY2.s 			page 48


 428:lvgl/src/extra/layouts/grid/lv_grid.c ****     lv_coord_t cont_w = lv_obj_get_content_width(cont);
 1319              		.loc 1 428 36 view .LVU381
 1320 000e 8046     		mov	r8, r0
 1321              	.LVL145:
 429:lvgl/src/extra/layouts/grid/lv_grid.c **** 
 1322              		.loc 1 429 5 is_stmt 1 view .LVU382
 429:lvgl/src/extra/layouts/grid/lv_grid.c **** 
 1323              		.loc 1 429 25 is_stmt 0 view .LVU383
 1324 0010 4846     		mov	r0, r9
 1325              	.LVL146:
 429:lvgl/src/extra/layouts/grid/lv_grid.c **** 
 1326              		.loc 1 429 25 view .LVU384
 1327 0012 FFF7FEFF 		bl	lv_obj_get_content_width
 1328              	.LVL147:
 1329 0016 0190     		str	r0, [sp, #4]
 1330              	.LVL148:
 431:lvgl/src/extra/layouts/grid/lv_grid.c ****     c->x = lv_mem_buf_get(sizeof(lv_coord_t) * c->col_num);
 1331              		.loc 1 431 5 is_stmt 1 view .LVU385
 431:lvgl/src/extra/layouts/grid/lv_grid.c ****     c->x = lv_mem_buf_get(sizeof(lv_coord_t) * c->col_num);
 1332              		.loc 1 431 18 is_stmt 0 view .LVU386
 1333 0018 4046     		mov	r0, r8
 1334 001a FFF7FEFF 		bl	count_tracks
 1335              	.LVL149:
 431:lvgl/src/extra/layouts/grid/lv_grid.c ****     c->x = lv_mem_buf_get(sizeof(lv_coord_t) * c->col_num);
 1336              		.loc 1 431 16 view .LVU387
 1337 001e 2061     		str	r0, [r4, #16]
 432:lvgl/src/extra/layouts/grid/lv_grid.c ****     c->w = lv_mem_buf_get(sizeof(lv_coord_t) * c->col_num);
 1338              		.loc 1 432 5 is_stmt 1 view .LVU388
 432:lvgl/src/extra/layouts/grid/lv_grid.c ****     c->w = lv_mem_buf_get(sizeof(lv_coord_t) * c->col_num);
 1339              		.loc 1 432 12 is_stmt 0 view .LVU389
 1340 0020 4000     		lsls	r0, r0, #1
 1341 0022 FFF7FEFF 		bl	lv_mem_buf_get
 1342              	.LVL150:
 432:lvgl/src/extra/layouts/grid/lv_grid.c ****     c->w = lv_mem_buf_get(sizeof(lv_coord_t) * c->col_num);
 1343              		.loc 1 432 10 view .LVU390
 1344 0026 2060     		str	r0, [r4]
 433:lvgl/src/extra/layouts/grid/lv_grid.c **** 
 1345              		.loc 1 433 5 is_stmt 1 view .LVU391
 433:lvgl/src/extra/layouts/grid/lv_grid.c **** 
 1346              		.loc 1 433 49 is_stmt 0 view .LVU392
 1347 0028 2069     		ldr	r0, [r4, #16]
 433:lvgl/src/extra/layouts/grid/lv_grid.c **** 
 1348              		.loc 1 433 12 view .LVU393
 1349 002a 4000     		lsls	r0, r0, #1
 1350 002c FFF7FEFF 		bl	lv_mem_buf_get
 1351              	.LVL151:
 433:lvgl/src/extra/layouts/grid/lv_grid.c **** 
 1352              		.loc 1 433 10 view .LVU394
 1353 0030 A060     		str	r0, [r4, #8]
 436:lvgl/src/extra/layouts/grid/lv_grid.c ****     for(i = 0; i < c->col_num; i++) {
 1354              		.loc 1 436 5 is_stmt 1 view .LVU395
 437:lvgl/src/extra/layouts/grid/lv_grid.c ****         lv_coord_t size = LV_COORD_MIN;
 1355              		.loc 1 437 5 view .LVU396
 1356              	.LVL152:
 437:lvgl/src/extra/layouts/grid/lv_grid.c ****         lv_coord_t size = LV_COORD_MIN;
 1357              		.loc 1 437 11 is_stmt 0 view .LVU397
 1358 0032 0026     		movs	r6, #0
ARM GAS  /var/folders/21/t9g5rlb91ys800n5npymflf80000gn/T//cce6JCY2.s 			page 49


 437:lvgl/src/extra/layouts/grid/lv_grid.c ****         lv_coord_t size = LV_COORD_MIN;
 1359              		.loc 1 437 5 view .LVU398
 1360 0034 2AE0     		b	.L97
 1361              	.LVL153:
 1362              	.L100:
 1363              	.LBB104:
 1364              	.LBB105:
 442:lvgl/src/extra/layouts/grid/lv_grid.c ****                 lv_obj_t * item = lv_obj_get_child(cont, ci);
 1365              		.loc 1 442 60 is_stmt 1 discriminator 2 view .LVU399
 1366 0036 0135     		adds	r5, r5, #1
 1367              	.LVL154:
 1368              	.L98:
 442:lvgl/src/extra/layouts/grid/lv_grid.c ****                 lv_obj_t * item = lv_obj_get_child(cont, ci);
 1369              		.loc 1 442 28 discriminator 1 view .LVU400
 442:lvgl/src/extra/layouts/grid/lv_grid.c ****                 lv_obj_t * item = lv_obj_get_child(cont, ci);
 1370              		.loc 1 442 30 is_stmt 0 discriminator 1 view .LVU401
 1371 0038 4846     		mov	r0, r9
 1372 003a FFF7FEFF 		bl	lv_obj_get_child_cnt
 1373              	.LVL155:
 442:lvgl/src/extra/layouts/grid/lv_grid.c ****                 lv_obj_t * item = lv_obj_get_child(cont, ci);
 1374              		.loc 1 442 28 discriminator 1 view .LVU402
 1375 003e A842     		cmp	r0, r5
 1376 0040 1DD9     		bls	.L117
 1377              	.LBB106:
 443:lvgl/src/extra/layouts/grid/lv_grid.c ****                 if(lv_obj_has_flag_any(item, LV_OBJ_FLAG_IGNORE_LAYOUT | LV_OBJ_FLAG_HIDDEN | LV_OB
 1378              		.loc 1 443 17 is_stmt 1 view .LVU403
 443:lvgl/src/extra/layouts/grid/lv_grid.c ****                 if(lv_obj_has_flag_any(item, LV_OBJ_FLAG_IGNORE_LAYOUT | LV_OBJ_FLAG_HIDDEN | LV_OB
 1379              		.loc 1 443 35 is_stmt 0 view .LVU404
 1380 0042 2946     		mov	r1, r5
 1381 0044 4846     		mov	r0, r9
 1382 0046 FFF7FEFF 		bl	lv_obj_get_child
 1383              	.LVL156:
 1384 004a 0746     		mov	r7, r0
 1385              	.LVL157:
 444:lvgl/src/extra/layouts/grid/lv_grid.c ****                 uint32_t col_span = get_col_span(item);
 1386              		.loc 1 444 17 is_stmt 1 view .LVU405
 444:lvgl/src/extra/layouts/grid/lv_grid.c ****                 uint32_t col_span = get_col_span(item);
 1387              		.loc 1 444 20 is_stmt 0 view .LVU406
 1388 004c 4849     		ldr	r1, .L123
 1389 004e FFF7FEFF 		bl	lv_obj_has_flag_any
 1390              	.LVL158:
 444:lvgl/src/extra/layouts/grid/lv_grid.c ****                 uint32_t col_span = get_col_span(item);
 1391              		.loc 1 444 19 view .LVU407
 1392 0052 0028     		cmp	r0, #0
 1393 0054 EFD1     		bne	.L100
 445:lvgl/src/extra/layouts/grid/lv_grid.c ****                 if(col_span != 1) continue;
 1394              		.loc 1 445 17 is_stmt 1 view .LVU408
 445:lvgl/src/extra/layouts/grid/lv_grid.c ****                 if(col_span != 1) continue;
 1395              		.loc 1 445 37 is_stmt 0 view .LVU409
 1396 0056 3846     		mov	r0, r7
 1397 0058 FFF7FEFF 		bl	get_col_span
 1398              	.LVL159:
 446:lvgl/src/extra/layouts/grid/lv_grid.c **** 
 1399              		.loc 1 446 17 is_stmt 1 view .LVU410
 446:lvgl/src/extra/layouts/grid/lv_grid.c **** 
 1400              		.loc 1 446 19 is_stmt 0 view .LVU411
 1401 005c 0128     		cmp	r0, #1
ARM GAS  /var/folders/21/t9g5rlb91ys800n5npymflf80000gn/T//cce6JCY2.s 			page 50


 1402 005e EAD1     		bne	.L100
 448:lvgl/src/extra/layouts/grid/lv_grid.c ****                 if(col_pos != i) continue;
 1403              		.loc 1 448 17 is_stmt 1 view .LVU412
 448:lvgl/src/extra/layouts/grid/lv_grid.c ****                 if(col_pos != i) continue;
 1404              		.loc 1 448 36 is_stmt 0 view .LVU413
 1405 0060 3846     		mov	r0, r7
 1406              	.LVL160:
 448:lvgl/src/extra/layouts/grid/lv_grid.c ****                 if(col_pos != i) continue;
 1407              		.loc 1 448 36 view .LVU414
 1408 0062 FFF7FEFF 		bl	get_col_pos
 1409              	.LVL161:
 449:lvgl/src/extra/layouts/grid/lv_grid.c **** 
 1410              		.loc 1 449 17 is_stmt 1 view .LVU415
 449:lvgl/src/extra/layouts/grid/lv_grid.c **** 
 1411              		.loc 1 449 19 is_stmt 0 view .LVU416
 1412 0066 8642     		cmp	r6, r0
 1413 0068 E5D1     		bne	.L100
 451:lvgl/src/extra/layouts/grid/lv_grid.c ****             }
 1414              		.loc 1 451 17 is_stmt 1 view .LVU417
 451:lvgl/src/extra/layouts/grid/lv_grid.c ****             }
 1415              		.loc 1 451 24 is_stmt 0 view .LVU418
 1416 006a 3846     		mov	r0, r7
 1417              	.LVL162:
 451:lvgl/src/extra/layouts/grid/lv_grid.c ****             }
 1418              		.loc 1 451 24 view .LVU419
 1419 006c FFF7FEFF 		bl	lv_obj_get_width
 1420              	.LVL163:
 451:lvgl/src/extra/layouts/grid/lv_grid.c ****             }
 1421              		.loc 1 451 22 view .LVU420
 1422 0070 5845     		cmp	r0, fp
 1423 0072 E0DB     		blt	.L100
 451:lvgl/src/extra/layouts/grid/lv_grid.c ****             }
 1424              		.loc 1 451 24 discriminator 1 view .LVU421
 1425 0074 3846     		mov	r0, r7
 1426 0076 FFF7FEFF 		bl	lv_obj_get_width
 1427              	.LVL164:
 1428 007a 8346     		mov	fp, r0
 1429              	.LVL165:
 451:lvgl/src/extra/layouts/grid/lv_grid.c ****             }
 1430              		.loc 1 451 24 discriminator 1 view .LVU422
 1431 007c DBE7     		b	.L100
 1432              	.LVL166:
 1433              	.L117:
 451:lvgl/src/extra/layouts/grid/lv_grid.c ****             }
 1434              		.loc 1 451 24 discriminator 1 view .LVU423
 1435              	.LBE106:
 453:lvgl/src/extra/layouts/grid/lv_grid.c ****             else c->w[i] = 0;
 1436              		.loc 1 453 13 is_stmt 1 view .LVU424
 453:lvgl/src/extra/layouts/grid/lv_grid.c ****             else c->w[i] = 0;
 1437              		.loc 1 453 15 is_stmt 0 view .LVU425
 1438 007e BBF1000F 		cmp	fp, #0
 1439 0082 12DB     		blt	.L102
 453:lvgl/src/extra/layouts/grid/lv_grid.c ****             else c->w[i] = 0;
 1440              		.loc 1 453 27 is_stmt 1 discriminator 1 view .LVU426
 453:lvgl/src/extra/layouts/grid/lv_grid.c ****             else c->w[i] = 0;
 1441              		.loc 1 453 28 is_stmt 0 discriminator 1 view .LVU427
 1442 0084 A368     		ldr	r3, [r4, #8]
ARM GAS  /var/folders/21/t9g5rlb91ys800n5npymflf80000gn/T//cce6JCY2.s 			page 51


 453:lvgl/src/extra/layouts/grid/lv_grid.c ****             else c->w[i] = 0;
 1443              		.loc 1 453 35 discriminator 1 view .LVU428
 1444 0086 23F80AB0 		strh	fp, [r3, r10]	@ movhi
 1445              	.LVL167:
 1446              	.L99:
 453:lvgl/src/extra/layouts/grid/lv_grid.c ****             else c->w[i] = 0;
 1447              		.loc 1 453 35 discriminator 1 view .LVU429
 1448              	.LBE105:
 1449              	.LBE104:
 437:lvgl/src/extra/layouts/grid/lv_grid.c ****         lv_coord_t size = LV_COORD_MIN;
 1450              		.loc 1 437 33 is_stmt 1 discriminator 2 view .LVU430
 1451 008a 0136     		adds	r6, r6, #1
 1452              	.LVL168:
 1453              	.L97:
 437:lvgl/src/extra/layouts/grid/lv_grid.c ****         lv_coord_t size = LV_COORD_MIN;
 1454              		.loc 1 437 18 discriminator 1 view .LVU431
 437:lvgl/src/extra/layouts/grid/lv_grid.c ****         lv_coord_t size = LV_COORD_MIN;
 1455              		.loc 1 437 21 is_stmt 0 discriminator 1 view .LVU432
 1456 008c 2369     		ldr	r3, [r4, #16]
 437:lvgl/src/extra/layouts/grid/lv_grid.c ****         lv_coord_t size = LV_COORD_MIN;
 1457              		.loc 1 437 18 discriminator 1 view .LVU433
 1458 008e B342     		cmp	r3, r6
 1459 0090 10D9     		bls	.L118
 1460              	.LBB109:
 438:lvgl/src/extra/layouts/grid/lv_grid.c ****         if(IS_CONTENT(col_templ[i])) {
 1461              		.loc 1 438 9 is_stmt 1 view .LVU434
 1462              	.LVL169:
 439:lvgl/src/extra/layouts/grid/lv_grid.c ****             /*Check the size of children of this cell*/
 1463              		.loc 1 439 9 view .LVU435
 439:lvgl/src/extra/layouts/grid/lv_grid.c ****             /*Check the size of children of this cell*/
 1464              		.loc 1 439 12 is_stmt 0 view .LVU436
 1465 0092 4FEA460A 		lsl	r10, r6, #1
 1466 0096 38F91620 		ldrsh	r2, [r8, r6, lsl #1]
 439:lvgl/src/extra/layouts/grid/lv_grid.c ****             /*Check the size of children of this cell*/
 1467              		.loc 1 439 11 view .LVU437
 1468 009a 41F69A73 		movw	r3, #8090
 1469 009e 9A42     		cmp	r2, r3
 1470 00a0 F3D1     		bne	.L99
 1471              	.LBB107:
 442:lvgl/src/extra/layouts/grid/lv_grid.c ****                 lv_obj_t * item = lv_obj_get_child(cont, ci);
 1472              		.loc 1 442 20 view .LVU438
 1473 00a2 0025     		movs	r5, #0
 1474              	.LBE107:
 438:lvgl/src/extra/layouts/grid/lv_grid.c ****         if(IS_CONTENT(col_templ[i])) {
 1475              		.loc 1 438 20 view .LVU439
 1476 00a4 DFF8CCB0 		ldr	fp, .L123+4
 1477 00a8 C6E7     		b	.L98
 1478              	.LVL170:
 1479              	.L102:
 1480              	.LBB108:
 454:lvgl/src/extra/layouts/grid/lv_grid.c ****         }
 1481              		.loc 1 454 18 is_stmt 1 view .LVU440
 454:lvgl/src/extra/layouts/grid/lv_grid.c ****         }
 1482              		.loc 1 454 19 is_stmt 0 view .LVU441
 1483 00aa A368     		ldr	r3, [r4, #8]
 454:lvgl/src/extra/layouts/grid/lv_grid.c ****         }
 1484              		.loc 1 454 26 view .LVU442
ARM GAS  /var/folders/21/t9g5rlb91ys800n5npymflf80000gn/T//cce6JCY2.s 			page 52


 1485 00ac 0022     		movs	r2, #0
 1486 00ae 23F80A20 		strh	r2, [r3, r10]	@ movhi
 1487 00b2 EAE7     		b	.L99
 1488              	.LVL171:
 1489              	.L118:
 454:lvgl/src/extra/layouts/grid/lv_grid.c ****         }
 1490              		.loc 1 454 26 view .LVU443
 1491              	.LBE108:
 1492              	.LBE109:
 459:lvgl/src/extra/layouts/grid/lv_grid.c **** 
 1493              		.loc 1 459 16 view .LVU444
 1494 00b4 0026     		movs	r6, #0
 1495              	.LVL172:
 458:lvgl/src/extra/layouts/grid/lv_grid.c ****     lv_coord_t grid_w = 0;
 1496              		.loc 1 458 14 view .LVU445
 1497 00b6 3546     		mov	r5, r6
 461:lvgl/src/extra/layouts/grid/lv_grid.c ****         lv_coord_t x = col_templ[i];
 1498              		.loc 1 461 11 view .LVU446
 1499 00b8 3246     		mov	r2, r6
 1500 00ba 08E0     		b	.L104
 1501              	.LVL173:
 1502              	.L105:
 1503              	.LBB110:
 466:lvgl/src/extra/layouts/grid/lv_grid.c ****             grid_w += c->w[i];
 1504              		.loc 1 466 14 is_stmt 1 view .LVU447
 466:lvgl/src/extra/layouts/grid/lv_grid.c ****             grid_w += c->w[i];
 1505              		.loc 1 466 16 is_stmt 0 view .LVU448
 1506 00bc 41F69A71 		movw	r1, #8090
 1507 00c0 8B42     		cmp	r3, r1
 1508 00c2 13D0     		beq	.L119
 470:lvgl/src/extra/layouts/grid/lv_grid.c ****             grid_w += x;
 1509              		.loc 1 470 13 is_stmt 1 view .LVU449
 470:lvgl/src/extra/layouts/grid/lv_grid.c ****             grid_w += x;
 1510              		.loc 1 470 14 is_stmt 0 view .LVU450
 1511 00c4 A168     		ldr	r1, [r4, #8]
 470:lvgl/src/extra/layouts/grid/lv_grid.c ****             grid_w += x;
 1512              		.loc 1 470 21 view .LVU451
 1513 00c6 0B52     		strh	r3, [r1, r0]	@ movhi
 471:lvgl/src/extra/layouts/grid/lv_grid.c ****         }
 1514              		.loc 1 471 13 is_stmt 1 view .LVU452
 471:lvgl/src/extra/layouts/grid/lv_grid.c ****         }
 1515              		.loc 1 471 20 is_stmt 0 view .LVU453
 1516 00c8 3344     		add	r3, r3, r6
 1517              	.LVL174:
 471:lvgl/src/extra/layouts/grid/lv_grid.c ****         }
 1518              		.loc 1 471 20 view .LVU454
 1519 00ca 1EB2     		sxth	r6, r3
 1520              	.LVL175:
 1521              	.L106:
 471:lvgl/src/extra/layouts/grid/lv_grid.c ****         }
 1522              		.loc 1 471 20 view .LVU455
 1523              	.LBE110:
 461:lvgl/src/extra/layouts/grid/lv_grid.c ****         lv_coord_t x = col_templ[i];
 1524              		.loc 1 461 33 is_stmt 1 discriminator 2 view .LVU456
 1525 00cc 0132     		adds	r2, r2, #1
 1526              	.LVL176:
 1527              	.L104:
ARM GAS  /var/folders/21/t9g5rlb91ys800n5npymflf80000gn/T//cce6JCY2.s 			page 53


 461:lvgl/src/extra/layouts/grid/lv_grid.c ****         lv_coord_t x = col_templ[i];
 1528              		.loc 1 461 18 discriminator 1 view .LVU457
 461:lvgl/src/extra/layouts/grid/lv_grid.c ****         lv_coord_t x = col_templ[i];
 1529              		.loc 1 461 21 is_stmt 0 discriminator 1 view .LVU458
 1530 00ce 2369     		ldr	r3, [r4, #16]
 461:lvgl/src/extra/layouts/grid/lv_grid.c ****         lv_coord_t x = col_templ[i];
 1531              		.loc 1 461 18 discriminator 1 view .LVU459
 1532 00d0 9342     		cmp	r3, r2
 1533 00d2 10D9     		bls	.L120
 1534              	.LBB111:
 462:lvgl/src/extra/layouts/grid/lv_grid.c ****         if(IS_FR(x)) {
 1535              		.loc 1 462 9 is_stmt 1 view .LVU460
 462:lvgl/src/extra/layouts/grid/lv_grid.c ****         if(IS_FR(x)) {
 1536              		.loc 1 462 33 is_stmt 0 view .LVU461
 1537 00d4 5000     		lsls	r0, r2, #1
 462:lvgl/src/extra/layouts/grid/lv_grid.c ****         if(IS_FR(x)) {
 1538              		.loc 1 462 20 view .LVU462
 1539 00d6 38F91230 		ldrsh	r3, [r8, r2, lsl #1]
 1540              	.LVL177:
 463:lvgl/src/extra/layouts/grid/lv_grid.c ****             col_fr_cnt += GET_FR(x);
 1541              		.loc 1 463 9 is_stmt 1 view .LVU463
 463:lvgl/src/extra/layouts/grid/lv_grid.c ****             col_fr_cnt += GET_FR(x);
 1542              		.loc 1 463 11 is_stmt 0 view .LVU464
 1543 00da 41F69A71 		movw	r1, #8090
 1544 00de 8B42     		cmp	r3, r1
 1545 00e0 ECDD     		ble	.L105
 464:lvgl/src/extra/layouts/grid/lv_grid.c ****         }
 1546              		.loc 1 464 13 is_stmt 1 view .LVU465
 464:lvgl/src/extra/layouts/grid/lv_grid.c ****         }
 1547              		.loc 1 464 24 is_stmt 0 view .LVU466
 1548 00e2 2B44     		add	r3, r3, r5
 1549              	.LVL178:
 464:lvgl/src/extra/layouts/grid/lv_grid.c ****         }
 1550              		.loc 1 464 24 view .LVU467
 1551 00e4 A3F5FC55 		sub	r5, r3, #8064
 1552              	.LVL179:
 464:lvgl/src/extra/layouts/grid/lv_grid.c ****         }
 1553              		.loc 1 464 24 view .LVU468
 1554 00e8 1B3D     		subs	r5, r5, #27
 1555              	.LVL180:
 464:lvgl/src/extra/layouts/grid/lv_grid.c ****         }
 1556              		.loc 1 464 24 view .LVU469
 1557 00ea EFE7     		b	.L106
 1558              	.LVL181:
 1559              	.L119:
 467:lvgl/src/extra/layouts/grid/lv_grid.c ****         }
 1560              		.loc 1 467 13 is_stmt 1 view .LVU470
 467:lvgl/src/extra/layouts/grid/lv_grid.c ****         }
 1561              		.loc 1 467 24 is_stmt 0 view .LVU471
 1562 00ec A368     		ldr	r3, [r4, #8]
 1563              	.LVL182:
 467:lvgl/src/extra/layouts/grid/lv_grid.c ****         }
 1564              		.loc 1 467 27 view .LVU472
 1565 00ee 1B5A     		ldrh	r3, [r3, r0]
 467:lvgl/src/extra/layouts/grid/lv_grid.c ****         }
 1566              		.loc 1 467 20 view .LVU473
 1567 00f0 3344     		add	r3, r3, r6
ARM GAS  /var/folders/21/t9g5rlb91ys800n5npymflf80000gn/T//cce6JCY2.s 			page 54


 1568 00f2 1EB2     		sxth	r6, r3
 1569              	.LVL183:
 467:lvgl/src/extra/layouts/grid/lv_grid.c ****         }
 1570              		.loc 1 467 20 view .LVU474
 1571 00f4 EAE7     		b	.L106
 1572              	.LVL184:
 1573              	.L120:
 467:lvgl/src/extra/layouts/grid/lv_grid.c ****         }
 1574              		.loc 1 467 20 view .LVU475
 1575              	.LBE111:
 475:lvgl/src/extra/layouts/grid/lv_grid.c ****     cont_w -= col_gap * (c->col_num - 1);
 1576              		.loc 1 475 5 is_stmt 1 view .LVU476
 1577              	.LBB112:
 1578              	.LBI112:
 131:lvgl/src/extra/layouts/grid/../flex/../../../core/lv_obj_style_gen.h **** }
 132:lvgl/src/extra/layouts/grid/../flex/../../../core/lv_obj_style_gen.h **** 
 133:lvgl/src/extra/layouts/grid/../flex/../../../core/lv_obj_style_gen.h **** static inline lv_coord_t lv_obj_get_style_pad_column(const struct _lv_obj_t * obj, uint32_t part)
 1579              		.loc 3 133 26 view .LVU477
 1580              	.LBB113:
 134:lvgl/src/extra/layouts/grid/../flex/../../../core/lv_obj_style_gen.h **** {
 135:lvgl/src/extra/layouts/grid/../flex/../../../core/lv_obj_style_gen.h ****     lv_style_value_t v = lv_obj_get_style_prop(obj, part, LV_STYLE_PAD_COLUMN);
 1581              		.loc 3 135 5 view .LVU478
 1582              		.loc 3 135 26 is_stmt 0 view .LVU479
 1583 00f6 1522     		movs	r2, #21
 1584              	.LVL185:
 1585              		.loc 3 135 26 view .LVU480
 1586 00f8 0021     		movs	r1, #0
 1587 00fa 4846     		mov	r0, r9
 1588 00fc FFF7FEFF 		bl	lv_obj_get_style_prop
 1589              	.LVL186:
 136:lvgl/src/extra/layouts/grid/../flex/../../../core/lv_obj_style_gen.h ****     return (lv_coord_t)v.num;
 1590              		.loc 3 136 5 is_stmt 1 view .LVU481
 1591              		.loc 3 136 5 is_stmt 0 view .LVU482
 1592              	.LBE113:
 1593              	.LBE112:
 476:lvgl/src/extra/layouts/grid/lv_grid.c ****     lv_coord_t free_w = cont_w - grid_w;
 1594              		.loc 1 476 5 is_stmt 1 view .LVU483
 476:lvgl/src/extra/layouts/grid/lv_grid.c ****     lv_coord_t free_w = cont_w - grid_w;
 1595              		.loc 1 476 27 is_stmt 0 view .LVU484
 1596 0100 2369     		ldr	r3, [r4, #16]
 476:lvgl/src/extra/layouts/grid/lv_grid.c ****     lv_coord_t free_w = cont_w - grid_w;
 1597              		.loc 1 476 37 view .LVU485
 1598 0102 013B     		subs	r3, r3, #1
 476:lvgl/src/extra/layouts/grid/lv_grid.c ****     lv_coord_t free_w = cont_w - grid_w;
 1599              		.loc 1 476 12 view .LVU486
 1600 0104 10FB03F0 		smulbb	r0, r0, r3
 1601              	.LVL187:
 476:lvgl/src/extra/layouts/grid/lv_grid.c ****     lv_coord_t free_w = cont_w - grid_w;
 1602              		.loc 1 476 12 view .LVU487
 1603 0108 019B     		ldr	r3, [sp, #4]
 1604 010a 191A     		subs	r1, r3, r0
 1605 010c 89B2     		uxth	r1, r1
 1606              	.LVL188:
 477:lvgl/src/extra/layouts/grid/lv_grid.c ****     if(free_w < 0) free_w = 0;
 1607              		.loc 1 477 5 is_stmt 1 view .LVU488
 477:lvgl/src/extra/layouts/grid/lv_grid.c ****     if(free_w < 0) free_w = 0;
 1608              		.loc 1 477 32 is_stmt 0 view .LVU489
ARM GAS  /var/folders/21/t9g5rlb91ys800n5npymflf80000gn/T//cce6JCY2.s 			page 55


 1609 010e 891B     		subs	r1, r1, r6
 1610              	.LVL189:
 477:lvgl/src/extra/layouts/grid/lv_grid.c ****     if(free_w < 0) free_w = 0;
 1611              		.loc 1 477 16 view .LVU490
 1612 0110 09B2     		sxth	r1, r1
 1613              	.LVL190:
 478:lvgl/src/extra/layouts/grid/lv_grid.c **** 
 1614              		.loc 1 478 5 is_stmt 1 view .LVU491
 478:lvgl/src/extra/layouts/grid/lv_grid.c **** 
 1615              		.loc 1 478 7 is_stmt 0 view .LVU492
 1616 0112 0029     		cmp	r1, #0
 1617 0114 04DB     		blt	.L121
 1618              	.LVL191:
 1619              	.L109:
 480:lvgl/src/extra/layouts/grid/lv_grid.c ****     int32_t last_fr_x = 0;
 1620              		.loc 1 480 5 is_stmt 1 view .LVU493
 481:lvgl/src/extra/layouts/grid/lv_grid.c ****     for(i = 0; i < c->col_num; i++) {
 1621              		.loc 1 481 5 view .LVU494
 482:lvgl/src/extra/layouts/grid/lv_grid.c ****         lv_coord_t x = col_templ[i];
 1622              		.loc 1 482 5 view .LVU495
 481:lvgl/src/extra/layouts/grid/lv_grid.c ****     for(i = 0; i < c->col_num; i++) {
 1623              		.loc 1 481 13 is_stmt 0 view .LVU496
 1624 0116 0026     		movs	r6, #0
 1625              	.LVL192:
 480:lvgl/src/extra/layouts/grid/lv_grid.c ****     int32_t last_fr_x = 0;
 1626              		.loc 1 480 13 view .LVU497
 1627 0118 4FF0FF37 		mov	r7, #-1
 482:lvgl/src/extra/layouts/grid/lv_grid.c ****         lv_coord_t x = col_templ[i];
 1628              		.loc 1 482 11 view .LVU498
 1629 011c 3346     		mov	r3, r6
 1630              	.LVL193:
 482:lvgl/src/extra/layouts/grid/lv_grid.c ****         lv_coord_t x = col_templ[i];
 1631              		.loc 1 482 5 view .LVU499
 1632 011e 02E0     		b	.L110
 1633              	.LVL194:
 1634              	.L121:
 478:lvgl/src/extra/layouts/grid/lv_grid.c **** 
 1635              		.loc 1 478 27 view .LVU500
 1636 0120 0021     		movs	r1, #0
 1637              	.LVL195:
 478:lvgl/src/extra/layouts/grid/lv_grid.c **** 
 1638              		.loc 1 478 27 view .LVU501
 1639 0122 F8E7     		b	.L109
 1640              	.LVL196:
 1641              	.L111:
 482:lvgl/src/extra/layouts/grid/lv_grid.c ****         lv_coord_t x = col_templ[i];
 1642              		.loc 1 482 33 is_stmt 1 discriminator 2 view .LVU502
 1643 0124 0133     		adds	r3, r3, #1
 1644              	.LVL197:
 1645              	.L110:
 482:lvgl/src/extra/layouts/grid/lv_grid.c ****         lv_coord_t x = col_templ[i];
 1646              		.loc 1 482 18 discriminator 1 view .LVU503
 482:lvgl/src/extra/layouts/grid/lv_grid.c ****         lv_coord_t x = col_templ[i];
 1647              		.loc 1 482 21 is_stmt 0 discriminator 1 view .LVU504
 1648 0126 2269     		ldr	r2, [r4, #16]
 482:lvgl/src/extra/layouts/grid/lv_grid.c ****         lv_coord_t x = col_templ[i];
 1649              		.loc 1 482 18 discriminator 1 view .LVU505
ARM GAS  /var/folders/21/t9g5rlb91ys800n5npymflf80000gn/T//cce6JCY2.s 			page 56


 1650 0128 9A42     		cmp	r2, r3
 1651 012a 12D9     		bls	.L122
 1652              	.LBB114:
 483:lvgl/src/extra/layouts/grid/lv_grid.c ****         if(IS_FR(x)) {
 1653              		.loc 1 483 9 is_stmt 1 view .LVU506
 483:lvgl/src/extra/layouts/grid/lv_grid.c ****         if(IS_FR(x)) {
 1654              		.loc 1 483 20 is_stmt 0 view .LVU507
 1655 012c 38F91320 		ldrsh	r2, [r8, r3, lsl #1]
 1656              	.LVL198:
 484:lvgl/src/extra/layouts/grid/lv_grid.c ****             lv_coord_t f = GET_FR(x);
 1657              		.loc 1 484 9 is_stmt 1 view .LVU508
 484:lvgl/src/extra/layouts/grid/lv_grid.c ****             lv_coord_t f = GET_FR(x);
 1658              		.loc 1 484 11 is_stmt 0 view .LVU509
 1659 0130 41F69A70 		movw	r0, #8090
 1660 0134 8242     		cmp	r2, r0
 1661 0136 F5DD     		ble	.L111
 1662              	.LBB115:
 485:lvgl/src/extra/layouts/grid/lv_grid.c ****             c->w[i] = (free_w * f) / col_fr_cnt;
 1663              		.loc 1 485 13 is_stmt 1 view .LVU510
 485:lvgl/src/extra/layouts/grid/lv_grid.c ****             c->w[i] = (free_w * f) / col_fr_cnt;
 1664              		.loc 1 485 28 is_stmt 0 view .LVU511
 1665 0138 A2F5FC52 		sub	r2, r2, #8064
 1666              	.LVL199:
 485:lvgl/src/extra/layouts/grid/lv_grid.c ****             c->w[i] = (free_w * f) / col_fr_cnt;
 1667              		.loc 1 485 28 view .LVU512
 1668 013c 1B3A     		subs	r2, r2, #27
 1669              	.LVL200:
 485:lvgl/src/extra/layouts/grid/lv_grid.c ****             c->w[i] = (free_w * f) / col_fr_cnt;
 1670              		.loc 1 485 24 view .LVU513
 1671 013e 16B2     		sxth	r6, r2
 1672              	.LVL201:
 486:lvgl/src/extra/layouts/grid/lv_grid.c ****             last_fr_i = i;
 1673              		.loc 1 486 13 is_stmt 1 view .LVU514
 486:lvgl/src/extra/layouts/grid/lv_grid.c ****             last_fr_i = i;
 1674              		.loc 1 486 31 is_stmt 0 view .LVU515
 1675 0140 06FB01F2 		mul	r2, r6, r1
 1676              	.LVL202:
 486:lvgl/src/extra/layouts/grid/lv_grid.c ****             last_fr_i = i;
 1677              		.loc 1 486 36 view .LVU516
 1678 0144 B2FBF5F2 		udiv	r2, r2, r5
 486:lvgl/src/extra/layouts/grid/lv_grid.c ****             last_fr_i = i;
 1679              		.loc 1 486 14 view .LVU517
 1680 0148 A068     		ldr	r0, [r4, #8]
 486:lvgl/src/extra/layouts/grid/lv_grid.c ****             last_fr_i = i;
 1681              		.loc 1 486 21 view .LVU518
 1682 014a 20F81320 		strh	r2, [r0, r3, lsl #1]	@ movhi
 1683              	.LVL203:
 487:lvgl/src/extra/layouts/grid/lv_grid.c ****             last_fr_x = f;
 1684              		.loc 1 487 13 is_stmt 1 view .LVU519
 487:lvgl/src/extra/layouts/grid/lv_grid.c ****             last_fr_x = f;
 1685              		.loc 1 487 23 is_stmt 0 view .LVU520
 1686 014e 1F46     		mov	r7, r3
 1687              	.LVL204:
 488:lvgl/src/extra/layouts/grid/lv_grid.c ****         }
 1688              		.loc 1 488 13 is_stmt 1 view .LVU521
 488:lvgl/src/extra/layouts/grid/lv_grid.c ****         }
 1689              		.loc 1 488 13 is_stmt 0 view .LVU522
ARM GAS  /var/folders/21/t9g5rlb91ys800n5npymflf80000gn/T//cce6JCY2.s 			page 57


 1690 0150 E8E7     		b	.L111
 1691              	.LVL205:
 1692              	.L122:
 488:lvgl/src/extra/layouts/grid/lv_grid.c ****         }
 1693              		.loc 1 488 13 view .LVU523
 1694              	.LBE115:
 1695              	.LBE114:
 493:lvgl/src/extra/layouts/grid/lv_grid.c ****         c->w[last_fr_i] = free_w - ((free_w * (col_fr_cnt - last_fr_x)) / col_fr_cnt);
 1696              		.loc 1 493 5 is_stmt 1 view .LVU524
 493:lvgl/src/extra/layouts/grid/lv_grid.c ****         c->w[last_fr_i] = free_w - ((free_w * (col_fr_cnt - last_fr_x)) / col_fr_cnt);
 1697              		.loc 1 493 7 is_stmt 0 view .LVU525
 1698 0152 002F     		cmp	r7, #0
 1699 0154 08DB     		blt	.L96
 494:lvgl/src/extra/layouts/grid/lv_grid.c ****     }
 1700              		.loc 1 494 9 is_stmt 1 view .LVU526
 494:lvgl/src/extra/layouts/grid/lv_grid.c ****     }
 1701              		.loc 1 494 59 is_stmt 0 view .LVU527
 1702 0156 AB1B     		subs	r3, r5, r6
 1703              	.LVL206:
 494:lvgl/src/extra/layouts/grid/lv_grid.c ****     }
 1704              		.loc 1 494 45 view .LVU528
 1705 0158 01FB03F3 		mul	r3, r1, r3
 494:lvgl/src/extra/layouts/grid/lv_grid.c ****     }
 1706              		.loc 1 494 73 view .LVU529
 1707 015c B3FBF5F3 		udiv	r3, r3, r5
 494:lvgl/src/extra/layouts/grid/lv_grid.c ****     }
 1708              		.loc 1 494 10 view .LVU530
 1709 0160 A268     		ldr	r2, [r4, #8]
 494:lvgl/src/extra/layouts/grid/lv_grid.c ****     }
 1710              		.loc 1 494 34 view .LVU531
 1711 0162 C91A     		subs	r1, r1, r3
 1712              	.LVL207:
 494:lvgl/src/extra/layouts/grid/lv_grid.c ****     }
 1713              		.loc 1 494 25 view .LVU532
 1714 0164 22F81710 		strh	r1, [r2, r7, lsl #1]	@ movhi
 1715              	.L96:
 496:lvgl/src/extra/layouts/grid/lv_grid.c **** 
 1716              		.loc 1 496 1 view .LVU533
 1717 0168 03B0     		add	sp, sp, #12
 1718              	.LCFI14:
 1719              		.cfi_def_cfa_offset 36
 1720              		@ sp needed
 1721 016a BDE8F08F 		pop	{r4, r5, r6, r7, r8, r9, r10, fp, pc}
 1722              	.LVL208:
 1723              	.L124:
 496:lvgl/src/extra/layouts/grid/lv_grid.c **** 
 1724              		.loc 1 496 1 view .LVU534
 1725 016e 00BF     		.align	2
 1726              	.L123:
 1727 0170 01000600 		.word	393217
 1728 0174 01E0FFFF 		.word	-8191
 1729              		.cfi_endproc
 1730              	.LFE214:
 1732              		.section	.text.calc,"ax",%progbits
 1733              		.align	1
 1734              		.syntax unified
 1735              		.thumb
ARM GAS  /var/folders/21/t9g5rlb91ys800n5npymflf80000gn/T//cce6JCY2.s 			page 58


 1736              		.thumb_func
 1738              	calc:
 1739              	.LVL209:
 1740              	.LFB212:
 385:lvgl/src/extra/layouts/grid/lv_grid.c ****     if(lv_obj_get_child(cont, 0) == NULL) {
 1741              		.loc 1 385 1 is_stmt 1 view -0
 1742              		.cfi_startproc
 1743              		@ args = 0, pretend = 0, frame = 0
 1744              		@ frame_needed = 0, uses_anonymous_args = 0
 385:lvgl/src/extra/layouts/grid/lv_grid.c ****     if(lv_obj_get_child(cont, 0) == NULL) {
 1745              		.loc 1 385 1 is_stmt 0 view .LVU536
 1746 0000 2DE9F04F 		push	{r4, r5, r6, r7, r8, r9, r10, fp, lr}
 1747              	.LCFI15:
 1748              		.cfi_def_cfa_offset 36
 1749              		.cfi_offset 4, -36
 1750              		.cfi_offset 5, -32
 1751              		.cfi_offset 6, -28
 1752              		.cfi_offset 7, -24
 1753              		.cfi_offset 8, -20
 1754              		.cfi_offset 9, -16
 1755              		.cfi_offset 10, -12
 1756              		.cfi_offset 11, -8
 1757              		.cfi_offset 14, -4
 1758 0004 85B0     		sub	sp, sp, #20
 1759              	.LCFI16:
 1760              		.cfi_def_cfa_offset 56
 1761 0006 0446     		mov	r4, r0
 1762 0008 0D46     		mov	r5, r1
 386:lvgl/src/extra/layouts/grid/lv_grid.c ****         lv_memset_00(calc_out, sizeof(_lv_grid_calc_t));
 1763              		.loc 1 386 5 is_stmt 1 view .LVU537
 386:lvgl/src/extra/layouts/grid/lv_grid.c ****         lv_memset_00(calc_out, sizeof(_lv_grid_calc_t));
 1764              		.loc 1 386 8 is_stmt 0 view .LVU538
 1765 000a 0021     		movs	r1, #0
 1766              	.LVL210:
 386:lvgl/src/extra/layouts/grid/lv_grid.c ****         lv_memset_00(calc_out, sizeof(_lv_grid_calc_t));
 1767              		.loc 1 386 8 view .LVU539
 1768 000c FFF7FEFF 		bl	lv_obj_get_child
 1769              	.LVL211:
 386:lvgl/src/extra/layouts/grid/lv_grid.c ****         lv_memset_00(calc_out, sizeof(_lv_grid_calc_t));
 1770              		.loc 1 386 7 view .LVU540
 1771 0010 0028     		cmp	r0, #0
 1772 0012 66D0     		beq	.L135
 391:lvgl/src/extra/layouts/grid/lv_grid.c ****     calc_cols(cont, calc_out);
 1773              		.loc 1 391 5 is_stmt 1 view .LVU541
 1774 0014 2946     		mov	r1, r5
 1775 0016 2046     		mov	r0, r4
 1776 0018 FFF7FEFF 		bl	calc_rows
 1777              	.LVL212:
 392:lvgl/src/extra/layouts/grid/lv_grid.c **** 
 1778              		.loc 1 392 5 view .LVU542
 1779 001c 2946     		mov	r1, r5
 1780 001e 2046     		mov	r0, r4
 1781 0020 FFF7FEFF 		bl	calc_cols
 1782              	.LVL213:
 394:lvgl/src/extra/layouts/grid/lv_grid.c ****     lv_coord_t row_gap = lv_obj_get_style_pad_row(cont, LV_PART_MAIN);
 1783              		.loc 1 394 5 view .LVU543
 1784              	.LBB116:
ARM GAS  /var/folders/21/t9g5rlb91ys800n5npymflf80000gn/T//cce6JCY2.s 			page 59


 1785              	.LBI116:
 133:lvgl/src/extra/layouts/grid/../flex/../../../core/lv_obj_style_gen.h **** {
 1786              		.loc 3 133 26 view .LVU544
 1787              	.LBB117:
 135:lvgl/src/extra/layouts/grid/../flex/../../../core/lv_obj_style_gen.h ****     return (lv_coord_t)v.num;
 1788              		.loc 3 135 5 view .LVU545
 135:lvgl/src/extra/layouts/grid/../flex/../../../core/lv_obj_style_gen.h ****     return (lv_coord_t)v.num;
 1789              		.loc 3 135 26 is_stmt 0 view .LVU546
 1790 0024 1522     		movs	r2, #21
 1791 0026 0021     		movs	r1, #0
 1792 0028 2046     		mov	r0, r4
 1793 002a FFF7FEFF 		bl	lv_obj_get_style_prop
 1794              	.LVL214:
 1795              		.loc 3 136 5 is_stmt 1 view .LVU547
 1796              		.loc 3 136 12 is_stmt 0 view .LVU548
 1797 002e 0FFA80FA 		sxth	r10, r0
 1798              	.LVL215:
 1799              		.loc 3 136 12 view .LVU549
 1800              	.LBE117:
 1801              	.LBE116:
 395:lvgl/src/extra/layouts/grid/lv_grid.c **** 
 1802              		.loc 1 395 5 is_stmt 1 view .LVU550
 1803              	.LBB118:
 1804              	.LBI118:
 127:lvgl/src/extra/layouts/grid/../flex/../../../core/lv_obj_style_gen.h **** {
 1805              		.loc 3 127 26 view .LVU551
 1806              	.LBB119:
 129:lvgl/src/extra/layouts/grid/../flex/../../../core/lv_obj_style_gen.h ****     return (lv_coord_t)v.num;
 1807              		.loc 3 129 5 view .LVU552
 129:lvgl/src/extra/layouts/grid/../flex/../../../core/lv_obj_style_gen.h ****     return (lv_coord_t)v.num;
 1808              		.loc 3 129 26 is_stmt 0 view .LVU553
 1809 0032 1422     		movs	r2, #20
 1810 0034 0021     		movs	r1, #0
 1811 0036 2046     		mov	r0, r4
 1812 0038 FFF7FEFF 		bl	lv_obj_get_style_prop
 1813              	.LVL216:
 130:lvgl/src/extra/layouts/grid/../flex/../../../core/lv_obj_style_gen.h **** }
 1814              		.loc 3 130 5 is_stmt 1 view .LVU554
 130:lvgl/src/extra/layouts/grid/../flex/../../../core/lv_obj_style_gen.h **** }
 1815              		.loc 3 130 12 is_stmt 0 view .LVU555
 1816 003c 07B2     		sxth	r7, r0
 1817              	.LVL217:
 130:lvgl/src/extra/layouts/grid/../flex/../../../core/lv_obj_style_gen.h **** }
 1818              		.loc 3 130 12 view .LVU556
 1819              	.LBE119:
 1820              	.LBE118:
 397:lvgl/src/extra/layouts/grid/lv_grid.c **** 
 1821              		.loc 1 397 5 is_stmt 1 view .LVU557
 1822              	.LBB120:
 1823              	.LBI120:
 137:lvgl/src/extra/layouts/grid/../flex/../../../core/lv_obj_style_gen.h **** }
 138:lvgl/src/extra/layouts/grid/../flex/../../../core/lv_obj_style_gen.h **** 
 139:lvgl/src/extra/layouts/grid/../flex/../../../core/lv_obj_style_gen.h **** static inline lv_color_t lv_obj_get_style_bg_color(const struct _lv_obj_t * obj, uint32_t part)
 140:lvgl/src/extra/layouts/grid/../flex/../../../core/lv_obj_style_gen.h **** {
 141:lvgl/src/extra/layouts/grid/../flex/../../../core/lv_obj_style_gen.h ****     lv_style_value_t v = lv_obj_get_style_prop(obj, part, LV_STYLE_BG_COLOR);
 142:lvgl/src/extra/layouts/grid/../flex/../../../core/lv_obj_style_gen.h ****     return v.color;
 143:lvgl/src/extra/layouts/grid/../flex/../../../core/lv_obj_style_gen.h **** }
ARM GAS  /var/folders/21/t9g5rlb91ys800n5npymflf80000gn/T//cce6JCY2.s 			page 60


 144:lvgl/src/extra/layouts/grid/../flex/../../../core/lv_obj_style_gen.h **** 
 145:lvgl/src/extra/layouts/grid/../flex/../../../core/lv_obj_style_gen.h **** static inline lv_color_t lv_obj_get_style_bg_color_filtered(const struct _lv_obj_t * obj, uint32_t 
 146:lvgl/src/extra/layouts/grid/../flex/../../../core/lv_obj_style_gen.h **** {
 147:lvgl/src/extra/layouts/grid/../flex/../../../core/lv_obj_style_gen.h ****     lv_style_value_t v = _lv_obj_style_apply_color_filter(obj, part, lv_obj_get_style_prop(obj, par
 148:lvgl/src/extra/layouts/grid/../flex/../../../core/lv_obj_style_gen.h ****     return v.color;
 149:lvgl/src/extra/layouts/grid/../flex/../../../core/lv_obj_style_gen.h **** }
 150:lvgl/src/extra/layouts/grid/../flex/../../../core/lv_obj_style_gen.h **** 
 151:lvgl/src/extra/layouts/grid/../flex/../../../core/lv_obj_style_gen.h **** static inline lv_opa_t lv_obj_get_style_bg_opa(const struct _lv_obj_t * obj, uint32_t part)
 152:lvgl/src/extra/layouts/grid/../flex/../../../core/lv_obj_style_gen.h **** {
 153:lvgl/src/extra/layouts/grid/../flex/../../../core/lv_obj_style_gen.h ****     lv_style_value_t v = lv_obj_get_style_prop(obj, part, LV_STYLE_BG_OPA);
 154:lvgl/src/extra/layouts/grid/../flex/../../../core/lv_obj_style_gen.h ****     return (lv_opa_t)v.num;
 155:lvgl/src/extra/layouts/grid/../flex/../../../core/lv_obj_style_gen.h **** }
 156:lvgl/src/extra/layouts/grid/../flex/../../../core/lv_obj_style_gen.h **** 
 157:lvgl/src/extra/layouts/grid/../flex/../../../core/lv_obj_style_gen.h **** static inline lv_color_t lv_obj_get_style_bg_grad_color(const struct _lv_obj_t * obj, uint32_t part
 158:lvgl/src/extra/layouts/grid/../flex/../../../core/lv_obj_style_gen.h **** {
 159:lvgl/src/extra/layouts/grid/../flex/../../../core/lv_obj_style_gen.h ****     lv_style_value_t v = lv_obj_get_style_prop(obj, part, LV_STYLE_BG_GRAD_COLOR);
 160:lvgl/src/extra/layouts/grid/../flex/../../../core/lv_obj_style_gen.h ****     return v.color;
 161:lvgl/src/extra/layouts/grid/../flex/../../../core/lv_obj_style_gen.h **** }
 162:lvgl/src/extra/layouts/grid/../flex/../../../core/lv_obj_style_gen.h **** 
 163:lvgl/src/extra/layouts/grid/../flex/../../../core/lv_obj_style_gen.h **** static inline lv_color_t lv_obj_get_style_bg_grad_color_filtered(const struct _lv_obj_t * obj, uint
 164:lvgl/src/extra/layouts/grid/../flex/../../../core/lv_obj_style_gen.h **** {
 165:lvgl/src/extra/layouts/grid/../flex/../../../core/lv_obj_style_gen.h ****     lv_style_value_t v = _lv_obj_style_apply_color_filter(obj, part, lv_obj_get_style_prop(obj, par
 166:lvgl/src/extra/layouts/grid/../flex/../../../core/lv_obj_style_gen.h ****     return v.color;
 167:lvgl/src/extra/layouts/grid/../flex/../../../core/lv_obj_style_gen.h **** }
 168:lvgl/src/extra/layouts/grid/../flex/../../../core/lv_obj_style_gen.h **** 
 169:lvgl/src/extra/layouts/grid/../flex/../../../core/lv_obj_style_gen.h **** static inline lv_grad_dir_t lv_obj_get_style_bg_grad_dir(const struct _lv_obj_t * obj, uint32_t par
 170:lvgl/src/extra/layouts/grid/../flex/../../../core/lv_obj_style_gen.h **** {
 171:lvgl/src/extra/layouts/grid/../flex/../../../core/lv_obj_style_gen.h ****     lv_style_value_t v = lv_obj_get_style_prop(obj, part, LV_STYLE_BG_GRAD_DIR);
 172:lvgl/src/extra/layouts/grid/../flex/../../../core/lv_obj_style_gen.h ****     return (lv_grad_dir_t)v.num;
 173:lvgl/src/extra/layouts/grid/../flex/../../../core/lv_obj_style_gen.h **** }
 174:lvgl/src/extra/layouts/grid/../flex/../../../core/lv_obj_style_gen.h **** 
 175:lvgl/src/extra/layouts/grid/../flex/../../../core/lv_obj_style_gen.h **** static inline lv_coord_t lv_obj_get_style_bg_main_stop(const struct _lv_obj_t * obj, uint32_t part)
 176:lvgl/src/extra/layouts/grid/../flex/../../../core/lv_obj_style_gen.h **** {
 177:lvgl/src/extra/layouts/grid/../flex/../../../core/lv_obj_style_gen.h ****     lv_style_value_t v = lv_obj_get_style_prop(obj, part, LV_STYLE_BG_MAIN_STOP);
 178:lvgl/src/extra/layouts/grid/../flex/../../../core/lv_obj_style_gen.h ****     return (lv_coord_t)v.num;
 179:lvgl/src/extra/layouts/grid/../flex/../../../core/lv_obj_style_gen.h **** }
 180:lvgl/src/extra/layouts/grid/../flex/../../../core/lv_obj_style_gen.h **** 
 181:lvgl/src/extra/layouts/grid/../flex/../../../core/lv_obj_style_gen.h **** static inline lv_coord_t lv_obj_get_style_bg_grad_stop(const struct _lv_obj_t * obj, uint32_t part)
 182:lvgl/src/extra/layouts/grid/../flex/../../../core/lv_obj_style_gen.h **** {
 183:lvgl/src/extra/layouts/grid/../flex/../../../core/lv_obj_style_gen.h ****     lv_style_value_t v = lv_obj_get_style_prop(obj, part, LV_STYLE_BG_GRAD_STOP);
 184:lvgl/src/extra/layouts/grid/../flex/../../../core/lv_obj_style_gen.h ****     return (lv_coord_t)v.num;
 185:lvgl/src/extra/layouts/grid/../flex/../../../core/lv_obj_style_gen.h **** }
 186:lvgl/src/extra/layouts/grid/../flex/../../../core/lv_obj_style_gen.h **** 
 187:lvgl/src/extra/layouts/grid/../flex/../../../core/lv_obj_style_gen.h **** static inline const lv_grad_dsc_t * lv_obj_get_style_bg_grad(const struct _lv_obj_t * obj, uint32_t
 188:lvgl/src/extra/layouts/grid/../flex/../../../core/lv_obj_style_gen.h **** {
 189:lvgl/src/extra/layouts/grid/../flex/../../../core/lv_obj_style_gen.h ****     lv_style_value_t v = lv_obj_get_style_prop(obj, part, LV_STYLE_BG_GRAD);
 190:lvgl/src/extra/layouts/grid/../flex/../../../core/lv_obj_style_gen.h ****     return (const lv_grad_dsc_t *)v.ptr;
 191:lvgl/src/extra/layouts/grid/../flex/../../../core/lv_obj_style_gen.h **** }
 192:lvgl/src/extra/layouts/grid/../flex/../../../core/lv_obj_style_gen.h **** 
 193:lvgl/src/extra/layouts/grid/../flex/../../../core/lv_obj_style_gen.h **** static inline lv_dither_mode_t lv_obj_get_style_bg_dither_mode(const struct _lv_obj_t * obj, uint32
 194:lvgl/src/extra/layouts/grid/../flex/../../../core/lv_obj_style_gen.h **** {
 195:lvgl/src/extra/layouts/grid/../flex/../../../core/lv_obj_style_gen.h ****     lv_style_value_t v = lv_obj_get_style_prop(obj, part, LV_STYLE_BG_DITHER_MODE);
 196:lvgl/src/extra/layouts/grid/../flex/../../../core/lv_obj_style_gen.h ****     return (lv_dither_mode_t)v.num;
 197:lvgl/src/extra/layouts/grid/../flex/../../../core/lv_obj_style_gen.h **** }
 198:lvgl/src/extra/layouts/grid/../flex/../../../core/lv_obj_style_gen.h **** 
 199:lvgl/src/extra/layouts/grid/../flex/../../../core/lv_obj_style_gen.h **** static inline const void * lv_obj_get_style_bg_img_src(const struct _lv_obj_t * obj, uint32_t part)
 200:lvgl/src/extra/layouts/grid/../flex/../../../core/lv_obj_style_gen.h **** {
ARM GAS  /var/folders/21/t9g5rlb91ys800n5npymflf80000gn/T//cce6JCY2.s 			page 61


 201:lvgl/src/extra/layouts/grid/../flex/../../../core/lv_obj_style_gen.h ****     lv_style_value_t v = lv_obj_get_style_prop(obj, part, LV_STYLE_BG_IMG_SRC);
 202:lvgl/src/extra/layouts/grid/../flex/../../../core/lv_obj_style_gen.h ****     return (const void *)v.ptr;
 203:lvgl/src/extra/layouts/grid/../flex/../../../core/lv_obj_style_gen.h **** }
 204:lvgl/src/extra/layouts/grid/../flex/../../../core/lv_obj_style_gen.h **** 
 205:lvgl/src/extra/layouts/grid/../flex/../../../core/lv_obj_style_gen.h **** static inline lv_opa_t lv_obj_get_style_bg_img_opa(const struct _lv_obj_t * obj, uint32_t part)
 206:lvgl/src/extra/layouts/grid/../flex/../../../core/lv_obj_style_gen.h **** {
 207:lvgl/src/extra/layouts/grid/../flex/../../../core/lv_obj_style_gen.h ****     lv_style_value_t v = lv_obj_get_style_prop(obj, part, LV_STYLE_BG_IMG_OPA);
 208:lvgl/src/extra/layouts/grid/../flex/../../../core/lv_obj_style_gen.h ****     return (lv_opa_t)v.num;
 209:lvgl/src/extra/layouts/grid/../flex/../../../core/lv_obj_style_gen.h **** }
 210:lvgl/src/extra/layouts/grid/../flex/../../../core/lv_obj_style_gen.h **** 
 211:lvgl/src/extra/layouts/grid/../flex/../../../core/lv_obj_style_gen.h **** static inline lv_color_t lv_obj_get_style_bg_img_recolor(const struct _lv_obj_t * obj, uint32_t par
 212:lvgl/src/extra/layouts/grid/../flex/../../../core/lv_obj_style_gen.h **** {
 213:lvgl/src/extra/layouts/grid/../flex/../../../core/lv_obj_style_gen.h ****     lv_style_value_t v = lv_obj_get_style_prop(obj, part, LV_STYLE_BG_IMG_RECOLOR);
 214:lvgl/src/extra/layouts/grid/../flex/../../../core/lv_obj_style_gen.h ****     return v.color;
 215:lvgl/src/extra/layouts/grid/../flex/../../../core/lv_obj_style_gen.h **** }
 216:lvgl/src/extra/layouts/grid/../flex/../../../core/lv_obj_style_gen.h **** 
 217:lvgl/src/extra/layouts/grid/../flex/../../../core/lv_obj_style_gen.h **** static inline lv_color_t lv_obj_get_style_bg_img_recolor_filtered(const struct _lv_obj_t * obj, uin
 218:lvgl/src/extra/layouts/grid/../flex/../../../core/lv_obj_style_gen.h **** {
 219:lvgl/src/extra/layouts/grid/../flex/../../../core/lv_obj_style_gen.h ****     lv_style_value_t v = _lv_obj_style_apply_color_filter(obj, part, lv_obj_get_style_prop(obj, par
 220:lvgl/src/extra/layouts/grid/../flex/../../../core/lv_obj_style_gen.h ****     return v.color;
 221:lvgl/src/extra/layouts/grid/../flex/../../../core/lv_obj_style_gen.h **** }
 222:lvgl/src/extra/layouts/grid/../flex/../../../core/lv_obj_style_gen.h **** 
 223:lvgl/src/extra/layouts/grid/../flex/../../../core/lv_obj_style_gen.h **** static inline lv_opa_t lv_obj_get_style_bg_img_recolor_opa(const struct _lv_obj_t * obj, uint32_t p
 224:lvgl/src/extra/layouts/grid/../flex/../../../core/lv_obj_style_gen.h **** {
 225:lvgl/src/extra/layouts/grid/../flex/../../../core/lv_obj_style_gen.h ****     lv_style_value_t v = lv_obj_get_style_prop(obj, part, LV_STYLE_BG_IMG_RECOLOR_OPA);
 226:lvgl/src/extra/layouts/grid/../flex/../../../core/lv_obj_style_gen.h ****     return (lv_opa_t)v.num;
 227:lvgl/src/extra/layouts/grid/../flex/../../../core/lv_obj_style_gen.h **** }
 228:lvgl/src/extra/layouts/grid/../flex/../../../core/lv_obj_style_gen.h **** 
 229:lvgl/src/extra/layouts/grid/../flex/../../../core/lv_obj_style_gen.h **** static inline bool lv_obj_get_style_bg_img_tiled(const struct _lv_obj_t * obj, uint32_t part)
 230:lvgl/src/extra/layouts/grid/../flex/../../../core/lv_obj_style_gen.h **** {
 231:lvgl/src/extra/layouts/grid/../flex/../../../core/lv_obj_style_gen.h ****     lv_style_value_t v = lv_obj_get_style_prop(obj, part, LV_STYLE_BG_IMG_TILED);
 232:lvgl/src/extra/layouts/grid/../flex/../../../core/lv_obj_style_gen.h ****     return (bool)v.num;
 233:lvgl/src/extra/layouts/grid/../flex/../../../core/lv_obj_style_gen.h **** }
 234:lvgl/src/extra/layouts/grid/../flex/../../../core/lv_obj_style_gen.h **** 
 235:lvgl/src/extra/layouts/grid/../flex/../../../core/lv_obj_style_gen.h **** static inline lv_color_t lv_obj_get_style_border_color(const struct _lv_obj_t * obj, uint32_t part)
 236:lvgl/src/extra/layouts/grid/../flex/../../../core/lv_obj_style_gen.h **** {
 237:lvgl/src/extra/layouts/grid/../flex/../../../core/lv_obj_style_gen.h ****     lv_style_value_t v = lv_obj_get_style_prop(obj, part, LV_STYLE_BORDER_COLOR);
 238:lvgl/src/extra/layouts/grid/../flex/../../../core/lv_obj_style_gen.h ****     return v.color;
 239:lvgl/src/extra/layouts/grid/../flex/../../../core/lv_obj_style_gen.h **** }
 240:lvgl/src/extra/layouts/grid/../flex/../../../core/lv_obj_style_gen.h **** 
 241:lvgl/src/extra/layouts/grid/../flex/../../../core/lv_obj_style_gen.h **** static inline lv_color_t lv_obj_get_style_border_color_filtered(const struct _lv_obj_t * obj, uint3
 242:lvgl/src/extra/layouts/grid/../flex/../../../core/lv_obj_style_gen.h **** {
 243:lvgl/src/extra/layouts/grid/../flex/../../../core/lv_obj_style_gen.h ****     lv_style_value_t v = _lv_obj_style_apply_color_filter(obj, part, lv_obj_get_style_prop(obj, par
 244:lvgl/src/extra/layouts/grid/../flex/../../../core/lv_obj_style_gen.h ****     return v.color;
 245:lvgl/src/extra/layouts/grid/../flex/../../../core/lv_obj_style_gen.h **** }
 246:lvgl/src/extra/layouts/grid/../flex/../../../core/lv_obj_style_gen.h **** 
 247:lvgl/src/extra/layouts/grid/../flex/../../../core/lv_obj_style_gen.h **** static inline lv_opa_t lv_obj_get_style_border_opa(const struct _lv_obj_t * obj, uint32_t part)
 248:lvgl/src/extra/layouts/grid/../flex/../../../core/lv_obj_style_gen.h **** {
 249:lvgl/src/extra/layouts/grid/../flex/../../../core/lv_obj_style_gen.h ****     lv_style_value_t v = lv_obj_get_style_prop(obj, part, LV_STYLE_BORDER_OPA);
 250:lvgl/src/extra/layouts/grid/../flex/../../../core/lv_obj_style_gen.h ****     return (lv_opa_t)v.num;
 251:lvgl/src/extra/layouts/grid/../flex/../../../core/lv_obj_style_gen.h **** }
 252:lvgl/src/extra/layouts/grid/../flex/../../../core/lv_obj_style_gen.h **** 
 253:lvgl/src/extra/layouts/grid/../flex/../../../core/lv_obj_style_gen.h **** static inline lv_coord_t lv_obj_get_style_border_width(const struct _lv_obj_t * obj, uint32_t part)
 254:lvgl/src/extra/layouts/grid/../flex/../../../core/lv_obj_style_gen.h **** {
 255:lvgl/src/extra/layouts/grid/../flex/../../../core/lv_obj_style_gen.h ****     lv_style_value_t v = lv_obj_get_style_prop(obj, part, LV_STYLE_BORDER_WIDTH);
 256:lvgl/src/extra/layouts/grid/../flex/../../../core/lv_obj_style_gen.h ****     return (lv_coord_t)v.num;
 257:lvgl/src/extra/layouts/grid/../flex/../../../core/lv_obj_style_gen.h **** }
ARM GAS  /var/folders/21/t9g5rlb91ys800n5npymflf80000gn/T//cce6JCY2.s 			page 62


 258:lvgl/src/extra/layouts/grid/../flex/../../../core/lv_obj_style_gen.h **** 
 259:lvgl/src/extra/layouts/grid/../flex/../../../core/lv_obj_style_gen.h **** static inline lv_border_side_t lv_obj_get_style_border_side(const struct _lv_obj_t * obj, uint32_t 
 260:lvgl/src/extra/layouts/grid/../flex/../../../core/lv_obj_style_gen.h **** {
 261:lvgl/src/extra/layouts/grid/../flex/../../../core/lv_obj_style_gen.h ****     lv_style_value_t v = lv_obj_get_style_prop(obj, part, LV_STYLE_BORDER_SIDE);
 262:lvgl/src/extra/layouts/grid/../flex/../../../core/lv_obj_style_gen.h ****     return (lv_border_side_t)v.num;
 263:lvgl/src/extra/layouts/grid/../flex/../../../core/lv_obj_style_gen.h **** }
 264:lvgl/src/extra/layouts/grid/../flex/../../../core/lv_obj_style_gen.h **** 
 265:lvgl/src/extra/layouts/grid/../flex/../../../core/lv_obj_style_gen.h **** static inline bool lv_obj_get_style_border_post(const struct _lv_obj_t * obj, uint32_t part)
 266:lvgl/src/extra/layouts/grid/../flex/../../../core/lv_obj_style_gen.h **** {
 267:lvgl/src/extra/layouts/grid/../flex/../../../core/lv_obj_style_gen.h ****     lv_style_value_t v = lv_obj_get_style_prop(obj, part, LV_STYLE_BORDER_POST);
 268:lvgl/src/extra/layouts/grid/../flex/../../../core/lv_obj_style_gen.h ****     return (bool)v.num;
 269:lvgl/src/extra/layouts/grid/../flex/../../../core/lv_obj_style_gen.h **** }
 270:lvgl/src/extra/layouts/grid/../flex/../../../core/lv_obj_style_gen.h **** 
 271:lvgl/src/extra/layouts/grid/../flex/../../../core/lv_obj_style_gen.h **** static inline lv_coord_t lv_obj_get_style_outline_width(const struct _lv_obj_t * obj, uint32_t part
 272:lvgl/src/extra/layouts/grid/../flex/../../../core/lv_obj_style_gen.h **** {
 273:lvgl/src/extra/layouts/grid/../flex/../../../core/lv_obj_style_gen.h ****     lv_style_value_t v = lv_obj_get_style_prop(obj, part, LV_STYLE_OUTLINE_WIDTH);
 274:lvgl/src/extra/layouts/grid/../flex/../../../core/lv_obj_style_gen.h ****     return (lv_coord_t)v.num;
 275:lvgl/src/extra/layouts/grid/../flex/../../../core/lv_obj_style_gen.h **** }
 276:lvgl/src/extra/layouts/grid/../flex/../../../core/lv_obj_style_gen.h **** 
 277:lvgl/src/extra/layouts/grid/../flex/../../../core/lv_obj_style_gen.h **** static inline lv_color_t lv_obj_get_style_outline_color(const struct _lv_obj_t * obj, uint32_t part
 278:lvgl/src/extra/layouts/grid/../flex/../../../core/lv_obj_style_gen.h **** {
 279:lvgl/src/extra/layouts/grid/../flex/../../../core/lv_obj_style_gen.h ****     lv_style_value_t v = lv_obj_get_style_prop(obj, part, LV_STYLE_OUTLINE_COLOR);
 280:lvgl/src/extra/layouts/grid/../flex/../../../core/lv_obj_style_gen.h ****     return v.color;
 281:lvgl/src/extra/layouts/grid/../flex/../../../core/lv_obj_style_gen.h **** }
 282:lvgl/src/extra/layouts/grid/../flex/../../../core/lv_obj_style_gen.h **** 
 283:lvgl/src/extra/layouts/grid/../flex/../../../core/lv_obj_style_gen.h **** static inline lv_color_t lv_obj_get_style_outline_color_filtered(const struct _lv_obj_t * obj, uint
 284:lvgl/src/extra/layouts/grid/../flex/../../../core/lv_obj_style_gen.h **** {
 285:lvgl/src/extra/layouts/grid/../flex/../../../core/lv_obj_style_gen.h ****     lv_style_value_t v = _lv_obj_style_apply_color_filter(obj, part, lv_obj_get_style_prop(obj, par
 286:lvgl/src/extra/layouts/grid/../flex/../../../core/lv_obj_style_gen.h ****     return v.color;
 287:lvgl/src/extra/layouts/grid/../flex/../../../core/lv_obj_style_gen.h **** }
 288:lvgl/src/extra/layouts/grid/../flex/../../../core/lv_obj_style_gen.h **** 
 289:lvgl/src/extra/layouts/grid/../flex/../../../core/lv_obj_style_gen.h **** static inline lv_opa_t lv_obj_get_style_outline_opa(const struct _lv_obj_t * obj, uint32_t part)
 290:lvgl/src/extra/layouts/grid/../flex/../../../core/lv_obj_style_gen.h **** {
 291:lvgl/src/extra/layouts/grid/../flex/../../../core/lv_obj_style_gen.h ****     lv_style_value_t v = lv_obj_get_style_prop(obj, part, LV_STYLE_OUTLINE_OPA);
 292:lvgl/src/extra/layouts/grid/../flex/../../../core/lv_obj_style_gen.h ****     return (lv_opa_t)v.num;
 293:lvgl/src/extra/layouts/grid/../flex/../../../core/lv_obj_style_gen.h **** }
 294:lvgl/src/extra/layouts/grid/../flex/../../../core/lv_obj_style_gen.h **** 
 295:lvgl/src/extra/layouts/grid/../flex/../../../core/lv_obj_style_gen.h **** static inline lv_coord_t lv_obj_get_style_outline_pad(const struct _lv_obj_t * obj, uint32_t part)
 296:lvgl/src/extra/layouts/grid/../flex/../../../core/lv_obj_style_gen.h **** {
 297:lvgl/src/extra/layouts/grid/../flex/../../../core/lv_obj_style_gen.h ****     lv_style_value_t v = lv_obj_get_style_prop(obj, part, LV_STYLE_OUTLINE_PAD);
 298:lvgl/src/extra/layouts/grid/../flex/../../../core/lv_obj_style_gen.h ****     return (lv_coord_t)v.num;
 299:lvgl/src/extra/layouts/grid/../flex/../../../core/lv_obj_style_gen.h **** }
 300:lvgl/src/extra/layouts/grid/../flex/../../../core/lv_obj_style_gen.h **** 
 301:lvgl/src/extra/layouts/grid/../flex/../../../core/lv_obj_style_gen.h **** static inline lv_coord_t lv_obj_get_style_shadow_width(const struct _lv_obj_t * obj, uint32_t part)
 302:lvgl/src/extra/layouts/grid/../flex/../../../core/lv_obj_style_gen.h **** {
 303:lvgl/src/extra/layouts/grid/../flex/../../../core/lv_obj_style_gen.h ****     lv_style_value_t v = lv_obj_get_style_prop(obj, part, LV_STYLE_SHADOW_WIDTH);
 304:lvgl/src/extra/layouts/grid/../flex/../../../core/lv_obj_style_gen.h ****     return (lv_coord_t)v.num;
 305:lvgl/src/extra/layouts/grid/../flex/../../../core/lv_obj_style_gen.h **** }
 306:lvgl/src/extra/layouts/grid/../flex/../../../core/lv_obj_style_gen.h **** 
 307:lvgl/src/extra/layouts/grid/../flex/../../../core/lv_obj_style_gen.h **** static inline lv_coord_t lv_obj_get_style_shadow_ofs_x(const struct _lv_obj_t * obj, uint32_t part)
 308:lvgl/src/extra/layouts/grid/../flex/../../../core/lv_obj_style_gen.h **** {
 309:lvgl/src/extra/layouts/grid/../flex/../../../core/lv_obj_style_gen.h ****     lv_style_value_t v = lv_obj_get_style_prop(obj, part, LV_STYLE_SHADOW_OFS_X);
 310:lvgl/src/extra/layouts/grid/../flex/../../../core/lv_obj_style_gen.h ****     return (lv_coord_t)v.num;
 311:lvgl/src/extra/layouts/grid/../flex/../../../core/lv_obj_style_gen.h **** }
 312:lvgl/src/extra/layouts/grid/../flex/../../../core/lv_obj_style_gen.h **** 
 313:lvgl/src/extra/layouts/grid/../flex/../../../core/lv_obj_style_gen.h **** static inline lv_coord_t lv_obj_get_style_shadow_ofs_y(const struct _lv_obj_t * obj, uint32_t part)
 314:lvgl/src/extra/layouts/grid/../flex/../../../core/lv_obj_style_gen.h **** {
ARM GAS  /var/folders/21/t9g5rlb91ys800n5npymflf80000gn/T//cce6JCY2.s 			page 63


 315:lvgl/src/extra/layouts/grid/../flex/../../../core/lv_obj_style_gen.h ****     lv_style_value_t v = lv_obj_get_style_prop(obj, part, LV_STYLE_SHADOW_OFS_Y);
 316:lvgl/src/extra/layouts/grid/../flex/../../../core/lv_obj_style_gen.h ****     return (lv_coord_t)v.num;
 317:lvgl/src/extra/layouts/grid/../flex/../../../core/lv_obj_style_gen.h **** }
 318:lvgl/src/extra/layouts/grid/../flex/../../../core/lv_obj_style_gen.h **** 
 319:lvgl/src/extra/layouts/grid/../flex/../../../core/lv_obj_style_gen.h **** static inline lv_coord_t lv_obj_get_style_shadow_spread(const struct _lv_obj_t * obj, uint32_t part
 320:lvgl/src/extra/layouts/grid/../flex/../../../core/lv_obj_style_gen.h **** {
 321:lvgl/src/extra/layouts/grid/../flex/../../../core/lv_obj_style_gen.h ****     lv_style_value_t v = lv_obj_get_style_prop(obj, part, LV_STYLE_SHADOW_SPREAD);
 322:lvgl/src/extra/layouts/grid/../flex/../../../core/lv_obj_style_gen.h ****     return (lv_coord_t)v.num;
 323:lvgl/src/extra/layouts/grid/../flex/../../../core/lv_obj_style_gen.h **** }
 324:lvgl/src/extra/layouts/grid/../flex/../../../core/lv_obj_style_gen.h **** 
 325:lvgl/src/extra/layouts/grid/../flex/../../../core/lv_obj_style_gen.h **** static inline lv_color_t lv_obj_get_style_shadow_color(const struct _lv_obj_t * obj, uint32_t part)
 326:lvgl/src/extra/layouts/grid/../flex/../../../core/lv_obj_style_gen.h **** {
 327:lvgl/src/extra/layouts/grid/../flex/../../../core/lv_obj_style_gen.h ****     lv_style_value_t v = lv_obj_get_style_prop(obj, part, LV_STYLE_SHADOW_COLOR);
 328:lvgl/src/extra/layouts/grid/../flex/../../../core/lv_obj_style_gen.h ****     return v.color;
 329:lvgl/src/extra/layouts/grid/../flex/../../../core/lv_obj_style_gen.h **** }
 330:lvgl/src/extra/layouts/grid/../flex/../../../core/lv_obj_style_gen.h **** 
 331:lvgl/src/extra/layouts/grid/../flex/../../../core/lv_obj_style_gen.h **** static inline lv_color_t lv_obj_get_style_shadow_color_filtered(const struct _lv_obj_t * obj, uint3
 332:lvgl/src/extra/layouts/grid/../flex/../../../core/lv_obj_style_gen.h **** {
 333:lvgl/src/extra/layouts/grid/../flex/../../../core/lv_obj_style_gen.h ****     lv_style_value_t v = _lv_obj_style_apply_color_filter(obj, part, lv_obj_get_style_prop(obj, par
 334:lvgl/src/extra/layouts/grid/../flex/../../../core/lv_obj_style_gen.h ****     return v.color;
 335:lvgl/src/extra/layouts/grid/../flex/../../../core/lv_obj_style_gen.h **** }
 336:lvgl/src/extra/layouts/grid/../flex/../../../core/lv_obj_style_gen.h **** 
 337:lvgl/src/extra/layouts/grid/../flex/../../../core/lv_obj_style_gen.h **** static inline lv_opa_t lv_obj_get_style_shadow_opa(const struct _lv_obj_t * obj, uint32_t part)
 338:lvgl/src/extra/layouts/grid/../flex/../../../core/lv_obj_style_gen.h **** {
 339:lvgl/src/extra/layouts/grid/../flex/../../../core/lv_obj_style_gen.h ****     lv_style_value_t v = lv_obj_get_style_prop(obj, part, LV_STYLE_SHADOW_OPA);
 340:lvgl/src/extra/layouts/grid/../flex/../../../core/lv_obj_style_gen.h ****     return (lv_opa_t)v.num;
 341:lvgl/src/extra/layouts/grid/../flex/../../../core/lv_obj_style_gen.h **** }
 342:lvgl/src/extra/layouts/grid/../flex/../../../core/lv_obj_style_gen.h **** 
 343:lvgl/src/extra/layouts/grid/../flex/../../../core/lv_obj_style_gen.h **** static inline lv_opa_t lv_obj_get_style_img_opa(const struct _lv_obj_t * obj, uint32_t part)
 344:lvgl/src/extra/layouts/grid/../flex/../../../core/lv_obj_style_gen.h **** {
 345:lvgl/src/extra/layouts/grid/../flex/../../../core/lv_obj_style_gen.h ****     lv_style_value_t v = lv_obj_get_style_prop(obj, part, LV_STYLE_IMG_OPA);
 346:lvgl/src/extra/layouts/grid/../flex/../../../core/lv_obj_style_gen.h ****     return (lv_opa_t)v.num;
 347:lvgl/src/extra/layouts/grid/../flex/../../../core/lv_obj_style_gen.h **** }
 348:lvgl/src/extra/layouts/grid/../flex/../../../core/lv_obj_style_gen.h **** 
 349:lvgl/src/extra/layouts/grid/../flex/../../../core/lv_obj_style_gen.h **** static inline lv_color_t lv_obj_get_style_img_recolor(const struct _lv_obj_t * obj, uint32_t part)
 350:lvgl/src/extra/layouts/grid/../flex/../../../core/lv_obj_style_gen.h **** {
 351:lvgl/src/extra/layouts/grid/../flex/../../../core/lv_obj_style_gen.h ****     lv_style_value_t v = lv_obj_get_style_prop(obj, part, LV_STYLE_IMG_RECOLOR);
 352:lvgl/src/extra/layouts/grid/../flex/../../../core/lv_obj_style_gen.h ****     return v.color;
 353:lvgl/src/extra/layouts/grid/../flex/../../../core/lv_obj_style_gen.h **** }
 354:lvgl/src/extra/layouts/grid/../flex/../../../core/lv_obj_style_gen.h **** 
 355:lvgl/src/extra/layouts/grid/../flex/../../../core/lv_obj_style_gen.h **** static inline lv_color_t lv_obj_get_style_img_recolor_filtered(const struct _lv_obj_t * obj, uint32
 356:lvgl/src/extra/layouts/grid/../flex/../../../core/lv_obj_style_gen.h **** {
 357:lvgl/src/extra/layouts/grid/../flex/../../../core/lv_obj_style_gen.h ****     lv_style_value_t v = _lv_obj_style_apply_color_filter(obj, part, lv_obj_get_style_prop(obj, par
 358:lvgl/src/extra/layouts/grid/../flex/../../../core/lv_obj_style_gen.h ****     return v.color;
 359:lvgl/src/extra/layouts/grid/../flex/../../../core/lv_obj_style_gen.h **** }
 360:lvgl/src/extra/layouts/grid/../flex/../../../core/lv_obj_style_gen.h **** 
 361:lvgl/src/extra/layouts/grid/../flex/../../../core/lv_obj_style_gen.h **** static inline lv_opa_t lv_obj_get_style_img_recolor_opa(const struct _lv_obj_t * obj, uint32_t part
 362:lvgl/src/extra/layouts/grid/../flex/../../../core/lv_obj_style_gen.h **** {
 363:lvgl/src/extra/layouts/grid/../flex/../../../core/lv_obj_style_gen.h ****     lv_style_value_t v = lv_obj_get_style_prop(obj, part, LV_STYLE_IMG_RECOLOR_OPA);
 364:lvgl/src/extra/layouts/grid/../flex/../../../core/lv_obj_style_gen.h ****     return (lv_opa_t)v.num;
 365:lvgl/src/extra/layouts/grid/../flex/../../../core/lv_obj_style_gen.h **** }
 366:lvgl/src/extra/layouts/grid/../flex/../../../core/lv_obj_style_gen.h **** 
 367:lvgl/src/extra/layouts/grid/../flex/../../../core/lv_obj_style_gen.h **** static inline lv_coord_t lv_obj_get_style_line_width(const struct _lv_obj_t * obj, uint32_t part)
 368:lvgl/src/extra/layouts/grid/../flex/../../../core/lv_obj_style_gen.h **** {
 369:lvgl/src/extra/layouts/grid/../flex/../../../core/lv_obj_style_gen.h ****     lv_style_value_t v = lv_obj_get_style_prop(obj, part, LV_STYLE_LINE_WIDTH);
 370:lvgl/src/extra/layouts/grid/../flex/../../../core/lv_obj_style_gen.h ****     return (lv_coord_t)v.num;
 371:lvgl/src/extra/layouts/grid/../flex/../../../core/lv_obj_style_gen.h **** }
ARM GAS  /var/folders/21/t9g5rlb91ys800n5npymflf80000gn/T//cce6JCY2.s 			page 64


 372:lvgl/src/extra/layouts/grid/../flex/../../../core/lv_obj_style_gen.h **** 
 373:lvgl/src/extra/layouts/grid/../flex/../../../core/lv_obj_style_gen.h **** static inline lv_coord_t lv_obj_get_style_line_dash_width(const struct _lv_obj_t * obj, uint32_t pa
 374:lvgl/src/extra/layouts/grid/../flex/../../../core/lv_obj_style_gen.h **** {
 375:lvgl/src/extra/layouts/grid/../flex/../../../core/lv_obj_style_gen.h ****     lv_style_value_t v = lv_obj_get_style_prop(obj, part, LV_STYLE_LINE_DASH_WIDTH);
 376:lvgl/src/extra/layouts/grid/../flex/../../../core/lv_obj_style_gen.h ****     return (lv_coord_t)v.num;
 377:lvgl/src/extra/layouts/grid/../flex/../../../core/lv_obj_style_gen.h **** }
 378:lvgl/src/extra/layouts/grid/../flex/../../../core/lv_obj_style_gen.h **** 
 379:lvgl/src/extra/layouts/grid/../flex/../../../core/lv_obj_style_gen.h **** static inline lv_coord_t lv_obj_get_style_line_dash_gap(const struct _lv_obj_t * obj, uint32_t part
 380:lvgl/src/extra/layouts/grid/../flex/../../../core/lv_obj_style_gen.h **** {
 381:lvgl/src/extra/layouts/grid/../flex/../../../core/lv_obj_style_gen.h ****     lv_style_value_t v = lv_obj_get_style_prop(obj, part, LV_STYLE_LINE_DASH_GAP);
 382:lvgl/src/extra/layouts/grid/../flex/../../../core/lv_obj_style_gen.h ****     return (lv_coord_t)v.num;
 383:lvgl/src/extra/layouts/grid/../flex/../../../core/lv_obj_style_gen.h **** }
 384:lvgl/src/extra/layouts/grid/../flex/../../../core/lv_obj_style_gen.h **** 
 385:lvgl/src/extra/layouts/grid/../flex/../../../core/lv_obj_style_gen.h **** static inline bool lv_obj_get_style_line_rounded(const struct _lv_obj_t * obj, uint32_t part)
 386:lvgl/src/extra/layouts/grid/../flex/../../../core/lv_obj_style_gen.h **** {
 387:lvgl/src/extra/layouts/grid/../flex/../../../core/lv_obj_style_gen.h ****     lv_style_value_t v = lv_obj_get_style_prop(obj, part, LV_STYLE_LINE_ROUNDED);
 388:lvgl/src/extra/layouts/grid/../flex/../../../core/lv_obj_style_gen.h ****     return (bool)v.num;
 389:lvgl/src/extra/layouts/grid/../flex/../../../core/lv_obj_style_gen.h **** }
 390:lvgl/src/extra/layouts/grid/../flex/../../../core/lv_obj_style_gen.h **** 
 391:lvgl/src/extra/layouts/grid/../flex/../../../core/lv_obj_style_gen.h **** static inline lv_color_t lv_obj_get_style_line_color(const struct _lv_obj_t * obj, uint32_t part)
 392:lvgl/src/extra/layouts/grid/../flex/../../../core/lv_obj_style_gen.h **** {
 393:lvgl/src/extra/layouts/grid/../flex/../../../core/lv_obj_style_gen.h ****     lv_style_value_t v = lv_obj_get_style_prop(obj, part, LV_STYLE_LINE_COLOR);
 394:lvgl/src/extra/layouts/grid/../flex/../../../core/lv_obj_style_gen.h ****     return v.color;
 395:lvgl/src/extra/layouts/grid/../flex/../../../core/lv_obj_style_gen.h **** }
 396:lvgl/src/extra/layouts/grid/../flex/../../../core/lv_obj_style_gen.h **** 
 397:lvgl/src/extra/layouts/grid/../flex/../../../core/lv_obj_style_gen.h **** static inline lv_color_t lv_obj_get_style_line_color_filtered(const struct _lv_obj_t * obj, uint32_
 398:lvgl/src/extra/layouts/grid/../flex/../../../core/lv_obj_style_gen.h **** {
 399:lvgl/src/extra/layouts/grid/../flex/../../../core/lv_obj_style_gen.h ****     lv_style_value_t v = _lv_obj_style_apply_color_filter(obj, part, lv_obj_get_style_prop(obj, par
 400:lvgl/src/extra/layouts/grid/../flex/../../../core/lv_obj_style_gen.h ****     return v.color;
 401:lvgl/src/extra/layouts/grid/../flex/../../../core/lv_obj_style_gen.h **** }
 402:lvgl/src/extra/layouts/grid/../flex/../../../core/lv_obj_style_gen.h **** 
 403:lvgl/src/extra/layouts/grid/../flex/../../../core/lv_obj_style_gen.h **** static inline lv_opa_t lv_obj_get_style_line_opa(const struct _lv_obj_t * obj, uint32_t part)
 404:lvgl/src/extra/layouts/grid/../flex/../../../core/lv_obj_style_gen.h **** {
 405:lvgl/src/extra/layouts/grid/../flex/../../../core/lv_obj_style_gen.h ****     lv_style_value_t v = lv_obj_get_style_prop(obj, part, LV_STYLE_LINE_OPA);
 406:lvgl/src/extra/layouts/grid/../flex/../../../core/lv_obj_style_gen.h ****     return (lv_opa_t)v.num;
 407:lvgl/src/extra/layouts/grid/../flex/../../../core/lv_obj_style_gen.h **** }
 408:lvgl/src/extra/layouts/grid/../flex/../../../core/lv_obj_style_gen.h **** 
 409:lvgl/src/extra/layouts/grid/../flex/../../../core/lv_obj_style_gen.h **** static inline lv_coord_t lv_obj_get_style_arc_width(const struct _lv_obj_t * obj, uint32_t part)
 410:lvgl/src/extra/layouts/grid/../flex/../../../core/lv_obj_style_gen.h **** {
 411:lvgl/src/extra/layouts/grid/../flex/../../../core/lv_obj_style_gen.h ****     lv_style_value_t v = lv_obj_get_style_prop(obj, part, LV_STYLE_ARC_WIDTH);
 412:lvgl/src/extra/layouts/grid/../flex/../../../core/lv_obj_style_gen.h ****     return (lv_coord_t)v.num;
 413:lvgl/src/extra/layouts/grid/../flex/../../../core/lv_obj_style_gen.h **** }
 414:lvgl/src/extra/layouts/grid/../flex/../../../core/lv_obj_style_gen.h **** 
 415:lvgl/src/extra/layouts/grid/../flex/../../../core/lv_obj_style_gen.h **** static inline bool lv_obj_get_style_arc_rounded(const struct _lv_obj_t * obj, uint32_t part)
 416:lvgl/src/extra/layouts/grid/../flex/../../../core/lv_obj_style_gen.h **** {
 417:lvgl/src/extra/layouts/grid/../flex/../../../core/lv_obj_style_gen.h ****     lv_style_value_t v = lv_obj_get_style_prop(obj, part, LV_STYLE_ARC_ROUNDED);
 418:lvgl/src/extra/layouts/grid/../flex/../../../core/lv_obj_style_gen.h ****     return (bool)v.num;
 419:lvgl/src/extra/layouts/grid/../flex/../../../core/lv_obj_style_gen.h **** }
 420:lvgl/src/extra/layouts/grid/../flex/../../../core/lv_obj_style_gen.h **** 
 421:lvgl/src/extra/layouts/grid/../flex/../../../core/lv_obj_style_gen.h **** static inline lv_color_t lv_obj_get_style_arc_color(const struct _lv_obj_t * obj, uint32_t part)
 422:lvgl/src/extra/layouts/grid/../flex/../../../core/lv_obj_style_gen.h **** {
 423:lvgl/src/extra/layouts/grid/../flex/../../../core/lv_obj_style_gen.h ****     lv_style_value_t v = lv_obj_get_style_prop(obj, part, LV_STYLE_ARC_COLOR);
 424:lvgl/src/extra/layouts/grid/../flex/../../../core/lv_obj_style_gen.h ****     return v.color;
 425:lvgl/src/extra/layouts/grid/../flex/../../../core/lv_obj_style_gen.h **** }
 426:lvgl/src/extra/layouts/grid/../flex/../../../core/lv_obj_style_gen.h **** 
 427:lvgl/src/extra/layouts/grid/../flex/../../../core/lv_obj_style_gen.h **** static inline lv_color_t lv_obj_get_style_arc_color_filtered(const struct _lv_obj_t * obj, uint32_t
 428:lvgl/src/extra/layouts/grid/../flex/../../../core/lv_obj_style_gen.h **** {
ARM GAS  /var/folders/21/t9g5rlb91ys800n5npymflf80000gn/T//cce6JCY2.s 			page 65


 429:lvgl/src/extra/layouts/grid/../flex/../../../core/lv_obj_style_gen.h ****     lv_style_value_t v = _lv_obj_style_apply_color_filter(obj, part, lv_obj_get_style_prop(obj, par
 430:lvgl/src/extra/layouts/grid/../flex/../../../core/lv_obj_style_gen.h ****     return v.color;
 431:lvgl/src/extra/layouts/grid/../flex/../../../core/lv_obj_style_gen.h **** }
 432:lvgl/src/extra/layouts/grid/../flex/../../../core/lv_obj_style_gen.h **** 
 433:lvgl/src/extra/layouts/grid/../flex/../../../core/lv_obj_style_gen.h **** static inline lv_opa_t lv_obj_get_style_arc_opa(const struct _lv_obj_t * obj, uint32_t part)
 434:lvgl/src/extra/layouts/grid/../flex/../../../core/lv_obj_style_gen.h **** {
 435:lvgl/src/extra/layouts/grid/../flex/../../../core/lv_obj_style_gen.h ****     lv_style_value_t v = lv_obj_get_style_prop(obj, part, LV_STYLE_ARC_OPA);
 436:lvgl/src/extra/layouts/grid/../flex/../../../core/lv_obj_style_gen.h ****     return (lv_opa_t)v.num;
 437:lvgl/src/extra/layouts/grid/../flex/../../../core/lv_obj_style_gen.h **** }
 438:lvgl/src/extra/layouts/grid/../flex/../../../core/lv_obj_style_gen.h **** 
 439:lvgl/src/extra/layouts/grid/../flex/../../../core/lv_obj_style_gen.h **** static inline const void * lv_obj_get_style_arc_img_src(const struct _lv_obj_t * obj, uint32_t part
 440:lvgl/src/extra/layouts/grid/../flex/../../../core/lv_obj_style_gen.h **** {
 441:lvgl/src/extra/layouts/grid/../flex/../../../core/lv_obj_style_gen.h ****     lv_style_value_t v = lv_obj_get_style_prop(obj, part, LV_STYLE_ARC_IMG_SRC);
 442:lvgl/src/extra/layouts/grid/../flex/../../../core/lv_obj_style_gen.h ****     return (const void *)v.ptr;
 443:lvgl/src/extra/layouts/grid/../flex/../../../core/lv_obj_style_gen.h **** }
 444:lvgl/src/extra/layouts/grid/../flex/../../../core/lv_obj_style_gen.h **** 
 445:lvgl/src/extra/layouts/grid/../flex/../../../core/lv_obj_style_gen.h **** static inline lv_color_t lv_obj_get_style_text_color(const struct _lv_obj_t * obj, uint32_t part)
 446:lvgl/src/extra/layouts/grid/../flex/../../../core/lv_obj_style_gen.h **** {
 447:lvgl/src/extra/layouts/grid/../flex/../../../core/lv_obj_style_gen.h ****     lv_style_value_t v = lv_obj_get_style_prop(obj, part, LV_STYLE_TEXT_COLOR);
 448:lvgl/src/extra/layouts/grid/../flex/../../../core/lv_obj_style_gen.h ****     return v.color;
 449:lvgl/src/extra/layouts/grid/../flex/../../../core/lv_obj_style_gen.h **** }
 450:lvgl/src/extra/layouts/grid/../flex/../../../core/lv_obj_style_gen.h **** 
 451:lvgl/src/extra/layouts/grid/../flex/../../../core/lv_obj_style_gen.h **** static inline lv_color_t lv_obj_get_style_text_color_filtered(const struct _lv_obj_t * obj, uint32_
 452:lvgl/src/extra/layouts/grid/../flex/../../../core/lv_obj_style_gen.h **** {
 453:lvgl/src/extra/layouts/grid/../flex/../../../core/lv_obj_style_gen.h ****     lv_style_value_t v = _lv_obj_style_apply_color_filter(obj, part, lv_obj_get_style_prop(obj, par
 454:lvgl/src/extra/layouts/grid/../flex/../../../core/lv_obj_style_gen.h ****     return v.color;
 455:lvgl/src/extra/layouts/grid/../flex/../../../core/lv_obj_style_gen.h **** }
 456:lvgl/src/extra/layouts/grid/../flex/../../../core/lv_obj_style_gen.h **** 
 457:lvgl/src/extra/layouts/grid/../flex/../../../core/lv_obj_style_gen.h **** static inline lv_opa_t lv_obj_get_style_text_opa(const struct _lv_obj_t * obj, uint32_t part)
 458:lvgl/src/extra/layouts/grid/../flex/../../../core/lv_obj_style_gen.h **** {
 459:lvgl/src/extra/layouts/grid/../flex/../../../core/lv_obj_style_gen.h ****     lv_style_value_t v = lv_obj_get_style_prop(obj, part, LV_STYLE_TEXT_OPA);
 460:lvgl/src/extra/layouts/grid/../flex/../../../core/lv_obj_style_gen.h ****     return (lv_opa_t)v.num;
 461:lvgl/src/extra/layouts/grid/../flex/../../../core/lv_obj_style_gen.h **** }
 462:lvgl/src/extra/layouts/grid/../flex/../../../core/lv_obj_style_gen.h **** 
 463:lvgl/src/extra/layouts/grid/../flex/../../../core/lv_obj_style_gen.h **** static inline const lv_font_t * lv_obj_get_style_text_font(const struct _lv_obj_t * obj, uint32_t p
 464:lvgl/src/extra/layouts/grid/../flex/../../../core/lv_obj_style_gen.h **** {
 465:lvgl/src/extra/layouts/grid/../flex/../../../core/lv_obj_style_gen.h ****     lv_style_value_t v = lv_obj_get_style_prop(obj, part, LV_STYLE_TEXT_FONT);
 466:lvgl/src/extra/layouts/grid/../flex/../../../core/lv_obj_style_gen.h ****     return (const lv_font_t *)v.ptr;
 467:lvgl/src/extra/layouts/grid/../flex/../../../core/lv_obj_style_gen.h **** }
 468:lvgl/src/extra/layouts/grid/../flex/../../../core/lv_obj_style_gen.h **** 
 469:lvgl/src/extra/layouts/grid/../flex/../../../core/lv_obj_style_gen.h **** static inline lv_coord_t lv_obj_get_style_text_letter_space(const struct _lv_obj_t * obj, uint32_t 
 470:lvgl/src/extra/layouts/grid/../flex/../../../core/lv_obj_style_gen.h **** {
 471:lvgl/src/extra/layouts/grid/../flex/../../../core/lv_obj_style_gen.h ****     lv_style_value_t v = lv_obj_get_style_prop(obj, part, LV_STYLE_TEXT_LETTER_SPACE);
 472:lvgl/src/extra/layouts/grid/../flex/../../../core/lv_obj_style_gen.h ****     return (lv_coord_t)v.num;
 473:lvgl/src/extra/layouts/grid/../flex/../../../core/lv_obj_style_gen.h **** }
 474:lvgl/src/extra/layouts/grid/../flex/../../../core/lv_obj_style_gen.h **** 
 475:lvgl/src/extra/layouts/grid/../flex/../../../core/lv_obj_style_gen.h **** static inline lv_coord_t lv_obj_get_style_text_line_space(const struct _lv_obj_t * obj, uint32_t pa
 476:lvgl/src/extra/layouts/grid/../flex/../../../core/lv_obj_style_gen.h **** {
 477:lvgl/src/extra/layouts/grid/../flex/../../../core/lv_obj_style_gen.h ****     lv_style_value_t v = lv_obj_get_style_prop(obj, part, LV_STYLE_TEXT_LINE_SPACE);
 478:lvgl/src/extra/layouts/grid/../flex/../../../core/lv_obj_style_gen.h ****     return (lv_coord_t)v.num;
 479:lvgl/src/extra/layouts/grid/../flex/../../../core/lv_obj_style_gen.h **** }
 480:lvgl/src/extra/layouts/grid/../flex/../../../core/lv_obj_style_gen.h **** 
 481:lvgl/src/extra/layouts/grid/../flex/../../../core/lv_obj_style_gen.h **** static inline lv_text_decor_t lv_obj_get_style_text_decor(const struct _lv_obj_t * obj, uint32_t pa
 482:lvgl/src/extra/layouts/grid/../flex/../../../core/lv_obj_style_gen.h **** {
