ARM GAS  /var/folders/21/t9g5rlb91ys800n5npymflf80000gn/T//ccKy7Lvj.s 			page 1


   1              		.cpu cortex-m4
   2              		.arch armv7e-m
   3              		.fpu fpv4-sp-d16
   4              		.eabi_attribute 27, 1
   5              		.eabi_attribute 28, 1
   6              		.eabi_attribute 20, 1
   7              		.eabi_attribute 21, 1
   8              		.eabi_attribute 23, 3
   9              		.eabi_attribute 24, 1
  10              		.eabi_attribute 25, 1
  11              		.eabi_attribute 26, 1
  12              		.eabi_attribute 30, 1
  13              		.eabi_attribute 34, 1
  14              		.eabi_attribute 18, 4
  15              		.file	"lv_indev_scroll.c"
  16              		.text
  17              	.Ltext0:
  18              		.cfi_sections	.debug_frame
  19              		.file 1 "lvgl/src/core/lv_indev_scroll.c"
  20              		.section	.text.scroll_limit_diff,"ax",%progbits
  21              		.align	1
  22              		.syntax unified
  23              		.thumb
  24              		.thumb_func
  26              	scroll_limit_diff:
  27              	.LVL0:
  28              	.LFB169:
   1:lvgl/src/core/lv_indev_scroll.c **** /**
   2:lvgl/src/core/lv_indev_scroll.c ****  * @file lv_indev_scroll.c
   3:lvgl/src/core/lv_indev_scroll.c ****  *
   4:lvgl/src/core/lv_indev_scroll.c ****  */
   5:lvgl/src/core/lv_indev_scroll.c **** 
   6:lvgl/src/core/lv_indev_scroll.c **** /*********************
   7:lvgl/src/core/lv_indev_scroll.c ****  *      INCLUDES
   8:lvgl/src/core/lv_indev_scroll.c ****  *********************/
   9:lvgl/src/core/lv_indev_scroll.c **** #include "lv_indev.h"
  10:lvgl/src/core/lv_indev_scroll.c **** #include "lv_indev_scroll.h"
  11:lvgl/src/core/lv_indev_scroll.c **** 
  12:lvgl/src/core/lv_indev_scroll.c **** /*********************
  13:lvgl/src/core/lv_indev_scroll.c ****  *      DEFINES
  14:lvgl/src/core/lv_indev_scroll.c ****  *********************/
  15:lvgl/src/core/lv_indev_scroll.c **** #define ELASTIC_SLOWNESS_FACTOR 4   /*Scrolling on elastic parts are slower by this factor*/
  16:lvgl/src/core/lv_indev_scroll.c **** 
  17:lvgl/src/core/lv_indev_scroll.c **** /**********************
  18:lvgl/src/core/lv_indev_scroll.c ****  *      TYPEDEFS
  19:lvgl/src/core/lv_indev_scroll.c ****  **********************/
  20:lvgl/src/core/lv_indev_scroll.c **** 
  21:lvgl/src/core/lv_indev_scroll.c **** /**********************
  22:lvgl/src/core/lv_indev_scroll.c ****  *  STATIC PROTOTYPES
  23:lvgl/src/core/lv_indev_scroll.c ****  **********************/
  24:lvgl/src/core/lv_indev_scroll.c **** static lv_obj_t * find_scroll_obj(_lv_indev_proc_t * proc);
  25:lvgl/src/core/lv_indev_scroll.c **** static void init_scroll_limits(_lv_indev_proc_t * proc);
  26:lvgl/src/core/lv_indev_scroll.c **** static lv_coord_t find_snap_point_x(const lv_obj_t * obj, lv_coord_t min, lv_coord_t max, lv_coord_
  27:lvgl/src/core/lv_indev_scroll.c **** static lv_coord_t find_snap_point_y(const lv_obj_t * obj, lv_coord_t min, lv_coord_t max, lv_coord_
  28:lvgl/src/core/lv_indev_scroll.c **** static void scroll_limit_diff(_lv_indev_proc_t * proc, lv_coord_t * diff_x, lv_coord_t * diff_y);
  29:lvgl/src/core/lv_indev_scroll.c **** static lv_coord_t scroll_throw_predict_y(_lv_indev_proc_t * proc);
  30:lvgl/src/core/lv_indev_scroll.c **** static lv_coord_t scroll_throw_predict_x(_lv_indev_proc_t * proc);
ARM GAS  /var/folders/21/t9g5rlb91ys800n5npymflf80000gn/T//ccKy7Lvj.s 			page 2


  31:lvgl/src/core/lv_indev_scroll.c **** static lv_coord_t elastic_diff(lv_obj_t * scroll_obj, lv_coord_t diff, lv_coord_t scroll_start, lv_
  32:lvgl/src/core/lv_indev_scroll.c ****                                lv_dir_t dir);
  33:lvgl/src/core/lv_indev_scroll.c **** 
  34:lvgl/src/core/lv_indev_scroll.c **** /**********************
  35:lvgl/src/core/lv_indev_scroll.c ****  *  STATIC VARIABLES
  36:lvgl/src/core/lv_indev_scroll.c ****  **********************/
  37:lvgl/src/core/lv_indev_scroll.c **** 
  38:lvgl/src/core/lv_indev_scroll.c **** /**********************
  39:lvgl/src/core/lv_indev_scroll.c ****  *      MACROS
  40:lvgl/src/core/lv_indev_scroll.c ****  **********************/
  41:lvgl/src/core/lv_indev_scroll.c **** 
  42:lvgl/src/core/lv_indev_scroll.c **** /**********************
  43:lvgl/src/core/lv_indev_scroll.c ****  *   GLOBAL FUNCTIONS
  44:lvgl/src/core/lv_indev_scroll.c ****  **********************/
  45:lvgl/src/core/lv_indev_scroll.c **** 
  46:lvgl/src/core/lv_indev_scroll.c **** void _lv_indev_scroll_handler(_lv_indev_proc_t * proc)
  47:lvgl/src/core/lv_indev_scroll.c **** {
  48:lvgl/src/core/lv_indev_scroll.c ****     if(proc->types.pointer.vect.x == 0 && proc->types.pointer.vect.y == 0) {
  49:lvgl/src/core/lv_indev_scroll.c ****         return;
  50:lvgl/src/core/lv_indev_scroll.c ****     }
  51:lvgl/src/core/lv_indev_scroll.c **** 
  52:lvgl/src/core/lv_indev_scroll.c ****     lv_obj_t * scroll_obj = proc->types.pointer.scroll_obj;
  53:lvgl/src/core/lv_indev_scroll.c ****     /*If there is no scroll object yet try to find one*/
  54:lvgl/src/core/lv_indev_scroll.c ****     if(scroll_obj == NULL) {
  55:lvgl/src/core/lv_indev_scroll.c ****         scroll_obj = find_scroll_obj(proc);
  56:lvgl/src/core/lv_indev_scroll.c ****         if(scroll_obj == NULL) return;
  57:lvgl/src/core/lv_indev_scroll.c **** 
  58:lvgl/src/core/lv_indev_scroll.c ****         init_scroll_limits(proc);
  59:lvgl/src/core/lv_indev_scroll.c **** 
  60:lvgl/src/core/lv_indev_scroll.c ****         lv_event_send(scroll_obj, LV_EVENT_SCROLL_BEGIN, NULL);
  61:lvgl/src/core/lv_indev_scroll.c ****         if(proc->reset_query) return;
  62:lvgl/src/core/lv_indev_scroll.c ****     }
  63:lvgl/src/core/lv_indev_scroll.c **** 
  64:lvgl/src/core/lv_indev_scroll.c ****     /*Set new position or scroll if the vector is not zero*/
  65:lvgl/src/core/lv_indev_scroll.c ****     int16_t angle = 0;
  66:lvgl/src/core/lv_indev_scroll.c ****     int16_t zoom = 256;
  67:lvgl/src/core/lv_indev_scroll.c ****     lv_obj_t * parent = scroll_obj;
  68:lvgl/src/core/lv_indev_scroll.c ****     while(parent) {
  69:lvgl/src/core/lv_indev_scroll.c ****         angle += lv_obj_get_style_transform_angle(parent, 0);
  70:lvgl/src/core/lv_indev_scroll.c ****         zoom *= (lv_obj_get_style_transform_zoom(parent, 0) / 256);
  71:lvgl/src/core/lv_indev_scroll.c ****         parent = lv_obj_get_parent(parent);
  72:lvgl/src/core/lv_indev_scroll.c ****     }
  73:lvgl/src/core/lv_indev_scroll.c **** 
  74:lvgl/src/core/lv_indev_scroll.c ****     if(angle != 0 || zoom != LV_IMG_ZOOM_NONE) {
  75:lvgl/src/core/lv_indev_scroll.c ****         angle = -angle;
  76:lvgl/src/core/lv_indev_scroll.c ****         zoom = (256 * 256) / zoom;
  77:lvgl/src/core/lv_indev_scroll.c ****         lv_point_t pivot = { 0, 0 };
  78:lvgl/src/core/lv_indev_scroll.c ****         lv_point_transform(&proc->types.pointer.vect, angle, zoom, &pivot);
  79:lvgl/src/core/lv_indev_scroll.c ****     }
  80:lvgl/src/core/lv_indev_scroll.c **** 
  81:lvgl/src/core/lv_indev_scroll.c ****     lv_coord_t diff_x = 0;
  82:lvgl/src/core/lv_indev_scroll.c ****     lv_coord_t diff_y = 0;
  83:lvgl/src/core/lv_indev_scroll.c ****     if(proc->types.pointer.scroll_dir == LV_DIR_HOR) {
  84:lvgl/src/core/lv_indev_scroll.c ****         lv_coord_t sr = lv_obj_get_scroll_right(scroll_obj);
  85:lvgl/src/core/lv_indev_scroll.c ****         lv_coord_t sl = lv_obj_get_scroll_left(scroll_obj);
  86:lvgl/src/core/lv_indev_scroll.c ****         diff_x = elastic_diff(scroll_obj, proc->types.pointer.vect.x, sl, sr, LV_DIR_HOR);
  87:lvgl/src/core/lv_indev_scroll.c ****     }
ARM GAS  /var/folders/21/t9g5rlb91ys800n5npymflf80000gn/T//ccKy7Lvj.s 			page 3


  88:lvgl/src/core/lv_indev_scroll.c ****     else {
  89:lvgl/src/core/lv_indev_scroll.c ****         lv_coord_t st = lv_obj_get_scroll_top(scroll_obj);
  90:lvgl/src/core/lv_indev_scroll.c ****         lv_coord_t sb = lv_obj_get_scroll_bottom(scroll_obj);
  91:lvgl/src/core/lv_indev_scroll.c ****         diff_y = elastic_diff(scroll_obj, proc->types.pointer.vect.y, st, sb, LV_DIR_VER);
  92:lvgl/src/core/lv_indev_scroll.c ****     }
  93:lvgl/src/core/lv_indev_scroll.c **** 
  94:lvgl/src/core/lv_indev_scroll.c ****     lv_dir_t scroll_dir = lv_obj_get_scroll_dir(scroll_obj);
  95:lvgl/src/core/lv_indev_scroll.c ****     if((scroll_dir & LV_DIR_LEFT)   == 0 && diff_x > 0) diff_x = 0;
  96:lvgl/src/core/lv_indev_scroll.c ****     if((scroll_dir & LV_DIR_RIGHT)  == 0 && diff_x < 0) diff_x = 0;
  97:lvgl/src/core/lv_indev_scroll.c ****     if((scroll_dir & LV_DIR_TOP)    == 0 && diff_y > 0) diff_y = 0;
  98:lvgl/src/core/lv_indev_scroll.c ****     if((scroll_dir & LV_DIR_BOTTOM) == 0 && diff_y < 0) diff_y = 0;
  99:lvgl/src/core/lv_indev_scroll.c **** 
 100:lvgl/src/core/lv_indev_scroll.c ****     /*Respect the scroll limit area*/
 101:lvgl/src/core/lv_indev_scroll.c ****     scroll_limit_diff(proc, &diff_x, &diff_y);
 102:lvgl/src/core/lv_indev_scroll.c **** 
 103:lvgl/src/core/lv_indev_scroll.c ****     _lv_obj_scroll_by_raw(scroll_obj, diff_x, diff_y);
 104:lvgl/src/core/lv_indev_scroll.c ****     if(proc->reset_query) return;
 105:lvgl/src/core/lv_indev_scroll.c ****     proc->types.pointer.scroll_sum.x += diff_x;
 106:lvgl/src/core/lv_indev_scroll.c ****     proc->types.pointer.scroll_sum.y += diff_y;
 107:lvgl/src/core/lv_indev_scroll.c **** }
 108:lvgl/src/core/lv_indev_scroll.c **** 
 109:lvgl/src/core/lv_indev_scroll.c **** void _lv_indev_scroll_throw_handler(_lv_indev_proc_t * proc)
 110:lvgl/src/core/lv_indev_scroll.c **** {
 111:lvgl/src/core/lv_indev_scroll.c ****     lv_obj_t * scroll_obj = proc->types.pointer.scroll_obj;
 112:lvgl/src/core/lv_indev_scroll.c ****     if(scroll_obj == NULL) return;
 113:lvgl/src/core/lv_indev_scroll.c ****     if(proc->types.pointer.scroll_dir == LV_DIR_NONE) return;
 114:lvgl/src/core/lv_indev_scroll.c **** 
 115:lvgl/src/core/lv_indev_scroll.c ****     lv_indev_t * indev_act = lv_indev_get_act();
 116:lvgl/src/core/lv_indev_scroll.c ****     lv_coord_t scroll_throw = indev_act->driver->scroll_throw;
 117:lvgl/src/core/lv_indev_scroll.c **** 
 118:lvgl/src/core/lv_indev_scroll.c ****     if(lv_obj_has_flag(scroll_obj, LV_OBJ_FLAG_SCROLL_MOMENTUM) == false) {
 119:lvgl/src/core/lv_indev_scroll.c ****         proc->types.pointer.scroll_throw_vect.y = 0;
 120:lvgl/src/core/lv_indev_scroll.c ****         proc->types.pointer.scroll_throw_vect.x = 0;
 121:lvgl/src/core/lv_indev_scroll.c ****     }
 122:lvgl/src/core/lv_indev_scroll.c **** 
 123:lvgl/src/core/lv_indev_scroll.c ****     lv_scroll_snap_t align_x = lv_obj_get_scroll_snap_x(scroll_obj);
 124:lvgl/src/core/lv_indev_scroll.c ****     lv_scroll_snap_t align_y = lv_obj_get_scroll_snap_y(scroll_obj);
 125:lvgl/src/core/lv_indev_scroll.c **** 
 126:lvgl/src/core/lv_indev_scroll.c ****     if(proc->types.pointer.scroll_dir == LV_DIR_VER) {
 127:lvgl/src/core/lv_indev_scroll.c ****         proc->types.pointer.scroll_throw_vect.x = 0;
 128:lvgl/src/core/lv_indev_scroll.c ****         /*If no snapping "throw"*/
 129:lvgl/src/core/lv_indev_scroll.c ****         if(align_y == LV_SCROLL_SNAP_NONE) {
 130:lvgl/src/core/lv_indev_scroll.c ****             proc->types.pointer.scroll_throw_vect.y =
 131:lvgl/src/core/lv_indev_scroll.c ****                 proc->types.pointer.scroll_throw_vect.y * (100 - scroll_throw) / 100;
 132:lvgl/src/core/lv_indev_scroll.c **** 
 133:lvgl/src/core/lv_indev_scroll.c ****             lv_coord_t sb = lv_obj_get_scroll_bottom(scroll_obj);
 134:lvgl/src/core/lv_indev_scroll.c ****             lv_coord_t st = lv_obj_get_scroll_top(scroll_obj);
 135:lvgl/src/core/lv_indev_scroll.c **** 
 136:lvgl/src/core/lv_indev_scroll.c ****             proc->types.pointer.scroll_throw_vect.y = elastic_diff(scroll_obj, proc->types.pointer.
 137:lvgl/src/core/lv_indev_scroll.c ****                                                                    LV_DIR_VER);
 138:lvgl/src/core/lv_indev_scroll.c **** 
 139:lvgl/src/core/lv_indev_scroll.c ****             lv_obj_scroll_by(scroll_obj, 0, proc->types.pointer.scroll_throw_vect.y, LV_ANIM_OFF);
 140:lvgl/src/core/lv_indev_scroll.c ****         }
 141:lvgl/src/core/lv_indev_scroll.c ****         /*With snapping find the nearest snap point and scroll there*/
 142:lvgl/src/core/lv_indev_scroll.c ****         else {
 143:lvgl/src/core/lv_indev_scroll.c ****             lv_coord_t diff_y = scroll_throw_predict_y(proc);
 144:lvgl/src/core/lv_indev_scroll.c ****             proc->types.pointer.scroll_throw_vect.y = 0;
ARM GAS  /var/folders/21/t9g5rlb91ys800n5npymflf80000gn/T//ccKy7Lvj.s 			page 4


 145:lvgl/src/core/lv_indev_scroll.c ****             scroll_limit_diff(proc, NULL, &diff_y);
 146:lvgl/src/core/lv_indev_scroll.c ****             lv_coord_t y = find_snap_point_y(scroll_obj, LV_COORD_MIN, LV_COORD_MAX, diff_y);
 147:lvgl/src/core/lv_indev_scroll.c ****             lv_obj_scroll_by(scroll_obj, 0, diff_y + y, LV_ANIM_ON);
 148:lvgl/src/core/lv_indev_scroll.c ****         }
 149:lvgl/src/core/lv_indev_scroll.c ****     }
 150:lvgl/src/core/lv_indev_scroll.c ****     else if(proc->types.pointer.scroll_dir == LV_DIR_HOR) {
 151:lvgl/src/core/lv_indev_scroll.c ****         proc->types.pointer.scroll_throw_vect.y = 0;
 152:lvgl/src/core/lv_indev_scroll.c ****         /*If no snapping "throw"*/
 153:lvgl/src/core/lv_indev_scroll.c ****         if(align_x == LV_SCROLL_SNAP_NONE) {
 154:lvgl/src/core/lv_indev_scroll.c ****             proc->types.pointer.scroll_throw_vect.x =
 155:lvgl/src/core/lv_indev_scroll.c ****                 proc->types.pointer.scroll_throw_vect.x * (100 - scroll_throw) / 100;
 156:lvgl/src/core/lv_indev_scroll.c **** 
 157:lvgl/src/core/lv_indev_scroll.c ****             lv_coord_t sl = lv_obj_get_scroll_left(scroll_obj);
 158:lvgl/src/core/lv_indev_scroll.c ****             lv_coord_t sr = lv_obj_get_scroll_right(scroll_obj);
 159:lvgl/src/core/lv_indev_scroll.c **** 
 160:lvgl/src/core/lv_indev_scroll.c ****             proc->types.pointer.scroll_throw_vect.x = elastic_diff(scroll_obj, proc->types.pointer.
 161:lvgl/src/core/lv_indev_scroll.c ****                                                                    LV_DIR_HOR);
 162:lvgl/src/core/lv_indev_scroll.c **** 
 163:lvgl/src/core/lv_indev_scroll.c ****             lv_obj_scroll_by(scroll_obj, proc->types.pointer.scroll_throw_vect.x, 0, LV_ANIM_OFF);
 164:lvgl/src/core/lv_indev_scroll.c ****         }
 165:lvgl/src/core/lv_indev_scroll.c ****         /*With snapping find the nearest snap point and scroll there*/
 166:lvgl/src/core/lv_indev_scroll.c ****         else {
 167:lvgl/src/core/lv_indev_scroll.c ****             lv_coord_t diff_x = scroll_throw_predict_x(proc);
 168:lvgl/src/core/lv_indev_scroll.c ****             proc->types.pointer.scroll_throw_vect.x = 0;
 169:lvgl/src/core/lv_indev_scroll.c ****             scroll_limit_diff(proc, &diff_x, NULL);
 170:lvgl/src/core/lv_indev_scroll.c ****             lv_coord_t x = find_snap_point_x(scroll_obj, LV_COORD_MIN, LV_COORD_MAX, diff_x);
 171:lvgl/src/core/lv_indev_scroll.c ****             lv_obj_scroll_by(scroll_obj, x + diff_x, 0, LV_ANIM_ON);
 172:lvgl/src/core/lv_indev_scroll.c ****         }
 173:lvgl/src/core/lv_indev_scroll.c ****     }
 174:lvgl/src/core/lv_indev_scroll.c **** 
 175:lvgl/src/core/lv_indev_scroll.c ****     /*Check if the scroll has finished*/
 176:lvgl/src/core/lv_indev_scroll.c ****     if(proc->types.pointer.scroll_throw_vect.x == 0 && proc->types.pointer.scroll_throw_vect.y == 0
 177:lvgl/src/core/lv_indev_scroll.c ****         /*Revert if scrolled in*/
 178:lvgl/src/core/lv_indev_scroll.c ****         /*If vertically scrollable and not controlled by snap*/
 179:lvgl/src/core/lv_indev_scroll.c ****         if(align_y == LV_SCROLL_SNAP_NONE) {
 180:lvgl/src/core/lv_indev_scroll.c ****             lv_coord_t st = lv_obj_get_scroll_top(scroll_obj);
 181:lvgl/src/core/lv_indev_scroll.c ****             lv_coord_t sb = lv_obj_get_scroll_bottom(scroll_obj);
 182:lvgl/src/core/lv_indev_scroll.c ****             if(st > 0 || sb > 0) {
 183:lvgl/src/core/lv_indev_scroll.c ****                 if(st < 0) {
 184:lvgl/src/core/lv_indev_scroll.c ****                     lv_obj_scroll_by(scroll_obj, 0, st, LV_ANIM_ON);
 185:lvgl/src/core/lv_indev_scroll.c ****                 }
 186:lvgl/src/core/lv_indev_scroll.c ****                 else if(sb < 0) {
 187:lvgl/src/core/lv_indev_scroll.c ****                     lv_obj_scroll_by(scroll_obj, 0, -sb, LV_ANIM_ON);
 188:lvgl/src/core/lv_indev_scroll.c ****                 }
 189:lvgl/src/core/lv_indev_scroll.c ****             }
 190:lvgl/src/core/lv_indev_scroll.c ****         }
 191:lvgl/src/core/lv_indev_scroll.c **** 
 192:lvgl/src/core/lv_indev_scroll.c ****         /*If horizontally scrollable and not controlled by snap*/
 193:lvgl/src/core/lv_indev_scroll.c ****         if(align_x == LV_SCROLL_SNAP_NONE) {
 194:lvgl/src/core/lv_indev_scroll.c ****             lv_coord_t sl = lv_obj_get_scroll_left(scroll_obj);
 195:lvgl/src/core/lv_indev_scroll.c ****             lv_coord_t sr = lv_obj_get_scroll_right(scroll_obj);
 196:lvgl/src/core/lv_indev_scroll.c ****             if(sl > 0 || sr > 0) {
 197:lvgl/src/core/lv_indev_scroll.c ****                 if(sl < 0) {
 198:lvgl/src/core/lv_indev_scroll.c ****                     lv_obj_scroll_by(scroll_obj, sl, 0, LV_ANIM_ON);
 199:lvgl/src/core/lv_indev_scroll.c ****                 }
 200:lvgl/src/core/lv_indev_scroll.c ****                 else if(sr < 0) {
 201:lvgl/src/core/lv_indev_scroll.c ****                     lv_obj_scroll_by(scroll_obj, -sr, 0, LV_ANIM_ON);
ARM GAS  /var/folders/21/t9g5rlb91ys800n5npymflf80000gn/T//ccKy7Lvj.s 			page 5


 202:lvgl/src/core/lv_indev_scroll.c ****                 }
 203:lvgl/src/core/lv_indev_scroll.c ****             }
 204:lvgl/src/core/lv_indev_scroll.c ****         }
 205:lvgl/src/core/lv_indev_scroll.c **** 
 206:lvgl/src/core/lv_indev_scroll.c ****         lv_event_send(scroll_obj, LV_EVENT_SCROLL_END, indev_act);
 207:lvgl/src/core/lv_indev_scroll.c ****         if(proc->reset_query) return;
 208:lvgl/src/core/lv_indev_scroll.c **** 
 209:lvgl/src/core/lv_indev_scroll.c ****         proc->types.pointer.scroll_dir = LV_DIR_NONE;
 210:lvgl/src/core/lv_indev_scroll.c ****         proc->types.pointer.scroll_obj = NULL;
 211:lvgl/src/core/lv_indev_scroll.c ****     }
 212:lvgl/src/core/lv_indev_scroll.c **** }
 213:lvgl/src/core/lv_indev_scroll.c **** 
 214:lvgl/src/core/lv_indev_scroll.c **** /**
 215:lvgl/src/core/lv_indev_scroll.c ****  * Predict where would a scroll throw end
 216:lvgl/src/core/lv_indev_scroll.c ****  * @param indev pointer to an input device
 217:lvgl/src/core/lv_indev_scroll.c ****  * @param dir `LV_DIR_VER` or `LV_DIR_HOR`
 218:lvgl/src/core/lv_indev_scroll.c ****  * @return the difference compared to the current position when the throw would be finished
 219:lvgl/src/core/lv_indev_scroll.c ****  */
 220:lvgl/src/core/lv_indev_scroll.c **** lv_coord_t lv_indev_scroll_throw_predict(lv_indev_t * indev, lv_dir_t dir)
 221:lvgl/src/core/lv_indev_scroll.c **** {
 222:lvgl/src/core/lv_indev_scroll.c ****     if(indev == NULL) return 0;
 223:lvgl/src/core/lv_indev_scroll.c ****     lv_coord_t v;
 224:lvgl/src/core/lv_indev_scroll.c ****     switch(dir) {
 225:lvgl/src/core/lv_indev_scroll.c ****         case LV_DIR_VER:
 226:lvgl/src/core/lv_indev_scroll.c ****             v = indev->proc.types.pointer.scroll_throw_vect_ori.y;
 227:lvgl/src/core/lv_indev_scroll.c ****             break;
 228:lvgl/src/core/lv_indev_scroll.c ****         case LV_DIR_HOR:
 229:lvgl/src/core/lv_indev_scroll.c ****             v = indev->proc.types.pointer.scroll_throw_vect_ori.x;
 230:lvgl/src/core/lv_indev_scroll.c ****             break;
 231:lvgl/src/core/lv_indev_scroll.c ****         default:
 232:lvgl/src/core/lv_indev_scroll.c ****             return 0;
 233:lvgl/src/core/lv_indev_scroll.c ****     }
 234:lvgl/src/core/lv_indev_scroll.c **** 
 235:lvgl/src/core/lv_indev_scroll.c ****     lv_coord_t scroll_throw = indev->driver->scroll_throw;
 236:lvgl/src/core/lv_indev_scroll.c ****     lv_coord_t sum = 0;
 237:lvgl/src/core/lv_indev_scroll.c ****     while(v) {
 238:lvgl/src/core/lv_indev_scroll.c ****         sum += v;
 239:lvgl/src/core/lv_indev_scroll.c ****         v = v * (100 - scroll_throw) / 100;
 240:lvgl/src/core/lv_indev_scroll.c ****     }
 241:lvgl/src/core/lv_indev_scroll.c **** 
 242:lvgl/src/core/lv_indev_scroll.c ****     return sum;
 243:lvgl/src/core/lv_indev_scroll.c **** }
 244:lvgl/src/core/lv_indev_scroll.c **** 
 245:lvgl/src/core/lv_indev_scroll.c **** void lv_indev_scroll_get_snap_dist(lv_obj_t * obj, lv_point_t * p)
 246:lvgl/src/core/lv_indev_scroll.c **** {
 247:lvgl/src/core/lv_indev_scroll.c ****     p->x = find_snap_point_x(obj, obj->coords.x1, obj->coords.x2, 0);
 248:lvgl/src/core/lv_indev_scroll.c ****     p->y = find_snap_point_y(obj, obj->coords.y1, obj->coords.y2, 0);
 249:lvgl/src/core/lv_indev_scroll.c **** }
 250:lvgl/src/core/lv_indev_scroll.c **** 
 251:lvgl/src/core/lv_indev_scroll.c **** /**********************
 252:lvgl/src/core/lv_indev_scroll.c ****  *   STATIC FUNCTIONS
 253:lvgl/src/core/lv_indev_scroll.c ****  **********************/
 254:lvgl/src/core/lv_indev_scroll.c **** 
 255:lvgl/src/core/lv_indev_scroll.c **** static lv_obj_t * find_scroll_obj(_lv_indev_proc_t * proc)
 256:lvgl/src/core/lv_indev_scroll.c **** {
 257:lvgl/src/core/lv_indev_scroll.c ****     lv_obj_t * obj_candidate = NULL;
 258:lvgl/src/core/lv_indev_scroll.c ****     lv_dir_t dir_candidate = LV_DIR_NONE;
ARM GAS  /var/folders/21/t9g5rlb91ys800n5npymflf80000gn/T//ccKy7Lvj.s 			page 6


 259:lvgl/src/core/lv_indev_scroll.c ****     lv_indev_t * indev_act = lv_indev_get_act();
 260:lvgl/src/core/lv_indev_scroll.c ****     lv_coord_t scroll_limit = indev_act->driver->scroll_limit;
 261:lvgl/src/core/lv_indev_scroll.c **** 
 262:lvgl/src/core/lv_indev_scroll.c ****     /*Go until find a scrollable object in the current direction
 263:lvgl/src/core/lv_indev_scroll.c ****      *More precisely:
 264:lvgl/src/core/lv_indev_scroll.c ****      * 1. Check the pressed object and all of its ancestors and try to find an object which is scro
 265:lvgl/src/core/lv_indev_scroll.c ****      * 2. Scrollable means it has some content out of its area
 266:lvgl/src/core/lv_indev_scroll.c ****      * 3. If an object can be scrolled into the current direction then use it ("real match"")
 267:lvgl/src/core/lv_indev_scroll.c ****      * 4. If can be scrolled on the current axis (hor/ver) save it as candidate (at least show an e
 268:lvgl/src/core/lv_indev_scroll.c ****      * 5. Use the last candidate. Always the "deepest" parent or the object from point 3*/
 269:lvgl/src/core/lv_indev_scroll.c ****     lv_obj_t * obj_act = proc->types.pointer.act_obj;
 270:lvgl/src/core/lv_indev_scroll.c **** 
 271:lvgl/src/core/lv_indev_scroll.c ****     /*Decide if it's a horizontal or vertical scroll*/
 272:lvgl/src/core/lv_indev_scroll.c ****     bool hor_en = false;
 273:lvgl/src/core/lv_indev_scroll.c ****     bool ver_en = false;
 274:lvgl/src/core/lv_indev_scroll.c **** 
 275:lvgl/src/core/lv_indev_scroll.c ****     proc->types.pointer.scroll_sum.x += proc->types.pointer.vect.x;
 276:lvgl/src/core/lv_indev_scroll.c ****     proc->types.pointer.scroll_sum.y += proc->types.pointer.vect.y;
 277:lvgl/src/core/lv_indev_scroll.c **** 
 278:lvgl/src/core/lv_indev_scroll.c ****     while(obj_act) {
 279:lvgl/src/core/lv_indev_scroll.c ****         /*Get the transformed scroll_sum with this object*/
 280:lvgl/src/core/lv_indev_scroll.c ****         int16_t angle = 0;
 281:lvgl/src/core/lv_indev_scroll.c ****         int32_t zoom = 256;
 282:lvgl/src/core/lv_indev_scroll.c ****         lv_point_t pivot = { 0, 0 };
 283:lvgl/src/core/lv_indev_scroll.c ****         lv_obj_t * parent = obj_act;
 284:lvgl/src/core/lv_indev_scroll.c ****         while(parent) {
 285:lvgl/src/core/lv_indev_scroll.c ****             angle += lv_obj_get_style_transform_angle(parent, 0);
 286:lvgl/src/core/lv_indev_scroll.c ****             int32_t zoom_act = lv_obj_get_style_transform_zoom(parent, 0);
 287:lvgl/src/core/lv_indev_scroll.c ****             zoom = (zoom * zoom_act) >> 8;
 288:lvgl/src/core/lv_indev_scroll.c ****             parent = lv_obj_get_parent(parent);
 289:lvgl/src/core/lv_indev_scroll.c ****         }
 290:lvgl/src/core/lv_indev_scroll.c **** 
 291:lvgl/src/core/lv_indev_scroll.c ****         lv_point_t obj_scroll_sum = proc->types.pointer.scroll_sum;
 292:lvgl/src/core/lv_indev_scroll.c ****         if(angle != 0 || zoom != LV_IMG_ZOOM_NONE) {
 293:lvgl/src/core/lv_indev_scroll.c ****             angle = -angle;
 294:lvgl/src/core/lv_indev_scroll.c ****             zoom = (256 * 256) / zoom;
 295:lvgl/src/core/lv_indev_scroll.c ****             lv_point_transform(&obj_scroll_sum, angle, zoom, &pivot);
 296:lvgl/src/core/lv_indev_scroll.c ****         }
 297:lvgl/src/core/lv_indev_scroll.c **** 
 298:lvgl/src/core/lv_indev_scroll.c ****         if(LV_ABS(obj_scroll_sum.x) > LV_ABS(obj_scroll_sum.y)) {
 299:lvgl/src/core/lv_indev_scroll.c ****             hor_en = true;
 300:lvgl/src/core/lv_indev_scroll.c ****         }
 301:lvgl/src/core/lv_indev_scroll.c ****         else {
 302:lvgl/src/core/lv_indev_scroll.c ****             ver_en = true;
 303:lvgl/src/core/lv_indev_scroll.c ****         }
 304:lvgl/src/core/lv_indev_scroll.c **** 
 305:lvgl/src/core/lv_indev_scroll.c ****         if(lv_obj_has_flag(obj_act, LV_OBJ_FLAG_SCROLLABLE) == false) {
 306:lvgl/src/core/lv_indev_scroll.c ****             /*If this object don't want to chain the scroll to the parent stop searching*/
 307:lvgl/src/core/lv_indev_scroll.c ****             if(lv_obj_has_flag(obj_act, LV_OBJ_FLAG_SCROLL_CHAIN_HOR) == false && hor_en) break;
 308:lvgl/src/core/lv_indev_scroll.c ****             if(lv_obj_has_flag(obj_act, LV_OBJ_FLAG_SCROLL_CHAIN_VER) == false && ver_en) break;
 309:lvgl/src/core/lv_indev_scroll.c **** 
 310:lvgl/src/core/lv_indev_scroll.c ****             obj_act = lv_obj_get_parent(obj_act);
 311:lvgl/src/core/lv_indev_scroll.c ****             continue;
 312:lvgl/src/core/lv_indev_scroll.c ****         }
 313:lvgl/src/core/lv_indev_scroll.c **** 
 314:lvgl/src/core/lv_indev_scroll.c ****         /*Consider both up-down or left/right scrollable according to the current direction*/
 315:lvgl/src/core/lv_indev_scroll.c ****         bool up_en = ver_en;
ARM GAS  /var/folders/21/t9g5rlb91ys800n5npymflf80000gn/T//ccKy7Lvj.s 			page 7


 316:lvgl/src/core/lv_indev_scroll.c ****         bool down_en = ver_en;
 317:lvgl/src/core/lv_indev_scroll.c ****         bool left_en = hor_en;
 318:lvgl/src/core/lv_indev_scroll.c ****         bool right_en = hor_en;
 319:lvgl/src/core/lv_indev_scroll.c **** 
 320:lvgl/src/core/lv_indev_scroll.c ****         /*The object might have disabled some directions.*/
 321:lvgl/src/core/lv_indev_scroll.c ****         lv_dir_t scroll_dir = lv_obj_get_scroll_dir(obj_act);
 322:lvgl/src/core/lv_indev_scroll.c ****         if((scroll_dir & LV_DIR_LEFT) == 0) left_en = false;
 323:lvgl/src/core/lv_indev_scroll.c ****         if((scroll_dir & LV_DIR_RIGHT) == 0) right_en = false;
 324:lvgl/src/core/lv_indev_scroll.c ****         if((scroll_dir & LV_DIR_TOP) == 0) up_en = false;
 325:lvgl/src/core/lv_indev_scroll.c ****         if((scroll_dir & LV_DIR_BOTTOM) == 0) down_en = false;
 326:lvgl/src/core/lv_indev_scroll.c **** 
 327:lvgl/src/core/lv_indev_scroll.c ****         /*The object is scrollable to a direction if its content overflow in that direction.*/
 328:lvgl/src/core/lv_indev_scroll.c ****         lv_coord_t st = lv_obj_get_scroll_top(obj_act);
 329:lvgl/src/core/lv_indev_scroll.c ****         lv_coord_t sb = lv_obj_get_scroll_bottom(obj_act);
 330:lvgl/src/core/lv_indev_scroll.c ****         lv_coord_t sl = lv_obj_get_scroll_left(obj_act);
 331:lvgl/src/core/lv_indev_scroll.c ****         lv_coord_t sr = lv_obj_get_scroll_right(obj_act);
 332:lvgl/src/core/lv_indev_scroll.c **** 
 333:lvgl/src/core/lv_indev_scroll.c ****         /*If this object is scrollable into the current scroll direction then save it as a candidat
 334:lvgl/src/core/lv_indev_scroll.c ****          *It's important only to be scrollable on the current axis (hor/ver) because if the scroll
 335:lvgl/src/core/lv_indev_scroll.c ****          *is propagated to this object it can show at least elastic scroll effect.
 336:lvgl/src/core/lv_indev_scroll.c ****          *But if not hor/ver scrollable do not scroll it at all (so it's not a good candidate)*/
 337:lvgl/src/core/lv_indev_scroll.c ****         if((st > 0 || sb > 0)  &&
 338:lvgl/src/core/lv_indev_scroll.c ****            ((up_en    && obj_scroll_sum.y >=   scroll_limit) ||
 339:lvgl/src/core/lv_indev_scroll.c ****             (down_en  && obj_scroll_sum.y <= - scroll_limit))) {
 340:lvgl/src/core/lv_indev_scroll.c ****             obj_candidate = obj_act;
 341:lvgl/src/core/lv_indev_scroll.c ****             dir_candidate = LV_DIR_VER;
 342:lvgl/src/core/lv_indev_scroll.c ****         }
 343:lvgl/src/core/lv_indev_scroll.c **** 
 344:lvgl/src/core/lv_indev_scroll.c ****         if((sl > 0 || sr > 0)  &&
 345:lvgl/src/core/lv_indev_scroll.c ****            ((left_en   && obj_scroll_sum.x >=   scroll_limit) ||
 346:lvgl/src/core/lv_indev_scroll.c ****             (right_en  && obj_scroll_sum.x <= - scroll_limit))) {
 347:lvgl/src/core/lv_indev_scroll.c ****             obj_candidate = obj_act;
 348:lvgl/src/core/lv_indev_scroll.c ****             dir_candidate = LV_DIR_HOR;
 349:lvgl/src/core/lv_indev_scroll.c ****         }
 350:lvgl/src/core/lv_indev_scroll.c **** 
 351:lvgl/src/core/lv_indev_scroll.c ****         if(st <= 0) up_en = false;
 352:lvgl/src/core/lv_indev_scroll.c ****         if(sb <= 0) down_en = false;
 353:lvgl/src/core/lv_indev_scroll.c ****         if(sl <= 0) left_en = false;
 354:lvgl/src/core/lv_indev_scroll.c ****         if(sr <= 0) right_en = false;
 355:lvgl/src/core/lv_indev_scroll.c **** 
 356:lvgl/src/core/lv_indev_scroll.c ****         /*If the object really can be scrolled into the current direction then use it.*/
 357:lvgl/src/core/lv_indev_scroll.c ****         if((left_en  && obj_scroll_sum.x >=   scroll_limit) ||
 358:lvgl/src/core/lv_indev_scroll.c ****            (right_en && obj_scroll_sum.x <= - scroll_limit) ||
 359:lvgl/src/core/lv_indev_scroll.c ****            (up_en    && obj_scroll_sum.y >=   scroll_limit) ||
 360:lvgl/src/core/lv_indev_scroll.c ****            (down_en  && obj_scroll_sum.y <= - scroll_limit)) {
 361:lvgl/src/core/lv_indev_scroll.c ****             proc->types.pointer.scroll_dir = hor_en ? LV_DIR_HOR : LV_DIR_VER;
 362:lvgl/src/core/lv_indev_scroll.c ****             break;
 363:lvgl/src/core/lv_indev_scroll.c ****         }
 364:lvgl/src/core/lv_indev_scroll.c **** 
 365:lvgl/src/core/lv_indev_scroll.c ****         /*If this object don't want to chain the scroll to the parent stop searching*/
 366:lvgl/src/core/lv_indev_scroll.c ****         if(lv_obj_has_flag(obj_act, LV_OBJ_FLAG_SCROLL_CHAIN_HOR) == false && hor_en) break;
 367:lvgl/src/core/lv_indev_scroll.c ****         if(lv_obj_has_flag(obj_act, LV_OBJ_FLAG_SCROLL_CHAIN_VER) == false && ver_en) break;
 368:lvgl/src/core/lv_indev_scroll.c **** 
 369:lvgl/src/core/lv_indev_scroll.c ****         /*Try the parent*/
 370:lvgl/src/core/lv_indev_scroll.c ****         obj_act = lv_obj_get_parent(obj_act);
 371:lvgl/src/core/lv_indev_scroll.c ****     }
 372:lvgl/src/core/lv_indev_scroll.c **** 
ARM GAS  /var/folders/21/t9g5rlb91ys800n5npymflf80000gn/T//ccKy7Lvj.s 			page 8


 373:lvgl/src/core/lv_indev_scroll.c ****     /*Use the last candidate*/
 374:lvgl/src/core/lv_indev_scroll.c ****     if(obj_candidate) {
 375:lvgl/src/core/lv_indev_scroll.c ****         proc->types.pointer.scroll_dir = dir_candidate;
 376:lvgl/src/core/lv_indev_scroll.c ****         proc->types.pointer.scroll_obj = obj_candidate;
 377:lvgl/src/core/lv_indev_scroll.c ****         proc->types.pointer.scroll_sum.x = 0;
 378:lvgl/src/core/lv_indev_scroll.c ****         proc->types.pointer.scroll_sum.y = 0;
 379:lvgl/src/core/lv_indev_scroll.c ****     }
 380:lvgl/src/core/lv_indev_scroll.c **** 
 381:lvgl/src/core/lv_indev_scroll.c ****     return obj_candidate;
 382:lvgl/src/core/lv_indev_scroll.c **** }
 383:lvgl/src/core/lv_indev_scroll.c **** 
 384:lvgl/src/core/lv_indev_scroll.c **** static void init_scroll_limits(_lv_indev_proc_t * proc)
 385:lvgl/src/core/lv_indev_scroll.c **** {
 386:lvgl/src/core/lv_indev_scroll.c ****     lv_obj_t * obj = proc->types.pointer.scroll_obj;
 387:lvgl/src/core/lv_indev_scroll.c ****     /*If there no STOP allow scrolling anywhere*/
 388:lvgl/src/core/lv_indev_scroll.c ****     if(lv_obj_has_flag(obj, LV_OBJ_FLAG_SCROLL_ONE) == false) {
 389:lvgl/src/core/lv_indev_scroll.c ****         lv_area_set(&proc->types.pointer.scroll_area, LV_COORD_MIN, LV_COORD_MIN, LV_COORD_MAX, LV_
 390:lvgl/src/core/lv_indev_scroll.c ****     }
 391:lvgl/src/core/lv_indev_scroll.c ****     /*With STOP limit the scrolling to the perv and next snap point*/
 392:lvgl/src/core/lv_indev_scroll.c ****     else {
 393:lvgl/src/core/lv_indev_scroll.c ****         switch(lv_obj_get_scroll_snap_y(obj)) {
 394:lvgl/src/core/lv_indev_scroll.c ****             case LV_SCROLL_SNAP_START:
 395:lvgl/src/core/lv_indev_scroll.c ****                 proc->types.pointer.scroll_area.y1 = find_snap_point_y(obj, obj->coords.y1 + 1, LV_
 396:lvgl/src/core/lv_indev_scroll.c ****                 proc->types.pointer.scroll_area.y2 = find_snap_point_y(obj, LV_COORD_MIN, obj->coor
 397:lvgl/src/core/lv_indev_scroll.c ****                 break;
 398:lvgl/src/core/lv_indev_scroll.c ****             case LV_SCROLL_SNAP_END:
 399:lvgl/src/core/lv_indev_scroll.c ****                 proc->types.pointer.scroll_area.y1 = find_snap_point_y(obj, obj->coords.y2, LV_COOR
 400:lvgl/src/core/lv_indev_scroll.c ****                 proc->types.pointer.scroll_area.y2 = find_snap_point_y(obj, LV_COORD_MIN, obj->coor
 401:lvgl/src/core/lv_indev_scroll.c ****                 break;
 402:lvgl/src/core/lv_indev_scroll.c ****             case LV_SCROLL_SNAP_CENTER: {
 403:lvgl/src/core/lv_indev_scroll.c ****                     lv_coord_t y_mid = obj->coords.y1 + lv_area_get_height(&obj->coords) / 2;
 404:lvgl/src/core/lv_indev_scroll.c ****                     proc->types.pointer.scroll_area.y1 = find_snap_point_y(obj, y_mid + 1, LV_COORD
 405:lvgl/src/core/lv_indev_scroll.c ****                     proc->types.pointer.scroll_area.y2 = find_snap_point_y(obj, LV_COORD_MIN, y_mid
 406:lvgl/src/core/lv_indev_scroll.c ****                     break;
 407:lvgl/src/core/lv_indev_scroll.c ****                 }
 408:lvgl/src/core/lv_indev_scroll.c ****             default:
 409:lvgl/src/core/lv_indev_scroll.c ****                 proc->types.pointer.scroll_area.y1 = LV_COORD_MIN;
 410:lvgl/src/core/lv_indev_scroll.c ****                 proc->types.pointer.scroll_area.y2 = LV_COORD_MAX;
 411:lvgl/src/core/lv_indev_scroll.c ****                 break;
 412:lvgl/src/core/lv_indev_scroll.c ****         }
 413:lvgl/src/core/lv_indev_scroll.c **** 
 414:lvgl/src/core/lv_indev_scroll.c ****         switch(lv_obj_get_scroll_snap_x(obj)) {
 415:lvgl/src/core/lv_indev_scroll.c ****             case LV_SCROLL_SNAP_START:
 416:lvgl/src/core/lv_indev_scroll.c ****                 proc->types.pointer.scroll_area.x1 = find_snap_point_x(obj, obj->coords.x1, LV_COOR
 417:lvgl/src/core/lv_indev_scroll.c ****                 proc->types.pointer.scroll_area.x2 = find_snap_point_x(obj, LV_COORD_MIN, obj->coor
 418:lvgl/src/core/lv_indev_scroll.c ****                 break;
 419:lvgl/src/core/lv_indev_scroll.c ****             case LV_SCROLL_SNAP_END:
 420:lvgl/src/core/lv_indev_scroll.c ****                 proc->types.pointer.scroll_area.x1 = find_snap_point_x(obj, obj->coords.x2, LV_COOR
 421:lvgl/src/core/lv_indev_scroll.c ****                 proc->types.pointer.scroll_area.x2 = find_snap_point_x(obj, LV_COORD_MIN, obj->coor
 422:lvgl/src/core/lv_indev_scroll.c ****                 break;
 423:lvgl/src/core/lv_indev_scroll.c ****             case LV_SCROLL_SNAP_CENTER: {
 424:lvgl/src/core/lv_indev_scroll.c ****                     lv_coord_t x_mid = obj->coords.x1 + lv_area_get_width(&obj->coords) / 2;
 425:lvgl/src/core/lv_indev_scroll.c ****                     proc->types.pointer.scroll_area.x1 = find_snap_point_x(obj, x_mid + 1, LV_COORD
 426:lvgl/src/core/lv_indev_scroll.c ****                     proc->types.pointer.scroll_area.x2 = find_snap_point_x(obj, LV_COORD_MIN, x_mid
 427:lvgl/src/core/lv_indev_scroll.c ****                     break;
 428:lvgl/src/core/lv_indev_scroll.c ****                 }
 429:lvgl/src/core/lv_indev_scroll.c ****             default:
ARM GAS  /var/folders/21/t9g5rlb91ys800n5npymflf80000gn/T//ccKy7Lvj.s 			page 9


 430:lvgl/src/core/lv_indev_scroll.c ****                 proc->types.pointer.scroll_area.x1 = LV_COORD_MIN;
 431:lvgl/src/core/lv_indev_scroll.c ****                 proc->types.pointer.scroll_area.x2 = LV_COORD_MAX;
 432:lvgl/src/core/lv_indev_scroll.c ****                 break;
 433:lvgl/src/core/lv_indev_scroll.c ****         }
 434:lvgl/src/core/lv_indev_scroll.c ****     }
 435:lvgl/src/core/lv_indev_scroll.c **** 
 436:lvgl/src/core/lv_indev_scroll.c ****     /*Allow scrolling on the edges. It will be reverted to the edge due to snapping anyway*/
 437:lvgl/src/core/lv_indev_scroll.c ****     if(proc->types.pointer.scroll_area.x1 == 0) proc->types.pointer.scroll_area.x1 = LV_COORD_MIN;
 438:lvgl/src/core/lv_indev_scroll.c ****     if(proc->types.pointer.scroll_area.x2 == 0) proc->types.pointer.scroll_area.x2 = LV_COORD_MAX;
 439:lvgl/src/core/lv_indev_scroll.c ****     if(proc->types.pointer.scroll_area.y1 == 0) proc->types.pointer.scroll_area.y1 = LV_COORD_MIN;
 440:lvgl/src/core/lv_indev_scroll.c ****     if(proc->types.pointer.scroll_area.y2 == 0) proc->types.pointer.scroll_area.y2 = LV_COORD_MAX;
 441:lvgl/src/core/lv_indev_scroll.c **** }
 442:lvgl/src/core/lv_indev_scroll.c **** 
 443:lvgl/src/core/lv_indev_scroll.c **** /**
 444:lvgl/src/core/lv_indev_scroll.c ****  * Search for snap point in the `min` - `max` range.
 445:lvgl/src/core/lv_indev_scroll.c ****  * @param obj the object on which snap point should be found
 446:lvgl/src/core/lv_indev_scroll.c ****  * @param min ignore snap points smaller than this. (Absolute coordinate)
 447:lvgl/src/core/lv_indev_scroll.c ****  * @param max ignore snap points greater than this. (Absolute coordinate)
 448:lvgl/src/core/lv_indev_scroll.c ****  * @param ofs offset to snap points. Useful the get a snap point in an imagined case
 449:lvgl/src/core/lv_indev_scroll.c ****  *            what if children are already moved by this value
 450:lvgl/src/core/lv_indev_scroll.c ****  * @return the distance of the snap point.
 451:lvgl/src/core/lv_indev_scroll.c ****  */
 452:lvgl/src/core/lv_indev_scroll.c **** static lv_coord_t find_snap_point_x(const lv_obj_t * obj, lv_coord_t min, lv_coord_t max, lv_coord_
 453:lvgl/src/core/lv_indev_scroll.c **** {
 454:lvgl/src/core/lv_indev_scroll.c ****     lv_scroll_snap_t align = lv_obj_get_scroll_snap_x(obj);
 455:lvgl/src/core/lv_indev_scroll.c ****     if(align == LV_SCROLL_SNAP_NONE) return 0;
 456:lvgl/src/core/lv_indev_scroll.c **** 
 457:lvgl/src/core/lv_indev_scroll.c ****     lv_coord_t dist = LV_COORD_MAX;
 458:lvgl/src/core/lv_indev_scroll.c **** 
 459:lvgl/src/core/lv_indev_scroll.c ****     lv_coord_t pad_left = lv_obj_get_style_pad_left(obj, LV_PART_MAIN);
 460:lvgl/src/core/lv_indev_scroll.c ****     lv_coord_t pad_right = lv_obj_get_style_pad_right(obj, LV_PART_MAIN);
 461:lvgl/src/core/lv_indev_scroll.c **** 
 462:lvgl/src/core/lv_indev_scroll.c ****     uint32_t i;
 463:lvgl/src/core/lv_indev_scroll.c ****     uint32_t child_cnt = lv_obj_get_child_cnt(obj);
 464:lvgl/src/core/lv_indev_scroll.c ****     for(i = 0; i < child_cnt; i++) {
 465:lvgl/src/core/lv_indev_scroll.c ****         lv_obj_t * child = obj->spec_attr->children[i];
 466:lvgl/src/core/lv_indev_scroll.c ****         if(lv_obj_has_flag_any(child, LV_OBJ_FLAG_HIDDEN | LV_OBJ_FLAG_FLOATING)) continue;
 467:lvgl/src/core/lv_indev_scroll.c ****         if(lv_obj_has_flag(child, LV_OBJ_FLAG_SNAPPABLE)) {
 468:lvgl/src/core/lv_indev_scroll.c ****             lv_coord_t x_child = 0;
 469:lvgl/src/core/lv_indev_scroll.c ****             lv_coord_t x_parent = 0;
 470:lvgl/src/core/lv_indev_scroll.c ****             switch(align) {
 471:lvgl/src/core/lv_indev_scroll.c ****                 case LV_SCROLL_SNAP_START:
 472:lvgl/src/core/lv_indev_scroll.c ****                     x_child = child->coords.x1;
 473:lvgl/src/core/lv_indev_scroll.c ****                     x_parent = obj->coords.x1 + pad_left;
 474:lvgl/src/core/lv_indev_scroll.c ****                     break;
 475:lvgl/src/core/lv_indev_scroll.c ****                 case LV_SCROLL_SNAP_END:
 476:lvgl/src/core/lv_indev_scroll.c ****                     x_child = child->coords.x2;
 477:lvgl/src/core/lv_indev_scroll.c ****                     x_parent = obj->coords.x2 - pad_right;
 478:lvgl/src/core/lv_indev_scroll.c ****                     break;
 479:lvgl/src/core/lv_indev_scroll.c ****                 case LV_SCROLL_SNAP_CENTER:
 480:lvgl/src/core/lv_indev_scroll.c ****                     x_child = child->coords.x1 + lv_area_get_width(&child->coords) / 2;
 481:lvgl/src/core/lv_indev_scroll.c ****                     x_parent = obj->coords.x1 + pad_left + (lv_area_get_width(&obj->coords) - pad_l
 482:lvgl/src/core/lv_indev_scroll.c ****                     break;
 483:lvgl/src/core/lv_indev_scroll.c ****                 default:
 484:lvgl/src/core/lv_indev_scroll.c ****                     continue;
 485:lvgl/src/core/lv_indev_scroll.c ****             }
 486:lvgl/src/core/lv_indev_scroll.c **** 
ARM GAS  /var/folders/21/t9g5rlb91ys800n5npymflf80000gn/T//ccKy7Lvj.s 			page 10


 487:lvgl/src/core/lv_indev_scroll.c ****             x_child += ofs;
 488:lvgl/src/core/lv_indev_scroll.c ****             if(x_child >= min && x_child <= max) {
 489:lvgl/src/core/lv_indev_scroll.c ****                 lv_coord_t x = x_child -  x_parent;
 490:lvgl/src/core/lv_indev_scroll.c ****                 if(LV_ABS(x) < LV_ABS(dist)) dist = x;
 491:lvgl/src/core/lv_indev_scroll.c ****             }
 492:lvgl/src/core/lv_indev_scroll.c ****         }
 493:lvgl/src/core/lv_indev_scroll.c ****     }
 494:lvgl/src/core/lv_indev_scroll.c **** 
 495:lvgl/src/core/lv_indev_scroll.c ****     return dist == LV_COORD_MAX ? 0 : -dist;
 496:lvgl/src/core/lv_indev_scroll.c **** }
 497:lvgl/src/core/lv_indev_scroll.c **** 
 498:lvgl/src/core/lv_indev_scroll.c **** /**
 499:lvgl/src/core/lv_indev_scroll.c ****  * Search for snap point in the `min` - `max` range.
 500:lvgl/src/core/lv_indev_scroll.c ****  * @param obj the object on which snap point should be found
 501:lvgl/src/core/lv_indev_scroll.c ****  * @param min ignore snap points smaller than this. (Absolute coordinate)
 502:lvgl/src/core/lv_indev_scroll.c ****  * @param max ignore snap points greater than this. (Absolute coordinate)
 503:lvgl/src/core/lv_indev_scroll.c ****  * @param ofs offset to snap points. Useful to get a snap point in an imagined case
 504:lvgl/src/core/lv_indev_scroll.c ****  *            what if children are already moved by this value
 505:lvgl/src/core/lv_indev_scroll.c ****  * @return the distance of the snap point.
 506:lvgl/src/core/lv_indev_scroll.c ****  */
 507:lvgl/src/core/lv_indev_scroll.c **** static lv_coord_t find_snap_point_y(const lv_obj_t * obj, lv_coord_t min, lv_coord_t max, lv_coord_
 508:lvgl/src/core/lv_indev_scroll.c **** {
 509:lvgl/src/core/lv_indev_scroll.c ****     lv_scroll_snap_t align = lv_obj_get_scroll_snap_y(obj);
 510:lvgl/src/core/lv_indev_scroll.c ****     if(align == LV_SCROLL_SNAP_NONE) return 0;
 511:lvgl/src/core/lv_indev_scroll.c **** 
 512:lvgl/src/core/lv_indev_scroll.c ****     lv_coord_t dist = LV_COORD_MAX;
 513:lvgl/src/core/lv_indev_scroll.c **** 
 514:lvgl/src/core/lv_indev_scroll.c ****     lv_coord_t pad_top = lv_obj_get_style_pad_top(obj, LV_PART_MAIN);
 515:lvgl/src/core/lv_indev_scroll.c ****     lv_coord_t pad_bottom = lv_obj_get_style_pad_bottom(obj, LV_PART_MAIN);
 516:lvgl/src/core/lv_indev_scroll.c **** 
 517:lvgl/src/core/lv_indev_scroll.c ****     uint32_t i;
 518:lvgl/src/core/lv_indev_scroll.c ****     uint32_t child_cnt = lv_obj_get_child_cnt(obj);
 519:lvgl/src/core/lv_indev_scroll.c ****     for(i = 0; i < child_cnt; i++) {
 520:lvgl/src/core/lv_indev_scroll.c ****         lv_obj_t * child = obj->spec_attr->children[i];
 521:lvgl/src/core/lv_indev_scroll.c ****         if(lv_obj_has_flag_any(child, LV_OBJ_FLAG_HIDDEN | LV_OBJ_FLAG_FLOATING)) continue;
 522:lvgl/src/core/lv_indev_scroll.c ****         if(lv_obj_has_flag(child, LV_OBJ_FLAG_SNAPPABLE)) {
 523:lvgl/src/core/lv_indev_scroll.c ****             lv_coord_t y_child = 0;
 524:lvgl/src/core/lv_indev_scroll.c ****             lv_coord_t y_parent = 0;
 525:lvgl/src/core/lv_indev_scroll.c ****             switch(align) {
 526:lvgl/src/core/lv_indev_scroll.c ****                 case LV_SCROLL_SNAP_START:
 527:lvgl/src/core/lv_indev_scroll.c ****                     y_child = child->coords.y1;
 528:lvgl/src/core/lv_indev_scroll.c ****                     y_parent = obj->coords.y1 + pad_top;
 529:lvgl/src/core/lv_indev_scroll.c ****                     break;
 530:lvgl/src/core/lv_indev_scroll.c ****                 case LV_SCROLL_SNAP_END:
 531:lvgl/src/core/lv_indev_scroll.c ****                     y_child = child->coords.y2;
 532:lvgl/src/core/lv_indev_scroll.c ****                     y_parent = obj->coords.y2 - pad_bottom;
 533:lvgl/src/core/lv_indev_scroll.c ****                     break;
 534:lvgl/src/core/lv_indev_scroll.c ****                 case LV_SCROLL_SNAP_CENTER:
 535:lvgl/src/core/lv_indev_scroll.c ****                     y_child = child->coords.y1 + lv_area_get_height(&child->coords) / 2;
 536:lvgl/src/core/lv_indev_scroll.c ****                     y_parent = obj->coords.y1 + pad_top + (lv_area_get_height(&obj->coords) - pad_t
 537:lvgl/src/core/lv_indev_scroll.c ****                     break;
 538:lvgl/src/core/lv_indev_scroll.c ****                 default:
 539:lvgl/src/core/lv_indev_scroll.c ****                     continue;
 540:lvgl/src/core/lv_indev_scroll.c ****             }
 541:lvgl/src/core/lv_indev_scroll.c **** 
 542:lvgl/src/core/lv_indev_scroll.c ****             y_child += ofs;
 543:lvgl/src/core/lv_indev_scroll.c ****             if(y_child >= min && y_child <= max) {
ARM GAS  /var/folders/21/t9g5rlb91ys800n5npymflf80000gn/T//ccKy7Lvj.s 			page 11


 544:lvgl/src/core/lv_indev_scroll.c ****                 lv_coord_t y = y_child -  y_parent;
 545:lvgl/src/core/lv_indev_scroll.c ****                 if(LV_ABS(y) < LV_ABS(dist)) dist = y;
 546:lvgl/src/core/lv_indev_scroll.c ****             }
 547:lvgl/src/core/lv_indev_scroll.c ****         }
 548:lvgl/src/core/lv_indev_scroll.c ****     }
 549:lvgl/src/core/lv_indev_scroll.c **** 
 550:lvgl/src/core/lv_indev_scroll.c ****     return dist == LV_COORD_MAX ? 0 : -dist;
 551:lvgl/src/core/lv_indev_scroll.c **** }
 552:lvgl/src/core/lv_indev_scroll.c **** 
 553:lvgl/src/core/lv_indev_scroll.c **** static void scroll_limit_diff(_lv_indev_proc_t * proc, lv_coord_t * diff_x, lv_coord_t * diff_y)
 554:lvgl/src/core/lv_indev_scroll.c **** {
  29              		.loc 1 554 1 view -0
  30              		.cfi_startproc
  31              		@ args = 0, pretend = 0, frame = 0
  32              		@ frame_needed = 0, uses_anonymous_args = 0
  33              		.loc 1 554 1 is_stmt 0 view .LVU1
  34 0000 00B5     		push	{lr}
  35              	.LCFI0:
  36              		.cfi_def_cfa_offset 4
  37              		.cfi_offset 14, -4
 555:lvgl/src/core/lv_indev_scroll.c ****     if(diff_y) {
  38              		.loc 1 555 5 is_stmt 1 view .LVU2
  39              		.loc 1 555 7 is_stmt 0 view .LVU3
  40 0002 02B3     		cbz	r2, .L2
  41 0004 9446     		mov	ip, r2
 556:lvgl/src/core/lv_indev_scroll.c ****         if(proc->types.pointer.scroll_sum.y + *diff_y < proc->types.pointer.scroll_area.y1) {
  42              		.loc 1 556 9 is_stmt 1 view .LVU4
  43              		.loc 1 556 42 is_stmt 0 view .LVU5
  44 0006 B0F91AE0 		ldrsh	lr, [r0, #26]
  45              		.loc 1 556 47 view .LVU6
  46 000a B2F90020 		ldrsh	r2, [r2]
  47              	.LVL1:
  48              		.loc 1 556 45 view .LVU7
  49 000e 7244     		add	r2, r2, lr
  50              		.loc 1 556 88 view .LVU8
  51 0010 B0F93630 		ldrsh	r3, [r0, #54]
  52              		.loc 1 556 11 view .LVU9
  53 0014 9A42     		cmp	r2, r3
  54 0016 06DA     		bge	.L3
 557:lvgl/src/core/lv_indev_scroll.c ****             *diff_y = proc->types.pointer.scroll_area.y1 - proc->types.pointer.scroll_sum.y;
  55              		.loc 1 557 13 is_stmt 1 view .LVU10
  56              		.loc 1 557 54 is_stmt 0 view .LVU11
  57 0018 9BB2     		uxth	r3, r3
  58              		.loc 1 557 90 view .LVU12
  59 001a 1FFA8EFE 		uxth	lr, lr
  60              		.loc 1 557 58 view .LVU13
  61 001e A3EB0E03 		sub	r3, r3, lr
  62              		.loc 1 557 21 view .LVU14
  63 0022 ACF80030 		strh	r3, [ip]	@ movhi
  64              	.L3:
 558:lvgl/src/core/lv_indev_scroll.c ****         }
 559:lvgl/src/core/lv_indev_scroll.c **** 
 560:lvgl/src/core/lv_indev_scroll.c ****         if(proc->types.pointer.scroll_sum.y + *diff_y > proc->types.pointer.scroll_area.y2) {
  65              		.loc 1 560 9 is_stmt 1 view .LVU15
  66              		.loc 1 560 42 is_stmt 0 view .LVU16
  67 0026 B0F91AE0 		ldrsh	lr, [r0, #26]
  68              		.loc 1 560 47 view .LVU17
ARM GAS  /var/folders/21/t9g5rlb91ys800n5npymflf80000gn/T//ccKy7Lvj.s 			page 12


  69 002a BCF90020 		ldrsh	r2, [ip]
  70              		.loc 1 560 45 view .LVU18
  71 002e 7244     		add	r2, r2, lr
  72              		.loc 1 560 88 view .LVU19
  73 0030 B0F93A30 		ldrsh	r3, [r0, #58]
  74              		.loc 1 560 11 view .LVU20
  75 0034 9A42     		cmp	r2, r3
  76 0036 06DD     		ble	.L2
 561:lvgl/src/core/lv_indev_scroll.c ****             *diff_y = proc->types.pointer.scroll_area.y2 - proc->types.pointer.scroll_sum.y;
  77              		.loc 1 561 13 is_stmt 1 view .LVU21
  78              		.loc 1 561 54 is_stmt 0 view .LVU22
  79 0038 9BB2     		uxth	r3, r3
  80              		.loc 1 561 90 view .LVU23
  81 003a 1FFA8EFE 		uxth	lr, lr
  82              		.loc 1 561 58 view .LVU24
  83 003e A3EB0E03 		sub	r3, r3, lr
  84              		.loc 1 561 21 view .LVU25
  85 0042 ACF80030 		strh	r3, [ip]	@ movhi
  86              	.LVL2:
  87              	.L2:
 562:lvgl/src/core/lv_indev_scroll.c ****         }
 563:lvgl/src/core/lv_indev_scroll.c ****     }
 564:lvgl/src/core/lv_indev_scroll.c **** 
 565:lvgl/src/core/lv_indev_scroll.c ****     if(diff_x) {
  88              		.loc 1 565 5 is_stmt 1 view .LVU26
  89              		.loc 1 565 7 is_stmt 0 view .LVU27
  90 0046 E9B1     		cbz	r1, .L1
 566:lvgl/src/core/lv_indev_scroll.c ****         if(proc->types.pointer.scroll_sum.x + *diff_x < proc->types.pointer.scroll_area.x1) {
  91              		.loc 1 566 9 is_stmt 1 view .LVU28
  92              		.loc 1 566 42 is_stmt 0 view .LVU29
  93 0048 B0F918C0 		ldrsh	ip, [r0, #24]
  94              		.loc 1 566 47 view .LVU30
  95 004c B1F90020 		ldrsh	r2, [r1]
  96              		.loc 1 566 45 view .LVU31
  97 0050 6244     		add	r2, r2, ip
  98              		.loc 1 566 88 view .LVU32
  99 0052 B0F93430 		ldrsh	r3, [r0, #52]
 100              		.loc 1 566 11 view .LVU33
 101 0056 9A42     		cmp	r2, r3
 102 0058 05DA     		bge	.L5
 567:lvgl/src/core/lv_indev_scroll.c ****             *diff_x = proc->types.pointer.scroll_area.x1 - proc->types.pointer.scroll_sum.x;
 103              		.loc 1 567 13 is_stmt 1 view .LVU34
 104              		.loc 1 567 54 is_stmt 0 view .LVU35
 105 005a 9BB2     		uxth	r3, r3
 106              		.loc 1 567 90 view .LVU36
 107 005c 1FFA8CFC 		uxth	ip, ip
 108              		.loc 1 567 58 view .LVU37
 109 0060 A3EB0C03 		sub	r3, r3, ip
 110              		.loc 1 567 21 view .LVU38
 111 0064 0B80     		strh	r3, [r1]	@ movhi
 112              	.L5:
 568:lvgl/src/core/lv_indev_scroll.c ****         }
 569:lvgl/src/core/lv_indev_scroll.c **** 
 570:lvgl/src/core/lv_indev_scroll.c ****         if(proc->types.pointer.scroll_sum.x + *diff_x > proc->types.pointer.scroll_area.x2) {
 113              		.loc 1 570 9 is_stmt 1 view .LVU39
 114              		.loc 1 570 42 is_stmt 0 view .LVU40
 115 0066 B0F918C0 		ldrsh	ip, [r0, #24]
ARM GAS  /var/folders/21/t9g5rlb91ys800n5npymflf80000gn/T//ccKy7Lvj.s 			page 13


 116              		.loc 1 570 47 view .LVU41
 117 006a B1F90020 		ldrsh	r2, [r1]
 118              		.loc 1 570 45 view .LVU42
 119 006e 6244     		add	r2, r2, ip
 120              		.loc 1 570 88 view .LVU43
 121 0070 B0F93830 		ldrsh	r3, [r0, #56]
 122              		.loc 1 570 11 view .LVU44
 123 0074 9A42     		cmp	r2, r3
 124 0076 05DD     		ble	.L1
 571:lvgl/src/core/lv_indev_scroll.c ****             *diff_x = proc->types.pointer.scroll_area.x2 - proc->types.pointer.scroll_sum.x;
 125              		.loc 1 571 13 is_stmt 1 view .LVU45
 126              		.loc 1 571 54 is_stmt 0 view .LVU46
 127 0078 9BB2     		uxth	r3, r3
 128              		.loc 1 571 90 view .LVU47
 129 007a 1FFA8CFC 		uxth	ip, ip
 130              		.loc 1 571 58 view .LVU48
 131 007e A3EB0C03 		sub	r3, r3, ip
 132              		.loc 1 571 21 view .LVU49
 133 0082 0B80     		strh	r3, [r1]	@ movhi
 134              	.L1:
 572:lvgl/src/core/lv_indev_scroll.c ****         }
 573:lvgl/src/core/lv_indev_scroll.c ****     }
 574:lvgl/src/core/lv_indev_scroll.c **** }
 135              		.loc 1 574 1 view .LVU50
 136 0084 5DF804FB 		ldr	pc, [sp], #4
 137              		.cfi_endproc
 138              	.LFE169:
 140              		.section	.text.scroll_throw_predict_y,"ax",%progbits
 141              		.align	1
 142              		.syntax unified
 143              		.thumb
 144              		.thumb_func
 146              	scroll_throw_predict_y:
 147              	.LVL3:
 148              	.LFB170:
 575:lvgl/src/core/lv_indev_scroll.c **** 
 576:lvgl/src/core/lv_indev_scroll.c **** static lv_coord_t scroll_throw_predict_y(_lv_indev_proc_t * proc)
 577:lvgl/src/core/lv_indev_scroll.c **** {
 149              		.loc 1 577 1 is_stmt 1 view -0
 150              		.cfi_startproc
 151              		@ args = 0, pretend = 0, frame = 0
 152              		@ frame_needed = 0, uses_anonymous_args = 0
 153              		.loc 1 577 1 is_stmt 0 view .LVU52
 154 0000 10B5     		push	{r4, lr}
 155              	.LCFI1:
 156              		.cfi_def_cfa_offset 8
 157              		.cfi_offset 4, -8
 158              		.cfi_offset 14, -4
 578:lvgl/src/core/lv_indev_scroll.c ****     lv_coord_t y = proc->types.pointer.scroll_throw_vect.y;
 159              		.loc 1 578 5 is_stmt 1 view .LVU53
 160              		.loc 1 578 16 is_stmt 0 view .LVU54
 161 0002 B0F91E40 		ldrsh	r4, [r0, #30]
 162              	.LVL4:
 579:lvgl/src/core/lv_indev_scroll.c ****     lv_coord_t move = 0;
 163              		.loc 1 579 5 is_stmt 1 view .LVU55
 580:lvgl/src/core/lv_indev_scroll.c **** 
 581:lvgl/src/core/lv_indev_scroll.c ****     lv_indev_t * indev_act = lv_indev_get_act();
ARM GAS  /var/folders/21/t9g5rlb91ys800n5npymflf80000gn/T//ccKy7Lvj.s 			page 14


 164              		.loc 1 581 5 view .LVU56
 165              		.loc 1 581 30 is_stmt 0 view .LVU57
 166 0006 FFF7FEFF 		bl	lv_indev_get_act
 167              	.LVL5:
 582:lvgl/src/core/lv_indev_scroll.c ****     lv_coord_t scroll_throw = indev_act->driver->scroll_throw;
 168              		.loc 1 582 5 is_stmt 1 view .LVU58
 169              		.loc 1 582 40 is_stmt 0 view .LVU59
 170 000a 0368     		ldr	r3, [r0]
 171              		.loc 1 582 48 view .LVU60
 172 000c 5A7E     		ldrb	r2, [r3, #25]	@ zero_extendqisi2
 173              	.LVL6:
 583:lvgl/src/core/lv_indev_scroll.c **** 
 584:lvgl/src/core/lv_indev_scroll.c ****     while(y) {
 174              		.loc 1 584 5 is_stmt 1 view .LVU61
 579:lvgl/src/core/lv_indev_scroll.c **** 
 175              		.loc 1 579 16 is_stmt 0 view .LVU62
 176 000e 0020     		movs	r0, #0
 177              	.LVL7:
 178              		.loc 1 584 10 view .LVU63
 179 0010 0CE0     		b	.L8
 180              	.LVL8:
 181              	.L9:
 585:lvgl/src/core/lv_indev_scroll.c ****         move += y;
 182              		.loc 1 585 9 is_stmt 1 view .LVU64
 183              		.loc 1 585 14 is_stmt 0 view .LVU65
 184 0012 2044     		add	r0, r0, r4
 185              	.LVL9:
 186              		.loc 1 585 14 view .LVU66
 187 0014 00B2     		sxth	r0, r0
 188              	.LVL10:
 586:lvgl/src/core/lv_indev_scroll.c ****         y = y * (100 - scroll_throw) / 100;
 189              		.loc 1 586 9 is_stmt 1 view .LVU67
 190              		.loc 1 586 22 is_stmt 0 view .LVU68
 191 0016 C2F16403 		rsb	r3, r2, #100
 192              		.loc 1 586 15 view .LVU69
 193 001a 03FB04F4 		mul	r4, r3, r4
 194              	.LVL11:
 195              		.loc 1 586 38 view .LVU70
 196 001e 054B     		ldr	r3, .L11
 197 0020 83FB0413 		smull	r1, r3, r3, r4
 198 0024 E417     		asrs	r4, r4, #31
 199 0026 C4EB6314 		rsb	r4, r4, r3, asr #5
 200              		.loc 1 586 11 view .LVU71
 201 002a 24B2     		sxth	r4, r4
 202              	.LVL12:
 203              	.L8:
 584:lvgl/src/core/lv_indev_scroll.c ****         move += y;
 204              		.loc 1 584 11 is_stmt 1 view .LVU72
 205 002c 002C     		cmp	r4, #0
 206 002e F0D1     		bne	.L9
 587:lvgl/src/core/lv_indev_scroll.c ****     }
 588:lvgl/src/core/lv_indev_scroll.c ****     return move;
 207              		.loc 1 588 5 view .LVU73
 589:lvgl/src/core/lv_indev_scroll.c **** }
 208              		.loc 1 589 1 is_stmt 0 view .LVU74
 209 0030 10BD     		pop	{r4, pc}
 210              	.LVL13:
ARM GAS  /var/folders/21/t9g5rlb91ys800n5npymflf80000gn/T//ccKy7Lvj.s 			page 15


 211              	.L12:
 212              		.loc 1 589 1 view .LVU75
 213 0032 00BF     		.align	2
 214              	.L11:
 215 0034 1F85EB51 		.word	1374389535
 216              		.cfi_endproc
 217              	.LFE170:
 219              		.section	.text.scroll_throw_predict_x,"ax",%progbits
 220              		.align	1
 221              		.syntax unified
 222              		.thumb
 223              		.thumb_func
 225              	scroll_throw_predict_x:
 226              	.LVL14:
 227              	.LFB171:
 590:lvgl/src/core/lv_indev_scroll.c **** 
 591:lvgl/src/core/lv_indev_scroll.c **** static lv_coord_t scroll_throw_predict_x(_lv_indev_proc_t * proc)
 592:lvgl/src/core/lv_indev_scroll.c **** {
 228              		.loc 1 592 1 is_stmt 1 view -0
 229              		.cfi_startproc
 230              		@ args = 0, pretend = 0, frame = 0
 231              		@ frame_needed = 0, uses_anonymous_args = 0
 232              		.loc 1 592 1 is_stmt 0 view .LVU77
 233 0000 10B5     		push	{r4, lr}
 234              	.LCFI2:
 235              		.cfi_def_cfa_offset 8
 236              		.cfi_offset 4, -8
 237              		.cfi_offset 14, -4
 593:lvgl/src/core/lv_indev_scroll.c ****     lv_coord_t x = proc->types.pointer.scroll_throw_vect.x;
 238              		.loc 1 593 5 is_stmt 1 view .LVU78
 239              		.loc 1 593 16 is_stmt 0 view .LVU79
 240 0002 B0F91C40 		ldrsh	r4, [r0, #28]
 241              	.LVL15:
 594:lvgl/src/core/lv_indev_scroll.c ****     lv_coord_t move = 0;
 242              		.loc 1 594 5 is_stmt 1 view .LVU80
 595:lvgl/src/core/lv_indev_scroll.c **** 
 596:lvgl/src/core/lv_indev_scroll.c ****     lv_indev_t * indev_act = lv_indev_get_act();
 243              		.loc 1 596 5 view .LVU81
 244              		.loc 1 596 30 is_stmt 0 view .LVU82
 245 0006 FFF7FEFF 		bl	lv_indev_get_act
 246              	.LVL16:
 597:lvgl/src/core/lv_indev_scroll.c ****     lv_coord_t scroll_throw = indev_act->driver->scroll_throw;
 247              		.loc 1 597 5 is_stmt 1 view .LVU83
 248              		.loc 1 597 40 is_stmt 0 view .LVU84
 249 000a 0368     		ldr	r3, [r0]
 250              		.loc 1 597 48 view .LVU85
 251 000c 5A7E     		ldrb	r2, [r3, #25]	@ zero_extendqisi2
 252              	.LVL17:
 598:lvgl/src/core/lv_indev_scroll.c **** 
 599:lvgl/src/core/lv_indev_scroll.c ****     while(x) {
 253              		.loc 1 599 5 is_stmt 1 view .LVU86
 594:lvgl/src/core/lv_indev_scroll.c **** 
 254              		.loc 1 594 16 is_stmt 0 view .LVU87
 255 000e 0020     		movs	r0, #0
 256              	.LVL18:
 257              		.loc 1 599 10 view .LVU88
 258 0010 0CE0     		b	.L14
ARM GAS  /var/folders/21/t9g5rlb91ys800n5npymflf80000gn/T//ccKy7Lvj.s 			page 16


 259              	.LVL19:
 260              	.L15:
 600:lvgl/src/core/lv_indev_scroll.c ****         move += x;
 261              		.loc 1 600 9 is_stmt 1 view .LVU89
 262              		.loc 1 600 14 is_stmt 0 view .LVU90
 263 0012 2044     		add	r0, r0, r4
 264              	.LVL20:
 265              		.loc 1 600 14 view .LVU91
 266 0014 00B2     		sxth	r0, r0
 267              	.LVL21:
 601:lvgl/src/core/lv_indev_scroll.c ****         x = x * (100 - scroll_throw) / 100;
 268              		.loc 1 601 9 is_stmt 1 view .LVU92
 269              		.loc 1 601 22 is_stmt 0 view .LVU93
 270 0016 C2F16403 		rsb	r3, r2, #100
 271              		.loc 1 601 15 view .LVU94
 272 001a 03FB04F4 		mul	r4, r3, r4
 273              	.LVL22:
 274              		.loc 1 601 38 view .LVU95
 275 001e 054B     		ldr	r3, .L17
 276 0020 83FB0413 		smull	r1, r3, r3, r4
 277 0024 E417     		asrs	r4, r4, #31
 278 0026 C4EB6314 		rsb	r4, r4, r3, asr #5
 279              		.loc 1 601 11 view .LVU96
 280 002a 24B2     		sxth	r4, r4
 281              	.LVL23:
 282              	.L14:
 599:lvgl/src/core/lv_indev_scroll.c ****         move += x;
 283              		.loc 1 599 11 is_stmt 1 view .LVU97
 284 002c 002C     		cmp	r4, #0
 285 002e F0D1     		bne	.L15
 602:lvgl/src/core/lv_indev_scroll.c ****     }
 603:lvgl/src/core/lv_indev_scroll.c ****     return move;
 286              		.loc 1 603 5 view .LVU98
 604:lvgl/src/core/lv_indev_scroll.c **** }
 287              		.loc 1 604 1 is_stmt 0 view .LVU99
 288 0030 10BD     		pop	{r4, pc}
 289              	.LVL24:
 290              	.L18:
 291              		.loc 1 604 1 view .LVU100
 292 0032 00BF     		.align	2
 293              	.L17:
 294 0034 1F85EB51 		.word	1374389535
 295              		.cfi_endproc
 296              	.LFE171:
 298              		.section	.text.find_snap_point_y,"ax",%progbits
 299              		.align	1
 300              		.syntax unified
 301              		.thumb
 302              		.thumb_func
 304              	find_snap_point_y:
 305              	.LVL25:
 306              	.LFB168:
 508:lvgl/src/core/lv_indev_scroll.c ****     lv_scroll_snap_t align = lv_obj_get_scroll_snap_y(obj);
 307              		.loc 1 508 1 is_stmt 1 view -0
 308              		.cfi_startproc
 309              		@ args = 0, pretend = 0, frame = 24
 310              		@ frame_needed = 0, uses_anonymous_args = 0
ARM GAS  /var/folders/21/t9g5rlb91ys800n5npymflf80000gn/T//ccKy7Lvj.s 			page 17


 508:lvgl/src/core/lv_indev_scroll.c ****     lv_scroll_snap_t align = lv_obj_get_scroll_snap_y(obj);
 311              		.loc 1 508 1 is_stmt 0 view .LVU102
 312 0000 2DE9F04F 		push	{r4, r5, r6, r7, r8, r9, r10, fp, lr}
 313              	.LCFI3:
 314              		.cfi_def_cfa_offset 36
 315              		.cfi_offset 4, -36
 316              		.cfi_offset 5, -32
 317              		.cfi_offset 6, -28
 318              		.cfi_offset 7, -24
 319              		.cfi_offset 8, -20
 320              		.cfi_offset 9, -16
 321              		.cfi_offset 10, -12
 322              		.cfi_offset 11, -8
 323              		.cfi_offset 14, -4
 324 0004 87B0     		sub	sp, sp, #28
 325              	.LCFI4:
 326              		.cfi_def_cfa_offset 64
 327 0006 0646     		mov	r6, r0
 328 0008 8946     		mov	r9, r1
 329 000a 0192     		str	r2, [sp, #4]
 330 000c 9A46     		mov	r10, r3
 509:lvgl/src/core/lv_indev_scroll.c ****     if(align == LV_SCROLL_SNAP_NONE) return 0;
 331              		.loc 1 509 5 is_stmt 1 view .LVU103
 509:lvgl/src/core/lv_indev_scroll.c ****     if(align == LV_SCROLL_SNAP_NONE) return 0;
 332              		.loc 1 509 30 is_stmt 0 view .LVU104
 333 000e FFF7FEFF 		bl	lv_obj_get_scroll_snap_y
 334              	.LVL26:
 510:lvgl/src/core/lv_indev_scroll.c **** 
 335              		.loc 1 510 5 is_stmt 1 view .LVU105
 510:lvgl/src/core/lv_indev_scroll.c **** 
 336              		.loc 1 510 7 is_stmt 0 view .LVU106
 337 0012 18B9     		cbnz	r0, .L31
 510:lvgl/src/core/lv_indev_scroll.c **** 
 338              		.loc 1 510 45 view .LVU107
 339 0014 0020     		movs	r0, #0
 340              	.LVL27:
 341              	.L20:
 551:lvgl/src/core/lv_indev_scroll.c **** 
 342              		.loc 1 551 1 view .LVU108
 343 0016 07B0     		add	sp, sp, #28
 344              	.LCFI5:
 345              		.cfi_remember_state
 346              		.cfi_def_cfa_offset 36
 347              		@ sp needed
 348 0018 BDE8F08F 		pop	{r4, r5, r6, r7, r8, r9, r10, fp, pc}
 349              	.LVL28:
 350              	.L31:
 351              	.LCFI6:
 352              		.cfi_restore_state
 551:lvgl/src/core/lv_indev_scroll.c **** 
 353              		.loc 1 551 1 view .LVU109
 354 001c 8046     		mov	r8, r0
 512:lvgl/src/core/lv_indev_scroll.c **** 
 355              		.loc 1 512 5 is_stmt 1 view .LVU110
 356              	.LVL29:
 514:lvgl/src/core/lv_indev_scroll.c ****     lv_coord_t pad_bottom = lv_obj_get_style_pad_bottom(obj, LV_PART_MAIN);
 357              		.loc 1 514 5 view .LVU111
ARM GAS  /var/folders/21/t9g5rlb91ys800n5npymflf80000gn/T//ccKy7Lvj.s 			page 18


 358              	.LBB62:
 359              	.LBI62:
 360              		.file 2 "lvgl/src/core/lv_obj_style_gen.h"
   1:lvgl/src/core/lv_obj_style_gen.h **** static inline lv_coord_t lv_obj_get_style_width(const struct _lv_obj_t * obj, uint32_t part)
   2:lvgl/src/core/lv_obj_style_gen.h **** {
   3:lvgl/src/core/lv_obj_style_gen.h ****     lv_style_value_t v = lv_obj_get_style_prop(obj, part, LV_STYLE_WIDTH);
   4:lvgl/src/core/lv_obj_style_gen.h ****     return (lv_coord_t)v.num;
   5:lvgl/src/core/lv_obj_style_gen.h **** }
   6:lvgl/src/core/lv_obj_style_gen.h **** 
   7:lvgl/src/core/lv_obj_style_gen.h **** static inline lv_coord_t lv_obj_get_style_min_width(const struct _lv_obj_t * obj, uint32_t part)
   8:lvgl/src/core/lv_obj_style_gen.h **** {
   9:lvgl/src/core/lv_obj_style_gen.h ****     lv_style_value_t v = lv_obj_get_style_prop(obj, part, LV_STYLE_MIN_WIDTH);
  10:lvgl/src/core/lv_obj_style_gen.h ****     return (lv_coord_t)v.num;
  11:lvgl/src/core/lv_obj_style_gen.h **** }
  12:lvgl/src/core/lv_obj_style_gen.h **** 
  13:lvgl/src/core/lv_obj_style_gen.h **** static inline lv_coord_t lv_obj_get_style_max_width(const struct _lv_obj_t * obj, uint32_t part)
  14:lvgl/src/core/lv_obj_style_gen.h **** {
  15:lvgl/src/core/lv_obj_style_gen.h ****     lv_style_value_t v = lv_obj_get_style_prop(obj, part, LV_STYLE_MAX_WIDTH);
  16:lvgl/src/core/lv_obj_style_gen.h ****     return (lv_coord_t)v.num;
  17:lvgl/src/core/lv_obj_style_gen.h **** }
  18:lvgl/src/core/lv_obj_style_gen.h **** 
  19:lvgl/src/core/lv_obj_style_gen.h **** static inline lv_coord_t lv_obj_get_style_height(const struct _lv_obj_t * obj, uint32_t part)
  20:lvgl/src/core/lv_obj_style_gen.h **** {
  21:lvgl/src/core/lv_obj_style_gen.h ****     lv_style_value_t v = lv_obj_get_style_prop(obj, part, LV_STYLE_HEIGHT);
  22:lvgl/src/core/lv_obj_style_gen.h ****     return (lv_coord_t)v.num;
  23:lvgl/src/core/lv_obj_style_gen.h **** }
  24:lvgl/src/core/lv_obj_style_gen.h **** 
  25:lvgl/src/core/lv_obj_style_gen.h **** static inline lv_coord_t lv_obj_get_style_min_height(const struct _lv_obj_t * obj, uint32_t part)
  26:lvgl/src/core/lv_obj_style_gen.h **** {
  27:lvgl/src/core/lv_obj_style_gen.h ****     lv_style_value_t v = lv_obj_get_style_prop(obj, part, LV_STYLE_MIN_HEIGHT);
  28:lvgl/src/core/lv_obj_style_gen.h ****     return (lv_coord_t)v.num;
  29:lvgl/src/core/lv_obj_style_gen.h **** }
  30:lvgl/src/core/lv_obj_style_gen.h **** 
  31:lvgl/src/core/lv_obj_style_gen.h **** static inline lv_coord_t lv_obj_get_style_max_height(const struct _lv_obj_t * obj, uint32_t part)
  32:lvgl/src/core/lv_obj_style_gen.h **** {
  33:lvgl/src/core/lv_obj_style_gen.h ****     lv_style_value_t v = lv_obj_get_style_prop(obj, part, LV_STYLE_MAX_HEIGHT);
  34:lvgl/src/core/lv_obj_style_gen.h ****     return (lv_coord_t)v.num;
  35:lvgl/src/core/lv_obj_style_gen.h **** }
  36:lvgl/src/core/lv_obj_style_gen.h **** 
  37:lvgl/src/core/lv_obj_style_gen.h **** static inline lv_coord_t lv_obj_get_style_x(const struct _lv_obj_t * obj, uint32_t part)
  38:lvgl/src/core/lv_obj_style_gen.h **** {
  39:lvgl/src/core/lv_obj_style_gen.h ****     lv_style_value_t v = lv_obj_get_style_prop(obj, part, LV_STYLE_X);
  40:lvgl/src/core/lv_obj_style_gen.h ****     return (lv_coord_t)v.num;
  41:lvgl/src/core/lv_obj_style_gen.h **** }
  42:lvgl/src/core/lv_obj_style_gen.h **** 
  43:lvgl/src/core/lv_obj_style_gen.h **** static inline lv_coord_t lv_obj_get_style_y(const struct _lv_obj_t * obj, uint32_t part)
  44:lvgl/src/core/lv_obj_style_gen.h **** {
  45:lvgl/src/core/lv_obj_style_gen.h ****     lv_style_value_t v = lv_obj_get_style_prop(obj, part, LV_STYLE_Y);
  46:lvgl/src/core/lv_obj_style_gen.h ****     return (lv_coord_t)v.num;
  47:lvgl/src/core/lv_obj_style_gen.h **** }
  48:lvgl/src/core/lv_obj_style_gen.h **** 
  49:lvgl/src/core/lv_obj_style_gen.h **** static inline lv_align_t lv_obj_get_style_align(const struct _lv_obj_t * obj, uint32_t part)
  50:lvgl/src/core/lv_obj_style_gen.h **** {
  51:lvgl/src/core/lv_obj_style_gen.h ****     lv_style_value_t v = lv_obj_get_style_prop(obj, part, LV_STYLE_ALIGN);
  52:lvgl/src/core/lv_obj_style_gen.h ****     return (lv_align_t)v.num;
  53:lvgl/src/core/lv_obj_style_gen.h **** }
  54:lvgl/src/core/lv_obj_style_gen.h **** 
ARM GAS  /var/folders/21/t9g5rlb91ys800n5npymflf80000gn/T//ccKy7Lvj.s 			page 19


  55:lvgl/src/core/lv_obj_style_gen.h **** static inline lv_coord_t lv_obj_get_style_transform_width(const struct _lv_obj_t * obj, uint32_t pa
  56:lvgl/src/core/lv_obj_style_gen.h **** {
  57:lvgl/src/core/lv_obj_style_gen.h ****     lv_style_value_t v = lv_obj_get_style_prop(obj, part, LV_STYLE_TRANSFORM_WIDTH);
  58:lvgl/src/core/lv_obj_style_gen.h ****     return (lv_coord_t)v.num;
  59:lvgl/src/core/lv_obj_style_gen.h **** }
  60:lvgl/src/core/lv_obj_style_gen.h **** 
  61:lvgl/src/core/lv_obj_style_gen.h **** static inline lv_coord_t lv_obj_get_style_transform_height(const struct _lv_obj_t * obj, uint32_t p
  62:lvgl/src/core/lv_obj_style_gen.h **** {
  63:lvgl/src/core/lv_obj_style_gen.h ****     lv_style_value_t v = lv_obj_get_style_prop(obj, part, LV_STYLE_TRANSFORM_HEIGHT);
  64:lvgl/src/core/lv_obj_style_gen.h ****     return (lv_coord_t)v.num;
  65:lvgl/src/core/lv_obj_style_gen.h **** }
  66:lvgl/src/core/lv_obj_style_gen.h **** 
  67:lvgl/src/core/lv_obj_style_gen.h **** static inline lv_coord_t lv_obj_get_style_translate_x(const struct _lv_obj_t * obj, uint32_t part)
  68:lvgl/src/core/lv_obj_style_gen.h **** {
  69:lvgl/src/core/lv_obj_style_gen.h ****     lv_style_value_t v = lv_obj_get_style_prop(obj, part, LV_STYLE_TRANSLATE_X);
  70:lvgl/src/core/lv_obj_style_gen.h ****     return (lv_coord_t)v.num;
  71:lvgl/src/core/lv_obj_style_gen.h **** }
  72:lvgl/src/core/lv_obj_style_gen.h **** 
  73:lvgl/src/core/lv_obj_style_gen.h **** static inline lv_coord_t lv_obj_get_style_translate_y(const struct _lv_obj_t * obj, uint32_t part)
  74:lvgl/src/core/lv_obj_style_gen.h **** {
  75:lvgl/src/core/lv_obj_style_gen.h ****     lv_style_value_t v = lv_obj_get_style_prop(obj, part, LV_STYLE_TRANSLATE_Y);
  76:lvgl/src/core/lv_obj_style_gen.h ****     return (lv_coord_t)v.num;
  77:lvgl/src/core/lv_obj_style_gen.h **** }
  78:lvgl/src/core/lv_obj_style_gen.h **** 
  79:lvgl/src/core/lv_obj_style_gen.h **** static inline lv_coord_t lv_obj_get_style_transform_zoom(const struct _lv_obj_t * obj, uint32_t par
  80:lvgl/src/core/lv_obj_style_gen.h **** {
  81:lvgl/src/core/lv_obj_style_gen.h ****     lv_style_value_t v = lv_obj_get_style_prop(obj, part, LV_STYLE_TRANSFORM_ZOOM);
  82:lvgl/src/core/lv_obj_style_gen.h ****     return (lv_coord_t)v.num;
  83:lvgl/src/core/lv_obj_style_gen.h **** }
  84:lvgl/src/core/lv_obj_style_gen.h **** 
  85:lvgl/src/core/lv_obj_style_gen.h **** static inline lv_coord_t lv_obj_get_style_transform_angle(const struct _lv_obj_t * obj, uint32_t pa
  86:lvgl/src/core/lv_obj_style_gen.h **** {
  87:lvgl/src/core/lv_obj_style_gen.h ****     lv_style_value_t v = lv_obj_get_style_prop(obj, part, LV_STYLE_TRANSFORM_ANGLE);
  88:lvgl/src/core/lv_obj_style_gen.h ****     return (lv_coord_t)v.num;
  89:lvgl/src/core/lv_obj_style_gen.h **** }
  90:lvgl/src/core/lv_obj_style_gen.h **** 
  91:lvgl/src/core/lv_obj_style_gen.h **** static inline lv_coord_t lv_obj_get_style_transform_pivot_x(const struct _lv_obj_t * obj, uint32_t 
  92:lvgl/src/core/lv_obj_style_gen.h **** {
  93:lvgl/src/core/lv_obj_style_gen.h ****     lv_style_value_t v = lv_obj_get_style_prop(obj, part, LV_STYLE_TRANSFORM_PIVOT_X);
  94:lvgl/src/core/lv_obj_style_gen.h ****     return (lv_coord_t)v.num;
  95:lvgl/src/core/lv_obj_style_gen.h **** }
  96:lvgl/src/core/lv_obj_style_gen.h **** 
  97:lvgl/src/core/lv_obj_style_gen.h **** static inline lv_coord_t lv_obj_get_style_transform_pivot_y(const struct _lv_obj_t * obj, uint32_t 
  98:lvgl/src/core/lv_obj_style_gen.h **** {
  99:lvgl/src/core/lv_obj_style_gen.h ****     lv_style_value_t v = lv_obj_get_style_prop(obj, part, LV_STYLE_TRANSFORM_PIVOT_Y);
 100:lvgl/src/core/lv_obj_style_gen.h ****     return (lv_coord_t)v.num;
 101:lvgl/src/core/lv_obj_style_gen.h **** }
 102:lvgl/src/core/lv_obj_style_gen.h **** 
 103:lvgl/src/core/lv_obj_style_gen.h **** static inline lv_coord_t lv_obj_get_style_pad_top(const struct _lv_obj_t * obj, uint32_t part)
 361              		.loc 2 103 26 view .LVU112
 362              	.LBB63:
 104:lvgl/src/core/lv_obj_style_gen.h **** {
 105:lvgl/src/core/lv_obj_style_gen.h ****     lv_style_value_t v = lv_obj_get_style_prop(obj, part, LV_STYLE_PAD_TOP);
 363              		.loc 2 105 5 view .LVU113
 364              		.loc 2 105 26 is_stmt 0 view .LVU114
 365 001e 1022     		movs	r2, #16
 366 0020 0021     		movs	r1, #0
ARM GAS  /var/folders/21/t9g5rlb91ys800n5npymflf80000gn/T//ccKy7Lvj.s 			page 20


 367 0022 3046     		mov	r0, r6
 368              	.LVL30:
 369              		.loc 2 105 26 view .LVU115
 370 0024 FFF7FEFF 		bl	lv_obj_get_style_prop
 371              	.LVL31:
 372 0028 0290     		str	r0, [sp, #8]
 106:lvgl/src/core/lv_obj_style_gen.h ****     return (lv_coord_t)v.num;
 373              		.loc 2 106 5 is_stmt 1 view .LVU116
 374              		.loc 2 106 12 is_stmt 0 view .LVU117
 375 002a 03B2     		sxth	r3, r0
 376 002c 0593     		str	r3, [sp, #20]
 377              	.LVL32:
 378              		.loc 2 106 12 view .LVU118
 379              	.LBE63:
 380              	.LBE62:
 515:lvgl/src/core/lv_indev_scroll.c **** 
 381              		.loc 1 515 5 is_stmt 1 view .LVU119
 382              	.LBB64:
 383              	.LBI64:
 107:lvgl/src/core/lv_obj_style_gen.h **** }
 108:lvgl/src/core/lv_obj_style_gen.h **** 
 109:lvgl/src/core/lv_obj_style_gen.h **** static inline lv_coord_t lv_obj_get_style_pad_bottom(const struct _lv_obj_t * obj, uint32_t part)
 384              		.loc 2 109 26 view .LVU120
 385              	.LBB65:
 110:lvgl/src/core/lv_obj_style_gen.h **** {
 111:lvgl/src/core/lv_obj_style_gen.h ****     lv_style_value_t v = lv_obj_get_style_prop(obj, part, LV_STYLE_PAD_BOTTOM);
 386              		.loc 2 111 5 view .LVU121
 387              		.loc 2 111 26 is_stmt 0 view .LVU122
 388 002e 1122     		movs	r2, #17
 389 0030 0021     		movs	r1, #0
 390 0032 3046     		mov	r0, r6
 391 0034 FFF7FEFF 		bl	lv_obj_get_style_prop
 392              	.LVL33:
 393 0038 0490     		str	r0, [sp, #16]
 112:lvgl/src/core/lv_obj_style_gen.h ****     return (lv_coord_t)v.num;
 394              		.loc 2 112 5 is_stmt 1 view .LVU123
 395              		.loc 2 112 12 is_stmt 0 view .LVU124
 396 003a 03B2     		sxth	r3, r0
 397 003c 0393     		str	r3, [sp, #12]
 398              	.LVL34:
 399              		.loc 2 112 12 view .LVU125
 400              	.LBE65:
 401              	.LBE64:
 517:lvgl/src/core/lv_indev_scroll.c ****     uint32_t child_cnt = lv_obj_get_child_cnt(obj);
 402              		.loc 1 517 5 is_stmt 1 view .LVU126
 518:lvgl/src/core/lv_indev_scroll.c ****     for(i = 0; i < child_cnt; i++) {
 403              		.loc 1 518 5 view .LVU127
 518:lvgl/src/core/lv_indev_scroll.c ****     for(i = 0; i < child_cnt; i++) {
 404              		.loc 1 518 26 is_stmt 0 view .LVU128
 405 003e 3046     		mov	r0, r6
 406 0040 FFF7FEFF 		bl	lv_obj_get_child_cnt
 407              	.LVL35:
 408 0044 0746     		mov	r7, r0
 409              	.LVL36:
 519:lvgl/src/core/lv_indev_scroll.c ****         lv_obj_t * child = obj->spec_attr->children[i];
 410              		.loc 1 519 5 is_stmt 1 view .LVU129
 519:lvgl/src/core/lv_indev_scroll.c ****         lv_obj_t * child = obj->spec_attr->children[i];
ARM GAS  /var/folders/21/t9g5rlb91ys800n5npymflf80000gn/T//ccKy7Lvj.s 			page 21


 411              		.loc 1 519 11 is_stmt 0 view .LVU130
 412 0046 0024     		movs	r4, #0
 512:lvgl/src/core/lv_indev_scroll.c **** 
 413              		.loc 1 512 16 view .LVU131
 414 0048 41F6FF7B 		movw	fp, #8191
 519:lvgl/src/core/lv_indev_scroll.c ****         lv_obj_t * child = obj->spec_attr->children[i];
 415              		.loc 1 519 5 view .LVU132
 416 004c 26E0     		b	.L21
 417              	.LVL37:
 418              	.L23:
 419              	.LBB66:
 420              	.LBB67:
 531:lvgl/src/core/lv_indev_scroll.c ****                     y_parent = obj->coords.y2 - pad_bottom;
 421              		.loc 1 531 21 is_stmt 1 view .LVU133
 531:lvgl/src/core/lv_indev_scroll.c ****                     y_parent = obj->coords.y2 - pad_bottom;
 422              		.loc 1 531 29 is_stmt 0 view .LVU134
 423 004e B5F91A30 		ldrsh	r3, [r5, #26]
 424              	.LVL38:
 532:lvgl/src/core/lv_indev_scroll.c ****                     break;
 425              		.loc 1 532 21 is_stmt 1 view .LVU135
 532:lvgl/src/core/lv_indev_scroll.c ****                     break;
 426              		.loc 1 532 43 is_stmt 0 view .LVU136
 427 0052 718B     		ldrh	r1, [r6, #26]
 532:lvgl/src/core/lv_indev_scroll.c ****                     break;
 428              		.loc 1 532 47 view .LVU137
 429 0054 049A     		ldr	r2, [sp, #16]
 430 0056 891A     		subs	r1, r1, r2
 532:lvgl/src/core/lv_indev_scroll.c ****                     break;
 431              		.loc 1 532 30 view .LVU138
 432 0058 09B2     		sxth	r1, r1
 433              	.LVL39:
 533:lvgl/src/core/lv_indev_scroll.c ****                 case LV_SCROLL_SNAP_CENTER:
 434              		.loc 1 533 21 is_stmt 1 view .LVU139
 435 005a 41E0     		b	.L25
 436              	.LVL40:
 437              	.L24:
 535:lvgl/src/core/lv_indev_scroll.c ****                     y_parent = obj->coords.y1 + pad_top + (lv_area_get_height(&obj->coords) - pad_t
 438              		.loc 1 535 21 view .LVU140
 535:lvgl/src/core/lv_indev_scroll.c ****                     y_parent = obj->coords.y1 + pad_top + (lv_area_get_height(&obj->coords) - pad_t
 439              		.loc 1 535 44 is_stmt 0 view .LVU141
 440 005c EB8A     		ldrh	r3, [r5, #22]
 441              	.LVL41:
 442              	.LBB68:
 443              	.LBI68:
 444              		.file 3 "lvgl/src/core/../misc/../font/../misc/lv_area.h"
   1:lvgl/src/core/../misc/../font/../misc/lv_area.h **** /**
   2:lvgl/src/core/../misc/../font/../misc/lv_area.h ****  * @file lv_area.h
   3:lvgl/src/core/../misc/../font/../misc/lv_area.h ****  *
   4:lvgl/src/core/../misc/../font/../misc/lv_area.h ****  */
   5:lvgl/src/core/../misc/../font/../misc/lv_area.h **** 
   6:lvgl/src/core/../misc/../font/../misc/lv_area.h **** #ifndef LV_AREA_H
   7:lvgl/src/core/../misc/../font/../misc/lv_area.h **** #define LV_AREA_H
   8:lvgl/src/core/../misc/../font/../misc/lv_area.h **** 
   9:lvgl/src/core/../misc/../font/../misc/lv_area.h **** #ifdef __cplusplus
  10:lvgl/src/core/../misc/../font/../misc/lv_area.h **** extern "C" {
  11:lvgl/src/core/../misc/../font/../misc/lv_area.h **** #endif
  12:lvgl/src/core/../misc/../font/../misc/lv_area.h **** 
ARM GAS  /var/folders/21/t9g5rlb91ys800n5npymflf80000gn/T//ccKy7Lvj.s 			page 22


  13:lvgl/src/core/../misc/../font/../misc/lv_area.h **** /*********************
  14:lvgl/src/core/../misc/../font/../misc/lv_area.h ****  *      INCLUDES
  15:lvgl/src/core/../misc/../font/../misc/lv_area.h ****  *********************/
  16:lvgl/src/core/../misc/../font/../misc/lv_area.h **** #include "../lv_conf_internal.h"
  17:lvgl/src/core/../misc/../font/../misc/lv_area.h **** #include <stdbool.h>
  18:lvgl/src/core/../misc/../font/../misc/lv_area.h **** #include <stdint.h>
  19:lvgl/src/core/../misc/../font/../misc/lv_area.h **** 
  20:lvgl/src/core/../misc/../font/../misc/lv_area.h **** /*********************
  21:lvgl/src/core/../misc/../font/../misc/lv_area.h ****  *      DEFINES
  22:lvgl/src/core/../misc/../font/../misc/lv_area.h ****  *********************/
  23:lvgl/src/core/../misc/../font/../misc/lv_area.h **** 
  24:lvgl/src/core/../misc/../font/../misc/lv_area.h **** #if LV_USE_LARGE_COORD
  25:lvgl/src/core/../misc/../font/../misc/lv_area.h **** typedef int32_t lv_coord_t;
  26:lvgl/src/core/../misc/../font/../misc/lv_area.h **** #else
  27:lvgl/src/core/../misc/../font/../misc/lv_area.h **** typedef int16_t lv_coord_t;
  28:lvgl/src/core/../misc/../font/../misc/lv_area.h **** #endif
  29:lvgl/src/core/../misc/../font/../misc/lv_area.h **** 
  30:lvgl/src/core/../misc/../font/../misc/lv_area.h **** /**********************
  31:lvgl/src/core/../misc/../font/../misc/lv_area.h ****  *      TYPEDEFS
  32:lvgl/src/core/../misc/../font/../misc/lv_area.h ****  **********************/
  33:lvgl/src/core/../misc/../font/../misc/lv_area.h **** 
  34:lvgl/src/core/../misc/../font/../misc/lv_area.h **** /**
  35:lvgl/src/core/../misc/../font/../misc/lv_area.h ****  * Represents a point on the screen.
  36:lvgl/src/core/../misc/../font/../misc/lv_area.h ****  */
  37:lvgl/src/core/../misc/../font/../misc/lv_area.h **** typedef struct {
  38:lvgl/src/core/../misc/../font/../misc/lv_area.h ****     lv_coord_t x;
  39:lvgl/src/core/../misc/../font/../misc/lv_area.h ****     lv_coord_t y;
  40:lvgl/src/core/../misc/../font/../misc/lv_area.h **** } lv_point_t;
  41:lvgl/src/core/../misc/../font/../misc/lv_area.h **** 
  42:lvgl/src/core/../misc/../font/../misc/lv_area.h **** /** Represents an area of the screen.*/
  43:lvgl/src/core/../misc/../font/../misc/lv_area.h **** typedef struct {
  44:lvgl/src/core/../misc/../font/../misc/lv_area.h ****     lv_coord_t x1;
  45:lvgl/src/core/../misc/../font/../misc/lv_area.h ****     lv_coord_t y1;
  46:lvgl/src/core/../misc/../font/../misc/lv_area.h ****     lv_coord_t x2;
  47:lvgl/src/core/../misc/../font/../misc/lv_area.h ****     lv_coord_t y2;
  48:lvgl/src/core/../misc/../font/../misc/lv_area.h **** } lv_area_t;
  49:lvgl/src/core/../misc/../font/../misc/lv_area.h **** 
  50:lvgl/src/core/../misc/../font/../misc/lv_area.h **** /** Alignments*/
  51:lvgl/src/core/../misc/../font/../misc/lv_area.h **** enum {
  52:lvgl/src/core/../misc/../font/../misc/lv_area.h ****     LV_ALIGN_DEFAULT = 0,
  53:lvgl/src/core/../misc/../font/../misc/lv_area.h ****     LV_ALIGN_TOP_LEFT,
  54:lvgl/src/core/../misc/../font/../misc/lv_area.h ****     LV_ALIGN_TOP_MID,
  55:lvgl/src/core/../misc/../font/../misc/lv_area.h ****     LV_ALIGN_TOP_RIGHT,
  56:lvgl/src/core/../misc/../font/../misc/lv_area.h ****     LV_ALIGN_BOTTOM_LEFT,
  57:lvgl/src/core/../misc/../font/../misc/lv_area.h ****     LV_ALIGN_BOTTOM_MID,
  58:lvgl/src/core/../misc/../font/../misc/lv_area.h ****     LV_ALIGN_BOTTOM_RIGHT,
  59:lvgl/src/core/../misc/../font/../misc/lv_area.h ****     LV_ALIGN_LEFT_MID,
  60:lvgl/src/core/../misc/../font/../misc/lv_area.h ****     LV_ALIGN_RIGHT_MID,
  61:lvgl/src/core/../misc/../font/../misc/lv_area.h ****     LV_ALIGN_CENTER,
  62:lvgl/src/core/../misc/../font/../misc/lv_area.h **** 
  63:lvgl/src/core/../misc/../font/../misc/lv_area.h ****     LV_ALIGN_OUT_TOP_LEFT,
  64:lvgl/src/core/../misc/../font/../misc/lv_area.h ****     LV_ALIGN_OUT_TOP_MID,
  65:lvgl/src/core/../misc/../font/../misc/lv_area.h ****     LV_ALIGN_OUT_TOP_RIGHT,
  66:lvgl/src/core/../misc/../font/../misc/lv_area.h ****     LV_ALIGN_OUT_BOTTOM_LEFT,
  67:lvgl/src/core/../misc/../font/../misc/lv_area.h ****     LV_ALIGN_OUT_BOTTOM_MID,
  68:lvgl/src/core/../misc/../font/../misc/lv_area.h ****     LV_ALIGN_OUT_BOTTOM_RIGHT,
  69:lvgl/src/core/../misc/../font/../misc/lv_area.h ****     LV_ALIGN_OUT_LEFT_TOP,
ARM GAS  /var/folders/21/t9g5rlb91ys800n5npymflf80000gn/T//ccKy7Lvj.s 			page 23


  70:lvgl/src/core/../misc/../font/../misc/lv_area.h ****     LV_ALIGN_OUT_LEFT_MID,
  71:lvgl/src/core/../misc/../font/../misc/lv_area.h ****     LV_ALIGN_OUT_LEFT_BOTTOM,
  72:lvgl/src/core/../misc/../font/../misc/lv_area.h ****     LV_ALIGN_OUT_RIGHT_TOP,
  73:lvgl/src/core/../misc/../font/../misc/lv_area.h ****     LV_ALIGN_OUT_RIGHT_MID,
  74:lvgl/src/core/../misc/../font/../misc/lv_area.h ****     LV_ALIGN_OUT_RIGHT_BOTTOM,
  75:lvgl/src/core/../misc/../font/../misc/lv_area.h **** };
  76:lvgl/src/core/../misc/../font/../misc/lv_area.h **** typedef uint8_t lv_align_t;
  77:lvgl/src/core/../misc/../font/../misc/lv_area.h **** 
  78:lvgl/src/core/../misc/../font/../misc/lv_area.h **** enum {
  79:lvgl/src/core/../misc/../font/../misc/lv_area.h ****     LV_DIR_NONE     = 0x00,
  80:lvgl/src/core/../misc/../font/../misc/lv_area.h ****     LV_DIR_LEFT     = (1 << 0),
  81:lvgl/src/core/../misc/../font/../misc/lv_area.h ****     LV_DIR_RIGHT    = (1 << 1),
  82:lvgl/src/core/../misc/../font/../misc/lv_area.h ****     LV_DIR_TOP      = (1 << 2),
  83:lvgl/src/core/../misc/../font/../misc/lv_area.h ****     LV_DIR_BOTTOM   = (1 << 3),
  84:lvgl/src/core/../misc/../font/../misc/lv_area.h ****     LV_DIR_HOR      = LV_DIR_LEFT | LV_DIR_RIGHT,
  85:lvgl/src/core/../misc/../font/../misc/lv_area.h ****     LV_DIR_VER      = LV_DIR_TOP | LV_DIR_BOTTOM,
  86:lvgl/src/core/../misc/../font/../misc/lv_area.h ****     LV_DIR_ALL      = LV_DIR_HOR | LV_DIR_VER,
  87:lvgl/src/core/../misc/../font/../misc/lv_area.h **** };
  88:lvgl/src/core/../misc/../font/../misc/lv_area.h **** 
  89:lvgl/src/core/../misc/../font/../misc/lv_area.h **** typedef uint8_t lv_dir_t;
  90:lvgl/src/core/../misc/../font/../misc/lv_area.h **** 
  91:lvgl/src/core/../misc/../font/../misc/lv_area.h **** /**********************
  92:lvgl/src/core/../misc/../font/../misc/lv_area.h ****  * GLOBAL PROTOTYPES
  93:lvgl/src/core/../misc/../font/../misc/lv_area.h ****  **********************/
  94:lvgl/src/core/../misc/../font/../misc/lv_area.h **** 
  95:lvgl/src/core/../misc/../font/../misc/lv_area.h **** /**
  96:lvgl/src/core/../misc/../font/../misc/lv_area.h ****  * Initialize an area
  97:lvgl/src/core/../misc/../font/../misc/lv_area.h ****  * @param area_p pointer to an area
  98:lvgl/src/core/../misc/../font/../misc/lv_area.h ****  * @param x1 left coordinate of the area
  99:lvgl/src/core/../misc/../font/../misc/lv_area.h ****  * @param y1 top coordinate of the area
 100:lvgl/src/core/../misc/../font/../misc/lv_area.h ****  * @param x2 right coordinate of the area
 101:lvgl/src/core/../misc/../font/../misc/lv_area.h ****  * @param y2 bottom coordinate of the area
 102:lvgl/src/core/../misc/../font/../misc/lv_area.h ****  */
 103:lvgl/src/core/../misc/../font/../misc/lv_area.h **** void lv_area_set(lv_area_t * area_p, lv_coord_t x1, lv_coord_t y1, lv_coord_t x2, lv_coord_t y2);
 104:lvgl/src/core/../misc/../font/../misc/lv_area.h **** 
 105:lvgl/src/core/../misc/../font/../misc/lv_area.h **** /**
 106:lvgl/src/core/../misc/../font/../misc/lv_area.h ****  * Copy an area
 107:lvgl/src/core/../misc/../font/../misc/lv_area.h ****  * @param dest pointer to the destination area
 108:lvgl/src/core/../misc/../font/../misc/lv_area.h ****  * @param src pointer to the source area
 109:lvgl/src/core/../misc/../font/../misc/lv_area.h ****  */
 110:lvgl/src/core/../misc/../font/../misc/lv_area.h **** inline static void lv_area_copy(lv_area_t * dest, const lv_area_t * src)
 111:lvgl/src/core/../misc/../font/../misc/lv_area.h **** {
 112:lvgl/src/core/../misc/../font/../misc/lv_area.h ****     dest->x1 = src->x1;
 113:lvgl/src/core/../misc/../font/../misc/lv_area.h ****     dest->y1 = src->y1;
 114:lvgl/src/core/../misc/../font/../misc/lv_area.h ****     dest->x2 = src->x2;
 115:lvgl/src/core/../misc/../font/../misc/lv_area.h ****     dest->y2 = src->y2;
 116:lvgl/src/core/../misc/../font/../misc/lv_area.h **** }
 117:lvgl/src/core/../misc/../font/../misc/lv_area.h **** 
 118:lvgl/src/core/../misc/../font/../misc/lv_area.h **** /**
 119:lvgl/src/core/../misc/../font/../misc/lv_area.h ****  * Get the width of an area
 120:lvgl/src/core/../misc/../font/../misc/lv_area.h ****  * @param area_p pointer to an area
 121:lvgl/src/core/../misc/../font/../misc/lv_area.h ****  * @return the width of the area (if x1 == x2 -> width = 1)
 122:lvgl/src/core/../misc/../font/../misc/lv_area.h ****  */
 123:lvgl/src/core/../misc/../font/../misc/lv_area.h **** static inline lv_coord_t lv_area_get_width(const lv_area_t * area_p)
 124:lvgl/src/core/../misc/../font/../misc/lv_area.h **** {
 125:lvgl/src/core/../misc/../font/../misc/lv_area.h ****     return (lv_coord_t)(area_p->x2 - area_p->x1 + 1);
 126:lvgl/src/core/../misc/../font/../misc/lv_area.h **** }
ARM GAS  /var/folders/21/t9g5rlb91ys800n5npymflf80000gn/T//ccKy7Lvj.s 			page 24


 127:lvgl/src/core/../misc/../font/../misc/lv_area.h **** 
 128:lvgl/src/core/../misc/../font/../misc/lv_area.h **** /**
 129:lvgl/src/core/../misc/../font/../misc/lv_area.h ****  * Get the height of an area
 130:lvgl/src/core/../misc/../font/../misc/lv_area.h ****  * @param area_p pointer to an area
 131:lvgl/src/core/../misc/../font/../misc/lv_area.h ****  * @return the height of the area (if y1 == y2 -> height = 1)
 132:lvgl/src/core/../misc/../font/../misc/lv_area.h ****  */
 133:lvgl/src/core/../misc/../font/../misc/lv_area.h **** static inline lv_coord_t lv_area_get_height(const lv_area_t * area_p)
 445              		.loc 3 133 26 is_stmt 1 view .LVU142
 446              	.LBB69:
 134:lvgl/src/core/../misc/../font/../misc/lv_area.h **** {
 135:lvgl/src/core/../misc/../font/../misc/lv_area.h ****     return (lv_coord_t)(area_p->y2 - area_p->y1 + 1);
 447              		.loc 3 135 5 view .LVU143
 448              		.loc 3 135 31 is_stmt 0 view .LVU144
 449 005e 6A8B     		ldrh	r2, [r5, #26]
 450              		.loc 3 135 36 view .LVU145
 451 0060 D21A     		subs	r2, r2, r3
 452 0062 92B2     		uxth	r2, r2
 453              		.loc 3 135 49 view .LVU146
 454 0064 0132     		adds	r2, r2, #1
 455              	.LVL42:
 456              		.loc 3 135 49 view .LVU147
 457              	.LBE69:
 458              	.LBE68:
 535:lvgl/src/core/lv_indev_scroll.c ****                     y_parent = obj->coords.y1 + pad_top + (lv_area_get_height(&obj->coords) - pad_t
 459              		.loc 1 535 48 view .LVU148
 460 0066 C2F3C031 		ubfx	r1, r2, #15, #1
 461 006a 01FA82F2 		sxtah	r2, r1, r2
 462 006e 03EB6203 		add	r3, r3, r2, asr #1
 535:lvgl/src/core/lv_indev_scroll.c ****                     y_parent = obj->coords.y1 + pad_top + (lv_area_get_height(&obj->coords) - pad_t
 463              		.loc 1 535 29 view .LVU149
 464 0072 1BB2     		sxth	r3, r3
 465              	.LVL43:
 536:lvgl/src/core/lv_indev_scroll.c ****                     break;
 466              		.loc 1 536 21 is_stmt 1 view .LVU150
 536:lvgl/src/core/lv_indev_scroll.c ****                     break;
 467              		.loc 1 536 43 is_stmt 0 view .LVU151
 468 0074 F08A     		ldrh	r0, [r6, #22]
 536:lvgl/src/core/lv_indev_scroll.c ****                     break;
 469              		.loc 1 536 47 view .LVU152
 470 0076 029A     		ldr	r2, [sp, #8]
 471 0078 8118     		adds	r1, r0, r2
 472              	.LVL44:
 473              	.LBB70:
 474              	.LBI70:
 133:lvgl/src/core/../misc/../font/../misc/lv_area.h **** {
 475              		.loc 3 133 26 is_stmt 1 view .LVU153
 476              	.LBB71:
 477              		.loc 3 135 5 view .LVU154
 478              		.loc 3 135 31 is_stmt 0 view .LVU155
 479 007a 728B     		ldrh	r2, [r6, #26]
 480              		.loc 3 135 36 view .LVU156
 481 007c 121A     		subs	r2, r2, r0
 482 007e 92B2     		uxth	r2, r2
 483              		.loc 3 135 49 view .LVU157
 484 0080 0132     		adds	r2, r2, #1
 485              		.loc 3 135 12 view .LVU158
 486 0082 12B2     		sxth	r2, r2
ARM GAS  /var/folders/21/t9g5rlb91ys800n5npymflf80000gn/T//ccKy7Lvj.s 			page 25


 487              	.LVL45:
 488              		.loc 3 135 12 view .LVU159
 489              	.LBE71:
 490              	.LBE70:
 536:lvgl/src/core/lv_indev_scroll.c ****                     break;
 491              		.loc 1 536 93 view .LVU160
 492 0084 0598     		ldr	r0, [sp, #20]
 493 0086 121A     		subs	r2, r2, r0
 536:lvgl/src/core/lv_indev_scroll.c ****                     break;
 494              		.loc 1 536 103 view .LVU161
 495 0088 0398     		ldr	r0, [sp, #12]
 496 008a 121A     		subs	r2, r2, r0
 536:lvgl/src/core/lv_indev_scroll.c ****                     break;
 497              		.loc 1 536 117 view .LVU162
 498 008c 02EBD272 		add	r2, r2, r2, lsr #31
 499 0090 5210     		asrs	r2, r2, #1
 536:lvgl/src/core/lv_indev_scroll.c ****                     break;
 500              		.loc 1 536 57 view .LVU163
 501 0092 12FA81F1 		uxtah	r1, r2, r1
 536:lvgl/src/core/lv_indev_scroll.c ****                     break;
 502              		.loc 1 536 30 view .LVU164
 503 0096 09B2     		sxth	r1, r1
 504              	.LVL46:
 537:lvgl/src/core/lv_indev_scroll.c ****                 default:
 505              		.loc 1 537 21 is_stmt 1 view .LVU165
 506 0098 22E0     		b	.L25
 507              	.LVL47:
 508              	.L22:
 537:lvgl/src/core/lv_indev_scroll.c ****                 default:
 509              		.loc 1 537 21 is_stmt 0 view .LVU166
 510              	.LBE67:
 511              	.LBE66:
 519:lvgl/src/core/lv_indev_scroll.c ****         lv_obj_t * child = obj->spec_attr->children[i];
 512              		.loc 1 519 32 is_stmt 1 discriminator 2 view .LVU167
 513 009a 0134     		adds	r4, r4, #1
 514              	.LVL48:
 515              	.L21:
 519:lvgl/src/core/lv_indev_scroll.c ****         lv_obj_t * child = obj->spec_attr->children[i];
 516              		.loc 1 519 18 discriminator 1 view .LVU168
 517 009c BC42     		cmp	r4, r7
 518 009e 37D2     		bcs	.L32
 519              	.LBB74:
 520:lvgl/src/core/lv_indev_scroll.c ****         if(lv_obj_has_flag_any(child, LV_OBJ_FLAG_HIDDEN | LV_OBJ_FLAG_FLOATING)) continue;
 520              		.loc 1 520 9 view .LVU169
 520:lvgl/src/core/lv_indev_scroll.c ****         if(lv_obj_has_flag_any(child, LV_OBJ_FLAG_HIDDEN | LV_OBJ_FLAG_FLOATING)) continue;
 521              		.loc 1 520 31 is_stmt 0 view .LVU170
 522 00a0 B368     		ldr	r3, [r6, #8]
 520:lvgl/src/core/lv_indev_scroll.c ****         if(lv_obj_has_flag_any(child, LV_OBJ_FLAG_HIDDEN | LV_OBJ_FLAG_FLOATING)) continue;
 523              		.loc 1 520 42 view .LVU171
 524 00a2 1B68     		ldr	r3, [r3]
 520:lvgl/src/core/lv_indev_scroll.c ****         if(lv_obj_has_flag_any(child, LV_OBJ_FLAG_HIDDEN | LV_OBJ_FLAG_FLOATING)) continue;
 525              		.loc 1 520 20 view .LVU172
 526 00a4 53F82450 		ldr	r5, [r3, r4, lsl #2]
 527              	.LVL49:
 521:lvgl/src/core/lv_indev_scroll.c ****         if(lv_obj_has_flag(child, LV_OBJ_FLAG_SNAPPABLE)) {
 528              		.loc 1 521 9 is_stmt 1 view .LVU173
 521:lvgl/src/core/lv_indev_scroll.c ****         if(lv_obj_has_flag(child, LV_OBJ_FLAG_SNAPPABLE)) {
ARM GAS  /var/folders/21/t9g5rlb91ys800n5npymflf80000gn/T//ccKy7Lvj.s 			page 26


 529              		.loc 1 521 12 is_stmt 0 view .LVU174
 530 00a8 1E49     		ldr	r1, .L33
 531 00aa 2846     		mov	r0, r5
 532 00ac FFF7FEFF 		bl	lv_obj_has_flag_any
 533              	.LVL50:
 521:lvgl/src/core/lv_indev_scroll.c ****         if(lv_obj_has_flag(child, LV_OBJ_FLAG_SNAPPABLE)) {
 534              		.loc 1 521 11 view .LVU175
 535 00b0 0028     		cmp	r0, #0
 536 00b2 F2D1     		bne	.L22
 522:lvgl/src/core/lv_indev_scroll.c ****             lv_coord_t y_child = 0;
 537              		.loc 1 522 9 is_stmt 1 view .LVU176
 522:lvgl/src/core/lv_indev_scroll.c ****             lv_coord_t y_child = 0;
 538              		.loc 1 522 12 is_stmt 0 view .LVU177
 539 00b4 4FF48051 		mov	r1, #4096
 540 00b8 2846     		mov	r0, r5
 541 00ba FFF7FEFF 		bl	lv_obj_has_flag
 542              	.LVL51:
 522:lvgl/src/core/lv_indev_scroll.c ****             lv_coord_t y_child = 0;
 543              		.loc 1 522 11 view .LVU178
 544 00be 0028     		cmp	r0, #0
 545 00c0 EBD0     		beq	.L22
 546              	.LBB73:
 523:lvgl/src/core/lv_indev_scroll.c ****             lv_coord_t y_parent = 0;
 547              		.loc 1 523 13 is_stmt 1 view .LVU179
 548              	.LVL52:
 524:lvgl/src/core/lv_indev_scroll.c ****             switch(align) {
 549              		.loc 1 524 13 view .LVU180
 525:lvgl/src/core/lv_indev_scroll.c ****                 case LV_SCROLL_SNAP_START:
 550              		.loc 1 525 13 view .LVU181
 551 00c2 B8F1020F 		cmp	r8, #2
 552 00c6 C2D0     		beq	.L23
 553 00c8 B8F1030F 		cmp	r8, #3
 554 00cc C6D0     		beq	.L24
 555 00ce B8F1010F 		cmp	r8, #1
 556 00d2 E2D1     		bne	.L22
 527:lvgl/src/core/lv_indev_scroll.c ****                     y_parent = obj->coords.y1 + pad_top;
 557              		.loc 1 527 21 view .LVU182
 527:lvgl/src/core/lv_indev_scroll.c ****                     y_parent = obj->coords.y1 + pad_top;
 558              		.loc 1 527 29 is_stmt 0 view .LVU183
 559 00d4 B5F91630 		ldrsh	r3, [r5, #22]
 560              	.LVL53:
 528:lvgl/src/core/lv_indev_scroll.c ****                     break;
 561              		.loc 1 528 21 is_stmt 1 view .LVU184
 528:lvgl/src/core/lv_indev_scroll.c ****                     break;
 562              		.loc 1 528 43 is_stmt 0 view .LVU185
 563 00d8 F18A     		ldrh	r1, [r6, #22]
 528:lvgl/src/core/lv_indev_scroll.c ****                     break;
 564              		.loc 1 528 47 view .LVU186
 565 00da 029A     		ldr	r2, [sp, #8]
 566 00dc 1144     		add	r1, r1, r2
 528:lvgl/src/core/lv_indev_scroll.c ****                     break;
 567              		.loc 1 528 30 view .LVU187
 568 00de 09B2     		sxth	r1, r1
 569              	.LVL54:
 529:lvgl/src/core/lv_indev_scroll.c ****                 case LV_SCROLL_SNAP_END:
 570              		.loc 1 529 21 is_stmt 1 view .LVU188
 571              	.L25:
ARM GAS  /var/folders/21/t9g5rlb91ys800n5npymflf80000gn/T//ccKy7Lvj.s 			page 27


 542:lvgl/src/core/lv_indev_scroll.c ****             if(y_child >= min && y_child <= max) {
 572              		.loc 1 542 13 view .LVU189
 542:lvgl/src/core/lv_indev_scroll.c ****             if(y_child >= min && y_child <= max) {
 573              		.loc 1 542 21 is_stmt 0 view .LVU190
 574 00e0 5344     		add	r3, r3, r10
 575              	.LVL55:
 542:lvgl/src/core/lv_indev_scroll.c ****             if(y_child >= min && y_child <= max) {
 576              		.loc 1 542 21 view .LVU191
 577 00e2 9AB2     		uxth	r2, r3
 578 00e4 1BB2     		sxth	r3, r3
 579              	.LVL56:
 543:lvgl/src/core/lv_indev_scroll.c ****                 lv_coord_t y = y_child -  y_parent;
 580              		.loc 1 543 13 is_stmt 1 view .LVU192
 543:lvgl/src/core/lv_indev_scroll.c ****                 lv_coord_t y = y_child -  y_parent;
 581              		.loc 1 543 15 is_stmt 0 view .LVU193
 582 00e6 4B45     		cmp	r3, r9
 583 00e8 D7DB     		blt	.L22
 543:lvgl/src/core/lv_indev_scroll.c ****                 lv_coord_t y = y_child -  y_parent;
 584              		.loc 1 543 31 discriminator 1 view .LVU194
 585 00ea 0198     		ldr	r0, [sp, #4]
 586 00ec 8342     		cmp	r3, r0
 587 00ee D4DC     		bgt	.L22
 588              	.LBB72:
 544:lvgl/src/core/lv_indev_scroll.c ****                 if(LV_ABS(y) < LV_ABS(dist)) dist = y;
 589              		.loc 1 544 17 is_stmt 1 view .LVU195
 544:lvgl/src/core/lv_indev_scroll.c ****                 if(LV_ABS(y) < LV_ABS(dist)) dist = y;
 590              		.loc 1 544 40 is_stmt 0 view .LVU196
 591 00f0 521A     		subs	r2, r2, r1
 544:lvgl/src/core/lv_indev_scroll.c ****                 if(LV_ABS(y) < LV_ABS(dist)) dist = y;
 592              		.loc 1 544 28 view .LVU197
 593 00f2 12B2     		sxth	r2, r2
 594              	.LVL57:
 545:lvgl/src/core/lv_indev_scroll.c ****             }
 595              		.loc 1 545 17 is_stmt 1 view .LVU198
 545:lvgl/src/core/lv_indev_scroll.c ****             }
 596              		.loc 1 545 20 is_stmt 0 view .LVU199
 597 00f4 82EAE271 		eor	r1, r2, r2, asr #31
 598              	.LVL58:
 545:lvgl/src/core/lv_indev_scroll.c ****             }
 599              		.loc 1 545 20 view .LVU200
 600 00f8 A1EBE271 		sub	r1, r1, r2, asr #31
 601 00fc 89B2     		uxth	r1, r1
 545:lvgl/src/core/lv_indev_scroll.c ****             }
 602              		.loc 1 545 32 view .LVU201
 603 00fe 8BEAEB73 		eor	r3, fp, fp, asr #31
 604              	.LVL59:
 545:lvgl/src/core/lv_indev_scroll.c ****             }
 605              		.loc 1 545 32 view .LVU202
 606 0102 A3EBEB73 		sub	r3, r3, fp, asr #31
 607 0106 9BB2     		uxth	r3, r3
 545:lvgl/src/core/lv_indev_scroll.c ****             }
 608              		.loc 1 545 19 view .LVU203
 609 0108 9942     		cmp	r1, r3
 610 010a C6D2     		bcs	.L22
 545:lvgl/src/core/lv_indev_scroll.c ****             }
 611              		.loc 1 545 51 view .LVU204
 612 010c 9346     		mov	fp, r2
ARM GAS  /var/folders/21/t9g5rlb91ys800n5npymflf80000gn/T//ccKy7Lvj.s 			page 28


 613              	.LVL60:
 545:lvgl/src/core/lv_indev_scroll.c ****             }
 614              		.loc 1 545 51 view .LVU205
 615 010e C4E7     		b	.L22
 616              	.LVL61:
 617              	.L32:
 545:lvgl/src/core/lv_indev_scroll.c ****             }
 618              		.loc 1 545 51 view .LVU206
 619              	.LBE72:
 620              	.LBE73:
 621              	.LBE74:
 550:lvgl/src/core/lv_indev_scroll.c **** }
 622              		.loc 1 550 5 is_stmt 1 view .LVU207
 550:lvgl/src/core/lv_indev_scroll.c **** }
 623              		.loc 1 550 37 is_stmt 0 view .LVU208
 624 0110 41F6FF73 		movw	r3, #8191
 625 0114 9B45     		cmp	fp, r3
 626 0116 03D0     		beq	.L29
 550:lvgl/src/core/lv_indev_scroll.c **** }
 627              		.loc 1 550 37 discriminator 1 view .LVU209
 628 0118 CBF10000 		rsb	r0, fp, #0
 629 011c 00B2     		sxth	r0, r0
 630 011e 7AE7     		b	.L20
 631              	.L29:
 550:lvgl/src/core/lv_indev_scroll.c **** }
 632              		.loc 1 550 37 view .LVU210
 633 0120 0020     		movs	r0, #0
 634 0122 78E7     		b	.L20
 635              	.L34:
 636              		.align	2
 637              	.L33:
 638 0124 01000400 		.word	262145
 639              		.cfi_endproc
 640              	.LFE168:
 642              		.section	.text.find_snap_point_x,"ax",%progbits
 643              		.align	1
 644              		.syntax unified
 645              		.thumb
 646              		.thumb_func
 648              	find_snap_point_x:
 649              	.LVL62:
 650              	.LFB167:
 453:lvgl/src/core/lv_indev_scroll.c ****     lv_scroll_snap_t align = lv_obj_get_scroll_snap_x(obj);
 651              		.loc 1 453 1 is_stmt 1 view -0
 652              		.cfi_startproc
 653              		@ args = 0, pretend = 0, frame = 24
 654              		@ frame_needed = 0, uses_anonymous_args = 0
 453:lvgl/src/core/lv_indev_scroll.c ****     lv_scroll_snap_t align = lv_obj_get_scroll_snap_x(obj);
 655              		.loc 1 453 1 is_stmt 0 view .LVU212
 656 0000 2DE9F04F 		push	{r4, r5, r6, r7, r8, r9, r10, fp, lr}
 657              	.LCFI7:
 658              		.cfi_def_cfa_offset 36
 659              		.cfi_offset 4, -36
 660              		.cfi_offset 5, -32
 661              		.cfi_offset 6, -28
 662              		.cfi_offset 7, -24
 663              		.cfi_offset 8, -20
ARM GAS  /var/folders/21/t9g5rlb91ys800n5npymflf80000gn/T//ccKy7Lvj.s 			page 29


 664              		.cfi_offset 9, -16
 665              		.cfi_offset 10, -12
 666              		.cfi_offset 11, -8
 667              		.cfi_offset 14, -4
 668 0004 87B0     		sub	sp, sp, #28
 669              	.LCFI8:
 670              		.cfi_def_cfa_offset 64
 671 0006 0646     		mov	r6, r0
 672 0008 8946     		mov	r9, r1
 673 000a 0192     		str	r2, [sp, #4]
 674 000c 9A46     		mov	r10, r3
 454:lvgl/src/core/lv_indev_scroll.c ****     if(align == LV_SCROLL_SNAP_NONE) return 0;
 675              		.loc 1 454 5 is_stmt 1 view .LVU213
 454:lvgl/src/core/lv_indev_scroll.c ****     if(align == LV_SCROLL_SNAP_NONE) return 0;
 676              		.loc 1 454 30 is_stmt 0 view .LVU214
 677 000e FFF7FEFF 		bl	lv_obj_get_scroll_snap_x
 678              	.LVL63:
 455:lvgl/src/core/lv_indev_scroll.c **** 
 679              		.loc 1 455 5 is_stmt 1 view .LVU215
 455:lvgl/src/core/lv_indev_scroll.c **** 
 680              		.loc 1 455 7 is_stmt 0 view .LVU216
 681 0012 18B9     		cbnz	r0, .L47
 455:lvgl/src/core/lv_indev_scroll.c **** 
 682              		.loc 1 455 45 view .LVU217
 683 0014 0020     		movs	r0, #0
 684              	.LVL64:
 685              	.L36:
 496:lvgl/src/core/lv_indev_scroll.c **** 
 686              		.loc 1 496 1 view .LVU218
 687 0016 07B0     		add	sp, sp, #28
 688              	.LCFI9:
 689              		.cfi_remember_state
 690              		.cfi_def_cfa_offset 36
 691              		@ sp needed
 692 0018 BDE8F08F 		pop	{r4, r5, r6, r7, r8, r9, r10, fp, pc}
 693              	.LVL65:
 694              	.L47:
 695              	.LCFI10:
 696              		.cfi_restore_state
 496:lvgl/src/core/lv_indev_scroll.c **** 
 697              		.loc 1 496 1 view .LVU219
 698 001c 8046     		mov	r8, r0
 457:lvgl/src/core/lv_indev_scroll.c **** 
 699              		.loc 1 457 5 is_stmt 1 view .LVU220
 700              	.LVL66:
 459:lvgl/src/core/lv_indev_scroll.c ****     lv_coord_t pad_right = lv_obj_get_style_pad_right(obj, LV_PART_MAIN);
 701              		.loc 1 459 5 view .LVU221
 702              	.LBB75:
 703              	.LBI75:
 113:lvgl/src/core/lv_obj_style_gen.h **** }
 114:lvgl/src/core/lv_obj_style_gen.h **** 
 115:lvgl/src/core/lv_obj_style_gen.h **** static inline lv_coord_t lv_obj_get_style_pad_left(const struct _lv_obj_t * obj, uint32_t part)
 704              		.loc 2 115 26 view .LVU222
 705              	.LBB76:
 116:lvgl/src/core/lv_obj_style_gen.h **** {
 117:lvgl/src/core/lv_obj_style_gen.h ****     lv_style_value_t v = lv_obj_get_style_prop(obj, part, LV_STYLE_PAD_LEFT);
 706              		.loc 2 117 5 view .LVU223
ARM GAS  /var/folders/21/t9g5rlb91ys800n5npymflf80000gn/T//ccKy7Lvj.s 			page 30


 707              		.loc 2 117 26 is_stmt 0 view .LVU224
 708 001e 1222     		movs	r2, #18
 709 0020 0021     		movs	r1, #0
 710 0022 3046     		mov	r0, r6
 711              	.LVL67:
 712              		.loc 2 117 26 view .LVU225
 713 0024 FFF7FEFF 		bl	lv_obj_get_style_prop
 714              	.LVL68:
 715 0028 0290     		str	r0, [sp, #8]
 118:lvgl/src/core/lv_obj_style_gen.h ****     return (lv_coord_t)v.num;
 716              		.loc 2 118 5 is_stmt 1 view .LVU226
 717              		.loc 2 118 12 is_stmt 0 view .LVU227
 718 002a 03B2     		sxth	r3, r0
 719 002c 0593     		str	r3, [sp, #20]
 720              	.LVL69:
 721              		.loc 2 118 12 view .LVU228
 722              	.LBE76:
 723              	.LBE75:
 460:lvgl/src/core/lv_indev_scroll.c **** 
 724              		.loc 1 460 5 is_stmt 1 view .LVU229
 725              	.LBB77:
 726              	.LBI77:
 119:lvgl/src/core/lv_obj_style_gen.h **** }
 120:lvgl/src/core/lv_obj_style_gen.h **** 
 121:lvgl/src/core/lv_obj_style_gen.h **** static inline lv_coord_t lv_obj_get_style_pad_right(const struct _lv_obj_t * obj, uint32_t part)
 727              		.loc 2 121 26 view .LVU230
 728              	.LBB78:
 122:lvgl/src/core/lv_obj_style_gen.h **** {
 123:lvgl/src/core/lv_obj_style_gen.h ****     lv_style_value_t v = lv_obj_get_style_prop(obj, part, LV_STYLE_PAD_RIGHT);
 729              		.loc 2 123 5 view .LVU231
 730              		.loc 2 123 26 is_stmt 0 view .LVU232
 731 002e 1322     		movs	r2, #19
 732 0030 0021     		movs	r1, #0
 733 0032 3046     		mov	r0, r6
 734 0034 FFF7FEFF 		bl	lv_obj_get_style_prop
 735              	.LVL70:
 736 0038 0490     		str	r0, [sp, #16]
 124:lvgl/src/core/lv_obj_style_gen.h ****     return (lv_coord_t)v.num;
 737              		.loc 2 124 5 is_stmt 1 view .LVU233
 738              		.loc 2 124 12 is_stmt 0 view .LVU234
 739 003a 03B2     		sxth	r3, r0
 740 003c 0393     		str	r3, [sp, #12]
 741              	.LVL71:
 742              		.loc 2 124 12 view .LVU235
 743              	.LBE78:
 744              	.LBE77:
 462:lvgl/src/core/lv_indev_scroll.c ****     uint32_t child_cnt = lv_obj_get_child_cnt(obj);
 745              		.loc 1 462 5 is_stmt 1 view .LVU236
 463:lvgl/src/core/lv_indev_scroll.c ****     for(i = 0; i < child_cnt; i++) {
 746              		.loc 1 463 5 view .LVU237
 463:lvgl/src/core/lv_indev_scroll.c ****     for(i = 0; i < child_cnt; i++) {
 747              		.loc 1 463 26 is_stmt 0 view .LVU238
 748 003e 3046     		mov	r0, r6
 749 0040 FFF7FEFF 		bl	lv_obj_get_child_cnt
 750              	.LVL72:
 751 0044 0746     		mov	r7, r0
 752              	.LVL73:
ARM GAS  /var/folders/21/t9g5rlb91ys800n5npymflf80000gn/T//ccKy7Lvj.s 			page 31


 464:lvgl/src/core/lv_indev_scroll.c ****         lv_obj_t * child = obj->spec_attr->children[i];
 753              		.loc 1 464 5 is_stmt 1 view .LVU239
 464:lvgl/src/core/lv_indev_scroll.c ****         lv_obj_t * child = obj->spec_attr->children[i];
 754              		.loc 1 464 11 is_stmt 0 view .LVU240
 755 0046 0024     		movs	r4, #0
 457:lvgl/src/core/lv_indev_scroll.c **** 
 756              		.loc 1 457 16 view .LVU241
 757 0048 41F6FF7B 		movw	fp, #8191
 464:lvgl/src/core/lv_indev_scroll.c ****         lv_obj_t * child = obj->spec_attr->children[i];
 758              		.loc 1 464 5 view .LVU242
 759 004c 26E0     		b	.L37
 760              	.LVL74:
 761              	.L39:
 762              	.LBB79:
 763              	.LBB80:
 476:lvgl/src/core/lv_indev_scroll.c ****                     x_parent = obj->coords.x2 - pad_right;
 764              		.loc 1 476 21 is_stmt 1 view .LVU243
 476:lvgl/src/core/lv_indev_scroll.c ****                     x_parent = obj->coords.x2 - pad_right;
 765              		.loc 1 476 29 is_stmt 0 view .LVU244
 766 004e B5F91830 		ldrsh	r3, [r5, #24]
 767              	.LVL75:
 477:lvgl/src/core/lv_indev_scroll.c ****                     break;
 768              		.loc 1 477 21 is_stmt 1 view .LVU245
 477:lvgl/src/core/lv_indev_scroll.c ****                     break;
 769              		.loc 1 477 43 is_stmt 0 view .LVU246
 770 0052 318B     		ldrh	r1, [r6, #24]
 477:lvgl/src/core/lv_indev_scroll.c ****                     break;
 771              		.loc 1 477 47 view .LVU247
 772 0054 049A     		ldr	r2, [sp, #16]
 773 0056 891A     		subs	r1, r1, r2
 477:lvgl/src/core/lv_indev_scroll.c ****                     break;
 774              		.loc 1 477 30 view .LVU248
 775 0058 09B2     		sxth	r1, r1
 776              	.LVL76:
 478:lvgl/src/core/lv_indev_scroll.c ****                 case LV_SCROLL_SNAP_CENTER:
 777              		.loc 1 478 21 is_stmt 1 view .LVU249
 778 005a 41E0     		b	.L41
 779              	.LVL77:
 780              	.L40:
 480:lvgl/src/core/lv_indev_scroll.c ****                     x_parent = obj->coords.x1 + pad_left + (lv_area_get_width(&obj->coords) - pad_l
 781              		.loc 1 480 21 view .LVU250
 480:lvgl/src/core/lv_indev_scroll.c ****                     x_parent = obj->coords.x1 + pad_left + (lv_area_get_width(&obj->coords) - pad_l
 782              		.loc 1 480 44 is_stmt 0 view .LVU251
 783 005c AB8A     		ldrh	r3, [r5, #20]
 784              	.LVL78:
 785              	.LBB81:
 786              	.LBI81:
 123:lvgl/src/core/../misc/../font/../misc/lv_area.h **** {
 787              		.loc 3 123 26 is_stmt 1 view .LVU252
 788              	.LBB82:
 125:lvgl/src/core/../misc/../font/../misc/lv_area.h **** }
 789              		.loc 3 125 5 view .LVU253
 125:lvgl/src/core/../misc/../font/../misc/lv_area.h **** }
 790              		.loc 3 125 31 is_stmt 0 view .LVU254
 791 005e 2A8B     		ldrh	r2, [r5, #24]
 125:lvgl/src/core/../misc/../font/../misc/lv_area.h **** }
 792              		.loc 3 125 36 view .LVU255
ARM GAS  /var/folders/21/t9g5rlb91ys800n5npymflf80000gn/T//ccKy7Lvj.s 			page 32


 793 0060 D21A     		subs	r2, r2, r3
 794 0062 92B2     		uxth	r2, r2
 125:lvgl/src/core/../misc/../font/../misc/lv_area.h **** }
 795              		.loc 3 125 49 view .LVU256
 796 0064 0132     		adds	r2, r2, #1
 797              	.LVL79:
 125:lvgl/src/core/../misc/../font/../misc/lv_area.h **** }
 798              		.loc 3 125 49 view .LVU257
 799              	.LBE82:
 800              	.LBE81:
 480:lvgl/src/core/lv_indev_scroll.c ****                     x_parent = obj->coords.x1 + pad_left + (lv_area_get_width(&obj->coords) - pad_l
 801              		.loc 1 480 48 view .LVU258
 802 0066 C2F3C031 		ubfx	r1, r2, #15, #1
 803 006a 01FA82F2 		sxtah	r2, r1, r2
 804 006e 03EB6203 		add	r3, r3, r2, asr #1
 480:lvgl/src/core/lv_indev_scroll.c ****                     x_parent = obj->coords.x1 + pad_left + (lv_area_get_width(&obj->coords) - pad_l
 805              		.loc 1 480 29 view .LVU259
 806 0072 1BB2     		sxth	r3, r3
 807              	.LVL80:
 481:lvgl/src/core/lv_indev_scroll.c ****                     break;
 808              		.loc 1 481 21 is_stmt 1 view .LVU260
 481:lvgl/src/core/lv_indev_scroll.c ****                     break;
 809              		.loc 1 481 43 is_stmt 0 view .LVU261
 810 0074 B08A     		ldrh	r0, [r6, #20]
 481:lvgl/src/core/lv_indev_scroll.c ****                     break;
 811              		.loc 1 481 47 view .LVU262
 812 0076 029A     		ldr	r2, [sp, #8]
 813 0078 8118     		adds	r1, r0, r2
 814              	.LVL81:
 815              	.LBB83:
 816              	.LBI83:
 123:lvgl/src/core/../misc/../font/../misc/lv_area.h **** {
 817              		.loc 3 123 26 is_stmt 1 view .LVU263
 818              	.LBB84:
 125:lvgl/src/core/../misc/../font/../misc/lv_area.h **** }
 819              		.loc 3 125 5 view .LVU264
 125:lvgl/src/core/../misc/../font/../misc/lv_area.h **** }
 820              		.loc 3 125 31 is_stmt 0 view .LVU265
 821 007a 328B     		ldrh	r2, [r6, #24]
 125:lvgl/src/core/../misc/../font/../misc/lv_area.h **** }
 822              		.loc 3 125 36 view .LVU266
 823 007c 121A     		subs	r2, r2, r0
 824 007e 92B2     		uxth	r2, r2
 125:lvgl/src/core/../misc/../font/../misc/lv_area.h **** }
 825              		.loc 3 125 49 view .LVU267
 826 0080 0132     		adds	r2, r2, #1
 125:lvgl/src/core/../misc/../font/../misc/lv_area.h **** }
 827              		.loc 3 125 12 view .LVU268
 828 0082 12B2     		sxth	r2, r2
 829              	.LVL82:
 125:lvgl/src/core/../misc/../font/../misc/lv_area.h **** }
 830              		.loc 3 125 12 view .LVU269
 831              	.LBE84:
 832              	.LBE83:
 481:lvgl/src/core/lv_indev_scroll.c ****                     break;
 833              		.loc 1 481 93 view .LVU270
 834 0084 0598     		ldr	r0, [sp, #20]
ARM GAS  /var/folders/21/t9g5rlb91ys800n5npymflf80000gn/T//ccKy7Lvj.s 			page 33


 835 0086 121A     		subs	r2, r2, r0
 481:lvgl/src/core/lv_indev_scroll.c ****                     break;
 836              		.loc 1 481 104 view .LVU271
 837 0088 0398     		ldr	r0, [sp, #12]
 838 008a 121A     		subs	r2, r2, r0
 481:lvgl/src/core/lv_indev_scroll.c ****                     break;
 839              		.loc 1 481 117 view .LVU272
 840 008c 02EBD272 		add	r2, r2, r2, lsr #31
 841 0090 5210     		asrs	r2, r2, #1
 481:lvgl/src/core/lv_indev_scroll.c ****                     break;
 842              		.loc 1 481 58 view .LVU273
 843 0092 12FA81F1 		uxtah	r1, r2, r1
 481:lvgl/src/core/lv_indev_scroll.c ****                     break;
 844              		.loc 1 481 30 view .LVU274
 845 0096 09B2     		sxth	r1, r1
 846              	.LVL83:
 482:lvgl/src/core/lv_indev_scroll.c ****                 default:
 847              		.loc 1 482 21 is_stmt 1 view .LVU275
 848 0098 22E0     		b	.L41
 849              	.LVL84:
 850              	.L38:
 482:lvgl/src/core/lv_indev_scroll.c ****                 default:
 851              		.loc 1 482 21 is_stmt 0 view .LVU276
 852              	.LBE80:
 853              	.LBE79:
 464:lvgl/src/core/lv_indev_scroll.c ****         lv_obj_t * child = obj->spec_attr->children[i];
 854              		.loc 1 464 32 is_stmt 1 discriminator 2 view .LVU277
 855 009a 0134     		adds	r4, r4, #1
 856              	.LVL85:
 857              	.L37:
 464:lvgl/src/core/lv_indev_scroll.c ****         lv_obj_t * child = obj->spec_attr->children[i];
 858              		.loc 1 464 18 discriminator 1 view .LVU278
 859 009c BC42     		cmp	r4, r7
 860 009e 37D2     		bcs	.L48
 861              	.LBB87:
 465:lvgl/src/core/lv_indev_scroll.c ****         if(lv_obj_has_flag_any(child, LV_OBJ_FLAG_HIDDEN | LV_OBJ_FLAG_FLOATING)) continue;
 862              		.loc 1 465 9 view .LVU279
 465:lvgl/src/core/lv_indev_scroll.c ****         if(lv_obj_has_flag_any(child, LV_OBJ_FLAG_HIDDEN | LV_OBJ_FLAG_FLOATING)) continue;
 863              		.loc 1 465 31 is_stmt 0 view .LVU280
 864 00a0 B368     		ldr	r3, [r6, #8]
 465:lvgl/src/core/lv_indev_scroll.c ****         if(lv_obj_has_flag_any(child, LV_OBJ_FLAG_HIDDEN | LV_OBJ_FLAG_FLOATING)) continue;
 865              		.loc 1 465 42 view .LVU281
 866 00a2 1B68     		ldr	r3, [r3]
 465:lvgl/src/core/lv_indev_scroll.c ****         if(lv_obj_has_flag_any(child, LV_OBJ_FLAG_HIDDEN | LV_OBJ_FLAG_FLOATING)) continue;
 867              		.loc 1 465 20 view .LVU282
 868 00a4 53F82450 		ldr	r5, [r3, r4, lsl #2]
 869              	.LVL86:
 466:lvgl/src/core/lv_indev_scroll.c ****         if(lv_obj_has_flag(child, LV_OBJ_FLAG_SNAPPABLE)) {
 870              		.loc 1 466 9 is_stmt 1 view .LVU283
 466:lvgl/src/core/lv_indev_scroll.c ****         if(lv_obj_has_flag(child, LV_OBJ_FLAG_SNAPPABLE)) {
 871              		.loc 1 466 12 is_stmt 0 view .LVU284
 872 00a8 1E49     		ldr	r1, .L49
 873 00aa 2846     		mov	r0, r5
 874 00ac FFF7FEFF 		bl	lv_obj_has_flag_any
 875              	.LVL87:
 466:lvgl/src/core/lv_indev_scroll.c ****         if(lv_obj_has_flag(child, LV_OBJ_FLAG_SNAPPABLE)) {
 876              		.loc 1 466 11 view .LVU285
ARM GAS  /var/folders/21/t9g5rlb91ys800n5npymflf80000gn/T//ccKy7Lvj.s 			page 34


 877 00b0 0028     		cmp	r0, #0
 878 00b2 F2D1     		bne	.L38
 467:lvgl/src/core/lv_indev_scroll.c ****             lv_coord_t x_child = 0;
 879              		.loc 1 467 9 is_stmt 1 view .LVU286
 467:lvgl/src/core/lv_indev_scroll.c ****             lv_coord_t x_child = 0;
 880              		.loc 1 467 12 is_stmt 0 view .LVU287
 881 00b4 4FF48051 		mov	r1, #4096
 882 00b8 2846     		mov	r0, r5
 883 00ba FFF7FEFF 		bl	lv_obj_has_flag
 884              	.LVL88:
 467:lvgl/src/core/lv_indev_scroll.c ****             lv_coord_t x_child = 0;
 885              		.loc 1 467 11 view .LVU288
 886 00be 0028     		cmp	r0, #0
 887 00c0 EBD0     		beq	.L38
 888              	.LBB86:
 468:lvgl/src/core/lv_indev_scroll.c ****             lv_coord_t x_parent = 0;
 889              		.loc 1 468 13 is_stmt 1 view .LVU289
 890              	.LVL89:
 469:lvgl/src/core/lv_indev_scroll.c ****             switch(align) {
 891              		.loc 1 469 13 view .LVU290
 470:lvgl/src/core/lv_indev_scroll.c ****                 case LV_SCROLL_SNAP_START:
 892              		.loc 1 470 13 view .LVU291
 893 00c2 B8F1020F 		cmp	r8, #2
 894 00c6 C2D0     		beq	.L39
 895 00c8 B8F1030F 		cmp	r8, #3
 896 00cc C6D0     		beq	.L40
 897 00ce B8F1010F 		cmp	r8, #1
 898 00d2 E2D1     		bne	.L38
 472:lvgl/src/core/lv_indev_scroll.c ****                     x_parent = obj->coords.x1 + pad_left;
 899              		.loc 1 472 21 view .LVU292
 472:lvgl/src/core/lv_indev_scroll.c ****                     x_parent = obj->coords.x1 + pad_left;
 900              		.loc 1 472 29 is_stmt 0 view .LVU293
 901 00d4 B5F91430 		ldrsh	r3, [r5, #20]
 902              	.LVL90:
 473:lvgl/src/core/lv_indev_scroll.c ****                     break;
 903              		.loc 1 473 21 is_stmt 1 view .LVU294
 473:lvgl/src/core/lv_indev_scroll.c ****                     break;
 904              		.loc 1 473 43 is_stmt 0 view .LVU295
 905 00d8 B18A     		ldrh	r1, [r6, #20]
 473:lvgl/src/core/lv_indev_scroll.c ****                     break;
 906              		.loc 1 473 47 view .LVU296
 907 00da 029A     		ldr	r2, [sp, #8]
 908 00dc 1144     		add	r1, r1, r2
 473:lvgl/src/core/lv_indev_scroll.c ****                     break;
 909              		.loc 1 473 30 view .LVU297
 910 00de 09B2     		sxth	r1, r1
 911              	.LVL91:
 474:lvgl/src/core/lv_indev_scroll.c ****                 case LV_SCROLL_SNAP_END:
 912              		.loc 1 474 21 is_stmt 1 view .LVU298
 913              	.L41:
 487:lvgl/src/core/lv_indev_scroll.c ****             if(x_child >= min && x_child <= max) {
 914              		.loc 1 487 13 view .LVU299
 487:lvgl/src/core/lv_indev_scroll.c ****             if(x_child >= min && x_child <= max) {
 915              		.loc 1 487 21 is_stmt 0 view .LVU300
 916 00e0 5344     		add	r3, r3, r10
 917              	.LVL92:
 487:lvgl/src/core/lv_indev_scroll.c ****             if(x_child >= min && x_child <= max) {
ARM GAS  /var/folders/21/t9g5rlb91ys800n5npymflf80000gn/T//ccKy7Lvj.s 			page 35


 918              		.loc 1 487 21 view .LVU301
 919 00e2 9AB2     		uxth	r2, r3
 920 00e4 1BB2     		sxth	r3, r3
 921              	.LVL93:
 488:lvgl/src/core/lv_indev_scroll.c ****                 lv_coord_t x = x_child -  x_parent;
 922              		.loc 1 488 13 is_stmt 1 view .LVU302
 488:lvgl/src/core/lv_indev_scroll.c ****                 lv_coord_t x = x_child -  x_parent;
 923              		.loc 1 488 15 is_stmt 0 view .LVU303
 924 00e6 4B45     		cmp	r3, r9
 925 00e8 D7DB     		blt	.L38
 488:lvgl/src/core/lv_indev_scroll.c ****                 lv_coord_t x = x_child -  x_parent;
 926              		.loc 1 488 31 discriminator 1 view .LVU304
 927 00ea 0198     		ldr	r0, [sp, #4]
 928 00ec 8342     		cmp	r3, r0
 929 00ee D4DC     		bgt	.L38
 930              	.LBB85:
 489:lvgl/src/core/lv_indev_scroll.c ****                 if(LV_ABS(x) < LV_ABS(dist)) dist = x;
 931              		.loc 1 489 17 is_stmt 1 view .LVU305
 489:lvgl/src/core/lv_indev_scroll.c ****                 if(LV_ABS(x) < LV_ABS(dist)) dist = x;
 932              		.loc 1 489 40 is_stmt 0 view .LVU306
 933 00f0 521A     		subs	r2, r2, r1
 489:lvgl/src/core/lv_indev_scroll.c ****                 if(LV_ABS(x) < LV_ABS(dist)) dist = x;
 934              		.loc 1 489 28 view .LVU307
 935 00f2 12B2     		sxth	r2, r2
 936              	.LVL94:
 490:lvgl/src/core/lv_indev_scroll.c ****             }
 937              		.loc 1 490 17 is_stmt 1 view .LVU308
 490:lvgl/src/core/lv_indev_scroll.c ****             }
 938              		.loc 1 490 20 is_stmt 0 view .LVU309
 939 00f4 82EAE271 		eor	r1, r2, r2, asr #31
 940              	.LVL95:
 490:lvgl/src/core/lv_indev_scroll.c ****             }
 941              		.loc 1 490 20 view .LVU310
 942 00f8 A1EBE271 		sub	r1, r1, r2, asr #31
 943 00fc 89B2     		uxth	r1, r1
 490:lvgl/src/core/lv_indev_scroll.c ****             }
 944              		.loc 1 490 32 view .LVU311
 945 00fe 8BEAEB73 		eor	r3, fp, fp, asr #31
 946              	.LVL96:
 490:lvgl/src/core/lv_indev_scroll.c ****             }
 947              		.loc 1 490 32 view .LVU312
 948 0102 A3EBEB73 		sub	r3, r3, fp, asr #31
 949 0106 9BB2     		uxth	r3, r3
 490:lvgl/src/core/lv_indev_scroll.c ****             }
 950              		.loc 1 490 19 view .LVU313
 951 0108 9942     		cmp	r1, r3
 952 010a C6D2     		bcs	.L38
 490:lvgl/src/core/lv_indev_scroll.c ****             }
 953              		.loc 1 490 51 view .LVU314
 954 010c 9346     		mov	fp, r2
 955              	.LVL97:
 490:lvgl/src/core/lv_indev_scroll.c ****             }
 956              		.loc 1 490 51 view .LVU315
 957 010e C4E7     		b	.L38
 958              	.LVL98:
 959              	.L48:
 490:lvgl/src/core/lv_indev_scroll.c ****             }
ARM GAS  /var/folders/21/t9g5rlb91ys800n5npymflf80000gn/T//ccKy7Lvj.s 			page 36


 960              		.loc 1 490 51 view .LVU316
 961              	.LBE85:
 962              	.LBE86:
 963              	.LBE87:
 495:lvgl/src/core/lv_indev_scroll.c **** }
 964              		.loc 1 495 5 is_stmt 1 view .LVU317
 495:lvgl/src/core/lv_indev_scroll.c **** }
 965              		.loc 1 495 37 is_stmt 0 view .LVU318
 966 0110 41F6FF73 		movw	r3, #8191
 967 0114 9B45     		cmp	fp, r3
 968 0116 03D0     		beq	.L45
 495:lvgl/src/core/lv_indev_scroll.c **** }
 969              		.loc 1 495 37 discriminator 1 view .LVU319
 970 0118 CBF10000 		rsb	r0, fp, #0
 971 011c 00B2     		sxth	r0, r0
 972 011e 7AE7     		b	.L36
 973              	.L45:
 495:lvgl/src/core/lv_indev_scroll.c **** }
 974              		.loc 1 495 37 view .LVU320
 975 0120 0020     		movs	r0, #0
 976 0122 78E7     		b	.L36
 977              	.L50:
 978              		.align	2
 979              	.L49:
 980 0124 01000400 		.word	262145
 981              		.cfi_endproc
 982              	.LFE167:
 984              		.section	.text.init_scroll_limits,"ax",%progbits
 985              		.align	1
 986              		.syntax unified
 987              		.thumb
 988              		.thumb_func
 990              	init_scroll_limits:
 991              	.LVL99:
 992              	.LFB166:
 385:lvgl/src/core/lv_indev_scroll.c ****     lv_obj_t * obj = proc->types.pointer.scroll_obj;
 993              		.loc 1 385 1 is_stmt 1 view -0
 994              		.cfi_startproc
 995              		@ args = 0, pretend = 0, frame = 0
 996              		@ frame_needed = 0, uses_anonymous_args = 0
 385:lvgl/src/core/lv_indev_scroll.c ****     lv_obj_t * obj = proc->types.pointer.scroll_obj;
 997              		.loc 1 385 1 is_stmt 0 view .LVU322
 998 0000 70B5     		push	{r4, r5, r6, lr}
 999              	.LCFI11:
 1000              		.cfi_def_cfa_offset 16
 1001              		.cfi_offset 4, -16
 1002              		.cfi_offset 5, -12
 1003              		.cfi_offset 6, -8
 1004              		.cfi_offset 14, -4
 1005 0002 82B0     		sub	sp, sp, #8
 1006              	.LCFI12:
 1007              		.cfi_def_cfa_offset 24
 1008 0004 0446     		mov	r4, r0
 386:lvgl/src/core/lv_indev_scroll.c ****     /*If there no STOP allow scrolling anywhere*/
 1009              		.loc 1 386 5 is_stmt 1 view .LVU323
 386:lvgl/src/core/lv_indev_scroll.c ****     /*If there no STOP allow scrolling anywhere*/
 1010              		.loc 1 386 16 is_stmt 0 view .LVU324
ARM GAS  /var/folders/21/t9g5rlb91ys800n5npymflf80000gn/T//ccKy7Lvj.s 			page 37


 1011 0006 C56A     		ldr	r5, [r0, #44]
 1012              	.LVL100:
 388:lvgl/src/core/lv_indev_scroll.c ****         lv_area_set(&proc->types.pointer.scroll_area, LV_COORD_MIN, LV_COORD_MIN, LV_COORD_MAX, LV_
 1013              		.loc 1 388 5 is_stmt 1 view .LVU325
 388:lvgl/src/core/lv_indev_scroll.c ****         lv_area_set(&proc->types.pointer.scroll_area, LV_COORD_MIN, LV_COORD_MIN, LV_COORD_MAX, LV_
 1014              		.loc 1 388 8 is_stmt 0 view .LVU326
 1015 0008 8021     		movs	r1, #128
 1016 000a 2846     		mov	r0, r5
 1017              	.LVL101:
 388:lvgl/src/core/lv_indev_scroll.c ****         lv_area_set(&proc->types.pointer.scroll_area, LV_COORD_MIN, LV_COORD_MIN, LV_COORD_MAX, LV_
 1018              		.loc 1 388 8 view .LVU327
 1019 000c FFF7FEFF 		bl	lv_obj_has_flag
 1020              	.LVL102:
 388:lvgl/src/core/lv_indev_scroll.c ****         lv_area_set(&proc->types.pointer.scroll_area, LV_COORD_MIN, LV_COORD_MIN, LV_COORD_MAX, LV_
 1021              		.loc 1 388 7 view .LVU328
 1022 0010 10BB     		cbnz	r0, .L52
 389:lvgl/src/core/lv_indev_scroll.c ****     }
 1023              		.loc 1 389 9 is_stmt 1 view .LVU329
 1024 0012 6449     		ldr	r1, .L68
 1025 0014 41F6FF73 		movw	r3, #8191
 1026 0018 0093     		str	r3, [sp]
 1027 001a 0A46     		mov	r2, r1
 1028 001c 04F13400 		add	r0, r4, #52
 1029 0020 FFF7FEFF 		bl	lv_area_set
 1030              	.LVL103:
 1031              	.L53:
 437:lvgl/src/core/lv_indev_scroll.c ****     if(proc->types.pointer.scroll_area.x2 == 0) proc->types.pointer.scroll_area.x2 = LV_COORD_MAX;
 1032              		.loc 1 437 5 view .LVU330
 437:lvgl/src/core/lv_indev_scroll.c ****     if(proc->types.pointer.scroll_area.x2 == 0) proc->types.pointer.scroll_area.x2 = LV_COORD_MAX;
 1033              		.loc 1 437 39 is_stmt 0 view .LVU331
 1034 0024 B4F93430 		ldrsh	r3, [r4, #52]
 437:lvgl/src/core/lv_indev_scroll.c ****     if(proc->types.pointer.scroll_area.x2 == 0) proc->types.pointer.scroll_area.x2 = LV_COORD_MAX;
 1035              		.loc 1 437 7 view .LVU332
 1036 0028 13B9     		cbnz	r3, .L61
 437:lvgl/src/core/lv_indev_scroll.c ****     if(proc->types.pointer.scroll_area.x2 == 0) proc->types.pointer.scroll_area.x2 = LV_COORD_MAX;
 1037              		.loc 1 437 49 is_stmt 1 discriminator 1 view .LVU333
 437:lvgl/src/core/lv_indev_scroll.c ****     if(proc->types.pointer.scroll_area.x2 == 0) proc->types.pointer.scroll_area.x2 = LV_COORD_MAX;
 1038              		.loc 1 437 84 is_stmt 0 discriminator 1 view .LVU334
 1039 002a 4EF20103 		movw	r3, #57345
 1040 002e A386     		strh	r3, [r4, #52]	@ movhi
 1041              	.L61:
 438:lvgl/src/core/lv_indev_scroll.c ****     if(proc->types.pointer.scroll_area.y1 == 0) proc->types.pointer.scroll_area.y1 = LV_COORD_MIN;
 1042              		.loc 1 438 5 is_stmt 1 view .LVU335
 438:lvgl/src/core/lv_indev_scroll.c ****     if(proc->types.pointer.scroll_area.y1 == 0) proc->types.pointer.scroll_area.y1 = LV_COORD_MIN;
 1043              		.loc 1 438 39 is_stmt 0 view .LVU336
 1044 0030 B4F93830 		ldrsh	r3, [r4, #56]
 438:lvgl/src/core/lv_indev_scroll.c ****     if(proc->types.pointer.scroll_area.y1 == 0) proc->types.pointer.scroll_area.y1 = LV_COORD_MIN;
 1045              		.loc 1 438 7 view .LVU337
 1046 0034 13B9     		cbnz	r3, .L62
 438:lvgl/src/core/lv_indev_scroll.c ****     if(proc->types.pointer.scroll_area.y1 == 0) proc->types.pointer.scroll_area.y1 = LV_COORD_MIN;
 1047              		.loc 1 438 49 is_stmt 1 discriminator 1 view .LVU338
 438:lvgl/src/core/lv_indev_scroll.c ****     if(proc->types.pointer.scroll_area.y1 == 0) proc->types.pointer.scroll_area.y1 = LV_COORD_MIN;
 1048              		.loc 1 438 84 is_stmt 0 discriminator 1 view .LVU339
 1049 0036 41F6FF73 		movw	r3, #8191
 1050 003a 2387     		strh	r3, [r4, #56]	@ movhi
 1051              	.L62:
 439:lvgl/src/core/lv_indev_scroll.c ****     if(proc->types.pointer.scroll_area.y2 == 0) proc->types.pointer.scroll_area.y2 = LV_COORD_MAX;
ARM GAS  /var/folders/21/t9g5rlb91ys800n5npymflf80000gn/T//ccKy7Lvj.s 			page 38


 1052              		.loc 1 439 5 is_stmt 1 view .LVU340
 439:lvgl/src/core/lv_indev_scroll.c ****     if(proc->types.pointer.scroll_area.y2 == 0) proc->types.pointer.scroll_area.y2 = LV_COORD_MAX;
 1053              		.loc 1 439 39 is_stmt 0 view .LVU341
 1054 003c B4F93630 		ldrsh	r3, [r4, #54]
 439:lvgl/src/core/lv_indev_scroll.c ****     if(proc->types.pointer.scroll_area.y2 == 0) proc->types.pointer.scroll_area.y2 = LV_COORD_MAX;
 1055              		.loc 1 439 7 view .LVU342
 1056 0040 13B9     		cbnz	r3, .L63
 439:lvgl/src/core/lv_indev_scroll.c ****     if(proc->types.pointer.scroll_area.y2 == 0) proc->types.pointer.scroll_area.y2 = LV_COORD_MAX;
 1057              		.loc 1 439 49 is_stmt 1 discriminator 1 view .LVU343
 439:lvgl/src/core/lv_indev_scroll.c ****     if(proc->types.pointer.scroll_area.y2 == 0) proc->types.pointer.scroll_area.y2 = LV_COORD_MAX;
 1058              		.loc 1 439 84 is_stmt 0 discriminator 1 view .LVU344
 1059 0042 4EF20103 		movw	r3, #57345
 1060 0046 E386     		strh	r3, [r4, #54]	@ movhi
 1061              	.L63:
 440:lvgl/src/core/lv_indev_scroll.c **** }
 1062              		.loc 1 440 5 is_stmt 1 view .LVU345
 440:lvgl/src/core/lv_indev_scroll.c **** }
 1063              		.loc 1 440 39 is_stmt 0 view .LVU346
 1064 0048 B4F93A30 		ldrsh	r3, [r4, #58]
 440:lvgl/src/core/lv_indev_scroll.c **** }
 1065              		.loc 1 440 7 view .LVU347
 1066 004c 13B9     		cbnz	r3, .L51
 440:lvgl/src/core/lv_indev_scroll.c **** }
 1067              		.loc 1 440 49 is_stmt 1 discriminator 1 view .LVU348
 440:lvgl/src/core/lv_indev_scroll.c **** }
 1068              		.loc 1 440 84 is_stmt 0 discriminator 1 view .LVU349
 1069 004e 41F6FF73 		movw	r3, #8191
 1070 0052 6387     		strh	r3, [r4, #58]	@ movhi
 1071              	.L51:
 441:lvgl/src/core/lv_indev_scroll.c **** 
 1072              		.loc 1 441 1 view .LVU350
 1073 0054 02B0     		add	sp, sp, #8
 1074              	.LCFI13:
 1075              		.cfi_remember_state
 1076              		.cfi_def_cfa_offset 16
 1077              		@ sp needed
 1078 0056 70BD     		pop	{r4, r5, r6, pc}
 1079              	.LVL104:
 1080              	.L52:
 1081              	.LCFI14:
 1082              		.cfi_restore_state
 393:lvgl/src/core/lv_indev_scroll.c ****             case LV_SCROLL_SNAP_START:
 1083              		.loc 1 393 9 is_stmt 1 view .LVU351
 393:lvgl/src/core/lv_indev_scroll.c ****             case LV_SCROLL_SNAP_START:
 1084              		.loc 1 393 16 is_stmt 0 view .LVU352
 1085 0058 2846     		mov	r0, r5
 1086 005a FFF7FEFF 		bl	lv_obj_get_scroll_snap_y
 1087              	.LVL105:
 393:lvgl/src/core/lv_indev_scroll.c ****             case LV_SCROLL_SNAP_START:
 1088              		.loc 1 393 9 view .LVU353
 1089 005e 0228     		cmp	r0, #2
 1090 0060 2DD0     		beq	.L54
 1091 0062 0328     		cmp	r0, #3
 1092 0064 3DD0     		beq	.L55
 1093 0066 0128     		cmp	r0, #1
 1094 0068 06D0     		beq	.L66
 409:lvgl/src/core/lv_indev_scroll.c ****                 proc->types.pointer.scroll_area.y2 = LV_COORD_MAX;
ARM GAS  /var/folders/21/t9g5rlb91ys800n5npymflf80000gn/T//ccKy7Lvj.s 			page 39


 1095              		.loc 1 409 17 is_stmt 1 view .LVU354
 409:lvgl/src/core/lv_indev_scroll.c ****                 proc->types.pointer.scroll_area.y2 = LV_COORD_MAX;
 1096              		.loc 1 409 52 is_stmt 0 view .LVU355
 1097 006a 4EF20103 		movw	r3, #57345
 1098 006e E386     		strh	r3, [r4, #54]	@ movhi
 410:lvgl/src/core/lv_indev_scroll.c ****                 break;
 1099              		.loc 1 410 17 is_stmt 1 view .LVU356
 410:lvgl/src/core/lv_indev_scroll.c ****                 break;
 1100              		.loc 1 410 52 is_stmt 0 view .LVU357
 1101 0070 41F6FF73 		movw	r3, #8191
 1102 0074 6387     		strh	r3, [r4, #58]	@ movhi
 411:lvgl/src/core/lv_indev_scroll.c ****         }
 1103              		.loc 1 411 17 is_stmt 1 view .LVU358
 1104 0076 12E0     		b	.L57
 1105              	.L66:
 395:lvgl/src/core/lv_indev_scroll.c ****                 proc->types.pointer.scroll_area.y2 = find_snap_point_y(obj, LV_COORD_MIN, obj->coor
 1106              		.loc 1 395 17 view .LVU359
 395:lvgl/src/core/lv_indev_scroll.c ****                 proc->types.pointer.scroll_area.y2 = find_snap_point_y(obj, LV_COORD_MIN, obj->coor
 1107              		.loc 1 395 88 is_stmt 0 view .LVU360
 1108 0078 E98A     		ldrh	r1, [r5, #22]
 395:lvgl/src/core/lv_indev_scroll.c ****                 proc->types.pointer.scroll_area.y2 = find_snap_point_y(obj, LV_COORD_MIN, obj->coor
 1109              		.loc 1 395 92 view .LVU361
 1110 007a 0131     		adds	r1, r1, #1
 395:lvgl/src/core/lv_indev_scroll.c ****                 proc->types.pointer.scroll_area.y2 = find_snap_point_y(obj, LV_COORD_MIN, obj->coor
 1111              		.loc 1 395 54 view .LVU362
 1112 007c 0023     		movs	r3, #0
 1113 007e 41F6FF72 		movw	r2, #8191
 1114 0082 09B2     		sxth	r1, r1
 1115 0084 2846     		mov	r0, r5
 1116 0086 FFF7FEFF 		bl	find_snap_point_y
 1117              	.LVL106:
 395:lvgl/src/core/lv_indev_scroll.c ****                 proc->types.pointer.scroll_area.y2 = find_snap_point_y(obj, LV_COORD_MIN, obj->coor
 1118              		.loc 1 395 52 view .LVU363
 1119 008a E086     		strh	r0, [r4, #54]	@ movhi
 396:lvgl/src/core/lv_indev_scroll.c ****                 break;
 1120              		.loc 1 396 17 is_stmt 1 view .LVU364
 396:lvgl/src/core/lv_indev_scroll.c ****                 break;
 1121              		.loc 1 396 102 is_stmt 0 view .LVU365
 1122 008c EA8A     		ldrh	r2, [r5, #22]
 396:lvgl/src/core/lv_indev_scroll.c ****                 break;
 1123              		.loc 1 396 106 view .LVU366
 1124 008e 013A     		subs	r2, r2, #1
 396:lvgl/src/core/lv_indev_scroll.c ****                 break;
 1125              		.loc 1 396 54 view .LVU367
 1126 0090 0023     		movs	r3, #0
 1127 0092 12B2     		sxth	r2, r2
 1128 0094 4349     		ldr	r1, .L68
 1129 0096 2846     		mov	r0, r5
 1130 0098 FFF7FEFF 		bl	find_snap_point_y
 1131              	.LVL107:
 396:lvgl/src/core/lv_indev_scroll.c ****                 break;
 1132              		.loc 1 396 52 view .LVU368
 1133 009c 6087     		strh	r0, [r4, #58]	@ movhi
 397:lvgl/src/core/lv_indev_scroll.c ****             case LV_SCROLL_SNAP_END:
 1134              		.loc 1 397 17 is_stmt 1 view .LVU369
 1135              	.L57:
 414:lvgl/src/core/lv_indev_scroll.c ****             case LV_SCROLL_SNAP_START:
ARM GAS  /var/folders/21/t9g5rlb91ys800n5npymflf80000gn/T//ccKy7Lvj.s 			page 40


 1136              		.loc 1 414 9 view .LVU370
 414:lvgl/src/core/lv_indev_scroll.c ****             case LV_SCROLL_SNAP_START:
 1137              		.loc 1 414 16 is_stmt 0 view .LVU371
 1138 009e 2846     		mov	r0, r5
 1139 00a0 FFF7FEFF 		bl	lv_obj_get_scroll_snap_x
 1140              	.LVL108:
 414:lvgl/src/core/lv_indev_scroll.c ****             case LV_SCROLL_SNAP_START:
 1141              		.loc 1 414 9 view .LVU372
 1142 00a4 0228     		cmp	r0, #2
 1143 00a6 4CD0     		beq	.L58
 1144 00a8 0328     		cmp	r0, #3
 1145 00aa 5CD0     		beq	.L59
 1146 00ac 0128     		cmp	r0, #1
 1147 00ae 36D0     		beq	.L67
 430:lvgl/src/core/lv_indev_scroll.c ****                 proc->types.pointer.scroll_area.x2 = LV_COORD_MAX;
 1148              		.loc 1 430 17 is_stmt 1 view .LVU373
 430:lvgl/src/core/lv_indev_scroll.c ****                 proc->types.pointer.scroll_area.x2 = LV_COORD_MAX;
 1149              		.loc 1 430 52 is_stmt 0 view .LVU374
 1150 00b0 4EF20103 		movw	r3, #57345
 1151 00b4 A386     		strh	r3, [r4, #52]	@ movhi
 431:lvgl/src/core/lv_indev_scroll.c ****                 break;
 1152              		.loc 1 431 17 is_stmt 1 view .LVU375
 431:lvgl/src/core/lv_indev_scroll.c ****                 break;
 1153              		.loc 1 431 52 is_stmt 0 view .LVU376
 1154 00b6 41F6FF73 		movw	r3, #8191
 1155 00ba 2387     		strh	r3, [r4, #56]	@ movhi
 432:lvgl/src/core/lv_indev_scroll.c ****         }
 1156              		.loc 1 432 17 is_stmt 1 view .LVU377
 1157 00bc B2E7     		b	.L53
 1158              	.L54:
 399:lvgl/src/core/lv_indev_scroll.c ****                 proc->types.pointer.scroll_area.y2 = find_snap_point_y(obj, LV_COORD_MIN, obj->coor
 1159              		.loc 1 399 17 view .LVU378
 399:lvgl/src/core/lv_indev_scroll.c ****                 proc->types.pointer.scroll_area.y2 = find_snap_point_y(obj, LV_COORD_MIN, obj->coor
 1160              		.loc 1 399 54 is_stmt 0 view .LVU379
 1161 00be 0023     		movs	r3, #0
 1162 00c0 41F6FF72 		movw	r2, #8191
 1163 00c4 B5F91A10 		ldrsh	r1, [r5, #26]
 1164 00c8 2846     		mov	r0, r5
 1165 00ca FFF7FEFF 		bl	find_snap_point_y
 1166              	.LVL109:
 399:lvgl/src/core/lv_indev_scroll.c ****                 proc->types.pointer.scroll_area.y2 = find_snap_point_y(obj, LV_COORD_MIN, obj->coor
 1167              		.loc 1 399 52 view .LVU380
 1168 00ce E086     		strh	r0, [r4, #54]	@ movhi
 400:lvgl/src/core/lv_indev_scroll.c ****                 break;
 1169              		.loc 1 400 17 is_stmt 1 view .LVU381
 400:lvgl/src/core/lv_indev_scroll.c ****                 break;
 1170              		.loc 1 400 54 is_stmt 0 view .LVU382
 1171 00d0 0023     		movs	r3, #0
 1172 00d2 B5F91A20 		ldrsh	r2, [r5, #26]
 1173 00d6 3349     		ldr	r1, .L68
 1174 00d8 2846     		mov	r0, r5
 1175 00da FFF7FEFF 		bl	find_snap_point_y
 1176              	.LVL110:
 400:lvgl/src/core/lv_indev_scroll.c ****                 break;
 1177              		.loc 1 400 52 view .LVU383
 1178 00de 6087     		strh	r0, [r4, #58]	@ movhi
 401:lvgl/src/core/lv_indev_scroll.c ****             case LV_SCROLL_SNAP_CENTER: {
ARM GAS  /var/folders/21/t9g5rlb91ys800n5npymflf80000gn/T//ccKy7Lvj.s 			page 41


 1179              		.loc 1 401 17 is_stmt 1 view .LVU384
 1180 00e0 DDE7     		b	.L57
 1181              	.L55:
 1182              	.LBB88:
 403:lvgl/src/core/lv_indev_scroll.c ****                     proc->types.pointer.scroll_area.y1 = find_snap_point_y(obj, y_mid + 1, LV_COORD
 1183              		.loc 1 403 21 view .LVU385
 403:lvgl/src/core/lv_indev_scroll.c ****                     proc->types.pointer.scroll_area.y1 = find_snap_point_y(obj, y_mid + 1, LV_COORD
 1184              		.loc 1 403 51 is_stmt 0 view .LVU386
 1185 00e2 EE8A     		ldrh	r6, [r5, #22]
 1186              	.LVL111:
 1187              	.LBB89:
 1188              	.LBI89:
 133:lvgl/src/core/../misc/../font/../misc/lv_area.h **** {
 1189              		.loc 3 133 26 is_stmt 1 view .LVU387
 1190              	.LBB90:
 1191              		.loc 3 135 5 view .LVU388
 1192              		.loc 3 135 31 is_stmt 0 view .LVU389
 1193 00e4 6B8B     		ldrh	r3, [r5, #26]
 1194              		.loc 3 135 36 view .LVU390
 1195 00e6 9B1B     		subs	r3, r3, r6
 1196 00e8 9BB2     		uxth	r3, r3
 1197              		.loc 3 135 49 view .LVU391
 1198 00ea 0133     		adds	r3, r3, #1
 1199              	.LVL112:
 1200              		.loc 3 135 49 view .LVU392
 1201              	.LBE90:
 1202              	.LBE89:
 403:lvgl/src/core/lv_indev_scroll.c ****                     proc->types.pointer.scroll_area.y1 = find_snap_point_y(obj, y_mid + 1, LV_COORD
 1203              		.loc 1 403 55 view .LVU393
 1204 00ec C3F3C032 		ubfx	r2, r3, #15, #1
 1205 00f0 02FA83F3 		sxtah	r3, r2, r3
 1206 00f4 06EB6306 		add	r6, r6, r3, asr #1
 1207 00f8 B6B2     		uxth	r6, r6
 1208              	.LVL113:
 404:lvgl/src/core/lv_indev_scroll.c ****                     proc->types.pointer.scroll_area.y2 = find_snap_point_y(obj, LV_COORD_MIN, y_mid
 1209              		.loc 1 404 21 is_stmt 1 view .LVU394
 404:lvgl/src/core/lv_indev_scroll.c ****                     proc->types.pointer.scroll_area.y2 = find_snap_point_y(obj, LV_COORD_MIN, y_mid
 1210              		.loc 1 404 87 is_stmt 0 view .LVU395
 1211 00fa 711C     		adds	r1, r6, #1
 404:lvgl/src/core/lv_indev_scroll.c ****                     proc->types.pointer.scroll_area.y2 = find_snap_point_y(obj, LV_COORD_MIN, y_mid
 1212              		.loc 1 404 58 view .LVU396
 1213 00fc 0023     		movs	r3, #0
 1214 00fe 41F6FF72 		movw	r2, #8191
 1215 0102 09B2     		sxth	r1, r1
 1216 0104 2846     		mov	r0, r5
 1217 0106 FFF7FEFF 		bl	find_snap_point_y
 1218              	.LVL114:
 404:lvgl/src/core/lv_indev_scroll.c ****                     proc->types.pointer.scroll_area.y2 = find_snap_point_y(obj, LV_COORD_MIN, y_mid
 1219              		.loc 1 404 56 view .LVU397
 1220 010a E086     		strh	r0, [r4, #54]	@ movhi
 405:lvgl/src/core/lv_indev_scroll.c ****                     break;
 1221              		.loc 1 405 21 is_stmt 1 view .LVU398
 405:lvgl/src/core/lv_indev_scroll.c ****                     break;
 1222              		.loc 1 405 101 is_stmt 0 view .LVU399
 1223 010c 721E     		subs	r2, r6, #1
 405:lvgl/src/core/lv_indev_scroll.c ****                     break;
 1224              		.loc 1 405 58 view .LVU400
ARM GAS  /var/folders/21/t9g5rlb91ys800n5npymflf80000gn/T//ccKy7Lvj.s 			page 42


 1225 010e 0023     		movs	r3, #0
 1226 0110 12B2     		sxth	r2, r2
 1227 0112 2449     		ldr	r1, .L68
 1228 0114 2846     		mov	r0, r5
 1229 0116 FFF7FEFF 		bl	find_snap_point_y
 1230              	.LVL115:
 405:lvgl/src/core/lv_indev_scroll.c ****                     break;
 1231              		.loc 1 405 56 view .LVU401
 1232 011a 6087     		strh	r0, [r4, #58]	@ movhi
 406:lvgl/src/core/lv_indev_scroll.c ****                 }
 1233              		.loc 1 406 21 is_stmt 1 view .LVU402
 1234 011c BFE7     		b	.L57
 1235              	.LVL116:
 1236              	.L67:
 406:lvgl/src/core/lv_indev_scroll.c ****                 }
 1237              		.loc 1 406 21 is_stmt 0 view .LVU403
 1238              	.LBE88:
 416:lvgl/src/core/lv_indev_scroll.c ****                 proc->types.pointer.scroll_area.x2 = find_snap_point_x(obj, LV_COORD_MIN, obj->coor
 1239              		.loc 1 416 17 is_stmt 1 view .LVU404
 416:lvgl/src/core/lv_indev_scroll.c ****                 proc->types.pointer.scroll_area.x2 = find_snap_point_x(obj, LV_COORD_MIN, obj->coor
 1240              		.loc 1 416 54 is_stmt 0 view .LVU405
 1241 011e 0023     		movs	r3, #0
 1242 0120 41F6FF72 		movw	r2, #8191
 1243 0124 B5F91410 		ldrsh	r1, [r5, #20]
 1244 0128 2846     		mov	r0, r5
 1245 012a FFF7FEFF 		bl	find_snap_point_x
 1246              	.LVL117:
 416:lvgl/src/core/lv_indev_scroll.c ****                 proc->types.pointer.scroll_area.x2 = find_snap_point_x(obj, LV_COORD_MIN, obj->coor
 1247              		.loc 1 416 52 view .LVU406
 1248 012e A086     		strh	r0, [r4, #52]	@ movhi
 417:lvgl/src/core/lv_indev_scroll.c ****                 break;
 1249              		.loc 1 417 17 is_stmt 1 view .LVU407
 417:lvgl/src/core/lv_indev_scroll.c ****                 break;
 1250              		.loc 1 417 54 is_stmt 0 view .LVU408
 1251 0130 0023     		movs	r3, #0
 1252 0132 B5F91420 		ldrsh	r2, [r5, #20]
 1253 0136 1B49     		ldr	r1, .L68
 1254 0138 2846     		mov	r0, r5
 1255 013a FFF7FEFF 		bl	find_snap_point_x
 1256              	.LVL118:
 417:lvgl/src/core/lv_indev_scroll.c ****                 break;
 1257              		.loc 1 417 52 view .LVU409
 1258 013e 2087     		strh	r0, [r4, #56]	@ movhi
 418:lvgl/src/core/lv_indev_scroll.c ****             case LV_SCROLL_SNAP_END:
 1259              		.loc 1 418 17 is_stmt 1 view .LVU410
 1260 0140 70E7     		b	.L53
 1261              	.L58:
 420:lvgl/src/core/lv_indev_scroll.c ****                 proc->types.pointer.scroll_area.x2 = find_snap_point_x(obj, LV_COORD_MIN, obj->coor
 1262              		.loc 1 420 17 view .LVU411
 420:lvgl/src/core/lv_indev_scroll.c ****                 proc->types.pointer.scroll_area.x2 = find_snap_point_x(obj, LV_COORD_MIN, obj->coor
 1263              		.loc 1 420 54 is_stmt 0 view .LVU412
 1264 0142 0023     		movs	r3, #0
 1265 0144 41F6FF72 		movw	r2, #8191
 1266 0148 B5F91810 		ldrsh	r1, [r5, #24]
 1267 014c 2846     		mov	r0, r5
 1268 014e FFF7FEFF 		bl	find_snap_point_x
 1269              	.LVL119:
ARM GAS  /var/folders/21/t9g5rlb91ys800n5npymflf80000gn/T//ccKy7Lvj.s 			page 43


 420:lvgl/src/core/lv_indev_scroll.c ****                 proc->types.pointer.scroll_area.x2 = find_snap_point_x(obj, LV_COORD_MIN, obj->coor
 1270              		.loc 1 420 52 view .LVU413
 1271 0152 A086     		strh	r0, [r4, #52]	@ movhi
 421:lvgl/src/core/lv_indev_scroll.c ****                 break;
 1272              		.loc 1 421 17 is_stmt 1 view .LVU414
 421:lvgl/src/core/lv_indev_scroll.c ****                 break;
 1273              		.loc 1 421 54 is_stmt 0 view .LVU415
 1274 0154 0023     		movs	r3, #0
 1275 0156 B5F91820 		ldrsh	r2, [r5, #24]
 1276 015a 1249     		ldr	r1, .L68
 1277 015c 2846     		mov	r0, r5
 1278 015e FFF7FEFF 		bl	find_snap_point_x
 1279              	.LVL120:
 421:lvgl/src/core/lv_indev_scroll.c ****                 break;
 1280              		.loc 1 421 52 view .LVU416
 1281 0162 2087     		strh	r0, [r4, #56]	@ movhi
 422:lvgl/src/core/lv_indev_scroll.c ****             case LV_SCROLL_SNAP_CENTER: {
 1282              		.loc 1 422 17 is_stmt 1 view .LVU417
 1283 0164 5EE7     		b	.L53
 1284              	.L59:
 1285              	.LBB91:
 424:lvgl/src/core/lv_indev_scroll.c ****                     proc->types.pointer.scroll_area.x1 = find_snap_point_x(obj, x_mid + 1, LV_COORD
 1286              		.loc 1 424 21 view .LVU418
 424:lvgl/src/core/lv_indev_scroll.c ****                     proc->types.pointer.scroll_area.x1 = find_snap_point_x(obj, x_mid + 1, LV_COORD
 1287              		.loc 1 424 51 is_stmt 0 view .LVU419
 1288 0166 AE8A     		ldrh	r6, [r5, #20]
 1289              	.LVL121:
 1290              	.LBB92:
 1291              	.LBI92:
 123:lvgl/src/core/../misc/../font/../misc/lv_area.h **** {
 1292              		.loc 3 123 26 is_stmt 1 view .LVU420
 1293              	.LBB93:
 125:lvgl/src/core/../misc/../font/../misc/lv_area.h **** }
 1294              		.loc 3 125 5 view .LVU421
 125:lvgl/src/core/../misc/../font/../misc/lv_area.h **** }
 1295              		.loc 3 125 31 is_stmt 0 view .LVU422
 1296 0168 2B8B     		ldrh	r3, [r5, #24]
 125:lvgl/src/core/../misc/../font/../misc/lv_area.h **** }
 1297              		.loc 3 125 36 view .LVU423
 1298 016a 9B1B     		subs	r3, r3, r6
 1299 016c 9BB2     		uxth	r3, r3
 125:lvgl/src/core/../misc/../font/../misc/lv_area.h **** }
 1300              		.loc 3 125 49 view .LVU424
 1301 016e 0133     		adds	r3, r3, #1
 1302              	.LVL122:
 125:lvgl/src/core/../misc/../font/../misc/lv_area.h **** }
 1303              		.loc 3 125 49 view .LVU425
 1304              	.LBE93:
 1305              	.LBE92:
 424:lvgl/src/core/lv_indev_scroll.c ****                     proc->types.pointer.scroll_area.x1 = find_snap_point_x(obj, x_mid + 1, LV_COORD
 1306              		.loc 1 424 55 view .LVU426
 1307 0170 C3F3C032 		ubfx	r2, r3, #15, #1
 1308 0174 02FA83F3 		sxtah	r3, r2, r3
 1309 0178 06EB6306 		add	r6, r6, r3, asr #1
 1310 017c B6B2     		uxth	r6, r6
 1311              	.LVL123:
 425:lvgl/src/core/lv_indev_scroll.c ****                     proc->types.pointer.scroll_area.x2 = find_snap_point_x(obj, LV_COORD_MIN, x_mid
ARM GAS  /var/folders/21/t9g5rlb91ys800n5npymflf80000gn/T//ccKy7Lvj.s 			page 44


 1312              		.loc 1 425 21 is_stmt 1 view .LVU427
 425:lvgl/src/core/lv_indev_scroll.c ****                     proc->types.pointer.scroll_area.x2 = find_snap_point_x(obj, LV_COORD_MIN, x_mid
 1313              		.loc 1 425 87 is_stmt 0 view .LVU428
 1314 017e 711C     		adds	r1, r6, #1
 425:lvgl/src/core/lv_indev_scroll.c ****                     proc->types.pointer.scroll_area.x2 = find_snap_point_x(obj, LV_COORD_MIN, x_mid
 1315              		.loc 1 425 58 view .LVU429
 1316 0180 0023     		movs	r3, #0
 1317 0182 41F6FF72 		movw	r2, #8191
 1318 0186 09B2     		sxth	r1, r1
 1319 0188 2846     		mov	r0, r5
 1320 018a FFF7FEFF 		bl	find_snap_point_x
 1321              	.LVL124:
 425:lvgl/src/core/lv_indev_scroll.c ****                     proc->types.pointer.scroll_area.x2 = find_snap_point_x(obj, LV_COORD_MIN, x_mid
 1322              		.loc 1 425 56 view .LVU430
 1323 018e A086     		strh	r0, [r4, #52]	@ movhi
 426:lvgl/src/core/lv_indev_scroll.c ****                     break;
 1324              		.loc 1 426 21 is_stmt 1 view .LVU431
 426:lvgl/src/core/lv_indev_scroll.c ****                     break;
 1325              		.loc 1 426 101 is_stmt 0 view .LVU432
 1326 0190 721E     		subs	r2, r6, #1
 426:lvgl/src/core/lv_indev_scroll.c ****                     break;
 1327              		.loc 1 426 58 view .LVU433
 1328 0192 0023     		movs	r3, #0
 1329 0194 12B2     		sxth	r2, r2
 1330 0196 0349     		ldr	r1, .L68
 1331 0198 2846     		mov	r0, r5
 1332 019a FFF7FEFF 		bl	find_snap_point_x
 1333              	.LVL125:
 426:lvgl/src/core/lv_indev_scroll.c ****                     break;
 1334              		.loc 1 426 56 view .LVU434
 1335 019e 2087     		strh	r0, [r4, #56]	@ movhi
 427:lvgl/src/core/lv_indev_scroll.c ****                 }
 1336              		.loc 1 427 21 is_stmt 1 view .LVU435
 1337 01a0 40E7     		b	.L53
 1338              	.L69:
 1339 01a2 00BF     		.align	2
 1340              	.L68:
 1341 01a4 01E0FFFF 		.word	-8191
 1342              	.LBE91:
 1343              		.cfi_endproc
 1344              	.LFE166:
 1346              		.section	.text.find_scroll_obj,"ax",%progbits
 1347              		.align	1
 1348              		.syntax unified
 1349              		.thumb
 1350              		.thumb_func
 1352              	find_scroll_obj:
 1353              	.LVL126:
 1354              	.LFB165:
 256:lvgl/src/core/lv_indev_scroll.c ****     lv_obj_t * obj_candidate = NULL;
 1355              		.loc 1 256 1 view -0
 1356              		.cfi_startproc
 1357              		@ args = 0, pretend = 0, frame = 40
 1358              		@ frame_needed = 0, uses_anonymous_args = 0
 256:lvgl/src/core/lv_indev_scroll.c ****     lv_obj_t * obj_candidate = NULL;
 1359              		.loc 1 256 1 is_stmt 0 view .LVU437
 1360 0000 2DE9F04F 		push	{r4, r5, r6, r7, r8, r9, r10, fp, lr}
ARM GAS  /var/folders/21/t9g5rlb91ys800n5npymflf80000gn/T//ccKy7Lvj.s 			page 45


 1361              	.LCFI15:
 1362              		.cfi_def_cfa_offset 36
 1363              		.cfi_offset 4, -36
 1364              		.cfi_offset 5, -32
 1365              		.cfi_offset 6, -28
 1366              		.cfi_offset 7, -24
 1367              		.cfi_offset 8, -20
 1368              		.cfi_offset 9, -16
 1369              		.cfi_offset 10, -12
 1370              		.cfi_offset 11, -8
 1371              		.cfi_offset 14, -4
 1372 0004 8BB0     		sub	sp, sp, #44
 1373              	.LCFI16:
 1374              		.cfi_def_cfa_offset 80
 1375 0006 8346     		mov	fp, r0
 257:lvgl/src/core/lv_indev_scroll.c ****     lv_dir_t dir_candidate = LV_DIR_NONE;
 1376              		.loc 1 257 5 is_stmt 1 view .LVU438
 1377              	.LVL127:
 258:lvgl/src/core/lv_indev_scroll.c ****     lv_indev_t * indev_act = lv_indev_get_act();
 1378              		.loc 1 258 5 view .LVU439
 259:lvgl/src/core/lv_indev_scroll.c ****     lv_coord_t scroll_limit = indev_act->driver->scroll_limit;
 1379              		.loc 1 259 5 view .LVU440
 259:lvgl/src/core/lv_indev_scroll.c ****     lv_coord_t scroll_limit = indev_act->driver->scroll_limit;
 1380              		.loc 1 259 30 is_stmt 0 view .LVU441
 1381 0008 FFF7FEFF 		bl	lv_indev_get_act
 1382              	.LVL128:
 260:lvgl/src/core/lv_indev_scroll.c **** 
 1383              		.loc 1 260 5 is_stmt 1 view .LVU442
 260:lvgl/src/core/lv_indev_scroll.c **** 
 1384              		.loc 1 260 40 is_stmt 0 view .LVU443
 1385 000c 0368     		ldr	r3, [r0]
 260:lvgl/src/core/lv_indev_scroll.c **** 
 1386              		.loc 1 260 48 view .LVU444
 1387 000e 93F81880 		ldrb	r8, [r3, #24]	@ zero_extendqisi2
 260:lvgl/src/core/lv_indev_scroll.c **** 
 1388              		.loc 1 260 16 view .LVU445
 1389 0012 0FFA88F9 		sxth	r9, r8
 1390              	.LVL129:
 269:lvgl/src/core/lv_indev_scroll.c **** 
 1391              		.loc 1 269 5 is_stmt 1 view .LVU446
 269:lvgl/src/core/lv_indev_scroll.c **** 
 1392              		.loc 1 269 16 is_stmt 0 view .LVU447
 1393 0016 DBF82440 		ldr	r4, [fp, #36]
 1394              	.LVL130:
 272:lvgl/src/core/lv_indev_scroll.c ****     bool ver_en = false;
 1395              		.loc 1 272 5 is_stmt 1 view .LVU448
 273:lvgl/src/core/lv_indev_scroll.c **** 
 1396              		.loc 1 273 5 view .LVU449
 275:lvgl/src/core/lv_indev_scroll.c ****     proc->types.pointer.scroll_sum.y += proc->types.pointer.vect.y;
 1397              		.loc 1 275 5 view .LVU450
 275:lvgl/src/core/lv_indev_scroll.c ****     proc->types.pointer.scroll_sum.y += proc->types.pointer.vect.y;
 1398              		.loc 1 275 35 is_stmt 0 view .LVU451
 1399 001a BBF81830 		ldrh	r3, [fp, #24]
 275:lvgl/src/core/lv_indev_scroll.c ****     proc->types.pointer.scroll_sum.y += proc->types.pointer.vect.y;
 1400              		.loc 1 275 65 view .LVU452
 1401 001e BBF81420 		ldrh	r2, [fp, #20]
 275:lvgl/src/core/lv_indev_scroll.c ****     proc->types.pointer.scroll_sum.y += proc->types.pointer.vect.y;
ARM GAS  /var/folders/21/t9g5rlb91ys800n5npymflf80000gn/T//ccKy7Lvj.s 			page 46


 1402              		.loc 1 275 38 view .LVU453
 1403 0022 1344     		add	r3, r3, r2
 1404 0024 ABF81830 		strh	r3, [fp, #24]	@ movhi
 276:lvgl/src/core/lv_indev_scroll.c **** 
 1405              		.loc 1 276 5 is_stmt 1 view .LVU454
 276:lvgl/src/core/lv_indev_scroll.c **** 
 1406              		.loc 1 276 35 is_stmt 0 view .LVU455
 1407 0028 BBF81A30 		ldrh	r3, [fp, #26]
 276:lvgl/src/core/lv_indev_scroll.c **** 
 1408              		.loc 1 276 65 view .LVU456
 1409 002c BBF81620 		ldrh	r2, [fp, #22]
 276:lvgl/src/core/lv_indev_scroll.c **** 
 1410              		.loc 1 276 38 view .LVU457
 1411 0030 1344     		add	r3, r3, r2
 1412 0032 ABF81A30 		strh	r3, [fp, #26]	@ movhi
 278:lvgl/src/core/lv_indev_scroll.c ****         /*Get the transformed scroll_sum with this object*/
 1413              		.loc 1 278 5 is_stmt 1 view .LVU458
 273:lvgl/src/core/lv_indev_scroll.c **** 
 1414              		.loc 1 273 10 is_stmt 0 view .LVU459
 1415 0036 4FF0000A 		mov	r10, #0
 272:lvgl/src/core/lv_indev_scroll.c ****     bool ver_en = false;
 1416              		.loc 1 272 10 view .LVU460
 1417 003a CDF804A0 		str	r10, [sp, #4]
 258:lvgl/src/core/lv_indev_scroll.c ****     lv_indev_t * indev_act = lv_indev_get_act();
 1418              		.loc 1 258 14 view .LVU461
 1419 003e CDF81CA0 		str	r10, [sp, #28]
 257:lvgl/src/core/lv_indev_scroll.c ****     lv_dir_t dir_candidate = LV_DIR_NONE;
 1420              		.loc 1 257 16 view .LVU462
 1421 0042 CDF814A0 		str	r10, [sp, #20]
 278:lvgl/src/core/lv_indev_scroll.c ****         /*Get the transformed scroll_sum with this object*/
 1422              		.loc 1 278 10 view .LVU463
 1423 0046 07E1     		b	.L71
 1424              	.LVL131:
 1425              	.L73:
 1426              	.LBB94:
 1427              	.LBB95:
 285:lvgl/src/core/lv_indev_scroll.c ****             int32_t zoom_act = lv_obj_get_style_transform_zoom(parent, 0);
 1428              		.loc 1 285 13 is_stmt 1 view .LVU464
 1429              	.LBB96:
 1430              	.LBI96:
  85:lvgl/src/core/lv_obj_style_gen.h **** {
 1431              		.loc 2 85 26 view .LVU465
 1432              	.LBB97:
  87:lvgl/src/core/lv_obj_style_gen.h ****     return (lv_coord_t)v.num;
 1433              		.loc 2 87 5 view .LVU466
  87:lvgl/src/core/lv_obj_style_gen.h ****     return (lv_coord_t)v.num;
 1434              		.loc 2 87 26 is_stmt 0 view .LVU467
 1435 0048 6E22     		movs	r2, #110
 1436 004a 0021     		movs	r1, #0
 1437 004c 3046     		mov	r0, r6
 1438 004e FFF7FEFF 		bl	lv_obj_get_style_prop
 1439              	.LVL132:
  88:lvgl/src/core/lv_obj_style_gen.h **** }
 1440              		.loc 2 88 5 is_stmt 1 view .LVU468
  88:lvgl/src/core/lv_obj_style_gen.h **** }
 1441              		.loc 2 88 5 is_stmt 0 view .LVU469
 1442              	.LBE97:
ARM GAS  /var/folders/21/t9g5rlb91ys800n5npymflf80000gn/T//ccKy7Lvj.s 			page 47


 1443              	.LBE96:
 285:lvgl/src/core/lv_indev_scroll.c ****             int32_t zoom_act = lv_obj_get_style_transform_zoom(parent, 0);
 1444              		.loc 1 285 19 view .LVU470
 1445 0052 17FA80F0 		uxtah	r0, r7, r0
 1446 0056 07B2     		sxth	r7, r0
 1447              	.LVL133:
 286:lvgl/src/core/lv_indev_scroll.c ****             zoom = (zoom * zoom_act) >> 8;
 1448              		.loc 1 286 13 is_stmt 1 view .LVU471
 1449              	.LBB98:
 1450              	.LBI98:
  79:lvgl/src/core/lv_obj_style_gen.h **** {
 1451              		.loc 2 79 26 view .LVU472
 1452              	.LBB99:
  81:lvgl/src/core/lv_obj_style_gen.h ****     return (lv_coord_t)v.num;
 1453              		.loc 2 81 5 view .LVU473
  81:lvgl/src/core/lv_obj_style_gen.h ****     return (lv_coord_t)v.num;
 1454              		.loc 2 81 26 is_stmt 0 view .LVU474
 1455 0058 6D22     		movs	r2, #109
 1456 005a 0021     		movs	r1, #0
 1457 005c 3046     		mov	r0, r6
 1458 005e FFF7FEFF 		bl	lv_obj_get_style_prop
 1459              	.LVL134:
  82:lvgl/src/core/lv_obj_style_gen.h **** }
 1460              		.loc 2 82 5 is_stmt 1 view .LVU475
  82:lvgl/src/core/lv_obj_style_gen.h **** }
 1461              		.loc 2 82 12 is_stmt 0 view .LVU476
 1462 0062 00B2     		sxth	r0, r0
 1463              	.LVL135:
  82:lvgl/src/core/lv_obj_style_gen.h **** }
 1464              		.loc 2 82 12 view .LVU477
 1465              	.LBE99:
 1466              	.LBE98:
 287:lvgl/src/core/lv_indev_scroll.c ****             parent = lv_obj_get_parent(parent);
 1467              		.loc 1 287 13 is_stmt 1 view .LVU478
 287:lvgl/src/core/lv_indev_scroll.c ****             parent = lv_obj_get_parent(parent);
 1468              		.loc 1 287 26 is_stmt 0 view .LVU479
 1469 0064 00FB05F5 		mul	r5, r0, r5
 1470              	.LVL136:
 287:lvgl/src/core/lv_indev_scroll.c ****             parent = lv_obj_get_parent(parent);
 1471              		.loc 1 287 18 view .LVU480
 1472 0068 2D12     		asrs	r5, r5, #8
 1473              	.LVL137:
 288:lvgl/src/core/lv_indev_scroll.c ****         }
 1474              		.loc 1 288 13 is_stmt 1 view .LVU481
 288:lvgl/src/core/lv_indev_scroll.c ****         }
 1475              		.loc 1 288 22 is_stmt 0 view .LVU482
 1476 006a 3046     		mov	r0, r6
 1477              	.LVL138:
 288:lvgl/src/core/lv_indev_scroll.c ****         }
 1478              		.loc 1 288 22 view .LVU483
 1479 006c FFF7FEFF 		bl	lv_obj_get_parent
 1480              	.LVL139:
 1481 0070 0646     		mov	r6, r0
 1482              	.LVL140:
 1483              	.L72:
 288:lvgl/src/core/lv_indev_scroll.c ****         }
 1484              		.loc 1 288 22 view .LVU484
ARM GAS  /var/folders/21/t9g5rlb91ys800n5npymflf80000gn/T//ccKy7Lvj.s 			page 48


 1485              	.LBE95:
 284:lvgl/src/core/lv_indev_scroll.c ****             angle += lv_obj_get_style_transform_angle(parent, 0);
 1486              		.loc 1 284 15 is_stmt 1 view .LVU485
 1487 0072 002E     		cmp	r6, #0
 1488 0074 E8D1     		bne	.L73
 291:lvgl/src/core/lv_indev_scroll.c ****         if(angle != 0 || zoom != LV_IMG_ZOOM_NONE) {
 1489              		.loc 1 291 9 view .LVU486
 291:lvgl/src/core/lv_indev_scroll.c ****         if(angle != 0 || zoom != LV_IMG_ZOOM_NONE) {
 1490              		.loc 1 291 20 is_stmt 0 view .LVU487
 1491 0076 DBF81830 		ldr	r3, [fp, #24]
 1492 007a 0993     		str	r3, [sp, #36]
 292:lvgl/src/core/lv_indev_scroll.c ****             angle = -angle;
 1493              		.loc 1 292 9 is_stmt 1 view .LVU488
 292:lvgl/src/core/lv_indev_scroll.c ****             angle = -angle;
 1494              		.loc 1 292 11 is_stmt 0 view .LVU489
 1495 007c 17B9     		cbnz	r7, .L74
 292:lvgl/src/core/lv_indev_scroll.c ****             angle = -angle;
 1496              		.loc 1 292 23 discriminator 1 view .LVU490
 1497 007e B5F5807F 		cmp	r5, #256
 1498 0082 09D0     		beq	.L75
 1499              	.L74:
 293:lvgl/src/core/lv_indev_scroll.c ****             zoom = (256 * 256) / zoom;
 1500              		.loc 1 293 13 is_stmt 1 view .LVU491
 293:lvgl/src/core/lv_indev_scroll.c ****             zoom = (256 * 256) / zoom;
 1501              		.loc 1 293 19 is_stmt 0 view .LVU492
 1502 0084 7942     		rsbs	r1, r7, #0
 1503              	.LVL141:
 294:lvgl/src/core/lv_indev_scroll.c ****             lv_point_transform(&obj_scroll_sum, angle, zoom, &pivot);
 1504              		.loc 1 294 13 is_stmt 1 view .LVU493
 295:lvgl/src/core/lv_indev_scroll.c ****         }
 1505              		.loc 1 295 13 view .LVU494
 1506 0086 08AB     		add	r3, sp, #32
 1507 0088 4FF48032 		mov	r2, #65536
 1508 008c 92FBF5F2 		sdiv	r2, r2, r5
 1509              	.LVL142:
 295:lvgl/src/core/lv_indev_scroll.c ****         }
 1510              		.loc 1 295 13 is_stmt 0 view .LVU495
 1511 0090 09B2     		sxth	r1, r1
 295:lvgl/src/core/lv_indev_scroll.c ****         }
 1512              		.loc 1 295 13 view .LVU496
 1513 0092 09A8     		add	r0, sp, #36
 1514 0094 FFF7FEFF 		bl	lv_point_transform
 1515              	.LVL143:
 1516              	.L75:
 298:lvgl/src/core/lv_indev_scroll.c ****             hor_en = true;
 1517              		.loc 1 298 9 is_stmt 1 view .LVU497
 298:lvgl/src/core/lv_indev_scroll.c ****             hor_en = true;
 1518              		.loc 1 298 12 is_stmt 0 view .LVU498
 1519 0098 BDF92420 		ldrsh	r2, [sp, #36]
 1520 009c 002A     		cmp	r2, #0
 1521 009e B8BF     		it	lt
 1522 00a0 5242     		rsblt	r2, r2, #0
 1523 00a2 92B2     		uxth	r2, r2
 298:lvgl/src/core/lv_indev_scroll.c ****             hor_en = true;
 1524              		.loc 1 298 39 view .LVU499
 1525 00a4 BDF92630 		ldrsh	r3, [sp, #38]
 1526 00a8 002B     		cmp	r3, #0
ARM GAS  /var/folders/21/t9g5rlb91ys800n5npymflf80000gn/T//ccKy7Lvj.s 			page 49


 1527 00aa B8BF     		it	lt
 1528 00ac 5B42     		rsblt	r3, r3, #0
 1529 00ae 9BB2     		uxth	r3, r3
 298:lvgl/src/core/lv_indev_scroll.c ****             hor_en = true;
 1530              		.loc 1 298 11 view .LVU500
 1531 00b0 9A42     		cmp	r2, r3
 1532 00b2 2BD8     		bhi	.L126
 302:lvgl/src/core/lv_indev_scroll.c ****         }
 1533              		.loc 1 302 20 view .LVU501
 1534 00b4 4FF0010A 		mov	r10, #1
 1535              	.LVL144:
 1536              	.L76:
 305:lvgl/src/core/lv_indev_scroll.c ****             /*If this object don't want to chain the scroll to the parent stop searching*/
 1537              		.loc 1 305 9 is_stmt 1 view .LVU502
 305:lvgl/src/core/lv_indev_scroll.c ****             /*If this object don't want to chain the scroll to the parent stop searching*/
 1538              		.loc 1 305 12 is_stmt 0 view .LVU503
 1539 00b8 1021     		movs	r1, #16
 1540 00ba 2046     		mov	r0, r4
 1541 00bc FFF7FEFF 		bl	lv_obj_has_flag
 1542              	.LVL145:
 305:lvgl/src/core/lv_indev_scroll.c ****             /*If this object don't want to chain the scroll to the parent stop searching*/
 1543              		.loc 1 305 11 view .LVU504
 1544 00c0 60BB     		cbnz	r0, .L77
 307:lvgl/src/core/lv_indev_scroll.c ****             if(lv_obj_has_flag(obj_act, LV_OBJ_FLAG_SCROLL_CHAIN_VER) == false && ver_en) break;
 1545              		.loc 1 307 13 is_stmt 1 view .LVU505
 307:lvgl/src/core/lv_indev_scroll.c ****             if(lv_obj_has_flag(obj_act, LV_OBJ_FLAG_SCROLL_CHAIN_VER) == false && ver_en) break;
 1546              		.loc 1 307 16 is_stmt 0 view .LVU506
 1547 00c2 4FF48071 		mov	r1, #256
 1548 00c6 2046     		mov	r0, r4
 1549 00c8 FFF7FEFF 		bl	lv_obj_has_flag
 1550              	.LVL146:
 307:lvgl/src/core/lv_indev_scroll.c ****             if(lv_obj_has_flag(obj_act, LV_OBJ_FLAG_SCROLL_CHAIN_VER) == false && ver_en) break;
 1551              		.loc 1 307 15 view .LVU507
 1552 00cc 08B9     		cbnz	r0, .L78
 307:lvgl/src/core/lv_indev_scroll.c ****             if(lv_obj_has_flag(obj_act, LV_OBJ_FLAG_SCROLL_CHAIN_VER) == false && ver_en) break;
 1553              		.loc 1 307 80 discriminator 1 view .LVU508
 1554 00ce 019B     		ldr	r3, [sp, #4]
 1555 00d0 43B9     		cbnz	r3, .L104
 1556              	.L78:
 308:lvgl/src/core/lv_indev_scroll.c **** 
 1557              		.loc 1 308 13 is_stmt 1 view .LVU509
 308:lvgl/src/core/lv_indev_scroll.c **** 
 1558              		.loc 1 308 16 is_stmt 0 view .LVU510
 1559 00d2 4FF40071 		mov	r1, #512
 1560 00d6 2046     		mov	r0, r4
 1561 00d8 FFF7FEFF 		bl	lv_obj_has_flag
 1562              	.LVL147:
 308:lvgl/src/core/lv_indev_scroll.c **** 
 1563              		.loc 1 308 15 view .LVU511
 1564 00dc C8B9     		cbnz	r0, .L80
 308:lvgl/src/core/lv_indev_scroll.c **** 
 1565              		.loc 1 308 80 discriminator 1 view .LVU512
 1566 00de BAF1000F 		cmp	r10, #0
 1567 00e2 16D0     		beq	.L80
 1568              	.LVL148:
 1569              	.L104:
 308:lvgl/src/core/lv_indev_scroll.c **** 
ARM GAS  /var/folders/21/t9g5rlb91ys800n5npymflf80000gn/T//ccKy7Lvj.s 			page 50


 1570              		.loc 1 308 80 discriminator 1 view .LVU513
 1571              	.LBE94:
 374:lvgl/src/core/lv_indev_scroll.c ****         proc->types.pointer.scroll_dir = dir_candidate;
 1572              		.loc 1 374 5 is_stmt 1 view .LVU514
 374:lvgl/src/core/lv_indev_scroll.c ****         proc->types.pointer.scroll_dir = dir_candidate;
 1573              		.loc 1 374 7 is_stmt 0 view .LVU515
 1574 00e4 059A     		ldr	r2, [sp, #20]
 1575 00e6 6AB1     		cbz	r2, .L70
 375:lvgl/src/core/lv_indev_scroll.c ****         proc->types.pointer.scroll_obj = obj_candidate;
 1576              		.loc 1 375 9 is_stmt 1 view .LVU516
 375:lvgl/src/core/lv_indev_scroll.c ****         proc->types.pointer.scroll_obj = obj_candidate;
 1577              		.loc 1 375 40 is_stmt 0 view .LVU517
 1578 00e8 9BF84030 		ldrb	r3, [fp, #64]	@ zero_extendqisi2
 1579 00ec 0799     		ldr	r1, [sp, #28]
 1580 00ee 61F30303 		bfi	r3, r1, #0, #4
 1581 00f2 8BF84030 		strb	r3, [fp, #64]
 376:lvgl/src/core/lv_indev_scroll.c ****         proc->types.pointer.scroll_sum.x = 0;
 1582              		.loc 1 376 9 is_stmt 1 view .LVU518
 376:lvgl/src/core/lv_indev_scroll.c ****         proc->types.pointer.scroll_sum.x = 0;
 1583              		.loc 1 376 40 is_stmt 0 view .LVU519
 1584 00f6 CBF82C20 		str	r2, [fp, #44]
 377:lvgl/src/core/lv_indev_scroll.c ****         proc->types.pointer.scroll_sum.y = 0;
 1585              		.loc 1 377 9 is_stmt 1 view .LVU520
 377:lvgl/src/core/lv_indev_scroll.c ****         proc->types.pointer.scroll_sum.y = 0;
 1586              		.loc 1 377 42 is_stmt 0 view .LVU521
 1587 00fa 0023     		movs	r3, #0
 1588 00fc ABF81830 		strh	r3, [fp, #24]	@ movhi
 378:lvgl/src/core/lv_indev_scroll.c ****     }
 1589              		.loc 1 378 9 is_stmt 1 view .LVU522
 378:lvgl/src/core/lv_indev_scroll.c ****     }
 1590              		.loc 1 378 42 is_stmt 0 view .LVU523
 1591 0100 ABF81A30 		strh	r3, [fp, #26]	@ movhi
 381:lvgl/src/core/lv_indev_scroll.c **** }
 1592              		.loc 1 381 5 is_stmt 1 view .LVU524
 1593              	.LVL149:
 1594              	.L70:
 382:lvgl/src/core/lv_indev_scroll.c **** 
 1595              		.loc 1 382 1 is_stmt 0 view .LVU525
 1596 0104 0598     		ldr	r0, [sp, #20]
 1597 0106 0BB0     		add	sp, sp, #44
 1598              	.LCFI17:
 1599              		.cfi_remember_state
 1600              		.cfi_def_cfa_offset 36
 1601              		@ sp needed
 1602 0108 BDE8F08F 		pop	{r4, r5, r6, r7, r8, r9, r10, fp, pc}
 1603              	.LVL150:
 1604              	.L126:
 1605              	.LCFI18:
 1606              		.cfi_restore_state
 1607              	.LBB100:
 299:lvgl/src/core/lv_indev_scroll.c ****         }
 1608              		.loc 1 299 20 view .LVU526
 1609 010c 0123     		movs	r3, #1
 1610 010e 0193     		str	r3, [sp, #4]
 1611              	.LVL151:
 299:lvgl/src/core/lv_indev_scroll.c ****         }
 1612              		.loc 1 299 20 view .LVU527
ARM GAS  /var/folders/21/t9g5rlb91ys800n5npymflf80000gn/T//ccKy7Lvj.s 			page 51


 1613 0110 D2E7     		b	.L76
 1614              	.LVL152:
 1615              	.L80:
 310:lvgl/src/core/lv_indev_scroll.c ****             continue;
 1616              		.loc 1 310 13 is_stmt 1 view .LVU528
 310:lvgl/src/core/lv_indev_scroll.c ****             continue;
 1617              		.loc 1 310 23 is_stmt 0 view .LVU529
 1618 0112 2046     		mov	r0, r4
 1619 0114 FFF7FEFF 		bl	lv_obj_get_parent
 1620              	.LVL153:
 1621 0118 0446     		mov	r4, r0
 1622              	.LVL154:
 311:lvgl/src/core/lv_indev_scroll.c ****         }
 1623              		.loc 1 311 13 is_stmt 1 view .LVU530
 1624 011a 9DE0     		b	.L71
 1625              	.LVL155:
 1626              	.L77:
 315:lvgl/src/core/lv_indev_scroll.c ****         bool down_en = ver_en;
 1627              		.loc 1 315 9 view .LVU531
 316:lvgl/src/core/lv_indev_scroll.c ****         bool left_en = hor_en;
 1628              		.loc 1 316 9 view .LVU532
 317:lvgl/src/core/lv_indev_scroll.c ****         bool right_en = hor_en;
 1629              		.loc 1 317 9 view .LVU533
 318:lvgl/src/core/lv_indev_scroll.c **** 
 1630              		.loc 1 318 9 view .LVU534
 321:lvgl/src/core/lv_indev_scroll.c ****         if((scroll_dir & LV_DIR_LEFT) == 0) left_en = false;
 1631              		.loc 1 321 9 view .LVU535
 321:lvgl/src/core/lv_indev_scroll.c ****         if((scroll_dir & LV_DIR_LEFT) == 0) left_en = false;
 1632              		.loc 1 321 31 is_stmt 0 view .LVU536
 1633 011c 2046     		mov	r0, r4
 1634 011e FFF7FEFF 		bl	lv_obj_get_scroll_dir
 1635              	.LVL156:
 322:lvgl/src/core/lv_indev_scroll.c ****         if((scroll_dir & LV_DIR_RIGHT) == 0) right_en = false;
 1636              		.loc 1 322 9 is_stmt 1 view .LVU537
 322:lvgl/src/core/lv_indev_scroll.c ****         if((scroll_dir & LV_DIR_RIGHT) == 0) right_en = false;
 1637              		.loc 1 322 11 is_stmt 0 view .LVU538
 1638 0122 10F0010F 		tst	r0, #1
 1639 0126 30D0     		beq	.L108
 317:lvgl/src/core/lv_indev_scroll.c ****         bool right_en = hor_en;
 1640              		.loc 1 317 14 view .LVU539
 1641 0128 019E     		ldr	r6, [sp, #4]
 1642              	.LVL157:
 1643              	.L82:
 323:lvgl/src/core/lv_indev_scroll.c ****         if((scroll_dir & LV_DIR_TOP) == 0) up_en = false;
 1644              		.loc 1 323 9 is_stmt 1 view .LVU540
 323:lvgl/src/core/lv_indev_scroll.c ****         if((scroll_dir & LV_DIR_TOP) == 0) up_en = false;
 1645              		.loc 1 323 11 is_stmt 0 view .LVU541
 1646 012a 10F0020F 		tst	r0, #2
 1647 012e 2ED0     		beq	.L109
 318:lvgl/src/core/lv_indev_scroll.c **** 
 1648              		.loc 1 318 14 view .LVU542
 1649 0130 019B     		ldr	r3, [sp, #4]
 1650 0132 0393     		str	r3, [sp, #12]
 1651              	.L83:
 1652              	.LVL158:
 324:lvgl/src/core/lv_indev_scroll.c ****         if((scroll_dir & LV_DIR_BOTTOM) == 0) down_en = false;
 1653              		.loc 1 324 9 is_stmt 1 view .LVU543
ARM GAS  /var/folders/21/t9g5rlb91ys800n5npymflf80000gn/T//ccKy7Lvj.s 			page 52


 324:lvgl/src/core/lv_indev_scroll.c ****         if((scroll_dir & LV_DIR_BOTTOM) == 0) down_en = false;
 1654              		.loc 1 324 11 is_stmt 0 view .LVU544
 1655 0134 10F0040F 		tst	r0, #4
 1656 0138 2CD0     		beq	.L110
 315:lvgl/src/core/lv_indev_scroll.c ****         bool down_en = ver_en;
 1657              		.loc 1 315 14 view .LVU545
 1658 013a 5746     		mov	r7, r10
 1659              	.L84:
 1660              	.LVL159:
 325:lvgl/src/core/lv_indev_scroll.c **** 
 1661              		.loc 1 325 9 is_stmt 1 view .LVU546
 325:lvgl/src/core/lv_indev_scroll.c **** 
 1662              		.loc 1 325 11 is_stmt 0 view .LVU547
 1663 013c 10F0080F 		tst	r0, #8
 1664 0140 2AD0     		beq	.L111
 316:lvgl/src/core/lv_indev_scroll.c ****         bool left_en = hor_en;
 1665              		.loc 1 316 14 view .LVU548
 1666 0142 CDF810A0 		str	r10, [sp, #16]
 1667              	.L85:
 1668              	.LVL160:
 328:lvgl/src/core/lv_indev_scroll.c ****         lv_coord_t sb = lv_obj_get_scroll_bottom(obj_act);
 1669              		.loc 1 328 9 is_stmt 1 view .LVU549
 328:lvgl/src/core/lv_indev_scroll.c ****         lv_coord_t sb = lv_obj_get_scroll_bottom(obj_act);
 1670              		.loc 1 328 25 is_stmt 0 view .LVU550
 1671 0146 2046     		mov	r0, r4
 1672              	.LVL161:
 328:lvgl/src/core/lv_indev_scroll.c ****         lv_coord_t sb = lv_obj_get_scroll_bottom(obj_act);
 1673              		.loc 1 328 25 view .LVU551
 1674 0148 FFF7FEFF 		bl	lv_obj_get_scroll_top
 1675              	.LVL162:
 1676 014c 0546     		mov	r5, r0
 1677              	.LVL163:
 329:lvgl/src/core/lv_indev_scroll.c ****         lv_coord_t sl = lv_obj_get_scroll_left(obj_act);
 1678              		.loc 1 329 9 is_stmt 1 view .LVU552
 329:lvgl/src/core/lv_indev_scroll.c ****         lv_coord_t sl = lv_obj_get_scroll_left(obj_act);
 1679              		.loc 1 329 25 is_stmt 0 view .LVU553
 1680 014e 2046     		mov	r0, r4
 1681 0150 FFF7FEFF 		bl	lv_obj_get_scroll_bottom
 1682              	.LVL164:
 1683 0154 0690     		str	r0, [sp, #24]
 1684              	.LVL165:
 330:lvgl/src/core/lv_indev_scroll.c ****         lv_coord_t sr = lv_obj_get_scroll_right(obj_act);
 1685              		.loc 1 330 9 is_stmt 1 view .LVU554
 330:lvgl/src/core/lv_indev_scroll.c ****         lv_coord_t sr = lv_obj_get_scroll_right(obj_act);
 1686              		.loc 1 330 25 is_stmt 0 view .LVU555
 1687 0156 2046     		mov	r0, r4
 1688 0158 FFF7FEFF 		bl	lv_obj_get_scroll_left
 1689              	.LVL166:
 1690 015c 0290     		str	r0, [sp, #8]
 1691              	.LVL167:
 331:lvgl/src/core/lv_indev_scroll.c **** 
 1692              		.loc 1 331 9 is_stmt 1 view .LVU556
 331:lvgl/src/core/lv_indev_scroll.c **** 
 1693              		.loc 1 331 25 is_stmt 0 view .LVU557
 1694 015e 2046     		mov	r0, r4
 1695 0160 FFF7FEFF 		bl	lv_obj_get_scroll_right
 1696              	.LVL168:
ARM GAS  /var/folders/21/t9g5rlb91ys800n5npymflf80000gn/T//ccKy7Lvj.s 			page 53


 337:lvgl/src/core/lv_indev_scroll.c ****            ((up_en    && obj_scroll_sum.y >=   scroll_limit) ||
 1697              		.loc 1 337 9 is_stmt 1 view .LVU558
 337:lvgl/src/core/lv_indev_scroll.c ****            ((up_en    && obj_scroll_sum.y >=   scroll_limit) ||
 1698              		.loc 1 337 11 is_stmt 0 view .LVU559
 1699 0164 002D     		cmp	r5, #0
 1700 0166 1ADD     		ble	.L127
 1701              	.L86:
 337:lvgl/src/core/lv_indev_scroll.c ****            ((up_en    && obj_scroll_sum.y >=   scroll_limit) ||
 1702              		.loc 1 337 32 discriminator 3 view .LVU560
 1703 0168 1FB1     		cbz	r7, .L88
 338:lvgl/src/core/lv_indev_scroll.c ****             (down_en  && obj_scroll_sum.y <= - scroll_limit))) {
 1704              		.loc 1 338 40 view .LVU561
 1705 016a BDF92630 		ldrsh	r3, [sp, #38]
 338:lvgl/src/core/lv_indev_scroll.c ****             (down_en  && obj_scroll_sum.y <= - scroll_limit))) {
 1706              		.loc 1 338 23 view .LVU562
 1707 016e 4B45     		cmp	r3, r9
 1708 0170 19DA     		bge	.L112
 1709              	.L88:
 338:lvgl/src/core/lv_indev_scroll.c ****             (down_en  && obj_scroll_sum.y <= - scroll_limit))) {
 1710              		.loc 1 338 62 discriminator 1 view .LVU563
 1711 0172 049B     		ldr	r3, [sp, #16]
 1712 0174 D3B1     		cbz	r3, .L87
 339:lvgl/src/core/lv_indev_scroll.c ****             obj_candidate = obj_act;
 1713              		.loc 1 339 40 view .LVU564
 1714 0176 BDF92620 		ldrsh	r2, [sp, #38]
 339:lvgl/src/core/lv_indev_scroll.c ****             obj_candidate = obj_act;
 1715              		.loc 1 339 46 view .LVU565
 1716 017a C8F10003 		rsb	r3, r8, #0
 339:lvgl/src/core/lv_indev_scroll.c ****             obj_candidate = obj_act;
 1717              		.loc 1 339 23 view .LVU566
 1718 017e 9A42     		cmp	r2, r3
 1719 0180 14DC     		bgt	.L87
 340:lvgl/src/core/lv_indev_scroll.c ****             dir_candidate = LV_DIR_VER;
 1720              		.loc 1 340 27 view .LVU567
 1721 0182 0594     		str	r4, [sp, #20]
 1722              	.LVL169:
 341:lvgl/src/core/lv_indev_scroll.c ****         }
 1723              		.loc 1 341 27 view .LVU568
 1724 0184 0C23     		movs	r3, #12
 1725 0186 0793     		str	r3, [sp, #28]
 1726              	.LVL170:
 341:lvgl/src/core/lv_indev_scroll.c ****         }
 1727              		.loc 1 341 27 view .LVU569
 1728 0188 10E0     		b	.L87
 1729              	.LVL171:
 1730              	.L108:
 322:lvgl/src/core/lv_indev_scroll.c ****         if((scroll_dir & LV_DIR_RIGHT) == 0) right_en = false;
 1731              		.loc 1 322 53 view .LVU570
 1732 018a 0026     		movs	r6, #0
 1733              	.LVL172:
 322:lvgl/src/core/lv_indev_scroll.c ****         if((scroll_dir & LV_DIR_RIGHT) == 0) right_en = false;
 1734              		.loc 1 322 53 view .LVU571
 1735 018c CDE7     		b	.L82
 1736              	.LVL173:
 1737              	.L109:
 323:lvgl/src/core/lv_indev_scroll.c ****         if((scroll_dir & LV_DIR_TOP) == 0) up_en = false;
 1738              		.loc 1 323 55 view .LVU572
ARM GAS  /var/folders/21/t9g5rlb91ys800n5npymflf80000gn/T//ccKy7Lvj.s 			page 54


 1739 018e 0023     		movs	r3, #0
 1740 0190 0393     		str	r3, [sp, #12]
 1741 0192 CFE7     		b	.L83
 1742              	.LVL174:
 1743              	.L110:
 324:lvgl/src/core/lv_indev_scroll.c ****         if((scroll_dir & LV_DIR_BOTTOM) == 0) down_en = false;
 1744              		.loc 1 324 50 view .LVU573
 1745 0194 0027     		movs	r7, #0
 1746 0196 D1E7     		b	.L84
 1747              	.LVL175:
 1748              	.L111:
 325:lvgl/src/core/lv_indev_scroll.c **** 
 1749              		.loc 1 325 55 view .LVU574
 1750 0198 0023     		movs	r3, #0
 1751 019a 0493     		str	r3, [sp, #16]
 1752 019c D3E7     		b	.L85
 1753              	.LVL176:
 1754              	.L127:
 337:lvgl/src/core/lv_indev_scroll.c ****            ((up_en    && obj_scroll_sum.y >=   scroll_limit) ||
 1755              		.loc 1 337 20 discriminator 2 view .LVU575
 1756 019e 069B     		ldr	r3, [sp, #24]
 1757 01a0 002B     		cmp	r3, #0
 1758 01a2 E1DC     		bgt	.L86
 1759 01a4 02E0     		b	.L87
 1760              	.L112:
 340:lvgl/src/core/lv_indev_scroll.c ****             dir_candidate = LV_DIR_VER;
 1761              		.loc 1 340 27 view .LVU576
 1762 01a6 0594     		str	r4, [sp, #20]
 1763              	.LVL177:
 341:lvgl/src/core/lv_indev_scroll.c ****         }
 1764              		.loc 1 341 27 view .LVU577
 1765 01a8 0C23     		movs	r3, #12
 1766 01aa 0793     		str	r3, [sp, #28]
 1767              	.LVL178:
 1768              	.L87:
 344:lvgl/src/core/lv_indev_scroll.c ****            ((left_en   && obj_scroll_sum.x >=   scroll_limit) ||
 1769              		.loc 1 344 9 is_stmt 1 view .LVU578
 344:lvgl/src/core/lv_indev_scroll.c ****            ((left_en   && obj_scroll_sum.x >=   scroll_limit) ||
 1770              		.loc 1 344 11 is_stmt 0 view .LVU579
 1771 01ac 029B     		ldr	r3, [sp, #8]
 1772 01ae 002B     		cmp	r3, #0
 1773 01b0 10DD     		ble	.L128
 1774              	.L89:
 344:lvgl/src/core/lv_indev_scroll.c ****            ((left_en   && obj_scroll_sum.x >=   scroll_limit) ||
 1775              		.loc 1 344 32 discriminator 3 view .LVU580
 1776 01b2 1EB1     		cbz	r6, .L91
 345:lvgl/src/core/lv_indev_scroll.c ****             (right_en  && obj_scroll_sum.x <= - scroll_limit))) {
 1777              		.loc 1 345 41 view .LVU581
 1778 01b4 BDF92430 		ldrsh	r3, [sp, #36]
 345:lvgl/src/core/lv_indev_scroll.c ****             (right_en  && obj_scroll_sum.x <= - scroll_limit))) {
 1779              		.loc 1 345 24 view .LVU582
 1780 01b8 4B45     		cmp	r3, r9
 1781 01ba 0EDA     		bge	.L114
 1782              	.L91:
 345:lvgl/src/core/lv_indev_scroll.c ****             (right_en  && obj_scroll_sum.x <= - scroll_limit))) {
 1783              		.loc 1 345 63 discriminator 1 view .LVU583
 1784 01bc 039B     		ldr	r3, [sp, #12]
ARM GAS  /var/folders/21/t9g5rlb91ys800n5npymflf80000gn/T//ccKy7Lvj.s 			page 55


 1785 01be 7BB1     		cbz	r3, .L90
 346:lvgl/src/core/lv_indev_scroll.c ****             obj_candidate = obj_act;
 1786              		.loc 1 346 41 view .LVU584
 1787 01c0 BDF92420 		ldrsh	r2, [sp, #36]
 346:lvgl/src/core/lv_indev_scroll.c ****             obj_candidate = obj_act;
 1788              		.loc 1 346 47 view .LVU585
 1789 01c4 C8F10003 		rsb	r3, r8, #0
 346:lvgl/src/core/lv_indev_scroll.c ****             obj_candidate = obj_act;
 1790              		.loc 1 346 24 view .LVU586
 1791 01c8 9A42     		cmp	r2, r3
 1792 01ca 09DC     		bgt	.L90
 347:lvgl/src/core/lv_indev_scroll.c ****             dir_candidate = LV_DIR_HOR;
 1793              		.loc 1 347 27 view .LVU587
 1794 01cc 0594     		str	r4, [sp, #20]
 1795              	.LVL179:
 348:lvgl/src/core/lv_indev_scroll.c ****         }
 1796              		.loc 1 348 27 view .LVU588
 1797 01ce 0323     		movs	r3, #3
 1798 01d0 0793     		str	r3, [sp, #28]
 1799              	.LVL180:
 348:lvgl/src/core/lv_indev_scroll.c ****         }
 1800              		.loc 1 348 27 view .LVU589
 1801 01d2 05E0     		b	.L90
 1802              	.LVL181:
 1803              	.L128:
 344:lvgl/src/core/lv_indev_scroll.c ****            ((left_en   && obj_scroll_sum.x >=   scroll_limit) ||
 1804              		.loc 1 344 20 discriminator 2 view .LVU590
 1805 01d4 0028     		cmp	r0, #0
 1806 01d6 ECDC     		bgt	.L89
 1807 01d8 02E0     		b	.L90
 1808              	.L114:
 347:lvgl/src/core/lv_indev_scroll.c ****             dir_candidate = LV_DIR_HOR;
 1809              		.loc 1 347 27 view .LVU591
 1810 01da 0594     		str	r4, [sp, #20]
 1811              	.LVL182:
 348:lvgl/src/core/lv_indev_scroll.c ****         }
 1812              		.loc 1 348 27 view .LVU592
 1813 01dc 0323     		movs	r3, #3
 1814 01de 0793     		str	r3, [sp, #28]
 1815              	.LVL183:
 1816              	.L90:
 351:lvgl/src/core/lv_indev_scroll.c ****         if(sb <= 0) down_en = false;
 1817              		.loc 1 351 9 is_stmt 1 view .LVU593
 351:lvgl/src/core/lv_indev_scroll.c ****         if(sb <= 0) down_en = false;
 1818              		.loc 1 351 11 is_stmt 0 view .LVU594
 1819 01e0 002D     		cmp	r5, #0
 1820 01e2 45DD     		ble	.L129
 1821              	.LVL184:
 1822              	.L92:
 352:lvgl/src/core/lv_indev_scroll.c ****         if(sl <= 0) left_en = false;
 1823              		.loc 1 352 9 is_stmt 1 view .LVU595
 352:lvgl/src/core/lv_indev_scroll.c ****         if(sl <= 0) left_en = false;
 1824              		.loc 1 352 11 is_stmt 0 view .LVU596
 1825 01e4 069B     		ldr	r3, [sp, #24]
 1826 01e6 002B     		cmp	r3, #0
 1827 01e8 44DD     		ble	.L130
 1828              	.LVL185:
ARM GAS  /var/folders/21/t9g5rlb91ys800n5npymflf80000gn/T//ccKy7Lvj.s 			page 56


 1829              	.L93:
 353:lvgl/src/core/lv_indev_scroll.c ****         if(sr <= 0) right_en = false;
 1830              		.loc 1 353 9 is_stmt 1 view .LVU597
 353:lvgl/src/core/lv_indev_scroll.c ****         if(sr <= 0) right_en = false;
 1831              		.loc 1 353 11 is_stmt 0 view .LVU598
 1832 01ea 029B     		ldr	r3, [sp, #8]
 1833 01ec 002B     		cmp	r3, #0
 1834 01ee 44DD     		ble	.L131
 1835              	.LVL186:
 1836              	.L94:
 354:lvgl/src/core/lv_indev_scroll.c **** 
 1837              		.loc 1 354 9 is_stmt 1 view .LVU599
 354:lvgl/src/core/lv_indev_scroll.c **** 
 1838              		.loc 1 354 11 is_stmt 0 view .LVU600
 1839 01f0 0028     		cmp	r0, #0
 1840 01f2 44DD     		ble	.L132
 1841              	.LVL187:
 1842              	.L95:
 357:lvgl/src/core/lv_indev_scroll.c ****            (right_en && obj_scroll_sum.x <= - scroll_limit) ||
 1843              		.loc 1 357 9 is_stmt 1 view .LVU601
 357:lvgl/src/core/lv_indev_scroll.c ****            (right_en && obj_scroll_sum.x <= - scroll_limit) ||
 1844              		.loc 1 357 11 is_stmt 0 view .LVU602
 1845 01f4 1EB1     		cbz	r6, .L96
 357:lvgl/src/core/lv_indev_scroll.c ****            (right_en && obj_scroll_sum.x <= - scroll_limit) ||
 1846              		.loc 1 357 39 discriminator 1 view .LVU603
 1847 01f6 BDF92430 		ldrsh	r3, [sp, #36]
 357:lvgl/src/core/lv_indev_scroll.c ****            (right_en && obj_scroll_sum.x <= - scroll_limit) ||
 1848              		.loc 1 357 22 discriminator 1 view .LVU604
 1849 01fa 4B45     		cmp	r3, r9
 1850 01fc 42DA     		bge	.L97
 1851              	.L96:
 357:lvgl/src/core/lv_indev_scroll.c ****            (right_en && obj_scroll_sum.x <= - scroll_limit) ||
 1852              		.loc 1 357 61 discriminator 3 view .LVU605
 1853 01fe 039B     		ldr	r3, [sp, #12]
 1854 0200 2BB1     		cbz	r3, .L98
 358:lvgl/src/core/lv_indev_scroll.c ****            (up_en    && obj_scroll_sum.y >=   scroll_limit) ||
 1855              		.loc 1 358 39 view .LVU606
 1856 0202 BDF92420 		ldrsh	r2, [sp, #36]
 358:lvgl/src/core/lv_indev_scroll.c ****            (up_en    && obj_scroll_sum.y >=   scroll_limit) ||
 1857              		.loc 1 358 45 view .LVU607
 1858 0206 C8F10003 		rsb	r3, r8, #0
 358:lvgl/src/core/lv_indev_scroll.c ****            (up_en    && obj_scroll_sum.y >=   scroll_limit) ||
 1859              		.loc 1 358 22 view .LVU608
 1860 020a 9A42     		cmp	r2, r3
 1861 020c 3ADD     		ble	.L97
 1862              	.L98:
 358:lvgl/src/core/lv_indev_scroll.c ****            (up_en    && obj_scroll_sum.y >=   scroll_limit) ||
 1863              		.loc 1 358 61 discriminator 1 view .LVU609
 1864 020e 1FB1     		cbz	r7, .L99
 359:lvgl/src/core/lv_indev_scroll.c ****            (down_en  && obj_scroll_sum.y <= - scroll_limit)) {
 1865              		.loc 1 359 39 view .LVU610
 1866 0210 BDF92630 		ldrsh	r3, [sp, #38]
 359:lvgl/src/core/lv_indev_scroll.c ****            (down_en  && obj_scroll_sum.y <= - scroll_limit)) {
 1867              		.loc 1 359 22 view .LVU611
 1868 0214 4B45     		cmp	r3, r9
 1869 0216 35DA     		bge	.L97
 1870              	.L99:
ARM GAS  /var/folders/21/t9g5rlb91ys800n5npymflf80000gn/T//ccKy7Lvj.s 			page 57


 359:lvgl/src/core/lv_indev_scroll.c ****            (down_en  && obj_scroll_sum.y <= - scroll_limit)) {
 1871              		.loc 1 359 61 discriminator 1 view .LVU612
 1872 0218 049B     		ldr	r3, [sp, #16]
 1873 021a 2BB1     		cbz	r3, .L100
 360:lvgl/src/core/lv_indev_scroll.c ****             proc->types.pointer.scroll_dir = hor_en ? LV_DIR_HOR : LV_DIR_VER;
 1874              		.loc 1 360 39 view .LVU613
 1875 021c BDF92620 		ldrsh	r2, [sp, #38]
 360:lvgl/src/core/lv_indev_scroll.c ****             proc->types.pointer.scroll_dir = hor_en ? LV_DIR_HOR : LV_DIR_VER;
 1876              		.loc 1 360 45 view .LVU614
 1877 0220 C8F10003 		rsb	r3, r8, #0
 360:lvgl/src/core/lv_indev_scroll.c ****             proc->types.pointer.scroll_dir = hor_en ? LV_DIR_HOR : LV_DIR_VER;
 1878              		.loc 1 360 22 view .LVU615
 1879 0224 9A42     		cmp	r2, r3
 1880 0226 2DDD     		ble	.L97
 1881              	.L100:
 366:lvgl/src/core/lv_indev_scroll.c ****         if(lv_obj_has_flag(obj_act, LV_OBJ_FLAG_SCROLL_CHAIN_VER) == false && ver_en) break;
 1882              		.loc 1 366 9 is_stmt 1 view .LVU616
 366:lvgl/src/core/lv_indev_scroll.c ****         if(lv_obj_has_flag(obj_act, LV_OBJ_FLAG_SCROLL_CHAIN_VER) == false && ver_en) break;
 1883              		.loc 1 366 12 is_stmt 0 view .LVU617
 1884 0228 4FF48071 		mov	r1, #256
 1885 022c 2046     		mov	r0, r4
 1886              	.LVL188:
 366:lvgl/src/core/lv_indev_scroll.c ****         if(lv_obj_has_flag(obj_act, LV_OBJ_FLAG_SCROLL_CHAIN_VER) == false && ver_en) break;
 1887              		.loc 1 366 12 view .LVU618
 1888 022e FFF7FEFF 		bl	lv_obj_has_flag
 1889              	.LVL189:
 366:lvgl/src/core/lv_indev_scroll.c ****         if(lv_obj_has_flag(obj_act, LV_OBJ_FLAG_SCROLL_CHAIN_VER) == false && ver_en) break;
 1890              		.loc 1 366 11 view .LVU619
 1891 0232 18B9     		cbnz	r0, .L102
 366:lvgl/src/core/lv_indev_scroll.c ****         if(lv_obj_has_flag(obj_act, LV_OBJ_FLAG_SCROLL_CHAIN_VER) == false && ver_en) break;
 1892              		.loc 1 366 76 discriminator 1 view .LVU620
 1893 0234 019B     		ldr	r3, [sp, #4]
 1894 0236 002B     		cmp	r3, #0
 1895 0238 7FF454AF 		bne	.L104
 1896              	.L102:
 367:lvgl/src/core/lv_indev_scroll.c **** 
 1897              		.loc 1 367 9 is_stmt 1 view .LVU621
 367:lvgl/src/core/lv_indev_scroll.c **** 
 1898              		.loc 1 367 12 is_stmt 0 view .LVU622
 1899 023c 4FF40071 		mov	r1, #512
 1900 0240 2046     		mov	r0, r4
 1901 0242 FFF7FEFF 		bl	lv_obj_has_flag
 1902              	.LVL190:
 367:lvgl/src/core/lv_indev_scroll.c **** 
 1903              		.loc 1 367 11 view .LVU623
 1904 0246 18B9     		cbnz	r0, .L103
 367:lvgl/src/core/lv_indev_scroll.c **** 
 1905              		.loc 1 367 76 discriminator 1 view .LVU624
 1906 0248 BAF1000F 		cmp	r10, #0
 1907 024c 7FF44AAF 		bne	.L104
 1908              	.L103:
 370:lvgl/src/core/lv_indev_scroll.c ****     }
 1909              		.loc 1 370 9 is_stmt 1 view .LVU625
 370:lvgl/src/core/lv_indev_scroll.c ****     }
 1910              		.loc 1 370 19 is_stmt 0 view .LVU626
 1911 0250 2046     		mov	r0, r4
 1912 0252 FFF7FEFF 		bl	lv_obj_get_parent
ARM GAS  /var/folders/21/t9g5rlb91ys800n5npymflf80000gn/T//ccKy7Lvj.s 			page 58


 1913              	.LVL191:
 1914 0256 0446     		mov	r4, r0
 1915              	.LVL192:
 1916              	.L71:
 370:lvgl/src/core/lv_indev_scroll.c ****     }
 1917              		.loc 1 370 19 view .LVU627
 1918              	.LBE100:
 278:lvgl/src/core/lv_indev_scroll.c ****         /*Get the transformed scroll_sum with this object*/
 1919              		.loc 1 278 11 is_stmt 1 view .LVU628
 1920 0258 002C     		cmp	r4, #0
 1921 025a 3FF443AF 		beq	.L104
 1922              	.LBB101:
 280:lvgl/src/core/lv_indev_scroll.c ****         int32_t zoom = 256;
 1923              		.loc 1 280 9 view .LVU629
 1924              	.LVL193:
 281:lvgl/src/core/lv_indev_scroll.c ****         lv_point_t pivot = { 0, 0 };
 1925              		.loc 1 281 9 view .LVU630
 282:lvgl/src/core/lv_indev_scroll.c ****         lv_obj_t * parent = obj_act;
 1926              		.loc 1 282 9 view .LVU631
 282:lvgl/src/core/lv_indev_scroll.c ****         lv_obj_t * parent = obj_act;
 1927              		.loc 1 282 20 is_stmt 0 view .LVU632
 1928 025e 0027     		movs	r7, #0
 1929 0260 ADF82070 		strh	r7, [sp, #32]	@ movhi
 1930 0264 ADF82270 		strh	r7, [sp, #34]	@ movhi
 283:lvgl/src/core/lv_indev_scroll.c ****         while(parent) {
 1931              		.loc 1 283 9 is_stmt 1 view .LVU633
 1932              	.LVL194:
 284:lvgl/src/core/lv_indev_scroll.c ****             angle += lv_obj_get_style_transform_angle(parent, 0);
 1933              		.loc 1 284 9 view .LVU634
 283:lvgl/src/core/lv_indev_scroll.c ****         while(parent) {
 1934              		.loc 1 283 20 is_stmt 0 view .LVU635
 1935 0268 2646     		mov	r6, r4
 281:lvgl/src/core/lv_indev_scroll.c ****         lv_point_t pivot = { 0, 0 };
 1936              		.loc 1 281 17 view .LVU636
 1937 026a 4FF48075 		mov	r5, #256
 284:lvgl/src/core/lv_indev_scroll.c ****             angle += lv_obj_get_style_transform_angle(parent, 0);
 1938              		.loc 1 284 14 view .LVU637
 1939 026e 00E7     		b	.L72
 1940              	.LVL195:
 1941              	.L129:
 351:lvgl/src/core/lv_indev_scroll.c ****         if(sb <= 0) down_en = false;
 1942              		.loc 1 351 27 view .LVU638
 1943 0270 0027     		movs	r7, #0
 1944              	.LVL196:
 351:lvgl/src/core/lv_indev_scroll.c ****         if(sb <= 0) down_en = false;
 1945              		.loc 1 351 27 view .LVU639
 1946 0272 B7E7     		b	.L92
 1947              	.LVL197:
 1948              	.L130:
 352:lvgl/src/core/lv_indev_scroll.c ****         if(sl <= 0) left_en = false;
 1949              		.loc 1 352 29 view .LVU640
 1950 0274 0023     		movs	r3, #0
 1951 0276 0493     		str	r3, [sp, #16]
 1952              	.LVL198:
 352:lvgl/src/core/lv_indev_scroll.c ****         if(sl <= 0) left_en = false;
 1953              		.loc 1 352 29 view .LVU641
 1954 0278 B7E7     		b	.L93
ARM GAS  /var/folders/21/t9g5rlb91ys800n5npymflf80000gn/T//ccKy7Lvj.s 			page 59


 1955              	.LVL199:
 1956              	.L131:
 353:lvgl/src/core/lv_indev_scroll.c ****         if(sr <= 0) right_en = false;
 1957              		.loc 1 353 29 view .LVU642
 1958 027a 0026     		movs	r6, #0
 1959              	.LVL200:
 353:lvgl/src/core/lv_indev_scroll.c ****         if(sr <= 0) right_en = false;
 1960              		.loc 1 353 29 view .LVU643
 1961 027c B8E7     		b	.L94
 1962              	.LVL201:
 1963              	.L132:
 354:lvgl/src/core/lv_indev_scroll.c **** 
 1964              		.loc 1 354 30 view .LVU644
 1965 027e 0023     		movs	r3, #0
 1966 0280 0393     		str	r3, [sp, #12]
 1967              	.LVL202:
 354:lvgl/src/core/lv_indev_scroll.c **** 
 1968              		.loc 1 354 30 view .LVU645
 1969 0282 B7E7     		b	.L95
 1970              	.LVL203:
 1971              	.L97:
 361:lvgl/src/core/lv_indev_scroll.c ****             break;
 1972              		.loc 1 361 13 is_stmt 1 view .LVU646
 361:lvgl/src/core/lv_indev_scroll.c ****             break;
 1973              		.loc 1 361 66 is_stmt 0 view .LVU647
 1974 0284 019B     		ldr	r3, [sp, #4]
 1975 0286 3BB1     		cbz	r3, .L120
 1976 0288 0322     		movs	r2, #3
 1977              	.L101:
 361:lvgl/src/core/lv_indev_scroll.c ****             break;
 1978              		.loc 1 361 44 discriminator 4 view .LVU648
 1979 028a 9BF84030 		ldrb	r3, [fp, #64]	@ zero_extendqisi2
 1980 028e 62F30303 		bfi	r3, r2, #0, #4
 1981 0292 8BF84030 		strb	r3, [fp, #64]
 362:lvgl/src/core/lv_indev_scroll.c ****         }
 1982              		.loc 1 362 13 is_stmt 1 discriminator 4 view .LVU649
 1983 0296 25E7     		b	.L104
 1984              	.L120:
 361:lvgl/src/core/lv_indev_scroll.c ****             break;
 1985              		.loc 1 361 66 is_stmt 0 view .LVU650
 1986 0298 0C22     		movs	r2, #12
 1987 029a F6E7     		b	.L101
 1988              	.LBE101:
 1989              		.cfi_endproc
 1990              	.LFE165:
 1992              		.section	.text.elastic_diff,"ax",%progbits
 1993              		.align	1
 1994              		.syntax unified
 1995              		.thumb
 1996              		.thumb_func
 1998              	elastic_diff:
 1999              	.LVL204:
 2000              	.LFB172:
 605:lvgl/src/core/lv_indev_scroll.c **** 
 606:lvgl/src/core/lv_indev_scroll.c **** static lv_coord_t elastic_diff(lv_obj_t * scroll_obj, lv_coord_t diff, lv_coord_t scroll_start, lv_
 607:lvgl/src/core/lv_indev_scroll.c ****                                lv_dir_t dir)
 608:lvgl/src/core/lv_indev_scroll.c **** {
ARM GAS  /var/folders/21/t9g5rlb91ys800n5npymflf80000gn/T//ccKy7Lvj.s 			page 60


 2001              		.loc 1 608 1 is_stmt 1 view -0
 2002              		.cfi_startproc
 2003              		@ args = 4, pretend = 0, frame = 0
 2004              		@ frame_needed = 0, uses_anonymous_args = 0
 2005              		.loc 1 608 1 is_stmt 0 view .LVU652
 2006 0000 2DE9F84F 		push	{r3, r4, r5, r6, r7, r8, r9, r10, fp, lr}
 2007              	.LCFI19:
 2008              		.cfi_def_cfa_offset 40
 2009              		.cfi_offset 3, -40
 2010              		.cfi_offset 4, -36
 2011              		.cfi_offset 5, -32
 2012              		.cfi_offset 6, -28
 2013              		.cfi_offset 7, -24
 2014              		.cfi_offset 8, -20
 2015              		.cfi_offset 9, -16
 2016              		.cfi_offset 10, -12
 2017              		.cfi_offset 11, -8
 2018              		.cfi_offset 14, -4
 2019 0004 0546     		mov	r5, r0
 2020 0006 0C46     		mov	r4, r1
 2021 0008 9046     		mov	r8, r2
 2022 000a 1E46     		mov	r6, r3
 2023 000c 9DF828A0 		ldrb	r10, [sp, #40]	@ zero_extendqisi2
 609:lvgl/src/core/lv_indev_scroll.c ****     if(lv_obj_has_flag(scroll_obj, LV_OBJ_FLAG_SCROLL_ELASTIC)) {
 2024              		.loc 1 609 5 is_stmt 1 view .LVU653
 2025              		.loc 1 609 8 is_stmt 0 view .LVU654
 2026 0010 2021     		movs	r1, #32
 2027              	.LVL205:
 2028              		.loc 1 609 8 view .LVU655
 2029 0012 FFF7FEFF 		bl	lv_obj_has_flag
 2030              	.LVL206:
 2031              		.loc 1 609 7 view .LVU656
 2032 0016 0028     		cmp	r0, #0
 2033 0018 00F0C580 		beq	.L134
 2034              	.LBB102:
 610:lvgl/src/core/lv_indev_scroll.c ****         /*If there is snapping in the current direction don't use the elastic factor because
 611:lvgl/src/core/lv_indev_scroll.c ****          *it's natural that the first and last items are scrolled (snapped) in.*/
 612:lvgl/src/core/lv_indev_scroll.c ****         lv_scroll_snap_t snap;
 2035              		.loc 1 612 9 is_stmt 1 view .LVU657
 613:lvgl/src/core/lv_indev_scroll.c ****         snap = dir == LV_DIR_HOR ? lv_obj_get_scroll_snap_x(scroll_obj) : lv_obj_get_scroll_snap_y(
 2036              		.loc 1 613 9 view .LVU658
 2037              		.loc 1 613 14 is_stmt 0 view .LVU659
 2038 001c BAF1030F 		cmp	r10, #3
 2039 0020 27D0     		beq	.L161
 2040              		.loc 1 613 75 discriminator 2 view .LVU660
 2041 0022 2846     		mov	r0, r5
 2042 0024 FFF7FEFF 		bl	lv_obj_get_scroll_snap_y
 2043              	.LVL207:
 2044 0028 0746     		mov	r7, r0
 2045              	.L136:
 2046              	.LVL208:
 614:lvgl/src/core/lv_indev_scroll.c **** 
 615:lvgl/src/core/lv_indev_scroll.c ****         lv_obj_t * act_obj = lv_indev_get_obj_act();
 2047              		.loc 1 615 9 is_stmt 1 discriminator 4 view .LVU661
 2048              		.loc 1 615 30 is_stmt 0 discriminator 4 view .LVU662
 2049 002a FFF7FEFF 		bl	lv_indev_get_obj_act
 2050              	.LVL209:
ARM GAS  /var/folders/21/t9g5rlb91ys800n5npymflf80000gn/T//ccKy7Lvj.s 			page 61


 2051 002e 8146     		mov	r9, r0
 2052              	.LVL210:
 616:lvgl/src/core/lv_indev_scroll.c ****         lv_coord_t snap_point = 0;
 2053              		.loc 1 616 9 is_stmt 1 discriminator 4 view .LVU663
 617:lvgl/src/core/lv_indev_scroll.c ****         lv_coord_t act_obj_point = 0;
 2054              		.loc 1 617 9 discriminator 4 view .LVU664
 618:lvgl/src/core/lv_indev_scroll.c **** 
 619:lvgl/src/core/lv_indev_scroll.c ****         if(dir == LV_DIR_HOR) {
 2055              		.loc 1 619 9 discriminator 4 view .LVU665
 2056              		.loc 1 619 11 is_stmt 0 discriminator 4 view .LVU666
 2057 0030 BAF1030F 		cmp	r10, #3
 2058 0034 22D0     		beq	.L162
 2059              	.LBB103:
 620:lvgl/src/core/lv_indev_scroll.c ****             lv_coord_t pad_left = lv_obj_get_style_pad_left(scroll_obj, LV_PART_MAIN);
 621:lvgl/src/core/lv_indev_scroll.c ****             lv_coord_t pad_right = lv_obj_get_style_pad_right(scroll_obj, LV_PART_MAIN);
 622:lvgl/src/core/lv_indev_scroll.c **** 
 623:lvgl/src/core/lv_indev_scroll.c ****             switch(snap) {
 624:lvgl/src/core/lv_indev_scroll.c ****                 case LV_SCROLL_SNAP_CENTER:
 625:lvgl/src/core/lv_indev_scroll.c ****                     snap_point = pad_left + (lv_area_get_width(&scroll_obj->coords) - pad_left - pa
 626:lvgl/src/core/lv_indev_scroll.c ****                     act_obj_point = lv_area_get_width(&act_obj->coords) / 2 + act_obj->coords.x1;
 627:lvgl/src/core/lv_indev_scroll.c ****                     break;
 628:lvgl/src/core/lv_indev_scroll.c ****                 case LV_SCROLL_SNAP_START:
 629:lvgl/src/core/lv_indev_scroll.c ****                     snap_point = scroll_obj->coords.x1 + pad_left;
 630:lvgl/src/core/lv_indev_scroll.c ****                     act_obj_point = act_obj->coords.x1;
 631:lvgl/src/core/lv_indev_scroll.c ****                     break;
 632:lvgl/src/core/lv_indev_scroll.c ****                 case LV_SCROLL_SNAP_END:
 633:lvgl/src/core/lv_indev_scroll.c ****                     snap_point = scroll_obj->coords.x2 - pad_right;
 634:lvgl/src/core/lv_indev_scroll.c ****                     act_obj_point = act_obj->coords.x2;
 635:lvgl/src/core/lv_indev_scroll.c ****                     break;
 636:lvgl/src/core/lv_indev_scroll.c ****             }
 637:lvgl/src/core/lv_indev_scroll.c ****         }
 638:lvgl/src/core/lv_indev_scroll.c ****         else {
 639:lvgl/src/core/lv_indev_scroll.c ****             lv_coord_t pad_top = lv_obj_get_style_pad_top(scroll_obj, LV_PART_MAIN);
 2060              		.loc 1 639 13 is_stmt 1 view .LVU667
 2061              	.LVL211:
 2062              	.LBB104:
 2063              	.LBI104:
 103:lvgl/src/core/lv_obj_style_gen.h **** {
 2064              		.loc 2 103 26 view .LVU668
 2065              	.LBB105:
 105:lvgl/src/core/lv_obj_style_gen.h ****     return (lv_coord_t)v.num;
 2066              		.loc 2 105 5 view .LVU669
 105:lvgl/src/core/lv_obj_style_gen.h ****     return (lv_coord_t)v.num;
 2067              		.loc 2 105 26 is_stmt 0 view .LVU670
 2068 0036 1022     		movs	r2, #16
 2069 0038 0021     		movs	r1, #0
 2070 003a 2846     		mov	r0, r5
 2071              	.LVL212:
 105:lvgl/src/core/lv_obj_style_gen.h ****     return (lv_coord_t)v.num;
 2072              		.loc 2 105 26 view .LVU671
 2073 003c FFF7FEFF 		bl	lv_obj_get_style_prop
 2074              	.LVL213:
 2075 0040 8246     		mov	r10, r0
 106:lvgl/src/core/lv_obj_style_gen.h **** }
 2076              		.loc 2 106 5 is_stmt 1 view .LVU672
 106:lvgl/src/core/lv_obj_style_gen.h **** }
 2077              		.loc 2 106 12 is_stmt 0 view .LVU673
ARM GAS  /var/folders/21/t9g5rlb91ys800n5npymflf80000gn/T//ccKy7Lvj.s 			page 62


 2078 0042 0FFA80FB 		sxth	fp, r0
 2079              	.LVL214:
 106:lvgl/src/core/lv_obj_style_gen.h **** }
 2080              		.loc 2 106 12 view .LVU674
 2081              	.LBE105:
 2082              	.LBE104:
 640:lvgl/src/core/lv_indev_scroll.c ****             lv_coord_t pad_bottom = lv_obj_get_style_pad_bottom(scroll_obj, LV_PART_MAIN);
 2083              		.loc 1 640 13 is_stmt 1 view .LVU675
 2084              	.LBB106:
 2085              	.LBI106:
 109:lvgl/src/core/lv_obj_style_gen.h **** {
 2086              		.loc 2 109 26 view .LVU676
 2087              	.LBB107:
 111:lvgl/src/core/lv_obj_style_gen.h ****     return (lv_coord_t)v.num;
 2088              		.loc 2 111 5 view .LVU677
 111:lvgl/src/core/lv_obj_style_gen.h ****     return (lv_coord_t)v.num;
 2089              		.loc 2 111 26 is_stmt 0 view .LVU678
 2090 0046 1122     		movs	r2, #17
 2091 0048 0021     		movs	r1, #0
 2092 004a 2846     		mov	r0, r5
 2093 004c FFF7FEFF 		bl	lv_obj_get_style_prop
 2094              	.LVL215:
 112:lvgl/src/core/lv_obj_style_gen.h **** }
 2095              		.loc 2 112 5 is_stmt 1 view .LVU679
 112:lvgl/src/core/lv_obj_style_gen.h **** }
 2096              		.loc 2 112 12 is_stmt 0 view .LVU680
 2097 0050 01B2     		sxth	r1, r0
 2098              	.LVL216:
 112:lvgl/src/core/lv_obj_style_gen.h **** }
 2099              		.loc 2 112 12 view .LVU681
 2100              	.LBE107:
 2101              	.LBE106:
 641:lvgl/src/core/lv_indev_scroll.c **** 
 642:lvgl/src/core/lv_indev_scroll.c ****             switch(snap) {
 2102              		.loc 1 642 13 is_stmt 1 view .LVU682
 2103 0052 022F     		cmp	r7, #2
 2104 0054 79D0     		beq	.L142
 2105 0056 032F     		cmp	r7, #3
 2106 0058 52D0     		beq	.L143
 2107 005a 012F     		cmp	r7, #1
 2108 005c 6FD0     		beq	.L144
 2109 005e 0022     		movs	r2, #0
 2110 0060 1346     		mov	r3, r2
 2111              	.LVL217:
 2112              	.L141:
 2113              		.loc 1 642 13 is_stmt 0 view .LVU683
 2114              	.LBE103:
 643:lvgl/src/core/lv_indev_scroll.c ****                 case LV_SCROLL_SNAP_CENTER:
 644:lvgl/src/core/lv_indev_scroll.c ****                     snap_point = pad_top + (lv_area_get_height(&scroll_obj->coords) - pad_top - pad
 645:lvgl/src/core/lv_indev_scroll.c ****                     act_obj_point = lv_area_get_height(&act_obj->coords) / 2 + act_obj->coords.y1;
 646:lvgl/src/core/lv_indev_scroll.c ****                     break;
 647:lvgl/src/core/lv_indev_scroll.c ****                 case LV_SCROLL_SNAP_START:
 648:lvgl/src/core/lv_indev_scroll.c ****                     snap_point = scroll_obj->coords.y1 + pad_top;
 649:lvgl/src/core/lv_indev_scroll.c ****                     act_obj_point = act_obj->coords.y1;
 650:lvgl/src/core/lv_indev_scroll.c ****                     break;
 651:lvgl/src/core/lv_indev_scroll.c ****                 case LV_SCROLL_SNAP_END:
 652:lvgl/src/core/lv_indev_scroll.c ****                     snap_point = scroll_obj->coords.y2 - pad_bottom;
ARM GAS  /var/folders/21/t9g5rlb91ys800n5npymflf80000gn/T//ccKy7Lvj.s 			page 63


 653:lvgl/src/core/lv_indev_scroll.c ****                     act_obj_point = act_obj->coords.y2;
 654:lvgl/src/core/lv_indev_scroll.c ****                     break;
 655:lvgl/src/core/lv_indev_scroll.c ****             }
 656:lvgl/src/core/lv_indev_scroll.c ****         }
 657:lvgl/src/core/lv_indev_scroll.c **** 
 658:lvgl/src/core/lv_indev_scroll.c ****         if(scroll_end < 0) {
 2115              		.loc 1 658 9 is_stmt 1 view .LVU684
 2116              		.loc 1 658 11 is_stmt 0 view .LVU685
 2117 0062 002E     		cmp	r6, #0
 2118 0064 77DB     		blt	.L163
 659:lvgl/src/core/lv_indev_scroll.c ****             if(snap != LV_SCROLL_SNAP_NONE && act_obj_point > snap_point) return diff;
 660:lvgl/src/core/lv_indev_scroll.c **** 
 661:lvgl/src/core/lv_indev_scroll.c ****             /*Rounding*/
 662:lvgl/src/core/lv_indev_scroll.c ****             if(diff < 0) diff -= ELASTIC_SLOWNESS_FACTOR / 2;
 663:lvgl/src/core/lv_indev_scroll.c ****             if(diff > 0) diff += ELASTIC_SLOWNESS_FACTOR / 2;
 664:lvgl/src/core/lv_indev_scroll.c ****             return diff / ELASTIC_SLOWNESS_FACTOR;
 665:lvgl/src/core/lv_indev_scroll.c ****         }
 666:lvgl/src/core/lv_indev_scroll.c ****         else if(scroll_start < 0) {
 2119              		.loc 1 666 14 is_stmt 1 view .LVU686
 2120              		.loc 1 666 16 is_stmt 0 view .LVU687
 2121 0066 B8F1000F 		cmp	r8, #0
 2122 006a C0F28880 		blt	.L164
 2123 006e 2046     		mov	r0, r4
 2124 0070 A0E0     		b	.L147
 2125              	.LVL218:
 2126              	.L161:
 613:lvgl/src/core/lv_indev_scroll.c **** 
 2127              		.loc 1 613 36 discriminator 1 view .LVU688
 2128 0072 2846     		mov	r0, r5
 2129 0074 FFF7FEFF 		bl	lv_obj_get_scroll_snap_x
 2130              	.LVL219:
 2131 0078 0746     		mov	r7, r0
 2132 007a D6E7     		b	.L136
 2133              	.LVL220:
 2134              	.L162:
 2135              	.LBB112:
 620:lvgl/src/core/lv_indev_scroll.c ****             lv_coord_t pad_right = lv_obj_get_style_pad_right(scroll_obj, LV_PART_MAIN);
 2136              		.loc 1 620 13 is_stmt 1 view .LVU689
 2137              	.LBB113:
 2138              	.LBI113:
 115:lvgl/src/core/lv_obj_style_gen.h **** {
 2139              		.loc 2 115 26 view .LVU690
 2140              	.LBB114:
 117:lvgl/src/core/lv_obj_style_gen.h ****     return (lv_coord_t)v.num;
 2141              		.loc 2 117 5 view .LVU691
 117:lvgl/src/core/lv_obj_style_gen.h ****     return (lv_coord_t)v.num;
 2142              		.loc 2 117 26 is_stmt 0 view .LVU692
 2143 007c 1222     		movs	r2, #18
 2144 007e 0021     		movs	r1, #0
 2145 0080 2846     		mov	r0, r5
 2146              	.LVL221:
 117:lvgl/src/core/lv_obj_style_gen.h ****     return (lv_coord_t)v.num;
 2147              		.loc 2 117 26 view .LVU693
 2148 0082 FFF7FEFF 		bl	lv_obj_get_style_prop
 2149              	.LVL222:
 2150 0086 8246     		mov	r10, r0
 118:lvgl/src/core/lv_obj_style_gen.h **** }
ARM GAS  /var/folders/21/t9g5rlb91ys800n5npymflf80000gn/T//ccKy7Lvj.s 			page 64


 2151              		.loc 2 118 5 is_stmt 1 view .LVU694
 118:lvgl/src/core/lv_obj_style_gen.h **** }
 2152              		.loc 2 118 12 is_stmt 0 view .LVU695
 2153 0088 0FFA80FB 		sxth	fp, r0
 2154              	.LVL223:
 118:lvgl/src/core/lv_obj_style_gen.h **** }
 2155              		.loc 2 118 12 view .LVU696
 2156              	.LBE114:
 2157              	.LBE113:
 621:lvgl/src/core/lv_indev_scroll.c **** 
 2158              		.loc 1 621 13 is_stmt 1 view .LVU697
 2159              	.LBB115:
 2160              	.LBI115:
 121:lvgl/src/core/lv_obj_style_gen.h **** {
 2161              		.loc 2 121 26 view .LVU698
 2162              	.LBB116:
 123:lvgl/src/core/lv_obj_style_gen.h ****     return (lv_coord_t)v.num;
 2163              		.loc 2 123 5 view .LVU699
 123:lvgl/src/core/lv_obj_style_gen.h ****     return (lv_coord_t)v.num;
 2164              		.loc 2 123 26 is_stmt 0 view .LVU700
 2165 008c 1322     		movs	r2, #19
 2166 008e 0021     		movs	r1, #0
 2167 0090 2846     		mov	r0, r5
 2168 0092 FFF7FEFF 		bl	lv_obj_get_style_prop
 2169              	.LVL224:
 2170              		.loc 2 124 5 is_stmt 1 view .LVU701
 2171              		.loc 2 124 12 is_stmt 0 view .LVU702
 2172 0096 01B2     		sxth	r1, r0
 2173              	.LVL225:
 2174              		.loc 2 124 12 view .LVU703
 2175              	.LBE116:
 2176              	.LBE115:
 623:lvgl/src/core/lv_indev_scroll.c ****                 case LV_SCROLL_SNAP_CENTER:
 2177              		.loc 1 623 13 is_stmt 1 view .LVU704
 2178 0098 022F     		cmp	r7, #2
 2179 009a 2BD0     		beq	.L138
 2180 009c 032F     		cmp	r7, #3
 2181 009e 04D0     		beq	.L139
 2182 00a0 012F     		cmp	r7, #1
 2183 00a2 21D0     		beq	.L140
 2184 00a4 0022     		movs	r2, #0
 2185 00a6 1346     		mov	r3, r2
 2186 00a8 DBE7     		b	.L141
 2187              	.L139:
 625:lvgl/src/core/lv_indev_scroll.c ****                     act_obj_point = lv_area_get_width(&act_obj->coords) / 2 + act_obj->coords.x1;
 2188              		.loc 1 625 21 view .LVU705
 2189              	.LVL226:
 2190              	.LBB117:
 2191              	.LBI117:
 123:lvgl/src/core/../misc/../font/../misc/lv_area.h **** {
 2192              		.loc 3 123 26 view .LVU706
 2193              	.LBB118:
 125:lvgl/src/core/../misc/../font/../misc/lv_area.h **** }
 2194              		.loc 3 125 5 view .LVU707
 125:lvgl/src/core/../misc/../font/../misc/lv_area.h **** }
 2195              		.loc 3 125 31 is_stmt 0 view .LVU708
 2196 00aa 2B8B     		ldrh	r3, [r5, #24]
ARM GAS  /var/folders/21/t9g5rlb91ys800n5npymflf80000gn/T//ccKy7Lvj.s 			page 65


 125:lvgl/src/core/../misc/../font/../misc/lv_area.h **** }
 2197              		.loc 3 125 44 view .LVU709
 2198 00ac AA8A     		ldrh	r2, [r5, #20]
 125:lvgl/src/core/../misc/../font/../misc/lv_area.h **** }
 2199              		.loc 3 125 36 view .LVU710
 2200 00ae 9B1A     		subs	r3, r3, r2
 2201 00b0 9BB2     		uxth	r3, r3
 125:lvgl/src/core/../misc/../font/../misc/lv_area.h **** }
 2202              		.loc 3 125 49 view .LVU711
 2203 00b2 0133     		adds	r3, r3, #1
 125:lvgl/src/core/../misc/../font/../misc/lv_area.h **** }
 2204              		.loc 3 125 12 view .LVU712
 2205 00b4 1BB2     		sxth	r3, r3
 2206              	.LVL227:
 125:lvgl/src/core/../misc/../font/../misc/lv_area.h **** }
 2207              		.loc 3 125 12 view .LVU713
 2208              	.LBE118:
 2209              	.LBE117:
 625:lvgl/src/core/lv_indev_scroll.c ****                     act_obj_point = lv_area_get_width(&act_obj->coords) / 2 + act_obj->coords.x1;
 2210              		.loc 1 625 85 view .LVU714
 2211 00b6 A3EB0B03 		sub	r3, r3, fp
 625:lvgl/src/core/lv_indev_scroll.c ****                     act_obj_point = lv_area_get_width(&act_obj->coords) / 2 + act_obj->coords.x1;
 2212              		.loc 1 625 96 view .LVU715
 2213 00ba 5B1A     		subs	r3, r3, r1
 625:lvgl/src/core/lv_indev_scroll.c ****                     act_obj_point = lv_area_get_width(&act_obj->coords) / 2 + act_obj->coords.x1;
 2214              		.loc 1 625 109 view .LVU716
 2215 00bc 03EBD373 		add	r3, r3, r3, lsr #31
 625:lvgl/src/core/lv_indev_scroll.c ****                     act_obj_point = lv_area_get_width(&act_obj->coords) / 2 + act_obj->coords.x1;
 2216              		.loc 1 625 43 view .LVU717
 2217 00c0 0AEB6303 		add	r3, r10, r3, asr #1
 625:lvgl/src/core/lv_indev_scroll.c ****                     act_obj_point = lv_area_get_width(&act_obj->coords) / 2 + act_obj->coords.x1;
 2218              		.loc 1 625 113 view .LVU718
 2219 00c4 12FA83F3 		uxtah	r3, r2, r3
 625:lvgl/src/core/lv_indev_scroll.c ****                     act_obj_point = lv_area_get_width(&act_obj->coords) / 2 + act_obj->coords.x1;
 2220              		.loc 1 625 32 view .LVU719
 2221 00c8 1BB2     		sxth	r3, r3
 2222              	.LVL228:
 626:lvgl/src/core/lv_indev_scroll.c ****                     break;
 2223              		.loc 1 626 21 is_stmt 1 view .LVU720
 2224              	.LBB119:
 2225              	.LBI119:
 123:lvgl/src/core/../misc/../font/../misc/lv_area.h **** {
 2226              		.loc 3 123 26 view .LVU721
 2227              	.LBB120:
 125:lvgl/src/core/../misc/../font/../misc/lv_area.h **** }
 2228              		.loc 3 125 5 view .LVU722
 125:lvgl/src/core/../misc/../font/../misc/lv_area.h **** }
 2229              		.loc 3 125 31 is_stmt 0 view .LVU723
 2230 00ca B9F81810 		ldrh	r1, [r9, #24]
 2231              	.LVL229:
 125:lvgl/src/core/../misc/../font/../misc/lv_area.h **** }
 2232              		.loc 3 125 44 view .LVU724
 2233 00ce B9F81420 		ldrh	r2, [r9, #20]
 125:lvgl/src/core/../misc/../font/../misc/lv_area.h **** }
 2234              		.loc 3 125 36 view .LVU725
 2235 00d2 891A     		subs	r1, r1, r2
 2236 00d4 89B2     		uxth	r1, r1
ARM GAS  /var/folders/21/t9g5rlb91ys800n5npymflf80000gn/T//ccKy7Lvj.s 			page 66


 125:lvgl/src/core/../misc/../font/../misc/lv_area.h **** }
 2237              		.loc 3 125 49 view .LVU726
 2238 00d6 0131     		adds	r1, r1, #1
 2239              	.LVL230:
 125:lvgl/src/core/../misc/../font/../misc/lv_area.h **** }
 2240              		.loc 3 125 49 view .LVU727
 2241              	.LBE120:
 2242              	.LBE119:
 626:lvgl/src/core/lv_indev_scroll.c ****                     break;
 2243              		.loc 1 626 77 view .LVU728
 2244 00d8 C1F3C030 		ubfx	r0, r1, #15, #1
 2245              	.LVL231:
 626:lvgl/src/core/lv_indev_scroll.c ****                     break;
 2246              		.loc 1 626 77 view .LVU729
 2247 00dc 00FA81F1 		sxtah	r1, r0, r1
 2248 00e0 02EB6102 		add	r2, r2, r1, asr #1
 626:lvgl/src/core/lv_indev_scroll.c ****                     break;
 2249              		.loc 1 626 35 view .LVU730
 2250 00e4 12B2     		sxth	r2, r2
 2251              	.LVL232:
 627:lvgl/src/core/lv_indev_scroll.c ****                 case LV_SCROLL_SNAP_START:
 2252              		.loc 1 627 21 is_stmt 1 view .LVU731
 2253 00e6 BCE7     		b	.L141
 2254              	.LVL233:
 2255              	.L140:
 629:lvgl/src/core/lv_indev_scroll.c ****                     act_obj_point = act_obj->coords.x1;
 2256              		.loc 1 629 21 view .LVU732
 629:lvgl/src/core/lv_indev_scroll.c ****                     act_obj_point = act_obj->coords.x1;
 2257              		.loc 1 629 52 is_stmt 0 view .LVU733
 2258 00e8 AB8A     		ldrh	r3, [r5, #20]
 629:lvgl/src/core/lv_indev_scroll.c ****                     act_obj_point = act_obj->coords.x1;
 2259              		.loc 1 629 56 view .LVU734
 2260 00ea 5344     		add	r3, r3, r10
 629:lvgl/src/core/lv_indev_scroll.c ****                     act_obj_point = act_obj->coords.x1;
 2261              		.loc 1 629 32 view .LVU735
 2262 00ec 1BB2     		sxth	r3, r3
 2263              	.LVL234:
 630:lvgl/src/core/lv_indev_scroll.c ****                     break;
 2264              		.loc 1 630 21 is_stmt 1 view .LVU736
 630:lvgl/src/core/lv_indev_scroll.c ****                     break;
 2265              		.loc 1 630 35 is_stmt 0 view .LVU737
 2266 00ee B9F91420 		ldrsh	r2, [r9, #20]
 2267              	.LVL235:
 631:lvgl/src/core/lv_indev_scroll.c ****                 case LV_SCROLL_SNAP_END:
 2268              		.loc 1 631 21 is_stmt 1 view .LVU738
 2269 00f2 B6E7     		b	.L141
 2270              	.LVL236:
 2271              	.L138:
 633:lvgl/src/core/lv_indev_scroll.c ****                     act_obj_point = act_obj->coords.x2;
 2272              		.loc 1 633 21 view .LVU739
 633:lvgl/src/core/lv_indev_scroll.c ****                     act_obj_point = act_obj->coords.x2;
 2273              		.loc 1 633 52 is_stmt 0 view .LVU740
 2274 00f4 2B8B     		ldrh	r3, [r5, #24]
 633:lvgl/src/core/lv_indev_scroll.c ****                     act_obj_point = act_obj->coords.x2;
 2275              		.loc 1 633 56 view .LVU741
 2276 00f6 1B1A     		subs	r3, r3, r0
 633:lvgl/src/core/lv_indev_scroll.c ****                     act_obj_point = act_obj->coords.x2;
ARM GAS  /var/folders/21/t9g5rlb91ys800n5npymflf80000gn/T//ccKy7Lvj.s 			page 67


 2277              		.loc 1 633 32 view .LVU742
 2278 00f8 1BB2     		sxth	r3, r3
 2279              	.LVL237:
 634:lvgl/src/core/lv_indev_scroll.c ****                     break;
 2280              		.loc 1 634 21 is_stmt 1 view .LVU743
 634:lvgl/src/core/lv_indev_scroll.c ****                     break;
 2281              		.loc 1 634 35 is_stmt 0 view .LVU744
 2282 00fa B9F91820 		ldrsh	r2, [r9, #24]
 2283              	.LVL238:
 635:lvgl/src/core/lv_indev_scroll.c ****             }
 2284              		.loc 1 635 21 is_stmt 1 view .LVU745
 2285 00fe B0E7     		b	.L141
 2286              	.LVL239:
 2287              	.L143:
 635:lvgl/src/core/lv_indev_scroll.c ****             }
 2288              		.loc 1 635 21 is_stmt 0 view .LVU746
 2289              	.LBE112:
 2290              	.LBB121:
 644:lvgl/src/core/lv_indev_scroll.c ****                     act_obj_point = lv_area_get_height(&act_obj->coords) / 2 + act_obj->coords.y1;
 2291              		.loc 1 644 21 is_stmt 1 view .LVU747
 2292              	.LBB108:
 2293              	.LBI108:
 133:lvgl/src/core/../misc/../font/../misc/lv_area.h **** {
 2294              		.loc 3 133 26 view .LVU748
 2295              	.LBB109:
 2296              		.loc 3 135 5 view .LVU749
 2297              		.loc 3 135 31 is_stmt 0 view .LVU750
 2298 0100 6B8B     		ldrh	r3, [r5, #26]
 2299              		.loc 3 135 44 view .LVU751
 2300 0102 EA8A     		ldrh	r2, [r5, #22]
 2301              		.loc 3 135 36 view .LVU752
 2302 0104 9B1A     		subs	r3, r3, r2
 2303 0106 9BB2     		uxth	r3, r3
 2304              		.loc 3 135 49 view .LVU753
 2305 0108 0133     		adds	r3, r3, #1
 2306              		.loc 3 135 12 view .LVU754
 2307 010a 1BB2     		sxth	r3, r3
 2308              	.LVL240:
 2309              		.loc 3 135 12 view .LVU755
 2310              	.LBE109:
 2311              	.LBE108:
 644:lvgl/src/core/lv_indev_scroll.c ****                     act_obj_point = lv_area_get_height(&act_obj->coords) / 2 + act_obj->coords.y1;
 2312              		.loc 1 644 85 view .LVU756
 2313 010c A3EB0B03 		sub	r3, r3, fp
 644:lvgl/src/core/lv_indev_scroll.c ****                     act_obj_point = lv_area_get_height(&act_obj->coords) / 2 + act_obj->coords.y1;
 2314              		.loc 1 644 95 view .LVU757
 2315 0110 5B1A     		subs	r3, r3, r1
 644:lvgl/src/core/lv_indev_scroll.c ****                     act_obj_point = lv_area_get_height(&act_obj->coords) / 2 + act_obj->coords.y1;
 2316              		.loc 1 644 109 view .LVU758
 2317 0112 03EBD373 		add	r3, r3, r3, lsr #31
 644:lvgl/src/core/lv_indev_scroll.c ****                     act_obj_point = lv_area_get_height(&act_obj->coords) / 2 + act_obj->coords.y1;
 2318              		.loc 1 644 42 view .LVU759
 2319 0116 0AEB6303 		add	r3, r10, r3, asr #1
 644:lvgl/src/core/lv_indev_scroll.c ****                     act_obj_point = lv_area_get_height(&act_obj->coords) / 2 + act_obj->coords.y1;
 2320              		.loc 1 644 113 view .LVU760
 2321 011a 12FA83F3 		uxtah	r3, r2, r3
 644:lvgl/src/core/lv_indev_scroll.c ****                     act_obj_point = lv_area_get_height(&act_obj->coords) / 2 + act_obj->coords.y1;
ARM GAS  /var/folders/21/t9g5rlb91ys800n5npymflf80000gn/T//ccKy7Lvj.s 			page 68


 2322              		.loc 1 644 32 view .LVU761
 2323 011e 1BB2     		sxth	r3, r3
 2324              	.LVL241:
 645:lvgl/src/core/lv_indev_scroll.c ****                     break;
 2325              		.loc 1 645 21 is_stmt 1 view .LVU762
 2326              	.LBB110:
 2327              	.LBI110:
 133:lvgl/src/core/../misc/../font/../misc/lv_area.h **** {
 2328              		.loc 3 133 26 view .LVU763
 2329              	.LBB111:
 2330              		.loc 3 135 5 view .LVU764
 2331              		.loc 3 135 31 is_stmt 0 view .LVU765
 2332 0120 B9F81A10 		ldrh	r1, [r9, #26]
 2333              	.LVL242:
 2334              		.loc 3 135 44 view .LVU766
 2335 0124 B9F81620 		ldrh	r2, [r9, #22]
 2336              		.loc 3 135 36 view .LVU767
 2337 0128 891A     		subs	r1, r1, r2
 2338 012a 89B2     		uxth	r1, r1
 2339              		.loc 3 135 49 view .LVU768
 2340 012c 0131     		adds	r1, r1, #1
 2341              	.LVL243:
 2342              		.loc 3 135 49 view .LVU769
 2343              	.LBE111:
 2344              	.LBE110:
 645:lvgl/src/core/lv_indev_scroll.c ****                     break;
 2345              		.loc 1 645 78 view .LVU770
 2346 012e C1F3C030 		ubfx	r0, r1, #15, #1
 2347              	.LVL244:
 645:lvgl/src/core/lv_indev_scroll.c ****                     break;
 2348              		.loc 1 645 78 view .LVU771
 2349 0132 00FA81F1 		sxtah	r1, r0, r1
 2350 0136 02EB6102 		add	r2, r2, r1, asr #1
 645:lvgl/src/core/lv_indev_scroll.c ****                     break;
 2351              		.loc 1 645 35 view .LVU772
 2352 013a 12B2     		sxth	r2, r2
 2353              	.LVL245:
 646:lvgl/src/core/lv_indev_scroll.c ****                 case LV_SCROLL_SNAP_START:
 2354              		.loc 1 646 21 is_stmt 1 view .LVU773
 2355 013c 91E7     		b	.L141
 2356              	.LVL246:
 2357              	.L144:
 648:lvgl/src/core/lv_indev_scroll.c ****                     act_obj_point = act_obj->coords.y1;
 2358              		.loc 1 648 21 view .LVU774
 648:lvgl/src/core/lv_indev_scroll.c ****                     act_obj_point = act_obj->coords.y1;
 2359              		.loc 1 648 52 is_stmt 0 view .LVU775
 2360 013e EB8A     		ldrh	r3, [r5, #22]
 648:lvgl/src/core/lv_indev_scroll.c ****                     act_obj_point = act_obj->coords.y1;
 2361              		.loc 1 648 56 view .LVU776
 2362 0140 5344     		add	r3, r3, r10
 648:lvgl/src/core/lv_indev_scroll.c ****                     act_obj_point = act_obj->coords.y1;
 2363              		.loc 1 648 32 view .LVU777
 2364 0142 1BB2     		sxth	r3, r3
 2365              	.LVL247:
 649:lvgl/src/core/lv_indev_scroll.c ****                     break;
 2366              		.loc 1 649 21 is_stmt 1 view .LVU778
 649:lvgl/src/core/lv_indev_scroll.c ****                     break;
ARM GAS  /var/folders/21/t9g5rlb91ys800n5npymflf80000gn/T//ccKy7Lvj.s 			page 69


 2367              		.loc 1 649 35 is_stmt 0 view .LVU779
 2368 0144 B9F91620 		ldrsh	r2, [r9, #22]
 2369              	.LVL248:
 650:lvgl/src/core/lv_indev_scroll.c ****                 case LV_SCROLL_SNAP_END:
 2370              		.loc 1 650 21 is_stmt 1 view .LVU780
 2371 0148 8BE7     		b	.L141
 2372              	.LVL249:
 2373              	.L142:
 652:lvgl/src/core/lv_indev_scroll.c ****                     act_obj_point = act_obj->coords.y2;
 2374              		.loc 1 652 21 view .LVU781
 652:lvgl/src/core/lv_indev_scroll.c ****                     act_obj_point = act_obj->coords.y2;
 2375              		.loc 1 652 52 is_stmt 0 view .LVU782
 2376 014a 6B8B     		ldrh	r3, [r5, #26]
 652:lvgl/src/core/lv_indev_scroll.c ****                     act_obj_point = act_obj->coords.y2;
 2377              		.loc 1 652 56 view .LVU783
 2378 014c 1B1A     		subs	r3, r3, r0
 652:lvgl/src/core/lv_indev_scroll.c ****                     act_obj_point = act_obj->coords.y2;
 2379              		.loc 1 652 32 view .LVU784
 2380 014e 1BB2     		sxth	r3, r3
 2381              	.LVL250:
 653:lvgl/src/core/lv_indev_scroll.c ****                     break;
 2382              		.loc 1 653 21 is_stmt 1 view .LVU785
 653:lvgl/src/core/lv_indev_scroll.c ****                     break;
 2383              		.loc 1 653 35 is_stmt 0 view .LVU786
 2384 0150 B9F91A20 		ldrsh	r2, [r9, #26]
 2385              	.LVL251:
 654:lvgl/src/core/lv_indev_scroll.c ****             }
 2386              		.loc 1 654 21 is_stmt 1 view .LVU787
 2387 0154 85E7     		b	.L141
 2388              	.LVL252:
 2389              	.L163:
 654:lvgl/src/core/lv_indev_scroll.c ****             }
 2390              		.loc 1 654 21 is_stmt 0 view .LVU788
 2391              	.LBE121:
 659:lvgl/src/core/lv_indev_scroll.c **** 
 2392              		.loc 1 659 13 is_stmt 1 view .LVU789
 659:lvgl/src/core/lv_indev_scroll.c **** 
 2393              		.loc 1 659 15 is_stmt 0 view .LVU790
 2394 0156 0FB1     		cbz	r7, .L146
 659:lvgl/src/core/lv_indev_scroll.c **** 
 2395              		.loc 1 659 44 discriminator 1 view .LVU791
 2396 0158 9342     		cmp	r3, r2
 2397 015a 30DB     		blt	.L156
 2398              	.L146:
 662:lvgl/src/core/lv_indev_scroll.c ****             if(diff > 0) diff += ELASTIC_SLOWNESS_FACTOR / 2;
 2399              		.loc 1 662 13 is_stmt 1 view .LVU792
 662:lvgl/src/core/lv_indev_scroll.c ****             if(diff > 0) diff += ELASTIC_SLOWNESS_FACTOR / 2;
 2400              		.loc 1 662 15 is_stmt 0 view .LVU793
 2401 015c 002C     		cmp	r4, #0
 2402 015e 09DB     		blt	.L165
 2403              	.LVL253:
 2404              	.L148:
 663:lvgl/src/core/lv_indev_scroll.c ****             return diff / ELASTIC_SLOWNESS_FACTOR;
 2405              		.loc 1 663 13 is_stmt 1 view .LVU794
 663:lvgl/src/core/lv_indev_scroll.c ****             return diff / ELASTIC_SLOWNESS_FACTOR;
 2406              		.loc 1 663 15 is_stmt 0 view .LVU795
 2407 0160 002C     		cmp	r4, #0
ARM GAS  /var/folders/21/t9g5rlb91ys800n5npymflf80000gn/T//ccKy7Lvj.s 			page 70


 2408 0162 01DD     		ble	.L149
 663:lvgl/src/core/lv_indev_scroll.c ****             return diff / ELASTIC_SLOWNESS_FACTOR;
 2409              		.loc 1 663 26 is_stmt 1 discriminator 1 view .LVU796
 663:lvgl/src/core/lv_indev_scroll.c ****             return diff / ELASTIC_SLOWNESS_FACTOR;
 2410              		.loc 1 663 31 is_stmt 0 discriminator 1 view .LVU797
 2411 0164 A01C     		adds	r0, r4, #2
 2412 0166 04B2     		sxth	r4, r0
 2413              	.LVL254:
 2414              	.L149:
 664:lvgl/src/core/lv_indev_scroll.c ****         }
 2415              		.loc 1 664 13 is_stmt 1 view .LVU798
 664:lvgl/src/core/lv_indev_scroll.c ****         }
 2416              		.loc 1 664 25 is_stmt 0 view .LVU799
 2417 0168 2346     		mov	r3, r4
 2418              	.LVL255:
 664:lvgl/src/core/lv_indev_scroll.c ****         }
 2419              		.loc 1 664 25 view .LVU800
 2420 016a 002C     		cmp	r4, #0
 2421 016c 05DB     		blt	.L166
 2422              	.L150:
 664:lvgl/src/core/lv_indev_scroll.c ****         }
 2423              		.loc 1 664 25 view .LVU801
 2424 016e 43F38F00 		sbfx	r0, r3, #2, #16
 2425 0172 1FE0     		b	.L147
 2426              	.LVL256:
 2427              	.L165:
 662:lvgl/src/core/lv_indev_scroll.c ****             if(diff > 0) diff += ELASTIC_SLOWNESS_FACTOR / 2;
 2428              		.loc 1 662 26 is_stmt 1 discriminator 1 view .LVU802
 662:lvgl/src/core/lv_indev_scroll.c ****             if(diff > 0) diff += ELASTIC_SLOWNESS_FACTOR / 2;
 2429              		.loc 1 662 31 is_stmt 0 discriminator 1 view .LVU803
 2430 0174 A01E     		subs	r0, r4, #2
 2431 0176 04B2     		sxth	r4, r0
 2432              	.LVL257:
 662:lvgl/src/core/lv_indev_scroll.c ****             if(diff > 0) diff += ELASTIC_SLOWNESS_FACTOR / 2;
 2433              		.loc 1 662 31 discriminator 1 view .LVU804
 2434 0178 F2E7     		b	.L148
 2435              	.LVL258:
 2436              	.L166:
 664:lvgl/src/core/lv_indev_scroll.c ****         }
 2437              		.loc 1 664 25 view .LVU805
 2438 017a E31C     		adds	r3, r4, #3
 2439 017c F7E7     		b	.L150
 2440              	.LVL259:
 2441              	.L164:
 667:lvgl/src/core/lv_indev_scroll.c ****             if(snap != LV_SCROLL_SNAP_NONE && act_obj_point < snap_point) return diff;
 2442              		.loc 1 667 13 is_stmt 1 view .LVU806
 2443              		.loc 1 667 15 is_stmt 0 view .LVU807
 2444 017e 0FB1     		cbz	r7, .L151
 2445              		.loc 1 667 44 discriminator 1 view .LVU808
 2446 0180 9342     		cmp	r3, r2
 2447 0182 1EDC     		bgt	.L158
 2448              	.L151:
 668:lvgl/src/core/lv_indev_scroll.c **** 
 669:lvgl/src/core/lv_indev_scroll.c ****             /*Rounding*/
 670:lvgl/src/core/lv_indev_scroll.c ****             if(diff < 0) diff -= ELASTIC_SLOWNESS_FACTOR / 2;
 2449              		.loc 1 670 13 is_stmt 1 view .LVU809
 2450              		.loc 1 670 15 is_stmt 0 view .LVU810
ARM GAS  /var/folders/21/t9g5rlb91ys800n5npymflf80000gn/T//ccKy7Lvj.s 			page 71


 2451 0184 002C     		cmp	r4, #0
 2452 0186 09DB     		blt	.L167
 2453              	.LVL260:
 2454              	.L152:
 671:lvgl/src/core/lv_indev_scroll.c ****             if(diff > 0) diff += ELASTIC_SLOWNESS_FACTOR / 2;
 2455              		.loc 1 671 13 is_stmt 1 view .LVU811
 2456              		.loc 1 671 15 is_stmt 0 view .LVU812
 2457 0188 002C     		cmp	r4, #0
 2458 018a 01DD     		ble	.L153
 2459              		.loc 1 671 26 is_stmt 1 discriminator 1 view .LVU813
 2460              		.loc 1 671 31 is_stmt 0 discriminator 1 view .LVU814
 2461 018c A01C     		adds	r0, r4, #2
 2462 018e 04B2     		sxth	r4, r0
 2463              	.LVL261:
 2464              	.L153:
 672:lvgl/src/core/lv_indev_scroll.c ****             return diff / ELASTIC_SLOWNESS_FACTOR;
 2465              		.loc 1 672 13 is_stmt 1 view .LVU815
 2466              		.loc 1 672 25 is_stmt 0 view .LVU816
 2467 0190 2346     		mov	r3, r4
 2468              	.LVL262:
 2469              		.loc 1 672 25 view .LVU817
 2470 0192 002C     		cmp	r4, #0
 2471 0194 05DB     		blt	.L168
 2472              	.L154:
 2473              		.loc 1 672 25 view .LVU818
 2474 0196 43F38F00 		sbfx	r0, r3, #2, #16
 2475 019a 0BE0     		b	.L147
 2476              	.LVL263:
 2477              	.L167:
 670:lvgl/src/core/lv_indev_scroll.c ****             if(diff > 0) diff += ELASTIC_SLOWNESS_FACTOR / 2;
 2478              		.loc 1 670 26 is_stmt 1 discriminator 1 view .LVU819
 670:lvgl/src/core/lv_indev_scroll.c ****             if(diff > 0) diff += ELASTIC_SLOWNESS_FACTOR / 2;
 2479              		.loc 1 670 31 is_stmt 0 discriminator 1 view .LVU820
 2480 019c A01E     		subs	r0, r4, #2
 2481 019e 04B2     		sxth	r4, r0
 2482              	.LVL264:
 670:lvgl/src/core/lv_indev_scroll.c ****             if(diff > 0) diff += ELASTIC_SLOWNESS_FACTOR / 2;
 2483              		.loc 1 670 31 discriminator 1 view .LVU821
 2484 01a0 F2E7     		b	.L152
 2485              	.LVL265:
 2486              	.L168:
 2487              		.loc 1 672 25 view .LVU822
 2488 01a2 E31C     		adds	r3, r4, #3
 2489 01a4 F7E7     		b	.L154
 2490              	.LVL266:
 2491              	.L134:
 2492              		.loc 1 672 25 view .LVU823
 2493              	.LBE102:
 673:lvgl/src/core/lv_indev_scroll.c ****         }
 674:lvgl/src/core/lv_indev_scroll.c ****     }
 675:lvgl/src/core/lv_indev_scroll.c ****     else {
 676:lvgl/src/core/lv_indev_scroll.c ****         /*Scroll back to the boundary if required*/
 677:lvgl/src/core/lv_indev_scroll.c ****         if(scroll_end + diff < 0) diff = - scroll_end;
 2494              		.loc 1 677 9 is_stmt 1 view .LVU824
 2495              		.loc 1 677 11 is_stmt 0 view .LVU825
 2496 01a6 E642     		cmn	r6, r4
 2497 01a8 06D4     		bmi	.L169
ARM GAS  /var/folders/21/t9g5rlb91ys800n5npymflf80000gn/T//ccKy7Lvj.s 			page 72


 2498              	.LVL267:
 2499              	.L155:
 678:lvgl/src/core/lv_indev_scroll.c ****         if(scroll_start - diff < 0) diff = scroll_start;
 2500              		.loc 1 678 9 is_stmt 1 view .LVU826
 2501              		.loc 1 678 25 is_stmt 0 view .LVU827
 2502 01aa A8EB0403 		sub	r3, r8, r4
 2503              		.loc 1 678 11 view .LVU828
 2504 01ae 002B     		cmp	r3, #0
 2505 01b0 09DB     		blt	.L159
 2506 01b2 2046     		mov	r0, r4
 2507              	.LVL268:
 2508              	.L147:
 679:lvgl/src/core/lv_indev_scroll.c ****     }
 680:lvgl/src/core/lv_indev_scroll.c **** 
 681:lvgl/src/core/lv_indev_scroll.c ****     return diff;
 682:lvgl/src/core/lv_indev_scroll.c **** }
 2509              		.loc 1 682 1 view .LVU829
 2510 01b4 BDE8F88F 		pop	{r3, r4, r5, r6, r7, r8, r9, r10, fp, pc}
 2511              	.LVL269:
 2512              	.L169:
 677:lvgl/src/core/lv_indev_scroll.c ****         if(scroll_start - diff < 0) diff = scroll_start;
 2513              		.loc 1 677 35 is_stmt 1 discriminator 1 view .LVU830
 677:lvgl/src/core/lv_indev_scroll.c ****         if(scroll_start - diff < 0) diff = scroll_start;
 2514              		.loc 1 677 40 is_stmt 0 discriminator 1 view .LVU831
 2515 01b8 7642     		rsbs	r6, r6, #0
 2516 01ba 34B2     		sxth	r4, r6
 2517              	.LVL270:
 677:lvgl/src/core/lv_indev_scroll.c ****         if(scroll_start - diff < 0) diff = scroll_start;
 2518              		.loc 1 677 40 discriminator 1 view .LVU832
 2519 01bc F5E7     		b	.L155
 2520              	.LVL271:
 2521              	.L156:
 2522              	.LBB122:
 659:lvgl/src/core/lv_indev_scroll.c **** 
 2523              		.loc 1 659 82 view .LVU833
 2524 01be 2046     		mov	r0, r4
 2525 01c0 F8E7     		b	.L147
 2526              	.L158:
 667:lvgl/src/core/lv_indev_scroll.c **** 
 2527              		.loc 1 667 82 view .LVU834
 2528 01c2 2046     		mov	r0, r4
 2529 01c4 F6E7     		b	.L147
 2530              	.LVL272:
 2531              	.L159:
 667:lvgl/src/core/lv_indev_scroll.c **** 
 2532              		.loc 1 667 82 view .LVU835
 2533              	.LBE122:
 678:lvgl/src/core/lv_indev_scroll.c ****     }
 2534              		.loc 1 678 42 view .LVU836
 2535 01c6 4046     		mov	r0, r8
 2536 01c8 F4E7     		b	.L147
 2537              		.cfi_endproc
 2538              	.LFE172:
 2540              		.section	.text._lv_indev_scroll_handler,"ax",%progbits
 2541              		.align	1
 2542              		.global	_lv_indev_scroll_handler
 2543              		.syntax unified
ARM GAS  /var/folders/21/t9g5rlb91ys800n5npymflf80000gn/T//ccKy7Lvj.s 			page 73


 2544              		.thumb
 2545              		.thumb_func
 2547              	_lv_indev_scroll_handler:
 2548              	.LVL273:
 2549              	.LFB161:
  47:lvgl/src/core/lv_indev_scroll.c ****     if(proc->types.pointer.vect.x == 0 && proc->types.pointer.vect.y == 0) {
 2550              		.loc 1 47 1 is_stmt 1 view -0
 2551              		.cfi_startproc
 2552              		@ args = 0, pretend = 0, frame = 8
 2553              		@ frame_needed = 0, uses_anonymous_args = 0
  48:lvgl/src/core/lv_indev_scroll.c ****         return;
 2554              		.loc 1 48 5 view .LVU838
  48:lvgl/src/core/lv_indev_scroll.c ****         return;
 2555              		.loc 1 48 40 is_stmt 0 view .LVU839
 2556 0000 4369     		ldr	r3, [r0, #20]
  48:lvgl/src/core/lv_indev_scroll.c ****         return;
 2557              		.loc 1 48 7 view .LVU840
 2558 0002 002B     		cmp	r3, #0
 2559 0004 00F0CA80 		beq	.L186
  47:lvgl/src/core/lv_indev_scroll.c ****     if(proc->types.pointer.vect.x == 0 && proc->types.pointer.vect.y == 0) {
 2560              		.loc 1 47 1 view .LVU841
 2561 0008 2DE9F041 		push	{r4, r5, r6, r7, r8, lr}
 2562              	.LCFI20:
 2563              		.cfi_def_cfa_offset 24
 2564              		.cfi_offset 4, -24
 2565              		.cfi_offset 5, -20
 2566              		.cfi_offset 6, -16
 2567              		.cfi_offset 7, -12
 2568              		.cfi_offset 8, -8
 2569              		.cfi_offset 14, -4
 2570 000c 84B0     		sub	sp, sp, #16
 2571              	.LCFI21:
 2572              		.cfi_def_cfa_offset 40
 2573 000e 0646     		mov	r6, r0
  52:lvgl/src/core/lv_indev_scroll.c ****     /*If there is no scroll object yet try to find one*/
 2574              		.loc 1 52 5 is_stmt 1 view .LVU842
  52:lvgl/src/core/lv_indev_scroll.c ****     /*If there is no scroll object yet try to find one*/
 2575              		.loc 1 52 16 is_stmt 0 view .LVU843
 2576 0010 C76A     		ldr	r7, [r0, #44]
 2577              	.LVL274:
  54:lvgl/src/core/lv_indev_scroll.c ****         scroll_obj = find_scroll_obj(proc);
 2578              		.loc 1 54 5 is_stmt 1 view .LVU844
  54:lvgl/src/core/lv_indev_scroll.c ****         scroll_obj = find_scroll_obj(proc);
 2579              		.loc 1 54 7 is_stmt 0 view .LVU845
 2580 0012 27B1     		cbz	r7, .L189
 2581              	.LVL275:
 2582              	.L172:
  65:lvgl/src/core/lv_indev_scroll.c ****     int16_t zoom = 256;
 2583              		.loc 1 65 5 is_stmt 1 view .LVU846
  66:lvgl/src/core/lv_indev_scroll.c ****     lv_obj_t * parent = scroll_obj;
 2584              		.loc 1 66 5 view .LVU847
  67:lvgl/src/core/lv_indev_scroll.c ****     while(parent) {
 2585              		.loc 1 67 5 view .LVU848
  68:lvgl/src/core/lv_indev_scroll.c ****         angle += lv_obj_get_style_transform_angle(parent, 0);
 2586              		.loc 1 68 5 view .LVU849
  67:lvgl/src/core/lv_indev_scroll.c ****     while(parent) {
 2587              		.loc 1 67 16 is_stmt 0 view .LVU850
ARM GAS  /var/folders/21/t9g5rlb91ys800n5npymflf80000gn/T//ccKy7Lvj.s 			page 74


 2588 0014 3C46     		mov	r4, r7
  66:lvgl/src/core/lv_indev_scroll.c ****     lv_obj_t * parent = scroll_obj;
 2589              		.loc 1 66 13 view .LVU851
 2590 0016 4FF48078 		mov	r8, #256
  65:lvgl/src/core/lv_indev_scroll.c ****     int16_t zoom = 256;
 2591              		.loc 1 65 13 view .LVU852
 2592 001a 0025     		movs	r5, #0
  68:lvgl/src/core/lv_indev_scroll.c ****         angle += lv_obj_get_style_transform_angle(parent, 0);
 2593              		.loc 1 68 10 view .LVU853
 2594 001c 1BE0     		b	.L173
 2595              	.LVL276:
 2596              	.L189:
  55:lvgl/src/core/lv_indev_scroll.c ****         if(scroll_obj == NULL) return;
 2597              		.loc 1 55 9 is_stmt 1 view .LVU854
  55:lvgl/src/core/lv_indev_scroll.c ****         if(scroll_obj == NULL) return;
 2598              		.loc 1 55 22 is_stmt 0 view .LVU855
 2599 001e FFF7FEFF 		bl	find_scroll_obj
 2600              	.LVL277:
  56:lvgl/src/core/lv_indev_scroll.c **** 
 2601              		.loc 1 56 9 is_stmt 1 view .LVU856
  56:lvgl/src/core/lv_indev_scroll.c **** 
 2602              		.loc 1 56 11 is_stmt 0 view .LVU857
 2603 0022 0746     		mov	r7, r0
 2604 0024 0028     		cmp	r0, #0
 2605 0026 00F09B80 		beq	.L170
  58:lvgl/src/core/lv_indev_scroll.c **** 
 2606              		.loc 1 58 9 is_stmt 1 view .LVU858
 2607 002a 3046     		mov	r0, r6
 2608              	.LVL278:
  58:lvgl/src/core/lv_indev_scroll.c **** 
 2609              		.loc 1 58 9 is_stmt 0 view .LVU859
 2610 002c FFF7FEFF 		bl	init_scroll_limits
 2611              	.LVL279:
  60:lvgl/src/core/lv_indev_scroll.c ****         if(proc->reset_query) return;
 2612              		.loc 1 60 9 is_stmt 1 view .LVU860
 2613 0030 0022     		movs	r2, #0
 2614 0032 0921     		movs	r1, #9
 2615 0034 3846     		mov	r0, r7
 2616 0036 FFF7FEFF 		bl	lv_event_send
 2617              	.LVL280:
  61:lvgl/src/core/lv_indev_scroll.c ****     }
 2618              		.loc 1 61 9 view .LVU861
  61:lvgl/src/core/lv_indev_scroll.c ****     }
 2619              		.loc 1 61 12 is_stmt 0 view .LVU862
 2620 003a 7378     		ldrb	r3, [r6, #1]	@ zero_extendqisi2
  61:lvgl/src/core/lv_indev_scroll.c ****     }
 2621              		.loc 1 61 11 view .LVU863
 2622 003c 13F0020F 		tst	r3, #2
 2623 0040 E8D0     		beq	.L172
 2624 0042 8DE0     		b	.L170
 2625              	.LVL281:
 2626              	.L174:
  70:lvgl/src/core/lv_indev_scroll.c ****         parent = lv_obj_get_parent(parent);
 2627              		.loc 1 70 61 view .LVU864
 2628 0044 1B12     		asrs	r3, r3, #8
  70:lvgl/src/core/lv_indev_scroll.c ****         parent = lv_obj_get_parent(parent);
 2629              		.loc 1 70 14 view .LVU865
ARM GAS  /var/folders/21/t9g5rlb91ys800n5npymflf80000gn/T//ccKy7Lvj.s 			page 75


 2630 0046 13FB08F3 		smulbb	r3, r3, r8
 2631 004a 0FFA83F8 		sxth	r8, r3
 2632              	.LVL282:
  71:lvgl/src/core/lv_indev_scroll.c ****     }
 2633              		.loc 1 71 9 is_stmt 1 view .LVU866
  71:lvgl/src/core/lv_indev_scroll.c ****     }
 2634              		.loc 1 71 18 is_stmt 0 view .LVU867
 2635 004e 2046     		mov	r0, r4
 2636 0050 FFF7FEFF 		bl	lv_obj_get_parent
 2637              	.LVL283:
 2638 0054 0446     		mov	r4, r0
 2639              	.LVL284:
 2640              	.L173:
  68:lvgl/src/core/lv_indev_scroll.c ****         angle += lv_obj_get_style_transform_angle(parent, 0);
 2641              		.loc 1 68 11 is_stmt 1 view .LVU868
 2642 0056 8CB1     		cbz	r4, .L190
  69:lvgl/src/core/lv_indev_scroll.c ****         zoom *= (lv_obj_get_style_transform_zoom(parent, 0) / 256);
 2643              		.loc 1 69 9 view .LVU869
 2644              	.LVL285:
 2645              	.LBB123:
 2646              	.LBI123:
  85:lvgl/src/core/lv_obj_style_gen.h **** {
 2647              		.loc 2 85 26 view .LVU870
 2648              	.LBB124:
  87:lvgl/src/core/lv_obj_style_gen.h ****     return (lv_coord_t)v.num;
 2649              		.loc 2 87 5 view .LVU871
  87:lvgl/src/core/lv_obj_style_gen.h ****     return (lv_coord_t)v.num;
 2650              		.loc 2 87 26 is_stmt 0 view .LVU872
 2651 0058 6E22     		movs	r2, #110
 2652 005a 0021     		movs	r1, #0
 2653 005c 2046     		mov	r0, r4
 2654 005e FFF7FEFF 		bl	lv_obj_get_style_prop
 2655              	.LVL286:
  88:lvgl/src/core/lv_obj_style_gen.h **** }
 2656              		.loc 2 88 5 is_stmt 1 view .LVU873
  88:lvgl/src/core/lv_obj_style_gen.h **** }
 2657              		.loc 2 88 5 is_stmt 0 view .LVU874
 2658              	.LBE124:
 2659              	.LBE123:
  69:lvgl/src/core/lv_indev_scroll.c ****         zoom *= (lv_obj_get_style_transform_zoom(parent, 0) / 256);
 2660              		.loc 1 69 15 view .LVU875
 2661 0062 15FA80F0 		uxtah	r0, r5, r0
 2662 0066 05B2     		sxth	r5, r0
 2663              	.LVL287:
  70:lvgl/src/core/lv_indev_scroll.c ****         parent = lv_obj_get_parent(parent);
 2664              		.loc 1 70 9 is_stmt 1 view .LVU876
 2665              	.LBB125:
 2666              	.LBI125:
  79:lvgl/src/core/lv_obj_style_gen.h **** {
 2667              		.loc 2 79 26 view .LVU877
 2668              	.LBB126:
  81:lvgl/src/core/lv_obj_style_gen.h ****     return (lv_coord_t)v.num;
 2669              		.loc 2 81 5 view .LVU878
  81:lvgl/src/core/lv_obj_style_gen.h ****     return (lv_coord_t)v.num;
 2670              		.loc 2 81 26 is_stmt 0 view .LVU879
 2671 0068 6D22     		movs	r2, #109
 2672 006a 0021     		movs	r1, #0
ARM GAS  /var/folders/21/t9g5rlb91ys800n5npymflf80000gn/T//ccKy7Lvj.s 			page 76


 2673 006c 2046     		mov	r0, r4
 2674 006e FFF7FEFF 		bl	lv_obj_get_style_prop
 2675              	.LVL288:
  82:lvgl/src/core/lv_obj_style_gen.h **** }
 2676              		.loc 2 82 5 is_stmt 1 view .LVU880
  82:lvgl/src/core/lv_obj_style_gen.h **** }
 2677              		.loc 2 82 12 is_stmt 0 view .LVU881
 2678 0072 03B2     		sxth	r3, r0
 2679              	.LVL289:
  82:lvgl/src/core/lv_obj_style_gen.h **** }
 2680              		.loc 2 82 12 view .LVU882
 2681              	.LBE126:
 2682              	.LBE125:
  70:lvgl/src/core/lv_indev_scroll.c ****         parent = lv_obj_get_parent(parent);
 2683              		.loc 1 70 61 view .LVU883
 2684 0074 002B     		cmp	r3, #0
 2685 0076 E5DA     		bge	.L174
 2686 0078 FF33     		adds	r3, r3, #255
 2687 007a E3E7     		b	.L174
 2688              	.L190:
  74:lvgl/src/core/lv_indev_scroll.c ****         angle = -angle;
 2689              		.loc 1 74 5 is_stmt 1 view .LVU884
  74:lvgl/src/core/lv_indev_scroll.c ****         angle = -angle;
 2690              		.loc 1 74 7 is_stmt 0 view .LVU885
 2691 007c 15B9     		cbnz	r5, .L176
  74:lvgl/src/core/lv_indev_scroll.c ****         angle = -angle;
 2692              		.loc 1 74 19 discriminator 1 view .LVU886
 2693 007e B8F5807F 		cmp	r8, #256
 2694 0082 10D0     		beq	.L177
 2695              	.L176:
 2696              	.LBB127:
  75:lvgl/src/core/lv_indev_scroll.c ****         zoom = (256 * 256) / zoom;
 2697              		.loc 1 75 9 is_stmt 1 view .LVU887
  75:lvgl/src/core/lv_indev_scroll.c ****         zoom = (256 * 256) / zoom;
 2698              		.loc 1 75 15 is_stmt 0 view .LVU888
 2699 0084 6942     		rsbs	r1, r5, #0
 2700              	.LVL290:
  76:lvgl/src/core/lv_indev_scroll.c ****         lv_point_t pivot = { 0, 0 };
 2701              		.loc 1 76 9 is_stmt 1 view .LVU889
  76:lvgl/src/core/lv_indev_scroll.c ****         lv_point_t pivot = { 0, 0 };
 2702              		.loc 1 76 28 is_stmt 0 view .LVU890
 2703 0086 4FF48032 		mov	r2, #65536
 2704 008a 92FBF8F2 		sdiv	r2, r2, r8
 2705              	.LVL291:
  77:lvgl/src/core/lv_indev_scroll.c ****         lv_point_transform(&proc->types.pointer.vect, angle, zoom, &pivot);
 2706              		.loc 1 77 9 is_stmt 1 view .LVU891
  77:lvgl/src/core/lv_indev_scroll.c ****         lv_point_transform(&proc->types.pointer.vect, angle, zoom, &pivot);
 2707              		.loc 1 77 20 is_stmt 0 view .LVU892
 2708 008e 0023     		movs	r3, #0
 2709 0090 ADF80830 		strh	r3, [sp, #8]	@ movhi
 2710 0094 ADF80A30 		strh	r3, [sp, #10]	@ movhi
  78:lvgl/src/core/lv_indev_scroll.c ****     }
 2711              		.loc 1 78 9 is_stmt 1 view .LVU893
 2712 0098 02AB     		add	r3, sp, #8
 2713 009a 12B2     		sxth	r2, r2
  78:lvgl/src/core/lv_indev_scroll.c ****     }
 2714              		.loc 1 78 9 is_stmt 0 view .LVU894
ARM GAS  /var/folders/21/t9g5rlb91ys800n5npymflf80000gn/T//ccKy7Lvj.s 			page 77


 2715 009c 09B2     		sxth	r1, r1
  78:lvgl/src/core/lv_indev_scroll.c ****     }
 2716              		.loc 1 78 9 view .LVU895
 2717 009e 06F11400 		add	r0, r6, #20
 2718 00a2 FFF7FEFF 		bl	lv_point_transform
 2719              	.LVL292:
 2720              	.L177:
  78:lvgl/src/core/lv_indev_scroll.c ****     }
 2721              		.loc 1 78 9 view .LVU896
 2722              	.LBE127:
  81:lvgl/src/core/lv_indev_scroll.c ****     lv_coord_t diff_y = 0;
 2723              		.loc 1 81 5 is_stmt 1 view .LVU897
  81:lvgl/src/core/lv_indev_scroll.c ****     lv_coord_t diff_y = 0;
 2724              		.loc 1 81 16 is_stmt 0 view .LVU898
 2725 00a6 0023     		movs	r3, #0
 2726 00a8 ADF80E30 		strh	r3, [sp, #14]	@ movhi
  82:lvgl/src/core/lv_indev_scroll.c ****     if(proc->types.pointer.scroll_dir == LV_DIR_HOR) {
 2727              		.loc 1 82 5 is_stmt 1 view .LVU899
