ARM GAS  /var/folders/21/t9g5rlb91ys800n5npymflf80000gn/T//ccodu31E.s 			page 1


   1              		.cpu cortex-m4
   2              		.arch armv7e-m
   3              		.fpu fpv4-sp-d16
   4              		.eabi_attribute 27, 1
   5              		.eabi_attribute 28, 1
   6              		.eabi_attribute 20, 1
   7              		.eabi_attribute 21, 1
   8              		.eabi_attribute 23, 3
   9              		.eabi_attribute 24, 1
  10              		.eabi_attribute 25, 1
  11              		.eabi_attribute 26, 1
  12              		.eabi_attribute 30, 1
  13              		.eabi_attribute 34, 1
  14              		.eabi_attribute 18, 4
  15              		.file	"lv_img.c"
  16              		.text
  17              	.Ltext0:
  18              		.cfi_sections	.debug_frame
  19              		.file 1 "lvgl/src/widgets/lv_img.c"
  20              		.section	.text.lv_img_get_transformed_size,"ax",%progbits
  21              		.align	1
  22              		.syntax unified
  23              		.thumb
  24              		.thumb_func
  26              	lv_img_get_transformed_size:
  27              	.LVL0:
  28              	.LFB186:
   1:lvgl/src/widgets/lv_img.c **** /**
   2:lvgl/src/widgets/lv_img.c ****  * @file lv_img.c
   3:lvgl/src/widgets/lv_img.c ****  *
   4:lvgl/src/widgets/lv_img.c ****  */
   5:lvgl/src/widgets/lv_img.c **** 
   6:lvgl/src/widgets/lv_img.c **** /*********************
   7:lvgl/src/widgets/lv_img.c ****  *      INCLUDES
   8:lvgl/src/widgets/lv_img.c ****  *********************/
   9:lvgl/src/widgets/lv_img.c **** #include "lv_img.h"
  10:lvgl/src/widgets/lv_img.c **** #if LV_USE_IMG != 0
  11:lvgl/src/widgets/lv_img.c **** 
  12:lvgl/src/widgets/lv_img.c **** #include "../core/lv_disp.h"
  13:lvgl/src/widgets/lv_img.c **** #include "../misc/lv_assert.h"
  14:lvgl/src/widgets/lv_img.c **** #include "../draw/lv_img_decoder.h"
  15:lvgl/src/widgets/lv_img.c **** #include "../misc/lv_fs.h"
  16:lvgl/src/widgets/lv_img.c **** #include "../misc/lv_txt.h"
  17:lvgl/src/widgets/lv_img.c **** #include "../misc/lv_math.h"
  18:lvgl/src/widgets/lv_img.c **** #include "../misc/lv_log.h"
  19:lvgl/src/widgets/lv_img.c **** 
  20:lvgl/src/widgets/lv_img.c **** /*********************
  21:lvgl/src/widgets/lv_img.c ****  *      DEFINES
  22:lvgl/src/widgets/lv_img.c ****  *********************/
  23:lvgl/src/widgets/lv_img.c **** #define MY_CLASS &lv_img_class
  24:lvgl/src/widgets/lv_img.c **** 
  25:lvgl/src/widgets/lv_img.c **** /**********************
  26:lvgl/src/widgets/lv_img.c ****  *      TYPEDEFS
  27:lvgl/src/widgets/lv_img.c ****  **********************/
  28:lvgl/src/widgets/lv_img.c **** 
  29:lvgl/src/widgets/lv_img.c **** /**********************
  30:lvgl/src/widgets/lv_img.c ****  *  STATIC PROTOTYPES
ARM GAS  /var/folders/21/t9g5rlb91ys800n5npymflf80000gn/T//ccodu31E.s 			page 2


  31:lvgl/src/widgets/lv_img.c ****  **********************/
  32:lvgl/src/widgets/lv_img.c **** static void lv_img_constructor(const lv_obj_class_t * class_p, lv_obj_t * obj);
  33:lvgl/src/widgets/lv_img.c **** static void lv_img_destructor(const lv_obj_class_t * class_p, lv_obj_t * obj);
  34:lvgl/src/widgets/lv_img.c **** static void lv_img_event(const lv_obj_class_t * class_p, lv_event_t * e);
  35:lvgl/src/widgets/lv_img.c **** static void draw_img(lv_event_t * e);
  36:lvgl/src/widgets/lv_img.c **** 
  37:lvgl/src/widgets/lv_img.c **** /**********************
  38:lvgl/src/widgets/lv_img.c ****  *  STATIC VARIABLES
  39:lvgl/src/widgets/lv_img.c ****  **********************/
  40:lvgl/src/widgets/lv_img.c **** const lv_obj_class_t lv_img_class = {
  41:lvgl/src/widgets/lv_img.c ****     .constructor_cb = lv_img_constructor,
  42:lvgl/src/widgets/lv_img.c ****     .destructor_cb = lv_img_destructor,
  43:lvgl/src/widgets/lv_img.c ****     .event_cb = lv_img_event,
  44:lvgl/src/widgets/lv_img.c ****     .width_def = LV_SIZE_CONTENT,
  45:lvgl/src/widgets/lv_img.c ****     .height_def = LV_SIZE_CONTENT,
  46:lvgl/src/widgets/lv_img.c ****     .instance_size = sizeof(lv_img_t),
  47:lvgl/src/widgets/lv_img.c ****     .base_class = &lv_obj_class
  48:lvgl/src/widgets/lv_img.c **** };
  49:lvgl/src/widgets/lv_img.c **** 
  50:lvgl/src/widgets/lv_img.c **** /**********************
  51:lvgl/src/widgets/lv_img.c ****  *      MACROS
  52:lvgl/src/widgets/lv_img.c ****  **********************/
  53:lvgl/src/widgets/lv_img.c **** 
  54:lvgl/src/widgets/lv_img.c **** /**********************
  55:lvgl/src/widgets/lv_img.c ****  *   GLOBAL FUNCTIONS
  56:lvgl/src/widgets/lv_img.c ****  **********************/
  57:lvgl/src/widgets/lv_img.c **** 
  58:lvgl/src/widgets/lv_img.c **** lv_obj_t * lv_img_create(lv_obj_t * parent)
  59:lvgl/src/widgets/lv_img.c **** {
  60:lvgl/src/widgets/lv_img.c ****     LV_LOG_INFO("begin");
  61:lvgl/src/widgets/lv_img.c ****     lv_obj_t * obj = lv_obj_class_create_obj(MY_CLASS, parent);
  62:lvgl/src/widgets/lv_img.c ****     lv_obj_class_init_obj(obj);
  63:lvgl/src/widgets/lv_img.c ****     return obj;
  64:lvgl/src/widgets/lv_img.c **** }
  65:lvgl/src/widgets/lv_img.c **** 
  66:lvgl/src/widgets/lv_img.c **** /*=====================
  67:lvgl/src/widgets/lv_img.c ****  * Setter functions
  68:lvgl/src/widgets/lv_img.c ****  *====================*/
  69:lvgl/src/widgets/lv_img.c **** 
  70:lvgl/src/widgets/lv_img.c **** void lv_img_set_src(lv_obj_t * obj, const void * src)
  71:lvgl/src/widgets/lv_img.c **** {
  72:lvgl/src/widgets/lv_img.c ****     LV_ASSERT_OBJ(obj, MY_CLASS);
  73:lvgl/src/widgets/lv_img.c **** 
  74:lvgl/src/widgets/lv_img.c ****     lv_obj_invalidate(obj);
  75:lvgl/src/widgets/lv_img.c **** 
  76:lvgl/src/widgets/lv_img.c ****     lv_img_src_t src_type = lv_img_src_get_type(src);
  77:lvgl/src/widgets/lv_img.c ****     lv_img_t * img = (lv_img_t *)obj;
  78:lvgl/src/widgets/lv_img.c **** 
  79:lvgl/src/widgets/lv_img.c **** #if LV_USE_LOG && LV_LOG_LEVEL >= LV_LOG_LEVEL_INFO
  80:lvgl/src/widgets/lv_img.c ****     switch(src_type) {
  81:lvgl/src/widgets/lv_img.c ****         case LV_IMG_SRC_FILE:
  82:lvgl/src/widgets/lv_img.c ****             LV_LOG_TRACE("lv_img_set_src: `LV_IMG_SRC_FILE` type found");
  83:lvgl/src/widgets/lv_img.c ****             break;
  84:lvgl/src/widgets/lv_img.c ****         case LV_IMG_SRC_VARIABLE:
  85:lvgl/src/widgets/lv_img.c ****             LV_LOG_TRACE("lv_img_set_src: `LV_IMG_SRC_VARIABLE` type found");
  86:lvgl/src/widgets/lv_img.c ****             break;
  87:lvgl/src/widgets/lv_img.c ****         case LV_IMG_SRC_SYMBOL:
ARM GAS  /var/folders/21/t9g5rlb91ys800n5npymflf80000gn/T//ccodu31E.s 			page 3


  88:lvgl/src/widgets/lv_img.c ****             LV_LOG_TRACE("lv_img_set_src: `LV_IMG_SRC_SYMBOL` type found");
  89:lvgl/src/widgets/lv_img.c ****             break;
  90:lvgl/src/widgets/lv_img.c ****         default:
  91:lvgl/src/widgets/lv_img.c ****             LV_LOG_WARN("lv_img_set_src: unknown type");
  92:lvgl/src/widgets/lv_img.c ****     }
  93:lvgl/src/widgets/lv_img.c **** #endif
  94:lvgl/src/widgets/lv_img.c **** 
  95:lvgl/src/widgets/lv_img.c ****     /*If the new source type is unknown free the memories of the old source*/
  96:lvgl/src/widgets/lv_img.c ****     if(src_type == LV_IMG_SRC_UNKNOWN) {
  97:lvgl/src/widgets/lv_img.c ****         LV_LOG_WARN("lv_img_set_src: unknown image type");
  98:lvgl/src/widgets/lv_img.c ****         if(img->src_type == LV_IMG_SRC_SYMBOL || img->src_type == LV_IMG_SRC_FILE) {
  99:lvgl/src/widgets/lv_img.c ****             lv_mem_free((void *)img->src);
 100:lvgl/src/widgets/lv_img.c ****         }
 101:lvgl/src/widgets/lv_img.c ****         img->src      = NULL;
 102:lvgl/src/widgets/lv_img.c ****         img->src_type = LV_IMG_SRC_UNKNOWN;
 103:lvgl/src/widgets/lv_img.c ****         return;
 104:lvgl/src/widgets/lv_img.c ****     }
 105:lvgl/src/widgets/lv_img.c **** 
 106:lvgl/src/widgets/lv_img.c ****     lv_img_header_t header;
 107:lvgl/src/widgets/lv_img.c ****     lv_img_decoder_get_info(src, &header);
 108:lvgl/src/widgets/lv_img.c **** 
 109:lvgl/src/widgets/lv_img.c ****     /*Save the source*/
 110:lvgl/src/widgets/lv_img.c ****     if(src_type == LV_IMG_SRC_VARIABLE) {
 111:lvgl/src/widgets/lv_img.c ****         /*If memory was allocated because of the previous `src_type` then free it*/
 112:lvgl/src/widgets/lv_img.c ****         if(img->src_type == LV_IMG_SRC_FILE || img->src_type == LV_IMG_SRC_SYMBOL) {
 113:lvgl/src/widgets/lv_img.c ****             lv_mem_free((void *)img->src);
 114:lvgl/src/widgets/lv_img.c ****         }
 115:lvgl/src/widgets/lv_img.c ****         img->src = src;
 116:lvgl/src/widgets/lv_img.c ****     }
 117:lvgl/src/widgets/lv_img.c ****     else if(src_type == LV_IMG_SRC_FILE || src_type == LV_IMG_SRC_SYMBOL) {
 118:lvgl/src/widgets/lv_img.c ****         /*If the new and the old src are the same then it was only a refresh.*/
 119:lvgl/src/widgets/lv_img.c ****         if(img->src != src) {
 120:lvgl/src/widgets/lv_img.c ****             const void * old_src = NULL;
 121:lvgl/src/widgets/lv_img.c ****             /*If memory was allocated because of the previous `src_type` then save its pointer and 
 122:lvgl/src/widgets/lv_img.c ****              *It's important to allocate first to be sure the new data will be on a new address.
 123:lvgl/src/widgets/lv_img.c ****              *Else `img_cache` wouldn't see the change in source.*/
 124:lvgl/src/widgets/lv_img.c ****             if(img->src_type == LV_IMG_SRC_FILE || img->src_type == LV_IMG_SRC_SYMBOL) {
 125:lvgl/src/widgets/lv_img.c ****                 old_src = img->src;
 126:lvgl/src/widgets/lv_img.c ****             }
 127:lvgl/src/widgets/lv_img.c ****             char * new_str = lv_mem_alloc(strlen(src) + 1);
 128:lvgl/src/widgets/lv_img.c ****             LV_ASSERT_MALLOC(new_str);
 129:lvgl/src/widgets/lv_img.c ****             if(new_str == NULL) return;
 130:lvgl/src/widgets/lv_img.c ****             strcpy(new_str, src);
 131:lvgl/src/widgets/lv_img.c ****             img->src = new_str;
 132:lvgl/src/widgets/lv_img.c **** 
 133:lvgl/src/widgets/lv_img.c ****             if(old_src) lv_mem_free((void *)old_src);
 134:lvgl/src/widgets/lv_img.c ****         }
 135:lvgl/src/widgets/lv_img.c ****     }
 136:lvgl/src/widgets/lv_img.c **** 
 137:lvgl/src/widgets/lv_img.c ****     if(src_type == LV_IMG_SRC_SYMBOL) {
 138:lvgl/src/widgets/lv_img.c ****         /*`lv_img_dsc_get_info` couldn't set the width and height of a font so set it here*/
 139:lvgl/src/widgets/lv_img.c ****         const lv_font_t * font = lv_obj_get_style_text_font(obj, LV_PART_MAIN);
 140:lvgl/src/widgets/lv_img.c ****         lv_coord_t letter_space = lv_obj_get_style_text_letter_space(obj, LV_PART_MAIN);
 141:lvgl/src/widgets/lv_img.c ****         lv_coord_t line_space = lv_obj_get_style_text_line_space(obj, LV_PART_MAIN);
 142:lvgl/src/widgets/lv_img.c ****         lv_point_t size;
 143:lvgl/src/widgets/lv_img.c ****         lv_txt_get_size(&size, src, font, letter_space, line_space, LV_COORD_MAX, LV_TEXT_FLAG_NONE
 144:lvgl/src/widgets/lv_img.c ****         header.w = size.x;
ARM GAS  /var/folders/21/t9g5rlb91ys800n5npymflf80000gn/T//ccodu31E.s 			page 4


 145:lvgl/src/widgets/lv_img.c ****         header.h = size.y;
 146:lvgl/src/widgets/lv_img.c ****     }
 147:lvgl/src/widgets/lv_img.c **** 
 148:lvgl/src/widgets/lv_img.c ****     img->src_type = src_type;
 149:lvgl/src/widgets/lv_img.c ****     img->w        = header.w;
 150:lvgl/src/widgets/lv_img.c ****     img->h        = header.h;
 151:lvgl/src/widgets/lv_img.c ****     img->cf       = header.cf;
 152:lvgl/src/widgets/lv_img.c ****     img->pivot.x = header.w / 2;
 153:lvgl/src/widgets/lv_img.c ****     img->pivot.y = header.h / 2;
 154:lvgl/src/widgets/lv_img.c **** 
 155:lvgl/src/widgets/lv_img.c ****     lv_obj_refresh_self_size(obj);
 156:lvgl/src/widgets/lv_img.c **** 
 157:lvgl/src/widgets/lv_img.c ****     /*Provide enough room for the rotated corners*/
 158:lvgl/src/widgets/lv_img.c ****     if(img->angle || img->zoom != LV_IMG_ZOOM_NONE) lv_obj_refresh_ext_draw_size(obj);
 159:lvgl/src/widgets/lv_img.c **** 
 160:lvgl/src/widgets/lv_img.c ****     lv_obj_invalidate(obj);
 161:lvgl/src/widgets/lv_img.c **** }
 162:lvgl/src/widgets/lv_img.c **** 
 163:lvgl/src/widgets/lv_img.c **** void lv_img_set_offset_x(lv_obj_t * obj, lv_coord_t x)
 164:lvgl/src/widgets/lv_img.c **** {
 165:lvgl/src/widgets/lv_img.c ****     LV_ASSERT_OBJ(obj, MY_CLASS);
 166:lvgl/src/widgets/lv_img.c **** 
 167:lvgl/src/widgets/lv_img.c ****     lv_img_t * img = (lv_img_t *)obj;
 168:lvgl/src/widgets/lv_img.c **** 
 169:lvgl/src/widgets/lv_img.c ****     img->offset.x = x;
 170:lvgl/src/widgets/lv_img.c ****     lv_obj_invalidate(obj);
 171:lvgl/src/widgets/lv_img.c **** }
 172:lvgl/src/widgets/lv_img.c **** 
 173:lvgl/src/widgets/lv_img.c **** void lv_img_set_offset_y(lv_obj_t * obj, lv_coord_t y)
 174:lvgl/src/widgets/lv_img.c **** {
 175:lvgl/src/widgets/lv_img.c ****     LV_ASSERT_OBJ(obj, MY_CLASS);
 176:lvgl/src/widgets/lv_img.c **** 
 177:lvgl/src/widgets/lv_img.c ****     lv_img_t * img = (lv_img_t *)obj;
 178:lvgl/src/widgets/lv_img.c **** 
 179:lvgl/src/widgets/lv_img.c ****     img->offset.y = y;
 180:lvgl/src/widgets/lv_img.c ****     lv_obj_invalidate(obj);
 181:lvgl/src/widgets/lv_img.c **** }
 182:lvgl/src/widgets/lv_img.c **** 
 183:lvgl/src/widgets/lv_img.c **** void lv_img_set_angle(lv_obj_t * obj, int16_t angle)
 184:lvgl/src/widgets/lv_img.c **** {
 185:lvgl/src/widgets/lv_img.c ****     while(angle >= 3600) angle -= 3600;
 186:lvgl/src/widgets/lv_img.c ****     while(angle < 0) angle += 3600;
 187:lvgl/src/widgets/lv_img.c **** 
 188:lvgl/src/widgets/lv_img.c ****     lv_img_t * img = (lv_img_t *)obj;
 189:lvgl/src/widgets/lv_img.c ****     if(angle == img->angle) return;
 190:lvgl/src/widgets/lv_img.c **** 
 191:lvgl/src/widgets/lv_img.c ****     lv_obj_update_layout(obj);  /*Be sure the object's size is calculated*/
 192:lvgl/src/widgets/lv_img.c ****     lv_coord_t w = lv_obj_get_width(obj);
 193:lvgl/src/widgets/lv_img.c ****     lv_coord_t h = lv_obj_get_height(obj);
 194:lvgl/src/widgets/lv_img.c ****     lv_area_t a;
 195:lvgl/src/widgets/lv_img.c ****     _lv_img_buf_get_transformed_area(&a, w, h, img->angle, img->zoom, &img->pivot);
 196:lvgl/src/widgets/lv_img.c ****     a.x1 += obj->coords.x1;
 197:lvgl/src/widgets/lv_img.c ****     a.y1 += obj->coords.y1;
 198:lvgl/src/widgets/lv_img.c ****     a.x2 += obj->coords.x1;
 199:lvgl/src/widgets/lv_img.c ****     a.y2 += obj->coords.y1;
 200:lvgl/src/widgets/lv_img.c ****     lv_obj_invalidate_area(obj, &a);
 201:lvgl/src/widgets/lv_img.c **** 
ARM GAS  /var/folders/21/t9g5rlb91ys800n5npymflf80000gn/T//ccodu31E.s 			page 5


 202:lvgl/src/widgets/lv_img.c ****     img->angle = angle;
 203:lvgl/src/widgets/lv_img.c **** 
 204:lvgl/src/widgets/lv_img.c ****     /* Disable invalidations because lv_obj_refresh_ext_draw_size would invalidate
 205:lvgl/src/widgets/lv_img.c ****      * the whole ext draw area */
 206:lvgl/src/widgets/lv_img.c ****     lv_disp_t * disp = lv_obj_get_disp(obj);
 207:lvgl/src/widgets/lv_img.c ****     lv_disp_enable_invalidation(disp, false);
 208:lvgl/src/widgets/lv_img.c ****     lv_obj_refresh_ext_draw_size(obj);
 209:lvgl/src/widgets/lv_img.c ****     lv_disp_enable_invalidation(disp, true);
 210:lvgl/src/widgets/lv_img.c **** 
 211:lvgl/src/widgets/lv_img.c ****     _lv_img_buf_get_transformed_area(&a, w, h, img->angle, img->zoom, &img->pivot);
 212:lvgl/src/widgets/lv_img.c ****     a.x1 += obj->coords.x1;
 213:lvgl/src/widgets/lv_img.c ****     a.y1 += obj->coords.y1;
 214:lvgl/src/widgets/lv_img.c ****     a.x2 += obj->coords.x1;
 215:lvgl/src/widgets/lv_img.c ****     a.y2 += obj->coords.y1;
 216:lvgl/src/widgets/lv_img.c ****     lv_obj_invalidate_area(obj, &a);
 217:lvgl/src/widgets/lv_img.c **** }
 218:lvgl/src/widgets/lv_img.c **** 
 219:lvgl/src/widgets/lv_img.c **** void lv_img_set_pivot(lv_obj_t * obj, lv_coord_t x, lv_coord_t y)
 220:lvgl/src/widgets/lv_img.c **** {
 221:lvgl/src/widgets/lv_img.c ****     lv_img_t * img = (lv_img_t *)obj;
 222:lvgl/src/widgets/lv_img.c ****     if(img->pivot.x == x && img->pivot.y == y) return;
 223:lvgl/src/widgets/lv_img.c **** 
 224:lvgl/src/widgets/lv_img.c ****     lv_obj_update_layout(obj);  /*Be sure the object's size is calculated*/
 225:lvgl/src/widgets/lv_img.c ****     lv_coord_t w = lv_obj_get_width(obj);
 226:lvgl/src/widgets/lv_img.c ****     lv_coord_t h = lv_obj_get_height(obj);
 227:lvgl/src/widgets/lv_img.c ****     lv_area_t a;
 228:lvgl/src/widgets/lv_img.c ****     _lv_img_buf_get_transformed_area(&a, w, h, img->angle, img->zoom, &img->pivot);
 229:lvgl/src/widgets/lv_img.c ****     a.x1 += obj->coords.x1;
 230:lvgl/src/widgets/lv_img.c ****     a.y1 += obj->coords.y1;
 231:lvgl/src/widgets/lv_img.c ****     a.x2 += obj->coords.x1;
 232:lvgl/src/widgets/lv_img.c ****     a.y2 += obj->coords.y1;
 233:lvgl/src/widgets/lv_img.c ****     lv_obj_invalidate_area(obj, &a);
 234:lvgl/src/widgets/lv_img.c **** 
 235:lvgl/src/widgets/lv_img.c ****     img->pivot.x = x;
 236:lvgl/src/widgets/lv_img.c ****     img->pivot.y = y;
 237:lvgl/src/widgets/lv_img.c **** 
 238:lvgl/src/widgets/lv_img.c ****     /* Disable invalidations because lv_obj_refresh_ext_draw_size would invalidate
 239:lvgl/src/widgets/lv_img.c ****      * the whole ext draw area */
 240:lvgl/src/widgets/lv_img.c ****     lv_disp_t * disp = lv_obj_get_disp(obj);
 241:lvgl/src/widgets/lv_img.c ****     lv_disp_enable_invalidation(disp, false);
 242:lvgl/src/widgets/lv_img.c ****     lv_obj_refresh_ext_draw_size(obj);
 243:lvgl/src/widgets/lv_img.c ****     lv_disp_enable_invalidation(disp, true);
 244:lvgl/src/widgets/lv_img.c **** 
 245:lvgl/src/widgets/lv_img.c ****     _lv_img_buf_get_transformed_area(&a, w, h, img->angle, img->zoom, &img->pivot);
 246:lvgl/src/widgets/lv_img.c ****     a.x1 += obj->coords.x1;
 247:lvgl/src/widgets/lv_img.c ****     a.y1 += obj->coords.y1;
 248:lvgl/src/widgets/lv_img.c ****     a.x2 += obj->coords.x1;
 249:lvgl/src/widgets/lv_img.c ****     a.y2 += obj->coords.y1;
 250:lvgl/src/widgets/lv_img.c ****     lv_obj_invalidate_area(obj, &a);
 251:lvgl/src/widgets/lv_img.c **** }
 252:lvgl/src/widgets/lv_img.c **** 
 253:lvgl/src/widgets/lv_img.c **** void lv_img_set_zoom(lv_obj_t * obj, uint16_t zoom)
 254:lvgl/src/widgets/lv_img.c **** {
 255:lvgl/src/widgets/lv_img.c ****     lv_img_t * img = (lv_img_t *)obj;
 256:lvgl/src/widgets/lv_img.c ****     if(zoom == img->zoom) return;
 257:lvgl/src/widgets/lv_img.c **** 
 258:lvgl/src/widgets/lv_img.c ****     if(zoom == 0) zoom = 1;
ARM GAS  /var/folders/21/t9g5rlb91ys800n5npymflf80000gn/T//ccodu31E.s 			page 6


 259:lvgl/src/widgets/lv_img.c **** 
 260:lvgl/src/widgets/lv_img.c ****     lv_obj_update_layout(obj);  /*Be sure the object's size is calculated*/
 261:lvgl/src/widgets/lv_img.c ****     lv_coord_t w = lv_obj_get_width(obj);
 262:lvgl/src/widgets/lv_img.c ****     lv_coord_t h = lv_obj_get_height(obj);
 263:lvgl/src/widgets/lv_img.c ****     lv_area_t a;
 264:lvgl/src/widgets/lv_img.c ****     _lv_img_buf_get_transformed_area(&a, w, h, img->angle, img->zoom >> 8, &img->pivot);
 265:lvgl/src/widgets/lv_img.c ****     a.x1 += obj->coords.x1 - 1;
 266:lvgl/src/widgets/lv_img.c ****     a.y1 += obj->coords.y1 - 1;
 267:lvgl/src/widgets/lv_img.c ****     a.x2 += obj->coords.x1 + 1;
 268:lvgl/src/widgets/lv_img.c ****     a.y2 += obj->coords.y1 + 1;
 269:lvgl/src/widgets/lv_img.c ****     lv_obj_invalidate_area(obj, &a);
 270:lvgl/src/widgets/lv_img.c **** 
 271:lvgl/src/widgets/lv_img.c ****     img->zoom = zoom;
 272:lvgl/src/widgets/lv_img.c **** 
 273:lvgl/src/widgets/lv_img.c ****     /* Disable invalidations because lv_obj_refresh_ext_draw_size would invalidate
 274:lvgl/src/widgets/lv_img.c ****      * the whole ext draw area */
 275:lvgl/src/widgets/lv_img.c ****     lv_disp_t * disp = lv_obj_get_disp(obj);
 276:lvgl/src/widgets/lv_img.c ****     lv_disp_enable_invalidation(disp, false);
 277:lvgl/src/widgets/lv_img.c ****     lv_obj_refresh_ext_draw_size(obj);
 278:lvgl/src/widgets/lv_img.c ****     lv_disp_enable_invalidation(disp, true);
 279:lvgl/src/widgets/lv_img.c **** 
 280:lvgl/src/widgets/lv_img.c ****     _lv_img_buf_get_transformed_area(&a, w, h, img->angle, img->zoom, &img->pivot);
 281:lvgl/src/widgets/lv_img.c ****     a.x1 += obj->coords.x1 - 1;
 282:lvgl/src/widgets/lv_img.c ****     a.y1 += obj->coords.y1 - 1;
 283:lvgl/src/widgets/lv_img.c ****     a.x2 += obj->coords.x1 + 1;
 284:lvgl/src/widgets/lv_img.c ****     a.y2 += obj->coords.y1 + 1;
 285:lvgl/src/widgets/lv_img.c ****     lv_obj_invalidate_area(obj, &a);
 286:lvgl/src/widgets/lv_img.c **** }
 287:lvgl/src/widgets/lv_img.c **** 
 288:lvgl/src/widgets/lv_img.c **** void lv_img_set_antialias(lv_obj_t * obj, bool antialias)
 289:lvgl/src/widgets/lv_img.c **** {
 290:lvgl/src/widgets/lv_img.c ****     lv_img_t * img = (lv_img_t *)obj;
 291:lvgl/src/widgets/lv_img.c ****     if(antialias == img->antialias) return;
 292:lvgl/src/widgets/lv_img.c **** 
 293:lvgl/src/widgets/lv_img.c ****     img->antialias = antialias;
 294:lvgl/src/widgets/lv_img.c ****     lv_obj_invalidate(obj);
 295:lvgl/src/widgets/lv_img.c **** }
 296:lvgl/src/widgets/lv_img.c **** 
 297:lvgl/src/widgets/lv_img.c **** void lv_img_set_size_mode(lv_obj_t * obj, lv_img_size_mode_t mode)
 298:lvgl/src/widgets/lv_img.c **** {
 299:lvgl/src/widgets/lv_img.c ****     LV_ASSERT_OBJ(obj, MY_CLASS);
 300:lvgl/src/widgets/lv_img.c ****     lv_img_t * img = (lv_img_t *)obj;
 301:lvgl/src/widgets/lv_img.c ****     if(mode == img->obj_size_mode) return;
 302:lvgl/src/widgets/lv_img.c **** 
 303:lvgl/src/widgets/lv_img.c ****     img->obj_size_mode = mode;
 304:lvgl/src/widgets/lv_img.c ****     lv_obj_invalidate(obj);
 305:lvgl/src/widgets/lv_img.c **** }
 306:lvgl/src/widgets/lv_img.c **** 
 307:lvgl/src/widgets/lv_img.c **** /*=====================
 308:lvgl/src/widgets/lv_img.c ****  * Getter functions
 309:lvgl/src/widgets/lv_img.c ****  *====================*/
 310:lvgl/src/widgets/lv_img.c **** 
 311:lvgl/src/widgets/lv_img.c **** const void * lv_img_get_src(lv_obj_t * obj)
 312:lvgl/src/widgets/lv_img.c **** {
 313:lvgl/src/widgets/lv_img.c ****     LV_ASSERT_OBJ(obj, MY_CLASS);
 314:lvgl/src/widgets/lv_img.c **** 
 315:lvgl/src/widgets/lv_img.c ****     lv_img_t * img = (lv_img_t *)obj;
ARM GAS  /var/folders/21/t9g5rlb91ys800n5npymflf80000gn/T//ccodu31E.s 			page 7


 316:lvgl/src/widgets/lv_img.c **** 
 317:lvgl/src/widgets/lv_img.c ****     return img->src;
 318:lvgl/src/widgets/lv_img.c **** }
 319:lvgl/src/widgets/lv_img.c **** 
 320:lvgl/src/widgets/lv_img.c **** lv_coord_t lv_img_get_offset_x(lv_obj_t * obj)
 321:lvgl/src/widgets/lv_img.c **** {
 322:lvgl/src/widgets/lv_img.c ****     LV_ASSERT_OBJ(obj, MY_CLASS);
 323:lvgl/src/widgets/lv_img.c **** 
 324:lvgl/src/widgets/lv_img.c ****     lv_img_t * img = (lv_img_t *)obj;
 325:lvgl/src/widgets/lv_img.c **** 
 326:lvgl/src/widgets/lv_img.c ****     return img->offset.x;
 327:lvgl/src/widgets/lv_img.c **** }
 328:lvgl/src/widgets/lv_img.c **** 
 329:lvgl/src/widgets/lv_img.c **** lv_coord_t lv_img_get_offset_y(lv_obj_t * obj)
 330:lvgl/src/widgets/lv_img.c **** {
 331:lvgl/src/widgets/lv_img.c ****     LV_ASSERT_OBJ(obj, MY_CLASS);
 332:lvgl/src/widgets/lv_img.c **** 
 333:lvgl/src/widgets/lv_img.c ****     lv_img_t * img = (lv_img_t *)obj;
 334:lvgl/src/widgets/lv_img.c **** 
 335:lvgl/src/widgets/lv_img.c ****     return img->offset.y;
 336:lvgl/src/widgets/lv_img.c **** }
 337:lvgl/src/widgets/lv_img.c **** 
 338:lvgl/src/widgets/lv_img.c **** uint16_t lv_img_get_angle(lv_obj_t * obj)
 339:lvgl/src/widgets/lv_img.c **** {
 340:lvgl/src/widgets/lv_img.c ****     LV_ASSERT_OBJ(obj, MY_CLASS);
 341:lvgl/src/widgets/lv_img.c **** 
 342:lvgl/src/widgets/lv_img.c ****     lv_img_t * img = (lv_img_t *)obj;
 343:lvgl/src/widgets/lv_img.c **** 
 344:lvgl/src/widgets/lv_img.c ****     return img->angle;
 345:lvgl/src/widgets/lv_img.c **** }
 346:lvgl/src/widgets/lv_img.c **** 
 347:lvgl/src/widgets/lv_img.c **** void lv_img_get_pivot(lv_obj_t * obj, lv_point_t * pivot)
 348:lvgl/src/widgets/lv_img.c **** {
 349:lvgl/src/widgets/lv_img.c ****     LV_ASSERT_OBJ(obj, MY_CLASS);
 350:lvgl/src/widgets/lv_img.c **** 
 351:lvgl/src/widgets/lv_img.c ****     lv_img_t * img = (lv_img_t *)obj;
 352:lvgl/src/widgets/lv_img.c **** 
 353:lvgl/src/widgets/lv_img.c ****     *pivot = img->pivot;
 354:lvgl/src/widgets/lv_img.c **** }
 355:lvgl/src/widgets/lv_img.c **** 
 356:lvgl/src/widgets/lv_img.c **** uint16_t lv_img_get_zoom(lv_obj_t * obj)
 357:lvgl/src/widgets/lv_img.c **** {
 358:lvgl/src/widgets/lv_img.c ****     LV_ASSERT_OBJ(obj, MY_CLASS);
 359:lvgl/src/widgets/lv_img.c **** 
 360:lvgl/src/widgets/lv_img.c ****     lv_img_t * img = (lv_img_t *)obj;
 361:lvgl/src/widgets/lv_img.c **** 
 362:lvgl/src/widgets/lv_img.c ****     return img->zoom;
 363:lvgl/src/widgets/lv_img.c **** }
 364:lvgl/src/widgets/lv_img.c **** 
 365:lvgl/src/widgets/lv_img.c **** bool lv_img_get_antialias(lv_obj_t * obj)
 366:lvgl/src/widgets/lv_img.c **** {
 367:lvgl/src/widgets/lv_img.c ****     LV_ASSERT_OBJ(obj, MY_CLASS);
 368:lvgl/src/widgets/lv_img.c **** 
 369:lvgl/src/widgets/lv_img.c ****     lv_img_t * img = (lv_img_t *)obj;
 370:lvgl/src/widgets/lv_img.c **** 
 371:lvgl/src/widgets/lv_img.c ****     return img->antialias ? true : false;
 372:lvgl/src/widgets/lv_img.c **** }
ARM GAS  /var/folders/21/t9g5rlb91ys800n5npymflf80000gn/T//ccodu31E.s 			page 8


 373:lvgl/src/widgets/lv_img.c **** 
 374:lvgl/src/widgets/lv_img.c **** lv_img_size_mode_t lv_img_get_size_mode(lv_obj_t * obj)
 375:lvgl/src/widgets/lv_img.c **** {
 376:lvgl/src/widgets/lv_img.c ****     LV_ASSERT_OBJ(obj, MY_CLASS);
 377:lvgl/src/widgets/lv_img.c ****     lv_img_t * img = (lv_img_t *)obj;
 378:lvgl/src/widgets/lv_img.c ****     return img->obj_size_mode;
 379:lvgl/src/widgets/lv_img.c **** }
 380:lvgl/src/widgets/lv_img.c **** 
 381:lvgl/src/widgets/lv_img.c **** /**********************
 382:lvgl/src/widgets/lv_img.c ****  *   STATIC FUNCTIONS
 383:lvgl/src/widgets/lv_img.c ****  **********************/
 384:lvgl/src/widgets/lv_img.c **** 
 385:lvgl/src/widgets/lv_img.c **** static void lv_img_constructor(const lv_obj_class_t * class_p, lv_obj_t * obj)
 386:lvgl/src/widgets/lv_img.c **** {
 387:lvgl/src/widgets/lv_img.c ****     LV_UNUSED(class_p);
 388:lvgl/src/widgets/lv_img.c ****     LV_TRACE_OBJ_CREATE("begin");
 389:lvgl/src/widgets/lv_img.c **** 
 390:lvgl/src/widgets/lv_img.c ****     lv_img_t * img = (lv_img_t *)obj;
 391:lvgl/src/widgets/lv_img.c **** 
 392:lvgl/src/widgets/lv_img.c ****     img->src       = NULL;
 393:lvgl/src/widgets/lv_img.c ****     img->src_type  = LV_IMG_SRC_UNKNOWN;
 394:lvgl/src/widgets/lv_img.c ****     img->cf        = LV_IMG_CF_UNKNOWN;
 395:lvgl/src/widgets/lv_img.c ****     img->w         = lv_obj_get_width(obj);
 396:lvgl/src/widgets/lv_img.c ****     img->h         = lv_obj_get_height(obj);
 397:lvgl/src/widgets/lv_img.c ****     img->angle = 0;
 398:lvgl/src/widgets/lv_img.c ****     img->zoom = LV_IMG_ZOOM_NONE;
 399:lvgl/src/widgets/lv_img.c ****     img->antialias = LV_COLOR_DEPTH > 8 ? 1 : 0;
 400:lvgl/src/widgets/lv_img.c ****     img->offset.x  = 0;
 401:lvgl/src/widgets/lv_img.c ****     img->offset.y  = 0;
 402:lvgl/src/widgets/lv_img.c ****     img->pivot.x = 0;
 403:lvgl/src/widgets/lv_img.c ****     img->pivot.y = 0;
 404:lvgl/src/widgets/lv_img.c ****     img->obj_size_mode = LV_IMG_SIZE_MODE_VIRTUAL;
 405:lvgl/src/widgets/lv_img.c **** 
 406:lvgl/src/widgets/lv_img.c ****     lv_obj_clear_flag(obj, LV_OBJ_FLAG_CLICKABLE);
 407:lvgl/src/widgets/lv_img.c ****     lv_obj_add_flag(obj, LV_OBJ_FLAG_ADV_HITTEST);
 408:lvgl/src/widgets/lv_img.c **** 
 409:lvgl/src/widgets/lv_img.c ****     LV_TRACE_OBJ_CREATE("finished");
 410:lvgl/src/widgets/lv_img.c **** }
 411:lvgl/src/widgets/lv_img.c **** 
 412:lvgl/src/widgets/lv_img.c **** static void lv_img_destructor(const lv_obj_class_t * class_p, lv_obj_t * obj)
 413:lvgl/src/widgets/lv_img.c **** {
 414:lvgl/src/widgets/lv_img.c ****     LV_UNUSED(class_p);
 415:lvgl/src/widgets/lv_img.c ****     lv_img_t * img = (lv_img_t *)obj;
 416:lvgl/src/widgets/lv_img.c ****     if(img->src_type == LV_IMG_SRC_FILE || img->src_type == LV_IMG_SRC_SYMBOL) {
 417:lvgl/src/widgets/lv_img.c ****         lv_mem_free((void *)img->src);
 418:lvgl/src/widgets/lv_img.c ****         img->src      = NULL;
 419:lvgl/src/widgets/lv_img.c ****         img->src_type = LV_IMG_SRC_UNKNOWN;
 420:lvgl/src/widgets/lv_img.c ****     }
 421:lvgl/src/widgets/lv_img.c **** }
 422:lvgl/src/widgets/lv_img.c **** 
 423:lvgl/src/widgets/lv_img.c **** static lv_point_t lv_img_get_transformed_size(lv_obj_t * obj)
 424:lvgl/src/widgets/lv_img.c **** {
  29              		.loc 1 424 1 view -0
  30              		.cfi_startproc
  31              		@ args = 0, pretend = 0, frame = 16
  32              		@ frame_needed = 0, uses_anonymous_args = 0
  33              		.loc 1 424 1 is_stmt 0 view .LVU1
ARM GAS  /var/folders/21/t9g5rlb91ys800n5npymflf80000gn/T//ccodu31E.s 			page 9


  34 0000 00B5     		push	{lr}
  35              	.LCFI0:
  36              		.cfi_def_cfa_offset 4
  37              		.cfi_offset 14, -4
  38 0002 87B0     		sub	sp, sp, #28
  39              	.LCFI1:
  40              		.cfi_def_cfa_offset 32
 425:lvgl/src/widgets/lv_img.c ****     lv_img_t * img = (lv_img_t *)obj;
  41              		.loc 1 425 5 is_stmt 1 view .LVU2
  42              	.LVL1:
 426:lvgl/src/widgets/lv_img.c **** 
 427:lvgl/src/widgets/lv_img.c ****     lv_area_t area_transform;
  43              		.loc 1 427 5 view .LVU3
 428:lvgl/src/widgets/lv_img.c ****     _lv_img_buf_get_transformed_area(&area_transform, img->w, img->h,
  44              		.loc 1 428 5 view .LVU4
 429:lvgl/src/widgets/lv_img.c ****                                      img->angle, img->zoom, &img->pivot);
  45              		.loc 1 429 61 is_stmt 0 view .LVU5
  46 0004 00F13203 		add	r3, r0, #50
 428:lvgl/src/widgets/lv_img.c ****     _lv_img_buf_get_transformed_area(&area_transform, img->w, img->h,
  47              		.loc 1 428 5 view .LVU6
  48 0008 0193     		str	r3, [sp, #4]
  49 000a C38E     		ldrh	r3, [r0, #54]
  50 000c 0093     		str	r3, [sp]
  51 000e B0F93030 		ldrsh	r3, [r0, #48]
  52 0012 B0F92E20 		ldrsh	r2, [r0, #46]
  53 0016 B0F92C10 		ldrsh	r1, [r0, #44]
  54 001a 03A8     		add	r0, sp, #12
  55              	.LVL2:
 428:lvgl/src/widgets/lv_img.c ****     _lv_img_buf_get_transformed_area(&area_transform, img->w, img->h,
  56              		.loc 1 428 5 view .LVU7
  57 001c FFF7FEFF 		bl	_lv_img_buf_get_transformed_area
  58              	.LVL3:
 430:lvgl/src/widgets/lv_img.c **** 
 431:lvgl/src/widgets/lv_img.c ****     return (lv_point_t) {
  59              		.loc 1 431 5 is_stmt 1 view .LVU8
  60              	.LBB44:
  61              	.LBI44:
  62              		.file 2 "lvgl/src/widgets/../core/../misc/../font/../misc/lv_area.h"
   1:lvgl/src/widgets/../core/../misc/../font/../misc/lv_area.h **** /**
   2:lvgl/src/widgets/../core/../misc/../font/../misc/lv_area.h ****  * @file lv_area.h
   3:lvgl/src/widgets/../core/../misc/../font/../misc/lv_area.h ****  *
   4:lvgl/src/widgets/../core/../misc/../font/../misc/lv_area.h ****  */
   5:lvgl/src/widgets/../core/../misc/../font/../misc/lv_area.h **** 
   6:lvgl/src/widgets/../core/../misc/../font/../misc/lv_area.h **** #ifndef LV_AREA_H
   7:lvgl/src/widgets/../core/../misc/../font/../misc/lv_area.h **** #define LV_AREA_H
   8:lvgl/src/widgets/../core/../misc/../font/../misc/lv_area.h **** 
   9:lvgl/src/widgets/../core/../misc/../font/../misc/lv_area.h **** #ifdef __cplusplus
  10:lvgl/src/widgets/../core/../misc/../font/../misc/lv_area.h **** extern "C" {
  11:lvgl/src/widgets/../core/../misc/../font/../misc/lv_area.h **** #endif
  12:lvgl/src/widgets/../core/../misc/../font/../misc/lv_area.h **** 
  13:lvgl/src/widgets/../core/../misc/../font/../misc/lv_area.h **** /*********************
  14:lvgl/src/widgets/../core/../misc/../font/../misc/lv_area.h ****  *      INCLUDES
  15:lvgl/src/widgets/../core/../misc/../font/../misc/lv_area.h ****  *********************/
  16:lvgl/src/widgets/../core/../misc/../font/../misc/lv_area.h **** #include "../lv_conf_internal.h"
  17:lvgl/src/widgets/../core/../misc/../font/../misc/lv_area.h **** #include <stdbool.h>
  18:lvgl/src/widgets/../core/../misc/../font/../misc/lv_area.h **** #include <stdint.h>
  19:lvgl/src/widgets/../core/../misc/../font/../misc/lv_area.h **** 
ARM GAS  /var/folders/21/t9g5rlb91ys800n5npymflf80000gn/T//ccodu31E.s 			page 10


  20:lvgl/src/widgets/../core/../misc/../font/../misc/lv_area.h **** /*********************
  21:lvgl/src/widgets/../core/../misc/../font/../misc/lv_area.h ****  *      DEFINES
  22:lvgl/src/widgets/../core/../misc/../font/../misc/lv_area.h ****  *********************/
  23:lvgl/src/widgets/../core/../misc/../font/../misc/lv_area.h **** 
  24:lvgl/src/widgets/../core/../misc/../font/../misc/lv_area.h **** #if LV_USE_LARGE_COORD
  25:lvgl/src/widgets/../core/../misc/../font/../misc/lv_area.h **** typedef int32_t lv_coord_t;
  26:lvgl/src/widgets/../core/../misc/../font/../misc/lv_area.h **** #else
  27:lvgl/src/widgets/../core/../misc/../font/../misc/lv_area.h **** typedef int16_t lv_coord_t;
  28:lvgl/src/widgets/../core/../misc/../font/../misc/lv_area.h **** #endif
  29:lvgl/src/widgets/../core/../misc/../font/../misc/lv_area.h **** 
  30:lvgl/src/widgets/../core/../misc/../font/../misc/lv_area.h **** /**********************
  31:lvgl/src/widgets/../core/../misc/../font/../misc/lv_area.h ****  *      TYPEDEFS
  32:lvgl/src/widgets/../core/../misc/../font/../misc/lv_area.h ****  **********************/
  33:lvgl/src/widgets/../core/../misc/../font/../misc/lv_area.h **** 
  34:lvgl/src/widgets/../core/../misc/../font/../misc/lv_area.h **** /**
  35:lvgl/src/widgets/../core/../misc/../font/../misc/lv_area.h ****  * Represents a point on the screen.
  36:lvgl/src/widgets/../core/../misc/../font/../misc/lv_area.h ****  */
  37:lvgl/src/widgets/../core/../misc/../font/../misc/lv_area.h **** typedef struct {
  38:lvgl/src/widgets/../core/../misc/../font/../misc/lv_area.h ****     lv_coord_t x;
  39:lvgl/src/widgets/../core/../misc/../font/../misc/lv_area.h ****     lv_coord_t y;
  40:lvgl/src/widgets/../core/../misc/../font/../misc/lv_area.h **** } lv_point_t;
  41:lvgl/src/widgets/../core/../misc/../font/../misc/lv_area.h **** 
  42:lvgl/src/widgets/../core/../misc/../font/../misc/lv_area.h **** /** Represents an area of the screen.*/
  43:lvgl/src/widgets/../core/../misc/../font/../misc/lv_area.h **** typedef struct {
  44:lvgl/src/widgets/../core/../misc/../font/../misc/lv_area.h ****     lv_coord_t x1;
  45:lvgl/src/widgets/../core/../misc/../font/../misc/lv_area.h ****     lv_coord_t y1;
  46:lvgl/src/widgets/../core/../misc/../font/../misc/lv_area.h ****     lv_coord_t x2;
  47:lvgl/src/widgets/../core/../misc/../font/../misc/lv_area.h ****     lv_coord_t y2;
  48:lvgl/src/widgets/../core/../misc/../font/../misc/lv_area.h **** } lv_area_t;
  49:lvgl/src/widgets/../core/../misc/../font/../misc/lv_area.h **** 
  50:lvgl/src/widgets/../core/../misc/../font/../misc/lv_area.h **** /** Alignments*/
  51:lvgl/src/widgets/../core/../misc/../font/../misc/lv_area.h **** enum {
  52:lvgl/src/widgets/../core/../misc/../font/../misc/lv_area.h ****     LV_ALIGN_DEFAULT = 0,
  53:lvgl/src/widgets/../core/../misc/../font/../misc/lv_area.h ****     LV_ALIGN_TOP_LEFT,
  54:lvgl/src/widgets/../core/../misc/../font/../misc/lv_area.h ****     LV_ALIGN_TOP_MID,
  55:lvgl/src/widgets/../core/../misc/../font/../misc/lv_area.h ****     LV_ALIGN_TOP_RIGHT,
  56:lvgl/src/widgets/../core/../misc/../font/../misc/lv_area.h ****     LV_ALIGN_BOTTOM_LEFT,
  57:lvgl/src/widgets/../core/../misc/../font/../misc/lv_area.h ****     LV_ALIGN_BOTTOM_MID,
  58:lvgl/src/widgets/../core/../misc/../font/../misc/lv_area.h ****     LV_ALIGN_BOTTOM_RIGHT,
  59:lvgl/src/widgets/../core/../misc/../font/../misc/lv_area.h ****     LV_ALIGN_LEFT_MID,
  60:lvgl/src/widgets/../core/../misc/../font/../misc/lv_area.h ****     LV_ALIGN_RIGHT_MID,
  61:lvgl/src/widgets/../core/../misc/../font/../misc/lv_area.h ****     LV_ALIGN_CENTER,
  62:lvgl/src/widgets/../core/../misc/../font/../misc/lv_area.h **** 
  63:lvgl/src/widgets/../core/../misc/../font/../misc/lv_area.h ****     LV_ALIGN_OUT_TOP_LEFT,
  64:lvgl/src/widgets/../core/../misc/../font/../misc/lv_area.h ****     LV_ALIGN_OUT_TOP_MID,
  65:lvgl/src/widgets/../core/../misc/../font/../misc/lv_area.h ****     LV_ALIGN_OUT_TOP_RIGHT,
  66:lvgl/src/widgets/../core/../misc/../font/../misc/lv_area.h ****     LV_ALIGN_OUT_BOTTOM_LEFT,
  67:lvgl/src/widgets/../core/../misc/../font/../misc/lv_area.h ****     LV_ALIGN_OUT_BOTTOM_MID,
  68:lvgl/src/widgets/../core/../misc/../font/../misc/lv_area.h ****     LV_ALIGN_OUT_BOTTOM_RIGHT,
  69:lvgl/src/widgets/../core/../misc/../font/../misc/lv_area.h ****     LV_ALIGN_OUT_LEFT_TOP,
  70:lvgl/src/widgets/../core/../misc/../font/../misc/lv_area.h ****     LV_ALIGN_OUT_LEFT_MID,
  71:lvgl/src/widgets/../core/../misc/../font/../misc/lv_area.h ****     LV_ALIGN_OUT_LEFT_BOTTOM,
  72:lvgl/src/widgets/../core/../misc/../font/../misc/lv_area.h ****     LV_ALIGN_OUT_RIGHT_TOP,
  73:lvgl/src/widgets/../core/../misc/../font/../misc/lv_area.h ****     LV_ALIGN_OUT_RIGHT_MID,
  74:lvgl/src/widgets/../core/../misc/../font/../misc/lv_area.h ****     LV_ALIGN_OUT_RIGHT_BOTTOM,
  75:lvgl/src/widgets/../core/../misc/../font/../misc/lv_area.h **** };
  76:lvgl/src/widgets/../core/../misc/../font/../misc/lv_area.h **** typedef uint8_t lv_align_t;
ARM GAS  /var/folders/21/t9g5rlb91ys800n5npymflf80000gn/T//ccodu31E.s 			page 11


  77:lvgl/src/widgets/../core/../misc/../font/../misc/lv_area.h **** 
  78:lvgl/src/widgets/../core/../misc/../font/../misc/lv_area.h **** enum {
  79:lvgl/src/widgets/../core/../misc/../font/../misc/lv_area.h ****     LV_DIR_NONE     = 0x00,
  80:lvgl/src/widgets/../core/../misc/../font/../misc/lv_area.h ****     LV_DIR_LEFT     = (1 << 0),
  81:lvgl/src/widgets/../core/../misc/../font/../misc/lv_area.h ****     LV_DIR_RIGHT    = (1 << 1),
  82:lvgl/src/widgets/../core/../misc/../font/../misc/lv_area.h ****     LV_DIR_TOP      = (1 << 2),
  83:lvgl/src/widgets/../core/../misc/../font/../misc/lv_area.h ****     LV_DIR_BOTTOM   = (1 << 3),
  84:lvgl/src/widgets/../core/../misc/../font/../misc/lv_area.h ****     LV_DIR_HOR      = LV_DIR_LEFT | LV_DIR_RIGHT,
  85:lvgl/src/widgets/../core/../misc/../font/../misc/lv_area.h ****     LV_DIR_VER      = LV_DIR_TOP | LV_DIR_BOTTOM,
  86:lvgl/src/widgets/../core/../misc/../font/../misc/lv_area.h ****     LV_DIR_ALL      = LV_DIR_HOR | LV_DIR_VER,
  87:lvgl/src/widgets/../core/../misc/../font/../misc/lv_area.h **** };
  88:lvgl/src/widgets/../core/../misc/../font/../misc/lv_area.h **** 
  89:lvgl/src/widgets/../core/../misc/../font/../misc/lv_area.h **** typedef uint8_t lv_dir_t;
  90:lvgl/src/widgets/../core/../misc/../font/../misc/lv_area.h **** 
  91:lvgl/src/widgets/../core/../misc/../font/../misc/lv_area.h **** /**********************
  92:lvgl/src/widgets/../core/../misc/../font/../misc/lv_area.h ****  * GLOBAL PROTOTYPES
  93:lvgl/src/widgets/../core/../misc/../font/../misc/lv_area.h ****  **********************/
  94:lvgl/src/widgets/../core/../misc/../font/../misc/lv_area.h **** 
  95:lvgl/src/widgets/../core/../misc/../font/../misc/lv_area.h **** /**
  96:lvgl/src/widgets/../core/../misc/../font/../misc/lv_area.h ****  * Initialize an area
  97:lvgl/src/widgets/../core/../misc/../font/../misc/lv_area.h ****  * @param area_p pointer to an area
  98:lvgl/src/widgets/../core/../misc/../font/../misc/lv_area.h ****  * @param x1 left coordinate of the area
  99:lvgl/src/widgets/../core/../misc/../font/../misc/lv_area.h ****  * @param y1 top coordinate of the area
 100:lvgl/src/widgets/../core/../misc/../font/../misc/lv_area.h ****  * @param x2 right coordinate of the area
 101:lvgl/src/widgets/../core/../misc/../font/../misc/lv_area.h ****  * @param y2 bottom coordinate of the area
 102:lvgl/src/widgets/../core/../misc/../font/../misc/lv_area.h ****  */
 103:lvgl/src/widgets/../core/../misc/../font/../misc/lv_area.h **** void lv_area_set(lv_area_t * area_p, lv_coord_t x1, lv_coord_t y1, lv_coord_t x2, lv_coord_t y2);
 104:lvgl/src/widgets/../core/../misc/../font/../misc/lv_area.h **** 
 105:lvgl/src/widgets/../core/../misc/../font/../misc/lv_area.h **** /**
 106:lvgl/src/widgets/../core/../misc/../font/../misc/lv_area.h ****  * Copy an area
 107:lvgl/src/widgets/../core/../misc/../font/../misc/lv_area.h ****  * @param dest pointer to the destination area
 108:lvgl/src/widgets/../core/../misc/../font/../misc/lv_area.h ****  * @param src pointer to the source area
 109:lvgl/src/widgets/../core/../misc/../font/../misc/lv_area.h ****  */
 110:lvgl/src/widgets/../core/../misc/../font/../misc/lv_area.h **** inline static void lv_area_copy(lv_area_t * dest, const lv_area_t * src)
 111:lvgl/src/widgets/../core/../misc/../font/../misc/lv_area.h **** {
 112:lvgl/src/widgets/../core/../misc/../font/../misc/lv_area.h ****     dest->x1 = src->x1;
 113:lvgl/src/widgets/../core/../misc/../font/../misc/lv_area.h ****     dest->y1 = src->y1;
 114:lvgl/src/widgets/../core/../misc/../font/../misc/lv_area.h ****     dest->x2 = src->x2;
 115:lvgl/src/widgets/../core/../misc/../font/../misc/lv_area.h ****     dest->y2 = src->y2;
 116:lvgl/src/widgets/../core/../misc/../font/../misc/lv_area.h **** }
 117:lvgl/src/widgets/../core/../misc/../font/../misc/lv_area.h **** 
 118:lvgl/src/widgets/../core/../misc/../font/../misc/lv_area.h **** /**
 119:lvgl/src/widgets/../core/../misc/../font/../misc/lv_area.h ****  * Get the width of an area
 120:lvgl/src/widgets/../core/../misc/../font/../misc/lv_area.h ****  * @param area_p pointer to an area
 121:lvgl/src/widgets/../core/../misc/../font/../misc/lv_area.h ****  * @return the width of the area (if x1 == x2 -> width = 1)
 122:lvgl/src/widgets/../core/../misc/../font/../misc/lv_area.h ****  */
 123:lvgl/src/widgets/../core/../misc/../font/../misc/lv_area.h **** static inline lv_coord_t lv_area_get_width(const lv_area_t * area_p)
  63              		.loc 2 123 26 view .LVU9
  64              	.LBB45:
 124:lvgl/src/widgets/../core/../misc/../font/../misc/lv_area.h **** {
 125:lvgl/src/widgets/../core/../misc/../font/../misc/lv_area.h ****     return (lv_coord_t)(area_p->x2 - area_p->x1 + 1);
  65              		.loc 2 125 5 view .LVU10
  66              		.loc 2 125 31 is_stmt 0 view .LVU11
  67 0020 BDF81020 		ldrh	r2, [sp, #16]
  68              		.loc 2 125 44 view .LVU12
  69 0024 BDF80C30 		ldrh	r3, [sp, #12]
  70              		.loc 2 125 36 view .LVU13
ARM GAS  /var/folders/21/t9g5rlb91ys800n5npymflf80000gn/T//ccodu31E.s 			page 12


  71 0028 D21A     		subs	r2, r2, r3
  72 002a 92B2     		uxth	r2, r2
  73              		.loc 2 125 49 view .LVU14
  74 002c 0132     		adds	r2, r2, #1
  75              	.LVL4:
  76              		.loc 2 125 49 view .LVU15
  77              	.LBE45:
  78              	.LBE44:
  79              	.LBB46:
  80              	.LBI46:
 126:lvgl/src/widgets/../core/../misc/../font/../misc/lv_area.h **** }
 127:lvgl/src/widgets/../core/../misc/../font/../misc/lv_area.h **** 
 128:lvgl/src/widgets/../core/../misc/../font/../misc/lv_area.h **** /**
 129:lvgl/src/widgets/../core/../misc/../font/../misc/lv_area.h ****  * Get the height of an area
 130:lvgl/src/widgets/../core/../misc/../font/../misc/lv_area.h ****  * @param area_p pointer to an area
 131:lvgl/src/widgets/../core/../misc/../font/../misc/lv_area.h ****  * @return the height of the area (if y1 == y2 -> height = 1)
 132:lvgl/src/widgets/../core/../misc/../font/../misc/lv_area.h ****  */
 133:lvgl/src/widgets/../core/../misc/../font/../misc/lv_area.h **** static inline lv_coord_t lv_area_get_height(const lv_area_t * area_p)
  81              		.loc 2 133 26 is_stmt 1 view .LVU16
  82              	.LBB47:
 134:lvgl/src/widgets/../core/../misc/../font/../misc/lv_area.h **** {
 135:lvgl/src/widgets/../core/../misc/../font/../misc/lv_area.h ****     return (lv_coord_t)(area_p->y2 - area_p->y1 + 1);
  83              		.loc 2 135 5 view .LVU17
  84              		.loc 2 135 31 is_stmt 0 view .LVU18
  85 002e BDF81230 		ldrh	r3, [sp, #18]
  86              		.loc 2 135 44 view .LVU19
  87 0032 BDF80E10 		ldrh	r1, [sp, #14]
  88              		.loc 2 135 36 view .LVU20
  89 0036 5B1A     		subs	r3, r3, r1
  90 0038 9BB2     		uxth	r3, r3
  91              		.loc 2 135 49 view .LVU21
  92 003a 0133     		adds	r3, r3, #1
  93              	.LVL5:
  94              		.loc 2 135 49 view .LVU22
  95              	.LBE47:
  96              	.LBE46:
  97              		.loc 1 431 12 view .LVU23
  98 003c ADF81420 		strh	r2, [sp, #20]	@ movhi
  99 0040 ADF81630 		strh	r3, [sp, #22]	@ movhi
 100 0044 0020     		movs	r0, #0
 101 0046 93B2     		uxth	r3, r2
 102 0048 63F30F00 		bfi	r0, r3, #0, #16
 103 004c BDF81630 		ldrh	r3, [sp, #22]
 104 0050 63F31F40 		bfi	r0, r3, #16, #16
 432:lvgl/src/widgets/lv_img.c ****         lv_area_get_width(&area_transform), lv_area_get_height(&area_transform)
 433:lvgl/src/widgets/lv_img.c ****     };
 434:lvgl/src/widgets/lv_img.c **** }
 105              		.loc 1 434 1 view .LVU24
 106 0054 07B0     		add	sp, sp, #28
 107              	.LCFI2:
 108              		.cfi_def_cfa_offset 4
 109              		@ sp needed
 110 0056 5DF804FB 		ldr	pc, [sp], #4
 111              		.cfi_endproc
 112              	.LFE186:
 114              		.section	.text.draw_img,"ax",%progbits
 115              		.align	1
ARM GAS  /var/folders/21/t9g5rlb91ys800n5npymflf80000gn/T//ccodu31E.s 			page 13


 116              		.syntax unified
 117              		.thumb
 118              		.thumb_func
 120              	draw_img:
 121              	.LVL6:
 122              	.LFB188:
 435:lvgl/src/widgets/lv_img.c **** 
 436:lvgl/src/widgets/lv_img.c **** static void lv_img_event(const lv_obj_class_t * class_p, lv_event_t * e)
 437:lvgl/src/widgets/lv_img.c **** {
 438:lvgl/src/widgets/lv_img.c ****     LV_UNUSED(class_p);
 439:lvgl/src/widgets/lv_img.c **** 
 440:lvgl/src/widgets/lv_img.c ****     lv_event_code_t code = lv_event_get_code(e);
 441:lvgl/src/widgets/lv_img.c **** 
 442:lvgl/src/widgets/lv_img.c ****     /*Ancestor events will be called during drawing*/
 443:lvgl/src/widgets/lv_img.c ****     if(code != LV_EVENT_DRAW_MAIN && code != LV_EVENT_DRAW_POST) {
 444:lvgl/src/widgets/lv_img.c ****         /*Call the ancestor's event handler*/
 445:lvgl/src/widgets/lv_img.c ****         lv_res_t res = lv_obj_event_base(MY_CLASS, e);
 446:lvgl/src/widgets/lv_img.c ****         if(res != LV_RES_OK) return;
 447:lvgl/src/widgets/lv_img.c ****     }
 448:lvgl/src/widgets/lv_img.c **** 
 449:lvgl/src/widgets/lv_img.c ****     lv_obj_t * obj = lv_event_get_target(e);
 450:lvgl/src/widgets/lv_img.c ****     lv_img_t * img = (lv_img_t *)obj;
 451:lvgl/src/widgets/lv_img.c **** 
 452:lvgl/src/widgets/lv_img.c ****     if(code == LV_EVENT_STYLE_CHANGED) {
 453:lvgl/src/widgets/lv_img.c ****         /*Refresh the file name to refresh the symbol text size*/
 454:lvgl/src/widgets/lv_img.c ****         if(img->src_type == LV_IMG_SRC_SYMBOL) {
 455:lvgl/src/widgets/lv_img.c ****             lv_img_set_src(obj, img->src);
 456:lvgl/src/widgets/lv_img.c ****         }
 457:lvgl/src/widgets/lv_img.c ****         else {
 458:lvgl/src/widgets/lv_img.c ****             /*With transformation it might change*/
 459:lvgl/src/widgets/lv_img.c ****             lv_obj_refresh_ext_draw_size(obj);
 460:lvgl/src/widgets/lv_img.c ****         }
 461:lvgl/src/widgets/lv_img.c ****     }
 462:lvgl/src/widgets/lv_img.c ****     else if(code == LV_EVENT_REFR_EXT_DRAW_SIZE) {
 463:lvgl/src/widgets/lv_img.c **** 
 464:lvgl/src/widgets/lv_img.c ****         lv_coord_t * s = lv_event_get_param(e);
 465:lvgl/src/widgets/lv_img.c **** 
 466:lvgl/src/widgets/lv_img.c ****         /*If the image has angle provide enough room for the rotated corners*/
 467:lvgl/src/widgets/lv_img.c ****         if(img->angle || img->zoom != LV_IMG_ZOOM_NONE) {
 468:lvgl/src/widgets/lv_img.c ****             lv_area_t a;
 469:lvgl/src/widgets/lv_img.c ****             lv_coord_t w = lv_obj_get_width(obj);
 470:lvgl/src/widgets/lv_img.c ****             lv_coord_t h = lv_obj_get_height(obj);
 471:lvgl/src/widgets/lv_img.c ****             _lv_img_buf_get_transformed_area(&a, w, h, img->angle, img->zoom, &img->pivot);
 472:lvgl/src/widgets/lv_img.c ****             *s = LV_MAX(*s, -a.x1);
 473:lvgl/src/widgets/lv_img.c ****             *s = LV_MAX(*s, -a.y1);
 474:lvgl/src/widgets/lv_img.c ****             *s = LV_MAX(*s, a.x2 - w);
 475:lvgl/src/widgets/lv_img.c ****             *s = LV_MAX(*s, a.y2 - h);
 476:lvgl/src/widgets/lv_img.c ****         }
 477:lvgl/src/widgets/lv_img.c ****     }
 478:lvgl/src/widgets/lv_img.c ****     else if(code == LV_EVENT_HIT_TEST) {
 479:lvgl/src/widgets/lv_img.c ****         lv_hit_test_info_t * info = lv_event_get_param(e);
 480:lvgl/src/widgets/lv_img.c **** 
 481:lvgl/src/widgets/lv_img.c ****         /*If the object is exactly image sized (not cropped, not mosaic) and transformed
 482:lvgl/src/widgets/lv_img.c ****          *perform hit test on its transformed area*/
 483:lvgl/src/widgets/lv_img.c ****         if(img->w == lv_obj_get_width(obj) && img->h == lv_obj_get_height(obj) &&
 484:lvgl/src/widgets/lv_img.c ****            (img->zoom != LV_IMG_ZOOM_NONE || img->angle != 0 || img->pivot.x != img->w / 2 || img->
 485:lvgl/src/widgets/lv_img.c **** 
ARM GAS  /var/folders/21/t9g5rlb91ys800n5npymflf80000gn/T//ccodu31E.s 			page 14


 486:lvgl/src/widgets/lv_img.c ****             lv_coord_t w = lv_obj_get_width(obj);
 487:lvgl/src/widgets/lv_img.c ****             lv_coord_t h = lv_obj_get_height(obj);
 488:lvgl/src/widgets/lv_img.c ****             lv_area_t coords;
 489:lvgl/src/widgets/lv_img.c ****             _lv_img_buf_get_transformed_area(&coords, w, h, img->angle, img->zoom, &img->pivot);
 490:lvgl/src/widgets/lv_img.c ****             coords.x1 += obj->coords.x1;
 491:lvgl/src/widgets/lv_img.c ****             coords.y1 += obj->coords.y1;
 492:lvgl/src/widgets/lv_img.c ****             coords.x2 += obj->coords.x1;
 493:lvgl/src/widgets/lv_img.c ****             coords.y2 += obj->coords.y1;
 494:lvgl/src/widgets/lv_img.c **** 
 495:lvgl/src/widgets/lv_img.c ****             info->res = _lv_area_is_point_on(&coords, info->point, 0);
 496:lvgl/src/widgets/lv_img.c ****         }
 497:lvgl/src/widgets/lv_img.c ****         else {
 498:lvgl/src/widgets/lv_img.c ****             lv_area_t a;
 499:lvgl/src/widgets/lv_img.c ****             lv_obj_get_click_area(obj, &a);
 500:lvgl/src/widgets/lv_img.c ****             info->res = _lv_area_is_point_on(&a, info->point, 0);
 501:lvgl/src/widgets/lv_img.c ****         }
 502:lvgl/src/widgets/lv_img.c ****     }
 503:lvgl/src/widgets/lv_img.c ****     else if(code == LV_EVENT_GET_SELF_SIZE) {
 504:lvgl/src/widgets/lv_img.c ****         lv_point_t * p = lv_event_get_param(e);
 505:lvgl/src/widgets/lv_img.c ****         if(img->obj_size_mode == LV_IMG_SIZE_MODE_REAL) {
 506:lvgl/src/widgets/lv_img.c ****             *p = lv_img_get_transformed_size(obj);
 507:lvgl/src/widgets/lv_img.c ****         }
 508:lvgl/src/widgets/lv_img.c ****         else {
 509:lvgl/src/widgets/lv_img.c ****             p->x = img->w;
 510:lvgl/src/widgets/lv_img.c ****             p->y = img->h;
 511:lvgl/src/widgets/lv_img.c ****         }
 512:lvgl/src/widgets/lv_img.c ****     }
 513:lvgl/src/widgets/lv_img.c ****     else if(code == LV_EVENT_DRAW_MAIN || code == LV_EVENT_DRAW_POST || code == LV_EVENT_COVER_CHEC
 514:lvgl/src/widgets/lv_img.c ****         draw_img(e);
 515:lvgl/src/widgets/lv_img.c ****     }
 516:lvgl/src/widgets/lv_img.c **** }
 517:lvgl/src/widgets/lv_img.c **** 
 518:lvgl/src/widgets/lv_img.c **** static void draw_img(lv_event_t * e)
 519:lvgl/src/widgets/lv_img.c **** {
 123              		.loc 1 519 1 is_stmt 1 view -0
 124              		.cfi_startproc
 125              		@ args = 0, pretend = 0, frame = 104
 126              		@ frame_needed = 0, uses_anonymous_args = 0
 127              		.loc 1 519 1 is_stmt 0 view .LVU26
 128 0000 2DE9F04F 		push	{r4, r5, r6, r7, r8, r9, r10, fp, lr}
 129              	.LCFI3:
 130              		.cfi_def_cfa_offset 36
 131              		.cfi_offset 4, -36
 132              		.cfi_offset 5, -32
 133              		.cfi_offset 6, -28
 134              		.cfi_offset 7, -24
 135              		.cfi_offset 8, -20
 136              		.cfi_offset 9, -16
 137              		.cfi_offset 10, -12
 138              		.cfi_offset 11, -8
 139              		.cfi_offset 14, -4
 140 0004 9DB0     		sub	sp, sp, #116
 141              	.LCFI4:
 142              		.cfi_def_cfa_offset 152
 143 0006 0646     		mov	r6, r0
 520:lvgl/src/widgets/lv_img.c ****     lv_event_code_t code = lv_event_get_code(e);
 144              		.loc 1 520 5 is_stmt 1 view .LVU27
ARM GAS  /var/folders/21/t9g5rlb91ys800n5npymflf80000gn/T//ccodu31E.s 			page 15


 145              		.loc 1 520 28 is_stmt 0 view .LVU28
 146 0008 FFF7FEFF 		bl	lv_event_get_code
 147              	.LVL7:
 148              		.loc 1 520 28 view .LVU29
 149 000c 0546     		mov	r5, r0
 150              	.LVL8:
 521:lvgl/src/widgets/lv_img.c ****     lv_obj_t * obj = lv_event_get_target(e);
 151              		.loc 1 521 5 is_stmt 1 view .LVU30
 152              		.loc 1 521 22 is_stmt 0 view .LVU31
 153 000e 3046     		mov	r0, r6
 154 0010 FFF7FEFF 		bl	lv_event_get_target
 155              	.LVL9:
 156 0014 0446     		mov	r4, r0
 157              	.LVL10:
 522:lvgl/src/widgets/lv_img.c ****     lv_img_t * img = (lv_img_t *)obj;
 158              		.loc 1 522 5 is_stmt 1 view .LVU32
 523:lvgl/src/widgets/lv_img.c ****     if(code == LV_EVENT_COVER_CHECK) {
 159              		.loc 1 523 5 view .LVU33
 160              		.loc 1 523 7 is_stmt 0 view .LVU34
 161 0016 122D     		cmp	r5, #18
 162 0018 06D0     		beq	.L31
 524:lvgl/src/widgets/lv_img.c ****         lv_cover_check_info_t * info = lv_event_get_param(e);
 525:lvgl/src/widgets/lv_img.c ****         if(info->res == LV_COVER_RES_MASKED) return;
 526:lvgl/src/widgets/lv_img.c ****         if(img->src_type == LV_IMG_SRC_UNKNOWN || img->src_type == LV_IMG_SRC_SYMBOL) {
 527:lvgl/src/widgets/lv_img.c ****             info->res = LV_COVER_RES_NOT_COVER;
 528:lvgl/src/widgets/lv_img.c ****             return;
 529:lvgl/src/widgets/lv_img.c ****         }
 530:lvgl/src/widgets/lv_img.c **** 
 531:lvgl/src/widgets/lv_img.c ****         /*Non true color format might have "holes"*/
 532:lvgl/src/widgets/lv_img.c ****         if(img->cf != LV_IMG_CF_TRUE_COLOR && img->cf != LV_IMG_CF_RAW) {
 533:lvgl/src/widgets/lv_img.c ****             info->res = LV_COVER_RES_NOT_COVER;
 534:lvgl/src/widgets/lv_img.c ****             return;
 535:lvgl/src/widgets/lv_img.c ****         }
 536:lvgl/src/widgets/lv_img.c **** 
 537:lvgl/src/widgets/lv_img.c ****         /*With not LV_OPA_COVER images can't cover an area */
 538:lvgl/src/widgets/lv_img.c ****         if(lv_obj_get_style_img_opa(obj, LV_PART_MAIN) != LV_OPA_COVER) {
 539:lvgl/src/widgets/lv_img.c ****             info->res = LV_COVER_RES_NOT_COVER;
 540:lvgl/src/widgets/lv_img.c ****             return;
 541:lvgl/src/widgets/lv_img.c ****         }
 542:lvgl/src/widgets/lv_img.c **** 
 543:lvgl/src/widgets/lv_img.c ****         if(img->angle != 0) {
 544:lvgl/src/widgets/lv_img.c ****             info->res = LV_COVER_RES_NOT_COVER;
 545:lvgl/src/widgets/lv_img.c ****             return;
 546:lvgl/src/widgets/lv_img.c ****         }
 547:lvgl/src/widgets/lv_img.c **** 
 548:lvgl/src/widgets/lv_img.c ****         const lv_area_t * clip_area = lv_event_get_param(e);
 549:lvgl/src/widgets/lv_img.c ****         if(img->zoom == LV_IMG_ZOOM_NONE) {
 550:lvgl/src/widgets/lv_img.c ****             if(_lv_area_is_in(clip_area, &obj->coords, 0) == false) {
 551:lvgl/src/widgets/lv_img.c ****                 info->res = LV_COVER_RES_NOT_COVER;
 552:lvgl/src/widgets/lv_img.c ****                 return;
 553:lvgl/src/widgets/lv_img.c ****             }
 554:lvgl/src/widgets/lv_img.c ****         }
 555:lvgl/src/widgets/lv_img.c ****         else {
 556:lvgl/src/widgets/lv_img.c ****             lv_area_t a;
 557:lvgl/src/widgets/lv_img.c ****             _lv_img_buf_get_transformed_area(&a, lv_obj_get_width(obj), lv_obj_get_height(obj), 0, 
 558:lvgl/src/widgets/lv_img.c ****             a.x1 += obj->coords.x1;
 559:lvgl/src/widgets/lv_img.c ****             a.y1 += obj->coords.y1;
ARM GAS  /var/folders/21/t9g5rlb91ys800n5npymflf80000gn/T//ccodu31E.s 			page 16


 560:lvgl/src/widgets/lv_img.c ****             a.x2 += obj->coords.x1;
 561:lvgl/src/widgets/lv_img.c ****             a.y2 += obj->coords.y1;
 562:lvgl/src/widgets/lv_img.c **** 
 563:lvgl/src/widgets/lv_img.c ****             if(_lv_area_is_in(clip_area, &a, 0) == false) {
 564:lvgl/src/widgets/lv_img.c ****                 info->res = LV_COVER_RES_NOT_COVER;
 565:lvgl/src/widgets/lv_img.c ****                 return;
 566:lvgl/src/widgets/lv_img.c ****             }
 567:lvgl/src/widgets/lv_img.c ****         }
 568:lvgl/src/widgets/lv_img.c ****     }
 569:lvgl/src/widgets/lv_img.c ****     else if(code == LV_EVENT_DRAW_MAIN || code == LV_EVENT_DRAW_POST) {
 163              		.loc 1 569 10 is_stmt 1 view .LVU35
 164              		.loc 1 569 12 is_stmt 0 view .LVU36
 165 001a 152D     		cmp	r5, #21
 166 001c 70D0     		beq	.L12
 167              		.loc 1 569 40 discriminator 1 view .LVU37
 168 001e 182D     		cmp	r5, #24
 169 0020 6ED0     		beq	.L12
 170              	.LVL11:
 171              	.L3:
 570:lvgl/src/widgets/lv_img.c **** 
 571:lvgl/src/widgets/lv_img.c ****         lv_coord_t obj_w = lv_obj_get_width(obj);
 572:lvgl/src/widgets/lv_img.c ****         lv_coord_t obj_h = lv_obj_get_height(obj);
 573:lvgl/src/widgets/lv_img.c **** 
 574:lvgl/src/widgets/lv_img.c ****         lv_coord_t border_width = lv_obj_get_style_border_width(obj, LV_PART_MAIN);
 575:lvgl/src/widgets/lv_img.c ****         lv_coord_t pleft = lv_obj_get_style_pad_left(obj, LV_PART_MAIN) + border_width;
 576:lvgl/src/widgets/lv_img.c ****         lv_coord_t pright = lv_obj_get_style_pad_right(obj, LV_PART_MAIN) + border_width;
 577:lvgl/src/widgets/lv_img.c ****         lv_coord_t ptop = lv_obj_get_style_pad_top(obj, LV_PART_MAIN) + border_width;
 578:lvgl/src/widgets/lv_img.c ****         lv_coord_t pbottom = lv_obj_get_style_pad_bottom(obj, LV_PART_MAIN) + border_width;
 579:lvgl/src/widgets/lv_img.c **** 
 580:lvgl/src/widgets/lv_img.c ****         lv_point_t bg_pivot;
 581:lvgl/src/widgets/lv_img.c ****         bg_pivot.x = img->pivot.x + pleft;
 582:lvgl/src/widgets/lv_img.c ****         bg_pivot.y = img->pivot.y + ptop;
 583:lvgl/src/widgets/lv_img.c ****         lv_area_t bg_coords;
 584:lvgl/src/widgets/lv_img.c **** 
 585:lvgl/src/widgets/lv_img.c ****         if(img->obj_size_mode == LV_IMG_SIZE_MODE_REAL) {
 586:lvgl/src/widgets/lv_img.c ****             /*Object size equals to transformed image size*/
 587:lvgl/src/widgets/lv_img.c ****             lv_obj_get_coords(obj, &bg_coords);
 588:lvgl/src/widgets/lv_img.c ****         }
 589:lvgl/src/widgets/lv_img.c ****         else {
 590:lvgl/src/widgets/lv_img.c ****             _lv_img_buf_get_transformed_area(&bg_coords, obj_w, obj_h,
 591:lvgl/src/widgets/lv_img.c ****                                              img->angle, img->zoom, &bg_pivot);
 592:lvgl/src/widgets/lv_img.c **** 
 593:lvgl/src/widgets/lv_img.c ****             /*Modify the coordinates to draw the background for the rotated and scaled coordinates*
 594:lvgl/src/widgets/lv_img.c ****             bg_coords.x1 += obj->coords.x1;
 595:lvgl/src/widgets/lv_img.c ****             bg_coords.y1 += obj->coords.y1;
 596:lvgl/src/widgets/lv_img.c ****             bg_coords.x2 += obj->coords.x1;
 597:lvgl/src/widgets/lv_img.c ****             bg_coords.y2 += obj->coords.y1;
 598:lvgl/src/widgets/lv_img.c ****         }
 599:lvgl/src/widgets/lv_img.c **** 
 600:lvgl/src/widgets/lv_img.c ****         lv_area_t ori_coords;
 601:lvgl/src/widgets/lv_img.c ****         lv_area_copy(&ori_coords, &obj->coords);
 602:lvgl/src/widgets/lv_img.c ****         lv_area_copy(&obj->coords, &bg_coords);
 603:lvgl/src/widgets/lv_img.c **** 
 604:lvgl/src/widgets/lv_img.c ****         lv_res_t res = lv_obj_event_base(MY_CLASS, e);
 605:lvgl/src/widgets/lv_img.c ****         if(res != LV_RES_OK) return;
 606:lvgl/src/widgets/lv_img.c **** 
 607:lvgl/src/widgets/lv_img.c ****         lv_area_copy(&obj->coords, &ori_coords);
ARM GAS  /var/folders/21/t9g5rlb91ys800n5npymflf80000gn/T//ccodu31E.s 			page 17


 608:lvgl/src/widgets/lv_img.c **** 
 609:lvgl/src/widgets/lv_img.c ****         if(code == LV_EVENT_DRAW_MAIN) {
 610:lvgl/src/widgets/lv_img.c ****             if(img->h == 0 || img->w == 0) return;
 611:lvgl/src/widgets/lv_img.c ****             if(img->zoom == 0) return;
 612:lvgl/src/widgets/lv_img.c **** 
 613:lvgl/src/widgets/lv_img.c ****             lv_draw_ctx_t * draw_ctx = lv_event_get_draw_ctx(e);
 614:lvgl/src/widgets/lv_img.c **** 
 615:lvgl/src/widgets/lv_img.c ****             lv_area_t img_max_area;
 616:lvgl/src/widgets/lv_img.c ****             lv_area_copy(&img_max_area, &obj->coords);
 617:lvgl/src/widgets/lv_img.c **** 
 618:lvgl/src/widgets/lv_img.c ****             lv_point_t img_size_final = lv_img_get_transformed_size(obj);
 619:lvgl/src/widgets/lv_img.c **** 
 620:lvgl/src/widgets/lv_img.c ****             if(img->obj_size_mode == LV_IMG_SIZE_MODE_REAL) {
 621:lvgl/src/widgets/lv_img.c ****                 img_max_area.x1 -= ((img->w - img_size_final.x) + 1) / 2;
 622:lvgl/src/widgets/lv_img.c ****                 img_max_area.x2 -= ((img->w - img_size_final.x) + 1) / 2;
 623:lvgl/src/widgets/lv_img.c ****                 img_max_area.y1 -= ((img->h - img_size_final.y) + 1) / 2;
 624:lvgl/src/widgets/lv_img.c ****                 img_max_area.y2 -= ((img->h - img_size_final.y) + 1) / 2;
 625:lvgl/src/widgets/lv_img.c ****             }
 626:lvgl/src/widgets/lv_img.c ****             else {
 627:lvgl/src/widgets/lv_img.c ****                 img_max_area.x2 = img_max_area.x1 + lv_area_get_width(&bg_coords) - 1;
 628:lvgl/src/widgets/lv_img.c ****                 img_max_area.y2 = img_max_area.y1 + lv_area_get_height(&bg_coords) - 1;
 629:lvgl/src/widgets/lv_img.c ****             }
 630:lvgl/src/widgets/lv_img.c **** 
 631:lvgl/src/widgets/lv_img.c ****             img_max_area.x1 += pleft;
 632:lvgl/src/widgets/lv_img.c ****             img_max_area.y1 += ptop;
 633:lvgl/src/widgets/lv_img.c ****             img_max_area.x2 -= pright;
 634:lvgl/src/widgets/lv_img.c ****             img_max_area.y2 -= pbottom;
 635:lvgl/src/widgets/lv_img.c **** 
 636:lvgl/src/widgets/lv_img.c ****             if(img->src_type == LV_IMG_SRC_FILE || img->src_type == LV_IMG_SRC_VARIABLE) {
 637:lvgl/src/widgets/lv_img.c ****                 lv_draw_img_dsc_t img_dsc;
 638:lvgl/src/widgets/lv_img.c ****                 lv_draw_img_dsc_init(&img_dsc);
 639:lvgl/src/widgets/lv_img.c ****                 lv_obj_init_draw_img_dsc(obj, LV_PART_MAIN, &img_dsc);
 640:lvgl/src/widgets/lv_img.c **** 
 641:lvgl/src/widgets/lv_img.c ****                 img_dsc.zoom = img->zoom;
 642:lvgl/src/widgets/lv_img.c ****                 img_dsc.angle = img->angle;
 643:lvgl/src/widgets/lv_img.c ****                 img_dsc.pivot.x = img->pivot.x;
 644:lvgl/src/widgets/lv_img.c ****                 img_dsc.pivot.y = img->pivot.y;
 645:lvgl/src/widgets/lv_img.c ****                 img_dsc.antialias = img->antialias;
 646:lvgl/src/widgets/lv_img.c **** 
 647:lvgl/src/widgets/lv_img.c ****                 lv_area_t img_clip_area;
 648:lvgl/src/widgets/lv_img.c ****                 img_clip_area.x1 = bg_coords.x1 + pleft;
 649:lvgl/src/widgets/lv_img.c ****                 img_clip_area.y1 = bg_coords.y1 + ptop;
 650:lvgl/src/widgets/lv_img.c ****                 img_clip_area.x2 = bg_coords.x2 - pright;
 651:lvgl/src/widgets/lv_img.c ****                 img_clip_area.y2 = bg_coords.y2 - pbottom;
 652:lvgl/src/widgets/lv_img.c ****                 const lv_area_t * clip_area_ori = draw_ctx->clip_area;
 653:lvgl/src/widgets/lv_img.c **** 
 654:lvgl/src/widgets/lv_img.c ****                 if(!_lv_area_intersect(&img_clip_area, draw_ctx->clip_area, &img_clip_area)) return
 655:lvgl/src/widgets/lv_img.c ****                 draw_ctx->clip_area = &img_clip_area;
 656:lvgl/src/widgets/lv_img.c **** 
 657:lvgl/src/widgets/lv_img.c ****                 lv_area_t coords_tmp;
 658:lvgl/src/widgets/lv_img.c ****                 lv_coord_t offset_x = img->offset.x % img->w;
 659:lvgl/src/widgets/lv_img.c ****                 lv_coord_t offset_y = img->offset.y % img->h;
 660:lvgl/src/widgets/lv_img.c ****                 coords_tmp.y1 = img_max_area.y1 + offset_y;
 661:lvgl/src/widgets/lv_img.c ****                 if(coords_tmp.y1 > img_max_area.y1) coords_tmp.y1 -= img->h;
 662:lvgl/src/widgets/lv_img.c ****                 coords_tmp.y2 = coords_tmp.y1 + img->h - 1;
 663:lvgl/src/widgets/lv_img.c **** 
 664:lvgl/src/widgets/lv_img.c ****                 for(; coords_tmp.y1 < img_max_area.y2; coords_tmp.y1 += img_size_final.y, coords_tm
ARM GAS  /var/folders/21/t9g5rlb91ys800n5npymflf80000gn/T//ccodu31E.s 			page 18


 665:lvgl/src/widgets/lv_img.c ****                     coords_tmp.x1 = img_max_area.x1 + offset_x;
 666:lvgl/src/widgets/lv_img.c ****                     if(coords_tmp.x1 > img_max_area.x1) coords_tmp.x1 -= img->w;
 667:lvgl/src/widgets/lv_img.c ****                     coords_tmp.x2 = coords_tmp.x1 + img->w - 1;
 668:lvgl/src/widgets/lv_img.c **** 
 669:lvgl/src/widgets/lv_img.c ****                     for(; coords_tmp.x1 < img_max_area.x2; coords_tmp.x1 += img_size_final.x, coord
 670:lvgl/src/widgets/lv_img.c ****                         lv_draw_img(draw_ctx, &img_dsc, &coords_tmp, img->src);
 671:lvgl/src/widgets/lv_img.c ****                     }
 672:lvgl/src/widgets/lv_img.c ****                 }
 673:lvgl/src/widgets/lv_img.c ****                 draw_ctx->clip_area = clip_area_ori;
 674:lvgl/src/widgets/lv_img.c ****             }
 675:lvgl/src/widgets/lv_img.c ****             else if(img->src_type == LV_IMG_SRC_SYMBOL) {
 676:lvgl/src/widgets/lv_img.c ****                 lv_draw_label_dsc_t label_dsc;
 677:lvgl/src/widgets/lv_img.c ****                 lv_draw_label_dsc_init(&label_dsc);
 678:lvgl/src/widgets/lv_img.c ****                 lv_obj_init_draw_label_dsc(obj, LV_PART_MAIN, &label_dsc);
 679:lvgl/src/widgets/lv_img.c **** 
 680:lvgl/src/widgets/lv_img.c ****                 lv_draw_label(draw_ctx, &label_dsc, &obj->coords, img->src, NULL);
 681:lvgl/src/widgets/lv_img.c ****             }
 682:lvgl/src/widgets/lv_img.c ****             else {
 683:lvgl/src/widgets/lv_img.c ****                 /*Trigger the error handler of image draw*/
 684:lvgl/src/widgets/lv_img.c ****                 LV_LOG_WARN("draw_img: image source type is unknown");
 685:lvgl/src/widgets/lv_img.c ****                 lv_draw_img(draw_ctx, NULL, &obj->coords, NULL);
 686:lvgl/src/widgets/lv_img.c ****             }
 687:lvgl/src/widgets/lv_img.c ****         }
 688:lvgl/src/widgets/lv_img.c ****     }
 689:lvgl/src/widgets/lv_img.c **** }
 172              		.loc 1 689 1 view .LVU38
 173 0022 1DB0     		add	sp, sp, #116
 174              	.LCFI5:
 175              		.cfi_remember_state
 176              		.cfi_def_cfa_offset 36
 177              		@ sp needed
 178 0024 BDE8F08F 		pop	{r4, r5, r6, r7, r8, r9, r10, fp, pc}
 179              	.LVL12:
 180              	.L31:
 181              	.LCFI6:
 182              		.cfi_restore_state
 183              	.LBB48:
 524:lvgl/src/widgets/lv_img.c ****         lv_cover_check_info_t * info = lv_event_get_param(e);
 184              		.loc 1 524 9 is_stmt 1 view .LVU39
 524:lvgl/src/widgets/lv_img.c ****         lv_cover_check_info_t * info = lv_event_get_param(e);
 185              		.loc 1 524 40 is_stmt 0 view .LVU40
 186 0028 3046     		mov	r0, r6
 187              	.LVL13:
 524:lvgl/src/widgets/lv_img.c ****         lv_cover_check_info_t * info = lv_event_get_param(e);
 188              		.loc 1 524 40 view .LVU41
 189 002a FFF7FEFF 		bl	lv_event_get_param
 190              	.LVL14:
 191 002e 0546     		mov	r5, r0
 192              	.LVL15:
 525:lvgl/src/widgets/lv_img.c ****         if(img->src_type == LV_IMG_SRC_UNKNOWN || img->src_type == LV_IMG_SRC_SYMBOL) {
 193              		.loc 1 525 9 is_stmt 1 view .LVU42
 525:lvgl/src/widgets/lv_img.c ****         if(img->src_type == LV_IMG_SRC_UNKNOWN || img->src_type == LV_IMG_SRC_SYMBOL) {
 194              		.loc 1 525 16 is_stmt 0 view .LVU43
 195 0030 0378     		ldrb	r3, [r0]	@ zero_extendqisi2
 525:lvgl/src/widgets/lv_img.c ****         if(img->src_type == LV_IMG_SRC_UNKNOWN || img->src_type == LV_IMG_SRC_SYMBOL) {
 196              		.loc 1 525 11 view .LVU44
 197 0032 022B     		cmp	r3, #2
ARM GAS  /var/folders/21/t9g5rlb91ys800n5npymflf80000gn/T//ccodu31E.s 			page 19


 198 0034 F5D0     		beq	.L3
 526:lvgl/src/widgets/lv_img.c ****             info->res = LV_COVER_RES_NOT_COVER;
 199              		.loc 1 526 9 is_stmt 1 view .LVU45
 526:lvgl/src/widgets/lv_img.c ****             info->res = LV_COVER_RES_NOT_COVER;
 200              		.loc 1 526 26 is_stmt 0 view .LVU46
 201 0036 94F83830 		ldrb	r3, [r4, #56]	@ zero_extendqisi2
 526:lvgl/src/widgets/lv_img.c ****             info->res = LV_COVER_RES_NOT_COVER;
 202              		.loc 1 526 11 view .LVU47
 203 003a 13F0020F 		tst	r3, #2
 204 003e 08D1     		bne	.L32
 532:lvgl/src/widgets/lv_img.c ****             info->res = LV_COVER_RES_NOT_COVER;
 205              		.loc 1 532 9 is_stmt 1 view .LVU48
 532:lvgl/src/widgets/lv_img.c ****             info->res = LV_COVER_RES_NOT_COVER;
 206              		.loc 1 532 20 is_stmt 0 view .LVU49
 207 0040 03F07C03 		and	r3, r3, #124
 532:lvgl/src/widgets/lv_img.c ****             info->res = LV_COVER_RES_NOT_COVER;
 208              		.loc 1 532 11 view .LVU50
 209 0044 102B     		cmp	r3, #16
 210 0046 07D0     		beq	.L7
 532:lvgl/src/widgets/lv_img.c ****             info->res = LV_COVER_RES_NOT_COVER;
 211              		.loc 1 532 44 discriminator 1 view .LVU51
 212 0048 042B     		cmp	r3, #4
 213 004a 05D0     		beq	.L7
 533:lvgl/src/widgets/lv_img.c ****             return;
 214              		.loc 1 533 13 is_stmt 1 view .LVU52
 533:lvgl/src/widgets/lv_img.c ****             return;
 215              		.loc 1 533 23 is_stmt 0 view .LVU53
 216 004c 0123     		movs	r3, #1
 217 004e 0370     		strb	r3, [r0]
 534:lvgl/src/widgets/lv_img.c ****         }
 218              		.loc 1 534 13 is_stmt 1 view .LVU54
 219 0050 E7E7     		b	.L3
 220              	.L32:
 527:lvgl/src/widgets/lv_img.c ****             return;
 221              		.loc 1 527 13 view .LVU55
 527:lvgl/src/widgets/lv_img.c ****             return;
 222              		.loc 1 527 23 is_stmt 0 view .LVU56
 223 0052 0123     		movs	r3, #1
 224 0054 0370     		strb	r3, [r0]
 528:lvgl/src/widgets/lv_img.c ****         }
 225              		.loc 1 528 13 is_stmt 1 view .LVU57
 226 0056 E4E7     		b	.L3
 227              	.L7:
 538:lvgl/src/widgets/lv_img.c ****             info->res = LV_COVER_RES_NOT_COVER;
 228              		.loc 1 538 9 view .LVU58
 229              	.LVL16:
 230              	.LBB49:
 231              	.LBI49:
 232              		.file 3 "lvgl/src/widgets/../core/lv_obj_style_gen.h"
   1:lvgl/src/widgets/../core/lv_obj_style_gen.h **** static inline lv_coord_t lv_obj_get_style_width(const struct _lv_obj_t * obj, uint32_t part)
   2:lvgl/src/widgets/../core/lv_obj_style_gen.h **** {
   3:lvgl/src/widgets/../core/lv_obj_style_gen.h ****     lv_style_value_t v = lv_obj_get_style_prop(obj, part, LV_STYLE_WIDTH);
   4:lvgl/src/widgets/../core/lv_obj_style_gen.h ****     return (lv_coord_t)v.num;
   5:lvgl/src/widgets/../core/lv_obj_style_gen.h **** }
   6:lvgl/src/widgets/../core/lv_obj_style_gen.h **** 
   7:lvgl/src/widgets/../core/lv_obj_style_gen.h **** static inline lv_coord_t lv_obj_get_style_min_width(const struct _lv_obj_t * obj, uint32_t part)
   8:lvgl/src/widgets/../core/lv_obj_style_gen.h **** {
ARM GAS  /var/folders/21/t9g5rlb91ys800n5npymflf80000gn/T//ccodu31E.s 			page 20


   9:lvgl/src/widgets/../core/lv_obj_style_gen.h ****     lv_style_value_t v = lv_obj_get_style_prop(obj, part, LV_STYLE_MIN_WIDTH);
  10:lvgl/src/widgets/../core/lv_obj_style_gen.h ****     return (lv_coord_t)v.num;
  11:lvgl/src/widgets/../core/lv_obj_style_gen.h **** }
  12:lvgl/src/widgets/../core/lv_obj_style_gen.h **** 
  13:lvgl/src/widgets/../core/lv_obj_style_gen.h **** static inline lv_coord_t lv_obj_get_style_max_width(const struct _lv_obj_t * obj, uint32_t part)
  14:lvgl/src/widgets/../core/lv_obj_style_gen.h **** {
  15:lvgl/src/widgets/../core/lv_obj_style_gen.h ****     lv_style_value_t v = lv_obj_get_style_prop(obj, part, LV_STYLE_MAX_WIDTH);
  16:lvgl/src/widgets/../core/lv_obj_style_gen.h ****     return (lv_coord_t)v.num;
  17:lvgl/src/widgets/../core/lv_obj_style_gen.h **** }
  18:lvgl/src/widgets/../core/lv_obj_style_gen.h **** 
  19:lvgl/src/widgets/../core/lv_obj_style_gen.h **** static inline lv_coord_t lv_obj_get_style_height(const struct _lv_obj_t * obj, uint32_t part)
  20:lvgl/src/widgets/../core/lv_obj_style_gen.h **** {
  21:lvgl/src/widgets/../core/lv_obj_style_gen.h ****     lv_style_value_t v = lv_obj_get_style_prop(obj, part, LV_STYLE_HEIGHT);
  22:lvgl/src/widgets/../core/lv_obj_style_gen.h ****     return (lv_coord_t)v.num;
  23:lvgl/src/widgets/../core/lv_obj_style_gen.h **** }
  24:lvgl/src/widgets/../core/lv_obj_style_gen.h **** 
  25:lvgl/src/widgets/../core/lv_obj_style_gen.h **** static inline lv_coord_t lv_obj_get_style_min_height(const struct _lv_obj_t * obj, uint32_t part)
  26:lvgl/src/widgets/../core/lv_obj_style_gen.h **** {
  27:lvgl/src/widgets/../core/lv_obj_style_gen.h ****     lv_style_value_t v = lv_obj_get_style_prop(obj, part, LV_STYLE_MIN_HEIGHT);
  28:lvgl/src/widgets/../core/lv_obj_style_gen.h ****     return (lv_coord_t)v.num;
  29:lvgl/src/widgets/../core/lv_obj_style_gen.h **** }
  30:lvgl/src/widgets/../core/lv_obj_style_gen.h **** 
  31:lvgl/src/widgets/../core/lv_obj_style_gen.h **** static inline lv_coord_t lv_obj_get_style_max_height(const struct _lv_obj_t * obj, uint32_t part)
  32:lvgl/src/widgets/../core/lv_obj_style_gen.h **** {
  33:lvgl/src/widgets/../core/lv_obj_style_gen.h ****     lv_style_value_t v = lv_obj_get_style_prop(obj, part, LV_STYLE_MAX_HEIGHT);
  34:lvgl/src/widgets/../core/lv_obj_style_gen.h ****     return (lv_coord_t)v.num;
  35:lvgl/src/widgets/../core/lv_obj_style_gen.h **** }
  36:lvgl/src/widgets/../core/lv_obj_style_gen.h **** 
  37:lvgl/src/widgets/../core/lv_obj_style_gen.h **** static inline lv_coord_t lv_obj_get_style_x(const struct _lv_obj_t * obj, uint32_t part)
  38:lvgl/src/widgets/../core/lv_obj_style_gen.h **** {
  39:lvgl/src/widgets/../core/lv_obj_style_gen.h ****     lv_style_value_t v = lv_obj_get_style_prop(obj, part, LV_STYLE_X);
  40:lvgl/src/widgets/../core/lv_obj_style_gen.h ****     return (lv_coord_t)v.num;
  41:lvgl/src/widgets/../core/lv_obj_style_gen.h **** }
  42:lvgl/src/widgets/../core/lv_obj_style_gen.h **** 
  43:lvgl/src/widgets/../core/lv_obj_style_gen.h **** static inline lv_coord_t lv_obj_get_style_y(const struct _lv_obj_t * obj, uint32_t part)
  44:lvgl/src/widgets/../core/lv_obj_style_gen.h **** {
  45:lvgl/src/widgets/../core/lv_obj_style_gen.h ****     lv_style_value_t v = lv_obj_get_style_prop(obj, part, LV_STYLE_Y);
  46:lvgl/src/widgets/../core/lv_obj_style_gen.h ****     return (lv_coord_t)v.num;
  47:lvgl/src/widgets/../core/lv_obj_style_gen.h **** }
  48:lvgl/src/widgets/../core/lv_obj_style_gen.h **** 
  49:lvgl/src/widgets/../core/lv_obj_style_gen.h **** static inline lv_align_t lv_obj_get_style_align(const struct _lv_obj_t * obj, uint32_t part)
  50:lvgl/src/widgets/../core/lv_obj_style_gen.h **** {
  51:lvgl/src/widgets/../core/lv_obj_style_gen.h ****     lv_style_value_t v = lv_obj_get_style_prop(obj, part, LV_STYLE_ALIGN);
  52:lvgl/src/widgets/../core/lv_obj_style_gen.h ****     return (lv_align_t)v.num;
  53:lvgl/src/widgets/../core/lv_obj_style_gen.h **** }
  54:lvgl/src/widgets/../core/lv_obj_style_gen.h **** 
  55:lvgl/src/widgets/../core/lv_obj_style_gen.h **** static inline lv_coord_t lv_obj_get_style_transform_width(const struct _lv_obj_t * obj, uint32_t pa
  56:lvgl/src/widgets/../core/lv_obj_style_gen.h **** {
  57:lvgl/src/widgets/../core/lv_obj_style_gen.h ****     lv_style_value_t v = lv_obj_get_style_prop(obj, part, LV_STYLE_TRANSFORM_WIDTH);
  58:lvgl/src/widgets/../core/lv_obj_style_gen.h ****     return (lv_coord_t)v.num;
  59:lvgl/src/widgets/../core/lv_obj_style_gen.h **** }
  60:lvgl/src/widgets/../core/lv_obj_style_gen.h **** 
  61:lvgl/src/widgets/../core/lv_obj_style_gen.h **** static inline lv_coord_t lv_obj_get_style_transform_height(const struct _lv_obj_t * obj, uint32_t p
  62:lvgl/src/widgets/../core/lv_obj_style_gen.h **** {
  63:lvgl/src/widgets/../core/lv_obj_style_gen.h ****     lv_style_value_t v = lv_obj_get_style_prop(obj, part, LV_STYLE_TRANSFORM_HEIGHT);
  64:lvgl/src/widgets/../core/lv_obj_style_gen.h ****     return (lv_coord_t)v.num;
  65:lvgl/src/widgets/../core/lv_obj_style_gen.h **** }
ARM GAS  /var/folders/21/t9g5rlb91ys800n5npymflf80000gn/T//ccodu31E.s 			page 21


  66:lvgl/src/widgets/../core/lv_obj_style_gen.h **** 
  67:lvgl/src/widgets/../core/lv_obj_style_gen.h **** static inline lv_coord_t lv_obj_get_style_translate_x(const struct _lv_obj_t * obj, uint32_t part)
  68:lvgl/src/widgets/../core/lv_obj_style_gen.h **** {
  69:lvgl/src/widgets/../core/lv_obj_style_gen.h ****     lv_style_value_t v = lv_obj_get_style_prop(obj, part, LV_STYLE_TRANSLATE_X);
  70:lvgl/src/widgets/../core/lv_obj_style_gen.h ****     return (lv_coord_t)v.num;
  71:lvgl/src/widgets/../core/lv_obj_style_gen.h **** }
  72:lvgl/src/widgets/../core/lv_obj_style_gen.h **** 
  73:lvgl/src/widgets/../core/lv_obj_style_gen.h **** static inline lv_coord_t lv_obj_get_style_translate_y(const struct _lv_obj_t * obj, uint32_t part)
  74:lvgl/src/widgets/../core/lv_obj_style_gen.h **** {
  75:lvgl/src/widgets/../core/lv_obj_style_gen.h ****     lv_style_value_t v = lv_obj_get_style_prop(obj, part, LV_STYLE_TRANSLATE_Y);
  76:lvgl/src/widgets/../core/lv_obj_style_gen.h ****     return (lv_coord_t)v.num;
  77:lvgl/src/widgets/../core/lv_obj_style_gen.h **** }
  78:lvgl/src/widgets/../core/lv_obj_style_gen.h **** 
  79:lvgl/src/widgets/../core/lv_obj_style_gen.h **** static inline lv_coord_t lv_obj_get_style_transform_zoom(const struct _lv_obj_t * obj, uint32_t par
  80:lvgl/src/widgets/../core/lv_obj_style_gen.h **** {
  81:lvgl/src/widgets/../core/lv_obj_style_gen.h ****     lv_style_value_t v = lv_obj_get_style_prop(obj, part, LV_STYLE_TRANSFORM_ZOOM);
  82:lvgl/src/widgets/../core/lv_obj_style_gen.h ****     return (lv_coord_t)v.num;
  83:lvgl/src/widgets/../core/lv_obj_style_gen.h **** }
  84:lvgl/src/widgets/../core/lv_obj_style_gen.h **** 
  85:lvgl/src/widgets/../core/lv_obj_style_gen.h **** static inline lv_coord_t lv_obj_get_style_transform_angle(const struct _lv_obj_t * obj, uint32_t pa
  86:lvgl/src/widgets/../core/lv_obj_style_gen.h **** {
  87:lvgl/src/widgets/../core/lv_obj_style_gen.h ****     lv_style_value_t v = lv_obj_get_style_prop(obj, part, LV_STYLE_TRANSFORM_ANGLE);
  88:lvgl/src/widgets/../core/lv_obj_style_gen.h ****     return (lv_coord_t)v.num;
  89:lvgl/src/widgets/../core/lv_obj_style_gen.h **** }
  90:lvgl/src/widgets/../core/lv_obj_style_gen.h **** 
  91:lvgl/src/widgets/../core/lv_obj_style_gen.h **** static inline lv_coord_t lv_obj_get_style_transform_pivot_x(const struct _lv_obj_t * obj, uint32_t 
  92:lvgl/src/widgets/../core/lv_obj_style_gen.h **** {
  93:lvgl/src/widgets/../core/lv_obj_style_gen.h ****     lv_style_value_t v = lv_obj_get_style_prop(obj, part, LV_STYLE_TRANSFORM_PIVOT_X);
  94:lvgl/src/widgets/../core/lv_obj_style_gen.h ****     return (lv_coord_t)v.num;
  95:lvgl/src/widgets/../core/lv_obj_style_gen.h **** }
  96:lvgl/src/widgets/../core/lv_obj_style_gen.h **** 
  97:lvgl/src/widgets/../core/lv_obj_style_gen.h **** static inline lv_coord_t lv_obj_get_style_transform_pivot_y(const struct _lv_obj_t * obj, uint32_t 
  98:lvgl/src/widgets/../core/lv_obj_style_gen.h **** {
  99:lvgl/src/widgets/../core/lv_obj_style_gen.h ****     lv_style_value_t v = lv_obj_get_style_prop(obj, part, LV_STYLE_TRANSFORM_PIVOT_Y);
 100:lvgl/src/widgets/../core/lv_obj_style_gen.h ****     return (lv_coord_t)v.num;
 101:lvgl/src/widgets/../core/lv_obj_style_gen.h **** }
 102:lvgl/src/widgets/../core/lv_obj_style_gen.h **** 
 103:lvgl/src/widgets/../core/lv_obj_style_gen.h **** static inline lv_coord_t lv_obj_get_style_pad_top(const struct _lv_obj_t * obj, uint32_t part)
 104:lvgl/src/widgets/../core/lv_obj_style_gen.h **** {
 105:lvgl/src/widgets/../core/lv_obj_style_gen.h ****     lv_style_value_t v = lv_obj_get_style_prop(obj, part, LV_STYLE_PAD_TOP);
 106:lvgl/src/widgets/../core/lv_obj_style_gen.h ****     return (lv_coord_t)v.num;
 107:lvgl/src/widgets/../core/lv_obj_style_gen.h **** }
 108:lvgl/src/widgets/../core/lv_obj_style_gen.h **** 
 109:lvgl/src/widgets/../core/lv_obj_style_gen.h **** static inline lv_coord_t lv_obj_get_style_pad_bottom(const struct _lv_obj_t * obj, uint32_t part)
 110:lvgl/src/widgets/../core/lv_obj_style_gen.h **** {
 111:lvgl/src/widgets/../core/lv_obj_style_gen.h ****     lv_style_value_t v = lv_obj_get_style_prop(obj, part, LV_STYLE_PAD_BOTTOM);
 112:lvgl/src/widgets/../core/lv_obj_style_gen.h ****     return (lv_coord_t)v.num;
 113:lvgl/src/widgets/../core/lv_obj_style_gen.h **** }
 114:lvgl/src/widgets/../core/lv_obj_style_gen.h **** 
 115:lvgl/src/widgets/../core/lv_obj_style_gen.h **** static inline lv_coord_t lv_obj_get_style_pad_left(const struct _lv_obj_t * obj, uint32_t part)
 116:lvgl/src/widgets/../core/lv_obj_style_gen.h **** {
 117:lvgl/src/widgets/../core/lv_obj_style_gen.h ****     lv_style_value_t v = lv_obj_get_style_prop(obj, part, LV_STYLE_PAD_LEFT);
 118:lvgl/src/widgets/../core/lv_obj_style_gen.h ****     return (lv_coord_t)v.num;
 119:lvgl/src/widgets/../core/lv_obj_style_gen.h **** }
 120:lvgl/src/widgets/../core/lv_obj_style_gen.h **** 
 121:lvgl/src/widgets/../core/lv_obj_style_gen.h **** static inline lv_coord_t lv_obj_get_style_pad_right(const struct _lv_obj_t * obj, uint32_t part)
 122:lvgl/src/widgets/../core/lv_obj_style_gen.h **** {
ARM GAS  /var/folders/21/t9g5rlb91ys800n5npymflf80000gn/T//ccodu31E.s 			page 22


 123:lvgl/src/widgets/../core/lv_obj_style_gen.h ****     lv_style_value_t v = lv_obj_get_style_prop(obj, part, LV_STYLE_PAD_RIGHT);
 124:lvgl/src/widgets/../core/lv_obj_style_gen.h ****     return (lv_coord_t)v.num;
 125:lvgl/src/widgets/../core/lv_obj_style_gen.h **** }
 126:lvgl/src/widgets/../core/lv_obj_style_gen.h **** 
 127:lvgl/src/widgets/../core/lv_obj_style_gen.h **** static inline lv_coord_t lv_obj_get_style_pad_row(const struct _lv_obj_t * obj, uint32_t part)
 128:lvgl/src/widgets/../core/lv_obj_style_gen.h **** {
 129:lvgl/src/widgets/../core/lv_obj_style_gen.h ****     lv_style_value_t v = lv_obj_get_style_prop(obj, part, LV_STYLE_PAD_ROW);
 130:lvgl/src/widgets/../core/lv_obj_style_gen.h ****     return (lv_coord_t)v.num;
 131:lvgl/src/widgets/../core/lv_obj_style_gen.h **** }
 132:lvgl/src/widgets/../core/lv_obj_style_gen.h **** 
 133:lvgl/src/widgets/../core/lv_obj_style_gen.h **** static inline lv_coord_t lv_obj_get_style_pad_column(const struct _lv_obj_t * obj, uint32_t part)
 134:lvgl/src/widgets/../core/lv_obj_style_gen.h **** {
 135:lvgl/src/widgets/../core/lv_obj_style_gen.h ****     lv_style_value_t v = lv_obj_get_style_prop(obj, part, LV_STYLE_PAD_COLUMN);
 136:lvgl/src/widgets/../core/lv_obj_style_gen.h ****     return (lv_coord_t)v.num;
 137:lvgl/src/widgets/../core/lv_obj_style_gen.h **** }
 138:lvgl/src/widgets/../core/lv_obj_style_gen.h **** 
 139:lvgl/src/widgets/../core/lv_obj_style_gen.h **** static inline lv_color_t lv_obj_get_style_bg_color(const struct _lv_obj_t * obj, uint32_t part)
 140:lvgl/src/widgets/../core/lv_obj_style_gen.h **** {
 141:lvgl/src/widgets/../core/lv_obj_style_gen.h ****     lv_style_value_t v = lv_obj_get_style_prop(obj, part, LV_STYLE_BG_COLOR);
 142:lvgl/src/widgets/../core/lv_obj_style_gen.h ****     return v.color;
 143:lvgl/src/widgets/../core/lv_obj_style_gen.h **** }
 144:lvgl/src/widgets/../core/lv_obj_style_gen.h **** 
 145:lvgl/src/widgets/../core/lv_obj_style_gen.h **** static inline lv_color_t lv_obj_get_style_bg_color_filtered(const struct _lv_obj_t * obj, uint32_t 
 146:lvgl/src/widgets/../core/lv_obj_style_gen.h **** {
 147:lvgl/src/widgets/../core/lv_obj_style_gen.h ****     lv_style_value_t v = _lv_obj_style_apply_color_filter(obj, part, lv_obj_get_style_prop(obj, par
 148:lvgl/src/widgets/../core/lv_obj_style_gen.h ****     return v.color;
 149:lvgl/src/widgets/../core/lv_obj_style_gen.h **** }
 150:lvgl/src/widgets/../core/lv_obj_style_gen.h **** 
 151:lvgl/src/widgets/../core/lv_obj_style_gen.h **** static inline lv_opa_t lv_obj_get_style_bg_opa(const struct _lv_obj_t * obj, uint32_t part)
 152:lvgl/src/widgets/../core/lv_obj_style_gen.h **** {
 153:lvgl/src/widgets/../core/lv_obj_style_gen.h ****     lv_style_value_t v = lv_obj_get_style_prop(obj, part, LV_STYLE_BG_OPA);
 154:lvgl/src/widgets/../core/lv_obj_style_gen.h ****     return (lv_opa_t)v.num;
 155:lvgl/src/widgets/../core/lv_obj_style_gen.h **** }
 156:lvgl/src/widgets/../core/lv_obj_style_gen.h **** 
 157:lvgl/src/widgets/../core/lv_obj_style_gen.h **** static inline lv_color_t lv_obj_get_style_bg_grad_color(const struct _lv_obj_t * obj, uint32_t part
 158:lvgl/src/widgets/../core/lv_obj_style_gen.h **** {
 159:lvgl/src/widgets/../core/lv_obj_style_gen.h ****     lv_style_value_t v = lv_obj_get_style_prop(obj, part, LV_STYLE_BG_GRAD_COLOR);
 160:lvgl/src/widgets/../core/lv_obj_style_gen.h ****     return v.color;
 161:lvgl/src/widgets/../core/lv_obj_style_gen.h **** }
 162:lvgl/src/widgets/../core/lv_obj_style_gen.h **** 
 163:lvgl/src/widgets/../core/lv_obj_style_gen.h **** static inline lv_color_t lv_obj_get_style_bg_grad_color_filtered(const struct _lv_obj_t * obj, uint
 164:lvgl/src/widgets/../core/lv_obj_style_gen.h **** {
 165:lvgl/src/widgets/../core/lv_obj_style_gen.h ****     lv_style_value_t v = _lv_obj_style_apply_color_filter(obj, part, lv_obj_get_style_prop(obj, par
 166:lvgl/src/widgets/../core/lv_obj_style_gen.h ****     return v.color;
 167:lvgl/src/widgets/../core/lv_obj_style_gen.h **** }
 168:lvgl/src/widgets/../core/lv_obj_style_gen.h **** 
 169:lvgl/src/widgets/../core/lv_obj_style_gen.h **** static inline lv_grad_dir_t lv_obj_get_style_bg_grad_dir(const struct _lv_obj_t * obj, uint32_t par
 170:lvgl/src/widgets/../core/lv_obj_style_gen.h **** {
 171:lvgl/src/widgets/../core/lv_obj_style_gen.h ****     lv_style_value_t v = lv_obj_get_style_prop(obj, part, LV_STYLE_BG_GRAD_DIR);
 172:lvgl/src/widgets/../core/lv_obj_style_gen.h ****     return (lv_grad_dir_t)v.num;
 173:lvgl/src/widgets/../core/lv_obj_style_gen.h **** }
 174:lvgl/src/widgets/../core/lv_obj_style_gen.h **** 
 175:lvgl/src/widgets/../core/lv_obj_style_gen.h **** static inline lv_coord_t lv_obj_get_style_bg_main_stop(const struct _lv_obj_t * obj, uint32_t part)
 176:lvgl/src/widgets/../core/lv_obj_style_gen.h **** {
 177:lvgl/src/widgets/../core/lv_obj_style_gen.h ****     lv_style_value_t v = lv_obj_get_style_prop(obj, part, LV_STYLE_BG_MAIN_STOP);
 178:lvgl/src/widgets/../core/lv_obj_style_gen.h ****     return (lv_coord_t)v.num;
 179:lvgl/src/widgets/../core/lv_obj_style_gen.h **** }
ARM GAS  /var/folders/21/t9g5rlb91ys800n5npymflf80000gn/T//ccodu31E.s 			page 23


 180:lvgl/src/widgets/../core/lv_obj_style_gen.h **** 
 181:lvgl/src/widgets/../core/lv_obj_style_gen.h **** static inline lv_coord_t lv_obj_get_style_bg_grad_stop(const struct _lv_obj_t * obj, uint32_t part)
 182:lvgl/src/widgets/../core/lv_obj_style_gen.h **** {
 183:lvgl/src/widgets/../core/lv_obj_style_gen.h ****     lv_style_value_t v = lv_obj_get_style_prop(obj, part, LV_STYLE_BG_GRAD_STOP);
 184:lvgl/src/widgets/../core/lv_obj_style_gen.h ****     return (lv_coord_t)v.num;
 185:lvgl/src/widgets/../core/lv_obj_style_gen.h **** }
 186:lvgl/src/widgets/../core/lv_obj_style_gen.h **** 
 187:lvgl/src/widgets/../core/lv_obj_style_gen.h **** static inline const lv_grad_dsc_t * lv_obj_get_style_bg_grad(const struct _lv_obj_t * obj, uint32_t
 188:lvgl/src/widgets/../core/lv_obj_style_gen.h **** {
 189:lvgl/src/widgets/../core/lv_obj_style_gen.h ****     lv_style_value_t v = lv_obj_get_style_prop(obj, part, LV_STYLE_BG_GRAD);
 190:lvgl/src/widgets/../core/lv_obj_style_gen.h ****     return (const lv_grad_dsc_t *)v.ptr;
 191:lvgl/src/widgets/../core/lv_obj_style_gen.h **** }
 192:lvgl/src/widgets/../core/lv_obj_style_gen.h **** 
 193:lvgl/src/widgets/../core/lv_obj_style_gen.h **** static inline lv_dither_mode_t lv_obj_get_style_bg_dither_mode(const struct _lv_obj_t * obj, uint32
 194:lvgl/src/widgets/../core/lv_obj_style_gen.h **** {
 195:lvgl/src/widgets/../core/lv_obj_style_gen.h ****     lv_style_value_t v = lv_obj_get_style_prop(obj, part, LV_STYLE_BG_DITHER_MODE);
 196:lvgl/src/widgets/../core/lv_obj_style_gen.h ****     return (lv_dither_mode_t)v.num;
 197:lvgl/src/widgets/../core/lv_obj_style_gen.h **** }
 198:lvgl/src/widgets/../core/lv_obj_style_gen.h **** 
 199:lvgl/src/widgets/../core/lv_obj_style_gen.h **** static inline const void * lv_obj_get_style_bg_img_src(const struct _lv_obj_t * obj, uint32_t part)
 200:lvgl/src/widgets/../core/lv_obj_style_gen.h **** {
 201:lvgl/src/widgets/../core/lv_obj_style_gen.h ****     lv_style_value_t v = lv_obj_get_style_prop(obj, part, LV_STYLE_BG_IMG_SRC);
 202:lvgl/src/widgets/../core/lv_obj_style_gen.h ****     return (const void *)v.ptr;
 203:lvgl/src/widgets/../core/lv_obj_style_gen.h **** }
 204:lvgl/src/widgets/../core/lv_obj_style_gen.h **** 
 205:lvgl/src/widgets/../core/lv_obj_style_gen.h **** static inline lv_opa_t lv_obj_get_style_bg_img_opa(const struct _lv_obj_t * obj, uint32_t part)
 206:lvgl/src/widgets/../core/lv_obj_style_gen.h **** {
 207:lvgl/src/widgets/../core/lv_obj_style_gen.h ****     lv_style_value_t v = lv_obj_get_style_prop(obj, part, LV_STYLE_BG_IMG_OPA);
 208:lvgl/src/widgets/../core/lv_obj_style_gen.h ****     return (lv_opa_t)v.num;
 209:lvgl/src/widgets/../core/lv_obj_style_gen.h **** }
 210:lvgl/src/widgets/../core/lv_obj_style_gen.h **** 
 211:lvgl/src/widgets/../core/lv_obj_style_gen.h **** static inline lv_color_t lv_obj_get_style_bg_img_recolor(const struct _lv_obj_t * obj, uint32_t par
 212:lvgl/src/widgets/../core/lv_obj_style_gen.h **** {
 213:lvgl/src/widgets/../core/lv_obj_style_gen.h ****     lv_style_value_t v = lv_obj_get_style_prop(obj, part, LV_STYLE_BG_IMG_RECOLOR);
 214:lvgl/src/widgets/../core/lv_obj_style_gen.h ****     return v.color;
 215:lvgl/src/widgets/../core/lv_obj_style_gen.h **** }
 216:lvgl/src/widgets/../core/lv_obj_style_gen.h **** 
 217:lvgl/src/widgets/../core/lv_obj_style_gen.h **** static inline lv_color_t lv_obj_get_style_bg_img_recolor_filtered(const struct _lv_obj_t * obj, uin
 218:lvgl/src/widgets/../core/lv_obj_style_gen.h **** {
 219:lvgl/src/widgets/../core/lv_obj_style_gen.h ****     lv_style_value_t v = _lv_obj_style_apply_color_filter(obj, part, lv_obj_get_style_prop(obj, par
 220:lvgl/src/widgets/../core/lv_obj_style_gen.h ****     return v.color;
 221:lvgl/src/widgets/../core/lv_obj_style_gen.h **** }
 222:lvgl/src/widgets/../core/lv_obj_style_gen.h **** 
 223:lvgl/src/widgets/../core/lv_obj_style_gen.h **** static inline lv_opa_t lv_obj_get_style_bg_img_recolor_opa(const struct _lv_obj_t * obj, uint32_t p
 224:lvgl/src/widgets/../core/lv_obj_style_gen.h **** {
 225:lvgl/src/widgets/../core/lv_obj_style_gen.h ****     lv_style_value_t v = lv_obj_get_style_prop(obj, part, LV_STYLE_BG_IMG_RECOLOR_OPA);
 226:lvgl/src/widgets/../core/lv_obj_style_gen.h ****     return (lv_opa_t)v.num;
 227:lvgl/src/widgets/../core/lv_obj_style_gen.h **** }
 228:lvgl/src/widgets/../core/lv_obj_style_gen.h **** 
 229:lvgl/src/widgets/../core/lv_obj_style_gen.h **** static inline bool lv_obj_get_style_bg_img_tiled(const struct _lv_obj_t * obj, uint32_t part)
 230:lvgl/src/widgets/../core/lv_obj_style_gen.h **** {
 231:lvgl/src/widgets/../core/lv_obj_style_gen.h ****     lv_style_value_t v = lv_obj_get_style_prop(obj, part, LV_STYLE_BG_IMG_TILED);
 232:lvgl/src/widgets/../core/lv_obj_style_gen.h ****     return (bool)v.num;
 233:lvgl/src/widgets/../core/lv_obj_style_gen.h **** }
 234:lvgl/src/widgets/../core/lv_obj_style_gen.h **** 
 235:lvgl/src/widgets/../core/lv_obj_style_gen.h **** static inline lv_color_t lv_obj_get_style_border_color(const struct _lv_obj_t * obj, uint32_t part)
 236:lvgl/src/widgets/../core/lv_obj_style_gen.h **** {
ARM GAS  /var/folders/21/t9g5rlb91ys800n5npymflf80000gn/T//ccodu31E.s 			page 24


 237:lvgl/src/widgets/../core/lv_obj_style_gen.h ****     lv_style_value_t v = lv_obj_get_style_prop(obj, part, LV_STYLE_BORDER_COLOR);
 238:lvgl/src/widgets/../core/lv_obj_style_gen.h ****     return v.color;
 239:lvgl/src/widgets/../core/lv_obj_style_gen.h **** }
 240:lvgl/src/widgets/../core/lv_obj_style_gen.h **** 
 241:lvgl/src/widgets/../core/lv_obj_style_gen.h **** static inline lv_color_t lv_obj_get_style_border_color_filtered(const struct _lv_obj_t * obj, uint3
 242:lvgl/src/widgets/../core/lv_obj_style_gen.h **** {
 243:lvgl/src/widgets/../core/lv_obj_style_gen.h ****     lv_style_value_t v = _lv_obj_style_apply_color_filter(obj, part, lv_obj_get_style_prop(obj, par
 244:lvgl/src/widgets/../core/lv_obj_style_gen.h ****     return v.color;
 245:lvgl/src/widgets/../core/lv_obj_style_gen.h **** }
 246:lvgl/src/widgets/../core/lv_obj_style_gen.h **** 
 247:lvgl/src/widgets/../core/lv_obj_style_gen.h **** static inline lv_opa_t lv_obj_get_style_border_opa(const struct _lv_obj_t * obj, uint32_t part)
 248:lvgl/src/widgets/../core/lv_obj_style_gen.h **** {
 249:lvgl/src/widgets/../core/lv_obj_style_gen.h ****     lv_style_value_t v = lv_obj_get_style_prop(obj, part, LV_STYLE_BORDER_OPA);
 250:lvgl/src/widgets/../core/lv_obj_style_gen.h ****     return (lv_opa_t)v.num;
 251:lvgl/src/widgets/../core/lv_obj_style_gen.h **** }
 252:lvgl/src/widgets/../core/lv_obj_style_gen.h **** 
 253:lvgl/src/widgets/../core/lv_obj_style_gen.h **** static inline lv_coord_t lv_obj_get_style_border_width(const struct _lv_obj_t * obj, uint32_t part)
 254:lvgl/src/widgets/../core/lv_obj_style_gen.h **** {
 255:lvgl/src/widgets/../core/lv_obj_style_gen.h ****     lv_style_value_t v = lv_obj_get_style_prop(obj, part, LV_STYLE_BORDER_WIDTH);
 256:lvgl/src/widgets/../core/lv_obj_style_gen.h ****     return (lv_coord_t)v.num;
 257:lvgl/src/widgets/../core/lv_obj_style_gen.h **** }
 258:lvgl/src/widgets/../core/lv_obj_style_gen.h **** 
 259:lvgl/src/widgets/../core/lv_obj_style_gen.h **** static inline lv_border_side_t lv_obj_get_style_border_side(const struct _lv_obj_t * obj, uint32_t 
 260:lvgl/src/widgets/../core/lv_obj_style_gen.h **** {
 261:lvgl/src/widgets/../core/lv_obj_style_gen.h ****     lv_style_value_t v = lv_obj_get_style_prop(obj, part, LV_STYLE_BORDER_SIDE);
 262:lvgl/src/widgets/../core/lv_obj_style_gen.h ****     return (lv_border_side_t)v.num;
 263:lvgl/src/widgets/../core/lv_obj_style_gen.h **** }
 264:lvgl/src/widgets/../core/lv_obj_style_gen.h **** 
 265:lvgl/src/widgets/../core/lv_obj_style_gen.h **** static inline bool lv_obj_get_style_border_post(const struct _lv_obj_t * obj, uint32_t part)
 266:lvgl/src/widgets/../core/lv_obj_style_gen.h **** {
 267:lvgl/src/widgets/../core/lv_obj_style_gen.h ****     lv_style_value_t v = lv_obj_get_style_prop(obj, part, LV_STYLE_BORDER_POST);
 268:lvgl/src/widgets/../core/lv_obj_style_gen.h ****     return (bool)v.num;
 269:lvgl/src/widgets/../core/lv_obj_style_gen.h **** }
 270:lvgl/src/widgets/../core/lv_obj_style_gen.h **** 
 271:lvgl/src/widgets/../core/lv_obj_style_gen.h **** static inline lv_coord_t lv_obj_get_style_outline_width(const struct _lv_obj_t * obj, uint32_t part
 272:lvgl/src/widgets/../core/lv_obj_style_gen.h **** {
 273:lvgl/src/widgets/../core/lv_obj_style_gen.h ****     lv_style_value_t v = lv_obj_get_style_prop(obj, part, LV_STYLE_OUTLINE_WIDTH);
 274:lvgl/src/widgets/../core/lv_obj_style_gen.h ****     return (lv_coord_t)v.num;
 275:lvgl/src/widgets/../core/lv_obj_style_gen.h **** }
 276:lvgl/src/widgets/../core/lv_obj_style_gen.h **** 
 277:lvgl/src/widgets/../core/lv_obj_style_gen.h **** static inline lv_color_t lv_obj_get_style_outline_color(const struct _lv_obj_t * obj, uint32_t part
 278:lvgl/src/widgets/../core/lv_obj_style_gen.h **** {
 279:lvgl/src/widgets/../core/lv_obj_style_gen.h ****     lv_style_value_t v = lv_obj_get_style_prop(obj, part, LV_STYLE_OUTLINE_COLOR);
 280:lvgl/src/widgets/../core/lv_obj_style_gen.h ****     return v.color;
 281:lvgl/src/widgets/../core/lv_obj_style_gen.h **** }
 282:lvgl/src/widgets/../core/lv_obj_style_gen.h **** 
 283:lvgl/src/widgets/../core/lv_obj_style_gen.h **** static inline lv_color_t lv_obj_get_style_outline_color_filtered(const struct _lv_obj_t * obj, uint
 284:lvgl/src/widgets/../core/lv_obj_style_gen.h **** {
 285:lvgl/src/widgets/../core/lv_obj_style_gen.h ****     lv_style_value_t v = _lv_obj_style_apply_color_filter(obj, part, lv_obj_get_style_prop(obj, par
 286:lvgl/src/widgets/../core/lv_obj_style_gen.h ****     return v.color;
 287:lvgl/src/widgets/../core/lv_obj_style_gen.h **** }
 288:lvgl/src/widgets/../core/lv_obj_style_gen.h **** 
 289:lvgl/src/widgets/../core/lv_obj_style_gen.h **** static inline lv_opa_t lv_obj_get_style_outline_opa(const struct _lv_obj_t * obj, uint32_t part)
 290:lvgl/src/widgets/../core/lv_obj_style_gen.h **** {
 291:lvgl/src/widgets/../core/lv_obj_style_gen.h ****     lv_style_value_t v = lv_obj_get_style_prop(obj, part, LV_STYLE_OUTLINE_OPA);
 292:lvgl/src/widgets/../core/lv_obj_style_gen.h ****     return (lv_opa_t)v.num;
 293:lvgl/src/widgets/../core/lv_obj_style_gen.h **** }
ARM GAS  /var/folders/21/t9g5rlb91ys800n5npymflf80000gn/T//ccodu31E.s 			page 25


 294:lvgl/src/widgets/../core/lv_obj_style_gen.h **** 
 295:lvgl/src/widgets/../core/lv_obj_style_gen.h **** static inline lv_coord_t lv_obj_get_style_outline_pad(const struct _lv_obj_t * obj, uint32_t part)
 296:lvgl/src/widgets/../core/lv_obj_style_gen.h **** {
 297:lvgl/src/widgets/../core/lv_obj_style_gen.h ****     lv_style_value_t v = lv_obj_get_style_prop(obj, part, LV_STYLE_OUTLINE_PAD);
 298:lvgl/src/widgets/../core/lv_obj_style_gen.h ****     return (lv_coord_t)v.num;
 299:lvgl/src/widgets/../core/lv_obj_style_gen.h **** }
 300:lvgl/src/widgets/../core/lv_obj_style_gen.h **** 
 301:lvgl/src/widgets/../core/lv_obj_style_gen.h **** static inline lv_coord_t lv_obj_get_style_shadow_width(const struct _lv_obj_t * obj, uint32_t part)
 302:lvgl/src/widgets/../core/lv_obj_style_gen.h **** {
 303:lvgl/src/widgets/../core/lv_obj_style_gen.h ****     lv_style_value_t v = lv_obj_get_style_prop(obj, part, LV_STYLE_SHADOW_WIDTH);
 304:lvgl/src/widgets/../core/lv_obj_style_gen.h ****     return (lv_coord_t)v.num;
 305:lvgl/src/widgets/../core/lv_obj_style_gen.h **** }
 306:lvgl/src/widgets/../core/lv_obj_style_gen.h **** 
 307:lvgl/src/widgets/../core/lv_obj_style_gen.h **** static inline lv_coord_t lv_obj_get_style_shadow_ofs_x(const struct _lv_obj_t * obj, uint32_t part)
 308:lvgl/src/widgets/../core/lv_obj_style_gen.h **** {
 309:lvgl/src/widgets/../core/lv_obj_style_gen.h ****     lv_style_value_t v = lv_obj_get_style_prop(obj, part, LV_STYLE_SHADOW_OFS_X);
 310:lvgl/src/widgets/../core/lv_obj_style_gen.h ****     return (lv_coord_t)v.num;
 311:lvgl/src/widgets/../core/lv_obj_style_gen.h **** }
 312:lvgl/src/widgets/../core/lv_obj_style_gen.h **** 
 313:lvgl/src/widgets/../core/lv_obj_style_gen.h **** static inline lv_coord_t lv_obj_get_style_shadow_ofs_y(const struct _lv_obj_t * obj, uint32_t part)
 314:lvgl/src/widgets/../core/lv_obj_style_gen.h **** {
 315:lvgl/src/widgets/../core/lv_obj_style_gen.h ****     lv_style_value_t v = lv_obj_get_style_prop(obj, part, LV_STYLE_SHADOW_OFS_Y);
 316:lvgl/src/widgets/../core/lv_obj_style_gen.h ****     return (lv_coord_t)v.num;
 317:lvgl/src/widgets/../core/lv_obj_style_gen.h **** }
 318:lvgl/src/widgets/../core/lv_obj_style_gen.h **** 
 319:lvgl/src/widgets/../core/lv_obj_style_gen.h **** static inline lv_coord_t lv_obj_get_style_shadow_spread(const struct _lv_obj_t * obj, uint32_t part
 320:lvgl/src/widgets/../core/lv_obj_style_gen.h **** {
 321:lvgl/src/widgets/../core/lv_obj_style_gen.h ****     lv_style_value_t v = lv_obj_get_style_prop(obj, part, LV_STYLE_SHADOW_SPREAD);
 322:lvgl/src/widgets/../core/lv_obj_style_gen.h ****     return (lv_coord_t)v.num;
 323:lvgl/src/widgets/../core/lv_obj_style_gen.h **** }
 324:lvgl/src/widgets/../core/lv_obj_style_gen.h **** 
 325:lvgl/src/widgets/../core/lv_obj_style_gen.h **** static inline lv_color_t lv_obj_get_style_shadow_color(const struct _lv_obj_t * obj, uint32_t part)
 326:lvgl/src/widgets/../core/lv_obj_style_gen.h **** {
 327:lvgl/src/widgets/../core/lv_obj_style_gen.h ****     lv_style_value_t v = lv_obj_get_style_prop(obj, part, LV_STYLE_SHADOW_COLOR);
 328:lvgl/src/widgets/../core/lv_obj_style_gen.h ****     return v.color;
 329:lvgl/src/widgets/../core/lv_obj_style_gen.h **** }
 330:lvgl/src/widgets/../core/lv_obj_style_gen.h **** 
 331:lvgl/src/widgets/../core/lv_obj_style_gen.h **** static inline lv_color_t lv_obj_get_style_shadow_color_filtered(const struct _lv_obj_t * obj, uint3
 332:lvgl/src/widgets/../core/lv_obj_style_gen.h **** {
 333:lvgl/src/widgets/../core/lv_obj_style_gen.h ****     lv_style_value_t v = _lv_obj_style_apply_color_filter(obj, part, lv_obj_get_style_prop(obj, par
 334:lvgl/src/widgets/../core/lv_obj_style_gen.h ****     return v.color;
 335:lvgl/src/widgets/../core/lv_obj_style_gen.h **** }
 336:lvgl/src/widgets/../core/lv_obj_style_gen.h **** 
 337:lvgl/src/widgets/../core/lv_obj_style_gen.h **** static inline lv_opa_t lv_obj_get_style_shadow_opa(const struct _lv_obj_t * obj, uint32_t part)
 338:lvgl/src/widgets/../core/lv_obj_style_gen.h **** {
 339:lvgl/src/widgets/../core/lv_obj_style_gen.h ****     lv_style_value_t v = lv_obj_get_style_prop(obj, part, LV_STYLE_SHADOW_OPA);
 340:lvgl/src/widgets/../core/lv_obj_style_gen.h ****     return (lv_opa_t)v.num;
 341:lvgl/src/widgets/../core/lv_obj_style_gen.h **** }
 342:lvgl/src/widgets/../core/lv_obj_style_gen.h **** 
 343:lvgl/src/widgets/../core/lv_obj_style_gen.h **** static inline lv_opa_t lv_obj_get_style_img_opa(const struct _lv_obj_t * obj, uint32_t part)
 233              		.loc 3 343 24 view .LVU59
 234              	.LBB50:
 344:lvgl/src/widgets/../core/lv_obj_style_gen.h **** {
 345:lvgl/src/widgets/../core/lv_obj_style_gen.h ****     lv_style_value_t v = lv_obj_get_style_prop(obj, part, LV_STYLE_IMG_OPA);
 235              		.loc 3 345 5 view .LVU60
 236              		.loc 3 345 26 is_stmt 0 view .LVU61
 237 0058 4622     		movs	r2, #70
ARM GAS  /var/folders/21/t9g5rlb91ys800n5npymflf80000gn/T//ccodu31E.s 			page 26


 238 005a 0021     		movs	r1, #0
 239 005c 2046     		mov	r0, r4
 240              	.LVL17:
 241              		.loc 3 345 26 view .LVU62
 242 005e FFF7FEFF 		bl	lv_obj_get_style_prop
 243              	.LVL18:
 346:lvgl/src/widgets/../core/lv_obj_style_gen.h ****     return (lv_opa_t)v.num;
 244              		.loc 3 346 5 is_stmt 1 view .LVU63
 245              		.loc 3 346 12 is_stmt 0 view .LVU64
 246 0062 C0B2     		uxtb	r0, r0
 247              	.LVL19:
 248              		.loc 3 346 12 view .LVU65
 249              	.LBE50:
 250              	.LBE49:
 538:lvgl/src/widgets/lv_img.c ****             info->res = LV_COVER_RES_NOT_COVER;
 251              		.loc 1 538 11 view .LVU66
 252 0064 FF28     		cmp	r0, #255
 253 0066 02D0     		beq	.L8
 539:lvgl/src/widgets/lv_img.c ****             return;
 254              		.loc 1 539 13 is_stmt 1 view .LVU67
 539:lvgl/src/widgets/lv_img.c ****             return;
 255              		.loc 1 539 23 is_stmt 0 view .LVU68
 256 0068 0123     		movs	r3, #1
 257 006a 2B70     		strb	r3, [r5]
 540:lvgl/src/widgets/lv_img.c ****         }
 258              		.loc 1 540 13 is_stmt 1 view .LVU69
 259 006c D9E7     		b	.L3
 260              	.L8:
 543:lvgl/src/widgets/lv_img.c ****             info->res = LV_COVER_RES_NOT_COVER;
 261              		.loc 1 543 9 view .LVU70
 543:lvgl/src/widgets/lv_img.c ****             info->res = LV_COVER_RES_NOT_COVER;
 262              		.loc 1 543 15 is_stmt 0 view .LVU71
 263 006e 238E     		ldrh	r3, [r4, #48]
 543:lvgl/src/widgets/lv_img.c ****             info->res = LV_COVER_RES_NOT_COVER;
 264              		.loc 1 543 11 view .LVU72
 265 0070 13B1     		cbz	r3, .L9
 544:lvgl/src/widgets/lv_img.c ****             return;
 266              		.loc 1 544 13 is_stmt 1 view .LVU73
 544:lvgl/src/widgets/lv_img.c ****             return;
 267              		.loc 1 544 23 is_stmt 0 view .LVU74
 268 0072 0123     		movs	r3, #1
 269 0074 2B70     		strb	r3, [r5]
 545:lvgl/src/widgets/lv_img.c ****         }
 270              		.loc 1 545 13 is_stmt 1 view .LVU75
 271 0076 D4E7     		b	.L3
 272              	.L9:
 548:lvgl/src/widgets/lv_img.c ****         if(img->zoom == LV_IMG_ZOOM_NONE) {
 273              		.loc 1 548 9 view .LVU76
 548:lvgl/src/widgets/lv_img.c ****         if(img->zoom == LV_IMG_ZOOM_NONE) {
 274              		.loc 1 548 39 is_stmt 0 view .LVU77
 275 0078 3046     		mov	r0, r6
 276 007a FFF7FEFF 		bl	lv_event_get_param
 277              	.LVL20:
 278 007e 0646     		mov	r6, r0
 279              	.LVL21:
 549:lvgl/src/widgets/lv_img.c ****             if(_lv_area_is_in(clip_area, &obj->coords, 0) == false) {
 280              		.loc 1 549 9 is_stmt 1 view .LVU78
ARM GAS  /var/folders/21/t9g5rlb91ys800n5npymflf80000gn/T//ccodu31E.s 			page 27


 549:lvgl/src/widgets/lv_img.c ****             if(_lv_area_is_in(clip_area, &obj->coords, 0) == false) {
 281              		.loc 1 549 15 is_stmt 0 view .LVU79
 282 0080 E38E     		ldrh	r3, [r4, #54]
 549:lvgl/src/widgets/lv_img.c ****             if(_lv_area_is_in(clip_area, &obj->coords, 0) == false) {
 283              		.loc 1 549 11 view .LVU80
 284 0082 B3F5807F 		cmp	r3, #256
 285 0086 31D0     		beq	.L33
 286              	.LBB51:
 556:lvgl/src/widgets/lv_img.c ****             _lv_img_buf_get_transformed_area(&a, lv_obj_get_width(obj), lv_obj_get_height(obj), 0, 
 287              		.loc 1 556 13 is_stmt 1 view .LVU81
 557:lvgl/src/widgets/lv_img.c ****             a.x1 += obj->coords.x1;
 288              		.loc 1 557 13 view .LVU82
 289 0088 2046     		mov	r0, r4
 290              	.LVL22:
 557:lvgl/src/widgets/lv_img.c ****             a.x1 += obj->coords.x1;
 291              		.loc 1 557 13 is_stmt 0 view .LVU83
 292 008a FFF7FEFF 		bl	lv_obj_get_width
 293              	.LVL23:
 294 008e 0746     		mov	r7, r0
 295 0090 2046     		mov	r0, r4
 296 0092 FFF7FEFF 		bl	lv_obj_get_height
 297              	.LVL24:
 298 0096 0246     		mov	r2, r0
 557:lvgl/src/widgets/lv_img.c ****             a.x1 += obj->coords.x1;
 299              		.loc 1 557 111 view .LVU84
 300 0098 04F13203 		add	r3, r4, #50
 557:lvgl/src/widgets/lv_img.c ****             a.x1 += obj->coords.x1;
 301              		.loc 1 557 13 view .LVU85
 302 009c 0193     		str	r3, [sp, #4]
 303 009e E38E     		ldrh	r3, [r4, #54]
 304 00a0 0093     		str	r3, [sp]
 305 00a2 0023     		movs	r3, #0
 306 00a4 3946     		mov	r1, r7
 307 00a6 14A8     		add	r0, sp, #80
 308 00a8 FFF7FEFF 		bl	_lv_img_buf_get_transformed_area
 309              	.LVL25:
 558:lvgl/src/widgets/lv_img.c ****             a.y1 += obj->coords.y1;
 310              		.loc 1 558 13 is_stmt 1 view .LVU86
 558:lvgl/src/widgets/lv_img.c ****             a.y1 += obj->coords.y1;
 311              		.loc 1 558 14 is_stmt 0 view .LVU87
 312 00ac BDF85030 		ldrh	r3, [sp, #80]
 558:lvgl/src/widgets/lv_img.c ****             a.y1 += obj->coords.y1;
 313              		.loc 1 558 32 view .LVU88
 314 00b0 A28A     		ldrh	r2, [r4, #20]
 558:lvgl/src/widgets/lv_img.c ****             a.y1 += obj->coords.y1;
 315              		.loc 1 558 18 view .LVU89
 316 00b2 1344     		add	r3, r3, r2
 317 00b4 ADF85030 		strh	r3, [sp, #80]	@ movhi
 559:lvgl/src/widgets/lv_img.c ****             a.x2 += obj->coords.x1;
 318              		.loc 1 559 13 is_stmt 1 view .LVU90
 559:lvgl/src/widgets/lv_img.c ****             a.x2 += obj->coords.x1;
 319              		.loc 1 559 14 is_stmt 0 view .LVU91
 320 00b8 BDF85210 		ldrh	r1, [sp, #82]
 559:lvgl/src/widgets/lv_img.c ****             a.x2 += obj->coords.x1;
 321              		.loc 1 559 32 view .LVU92
 322 00bc E38A     		ldrh	r3, [r4, #22]
 559:lvgl/src/widgets/lv_img.c ****             a.x2 += obj->coords.x1;
ARM GAS  /var/folders/21/t9g5rlb91ys800n5npymflf80000gn/T//ccodu31E.s 			page 28


 323              		.loc 1 559 18 view .LVU93
 324 00be 1944     		add	r1, r1, r3
 325 00c0 ADF85210 		strh	r1, [sp, #82]	@ movhi
 560:lvgl/src/widgets/lv_img.c ****             a.y2 += obj->coords.y1;
 326              		.loc 1 560 13 is_stmt 1 view .LVU94
 560:lvgl/src/widgets/lv_img.c ****             a.y2 += obj->coords.y1;
 327              		.loc 1 560 14 is_stmt 0 view .LVU95
 328 00c4 BDF85410 		ldrh	r1, [sp, #84]
 560:lvgl/src/widgets/lv_img.c ****             a.y2 += obj->coords.y1;
 329              		.loc 1 560 18 view .LVU96
 330 00c8 0A44     		add	r2, r2, r1
 331 00ca ADF85420 		strh	r2, [sp, #84]	@ movhi
 561:lvgl/src/widgets/lv_img.c **** 
 332              		.loc 1 561 13 is_stmt 1 view .LVU97
 561:lvgl/src/widgets/lv_img.c **** 
 333              		.loc 1 561 14 is_stmt 0 view .LVU98
 334 00ce BDF85620 		ldrh	r2, [sp, #86]
 561:lvgl/src/widgets/lv_img.c **** 
 335              		.loc 1 561 18 view .LVU99
 336 00d2 1344     		add	r3, r3, r2
 337 00d4 ADF85630 		strh	r3, [sp, #86]	@ movhi
 563:lvgl/src/widgets/lv_img.c ****                 info->res = LV_COVER_RES_NOT_COVER;
 338              		.loc 1 563 13 is_stmt 1 view .LVU100
 563:lvgl/src/widgets/lv_img.c ****                 info->res = LV_COVER_RES_NOT_COVER;
 339              		.loc 1 563 16 is_stmt 0 view .LVU101
 340 00d8 0022     		movs	r2, #0
 341 00da 14A9     		add	r1, sp, #80
 342 00dc 3046     		mov	r0, r6
 343 00de FFF7FEFF 		bl	_lv_area_is_in
 344              	.LVL26:
 563:lvgl/src/widgets/lv_img.c ****                 info->res = LV_COVER_RES_NOT_COVER;
 345              		.loc 1 563 15 view .LVU102
 346 00e2 0028     		cmp	r0, #0
 347 00e4 9DD1     		bne	.L3
 564:lvgl/src/widgets/lv_img.c ****                 return;
 348              		.loc 1 564 17 is_stmt 1 view .LVU103
 564:lvgl/src/widgets/lv_img.c ****                 return;
 349              		.loc 1 564 27 is_stmt 0 view .LVU104
 350 00e6 0123     		movs	r3, #1
 351 00e8 2B70     		strb	r3, [r5]
 565:lvgl/src/widgets/lv_img.c ****             }
 352              		.loc 1 565 17 is_stmt 1 view .LVU105
 353 00ea 9AE7     		b	.L3
 354              	.LVL27:
 355              	.L33:
 565:lvgl/src/widgets/lv_img.c ****             }
 356              		.loc 1 565 17 is_stmt 0 view .LVU106
 357              	.LBE51:
 550:lvgl/src/widgets/lv_img.c ****                 info->res = LV_COVER_RES_NOT_COVER;
 358              		.loc 1 550 13 is_stmt 1 view .LVU107
 550:lvgl/src/widgets/lv_img.c ****                 info->res = LV_COVER_RES_NOT_COVER;
 359              		.loc 1 550 16 is_stmt 0 view .LVU108
 360 00ec 0022     		movs	r2, #0
 361 00ee 04F11401 		add	r1, r4, #20
 362 00f2 FFF7FEFF 		bl	_lv_area_is_in
 363              	.LVL28:
 550:lvgl/src/widgets/lv_img.c ****                 info->res = LV_COVER_RES_NOT_COVER;
ARM GAS  /var/folders/21/t9g5rlb91ys800n5npymflf80000gn/T//ccodu31E.s 			page 29


 364              		.loc 1 550 15 view .LVU109
 365 00f6 0028     		cmp	r0, #0
 366 00f8 93D1     		bne	.L3
 551:lvgl/src/widgets/lv_img.c ****                 return;
 367              		.loc 1 551 17 is_stmt 1 view .LVU110
 551:lvgl/src/widgets/lv_img.c ****                 return;
 368              		.loc 1 551 27 is_stmt 0 view .LVU111
 369 00fa 0123     		movs	r3, #1
 370 00fc 2B70     		strb	r3, [r5]
 552:lvgl/src/widgets/lv_img.c ****             }
 371              		.loc 1 552 17 is_stmt 1 view .LVU112
 372 00fe 90E7     		b	.L3
 373              	.LVL29:
 374              	.L12:
 552:lvgl/src/widgets/lv_img.c ****             }
 375              		.loc 1 552 17 is_stmt 0 view .LVU113
 376              	.LBE48:
 377              	.LBB52:
 571:lvgl/src/widgets/lv_img.c ****         lv_coord_t obj_h = lv_obj_get_height(obj);
 378              		.loc 1 571 9 is_stmt 1 view .LVU114
 571:lvgl/src/widgets/lv_img.c ****         lv_coord_t obj_h = lv_obj_get_height(obj);
 379              		.loc 1 571 28 is_stmt 0 view .LVU115
 380 0100 2046     		mov	r0, r4
 381              	.LVL30:
 571:lvgl/src/widgets/lv_img.c ****         lv_coord_t obj_h = lv_obj_get_height(obj);
 382              		.loc 1 571 28 view .LVU116
 383 0102 FFF7FEFF 		bl	lv_obj_get_width
 384              	.LVL31:
 385 0106 8046     		mov	r8, r0
 386              	.LVL32:
 572:lvgl/src/widgets/lv_img.c **** 
 387              		.loc 1 572 9 is_stmt 1 view .LVU117
 572:lvgl/src/widgets/lv_img.c **** 
 388              		.loc 1 572 28 is_stmt 0 view .LVU118
 389 0108 2046     		mov	r0, r4
 390 010a FFF7FEFF 		bl	lv_obj_get_height
 391              	.LVL33:
 392 010e 8146     		mov	r9, r0
 393              	.LVL34:
 574:lvgl/src/widgets/lv_img.c ****         lv_coord_t pleft = lv_obj_get_style_pad_left(obj, LV_PART_MAIN) + border_width;
 394              		.loc 1 574 9 is_stmt 1 view .LVU119
 395              	.LBB53:
 396              	.LBI53:
 253:lvgl/src/widgets/../core/lv_obj_style_gen.h **** {
 397              		.loc 3 253 26 view .LVU120
 398              	.LBB54:
 255:lvgl/src/widgets/../core/lv_obj_style_gen.h ****     return (lv_coord_t)v.num;
 399              		.loc 3 255 5 view .LVU121
 255:lvgl/src/widgets/../core/lv_obj_style_gen.h ****     return (lv_coord_t)v.num;
 400              		.loc 3 255 26 is_stmt 0 view .LVU122
 401 0110 3222     		movs	r2, #50
 402 0112 0021     		movs	r1, #0
 403 0114 2046     		mov	r0, r4
 404 0116 FFF7FEFF 		bl	lv_obj_get_style_prop
 405              	.LVL35:
 406 011a 0746     		mov	r7, r0
 407              	.LVL36:
ARM GAS  /var/folders/21/t9g5rlb91ys800n5npymflf80000gn/T//ccodu31E.s 			page 30


 256:lvgl/src/widgets/../core/lv_obj_style_gen.h **** }
 408              		.loc 3 256 5 is_stmt 1 view .LVU123
 256:lvgl/src/widgets/../core/lv_obj_style_gen.h **** }
 409              		.loc 3 256 5 is_stmt 0 view .LVU124
 410              	.LBE54:
 411              	.LBE53:
 575:lvgl/src/widgets/lv_img.c ****         lv_coord_t pright = lv_obj_get_style_pad_right(obj, LV_PART_MAIN) + border_width;
 412              		.loc 1 575 9 is_stmt 1 view .LVU125
 413              	.LBB55:
 414              	.LBI55:
 115:lvgl/src/widgets/../core/lv_obj_style_gen.h **** {
 415              		.loc 3 115 26 view .LVU126
 416              	.LBB56:
 117:lvgl/src/widgets/../core/lv_obj_style_gen.h ****     return (lv_coord_t)v.num;
 417              		.loc 3 117 5 view .LVU127
 117:lvgl/src/widgets/../core/lv_obj_style_gen.h ****     return (lv_coord_t)v.num;
 418              		.loc 3 117 26 is_stmt 0 view .LVU128
 419 011c 1222     		movs	r2, #18
 420 011e 0021     		movs	r1, #0
 421 0120 2046     		mov	r0, r4
 422 0122 FFF7FEFF 		bl	lv_obj_get_style_prop
 423              	.LVL37:
 118:lvgl/src/widgets/../core/lv_obj_style_gen.h **** }
 424              		.loc 3 118 5 is_stmt 1 view .LVU129
 118:lvgl/src/widgets/../core/lv_obj_style_gen.h **** }
 425              		.loc 3 118 5 is_stmt 0 view .LVU130
 426              	.LBE56:
 427              	.LBE55:
 575:lvgl/src/widgets/lv_img.c ****         lv_coord_t pright = lv_obj_get_style_pad_right(obj, LV_PART_MAIN) + border_width;
 428              		.loc 1 575 73 view .LVU131
 429 0126 BFB2     		uxth	r7, r7
 575:lvgl/src/widgets/lv_img.c ****         lv_coord_t pright = lv_obj_get_style_pad_right(obj, LV_PART_MAIN) + border_width;
 430              		.loc 1 575 73 view .LVU132
 431 0128 17FA80F0 		uxtah	r0, r7, r0
 432 012c 83B2     		uxth	r3, r0
 433 012e 0293     		str	r3, [sp, #8]
 434              	.LVL38:
 576:lvgl/src/widgets/lv_img.c ****         lv_coord_t ptop = lv_obj_get_style_pad_top(obj, LV_PART_MAIN) + border_width;
 435              		.loc 1 576 9 is_stmt 1 view .LVU133
 436              	.LBB57:
 437              	.LBI57:
 121:lvgl/src/widgets/../core/lv_obj_style_gen.h **** {
 438              		.loc 3 121 26 view .LVU134
 439              	.LBB58:
 123:lvgl/src/widgets/../core/lv_obj_style_gen.h ****     return (lv_coord_t)v.num;
 440              		.loc 3 123 5 view .LVU135
 123:lvgl/src/widgets/../core/lv_obj_style_gen.h ****     return (lv_coord_t)v.num;
 441              		.loc 3 123 26 is_stmt 0 view .LVU136
 442 0130 1322     		movs	r2, #19
 443 0132 0021     		movs	r1, #0
 444 0134 2046     		mov	r0, r4
 445 0136 FFF7FEFF 		bl	lv_obj_get_style_prop
 446              	.LVL39:
 124:lvgl/src/widgets/../core/lv_obj_style_gen.h **** }
 447              		.loc 3 124 5 is_stmt 1 view .LVU137
 124:lvgl/src/widgets/../core/lv_obj_style_gen.h **** }
 448              		.loc 3 124 5 is_stmt 0 view .LVU138
ARM GAS  /var/folders/21/t9g5rlb91ys800n5npymflf80000gn/T//ccodu31E.s 			page 31


 449              	.LBE58:
 450              	.LBE57:
 576:lvgl/src/widgets/lv_img.c ****         lv_coord_t ptop = lv_obj_get_style_pad_top(obj, LV_PART_MAIN) + border_width;
 451              		.loc 1 576 75 view .LVU139
 452 013a 17FA80F0 		uxtah	r0, r7, r0
 453 013e 81B2     		uxth	r1, r0
 454 0140 0391     		str	r1, [sp, #12]
 455              	.LVL40:
 577:lvgl/src/widgets/lv_img.c ****         lv_coord_t pbottom = lv_obj_get_style_pad_bottom(obj, LV_PART_MAIN) + border_width;
 456              		.loc 1 577 9 is_stmt 1 view .LVU140
 457              	.LBB59:
 458              	.LBI59:
 103:lvgl/src/widgets/../core/lv_obj_style_gen.h **** {
 459              		.loc 3 103 26 view .LVU141
 460              	.LBB60:
 105:lvgl/src/widgets/../core/lv_obj_style_gen.h ****     return (lv_coord_t)v.num;
 461              		.loc 3 105 5 view .LVU142
 105:lvgl/src/widgets/../core/lv_obj_style_gen.h ****     return (lv_coord_t)v.num;
 462              		.loc 3 105 26 is_stmt 0 view .LVU143
 463 0142 1022     		movs	r2, #16
 464 0144 0021     		movs	r1, #0
 465 0146 2046     		mov	r0, r4
 466 0148 FFF7FEFF 		bl	lv_obj_get_style_prop
 467              	.LVL41:
 106:lvgl/src/widgets/../core/lv_obj_style_gen.h **** }
 468              		.loc 3 106 5 is_stmt 1 view .LVU144
 106:lvgl/src/widgets/../core/lv_obj_style_gen.h **** }
 469              		.loc 3 106 5 is_stmt 0 view .LVU145
 470              	.LBE60:
 471              	.LBE59:
 577:lvgl/src/widgets/lv_img.c ****         lv_coord_t pbottom = lv_obj_get_style_pad_bottom(obj, LV_PART_MAIN) + border_width;
 472              		.loc 1 577 71 view .LVU146
 473 014c 17FA80F0 		uxtah	r0, r7, r0
 474 0150 1FFA80FB 		uxth	fp, r0
 475              	.LVL42:
 578:lvgl/src/widgets/lv_img.c **** 
 476              		.loc 1 578 9 is_stmt 1 view .LVU147
 477              	.LBB61:
 478              	.LBI61:
 109:lvgl/src/widgets/../core/lv_obj_style_gen.h **** {
 479              		.loc 3 109 26 view .LVU148
 480              	.LBB62:
 111:lvgl/src/widgets/../core/lv_obj_style_gen.h ****     return (lv_coord_t)v.num;
 481              		.loc 3 111 5 view .LVU149
 111:lvgl/src/widgets/../core/lv_obj_style_gen.h ****     return (lv_coord_t)v.num;
 482              		.loc 3 111 26 is_stmt 0 view .LVU150
 483 0154 1122     		movs	r2, #17
 484 0156 0021     		movs	r1, #0
 485 0158 2046     		mov	r0, r4
 486 015a FFF7FEFF 		bl	lv_obj_get_style_prop
 487              	.LVL43:
 112:lvgl/src/widgets/../core/lv_obj_style_gen.h **** }
 488              		.loc 3 112 5 is_stmt 1 view .LVU151
 112:lvgl/src/widgets/../core/lv_obj_style_gen.h **** }
 489              		.loc 3 112 5 is_stmt 0 view .LVU152
 490              	.LBE62:
 491              	.LBE61:
ARM GAS  /var/folders/21/t9g5rlb91ys800n5npymflf80000gn/T//ccodu31E.s 			page 32


 578:lvgl/src/widgets/lv_img.c **** 
 492              		.loc 1 578 77 view .LVU153
 493 015e 17FA80F0 		uxtah	r0, r7, r0
 494 0162 81B2     		uxth	r1, r0
 495 0164 0491     		str	r1, [sp, #16]
 496              	.LVL44:
 580:lvgl/src/widgets/lv_img.c ****         bg_pivot.x = img->pivot.x + pleft;
 497              		.loc 1 580 9 is_stmt 1 view .LVU154
 581:lvgl/src/widgets/lv_img.c ****         bg_pivot.y = img->pivot.y + ptop;
 498              		.loc 1 581 9 view .LVU155
 581:lvgl/src/widgets/lv_img.c ****         bg_pivot.y = img->pivot.y + ptop;
 499              		.loc 1 581 32 is_stmt 0 view .LVU156
 500 0166 638E     		ldrh	r3, [r4, #50]
 581:lvgl/src/widgets/lv_img.c ****         bg_pivot.y = img->pivot.y + ptop;
 501              		.loc 1 581 35 view .LVU157
 502 0168 029A     		ldr	r2, [sp, #8]
 503 016a 1344     		add	r3, r3, r2
 581:lvgl/src/widgets/lv_img.c ****         bg_pivot.y = img->pivot.y + ptop;
 504              		.loc 1 581 20 view .LVU158
 505 016c ADF82030 		strh	r3, [sp, #32]	@ movhi
 582:lvgl/src/widgets/lv_img.c ****         lv_area_t bg_coords;
 506              		.loc 1 582 9 is_stmt 1 view .LVU159
 582:lvgl/src/widgets/lv_img.c ****         lv_area_t bg_coords;
 507              		.loc 1 582 32 is_stmt 0 view .LVU160
 508 0170 A38E     		ldrh	r3, [r4, #52]
 582:lvgl/src/widgets/lv_img.c ****         lv_area_t bg_coords;
 509              		.loc 1 582 35 view .LVU161
 510 0172 5B44     		add	r3, r3, fp
 582:lvgl/src/widgets/lv_img.c ****         lv_area_t bg_coords;
 511              		.loc 1 582 20 view .LVU162
 512 0174 ADF82230 		strh	r3, [sp, #34]	@ movhi
 583:lvgl/src/widgets/lv_img.c **** 
 513              		.loc 1 583 9 is_stmt 1 view .LVU163
 585:lvgl/src/widgets/lv_img.c ****             /*Object size equals to transformed image size*/
 514              		.loc 1 585 9 view .LVU164
 585:lvgl/src/widgets/lv_img.c ****             /*Object size equals to transformed image size*/
 515              		.loc 1 585 31 is_stmt 0 view .LVU165
 516 0178 94F83930 		ldrb	r3, [r4, #57]	@ zero_extendqisi2
 517 017c 03F00303 		and	r3, r3, #3
 585:lvgl/src/widgets/lv_img.c ****             /*Object size equals to transformed image size*/
 518              		.loc 1 585 11 view .LVU166
 519 0180 012B     		cmp	r3, #1
 520 0182 00F0CB80 		beq	.L34
 590:lvgl/src/widgets/lv_img.c ****                                              img->angle, img->zoom, &bg_pivot);
 521              		.loc 1 590 13 is_stmt 1 view .LVU167
 522 0186 B4F93030 		ldrsh	r3, [r4, #48]
 523 018a 08AA     		add	r2, sp, #32
 524 018c 0192     		str	r2, [sp, #4]
 525 018e E28E     		ldrh	r2, [r4, #54]
 526 0190 0092     		str	r2, [sp]
 527 0192 4A46     		mov	r2, r9
 528 0194 4146     		mov	r1, r8
 529 0196 0AA8     		add	r0, sp, #40
 530 0198 FFF7FEFF 		bl	_lv_img_buf_get_transformed_area
 531              	.LVL45:
 594:lvgl/src/widgets/lv_img.c ****             bg_coords.y1 += obj->coords.y1;
 532              		.loc 1 594 13 view .LVU168
ARM GAS  /var/folders/21/t9g5rlb91ys800n5npymflf80000gn/T//ccodu31E.s 			page 33


 594:lvgl/src/widgets/lv_img.c ****             bg_coords.y1 += obj->coords.y1;
 533              		.loc 1 594 22 is_stmt 0 view .LVU169
 534 019c BDF82830 		ldrh	r3, [sp, #40]
 594:lvgl/src/widgets/lv_img.c ****             bg_coords.y1 += obj->coords.y1;
 535              		.loc 1 594 40 view .LVU170
 536 01a0 A28A     		ldrh	r2, [r4, #20]
 594:lvgl/src/widgets/lv_img.c ****             bg_coords.y1 += obj->coords.y1;
 537              		.loc 1 594 26 view .LVU171
 538 01a2 1344     		add	r3, r3, r2
 539 01a4 ADF82830 		strh	r3, [sp, #40]	@ movhi
 595:lvgl/src/widgets/lv_img.c ****             bg_coords.x2 += obj->coords.x1;
 540              		.loc 1 595 13 is_stmt 1 view .LVU172
 595:lvgl/src/widgets/lv_img.c ****             bg_coords.x2 += obj->coords.x1;
 541              		.loc 1 595 22 is_stmt 0 view .LVU173
 542 01a8 BDF82A10 		ldrh	r1, [sp, #42]
 595:lvgl/src/widgets/lv_img.c ****             bg_coords.x2 += obj->coords.x1;
 543              		.loc 1 595 40 view .LVU174
 544 01ac E38A     		ldrh	r3, [r4, #22]
 595:lvgl/src/widgets/lv_img.c ****             bg_coords.x2 += obj->coords.x1;
 545              		.loc 1 595 26 view .LVU175
 546 01ae 1944     		add	r1, r1, r3
 547 01b0 ADF82A10 		strh	r1, [sp, #42]	@ movhi
 596:lvgl/src/widgets/lv_img.c ****             bg_coords.y2 += obj->coords.y1;
 548              		.loc 1 596 13 is_stmt 1 view .LVU176
 596:lvgl/src/widgets/lv_img.c ****             bg_coords.y2 += obj->coords.y1;
 549              		.loc 1 596 22 is_stmt 0 view .LVU177
 550 01b4 BDF82C10 		ldrh	r1, [sp, #44]
 596:lvgl/src/widgets/lv_img.c ****             bg_coords.y2 += obj->coords.y1;
 551              		.loc 1 596 26 view .LVU178
 552 01b8 0A44     		add	r2, r2, r1
 553 01ba ADF82C20 		strh	r2, [sp, #44]	@ movhi
 597:lvgl/src/widgets/lv_img.c ****         }
 554              		.loc 1 597 13 is_stmt 1 view .LVU179
 597:lvgl/src/widgets/lv_img.c ****         }
 555              		.loc 1 597 22 is_stmt 0 view .LVU180
 556 01be BDF82E20 		ldrh	r2, [sp, #46]
 597:lvgl/src/widgets/lv_img.c ****         }
 557              		.loc 1 597 26 view .LVU181
 558 01c2 1344     		add	r3, r3, r2
 559 01c4 ADF82E30 		strh	r3, [sp, #46]	@ movhi
 560              	.L14:
 600:lvgl/src/widgets/lv_img.c ****         lv_area_copy(&ori_coords, &obj->coords);
 561              		.loc 1 600 9 is_stmt 1 view .LVU182
 601:lvgl/src/widgets/lv_img.c ****         lv_area_copy(&obj->coords, &bg_coords);
 562              		.loc 1 601 9 view .LVU183
 563              	.LVL46:
 564              	.LBB63:
 565              	.LBI63:
 110:lvgl/src/widgets/../core/../misc/../font/../misc/lv_area.h **** {
 566              		.loc 2 110 20 view .LVU184
 567              	.LBB64:
 112:lvgl/src/widgets/../core/../misc/../font/../misc/lv_area.h ****     dest->y1 = src->y1;
 568              		.loc 2 112 5 view .LVU185
 112:lvgl/src/widgets/../core/../misc/../font/../misc/lv_area.h ****     dest->y1 = src->y1;
 569              		.loc 2 112 19 is_stmt 0 view .LVU186
 570 01c8 B4F914A0 		ldrsh	r10, [r4, #20]
 112:lvgl/src/widgets/../core/../misc/../font/../misc/lv_area.h ****     dest->y1 = src->y1;
ARM GAS  /var/folders/21/t9g5rlb91ys800n5npymflf80000gn/T//ccodu31E.s 			page 34


 571              		.loc 2 112 14 view .LVU187
 572 01cc ADF830A0 		strh	r10, [sp, #48]	@ movhi
 113:lvgl/src/widgets/../core/../misc/../font/../misc/lv_area.h ****     dest->x2 = src->x2;
 573              		.loc 2 113 5 is_stmt 1 view .LVU188
 113:lvgl/src/widgets/../core/../misc/../font/../misc/lv_area.h ****     dest->x2 = src->x2;
 574              		.loc 2 113 19 is_stmt 0 view .LVU189
 575 01d0 B4F91690 		ldrsh	r9, [r4, #22]
 576              	.LVL47:
 113:lvgl/src/widgets/../core/../misc/../font/../misc/lv_area.h ****     dest->x2 = src->x2;
 577              		.loc 2 113 14 view .LVU190
 578 01d4 ADF83290 		strh	r9, [sp, #50]	@ movhi
 114:lvgl/src/widgets/../core/../misc/../font/../misc/lv_area.h ****     dest->y2 = src->y2;
 579              		.loc 2 114 5 is_stmt 1 view .LVU191
 114:lvgl/src/widgets/../core/../misc/../font/../misc/lv_area.h ****     dest->y2 = src->y2;
 580              		.loc 2 114 19 is_stmt 0 view .LVU192
 581 01d8 B4F91880 		ldrsh	r8, [r4, #24]
 582              	.LVL48:
 114:lvgl/src/widgets/../core/../misc/../font/../misc/lv_area.h ****     dest->y2 = src->y2;
 583              		.loc 2 114 14 view .LVU193
 584 01dc ADF83480 		strh	r8, [sp, #52]	@ movhi
 115:lvgl/src/widgets/../core/../misc/../font/../misc/lv_area.h **** }
 585              		.loc 2 115 5 is_stmt 1 view .LVU194
 115:lvgl/src/widgets/../core/../misc/../font/../misc/lv_area.h **** }
 586              		.loc 2 115 19 is_stmt 0 view .LVU195
 587 01e0 B4F91A70 		ldrsh	r7, [r4, #26]
 588              	.LVL49:
 115:lvgl/src/widgets/../core/../misc/../font/../misc/lv_area.h **** }
 589              		.loc 2 115 14 view .LVU196
 590 01e4 ADF83670 		strh	r7, [sp, #54]	@ movhi
 591              	.LVL50:
 115:lvgl/src/widgets/../core/../misc/../font/../misc/lv_area.h **** }
 592              		.loc 2 115 14 view .LVU197
 593              	.LBE64:
 594              	.LBE63:
 602:lvgl/src/widgets/lv_img.c **** 
 595              		.loc 1 602 9 is_stmt 1 view .LVU198
 596 01e8 04F11403 		add	r3, r4, #20
 597 01ec 0593     		str	r3, [sp, #20]
 598              	.LVL51:
 599              	.LBB65:
 600              	.LBI65:
 110:lvgl/src/widgets/../core/../misc/../font/../misc/lv_area.h **** {
 601              		.loc 2 110 20 view .LVU199
 602              	.LBB66:
 112:lvgl/src/widgets/../core/../misc/../font/../misc/lv_area.h ****     dest->y1 = src->y1;
 603              		.loc 2 112 5 view .LVU200
 112:lvgl/src/widgets/../core/../misc/../font/../misc/lv_area.h ****     dest->y1 = src->y1;
 604              		.loc 2 112 19 is_stmt 0 view .LVU201
 605 01ee BDF92830 		ldrsh	r3, [sp, #40]
 606              	.LVL52:
 112:lvgl/src/widgets/../core/../misc/../font/../misc/lv_area.h ****     dest->y1 = src->y1;
 607              		.loc 2 112 14 view .LVU202
 608 01f2 A382     		strh	r3, [r4, #20]	@ movhi
 113:lvgl/src/widgets/../core/../misc/../font/../misc/lv_area.h ****     dest->x2 = src->x2;
 609              		.loc 2 113 5 is_stmt 1 view .LVU203
 113:lvgl/src/widgets/../core/../misc/../font/../misc/lv_area.h ****     dest->x2 = src->x2;
 610              		.loc 2 113 19 is_stmt 0 view .LVU204
ARM GAS  /var/folders/21/t9g5rlb91ys800n5npymflf80000gn/T//ccodu31E.s 			page 35


 611 01f4 BDF92A30 		ldrsh	r3, [sp, #42]
 113:lvgl/src/widgets/../core/../misc/../font/../misc/lv_area.h ****     dest->x2 = src->x2;
 612              		.loc 2 113 14 view .LVU205
 613 01f8 E382     		strh	r3, [r4, #22]	@ movhi
 114:lvgl/src/widgets/../core/../misc/../font/../misc/lv_area.h ****     dest->y2 = src->y2;
 614              		.loc 2 114 5 is_stmt 1 view .LVU206
 114:lvgl/src/widgets/../core/../misc/../font/../misc/lv_area.h ****     dest->y2 = src->y2;
 615              		.loc 2 114 19 is_stmt 0 view .LVU207
 616 01fa BDF92C30 		ldrsh	r3, [sp, #44]
 114:lvgl/src/widgets/../core/../misc/../font/../misc/lv_area.h ****     dest->y2 = src->y2;
 617              		.loc 2 114 14 view .LVU208
 618 01fe 2383     		strh	r3, [r4, #24]	@ movhi
 115:lvgl/src/widgets/../core/../misc/../font/../misc/lv_area.h **** }
 619              		.loc 2 115 5 is_stmt 1 view .LVU209
 115:lvgl/src/widgets/../core/../misc/../font/../misc/lv_area.h **** }
 620              		.loc 2 115 19 is_stmt 0 view .LVU210
 621 0200 BDF92E30 		ldrsh	r3, [sp, #46]
 115:lvgl/src/widgets/../core/../misc/../font/../misc/lv_area.h **** }
 622              		.loc 2 115 14 view .LVU211
 623 0204 6383     		strh	r3, [r4, #26]	@ movhi
 624              	.LVL53:
 115:lvgl/src/widgets/../core/../misc/../font/../misc/lv_area.h **** }
 625              		.loc 2 115 14 view .LVU212
 626              	.LBE66:
 627              	.LBE65:
 604:lvgl/src/widgets/lv_img.c ****         if(res != LV_RES_OK) return;
 628              		.loc 1 604 9 is_stmt 1 view .LVU213
 604:lvgl/src/widgets/lv_img.c ****         if(res != LV_RES_OK) return;
 629              		.loc 1 604 24 is_stmt 0 view .LVU214
 630 0206 3146     		mov	r1, r6
 631 0208 B748     		ldr	r0, .L39
 632 020a FFF7FEFF 		bl	lv_obj_event_base
 633              	.LVL54:
 605:lvgl/src/widgets/lv_img.c **** 
 634              		.loc 1 605 9 is_stmt 1 view .LVU215
 605:lvgl/src/widgets/lv_img.c **** 
 635              		.loc 1 605 11 is_stmt 0 view .LVU216
 636 020e 0128     		cmp	r0, #1
 637 0210 7FF407AF 		bne	.L3
 607:lvgl/src/widgets/lv_img.c **** 
 638              		.loc 1 607 9 is_stmt 1 view .LVU217
 639              	.LVL55:
 640              	.LBB67:
 641              	.LBI67:
 110:lvgl/src/widgets/../core/../misc/../font/../misc/lv_area.h **** {
 642              		.loc 2 110 20 view .LVU218
 643              	.LBB68:
 112:lvgl/src/widgets/../core/../misc/../font/../misc/lv_area.h ****     dest->y1 = src->y1;
 644              		.loc 2 112 5 view .LVU219
 112:lvgl/src/widgets/../core/../misc/../font/../misc/lv_area.h ****     dest->y1 = src->y1;
 645              		.loc 2 112 14 is_stmt 0 view .LVU220
 646 0214 A4F814A0 		strh	r10, [r4, #20]	@ movhi
 113:lvgl/src/widgets/../core/../misc/../font/../misc/lv_area.h ****     dest->x2 = src->x2;
 647              		.loc 2 113 5 is_stmt 1 view .LVU221
 113:lvgl/src/widgets/../core/../misc/../font/../misc/lv_area.h ****     dest->x2 = src->x2;
 648              		.loc 2 113 14 is_stmt 0 view .LVU222
 649 0218 A4F81690 		strh	r9, [r4, #22]	@ movhi
ARM GAS  /var/folders/21/t9g5rlb91ys800n5npymflf80000gn/T//ccodu31E.s 			page 36


 114:lvgl/src/widgets/../core/../misc/../font/../misc/lv_area.h ****     dest->y2 = src->y2;
 650              		.loc 2 114 5 is_stmt 1 view .LVU223
 114:lvgl/src/widgets/../core/../misc/../font/../misc/lv_area.h ****     dest->y2 = src->y2;
 651              		.loc 2 114 14 is_stmt 0 view .LVU224
 652 021c A4F81880 		strh	r8, [r4, #24]	@ movhi
 115:lvgl/src/widgets/../core/../misc/../font/../misc/lv_area.h **** }
 653              		.loc 2 115 5 is_stmt 1 view .LVU225
 115:lvgl/src/widgets/../core/../misc/../font/../misc/lv_area.h **** }
 654              		.loc 2 115 14 is_stmt 0 view .LVU226
 655 0220 6783     		strh	r7, [r4, #26]	@ movhi
 656              	.LVL56:
 115:lvgl/src/widgets/../core/../misc/../font/../misc/lv_area.h **** }
 657              		.loc 2 115 14 view .LVU227
 658              	.LBE68:
 659              	.LBE67:
 609:lvgl/src/widgets/lv_img.c ****             if(img->h == 0 || img->w == 0) return;
 660              		.loc 1 609 9 is_stmt 1 view .LVU228
 609:lvgl/src/widgets/lv_img.c ****             if(img->h == 0 || img->w == 0) return;
 661              		.loc 1 609 11 is_stmt 0 view .LVU229
 662 0222 152D     		cmp	r5, #21
 663 0224 7FF4FDAE 		bne	.L3
 664              	.LBB69:
 610:lvgl/src/widgets/lv_img.c ****             if(img->zoom == 0) return;
 665              		.loc 1 610 13 is_stmt 1 view .LVU230
 610:lvgl/src/widgets/lv_img.c ****             if(img->zoom == 0) return;
 666              		.loc 1 610 19 is_stmt 0 view .LVU231
 667 0228 B4F92E30 		ldrsh	r3, [r4, #46]
 610:lvgl/src/widgets/lv_img.c ****             if(img->zoom == 0) return;
 668              		.loc 1 610 15 view .LVU232
 669 022c 002B     		cmp	r3, #0
 670 022e 3FF4F8AE 		beq	.L3
 610:lvgl/src/widgets/lv_img.c ****             if(img->zoom == 0) return;
 671              		.loc 1 610 34 discriminator 2 view .LVU233
 672 0232 B4F92C30 		ldrsh	r3, [r4, #44]
 610:lvgl/src/widgets/lv_img.c ****             if(img->zoom == 0) return;
 673              		.loc 1 610 28 discriminator 2 view .LVU234
 674 0236 002B     		cmp	r3, #0
 675 0238 3FF4F3AE 		beq	.L3
 611:lvgl/src/widgets/lv_img.c **** 
 676              		.loc 1 611 13 is_stmt 1 view .LVU235
 611:lvgl/src/widgets/lv_img.c **** 
 677              		.loc 1 611 19 is_stmt 0 view .LVU236
 678 023c E38E     		ldrh	r3, [r4, #54]
 611:lvgl/src/widgets/lv_img.c **** 
 679              		.loc 1 611 15 view .LVU237
 680 023e 002B     		cmp	r3, #0
 681 0240 3FF4EFAE 		beq	.L3
 613:lvgl/src/widgets/lv_img.c **** 
 682              		.loc 1 613 13 is_stmt 1 view .LVU238
 613:lvgl/src/widgets/lv_img.c **** 
 683              		.loc 1 613 40 is_stmt 0 view .LVU239
 684 0244 3046     		mov	r0, r6
 685              	.LVL57:
 613:lvgl/src/widgets/lv_img.c **** 
 686              		.loc 1 613 40 view .LVU240
 687 0246 FFF7FEFF 		bl	lv_event_get_draw_ctx
 688              	.LVL58:
ARM GAS  /var/folders/21/t9g5rlb91ys800n5npymflf80000gn/T//ccodu31E.s 			page 37


 689 024a 0546     		mov	r5, r0
 690              	.LVL59:
 615:lvgl/src/widgets/lv_img.c ****             lv_area_copy(&img_max_area, &obj->coords);
 691              		.loc 1 615 13 is_stmt 1 view .LVU241
 616:lvgl/src/widgets/lv_img.c **** 
 692              		.loc 1 616 13 view .LVU242
 693              	.LBB70:
 694              	.LBI70:
 110:lvgl/src/widgets/../core/../misc/../font/../misc/lv_area.h **** {
 695              		.loc 2 110 20 view .LVU243
 696              	.LBB71:
 112:lvgl/src/widgets/../core/../misc/../font/../misc/lv_area.h ****     dest->y1 = src->y1;
 697              		.loc 2 112 5 view .LVU244
 112:lvgl/src/widgets/../core/../misc/../font/../misc/lv_area.h ****     dest->y1 = src->y1;
 698              		.loc 2 112 19 is_stmt 0 view .LVU245
 699 024c B4F91460 		ldrsh	r6, [r4, #20]
 700              	.LVL60:
 112:lvgl/src/widgets/../core/../misc/../font/../misc/lv_area.h ****     dest->y1 = src->y1;
 701              		.loc 2 112 14 view .LVU246
 702 0250 ADF83860 		strh	r6, [sp, #56]	@ movhi
 113:lvgl/src/widgets/../core/../misc/../font/../misc/lv_area.h ****     dest->x2 = src->x2;
 703              		.loc 2 113 5 is_stmt 1 view .LVU247
 113:lvgl/src/widgets/../core/../misc/../font/../misc/lv_area.h ****     dest->x2 = src->x2;
 704              		.loc 2 113 19 is_stmt 0 view .LVU248
 705 0254 B4F91670 		ldrsh	r7, [r4, #22]
 113:lvgl/src/widgets/../core/../misc/../font/../misc/lv_area.h ****     dest->x2 = src->x2;
 706              		.loc 2 113 14 view .LVU249
 707 0258 ADF83A70 		strh	r7, [sp, #58]	@ movhi
 114:lvgl/src/widgets/../core/../misc/../font/../misc/lv_area.h ****     dest->y2 = src->y2;
 708              		.loc 2 114 5 is_stmt 1 view .LVU250
 114:lvgl/src/widgets/../core/../misc/../font/../misc/lv_area.h ****     dest->y2 = src->y2;
 709              		.loc 2 114 19 is_stmt 0 view .LVU251
 710 025c B4F91880 		ldrsh	r8, [r4, #24]
 114:lvgl/src/widgets/../core/../misc/../font/../misc/lv_area.h ****     dest->y2 = src->y2;
 711              		.loc 2 114 14 view .LVU252
 712 0260 ADF83C80 		strh	r8, [sp, #60]	@ movhi
 115:lvgl/src/widgets/../core/../misc/../font/../misc/lv_area.h **** }
 713              		.loc 2 115 5 is_stmt 1 view .LVU253
 115:lvgl/src/widgets/../core/../misc/../font/../misc/lv_area.h **** }
 714              		.loc 2 115 19 is_stmt 0 view .LVU254
 715 0264 B4F91A90 		ldrsh	r9, [r4, #26]
 115:lvgl/src/widgets/../core/../misc/../font/../misc/lv_area.h **** }
 716              		.loc 2 115 14 view .LVU255
 717 0268 ADF83E90 		strh	r9, [sp, #62]	@ movhi
 718              	.LVL61:
 115:lvgl/src/widgets/../core/../misc/../font/../misc/lv_area.h **** }
 719              		.loc 2 115 14 view .LVU256
 720              	.LBE71:
 721              	.LBE70:
 618:lvgl/src/widgets/lv_img.c **** 
 722              		.loc 1 618 13 is_stmt 1 view .LVU257
 618:lvgl/src/widgets/lv_img.c **** 
 723              		.loc 1 618 41 is_stmt 0 view .LVU258
 724 026c 2046     		mov	r0, r4
 725              	.LVL62:
 618:lvgl/src/widgets/lv_img.c **** 
 726              		.loc 1 618 41 view .LVU259
ARM GAS  /var/folders/21/t9g5rlb91ys800n5npymflf80000gn/T//ccodu31E.s 			page 38


 727 026e FFF7FEFF 		bl	lv_img_get_transformed_size
 728              	.LVL63:
 729 0272 0990     		str	r0, [sp, #36]
 620:lvgl/src/widgets/lv_img.c ****                 img_max_area.x1 -= ((img->w - img_size_final.x) + 1) / 2;
 730              		.loc 1 620 13 is_stmt 1 view .LVU260
 620:lvgl/src/widgets/lv_img.c ****                 img_max_area.x1 -= ((img->w - img_size_final.x) + 1) / 2;
 731              		.loc 1 620 35 is_stmt 0 view .LVU261
 732 0274 94F83930 		ldrb	r3, [r4, #57]	@ zero_extendqisi2
 733 0278 03F00303 		and	r3, r3, #3
 620:lvgl/src/widgets/lv_img.c ****                 img_max_area.x1 -= ((img->w - img_size_final.x) + 1) / 2;
 734              		.loc 1 620 15 view .LVU262
 735 027c 012B     		cmp	r3, #1
 736 027e 52D0     		beq	.L35
 627:lvgl/src/widgets/lv_img.c ****                 img_max_area.y2 = img_max_area.y1 + lv_area_get_height(&bg_coords) - 1;
 737              		.loc 1 627 17 is_stmt 1 view .LVU263
 738              	.LVL64:
 739              	.LBB72:
 740              	.LBI72:
 123:lvgl/src/widgets/../core/../misc/../font/../misc/lv_area.h **** {
 741              		.loc 2 123 26 view .LVU264
 742              	.LBB73:
 125:lvgl/src/widgets/../core/../misc/../font/../misc/lv_area.h **** }
 743              		.loc 2 125 5 view .LVU265
 125:lvgl/src/widgets/../core/../misc/../font/../misc/lv_area.h **** }
 744              		.loc 2 125 31 is_stmt 0 view .LVU266
 745 0280 BDF82C30 		ldrh	r3, [sp, #44]
 125:lvgl/src/widgets/../core/../misc/../font/../misc/lv_area.h **** }
 746              		.loc 2 125 44 view .LVU267
 747 0284 BDF82820 		ldrh	r2, [sp, #40]
 125:lvgl/src/widgets/../core/../misc/../font/../misc/lv_area.h **** }
 748              		.loc 2 125 36 view .LVU268
 749 0288 9B1A     		subs	r3, r3, r2
 750 028a 9BB2     		uxth	r3, r3
 125:lvgl/src/widgets/../core/../misc/../font/../misc/lv_area.h **** }
 751              		.loc 2 125 49 view .LVU269
 752 028c 0133     		adds	r3, r3, #1
 753 028e 9BB2     		uxth	r3, r3
 754              	.LVL65:
 125:lvgl/src/widgets/../core/../misc/../font/../misc/lv_area.h **** }
 755              		.loc 2 125 49 view .LVU270
 756              	.LBE73:
 757              	.LBE72:
 627:lvgl/src/widgets/lv_img.c ****                 img_max_area.y2 = img_max_area.y1 + lv_area_get_height(&bg_coords) - 1;
 758              		.loc 1 627 51 view .LVU271
 759 0290 13FA86F3 		uxtah	r3, r3, r6
 760 0294 9BB2     		uxth	r3, r3
 627:lvgl/src/widgets/lv_img.c ****                 img_max_area.y2 = img_max_area.y1 + lv_area_get_height(&bg_coords) - 1;
 761              		.loc 1 627 83 view .LVU272
 762 0296 013B     		subs	r3, r3, #1
 627:lvgl/src/widgets/lv_img.c ****                 img_max_area.y2 = img_max_area.y1 + lv_area_get_height(&bg_coords) - 1;
 763              		.loc 1 627 33 view .LVU273
 764 0298 ADF83C30 		strh	r3, [sp, #60]	@ movhi
 628:lvgl/src/widgets/lv_img.c ****             }
 765              		.loc 1 628 17 is_stmt 1 view .LVU274
 766              	.LVL66:
 767              	.LBB74:
 768              	.LBI74:
ARM GAS  /var/folders/21/t9g5rlb91ys800n5npymflf80000gn/T//ccodu31E.s 			page 39


 133:lvgl/src/widgets/../core/../misc/../font/../misc/lv_area.h **** {
 769              		.loc 2 133 26 view .LVU275
 770              	.LBB75:
 771              		.loc 2 135 5 view .LVU276
 772              		.loc 2 135 31 is_stmt 0 view .LVU277
 773 029c BDF82E30 		ldrh	r3, [sp, #46]
 774              		.loc 2 135 44 view .LVU278
 775 02a0 BDF82A20 		ldrh	r2, [sp, #42]
 776              		.loc 2 135 36 view .LVU279
 777 02a4 9B1A     		subs	r3, r3, r2
 778 02a6 9BB2     		uxth	r3, r3
 779              		.loc 2 135 49 view .LVU280
 780 02a8 0133     		adds	r3, r3, #1
 781 02aa 9BB2     		uxth	r3, r3
 782              	.LVL67:
 783              		.loc 2 135 49 view .LVU281
 784              	.LBE75:
 785              	.LBE74:
 628:lvgl/src/widgets/lv_img.c ****             }
 786              		.loc 1 628 51 view .LVU282
 787 02ac 13FA87F3 		uxtah	r3, r3, r7
 788 02b0 9BB2     		uxth	r3, r3
 628:lvgl/src/widgets/lv_img.c ****             }
 789              		.loc 1 628 84 view .LVU283
 790 02b2 013B     		subs	r3, r3, #1
 628:lvgl/src/widgets/lv_img.c ****             }
 791              		.loc 1 628 33 view .LVU284
 792 02b4 ADF83E30 		strh	r3, [sp, #62]	@ movhi
 793              	.L19:
 631:lvgl/src/widgets/lv_img.c ****             img_max_area.y1 += ptop;
 794              		.loc 1 631 13 is_stmt 1 view .LVU285
 631:lvgl/src/widgets/lv_img.c ****             img_max_area.y1 += ptop;
 795              		.loc 1 631 25 is_stmt 0 view .LVU286
 796 02b8 BDF83830 		ldrh	r3, [sp, #56]
 631:lvgl/src/widgets/lv_img.c ****             img_max_area.y1 += ptop;
 797              		.loc 1 631 29 view .LVU287
 798 02bc 029A     		ldr	r2, [sp, #8]
 799 02be 1344     		add	r3, r3, r2
 800 02c0 1FFA83F9 		uxth	r9, r3
 801 02c4 0FFA83F8 		sxth	r8, r3
 802 02c8 ADF83880 		strh	r8, [sp, #56]	@ movhi
 632:lvgl/src/widgets/lv_img.c ****             img_max_area.x2 -= pright;
 803              		.loc 1 632 13 is_stmt 1 view .LVU288
 632:lvgl/src/widgets/lv_img.c ****             img_max_area.x2 -= pright;
 804              		.loc 1 632 25 is_stmt 0 view .LVU289
 805 02cc BDF83A30 		ldrh	r3, [sp, #58]
 632:lvgl/src/widgets/lv_img.c ****             img_max_area.x2 -= pright;
 806              		.loc 1 632 29 view .LVU290
 807 02d0 5B44     		add	r3, r3, fp
 808 02d2 9AB2     		uxth	r2, r3
 809 02d4 0692     		str	r2, [sp, #24]
 810 02d6 1BB2     		sxth	r3, r3
 811 02d8 0793     		str	r3, [sp, #28]
 812 02da ADF83A30 		strh	r3, [sp, #58]	@ movhi
 633:lvgl/src/widgets/lv_img.c ****             img_max_area.y2 -= pbottom;
 813              		.loc 1 633 13 is_stmt 1 view .LVU291
 633:lvgl/src/widgets/lv_img.c ****             img_max_area.y2 -= pbottom;
ARM GAS  /var/folders/21/t9g5rlb91ys800n5npymflf80000gn/T//ccodu31E.s 			page 40


 814              		.loc 1 633 25 is_stmt 0 view .LVU292
 815 02de BDF83C60 		ldrh	r6, [sp, #60]
 633:lvgl/src/widgets/lv_img.c ****             img_max_area.y2 -= pbottom;
 816              		.loc 1 633 29 view .LVU293
 817 02e2 039B     		ldr	r3, [sp, #12]
 818 02e4 F61A     		subs	r6, r6, r3
 819 02e6 36B2     		sxth	r6, r6
 820 02e8 ADF83C60 		strh	r6, [sp, #60]	@ movhi
 634:lvgl/src/widgets/lv_img.c **** 
 821              		.loc 1 634 13 is_stmt 1 view .LVU294
 634:lvgl/src/widgets/lv_img.c **** 
 822              		.loc 1 634 25 is_stmt 0 view .LVU295
 823 02ec BDF83E30 		ldrh	r3, [sp, #62]
 634:lvgl/src/widgets/lv_img.c **** 
 824              		.loc 1 634 29 view .LVU296
 825 02f0 049A     		ldr	r2, [sp, #16]
 826 02f2 9B1A     		subs	r3, r3, r2
 827 02f4 1FB2     		sxth	r7, r3
 828 02f6 ADF83E70 		strh	r7, [sp, #62]	@ movhi
 636:lvgl/src/widgets/lv_img.c ****                 lv_draw_img_dsc_t img_dsc;
 829              		.loc 1 636 13 is_stmt 1 view .LVU297
 636:lvgl/src/widgets/lv_img.c ****                 lv_draw_img_dsc_t img_dsc;
 830              		.loc 1 636 30 is_stmt 0 view .LVU298
 831 02fa 94F83830 		ldrb	r3, [r4, #56]	@ zero_extendqisi2
 636:lvgl/src/widgets/lv_img.c ****                 lv_draw_img_dsc_t img_dsc;
 832              		.loc 1 636 15 view .LVU299
 833 02fe 13F0020F 		tst	r3, #2
 834 0302 37D0     		beq	.L36
 675:lvgl/src/widgets/lv_img.c ****                 lv_draw_label_dsc_t label_dsc;
 835              		.loc 1 675 18 is_stmt 1 view .LVU300
 675:lvgl/src/widgets/lv_img.c ****                 lv_draw_label_dsc_t label_dsc;
 836              		.loc 1 675 35 is_stmt 0 view .LVU301
 837 0304 03F00303 		and	r3, r3, #3
 675:lvgl/src/widgets/lv_img.c ****                 lv_draw_label_dsc_t label_dsc;
 838              		.loc 1 675 20 view .LVU302
 839 0308 022B     		cmp	r3, #2
 840 030a 00F0DB80 		beq	.L37
 684:lvgl/src/widgets/lv_img.c ****                 lv_draw_img(draw_ctx, NULL, &obj->coords, NULL);
 841              		.loc 1 684 17 is_stmt 1 view .LVU303
 684:lvgl/src/widgets/lv_img.c ****                 lv_draw_img(draw_ctx, NULL, &obj->coords, NULL);
 842              		.loc 1 684 17 view .LVU304
 684:lvgl/src/widgets/lv_img.c ****                 lv_draw_img(draw_ctx, NULL, &obj->coords, NULL);
 843              		.loc 1 684 17 view .LVU305
 685:lvgl/src/widgets/lv_img.c ****             }
 844              		.loc 1 685 17 view .LVU306
 845 030e 0023     		movs	r3, #0
 846 0310 059A     		ldr	r2, [sp, #20]
 847 0312 1946     		mov	r1, r3
 848 0314 2846     		mov	r0, r5
 849 0316 FFF7FEFF 		bl	lv_draw_img
 850              	.LVL68:
 851 031a 82E6     		b	.L3
 852              	.LVL69:
 853              	.L34:
 685:lvgl/src/widgets/lv_img.c ****             }
 854              		.loc 1 685 17 is_stmt 0 view .LVU307
 855              	.LBE69:
ARM GAS  /var/folders/21/t9g5rlb91ys800n5npymflf80000gn/T//ccodu31E.s 			page 41


 587:lvgl/src/widgets/lv_img.c ****         }
 856              		.loc 1 587 13 is_stmt 1 view .LVU308
 857 031c 0AA9     		add	r1, sp, #40
 858 031e 2046     		mov	r0, r4
 859 0320 FFF7FEFF 		bl	lv_obj_get_coords
 860              	.LVL70:
 861 0324 50E7     		b	.L14
 862              	.LVL71:
 863              	.L35:
 864              	.LBB78:
 621:lvgl/src/widgets/lv_img.c ****                 img_max_area.x2 -= ((img->w - img_size_final.x) + 1) / 2;
 865              		.loc 1 621 17 view .LVU309
 621:lvgl/src/widgets/lv_img.c ****                 img_max_area.x2 -= ((img->w - img_size_final.x) + 1) / 2;
 866              		.loc 1 621 41 is_stmt 0 view .LVU310
 867 0326 B4F92C30 		ldrsh	r3, [r4, #44]
 621:lvgl/src/widgets/lv_img.c ****                 img_max_area.x2 -= ((img->w - img_size_final.x) + 1) / 2;
 868              		.loc 1 621 61 view .LVU311
 869 032a BDF92420 		ldrsh	r2, [sp, #36]
 621:lvgl/src/widgets/lv_img.c ****                 img_max_area.x2 -= ((img->w - img_size_final.x) + 1) / 2;
 870              		.loc 1 621 45 view .LVU312
 871 032e 9B1A     		subs	r3, r3, r2
 621:lvgl/src/widgets/lv_img.c ****                 img_max_area.x2 -= ((img->w - img_size_final.x) + 1) / 2;
 872              		.loc 1 621 65 view .LVU313
 873 0330 0133     		adds	r3, r3, #1
 621:lvgl/src/widgets/lv_img.c ****                 img_max_area.x2 -= ((img->w - img_size_final.x) + 1) / 2;
 874              		.loc 1 621 70 view .LVU314
 875 0332 03EBD373 		add	r3, r3, r3, lsr #31
 876 0336 5B10     		asrs	r3, r3, #1
 877 0338 5B42     		rsbs	r3, r3, #0
 621:lvgl/src/widgets/lv_img.c ****                 img_max_area.x2 -= ((img->w - img_size_final.x) + 1) / 2;
 878              		.loc 1 621 33 view .LVU315
 879 033a 9BB2     		uxth	r3, r3
 880 033c 13FA86F6 		uxtah	r6, r3, r6
 881 0340 ADF83860 		strh	r6, [sp, #56]	@ movhi
 622:lvgl/src/widgets/lv_img.c ****                 img_max_area.y1 -= ((img->h - img_size_final.y) + 1) / 2;
 882              		.loc 1 622 17 is_stmt 1 view .LVU316
 622:lvgl/src/widgets/lv_img.c ****                 img_max_area.y1 -= ((img->h - img_size_final.y) + 1) / 2;
 883              		.loc 1 622 33 is_stmt 0 view .LVU317
 884 0344 13FA88F8 		uxtah	r8, r3, r8
 885 0348 ADF83C80 		strh	r8, [sp, #60]	@ movhi
 623:lvgl/src/widgets/lv_img.c ****                 img_max_area.y2 -= ((img->h - img_size_final.y) + 1) / 2;
 886              		.loc 1 623 17 is_stmt 1 view .LVU318
 623:lvgl/src/widgets/lv_img.c ****                 img_max_area.y2 -= ((img->h - img_size_final.y) + 1) / 2;
 887              		.loc 1 623 41 is_stmt 0 view .LVU319
 888 034c B4F92E30 		ldrsh	r3, [r4, #46]
 623:lvgl/src/widgets/lv_img.c ****                 img_max_area.y2 -= ((img->h - img_size_final.y) + 1) / 2;
 889              		.loc 1 623 61 view .LVU320
 890 0350 BDF92620 		ldrsh	r2, [sp, #38]
 623:lvgl/src/widgets/lv_img.c ****                 img_max_area.y2 -= ((img->h - img_size_final.y) + 1) / 2;
 891              		.loc 1 623 45 view .LVU321
 892 0354 9B1A     		subs	r3, r3, r2
 623:lvgl/src/widgets/lv_img.c ****                 img_max_area.y2 -= ((img->h - img_size_final.y) + 1) / 2;
 893              		.loc 1 623 65 view .LVU322
 894 0356 0133     		adds	r3, r3, #1
 623:lvgl/src/widgets/lv_img.c ****                 img_max_area.y2 -= ((img->h - img_size_final.y) + 1) / 2;
 895              		.loc 1 623 70 view .LVU323
 896 0358 03EBD373 		add	r3, r3, r3, lsr #31
ARM GAS  /var/folders/21/t9g5rlb91ys800n5npymflf80000gn/T//ccodu31E.s 			page 42


 897 035c 5B10     		asrs	r3, r3, #1
 898 035e 5B42     		rsbs	r3, r3, #0
 623:lvgl/src/widgets/lv_img.c ****                 img_max_area.y2 -= ((img->h - img_size_final.y) + 1) / 2;
 899              		.loc 1 623 33 view .LVU324
 900 0360 9BB2     		uxth	r3, r3
 901 0362 13FA87F2 		uxtah	r2, r3, r7
 902 0366 ADF83A20 		strh	r2, [sp, #58]	@ movhi
 624:lvgl/src/widgets/lv_img.c ****             }
 903              		.loc 1 624 17 is_stmt 1 view .LVU325
 624:lvgl/src/widgets/lv_img.c ****             }
 904              		.loc 1 624 33 is_stmt 0 view .LVU326
 905 036a 13FA89F9 		uxtah	r9, r3, r9
 906 036e ADF83E90 		strh	r9, [sp, #62]	@ movhi
 907 0372 A1E7     		b	.L19
 908              	.L36:
 909              	.LBB76:
 637:lvgl/src/widgets/lv_img.c ****                 lv_draw_img_dsc_init(&img_dsc);
 910              		.loc 1 637 17 is_stmt 1 view .LVU327
 638:lvgl/src/widgets/lv_img.c ****                 lv_obj_init_draw_img_dsc(obj, LV_PART_MAIN, &img_dsc);
 911              		.loc 1 638 17 view .LVU328
 912 0374 14A8     		add	r0, sp, #80
 913 0376 FFF7FEFF 		bl	lv_draw_img_dsc_init
 914              	.LVL72:
 639:lvgl/src/widgets/lv_img.c **** 
 915              		.loc 1 639 17 view .LVU329
 916 037a 14AA     		add	r2, sp, #80
 917 037c 0021     		movs	r1, #0
 918 037e 2046     		mov	r0, r4
 919 0380 FFF7FEFF 		bl	lv_obj_init_draw_img_dsc
 920              	.LVL73:
 641:lvgl/src/widgets/lv_img.c ****                 img_dsc.angle = img->angle;
 921              		.loc 1 641 17 view .LVU330
 641:lvgl/src/widgets/lv_img.c ****                 img_dsc.angle = img->angle;
 922              		.loc 1 641 35 is_stmt 0 view .LVU331
 923 0384 E38E     		ldrh	r3, [r4, #54]
 641:lvgl/src/widgets/lv_img.c ****                 img_dsc.angle = img->angle;
 924              		.loc 1 641 30 view .LVU332
 925 0386 ADF85230 		strh	r3, [sp, #82]	@ movhi
 642:lvgl/src/widgets/lv_img.c ****                 img_dsc.pivot.x = img->pivot.x;
 926              		.loc 1 642 17 is_stmt 1 view .LVU333
 642:lvgl/src/widgets/lv_img.c ****                 img_dsc.pivot.x = img->pivot.x;
 927              		.loc 1 642 36 is_stmt 0 view .LVU334
 928 038a B4F93030 		ldrsh	r3, [r4, #48]
 642:lvgl/src/widgets/lv_img.c ****                 img_dsc.pivot.x = img->pivot.x;
 929              		.loc 1 642 31 view .LVU335
 930 038e ADF85030 		strh	r3, [sp, #80]	@ movhi
 643:lvgl/src/widgets/lv_img.c ****                 img_dsc.pivot.y = img->pivot.y;
 931              		.loc 1 643 17 is_stmt 1 view .LVU336
 643:lvgl/src/widgets/lv_img.c ****                 img_dsc.pivot.y = img->pivot.y;
 932              		.loc 1 643 45 is_stmt 0 view .LVU337
 933 0392 B4F93230 		ldrsh	r3, [r4, #50]
 643:lvgl/src/widgets/lv_img.c ****                 img_dsc.pivot.y = img->pivot.y;
 934              		.loc 1 643 33 view .LVU338
 935 0396 ADF85430 		strh	r3, [sp, #84]	@ movhi
 644:lvgl/src/widgets/lv_img.c ****                 img_dsc.antialias = img->antialias;
 936              		.loc 1 644 17 is_stmt 1 view .LVU339
 644:lvgl/src/widgets/lv_img.c ****                 img_dsc.antialias = img->antialias;
ARM GAS  /var/folders/21/t9g5rlb91ys800n5npymflf80000gn/T//ccodu31E.s 			page 43


 937              		.loc 1 644 45 is_stmt 0 view .LVU340
 938 039a B4F93430 		ldrsh	r3, [r4, #52]
 644:lvgl/src/widgets/lv_img.c ****                 img_dsc.antialias = img->antialias;
 939              		.loc 1 644 33 view .LVU341
 940 039e ADF85630 		strh	r3, [sp, #86]	@ movhi
 645:lvgl/src/widgets/lv_img.c **** 
 941              		.loc 1 645 17 is_stmt 1 view .LVU342
 645:lvgl/src/widgets/lv_img.c **** 
 942              		.loc 1 645 40 is_stmt 0 view .LVU343
 943 03a2 94F83830 		ldrb	r3, [r4, #56]	@ zero_extendqisi2
 944 03a6 DB09     		lsrs	r3, r3, #7
 645:lvgl/src/widgets/lv_img.c **** 
 945              		.loc 1 645 35 view .LVU344
 946 03a8 9DF86420 		ldrb	r2, [sp, #100]	@ zero_extendqisi2
 947 03ac 63F30002 		bfi	r2, r3, #0, #1
 948 03b0 8DF86420 		strb	r2, [sp, #100]
 647:lvgl/src/widgets/lv_img.c ****                 img_clip_area.x1 = bg_coords.x1 + pleft;
 949              		.loc 1 647 17 is_stmt 1 view .LVU345
 648:lvgl/src/widgets/lv_img.c ****                 img_clip_area.y1 = bg_coords.y1 + ptop;
 950              		.loc 1 648 17 view .LVU346
 648:lvgl/src/widgets/lv_img.c ****                 img_clip_area.y1 = bg_coords.y1 + ptop;
 951              		.loc 1 648 45 is_stmt 0 view .LVU347
 952 03b4 BDF82830 		ldrh	r3, [sp, #40]
 648:lvgl/src/widgets/lv_img.c ****                 img_clip_area.y1 = bg_coords.y1 + ptop;
 953              		.loc 1 648 49 view .LVU348
 954 03b8 029A     		ldr	r2, [sp, #8]
 955 03ba 1A44     		add	r2, r2, r3
 648:lvgl/src/widgets/lv_img.c ****                 img_clip_area.y1 = bg_coords.y1 + ptop;
 956              		.loc 1 648 34 view .LVU349
 957 03bc ADF84020 		strh	r2, [sp, #64]	@ movhi
 649:lvgl/src/widgets/lv_img.c ****                 img_clip_area.x2 = bg_coords.x2 - pright;
 958              		.loc 1 649 17 is_stmt 1 view .LVU350
 649:lvgl/src/widgets/lv_img.c ****                 img_clip_area.x2 = bg_coords.x2 - pright;
 959              		.loc 1 649 45 is_stmt 0 view .LVU351
 960 03c0 BDF82A30 		ldrh	r3, [sp, #42]
 649:lvgl/src/widgets/lv_img.c ****                 img_clip_area.x2 = bg_coords.x2 - pright;
 961              		.loc 1 649 49 view .LVU352
 962 03c4 5B44     		add	r3, r3, fp
 649:lvgl/src/widgets/lv_img.c ****                 img_clip_area.x2 = bg_coords.x2 - pright;
 963              		.loc 1 649 34 view .LVU353
 964 03c6 ADF84230 		strh	r3, [sp, #66]	@ movhi
 650:lvgl/src/widgets/lv_img.c ****                 img_clip_area.y2 = bg_coords.y2 - pbottom;
 965              		.loc 1 650 17 is_stmt 1 view .LVU354
 650:lvgl/src/widgets/lv_img.c ****                 img_clip_area.y2 = bg_coords.y2 - pbottom;
 966              		.loc 1 650 45 is_stmt 0 view .LVU355
 967 03ca BDF82C30 		ldrh	r3, [sp, #44]
 650:lvgl/src/widgets/lv_img.c ****                 img_clip_area.y2 = bg_coords.y2 - pbottom;
 968              		.loc 1 650 49 view .LVU356
 969 03ce 039A     		ldr	r2, [sp, #12]
 970 03d0 9B1A     		subs	r3, r3, r2
 650:lvgl/src/widgets/lv_img.c ****                 img_clip_area.y2 = bg_coords.y2 - pbottom;
 971              		.loc 1 650 34 view .LVU357
 972 03d2 ADF84430 		strh	r3, [sp, #68]	@ movhi
 651:lvgl/src/widgets/lv_img.c ****                 const lv_area_t * clip_area_ori = draw_ctx->clip_area;
 973              		.loc 1 651 17 is_stmt 1 view .LVU358
 651:lvgl/src/widgets/lv_img.c ****                 const lv_area_t * clip_area_ori = draw_ctx->clip_area;
 974              		.loc 1 651 45 is_stmt 0 view .LVU359
ARM GAS  /var/folders/21/t9g5rlb91ys800n5npymflf80000gn/T//ccodu31E.s 			page 44


 975 03d6 BDF82E30 		ldrh	r3, [sp, #46]
 651:lvgl/src/widgets/lv_img.c ****                 const lv_area_t * clip_area_ori = draw_ctx->clip_area;
 976              		.loc 1 651 49 view .LVU360
 977 03da 049A     		ldr	r2, [sp, #16]
 978 03dc 9B1A     		subs	r3, r3, r2
 651:lvgl/src/widgets/lv_img.c ****                 const lv_area_t * clip_area_ori = draw_ctx->clip_area;
 979              		.loc 1 651 34 view .LVU361
 980 03de ADF84630 		strh	r3, [sp, #70]	@ movhi
 652:lvgl/src/widgets/lv_img.c **** 
 981              		.loc 1 652 17 is_stmt 1 view .LVU362
 652:lvgl/src/widgets/lv_img.c **** 
 982              		.loc 1 652 35 is_stmt 0 view .LVU363
 983 03e2 D5F808B0 		ldr	fp, [r5, #8]
 984              	.LVL74:
 654:lvgl/src/widgets/lv_img.c ****                 draw_ctx->clip_area = &img_clip_area;
 985              		.loc 1 654 17 is_stmt 1 view .LVU364
 654:lvgl/src/widgets/lv_img.c ****                 draw_ctx->clip_area = &img_clip_area;
 986              		.loc 1 654 21 is_stmt 0 view .LVU365
 987 03e6 10AA     		add	r2, sp, #64
 988 03e8 5946     		mov	r1, fp
 989 03ea 1046     		mov	r0, r2
 990 03ec FFF7FEFF 		bl	_lv_area_intersect
 991              	.LVL75:
 654:lvgl/src/widgets/lv_img.c ****                 draw_ctx->clip_area = &img_clip_area;
 992              		.loc 1 654 19 view .LVU366
 993 03f0 0028     		cmp	r0, #0
 994 03f2 3FF416AE 		beq	.L3
 655:lvgl/src/widgets/lv_img.c **** 
 995              		.loc 1 655 17 is_stmt 1 view .LVU367
 655:lvgl/src/widgets/lv_img.c **** 
 996              		.loc 1 655 37 is_stmt 0 view .LVU368
 997 03f6 10AB     		add	r3, sp, #64
 998 03f8 AB60     		str	r3, [r5, #8]
 657:lvgl/src/widgets/lv_img.c ****                 lv_coord_t offset_x = img->offset.x % img->w;
 999              		.loc 1 657 17 is_stmt 1 view .LVU369
 658:lvgl/src/widgets/lv_img.c ****                 lv_coord_t offset_y = img->offset.y % img->h;
 1000              		.loc 1 658 17 view .LVU370
 658:lvgl/src/widgets/lv_img.c ****                 lv_coord_t offset_y = img->offset.y % img->h;
 1001              		.loc 1 658 50 is_stmt 0 view .LVU371
 1002 03fa B4F928A0 		ldrsh	r10, [r4, #40]
 658:lvgl/src/widgets/lv_img.c ****                 lv_coord_t offset_y = img->offset.y % img->h;
 1003              		.loc 1 658 58 view .LVU372
 1004 03fe B4F92C30 		ldrsh	r3, [r4, #44]
 658:lvgl/src/widgets/lv_img.c ****                 lv_coord_t offset_y = img->offset.y % img->h;
 1005              		.loc 1 658 53 view .LVU373
 1006 0402 9AFBF3F2 		sdiv	r2, r10, r3
 1007 0406 03FB12AA 		mls	r10, r3, r2, r10
 1008              	.LVL76:
 659:lvgl/src/widgets/lv_img.c ****                 coords_tmp.y1 = img_max_area.y1 + offset_y;
 1009              		.loc 1 659 17 is_stmt 1 view .LVU374
 659:lvgl/src/widgets/lv_img.c ****                 coords_tmp.y1 = img_max_area.y1 + offset_y;
 1010              		.loc 1 659 50 is_stmt 0 view .LVU375
 1011 040a B4F92A30 		ldrsh	r3, [r4, #42]
 659:lvgl/src/widgets/lv_img.c ****                 coords_tmp.y1 = img_max_area.y1 + offset_y;
 1012              		.loc 1 659 58 view .LVU376
 1013 040e B4F92E20 		ldrsh	r2, [r4, #46]
 659:lvgl/src/widgets/lv_img.c ****                 coords_tmp.y1 = img_max_area.y1 + offset_y;
ARM GAS  /var/folders/21/t9g5rlb91ys800n5npymflf80000gn/T//ccodu31E.s 			page 45


 1014              		.loc 1 659 53 view .LVU377
 1015 0412 93FBF2F1 		sdiv	r1, r3, r2
 1016 0416 02FB1133 		mls	r3, r2, r1, r3
 1017              	.LVL77:
 660:lvgl/src/widgets/lv_img.c ****                 if(coords_tmp.y1 > img_max_area.y1) coords_tmp.y1 -= img->h;
 1018              		.loc 1 660 17 is_stmt 1 view .LVU378
 660:lvgl/src/widgets/lv_img.c ****                 if(coords_tmp.y1 > img_max_area.y1) coords_tmp.y1 -= img->h;
 1019              		.loc 1 660 49 is_stmt 0 view .LVU379
 1020 041a 0699     		ldr	r1, [sp, #24]
 1021 041c 1944     		add	r1, r1, r3
 1022 041e 0B46     		mov	r3, r1
 1023              	.LVL78:
 660:lvgl/src/widgets/lv_img.c ****                 if(coords_tmp.y1 > img_max_area.y1) coords_tmp.y1 -= img->h;
 1024              		.loc 1 660 49 view .LVU380
 1025 0420 89B2     		uxth	r1, r1
 1026 0422 1BB2     		sxth	r3, r3
 660:lvgl/src/widgets/lv_img.c ****                 if(coords_tmp.y1 > img_max_area.y1) coords_tmp.y1 -= img->h;
 1027              		.loc 1 660 31 view .LVU381
 1028 0424 ADF84A30 		strh	r3, [sp, #74]	@ movhi
 661:lvgl/src/widgets/lv_img.c ****                 coords_tmp.y2 = coords_tmp.y1 + img->h - 1;
 1029              		.loc 1 661 17 is_stmt 1 view .LVU382
 661:lvgl/src/widgets/lv_img.c ****                 coords_tmp.y2 = coords_tmp.y1 + img->h - 1;
 1030              		.loc 1 661 19 is_stmt 0 view .LVU383
 1031 0428 0798     		ldr	r0, [sp, #28]
 1032 042a 9842     		cmp	r0, r3
 1033 042c 03DA     		bge	.L22
 661:lvgl/src/widgets/lv_img.c ****                 coords_tmp.y2 = coords_tmp.y1 + img->h - 1;
 1034              		.loc 1 661 53 is_stmt 1 discriminator 1 view .LVU384
 661:lvgl/src/widgets/lv_img.c ****                 coords_tmp.y2 = coords_tmp.y1 + img->h - 1;
 1035              		.loc 1 661 73 is_stmt 0 discriminator 1 view .LVU385
 1036 042e 93B2     		uxth	r3, r2
 661:lvgl/src/widgets/lv_img.c ****                 coords_tmp.y2 = coords_tmp.y1 + img->h - 1;
 1037              		.loc 1 661 67 discriminator 1 view .LVU386
 1038 0430 C91A     		subs	r1, r1, r3
 1039 0432 ADF84A10 		strh	r1, [sp, #74]	@ movhi
 1040              	.L22:
 662:lvgl/src/widgets/lv_img.c **** 
 1041              		.loc 1 662 17 is_stmt 1 view .LVU387
 662:lvgl/src/widgets/lv_img.c **** 
 1042              		.loc 1 662 43 is_stmt 0 view .LVU388
 1043 0436 BDF84A30 		ldrh	r3, [sp, #74]
 662:lvgl/src/widgets/lv_img.c **** 
 1044              		.loc 1 662 47 view .LVU389
 1045 043a 13FA82F3 		uxtah	r3, r3, r2
 1046 043e 9BB2     		uxth	r3, r3
 662:lvgl/src/widgets/lv_img.c **** 
 1047              		.loc 1 662 56 view .LVU390
 1048 0440 013B     		subs	r3, r3, #1
 662:lvgl/src/widgets/lv_img.c **** 
 1049              		.loc 1 662 31 view .LVU391
 1050 0442 ADF84E30 		strh	r3, [sp, #78]	@ movhi
 664:lvgl/src/widgets/lv_img.c ****                     coords_tmp.x1 = img_max_area.x1 + offset_x;
 1051              		.loc 1 664 17 is_stmt 1 view .LVU392
 1052 0446 21E0     		b	.L23
 1053              	.LVL79:
 1054              	.L26:
 670:lvgl/src/widgets/lv_img.c ****                     }
ARM GAS  /var/folders/21/t9g5rlb91ys800n5npymflf80000gn/T//ccodu31E.s 			page 46


 1055              		.loc 1 670 25 discriminator 2 view .LVU393
 1056 0448 636A     		ldr	r3, [r4, #36]
 1057 044a 12AA     		add	r2, sp, #72
 1058 044c 14A9     		add	r1, sp, #80
 1059 044e 2846     		mov	r0, r5
 1060 0450 FFF7FEFF 		bl	lv_draw_img
 1061              	.LVL80:
 669:lvgl/src/widgets/lv_img.c ****                         lv_draw_img(draw_ctx, &img_dsc, &coords_tmp, img->src);
 1062              		.loc 1 669 93 discriminator 2 view .LVU394
 669:lvgl/src/widgets/lv_img.c ****                         lv_draw_img(draw_ctx, &img_dsc, &coords_tmp, img->src);
 1063              		.loc 1 669 70 is_stmt 0 discriminator 2 view .LVU395
 1064 0454 BDF84820 		ldrh	r2, [sp, #72]
 669:lvgl/src/widgets/lv_img.c ****                         lv_draw_img(draw_ctx, &img_dsc, &coords_tmp, img->src);
 1065              		.loc 1 669 91 discriminator 2 view .LVU396
 1066 0458 BDF82430 		ldrh	r3, [sp, #36]
 669:lvgl/src/widgets/lv_img.c ****                         lv_draw_img(draw_ctx, &img_dsc, &coords_tmp, img->src);
 1067              		.loc 1 669 74 discriminator 2 view .LVU397
 1068 045c 1A44     		add	r2, r2, r3
 1069 045e ADF84820 		strh	r2, [sp, #72]	@ movhi
 669:lvgl/src/widgets/lv_img.c ****                         lv_draw_img(draw_ctx, &img_dsc, &coords_tmp, img->src);
 1070              		.loc 1 669 105 discriminator 2 view .LVU398
 1071 0462 BDF84C20 		ldrh	r2, [sp, #76]
 669:lvgl/src/widgets/lv_img.c ****                         lv_draw_img(draw_ctx, &img_dsc, &coords_tmp, img->src);
 1072              		.loc 1 669 109 discriminator 2 view .LVU399
 1073 0466 1344     		add	r3, r3, r2
 1074 0468 ADF84C30 		strh	r3, [sp, #76]	@ movhi
 1075              	.L25:
 669:lvgl/src/widgets/lv_img.c ****                         lv_draw_img(draw_ctx, &img_dsc, &coords_tmp, img->src);
 1076              		.loc 1 669 41 is_stmt 1 discriminator 1 view .LVU400
 669:lvgl/src/widgets/lv_img.c ****                         lv_draw_img(draw_ctx, &img_dsc, &coords_tmp, img->src);
 1077              		.loc 1 669 37 is_stmt 0 discriminator 1 view .LVU401
 1078 046c BDF94830 		ldrsh	r3, [sp, #72]
 669:lvgl/src/widgets/lv_img.c ****                         lv_draw_img(draw_ctx, &img_dsc, &coords_tmp, img->src);
 1079              		.loc 1 669 41 discriminator 1 view .LVU402
 1080 0470 9E42     		cmp	r6, r3
 1081 0472 E9DC     		bgt	.L26
 664:lvgl/src/widgets/lv_img.c ****                     coords_tmp.x1 = img_max_area.x1 + offset_x;
 1082              		.loc 1 664 89 is_stmt 1 view .LVU403
 664:lvgl/src/widgets/lv_img.c ****                     coords_tmp.x1 = img_max_area.x1 + offset_x;
 1083              		.loc 1 664 66 is_stmt 0 view .LVU404
 1084 0474 BDF84A20 		ldrh	r2, [sp, #74]
 664:lvgl/src/widgets/lv_img.c ****                     coords_tmp.x1 = img_max_area.x1 + offset_x;
 1085              		.loc 1 664 87 view .LVU405
 1086 0478 BDF82630 		ldrh	r3, [sp, #38]
 664:lvgl/src/widgets/lv_img.c ****                     coords_tmp.x1 = img_max_area.x1 + offset_x;
 1087              		.loc 1 664 70 view .LVU406
 1088 047c 1A44     		add	r2, r2, r3
 1089 047e ADF84A20 		strh	r2, [sp, #74]	@ movhi
 664:lvgl/src/widgets/lv_img.c ****                     coords_tmp.x1 = img_max_area.x1 + offset_x;
 1090              		.loc 1 664 101 view .LVU407
 1091 0482 BDF84E20 		ldrh	r2, [sp, #78]
 664:lvgl/src/widgets/lv_img.c ****                     coords_tmp.x1 = img_max_area.x1 + offset_x;
 1092              		.loc 1 664 105 view .LVU408
 1093 0486 1344     		add	r3, r3, r2
 1094 0488 ADF84E30 		strh	r3, [sp, #78]	@ movhi
 1095              	.L23:
 664:lvgl/src/widgets/lv_img.c ****                     coords_tmp.x1 = img_max_area.x1 + offset_x;
ARM GAS  /var/folders/21/t9g5rlb91ys800n5npymflf80000gn/T//ccodu31E.s 			page 47


 1096              		.loc 1 664 37 is_stmt 1 discriminator 1 view .LVU409
 664:lvgl/src/widgets/lv_img.c ****                     coords_tmp.x1 = img_max_area.x1 + offset_x;
 1097              		.loc 1 664 33 is_stmt 0 discriminator 1 view .LVU410
 1098 048c BDF94A30 		ldrsh	r3, [sp, #74]
 664:lvgl/src/widgets/lv_img.c ****                     coords_tmp.x1 = img_max_area.x1 + offset_x;
 1099              		.loc 1 664 37 discriminator 1 view .LVU411
 1100 0490 9F42     		cmp	r7, r3
 1101 0492 14DD     		ble	.L38
 665:lvgl/src/widgets/lv_img.c ****                     if(coords_tmp.x1 > img_max_area.x1) coords_tmp.x1 -= img->w;
 1102              		.loc 1 665 21 is_stmt 1 view .LVU412
 665:lvgl/src/widgets/lv_img.c ****                     if(coords_tmp.x1 > img_max_area.x1) coords_tmp.x1 -= img->w;
 1103              		.loc 1 665 53 is_stmt 0 view .LVU413
 1104 0494 09EB0A03 		add	r3, r9, r10
 1105 0498 9AB2     		uxth	r2, r3
 1106 049a 1BB2     		sxth	r3, r3
 665:lvgl/src/widgets/lv_img.c ****                     if(coords_tmp.x1 > img_max_area.x1) coords_tmp.x1 -= img->w;
 1107              		.loc 1 665 35 view .LVU414
 1108 049c ADF84830 		strh	r3, [sp, #72]	@ movhi
 666:lvgl/src/widgets/lv_img.c ****                     coords_tmp.x2 = coords_tmp.x1 + img->w - 1;
 1109              		.loc 1 666 21 is_stmt 1 view .LVU415
 666:lvgl/src/widgets/lv_img.c ****                     coords_tmp.x2 = coords_tmp.x1 + img->w - 1;
 1110              		.loc 1 666 23 is_stmt 0 view .LVU416
 1111 04a0 9845     		cmp	r8, r3
 1112 04a2 03DA     		bge	.L24
 666:lvgl/src/widgets/lv_img.c ****                     coords_tmp.x2 = coords_tmp.x1 + img->w - 1;
 1113              		.loc 1 666 57 is_stmt 1 discriminator 1 view .LVU417
 666:lvgl/src/widgets/lv_img.c ****                     coords_tmp.x2 = coords_tmp.x1 + img->w - 1;
 1114              		.loc 1 666 77 is_stmt 0 discriminator 1 view .LVU418
 1115 04a4 A38D     		ldrh	r3, [r4, #44]
 666:lvgl/src/widgets/lv_img.c ****                     coords_tmp.x2 = coords_tmp.x1 + img->w - 1;
 1116              		.loc 1 666 71 discriminator 1 view .LVU419
 1117 04a6 D21A     		subs	r2, r2, r3
 1118 04a8 ADF84820 		strh	r2, [sp, #72]	@ movhi
 1119              	.L24:
 667:lvgl/src/widgets/lv_img.c **** 
 1120              		.loc 1 667 21 is_stmt 1 view .LVU420
 667:lvgl/src/widgets/lv_img.c **** 
 1121              		.loc 1 667 47 is_stmt 0 view .LVU421
 1122 04ac BDF84830 		ldrh	r3, [sp, #72]
 667:lvgl/src/widgets/lv_img.c **** 
 1123              		.loc 1 667 56 view .LVU422
 1124 04b0 A28D     		ldrh	r2, [r4, #44]
 667:lvgl/src/widgets/lv_img.c **** 
 1125              		.loc 1 667 51 view .LVU423
 1126 04b2 1344     		add	r3, r3, r2
 1127 04b4 9BB2     		uxth	r3, r3
 667:lvgl/src/widgets/lv_img.c **** 
 1128              		.loc 1 667 60 view .LVU424
 1129 04b6 013B     		subs	r3, r3, #1
 667:lvgl/src/widgets/lv_img.c **** 
 1130              		.loc 1 667 35 view .LVU425
 1131 04b8 ADF84C30 		strh	r3, [sp, #76]	@ movhi
 669:lvgl/src/widgets/lv_img.c ****                         lv_draw_img(draw_ctx, &img_dsc, &coords_tmp, img->src);
 1132              		.loc 1 669 21 is_stmt 1 view .LVU426
 1133 04bc D6E7     		b	.L25
 1134              	.L38:
 673:lvgl/src/widgets/lv_img.c ****             }
ARM GAS  /var/folders/21/t9g5rlb91ys800n5npymflf80000gn/T//ccodu31E.s 			page 48


 1135              		.loc 1 673 17 view .LVU427
 673:lvgl/src/widgets/lv_img.c ****             }
 1136              		.loc 1 673 37 is_stmt 0 view .LVU428
 1137 04be C5F808B0 		str	fp, [r5, #8]
 1138              	.LBE76:
 1139 04c2 AEE5     		b	.L3
 1140              	.LVL81:
 1141              	.L37:
 1142              	.LBB77:
 676:lvgl/src/widgets/lv_img.c ****                 lv_draw_label_dsc_init(&label_dsc);
 1143              		.loc 1 676 17 is_stmt 1 view .LVU429
 677:lvgl/src/widgets/lv_img.c ****                 lv_obj_init_draw_label_dsc(obj, LV_PART_MAIN, &label_dsc);
 1144              		.loc 1 677 17 view .LVU430
 1145 04c4 14A8     		add	r0, sp, #80
 1146 04c6 FFF7FEFF 		bl	lv_draw_label_dsc_init
 1147              	.LVL82:
 678:lvgl/src/widgets/lv_img.c **** 
 1148              		.loc 1 678 17 view .LVU431
 1149 04ca 14AA     		add	r2, sp, #80
 1150 04cc 0021     		movs	r1, #0
 1151 04ce 2046     		mov	r0, r4
 1152 04d0 FFF7FEFF 		bl	lv_obj_init_draw_label_dsc
 1153              	.LVL83:
 680:lvgl/src/widgets/lv_img.c ****             }
 1154              		.loc 1 680 17 view .LVU432
 680:lvgl/src/widgets/lv_img.c ****             }
 1155              		.loc 1 680 70 is_stmt 0 view .LVU433
 1156 04d4 636A     		ldr	r3, [r4, #36]
 680:lvgl/src/widgets/lv_img.c ****             }
 1157              		.loc 1 680 17 view .LVU434
 1158 04d6 0022     		movs	r2, #0
 1159 04d8 0092     		str	r2, [sp]
 1160 04da 059A     		ldr	r2, [sp, #20]
 1161 04dc 14A9     		add	r1, sp, #80
 1162 04de 2846     		mov	r0, r5
 1163 04e0 FFF7FEFF 		bl	lv_draw_label
 1164              	.LVL84:
 1165              	.LBE77:
 1166 04e4 9DE5     		b	.L3
 1167              	.L40:
 1168 04e6 00BF     		.align	2
 1169              	.L39:
 1170 04e8 00000000 		.word	lv_img_class
 1171              	.LBE78:
 1172              	.LBE52:
 1173              		.cfi_endproc
 1174              	.LFE188:
 1176              		.section	.text.lv_img_destructor,"ax",%progbits
 1177              		.align	1
 1178              		.syntax unified
 1179              		.thumb
 1180              		.thumb_func
 1182              	lv_img_destructor:
 1183              	.LVL85:
 1184              	.LFB185:
 413:lvgl/src/widgets/lv_img.c ****     LV_UNUSED(class_p);
 1185              		.loc 1 413 1 is_stmt 1 view -0
ARM GAS  /var/folders/21/t9g5rlb91ys800n5npymflf80000gn/T//ccodu31E.s 			page 49


 1186              		.cfi_startproc
 1187              		@ args = 0, pretend = 0, frame = 0
 1188              		@ frame_needed = 0, uses_anonymous_args = 0
 414:lvgl/src/widgets/lv_img.c ****     lv_img_t * img = (lv_img_t *)obj;
 1189              		.loc 1 414 5 view .LVU436
 415:lvgl/src/widgets/lv_img.c ****     if(img->src_type == LV_IMG_SRC_FILE || img->src_type == LV_IMG_SRC_SYMBOL) {
 1190              		.loc 1 415 5 view .LVU437
 416:lvgl/src/widgets/lv_img.c ****         lv_mem_free((void *)img->src);
 1191              		.loc 1 416 5 view .LVU438
 416:lvgl/src/widgets/lv_img.c ****         lv_mem_free((void *)img->src);
 1192              		.loc 1 416 22 is_stmt 0 view .LVU439
 1193 0000 91F83830 		ldrb	r3, [r1, #56]	@ zero_extendqisi2
 416:lvgl/src/widgets/lv_img.c ****         lv_mem_free((void *)img->src);
 1194              		.loc 1 416 41 view .LVU440
 1195 0004 03F00303 		and	r3, r3, #3
 1196 0008 013B     		subs	r3, r3, #1
 1197 000a DBB2     		uxtb	r3, r3
 416:lvgl/src/widgets/lv_img.c ****         lv_mem_free((void *)img->src);
 1198              		.loc 1 416 7 view .LVU441
 1199 000c 012B     		cmp	r3, #1
 1200 000e 00D9     		bls	.L47
 1201 0010 7047     		bx	lr
 1202              	.L47:
 413:lvgl/src/widgets/lv_img.c ****     LV_UNUSED(class_p);
 1203              		.loc 1 413 1 view .LVU442
 1204 0012 10B5     		push	{r4, lr}
 1205              	.LCFI7:
 1206              		.cfi_def_cfa_offset 8
 1207              		.cfi_offset 4, -8
 1208              		.cfi_offset 14, -4
 1209 0014 0C46     		mov	r4, r1
 417:lvgl/src/widgets/lv_img.c ****         img->src      = NULL;
 1210              		.loc 1 417 9 is_stmt 1 view .LVU443
 1211 0016 486A     		ldr	r0, [r1, #36]
 1212              	.LVL86:
 417:lvgl/src/widgets/lv_img.c ****         img->src      = NULL;
 1213              		.loc 1 417 9 is_stmt 0 view .LVU444
 1214 0018 FFF7FEFF 		bl	lv_mem_free
 1215              	.LVL87:
 418:lvgl/src/widgets/lv_img.c ****         img->src_type = LV_IMG_SRC_UNKNOWN;
 1216              		.loc 1 418 9 is_stmt 1 view .LVU445
 418:lvgl/src/widgets/lv_img.c ****         img->src_type = LV_IMG_SRC_UNKNOWN;
 1217              		.loc 1 418 23 is_stmt 0 view .LVU446
 1218 001c 0023     		movs	r3, #0
 1219 001e 6362     		str	r3, [r4, #36]
 419:lvgl/src/widgets/lv_img.c ****     }
 1220              		.loc 1 419 9 is_stmt 1 view .LVU447
 419:lvgl/src/widgets/lv_img.c ****     }
 1221              		.loc 1 419 23 is_stmt 0 view .LVU448
 1222 0020 94F83830 		ldrb	r3, [r4, #56]	@ zero_extendqisi2
 1223 0024 43F00303 		orr	r3, r3, #3
 1224 0028 84F83830 		strb	r3, [r4, #56]
 421:lvgl/src/widgets/lv_img.c **** 
 1225              		.loc 1 421 1 view .LVU449
 1226 002c 10BD     		pop	{r4, pc}
 421:lvgl/src/widgets/lv_img.c **** 
 1227              		.loc 1 421 1 view .LVU450
ARM GAS  /var/folders/21/t9g5rlb91ys800n5npymflf80000gn/T//ccodu31E.s 			page 50


 1228              		.cfi_endproc
 1229              	.LFE185:
 1231              		.section	.text.lv_img_constructor,"ax",%progbits
 1232              		.align	1
 1233              		.syntax unified
 1234              		.thumb
 1235              		.thumb_func
 1237              	lv_img_constructor:
 1238              	.LVL88:
 1239              	.LFB184:
 386:lvgl/src/widgets/lv_img.c ****     LV_UNUSED(class_p);
 1240              		.loc 1 386 1 is_stmt 1 view -0
 1241              		.cfi_startproc
 1242              		@ args = 0, pretend = 0, frame = 0
 1243              		@ frame_needed = 0, uses_anonymous_args = 0
 386:lvgl/src/widgets/lv_img.c ****     LV_UNUSED(class_p);
 1244              		.loc 1 386 1 is_stmt 0 view .LVU452
 1245 0000 38B5     		push	{r3, r4, r5, lr}
 1246              	.LCFI8:
 1247              		.cfi_def_cfa_offset 16
 1248              		.cfi_offset 3, -16
 1249              		.cfi_offset 4, -12
 1250              		.cfi_offset 5, -8
 1251              		.cfi_offset 14, -4
 1252 0002 0C46     		mov	r4, r1
 387:lvgl/src/widgets/lv_img.c ****     LV_TRACE_OBJ_CREATE("begin");
 1253              		.loc 1 387 5 is_stmt 1 view .LVU453
 388:lvgl/src/widgets/lv_img.c **** 
 1254              		.loc 1 388 33 view .LVU454
 390:lvgl/src/widgets/lv_img.c **** 
 1255              		.loc 1 390 5 view .LVU455
 1256              	.LVL89:
 392:lvgl/src/widgets/lv_img.c ****     img->src_type  = LV_IMG_SRC_UNKNOWN;
 1257              		.loc 1 392 5 view .LVU456
 392:lvgl/src/widgets/lv_img.c ****     img->src_type  = LV_IMG_SRC_UNKNOWN;
 1258              		.loc 1 392 20 is_stmt 0 view .LVU457
 1259 0004 0025     		movs	r5, #0
 1260 0006 4D62     		str	r5, [r1, #36]
 393:lvgl/src/widgets/lv_img.c ****     img->cf        = LV_IMG_CF_UNKNOWN;
 1261              		.loc 1 393 5 is_stmt 1 view .LVU458
 393:lvgl/src/widgets/lv_img.c ****     img->cf        = LV_IMG_CF_UNKNOWN;
 1262              		.loc 1 393 20 is_stmt 0 view .LVU459
 1263 0008 91F83830 		ldrb	r3, [r1, #56]	@ zero_extendqisi2
 1264 000c 43F00303 		orr	r3, r3, #3
 1265 0010 81F83830 		strb	r3, [r1, #56]
 394:lvgl/src/widgets/lv_img.c ****     img->w         = lv_obj_get_width(obj);
 1266              		.loc 1 394 5 is_stmt 1 view .LVU460
 394:lvgl/src/widgets/lv_img.c ****     img->w         = lv_obj_get_width(obj);
 1267              		.loc 1 394 20 is_stmt 0 view .LVU461
 1268 0014 DBB2     		uxtb	r3, r3
 1269 0016 65F38603 		bfi	r3, r5, #2, #5
 1270 001a 81F83830 		strb	r3, [r1, #56]
 395:lvgl/src/widgets/lv_img.c ****     img->h         = lv_obj_get_height(obj);
 1271              		.loc 1 395 5 is_stmt 1 view .LVU462
 395:lvgl/src/widgets/lv_img.c ****     img->h         = lv_obj_get_height(obj);
 1272              		.loc 1 395 22 is_stmt 0 view .LVU463
 1273 001e 0846     		mov	r0, r1
ARM GAS  /var/folders/21/t9g5rlb91ys800n5npymflf80000gn/T//ccodu31E.s 			page 51


 1274              	.LVL90:
 395:lvgl/src/widgets/lv_img.c ****     img->h         = lv_obj_get_height(obj);
 1275              		.loc 1 395 22 view .LVU464
 1276 0020 FFF7FEFF 		bl	lv_obj_get_width
 1277              	.LVL91:
 395:lvgl/src/widgets/lv_img.c ****     img->h         = lv_obj_get_height(obj);
 1278              		.loc 1 395 20 view .LVU465
 1279 0024 A085     		strh	r0, [r4, #44]	@ movhi
 396:lvgl/src/widgets/lv_img.c ****     img->angle = 0;
 1280              		.loc 1 396 5 is_stmt 1 view .LVU466
 396:lvgl/src/widgets/lv_img.c ****     img->angle = 0;
 1281              		.loc 1 396 22 is_stmt 0 view .LVU467
 1282 0026 2046     		mov	r0, r4
 1283 0028 FFF7FEFF 		bl	lv_obj_get_height
 1284              	.LVL92:
 396:lvgl/src/widgets/lv_img.c ****     img->angle = 0;
 1285              		.loc 1 396 20 view .LVU468
 1286 002c E085     		strh	r0, [r4, #46]	@ movhi
 397:lvgl/src/widgets/lv_img.c ****     img->zoom = LV_IMG_ZOOM_NONE;
 1287              		.loc 1 397 5 is_stmt 1 view .LVU469
 397:lvgl/src/widgets/lv_img.c ****     img->zoom = LV_IMG_ZOOM_NONE;
 1288              		.loc 1 397 16 is_stmt 0 view .LVU470
 1289 002e 2586     		strh	r5, [r4, #48]	@ movhi
 398:lvgl/src/widgets/lv_img.c ****     img->antialias = LV_COLOR_DEPTH > 8 ? 1 : 0;
 1290              		.loc 1 398 5 is_stmt 1 view .LVU471
 398:lvgl/src/widgets/lv_img.c ****     img->antialias = LV_COLOR_DEPTH > 8 ? 1 : 0;
 1291              		.loc 1 398 15 is_stmt 0 view .LVU472
 1292 0030 4FF48073 		mov	r3, #256
 1293 0034 E386     		strh	r3, [r4, #54]	@ movhi
 399:lvgl/src/widgets/lv_img.c ****     img->offset.x  = 0;
 1294              		.loc 1 399 5 is_stmt 1 view .LVU473
 399:lvgl/src/widgets/lv_img.c ****     img->offset.x  = 0;
 1295              		.loc 1 399 20 is_stmt 0 view .LVU474
 1296 0036 94F83830 		ldrb	r3, [r4, #56]	@ zero_extendqisi2
 1297 003a 43F08003 		orr	r3, r3, #128
 1298 003e 84F83830 		strb	r3, [r4, #56]
 400:lvgl/src/widgets/lv_img.c ****     img->offset.y  = 0;
 1299              		.loc 1 400 5 is_stmt 1 view .LVU475
 400:lvgl/src/widgets/lv_img.c ****     img->offset.y  = 0;
 1300              		.loc 1 400 20 is_stmt 0 view .LVU476
 1301 0042 2585     		strh	r5, [r4, #40]	@ movhi
 401:lvgl/src/widgets/lv_img.c ****     img->pivot.x = 0;
 1302              		.loc 1 401 5 is_stmt 1 view .LVU477
 401:lvgl/src/widgets/lv_img.c ****     img->pivot.x = 0;
 1303              		.loc 1 401 20 is_stmt 0 view .LVU478
 1304 0044 6585     		strh	r5, [r4, #42]	@ movhi
 402:lvgl/src/widgets/lv_img.c ****     img->pivot.y = 0;
 1305              		.loc 1 402 5 is_stmt 1 view .LVU479
 402:lvgl/src/widgets/lv_img.c ****     img->pivot.y = 0;
 1306              		.loc 1 402 18 is_stmt 0 view .LVU480
 1307 0046 6586     		strh	r5, [r4, #50]	@ movhi
 403:lvgl/src/widgets/lv_img.c ****     img->obj_size_mode = LV_IMG_SIZE_MODE_VIRTUAL;
 1308              		.loc 1 403 5 is_stmt 1 view .LVU481
 403:lvgl/src/widgets/lv_img.c ****     img->obj_size_mode = LV_IMG_SIZE_MODE_VIRTUAL;
 1309              		.loc 1 403 18 is_stmt 0 view .LVU482
 1310 0048 A586     		strh	r5, [r4, #52]	@ movhi
 404:lvgl/src/widgets/lv_img.c **** 
ARM GAS  /var/folders/21/t9g5rlb91ys800n5npymflf80000gn/T//ccodu31E.s 			page 52


 1311              		.loc 1 404 5 is_stmt 1 view .LVU483
 404:lvgl/src/widgets/lv_img.c **** 
 1312              		.loc 1 404 24 is_stmt 0 view .LVU484
 1313 004a 94F83930 		ldrb	r3, [r4, #57]	@ zero_extendqisi2
 1314 004e 65F30103 		bfi	r3, r5, #0, #2
 1315 0052 84F83930 		strb	r3, [r4, #57]
 406:lvgl/src/widgets/lv_img.c ****     lv_obj_add_flag(obj, LV_OBJ_FLAG_ADV_HITTEST);
 1316              		.loc 1 406 5 is_stmt 1 view .LVU485
 1317 0056 0221     		movs	r1, #2
 1318 0058 2046     		mov	r0, r4
 1319 005a FFF7FEFF 		bl	lv_obj_clear_flag
 1320              	.LVL93:
 407:lvgl/src/widgets/lv_img.c **** 
 1321              		.loc 1 407 5 view .LVU486
 1322 005e 4FF48031 		mov	r1, #65536
 1323 0062 2046     		mov	r0, r4
 1324 0064 FFF7FEFF 		bl	lv_obj_add_flag
 1325              	.LVL94:
 409:lvgl/src/widgets/lv_img.c **** }
 1326              		.loc 1 409 36 view .LVU487
 410:lvgl/src/widgets/lv_img.c **** 
 1327              		.loc 1 410 1 is_stmt 0 view .LVU488
 1328 0068 38BD     		pop	{r3, r4, r5, pc}
 410:lvgl/src/widgets/lv_img.c **** 
 1329              		.loc 1 410 1 view .LVU489
 1330              		.cfi_endproc
 1331              	.LFE184:
 1333              		.section	.text.lv_img_create,"ax",%progbits
 1334              		.align	1
 1335              		.global	lv_img_create
 1336              		.syntax unified
 1337              		.thumb
 1338              		.thumb_func
 1340              	lv_img_create:
 1341              	.LVL95:
 1342              	.LFB167:
  59:lvgl/src/widgets/lv_img.c ****     LV_LOG_INFO("begin");
 1343              		.loc 1 59 1 is_stmt 1 view -0
 1344              		.cfi_startproc
 1345              		@ args = 0, pretend = 0, frame = 0
 1346              		@ frame_needed = 0, uses_anonymous_args = 0
  59:lvgl/src/widgets/lv_img.c ****     LV_LOG_INFO("begin");
 1347              		.loc 1 59 1 is_stmt 0 view .LVU491
 1348 0000 10B5     		push	{r4, lr}
 1349              	.LCFI9:
 1350              		.cfi_def_cfa_offset 8
 1351              		.cfi_offset 4, -8
 1352              		.cfi_offset 14, -4
 1353 0002 0146     		mov	r1, r0
  60:lvgl/src/widgets/lv_img.c ****     lv_obj_t * obj = lv_obj_class_create_obj(MY_CLASS, parent);
 1354              		.loc 1 60 5 is_stmt 1 view .LVU492
  60:lvgl/src/widgets/lv_img.c ****     lv_obj_t * obj = lv_obj_class_create_obj(MY_CLASS, parent);
 1355              		.loc 1 60 5 view .LVU493
  60:lvgl/src/widgets/lv_img.c ****     lv_obj_t * obj = lv_obj_class_create_obj(MY_CLASS, parent);
 1356              		.loc 1 60 5 view .LVU494
  61:lvgl/src/widgets/lv_img.c ****     lv_obj_class_init_obj(obj);
 1357              		.loc 1 61 5 view .LVU495
ARM GAS  /var/folders/21/t9g5rlb91ys800n5npymflf80000gn/T//ccodu31E.s 			page 53


  61:lvgl/src/widgets/lv_img.c ****     lv_obj_class_init_obj(obj);
 1358              		.loc 1 61 22 is_stmt 0 view .LVU496
 1359 0004 0348     		ldr	r0, .L52
 1360              	.LVL96:
  61:lvgl/src/widgets/lv_img.c ****     lv_obj_class_init_obj(obj);
 1361              		.loc 1 61 22 view .LVU497
 1362 0006 FFF7FEFF 		bl	lv_obj_class_create_obj
 1363              	.LVL97:
  61:lvgl/src/widgets/lv_img.c ****     lv_obj_class_init_obj(obj);
 1364              		.loc 1 61 22 view .LVU498
 1365 000a 0446     		mov	r4, r0
 1366              	.LVL98:
  62:lvgl/src/widgets/lv_img.c ****     return obj;
 1367              		.loc 1 62 5 is_stmt 1 view .LVU499
 1368 000c FFF7FEFF 		bl	lv_obj_class_init_obj
 1369              	.LVL99:
  63:lvgl/src/widgets/lv_img.c **** }
 1370              		.loc 1 63 5 view .LVU500
  64:lvgl/src/widgets/lv_img.c **** 
 1371              		.loc 1 64 1 is_stmt 0 view .LVU501
 1372 0010 2046     		mov	r0, r4
 1373 0012 10BD     		pop	{r4, pc}
 1374              	.LVL100:
 1375              	.L53:
  64:lvgl/src/widgets/lv_img.c **** 
 1376              		.loc 1 64 1 view .LVU502
 1377              		.align	2
 1378              	.L52:
 1379 0014 00000000 		.word	lv_img_class
 1380              		.cfi_endproc
 1381              	.LFE167:
 1383              		.section	.text.lv_img_set_src,"ax",%progbits
 1384              		.align	1
 1385              		.global	lv_img_set_src
 1386              		.syntax unified
 1387              		.thumb
 1388              		.thumb_func
 1390              	lv_img_set_src:
 1391              	.LVL101:
 1392              	.LFB168:
  71:lvgl/src/widgets/lv_img.c ****     LV_ASSERT_OBJ(obj, MY_CLASS);
 1393              		.loc 1 71 1 is_stmt 1 view -0
 1394              		.cfi_startproc
 1395              		@ args = 0, pretend = 0, frame = 8
 1396              		@ frame_needed = 0, uses_anonymous_args = 0
  71:lvgl/src/widgets/lv_img.c ****     LV_ASSERT_OBJ(obj, MY_CLASS);
 1397              		.loc 1 71 1 is_stmt 0 view .LVU504
 1398 0000 2DE9F041 		push	{r4, r5, r6, r7, r8, lr}
 1399              	.LCFI10:
 1400              		.cfi_def_cfa_offset 24
 1401              		.cfi_offset 4, -24
 1402              		.cfi_offset 5, -20
 1403              		.cfi_offset 6, -16
 1404              		.cfi_offset 7, -12
 1405              		.cfi_offset 8, -8
 1406              		.cfi_offset 14, -4
 1407 0004 86B0     		sub	sp, sp, #24
ARM GAS  /var/folders/21/t9g5rlb91ys800n5npymflf80000gn/T//ccodu31E.s 			page 54


 1408              	.LCFI11:
 1409              		.cfi_def_cfa_offset 48
 1410 0006 0446     		mov	r4, r0
 1411 0008 0E46     		mov	r6, r1
  72:lvgl/src/widgets/lv_img.c **** 
 1412              		.loc 1 72 5 is_stmt 1 view .LVU505
  72:lvgl/src/widgets/lv_img.c **** 
 1413              		.loc 1 72 5 view .LVU506
  72:lvgl/src/widgets/lv_img.c **** 
 1414              		.loc 1 72 5 view .LVU507
  74:lvgl/src/widgets/lv_img.c **** 
 1415              		.loc 1 74 5 view .LVU508
 1416 000a FFF7FEFF 		bl	lv_obj_invalidate
 1417              	.LVL102:
  76:lvgl/src/widgets/lv_img.c ****     lv_img_t * img = (lv_img_t *)obj;
 1418              		.loc 1 76 5 view .LVU509
  76:lvgl/src/widgets/lv_img.c ****     lv_img_t * img = (lv_img_t *)obj;
 1419              		.loc 1 76 29 is_stmt 0 view .LVU510
 1420 000e 3046     		mov	r0, r6
 1421 0010 FFF7FEFF 		bl	lv_img_src_get_type
 1422              	.LVL103:
  77:lvgl/src/widgets/lv_img.c **** 
 1423              		.loc 1 77 5 is_stmt 1 view .LVU511
  96:lvgl/src/widgets/lv_img.c ****         LV_LOG_WARN("lv_img_set_src: unknown image type");
 1424              		.loc 1 96 5 view .LVU512
  96:lvgl/src/widgets/lv_img.c ****         LV_LOG_WARN("lv_img_set_src: unknown image type");
 1425              		.loc 1 96 7 is_stmt 0 view .LVU513
 1426 0014 0328     		cmp	r0, #3
 1427 0016 40D0     		beq	.L68
 1428 0018 0546     		mov	r5, r0
 106:lvgl/src/widgets/lv_img.c ****     lv_img_decoder_get_info(src, &header);
 1429              		.loc 1 106 5 is_stmt 1 view .LVU514
 107:lvgl/src/widgets/lv_img.c **** 
 1430              		.loc 1 107 5 view .LVU515
 1431 001a 05A9     		add	r1, sp, #20
 1432 001c 3046     		mov	r0, r6
 1433              	.LVL104:
 107:lvgl/src/widgets/lv_img.c **** 
 1434              		.loc 1 107 5 is_stmt 0 view .LVU516
 1435 001e FFF7FEFF 		bl	lv_img_decoder_get_info
 1436              	.LVL105:
 110:lvgl/src/widgets/lv_img.c ****         /*If memory was allocated because of the previous `src_type` then free it*/
 1437              		.loc 1 110 5 is_stmt 1 view .LVU517
 110:lvgl/src/widgets/lv_img.c ****         /*If memory was allocated because of the previous `src_type` then free it*/
 1438              		.loc 1 110 7 is_stmt 0 view .LVU518
 1439 0022 002D     		cmp	r5, #0
 1440 0024 52D1     		bne	.L58
 112:lvgl/src/widgets/lv_img.c ****             lv_mem_free((void *)img->src);
 1441              		.loc 1 112 9 is_stmt 1 view .LVU519
 112:lvgl/src/widgets/lv_img.c ****             lv_mem_free((void *)img->src);
 1442              		.loc 1 112 26 is_stmt 0 view .LVU520
 1443 0026 94F83830 		ldrb	r3, [r4, #56]	@ zero_extendqisi2
 112:lvgl/src/widgets/lv_img.c ****             lv_mem_free((void *)img->src);
 1444              		.loc 1 112 45 view .LVU521
 1445 002a 03F00303 		and	r3, r3, #3
 1446 002e 013B     		subs	r3, r3, #1
 1447 0030 DBB2     		uxtb	r3, r3
ARM GAS  /var/folders/21/t9g5rlb91ys800n5npymflf80000gn/T//ccodu31E.s 			page 55


 112:lvgl/src/widgets/lv_img.c ****             lv_mem_free((void *)img->src);
 1448              		.loc 1 112 11 view .LVU522
 1449 0032 012B     		cmp	r3, #1
 1450 0034 46D9     		bls	.L69
 1451              	.L59:
 115:lvgl/src/widgets/lv_img.c ****     }
 1452              		.loc 1 115 9 is_stmt 1 view .LVU523
 115:lvgl/src/widgets/lv_img.c ****     }
 1453              		.loc 1 115 18 is_stmt 0 view .LVU524
 1454 0036 6662     		str	r6, [r4, #36]
 1455              	.L60:
 137:lvgl/src/widgets/lv_img.c ****         /*`lv_img_dsc_get_info` couldn't set the width and height of a font so set it here*/
 1456              		.loc 1 137 5 is_stmt 1 view .LVU525
 137:lvgl/src/widgets/lv_img.c ****         /*`lv_img_dsc_get_info` couldn't set the width and height of a font so set it here*/
 1457              		.loc 1 137 7 is_stmt 0 view .LVU526
 1458 0038 022D     		cmp	r5, #2
 1459 003a 6BD0     		beq	.L70
 1460              	.LVL106:
 1461              	.L61:
 148:lvgl/src/widgets/lv_img.c ****     img->w        = header.w;
 1462              		.loc 1 148 5 is_stmt 1 view .LVU527
 148:lvgl/src/widgets/lv_img.c ****     img->w        = header.w;
 1463              		.loc 1 148 19 is_stmt 0 view .LVU528
 1464 003c 94F83830 		ldrb	r3, [r4, #56]	@ zero_extendqisi2
 1465 0040 65F30103 		bfi	r3, r5, #0, #2
 1466 0044 84F83830 		strb	r3, [r4, #56]
 149:lvgl/src/widgets/lv_img.c ****     img->h        = header.h;
 1467              		.loc 1 149 5 is_stmt 1 view .LVU529
 149:lvgl/src/widgets/lv_img.c ****     img->h        = header.h;
 1468              		.loc 1 149 27 is_stmt 0 view .LVU530
 1469 0048 059A     		ldr	r2, [sp, #20]
 1470 004a C2F38A23 		ubfx	r3, r2, #10, #11
 149:lvgl/src/widgets/lv_img.c ****     img->h        = header.h;
 1471              		.loc 1 149 19 view .LVU531
 1472 004e A385     		strh	r3, [r4, #44]	@ movhi
 150:lvgl/src/widgets/lv_img.c ****     img->cf       = header.cf;
 1473              		.loc 1 150 5 is_stmt 1 view .LVU532
 150:lvgl/src/widgets/lv_img.c ****     img->cf       = header.cf;
 1474              		.loc 1 150 27 is_stmt 0 view .LVU533
 1475 0050 BDF81630 		ldrh	r3, [sp, #22]
 1476 0054 C3F34A11 		ubfx	r1, r3, #5, #11
 150:lvgl/src/widgets/lv_img.c ****     img->cf       = header.cf;
 1477              		.loc 1 150 19 view .LVU534
 1478 0058 E185     		strh	r1, [r4, #46]	@ movhi
 151:lvgl/src/widgets/lv_img.c ****     img->pivot.x = header.w / 2;
 1479              		.loc 1 151 5 is_stmt 1 view .LVU535
 151:lvgl/src/widgets/lv_img.c ****     img->pivot.x = header.w / 2;
 1480              		.loc 1 151 27 is_stmt 0 view .LVU536
 1481 005a 9DF81400 		ldrb	r0, [sp, #20]	@ zero_extendqisi2
 151:lvgl/src/widgets/lv_img.c ****     img->pivot.x = header.w / 2;
 1482              		.loc 1 151 19 view .LVU537
 1483 005e 94F83810 		ldrb	r1, [r4, #56]	@ zero_extendqisi2
 1484 0062 60F38601 		bfi	r1, r0, #2, #5
 1485 0066 84F83810 		strb	r1, [r4, #56]
 152:lvgl/src/widgets/lv_img.c ****     img->pivot.y = header.h / 2;
 1486              		.loc 1 152 5 is_stmt 1 view .LVU538
 152:lvgl/src/widgets/lv_img.c ****     img->pivot.y = header.h / 2;
ARM GAS  /var/folders/21/t9g5rlb91ys800n5npymflf80000gn/T//ccodu31E.s 			page 56


 1487              		.loc 1 152 29 is_stmt 0 view .LVU539
 1488 006a C2F3C922 		ubfx	r2, r2, #11, #10
 152:lvgl/src/widgets/lv_img.c ****     img->pivot.y = header.h / 2;
 1489              		.loc 1 152 18 view .LVU540
 1490 006e 6286     		strh	r2, [r4, #50]	@ movhi
 153:lvgl/src/widgets/lv_img.c **** 
 1491              		.loc 1 153 5 is_stmt 1 view .LVU541
 153:lvgl/src/widgets/lv_img.c **** 
 1492              		.loc 1 153 29 is_stmt 0 view .LVU542
 1493 0070 C3F38913 		ubfx	r3, r3, #6, #10
 153:lvgl/src/widgets/lv_img.c **** 
 1494              		.loc 1 153 18 view .LVU543
 1495 0074 A386     		strh	r3, [r4, #52]	@ movhi
 155:lvgl/src/widgets/lv_img.c **** 
 1496              		.loc 1 155 5 is_stmt 1 view .LVU544
 1497 0076 2046     		mov	r0, r4
 1498 0078 FFF7FEFF 		bl	lv_obj_refresh_self_size
 1499              	.LVL107:
 158:lvgl/src/widgets/lv_img.c **** 
 1500              		.loc 1 158 5 view .LVU545
 158:lvgl/src/widgets/lv_img.c **** 
 1501              		.loc 1 158 11 is_stmt 0 view .LVU546
 1502 007c 238E     		ldrh	r3, [r4, #48]
 158:lvgl/src/widgets/lv_img.c **** 
 1503              		.loc 1 158 7 view .LVU547
 1504 007e 1BB9     		cbnz	r3, .L65
 158:lvgl/src/widgets/lv_img.c **** 
 1505              		.loc 1 158 25 discriminator 2 view .LVU548
 1506 0080 E38E     		ldrh	r3, [r4, #54]
 158:lvgl/src/widgets/lv_img.c **** 
 1507              		.loc 1 158 19 discriminator 2 view .LVU549
 1508 0082 B3F5807F 		cmp	r3, #256
 1509 0086 02D0     		beq	.L66
 1510              	.L65:
 158:lvgl/src/widgets/lv_img.c **** 
 1511              		.loc 1 158 53 is_stmt 1 discriminator 3 view .LVU550
 1512 0088 2046     		mov	r0, r4
 1513 008a FFF7FEFF 		bl	lv_obj_refresh_ext_draw_size
 1514              	.LVL108:
 1515              	.L66:
 160:lvgl/src/widgets/lv_img.c **** }
 1516              		.loc 1 160 5 view .LVU551
 1517 008e 2046     		mov	r0, r4
 1518 0090 FFF7FEFF 		bl	lv_obj_invalidate
 1519              	.LVL109:
 1520              	.L54:
 161:lvgl/src/widgets/lv_img.c **** 
 1521              		.loc 1 161 1 is_stmt 0 view .LVU552
 1522 0094 06B0     		add	sp, sp, #24
 1523              	.LCFI12:
 1524              		.cfi_remember_state
 1525              		.cfi_def_cfa_offset 24
 1526              		@ sp needed
 1527 0096 BDE8F081 		pop	{r4, r5, r6, r7, r8, pc}
 1528              	.LVL110:
 1529              	.L68:
 1530              	.LCFI13:
ARM GAS  /var/folders/21/t9g5rlb91ys800n5npymflf80000gn/T//ccodu31E.s 			page 57


 1531              		.cfi_restore_state
  97:lvgl/src/widgets/lv_img.c ****         if(img->src_type == LV_IMG_SRC_SYMBOL || img->src_type == LV_IMG_SRC_FILE) {
 1532              		.loc 1 97 9 is_stmt 1 view .LVU553
  97:lvgl/src/widgets/lv_img.c ****         if(img->src_type == LV_IMG_SRC_SYMBOL || img->src_type == LV_IMG_SRC_FILE) {
 1533              		.loc 1 97 9 view .LVU554
  97:lvgl/src/widgets/lv_img.c ****         if(img->src_type == LV_IMG_SRC_SYMBOL || img->src_type == LV_IMG_SRC_FILE) {
 1534              		.loc 1 97 9 view .LVU555
  98:lvgl/src/widgets/lv_img.c ****             lv_mem_free((void *)img->src);
 1535              		.loc 1 98 9 view .LVU556
  98:lvgl/src/widgets/lv_img.c ****             lv_mem_free((void *)img->src);
 1536              		.loc 1 98 26 is_stmt 0 view .LVU557
 1537 009a 94F83830 		ldrb	r3, [r4, #56]	@ zero_extendqisi2
  98:lvgl/src/widgets/lv_img.c ****             lv_mem_free((void *)img->src);
 1538              		.loc 1 98 47 view .LVU558
 1539 009e 03F00303 		and	r3, r3, #3
 1540 00a2 013B     		subs	r3, r3, #1
 1541 00a4 DBB2     		uxtb	r3, r3
  98:lvgl/src/widgets/lv_img.c ****             lv_mem_free((void *)img->src);
 1542              		.loc 1 98 11 view .LVU559
 1543 00a6 012B     		cmp	r3, #1
 1544 00a8 08D9     		bls	.L71
 1545              	.LVL111:
 1546              	.L56:
 101:lvgl/src/widgets/lv_img.c ****         img->src_type = LV_IMG_SRC_UNKNOWN;
 1547              		.loc 1 101 9 is_stmt 1 view .LVU560
 101:lvgl/src/widgets/lv_img.c ****         img->src_type = LV_IMG_SRC_UNKNOWN;
 1548              		.loc 1 101 23 is_stmt 0 view .LVU561
 1549 00aa 0023     		movs	r3, #0
 1550 00ac 6362     		str	r3, [r4, #36]
 102:lvgl/src/widgets/lv_img.c ****         return;
 1551              		.loc 1 102 9 is_stmt 1 view .LVU562
 102:lvgl/src/widgets/lv_img.c ****         return;
 1552              		.loc 1 102 23 is_stmt 0 view .LVU563
 1553 00ae 94F83830 		ldrb	r3, [r4, #56]	@ zero_extendqisi2
 1554 00b2 43F00303 		orr	r3, r3, #3
 1555 00b6 84F83830 		strb	r3, [r4, #56]
 103:lvgl/src/widgets/lv_img.c ****     }
 1556              		.loc 1 103 9 is_stmt 1 view .LVU564
 1557 00ba EBE7     		b	.L54
 1558              	.LVL112:
 1559              	.L71:
  99:lvgl/src/widgets/lv_img.c ****         }
 1560              		.loc 1 99 13 view .LVU565
 1561 00bc 606A     		ldr	r0, [r4, #36]
 1562              	.LVL113:
  99:lvgl/src/widgets/lv_img.c ****         }
 1563              		.loc 1 99 13 is_stmt 0 view .LVU566
 1564 00be FFF7FEFF 		bl	lv_mem_free
 1565              	.LVL114:
 1566 00c2 F2E7     		b	.L56
 1567              	.L69:
 113:lvgl/src/widgets/lv_img.c ****         }
 1568              		.loc 1 113 13 is_stmt 1 view .LVU567
 1569 00c4 606A     		ldr	r0, [r4, #36]
 1570 00c6 FFF7FEFF 		bl	lv_mem_free
 1571              	.LVL115:
 1572 00ca B4E7     		b	.L59
ARM GAS  /var/folders/21/t9g5rlb91ys800n5npymflf80000gn/T//ccodu31E.s 			page 58


 1573              	.L58:
 117:lvgl/src/widgets/lv_img.c ****         /*If the new and the old src are the same then it was only a refresh.*/
 1574              		.loc 1 117 10 view .LVU568
 117:lvgl/src/widgets/lv_img.c ****         /*If the new and the old src are the same then it was only a refresh.*/
 1575              		.loc 1 117 41 is_stmt 0 view .LVU569
 1576 00cc 6B1E     		subs	r3, r5, #1
 1577 00ce DBB2     		uxtb	r3, r3
 117:lvgl/src/widgets/lv_img.c ****         /*If the new and the old src are the same then it was only a refresh.*/
 1578              		.loc 1 117 12 view .LVU570
 1579 00d0 012B     		cmp	r3, #1
 1580 00d2 B3D8     		bhi	.L61
 119:lvgl/src/widgets/lv_img.c ****             const void * old_src = NULL;
 1581              		.loc 1 119 9 is_stmt 1 view .LVU571
 119:lvgl/src/widgets/lv_img.c ****             const void * old_src = NULL;
 1582              		.loc 1 119 15 is_stmt 0 view .LVU572
 1583 00d4 676A     		ldr	r7, [r4, #36]
 119:lvgl/src/widgets/lv_img.c ****             const void * old_src = NULL;
 1584              		.loc 1 119 11 view .LVU573
 1585 00d6 B742     		cmp	r7, r6
 1586 00d8 AED0     		beq	.L60
 1587              	.LBB79:
 120:lvgl/src/widgets/lv_img.c ****             /*If memory was allocated because of the previous `src_type` then save its pointer and 
 1588              		.loc 1 120 13 is_stmt 1 view .LVU574
 1589              	.LVL116:
 124:lvgl/src/widgets/lv_img.c ****                 old_src = img->src;
 1590              		.loc 1 124 13 view .LVU575
 124:lvgl/src/widgets/lv_img.c ****                 old_src = img->src;
 1591              		.loc 1 124 30 is_stmt 0 view .LVU576
 1592 00da 94F83830 		ldrb	r3, [r4, #56]	@ zero_extendqisi2
 124:lvgl/src/widgets/lv_img.c ****                 old_src = img->src;
 1593              		.loc 1 124 49 view .LVU577
 1594 00de 03F00303 		and	r3, r3, #3
 1595 00e2 013B     		subs	r3, r3, #1
 1596 00e4 DBB2     		uxtb	r3, r3
 124:lvgl/src/widgets/lv_img.c ****                 old_src = img->src;
 1597              		.loc 1 124 15 view .LVU578
 1598 00e6 012B     		cmp	r3, #1
 1599 00e8 00D9     		bls	.L62
 120:lvgl/src/widgets/lv_img.c ****             /*If memory was allocated because of the previous `src_type` then save its pointer and 
 1600              		.loc 1 120 26 view .LVU579
 1601 00ea 0027     		movs	r7, #0
 1602              	.L62:
 1603              	.LVL117:
 127:lvgl/src/widgets/lv_img.c ****             LV_ASSERT_MALLOC(new_str);
 1604              		.loc 1 127 13 is_stmt 1 view .LVU580
 127:lvgl/src/widgets/lv_img.c ****             LV_ASSERT_MALLOC(new_str);
 1605              		.loc 1 127 43 is_stmt 0 view .LVU581
 1606 00ec 3046     		mov	r0, r6
 1607 00ee FFF7FEFF 		bl	strlen
 1608              	.LVL118:
 127:lvgl/src/widgets/lv_img.c ****             LV_ASSERT_MALLOC(new_str);
 1609              		.loc 1 127 30 view .LVU582
 1610 00f2 0130     		adds	r0, r0, #1
 1611 00f4 FFF7FEFF 		bl	lv_mem_alloc
 1612              	.LVL119:
 128:lvgl/src/widgets/lv_img.c ****             if(new_str == NULL) return;
 1613              		.loc 1 128 13 is_stmt 1 view .LVU583
ARM GAS  /var/folders/21/t9g5rlb91ys800n5npymflf80000gn/T//ccodu31E.s 			page 59


 128:lvgl/src/widgets/lv_img.c ****             if(new_str == NULL) return;
 1614              		.loc 1 128 13 view .LVU584
 1615 00f8 8046     		mov	r8, r0
 1616 00fa 50B1     		cbz	r0, .L64
 128:lvgl/src/widgets/lv_img.c ****             if(new_str == NULL) return;
 1617              		.loc 1 128 13 view .LVU585
 128:lvgl/src/widgets/lv_img.c ****             if(new_str == NULL) return;
 1618              		.loc 1 128 38 view .LVU586
 129:lvgl/src/widgets/lv_img.c ****             strcpy(new_str, src);
 1619              		.loc 1 129 13 view .LVU587
 130:lvgl/src/widgets/lv_img.c ****             img->src = new_str;
 1620              		.loc 1 130 13 view .LVU588
 1621 00fc 3146     		mov	r1, r6
 1622 00fe FFF7FEFF 		bl	strcpy
 1623              	.LVL120:
 131:lvgl/src/widgets/lv_img.c **** 
 1624              		.loc 1 131 13 view .LVU589
 131:lvgl/src/widgets/lv_img.c **** 
 1625              		.loc 1 131 22 is_stmt 0 view .LVU590
 1626 0102 C4F82480 		str	r8, [r4, #36]
 133:lvgl/src/widgets/lv_img.c ****         }
 1627              		.loc 1 133 13 is_stmt 1 view .LVU591
 133:lvgl/src/widgets/lv_img.c ****         }
 1628              		.loc 1 133 15 is_stmt 0 view .LVU592
 1629 0106 002F     		cmp	r7, #0
 1630 0108 96D0     		beq	.L60
 133:lvgl/src/widgets/lv_img.c ****         }
 1631              		.loc 1 133 25 is_stmt 1 discriminator 1 view .LVU593
 1632 010a 3846     		mov	r0, r7
 1633 010c FFF7FEFF 		bl	lv_mem_free
 1634              	.LVL121:
 1635 0110 92E7     		b	.L60
 1636              	.LVL122:
 1637              	.L64:
 128:lvgl/src/widgets/lv_img.c ****             if(new_str == NULL) return;
 1638              		.loc 1 128 13 discriminator 1 view .LVU594
 128:lvgl/src/widgets/lv_img.c ****             if(new_str == NULL) return;
 1639              		.loc 1 128 13 discriminator 1 view .LVU595
 128:lvgl/src/widgets/lv_img.c ****             if(new_str == NULL) return;
 1640              		.loc 1 128 13 discriminator 1 view .LVU596
 128:lvgl/src/widgets/lv_img.c ****             if(new_str == NULL) return;
 1641              		.loc 1 128 13 discriminator 1 view .LVU597
 128:lvgl/src/widgets/lv_img.c ****             if(new_str == NULL) return;
 1642              		.loc 1 128 13 discriminator 1 view .LVU598
 1643 0112 FEE7     		b	.L64
 1644              	.LVL123:
 1645              	.L70:
 128:lvgl/src/widgets/lv_img.c ****             if(new_str == NULL) return;
 1646              		.loc 1 128 13 is_stmt 0 discriminator 1 view .LVU599
 1647              	.LBE79:
 1648              	.LBB80:
 139:lvgl/src/widgets/lv_img.c ****         lv_coord_t letter_space = lv_obj_get_style_text_letter_space(obj, LV_PART_MAIN);
 1649              		.loc 1 139 9 is_stmt 1 view .LVU600
 1650              	.LBB81:
 1651              	.LBI81:
 347:lvgl/src/widgets/../core/lv_obj_style_gen.h **** }
 348:lvgl/src/widgets/../core/lv_obj_style_gen.h **** 
ARM GAS  /var/folders/21/t9g5rlb91ys800n5npymflf80000gn/T//ccodu31E.s 			page 60


 349:lvgl/src/widgets/../core/lv_obj_style_gen.h **** static inline lv_color_t lv_obj_get_style_img_recolor(const struct _lv_obj_t * obj, uint32_t part)
 350:lvgl/src/widgets/../core/lv_obj_style_gen.h **** {
 351:lvgl/src/widgets/../core/lv_obj_style_gen.h ****     lv_style_value_t v = lv_obj_get_style_prop(obj, part, LV_STYLE_IMG_RECOLOR);
 352:lvgl/src/widgets/../core/lv_obj_style_gen.h ****     return v.color;
 353:lvgl/src/widgets/../core/lv_obj_style_gen.h **** }
 354:lvgl/src/widgets/../core/lv_obj_style_gen.h **** 
 355:lvgl/src/widgets/../core/lv_obj_style_gen.h **** static inline lv_color_t lv_obj_get_style_img_recolor_filtered(const struct _lv_obj_t * obj, uint32
 356:lvgl/src/widgets/../core/lv_obj_style_gen.h **** {
 357:lvgl/src/widgets/../core/lv_obj_style_gen.h ****     lv_style_value_t v = _lv_obj_style_apply_color_filter(obj, part, lv_obj_get_style_prop(obj, par
 358:lvgl/src/widgets/../core/lv_obj_style_gen.h ****     return v.color;
 359:lvgl/src/widgets/../core/lv_obj_style_gen.h **** }
 360:lvgl/src/widgets/../core/lv_obj_style_gen.h **** 
 361:lvgl/src/widgets/../core/lv_obj_style_gen.h **** static inline lv_opa_t lv_obj_get_style_img_recolor_opa(const struct _lv_obj_t * obj, uint32_t part
 362:lvgl/src/widgets/../core/lv_obj_style_gen.h **** {
 363:lvgl/src/widgets/../core/lv_obj_style_gen.h ****     lv_style_value_t v = lv_obj_get_style_prop(obj, part, LV_STYLE_IMG_RECOLOR_OPA);
 364:lvgl/src/widgets/../core/lv_obj_style_gen.h ****     return (lv_opa_t)v.num;
 365:lvgl/src/widgets/../core/lv_obj_style_gen.h **** }
 366:lvgl/src/widgets/../core/lv_obj_style_gen.h **** 
 367:lvgl/src/widgets/../core/lv_obj_style_gen.h **** static inline lv_coord_t lv_obj_get_style_line_width(const struct _lv_obj_t * obj, uint32_t part)
 368:lvgl/src/widgets/../core/lv_obj_style_gen.h **** {
 369:lvgl/src/widgets/../core/lv_obj_style_gen.h ****     lv_style_value_t v = lv_obj_get_style_prop(obj, part, LV_STYLE_LINE_WIDTH);
 370:lvgl/src/widgets/../core/lv_obj_style_gen.h ****     return (lv_coord_t)v.num;
 371:lvgl/src/widgets/../core/lv_obj_style_gen.h **** }
 372:lvgl/src/widgets/../core/lv_obj_style_gen.h **** 
 373:lvgl/src/widgets/../core/lv_obj_style_gen.h **** static inline lv_coord_t lv_obj_get_style_line_dash_width(const struct _lv_obj_t * obj, uint32_t pa
 374:lvgl/src/widgets/../core/lv_obj_style_gen.h **** {
 375:lvgl/src/widgets/../core/lv_obj_style_gen.h ****     lv_style_value_t v = lv_obj_get_style_prop(obj, part, LV_STYLE_LINE_DASH_WIDTH);
 376:lvgl/src/widgets/../core/lv_obj_style_gen.h ****     return (lv_coord_t)v.num;
 377:lvgl/src/widgets/../core/lv_obj_style_gen.h **** }
 378:lvgl/src/widgets/../core/lv_obj_style_gen.h **** 
 379:lvgl/src/widgets/../core/lv_obj_style_gen.h **** static inline lv_coord_t lv_obj_get_style_line_dash_gap(const struct _lv_obj_t * obj, uint32_t part
 380:lvgl/src/widgets/../core/lv_obj_style_gen.h **** {
 381:lvgl/src/widgets/../core/lv_obj_style_gen.h ****     lv_style_value_t v = lv_obj_get_style_prop(obj, part, LV_STYLE_LINE_DASH_GAP);
 382:lvgl/src/widgets/../core/lv_obj_style_gen.h ****     return (lv_coord_t)v.num;
 383:lvgl/src/widgets/../core/lv_obj_style_gen.h **** }
 384:lvgl/src/widgets/../core/lv_obj_style_gen.h **** 
 385:lvgl/src/widgets/../core/lv_obj_style_gen.h **** static inline bool lv_obj_get_style_line_rounded(const struct _lv_obj_t * obj, uint32_t part)
 386:lvgl/src/widgets/../core/lv_obj_style_gen.h **** {
 387:lvgl/src/widgets/../core/lv_obj_style_gen.h ****     lv_style_value_t v = lv_obj_get_style_prop(obj, part, LV_STYLE_LINE_ROUNDED);
 388:lvgl/src/widgets/../core/lv_obj_style_gen.h ****     return (bool)v.num;
 389:lvgl/src/widgets/../core/lv_obj_style_gen.h **** }
 390:lvgl/src/widgets/../core/lv_obj_style_gen.h **** 
 391:lvgl/src/widgets/../core/lv_obj_style_gen.h **** static inline lv_color_t lv_obj_get_style_line_color(const struct _lv_obj_t * obj, uint32_t part)
 392:lvgl/src/widgets/../core/lv_obj_style_gen.h **** {
 393:lvgl/src/widgets/../core/lv_obj_style_gen.h ****     lv_style_value_t v = lv_obj_get_style_prop(obj, part, LV_STYLE_LINE_COLOR);
 394:lvgl/src/widgets/../core/lv_obj_style_gen.h ****     return v.color;
 395:lvgl/src/widgets/../core/lv_obj_style_gen.h **** }
 396:lvgl/src/widgets/../core/lv_obj_style_gen.h **** 
 397:lvgl/src/widgets/../core/lv_obj_style_gen.h **** static inline lv_color_t lv_obj_get_style_line_color_filtered(const struct _lv_obj_t * obj, uint32_
 398:lvgl/src/widgets/../core/lv_obj_style_gen.h **** {
 399:lvgl/src/widgets/../core/lv_obj_style_gen.h ****     lv_style_value_t v = _lv_obj_style_apply_color_filter(obj, part, lv_obj_get_style_prop(obj, par
 400:lvgl/src/widgets/../core/lv_obj_style_gen.h ****     return v.color;
 401:lvgl/src/widgets/../core/lv_obj_style_gen.h **** }
 402:lvgl/src/widgets/../core/lv_obj_style_gen.h **** 
 403:lvgl/src/widgets/../core/lv_obj_style_gen.h **** static inline lv_opa_t lv_obj_get_style_line_opa(const struct _lv_obj_t * obj, uint32_t part)
 404:lvgl/src/widgets/../core/lv_obj_style_gen.h **** {
 405:lvgl/src/widgets/../core/lv_obj_style_gen.h ****     lv_style_value_t v = lv_obj_get_style_prop(obj, part, LV_STYLE_LINE_OPA);
ARM GAS  /var/folders/21/t9g5rlb91ys800n5npymflf80000gn/T//ccodu31E.s 			page 61


 406:lvgl/src/widgets/../core/lv_obj_style_gen.h ****     return (lv_opa_t)v.num;
 407:lvgl/src/widgets/../core/lv_obj_style_gen.h **** }
 408:lvgl/src/widgets/../core/lv_obj_style_gen.h **** 
 409:lvgl/src/widgets/../core/lv_obj_style_gen.h **** static inline lv_coord_t lv_obj_get_style_arc_width(const struct _lv_obj_t * obj, uint32_t part)
 410:lvgl/src/widgets/../core/lv_obj_style_gen.h **** {
 411:lvgl/src/widgets/../core/lv_obj_style_gen.h ****     lv_style_value_t v = lv_obj_get_style_prop(obj, part, LV_STYLE_ARC_WIDTH);
 412:lvgl/src/widgets/../core/lv_obj_style_gen.h ****     return (lv_coord_t)v.num;
 413:lvgl/src/widgets/../core/lv_obj_style_gen.h **** }
 414:lvgl/src/widgets/../core/lv_obj_style_gen.h **** 
 415:lvgl/src/widgets/../core/lv_obj_style_gen.h **** static inline bool lv_obj_get_style_arc_rounded(const struct _lv_obj_t * obj, uint32_t part)
 416:lvgl/src/widgets/../core/lv_obj_style_gen.h **** {
 417:lvgl/src/widgets/../core/lv_obj_style_gen.h ****     lv_style_value_t v = lv_obj_get_style_prop(obj, part, LV_STYLE_ARC_ROUNDED);
 418:lvgl/src/widgets/../core/lv_obj_style_gen.h ****     return (bool)v.num;
 419:lvgl/src/widgets/../core/lv_obj_style_gen.h **** }
 420:lvgl/src/widgets/../core/lv_obj_style_gen.h **** 
 421:lvgl/src/widgets/../core/lv_obj_style_gen.h **** static inline lv_color_t lv_obj_get_style_arc_color(const struct _lv_obj_t * obj, uint32_t part)
 422:lvgl/src/widgets/../core/lv_obj_style_gen.h **** {
 423:lvgl/src/widgets/../core/lv_obj_style_gen.h ****     lv_style_value_t v = lv_obj_get_style_prop(obj, part, LV_STYLE_ARC_COLOR);
 424:lvgl/src/widgets/../core/lv_obj_style_gen.h ****     return v.color;
 425:lvgl/src/widgets/../core/lv_obj_style_gen.h **** }
 426:lvgl/src/widgets/../core/lv_obj_style_gen.h **** 
 427:lvgl/src/widgets/../core/lv_obj_style_gen.h **** static inline lv_color_t lv_obj_get_style_arc_color_filtered(const struct _lv_obj_t * obj, uint32_t
 428:lvgl/src/widgets/../core/lv_obj_style_gen.h **** {
 429:lvgl/src/widgets/../core/lv_obj_style_gen.h ****     lv_style_value_t v = _lv_obj_style_apply_color_filter(obj, part, lv_obj_get_style_prop(obj, par
 430:lvgl/src/widgets/../core/lv_obj_style_gen.h ****     return v.color;
 431:lvgl/src/widgets/../core/lv_obj_style_gen.h **** }
 432:lvgl/src/widgets/../core/lv_obj_style_gen.h **** 
 433:lvgl/src/widgets/../core/lv_obj_style_gen.h **** static inline lv_opa_t lv_obj_get_style_arc_opa(const struct _lv_obj_t * obj, uint32_t part)
 434:lvgl/src/widgets/../core/lv_obj_style_gen.h **** {
 435:lvgl/src/widgets/../core/lv_obj_style_gen.h ****     lv_style_value_t v = lv_obj_get_style_prop(obj, part, LV_STYLE_ARC_OPA);
 436:lvgl/src/widgets/../core/lv_obj_style_gen.h ****     return (lv_opa_t)v.num;
 437:lvgl/src/widgets/../core/lv_obj_style_gen.h **** }
 438:lvgl/src/widgets/../core/lv_obj_style_gen.h **** 
 439:lvgl/src/widgets/../core/lv_obj_style_gen.h **** static inline const void * lv_obj_get_style_arc_img_src(const struct _lv_obj_t * obj, uint32_t part
 440:lvgl/src/widgets/../core/lv_obj_style_gen.h **** {
 441:lvgl/src/widgets/../core/lv_obj_style_gen.h ****     lv_style_value_t v = lv_obj_get_style_prop(obj, part, LV_STYLE_ARC_IMG_SRC);
 442:lvgl/src/widgets/../core/lv_obj_style_gen.h ****     return (const void *)v.ptr;
 443:lvgl/src/widgets/../core/lv_obj_style_gen.h **** }
 444:lvgl/src/widgets/../core/lv_obj_style_gen.h **** 
 445:lvgl/src/widgets/../core/lv_obj_style_gen.h **** static inline lv_color_t lv_obj_get_style_text_color(const struct _lv_obj_t * obj, uint32_t part)
 446:lvgl/src/widgets/../core/lv_obj_style_gen.h **** {
 447:lvgl/src/widgets/../core/lv_obj_style_gen.h ****     lv_style_value_t v = lv_obj_get_style_prop(obj, part, LV_STYLE_TEXT_COLOR);
 448:lvgl/src/widgets/../core/lv_obj_style_gen.h ****     return v.color;
 449:lvgl/src/widgets/../core/lv_obj_style_gen.h **** }
 450:lvgl/src/widgets/../core/lv_obj_style_gen.h **** 
 451:lvgl/src/widgets/../core/lv_obj_style_gen.h **** static inline lv_color_t lv_obj_get_style_text_color_filtered(const struct _lv_obj_t * obj, uint32_
 452:lvgl/src/widgets/../core/lv_obj_style_gen.h **** {
 453:lvgl/src/widgets/../core/lv_obj_style_gen.h ****     lv_style_value_t v = _lv_obj_style_apply_color_filter(obj, part, lv_obj_get_style_prop(obj, par
 454:lvgl/src/widgets/../core/lv_obj_style_gen.h ****     return v.color;
 455:lvgl/src/widgets/../core/lv_obj_style_gen.h **** }
 456:lvgl/src/widgets/../core/lv_obj_style_gen.h **** 
 457:lvgl/src/widgets/../core/lv_obj_style_gen.h **** static inline lv_opa_t lv_obj_get_style_text_opa(const struct _lv_obj_t * obj, uint32_t part)
 458:lvgl/src/widgets/../core/lv_obj_style_gen.h **** {
 459:lvgl/src/widgets/../core/lv_obj_style_gen.h ****     lv_style_value_t v = lv_obj_get_style_prop(obj, part, LV_STYLE_TEXT_OPA);
 460:lvgl/src/widgets/../core/lv_obj_style_gen.h ****     return (lv_opa_t)v.num;
 461:lvgl/src/widgets/../core/lv_obj_style_gen.h **** }
 462:lvgl/src/widgets/../core/lv_obj_style_gen.h **** 
ARM GAS  /var/folders/21/t9g5rlb91ys800n5npymflf80000gn/T//ccodu31E.s 			page 62


 463:lvgl/src/widgets/../core/lv_obj_style_gen.h **** static inline const lv_font_t * lv_obj_get_style_text_font(const struct _lv_obj_t * obj, uint32_t p
 1652              		.loc 3 463 33 view .LVU601
 1653              	.LBB82:
 464:lvgl/src/widgets/../core/lv_obj_style_gen.h **** {
 465:lvgl/src/widgets/../core/lv_obj_style_gen.h ****     lv_style_value_t v = lv_obj_get_style_prop(obj, part, LV_STYLE_TEXT_FONT);
 1654              		.loc 3 465 5 view .LVU602
 1655              		.loc 3 465 26 is_stmt 0 view .LVU603
 1656 0114 5722     		movs	r2, #87
 1657 0116 0021     		movs	r1, #0
 1658 0118 2046     		mov	r0, r4
 1659 011a FFF7FEFF 		bl	lv_obj_get_style_prop
 1660              	.LVL124:
 1661 011e 0746     		mov	r7, r0
 466:lvgl/src/widgets/../core/lv_obj_style_gen.h ****     return (const lv_font_t *)v.ptr;
 1662              		.loc 3 466 5 is_stmt 1 view .LVU604
 1663              	.LVL125:
 1664              		.loc 3 466 5 is_stmt 0 view .LVU605
 1665              	.LBE82:
 1666              	.LBE81:
 140:lvgl/src/widgets/lv_img.c ****         lv_coord_t line_space = lv_obj_get_style_text_line_space(obj, LV_PART_MAIN);
 1667              		.loc 1 140 9 is_stmt 1 view .LVU606
 1668              	.LBB83:
 1669              	.LBI83:
 467:lvgl/src/widgets/../core/lv_obj_style_gen.h **** }
 468:lvgl/src/widgets/../core/lv_obj_style_gen.h **** 
 469:lvgl/src/widgets/../core/lv_obj_style_gen.h **** static inline lv_coord_t lv_obj_get_style_text_letter_space(const struct _lv_obj_t * obj, uint32_t 
 1670              		.loc 3 469 26 view .LVU607
 1671              	.LBB84:
 470:lvgl/src/widgets/../core/lv_obj_style_gen.h **** {
 471:lvgl/src/widgets/../core/lv_obj_style_gen.h ****     lv_style_value_t v = lv_obj_get_style_prop(obj, part, LV_STYLE_TEXT_LETTER_SPACE);
 1672              		.loc 3 471 5 view .LVU608
 1673              		.loc 3 471 26 is_stmt 0 view .LVU609
 1674 0120 5822     		movs	r2, #88
 1675 0122 0021     		movs	r1, #0
 1676 0124 2046     		mov	r0, r4
 1677              	.LVL126:
 1678              		.loc 3 471 26 view .LVU610
 1679 0126 FFF7FEFF 		bl	lv_obj_get_style_prop
 1680              	.LVL127:
 472:lvgl/src/widgets/../core/lv_obj_style_gen.h ****     return (lv_coord_t)v.num;
 1681              		.loc 3 472 5 is_stmt 1 view .LVU611
 1682              		.loc 3 472 12 is_stmt 0 view .LVU612
 1683 012a 0FFA80F8 		sxth	r8, r0
 1684              	.LVL128:
 1685              		.loc 3 472 12 view .LVU613
 1686              	.LBE84:
 1687              	.LBE83:
 141:lvgl/src/widgets/lv_img.c ****         lv_point_t size;
 1688              		.loc 1 141 9 is_stmt 1 view .LVU614
 1689              	.LBB85:
 1690              	.LBI85:
 473:lvgl/src/widgets/../core/lv_obj_style_gen.h **** }
 474:lvgl/src/widgets/../core/lv_obj_style_gen.h **** 
 475:lvgl/src/widgets/../core/lv_obj_style_gen.h **** static inline lv_coord_t lv_obj_get_style_text_line_space(const struct _lv_obj_t * obj, uint32_t pa
 1691              		.loc 3 475 26 view .LVU615
 1692              	.LBB86:
 476:lvgl/src/widgets/../core/lv_obj_style_gen.h **** {
ARM GAS  /var/folders/21/t9g5rlb91ys800n5npymflf80000gn/T//ccodu31E.s 			page 63


 477:lvgl/src/widgets/../core/lv_obj_style_gen.h ****     lv_style_value_t v = lv_obj_get_style_prop(obj, part, LV_STYLE_TEXT_LINE_SPACE);
 1693              		.loc 3 477 5 view .LVU616
 1694              		.loc 3 477 26 is_stmt 0 view .LVU617
 1695 012e 5922     		movs	r2, #89
 1696 0130 0021     		movs	r1, #0
 1697 0132 2046     		mov	r0, r4
 1698 0134 FFF7FEFF 		bl	lv_obj_get_style_prop
 1699              	.LVL129:
 478:lvgl/src/widgets/../core/lv_obj_style_gen.h ****     return (lv_coord_t)v.num;
 1700              		.loc 3 478 5 is_stmt 1 view .LVU618
 1701              		.loc 3 478 12 is_stmt 0 view .LVU619
 1702 0138 00B2     		sxth	r0, r0
 1703              	.LVL130:
 1704              		.loc 3 478 12 view .LVU620
 1705              	.LBE86:
 1706              	.LBE85:
 142:lvgl/src/widgets/lv_img.c ****         lv_txt_get_size(&size, src, font, letter_space, line_space, LV_COORD_MAX, LV_TEXT_FLAG_NONE
 1707              		.loc 1 142 9 is_stmt 1 view .LVU621
 143:lvgl/src/widgets/lv_img.c ****         header.w = size.x;
 1708              		.loc 1 143 9 view .LVU622
 1709 013a 0023     		movs	r3, #0
 1710 013c 0293     		str	r3, [sp, #8]
 1711 013e 41F6FF73 		movw	r3, #8191
 1712 0142 0193     		str	r3, [sp, #4]
 1713 0144 0090     		str	r0, [sp]
 1714 0146 4346     		mov	r3, r8
 1715 0148 3A46     		mov	r2, r7
 1716 014a 3146     		mov	r1, r6
 1717 014c 04A8     		add	r0, sp, #16
 1718              	.LVL131:
 143:lvgl/src/widgets/lv_img.c ****         header.w = size.x;
 1719              		.loc 1 143 9 is_stmt 0 view .LVU623
 1720 014e FFF7FEFF 		bl	lv_txt_get_size
 1721              	.LVL132:
 144:lvgl/src/widgets/lv_img.c ****         header.h = size.y;
 1722              		.loc 1 144 9 is_stmt 1 view .LVU624
 144:lvgl/src/widgets/lv_img.c ****         header.h = size.y;
 1723              		.loc 1 144 24 is_stmt 0 view .LVU625
 1724 0152 BDF81020 		ldrh	r2, [sp, #16]
 144:lvgl/src/widgets/lv_img.c ****         header.h = size.y;
 1725              		.loc 1 144 18 view .LVU626
 1726 0156 059B     		ldr	r3, [sp, #20]
 1727 0158 62F39423 		bfi	r3, r2, #10, #11
 1728 015c 0593     		str	r3, [sp, #20]
 145:lvgl/src/widgets/lv_img.c ****     }
 1729              		.loc 1 145 9 is_stmt 1 view .LVU627
 145:lvgl/src/widgets/lv_img.c ****     }
 1730              		.loc 1 145 24 is_stmt 0 view .LVU628
 1731 015e BDF81220 		ldrh	r2, [sp, #18]
 145:lvgl/src/widgets/lv_img.c ****     }
 1732              		.loc 1 145 18 view .LVU629
 1733 0162 BDF81630 		ldrh	r3, [sp, #22]
 1734 0166 62F34F13 		bfi	r3, r2, #5, #11
 1735 016a ADF81630 		strh	r3, [sp, #22]	@ movhi
 1736 016e 65E7     		b	.L61
 1737              	.LBE80:
 1738              		.cfi_endproc
ARM GAS  /var/folders/21/t9g5rlb91ys800n5npymflf80000gn/T//ccodu31E.s 			page 64


 1739              	.LFE168:
 1741              		.section	.text.lv_img_event,"ax",%progbits
 1742              		.align	1
 1743              		.syntax unified
 1744              		.thumb
 1745              		.thumb_func
 1747              	lv_img_event:
 1748              	.LVL133:
 1749              	.LFB187:
 437:lvgl/src/widgets/lv_img.c ****     LV_UNUSED(class_p);
 1750              		.loc 1 437 1 is_stmt 1 view -0
 1751              		.cfi_startproc
 1752              		@ args = 0, pretend = 0, frame = 8
 1753              		@ frame_needed = 0, uses_anonymous_args = 0
 437:lvgl/src/widgets/lv_img.c ****     LV_UNUSED(class_p);
 1754              		.loc 1 437 1 is_stmt 0 view .LVU631
 1755 0000 2DE9F041 		push	{r4, r5, r6, r7, r8, lr}
 1756              	.LCFI14:
 1757              		.cfi_def_cfa_offset 24
 1758              		.cfi_offset 4, -24
 1759              		.cfi_offset 5, -20
 1760              		.cfi_offset 6, -16
 1761              		.cfi_offset 7, -12
 1762              		.cfi_offset 8, -8
 1763              		.cfi_offset 14, -4
 1764 0004 84B0     		sub	sp, sp, #16
 1765              	.LCFI15:
 1766              		.cfi_def_cfa_offset 40
 1767 0006 0D46     		mov	r5, r1
 438:lvgl/src/widgets/lv_img.c **** 
 1768              		.loc 1 438 5 is_stmt 1 view .LVU632
 440:lvgl/src/widgets/lv_img.c **** 
 1769              		.loc 1 440 5 view .LVU633
 440:lvgl/src/widgets/lv_img.c **** 
 1770              		.loc 1 440 28 is_stmt 0 view .LVU634
 1771 0008 0846     		mov	r0, r1
 1772              	.LVL134:
 440:lvgl/src/widgets/lv_img.c **** 
 1773              		.loc 1 440 28 view .LVU635
 1774 000a FFF7FEFF 		bl	lv_event_get_code
 1775              	.LVL135:
 440:lvgl/src/widgets/lv_img.c **** 
 1776              		.loc 1 440 28 view .LVU636
 1777 000e 0446     		mov	r4, r0
 1778              	.LVL136:
 443:lvgl/src/widgets/lv_img.c ****         /*Call the ancestor's event handler*/
 1779              		.loc 1 443 5 is_stmt 1 view .LVU637
 443:lvgl/src/widgets/lv_img.c ****         /*Call the ancestor's event handler*/
 1780              		.loc 1 443 7 is_stmt 0 view .LVU638
 1781 0010 1528     		cmp	r0, #21
 1782 0012 01D0     		beq	.L73
 443:lvgl/src/widgets/lv_img.c ****         /*Call the ancestor's event handler*/
 1783              		.loc 1 443 35 discriminator 1 view .LVU639
 1784 0014 1828     		cmp	r0, #24
 1785 0016 26D1     		bne	.L88
 1786              	.LVL137:
 1787              	.L73:
ARM GAS  /var/folders/21/t9g5rlb91ys800n5npymflf80000gn/T//ccodu31E.s 			page 65


 449:lvgl/src/widgets/lv_img.c ****     lv_img_t * img = (lv_img_t *)obj;
 1788              		.loc 1 449 5 is_stmt 1 view .LVU640
 449:lvgl/src/widgets/lv_img.c ****     lv_img_t * img = (lv_img_t *)obj;
 1789              		.loc 1 449 22 is_stmt 0 view .LVU641
 1790 0018 2846     		mov	r0, r5
 1791 001a FFF7FEFF 		bl	lv_event_get_target
 1792              	.LVL138:
 1793 001e 0646     		mov	r6, r0
 1794              	.LVL139:
 450:lvgl/src/widgets/lv_img.c **** 
 1795              		.loc 1 450 5 is_stmt 1 view .LVU642
 452:lvgl/src/widgets/lv_img.c ****         /*Refresh the file name to refresh the symbol text size*/
 1796              		.loc 1 452 5 view .LVU643
 452:lvgl/src/widgets/lv_img.c ****         /*Refresh the file name to refresh the symbol text size*/
 1797              		.loc 1 452 7 is_stmt 0 view .LVU644
 1798 0020 2A2C     		cmp	r4, #42
 1799 0022 29D0     		beq	.L89
 462:lvgl/src/widgets/lv_img.c **** 
 1800              		.loc 1 462 10 is_stmt 1 view .LVU645
 1801 0024 113C     		subs	r4, r4, #17
 1802 0026 1B2C     		cmp	r4, #27
 1803 0028 23D8     		bhi	.L72
 1804 002a DFE814F0 		tbh	[pc, r4, lsl #1]
 1805              	.L78:
 1806 002e 7300     		.2byte	(.L81-.L78)/2
 1807 0030 F200     		.2byte	(.L79-.L78)/2
 1808 0032 3200     		.2byte	(.L80-.L78)/2
 1809 0034 2200     		.2byte	(.L72-.L78)/2
 1810 0036 F200     		.2byte	(.L79-.L78)/2
 1811 0038 2200     		.2byte	(.L72-.L78)/2
 1812 003a 2200     		.2byte	(.L72-.L78)/2
 1813 003c F200     		.2byte	(.L79-.L78)/2
 1814 003e 2200     		.2byte	(.L72-.L78)/2
 1815 0040 2200     		.2byte	(.L72-.L78)/2
 1816 0042 2200     		.2byte	(.L72-.L78)/2
 1817 0044 2200     		.2byte	(.L72-.L78)/2
 1818 0046 2200     		.2byte	(.L72-.L78)/2
 1819 0048 2200     		.2byte	(.L72-.L78)/2
 1820 004a 2200     		.2byte	(.L72-.L78)/2
 1821 004c 2200     		.2byte	(.L72-.L78)/2
 1822 004e 2200     		.2byte	(.L72-.L78)/2
 1823 0050 2200     		.2byte	(.L72-.L78)/2
 1824 0052 2200     		.2byte	(.L72-.L78)/2
 1825 0054 2200     		.2byte	(.L72-.L78)/2
 1826 0056 2200     		.2byte	(.L72-.L78)/2
 1827 0058 2200     		.2byte	(.L72-.L78)/2
 1828 005a 2200     		.2byte	(.L72-.L78)/2
 1829 005c 2200     		.2byte	(.L72-.L78)/2
 1830 005e 2200     		.2byte	(.L72-.L78)/2
 1831 0060 2200     		.2byte	(.L72-.L78)/2
 1832 0062 2200     		.2byte	(.L72-.L78)/2
 1833 0064 D900     		.2byte	(.L77-.L78)/2
 1834              	.LVL140:
 1835              		.p2align 1
 1836              	.L88:
 1837              	.LBB87:
 445:lvgl/src/widgets/lv_img.c ****         if(res != LV_RES_OK) return;
ARM GAS  /var/folders/21/t9g5rlb91ys800n5npymflf80000gn/T//ccodu31E.s 			page 66


 1838              		.loc 1 445 9 view .LVU646
 445:lvgl/src/widgets/lv_img.c ****         if(res != LV_RES_OK) return;
 1839              		.loc 1 445 24 is_stmt 0 view .LVU647
 1840 0066 2946     		mov	r1, r5
 1841 0068 6C48     		ldr	r0, .L94
 1842              	.LVL141:
 445:lvgl/src/widgets/lv_img.c ****         if(res != LV_RES_OK) return;
 1843              		.loc 1 445 24 view .LVU648
 1844 006a FFF7FEFF 		bl	lv_obj_event_base
 1845              	.LVL142:
 446:lvgl/src/widgets/lv_img.c ****     }
 1846              		.loc 1 446 9 is_stmt 1 view .LVU649
 446:lvgl/src/widgets/lv_img.c ****     }
 1847              		.loc 1 446 11 is_stmt 0 view .LVU650
 1848 006e 0128     		cmp	r0, #1
 1849 0070 D2D0     		beq	.L73
 1850              	.LVL143:
 1851              	.L72:
 446:lvgl/src/widgets/lv_img.c ****     }
 1852              		.loc 1 446 11 view .LVU651
 1853              	.LBE87:
 516:lvgl/src/widgets/lv_img.c **** 
 1854              		.loc 1 516 1 view .LVU652
 1855 0072 04B0     		add	sp, sp, #16
 1856              	.LCFI16:
 1857              		.cfi_remember_state
 1858              		.cfi_def_cfa_offset 24
 1859              		@ sp needed
 1860 0074 BDE8F081 		pop	{r4, r5, r6, r7, r8, pc}
 1861              	.LVL144:
 1862              	.L89:
 1863              	.LCFI17:
 1864              		.cfi_restore_state
 454:lvgl/src/widgets/lv_img.c ****             lv_img_set_src(obj, img->src);
 1865              		.loc 1 454 9 is_stmt 1 view .LVU653
 454:lvgl/src/widgets/lv_img.c ****             lv_img_set_src(obj, img->src);
 1866              		.loc 1 454 26 is_stmt 0 view .LVU654
 1867 0078 90F83830 		ldrb	r3, [r0, #56]	@ zero_extendqisi2
 1868 007c 03F00303 		and	r3, r3, #3
 454:lvgl/src/widgets/lv_img.c ****             lv_img_set_src(obj, img->src);
 1869              		.loc 1 454 11 view .LVU655
 1870 0080 022B     		cmp	r3, #2
 1871 0082 02D0     		beq	.L90
 459:lvgl/src/widgets/lv_img.c ****         }
 1872              		.loc 1 459 13 is_stmt 1 view .LVU656
 1873 0084 FFF7FEFF 		bl	lv_obj_refresh_ext_draw_size
 1874              	.LVL145:
 459:lvgl/src/widgets/lv_img.c ****         }
 1875              		.loc 1 459 13 is_stmt 0 view .LVU657
 1876 0088 F3E7     		b	.L72
 1877              	.LVL146:
 1878              	.L90:
 455:lvgl/src/widgets/lv_img.c ****         }
 1879              		.loc 1 455 13 is_stmt 1 view .LVU658
 1880 008a 416A     		ldr	r1, [r0, #36]
 1881 008c FFF7FEFF 		bl	lv_img_set_src
 1882              	.LVL147:
ARM GAS  /var/folders/21/t9g5rlb91ys800n5npymflf80000gn/T//ccodu31E.s 			page 67


 455:lvgl/src/widgets/lv_img.c ****         }
 1883              		.loc 1 455 13 is_stmt 0 view .LVU659
 1884 0090 EFE7     		b	.L72
 1885              	.LVL148:
 1886              	.L80:
 1887              	.LBB88:
 464:lvgl/src/widgets/lv_img.c **** 
 1888              		.loc 1 464 9 is_stmt 1 view .LVU660
 464:lvgl/src/widgets/lv_img.c **** 
 1889              		.loc 1 464 26 is_stmt 0 view .LVU661
 1890 0092 2846     		mov	r0, r5
 1891              	.LVL149:
 464:lvgl/src/widgets/lv_img.c **** 
 1892              		.loc 1 464 26 view .LVU662
 1893 0094 FFF7FEFF 		bl	lv_event_get_param
 1894              	.LVL150:
 1895 0098 0546     		mov	r5, r0
 1896              	.LVL151:
 467:lvgl/src/widgets/lv_img.c ****             lv_area_t a;
 1897              		.loc 1 467 9 is_stmt 1 view .LVU663
 467:lvgl/src/widgets/lv_img.c ****             lv_area_t a;
 1898              		.loc 1 467 15 is_stmt 0 view .LVU664
 1899 009a 338E     		ldrh	r3, [r6, #48]
 467:lvgl/src/widgets/lv_img.c ****             lv_area_t a;
 1900              		.loc 1 467 11 view .LVU665
 1901 009c 1BB9     		cbnz	r3, .L82
 467:lvgl/src/widgets/lv_img.c ****             lv_area_t a;
 1902              		.loc 1 467 29 discriminator 1 view .LVU666
 1903 009e F38E     		ldrh	r3, [r6, #54]
 467:lvgl/src/widgets/lv_img.c ****             lv_area_t a;
 1904              		.loc 1 467 23 discriminator 1 view .LVU667
 1905 00a0 B3F5807F 		cmp	r3, #256
 1906 00a4 E5D0     		beq	.L72
 1907              	.L82:
 1908              	.LBB89:
 468:lvgl/src/widgets/lv_img.c ****             lv_coord_t w = lv_obj_get_width(obj);
 1909              		.loc 1 468 13 is_stmt 1 view .LVU668
 469:lvgl/src/widgets/lv_img.c ****             lv_coord_t h = lv_obj_get_height(obj);
 1910              		.loc 1 469 13 view .LVU669
 469:lvgl/src/widgets/lv_img.c ****             lv_coord_t h = lv_obj_get_height(obj);
 1911              		.loc 1 469 28 is_stmt 0 view .LVU670
 1912 00a6 3046     		mov	r0, r6
 1913              	.LVL152:
 469:lvgl/src/widgets/lv_img.c ****             lv_coord_t h = lv_obj_get_height(obj);
 1914              		.loc 1 469 28 view .LVU671
 1915 00a8 FFF7FEFF 		bl	lv_obj_get_width
 1916              	.LVL153:
 1917 00ac 8046     		mov	r8, r0
 1918              	.LVL154:
 470:lvgl/src/widgets/lv_img.c ****             _lv_img_buf_get_transformed_area(&a, w, h, img->angle, img->zoom, &img->pivot);
 1919              		.loc 1 470 13 is_stmt 1 view .LVU672
 470:lvgl/src/widgets/lv_img.c ****             _lv_img_buf_get_transformed_area(&a, w, h, img->angle, img->zoom, &img->pivot);
 1920              		.loc 1 470 28 is_stmt 0 view .LVU673
 1921 00ae 3046     		mov	r0, r6
 1922 00b0 FFF7FEFF 		bl	lv_obj_get_height
 1923              	.LVL155:
 1924 00b4 0746     		mov	r7, r0
ARM GAS  /var/folders/21/t9g5rlb91ys800n5npymflf80000gn/T//ccodu31E.s 			page 68


 1925              	.LVL156:
 471:lvgl/src/widgets/lv_img.c ****             *s = LV_MAX(*s, -a.x1);
 1926              		.loc 1 471 13 is_stmt 1 view .LVU674
 471:lvgl/src/widgets/lv_img.c ****             *s = LV_MAX(*s, -a.x1);
 1927              		.loc 1 471 79 is_stmt 0 view .LVU675
 1928 00b6 06F13202 		add	r2, r6, #50
 471:lvgl/src/widgets/lv_img.c ****             *s = LV_MAX(*s, -a.x1);
 1929              		.loc 1 471 13 view .LVU676
 1930 00ba B6F93030 		ldrsh	r3, [r6, #48]
 1931 00be 0192     		str	r2, [sp, #4]
 1932 00c0 F28E     		ldrh	r2, [r6, #54]
 1933 00c2 0092     		str	r2, [sp]
 1934 00c4 0246     		mov	r2, r0
 1935 00c6 4146     		mov	r1, r8
 1936 00c8 02A8     		add	r0, sp, #8
 1937              	.LVL157:
 471:lvgl/src/widgets/lv_img.c ****             *s = LV_MAX(*s, -a.x1);
 1938              		.loc 1 471 13 view .LVU677
 1939 00ca FFF7FEFF 		bl	_lv_img_buf_get_transformed_area
 1940              	.LVL158:
 472:lvgl/src/widgets/lv_img.c ****             *s = LV_MAX(*s, -a.y1);
 1941              		.loc 1 472 13 is_stmt 1 view .LVU678
 472:lvgl/src/widgets/lv_img.c ****             *s = LV_MAX(*s, -a.y1);
 1942              		.loc 1 472 18 is_stmt 0 view .LVU679
 1943 00ce BDF90830 		ldrsh	r3, [sp, #8]
 1944 00d2 5B42     		rsbs	r3, r3, #0
 1945 00d4 B5F90020 		ldrsh	r2, [r5]
 1946 00d8 9342     		cmp	r3, r2
 1947 00da B8BF     		it	lt
 1948 00dc 1346     		movlt	r3, r2
 472:lvgl/src/widgets/lv_img.c ****             *s = LV_MAX(*s, -a.y1);
 1949              		.loc 1 472 16 view .LVU680
 1950 00de 1BB2     		sxth	r3, r3
 1951 00e0 2B80     		strh	r3, [r5]	@ movhi
 473:lvgl/src/widgets/lv_img.c ****             *s = LV_MAX(*s, a.x2 - w);
 1952              		.loc 1 473 13 is_stmt 1 view .LVU681
 473:lvgl/src/widgets/lv_img.c ****             *s = LV_MAX(*s, a.x2 - w);
 1953              		.loc 1 473 18 is_stmt 0 view .LVU682
 1954 00e2 BDF90A40 		ldrsh	r4, [sp, #10]
 1955 00e6 6442     		rsbs	r4, r4, #0
 1956 00e8 9C42     		cmp	r4, r3
 1957 00ea B8BF     		it	lt
 1958 00ec 1C46     		movlt	r4, r3
 473:lvgl/src/widgets/lv_img.c ****             *s = LV_MAX(*s, a.x2 - w);
 1959              		.loc 1 473 16 view .LVU683
 1960 00ee 24B2     		sxth	r4, r4
 1961 00f0 2C80     		strh	r4, [r5]	@ movhi
 474:lvgl/src/widgets/lv_img.c ****             *s = LV_MAX(*s, a.y2 - h);
 1962              		.loc 1 474 13 is_stmt 1 view .LVU684
 474:lvgl/src/widgets/lv_img.c ****             *s = LV_MAX(*s, a.y2 - h);
 1963              		.loc 1 474 18 is_stmt 0 view .LVU685
 1964 00f2 BDF90C30 		ldrsh	r3, [sp, #12]
 1965 00f6 A3EB0803 		sub	r3, r3, r8
 1966 00fa A342     		cmp	r3, r4
 1967 00fc B8BF     		it	lt
 1968 00fe 2346     		movlt	r3, r4
 474:lvgl/src/widgets/lv_img.c ****             *s = LV_MAX(*s, a.y2 - h);
ARM GAS  /var/folders/21/t9g5rlb91ys800n5npymflf80000gn/T//ccodu31E.s 			page 69


 1969              		.loc 1 474 16 view .LVU686
 1970 0100 1BB2     		sxth	r3, r3
 1971 0102 2B80     		strh	r3, [r5]	@ movhi
 475:lvgl/src/widgets/lv_img.c ****         }
 1972              		.loc 1 475 13 is_stmt 1 view .LVU687
 475:lvgl/src/widgets/lv_img.c ****         }
 1973              		.loc 1 475 18 is_stmt 0 view .LVU688
 1974 0104 BDF90E20 		ldrsh	r2, [sp, #14]
 1975 0108 D21B     		subs	r2, r2, r7
 1976 010a 9342     		cmp	r3, r2
 1977 010c B8BF     		it	lt
 1978 010e 1346     		movlt	r3, r2
 475:lvgl/src/widgets/lv_img.c ****         }
 1979              		.loc 1 475 16 view .LVU689
 1980 0110 2B80     		strh	r3, [r5]	@ movhi
 1981 0112 AEE7     		b	.L72
 1982              	.LVL159:
 1983              	.L81:
 475:lvgl/src/widgets/lv_img.c ****         }
 1984              		.loc 1 475 16 view .LVU690
 1985              	.LBE89:
 1986              	.LBE88:
 1987              	.LBB90:
 479:lvgl/src/widgets/lv_img.c **** 
 1988              		.loc 1 479 9 is_stmt 1 view .LVU691
 479:lvgl/src/widgets/lv_img.c **** 
 1989              		.loc 1 479 37 is_stmt 0 view .LVU692
 1990 0114 2846     		mov	r0, r5
 1991              	.LVL160:
 479:lvgl/src/widgets/lv_img.c **** 
 1992              		.loc 1 479 37 view .LVU693
 1993 0116 FFF7FEFF 		bl	lv_event_get_param
 1994              	.LVL161:
 1995 011a 0446     		mov	r4, r0
 1996              	.LVL162:
 483:lvgl/src/widgets/lv_img.c ****            (img->zoom != LV_IMG_ZOOM_NONE || img->angle != 0 || img->pivot.x != img->w / 2 || img->
 1997              		.loc 1 483 9 is_stmt 1 view .LVU694
 483:lvgl/src/widgets/lv_img.c ****            (img->zoom != LV_IMG_ZOOM_NONE || img->angle != 0 || img->pivot.x != img->w / 2 || img->
 1998              		.loc 1 483 15 is_stmt 0 view .LVU695
 1999 011c B6F92C50 		ldrsh	r5, [r6, #44]
 2000              	.LVL163:
 483:lvgl/src/widgets/lv_img.c ****            (img->zoom != LV_IMG_ZOOM_NONE || img->angle != 0 || img->pivot.x != img->w / 2 || img->
 2001              		.loc 1 483 22 view .LVU696
 2002 0120 3046     		mov	r0, r6
 2003              	.LVL164:
 483:lvgl/src/widgets/lv_img.c ****            (img->zoom != LV_IMG_ZOOM_NONE || img->angle != 0 || img->pivot.x != img->w / 2 || img->
 2004              		.loc 1 483 22 view .LVU697
 2005 0122 FFF7FEFF 		bl	lv_obj_get_width
 2006              	.LVL165:
 483:lvgl/src/widgets/lv_img.c ****            (img->zoom != LV_IMG_ZOOM_NONE || img->angle != 0 || img->pivot.x != img->w / 2 || img->
 2007              		.loc 1 483 11 view .LVU698
 2008 0126 8542     		cmp	r5, r0
 2009 0128 0AD0     		beq	.L91
 2010              	.L83:
 2011              	.LBB91:
 498:lvgl/src/widgets/lv_img.c ****             lv_obj_get_click_area(obj, &a);
 2012              		.loc 1 498 13 is_stmt 1 discriminator 5 view .LVU699
ARM GAS  /var/folders/21/t9g5rlb91ys800n5npymflf80000gn/T//ccodu31E.s 			page 70


 499:lvgl/src/widgets/lv_img.c ****             info->res = _lv_area_is_point_on(&a, info->point, 0);
 2013              		.loc 1 499 13 discriminator 5 view .LVU700
 2014 012a 02A9     		add	r1, sp, #8
 2015 012c 3046     		mov	r0, r6
 2016 012e FFF7FEFF 		bl	lv_obj_get_click_area
 2017              	.LVL166:
 500:lvgl/src/widgets/lv_img.c ****         }
 2018              		.loc 1 500 13 discriminator 5 view .LVU701
 500:lvgl/src/widgets/lv_img.c ****         }
 2019              		.loc 1 500 25 is_stmt 0 discriminator 5 view .LVU702
 2020 0132 0022     		movs	r2, #0
 2021 0134 2168     		ldr	r1, [r4]
 2022 0136 02A8     		add	r0, sp, #8
 2023 0138 FFF7FEFF 		bl	_lv_area_is_point_on
 2024              	.LVL167:
 500:lvgl/src/widgets/lv_img.c ****         }
 2025              		.loc 1 500 23 discriminator 5 view .LVU703
 2026 013c 2071     		strb	r0, [r4, #4]
 2027 013e 98E7     		b	.L72
 2028              	.L91:
 500:lvgl/src/widgets/lv_img.c ****         }
 2029              		.loc 1 500 23 discriminator 5 view .LVU704
 2030              	.LBE91:
 483:lvgl/src/widgets/lv_img.c ****            (img->zoom != LV_IMG_ZOOM_NONE || img->angle != 0 || img->pivot.x != img->w / 2 || img->
 2031              		.loc 1 483 50 discriminator 1 view .LVU705
 2032 0140 B6F92E50 		ldrsh	r5, [r6, #46]
 483:lvgl/src/widgets/lv_img.c ****            (img->zoom != LV_IMG_ZOOM_NONE || img->angle != 0 || img->pivot.x != img->w / 2 || img->
 2033              		.loc 1 483 57 discriminator 1 view .LVU706
 2034 0144 3046     		mov	r0, r6
 2035 0146 FFF7FEFF 		bl	lv_obj_get_height
 2036              	.LVL168:
 483:lvgl/src/widgets/lv_img.c ****            (img->zoom != LV_IMG_ZOOM_NONE || img->angle != 0 || img->pivot.x != img->w / 2 || img->
 2037              		.loc 1 483 44 discriminator 1 view .LVU707
 2038 014a 8542     		cmp	r5, r0
 2039 014c EDD1     		bne	.L83
 484:lvgl/src/widgets/lv_img.c **** 
 2040              		.loc 1 484 16 discriminator 2 view .LVU708
 2041 014e F38E     		ldrh	r3, [r6, #54]
 483:lvgl/src/widgets/lv_img.c ****            (img->zoom != LV_IMG_ZOOM_NONE || img->angle != 0 || img->pivot.x != img->w / 2 || img->
 2042              		.loc 1 483 80 discriminator 2 view .LVU709
 2043 0150 B3F5807F 		cmp	r3, #256
 2044 0154 0AD1     		bne	.L84
 484:lvgl/src/widgets/lv_img.c **** 
 2045              		.loc 1 484 49 view .LVU710
 2046 0156 338E     		ldrh	r3, [r6, #48]
 484:lvgl/src/widgets/lv_img.c **** 
 2047              		.loc 1 484 43 view .LVU711
 2048 0158 43B9     		cbnz	r3, .L84
 484:lvgl/src/widgets/lv_img.c **** 
 2049              		.loc 1 484 75 discriminator 1 view .LVU712
 2050 015a B6F93220 		ldrsh	r2, [r6, #50]
 484:lvgl/src/widgets/lv_img.c **** 
 2051              		.loc 1 484 84 discriminator 1 view .LVU713
 2052 015e B6F92C30 		ldrsh	r3, [r6, #44]
 484:lvgl/src/widgets/lv_img.c **** 
 2053              		.loc 1 484 78 discriminator 1 view .LVU714
 2054 0162 03EBD373 		add	r3, r3, r3, lsr #31
ARM GAS  /var/folders/21/t9g5rlb91ys800n5npymflf80000gn/T//ccodu31E.s 			page 71


 484:lvgl/src/widgets/lv_img.c **** 
 2055              		.loc 1 484 62 discriminator 1 view .LVU715
 2056 0166 B2EB630F 		cmp	r2, r3, asr #1
 2057 016a 2FD0     		beq	.L92
 2058              	.L84:
 2059              	.LBB92:
 486:lvgl/src/widgets/lv_img.c ****             lv_coord_t h = lv_obj_get_height(obj);
 2060              		.loc 1 486 13 is_stmt 1 view .LVU716
 486:lvgl/src/widgets/lv_img.c ****             lv_coord_t h = lv_obj_get_height(obj);
 2061              		.loc 1 486 28 is_stmt 0 view .LVU717
 2062 016c 3046     		mov	r0, r6
 2063 016e FFF7FEFF 		bl	lv_obj_get_width
 2064              	.LVL169:
 2065 0172 0546     		mov	r5, r0
 2066              	.LVL170:
 487:lvgl/src/widgets/lv_img.c ****             lv_area_t coords;
 2067              		.loc 1 487 13 is_stmt 1 view .LVU718
 487:lvgl/src/widgets/lv_img.c ****             lv_area_t coords;
 2068              		.loc 1 487 28 is_stmt 0 view .LVU719
 2069 0174 3046     		mov	r0, r6
 2070 0176 FFF7FEFF 		bl	lv_obj_get_height
 2071              	.LVL171:
 2072 017a 0246     		mov	r2, r0
 2073              	.LVL172:
 488:lvgl/src/widgets/lv_img.c ****             _lv_img_buf_get_transformed_area(&coords, w, h, img->angle, img->zoom, &img->pivot);
 2074              		.loc 1 488 13 is_stmt 1 view .LVU720
 489:lvgl/src/widgets/lv_img.c ****             coords.x1 += obj->coords.x1;
 2075              		.loc 1 489 13 view .LVU721
 489:lvgl/src/widgets/lv_img.c ****             coords.x1 += obj->coords.x1;
 2076              		.loc 1 489 84 is_stmt 0 view .LVU722
 2077 017c 06F13201 		add	r1, r6, #50
 489:lvgl/src/widgets/lv_img.c ****             coords.x1 += obj->coords.x1;
 2078              		.loc 1 489 13 view .LVU723
 2079 0180 B6F93030 		ldrsh	r3, [r6, #48]
 2080 0184 0191     		str	r1, [sp, #4]
 2081 0186 F18E     		ldrh	r1, [r6, #54]
 2082 0188 0091     		str	r1, [sp]
 2083 018a 2946     		mov	r1, r5
 2084 018c 02A8     		add	r0, sp, #8
 2085 018e FFF7FEFF 		bl	_lv_img_buf_get_transformed_area
 2086              	.LVL173:
 490:lvgl/src/widgets/lv_img.c ****             coords.y1 += obj->coords.y1;
 2087              		.loc 1 490 13 is_stmt 1 view .LVU724
 490:lvgl/src/widgets/lv_img.c ****             coords.y1 += obj->coords.y1;
 2088              		.loc 1 490 19 is_stmt 0 view .LVU725
 2089 0192 BDF80830 		ldrh	r3, [sp, #8]
 490:lvgl/src/widgets/lv_img.c ****             coords.y1 += obj->coords.y1;
 2090              		.loc 1 490 37 view .LVU726
 2091 0196 B28A     		ldrh	r2, [r6, #20]
 490:lvgl/src/widgets/lv_img.c ****             coords.y1 += obj->coords.y1;
 2092              		.loc 1 490 23 view .LVU727
 2093 0198 1344     		add	r3, r3, r2
 2094 019a ADF80830 		strh	r3, [sp, #8]	@ movhi
 491:lvgl/src/widgets/lv_img.c ****             coords.x2 += obj->coords.x1;
 2095              		.loc 1 491 13 is_stmt 1 view .LVU728
 491:lvgl/src/widgets/lv_img.c ****             coords.x2 += obj->coords.x1;
 2096              		.loc 1 491 19 is_stmt 0 view .LVU729
ARM GAS  /var/folders/21/t9g5rlb91ys800n5npymflf80000gn/T//ccodu31E.s 			page 72


 2097 019e BDF80A10 		ldrh	r1, [sp, #10]
 491:lvgl/src/widgets/lv_img.c ****             coords.x2 += obj->coords.x1;
 2098              		.loc 1 491 37 view .LVU730
 2099 01a2 F38A     		ldrh	r3, [r6, #22]
 491:lvgl/src/widgets/lv_img.c ****             coords.x2 += obj->coords.x1;
 2100              		.loc 1 491 23 view .LVU731
 2101 01a4 1944     		add	r1, r1, r3
 2102 01a6 ADF80A10 		strh	r1, [sp, #10]	@ movhi
 492:lvgl/src/widgets/lv_img.c ****             coords.y2 += obj->coords.y1;
 2103              		.loc 1 492 13 is_stmt 1 view .LVU732
 492:lvgl/src/widgets/lv_img.c ****             coords.y2 += obj->coords.y1;
 2104              		.loc 1 492 19 is_stmt 0 view .LVU733
 2105 01aa BDF80C10 		ldrh	r1, [sp, #12]
 492:lvgl/src/widgets/lv_img.c ****             coords.y2 += obj->coords.y1;
 2106              		.loc 1 492 23 view .LVU734
 2107 01ae 0A44     		add	r2, r2, r1
 2108 01b0 ADF80C20 		strh	r2, [sp, #12]	@ movhi
 493:lvgl/src/widgets/lv_img.c **** 
 2109              		.loc 1 493 13 is_stmt 1 view .LVU735
 493:lvgl/src/widgets/lv_img.c **** 
 2110              		.loc 1 493 19 is_stmt 0 view .LVU736
 2111 01b4 BDF80E20 		ldrh	r2, [sp, #14]
 493:lvgl/src/widgets/lv_img.c **** 
 2112              		.loc 1 493 23 view .LVU737
 2113 01b8 1344     		add	r3, r3, r2
 2114 01ba ADF80E30 		strh	r3, [sp, #14]	@ movhi
 495:lvgl/src/widgets/lv_img.c ****         }
 2115              		.loc 1 495 13 is_stmt 1 view .LVU738
 495:lvgl/src/widgets/lv_img.c ****         }
 2116              		.loc 1 495 25 is_stmt 0 view .LVU739
 2117 01be 0022     		movs	r2, #0
 2118 01c0 2168     		ldr	r1, [r4]
 2119 01c2 02A8     		add	r0, sp, #8
 2120 01c4 FFF7FEFF 		bl	_lv_area_is_point_on
 2121              	.LVL174:
 495:lvgl/src/widgets/lv_img.c ****         }
 2122              		.loc 1 495 23 view .LVU740
 2123 01c8 2071     		strb	r0, [r4, #4]
 2124              	.LBE92:
 484:lvgl/src/widgets/lv_img.c **** 
 2125              		.loc 1 484 124 view .LVU741
 2126 01ca 52E7     		b	.L72
 2127              	.LVL175:
 2128              	.L92:
 484:lvgl/src/widgets/lv_img.c **** 
 2129              		.loc 1 484 105 discriminator 2 view .LVU742
 2130 01cc B6F93420 		ldrsh	r2, [r6, #52]
 484:lvgl/src/widgets/lv_img.c **** 
 2131              		.loc 1 484 114 discriminator 2 view .LVU743
 2132 01d0 B6F92E30 		ldrsh	r3, [r6, #46]
 484:lvgl/src/widgets/lv_img.c **** 
 2133              		.loc 1 484 108 discriminator 2 view .LVU744
 2134 01d4 03EBD373 		add	r3, r3, r3, lsr #31
 484:lvgl/src/widgets/lv_img.c **** 
 2135              		.loc 1 484 92 discriminator 2 view .LVU745
 2136 01d8 B2EB630F 		cmp	r2, r3, asr #1
 2137 01dc C6D1     		bne	.L84
ARM GAS  /var/folders/21/t9g5rlb91ys800n5npymflf80000gn/T//ccodu31E.s 			page 73


 2138 01de A4E7     		b	.L83
 2139              	.LVL176:
 2140              	.L77:
 484:lvgl/src/widgets/lv_img.c **** 
 2141              		.loc 1 484 92 discriminator 2 view .LVU746
 2142              	.LBE90:
 2143              	.LBB93:
 504:lvgl/src/widgets/lv_img.c ****         if(img->obj_size_mode == LV_IMG_SIZE_MODE_REAL) {
 2144              		.loc 1 504 9 is_stmt 1 view .LVU747
 504:lvgl/src/widgets/lv_img.c ****         if(img->obj_size_mode == LV_IMG_SIZE_MODE_REAL) {
 2145              		.loc 1 504 26 is_stmt 0 view .LVU748
 2146 01e0 2846     		mov	r0, r5
 2147              	.LVL177:
 504:lvgl/src/widgets/lv_img.c ****         if(img->obj_size_mode == LV_IMG_SIZE_MODE_REAL) {
 2148              		.loc 1 504 26 view .LVU749
 2149 01e2 FFF7FEFF 		bl	lv_event_get_param
 2150              	.LVL178:
 2151 01e6 0446     		mov	r4, r0
 2152              	.LVL179:
 505:lvgl/src/widgets/lv_img.c ****             *p = lv_img_get_transformed_size(obj);
 2153              		.loc 1 505 9 is_stmt 1 view .LVU750
 505:lvgl/src/widgets/lv_img.c ****             *p = lv_img_get_transformed_size(obj);
 2154              		.loc 1 505 31 is_stmt 0 view .LVU751
 2155 01e8 96F83930 		ldrb	r3, [r6, #57]	@ zero_extendqisi2
 2156 01ec 03F00303 		and	r3, r3, #3
 505:lvgl/src/widgets/lv_img.c ****             *p = lv_img_get_transformed_size(obj);
 2157              		.loc 1 505 11 view .LVU752
 2158 01f0 012B     		cmp	r3, #1
 2159 01f2 06D0     		beq	.L93
 509:lvgl/src/widgets/lv_img.c ****             p->y = img->h;
 2160              		.loc 1 509 13 is_stmt 1 view .LVU753
 509:lvgl/src/widgets/lv_img.c ****             p->y = img->h;
