ARM GAS  /var/folders/21/t9g5rlb91ys800n5npymflf80000gn/T//ccWK7fRs.s 			page 1


   1              		.cpu cortex-m4
   2              		.arch armv7e-m
   3              		.fpu fpv4-sp-d16
   4              		.eabi_attribute 27, 1
   5              		.eabi_attribute 28, 1
   6              		.eabi_attribute 20, 1
   7              		.eabi_attribute 21, 1
   8              		.eabi_attribute 23, 3
   9              		.eabi_attribute 24, 1
  10              		.eabi_attribute 25, 1
  11              		.eabi_attribute 26, 1
  12              		.eabi_attribute 30, 1
  13              		.eabi_attribute 34, 1
  14              		.eabi_attribute 18, 4
  15              		.file	"lv_keyboard.c"
  16              		.text
  17              	.Ltext0:
  18              		.cfi_sections	.debug_frame
  19              		.file 1 "lvgl/src/extra/widgets/keyboard/lv_keyboard.c"
  20              		.section	.text.lv_keyboard_update_ctrl_map,"ax",%progbits
  21              		.align	1
  22              		.syntax unified
  23              		.thumb
  24              		.thumb_func
  26              	lv_keyboard_update_ctrl_map:
  27              	.LVL0:
  28              	.LFB184:
   1:lvgl/src/extra/widgets/keyboard/lv_keyboard.c **** 
   2:lvgl/src/extra/widgets/keyboard/lv_keyboard.c **** /**
   3:lvgl/src/extra/widgets/keyboard/lv_keyboard.c ****  * @file lv_keyboard.c
   4:lvgl/src/extra/widgets/keyboard/lv_keyboard.c ****  *
   5:lvgl/src/extra/widgets/keyboard/lv_keyboard.c ****  */
   6:lvgl/src/extra/widgets/keyboard/lv_keyboard.c **** 
   7:lvgl/src/extra/widgets/keyboard/lv_keyboard.c **** /*********************
   8:lvgl/src/extra/widgets/keyboard/lv_keyboard.c ****  *      INCLUDES
   9:lvgl/src/extra/widgets/keyboard/lv_keyboard.c ****  *********************/
  10:lvgl/src/extra/widgets/keyboard/lv_keyboard.c **** #include "lv_keyboard.h"
  11:lvgl/src/extra/widgets/keyboard/lv_keyboard.c **** #if LV_USE_KEYBOARD
  12:lvgl/src/extra/widgets/keyboard/lv_keyboard.c **** 
  13:lvgl/src/extra/widgets/keyboard/lv_keyboard.c **** #include "../../../widgets/lv_textarea.h"
  14:lvgl/src/extra/widgets/keyboard/lv_keyboard.c **** #include "../../../misc/lv_assert.h"
  15:lvgl/src/extra/widgets/keyboard/lv_keyboard.c **** 
  16:lvgl/src/extra/widgets/keyboard/lv_keyboard.c **** #include <stdlib.h>
  17:lvgl/src/extra/widgets/keyboard/lv_keyboard.c **** 
  18:lvgl/src/extra/widgets/keyboard/lv_keyboard.c **** /*********************
  19:lvgl/src/extra/widgets/keyboard/lv_keyboard.c ****  *      DEFINES
  20:lvgl/src/extra/widgets/keyboard/lv_keyboard.c ****  *********************/
  21:lvgl/src/extra/widgets/keyboard/lv_keyboard.c **** #define MY_CLASS    &lv_keyboard_class
  22:lvgl/src/extra/widgets/keyboard/lv_keyboard.c **** #define LV_KB_BTN(width) LV_BTNMATRIX_CTRL_POPOVER | width
  23:lvgl/src/extra/widgets/keyboard/lv_keyboard.c **** 
  24:lvgl/src/extra/widgets/keyboard/lv_keyboard.c **** /**********************
  25:lvgl/src/extra/widgets/keyboard/lv_keyboard.c ****  *      TYPEDEFS
  26:lvgl/src/extra/widgets/keyboard/lv_keyboard.c ****  **********************/
  27:lvgl/src/extra/widgets/keyboard/lv_keyboard.c **** 
  28:lvgl/src/extra/widgets/keyboard/lv_keyboard.c **** /**********************
  29:lvgl/src/extra/widgets/keyboard/lv_keyboard.c ****  *  STATIC PROTOTYPES
  30:lvgl/src/extra/widgets/keyboard/lv_keyboard.c ****  **********************/
ARM GAS  /var/folders/21/t9g5rlb91ys800n5npymflf80000gn/T//ccWK7fRs.s 			page 2


  31:lvgl/src/extra/widgets/keyboard/lv_keyboard.c **** static void lv_keyboard_constructor(const lv_obj_class_t * class_p, lv_obj_t * obj);
  32:lvgl/src/extra/widgets/keyboard/lv_keyboard.c **** 
  33:lvgl/src/extra/widgets/keyboard/lv_keyboard.c **** static void lv_keyboard_update_map(lv_obj_t * obj);
  34:lvgl/src/extra/widgets/keyboard/lv_keyboard.c **** 
  35:lvgl/src/extra/widgets/keyboard/lv_keyboard.c **** static void lv_keyboard_update_ctrl_map(lv_obj_t * obj);
  36:lvgl/src/extra/widgets/keyboard/lv_keyboard.c **** 
  37:lvgl/src/extra/widgets/keyboard/lv_keyboard.c **** /**********************
  38:lvgl/src/extra/widgets/keyboard/lv_keyboard.c ****  *  STATIC VARIABLES
  39:lvgl/src/extra/widgets/keyboard/lv_keyboard.c ****  **********************/
  40:lvgl/src/extra/widgets/keyboard/lv_keyboard.c **** const lv_obj_class_t lv_keyboard_class = {
  41:lvgl/src/extra/widgets/keyboard/lv_keyboard.c ****     .constructor_cb = lv_keyboard_constructor,
  42:lvgl/src/extra/widgets/keyboard/lv_keyboard.c ****     .width_def = LV_PCT(100),
  43:lvgl/src/extra/widgets/keyboard/lv_keyboard.c ****     .height_def = LV_PCT(50),
  44:lvgl/src/extra/widgets/keyboard/lv_keyboard.c ****     .instance_size = sizeof(lv_keyboard_t),
  45:lvgl/src/extra/widgets/keyboard/lv_keyboard.c ****     .editable = 1,
  46:lvgl/src/extra/widgets/keyboard/lv_keyboard.c ****     .base_class = &lv_btnmatrix_class
  47:lvgl/src/extra/widgets/keyboard/lv_keyboard.c **** };
  48:lvgl/src/extra/widgets/keyboard/lv_keyboard.c **** 
  49:lvgl/src/extra/widgets/keyboard/lv_keyboard.c **** static const char * const default_kb_map_lc[] = {"1#", "q", "w", "e", "r", "t", "y", "u", "i", "o",
  50:lvgl/src/extra/widgets/keyboard/lv_keyboard.c ****                                                  "ABC", "a", "s", "d", "f", "g", "h", "j", "k", "l"
  51:lvgl/src/extra/widgets/keyboard/lv_keyboard.c ****                                                  "_", "-", "z", "x", "c", "v", "b", "n", "m", ".", 
  52:lvgl/src/extra/widgets/keyboard/lv_keyboard.c ****                                                  LV_SYMBOL_KEYBOARD, LV_SYMBOL_LEFT, " ", LV_SYMBOL
  53:lvgl/src/extra/widgets/keyboard/lv_keyboard.c ****                                                 };
  54:lvgl/src/extra/widgets/keyboard/lv_keyboard.c **** 
  55:lvgl/src/extra/widgets/keyboard/lv_keyboard.c **** static const lv_btnmatrix_ctrl_t default_kb_ctrl_lc_map[] = {
  56:lvgl/src/extra/widgets/keyboard/lv_keyboard.c ****     LV_KEYBOARD_CTRL_BTN_FLAGS | 5, LV_KB_BTN(4), LV_KB_BTN(4), LV_KB_BTN(4), LV_KB_BTN(4), LV_KB_B
  57:lvgl/src/extra/widgets/keyboard/lv_keyboard.c ****     LV_KEYBOARD_CTRL_BTN_FLAGS | 6, LV_KB_BTN(3), LV_KB_BTN(3), LV_KB_BTN(3), LV_KB_BTN(3), LV_KB_B
  58:lvgl/src/extra/widgets/keyboard/lv_keyboard.c ****     LV_BTNMATRIX_CTRL_CHECKED | LV_KB_BTN(1), LV_BTNMATRIX_CTRL_CHECKED | LV_KB_BTN(1), LV_KB_BTN(1
  59:lvgl/src/extra/widgets/keyboard/lv_keyboard.c ****     LV_KEYBOARD_CTRL_BTN_FLAGS | 2, LV_BTNMATRIX_CTRL_CHECKED | 2, 6, LV_BTNMATRIX_CTRL_CHECKED | 2
  60:lvgl/src/extra/widgets/keyboard/lv_keyboard.c **** };
  61:lvgl/src/extra/widgets/keyboard/lv_keyboard.c **** 
  62:lvgl/src/extra/widgets/keyboard/lv_keyboard.c **** static const char * const default_kb_map_uc[] = {"1#", "Q", "W", "E", "R", "T", "Y", "U", "I", "O",
  63:lvgl/src/extra/widgets/keyboard/lv_keyboard.c ****                                                  "abc", "A", "S", "D", "F", "G", "H", "J", "K", "L"
  64:lvgl/src/extra/widgets/keyboard/lv_keyboard.c ****                                                  "_", "-", "Z", "X", "C", "V", "B", "N", "M", ".", 
  65:lvgl/src/extra/widgets/keyboard/lv_keyboard.c ****                                                  LV_SYMBOL_KEYBOARD, LV_SYMBOL_LEFT, " ", LV_SYMBOL
  66:lvgl/src/extra/widgets/keyboard/lv_keyboard.c ****                                                 };
  67:lvgl/src/extra/widgets/keyboard/lv_keyboard.c **** 
  68:lvgl/src/extra/widgets/keyboard/lv_keyboard.c **** static const lv_btnmatrix_ctrl_t default_kb_ctrl_uc_map[] = {
  69:lvgl/src/extra/widgets/keyboard/lv_keyboard.c ****     LV_KEYBOARD_CTRL_BTN_FLAGS | 5, LV_KB_BTN(4), LV_KB_BTN(4), LV_KB_BTN(4), LV_KB_BTN(4), LV_KB_B
  70:lvgl/src/extra/widgets/keyboard/lv_keyboard.c ****     LV_KEYBOARD_CTRL_BTN_FLAGS | 6, LV_KB_BTN(3), LV_KB_BTN(3), LV_KB_BTN(3), LV_KB_BTN(3), LV_KB_B
  71:lvgl/src/extra/widgets/keyboard/lv_keyboard.c ****     LV_BTNMATRIX_CTRL_CHECKED | LV_KB_BTN(1), LV_BTNMATRIX_CTRL_CHECKED | LV_KB_BTN(1), LV_KB_BTN(1
  72:lvgl/src/extra/widgets/keyboard/lv_keyboard.c ****     LV_KEYBOARD_CTRL_BTN_FLAGS | 2, LV_BTNMATRIX_CTRL_CHECKED | 2, 6, LV_BTNMATRIX_CTRL_CHECKED | 2
  73:lvgl/src/extra/widgets/keyboard/lv_keyboard.c **** };
  74:lvgl/src/extra/widgets/keyboard/lv_keyboard.c **** 
  75:lvgl/src/extra/widgets/keyboard/lv_keyboard.c **** static const char * const default_kb_map_spec[] = {"1", "2", "3", "4", "5", "6", "7", "8", "9", "0"
  76:lvgl/src/extra/widgets/keyboard/lv_keyboard.c ****                                                    "abc", "+", "&", "/", "*", "=", "%", "!", "?", "
  77:lvgl/src/extra/widgets/keyboard/lv_keyboard.c ****                                                    "\\",  "@", "$", "(", ")", "{", "}", "[", "]", "
  78:lvgl/src/extra/widgets/keyboard/lv_keyboard.c ****                                                    LV_SYMBOL_KEYBOARD, LV_SYMBOL_LEFT, " ", LV_SYMB
  79:lvgl/src/extra/widgets/keyboard/lv_keyboard.c ****                                                   };
  80:lvgl/src/extra/widgets/keyboard/lv_keyboard.c **** 
  81:lvgl/src/extra/widgets/keyboard/lv_keyboard.c **** static const lv_btnmatrix_ctrl_t default_kb_ctrl_spec_map[] = {
  82:lvgl/src/extra/widgets/keyboard/lv_keyboard.c ****     LV_KB_BTN(1), LV_KB_BTN(1), LV_KB_BTN(1), LV_KB_BTN(1), LV_KB_BTN(1), LV_KB_BTN(1), LV_KB_BTN(1
  83:lvgl/src/extra/widgets/keyboard/lv_keyboard.c ****     LV_KEYBOARD_CTRL_BTN_FLAGS | 2, LV_KB_BTN(1), LV_KB_BTN(1), LV_KB_BTN(1), LV_KB_BTN(1), LV_KB_B
  84:lvgl/src/extra/widgets/keyboard/lv_keyboard.c ****     LV_KB_BTN(1), LV_KB_BTN(1), LV_KB_BTN(1), LV_KB_BTN(1), LV_KB_BTN(1), LV_KB_BTN(1), LV_KB_BTN(1
  85:lvgl/src/extra/widgets/keyboard/lv_keyboard.c ****     LV_KEYBOARD_CTRL_BTN_FLAGS | 2, LV_BTNMATRIX_CTRL_CHECKED | 2, 6, LV_BTNMATRIX_CTRL_CHECKED | 2
  86:lvgl/src/extra/widgets/keyboard/lv_keyboard.c **** };
  87:lvgl/src/extra/widgets/keyboard/lv_keyboard.c **** 
ARM GAS  /var/folders/21/t9g5rlb91ys800n5npymflf80000gn/T//ccWK7fRs.s 			page 3


  88:lvgl/src/extra/widgets/keyboard/lv_keyboard.c **** static const char * const default_kb_map_num[] = {"1", "2", "3", LV_SYMBOL_KEYBOARD, "\n",
  89:lvgl/src/extra/widgets/keyboard/lv_keyboard.c ****                                                   "4", "5", "6", LV_SYMBOL_OK, "\n",
  90:lvgl/src/extra/widgets/keyboard/lv_keyboard.c ****                                                   "7", "8", "9", LV_SYMBOL_BACKSPACE, "\n",
  91:lvgl/src/extra/widgets/keyboard/lv_keyboard.c ****                                                   "+/-", "0", ".", LV_SYMBOL_LEFT, LV_SYMBOL_RIGHT,
  92:lvgl/src/extra/widgets/keyboard/lv_keyboard.c ****                                                  };
  93:lvgl/src/extra/widgets/keyboard/lv_keyboard.c **** 
  94:lvgl/src/extra/widgets/keyboard/lv_keyboard.c **** static const lv_btnmatrix_ctrl_t default_kb_ctrl_num_map[] = {
  95:lvgl/src/extra/widgets/keyboard/lv_keyboard.c ****     1, 1, 1, LV_KEYBOARD_CTRL_BTN_FLAGS | 2,
  96:lvgl/src/extra/widgets/keyboard/lv_keyboard.c ****     1, 1, 1, LV_KEYBOARD_CTRL_BTN_FLAGS | 2,
  97:lvgl/src/extra/widgets/keyboard/lv_keyboard.c ****     1, 1, 1, 2,
  98:lvgl/src/extra/widgets/keyboard/lv_keyboard.c ****     1, 1, 1, 1, 1
  99:lvgl/src/extra/widgets/keyboard/lv_keyboard.c **** };
 100:lvgl/src/extra/widgets/keyboard/lv_keyboard.c **** 
 101:lvgl/src/extra/widgets/keyboard/lv_keyboard.c **** static const char * * kb_map[9] = {
 102:lvgl/src/extra/widgets/keyboard/lv_keyboard.c ****     (const char * *)default_kb_map_lc,
 103:lvgl/src/extra/widgets/keyboard/lv_keyboard.c ****     (const char * *)default_kb_map_uc,
 104:lvgl/src/extra/widgets/keyboard/lv_keyboard.c ****     (const char * *)default_kb_map_spec,
 105:lvgl/src/extra/widgets/keyboard/lv_keyboard.c ****     (const char * *)default_kb_map_num,
 106:lvgl/src/extra/widgets/keyboard/lv_keyboard.c ****     (const char * *)default_kb_map_lc,
 107:lvgl/src/extra/widgets/keyboard/lv_keyboard.c ****     (const char * *)default_kb_map_lc,
 108:lvgl/src/extra/widgets/keyboard/lv_keyboard.c ****     (const char * *)default_kb_map_lc,
 109:lvgl/src/extra/widgets/keyboard/lv_keyboard.c ****     (const char * *)default_kb_map_lc,
 110:lvgl/src/extra/widgets/keyboard/lv_keyboard.c ****     (const char * *)NULL,
 111:lvgl/src/extra/widgets/keyboard/lv_keyboard.c **** };
 112:lvgl/src/extra/widgets/keyboard/lv_keyboard.c **** static const lv_btnmatrix_ctrl_t * kb_ctrl[9] = {
 113:lvgl/src/extra/widgets/keyboard/lv_keyboard.c ****     default_kb_ctrl_lc_map,
 114:lvgl/src/extra/widgets/keyboard/lv_keyboard.c ****     default_kb_ctrl_uc_map,
 115:lvgl/src/extra/widgets/keyboard/lv_keyboard.c ****     default_kb_ctrl_spec_map,
 116:lvgl/src/extra/widgets/keyboard/lv_keyboard.c ****     default_kb_ctrl_num_map,
 117:lvgl/src/extra/widgets/keyboard/lv_keyboard.c ****     default_kb_ctrl_lc_map,
 118:lvgl/src/extra/widgets/keyboard/lv_keyboard.c ****     default_kb_ctrl_lc_map,
 119:lvgl/src/extra/widgets/keyboard/lv_keyboard.c ****     default_kb_ctrl_lc_map,
 120:lvgl/src/extra/widgets/keyboard/lv_keyboard.c ****     default_kb_ctrl_lc_map,
 121:lvgl/src/extra/widgets/keyboard/lv_keyboard.c ****     NULL,
 122:lvgl/src/extra/widgets/keyboard/lv_keyboard.c **** };
 123:lvgl/src/extra/widgets/keyboard/lv_keyboard.c **** 
 124:lvgl/src/extra/widgets/keyboard/lv_keyboard.c **** /**********************
 125:lvgl/src/extra/widgets/keyboard/lv_keyboard.c ****  *      MACROS
 126:lvgl/src/extra/widgets/keyboard/lv_keyboard.c ****  **********************/
 127:lvgl/src/extra/widgets/keyboard/lv_keyboard.c **** 
 128:lvgl/src/extra/widgets/keyboard/lv_keyboard.c **** /**********************
 129:lvgl/src/extra/widgets/keyboard/lv_keyboard.c ****  *   GLOBAL FUNCTIONS
 130:lvgl/src/extra/widgets/keyboard/lv_keyboard.c ****  **********************/
 131:lvgl/src/extra/widgets/keyboard/lv_keyboard.c **** 
 132:lvgl/src/extra/widgets/keyboard/lv_keyboard.c **** /**
 133:lvgl/src/extra/widgets/keyboard/lv_keyboard.c ****  * Create a Keyboard object
 134:lvgl/src/extra/widgets/keyboard/lv_keyboard.c ****  * @param parent pointer to an object, it will be the parent of the new keyboard
 135:lvgl/src/extra/widgets/keyboard/lv_keyboard.c ****  * @return pointer to the created keyboard
 136:lvgl/src/extra/widgets/keyboard/lv_keyboard.c ****  */
 137:lvgl/src/extra/widgets/keyboard/lv_keyboard.c **** lv_obj_t * lv_keyboard_create(lv_obj_t * parent)
 138:lvgl/src/extra/widgets/keyboard/lv_keyboard.c **** {
 139:lvgl/src/extra/widgets/keyboard/lv_keyboard.c ****     LV_LOG_INFO("begin");
 140:lvgl/src/extra/widgets/keyboard/lv_keyboard.c ****     lv_obj_t * obj = lv_obj_class_create_obj(&lv_keyboard_class, parent);
 141:lvgl/src/extra/widgets/keyboard/lv_keyboard.c ****     lv_obj_class_init_obj(obj);
 142:lvgl/src/extra/widgets/keyboard/lv_keyboard.c ****     return obj;
 143:lvgl/src/extra/widgets/keyboard/lv_keyboard.c **** }
 144:lvgl/src/extra/widgets/keyboard/lv_keyboard.c **** 
ARM GAS  /var/folders/21/t9g5rlb91ys800n5npymflf80000gn/T//ccWK7fRs.s 			page 4


 145:lvgl/src/extra/widgets/keyboard/lv_keyboard.c **** /*=====================
 146:lvgl/src/extra/widgets/keyboard/lv_keyboard.c ****  * Setter functions
 147:lvgl/src/extra/widgets/keyboard/lv_keyboard.c ****  *====================*/
 148:lvgl/src/extra/widgets/keyboard/lv_keyboard.c **** 
 149:lvgl/src/extra/widgets/keyboard/lv_keyboard.c **** /**
 150:lvgl/src/extra/widgets/keyboard/lv_keyboard.c ****  * Assign a Text Area to the Keyboard. The pressed characters will be put there.
 151:lvgl/src/extra/widgets/keyboard/lv_keyboard.c ****  * @param kb pointer to a Keyboard object
 152:lvgl/src/extra/widgets/keyboard/lv_keyboard.c ****  * @param ta pointer to a Text Area object to write there
 153:lvgl/src/extra/widgets/keyboard/lv_keyboard.c ****  */
 154:lvgl/src/extra/widgets/keyboard/lv_keyboard.c **** void lv_keyboard_set_textarea(lv_obj_t * obj, lv_obj_t * ta)
 155:lvgl/src/extra/widgets/keyboard/lv_keyboard.c **** {
 156:lvgl/src/extra/widgets/keyboard/lv_keyboard.c ****     if(ta) {
 157:lvgl/src/extra/widgets/keyboard/lv_keyboard.c ****         LV_ASSERT_OBJ(ta, &lv_textarea_class);
 158:lvgl/src/extra/widgets/keyboard/lv_keyboard.c ****     }
 159:lvgl/src/extra/widgets/keyboard/lv_keyboard.c **** 
 160:lvgl/src/extra/widgets/keyboard/lv_keyboard.c ****     LV_ASSERT_OBJ(obj, MY_CLASS);
 161:lvgl/src/extra/widgets/keyboard/lv_keyboard.c ****     lv_keyboard_t * keyboard = (lv_keyboard_t *)obj;
 162:lvgl/src/extra/widgets/keyboard/lv_keyboard.c **** 
 163:lvgl/src/extra/widgets/keyboard/lv_keyboard.c ****     /*Hide the cursor of the old Text area if cursor management is enabled*/
 164:lvgl/src/extra/widgets/keyboard/lv_keyboard.c ****     if(keyboard->ta) {
 165:lvgl/src/extra/widgets/keyboard/lv_keyboard.c ****         lv_obj_clear_state(obj, LV_STATE_FOCUSED);
 166:lvgl/src/extra/widgets/keyboard/lv_keyboard.c ****     }
 167:lvgl/src/extra/widgets/keyboard/lv_keyboard.c **** 
 168:lvgl/src/extra/widgets/keyboard/lv_keyboard.c ****     keyboard->ta = ta;
 169:lvgl/src/extra/widgets/keyboard/lv_keyboard.c **** 
 170:lvgl/src/extra/widgets/keyboard/lv_keyboard.c ****     /*Show the cursor of the new Text area if cursor management is enabled*/
 171:lvgl/src/extra/widgets/keyboard/lv_keyboard.c ****     if(keyboard->ta) {
 172:lvgl/src/extra/widgets/keyboard/lv_keyboard.c ****         lv_obj_add_flag(obj, LV_STATE_FOCUSED);
 173:lvgl/src/extra/widgets/keyboard/lv_keyboard.c ****     }
 174:lvgl/src/extra/widgets/keyboard/lv_keyboard.c **** }
 175:lvgl/src/extra/widgets/keyboard/lv_keyboard.c **** 
 176:lvgl/src/extra/widgets/keyboard/lv_keyboard.c **** /**
 177:lvgl/src/extra/widgets/keyboard/lv_keyboard.c ****  * Set a new a mode (text or number map)
 178:lvgl/src/extra/widgets/keyboard/lv_keyboard.c ****  * @param kb pointer to a Keyboard object
 179:lvgl/src/extra/widgets/keyboard/lv_keyboard.c ****  * @param mode the mode from 'lv_keyboard_mode_t'
 180:lvgl/src/extra/widgets/keyboard/lv_keyboard.c ****  */
 181:lvgl/src/extra/widgets/keyboard/lv_keyboard.c **** void lv_keyboard_set_mode(lv_obj_t * obj, lv_keyboard_mode_t mode)
 182:lvgl/src/extra/widgets/keyboard/lv_keyboard.c **** {
 183:lvgl/src/extra/widgets/keyboard/lv_keyboard.c ****     LV_ASSERT_OBJ(obj, MY_CLASS);
 184:lvgl/src/extra/widgets/keyboard/lv_keyboard.c ****     lv_keyboard_t * keyboard = (lv_keyboard_t *)obj;
 185:lvgl/src/extra/widgets/keyboard/lv_keyboard.c ****     if(keyboard->mode == mode) return;
 186:lvgl/src/extra/widgets/keyboard/lv_keyboard.c **** 
 187:lvgl/src/extra/widgets/keyboard/lv_keyboard.c ****     keyboard->mode = mode;
 188:lvgl/src/extra/widgets/keyboard/lv_keyboard.c ****     lv_keyboard_update_map(obj);
 189:lvgl/src/extra/widgets/keyboard/lv_keyboard.c **** }
 190:lvgl/src/extra/widgets/keyboard/lv_keyboard.c **** 
 191:lvgl/src/extra/widgets/keyboard/lv_keyboard.c **** /**
 192:lvgl/src/extra/widgets/keyboard/lv_keyboard.c ****  * Show the button title in a popover when pressed.
 193:lvgl/src/extra/widgets/keyboard/lv_keyboard.c ****  * @param kb pointer to a Keyboard object
 194:lvgl/src/extra/widgets/keyboard/lv_keyboard.c ****  * @param en whether "popovers" mode is enabled
 195:lvgl/src/extra/widgets/keyboard/lv_keyboard.c ****  */
 196:lvgl/src/extra/widgets/keyboard/lv_keyboard.c **** void lv_keyboard_set_popovers(lv_obj_t * obj, bool en)
 197:lvgl/src/extra/widgets/keyboard/lv_keyboard.c **** {
 198:lvgl/src/extra/widgets/keyboard/lv_keyboard.c ****     lv_keyboard_t * keyboard = (lv_keyboard_t *)obj;
 199:lvgl/src/extra/widgets/keyboard/lv_keyboard.c **** 
 200:lvgl/src/extra/widgets/keyboard/lv_keyboard.c ****     if(keyboard->popovers == en) {
 201:lvgl/src/extra/widgets/keyboard/lv_keyboard.c ****         return;
ARM GAS  /var/folders/21/t9g5rlb91ys800n5npymflf80000gn/T//ccWK7fRs.s 			page 5


 202:lvgl/src/extra/widgets/keyboard/lv_keyboard.c ****     }
 203:lvgl/src/extra/widgets/keyboard/lv_keyboard.c **** 
 204:lvgl/src/extra/widgets/keyboard/lv_keyboard.c ****     keyboard->popovers = en;
 205:lvgl/src/extra/widgets/keyboard/lv_keyboard.c ****     lv_keyboard_update_ctrl_map(obj);
 206:lvgl/src/extra/widgets/keyboard/lv_keyboard.c **** }
 207:lvgl/src/extra/widgets/keyboard/lv_keyboard.c **** 
 208:lvgl/src/extra/widgets/keyboard/lv_keyboard.c **** /**
 209:lvgl/src/extra/widgets/keyboard/lv_keyboard.c ****  * Set a new map for the keyboard
 210:lvgl/src/extra/widgets/keyboard/lv_keyboard.c ****  * @param kb pointer to a Keyboard object
 211:lvgl/src/extra/widgets/keyboard/lv_keyboard.c ****  * @param mode keyboard map to alter 'lv_keyboard_mode_t'
 212:lvgl/src/extra/widgets/keyboard/lv_keyboard.c ****  * @param map pointer to a string array to describe the map.
 213:lvgl/src/extra/widgets/keyboard/lv_keyboard.c ****  *            See 'lv_btnmatrix_set_map()' for more info.
 214:lvgl/src/extra/widgets/keyboard/lv_keyboard.c ****  */
 215:lvgl/src/extra/widgets/keyboard/lv_keyboard.c **** void lv_keyboard_set_map(lv_obj_t * obj, lv_keyboard_mode_t mode, const char * map[],
 216:lvgl/src/extra/widgets/keyboard/lv_keyboard.c ****                          const lv_btnmatrix_ctrl_t ctrl_map[])
 217:lvgl/src/extra/widgets/keyboard/lv_keyboard.c **** {
 218:lvgl/src/extra/widgets/keyboard/lv_keyboard.c ****     kb_map[mode] = map;
 219:lvgl/src/extra/widgets/keyboard/lv_keyboard.c ****     kb_ctrl[mode] = ctrl_map;
 220:lvgl/src/extra/widgets/keyboard/lv_keyboard.c ****     lv_keyboard_update_map(obj);
 221:lvgl/src/extra/widgets/keyboard/lv_keyboard.c **** }
 222:lvgl/src/extra/widgets/keyboard/lv_keyboard.c **** 
 223:lvgl/src/extra/widgets/keyboard/lv_keyboard.c **** /*=====================
 224:lvgl/src/extra/widgets/keyboard/lv_keyboard.c ****  * Getter functions
 225:lvgl/src/extra/widgets/keyboard/lv_keyboard.c ****  *====================*/
 226:lvgl/src/extra/widgets/keyboard/lv_keyboard.c **** 
 227:lvgl/src/extra/widgets/keyboard/lv_keyboard.c **** /**
 228:lvgl/src/extra/widgets/keyboard/lv_keyboard.c ****  * Assign a Text Area to the Keyboard. The pressed characters will be put there.
 229:lvgl/src/extra/widgets/keyboard/lv_keyboard.c ****  * @param kb pointer to a Keyboard object
 230:lvgl/src/extra/widgets/keyboard/lv_keyboard.c ****  * @return pointer to the assigned Text Area object
 231:lvgl/src/extra/widgets/keyboard/lv_keyboard.c ****  */
 232:lvgl/src/extra/widgets/keyboard/lv_keyboard.c **** lv_obj_t * lv_keyboard_get_textarea(const lv_obj_t * obj)
 233:lvgl/src/extra/widgets/keyboard/lv_keyboard.c **** {
 234:lvgl/src/extra/widgets/keyboard/lv_keyboard.c ****     LV_ASSERT_OBJ(obj, MY_CLASS);
 235:lvgl/src/extra/widgets/keyboard/lv_keyboard.c ****     lv_keyboard_t * keyboard = (lv_keyboard_t *)obj;
 236:lvgl/src/extra/widgets/keyboard/lv_keyboard.c ****     return keyboard->ta;
 237:lvgl/src/extra/widgets/keyboard/lv_keyboard.c **** }
 238:lvgl/src/extra/widgets/keyboard/lv_keyboard.c **** 
 239:lvgl/src/extra/widgets/keyboard/lv_keyboard.c **** /**
 240:lvgl/src/extra/widgets/keyboard/lv_keyboard.c ****  * Set a new a mode (text or number map)
 241:lvgl/src/extra/widgets/keyboard/lv_keyboard.c ****  * @param kb pointer to a Keyboard object
 242:lvgl/src/extra/widgets/keyboard/lv_keyboard.c ****  * @return the current mode from 'lv_keyboard_mode_t'
 243:lvgl/src/extra/widgets/keyboard/lv_keyboard.c ****  */
 244:lvgl/src/extra/widgets/keyboard/lv_keyboard.c **** lv_keyboard_mode_t lv_keyboard_get_mode(const lv_obj_t * obj)
 245:lvgl/src/extra/widgets/keyboard/lv_keyboard.c **** {
 246:lvgl/src/extra/widgets/keyboard/lv_keyboard.c ****     LV_ASSERT_OBJ(obj, MY_CLASS);
 247:lvgl/src/extra/widgets/keyboard/lv_keyboard.c ****     lv_keyboard_t * keyboard = (lv_keyboard_t *)obj;
 248:lvgl/src/extra/widgets/keyboard/lv_keyboard.c ****     return keyboard->mode;
 249:lvgl/src/extra/widgets/keyboard/lv_keyboard.c **** }
 250:lvgl/src/extra/widgets/keyboard/lv_keyboard.c **** 
 251:lvgl/src/extra/widgets/keyboard/lv_keyboard.c **** /**
 252:lvgl/src/extra/widgets/keyboard/lv_keyboard.c ****  * Tell whether "popovers" mode is enabled or not.
 253:lvgl/src/extra/widgets/keyboard/lv_keyboard.c ****  * @param kb pointer to a Keyboard object
 254:lvgl/src/extra/widgets/keyboard/lv_keyboard.c ****  * @return true: "popovers" mode is enabled; false: disabled
 255:lvgl/src/extra/widgets/keyboard/lv_keyboard.c ****  */
 256:lvgl/src/extra/widgets/keyboard/lv_keyboard.c **** bool lv_btnmatrix_get_popovers(const lv_obj_t * obj)
 257:lvgl/src/extra/widgets/keyboard/lv_keyboard.c **** {
 258:lvgl/src/extra/widgets/keyboard/lv_keyboard.c ****     lv_keyboard_t * keyboard = (lv_keyboard_t *)obj;
ARM GAS  /var/folders/21/t9g5rlb91ys800n5npymflf80000gn/T//ccWK7fRs.s 			page 6


 259:lvgl/src/extra/widgets/keyboard/lv_keyboard.c ****     return keyboard->popovers;
 260:lvgl/src/extra/widgets/keyboard/lv_keyboard.c **** }
 261:lvgl/src/extra/widgets/keyboard/lv_keyboard.c **** 
 262:lvgl/src/extra/widgets/keyboard/lv_keyboard.c **** /*=====================
 263:lvgl/src/extra/widgets/keyboard/lv_keyboard.c ****  * Other functions
 264:lvgl/src/extra/widgets/keyboard/lv_keyboard.c ****  *====================*/
 265:lvgl/src/extra/widgets/keyboard/lv_keyboard.c **** 
 266:lvgl/src/extra/widgets/keyboard/lv_keyboard.c **** /**
 267:lvgl/src/extra/widgets/keyboard/lv_keyboard.c ****  * Default keyboard event to add characters to the Text area and change the map.
 268:lvgl/src/extra/widgets/keyboard/lv_keyboard.c ****  * If a custom `event_cb` is added to the keyboard this function can be called from it to handle th
 269:lvgl/src/extra/widgets/keyboard/lv_keyboard.c ****  * button clicks
 270:lvgl/src/extra/widgets/keyboard/lv_keyboard.c ****  * @param kb pointer to a keyboard
 271:lvgl/src/extra/widgets/keyboard/lv_keyboard.c ****  * @param event the triggering event
 272:lvgl/src/extra/widgets/keyboard/lv_keyboard.c ****  */
 273:lvgl/src/extra/widgets/keyboard/lv_keyboard.c **** void lv_keyboard_def_event_cb(lv_event_t * e)
 274:lvgl/src/extra/widgets/keyboard/lv_keyboard.c **** {
 275:lvgl/src/extra/widgets/keyboard/lv_keyboard.c ****     lv_obj_t * obj = lv_event_get_target(e);
 276:lvgl/src/extra/widgets/keyboard/lv_keyboard.c **** 
 277:lvgl/src/extra/widgets/keyboard/lv_keyboard.c ****     LV_ASSERT_OBJ(obj, MY_CLASS);
 278:lvgl/src/extra/widgets/keyboard/lv_keyboard.c ****     lv_keyboard_t * keyboard = (lv_keyboard_t *)obj;
 279:lvgl/src/extra/widgets/keyboard/lv_keyboard.c ****     uint16_t btn_id   = lv_btnmatrix_get_selected_btn(obj);
 280:lvgl/src/extra/widgets/keyboard/lv_keyboard.c ****     if(btn_id == LV_BTNMATRIX_BTN_NONE) return;
 281:lvgl/src/extra/widgets/keyboard/lv_keyboard.c **** 
 282:lvgl/src/extra/widgets/keyboard/lv_keyboard.c ****     const char * txt = lv_btnmatrix_get_btn_text(obj, lv_btnmatrix_get_selected_btn(obj));
 283:lvgl/src/extra/widgets/keyboard/lv_keyboard.c ****     if(txt == NULL) return;
 284:lvgl/src/extra/widgets/keyboard/lv_keyboard.c **** 
 285:lvgl/src/extra/widgets/keyboard/lv_keyboard.c ****     if(strcmp(txt, "abc") == 0) {
 286:lvgl/src/extra/widgets/keyboard/lv_keyboard.c ****         keyboard->mode = LV_KEYBOARD_MODE_TEXT_LOWER;
 287:lvgl/src/extra/widgets/keyboard/lv_keyboard.c ****         lv_btnmatrix_set_map(obj, kb_map[LV_KEYBOARD_MODE_TEXT_LOWER]);
 288:lvgl/src/extra/widgets/keyboard/lv_keyboard.c ****         lv_keyboard_update_ctrl_map(obj);
 289:lvgl/src/extra/widgets/keyboard/lv_keyboard.c ****         return;
 290:lvgl/src/extra/widgets/keyboard/lv_keyboard.c ****     }
 291:lvgl/src/extra/widgets/keyboard/lv_keyboard.c ****     else if(strcmp(txt, "ABC") == 0) {
 292:lvgl/src/extra/widgets/keyboard/lv_keyboard.c ****         keyboard->mode = LV_KEYBOARD_MODE_TEXT_UPPER;
 293:lvgl/src/extra/widgets/keyboard/lv_keyboard.c ****         lv_btnmatrix_set_map(obj, kb_map[LV_KEYBOARD_MODE_TEXT_UPPER]);
 294:lvgl/src/extra/widgets/keyboard/lv_keyboard.c ****         lv_keyboard_update_ctrl_map(obj);
 295:lvgl/src/extra/widgets/keyboard/lv_keyboard.c ****         return;
 296:lvgl/src/extra/widgets/keyboard/lv_keyboard.c ****     }
 297:lvgl/src/extra/widgets/keyboard/lv_keyboard.c ****     else if(strcmp(txt, "1#") == 0) {
 298:lvgl/src/extra/widgets/keyboard/lv_keyboard.c ****         keyboard->mode = LV_KEYBOARD_MODE_SPECIAL;
 299:lvgl/src/extra/widgets/keyboard/lv_keyboard.c ****         lv_btnmatrix_set_map(obj, kb_map[LV_KEYBOARD_MODE_SPECIAL]);
 300:lvgl/src/extra/widgets/keyboard/lv_keyboard.c ****         lv_keyboard_update_ctrl_map(obj);
 301:lvgl/src/extra/widgets/keyboard/lv_keyboard.c ****         return;
 302:lvgl/src/extra/widgets/keyboard/lv_keyboard.c ****     }
 303:lvgl/src/extra/widgets/keyboard/lv_keyboard.c ****     else if(strcmp(txt, LV_SYMBOL_CLOSE) == 0 || strcmp(txt, LV_SYMBOL_KEYBOARD) == 0) {
 304:lvgl/src/extra/widgets/keyboard/lv_keyboard.c ****         lv_res_t res = lv_event_send(obj, LV_EVENT_CANCEL, NULL);
 305:lvgl/src/extra/widgets/keyboard/lv_keyboard.c ****         if(res != LV_RES_OK) return;
 306:lvgl/src/extra/widgets/keyboard/lv_keyboard.c **** 
 307:lvgl/src/extra/widgets/keyboard/lv_keyboard.c ****         if(keyboard->ta) {
 308:lvgl/src/extra/widgets/keyboard/lv_keyboard.c ****             res = lv_event_send(keyboard->ta, LV_EVENT_CANCEL, NULL);
 309:lvgl/src/extra/widgets/keyboard/lv_keyboard.c ****             if(res != LV_RES_OK) return;
 310:lvgl/src/extra/widgets/keyboard/lv_keyboard.c ****         }
 311:lvgl/src/extra/widgets/keyboard/lv_keyboard.c ****         return;
 312:lvgl/src/extra/widgets/keyboard/lv_keyboard.c ****     }
 313:lvgl/src/extra/widgets/keyboard/lv_keyboard.c ****     else if(strcmp(txt, LV_SYMBOL_OK) == 0) {
 314:lvgl/src/extra/widgets/keyboard/lv_keyboard.c ****         lv_res_t res = lv_event_send(obj, LV_EVENT_READY, NULL);
 315:lvgl/src/extra/widgets/keyboard/lv_keyboard.c ****         if(res != LV_RES_OK) return;
ARM GAS  /var/folders/21/t9g5rlb91ys800n5npymflf80000gn/T//ccWK7fRs.s 			page 7


 316:lvgl/src/extra/widgets/keyboard/lv_keyboard.c **** 
 317:lvgl/src/extra/widgets/keyboard/lv_keyboard.c ****         if(keyboard->ta) {
 318:lvgl/src/extra/widgets/keyboard/lv_keyboard.c ****             res = lv_event_send(keyboard->ta, LV_EVENT_READY, NULL);
 319:lvgl/src/extra/widgets/keyboard/lv_keyboard.c ****             if(res != LV_RES_OK) return;
 320:lvgl/src/extra/widgets/keyboard/lv_keyboard.c ****         }
 321:lvgl/src/extra/widgets/keyboard/lv_keyboard.c ****         return;
 322:lvgl/src/extra/widgets/keyboard/lv_keyboard.c ****     }
 323:lvgl/src/extra/widgets/keyboard/lv_keyboard.c **** 
 324:lvgl/src/extra/widgets/keyboard/lv_keyboard.c ****     /*Add the characters to the text area if set*/
 325:lvgl/src/extra/widgets/keyboard/lv_keyboard.c ****     if(keyboard->ta == NULL) return;
 326:lvgl/src/extra/widgets/keyboard/lv_keyboard.c **** 
 327:lvgl/src/extra/widgets/keyboard/lv_keyboard.c ****     if(strcmp(txt, "Enter") == 0 || strcmp(txt, LV_SYMBOL_NEW_LINE) == 0) {
 328:lvgl/src/extra/widgets/keyboard/lv_keyboard.c ****         lv_textarea_add_char(keyboard->ta, '\n');
 329:lvgl/src/extra/widgets/keyboard/lv_keyboard.c ****         if(lv_textarea_get_one_line(keyboard->ta)) {
 330:lvgl/src/extra/widgets/keyboard/lv_keyboard.c ****             lv_res_t res = lv_event_send(keyboard->ta, LV_EVENT_READY, NULL);
 331:lvgl/src/extra/widgets/keyboard/lv_keyboard.c ****             if(res != LV_RES_OK) return;
 332:lvgl/src/extra/widgets/keyboard/lv_keyboard.c ****         }
 333:lvgl/src/extra/widgets/keyboard/lv_keyboard.c ****     }
 334:lvgl/src/extra/widgets/keyboard/lv_keyboard.c ****     else if(strcmp(txt, LV_SYMBOL_LEFT) == 0) {
 335:lvgl/src/extra/widgets/keyboard/lv_keyboard.c ****         lv_textarea_cursor_left(keyboard->ta);
 336:lvgl/src/extra/widgets/keyboard/lv_keyboard.c ****     }
 337:lvgl/src/extra/widgets/keyboard/lv_keyboard.c ****     else if(strcmp(txt, LV_SYMBOL_RIGHT) == 0) {
 338:lvgl/src/extra/widgets/keyboard/lv_keyboard.c ****         lv_textarea_cursor_right(keyboard->ta);
 339:lvgl/src/extra/widgets/keyboard/lv_keyboard.c ****     }
 340:lvgl/src/extra/widgets/keyboard/lv_keyboard.c ****     else if(strcmp(txt, LV_SYMBOL_BACKSPACE) == 0) {
 341:lvgl/src/extra/widgets/keyboard/lv_keyboard.c ****         lv_textarea_del_char(keyboard->ta);
 342:lvgl/src/extra/widgets/keyboard/lv_keyboard.c ****     }
 343:lvgl/src/extra/widgets/keyboard/lv_keyboard.c ****     else if(strcmp(txt, "+/-") == 0) {
 344:lvgl/src/extra/widgets/keyboard/lv_keyboard.c ****         uint16_t cur        = lv_textarea_get_cursor_pos(keyboard->ta);
 345:lvgl/src/extra/widgets/keyboard/lv_keyboard.c ****         const char * ta_txt = lv_textarea_get_text(keyboard->ta);
 346:lvgl/src/extra/widgets/keyboard/lv_keyboard.c ****         if(ta_txt[0] == '-') {
 347:lvgl/src/extra/widgets/keyboard/lv_keyboard.c ****             lv_textarea_set_cursor_pos(keyboard->ta, 1);
 348:lvgl/src/extra/widgets/keyboard/lv_keyboard.c ****             lv_textarea_del_char(keyboard->ta);
 349:lvgl/src/extra/widgets/keyboard/lv_keyboard.c ****             lv_textarea_add_char(keyboard->ta, '+');
 350:lvgl/src/extra/widgets/keyboard/lv_keyboard.c ****             lv_textarea_set_cursor_pos(keyboard->ta, cur);
 351:lvgl/src/extra/widgets/keyboard/lv_keyboard.c ****         }
 352:lvgl/src/extra/widgets/keyboard/lv_keyboard.c ****         else if(ta_txt[0] == '+') {
 353:lvgl/src/extra/widgets/keyboard/lv_keyboard.c ****             lv_textarea_set_cursor_pos(keyboard->ta, 1);
 354:lvgl/src/extra/widgets/keyboard/lv_keyboard.c ****             lv_textarea_del_char(keyboard->ta);
 355:lvgl/src/extra/widgets/keyboard/lv_keyboard.c ****             lv_textarea_add_char(keyboard->ta, '-');
 356:lvgl/src/extra/widgets/keyboard/lv_keyboard.c ****             lv_textarea_set_cursor_pos(keyboard->ta, cur);
 357:lvgl/src/extra/widgets/keyboard/lv_keyboard.c ****         }
 358:lvgl/src/extra/widgets/keyboard/lv_keyboard.c ****         else {
 359:lvgl/src/extra/widgets/keyboard/lv_keyboard.c ****             lv_textarea_set_cursor_pos(keyboard->ta, 0);
 360:lvgl/src/extra/widgets/keyboard/lv_keyboard.c ****             lv_textarea_add_char(keyboard->ta, '-');
 361:lvgl/src/extra/widgets/keyboard/lv_keyboard.c ****             lv_textarea_set_cursor_pos(keyboard->ta, cur + 1);
 362:lvgl/src/extra/widgets/keyboard/lv_keyboard.c ****         }
 363:lvgl/src/extra/widgets/keyboard/lv_keyboard.c ****     }
 364:lvgl/src/extra/widgets/keyboard/lv_keyboard.c ****     else {
 365:lvgl/src/extra/widgets/keyboard/lv_keyboard.c ****         lv_textarea_add_text(keyboard->ta, txt);
 366:lvgl/src/extra/widgets/keyboard/lv_keyboard.c ****     }
 367:lvgl/src/extra/widgets/keyboard/lv_keyboard.c **** }
 368:lvgl/src/extra/widgets/keyboard/lv_keyboard.c **** 
 369:lvgl/src/extra/widgets/keyboard/lv_keyboard.c **** /**********************
 370:lvgl/src/extra/widgets/keyboard/lv_keyboard.c ****  *   STATIC FUNCTIONS
 371:lvgl/src/extra/widgets/keyboard/lv_keyboard.c ****  **********************/
 372:lvgl/src/extra/widgets/keyboard/lv_keyboard.c **** 
ARM GAS  /var/folders/21/t9g5rlb91ys800n5npymflf80000gn/T//ccWK7fRs.s 			page 8


 373:lvgl/src/extra/widgets/keyboard/lv_keyboard.c **** static void lv_keyboard_constructor(const lv_obj_class_t * class_p, lv_obj_t * obj)
 374:lvgl/src/extra/widgets/keyboard/lv_keyboard.c **** {
 375:lvgl/src/extra/widgets/keyboard/lv_keyboard.c ****     LV_UNUSED(class_p);
 376:lvgl/src/extra/widgets/keyboard/lv_keyboard.c ****     lv_obj_clear_flag(obj, LV_OBJ_FLAG_CLICK_FOCUSABLE);
 377:lvgl/src/extra/widgets/keyboard/lv_keyboard.c **** 
 378:lvgl/src/extra/widgets/keyboard/lv_keyboard.c ****     lv_keyboard_t * keyboard = (lv_keyboard_t *)obj;
 379:lvgl/src/extra/widgets/keyboard/lv_keyboard.c ****     keyboard->ta         = NULL;
 380:lvgl/src/extra/widgets/keyboard/lv_keyboard.c ****     keyboard->mode       = LV_KEYBOARD_MODE_TEXT_LOWER;
 381:lvgl/src/extra/widgets/keyboard/lv_keyboard.c ****     keyboard->popovers   = 0;
 382:lvgl/src/extra/widgets/keyboard/lv_keyboard.c **** 
 383:lvgl/src/extra/widgets/keyboard/lv_keyboard.c ****     lv_obj_align(obj, LV_ALIGN_BOTTOM_MID, 0, 0);
 384:lvgl/src/extra/widgets/keyboard/lv_keyboard.c ****     lv_obj_add_event_cb(obj, lv_keyboard_def_event_cb, LV_EVENT_VALUE_CHANGED, NULL);
 385:lvgl/src/extra/widgets/keyboard/lv_keyboard.c ****     lv_obj_set_style_base_dir(obj, LV_BASE_DIR_LTR, 0);
 386:lvgl/src/extra/widgets/keyboard/lv_keyboard.c **** 
 387:lvgl/src/extra/widgets/keyboard/lv_keyboard.c ****     lv_keyboard_update_map(obj);
 388:lvgl/src/extra/widgets/keyboard/lv_keyboard.c **** }
 389:lvgl/src/extra/widgets/keyboard/lv_keyboard.c **** 
 390:lvgl/src/extra/widgets/keyboard/lv_keyboard.c **** /**
 391:lvgl/src/extra/widgets/keyboard/lv_keyboard.c ****  * Update the key and control map for the current mode
 392:lvgl/src/extra/widgets/keyboard/lv_keyboard.c ****  * @param obj pointer to a keyboard object
 393:lvgl/src/extra/widgets/keyboard/lv_keyboard.c ****  */
 394:lvgl/src/extra/widgets/keyboard/lv_keyboard.c **** static void lv_keyboard_update_map(lv_obj_t * obj)
 395:lvgl/src/extra/widgets/keyboard/lv_keyboard.c **** {
 396:lvgl/src/extra/widgets/keyboard/lv_keyboard.c ****     lv_keyboard_t * keyboard = (lv_keyboard_t *)obj;
 397:lvgl/src/extra/widgets/keyboard/lv_keyboard.c ****     lv_btnmatrix_set_map(obj, kb_map[keyboard->mode]);
 398:lvgl/src/extra/widgets/keyboard/lv_keyboard.c ****     lv_keyboard_update_ctrl_map(obj);
 399:lvgl/src/extra/widgets/keyboard/lv_keyboard.c **** }
 400:lvgl/src/extra/widgets/keyboard/lv_keyboard.c **** 
 401:lvgl/src/extra/widgets/keyboard/lv_keyboard.c **** /**
 402:lvgl/src/extra/widgets/keyboard/lv_keyboard.c ****  * Update the control map for the current mode
 403:lvgl/src/extra/widgets/keyboard/lv_keyboard.c ****  * @param obj pointer to a keyboard object
 404:lvgl/src/extra/widgets/keyboard/lv_keyboard.c ****  */
 405:lvgl/src/extra/widgets/keyboard/lv_keyboard.c **** static void lv_keyboard_update_ctrl_map(lv_obj_t * obj)
 406:lvgl/src/extra/widgets/keyboard/lv_keyboard.c **** {
  29              		.loc 1 406 1 view -0
  30              		.cfi_startproc
  31              		@ args = 0, pretend = 0, frame = 0
  32              		@ frame_needed = 0, uses_anonymous_args = 0
  33              		.loc 1 406 1 is_stmt 0 view .LVU1
  34 0000 38B5     		push	{r3, r4, r5, lr}
  35              	.LCFI0:
  36              		.cfi_def_cfa_offset 16
  37              		.cfi_offset 3, -16
  38              		.cfi_offset 4, -12
  39              		.cfi_offset 5, -8
  40              		.cfi_offset 14, -4
  41 0002 0446     		mov	r4, r0
 407:lvgl/src/extra/widgets/keyboard/lv_keyboard.c ****     lv_keyboard_t * keyboard = (lv_keyboard_t *)obj;
  42              		.loc 1 407 5 is_stmt 1 view .LVU2
  43              	.LVL1:
 408:lvgl/src/extra/widgets/keyboard/lv_keyboard.c **** 
 409:lvgl/src/extra/widgets/keyboard/lv_keyboard.c ****     if(keyboard->popovers) {
  44              		.loc 1 409 5 view .LVU3
  45              		.loc 1 409 8 is_stmt 0 view .LVU4
  46 0004 90F83D30 		ldrb	r3, [r0, #61]	@ zero_extendqisi2
  47              		.loc 1 409 7 view .LVU5
  48 0008 13F0010F 		tst	r3, #1
ARM GAS  /var/folders/21/t9g5rlb91ys800n5npymflf80000gn/T//ccWK7fRs.s 			page 9


  49 000c 07D0     		beq	.L2
 410:lvgl/src/extra/widgets/keyboard/lv_keyboard.c ****         /*Apply the current control map (already includes LV_BTNMATRIX_CTRL_POPOVER flags)*/
 411:lvgl/src/extra/widgets/keyboard/lv_keyboard.c ****         lv_btnmatrix_set_ctrl_map(obj, kb_ctrl[keyboard->mode]);
  50              		.loc 1 411 9 is_stmt 1 view .LVU6
  51              		.loc 1 411 56 is_stmt 0 view .LVU7
  52 000e 90F83C20 		ldrb	r2, [r0, #60]	@ zero_extendqisi2
  53              		.loc 1 411 9 view .LVU8
  54 0012 144B     		ldr	r3, .L7
  55 0014 53F82210 		ldr	r1, [r3, r2, lsl #2]
  56 0018 FFF7FEFF 		bl	lv_btnmatrix_set_ctrl_map
  57              	.LVL2:
  58              	.L1:
 412:lvgl/src/extra/widgets/keyboard/lv_keyboard.c ****     }
 413:lvgl/src/extra/widgets/keyboard/lv_keyboard.c ****     else {
 414:lvgl/src/extra/widgets/keyboard/lv_keyboard.c ****         /*Make a copy of the current control map*/
 415:lvgl/src/extra/widgets/keyboard/lv_keyboard.c ****         lv_btnmatrix_t * btnm = (lv_btnmatrix_t *)obj;
 416:lvgl/src/extra/widgets/keyboard/lv_keyboard.c ****         lv_btnmatrix_ctrl_t * ctrl_map = lv_mem_alloc(btnm->btn_cnt * sizeof(lv_btnmatrix_ctrl_t));
 417:lvgl/src/extra/widgets/keyboard/lv_keyboard.c ****         lv_memcpy(ctrl_map, kb_ctrl[keyboard->mode], sizeof(lv_btnmatrix_ctrl_t) * btnm->btn_cnt);
 418:lvgl/src/extra/widgets/keyboard/lv_keyboard.c **** 
 419:lvgl/src/extra/widgets/keyboard/lv_keyboard.c ****         /*Remove all LV_BTNMATRIX_CTRL_POPOVER flags*/
 420:lvgl/src/extra/widgets/keyboard/lv_keyboard.c ****         for(uint16_t i = 0; i < btnm->btn_cnt; i++) {
 421:lvgl/src/extra/widgets/keyboard/lv_keyboard.c ****             ctrl_map[i] &= (~LV_BTNMATRIX_CTRL_POPOVER);
 422:lvgl/src/extra/widgets/keyboard/lv_keyboard.c ****         }
 423:lvgl/src/extra/widgets/keyboard/lv_keyboard.c **** 
 424:lvgl/src/extra/widgets/keyboard/lv_keyboard.c ****         /*Apply new control map and clean up*/
 425:lvgl/src/extra/widgets/keyboard/lv_keyboard.c ****         lv_btnmatrix_set_ctrl_map(obj, ctrl_map);
 426:lvgl/src/extra/widgets/keyboard/lv_keyboard.c ****         lv_mem_free(ctrl_map);
 427:lvgl/src/extra/widgets/keyboard/lv_keyboard.c ****     }
 428:lvgl/src/extra/widgets/keyboard/lv_keyboard.c **** }
  59              		.loc 1 428 1 view .LVU9
  60 001c 38BD     		pop	{r3, r4, r5, pc}
  61              	.LVL3:
  62              	.L2:
  63              	.LBB2:
 415:lvgl/src/extra/widgets/keyboard/lv_keyboard.c ****         lv_btnmatrix_ctrl_t * ctrl_map = lv_mem_alloc(btnm->btn_cnt * sizeof(lv_btnmatrix_ctrl_t));
  64              		.loc 1 415 9 is_stmt 1 view .LVU10
 416:lvgl/src/extra/widgets/keyboard/lv_keyboard.c ****         lv_memcpy(ctrl_map, kb_ctrl[keyboard->mode], sizeof(lv_btnmatrix_ctrl_t) * btnm->btn_cnt);
  65              		.loc 1 416 9 view .LVU11
 416:lvgl/src/extra/widgets/keyboard/lv_keyboard.c ****         lv_memcpy(ctrl_map, kb_ctrl[keyboard->mode], sizeof(lv_btnmatrix_ctrl_t) * btnm->btn_cnt);
  66              		.loc 1 416 59 is_stmt 0 view .LVU12
  67 001e 008E     		ldrh	r0, [r0, #48]
  68              	.LVL4:
 416:lvgl/src/extra/widgets/keyboard/lv_keyboard.c ****         lv_memcpy(ctrl_map, kb_ctrl[keyboard->mode], sizeof(lv_btnmatrix_ctrl_t) * btnm->btn_cnt);
  69              		.loc 1 416 42 view .LVU13
  70 0020 4000     		lsls	r0, r0, #1
  71 0022 FFF7FEFF 		bl	lv_mem_alloc
  72              	.LVL5:
  73 0026 0546     		mov	r5, r0
  74              	.LVL6:
 417:lvgl/src/extra/widgets/keyboard/lv_keyboard.c **** 
  75              		.loc 1 417 9 is_stmt 1 view .LVU14
 417:lvgl/src/extra/widgets/keyboard/lv_keyboard.c **** 
  76              		.loc 1 417 45 is_stmt 0 view .LVU15
  77 0028 94F83C10 		ldrb	r1, [r4, #60]	@ zero_extendqisi2
 417:lvgl/src/extra/widgets/keyboard/lv_keyboard.c **** 
  78              		.loc 1 417 88 view .LVU16
  79 002c 228E     		ldrh	r2, [r4, #48]
ARM GAS  /var/folders/21/t9g5rlb91ys800n5npymflf80000gn/T//ccWK7fRs.s 			page 10


 417:lvgl/src/extra/widgets/keyboard/lv_keyboard.c **** 
  80              		.loc 1 417 9 view .LVU17
  81 002e 5200     		lsls	r2, r2, #1
  82 0030 0C4B     		ldr	r3, .L7
  83 0032 53F82110 		ldr	r1, [r3, r1, lsl #2]
  84 0036 FFF7FEFF 		bl	lv_memcpy
  85              	.LVL7:
 420:lvgl/src/extra/widgets/keyboard/lv_keyboard.c ****             ctrl_map[i] &= (~LV_BTNMATRIX_CTRL_POPOVER);
  86              		.loc 1 420 9 is_stmt 1 view .LVU18
  87              	.LBB3:
 420:lvgl/src/extra/widgets/keyboard/lv_keyboard.c ****             ctrl_map[i] &= (~LV_BTNMATRIX_CTRL_POPOVER);
  88              		.loc 1 420 13 view .LVU19
 420:lvgl/src/extra/widgets/keyboard/lv_keyboard.c ****             ctrl_map[i] &= (~LV_BTNMATRIX_CTRL_POPOVER);
  89              		.loc 1 420 22 is_stmt 0 view .LVU20
  90 003a 0023     		movs	r3, #0
 420:lvgl/src/extra/widgets/keyboard/lv_keyboard.c ****             ctrl_map[i] &= (~LV_BTNMATRIX_CTRL_POPOVER);
  91              		.loc 1 420 9 view .LVU21
  92 003c 07E0     		b	.L4
  93              	.LVL8:
  94              	.L5:
 421:lvgl/src/extra/widgets/keyboard/lv_keyboard.c ****         }
  95              		.loc 1 421 13 is_stmt 1 discriminator 3 view .LVU22
 421:lvgl/src/extra/widgets/keyboard/lv_keyboard.c ****         }
  96              		.loc 1 421 21 is_stmt 0 discriminator 3 view .LVU23
  97 003e 35F81320 		ldrh	r2, [r5, r3, lsl #1]
 421:lvgl/src/extra/widgets/keyboard/lv_keyboard.c ****         }
  98              		.loc 1 421 25 discriminator 3 view .LVU24
  99 0042 22F48062 		bic	r2, r2, #1024
 100 0046 25F81320 		strh	r2, [r5, r3, lsl #1]	@ movhi
 420:lvgl/src/extra/widgets/keyboard/lv_keyboard.c ****             ctrl_map[i] &= (~LV_BTNMATRIX_CTRL_POPOVER);
 101              		.loc 1 420 49 is_stmt 1 discriminator 3 view .LVU25
 102 004a 0133     		adds	r3, r3, #1
 103              	.LVL9:
 420:lvgl/src/extra/widgets/keyboard/lv_keyboard.c ****             ctrl_map[i] &= (~LV_BTNMATRIX_CTRL_POPOVER);
 104              		.loc 1 420 49 is_stmt 0 discriminator 3 view .LVU26
 105 004c 9BB2     		uxth	r3, r3
 106              	.LVL10:
 107              	.L4:
 420:lvgl/src/extra/widgets/keyboard/lv_keyboard.c ****             ctrl_map[i] &= (~LV_BTNMATRIX_CTRL_POPOVER);
 108              		.loc 1 420 31 is_stmt 1 discriminator 1 view .LVU27
 420:lvgl/src/extra/widgets/keyboard/lv_keyboard.c ****             ctrl_map[i] &= (~LV_BTNMATRIX_CTRL_POPOVER);
 109              		.loc 1 420 37 is_stmt 0 discriminator 1 view .LVU28
 110 004e 228E     		ldrh	r2, [r4, #48]
 420:lvgl/src/extra/widgets/keyboard/lv_keyboard.c ****             ctrl_map[i] &= (~LV_BTNMATRIX_CTRL_POPOVER);
 111              		.loc 1 420 31 discriminator 1 view .LVU29
 112 0050 9A42     		cmp	r2, r3
 113 0052 F4D8     		bhi	.L5
 114              	.LBE3:
 425:lvgl/src/extra/widgets/keyboard/lv_keyboard.c ****         lv_mem_free(ctrl_map);
 115              		.loc 1 425 9 is_stmt 1 view .LVU30
 116 0054 2946     		mov	r1, r5
 117 0056 2046     		mov	r0, r4
 118 0058 FFF7FEFF 		bl	lv_btnmatrix_set_ctrl_map
 119              	.LVL11:
 426:lvgl/src/extra/widgets/keyboard/lv_keyboard.c ****     }
 120              		.loc 1 426 9 view .LVU31
 121 005c 2846     		mov	r0, r5
ARM GAS  /var/folders/21/t9g5rlb91ys800n5npymflf80000gn/T//ccWK7fRs.s 			page 11


 122 005e FFF7FEFF 		bl	lv_mem_free
 123              	.LVL12:
 124              	.LBE2:
 125              		.loc 1 428 1 is_stmt 0 view .LVU32
 126 0062 DBE7     		b	.L1
 127              	.L8:
 128              		.align	2
 129              	.L7:
 130 0064 00000000 		.word	kb_ctrl
 131              		.cfi_endproc
 132              	.LFE184:
 134              		.section	.text.lv_keyboard_update_map,"ax",%progbits
 135              		.align	1
 136              		.syntax unified
 137              		.thumb
 138              		.thumb_func
 140              	lv_keyboard_update_map:
 141              	.LVL13:
 142              	.LFB183:
 395:lvgl/src/extra/widgets/keyboard/lv_keyboard.c ****     lv_keyboard_t * keyboard = (lv_keyboard_t *)obj;
 143              		.loc 1 395 1 is_stmt 1 view -0
 144              		.cfi_startproc
 145              		@ args = 0, pretend = 0, frame = 0
 146              		@ frame_needed = 0, uses_anonymous_args = 0
 395:lvgl/src/extra/widgets/keyboard/lv_keyboard.c ****     lv_keyboard_t * keyboard = (lv_keyboard_t *)obj;
 147              		.loc 1 395 1 is_stmt 0 view .LVU34
 148 0000 10B5     		push	{r4, lr}
 149              	.LCFI1:
 150              		.cfi_def_cfa_offset 8
 151              		.cfi_offset 4, -8
 152              		.cfi_offset 14, -4
 153 0002 0446     		mov	r4, r0
 396:lvgl/src/extra/widgets/keyboard/lv_keyboard.c ****     lv_btnmatrix_set_map(obj, kb_map[keyboard->mode]);
 154              		.loc 1 396 5 is_stmt 1 view .LVU35
 155              	.LVL14:
 397:lvgl/src/extra/widgets/keyboard/lv_keyboard.c ****     lv_keyboard_update_ctrl_map(obj);
 156              		.loc 1 397 5 view .LVU36
 397:lvgl/src/extra/widgets/keyboard/lv_keyboard.c ****     lv_keyboard_update_ctrl_map(obj);
 157              		.loc 1 397 46 is_stmt 0 view .LVU37
 158 0004 90F83C20 		ldrb	r2, [r0, #60]	@ zero_extendqisi2
 397:lvgl/src/extra/widgets/keyboard/lv_keyboard.c ****     lv_keyboard_update_ctrl_map(obj);
 159              		.loc 1 397 5 view .LVU38
 160 0008 044B     		ldr	r3, .L11
 161 000a 53F82210 		ldr	r1, [r3, r2, lsl #2]
 162 000e FFF7FEFF 		bl	lv_btnmatrix_set_map
 163              	.LVL15:
 398:lvgl/src/extra/widgets/keyboard/lv_keyboard.c **** }
 164              		.loc 1 398 5 is_stmt 1 view .LVU39
 165 0012 2046     		mov	r0, r4
 166 0014 FFF7FEFF 		bl	lv_keyboard_update_ctrl_map
 167              	.LVL16:
 399:lvgl/src/extra/widgets/keyboard/lv_keyboard.c **** 
 168              		.loc 1 399 1 is_stmt 0 view .LVU40
 169 0018 10BD     		pop	{r4, pc}
 170              	.LVL17:
 171              	.L12:
 399:lvgl/src/extra/widgets/keyboard/lv_keyboard.c **** 
ARM GAS  /var/folders/21/t9g5rlb91ys800n5npymflf80000gn/T//ccWK7fRs.s 			page 12


 172              		.loc 1 399 1 view .LVU41
 173 001a 00BF     		.align	2
 174              	.L11:
 175 001c 00000000 		.word	kb_map
 176              		.cfi_endproc
 177              	.LFE183:
 179              		.section	.text.lv_keyboard_constructor,"ax",%progbits
 180              		.align	1
 181              		.syntax unified
 182              		.thumb
 183              		.thumb_func
 185              	lv_keyboard_constructor:
 186              	.LVL18:
 187              	.LFB182:
 374:lvgl/src/extra/widgets/keyboard/lv_keyboard.c ****     LV_UNUSED(class_p);
 188              		.loc 1 374 1 is_stmt 1 view -0
 189              		.cfi_startproc
 190              		@ args = 0, pretend = 0, frame = 0
 191              		@ frame_needed = 0, uses_anonymous_args = 0
 374:lvgl/src/extra/widgets/keyboard/lv_keyboard.c ****     LV_UNUSED(class_p);
 192              		.loc 1 374 1 is_stmt 0 view .LVU43
 193 0000 38B5     		push	{r3, r4, r5, lr}
 194              	.LCFI2:
 195              		.cfi_def_cfa_offset 16
 196              		.cfi_offset 3, -16
 197              		.cfi_offset 4, -12
 198              		.cfi_offset 5, -8
 199              		.cfi_offset 14, -4
 200 0002 0C46     		mov	r4, r1
 375:lvgl/src/extra/widgets/keyboard/lv_keyboard.c ****     lv_obj_clear_flag(obj, LV_OBJ_FLAG_CLICK_FOCUSABLE);
 201              		.loc 1 375 5 is_stmt 1 view .LVU44
 376:lvgl/src/extra/widgets/keyboard/lv_keyboard.c **** 
 202              		.loc 1 376 5 view .LVU45
 203 0004 0421     		movs	r1, #4
 204              	.LVL19:
 376:lvgl/src/extra/widgets/keyboard/lv_keyboard.c **** 
 205              		.loc 1 376 5 is_stmt 0 view .LVU46
 206 0006 2046     		mov	r0, r4
 207              	.LVL20:
 376:lvgl/src/extra/widgets/keyboard/lv_keyboard.c **** 
 208              		.loc 1 376 5 view .LVU47
 209 0008 FFF7FEFF 		bl	lv_obj_clear_flag
 210              	.LVL21:
 378:lvgl/src/extra/widgets/keyboard/lv_keyboard.c ****     keyboard->ta         = NULL;
 211              		.loc 1 378 5 is_stmt 1 view .LVU48
 379:lvgl/src/extra/widgets/keyboard/lv_keyboard.c ****     keyboard->mode       = LV_KEYBOARD_MODE_TEXT_LOWER;
 212              		.loc 1 379 5 view .LVU49
 379:lvgl/src/extra/widgets/keyboard/lv_keyboard.c ****     keyboard->mode       = LV_KEYBOARD_MODE_TEXT_LOWER;
 213              		.loc 1 379 26 is_stmt 0 view .LVU50
 214 000c 0025     		movs	r5, #0
 215 000e A563     		str	r5, [r4, #56]
 380:lvgl/src/extra/widgets/keyboard/lv_keyboard.c ****     keyboard->popovers   = 0;
 216              		.loc 1 380 5 is_stmt 1 view .LVU51
 380:lvgl/src/extra/widgets/keyboard/lv_keyboard.c ****     keyboard->popovers   = 0;
 217              		.loc 1 380 26 is_stmt 0 view .LVU52
 218 0010 84F83C50 		strb	r5, [r4, #60]
 381:lvgl/src/extra/widgets/keyboard/lv_keyboard.c **** 
ARM GAS  /var/folders/21/t9g5rlb91ys800n5npymflf80000gn/T//ccWK7fRs.s 			page 13


 219              		.loc 1 381 5 is_stmt 1 view .LVU53
 381:lvgl/src/extra/widgets/keyboard/lv_keyboard.c **** 
 220              		.loc 1 381 26 is_stmt 0 view .LVU54
 221 0014 94F83D30 		ldrb	r3, [r4, #61]	@ zero_extendqisi2
 222 0018 65F30003 		bfi	r3, r5, #0, #1
 223 001c 84F83D30 		strb	r3, [r4, #61]
 383:lvgl/src/extra/widgets/keyboard/lv_keyboard.c ****     lv_obj_add_event_cb(obj, lv_keyboard_def_event_cb, LV_EVENT_VALUE_CHANGED, NULL);
 224              		.loc 1 383 5 is_stmt 1 view .LVU55
 225 0020 2B46     		mov	r3, r5
 226 0022 2A46     		mov	r2, r5
 227 0024 0521     		movs	r1, #5
 228 0026 2046     		mov	r0, r4
 229 0028 FFF7FEFF 		bl	lv_obj_align
 230              	.LVL22:
 384:lvgl/src/extra/widgets/keyboard/lv_keyboard.c ****     lv_obj_set_style_base_dir(obj, LV_BASE_DIR_LTR, 0);
 231              		.loc 1 384 5 view .LVU56
 232 002c 2B46     		mov	r3, r5
 233 002e 1C22     		movs	r2, #28
 234 0030 0649     		ldr	r1, .L15
 235 0032 2046     		mov	r0, r4
 236 0034 FFF7FEFF 		bl	lv_obj_add_event_cb
 237              	.LVL23:
 385:lvgl/src/extra/widgets/keyboard/lv_keyboard.c **** 
 238              		.loc 1 385 5 view .LVU57
 239 0038 2A46     		mov	r2, r5
 240 003a 2946     		mov	r1, r5
 241 003c 2046     		mov	r0, r4
 242 003e FFF7FEFF 		bl	lv_obj_set_style_base_dir
 243              	.LVL24:
 387:lvgl/src/extra/widgets/keyboard/lv_keyboard.c **** }
 244              		.loc 1 387 5 view .LVU58
 245 0042 2046     		mov	r0, r4
 246 0044 FFF7FEFF 		bl	lv_keyboard_update_map
 247              	.LVL25:
 388:lvgl/src/extra/widgets/keyboard/lv_keyboard.c **** 
 248              		.loc 1 388 1 is_stmt 0 view .LVU59
 249 0048 38BD     		pop	{r3, r4, r5, pc}
 250              	.LVL26:
 251              	.L16:
 388:lvgl/src/extra/widgets/keyboard/lv_keyboard.c **** 
 252              		.loc 1 388 1 view .LVU60
 253 004a 00BF     		.align	2
 254              	.L15:
 255 004c 00000000 		.word	lv_keyboard_def_event_cb
 256              		.cfi_endproc
 257              	.LFE182:
 259              		.section	.rodata.lv_keyboard_def_event_cb.str1.4,"aMS",%progbits,1
 260              		.align	2
 261              	.LC0:
 262 0000 61626300 		.ascii	"abc\000"
 263              		.align	2
 264              	.LC1:
 265 0004 41424300 		.ascii	"ABC\000"
 266              		.align	2
 267              	.LC2:
 268 0008 312300   		.ascii	"1#\000"
 269 000b 00       		.align	2
ARM GAS  /var/folders/21/t9g5rlb91ys800n5npymflf80000gn/T//ccWK7fRs.s 			page 14


 270              	.LC3:
 271 000c EF808D00 		.ascii	"\357\200\215\000"
 272              		.align	2
 273              	.LC4:
 274 0010 EF849C00 		.ascii	"\357\204\234\000"
 275              		.align	2
 276              	.LC5:
 277 0014 EF808C00 		.ascii	"\357\200\214\000"
 278              		.align	2
 279              	.LC6:
 280 0018 456E7465 		.ascii	"Enter\000"
 280      7200
 281 001e 0000     		.align	2
 282              	.LC7:
 283 0020 EFA2A200 		.ascii	"\357\242\242\000"
 284              		.align	2
 285              	.LC8:
 286 0024 EF819300 		.ascii	"\357\201\223\000"
 287              		.align	2
 288              	.LC9:
 289 0028 EF819400 		.ascii	"\357\201\224\000"
 290              		.align	2
 291              	.LC10:
 292 002c EF959A00 		.ascii	"\357\225\232\000"
 293              		.align	2
 294              	.LC11:
 295 0030 2B2F2D00 		.ascii	"+/-\000"
 296              		.section	.text.lv_keyboard_def_event_cb,"ax",%progbits
 297              		.align	1
 298              		.global	lv_keyboard_def_event_cb
 299              		.syntax unified
 300              		.thumb
 301              		.thumb_func
 303              	lv_keyboard_def_event_cb:
 304              	.LVL27:
 305              	.LFB181:
 274:lvgl/src/extra/widgets/keyboard/lv_keyboard.c ****     lv_obj_t * obj = lv_event_get_target(e);
 306              		.loc 1 274 1 is_stmt 1 view -0
 307              		.cfi_startproc
 308              		@ args = 0, pretend = 0, frame = 0
 309              		@ frame_needed = 0, uses_anonymous_args = 0
 274:lvgl/src/extra/widgets/keyboard/lv_keyboard.c ****     lv_obj_t * obj = lv_event_get_target(e);
 310              		.loc 1 274 1 is_stmt 0 view .LVU62
 311 0000 70B5     		push	{r4, r5, r6, lr}
 312              	.LCFI3:
 313              		.cfi_def_cfa_offset 16
 314              		.cfi_offset 4, -16
 315              		.cfi_offset 5, -12
 316              		.cfi_offset 6, -8
 317              		.cfi_offset 14, -4
 275:lvgl/src/extra/widgets/keyboard/lv_keyboard.c **** 
 318              		.loc 1 275 5 is_stmt 1 view .LVU63
 275:lvgl/src/extra/widgets/keyboard/lv_keyboard.c **** 
 319              		.loc 1 275 22 is_stmt 0 view .LVU64
 320 0002 FFF7FEFF 		bl	lv_event_get_target
 321              	.LVL28:
 275:lvgl/src/extra/widgets/keyboard/lv_keyboard.c **** 
ARM GAS  /var/folders/21/t9g5rlb91ys800n5npymflf80000gn/T//ccWK7fRs.s 			page 15


 322              		.loc 1 275 22 view .LVU65
 323 0006 0446     		mov	r4, r0
 324              	.LVL29:
 277:lvgl/src/extra/widgets/keyboard/lv_keyboard.c ****     lv_keyboard_t * keyboard = (lv_keyboard_t *)obj;
 325              		.loc 1 277 5 is_stmt 1 view .LVU66
 277:lvgl/src/extra/widgets/keyboard/lv_keyboard.c ****     lv_keyboard_t * keyboard = (lv_keyboard_t *)obj;
 326              		.loc 1 277 5 view .LVU67
 277:lvgl/src/extra/widgets/keyboard/lv_keyboard.c ****     lv_keyboard_t * keyboard = (lv_keyboard_t *)obj;
 327              		.loc 1 277 5 view .LVU68
 278:lvgl/src/extra/widgets/keyboard/lv_keyboard.c ****     uint16_t btn_id   = lv_btnmatrix_get_selected_btn(obj);
 328              		.loc 1 278 5 view .LVU69
 279:lvgl/src/extra/widgets/keyboard/lv_keyboard.c ****     if(btn_id == LV_BTNMATRIX_BTN_NONE) return;
 329              		.loc 1 279 5 view .LVU70
 279:lvgl/src/extra/widgets/keyboard/lv_keyboard.c ****     if(btn_id == LV_BTNMATRIX_BTN_NONE) return;
 330              		.loc 1 279 25 is_stmt 0 view .LVU71
 331 0008 FFF7FEFF 		bl	lv_btnmatrix_get_selected_btn
 332              	.LVL30:
 280:lvgl/src/extra/widgets/keyboard/lv_keyboard.c **** 
 333              		.loc 1 280 5 is_stmt 1 view .LVU72
 280:lvgl/src/extra/widgets/keyboard/lv_keyboard.c **** 
 334              		.loc 1 280 7 is_stmt 0 view .LVU73
 335 000c 4FF6FF73 		movw	r3, #65535
 336 0010 9842     		cmp	r0, r3
 337 0012 39D0     		beq	.L17
 282:lvgl/src/extra/widgets/keyboard/lv_keyboard.c ****     if(txt == NULL) return;
 338              		.loc 1 282 5 is_stmt 1 view .LVU74
 282:lvgl/src/extra/widgets/keyboard/lv_keyboard.c ****     if(txt == NULL) return;
 339              		.loc 1 282 24 is_stmt 0 view .LVU75
 340 0014 2046     		mov	r0, r4
 341              	.LVL31:
 282:lvgl/src/extra/widgets/keyboard/lv_keyboard.c ****     if(txt == NULL) return;
 342              		.loc 1 282 24 view .LVU76
 343 0016 FFF7FEFF 		bl	lv_btnmatrix_get_selected_btn
 344              	.LVL32:
 345 001a 0146     		mov	r1, r0
 346 001c 2046     		mov	r0, r4
 347 001e FFF7FEFF 		bl	lv_btnmatrix_get_btn_text
 348              	.LVL33:
 283:lvgl/src/extra/widgets/keyboard/lv_keyboard.c **** 
 349              		.loc 1 283 5 is_stmt 1 view .LVU77
 283:lvgl/src/extra/widgets/keyboard/lv_keyboard.c **** 
 350              		.loc 1 283 7 is_stmt 0 view .LVU78
 351 0022 0546     		mov	r5, r0
 352 0024 80B3     		cbz	r0, .L17
 285:lvgl/src/extra/widgets/keyboard/lv_keyboard.c ****         keyboard->mode = LV_KEYBOARD_MODE_TEXT_LOWER;
 353              		.loc 1 285 5 is_stmt 1 view .LVU79
 285:lvgl/src/extra/widgets/keyboard/lv_keyboard.c ****         keyboard->mode = LV_KEYBOARD_MODE_TEXT_LOWER;
 354              		.loc 1 285 8 is_stmt 0 view .LVU80
 355 0026 6D49     		ldr	r1, .L45
 356 0028 FFF7FEFF 		bl	strcmp
 357              	.LVL34:
 285:lvgl/src/extra/widgets/keyboard/lv_keyboard.c ****         keyboard->mode = LV_KEYBOARD_MODE_TEXT_LOWER;
 358              		.loc 1 285 7 view .LVU81
 359 002c 08B3     		cbz	r0, .L36
 291:lvgl/src/extra/widgets/keyboard/lv_keyboard.c ****         keyboard->mode = LV_KEYBOARD_MODE_TEXT_UPPER;
 360              		.loc 1 291 10 is_stmt 1 view .LVU82
 291:lvgl/src/extra/widgets/keyboard/lv_keyboard.c ****         keyboard->mode = LV_KEYBOARD_MODE_TEXT_UPPER;
ARM GAS  /var/folders/21/t9g5rlb91ys800n5npymflf80000gn/T//ccWK7fRs.s 			page 16


 361              		.loc 1 291 13 is_stmt 0 view .LVU83
 362 002e 6C49     		ldr	r1, .L45+4
 363 0030 2846     		mov	r0, r5
 364 0032 FFF7FEFF 		bl	strcmp
 365              	.LVL35:
 291:lvgl/src/extra/widgets/keyboard/lv_keyboard.c ****         keyboard->mode = LV_KEYBOARD_MODE_TEXT_UPPER;
 366              		.loc 1 291 12 view .LVU84
 367 0036 40B3     		cbz	r0, .L37
 297:lvgl/src/extra/widgets/keyboard/lv_keyboard.c ****         keyboard->mode = LV_KEYBOARD_MODE_SPECIAL;
 368              		.loc 1 297 10 is_stmt 1 view .LVU85
 297:lvgl/src/extra/widgets/keyboard/lv_keyboard.c ****         keyboard->mode = LV_KEYBOARD_MODE_SPECIAL;
 369              		.loc 1 297 13 is_stmt 0 view .LVU86
 370 0038 6A49     		ldr	r1, .L45+8
 371 003a 2846     		mov	r0, r5
 372 003c FFF7FEFF 		bl	strcmp
 373              	.LVL36:
 297:lvgl/src/extra/widgets/keyboard/lv_keyboard.c ****         keyboard->mode = LV_KEYBOARD_MODE_SPECIAL;
 374              		.loc 1 297 12 view .LVU87
 375 0040 78B3     		cbz	r0, .L38
 303:lvgl/src/extra/widgets/keyboard/lv_keyboard.c ****         lv_res_t res = lv_event_send(obj, LV_EVENT_CANCEL, NULL);
 376              		.loc 1 303 10 is_stmt 1 view .LVU88
 303:lvgl/src/extra/widgets/keyboard/lv_keyboard.c ****         lv_res_t res = lv_event_send(obj, LV_EVENT_CANCEL, NULL);
 377              		.loc 1 303 13 is_stmt 0 view .LVU89
 378 0042 6949     		ldr	r1, .L45+12
 379 0044 2846     		mov	r0, r5
 380 0046 FFF7FEFF 		bl	strcmp
 381              	.LVL37:
 303:lvgl/src/extra/widgets/keyboard/lv_keyboard.c ****         lv_res_t res = lv_event_send(obj, LV_EVENT_CANCEL, NULL);
 382              		.loc 1 303 12 view .LVU90
 383 004a 20B1     		cbz	r0, .L22
 303:lvgl/src/extra/widgets/keyboard/lv_keyboard.c ****         lv_res_t res = lv_event_send(obj, LV_EVENT_CANCEL, NULL);
 384              		.loc 1 303 50 discriminator 1 view .LVU91
 385 004c 6749     		ldr	r1, .L45+16
 386 004e 2846     		mov	r0, r5
 387 0050 FFF7FEFF 		bl	strcmp
 388              	.LVL38:
 303:lvgl/src/extra/widgets/keyboard/lv_keyboard.c ****         lv_res_t res = lv_event_send(obj, LV_EVENT_CANCEL, NULL);
 389              		.loc 1 303 47 discriminator 1 view .LVU92
 390 0054 88BB     		cbnz	r0, .L23
 391              	.L22:
 392              	.LBB4:
 304:lvgl/src/extra/widgets/keyboard/lv_keyboard.c ****         if(res != LV_RES_OK) return;
 393              		.loc 1 304 9 is_stmt 1 view .LVU93
 304:lvgl/src/extra/widgets/keyboard/lv_keyboard.c ****         if(res != LV_RES_OK) return;
 394              		.loc 1 304 24 is_stmt 0 view .LVU94
 395 0056 0022     		movs	r2, #0
 396 0058 2021     		movs	r1, #32
 397 005a 2046     		mov	r0, r4
 398 005c FFF7FEFF 		bl	lv_event_send
 399              	.LVL39:
 305:lvgl/src/extra/widgets/keyboard/lv_keyboard.c **** 
 400              		.loc 1 305 9 is_stmt 1 view .LVU95
 305:lvgl/src/extra/widgets/keyboard/lv_keyboard.c **** 
 401              		.loc 1 305 11 is_stmt 0 view .LVU96
 402 0060 0128     		cmp	r0, #1
 403 0062 11D1     		bne	.L17
 307:lvgl/src/extra/widgets/keyboard/lv_keyboard.c ****             res = lv_event_send(keyboard->ta, LV_EVENT_CANCEL, NULL);
ARM GAS  /var/folders/21/t9g5rlb91ys800n5npymflf80000gn/T//ccWK7fRs.s 			page 17


 404              		.loc 1 307 9 is_stmt 1 view .LVU97
 307:lvgl/src/extra/widgets/keyboard/lv_keyboard.c ****             res = lv_event_send(keyboard->ta, LV_EVENT_CANCEL, NULL);
 405              		.loc 1 307 20 is_stmt 0 view .LVU98
 406 0064 A06B     		ldr	r0, [r4, #56]
 407              	.LVL40:
 307:lvgl/src/extra/widgets/keyboard/lv_keyboard.c ****             res = lv_event_send(keyboard->ta, LV_EVENT_CANCEL, NULL);
 408              		.loc 1 307 11 view .LVU99
 409 0066 78B1     		cbz	r0, .L17
 308:lvgl/src/extra/widgets/keyboard/lv_keyboard.c ****             if(res != LV_RES_OK) return;
 410              		.loc 1 308 13 is_stmt 1 view .LVU100
 308:lvgl/src/extra/widgets/keyboard/lv_keyboard.c ****             if(res != LV_RES_OK) return;
 411              		.loc 1 308 19 is_stmt 0 view .LVU101
 412 0068 0022     		movs	r2, #0
 413 006a 2021     		movs	r1, #32
 414 006c FFF7FEFF 		bl	lv_event_send
 415              	.LVL41:
 309:lvgl/src/extra/widgets/keyboard/lv_keyboard.c ****         }
 416              		.loc 1 309 13 is_stmt 1 view .LVU102
 417 0070 0AE0     		b	.L17
 418              	.LVL42:
 419              	.L36:
 309:lvgl/src/extra/widgets/keyboard/lv_keyboard.c ****         }
 420              		.loc 1 309 13 is_stmt 0 view .LVU103
 421              	.LBE4:
 286:lvgl/src/extra/widgets/keyboard/lv_keyboard.c ****         lv_btnmatrix_set_map(obj, kb_map[LV_KEYBOARD_MODE_TEXT_LOWER]);
 422              		.loc 1 286 9 is_stmt 1 view .LVU104
 286:lvgl/src/extra/widgets/keyboard/lv_keyboard.c ****         lv_btnmatrix_set_map(obj, kb_map[LV_KEYBOARD_MODE_TEXT_LOWER]);
 423              		.loc 1 286 24 is_stmt 0 view .LVU105
 424 0072 0023     		movs	r3, #0
 425 0074 84F83C30 		strb	r3, [r4, #60]
 287:lvgl/src/extra/widgets/keyboard/lv_keyboard.c ****         lv_keyboard_update_ctrl_map(obj);
 426              		.loc 1 287 9 is_stmt 1 view .LVU106
 427 0078 5D4B     		ldr	r3, .L45+20
 428 007a 1968     		ldr	r1, [r3]
 429 007c 2046     		mov	r0, r4
 430 007e FFF7FEFF 		bl	lv_btnmatrix_set_map
 431              	.LVL43:
 288:lvgl/src/extra/widgets/keyboard/lv_keyboard.c ****         return;
 432              		.loc 1 288 9 view .LVU107
 433 0082 2046     		mov	r0, r4
 434 0084 FFF7FEFF 		bl	lv_keyboard_update_ctrl_map
 435              	.LVL44:
 289:lvgl/src/extra/widgets/keyboard/lv_keyboard.c ****     }
 436              		.loc 1 289 9 view .LVU108
 437              	.L17:
 367:lvgl/src/extra/widgets/keyboard/lv_keyboard.c **** 
 438              		.loc 1 367 1 is_stmt 0 view .LVU109
 439 0088 70BD     		pop	{r4, r5, r6, pc}
 440              	.LVL45:
 441              	.L37:
 292:lvgl/src/extra/widgets/keyboard/lv_keyboard.c ****         lv_btnmatrix_set_map(obj, kb_map[LV_KEYBOARD_MODE_TEXT_UPPER]);
 442              		.loc 1 292 9 is_stmt 1 view .LVU110
 292:lvgl/src/extra/widgets/keyboard/lv_keyboard.c ****         lv_btnmatrix_set_map(obj, kb_map[LV_KEYBOARD_MODE_TEXT_UPPER]);
 443              		.loc 1 292 24 is_stmt 0 view .LVU111
 444 008a 0123     		movs	r3, #1
 445 008c 84F83C30 		strb	r3, [r4, #60]
 293:lvgl/src/extra/widgets/keyboard/lv_keyboard.c ****         lv_keyboard_update_ctrl_map(obj);
ARM GAS  /var/folders/21/t9g5rlb91ys800n5npymflf80000gn/T//ccWK7fRs.s 			page 18


 446              		.loc 1 293 9 is_stmt 1 view .LVU112
 447 0090 574B     		ldr	r3, .L45+20
 448 0092 5968     		ldr	r1, [r3, #4]
 449 0094 2046     		mov	r0, r4
 450 0096 FFF7FEFF 		bl	lv_btnmatrix_set_map
 451              	.LVL46:
 294:lvgl/src/extra/widgets/keyboard/lv_keyboard.c ****         return;
 452              		.loc 1 294 9 view .LVU113
 453 009a 2046     		mov	r0, r4
 454 009c FFF7FEFF 		bl	lv_keyboard_update_ctrl_map
 455              	.LVL47:
 295:lvgl/src/extra/widgets/keyboard/lv_keyboard.c ****     }
 456              		.loc 1 295 9 view .LVU114
 457 00a0 F2E7     		b	.L17
 458              	.L38:
 298:lvgl/src/extra/widgets/keyboard/lv_keyboard.c ****         lv_btnmatrix_set_map(obj, kb_map[LV_KEYBOARD_MODE_SPECIAL]);
 459              		.loc 1 298 9 view .LVU115
 298:lvgl/src/extra/widgets/keyboard/lv_keyboard.c ****         lv_btnmatrix_set_map(obj, kb_map[LV_KEYBOARD_MODE_SPECIAL]);
 460              		.loc 1 298 24 is_stmt 0 view .LVU116
 461 00a2 0223     		movs	r3, #2
 462 00a4 84F83C30 		strb	r3, [r4, #60]
 299:lvgl/src/extra/widgets/keyboard/lv_keyboard.c ****         lv_keyboard_update_ctrl_map(obj);
 463              		.loc 1 299 9 is_stmt 1 view .LVU117
 464 00a8 514B     		ldr	r3, .L45+20
 465 00aa 9968     		ldr	r1, [r3, #8]
 466 00ac 2046     		mov	r0, r4
 467 00ae FFF7FEFF 		bl	lv_btnmatrix_set_map
 468              	.LVL48:
 300:lvgl/src/extra/widgets/keyboard/lv_keyboard.c ****         return;
 469              		.loc 1 300 9 view .LVU118
 470 00b2 2046     		mov	r0, r4
 471 00b4 FFF7FEFF 		bl	lv_keyboard_update_ctrl_map
 472              	.LVL49:
 301:lvgl/src/extra/widgets/keyboard/lv_keyboard.c ****     }
 473              		.loc 1 301 9 view .LVU119
 474 00b8 E6E7     		b	.L17
 475              	.L23:
 313:lvgl/src/extra/widgets/keyboard/lv_keyboard.c ****         lv_res_t res = lv_event_send(obj, LV_EVENT_READY, NULL);
 476              		.loc 1 313 10 view .LVU120
 313:lvgl/src/extra/widgets/keyboard/lv_keyboard.c ****         lv_res_t res = lv_event_send(obj, LV_EVENT_READY, NULL);
 477              		.loc 1 313 13 is_stmt 0 view .LVU121
 478 00ba 4E49     		ldr	r1, .L45+24
 479 00bc 2846     		mov	r0, r5
 480 00be FFF7FEFF 		bl	strcmp
 481              	.LVL50:
 313:lvgl/src/extra/widgets/keyboard/lv_keyboard.c ****         lv_res_t res = lv_event_send(obj, LV_EVENT_READY, NULL);
 482              		.loc 1 313 12 view .LVU122
 483 00c2 D8B1     		cbz	r0, .L39
 325:lvgl/src/extra/widgets/keyboard/lv_keyboard.c **** 
 484              		.loc 1 325 5 is_stmt 1 view .LVU123
 325:lvgl/src/extra/widgets/keyboard/lv_keyboard.c **** 
 485              		.loc 1 325 16 is_stmt 0 view .LVU124
 486 00c4 A66B     		ldr	r6, [r4, #56]
 325:lvgl/src/extra/widgets/keyboard/lv_keyboard.c **** 
 487              		.loc 1 325 7 view .LVU125
 488 00c6 002E     		cmp	r6, #0
 489 00c8 DED0     		beq	.L17
ARM GAS  /var/folders/21/t9g5rlb91ys800n5npymflf80000gn/T//ccWK7fRs.s 			page 19


 327:lvgl/src/extra/widgets/keyboard/lv_keyboard.c ****         lv_textarea_add_char(keyboard->ta, '\n');
 490              		.loc 1 327 5 is_stmt 1 view .LVU126
 327:lvgl/src/extra/widgets/keyboard/lv_keyboard.c ****         lv_textarea_add_char(keyboard->ta, '\n');
 491              		.loc 1 327 8 is_stmt 0 view .LVU127
 492 00ca 4B49     		ldr	r1, .L45+28
 493 00cc 2846     		mov	r0, r5
 494 00ce FFF7FEFF 		bl	strcmp
 495              	.LVL51:
 327:lvgl/src/extra/widgets/keyboard/lv_keyboard.c ****         lv_textarea_add_char(keyboard->ta, '\n');
 496              		.loc 1 327 7 view .LVU128
 497 00d2 20B1     		cbz	r0, .L27
 327:lvgl/src/extra/widgets/keyboard/lv_keyboard.c ****         lv_textarea_add_char(keyboard->ta, '\n');
 498              		.loc 1 327 37 discriminator 1 view .LVU129
 499 00d4 4949     		ldr	r1, .L45+32
 500 00d6 2846     		mov	r0, r5
 501 00d8 FFF7FEFF 		bl	strcmp
 502              	.LVL52:
 327:lvgl/src/extra/widgets/keyboard/lv_keyboard.c ****         lv_textarea_add_char(keyboard->ta, '\n');
 503              		.loc 1 327 34 discriminator 1 view .LVU130
 504 00dc E8B9     		cbnz	r0, .L28
 505              	.L27:
 328:lvgl/src/extra/widgets/keyboard/lv_keyboard.c ****         if(lv_textarea_get_one_line(keyboard->ta)) {
 506              		.loc 1 328 9 is_stmt 1 view .LVU131
 507 00de 0A21     		movs	r1, #10
 508 00e0 3046     		mov	r0, r6
 509 00e2 FFF7FEFF 		bl	lv_textarea_add_char
 510              	.LVL53:
 329:lvgl/src/extra/widgets/keyboard/lv_keyboard.c ****             lv_res_t res = lv_event_send(keyboard->ta, LV_EVENT_READY, NULL);
 511              		.loc 1 329 9 view .LVU132
 329:lvgl/src/extra/widgets/keyboard/lv_keyboard.c ****             lv_res_t res = lv_event_send(keyboard->ta, LV_EVENT_READY, NULL);
 512              		.loc 1 329 12 is_stmt 0 view .LVU133
 513 00e6 A06B     		ldr	r0, [r4, #56]
 514 00e8 FFF7FEFF 		bl	lv_textarea_get_one_line
 515              	.LVL54:
 329:lvgl/src/extra/widgets/keyboard/lv_keyboard.c ****             lv_res_t res = lv_event_send(keyboard->ta, LV_EVENT_READY, NULL);
 516              		.loc 1 329 11 view .LVU134
 517 00ec 0028     		cmp	r0, #0
 518 00ee CBD0     		beq	.L17
 519              	.LBB5:
 330:lvgl/src/extra/widgets/keyboard/lv_keyboard.c ****             if(res != LV_RES_OK) return;
 520              		.loc 1 330 13 is_stmt 1 view .LVU135
 330:lvgl/src/extra/widgets/keyboard/lv_keyboard.c ****             if(res != LV_RES_OK) return;
 521              		.loc 1 330 28 is_stmt 0 view .LVU136
 522 00f0 0022     		movs	r2, #0
 523 00f2 1F21     		movs	r1, #31
 524 00f4 A06B     		ldr	r0, [r4, #56]
 525 00f6 FFF7FEFF 		bl	lv_event_send
 526              	.LVL55:
 331:lvgl/src/extra/widgets/keyboard/lv_keyboard.c ****         }
 527              		.loc 1 331 13 is_stmt 1 view .LVU137
 528 00fa C5E7     		b	.L17
 529              	.L39:
 331:lvgl/src/extra/widgets/keyboard/lv_keyboard.c ****         }
 530              		.loc 1 331 13 is_stmt 0 view .LVU138
 531              	.LBE5:
 532              	.LBB6:
 314:lvgl/src/extra/widgets/keyboard/lv_keyboard.c ****         if(res != LV_RES_OK) return;
ARM GAS  /var/folders/21/t9g5rlb91ys800n5npymflf80000gn/T//ccWK7fRs.s 			page 20


 533              		.loc 1 314 9 is_stmt 1 view .LVU139
 314:lvgl/src/extra/widgets/keyboard/lv_keyboard.c ****         if(res != LV_RES_OK) return;
 534              		.loc 1 314 24 is_stmt 0 view .LVU140
 535 00fc 0022     		movs	r2, #0
 536 00fe 1F21     		movs	r1, #31
 537 0100 2046     		mov	r0, r4
 538 0102 FFF7FEFF 		bl	lv_event_send
 539              	.LVL56:
 315:lvgl/src/extra/widgets/keyboard/lv_keyboard.c **** 
 540              		.loc 1 315 9 is_stmt 1 view .LVU141
 315:lvgl/src/extra/widgets/keyboard/lv_keyboard.c **** 
 541              		.loc 1 315 11 is_stmt 0 view .LVU142
 542 0106 0128     		cmp	r0, #1
 543 0108 BED1     		bne	.L17
 317:lvgl/src/extra/widgets/keyboard/lv_keyboard.c ****             res = lv_event_send(keyboard->ta, LV_EVENT_READY, NULL);
 544              		.loc 1 317 9 is_stmt 1 view .LVU143
 317:lvgl/src/extra/widgets/keyboard/lv_keyboard.c ****             res = lv_event_send(keyboard->ta, LV_EVENT_READY, NULL);
 545              		.loc 1 317 20 is_stmt 0 view .LVU144
 546 010a A06B     		ldr	r0, [r4, #56]
 547              	.LVL57:
 317:lvgl/src/extra/widgets/keyboard/lv_keyboard.c ****             res = lv_event_send(keyboard->ta, LV_EVENT_READY, NULL);
 548              		.loc 1 317 11 view .LVU145
 549 010c 0028     		cmp	r0, #0
 550 010e BBD0     		beq	.L17
 318:lvgl/src/extra/widgets/keyboard/lv_keyboard.c ****             if(res != LV_RES_OK) return;
 551              		.loc 1 318 13 is_stmt 1 view .LVU146
 318:lvgl/src/extra/widgets/keyboard/lv_keyboard.c ****             if(res != LV_RES_OK) return;
 552              		.loc 1 318 19 is_stmt 0 view .LVU147
 553 0110 0022     		movs	r2, #0
 554 0112 1F21     		movs	r1, #31
 555 0114 FFF7FEFF 		bl	lv_event_send
 556              	.LVL58:
 319:lvgl/src/extra/widgets/keyboard/lv_keyboard.c ****         }
 557              		.loc 1 319 13 is_stmt 1 view .LVU148
 558 0118 B6E7     		b	.L17
 559              	.LVL59:
 560              	.L28:
 319:lvgl/src/extra/widgets/keyboard/lv_keyboard.c ****         }
 561              		.loc 1 319 13 is_stmt 0 view .LVU149
 562              	.LBE6:
 334:lvgl/src/extra/widgets/keyboard/lv_keyboard.c ****         lv_textarea_cursor_left(keyboard->ta);
 563              		.loc 1 334 10 is_stmt 1 view .LVU150
 334:lvgl/src/extra/widgets/keyboard/lv_keyboard.c ****         lv_textarea_cursor_left(keyboard->ta);
 564              		.loc 1 334 13 is_stmt 0 view .LVU151
 565 011a 3949     		ldr	r1, .L45+36
 566 011c 2846     		mov	r0, r5
 567 011e FFF7FEFF 		bl	strcmp
 568              	.LVL60:
 334:lvgl/src/extra/widgets/keyboard/lv_keyboard.c ****         lv_textarea_cursor_left(keyboard->ta);
 569              		.loc 1 334 12 view .LVU152
 570 0122 48B3     		cbz	r0, .L40
 337:lvgl/src/extra/widgets/keyboard/lv_keyboard.c ****         lv_textarea_cursor_right(keyboard->ta);
 571              		.loc 1 337 10 is_stmt 1 view .LVU153
 337:lvgl/src/extra/widgets/keyboard/lv_keyboard.c ****         lv_textarea_cursor_right(keyboard->ta);
 572              		.loc 1 337 13 is_stmt 0 view .LVU154
 573 0124 3749     		ldr	r1, .L45+40
 574 0126 2846     		mov	r0, r5
ARM GAS  /var/folders/21/t9g5rlb91ys800n5npymflf80000gn/T//ccWK7fRs.s 			page 21


 575 0128 FFF7FEFF 		bl	strcmp
 576              	.LVL61:
 337:lvgl/src/extra/widgets/keyboard/lv_keyboard.c ****         lv_textarea_cursor_right(keyboard->ta);
 577              		.loc 1 337 12 view .LVU155
 578 012c 40B3     		cbz	r0, .L41
 340:lvgl/src/extra/widgets/keyboard/lv_keyboard.c ****         lv_textarea_del_char(keyboard->ta);
 579              		.loc 1 340 10 is_stmt 1 view .LVU156
 340:lvgl/src/extra/widgets/keyboard/lv_keyboard.c ****         lv_textarea_del_char(keyboard->ta);
 580              		.loc 1 340 13 is_stmt 0 view .LVU157
 581 012e 3649     		ldr	r1, .L45+44
 582 0130 2846     		mov	r0, r5
 583 0132 FFF7FEFF 		bl	strcmp
 584              	.LVL62:
 340:lvgl/src/extra/widgets/keyboard/lv_keyboard.c ****         lv_textarea_del_char(keyboard->ta);
 585              		.loc 1 340 12 view .LVU158
 586 0136 38B3     		cbz	r0, .L42
 343:lvgl/src/extra/widgets/keyboard/lv_keyboard.c ****         uint16_t cur        = lv_textarea_get_cursor_pos(keyboard->ta);
 587              		.loc 1 343 10 is_stmt 1 view .LVU159
 343:lvgl/src/extra/widgets/keyboard/lv_keyboard.c ****         uint16_t cur        = lv_textarea_get_cursor_pos(keyboard->ta);
 588              		.loc 1 343 13 is_stmt 0 view .LVU160
 589 0138 3449     		ldr	r1, .L45+48
 590 013a 2846     		mov	r0, r5
 591 013c FFF7FEFF 		bl	strcmp
 592              	.LVL63:
 343:lvgl/src/extra/widgets/keyboard/lv_keyboard.c ****         uint16_t cur        = lv_textarea_get_cursor_pos(keyboard->ta);
 593              		.loc 1 343 12 view .LVU161
 594 0140 0028     		cmp	r0, #0
 595 0142 45D1     		bne	.L32
 596              	.LBB7:
 344:lvgl/src/extra/widgets/keyboard/lv_keyboard.c ****         const char * ta_txt = lv_textarea_get_text(keyboard->ta);
 597              		.loc 1 344 9 is_stmt 1 view .LVU162
 344:lvgl/src/extra/widgets/keyboard/lv_keyboard.c ****         const char * ta_txt = lv_textarea_get_text(keyboard->ta);
 598              		.loc 1 344 31 is_stmt 0 view .LVU163
 599 0144 3046     		mov	r0, r6
 600 0146 FFF7FEFF 		bl	lv_textarea_get_cursor_pos
 601              	.LVL64:
 602 014a 0546     		mov	r5, r0
 603              	.LVL65:
 345:lvgl/src/extra/widgets/keyboard/lv_keyboard.c ****         if(ta_txt[0] == '-') {
 604              		.loc 1 345 9 is_stmt 1 view .LVU164
 345:lvgl/src/extra/widgets/keyboard/lv_keyboard.c ****         if(ta_txt[0] == '-') {
 605              		.loc 1 345 31 is_stmt 0 view .LVU165
 606 014c A06B     		ldr	r0, [r4, #56]
 607 014e FFF7FEFF 		bl	lv_textarea_get_text
 608              	.LVL66:
 346:lvgl/src/extra/widgets/keyboard/lv_keyboard.c ****             lv_textarea_set_cursor_pos(keyboard->ta, 1);
 609              		.loc 1 346 9 is_stmt 1 view .LVU166
 346:lvgl/src/extra/widgets/keyboard/lv_keyboard.c ****             lv_textarea_set_cursor_pos(keyboard->ta, 1);
 610              		.loc 1 346 18 is_stmt 0 view .LVU167
 611 0152 0378     		ldrb	r3, [r0]	@ zero_extendqisi2
 346:lvgl/src/extra/widgets/keyboard/lv_keyboard.c ****             lv_textarea_set_cursor_pos(keyboard->ta, 1);
 612              		.loc 1 346 11 view .LVU168
 613 0154 2D2B     		cmp	r3, #45
 614 0156 1BD0     		beq	.L43
 352:lvgl/src/extra/widgets/keyboard/lv_keyboard.c ****             lv_textarea_set_cursor_pos(keyboard->ta, 1);
 615              		.loc 1 352 14 is_stmt 1 view .LVU169
 352:lvgl/src/extra/widgets/keyboard/lv_keyboard.c ****             lv_textarea_set_cursor_pos(keyboard->ta, 1);
ARM GAS  /var/folders/21/t9g5rlb91ys800n5npymflf80000gn/T//ccWK7fRs.s 			page 22


 616              		.loc 1 352 16 is_stmt 0 view .LVU170
 617 0158 2B2B     		cmp	r3, #43
 618 015a 29D0     		beq	.L44
 359:lvgl/src/extra/widgets/keyboard/lv_keyboard.c ****             lv_textarea_add_char(keyboard->ta, '-');
 619              		.loc 1 359 13 is_stmt 1 view .LVU171
 620 015c 0021     		movs	r1, #0
 621 015e A06B     		ldr	r0, [r4, #56]
 622              	.LVL67:
 359:lvgl/src/extra/widgets/keyboard/lv_keyboard.c ****             lv_textarea_add_char(keyboard->ta, '-');
 623              		.loc 1 359 13 is_stmt 0 view .LVU172
 624 0160 FFF7FEFF 		bl	lv_textarea_set_cursor_pos
 625              	.LVL68:
 360:lvgl/src/extra/widgets/keyboard/lv_keyboard.c ****             lv_textarea_set_cursor_pos(keyboard->ta, cur + 1);
 626              		.loc 1 360 13 is_stmt 1 view .LVU173
 627 0164 2D21     		movs	r1, #45
 628 0166 A06B     		ldr	r0, [r4, #56]
 629 0168 FFF7FEFF 		bl	lv_textarea_add_char
 630              	.LVL69:
 361:lvgl/src/extra/widgets/keyboard/lv_keyboard.c ****         }
 631              		.loc 1 361 13 view .LVU174
 632 016c A9B2     		uxth	r1, r5
 633 016e 0131     		adds	r1, r1, #1
 634 0170 A06B     		ldr	r0, [r4, #56]
 635 0172 FFF7FEFF 		bl	lv_textarea_set_cursor_pos
 636              	.LVL70:
 637 0176 87E7     		b	.L17
 638              	.LVL71:
 639              	.L40:
 361:lvgl/src/extra/widgets/keyboard/lv_keyboard.c ****         }
 640              		.loc 1 361 13 is_stmt 0 view .LVU175
 641              	.LBE7:
 335:lvgl/src/extra/widgets/keyboard/lv_keyboard.c ****     }
 642              		.loc 1 335 9 is_stmt 1 view .LVU176
 643 0178 3046     		mov	r0, r6
 644 017a FFF7FEFF 		bl	lv_textarea_cursor_left
 645              	.LVL72:
 646 017e 83E7     		b	.L17
 647              	.L41:
 338:lvgl/src/extra/widgets/keyboard/lv_keyboard.c ****     }
 648              		.loc 1 338 9 view .LVU177
 649 0180 3046     		mov	r0, r6
 650 0182 FFF7FEFF 		bl	lv_textarea_cursor_right
 651              	.LVL73:
 652 0186 7FE7     		b	.L17
 653              	.L42:
 341:lvgl/src/extra/widgets/keyboard/lv_keyboard.c ****     }
 654              		.loc 1 341 9 view .LVU178
 655 0188 3046     		mov	r0, r6
 656 018a FFF7FEFF 		bl	lv_textarea_del_char
 657              	.LVL74:
 658 018e 7BE7     		b	.L17
 659              	.LVL75:
 660              	.L43:
 661              	.LBB8:
 347:lvgl/src/extra/widgets/keyboard/lv_keyboard.c ****             lv_textarea_del_char(keyboard->ta);
 662              		.loc 1 347 13 view .LVU179
 663 0190 0121     		movs	r1, #1
ARM GAS  /var/folders/21/t9g5rlb91ys800n5npymflf80000gn/T//ccWK7fRs.s 			page 23


 664 0192 A06B     		ldr	r0, [r4, #56]
 665              	.LVL76:
 347:lvgl/src/extra/widgets/keyboard/lv_keyboard.c ****             lv_textarea_del_char(keyboard->ta);
 666              		.loc 1 347 13 is_stmt 0 view .LVU180
 667 0194 FFF7FEFF 		bl	lv_textarea_set_cursor_pos
 668              	.LVL77:
 348:lvgl/src/extra/widgets/keyboard/lv_keyboard.c ****             lv_textarea_add_char(keyboard->ta, '+');
 669              		.loc 1 348 13 is_stmt 1 view .LVU181
 670 0198 A06B     		ldr	r0, [r4, #56]
 671 019a FFF7FEFF 		bl	lv_textarea_del_char
 672              	.LVL78:
 349:lvgl/src/extra/widgets/keyboard/lv_keyboard.c ****             lv_textarea_set_cursor_pos(keyboard->ta, cur);
 673              		.loc 1 349 13 view .LVU182
 674 019e 2B21     		movs	r1, #43
 675 01a0 A06B     		ldr	r0, [r4, #56]
 676 01a2 FFF7FEFF 		bl	lv_textarea_add_char
 677              	.LVL79:
 350:lvgl/src/extra/widgets/keyboard/lv_keyboard.c ****         }
 678              		.loc 1 350 13 view .LVU183
 679 01a6 A9B2     		uxth	r1, r5
 680 01a8 A06B     		ldr	r0, [r4, #56]
 681 01aa FFF7FEFF 		bl	lv_textarea_set_cursor_pos
 682              	.LVL80:
 683 01ae 6BE7     		b	.L17
 684              	.LVL81:
 685              	.L44:
 353:lvgl/src/extra/widgets/keyboard/lv_keyboard.c ****             lv_textarea_del_char(keyboard->ta);
 686              		.loc 1 353 13 view .LVU184
 687 01b0 0121     		movs	r1, #1
 688 01b2 A06B     		ldr	r0, [r4, #56]
 689              	.LVL82:
 353:lvgl/src/extra/widgets/keyboard/lv_keyboard.c ****             lv_textarea_del_char(keyboard->ta);
 690              		.loc 1 353 13 is_stmt 0 view .LVU185
 691 01b4 FFF7FEFF 		bl	lv_textarea_set_cursor_pos
 692              	.LVL83:
 354:lvgl/src/extra/widgets/keyboard/lv_keyboard.c ****             lv_textarea_add_char(keyboard->ta, '-');
 693              		.loc 1 354 13 is_stmt 1 view .LVU186
 694 01b8 A06B     		ldr	r0, [r4, #56]
 695 01ba FFF7FEFF 		bl	lv_textarea_del_char
 696              	.LVL84:
 355:lvgl/src/extra/widgets/keyboard/lv_keyboard.c ****             lv_textarea_set_cursor_pos(keyboard->ta, cur);
 697              		.loc 1 355 13 view .LVU187
 698 01be 2D21     		movs	r1, #45
 699 01c0 A06B     		ldr	r0, [r4, #56]
 700 01c2 FFF7FEFF 		bl	lv_textarea_add_char
 701              	.LVL85:
 356:lvgl/src/extra/widgets/keyboard/lv_keyboard.c ****         }
 702              		.loc 1 356 13 view .LVU188
 703 01c6 A9B2     		uxth	r1, r5
 704 01c8 A06B     		ldr	r0, [r4, #56]
 705 01ca FFF7FEFF 		bl	lv_textarea_set_cursor_pos
 706              	.LVL86:
 707 01ce 5BE7     		b	.L17
 708              	.LVL87:
 709              	.L32:
 356:lvgl/src/extra/widgets/keyboard/lv_keyboard.c ****         }
 710              		.loc 1 356 13 is_stmt 0 view .LVU189
ARM GAS  /var/folders/21/t9g5rlb91ys800n5npymflf80000gn/T//ccWK7fRs.s 			page 24


 711              	.LBE8:
 365:lvgl/src/extra/widgets/keyboard/lv_keyboard.c ****     }
 712              		.loc 1 365 9 is_stmt 1 view .LVU190
 713 01d0 2946     		mov	r1, r5
 714 01d2 3046     		mov	r0, r6
 715 01d4 FFF7FEFF 		bl	lv_textarea_add_text
 716              	.LVL88:
 717 01d8 56E7     		b	.L17
 718              	.L46:
 719 01da 00BF     		.align	2
 720              	.L45:
 721 01dc 00000000 		.word	.LC0
 722 01e0 04000000 		.word	.LC1
 723 01e4 08000000 		.word	.LC2
 724 01e8 0C000000 		.word	.LC3
 725 01ec 10000000 		.word	.LC4
 726 01f0 00000000 		.word	kb_map
 727 01f4 14000000 		.word	.LC5
 728 01f8 18000000 		.word	.LC6
 729 01fc 20000000 		.word	.LC7
 730 0200 24000000 		.word	.LC8
 731 0204 28000000 		.word	.LC9
 732 0208 2C000000 		.word	.LC10
 733 020c 30000000 		.word	.LC11
 734              		.cfi_endproc
 735              	.LFE181:
 737              		.section	.text.lv_keyboard_create,"ax",%progbits
 738              		.align	1
 739              		.global	lv_keyboard_create
 740              		.syntax unified
 741              		.thumb
 742              		.thumb_func
 744              	lv_keyboard_create:
 745              	.LVL89:
 746              	.LFB173:
 138:lvgl/src/extra/widgets/keyboard/lv_keyboard.c ****     LV_LOG_INFO("begin");
 747              		.loc 1 138 1 view -0
 748              		.cfi_startproc
 749              		@ args = 0, pretend = 0, frame = 0
 750              		@ frame_needed = 0, uses_anonymous_args = 0
 138:lvgl/src/extra/widgets/keyboard/lv_keyboard.c ****     LV_LOG_INFO("begin");
 751              		.loc 1 138 1 is_stmt 0 view .LVU192
 752 0000 10B5     		push	{r4, lr}
 753              	.LCFI4:
 754              		.cfi_def_cfa_offset 8
 755              		.cfi_offset 4, -8
 756              		.cfi_offset 14, -4
 757 0002 0146     		mov	r1, r0
 139:lvgl/src/extra/widgets/keyboard/lv_keyboard.c ****     lv_obj_t * obj = lv_obj_class_create_obj(&lv_keyboard_class, parent);
 758              		.loc 1 139 5 is_stmt 1 view .LVU193
 139:lvgl/src/extra/widgets/keyboard/lv_keyboard.c ****     lv_obj_t * obj = lv_obj_class_create_obj(&lv_keyboard_class, parent);
 759              		.loc 1 139 5 view .LVU194
 139:lvgl/src/extra/widgets/keyboard/lv_keyboard.c ****     lv_obj_t * obj = lv_obj_class_create_obj(&lv_keyboard_class, parent);
 760              		.loc 1 139 5 view .LVU195
 140:lvgl/src/extra/widgets/keyboard/lv_keyboard.c ****     lv_obj_class_init_obj(obj);
 761              		.loc 1 140 5 view .LVU196
 140:lvgl/src/extra/widgets/keyboard/lv_keyboard.c ****     lv_obj_class_init_obj(obj);
ARM GAS  /var/folders/21/t9g5rlb91ys800n5npymflf80000gn/T//ccWK7fRs.s 			page 25


 762              		.loc 1 140 22 is_stmt 0 view .LVU197
 763 0004 0348     		ldr	r0, .L49
 764              	.LVL90:
 140:lvgl/src/extra/widgets/keyboard/lv_keyboard.c ****     lv_obj_class_init_obj(obj);
 765              		.loc 1 140 22 view .LVU198
 766 0006 FFF7FEFF 		bl	lv_obj_class_create_obj
 767              	.LVL91:
 140:lvgl/src/extra/widgets/keyboard/lv_keyboard.c ****     lv_obj_class_init_obj(obj);
 768              		.loc 1 140 22 view .LVU199
 769 000a 0446     		mov	r4, r0
 770              	.LVL92:
 141:lvgl/src/extra/widgets/keyboard/lv_keyboard.c ****     return obj;
 771              		.loc 1 141 5 is_stmt 1 view .LVU200
 772 000c FFF7FEFF 		bl	lv_obj_class_init_obj
 773              	.LVL93:
 142:lvgl/src/extra/widgets/keyboard/lv_keyboard.c **** }
 774              		.loc 1 142 5 view .LVU201
 143:lvgl/src/extra/widgets/keyboard/lv_keyboard.c **** 
 775              		.loc 1 143 1 is_stmt 0 view .LVU202
 776 0010 2046     		mov	r0, r4
 777 0012 10BD     		pop	{r4, pc}
 778              	.LVL94:
 779              	.L50:
 143:lvgl/src/extra/widgets/keyboard/lv_keyboard.c **** 
 780              		.loc 1 143 1 view .LVU203
 781              		.align	2
 782              	.L49:
 783 0014 00000000 		.word	lv_keyboard_class
 784              		.cfi_endproc
 785              	.LFE173:
 787              		.section	.text.lv_keyboard_set_textarea,"ax",%progbits
 788              		.align	1
 789              		.global	lv_keyboard_set_textarea
 790              		.syntax unified
 791              		.thumb
 792              		.thumb_func
 794              	lv_keyboard_set_textarea:
 795              	.LVL95:
 796              	.LFB174:
 155:lvgl/src/extra/widgets/keyboard/lv_keyboard.c ****     if(ta) {
 797              		.loc 1 155 1 is_stmt 1 view -0
 798              		.cfi_startproc
 799              		@ args = 0, pretend = 0, frame = 0
 800              		@ frame_needed = 0, uses_anonymous_args = 0
 155:lvgl/src/extra/widgets/keyboard/lv_keyboard.c ****     if(ta) {
 801              		.loc 1 155 1 is_stmt 0 view .LVU205
 802 0000 38B5     		push	{r3, r4, r5, lr}
 803              	.LCFI5:
 804              		.cfi_def_cfa_offset 16
 805              		.cfi_offset 3, -16
 806              		.cfi_offset 4, -12
 807              		.cfi_offset 5, -8
 808              		.cfi_offset 14, -4
 809 0002 0446     		mov	r4, r0
 810 0004 0D46     		mov	r5, r1
 156:lvgl/src/extra/widgets/keyboard/lv_keyboard.c ****         LV_ASSERT_OBJ(ta, &lv_textarea_class);
 811              		.loc 1 156 5 is_stmt 1 view .LVU206
ARM GAS  /var/folders/21/t9g5rlb91ys800n5npymflf80000gn/T//ccWK7fRs.s 			page 26


 157:lvgl/src/extra/widgets/keyboard/lv_keyboard.c ****     }
 812              		.loc 1 157 9 view .LVU207
 157:lvgl/src/extra/widgets/keyboard/lv_keyboard.c ****     }
 813              		.loc 1 157 9 view .LVU208
 157:lvgl/src/extra/widgets/keyboard/lv_keyboard.c ****     }
 814              		.loc 1 157 9 view .LVU209
 160:lvgl/src/extra/widgets/keyboard/lv_keyboard.c ****     lv_keyboard_t * keyboard = (lv_keyboard_t *)obj;
 815              		.loc 1 160 5 view .LVU210
 160:lvgl/src/extra/widgets/keyboard/lv_keyboard.c ****     lv_keyboard_t * keyboard = (lv_keyboard_t *)obj;
 816              		.loc 1 160 5 view .LVU211
 160:lvgl/src/extra/widgets/keyboard/lv_keyboard.c ****     lv_keyboard_t * keyboard = (lv_keyboard_t *)obj;
 817              		.loc 1 160 5 view .LVU212
 161:lvgl/src/extra/widgets/keyboard/lv_keyboard.c **** 
 818              		.loc 1 161 5 view .LVU213
 819              	.LVL96:
 164:lvgl/src/extra/widgets/keyboard/lv_keyboard.c ****         lv_obj_clear_state(obj, LV_STATE_FOCUSED);
 820              		.loc 1 164 5 view .LVU214
 164:lvgl/src/extra/widgets/keyboard/lv_keyboard.c ****         lv_obj_clear_state(obj, LV_STATE_FOCUSED);
 821              		.loc 1 164 16 is_stmt 0 view .LVU215
 822 0006 836B     		ldr	r3, [r0, #56]
 164:lvgl/src/extra/widgets/keyboard/lv_keyboard.c ****         lv_obj_clear_state(obj, LV_STATE_FOCUSED);
 823              		.loc 1 164 7 view .LVU216
 824 0008 13B1     		cbz	r3, .L52
 165:lvgl/src/extra/widgets/keyboard/lv_keyboard.c ****     }
 825              		.loc 1 165 9 is_stmt 1 view .LVU217
 826 000a 0221     		movs	r1, #2
 827              	.LVL97:
 165:lvgl/src/extra/widgets/keyboard/lv_keyboard.c ****     }
 828              		.loc 1 165 9 is_stmt 0 view .LVU218
 829 000c FFF7FEFF 		bl	lv_obj_clear_state
 830              	.LVL98:
 831              	.L52:
 168:lvgl/src/extra/widgets/keyboard/lv_keyboard.c **** 
 832              		.loc 1 168 5 is_stmt 1 view .LVU219
 168:lvgl/src/extra/widgets/keyboard/lv_keyboard.c **** 
 833              		.loc 1 168 18 is_stmt 0 view .LVU220
 834 0010 A563     		str	r5, [r4, #56]
 171:lvgl/src/extra/widgets/keyboard/lv_keyboard.c ****         lv_obj_add_flag(obj, LV_STATE_FOCUSED);
 835              		.loc 1 171 5 is_stmt 1 view .LVU221
 171:lvgl/src/extra/widgets/keyboard/lv_keyboard.c ****         lv_obj_add_flag(obj, LV_STATE_FOCUSED);
 836              		.loc 1 171 7 is_stmt 0 view .LVU222
 837 0012 1DB1     		cbz	r5, .L51
 172:lvgl/src/extra/widgets/keyboard/lv_keyboard.c ****     }
 838              		.loc 1 172 9 is_stmt 1 view .LVU223
 839 0014 0221     		movs	r1, #2
 840 0016 2046     		mov	r0, r4
 841 0018 FFF7FEFF 		bl	lv_obj_add_flag
 842              	.LVL99:
 843              	.L51:
 174:lvgl/src/extra/widgets/keyboard/lv_keyboard.c **** 
 844              		.loc 1 174 1 is_stmt 0 view .LVU224
 845 001c 38BD     		pop	{r3, r4, r5, pc}
 174:lvgl/src/extra/widgets/keyboard/lv_keyboard.c **** 
 846              		.loc 1 174 1 view .LVU225
 847              		.cfi_endproc
 848              	.LFE174:
 850              		.section	.text.lv_keyboard_set_mode,"ax",%progbits
ARM GAS  /var/folders/21/t9g5rlb91ys800n5npymflf80000gn/T//ccWK7fRs.s 			page 27


 851              		.align	1
 852              		.global	lv_keyboard_set_mode
 853              		.syntax unified
 854              		.thumb
 855              		.thumb_func
 857              	lv_keyboard_set_mode:
 858              	.LVL100:
 859              	.LFB175:
 182:lvgl/src/extra/widgets/keyboard/lv_keyboard.c ****     LV_ASSERT_OBJ(obj, MY_CLASS);
 860              		.loc 1 182 1 is_stmt 1 view -0
 861              		.cfi_startproc
 862              		@ args = 0, pretend = 0, frame = 0
 863              		@ frame_needed = 0, uses_anonymous_args = 0
 182:lvgl/src/extra/widgets/keyboard/lv_keyboard.c ****     LV_ASSERT_OBJ(obj, MY_CLASS);
 864              		.loc 1 182 1 is_stmt 0 view .LVU227
 865 0000 08B5     		push	{r3, lr}
 866              	.LCFI6:
 867              		.cfi_def_cfa_offset 8
 868              		.cfi_offset 3, -8
 869              		.cfi_offset 14, -4
 183:lvgl/src/extra/widgets/keyboard/lv_keyboard.c ****     lv_keyboard_t * keyboard = (lv_keyboard_t *)obj;
 870              		.loc 1 183 5 is_stmt 1 view .LVU228
 183:lvgl/src/extra/widgets/keyboard/lv_keyboard.c ****     lv_keyboard_t * keyboard = (lv_keyboard_t *)obj;
 871              		.loc 1 183 5 view .LVU229
 183:lvgl/src/extra/widgets/keyboard/lv_keyboard.c ****     lv_keyboard_t * keyboard = (lv_keyboard_t *)obj;
 872              		.loc 1 183 5 view .LVU230
 184:lvgl/src/extra/widgets/keyboard/lv_keyboard.c ****     if(keyboard->mode == mode) return;
 873              		.loc 1 184 5 view .LVU231
 874              	.LVL101:
 185:lvgl/src/extra/widgets/keyboard/lv_keyboard.c **** 
 875              		.loc 1 185 5 view .LVU232
 185:lvgl/src/extra/widgets/keyboard/lv_keyboard.c **** 
 876              		.loc 1 185 16 is_stmt 0 view .LVU233
 877 0002 90F83C30 		ldrb	r3, [r0, #60]	@ zero_extendqisi2
 185:lvgl/src/extra/widgets/keyboard/lv_keyboard.c **** 
 878              		.loc 1 185 7 view .LVU234
 879 0006 8B42     		cmp	r3, r1
 880 0008 03D0     		beq	.L55
 187:lvgl/src/extra/widgets/keyboard/lv_keyboard.c ****     lv_keyboard_update_map(obj);
 881              		.loc 1 187 5 is_stmt 1 view .LVU235
 187:lvgl/src/extra/widgets/keyboard/lv_keyboard.c ****     lv_keyboard_update_map(obj);
 882              		.loc 1 187 20 is_stmt 0 view .LVU236
 883 000a 80F83C10 		strb	r1, [r0, #60]
 188:lvgl/src/extra/widgets/keyboard/lv_keyboard.c **** }
 884              		.loc 1 188 5 is_stmt 1 view .LVU237
 885 000e FFF7FEFF 		bl	lv_keyboard_update_map
 886              	.LVL102:
 887              	.L55:
 189:lvgl/src/extra/widgets/keyboard/lv_keyboard.c **** 
 888              		.loc 1 189 1 is_stmt 0 view .LVU238
 889 0012 08BD     		pop	{r3, pc}
 890              		.cfi_endproc
 891              	.LFE175:
 893              		.section	.text.lv_keyboard_set_popovers,"ax",%progbits
 894              		.align	1
 895              		.global	lv_keyboard_set_popovers
 896              		.syntax unified
ARM GAS  /var/folders/21/t9g5rlb91ys800n5npymflf80000gn/T//ccWK7fRs.s 			page 28


 897              		.thumb
 898              		.thumb_func
 900              	lv_keyboard_set_popovers:
 901              	.LVL103:
 902              	.LFB176:
 197:lvgl/src/extra/widgets/keyboard/lv_keyboard.c ****     lv_keyboard_t * keyboard = (lv_keyboard_t *)obj;
 903              		.loc 1 197 1 is_stmt 1 view -0
 904              		.cfi_startproc
 905              		@ args = 0, pretend = 0, frame = 0
 906              		@ frame_needed = 0, uses_anonymous_args = 0
 197:lvgl/src/extra/widgets/keyboard/lv_keyboard.c ****     lv_keyboard_t * keyboard = (lv_keyboard_t *)obj;
 907              		.loc 1 197 1 is_stmt 0 view .LVU240
 908 0000 08B5     		push	{r3, lr}
 909              	.LCFI7:
 910              		.cfi_def_cfa_offset 8
 911              		.cfi_offset 3, -8
 912              		.cfi_offset 14, -4
 198:lvgl/src/extra/widgets/keyboard/lv_keyboard.c **** 
 913              		.loc 1 198 5 is_stmt 1 view .LVU241
 914              	.LVL104:
 200:lvgl/src/extra/widgets/keyboard/lv_keyboard.c ****         return;
 915              		.loc 1 200 5 view .LVU242
 200:lvgl/src/extra/widgets/keyboard/lv_keyboard.c ****         return;
 916              		.loc 1 200 16 is_stmt 0 view .LVU243
 917 0002 90F83D30 		ldrb	r3, [r0, #61]	@ zero_extendqisi2
 918 0006 03F00103 		and	r3, r3, #1
 200:lvgl/src/extra/widgets/keyboard/lv_keyboard.c ****         return;
 919              		.loc 1 200 7 view .LVU244
 920 000a 8B42     		cmp	r3, r1
 921 000c 07D0     		beq	.L58
 204:lvgl/src/extra/widgets/keyboard/lv_keyboard.c ****     lv_keyboard_update_ctrl_map(obj);
 922              		.loc 1 204 5 is_stmt 1 view .LVU245
 204:lvgl/src/extra/widgets/keyboard/lv_keyboard.c ****     lv_keyboard_update_ctrl_map(obj);
 923              		.loc 1 204 24 is_stmt 0 view .LVU246
 924 000e 90F83D30 		ldrb	r3, [r0, #61]	@ zero_extendqisi2
 925 0012 61F30003 		bfi	r3, r1, #0, #1
 926 0016 80F83D30 		strb	r3, [r0, #61]
 205:lvgl/src/extra/widgets/keyboard/lv_keyboard.c **** }
 927              		.loc 1 205 5 is_stmt 1 view .LVU247
 928 001a FFF7FEFF 		bl	lv_keyboard_update_ctrl_map
 929              	.LVL105:
 930              	.L58:
 206:lvgl/src/extra/widgets/keyboard/lv_keyboard.c **** 
 931              		.loc 1 206 1 is_stmt 0 view .LVU248
 932 001e 08BD     		pop	{r3, pc}
 933              		.cfi_endproc
 934              	.LFE176:
 936              		.section	.text.lv_keyboard_set_map,"ax",%progbits
 937              		.align	1
 938              		.global	lv_keyboard_set_map
 939              		.syntax unified
 940              		.thumb
 941              		.thumb_func
 943              	lv_keyboard_set_map:
 944              	.LVL106:
 945              	.LFB177:
 217:lvgl/src/extra/widgets/keyboard/lv_keyboard.c ****     kb_map[mode] = map;
ARM GAS  /var/folders/21/t9g5rlb91ys800n5npymflf80000gn/T//ccWK7fRs.s 			page 29


 946              		.loc 1 217 1 is_stmt 1 view -0
 947              		.cfi_startproc
 948              		@ args = 0, pretend = 0, frame = 0
 949              		@ frame_needed = 0, uses_anonymous_args = 0
 217:lvgl/src/extra/widgets/keyboard/lv_keyboard.c ****     kb_map[mode] = map;
 950              		.loc 1 217 1 is_stmt 0 view .LVU250
 951 0000 10B5     		push	{r4, lr}
 952              	.LCFI8:
 953              		.cfi_def_cfa_offset 8
 954              		.cfi_offset 4, -8
 955              		.cfi_offset 14, -4
 218:lvgl/src/extra/widgets/keyboard/lv_keyboard.c ****     kb_ctrl[mode] = ctrl_map;
 956              		.loc 1 218 5 is_stmt 1 view .LVU251
 218:lvgl/src/extra/widgets/keyboard/lv_keyboard.c ****     kb_ctrl[mode] = ctrl_map;
 957              		.loc 1 218 18 is_stmt 0 view .LVU252
 958 0002 044C     		ldr	r4, .L63
 959 0004 44F82120 		str	r2, [r4, r1, lsl #2]
 219:lvgl/src/extra/widgets/keyboard/lv_keyboard.c ****     lv_keyboard_update_map(obj);
 960              		.loc 1 219 5 is_stmt 1 view .LVU253
 219:lvgl/src/extra/widgets/keyboard/lv_keyboard.c ****     lv_keyboard_update_map(obj);
 961              		.loc 1 219 19 is_stmt 0 view .LVU254
 962 0008 034A     		ldr	r2, .L63+4
 963              	.LVL107:
 219:lvgl/src/extra/widgets/keyboard/lv_keyboard.c ****     lv_keyboard_update_map(obj);
 964              		.loc 1 219 19 view .LVU255
 965 000a 42F82130 		str	r3, [r2, r1, lsl #2]
 220:lvgl/src/extra/widgets/keyboard/lv_keyboard.c **** }
 966              		.loc 1 220 5 is_stmt 1 view .LVU256
 967 000e FFF7FEFF 		bl	lv_keyboard_update_map
 968              	.LVL108:
 221:lvgl/src/extra/widgets/keyboard/lv_keyboard.c **** 
 969              		.loc 1 221 1 is_stmt 0 view .LVU257
 970 0012 10BD     		pop	{r4, pc}
 971              	.L64:
 972              		.align	2
 973              	.L63:
 974 0014 00000000 		.word	kb_map
 975 0018 00000000 		.word	kb_ctrl
 976              		.cfi_endproc
 977              	.LFE177:
 979              		.section	.text.lv_keyboard_get_textarea,"ax",%progbits
 980              		.align	1
 981              		.global	lv_keyboard_get_textarea
 982              		.syntax unified
 983              		.thumb
 984              		.thumb_func
 986              	lv_keyboard_get_textarea:
 987              	.LVL109:
 988              	.LFB178:
 233:lvgl/src/extra/widgets/keyboard/lv_keyboard.c ****     LV_ASSERT_OBJ(obj, MY_CLASS);
 989              		.loc 1 233 1 is_stmt 1 view -0
 990              		.cfi_startproc
 991              		@ args = 0, pretend = 0, frame = 0
 992              		@ frame_needed = 0, uses_anonymous_args = 0
 993              		@ link register save eliminated.
 234:lvgl/src/extra/widgets/keyboard/lv_keyboard.c ****     lv_keyboard_t * keyboard = (lv_keyboard_t *)obj;
 994              		.loc 1 234 5 view .LVU259
ARM GAS  /var/folders/21/t9g5rlb91ys800n5npymflf80000gn/T//ccWK7fRs.s 			page 30


 234:lvgl/src/extra/widgets/keyboard/lv_keyboard.c ****     lv_keyboard_t * keyboard = (lv_keyboard_t *)obj;
 995              		.loc 1 234 5 view .LVU260
 234:lvgl/src/extra/widgets/keyboard/lv_keyboard.c ****     lv_keyboard_t * keyboard = (lv_keyboard_t *)obj;
 996              		.loc 1 234 5 view .LVU261
 235:lvgl/src/extra/widgets/keyboard/lv_keyboard.c ****     return keyboard->ta;
 997              		.loc 1 235 5 view .LVU262
 236:lvgl/src/extra/widgets/keyboard/lv_keyboard.c **** }
 998              		.loc 1 236 5 view .LVU263
 237:lvgl/src/extra/widgets/keyboard/lv_keyboard.c **** 
 999              		.loc 1 237 1 is_stmt 0 view .LVU264
 1000 0000 806B     		ldr	r0, [r0, #56]
 1001              	.LVL110:
 237:lvgl/src/extra/widgets/keyboard/lv_keyboard.c **** 
 1002              		.loc 1 237 1 view .LVU265
 1003 0002 7047     		bx	lr
 1004              		.cfi_endproc
 1005              	.LFE178:
 1007              		.section	.text.lv_keyboard_get_mode,"ax",%progbits
 1008              		.align	1
 1009              		.global	lv_keyboard_get_mode
 1010              		.syntax unified
 1011              		.thumb
 1012              		.thumb_func
 1014              	lv_keyboard_get_mode:
 1015              	.LVL111:
 1016              	.LFB179:
 245:lvgl/src/extra/widgets/keyboard/lv_keyboard.c ****     LV_ASSERT_OBJ(obj, MY_CLASS);
 1017              		.loc 1 245 1 is_stmt 1 view -0
 1018              		.cfi_startproc
 1019              		@ args = 0, pretend = 0, frame = 0
 1020              		@ frame_needed = 0, uses_anonymous_args = 0
 1021              		@ link register save eliminated.
 246:lvgl/src/extra/widgets/keyboard/lv_keyboard.c ****     lv_keyboard_t * keyboard = (lv_keyboard_t *)obj;
 1022              		.loc 1 246 5 view .LVU267
 246:lvgl/src/extra/widgets/keyboard/lv_keyboard.c ****     lv_keyboard_t * keyboard = (lv_keyboard_t *)obj;
 1023              		.loc 1 246 5 view .LVU268
 246:lvgl/src/extra/widgets/keyboard/lv_keyboard.c ****     lv_keyboard_t * keyboard = (lv_keyboard_t *)obj;
 1024              		.loc 1 246 5 view .LVU269
 247:lvgl/src/extra/widgets/keyboard/lv_keyboard.c ****     return keyboard->mode;
 1025              		.loc 1 247 5 view .LVU270
 248:lvgl/src/extra/widgets/keyboard/lv_keyboard.c **** }
 1026              		.loc 1 248 5 view .LVU271
 249:lvgl/src/extra/widgets/keyboard/lv_keyboard.c **** 
 1027              		.loc 1 249 1 is_stmt 0 view .LVU272
 1028 0000 90F83C00 		ldrb	r0, [r0, #60]	@ zero_extendqisi2
 1029              	.LVL112:
 249:lvgl/src/extra/widgets/keyboard/lv_keyboard.c **** 
 1030              		.loc 1 249 1 view .LVU273
 1031 0004 7047     		bx	lr
 1032              		.cfi_endproc
 1033              	.LFE179:
 1035              		.section	.text.lv_btnmatrix_get_popovers,"ax",%progbits
 1036              		.align	1
 1037              		.global	lv_btnmatrix_get_popovers
 1038              		.syntax unified
 1039              		.thumb
 1040              		.thumb_func
ARM GAS  /var/folders/21/t9g5rlb91ys800n5npymflf80000gn/T//ccWK7fRs.s 			page 31


 1042              	lv_btnmatrix_get_popovers:
 1043              	.LVL113:
 1044              	.LFB180:
 257:lvgl/src/extra/widgets/keyboard/lv_keyboard.c ****     lv_keyboard_t * keyboard = (lv_keyboard_t *)obj;
 1045              		.loc 1 257 1 is_stmt 1 view -0
 1046              		.cfi_startproc
 1047              		@ args = 0, pretend = 0, frame = 0
 1048              		@ frame_needed = 0, uses_anonymous_args = 0
 1049              		@ link register save eliminated.
 258:lvgl/src/extra/widgets/keyboard/lv_keyboard.c ****     return keyboard->popovers;
 1050              		.loc 1 258 5 view .LVU275
 259:lvgl/src/extra/widgets/keyboard/lv_keyboard.c **** }
 1051              		.loc 1 259 5 view .LVU276
 259:lvgl/src/extra/widgets/keyboard/lv_keyboard.c **** }
 1052              		.loc 1 259 20 is_stmt 0 view .LVU277
 1053 0000 90F83D00 		ldrb	r0, [r0, #61]	@ zero_extendqisi2
 1054              	.LVL114:
 260:lvgl/src/extra/widgets/keyboard/lv_keyboard.c **** 
 1055              		.loc 1 260 1 view .LVU278
 1056 0004 00F00100 		and	r0, r0, #1
 1057 0008 7047     		bx	lr
 1058              		.cfi_endproc
 1059              	.LFE180:
 1061              		.section	.data.kb_ctrl,"aw"
 1062              		.align	2
 1065              	kb_ctrl:
 1066 0000 00000000 		.word	default_kb_ctrl_lc_map
 1067 0004 00000000 		.word	default_kb_ctrl_uc_map
 1068 0008 00000000 		.word	default_kb_ctrl_spec_map
 1069 000c 00000000 		.word	default_kb_ctrl_num_map
 1070 0010 00000000 		.word	default_kb_ctrl_lc_map
 1071 0014 00000000 		.word	default_kb_ctrl_lc_map
 1072 0018 00000000 		.word	default_kb_ctrl_lc_map
 1073 001c 00000000 		.word	default_kb_ctrl_lc_map
 1074 0020 00000000 		.word	0
 1075              		.section	.data.kb_map,"aw"
 1076              		.align	2
 1079              	kb_map:
 1080 0000 00000000 		.word	default_kb_map_lc
 1081 0004 00000000 		.word	default_kb_map_uc
 1082 0008 00000000 		.word	default_kb_map_spec
 1083 000c 00000000 		.word	default_kb_map_num
 1084 0010 00000000 		.word	default_kb_map_lc
 1085 0014 00000000 		.word	default_kb_map_lc
 1086 0018 00000000 		.word	default_kb_map_lc
 1087 001c 00000000 		.word	default_kb_map_lc
 1088 0020 00000000 		.word	0
 1089              		.section	.rodata.default_kb_ctrl_num_map,"a"
 1090              		.align	2
 1093              	default_kb_ctrl_num_map:
 1094 0000 0100     		.short	1
 1095 0002 0100     		.short	1
 1096 0004 0100     		.short	1
 1097 0006 2203     		.short	802
 1098 0008 0100     		.short	1
 1099 000a 0100     		.short	1
 1100 000c 0100     		.short	1
ARM GAS  /var/folders/21/t9g5rlb91ys800n5npymflf80000gn/T//ccWK7fRs.s 			page 32


 1101 000e 2203     		.short	802
 1102 0010 0100     		.short	1
 1103 0012 0100     		.short	1
 1104 0014 0100     		.short	1
 1105 0016 0200     		.short	2
 1106 0018 0100     		.short	1
 1107 001a 0100     		.short	1
 1108 001c 0100     		.short	1
 1109 001e 0100     		.short	1
 1110 0020 0100     		.short	1
 1111              		.section	.rodata.str1.4,"aMS",%progbits,1
 1112              		.align	2
 1113              	.LC12:
 1114 0000 3100     		.ascii	"1\000"
 1115 0002 0000     		.align	2
 1116              	.LC13:
 1117 0004 3200     		.ascii	"2\000"
 1118 0006 0000     		.align	2
 1119              	.LC14:
 1120 0008 3300     		.ascii	"3\000"
 1121 000a 0000     		.align	2
 1122              	.LC15:
 1123 000c 0A00     		.ascii	"\012\000"
 1124 000e 0000     		.align	2
 1125              	.LC16:
 1126 0010 3400     		.ascii	"4\000"
 1127 0012 0000     		.align	2
 1128              	.LC17:
 1129 0014 3500     		.ascii	"5\000"
 1130 0016 0000     		.align	2
 1131              	.LC18:
 1132 0018 3600     		.ascii	"6\000"
 1133 001a 0000     		.align	2
 1134              	.LC19:
 1135 001c 3700     		.ascii	"7\000"
 1136 001e 0000     		.align	2
 1137              	.LC20:
 1138 0020 3800     		.ascii	"8\000"
 1139 0022 0000     		.align	2
 1140              	.LC21:
 1141 0024 3900     		.ascii	"9\000"
 1142 0026 0000     		.align	2
 1143              	.LC22:
 1144 0028 3000     		.ascii	"0\000"
 1145 002a 0000     		.align	2
 1146              	.LC23:
 1147 002c 2E00     		.ascii	".\000"
 1148 002e 0000     		.align	2
 1149              	.LC24:
 1150 0030 00       		.ascii	"\000"
 1151              		.section	.rodata.default_kb_map_num,"a"
 1152              		.align	2
 1155              	default_kb_map_num:
 1156 0000 00000000 		.word	.LC12
 1157 0004 04000000 		.word	.LC13
 1158 0008 08000000 		.word	.LC14
 1159 000c 10000000 		.word	.LC4
ARM GAS  /var/folders/21/t9g5rlb91ys800n5npymflf80000gn/T//ccWK7fRs.s 			page 33


 1160 0010 0C000000 		.word	.LC15
 1161 0014 10000000 		.word	.LC16
 1162 0018 14000000 		.word	.LC17
 1163 001c 18000000 		.word	.LC18
 1164 0020 14000000 		.word	.LC5
 1165 0024 0C000000 		.word	.LC15
 1166 0028 1C000000 		.word	.LC19
 1167 002c 20000000 		.word	.LC20
 1168 0030 24000000 		.word	.LC21
 1169 0034 2C000000 		.word	.LC10
 1170 0038 0C000000 		.word	.LC15
 1171 003c 30000000 		.word	.LC11
 1172 0040 28000000 		.word	.LC22
 1173 0044 2C000000 		.word	.LC23
 1174 0048 24000000 		.word	.LC8
 1175 004c 28000000 		.word	.LC9
 1176 0050 30000000 		.word	.LC24
 1177              		.section	.rodata.default_kb_ctrl_spec_map,"a"
 1178              		.align	2
 1181              	default_kb_ctrl_spec_map:
 1182 0000 0104     		.short	1025
 1183 0002 0104     		.short	1025
 1184 0004 0104     		.short	1025
 1185 0006 0104     		.short	1025
 1186 0008 0104     		.short	1025
 1187 000a 0104     		.short	1025
 1188 000c 0104     		.short	1025
 1189 000e 0104     		.short	1025
 1190 0010 0104     		.short	1025
 1191 0012 0104     		.short	1025
 1192 0014 0201     		.short	258
 1193 0016 2203     		.short	802
 1194 0018 0104     		.short	1025
 1195 001a 0104     		.short	1025
 1196 001c 0104     		.short	1025
 1197 001e 0104     		.short	1025
 1198 0020 0104     		.short	1025
 1199 0022 0104     		.short	1025
 1200 0024 0104     		.short	1025
 1201 0026 0104     		.short	1025
 1202 0028 0104     		.short	1025
 1203 002a 0104     		.short	1025
 1204 002c 0104     		.short	1025
 1205 002e 0104     		.short	1025
 1206 0030 0104     		.short	1025
 1207 0032 0104     		.short	1025
 1208 0034 0104     		.short	1025
 1209 0036 0104     		.short	1025
 1210 0038 0104     		.short	1025
 1211 003a 0104     		.short	1025
 1212 003c 0104     		.short	1025
 1213 003e 0104     		.short	1025
 1214 0040 0104     		.short	1025
 1215 0042 0104     		.short	1025
 1216 0044 0104     		.short	1025
 1217 0046 2203     		.short	802
 1218 0048 0201     		.short	258
ARM GAS  /var/folders/21/t9g5rlb91ys800n5npymflf80000gn/T//ccWK7fRs.s 			page 34


 1219 004a 0600     		.short	6
 1220 004c 0201     		.short	258
 1221 004e 2203     		.short	802
 1222              		.section	.rodata.str1.4
 1223 0031 000000   		.align	2
 1224              	.LC25:
 1225 0034 2B00     		.ascii	"+\000"
 1226 0036 0000     		.align	2
 1227              	.LC26:
 1228 0038 2600     		.ascii	"&\000"
 1229 003a 0000     		.align	2
 1230              	.LC27:
 1231 003c 2F00     		.ascii	"/\000"
 1232 003e 0000     		.align	2
 1233              	.LC28:
 1234 0040 2A00     		.ascii	"*\000"
 1235 0042 0000     		.align	2
 1236              	.LC29:
 1237 0044 3D00     		.ascii	"=\000"
 1238 0046 0000     		.align	2
 1239              	.LC30:
 1240 0048 2500     		.ascii	"%\000"
 1241 004a 0000     		.align	2
 1242              	.LC31:
 1243 004c 2100     		.ascii	"!\000"
 1244 004e 0000     		.align	2
 1245              	.LC32:
 1246 0050 3F00     		.ascii	"?\000"
 1247 0052 0000     		.align	2
 1248              	.LC33:
 1249 0054 2300     		.ascii	"#\000"
 1250 0056 0000     		.align	2
 1251              	.LC34:
 1252 0058 3C00     		.ascii	"<\000"
 1253 005a 0000     		.align	2
 1254              	.LC35:
 1255 005c 3E00     		.ascii	">\000"
 1256 005e 0000     		.align	2
 1257              	.LC36:
 1258 0060 5C00     		.ascii	"\\\000"
 1259 0062 0000     		.align	2
 1260              	.LC37:
 1261 0064 4000     		.ascii	"@\000"
 1262 0066 0000     		.align	2
 1263              	.LC38:
 1264 0068 2400     		.ascii	"$\000"
 1265 006a 0000     		.align	2
 1266              	.LC39:
 1267 006c 2800     		.ascii	"(\000"
 1268 006e 0000     		.align	2
 1269              	.LC40:
 1270 0070 2900     		.ascii	")\000"
 1271 0072 0000     		.align	2
 1272              	.LC41:
 1273 0074 7B00     		.ascii	"{\000"
 1274 0076 0000     		.align	2
 1275              	.LC42:
ARM GAS  /var/folders/21/t9g5rlb91ys800n5npymflf80000gn/T//ccWK7fRs.s 			page 35


 1276 0078 7D00     		.ascii	"}\000"
 1277 007a 0000     		.align	2
 1278              	.LC43:
 1279 007c 5B00     		.ascii	"[\000"
 1280 007e 0000     		.align	2
 1281              	.LC44:
 1282 0080 5D00     		.ascii	"]\000"
 1283 0082 0000     		.align	2
 1284              	.LC45:
 1285 0084 3B00     		.ascii	";\000"
 1286 0086 0000     		.align	2
 1287              	.LC46:
 1288 0088 2200     		.ascii	"\"\000"
 1289 008a 0000     		.align	2
 1290              	.LC47:
 1291 008c 2700     		.ascii	"'\000"
 1292 008e 0000     		.align	2
 1293              	.LC48:
 1294 0090 2000     		.ascii	" \000"
 1295              		.section	.rodata.default_kb_map_spec,"a"
 1296              		.align	2
 1299              	default_kb_map_spec:
 1300 0000 00000000 		.word	.LC12
 1301 0004 04000000 		.word	.LC13
 1302 0008 08000000 		.word	.LC14
 1303 000c 10000000 		.word	.LC16
 1304 0010 14000000 		.word	.LC17
 1305 0014 18000000 		.word	.LC18
 1306 0018 1C000000 		.word	.LC19
 1307 001c 20000000 		.word	.LC20
 1308 0020 24000000 		.word	.LC21
 1309 0024 28000000 		.word	.LC22
 1310 0028 2C000000 		.word	.LC10
 1311 002c 0C000000 		.word	.LC15
 1312 0030 00000000 		.word	.LC0
 1313 0034 34000000 		.word	.LC25
 1314 0038 38000000 		.word	.LC26
 1315 003c 3C000000 		.word	.LC27
 1316 0040 40000000 		.word	.LC28
 1317 0044 44000000 		.word	.LC29
 1318 0048 48000000 		.word	.LC30
 1319 004c 4C000000 		.word	.LC31
 1320 0050 50000000 		.word	.LC32
 1321 0054 54000000 		.word	.LC33
 1322 0058 58000000 		.word	.LC34
 1323 005c 5C000000 		.word	.LC35
 1324 0060 0C000000 		.word	.LC15
 1325 0064 60000000 		.word	.LC36
 1326 0068 64000000 		.word	.LC37
 1327 006c 68000000 		.word	.LC38
 1328 0070 6C000000 		.word	.LC39
 1329 0074 70000000 		.word	.LC40
 1330 0078 74000000 		.word	.LC41
 1331 007c 78000000 		.word	.LC42
 1332 0080 7C000000 		.word	.LC43
 1333 0084 80000000 		.word	.LC44
 1334 0088 84000000 		.word	.LC45
ARM GAS  /var/folders/21/t9g5rlb91ys800n5npymflf80000gn/T//ccWK7fRs.s 			page 36


 1335 008c 88000000 		.word	.LC46
 1336 0090 8C000000 		.word	.LC47
 1337 0094 0C000000 		.word	.LC15
 1338 0098 10000000 		.word	.LC4
 1339 009c 24000000 		.word	.LC8
 1340 00a0 90000000 		.word	.LC48
 1341 00a4 28000000 		.word	.LC9
 1342 00a8 14000000 		.word	.LC5
 1343 00ac 30000000 		.word	.LC24
 1344              		.section	.rodata.default_kb_ctrl_uc_map,"a"
 1345              		.align	2
 1348              	default_kb_ctrl_uc_map:
 1349 0000 2503     		.short	805
 1350 0002 0404     		.short	1028
 1351 0004 0404     		.short	1028
 1352 0006 0404     		.short	1028
 1353 0008 0404     		.short	1028
 1354 000a 0404     		.short	1028
 1355 000c 0404     		.short	1028
 1356 000e 0404     		.short	1028
 1357 0010 0404     		.short	1028
 1358 0012 0404     		.short	1028
 1359 0014 0404     		.short	1028
 1360 0016 0701     		.short	263
 1361 0018 2603     		.short	806
 1362 001a 0304     		.short	1027
 1363 001c 0304     		.short	1027
 1364 001e 0304     		.short	1027
 1365 0020 0304     		.short	1027
 1366 0022 0304     		.short	1027
 1367 0024 0304     		.short	1027
 1368 0026 0304     		.short	1027
 1369 0028 0304     		.short	1027
 1370 002a 0304     		.short	1027
 1371 002c 0701     		.short	263
 1372 002e 0105     		.short	1281
 1373 0030 0105     		.short	1281
 1374 0032 0104     		.short	1025
 1375 0034 0104     		.short	1025
 1376 0036 0104     		.short	1025
 1377 0038 0104     		.short	1025
 1378 003a 0104     		.short	1025
 1379 003c 0104     		.short	1025
 1380 003e 0104     		.short	1025
 1381 0040 0105     		.short	1281
 1382 0042 0105     		.short	1281
 1383 0044 0105     		.short	1281
 1384 0046 2203     		.short	802
 1385 0048 0201     		.short	258
 1386 004a 0600     		.short	6
 1387 004c 0201     		.short	258
 1388 004e 2203     		.short	802
 1389              		.section	.rodata.str1.4
 1390 0092 0000     		.align	2
 1391              	.LC49:
 1392 0094 5100     		.ascii	"Q\000"
 1393 0096 0000     		.align	2
ARM GAS  /var/folders/21/t9g5rlb91ys800n5npymflf80000gn/T//ccWK7fRs.s 			page 37


 1394              	.LC50:
 1395 0098 5700     		.ascii	"W\000"
 1396 009a 0000     		.align	2
 1397              	.LC51:
 1398 009c 4500     		.ascii	"E\000"
 1399 009e 0000     		.align	2
 1400              	.LC52:
 1401 00a0 5200     		.ascii	"R\000"
 1402 00a2 0000     		.align	2
 1403              	.LC53:
 1404 00a4 5400     		.ascii	"T\000"
 1405 00a6 0000     		.align	2
 1406              	.LC54:
 1407 00a8 5900     		.ascii	"Y\000"
 1408 00aa 0000     		.align	2
 1409              	.LC55:
 1410 00ac 5500     		.ascii	"U\000"
 1411 00ae 0000     		.align	2
 1412              	.LC56:
 1413 00b0 4900     		.ascii	"I\000"
 1414 00b2 0000     		.align	2
 1415              	.LC57:
 1416 00b4 4F00     		.ascii	"O\000"
 1417 00b6 0000     		.align	2
 1418              	.LC58:
 1419 00b8 5000     		.ascii	"P\000"
 1420 00ba 0000     		.align	2
 1421              	.LC59:
 1422 00bc 4100     		.ascii	"A\000"
 1423 00be 0000     		.align	2
 1424              	.LC60:
 1425 00c0 5300     		.ascii	"S\000"
 1426 00c2 0000     		.align	2
 1427              	.LC61:
 1428 00c4 4400     		.ascii	"D\000"
 1429 00c6 0000     		.align	2
 1430              	.LC62:
 1431 00c8 4600     		.ascii	"F\000"
 1432 00ca 0000     		.align	2
 1433              	.LC63:
 1434 00cc 4700     		.ascii	"G\000"
 1435 00ce 0000     		.align	2
 1436              	.LC64:
 1437 00d0 4800     		.ascii	"H\000"
 1438 00d2 0000     		.align	2
 1439              	.LC65:
 1440 00d4 4A00     		.ascii	"J\000"
 1441 00d6 0000     		.align	2
 1442              	.LC66:
 1443 00d8 4B00     		.ascii	"K\000"
 1444 00da 0000     		.align	2
 1445              	.LC67:
 1446 00dc 4C00     		.ascii	"L\000"
 1447 00de 0000     		.align	2
 1448              	.LC68:
 1449 00e0 5F00     		.ascii	"_\000"
 1450 00e2 0000     		.align	2
ARM GAS  /var/folders/21/t9g5rlb91ys800n5npymflf80000gn/T//ccWK7fRs.s 			page 38


 1451              	.LC69:
 1452 00e4 2D00     		.ascii	"-\000"
 1453 00e6 0000     		.align	2
 1454              	.LC70:
 1455 00e8 5A00     		.ascii	"Z\000"
 1456 00ea 0000     		.align	2
 1457              	.LC71:
 1458 00ec 5800     		.ascii	"X\000"
 1459 00ee 0000     		.align	2
 1460              	.LC72:
 1461 00f0 4300     		.ascii	"C\000"
 1462 00f2 0000     		.align	2
 1463              	.LC73:
 1464 00f4 5600     		.ascii	"V\000"
 1465 00f6 0000     		.align	2
 1466              	.LC74:
 1467 00f8 4200     		.ascii	"B\000"
 1468 00fa 0000     		.align	2
 1469              	.LC75:
 1470 00fc 4E00     		.ascii	"N\000"
 1471 00fe 0000     		.align	2
 1472              	.LC76:
 1473 0100 4D00     		.ascii	"M\000"
 1474 0102 0000     		.align	2
 1475              	.LC77:
 1476 0104 2C00     		.ascii	",\000"
 1477 0106 0000     		.align	2
 1478              	.LC78:
 1479 0108 3A00     		.ascii	":\000"
 1480              		.section	.rodata.default_kb_map_uc,"a"
 1481              		.align	2
 1484              	default_kb_map_uc:
 1485 0000 08000000 		.word	.LC2
 1486 0004 94000000 		.word	.LC49
 1487 0008 98000000 		.word	.LC50
 1488 000c 9C000000 		.word	.LC51
 1489 0010 A0000000 		.word	.LC52
 1490 0014 A4000000 		.word	.LC53
 1491 0018 A8000000 		.word	.LC54
 1492 001c AC000000 		.word	.LC55
 1493 0020 B0000000 		.word	.LC56
 1494 0024 B4000000 		.word	.LC57
 1495 0028 B8000000 		.word	.LC58
 1496 002c 2C000000 		.word	.LC10
 1497 0030 0C000000 		.word	.LC15
 1498 0034 00000000 		.word	.LC0
 1499 0038 BC000000 		.word	.LC59
 1500 003c C0000000 		.word	.LC60
 1501 0040 C4000000 		.word	.LC61
 1502 0044 C8000000 		.word	.LC62
 1503 0048 CC000000 		.word	.LC63
 1504 004c D0000000 		.word	.LC64
 1505 0050 D4000000 		.word	.LC65
 1506 0054 D8000000 		.word	.LC66
 1507 0058 DC000000 		.word	.LC67
 1508 005c 20000000 		.word	.LC7
 1509 0060 0C000000 		.word	.LC15
ARM GAS  /var/folders/21/t9g5rlb91ys800n5npymflf80000gn/T//ccWK7fRs.s 			page 39


 1510 0064 E0000000 		.word	.LC68
 1511 0068 E4000000 		.word	.LC69
 1512 006c E8000000 		.word	.LC70
 1513 0070 EC000000 		.word	.LC71
 1514 0074 F0000000 		.word	.LC72
 1515 0078 F4000000 		.word	.LC73
 1516 007c F8000000 		.word	.LC74
 1517 0080 FC000000 		.word	.LC75
 1518 0084 00010000 		.word	.LC76
 1519 0088 2C000000 		.word	.LC23
 1520 008c 04010000 		.word	.LC77
 1521 0090 08010000 		.word	.LC78
 1522 0094 0C000000 		.word	.LC15
 1523 0098 10000000 		.word	.LC4
 1524 009c 24000000 		.word	.LC8
 1525 00a0 90000000 		.word	.LC48
 1526 00a4 28000000 		.word	.LC9
 1527 00a8 14000000 		.word	.LC5
 1528 00ac 30000000 		.word	.LC24
 1529              		.section	.rodata.default_kb_ctrl_lc_map,"a"
 1530              		.align	2
 1533              	default_kb_ctrl_lc_map:
 1534 0000 2503     		.short	805
 1535 0002 0404     		.short	1028
 1536 0004 0404     		.short	1028
 1537 0006 0404     		.short	1028
 1538 0008 0404     		.short	1028
 1539 000a 0404     		.short	1028
 1540 000c 0404     		.short	1028
 1541 000e 0404     		.short	1028
 1542 0010 0404     		.short	1028
 1543 0012 0404     		.short	1028
 1544 0014 0404     		.short	1028
 1545 0016 0701     		.short	263
 1546 0018 2603     		.short	806
 1547 001a 0304     		.short	1027
 1548 001c 0304     		.short	1027
 1549 001e 0304     		.short	1027
 1550 0020 0304     		.short	1027
 1551 0022 0304     		.short	1027
 1552 0024 0304     		.short	1027
 1553 0026 0304     		.short	1027
 1554 0028 0304     		.short	1027
 1555 002a 0304     		.short	1027
 1556 002c 0701     		.short	263
 1557 002e 0105     		.short	1281
 1558 0030 0105     		.short	1281
 1559 0032 0104     		.short	1025
 1560 0034 0104     		.short	1025
 1561 0036 0104     		.short	1025
 1562 0038 0104     		.short	1025
 1563 003a 0104     		.short	1025
 1564 003c 0104     		.short	1025
 1565 003e 0104     		.short	1025
 1566 0040 0105     		.short	1281
 1567 0042 0105     		.short	1281
 1568 0044 0105     		.short	1281
ARM GAS  /var/folders/21/t9g5rlb91ys800n5npymflf80000gn/T//ccWK7fRs.s 			page 40


 1569 0046 2203     		.short	802
 1570 0048 0201     		.short	258
 1571 004a 0600     		.short	6
 1572 004c 0201     		.short	258
 1573 004e 2203     		.short	802
 1574              		.section	.rodata.str1.4
 1575 010a 0000     		.align	2
 1576              	.LC79:
 1577 010c 7100     		.ascii	"q\000"
 1578 010e 0000     		.align	2
 1579              	.LC80:
 1580 0110 7700     		.ascii	"w\000"
 1581 0112 0000     		.align	2
 1582              	.LC81:
 1583 0114 6500     		.ascii	"e\000"
 1584 0116 0000     		.align	2
 1585              	.LC82:
 1586 0118 7200     		.ascii	"r\000"
 1587 011a 0000     		.align	2
 1588              	.LC83:
 1589 011c 7400     		.ascii	"t\000"
 1590 011e 0000     		.align	2
 1591              	.LC84:
 1592 0120 7900     		.ascii	"y\000"
 1593 0122 0000     		.align	2
 1594              	.LC85:
 1595 0124 7500     		.ascii	"u\000"
 1596 0126 0000     		.align	2
 1597              	.LC86:
 1598 0128 6900     		.ascii	"i\000"
 1599 012a 0000     		.align	2
 1600              	.LC87:
 1601 012c 6F00     		.ascii	"o\000"
 1602 012e 0000     		.align	2
 1603              	.LC88:
 1604 0130 7000     		.ascii	"p\000"
 1605 0132 0000     		.align	2
 1606              	.LC89:
 1607 0134 6100     		.ascii	"a\000"
 1608 0136 0000     		.align	2
 1609              	.LC90:
 1610 0138 7300     		.ascii	"s\000"
 1611 013a 0000     		.align	2
 1612              	.LC91:
 1613 013c 6400     		.ascii	"d\000"
 1614 013e 0000     		.align	2
 1615              	.LC92:
 1616 0140 6600     		.ascii	"f\000"
 1617 0142 0000     		.align	2
 1618              	.LC93:
 1619 0144 6700     		.ascii	"g\000"
 1620 0146 0000     		.align	2
 1621              	.LC94:
 1622 0148 6800     		.ascii	"h\000"
 1623 014a 0000     		.align	2
 1624              	.LC95:
 1625 014c 6A00     		.ascii	"j\000"
ARM GAS  /var/folders/21/t9g5rlb91ys800n5npymflf80000gn/T//ccWK7fRs.s 			page 41


 1626 014e 0000     		.align	2
 1627              	.LC96:
 1628 0150 6B00     		.ascii	"k\000"
 1629 0152 0000     		.align	2
 1630              	.LC97:
 1631 0154 6C00     		.ascii	"l\000"
 1632 0156 0000     		.align	2
 1633              	.LC98:
 1634 0158 7A00     		.ascii	"z\000"
 1635 015a 0000     		.align	2
 1636              	.LC99:
 1637 015c 7800     		.ascii	"x\000"
 1638 015e 0000     		.align	2
 1639              	.LC100:
 1640 0160 6300     		.ascii	"c\000"
 1641 0162 0000     		.align	2
 1642              	.LC101:
 1643 0164 7600     		.ascii	"v\000"
 1644 0166 0000     		.align	2
 1645              	.LC102:
 1646 0168 6200     		.ascii	"b\000"
 1647 016a 0000     		.align	2
 1648              	.LC103:
 1649 016c 6E00     		.ascii	"n\000"
 1650 016e 0000     		.align	2
 1651              	.LC104:
 1652 0170 6D00     		.ascii	"m\000"
 1653              		.section	.rodata.default_kb_map_lc,"a"
 1654              		.align	2
 1657              	default_kb_map_lc:
 1658 0000 08000000 		.word	.LC2
 1659 0004 0C010000 		.word	.LC79
 1660 0008 10010000 		.word	.LC80
 1661 000c 14010000 		.word	.LC81
 1662 0010 18010000 		.word	.LC82
 1663 0014 1C010000 		.word	.LC83
 1664 0018 20010000 		.word	.LC84
 1665 001c 24010000 		.word	.LC85
 1666 0020 28010000 		.word	.LC86
 1667 0024 2C010000 		.word	.LC87
 1668 0028 30010000 		.word	.LC88
 1669 002c 2C000000 		.word	.LC10
 1670 0030 0C000000 		.word	.LC15
 1671 0034 04000000 		.word	.LC1
 1672 0038 34010000 		.word	.LC89
 1673 003c 38010000 		.word	.LC90
 1674 0040 3C010000 		.word	.LC91
 1675 0044 40010000 		.word	.LC92
 1676 0048 44010000 		.word	.LC93
 1677 004c 48010000 		.word	.LC94
 1678 0050 4C010000 		.word	.LC95
 1679 0054 50010000 		.word	.LC96
 1680 0058 54010000 		.word	.LC97
 1681 005c 20000000 		.word	.LC7
 1682 0060 0C000000 		.word	.LC15
 1683 0064 E0000000 		.word	.LC68
 1684 0068 E4000000 		.word	.LC69
ARM GAS  /var/folders/21/t9g5rlb91ys800n5npymflf80000gn/T//ccWK7fRs.s 			page 42


 1685 006c 58010000 		.word	.LC98
 1686 0070 5C010000 		.word	.LC99
 1687 0074 60010000 		.word	.LC100
 1688 0078 64010000 		.word	.LC101
 1689 007c 68010000 		.word	.LC102
 1690 0080 6C010000 		.word	.LC103
 1691 0084 70010000 		.word	.LC104
 1692 0088 2C000000 		.word	.LC23
 1693 008c 04010000 		.word	.LC77
 1694 0090 08010000 		.word	.LC78
 1695 0094 0C000000 		.word	.LC15
 1696 0098 10000000 		.word	.LC4
 1697 009c 24000000 		.word	.LC8
 1698 00a0 90000000 		.word	.LC48
 1699 00a4 28000000 		.word	.LC9
 1700 00a8 14000000 		.word	.LC5
 1701 00ac 30000000 		.word	.LC24
 1702              		.global	lv_keyboard_class
 1703              		.section	.rodata.lv_keyboard_class,"a"
 1704              		.align	2
 1707              	lv_keyboard_class:
 1708 0000 00000000 		.word	lv_btnmatrix_class
 1709 0004 00000000 		.word	lv_keyboard_constructor
 1710 0008 00000000 		.space	12
 1710      00000000 
 1710      00000000 
 1711 0014 6420     		.short	8292
 1712 0016 3220     		.short	8242
 1713 0018 01       		.byte	1
 1714 0019 04       		.byte	4
 1715 001a 00       		.byte	0
 1716 001b 00       		.space	1
 1717              		.text
 1718              	.Letext0:
 1719              		.file 2 "/usr/local/include/sys/_types/_int16_t.h"
 1720              		.file 3 "/usr/local/include/sys/_types/_int32_t.h"
 1721              		.file 4 "/usr/local/include/_types/_uint8_t.h"
 1722              		.file 5 "/usr/local/include/_types/_uint16_t.h"
 1723              		.file 6 "/usr/local/include/_types/_uint32_t.h"
 1724              		.file 7 "/usr/local/include/arm/_types.h"
 1725              		.file 8 "/usr/local/include/sys/_types/_size_t.h"
 1726              		.file 9 "lvgl/src/extra/widgets/keyboard/../../../widgets/../core/../misc/../font/../misc/lv_area.
 1727              		.file 10 "lvgl/src/extra/widgets/keyboard/../../../widgets/../core/../misc/lv_types.h"
 1728              		.file 11 "lvgl/src/extra/widgets/keyboard/../../../widgets/../core/../misc/lv_color.h"
 1729              		.file 12 "lvgl/src/extra/widgets/keyboard/../../../widgets/../core/../misc/lv_bidi.h"
 1730              		.file 13 "lvgl/src/extra/widgets/keyboard/../../../widgets/../core/../misc/lv_style.h"
 1731              		.file 14 "lvgl/src/extra/widgets/keyboard/../../../widgets/../core/lv_obj.h"
 1732              		.file 15 "lvgl/src/extra/widgets/keyboard/../../../widgets/../core/../hal/../misc/lv_ll.h"
 1733              		.file 16 "lvgl/src/extra/widgets/keyboard/../../../widgets/../core/lv_group.h"
 1734              		.file 17 "lvgl/src/extra/widgets/keyboard/../../../widgets/../core/lv_obj_scroll.h"
 1735              		.file 18 "lvgl/src/extra/widgets/keyboard/../../../widgets/../core/lv_obj_style.h"
 1736              		.file 19 "lvgl/src/extra/widgets/keyboard/../../../widgets/../core/lv_obj_class.h"
 1737              		.file 20 "lvgl/src/extra/widgets/keyboard/../../../widgets/../core/lv_event.h"
 1738              		.file 21 "lvgl/src/extra/widgets/keyboard/../../../widgets/lv_btnmatrix.h"
 1739              		.file 22 "lvgl/src/extra/widgets/keyboard/lv_keyboard.h"
 1740              		.file 23 "lvgl/src/extra/widgets/keyboard/../../../widgets/lv_textarea.h"
 1741              		.file 24 "/usr/local/include/string.h"
ARM GAS  /var/folders/21/t9g5rlb91ys800n5npymflf80000gn/T//ccWK7fRs.s 			page 43


 1742              		.file 25 "lvgl/src/extra/widgets/keyboard/../../../widgets/../core/../misc/lv_mem.h"
 1743              		.file 26 "lvgl/src/extra/widgets/keyboard/../../../widgets/../core/lv_obj_style_gen.h"
 1744              		.file 27 "lvgl/src/extra/widgets/keyboard/../../../widgets/../core/../hal/../draw/sw/../../core/lv
ARM GAS  /var/folders/21/t9g5rlb91ys800n5npymflf80000gn/T//ccWK7fRs.s 			page 44


DEFINED SYMBOLS
                            *ABS*:00000000 lv_keyboard.c
/var/folders/21/t9g5rlb91ys800n5npymflf80000gn/T//ccWK7fRs.s:21     .text.lv_keyboard_update_ctrl_map:00000000 $t
/var/folders/21/t9g5rlb91ys800n5npymflf80000gn/T//ccWK7fRs.s:26     .text.lv_keyboard_update_ctrl_map:00000000 lv_keyboard_update_ctrl_map
/var/folders/21/t9g5rlb91ys800n5npymflf80000gn/T//ccWK7fRs.s:130    .text.lv_keyboard_update_ctrl_map:00000064 $d
/var/folders/21/t9g5rlb91ys800n5npymflf80000gn/T//ccWK7fRs.s:1065   .data.kb_ctrl:00000000 kb_ctrl
/var/folders/21/t9g5rlb91ys800n5npymflf80000gn/T//ccWK7fRs.s:135    .text.lv_keyboard_update_map:00000000 $t
/var/folders/21/t9g5rlb91ys800n5npymflf80000gn/T//ccWK7fRs.s:140    .text.lv_keyboard_update_map:00000000 lv_keyboard_update_map
/var/folders/21/t9g5rlb91ys800n5npymflf80000gn/T//ccWK7fRs.s:175    .text.lv_keyboard_update_map:0000001c $d
/var/folders/21/t9g5rlb91ys800n5npymflf80000gn/T//ccWK7fRs.s:1079   .data.kb_map:00000000 kb_map
/var/folders/21/t9g5rlb91ys800n5npymflf80000gn/T//ccWK7fRs.s:180    .text.lv_keyboard_constructor:00000000 $t
/var/folders/21/t9g5rlb91ys800n5npymflf80000gn/T//ccWK7fRs.s:185    .text.lv_keyboard_constructor:00000000 lv_keyboard_constructor
/var/folders/21/t9g5rlb91ys800n5npymflf80000gn/T//ccWK7fRs.s:255    .text.lv_keyboard_constructor:0000004c $d
/var/folders/21/t9g5rlb91ys800n5npymflf80000gn/T//ccWK7fRs.s:303    .text.lv_keyboard_def_event_cb:00000000 lv_keyboard_def_event_cb
/var/folders/21/t9g5rlb91ys800n5npymflf80000gn/T//ccWK7fRs.s:260    .rodata.lv_keyboard_def_event_cb.str1.4:00000000 $d
/var/folders/21/t9g5rlb91ys800n5npymflf80000gn/T//ccWK7fRs.s:297    .text.lv_keyboard_def_event_cb:00000000 $t
/var/folders/21/t9g5rlb91ys800n5npymflf80000gn/T//ccWK7fRs.s:721    .text.lv_keyboard_def_event_cb:000001dc $d
/var/folders/21/t9g5rlb91ys800n5npymflf80000gn/T//ccWK7fRs.s:738    .text.lv_keyboard_create:00000000 $t
/var/folders/21/t9g5rlb91ys800n5npymflf80000gn/T//ccWK7fRs.s:744    .text.lv_keyboard_create:00000000 lv_keyboard_create
/var/folders/21/t9g5rlb91ys800n5npymflf80000gn/T//ccWK7fRs.s:783    .text.lv_keyboard_create:00000014 $d
/var/folders/21/t9g5rlb91ys800n5npymflf80000gn/T//ccWK7fRs.s:1707   .rodata.lv_keyboard_class:00000000 lv_keyboard_class
/var/folders/21/t9g5rlb91ys800n5npymflf80000gn/T//ccWK7fRs.s:788    .text.lv_keyboard_set_textarea:00000000 $t
/var/folders/21/t9g5rlb91ys800n5npymflf80000gn/T//ccWK7fRs.s:794    .text.lv_keyboard_set_textarea:00000000 lv_keyboard_set_textarea
/var/folders/21/t9g5rlb91ys800n5npymflf80000gn/T//ccWK7fRs.s:851    .text.lv_keyboard_set_mode:00000000 $t
/var/folders/21/t9g5rlb91ys800n5npymflf80000gn/T//ccWK7fRs.s:857    .text.lv_keyboard_set_mode:00000000 lv_keyboard_set_mode
/var/folders/21/t9g5rlb91ys800n5npymflf80000gn/T//ccWK7fRs.s:894    .text.lv_keyboard_set_popovers:00000000 $t
/var/folders/21/t9g5rlb91ys800n5npymflf80000gn/T//ccWK7fRs.s:900    .text.lv_keyboard_set_popovers:00000000 lv_keyboard_set_popovers
/var/folders/21/t9g5rlb91ys800n5npymflf80000gn/T//ccWK7fRs.s:937    .text.lv_keyboard_set_map:00000000 $t
/var/folders/21/t9g5rlb91ys800n5npymflf80000gn/T//ccWK7fRs.s:943    .text.lv_keyboard_set_map:00000000 lv_keyboard_set_map
/var/folders/21/t9g5rlb91ys800n5npymflf80000gn/T//ccWK7fRs.s:974    .text.lv_keyboard_set_map:00000014 $d
/var/folders/21/t9g5rlb91ys800n5npymflf80000gn/T//ccWK7fRs.s:980    .text.lv_keyboard_get_textarea:00000000 $t
/var/folders/21/t9g5rlb91ys800n5npymflf80000gn/T//ccWK7fRs.s:986    .text.lv_keyboard_get_textarea:00000000 lv_keyboard_get_textarea
/var/folders/21/t9g5rlb91ys800n5npymflf80000gn/T//ccWK7fRs.s:1008   .text.lv_keyboard_get_mode:00000000 $t
/var/folders/21/t9g5rlb91ys800n5npymflf80000gn/T//ccWK7fRs.s:1014   .text.lv_keyboard_get_mode:00000000 lv_keyboard_get_mode
/var/folders/21/t9g5rlb91ys800n5npymflf80000gn/T//ccWK7fRs.s:1036   .text.lv_btnmatrix_get_popovers:00000000 $t
/var/folders/21/t9g5rlb91ys800n5npymflf80000gn/T//ccWK7fRs.s:1042   .text.lv_btnmatrix_get_popovers:00000000 lv_btnmatrix_get_popovers
/var/folders/21/t9g5rlb91ys800n5npymflf80000gn/T//ccWK7fRs.s:1062   .data.kb_ctrl:00000000 $d
/var/folders/21/t9g5rlb91ys800n5npymflf80000gn/T//ccWK7fRs.s:1533   .rodata.default_kb_ctrl_lc_map:00000000 default_kb_ctrl_lc_map
/var/folders/21/t9g5rlb91ys800n5npymflf80000gn/T//ccWK7fRs.s:1348   .rodata.default_kb_ctrl_uc_map:00000000 default_kb_ctrl_uc_map
/var/folders/21/t9g5rlb91ys800n5npymflf80000gn/T//ccWK7fRs.s:1181   .rodata.default_kb_ctrl_spec_map:00000000 default_kb_ctrl_spec_map
/var/folders/21/t9g5rlb91ys800n5npymflf80000gn/T//ccWK7fRs.s:1093   .rodata.default_kb_ctrl_num_map:00000000 default_kb_ctrl_num_map
/var/folders/21/t9g5rlb91ys800n5npymflf80000gn/T//ccWK7fRs.s:1076   .data.kb_map:00000000 $d
/var/folders/21/t9g5rlb91ys800n5npymflf80000gn/T//ccWK7fRs.s:1657   .rodata.default_kb_map_lc:00000000 default_kb_map_lc
/var/folders/21/t9g5rlb91ys800n5npymflf80000gn/T//ccWK7fRs.s:1484   .rodata.default_kb_map_uc:00000000 default_kb_map_uc
/var/folders/21/t9g5rlb91ys800n5npymflf80000gn/T//ccWK7fRs.s:1299   .rodata.default_kb_map_spec:00000000 default_kb_map_spec
/var/folders/21/t9g5rlb91ys800n5npymflf80000gn/T//ccWK7fRs.s:1155   .rodata.default_kb_map_num:00000000 default_kb_map_num
/var/folders/21/t9g5rlb91ys800n5npymflf80000gn/T//ccWK7fRs.s:1090   .rodata.default_kb_ctrl_num_map:00000000 $d
/var/folders/21/t9g5rlb91ys800n5npymflf80000gn/T//ccWK7fRs.s:1112   .rodata.str1.4:00000000 $d
/var/folders/21/t9g5rlb91ys800n5npymflf80000gn/T//ccWK7fRs.s:1152   .rodata.default_kb_map_num:00000000 $d
/var/folders/21/t9g5rlb91ys800n5npymflf80000gn/T//ccWK7fRs.s:1178   .rodata.default_kb_ctrl_spec_map:00000000 $d
/var/folders/21/t9g5rlb91ys800n5npymflf80000gn/T//ccWK7fRs.s:1296   .rodata.default_kb_map_spec:00000000 $d
/var/folders/21/t9g5rlb91ys800n5npymflf80000gn/T//ccWK7fRs.s:1345   .rodata.default_kb_ctrl_uc_map:00000000 $d
/var/folders/21/t9g5rlb91ys800n5npymflf80000gn/T//ccWK7fRs.s:1481   .rodata.default_kb_map_uc:00000000 $d
/var/folders/21/t9g5rlb91ys800n5npymflf80000gn/T//ccWK7fRs.s:1530   .rodata.default_kb_ctrl_lc_map:00000000 $d
/var/folders/21/t9g5rlb91ys800n5npymflf80000gn/T//ccWK7fRs.s:1654   .rodata.default_kb_map_lc:00000000 $d
/var/folders/21/t9g5rlb91ys800n5npymflf80000gn/T//ccWK7fRs.s:1704   .rodata.lv_keyboard_class:00000000 $d

ARM GAS  /var/folders/21/t9g5rlb91ys800n5npymflf80000gn/T//ccWK7fRs.s 			page 45


UNDEFINED SYMBOLS
lv_btnmatrix_set_ctrl_map
lv_mem_alloc
lv_memcpy
lv_mem_free
lv_btnmatrix_set_map
lv_obj_clear_flag
lv_obj_align
lv_obj_add_event_cb
lv_obj_set_style_base_dir
lv_event_get_target
lv_btnmatrix_get_selected_btn
lv_btnmatrix_get_btn_text
strcmp
lv_event_send
lv_textarea_add_char
lv_textarea_get_one_line
lv_textarea_get_cursor_pos
lv_textarea_get_text
lv_textarea_set_cursor_pos
lv_textarea_cursor_left
lv_textarea_cursor_right
lv_textarea_del_char
lv_textarea_add_text
lv_obj_class_create_obj
lv_obj_class_init_obj
lv_obj_clear_state
lv_obj_add_flag
lv_btnmatrix_class
