ARM GAS  /var/folders/21/t9g5rlb91ys800n5npymflf80000gn/T//ccOkOylr.s 			page 1


   1              		.cpu cortex-m4
   2              		.arch armv7e-m
   3              		.fpu fpv4-sp-d16
   4              		.eabi_attribute 27, 1
   5              		.eabi_attribute 28, 1
   6              		.eabi_attribute 20, 1
   7              		.eabi_attribute 21, 1
   8              		.eabi_attribute 23, 3
   9              		.eabi_attribute 24, 1
  10              		.eabi_attribute 25, 1
  11              		.eabi_attribute 26, 1
  12              		.eabi_attribute 30, 1
  13              		.eabi_attribute 34, 1
  14              		.eabi_attribute 18, 4
  15              		.file	"lv_lru.c"
  16              		.text
  17              	.Ltext0:
  18              		.cfi_sections	.debug_frame
  19              		.file 1 "lvgl/src/misc/lv_lru.c"
  20              		.section	.text.lv_lru_hash,"ax",%progbits
  21              		.align	1
  22              		.syntax unified
  23              		.thumb
  24              		.thumb_func
  26              	lv_lru_hash:
  27              	.LVL0:
  28              	.LFB8:
   1:lvgl/src/misc/lv_lru.c **** /**
   2:lvgl/src/misc/lv_lru.c ****  * @file lv_lru.c
   3:lvgl/src/misc/lv_lru.c ****  *
   4:lvgl/src/misc/lv_lru.c ****  * @see https://github.com/willcannings/C-LRU-Cache
   5:lvgl/src/misc/lv_lru.c ****  */
   6:lvgl/src/misc/lv_lru.c **** 
   7:lvgl/src/misc/lv_lru.c **** /*********************
   8:lvgl/src/misc/lv_lru.c ****  *      INCLUDES
   9:lvgl/src/misc/lv_lru.c ****  *********************/
  10:lvgl/src/misc/lv_lru.c **** 
  11:lvgl/src/misc/lv_lru.c **** #include "lv_lru.h"
  12:lvgl/src/misc/lv_lru.c **** #include "lv_math.h"
  13:lvgl/src/misc/lv_lru.c **** #include "lv_mem.h"
  14:lvgl/src/misc/lv_lru.c **** #include "lv_assert.h"
  15:lvgl/src/misc/lv_lru.c **** #include "lv_log.h"
  16:lvgl/src/misc/lv_lru.c **** 
  17:lvgl/src/misc/lv_lru.c **** /*********************
  18:lvgl/src/misc/lv_lru.c ****  *      DEFINES
  19:lvgl/src/misc/lv_lru.c ****  *********************/
  20:lvgl/src/misc/lv_lru.c **** 
  21:lvgl/src/misc/lv_lru.c **** /**********************
  22:lvgl/src/misc/lv_lru.c ****  *      TYPEDEFS
  23:lvgl/src/misc/lv_lru.c ****  **********************/
  24:lvgl/src/misc/lv_lru.c **** 
  25:lvgl/src/misc/lv_lru.c **** struct _lv_lru_item_t {
  26:lvgl/src/misc/lv_lru.c ****     void * value;
  27:lvgl/src/misc/lv_lru.c ****     void * key;
  28:lvgl/src/misc/lv_lru.c ****     size_t value_length;
  29:lvgl/src/misc/lv_lru.c ****     size_t key_length;
  30:lvgl/src/misc/lv_lru.c ****     uint64_t access_count;
ARM GAS  /var/folders/21/t9g5rlb91ys800n5npymflf80000gn/T//ccOkOylr.s 			page 2


  31:lvgl/src/misc/lv_lru.c ****     struct _lv_lru_item_t * next;
  32:lvgl/src/misc/lv_lru.c **** };
  33:lvgl/src/misc/lv_lru.c **** 
  34:lvgl/src/misc/lv_lru.c **** /**********************
  35:lvgl/src/misc/lv_lru.c ****  *  STATIC PROTOTYPES
  36:lvgl/src/misc/lv_lru.c ****  **********************/
  37:lvgl/src/misc/lv_lru.c **** 
  38:lvgl/src/misc/lv_lru.c **** /**
  39:lvgl/src/misc/lv_lru.c ****  * MurmurHash2
  40:lvgl/src/misc/lv_lru.c ****  * @author Austin Appleby
  41:lvgl/src/misc/lv_lru.c ****  * @see http://sites.google.com/site/murmurhash/
  42:lvgl/src/misc/lv_lru.c ****  */
  43:lvgl/src/misc/lv_lru.c **** static uint32_t lv_lru_hash(lv_lru_t * cache, const void * key, uint32_t key_length);
  44:lvgl/src/misc/lv_lru.c **** 
  45:lvgl/src/misc/lv_lru.c **** /** compare a key against an existing item's key */
  46:lvgl/src/misc/lv_lru.c **** static int lv_lru_cmp_keys(lv_lru_item_t * item, const void * key, uint32_t key_length);
  47:lvgl/src/misc/lv_lru.c **** 
  48:lvgl/src/misc/lv_lru.c **** /** remove an item and push it to the free items queue */
  49:lvgl/src/misc/lv_lru.c **** static void lv_lru_remove_item(lv_lru_t * cache, lv_lru_item_t * prev, lv_lru_item_t * item, uint32
  50:lvgl/src/misc/lv_lru.c **** 
  51:lvgl/src/misc/lv_lru.c **** /** pop an existing item off the free queue, or create a new one */
  52:lvgl/src/misc/lv_lru.c **** static lv_lru_item_t * lv_lru_pop_or_create_item(lv_lru_t * cache);
  53:lvgl/src/misc/lv_lru.c **** 
  54:lvgl/src/misc/lv_lru.c **** /**********************
  55:lvgl/src/misc/lv_lru.c ****  *  STATIC VARIABLES
  56:lvgl/src/misc/lv_lru.c ****  **********************/
  57:lvgl/src/misc/lv_lru.c **** 
  58:lvgl/src/misc/lv_lru.c **** /**********************
  59:lvgl/src/misc/lv_lru.c ****  *      MACROS
  60:lvgl/src/misc/lv_lru.c ****  **********************/
  61:lvgl/src/misc/lv_lru.c **** 
  62:lvgl/src/misc/lv_lru.c **** /* error helpers */
  63:lvgl/src/misc/lv_lru.c **** #define error_for(conditions, error)  if(conditions) {return error;}
  64:lvgl/src/misc/lv_lru.c **** #define test_for_missing_cache()      error_for(!cache, LV_LRU_MISSING_CACHE)
  65:lvgl/src/misc/lv_lru.c **** #define test_for_missing_key()        error_for(!key, LV_LRU_MISSING_KEY)
  66:lvgl/src/misc/lv_lru.c **** #define test_for_missing_value()      error_for(!value || value_length == 0, LV_LRU_MISSING_VALUE)
  67:lvgl/src/misc/lv_lru.c **** #define test_for_value_too_large()    error_for(value_length > cache->total_memory, LV_LRU_VALUE_TO
  68:lvgl/src/misc/lv_lru.c **** 
  69:lvgl/src/misc/lv_lru.c **** /**********************
  70:lvgl/src/misc/lv_lru.c ****  *   GLOBAL FUNCTIONS
  71:lvgl/src/misc/lv_lru.c ****  **********************/
  72:lvgl/src/misc/lv_lru.c **** 
  73:lvgl/src/misc/lv_lru.c **** lv_lru_t * lv_lru_create(size_t cache_size, size_t average_length, lv_lru_free_t * value_free,
  74:lvgl/src/misc/lv_lru.c ****                          lv_lru_free_t * key_free)
  75:lvgl/src/misc/lv_lru.c **** {
  76:lvgl/src/misc/lv_lru.c ****     // create the cache
  77:lvgl/src/misc/lv_lru.c ****     lv_lru_t * cache = (lv_lru_t *) lv_mem_alloc(sizeof(lv_lru_t));
  78:lvgl/src/misc/lv_lru.c ****     lv_memset_00(cache, sizeof(lv_lru_t));
  79:lvgl/src/misc/lv_lru.c ****     if(!cache) {
  80:lvgl/src/misc/lv_lru.c ****         LV_LOG_WARN("LRU Cache unable to create cache object");
  81:lvgl/src/misc/lv_lru.c ****         return NULL;
  82:lvgl/src/misc/lv_lru.c ****     }
  83:lvgl/src/misc/lv_lru.c ****     cache->hash_table_size = cache_size / average_length;
  84:lvgl/src/misc/lv_lru.c ****     cache->average_item_length = average_length;
  85:lvgl/src/misc/lv_lru.c ****     cache->free_memory = cache_size;
  86:lvgl/src/misc/lv_lru.c ****     cache->total_memory = cache_size;
  87:lvgl/src/misc/lv_lru.c ****     cache->seed = lv_rand(1, UINT32_MAX);
ARM GAS  /var/folders/21/t9g5rlb91ys800n5npymflf80000gn/T//ccOkOylr.s 			page 3


  88:lvgl/src/misc/lv_lru.c ****     cache->value_free = value_free ? value_free : lv_mem_free;
  89:lvgl/src/misc/lv_lru.c ****     cache->key_free = key_free ? key_free : lv_mem_free;
  90:lvgl/src/misc/lv_lru.c **** 
  91:lvgl/src/misc/lv_lru.c ****     // size the hash table to a guestimate of the number of slots required (assuming a perfect hash
  92:lvgl/src/misc/lv_lru.c ****     cache->items = (lv_lru_item_t **) lv_mem_alloc(sizeof(lv_lru_item_t *) * cache->hash_table_size
  93:lvgl/src/misc/lv_lru.c ****     lv_memset_00(cache->items, sizeof(lv_lru_item_t *) * cache->hash_table_size);
  94:lvgl/src/misc/lv_lru.c ****     if(!cache->items) {
  95:lvgl/src/misc/lv_lru.c ****         LV_LOG_WARN("LRU Cache unable to create cache hash table");
  96:lvgl/src/misc/lv_lru.c ****         lv_mem_free(cache);
  97:lvgl/src/misc/lv_lru.c ****         return NULL;
  98:lvgl/src/misc/lv_lru.c ****     }
  99:lvgl/src/misc/lv_lru.c ****     return cache;
 100:lvgl/src/misc/lv_lru.c **** }
 101:lvgl/src/misc/lv_lru.c **** 
 102:lvgl/src/misc/lv_lru.c **** void lv_lru_del(lv_lru_t * cache)
 103:lvgl/src/misc/lv_lru.c **** {
 104:lvgl/src/misc/lv_lru.c ****     LV_ASSERT_NULL(cache);
 105:lvgl/src/misc/lv_lru.c **** 
 106:lvgl/src/misc/lv_lru.c ****     // free each of the cached items, and the hash table
 107:lvgl/src/misc/lv_lru.c ****     lv_lru_item_t * item = NULL, * next = NULL;
 108:lvgl/src/misc/lv_lru.c ****     uint32_t i = 0;
 109:lvgl/src/misc/lv_lru.c ****     if(cache->items) {
 110:lvgl/src/misc/lv_lru.c ****         for(; i < cache->hash_table_size; i++) {
 111:lvgl/src/misc/lv_lru.c ****             item = cache->items[i];
 112:lvgl/src/misc/lv_lru.c ****             while(item) {
 113:lvgl/src/misc/lv_lru.c ****                 next = (lv_lru_item_t *) item->next;
 114:lvgl/src/misc/lv_lru.c ****                 cache->value_free(item->value);
 115:lvgl/src/misc/lv_lru.c ****                 cache->key_free(item->key);
 116:lvgl/src/misc/lv_lru.c ****                 cache->free_memory += item->value_length;
 117:lvgl/src/misc/lv_lru.c ****                 lv_mem_free(item);
 118:lvgl/src/misc/lv_lru.c ****                 item = next;
 119:lvgl/src/misc/lv_lru.c ****             }
 120:lvgl/src/misc/lv_lru.c ****         }
 121:lvgl/src/misc/lv_lru.c ****         lv_mem_free(cache->items);
 122:lvgl/src/misc/lv_lru.c ****     }
 123:lvgl/src/misc/lv_lru.c **** 
 124:lvgl/src/misc/lv_lru.c ****     if(cache->free_items) {
 125:lvgl/src/misc/lv_lru.c ****         item = cache->free_items;
 126:lvgl/src/misc/lv_lru.c ****         while(item) {
 127:lvgl/src/misc/lv_lru.c ****             next = (lv_lru_item_t *) item->next;
 128:lvgl/src/misc/lv_lru.c ****             lv_mem_free(item);
 129:lvgl/src/misc/lv_lru.c ****             item = next;
 130:lvgl/src/misc/lv_lru.c ****         }
 131:lvgl/src/misc/lv_lru.c ****     }
 132:lvgl/src/misc/lv_lru.c **** 
 133:lvgl/src/misc/lv_lru.c ****     // free the cache
 134:lvgl/src/misc/lv_lru.c ****     lv_mem_free(cache);
 135:lvgl/src/misc/lv_lru.c **** }
 136:lvgl/src/misc/lv_lru.c **** 
 137:lvgl/src/misc/lv_lru.c **** lv_lru_res_t lv_lru_set(lv_lru_t * cache, const void * key, size_t key_length, void * value, size_t
 138:lvgl/src/misc/lv_lru.c **** {
 139:lvgl/src/misc/lv_lru.c ****     test_for_missing_cache();
 140:lvgl/src/misc/lv_lru.c ****     test_for_missing_key();
 141:lvgl/src/misc/lv_lru.c ****     test_for_missing_value();
 142:lvgl/src/misc/lv_lru.c ****     test_for_value_too_large();
 143:lvgl/src/misc/lv_lru.c **** 
 144:lvgl/src/misc/lv_lru.c ****     // see if the key already exists
ARM GAS  /var/folders/21/t9g5rlb91ys800n5npymflf80000gn/T//ccOkOylr.s 			page 4


 145:lvgl/src/misc/lv_lru.c ****     uint32_t hash_index = lv_lru_hash(cache, key, key_length);
 146:lvgl/src/misc/lv_lru.c ****     int required = 0;
 147:lvgl/src/misc/lv_lru.c ****     lv_lru_item_t * item = NULL, * prev = NULL;
 148:lvgl/src/misc/lv_lru.c ****     item = cache->items[hash_index];
 149:lvgl/src/misc/lv_lru.c **** 
 150:lvgl/src/misc/lv_lru.c ****     while(item && lv_lru_cmp_keys(item, key, key_length)) {
 151:lvgl/src/misc/lv_lru.c ****         prev = item;
 152:lvgl/src/misc/lv_lru.c ****         item = (lv_lru_item_t *) item->next;
 153:lvgl/src/misc/lv_lru.c ****     }
 154:lvgl/src/misc/lv_lru.c **** 
 155:lvgl/src/misc/lv_lru.c ****     if(item) {
 156:lvgl/src/misc/lv_lru.c ****         // update the value and value_lengths
 157:lvgl/src/misc/lv_lru.c ****         required = (int)(value_length - item->value_length);
 158:lvgl/src/misc/lv_lru.c ****         cache->value_free(item->value);
 159:lvgl/src/misc/lv_lru.c ****         item->value = value;
 160:lvgl/src/misc/lv_lru.c ****         item->value_length = value_length;
 161:lvgl/src/misc/lv_lru.c **** 
 162:lvgl/src/misc/lv_lru.c ****     }
 163:lvgl/src/misc/lv_lru.c ****     else {
 164:lvgl/src/misc/lv_lru.c ****         // insert a new item
 165:lvgl/src/misc/lv_lru.c ****         item = lv_lru_pop_or_create_item(cache);
 166:lvgl/src/misc/lv_lru.c ****         item->value = value;
 167:lvgl/src/misc/lv_lru.c ****         item->key = lv_mem_alloc(key_length);
 168:lvgl/src/misc/lv_lru.c ****         memcpy(item->key, key, key_length);
 169:lvgl/src/misc/lv_lru.c ****         item->value_length = value_length;
 170:lvgl/src/misc/lv_lru.c ****         item->key_length = key_length;
 171:lvgl/src/misc/lv_lru.c ****         required = (int) value_length;
 172:lvgl/src/misc/lv_lru.c **** 
 173:lvgl/src/misc/lv_lru.c ****         if(prev)
 174:lvgl/src/misc/lv_lru.c ****             prev->next = item;
 175:lvgl/src/misc/lv_lru.c ****         else
 176:lvgl/src/misc/lv_lru.c ****             cache->items[hash_index] = item;
 177:lvgl/src/misc/lv_lru.c ****     }
 178:lvgl/src/misc/lv_lru.c ****     item->access_count = ++cache->access_count;
 179:lvgl/src/misc/lv_lru.c **** 
 180:lvgl/src/misc/lv_lru.c ****     // remove as many items as necessary to free enough space
 181:lvgl/src/misc/lv_lru.c ****     if(required > 0 && (size_t) required > cache->free_memory) {
 182:lvgl/src/misc/lv_lru.c ****         while(cache->free_memory < (size_t) required)
 183:lvgl/src/misc/lv_lru.c ****             lv_lru_remove_lru_item(cache);
 184:lvgl/src/misc/lv_lru.c ****     }
 185:lvgl/src/misc/lv_lru.c ****     cache->free_memory -= required;
 186:lvgl/src/misc/lv_lru.c ****     return LV_LRU_OK;
 187:lvgl/src/misc/lv_lru.c **** }
 188:lvgl/src/misc/lv_lru.c **** 
 189:lvgl/src/misc/lv_lru.c **** lv_lru_res_t lv_lru_get(lv_lru_t * cache, const void * key, size_t key_size, void ** value)
 190:lvgl/src/misc/lv_lru.c **** {
 191:lvgl/src/misc/lv_lru.c ****     test_for_missing_cache();
 192:lvgl/src/misc/lv_lru.c ****     test_for_missing_key();
 193:lvgl/src/misc/lv_lru.c **** 
 194:lvgl/src/misc/lv_lru.c ****     // loop until we find the item, or hit the end of a chain
 195:lvgl/src/misc/lv_lru.c ****     uint32_t hash_index = lv_lru_hash(cache, key, key_size);
 196:lvgl/src/misc/lv_lru.c ****     lv_lru_item_t * item = cache->items[hash_index];
 197:lvgl/src/misc/lv_lru.c **** 
 198:lvgl/src/misc/lv_lru.c ****     while(item && lv_lru_cmp_keys(item, key, key_size))
 199:lvgl/src/misc/lv_lru.c ****         item = (lv_lru_item_t *) item->next;
 200:lvgl/src/misc/lv_lru.c **** 
 201:lvgl/src/misc/lv_lru.c ****     if(item) {
ARM GAS  /var/folders/21/t9g5rlb91ys800n5npymflf80000gn/T//ccOkOylr.s 			page 5


 202:lvgl/src/misc/lv_lru.c ****         *value = item->value;
 203:lvgl/src/misc/lv_lru.c ****         item->access_count = ++cache->access_count;
 204:lvgl/src/misc/lv_lru.c ****     }
 205:lvgl/src/misc/lv_lru.c ****     else {
 206:lvgl/src/misc/lv_lru.c ****         *value = NULL;
 207:lvgl/src/misc/lv_lru.c ****     }
 208:lvgl/src/misc/lv_lru.c **** 
 209:lvgl/src/misc/lv_lru.c ****     return LV_LRU_OK;
 210:lvgl/src/misc/lv_lru.c **** }
 211:lvgl/src/misc/lv_lru.c **** 
 212:lvgl/src/misc/lv_lru.c **** lv_lru_res_t lv_lru_remove(lv_lru_t * cache, const void * key, size_t key_size)
 213:lvgl/src/misc/lv_lru.c **** {
 214:lvgl/src/misc/lv_lru.c ****     test_for_missing_cache();
 215:lvgl/src/misc/lv_lru.c ****     test_for_missing_key();
 216:lvgl/src/misc/lv_lru.c **** 
 217:lvgl/src/misc/lv_lru.c ****     // loop until we find the item, or hit the end of a chain
 218:lvgl/src/misc/lv_lru.c ****     lv_lru_item_t * item = NULL, * prev = NULL;
 219:lvgl/src/misc/lv_lru.c ****     uint32_t hash_index = lv_lru_hash(cache, key, key_size);
 220:lvgl/src/misc/lv_lru.c ****     item = cache->items[hash_index];
 221:lvgl/src/misc/lv_lru.c **** 
 222:lvgl/src/misc/lv_lru.c ****     while(item && lv_lru_cmp_keys(item, key, key_size)) {
 223:lvgl/src/misc/lv_lru.c ****         prev = item;
 224:lvgl/src/misc/lv_lru.c ****         item = (lv_lru_item_t *) item->next;
 225:lvgl/src/misc/lv_lru.c ****     }
 226:lvgl/src/misc/lv_lru.c **** 
 227:lvgl/src/misc/lv_lru.c ****     if(item) {
 228:lvgl/src/misc/lv_lru.c ****         lv_lru_remove_item(cache, prev, item, hash_index);
 229:lvgl/src/misc/lv_lru.c ****     }
 230:lvgl/src/misc/lv_lru.c **** 
 231:lvgl/src/misc/lv_lru.c ****     return LV_LRU_OK;
 232:lvgl/src/misc/lv_lru.c **** }
 233:lvgl/src/misc/lv_lru.c **** 
 234:lvgl/src/misc/lv_lru.c **** void lv_lru_remove_lru_item(lv_lru_t * cache)
 235:lvgl/src/misc/lv_lru.c **** {
 236:lvgl/src/misc/lv_lru.c ****     lv_lru_item_t * min_item = NULL, * min_prev = NULL;
 237:lvgl/src/misc/lv_lru.c ****     lv_lru_item_t * item = NULL, * prev = NULL;
 238:lvgl/src/misc/lv_lru.c ****     uint32_t i = 0, min_index = -1;
 239:lvgl/src/misc/lv_lru.c ****     uint64_t min_access_count = -1;
 240:lvgl/src/misc/lv_lru.c **** 
 241:lvgl/src/misc/lv_lru.c ****     for(; i < cache->hash_table_size; i++) {
 242:lvgl/src/misc/lv_lru.c ****         item = cache->items[i];
 243:lvgl/src/misc/lv_lru.c ****         prev = NULL;
 244:lvgl/src/misc/lv_lru.c **** 
 245:lvgl/src/misc/lv_lru.c ****         while(item) {
 246:lvgl/src/misc/lv_lru.c ****             if(item->access_count < min_access_count || (int64_t) min_access_count == -1) {
 247:lvgl/src/misc/lv_lru.c ****                 min_access_count = item->access_count;
 248:lvgl/src/misc/lv_lru.c ****                 min_item = item;
 249:lvgl/src/misc/lv_lru.c ****                 min_prev = prev;
 250:lvgl/src/misc/lv_lru.c ****                 min_index = i;
 251:lvgl/src/misc/lv_lru.c ****             }
 252:lvgl/src/misc/lv_lru.c ****             prev = item;
 253:lvgl/src/misc/lv_lru.c ****             item = item->next;
 254:lvgl/src/misc/lv_lru.c ****         }
 255:lvgl/src/misc/lv_lru.c ****     }
 256:lvgl/src/misc/lv_lru.c **** 
 257:lvgl/src/misc/lv_lru.c ****     if(min_item) {
 258:lvgl/src/misc/lv_lru.c ****         lv_lru_remove_item(cache, min_prev, min_item, min_index);
ARM GAS  /var/folders/21/t9g5rlb91ys800n5npymflf80000gn/T//ccOkOylr.s 			page 6


 259:lvgl/src/misc/lv_lru.c ****     }
 260:lvgl/src/misc/lv_lru.c **** }
 261:lvgl/src/misc/lv_lru.c **** 
 262:lvgl/src/misc/lv_lru.c **** /**********************
 263:lvgl/src/misc/lv_lru.c ****  *   STATIC FUNCTIONS
 264:lvgl/src/misc/lv_lru.c ****  **********************/
 265:lvgl/src/misc/lv_lru.c **** 
 266:lvgl/src/misc/lv_lru.c **** static uint32_t lv_lru_hash(lv_lru_t * cache, const void * key, uint32_t key_length)
 267:lvgl/src/misc/lv_lru.c **** {
  29              		.loc 1 267 1 view -0
  30              		.cfi_startproc
  31              		@ args = 0, pretend = 0, frame = 0
  32              		@ frame_needed = 0, uses_anonymous_args = 0
  33              		@ link register save eliminated.
  34              		.loc 1 267 1 is_stmt 0 view .LVU1
  35 0000 10B4     		push	{r4}
  36              	.LCFI0:
  37              		.cfi_def_cfa_offset 4
  38              		.cfi_offset 4, -4
 268:lvgl/src/misc/lv_lru.c ****     uint32_t m = 0x5bd1e995;
  39              		.loc 1 268 5 is_stmt 1 view .LVU2
  40              	.LVL1:
 269:lvgl/src/misc/lv_lru.c ****     uint32_t r = 24;
  41              		.loc 1 269 5 view .LVU3
 270:lvgl/src/misc/lv_lru.c ****     uint32_t h = cache->seed ^ key_length;
  42              		.loc 1 270 5 view .LVU4
  43              		.loc 1 270 23 is_stmt 0 view .LVU5
  44 0002 036A     		ldr	r3, [r0, #32]
  45              		.loc 1 270 14 view .LVU6
  46 0004 83EA020C 		eor	ip, r3, r2
  47              	.LVL2:
 271:lvgl/src/misc/lv_lru.c ****     char * data = (char *) key;
  48              		.loc 1 271 5 is_stmt 1 view .LVU7
 272:lvgl/src/misc/lv_lru.c **** 
 273:lvgl/src/misc/lv_lru.c ****     while(key_length >= 4) {
  49              		.loc 1 273 5 view .LVU8
  50              		.loc 1 273 10 is_stmt 0 view .LVU9
  51 0008 0DE0     		b	.L2
  52              	.LVL3:
  53              	.L3:
  54              	.LBB2:
 274:lvgl/src/misc/lv_lru.c ****         uint32_t k = *(uint32_t *) data;
  55              		.loc 1 274 9 is_stmt 1 view .LVU10
  56              		.loc 1 274 18 is_stmt 0 view .LVU11
  57 000a 51F8043B 		ldr	r3, [r1], #4
  58              	.LVL4:
 275:lvgl/src/misc/lv_lru.c ****         k *= m;
  59              		.loc 1 275 9 is_stmt 1 view .LVU12
  60              		.loc 1 275 11 is_stmt 0 view .LVU13
  61 000e 174C     		ldr	r4, .L8
  62 0010 04FB03F3 		mul	r3, r4, r3
  63              	.LVL5:
 276:lvgl/src/misc/lv_lru.c ****         k ^= k >> r;
  64              		.loc 1 276 9 is_stmt 1 view .LVU14
  65              		.loc 1 276 11 is_stmt 0 view .LVU15
  66 0014 83EA1363 		eor	r3, r3, r3, lsr #24
  67              	.LVL6:
ARM GAS  /var/folders/21/t9g5rlb91ys800n5npymflf80000gn/T//ccOkOylr.s 			page 7


 277:lvgl/src/misc/lv_lru.c ****         k *= m;
  68              		.loc 1 277 9 is_stmt 1 view .LVU16
  69              		.loc 1 277 11 is_stmt 0 view .LVU17
  70 0018 04FB03F3 		mul	r3, r4, r3
  71              	.LVL7:
 278:lvgl/src/misc/lv_lru.c ****         h *= m;
  72              		.loc 1 278 9 is_stmt 1 view .LVU18
  73              		.loc 1 278 11 is_stmt 0 view .LVU19
  74 001c 04FB0CFC 		mul	ip, r4, ip
  75              	.LVL8:
 279:lvgl/src/misc/lv_lru.c ****         h ^= k;
  76              		.loc 1 279 9 is_stmt 1 view .LVU20
  77              		.loc 1 279 11 is_stmt 0 view .LVU21
  78 0020 83EA0C0C 		eor	ip, r3, ip
  79              	.LVL9:
 280:lvgl/src/misc/lv_lru.c ****         data += 4;
  80              		.loc 1 280 9 is_stmt 1 view .LVU22
 281:lvgl/src/misc/lv_lru.c ****         key_length -= 4;
  81              		.loc 1 281 9 view .LVU23
  82              		.loc 1 281 20 is_stmt 0 view .LVU24
  83 0024 043A     		subs	r2, r2, #4
  84              	.LVL10:
  85              	.L2:
  86              		.loc 1 281 20 view .LVU25
  87              	.LBE2:
 273:lvgl/src/misc/lv_lru.c ****         uint32_t k = *(uint32_t *) data;
  88              		.loc 1 273 22 is_stmt 1 view .LVU26
  89 0026 032A     		cmp	r2, #3
  90 0028 EFD8     		bhi	.L3
 282:lvgl/src/misc/lv_lru.c ****     }
 283:lvgl/src/misc/lv_lru.c **** 
 284:lvgl/src/misc/lv_lru.c ****     if(key_length >= 3) {
  91              		.loc 1 284 5 view .LVU27
  92              		.loc 1 284 7 is_stmt 0 view .LVU28
  93 002a 022A     		cmp	r2, #2
  94 002c 02D9     		bls	.L4
 285:lvgl/src/misc/lv_lru.c ****         h ^= data[2] << 16;
  95              		.loc 1 285 9 is_stmt 1 view .LVU29
  96              		.loc 1 285 18 is_stmt 0 view .LVU30
  97 002e 8B78     		ldrb	r3, [r1, #2]	@ zero_extendqisi2
  98              		.loc 1 285 11 view .LVU31
  99 0030 8CEA034C 		eor	ip, ip, r3, lsl #16
 100              	.LVL11:
 101              	.L4:
 286:lvgl/src/misc/lv_lru.c ****     }
 287:lvgl/src/misc/lv_lru.c ****     if(key_length >= 2) {
 102              		.loc 1 287 5 is_stmt 1 view .LVU32
 103              		.loc 1 287 7 is_stmt 0 view .LVU33
 104 0034 012A     		cmp	r2, #1
 105 0036 02D9     		bls	.L5
 288:lvgl/src/misc/lv_lru.c ****         h ^= data[1] << 8;
 106              		.loc 1 288 9 is_stmt 1 view .LVU34
 107              		.loc 1 288 18 is_stmt 0 view .LVU35
 108 0038 4B78     		ldrb	r3, [r1, #1]	@ zero_extendqisi2
 109              		.loc 1 288 11 view .LVU36
 110 003a 8CEA032C 		eor	ip, ip, r3, lsl #8
 111              	.LVL12:
ARM GAS  /var/folders/21/t9g5rlb91ys800n5npymflf80000gn/T//ccOkOylr.s 			page 8


 112              	.L5:
 289:lvgl/src/misc/lv_lru.c ****     }
 290:lvgl/src/misc/lv_lru.c ****     if(key_length >= 1) {
 113              		.loc 1 290 5 is_stmt 1 view .LVU37
 114              		.loc 1 290 7 is_stmt 0 view .LVU38
 115 003e 2AB1     		cbz	r2, .L6
 291:lvgl/src/misc/lv_lru.c ****         h ^= data[0];
 116              		.loc 1 291 9 is_stmt 1 view .LVU39
 117              		.loc 1 291 18 is_stmt 0 view .LVU40
 118 0040 0B78     		ldrb	r3, [r1]	@ zero_extendqisi2
 119              		.loc 1 291 11 view .LVU41
 120 0042 83EA0C0C 		eor	ip, r3, ip
 121              	.LVL13:
 292:lvgl/src/misc/lv_lru.c ****         h *= m;
 122              		.loc 1 292 9 is_stmt 1 view .LVU42
 123              		.loc 1 292 11 is_stmt 0 view .LVU43
 124 0046 094B     		ldr	r3, .L8
 125 0048 03FB0CFC 		mul	ip, r3, ip
 126              	.LVL14:
 127              	.L6:
 293:lvgl/src/misc/lv_lru.c ****     }
 294:lvgl/src/misc/lv_lru.c **** 
 295:lvgl/src/misc/lv_lru.c ****     h ^= h >> 13;
 128              		.loc 1 295 5 is_stmt 1 view .LVU44
 129              		.loc 1 295 7 is_stmt 0 view .LVU45
 130 004c 8CEA5C3C 		eor	ip, ip, ip, lsr #13
 131              	.LVL15:
 296:lvgl/src/misc/lv_lru.c ****     h *= m;
 132              		.loc 1 296 5 is_stmt 1 view .LVU46
 133              		.loc 1 296 7 is_stmt 0 view .LVU47
 134 0050 064B     		ldr	r3, .L8
 135 0052 03FB0CFC 		mul	ip, r3, ip
 136              	.LVL16:
 297:lvgl/src/misc/lv_lru.c ****     h ^= h >> 15;
 137              		.loc 1 297 5 is_stmt 1 view .LVU48
 138              		.loc 1 297 7 is_stmt 0 view .LVU49
 139 0056 8CEADC3C 		eor	ip, ip, ip, lsr #15
 140              	.LVL17:
 298:lvgl/src/misc/lv_lru.c ****     return h % cache->hash_table_size;
 141              		.loc 1 298 5 is_stmt 1 view .LVU50
 142              		.loc 1 298 21 is_stmt 0 view .LVU51
 143 005a C369     		ldr	r3, [r0, #28]
 144              		.loc 1 298 14 view .LVU52
 145 005c BCFBF3F0 		udiv	r0, ip, r3
 146              	.LVL18:
 299:lvgl/src/misc/lv_lru.c **** }
 147              		.loc 1 299 1 view .LVU53
 148 0060 03FB10C0 		mls	r0, r3, r0, ip
 149 0064 5DF8044B 		ldr	r4, [sp], #4
 150              	.LCFI1:
 151              		.cfi_restore 4
 152              		.cfi_def_cfa_offset 0
 153 0068 7047     		bx	lr
 154              	.L9:
 155 006a 00BF     		.align	2
 156              	.L8:
 157 006c 95E9D15B 		.word	1540483477
ARM GAS  /var/folders/21/t9g5rlb91ys800n5npymflf80000gn/T//ccOkOylr.s 			page 9


 158              		.cfi_endproc
 159              	.LFE8:
 161              		.section	.text.lv_lru_pop_or_create_item,"ax",%progbits
 162              		.align	1
 163              		.syntax unified
 164              		.thumb
 165              		.thumb_func
 167              	lv_lru_pop_or_create_item:
 168              	.LVL19:
 169              	.LFB11:
 300:lvgl/src/misc/lv_lru.c **** 
 301:lvgl/src/misc/lv_lru.c **** static int lv_lru_cmp_keys(lv_lru_item_t * item, const void * key, uint32_t key_length)
 302:lvgl/src/misc/lv_lru.c **** {
 303:lvgl/src/misc/lv_lru.c ****     if(key_length != item->key_length) {
 304:lvgl/src/misc/lv_lru.c ****         return 1;
 305:lvgl/src/misc/lv_lru.c ****     }
 306:lvgl/src/misc/lv_lru.c ****     else {
 307:lvgl/src/misc/lv_lru.c ****         return memcmp(key, item->key, key_length);
 308:lvgl/src/misc/lv_lru.c ****     }
 309:lvgl/src/misc/lv_lru.c **** }
 310:lvgl/src/misc/lv_lru.c **** 
 311:lvgl/src/misc/lv_lru.c **** static void lv_lru_remove_item(lv_lru_t * cache, lv_lru_item_t * prev, lv_lru_item_t * item, uint32
 312:lvgl/src/misc/lv_lru.c **** {
 313:lvgl/src/misc/lv_lru.c ****     if(prev) {
 314:lvgl/src/misc/lv_lru.c ****         prev->next = item->next;
 315:lvgl/src/misc/lv_lru.c ****     }
 316:lvgl/src/misc/lv_lru.c ****     else {
 317:lvgl/src/misc/lv_lru.c ****         cache->items[hash_index] = (lv_lru_item_t *) item->next;
 318:lvgl/src/misc/lv_lru.c ****     }
 319:lvgl/src/misc/lv_lru.c **** 
 320:lvgl/src/misc/lv_lru.c ****     // free memory and update the free memory counter
 321:lvgl/src/misc/lv_lru.c ****     cache->free_memory += item->value_length;
 322:lvgl/src/misc/lv_lru.c ****     cache->value_free(item->value);
 323:lvgl/src/misc/lv_lru.c ****     cache->key_free(item->key);
 324:lvgl/src/misc/lv_lru.c **** 
 325:lvgl/src/misc/lv_lru.c ****     // push the item to the free items queue
 326:lvgl/src/misc/lv_lru.c ****     lv_memset_00(item, sizeof(lv_lru_item_t));
 327:lvgl/src/misc/lv_lru.c ****     item->next = cache->free_items;
 328:lvgl/src/misc/lv_lru.c ****     cache->free_items = item;
 329:lvgl/src/misc/lv_lru.c **** }
 330:lvgl/src/misc/lv_lru.c **** 
 331:lvgl/src/misc/lv_lru.c **** static lv_lru_item_t * lv_lru_pop_or_create_item(lv_lru_t * cache)
 332:lvgl/src/misc/lv_lru.c **** {
 170              		.loc 1 332 1 is_stmt 1 view -0
 171              		.cfi_startproc
 172              		@ args = 0, pretend = 0, frame = 0
 173              		@ frame_needed = 0, uses_anonymous_args = 0
 174              		.loc 1 332 1 is_stmt 0 view .LVU55
 175 0000 10B5     		push	{r4, lr}
 176              	.LCFI2:
 177              		.cfi_def_cfa_offset 8
 178              		.cfi_offset 4, -8
 179              		.cfi_offset 14, -4
 333:lvgl/src/misc/lv_lru.c ****     lv_lru_item_t * item = NULL;
 180              		.loc 1 333 5 is_stmt 1 view .LVU56
 181              	.LVL20:
 334:lvgl/src/misc/lv_lru.c **** 
ARM GAS  /var/folders/21/t9g5rlb91ys800n5npymflf80000gn/T//ccOkOylr.s 			page 10


 335:lvgl/src/misc/lv_lru.c ****     if(cache->free_items) {
 182              		.loc 1 335 5 view .LVU57
 183              		.loc 1 335 13 is_stmt 0 view .LVU58
 184 0002 C46A     		ldr	r4, [r0, #44]
 185              		.loc 1 335 7 view .LVU59
 186 0004 3CB1     		cbz	r4, .L11
 336:lvgl/src/misc/lv_lru.c ****         item = cache->free_items;
 187              		.loc 1 336 9 is_stmt 1 view .LVU60
 188              	.LVL21:
 337:lvgl/src/misc/lv_lru.c ****         cache->free_items = item->next;
 189              		.loc 1 337 9 view .LVU61
 190              		.loc 1 337 33 is_stmt 0 view .LVU62
 191 0006 A369     		ldr	r3, [r4, #24]
 192              		.loc 1 337 27 view .LVU63
 193 0008 C362     		str	r3, [r0, #44]
 338:lvgl/src/misc/lv_lru.c ****         lv_memset_00(item, sizeof(lv_lru_item_t));
 194              		.loc 1 338 9 is_stmt 1 view .LVU64
 195 000a 2021     		movs	r1, #32
 196 000c 2046     		mov	r0, r4
 197              	.LVL22:
 198              		.loc 1 338 9 is_stmt 0 view .LVU65
 199 000e FFF7FEFF 		bl	lv_memset_00
 200              	.LVL23:
 201              	.L10:
 339:lvgl/src/misc/lv_lru.c ****     }
 340:lvgl/src/misc/lv_lru.c ****     else {
 341:lvgl/src/misc/lv_lru.c ****         item = (lv_lru_item_t *) lv_mem_alloc(sizeof(lv_lru_item_t));
 342:lvgl/src/misc/lv_lru.c ****         lv_memset_00(item, sizeof(lv_lru_item_t));
 343:lvgl/src/misc/lv_lru.c ****     }
 344:lvgl/src/misc/lv_lru.c **** 
 345:lvgl/src/misc/lv_lru.c ****     return item;
 346:lvgl/src/misc/lv_lru.c **** }
 202              		.loc 1 346 1 view .LVU66
 203 0012 2046     		mov	r0, r4
 204 0014 10BD     		pop	{r4, pc}
 205              	.LVL24:
 206              	.L11:
 341:lvgl/src/misc/lv_lru.c ****         lv_memset_00(item, sizeof(lv_lru_item_t));
 207              		.loc 1 341 9 is_stmt 1 view .LVU67
 341:lvgl/src/misc/lv_lru.c ****         lv_memset_00(item, sizeof(lv_lru_item_t));
 208              		.loc 1 341 34 is_stmt 0 view .LVU68
 209 0016 2020     		movs	r0, #32
 210              	.LVL25:
 341:lvgl/src/misc/lv_lru.c ****         lv_memset_00(item, sizeof(lv_lru_item_t));
 211              		.loc 1 341 34 view .LVU69
 212 0018 FFF7FEFF 		bl	lv_mem_alloc
 213              	.LVL26:
 214 001c 0446     		mov	r4, r0
 215              	.LVL27:
 342:lvgl/src/misc/lv_lru.c ****     }
 216              		.loc 1 342 9 is_stmt 1 view .LVU70
 217 001e 2021     		movs	r1, #32
 218 0020 FFF7FEFF 		bl	lv_memset_00
 219              	.LVL28:
 345:lvgl/src/misc/lv_lru.c **** }
 220              		.loc 1 345 5 view .LVU71
 345:lvgl/src/misc/lv_lru.c **** }
ARM GAS  /var/folders/21/t9g5rlb91ys800n5npymflf80000gn/T//ccOkOylr.s 			page 11


 221              		.loc 1 345 12 is_stmt 0 view .LVU72
 222 0024 F5E7     		b	.L10
 223              		.cfi_endproc
 224              	.LFE11:
 226              		.section	.text.lv_lru_remove_item,"ax",%progbits
 227              		.align	1
 228              		.syntax unified
 229              		.thumb
 230              		.thumb_func
 232              	lv_lru_remove_item:
 233              	.LVL29:
 234              	.LFB10:
 312:lvgl/src/misc/lv_lru.c ****     if(prev) {
 235              		.loc 1 312 1 is_stmt 1 view -0
 236              		.cfi_startproc
 237              		@ args = 0, pretend = 0, frame = 0
 238              		@ frame_needed = 0, uses_anonymous_args = 0
 312:lvgl/src/misc/lv_lru.c ****     if(prev) {
 239              		.loc 1 312 1 is_stmt 0 view .LVU74
 240 0000 38B5     		push	{r3, r4, r5, lr}
 241              	.LCFI3:
 242              		.cfi_def_cfa_offset 16
 243              		.cfi_offset 3, -16
 244              		.cfi_offset 4, -12
 245              		.cfi_offset 5, -8
 246              		.cfi_offset 14, -4
 247 0002 0546     		mov	r5, r0
 248 0004 1446     		mov	r4, r2
 313:lvgl/src/misc/lv_lru.c ****         prev->next = item->next;
 249              		.loc 1 313 5 is_stmt 1 view .LVU75
 313:lvgl/src/misc/lv_lru.c ****         prev->next = item->next;
 250              		.loc 1 313 7 is_stmt 0 view .LVU76
 251 0006 99B1     		cbz	r1, .L15
 314:lvgl/src/misc/lv_lru.c ****     }
 252              		.loc 1 314 9 is_stmt 1 view .LVU77
 314:lvgl/src/misc/lv_lru.c ****     }
 253              		.loc 1 314 26 is_stmt 0 view .LVU78
 254 0008 A369     		ldr	r3, [r4, #24]
 255              	.LVL30:
 314:lvgl/src/misc/lv_lru.c ****     }
 256              		.loc 1 314 20 view .LVU79
 257 000a 8B61     		str	r3, [r1, #24]
 258              	.LVL31:
 259              	.L16:
 321:lvgl/src/misc/lv_lru.c ****     cache->value_free(item->value);
 260              		.loc 1 321 5 is_stmt 1 view .LVU80
 321:lvgl/src/misc/lv_lru.c ****     cache->value_free(item->value);
 261              		.loc 1 321 10 is_stmt 0 view .LVU81
 262 000c 2B69     		ldr	r3, [r5, #16]
 321:lvgl/src/misc/lv_lru.c ****     cache->value_free(item->value);
 263              		.loc 1 321 31 view .LVU82
 264 000e A268     		ldr	r2, [r4, #8]
 321:lvgl/src/misc/lv_lru.c ****     cache->value_free(item->value);
 265              		.loc 1 321 24 view .LVU83
 266 0010 1344     		add	r3, r3, r2
 267 0012 2B61     		str	r3, [r5, #16]
 322:lvgl/src/misc/lv_lru.c ****     cache->key_free(item->key);
ARM GAS  /var/folders/21/t9g5rlb91ys800n5npymflf80000gn/T//ccOkOylr.s 			page 12


 268              		.loc 1 322 5 is_stmt 1 view .LVU84
 322:lvgl/src/misc/lv_lru.c ****     cache->key_free(item->key);
 269              		.loc 1 322 10 is_stmt 0 view .LVU85
 270 0014 6B6A     		ldr	r3, [r5, #36]
 322:lvgl/src/misc/lv_lru.c ****     cache->key_free(item->key);
 271              		.loc 1 322 5 view .LVU86
 272 0016 2068     		ldr	r0, [r4]
 273              	.LVL32:
 322:lvgl/src/misc/lv_lru.c ****     cache->key_free(item->key);
 274              		.loc 1 322 5 view .LVU87
 275 0018 9847     		blx	r3
 276              	.LVL33:
 323:lvgl/src/misc/lv_lru.c **** 
 277              		.loc 1 323 5 is_stmt 1 view .LVU88
 323:lvgl/src/misc/lv_lru.c **** 
 278              		.loc 1 323 10 is_stmt 0 view .LVU89
 279 001a AB6A     		ldr	r3, [r5, #40]
 323:lvgl/src/misc/lv_lru.c **** 
 280              		.loc 1 323 5 view .LVU90
 281 001c 6068     		ldr	r0, [r4, #4]
 282 001e 9847     		blx	r3
 283              	.LVL34:
 326:lvgl/src/misc/lv_lru.c ****     item->next = cache->free_items;
 284              		.loc 1 326 5 is_stmt 1 view .LVU91
 285 0020 2021     		movs	r1, #32
 286 0022 2046     		mov	r0, r4
 287 0024 FFF7FEFF 		bl	lv_memset_00
 288              	.LVL35:
 327:lvgl/src/misc/lv_lru.c ****     cache->free_items = item;
 289              		.loc 1 327 5 view .LVU92
 327:lvgl/src/misc/lv_lru.c ****     cache->free_items = item;
 290              		.loc 1 327 23 is_stmt 0 view .LVU93
 291 0028 EB6A     		ldr	r3, [r5, #44]
 327:lvgl/src/misc/lv_lru.c ****     cache->free_items = item;
 292              		.loc 1 327 16 view .LVU94
 293 002a A361     		str	r3, [r4, #24]
 328:lvgl/src/misc/lv_lru.c **** }
 294              		.loc 1 328 5 is_stmt 1 view .LVU95
 328:lvgl/src/misc/lv_lru.c **** }
 295              		.loc 1 328 23 is_stmt 0 view .LVU96
 296 002c EC62     		str	r4, [r5, #44]
 329:lvgl/src/misc/lv_lru.c **** 
 297              		.loc 1 329 1 view .LVU97
 298 002e 38BD     		pop	{r3, r4, r5, pc}
 299              	.LVL36:
 300              	.L15:
 317:lvgl/src/misc/lv_lru.c ****     }
 301              		.loc 1 317 9 is_stmt 1 view .LVU98
 317:lvgl/src/misc/lv_lru.c ****     }
 302              		.loc 1 317 14 is_stmt 0 view .LVU99
 303 0030 0268     		ldr	r2, [r0]
 304              	.LVL37:
 317:lvgl/src/misc/lv_lru.c ****     }
 305              		.loc 1 317 58 view .LVU100
 306 0032 A169     		ldr	r1, [r4, #24]
 307              	.LVL38:
 317:lvgl/src/misc/lv_lru.c ****     }
ARM GAS  /var/folders/21/t9g5rlb91ys800n5npymflf80000gn/T//ccOkOylr.s 			page 13


 308              		.loc 1 317 34 view .LVU101
 309 0034 42F82310 		str	r1, [r2, r3, lsl #2]
 310 0038 E8E7     		b	.L16
 311              		.cfi_endproc
 312              	.LFE10:
 314              		.section	.text.lv_lru_cmp_keys,"ax",%progbits
 315              		.align	1
 316              		.syntax unified
 317              		.thumb
 318              		.thumb_func
 320              	lv_lru_cmp_keys:
 321              	.LVL39:
 322              	.LFB9:
 302:lvgl/src/misc/lv_lru.c ****     if(key_length != item->key_length) {
 323              		.loc 1 302 1 is_stmt 1 view -0
 324              		.cfi_startproc
 325              		@ args = 0, pretend = 0, frame = 0
 326              		@ frame_needed = 0, uses_anonymous_args = 0
 302:lvgl/src/misc/lv_lru.c ****     if(key_length != item->key_length) {
 327              		.loc 1 302 1 is_stmt 0 view .LVU103
 328 0000 08B5     		push	{r3, lr}
 329              	.LCFI4:
 330              		.cfi_def_cfa_offset 8
 331              		.cfi_offset 3, -8
 332              		.cfi_offset 14, -4
 333 0002 0346     		mov	r3, r0
 334 0004 0846     		mov	r0, r1
 335              	.LVL40:
 303:lvgl/src/misc/lv_lru.c ****         return 1;
 336              		.loc 1 303 5 is_stmt 1 view .LVU104
 303:lvgl/src/misc/lv_lru.c ****         return 1;
 337              		.loc 1 303 26 is_stmt 0 view .LVU105
 338 0006 D968     		ldr	r1, [r3, #12]
 339              	.LVL41:
 303:lvgl/src/misc/lv_lru.c ****         return 1;
 340              		.loc 1 303 7 view .LVU106
 341 0008 9142     		cmp	r1, r2
 342 000a 01D0     		beq	.L22
 304:lvgl/src/misc/lv_lru.c ****     }
 343              		.loc 1 304 16 view .LVU107
 344 000c 0120     		movs	r0, #1
 345              	.LVL42:
 346              	.L18:
 309:lvgl/src/misc/lv_lru.c **** 
 347              		.loc 1 309 1 view .LVU108
 348 000e 08BD     		pop	{r3, pc}
 349              	.LVL43:
 350              	.L22:
 307:lvgl/src/misc/lv_lru.c ****     }
 351              		.loc 1 307 9 is_stmt 1 view .LVU109
 307:lvgl/src/misc/lv_lru.c ****     }
 352              		.loc 1 307 16 is_stmt 0 view .LVU110
 353 0010 5968     		ldr	r1, [r3, #4]
 354 0012 FFF7FEFF 		bl	memcmp
 355              	.LVL44:
 307:lvgl/src/misc/lv_lru.c ****     }
 356              		.loc 1 307 16 view .LVU111
ARM GAS  /var/folders/21/t9g5rlb91ys800n5npymflf80000gn/T//ccOkOylr.s 			page 14


 357 0016 FAE7     		b	.L18
 358              		.cfi_endproc
 359              	.LFE9:
 361              		.section	.text.lv_lru_create,"ax",%progbits
 362              		.align	1
 363              		.global	lv_lru_create
 364              		.syntax unified
 365              		.thumb
 366              		.thumb_func
 368              	lv_lru_create:
 369              	.LVL45:
 370              	.LFB2:
  75:lvgl/src/misc/lv_lru.c ****     // create the cache
 371              		.loc 1 75 1 is_stmt 1 view -0
 372              		.cfi_startproc
 373              		@ args = 0, pretend = 0, frame = 0
 374              		@ frame_needed = 0, uses_anonymous_args = 0
  75:lvgl/src/misc/lv_lru.c ****     // create the cache
 375              		.loc 1 75 1 is_stmt 0 view .LVU113
 376 0000 2DE9F041 		push	{r4, r5, r6, r7, r8, lr}
 377              	.LCFI5:
 378              		.cfi_def_cfa_offset 24
 379              		.cfi_offset 4, -24
 380              		.cfi_offset 5, -20
 381              		.cfi_offset 6, -16
 382              		.cfi_offset 7, -12
 383              		.cfi_offset 8, -8
 384              		.cfi_offset 14, -4
 385 0004 0746     		mov	r7, r0
 386 0006 8846     		mov	r8, r1
 387 0008 1646     		mov	r6, r2
 388 000a 1D46     		mov	r5, r3
  77:lvgl/src/misc/lv_lru.c ****     lv_memset_00(cache, sizeof(lv_lru_t));
 389              		.loc 1 77 5 is_stmt 1 view .LVU114
  77:lvgl/src/misc/lv_lru.c ****     lv_memset_00(cache, sizeof(lv_lru_t));
 390              		.loc 1 77 37 is_stmt 0 view .LVU115
 391 000c 3020     		movs	r0, #48
 392              	.LVL46:
  77:lvgl/src/misc/lv_lru.c ****     lv_memset_00(cache, sizeof(lv_lru_t));
 393              		.loc 1 77 37 view .LVU116
 394 000e FFF7FEFF 		bl	lv_mem_alloc
 395              	.LVL47:
  77:lvgl/src/misc/lv_lru.c ****     lv_memset_00(cache, sizeof(lv_lru_t));
 396              		.loc 1 77 37 view .LVU117
 397 0012 0446     		mov	r4, r0
 398              	.LVL48:
  78:lvgl/src/misc/lv_lru.c ****     if(!cache) {
 399              		.loc 1 78 5 is_stmt 1 view .LVU118
 400 0014 3021     		movs	r1, #48
 401 0016 FFF7FEFF 		bl	lv_memset_00
 402              	.LVL49:
  79:lvgl/src/misc/lv_lru.c ****         LV_LOG_WARN("LRU Cache unable to create cache object");
 403              		.loc 1 79 5 view .LVU119
  79:lvgl/src/misc/lv_lru.c ****         LV_LOG_WARN("LRU Cache unable to create cache object");
 404              		.loc 1 79 7 is_stmt 0 view .LVU120
 405 001a DCB1     		cbz	r4, .L23
  83:lvgl/src/misc/lv_lru.c ****     cache->average_item_length = average_length;
ARM GAS  /var/folders/21/t9g5rlb91ys800n5npymflf80000gn/T//ccOkOylr.s 			page 15


 406              		.loc 1 83 5 is_stmt 1 view .LVU121
  83:lvgl/src/misc/lv_lru.c ****     cache->average_item_length = average_length;
 407              		.loc 1 83 41 is_stmt 0 view .LVU122
 408 001c B7FBF8F3 		udiv	r3, r7, r8
  83:lvgl/src/misc/lv_lru.c ****     cache->average_item_length = average_length;
 409              		.loc 1 83 28 view .LVU123
 410 0020 E361     		str	r3, [r4, #28]
  84:lvgl/src/misc/lv_lru.c ****     cache->free_memory = cache_size;
 411              		.loc 1 84 5 is_stmt 1 view .LVU124
  84:lvgl/src/misc/lv_lru.c ****     cache->free_memory = cache_size;
 412              		.loc 1 84 32 is_stmt 0 view .LVU125
 413 0022 C4F81880 		str	r8, [r4, #24]
  85:lvgl/src/misc/lv_lru.c ****     cache->total_memory = cache_size;
 414              		.loc 1 85 5 is_stmt 1 view .LVU126
  85:lvgl/src/misc/lv_lru.c ****     cache->total_memory = cache_size;
 415              		.loc 1 85 24 is_stmt 0 view .LVU127
 416 0026 2761     		str	r7, [r4, #16]
  86:lvgl/src/misc/lv_lru.c ****     cache->seed = lv_rand(1, UINT32_MAX);
 417              		.loc 1 86 5 is_stmt 1 view .LVU128
  86:lvgl/src/misc/lv_lru.c ****     cache->seed = lv_rand(1, UINT32_MAX);
 418              		.loc 1 86 25 is_stmt 0 view .LVU129
 419 0028 6761     		str	r7, [r4, #20]
  87:lvgl/src/misc/lv_lru.c ****     cache->value_free = value_free ? value_free : lv_mem_free;
 420              		.loc 1 87 5 is_stmt 1 view .LVU130
  87:lvgl/src/misc/lv_lru.c ****     cache->value_free = value_free ? value_free : lv_mem_free;
 421              		.loc 1 87 19 is_stmt 0 view .LVU131
 422 002a 4FF0FF31 		mov	r1, #-1
 423 002e 0120     		movs	r0, #1
 424 0030 FFF7FEFF 		bl	lv_rand
 425              	.LVL50:
  87:lvgl/src/misc/lv_lru.c ****     cache->value_free = value_free ? value_free : lv_mem_free;
 426              		.loc 1 87 17 view .LVU132
 427 0034 2062     		str	r0, [r4, #32]
  88:lvgl/src/misc/lv_lru.c ****     cache->key_free = key_free ? key_free : lv_mem_free;
 428              		.loc 1 88 5 is_stmt 1 view .LVU133
  88:lvgl/src/misc/lv_lru.c ****     cache->key_free = key_free ? key_free : lv_mem_free;
 429              		.loc 1 88 49 is_stmt 0 view .LVU134
 430 0036 86B1     		cbz	r6, .L30
 431              	.LVL51:
 432              	.L25:
  88:lvgl/src/misc/lv_lru.c ****     cache->key_free = key_free ? key_free : lv_mem_free;
 433              		.loc 1 88 23 discriminator 4 view .LVU135
 434 0038 6662     		str	r6, [r4, #36]
  89:lvgl/src/misc/lv_lru.c **** 
 435              		.loc 1 89 5 is_stmt 1 discriminator 4 view .LVU136
  89:lvgl/src/misc/lv_lru.c **** 
 436              		.loc 1 89 43 is_stmt 0 discriminator 4 view .LVU137
 437 003a 85B1     		cbz	r5, .L31
 438              	.LVL52:
 439              	.L26:
  89:lvgl/src/misc/lv_lru.c **** 
 440              		.loc 1 89 21 discriminator 4 view .LVU138
 441 003c A562     		str	r5, [r4, #40]
  92:lvgl/src/misc/lv_lru.c ****     lv_memset_00(cache->items, sizeof(lv_lru_item_t *) * cache->hash_table_size);
 442              		.loc 1 92 5 is_stmt 1 discriminator 4 view .LVU139
  92:lvgl/src/misc/lv_lru.c ****     lv_memset_00(cache->items, sizeof(lv_lru_item_t *) * cache->hash_table_size);
 443              		.loc 1 92 83 is_stmt 0 discriminator 4 view .LVU140
ARM GAS  /var/folders/21/t9g5rlb91ys800n5npymflf80000gn/T//ccOkOylr.s 			page 16


 444 003e E069     		ldr	r0, [r4, #28]
  92:lvgl/src/misc/lv_lru.c ****     lv_memset_00(cache->items, sizeof(lv_lru_item_t *) * cache->hash_table_size);
 445              		.loc 1 92 39 discriminator 4 view .LVU141
 446 0040 8000     		lsls	r0, r0, #2
 447 0042 FFF7FEFF 		bl	lv_mem_alloc
 448              	.LVL53:
  92:lvgl/src/misc/lv_lru.c ****     lv_memset_00(cache->items, sizeof(lv_lru_item_t *) * cache->hash_table_size);
 449              		.loc 1 92 18 discriminator 4 view .LVU142
 450 0046 2060     		str	r0, [r4]
  93:lvgl/src/misc/lv_lru.c ****     if(!cache->items) {
 451              		.loc 1 93 5 is_stmt 1 discriminator 4 view .LVU143
  93:lvgl/src/misc/lv_lru.c ****     if(!cache->items) {
 452              		.loc 1 93 63 is_stmt 0 discriminator 4 view .LVU144
 453 0048 E169     		ldr	r1, [r4, #28]
  93:lvgl/src/misc/lv_lru.c ****     if(!cache->items) {
 454              		.loc 1 93 5 discriminator 4 view .LVU145
 455 004a 8900     		lsls	r1, r1, #2
 456 004c FFF7FEFF 		bl	lv_memset_00
 457              	.LVL54:
  94:lvgl/src/misc/lv_lru.c ****         LV_LOG_WARN("LRU Cache unable to create cache hash table");
 458              		.loc 1 94 5 is_stmt 1 discriminator 4 view .LVU146
  94:lvgl/src/misc/lv_lru.c ****         LV_LOG_WARN("LRU Cache unable to create cache hash table");
 459              		.loc 1 94 14 is_stmt 0 discriminator 4 view .LVU147
 460 0050 2568     		ldr	r5, [r4]
  94:lvgl/src/misc/lv_lru.c ****         LV_LOG_WARN("LRU Cache unable to create cache hash table");
 461              		.loc 1 94 7 discriminator 4 view .LVU148
 462 0052 35B1     		cbz	r5, .L32
 463              	.LVL55:
 464              	.L23:
 100:lvgl/src/misc/lv_lru.c **** 
 465              		.loc 1 100 1 view .LVU149
 466 0054 2046     		mov	r0, r4
 467 0056 BDE8F081 		pop	{r4, r5, r6, r7, r8, pc}
 468              	.LVL56:
 469              	.L30:
  88:lvgl/src/misc/lv_lru.c ****     cache->key_free = key_free ? key_free : lv_mem_free;
 470              		.loc 1 88 49 view .LVU150
 471 005a 044E     		ldr	r6, .L33
 472              	.LVL57:
  88:lvgl/src/misc/lv_lru.c ****     cache->key_free = key_free ? key_free : lv_mem_free;
 473              		.loc 1 88 49 view .LVU151
 474 005c ECE7     		b	.L25
 475              	.L31:
  89:lvgl/src/misc/lv_lru.c **** 
 476              		.loc 1 89 43 view .LVU152
 477 005e 034D     		ldr	r5, .L33
 478              	.LVL58:
  89:lvgl/src/misc/lv_lru.c **** 
 479              		.loc 1 89 43 view .LVU153
 480 0060 ECE7     		b	.L26
 481              	.L32:
  95:lvgl/src/misc/lv_lru.c ****         lv_mem_free(cache);
 482              		.loc 1 95 9 is_stmt 1 view .LVU154
  95:lvgl/src/misc/lv_lru.c ****         lv_mem_free(cache);
 483              		.loc 1 95 9 view .LVU155
  95:lvgl/src/misc/lv_lru.c ****         lv_mem_free(cache);
 484              		.loc 1 95 9 view .LVU156
ARM GAS  /var/folders/21/t9g5rlb91ys800n5npymflf80000gn/T//ccOkOylr.s 			page 17


  96:lvgl/src/misc/lv_lru.c ****         return NULL;
 485              		.loc 1 96 9 view .LVU157
 486 0062 2046     		mov	r0, r4
 487 0064 FFF7FEFF 		bl	lv_mem_free
 488              	.LVL59:
  97:lvgl/src/misc/lv_lru.c ****     }
 489              		.loc 1 97 9 view .LVU158
  97:lvgl/src/misc/lv_lru.c ****     }
 490              		.loc 1 97 16 is_stmt 0 view .LVU159
 491 0068 2C46     		mov	r4, r5
 492              	.LVL60:
  97:lvgl/src/misc/lv_lru.c ****     }
 493              		.loc 1 97 16 view .LVU160
 494 006a F3E7     		b	.L23
 495              	.L34:
 496              		.align	2
 497              	.L33:
 498 006c 00000000 		.word	lv_mem_free
 499              		.cfi_endproc
 500              	.LFE2:
 502              		.section	.text.lv_lru_del,"ax",%progbits
 503              		.align	1
 504              		.global	lv_lru_del
 505              		.syntax unified
 506              		.thumb
 507              		.thumb_func
 509              	lv_lru_del:
 510              	.LVL61:
 511              	.LFB3:
 103:lvgl/src/misc/lv_lru.c ****     LV_ASSERT_NULL(cache);
 512              		.loc 1 103 1 is_stmt 1 view -0
 513              		.cfi_startproc
 514              		@ args = 0, pretend = 0, frame = 0
 515              		@ frame_needed = 0, uses_anonymous_args = 0
 104:lvgl/src/misc/lv_lru.c **** 
 516              		.loc 1 104 5 view .LVU162
 104:lvgl/src/misc/lv_lru.c **** 
 517              		.loc 1 104 5 view .LVU163
 518 0000 28B1     		cbz	r0, .L37
 103:lvgl/src/misc/lv_lru.c ****     LV_ASSERT_NULL(cache);
 519              		.loc 1 103 1 is_stmt 0 discriminator 2 view .LVU164
 520 0002 F8B5     		push	{r3, r4, r5, r6, r7, lr}
 521              	.LCFI6:
 522              		.cfi_def_cfa_offset 24
 523              		.cfi_offset 3, -24
 524              		.cfi_offset 4, -20
 525              		.cfi_offset 5, -16
 526              		.cfi_offset 6, -12
 527              		.cfi_offset 7, -8
 528              		.cfi_offset 14, -4
 529 0004 0546     		mov	r5, r0
 104:lvgl/src/misc/lv_lru.c **** 
 530              		.loc 1 104 5 is_stmt 1 discriminator 2 view .LVU165
 104:lvgl/src/misc/lv_lru.c **** 
 531              		.loc 1 104 26 discriminator 2 view .LVU166
 107:lvgl/src/misc/lv_lru.c ****     uint32_t i = 0;
 532              		.loc 1 107 5 discriminator 2 view .LVU167
ARM GAS  /var/folders/21/t9g5rlb91ys800n5npymflf80000gn/T//ccOkOylr.s 			page 18


 533              	.LVL62:
 108:lvgl/src/misc/lv_lru.c ****     if(cache->items) {
 534              		.loc 1 108 5 discriminator 2 view .LVU168
 109:lvgl/src/misc/lv_lru.c ****         for(; i < cache->hash_table_size; i++) {
 535              		.loc 1 109 5 discriminator 2 view .LVU169
 109:lvgl/src/misc/lv_lru.c ****         for(; i < cache->hash_table_size; i++) {
 536              		.loc 1 109 13 is_stmt 0 discriminator 2 view .LVU170
 537 0006 0368     		ldr	r3, [r0]
 109:lvgl/src/misc/lv_lru.c ****         for(; i < cache->hash_table_size; i++) {
 538              		.loc 1 109 7 discriminator 2 view .LVU171
 539 0008 F3B1     		cbz	r3, .L39
 108:lvgl/src/misc/lv_lru.c ****     if(cache->items) {
 540              		.loc 1 108 14 view .LVU172
 541 000a 0027     		movs	r7, #0
 542 000c 12E0     		b	.L38
 543              	.LVL63:
 544              	.L37:
 545              	.LCFI7:
 546              		.cfi_def_cfa_offset 0
 547              		.cfi_restore 3
 548              		.cfi_restore 4
 549              		.cfi_restore 5
 550              		.cfi_restore 6
 551              		.cfi_restore 7
 552              		.cfi_restore 14
 104:lvgl/src/misc/lv_lru.c **** 
 553              		.loc 1 104 5 is_stmt 1 discriminator 1 view .LVU173
 104:lvgl/src/misc/lv_lru.c **** 
 554              		.loc 1 104 5 discriminator 1 view .LVU174
 104:lvgl/src/misc/lv_lru.c **** 
 555              		.loc 1 104 5 discriminator 1 view .LVU175
 104:lvgl/src/misc/lv_lru.c **** 
 556              		.loc 1 104 5 discriminator 1 view .LVU176
 104:lvgl/src/misc/lv_lru.c **** 
 557              		.loc 1 104 5 discriminator 1 view .LVU177
 558 000e FEE7     		b	.L37
 559              	.LVL64:
 560              	.L41:
 561              	.LCFI8:
 562              		.cfi_def_cfa_offset 24
 563              		.cfi_offset 3, -24
 564              		.cfi_offset 4, -20
 565              		.cfi_offset 5, -16
 566              		.cfi_offset 6, -12
 567              		.cfi_offset 7, -8
 568              		.cfi_offset 14, -4
 113:lvgl/src/misc/lv_lru.c ****                 cache->value_free(item->value);
 569              		.loc 1 113 17 view .LVU178
 113:lvgl/src/misc/lv_lru.c ****                 cache->value_free(item->value);
 570              		.loc 1 113 22 is_stmt 0 view .LVU179
 571 0010 A669     		ldr	r6, [r4, #24]
 572              	.LVL65:
 114:lvgl/src/misc/lv_lru.c ****                 cache->key_free(item->key);
 573              		.loc 1 114 17 is_stmt 1 view .LVU180
 114:lvgl/src/misc/lv_lru.c ****                 cache->key_free(item->key);
 574              		.loc 1 114 22 is_stmt 0 view .LVU181
 575 0012 6B6A     		ldr	r3, [r5, #36]
ARM GAS  /var/folders/21/t9g5rlb91ys800n5npymflf80000gn/T//ccOkOylr.s 			page 19


 114:lvgl/src/misc/lv_lru.c ****                 cache->key_free(item->key);
 576              		.loc 1 114 17 view .LVU182
 577 0014 2068     		ldr	r0, [r4]
 578 0016 9847     		blx	r3
 579              	.LVL66:
 115:lvgl/src/misc/lv_lru.c ****                 cache->free_memory += item->value_length;
 580              		.loc 1 115 17 is_stmt 1 view .LVU183
 115:lvgl/src/misc/lv_lru.c ****                 cache->free_memory += item->value_length;
 581              		.loc 1 115 22 is_stmt 0 view .LVU184
 582 0018 AB6A     		ldr	r3, [r5, #40]
 115:lvgl/src/misc/lv_lru.c ****                 cache->free_memory += item->value_length;
 583              		.loc 1 115 17 view .LVU185
 584 001a 6068     		ldr	r0, [r4, #4]
 585 001c 9847     		blx	r3
 586              	.LVL67:
 116:lvgl/src/misc/lv_lru.c ****                 lv_mem_free(item);
 587              		.loc 1 116 17 is_stmt 1 view .LVU186
 116:lvgl/src/misc/lv_lru.c ****                 lv_mem_free(item);
 588              		.loc 1 116 22 is_stmt 0 view .LVU187
 589 001e 2B69     		ldr	r3, [r5, #16]
 116:lvgl/src/misc/lv_lru.c ****                 lv_mem_free(item);
 590              		.loc 1 116 43 view .LVU188
 591 0020 A268     		ldr	r2, [r4, #8]
 116:lvgl/src/misc/lv_lru.c ****                 lv_mem_free(item);
 592              		.loc 1 116 36 view .LVU189
 593 0022 1344     		add	r3, r3, r2
 594 0024 2B61     		str	r3, [r5, #16]
 117:lvgl/src/misc/lv_lru.c ****                 item = next;
 595              		.loc 1 117 17 is_stmt 1 view .LVU190
 596 0026 2046     		mov	r0, r4
 597 0028 FFF7FEFF 		bl	lv_mem_free
 598              	.LVL68:
 118:lvgl/src/misc/lv_lru.c ****             }
 599              		.loc 1 118 17 view .LVU191
 118:lvgl/src/misc/lv_lru.c ****             }
 600              		.loc 1 118 22 is_stmt 0 view .LVU192
 601 002c 3446     		mov	r4, r6
 602              	.LVL69:
 603              	.L40:
 112:lvgl/src/misc/lv_lru.c ****                 next = (lv_lru_item_t *) item->next;
 604              		.loc 1 112 19 is_stmt 1 view .LVU193
 605 002e 002C     		cmp	r4, #0
 606 0030 EED1     		bne	.L41
 110:lvgl/src/misc/lv_lru.c ****             item = cache->items[i];
 607              		.loc 1 110 44 view .LVU194
 608 0032 0137     		adds	r7, r7, #1
 609              	.LVL70:
 610              	.L38:
 110:lvgl/src/misc/lv_lru.c ****             item = cache->items[i];
 611              		.loc 1 110 17 discriminator 1 view .LVU195
 110:lvgl/src/misc/lv_lru.c ****             item = cache->items[i];
 612              		.loc 1 110 24 is_stmt 0 discriminator 1 view .LVU196
 613 0034 EB69     		ldr	r3, [r5, #28]
 110:lvgl/src/misc/lv_lru.c ****             item = cache->items[i];
 614              		.loc 1 110 17 discriminator 1 view .LVU197
 615 0036 BB42     		cmp	r3, r7
 616 0038 03D9     		bls	.L49
ARM GAS  /var/folders/21/t9g5rlb91ys800n5npymflf80000gn/T//ccOkOylr.s 			page 20


 111:lvgl/src/misc/lv_lru.c ****             while(item) {
 617              		.loc 1 111 13 is_stmt 1 view .LVU198
 111:lvgl/src/misc/lv_lru.c ****             while(item) {
 618              		.loc 1 111 25 is_stmt 0 view .LVU199
 619 003a 2B68     		ldr	r3, [r5]
 111:lvgl/src/misc/lv_lru.c ****             while(item) {
 620              		.loc 1 111 18 view .LVU200
 621 003c 53F82740 		ldr	r4, [r3, r7, lsl #2]
 622              	.LVL71:
 112:lvgl/src/misc/lv_lru.c ****                 next = (lv_lru_item_t *) item->next;
 623              		.loc 1 112 13 is_stmt 1 view .LVU201
 112:lvgl/src/misc/lv_lru.c ****                 next = (lv_lru_item_t *) item->next;
 624              		.loc 1 112 18 is_stmt 0 view .LVU202
 625 0040 F5E7     		b	.L40
 626              	.LVL72:
 627              	.L49:
 121:lvgl/src/misc/lv_lru.c ****     }
 628              		.loc 1 121 9 is_stmt 1 view .LVU203
 629 0042 2868     		ldr	r0, [r5]
 630 0044 FFF7FEFF 		bl	lv_mem_free
 631              	.LVL73:
 632              	.L39:
 124:lvgl/src/misc/lv_lru.c ****         item = cache->free_items;
 633              		.loc 1 124 5 view .LVU204
 124:lvgl/src/misc/lv_lru.c ****         item = cache->free_items;
 634              		.loc 1 124 13 is_stmt 0 view .LVU205
 635 0048 E86A     		ldr	r0, [r5, #44]
 124:lvgl/src/misc/lv_lru.c ****         item = cache->free_items;
 636              		.loc 1 124 7 view .LVU206
 637 004a 20B9     		cbnz	r0, .L43
 638 004c 05E0     		b	.L44
 639              	.LVL74:
 640              	.L45:
 127:lvgl/src/misc/lv_lru.c ****             lv_mem_free(item);
 641              		.loc 1 127 13 is_stmt 1 view .LVU207
 127:lvgl/src/misc/lv_lru.c ****             lv_mem_free(item);
 642              		.loc 1 127 18 is_stmt 0 view .LVU208
 643 004e 8469     		ldr	r4, [r0, #24]
 644              	.LVL75:
 128:lvgl/src/misc/lv_lru.c ****             item = next;
 645              		.loc 1 128 13 is_stmt 1 view .LVU209
 646 0050 FFF7FEFF 		bl	lv_mem_free
 647              	.LVL76:
 129:lvgl/src/misc/lv_lru.c ****         }
 648              		.loc 1 129 13 view .LVU210
 129:lvgl/src/misc/lv_lru.c ****         }
 649              		.loc 1 129 18 is_stmt 0 view .LVU211
 650 0054 2046     		mov	r0, r4
 651              	.LVL77:
 652              	.L43:
 126:lvgl/src/misc/lv_lru.c ****             next = (lv_lru_item_t *) item->next;
 653              		.loc 1 126 15 is_stmt 1 view .LVU212
 654 0056 0028     		cmp	r0, #0
 655 0058 F9D1     		bne	.L45
 656              	.LVL78:
 657              	.L44:
 134:lvgl/src/misc/lv_lru.c **** }
ARM GAS  /var/folders/21/t9g5rlb91ys800n5npymflf80000gn/T//ccOkOylr.s 			page 21


 658              		.loc 1 134 5 view .LVU213
 659 005a 2846     		mov	r0, r5
 660 005c FFF7FEFF 		bl	lv_mem_free
 661              	.LVL79:
 135:lvgl/src/misc/lv_lru.c **** 
 662              		.loc 1 135 1 is_stmt 0 view .LVU214
 663 0060 F8BD     		pop	{r3, r4, r5, r6, r7, pc}
 135:lvgl/src/misc/lv_lru.c **** 
 664              		.loc 1 135 1 view .LVU215
 665              		.cfi_endproc
 666              	.LFE3:
 668              		.section	.text.lv_lru_get,"ax",%progbits
 669              		.align	1
 670              		.global	lv_lru_get
 671              		.syntax unified
 672              		.thumb
 673              		.thumb_func
 675              	lv_lru_get:
 676              	.LVL80:
 677              	.LFB5:
 190:lvgl/src/misc/lv_lru.c ****     test_for_missing_cache();
 678              		.loc 1 190 1 is_stmt 1 view -0
 679              		.cfi_startproc
 680              		@ args = 0, pretend = 0, frame = 0
 681              		@ frame_needed = 0, uses_anonymous_args = 0
 191:lvgl/src/misc/lv_lru.c ****     test_for_missing_key();
 682              		.loc 1 191 5 view .LVU217
 683 0000 48B3     		cbz	r0, .L56
 190:lvgl/src/misc/lv_lru.c ****     test_for_missing_cache();
 684              		.loc 1 190 1 is_stmt 0 discriminator 2 view .LVU218
 685 0002 2DE9F041 		push	{r4, r5, r6, r7, r8, lr}
 686              	.LCFI9:
 687              		.cfi_def_cfa_offset 24
 688              		.cfi_offset 4, -24
 689              		.cfi_offset 5, -20
 690              		.cfi_offset 6, -16
 691              		.cfi_offset 7, -12
 692              		.cfi_offset 8, -8
 693              		.cfi_offset 14, -4
 694 0006 0D46     		mov	r5, r1
 695 0008 1646     		mov	r6, r2
 696 000a 9846     		mov	r8, r3
 697 000c 0746     		mov	r7, r0
 191:lvgl/src/misc/lv_lru.c ****     test_for_missing_key();
 698              		.loc 1 191 29 is_stmt 1 discriminator 2 view .LVU219
 192:lvgl/src/misc/lv_lru.c **** 
 699              		.loc 1 192 5 discriminator 2 view .LVU220
 700 000e 21B3     		cbz	r1, .L57
 192:lvgl/src/misc/lv_lru.c **** 
 701              		.loc 1 192 27 discriminator 2 view .LVU221
 195:lvgl/src/misc/lv_lru.c ****     lv_lru_item_t * item = cache->items[hash_index];
 702              		.loc 1 195 5 discriminator 2 view .LVU222
 195:lvgl/src/misc/lv_lru.c ****     lv_lru_item_t * item = cache->items[hash_index];
 703              		.loc 1 195 27 is_stmt 0 discriminator 2 view .LVU223
 704 0010 FFF7FEFF 		bl	lv_lru_hash
 705              	.LVL81:
 196:lvgl/src/misc/lv_lru.c **** 
ARM GAS  /var/folders/21/t9g5rlb91ys800n5npymflf80000gn/T//ccOkOylr.s 			page 22


 706              		.loc 1 196 5 is_stmt 1 discriminator 2 view .LVU224
 196:lvgl/src/misc/lv_lru.c **** 
 707              		.loc 1 196 33 is_stmt 0 discriminator 2 view .LVU225
 708 0014 3B68     		ldr	r3, [r7]
 196:lvgl/src/misc/lv_lru.c **** 
 709              		.loc 1 196 21 discriminator 2 view .LVU226
 710 0016 53F82040 		ldr	r4, [r3, r0, lsl #2]
 711              	.LVL82:
 198:lvgl/src/misc/lv_lru.c ****         item = (lv_lru_item_t *) item->next;
 712              		.loc 1 198 5 is_stmt 1 discriminator 2 view .LVU227
 198:lvgl/src/misc/lv_lru.c ****         item = (lv_lru_item_t *) item->next;
 713              		.loc 1 198 10 is_stmt 0 discriminator 2 view .LVU228
 714 001a 00E0     		b	.L52
 715              	.LVL83:
 716              	.L54:
 199:lvgl/src/misc/lv_lru.c **** 
 717              		.loc 1 199 9 is_stmt 1 view .LVU229
 199:lvgl/src/misc/lv_lru.c **** 
 718              		.loc 1 199 14 is_stmt 0 view .LVU230
 719 001c A469     		ldr	r4, [r4, #24]
 720              	.LVL84:
 721              	.L52:
 198:lvgl/src/misc/lv_lru.c ****         item = (lv_lru_item_t *) item->next;
 722              		.loc 1 198 16 is_stmt 1 view .LVU231
 723 001e 34B1     		cbz	r4, .L53
 198:lvgl/src/misc/lv_lru.c ****         item = (lv_lru_item_t *) item->next;
 724              		.loc 1 198 19 is_stmt 0 discriminator 1 view .LVU232
 725 0020 3246     		mov	r2, r6
 726 0022 2946     		mov	r1, r5
 727 0024 2046     		mov	r0, r4
 728 0026 FFF7FEFF 		bl	lv_lru_cmp_keys
 729              	.LVL85:
 198:lvgl/src/misc/lv_lru.c ****         item = (lv_lru_item_t *) item->next;
 730              		.loc 1 198 16 discriminator 1 view .LVU233
 731 002a 0028     		cmp	r0, #0
 732 002c F6D1     		bne	.L54
 733              	.L53:
 201:lvgl/src/misc/lv_lru.c ****         *value = item->value;
 734              		.loc 1 201 5 is_stmt 1 view .LVU234
 201:lvgl/src/misc/lv_lru.c ****         *value = item->value;
 735              		.loc 1 201 7 is_stmt 0 view .LVU235
 736 002e 74B1     		cbz	r4, .L55
 202:lvgl/src/misc/lv_lru.c ****         item->access_count = ++cache->access_count;
 737              		.loc 1 202 9 is_stmt 1 view .LVU236
 202:lvgl/src/misc/lv_lru.c ****         item->access_count = ++cache->access_count;
 738              		.loc 1 202 22 is_stmt 0 view .LVU237
 739 0030 2368     		ldr	r3, [r4]
 202:lvgl/src/misc/lv_lru.c ****         item->access_count = ++cache->access_count;
 740              		.loc 1 202 16 view .LVU238
 741 0032 C8F80030 		str	r3, [r8]
 203:lvgl/src/misc/lv_lru.c ****     }
 742              		.loc 1 203 9 is_stmt 1 view .LVU239
 203:lvgl/src/misc/lv_lru.c ****     }
 743              		.loc 1 203 37 is_stmt 0 view .LVU240
 744 0036 BB68     		ldr	r3, [r7, #8]
 745 0038 FA68     		ldr	r2, [r7, #12]
 203:lvgl/src/misc/lv_lru.c ****     }
ARM GAS  /var/folders/21/t9g5rlb91ys800n5npymflf80000gn/T//ccOkOylr.s 			page 23


 746              		.loc 1 203 30 view .LVU241
 747 003a 0133     		adds	r3, r3, #1
 748 003c 42F10002 		adc	r2, r2, #0
 203:lvgl/src/misc/lv_lru.c ****     }
 749              		.loc 1 203 28 view .LVU242
 750 0040 BB60     		str	r3, [r7, #8]
 751 0042 FA60     		str	r2, [r7, #12]
 752 0044 2361     		str	r3, [r4, #16]
 753 0046 6261     		str	r2, [r4, #20]
 209:lvgl/src/misc/lv_lru.c **** }
 754              		.loc 1 209 12 view .LVU243
 755 0048 0020     		movs	r0, #0
 756              	.LVL86:
 757              	.L51:
 210:lvgl/src/misc/lv_lru.c **** 
 758              		.loc 1 210 1 view .LVU244
 759 004a BDE8F081 		pop	{r4, r5, r6, r7, r8, pc}
 760              	.LVL87:
 761              	.L55:
 206:lvgl/src/misc/lv_lru.c ****     }
 762              		.loc 1 206 9 is_stmt 1 view .LVU245
 206:lvgl/src/misc/lv_lru.c ****     }
 763              		.loc 1 206 16 is_stmt 0 view .LVU246
 764 004e 0020     		movs	r0, #0
 765 0050 C8F80000 		str	r0, [r8]
 766 0054 F9E7     		b	.L51
 767              	.LVL88:
 768              	.L56:
 769              	.LCFI10:
 770              		.cfi_def_cfa_offset 0
 771              		.cfi_restore 4
 772              		.cfi_restore 5
 773              		.cfi_restore 6
 774              		.cfi_restore 7
 775              		.cfi_restore 8
 776              		.cfi_restore 14
 191:lvgl/src/misc/lv_lru.c ****     test_for_missing_key();
 777              		.loc 1 191 5 view .LVU247
 778 0056 0120     		movs	r0, #1
 779              	.LVL89:
 210:lvgl/src/misc/lv_lru.c **** 
 780              		.loc 1 210 1 view .LVU248
 781 0058 7047     		bx	lr
 782              	.LVL90:
 783              	.L57:
 784              	.LCFI11:
 785              		.cfi_def_cfa_offset 24
 786              		.cfi_offset 4, -24
 787              		.cfi_offset 5, -20
 788              		.cfi_offset 6, -16
 789              		.cfi_offset 7, -12
 790              		.cfi_offset 8, -8
 791              		.cfi_offset 14, -4
 192:lvgl/src/misc/lv_lru.c **** 
 792              		.loc 1 192 5 view .LVU249
 793 005a 0220     		movs	r0, #2
 794              	.LVL91:
ARM GAS  /var/folders/21/t9g5rlb91ys800n5npymflf80000gn/T//ccOkOylr.s 			page 24


 192:lvgl/src/misc/lv_lru.c **** 
 795              		.loc 1 192 5 view .LVU250
 796 005c F5E7     		b	.L51
 797              		.cfi_endproc
 798              	.LFE5:
 800              		.section	.text.lv_lru_remove,"ax",%progbits
 801              		.align	1
 802              		.global	lv_lru_remove
 803              		.syntax unified
 804              		.thumb
 805              		.thumb_func
 807              	lv_lru_remove:
 808              	.LVL92:
 809              	.LFB6:
 213:lvgl/src/misc/lv_lru.c ****     test_for_missing_cache();
 810              		.loc 1 213 1 is_stmt 1 view -0
 811              		.cfi_startproc
 812              		@ args = 0, pretend = 0, frame = 0
 813              		@ frame_needed = 0, uses_anonymous_args = 0
 214:lvgl/src/misc/lv_lru.c ****     test_for_missing_key();
 814              		.loc 1 214 5 view .LVU252
 815 0000 10B3     		cbz	r0, .L67
 213:lvgl/src/misc/lv_lru.c ****     test_for_missing_cache();
 816              		.loc 1 213 1 is_stmt 0 discriminator 2 view .LVU253
 817 0002 2DE9F843 		push	{r3, r4, r5, r6, r7, r8, r9, lr}
 818              	.LCFI12:
 819              		.cfi_def_cfa_offset 32
 820              		.cfi_offset 3, -32
 821              		.cfi_offset 4, -28
 822              		.cfi_offset 5, -24
 823              		.cfi_offset 6, -20
 824              		.cfi_offset 7, -16
 825              		.cfi_offset 8, -12
 826              		.cfi_offset 9, -8
 827              		.cfi_offset 14, -4
 828 0006 0D46     		mov	r5, r1
 829 0008 1646     		mov	r6, r2
 830 000a 8146     		mov	r9, r0
 214:lvgl/src/misc/lv_lru.c ****     test_for_missing_key();
 831              		.loc 1 214 29 is_stmt 1 discriminator 2 view .LVU254
 215:lvgl/src/misc/lv_lru.c **** 
 832              		.loc 1 215 5 discriminator 2 view .LVU255
 833 000c F1B1     		cbz	r1, .L68
 215:lvgl/src/misc/lv_lru.c **** 
 834              		.loc 1 215 27 discriminator 2 view .LVU256
 218:lvgl/src/misc/lv_lru.c ****     uint32_t hash_index = lv_lru_hash(cache, key, key_size);
 835              		.loc 1 218 5 discriminator 2 view .LVU257
 836              	.LVL93:
 219:lvgl/src/misc/lv_lru.c ****     item = cache->items[hash_index];
 837              		.loc 1 219 5 discriminator 2 view .LVU258
 219:lvgl/src/misc/lv_lru.c ****     item = cache->items[hash_index];
 838              		.loc 1 219 27 is_stmt 0 discriminator 2 view .LVU259
 839 000e FFF7FEFF 		bl	lv_lru_hash
 840              	.LVL94:
 219:lvgl/src/misc/lv_lru.c ****     item = cache->items[hash_index];
 841              		.loc 1 219 27 discriminator 2 view .LVU260
 842 0012 8046     		mov	r8, r0
ARM GAS  /var/folders/21/t9g5rlb91ys800n5npymflf80000gn/T//ccOkOylr.s 			page 25


 843              	.LVL95:
 220:lvgl/src/misc/lv_lru.c **** 
 844              		.loc 1 220 5 is_stmt 1 discriminator 2 view .LVU261
 220:lvgl/src/misc/lv_lru.c **** 
 845              		.loc 1 220 17 is_stmt 0 discriminator 2 view .LVU262
 846 0014 D9F80030 		ldr	r3, [r9]
 220:lvgl/src/misc/lv_lru.c **** 
 847              		.loc 1 220 10 discriminator 2 view .LVU263
 848 0018 53F82040 		ldr	r4, [r3, r0, lsl #2]
 849              	.LVL96:
 222:lvgl/src/misc/lv_lru.c ****         prev = item;
 850              		.loc 1 222 5 is_stmt 1 discriminator 2 view .LVU264
 218:lvgl/src/misc/lv_lru.c ****     uint32_t hash_index = lv_lru_hash(cache, key, key_size);
 851              		.loc 1 218 36 is_stmt 0 discriminator 2 view .LVU265
 852 001c 0027     		movs	r7, #0
 222:lvgl/src/misc/lv_lru.c ****         prev = item;
 853              		.loc 1 222 10 discriminator 2 view .LVU266
 854 001e 01E0     		b	.L64
 855              	.LVL97:
 856              	.L66:
 223:lvgl/src/misc/lv_lru.c ****         item = (lv_lru_item_t *) item->next;
 857              		.loc 1 223 9 is_stmt 1 view .LVU267
 224:lvgl/src/misc/lv_lru.c ****     }
 858              		.loc 1 224 9 view .LVU268
 223:lvgl/src/misc/lv_lru.c ****         item = (lv_lru_item_t *) item->next;
 859              		.loc 1 223 14 is_stmt 0 view .LVU269
 860 0020 2746     		mov	r7, r4
 224:lvgl/src/misc/lv_lru.c ****     }
 861              		.loc 1 224 14 view .LVU270
 862 0022 A469     		ldr	r4, [r4, #24]
 863              	.LVL98:
 864              	.L64:
 222:lvgl/src/misc/lv_lru.c ****         prev = item;
 865              		.loc 1 222 16 is_stmt 1 view .LVU271
 866 0024 34B1     		cbz	r4, .L65
 222:lvgl/src/misc/lv_lru.c ****         prev = item;
 867              		.loc 1 222 19 is_stmt 0 discriminator 1 view .LVU272
 868 0026 3246     		mov	r2, r6
 869 0028 2946     		mov	r1, r5
 870 002a 2046     		mov	r0, r4
 871 002c FFF7FEFF 		bl	lv_lru_cmp_keys
 872              	.LVL99:
 222:lvgl/src/misc/lv_lru.c ****         prev = item;
 873              		.loc 1 222 16 discriminator 1 view .LVU273
 874 0030 0028     		cmp	r0, #0
 875 0032 F5D1     		bne	.L66
 876              	.L65:
 227:lvgl/src/misc/lv_lru.c ****         lv_lru_remove_item(cache, prev, item, hash_index);
 877              		.loc 1 227 5 is_stmt 1 view .LVU274
 227:lvgl/src/misc/lv_lru.c ****         lv_lru_remove_item(cache, prev, item, hash_index);
 878              		.loc 1 227 7 is_stmt 0 view .LVU275
 879 0034 64B1     		cbz	r4, .L69
 228:lvgl/src/misc/lv_lru.c ****     }
 880              		.loc 1 228 9 is_stmt 1 view .LVU276
 881 0036 4346     		mov	r3, r8
 882 0038 2246     		mov	r2, r4
 883 003a 3946     		mov	r1, r7
ARM GAS  /var/folders/21/t9g5rlb91ys800n5npymflf80000gn/T//ccOkOylr.s 			page 26


 884 003c 4846     		mov	r0, r9
 885 003e FFF7FEFF 		bl	lv_lru_remove_item
 886              	.LVL100:
 231:lvgl/src/misc/lv_lru.c **** }
 887              		.loc 1 231 12 is_stmt 0 view .LVU277
 888 0042 0020     		movs	r0, #0
 889              	.LVL101:
 890              	.L63:
 232:lvgl/src/misc/lv_lru.c **** 
 891              		.loc 1 232 1 view .LVU278
 892 0044 BDE8F883 		pop	{r3, r4, r5, r6, r7, r8, r9, pc}
 893              	.LVL102:
 894              	.L67:
 895              	.LCFI13:
 896              		.cfi_def_cfa_offset 0
 897              		.cfi_restore 3
 898              		.cfi_restore 4
 899              		.cfi_restore 5
 900              		.cfi_restore 6
 901              		.cfi_restore 7
 902              		.cfi_restore 8
 903              		.cfi_restore 9
 904              		.cfi_restore 14
 214:lvgl/src/misc/lv_lru.c ****     test_for_missing_key();
 905              		.loc 1 214 5 view .LVU279
 906 0048 0120     		movs	r0, #1
 907              	.LVL103:
 232:lvgl/src/misc/lv_lru.c **** 
 908              		.loc 1 232 1 view .LVU280
 909 004a 7047     		bx	lr
 910              	.LVL104:
 911              	.L68:
 912              	.LCFI14:
 913              		.cfi_def_cfa_offset 32
 914              		.cfi_offset 3, -32
 915              		.cfi_offset 4, -28
 916              		.cfi_offset 5, -24
 917              		.cfi_offset 6, -20
 918              		.cfi_offset 7, -16
 919              		.cfi_offset 8, -12
 920              		.cfi_offset 9, -8
 921              		.cfi_offset 14, -4
 215:lvgl/src/misc/lv_lru.c **** 
 922              		.loc 1 215 5 view .LVU281
 923 004c 0220     		movs	r0, #2
 924              	.LVL105:
 215:lvgl/src/misc/lv_lru.c **** 
 925              		.loc 1 215 5 view .LVU282
 926 004e F9E7     		b	.L63
 927              	.LVL106:
 928              	.L69:
 231:lvgl/src/misc/lv_lru.c **** }
 929              		.loc 1 231 12 view .LVU283
 930 0050 0020     		movs	r0, #0
 931 0052 F7E7     		b	.L63
 932              		.cfi_endproc
 933              	.LFE6:
ARM GAS  /var/folders/21/t9g5rlb91ys800n5npymflf80000gn/T//ccOkOylr.s 			page 27


 935              		.section	.text.lv_lru_remove_lru_item,"ax",%progbits
 936              		.align	1
 937              		.global	lv_lru_remove_lru_item
 938              		.syntax unified
 939              		.thumb
 940              		.thumb_func
 942              	lv_lru_remove_lru_item:
 943              	.LVL107:
 944              	.LFB7:
 235:lvgl/src/misc/lv_lru.c ****     lv_lru_item_t * min_item = NULL, * min_prev = NULL;
 945              		.loc 1 235 1 is_stmt 1 view -0
 946              		.cfi_startproc
 947              		@ args = 0, pretend = 0, frame = 0
 948              		@ frame_needed = 0, uses_anonymous_args = 0
 235:lvgl/src/misc/lv_lru.c ****     lv_lru_item_t * min_item = NULL, * min_prev = NULL;
 949              		.loc 1 235 1 is_stmt 0 view .LVU285
 950 0000 2DE9F843 		push	{r3, r4, r5, r6, r7, r8, r9, lr}
 951              	.LCFI15:
 952              		.cfi_def_cfa_offset 32
 953              		.cfi_offset 3, -32
 954              		.cfi_offset 4, -28
 955              		.cfi_offset 5, -24
 956              		.cfi_offset 6, -20
 957              		.cfi_offset 7, -16
 958              		.cfi_offset 8, -12
 959              		.cfi_offset 9, -8
 960              		.cfi_offset 14, -4
 236:lvgl/src/misc/lv_lru.c ****     lv_lru_item_t * item = NULL, * prev = NULL;
 961              		.loc 1 236 5 is_stmt 1 view .LVU286
 962              	.LVL108:
 237:lvgl/src/misc/lv_lru.c ****     uint32_t i = 0, min_index = -1;
 963              		.loc 1 237 5 view .LVU287
 238:lvgl/src/misc/lv_lru.c ****     uint64_t min_access_count = -1;
 964              		.loc 1 238 5 view .LVU288
 239:lvgl/src/misc/lv_lru.c **** 
 965              		.loc 1 239 5 view .LVU289
 241:lvgl/src/misc/lv_lru.c ****         item = cache->items[i];
 966              		.loc 1 241 5 view .LVU290
 239:lvgl/src/misc/lv_lru.c **** 
 967              		.loc 1 239 14 is_stmt 0 view .LVU291
 968 0004 4FF0FF3C 		mov	ip, #-1
 969 0008 E646     		mov	lr, ip
 238:lvgl/src/misc/lv_lru.c ****     uint64_t min_access_count = -1;
 970              		.loc 1 238 21 view .LVU292
 971 000a 6346     		mov	r3, ip
 238:lvgl/src/misc/lv_lru.c ****     uint64_t min_access_count = -1;
 972              		.loc 1 238 14 view .LVU293
 973 000c 4FF00008 		mov	r8, #0
 236:lvgl/src/misc/lv_lru.c ****     lv_lru_item_t * item = NULL, * prev = NULL;
 974              		.loc 1 236 40 view .LVU294
 975 0010 4146     		mov	r1, r8
 236:lvgl/src/misc/lv_lru.c ****     lv_lru_item_t * item = NULL, * prev = NULL;
 976              		.loc 1 236 21 view .LVU295
 977 0012 4246     		mov	r2, r8
 241:lvgl/src/misc/lv_lru.c ****         item = cache->items[i];
 978              		.loc 1 241 5 view .LVU296
 979 0014 1CE0     		b	.L75
ARM GAS  /var/folders/21/t9g5rlb91ys800n5npymflf80000gn/T//ccOkOylr.s 			page 28


 980              	.LVL109:
 981              	.L81:
 250:lvgl/src/misc/lv_lru.c ****             }
 982              		.loc 1 250 27 view .LVU297
 983 0016 4346     		mov	r3, r8
 984              	.LVL110:
 248:lvgl/src/misc/lv_lru.c ****                 min_prev = prev;
 985              		.loc 1 248 26 view .LVU298
 986 0018 2246     		mov	r2, r4
 987              	.LVL111:
 988              	.L77:
 252:lvgl/src/misc/lv_lru.c ****             item = item->next;
 989              		.loc 1 252 13 is_stmt 1 view .LVU299
 253:lvgl/src/misc/lv_lru.c ****         }
 990              		.loc 1 253 13 view .LVU300
 253:lvgl/src/misc/lv_lru.c ****         }
 991              		.loc 1 253 18 is_stmt 0 view .LVU301
 992 001a B446     		mov	ip, r6
 993 001c AE46     		mov	lr, r5
 994 001e 3946     		mov	r1, r7
 252:lvgl/src/misc/lv_lru.c ****             item = item->next;
 995              		.loc 1 252 18 view .LVU302
 996 0020 2746     		mov	r7, r4
 997              	.LVL112:
 253:lvgl/src/misc/lv_lru.c ****         }
 998              		.loc 1 253 18 view .LVU303
 999 0022 A469     		ldr	r4, [r4, #24]
 1000              	.LVL113:
 1001              	.L76:
 245:lvgl/src/misc/lv_lru.c ****             if(item->access_count < min_access_count || (int64_t) min_access_count == -1) {
 1002              		.loc 1 245 15 is_stmt 1 view .LVU304
 1003 0024 94B1     		cbz	r4, .L84
 246:lvgl/src/misc/lv_lru.c ****                 min_access_count = item->access_count;
 1004              		.loc 1 246 13 view .LVU305
 246:lvgl/src/misc/lv_lru.c ****                 min_access_count = item->access_count;
 1005              		.loc 1 246 20 is_stmt 0 view .LVU306
 1006 0026 2669     		ldr	r6, [r4, #16]
 1007 0028 6569     		ldr	r5, [r4, #20]
 246:lvgl/src/misc/lv_lru.c ****                 min_access_count = item->access_count;
 1008              		.loc 1 246 15 view .LVU307
 1009 002a 6645     		cmp	r6, ip
 1010 002c 75EB0E09 		sbcs	r9, r5, lr
 1011 0030 F1D3     		bcc	.L81
 246:lvgl/src/misc/lv_lru.c ****                 min_access_count = item->access_count;
 1012              		.loc 1 246 54 discriminator 1 view .LVU308
 1013 0032 BEF1FF3F 		cmp	lr, #-1
 1014 0036 08BF     		it	eq
 1015 0038 BCF1FF3F 		cmpeq	ip, #-1
 1016 003c 03D0     		beq	.L82
 246:lvgl/src/misc/lv_lru.c ****                 min_access_count = item->access_count;
 1017              		.loc 1 246 54 view .LVU309
 1018 003e 6646     		mov	r6, ip
 1019 0040 7546     		mov	r5, lr
 1020 0042 0F46     		mov	r7, r1
 1021              	.LVL114:
 246:lvgl/src/misc/lv_lru.c ****                 min_access_count = item->access_count;
 1022              		.loc 1 246 54 view .LVU310
ARM GAS  /var/folders/21/t9g5rlb91ys800n5npymflf80000gn/T//ccOkOylr.s 			page 29


 1023 0044 E9E7     		b	.L77
 1024              	.LVL115:
 1025              	.L82:
 250:lvgl/src/misc/lv_lru.c ****             }
 1026              		.loc 1 250 27 view .LVU311
 1027 0046 4346     		mov	r3, r8
 1028              	.LVL116:
 248:lvgl/src/misc/lv_lru.c ****                 min_prev = prev;
 1029              		.loc 1 248 26 view .LVU312
 1030 0048 2246     		mov	r2, r4
 1031              	.LVL117:
 248:lvgl/src/misc/lv_lru.c ****                 min_prev = prev;
 1032              		.loc 1 248 26 view .LVU313
 1033 004a E6E7     		b	.L77
 1034              	.LVL118:
 1035              	.L84:
 241:lvgl/src/misc/lv_lru.c ****         item = cache->items[i];
 1036              		.loc 1 241 40 is_stmt 1 view .LVU314
 1037 004c 08F10108 		add	r8, r8, #1
 1038              	.LVL119:
 1039              	.L75:
 241:lvgl/src/misc/lv_lru.c ****         item = cache->items[i];
 1040              		.loc 1 241 13 discriminator 1 view .LVU315
 241:lvgl/src/misc/lv_lru.c ****         item = cache->items[i];
 1041              		.loc 1 241 20 is_stmt 0 discriminator 1 view .LVU316
 1042 0050 C469     		ldr	r4, [r0, #28]
 241:lvgl/src/misc/lv_lru.c ****         item = cache->items[i];
 1043              		.loc 1 241 13 discriminator 1 view .LVU317
 1044 0052 4445     		cmp	r4, r8
 1045 0054 04D9     		bls	.L85
 242:lvgl/src/misc/lv_lru.c ****         prev = NULL;
 1046              		.loc 1 242 9 is_stmt 1 view .LVU318
 242:lvgl/src/misc/lv_lru.c ****         prev = NULL;
 1047              		.loc 1 242 21 is_stmt 0 view .LVU319
 1048 0056 0468     		ldr	r4, [r0]
 242:lvgl/src/misc/lv_lru.c ****         prev = NULL;
 1049              		.loc 1 242 14 view .LVU320
 1050 0058 54F82840 		ldr	r4, [r4, r8, lsl #2]
 1051              	.LVL120:
 243:lvgl/src/misc/lv_lru.c **** 
 1052              		.loc 1 243 9 is_stmt 1 view .LVU321
 245:lvgl/src/misc/lv_lru.c ****             if(item->access_count < min_access_count || (int64_t) min_access_count == -1) {
 1053              		.loc 1 245 9 view .LVU322
 243:lvgl/src/misc/lv_lru.c **** 
 1054              		.loc 1 243 14 is_stmt 0 view .LVU323
 1055 005c 0027     		movs	r7, #0
 245:lvgl/src/misc/lv_lru.c ****             if(item->access_count < min_access_count || (int64_t) min_access_count == -1) {
 1056              		.loc 1 245 14 view .LVU324
 1057 005e E1E7     		b	.L76
 1058              	.LVL121:
 1059              	.L85:
 257:lvgl/src/misc/lv_lru.c ****         lv_lru_remove_item(cache, min_prev, min_item, min_index);
 1060              		.loc 1 257 5 is_stmt 1 view .LVU325
 257:lvgl/src/misc/lv_lru.c ****         lv_lru_remove_item(cache, min_prev, min_item, min_index);
 1061              		.loc 1 257 7 is_stmt 0 view .LVU326
 1062 0060 0AB1     		cbz	r2, .L74
 258:lvgl/src/misc/lv_lru.c ****     }
ARM GAS  /var/folders/21/t9g5rlb91ys800n5npymflf80000gn/T//ccOkOylr.s 			page 30


 1063              		.loc 1 258 9 is_stmt 1 view .LVU327
 1064 0062 FFF7FEFF 		bl	lv_lru_remove_item
 1065              	.LVL122:
 1066              	.L74:
 260:lvgl/src/misc/lv_lru.c **** 
 1067              		.loc 1 260 1 is_stmt 0 view .LVU328
 1068 0066 BDE8F883 		pop	{r3, r4, r5, r6, r7, r8, r9, pc}
 260:lvgl/src/misc/lv_lru.c **** 
 1069              		.loc 1 260 1 view .LVU329
 1070              		.cfi_endproc
 1071              	.LFE7:
 1073              		.section	.text.lv_lru_set,"ax",%progbits
 1074              		.align	1
 1075              		.global	lv_lru_set
 1076              		.syntax unified
 1077              		.thumb
 1078              		.thumb_func
 1080              	lv_lru_set:
 1081              	.LVL123:
 1082              	.LFB4:
 138:lvgl/src/misc/lv_lru.c ****     test_for_missing_cache();
 1083              		.loc 1 138 1 is_stmt 1 view -0
 1084              		.cfi_startproc
 1085              		@ args = 4, pretend = 0, frame = 0
 1086              		@ frame_needed = 0, uses_anonymous_args = 0
 138:lvgl/src/misc/lv_lru.c ****     test_for_missing_cache();
 1087              		.loc 1 138 1 is_stmt 0 view .LVU331
 1088 0000 2DE9F84F 		push	{r3, r4, r5, r6, r7, r8, r9, r10, fp, lr}
 1089              	.LCFI16:
 1090              		.cfi_def_cfa_offset 40
 1091              		.cfi_offset 3, -40
 1092              		.cfi_offset 4, -36
 1093              		.cfi_offset 5, -32
 1094              		.cfi_offset 6, -28
 1095              		.cfi_offset 7, -24
 1096              		.cfi_offset 8, -20
 1097              		.cfi_offset 9, -16
 1098              		.cfi_offset 10, -12
 1099              		.cfi_offset 11, -8
 1100              		.cfi_offset 14, -4
 1101 0004 DDF828A0 		ldr	r10, [sp, #40]
 139:lvgl/src/misc/lv_lru.c ****     test_for_missing_key();
 1102              		.loc 1 139 5 is_stmt 1 view .LVU332
 1103 0008 0028     		cmp	r0, #0
 1104 000a 62D0     		beq	.L97
 1105 000c 0D46     		mov	r5, r1
 1106 000e 1746     		mov	r7, r2
 1107 0010 9846     		mov	r8, r3
 1108 0012 0646     		mov	r6, r0
 139:lvgl/src/misc/lv_lru.c ****     test_for_missing_key();
 1109              		.loc 1 139 29 discriminator 2 view .LVU333
 140:lvgl/src/misc/lv_lru.c ****     test_for_missing_value();
 1110              		.loc 1 140 5 discriminator 2 view .LVU334
 1111 0014 0029     		cmp	r1, #0
 1112 0016 5ED0     		beq	.L98
 140:lvgl/src/misc/lv_lru.c ****     test_for_missing_value();
 1113              		.loc 1 140 27 discriminator 2 view .LVU335
ARM GAS  /var/folders/21/t9g5rlb91ys800n5npymflf80000gn/T//ccOkOylr.s 			page 31


 141:lvgl/src/misc/lv_lru.c ****     test_for_value_too_large();
 1114              		.loc 1 141 5 discriminator 2 view .LVU336
 1115 0018 002B     		cmp	r3, #0
 1116 001a 5ED0     		beq	.L99
 1117 001c BAF1000F 		cmp	r10, #0
 1118 0020 5DD0     		beq	.L100
 141:lvgl/src/misc/lv_lru.c ****     test_for_value_too_large();
 1119              		.loc 1 141 29 discriminator 4 view .LVU337
 142:lvgl/src/misc/lv_lru.c **** 
 1120              		.loc 1 142 5 discriminator 4 view .LVU338
 1121 0022 4369     		ldr	r3, [r0, #20]
 1122              	.LVL124:
 142:lvgl/src/misc/lv_lru.c **** 
 1123              		.loc 1 142 5 is_stmt 0 discriminator 4 view .LVU339
 1124 0024 5345     		cmp	r3, r10
 1125 0026 5CD3     		bcc	.L101
 142:lvgl/src/misc/lv_lru.c **** 
 1126              		.loc 1 142 31 is_stmt 1 discriminator 2 view .LVU340
 145:lvgl/src/misc/lv_lru.c ****     int required = 0;
 1127              		.loc 1 145 5 discriminator 2 view .LVU341
 145:lvgl/src/misc/lv_lru.c ****     int required = 0;
 1128              		.loc 1 145 27 is_stmt 0 discriminator 2 view .LVU342
 1129 0028 FFF7FEFF 		bl	lv_lru_hash
 1130              	.LVL125:
 145:lvgl/src/misc/lv_lru.c ****     int required = 0;
 1131              		.loc 1 145 27 discriminator 2 view .LVU343
 1132 002c 8346     		mov	fp, r0
 1133              	.LVL126:
 146:lvgl/src/misc/lv_lru.c ****     lv_lru_item_t * item = NULL, * prev = NULL;
 1134              		.loc 1 146 5 is_stmt 1 discriminator 2 view .LVU344
 147:lvgl/src/misc/lv_lru.c ****     item = cache->items[hash_index];
 1135              		.loc 1 147 5 discriminator 2 view .LVU345
 148:lvgl/src/misc/lv_lru.c **** 
 1136              		.loc 1 148 5 discriminator 2 view .LVU346
 148:lvgl/src/misc/lv_lru.c **** 
 1137              		.loc 1 148 17 is_stmt 0 discriminator 2 view .LVU347
 1138 002e 3368     		ldr	r3, [r6]
 148:lvgl/src/misc/lv_lru.c **** 
 1139              		.loc 1 148 10 discriminator 2 view .LVU348
 1140 0030 53F82040 		ldr	r4, [r3, r0, lsl #2]
 1141              	.LVL127:
 150:lvgl/src/misc/lv_lru.c ****         prev = item;
 1142              		.loc 1 150 5 is_stmt 1 discriminator 2 view .LVU349
 147:lvgl/src/misc/lv_lru.c ****     item = cache->items[hash_index];
 1143              		.loc 1 147 36 is_stmt 0 discriminator 2 view .LVU350
 1144 0034 4FF00009 		mov	r9, #0
 1145              	.LVL128:
 1146              	.L88:
 150:lvgl/src/misc/lv_lru.c ****         prev = item;
 1147              		.loc 1 150 16 is_stmt 1 view .LVU351
 1148 0038 44B1     		cbz	r4, .L89
 150:lvgl/src/misc/lv_lru.c ****         prev = item;
 1149              		.loc 1 150 19 is_stmt 0 discriminator 1 view .LVU352
 1150 003a 3A46     		mov	r2, r7
 1151 003c 2946     		mov	r1, r5
 1152 003e 2046     		mov	r0, r4
 1153 0040 FFF7FEFF 		bl	lv_lru_cmp_keys
ARM GAS  /var/folders/21/t9g5rlb91ys800n5npymflf80000gn/T//ccOkOylr.s 			page 32


 1154              	.LVL129:
 150:lvgl/src/misc/lv_lru.c ****         prev = item;
 1155              		.loc 1 150 16 discriminator 1 view .LVU353
 1156 0044 10B1     		cbz	r0, .L89
 151:lvgl/src/misc/lv_lru.c ****         item = (lv_lru_item_t *) item->next;
 1157              		.loc 1 151 9 is_stmt 1 view .LVU354
 1158              	.LVL130:
 152:lvgl/src/misc/lv_lru.c ****     }
 1159              		.loc 1 152 9 view .LVU355
 151:lvgl/src/misc/lv_lru.c ****         item = (lv_lru_item_t *) item->next;
 1160              		.loc 1 151 14 is_stmt 0 view .LVU356
 1161 0046 A146     		mov	r9, r4
 152:lvgl/src/misc/lv_lru.c ****     }
 1162              		.loc 1 152 14 view .LVU357
 1163 0048 A469     		ldr	r4, [r4, #24]
 1164              	.LVL131:
 152:lvgl/src/misc/lv_lru.c ****     }
 1165              		.loc 1 152 14 view .LVU358
 1166 004a F5E7     		b	.L88
 1167              	.L89:
 155:lvgl/src/misc/lv_lru.c ****         // update the value and value_lengths
 1168              		.loc 1 155 5 is_stmt 1 view .LVU359
 155:lvgl/src/misc/lv_lru.c ****         // update the value and value_lengths
 1169              		.loc 1 155 7 is_stmt 0 view .LVU360
 1170 004c F4B1     		cbz	r4, .L91
 157:lvgl/src/misc/lv_lru.c ****         cache->value_free(item->value);
 1171              		.loc 1 157 9 is_stmt 1 view .LVU361
 157:lvgl/src/misc/lv_lru.c ****         cache->value_free(item->value);
 1172              		.loc 1 157 45 is_stmt 0 view .LVU362
 1173 004e A568     		ldr	r5, [r4, #8]
 1174              	.LVL132:
 157:lvgl/src/misc/lv_lru.c ****         cache->value_free(item->value);
 1175              		.loc 1 157 39 view .LVU363
 1176 0050 AAEB0505 		sub	r5, r10, r5
 1177              	.LVL133:
 158:lvgl/src/misc/lv_lru.c ****         item->value = value;
 1178              		.loc 1 158 9 is_stmt 1 view .LVU364
 158:lvgl/src/misc/lv_lru.c ****         item->value = value;
 1179              		.loc 1 158 14 is_stmt 0 view .LVU365
 1180 0054 736A     		ldr	r3, [r6, #36]
 158:lvgl/src/misc/lv_lru.c ****         item->value = value;
 1181              		.loc 1 158 9 view .LVU366
 1182 0056 2068     		ldr	r0, [r4]
 1183 0058 9847     		blx	r3
 1184              	.LVL134:
 159:lvgl/src/misc/lv_lru.c ****         item->value_length = value_length;
 1185              		.loc 1 159 9 is_stmt 1 view .LVU367
 159:lvgl/src/misc/lv_lru.c ****         item->value_length = value_length;
 1186              		.loc 1 159 21 is_stmt 0 view .LVU368
 1187 005a C4F80080 		str	r8, [r4]
 160:lvgl/src/misc/lv_lru.c **** 
 1188              		.loc 1 160 9 is_stmt 1 view .LVU369
 160:lvgl/src/misc/lv_lru.c **** 
 1189              		.loc 1 160 28 is_stmt 0 view .LVU370
 1190 005e C4F808A0 		str	r10, [r4, #8]
 1191              	.LVL135:
 1192              	.L92:
ARM GAS  /var/folders/21/t9g5rlb91ys800n5npymflf80000gn/T//ccOkOylr.s 			page 33


 178:lvgl/src/misc/lv_lru.c **** 
 1193              		.loc 1 178 5 is_stmt 1 view .LVU371
 178:lvgl/src/misc/lv_lru.c **** 
 1194              		.loc 1 178 33 is_stmt 0 view .LVU372
 1195 0062 B368     		ldr	r3, [r6, #8]
 1196 0064 F268     		ldr	r2, [r6, #12]
 178:lvgl/src/misc/lv_lru.c **** 
 1197              		.loc 1 178 26 view .LVU373
 1198 0066 0133     		adds	r3, r3, #1
 1199 0068 42F10002 		adc	r2, r2, #0
 178:lvgl/src/misc/lv_lru.c **** 
 1200              		.loc 1 178 24 view .LVU374
 1201 006c B360     		str	r3, [r6, #8]
 1202 006e F260     		str	r2, [r6, #12]
 1203 0070 2361     		str	r3, [r4, #16]
 1204 0072 6261     		str	r2, [r4, #20]
 181:lvgl/src/misc/lv_lru.c ****         while(cache->free_memory < (size_t) required)
 1205              		.loc 1 181 5 is_stmt 1 view .LVU375
 181:lvgl/src/misc/lv_lru.c ****         while(cache->free_memory < (size_t) required)
 1206              		.loc 1 181 7 is_stmt 0 view .LVU376
 1207 0074 002D     		cmp	r5, #0
 1208 0076 03DD     		ble	.L94
 181:lvgl/src/misc/lv_lru.c ****         while(cache->free_memory < (size_t) required)
 1209              		.loc 1 181 49 discriminator 1 view .LVU377
 1210 0078 3369     		ldr	r3, [r6, #16]
 181:lvgl/src/misc/lv_lru.c ****         while(cache->free_memory < (size_t) required)
 1211              		.loc 1 181 42 discriminator 1 view .LVU378
 1212 007a 2C46     		mov	r4, r5
 1213              	.LVL136:
 181:lvgl/src/misc/lv_lru.c ****         while(cache->free_memory < (size_t) required)
 1214              		.loc 1 181 21 discriminator 1 view .LVU379
 1215 007c AB42     		cmp	r3, r5
 1216 007e 24D3     		bcc	.L95
 1217              	.L94:
 185:lvgl/src/misc/lv_lru.c ****     return LV_LRU_OK;
 1218              		.loc 1 185 5 is_stmt 1 view .LVU380
 185:lvgl/src/misc/lv_lru.c ****     return LV_LRU_OK;
 1219              		.loc 1 185 10 is_stmt 0 view .LVU381
 1220 0080 3369     		ldr	r3, [r6, #16]
 185:lvgl/src/misc/lv_lru.c ****     return LV_LRU_OK;
 1221              		.loc 1 185 24 view .LVU382
 1222 0082 5B1B     		subs	r3, r3, r5
 1223 0084 3361     		str	r3, [r6, #16]
 186:lvgl/src/misc/lv_lru.c **** }
 1224              		.loc 1 186 5 is_stmt 1 view .LVU383
 186:lvgl/src/misc/lv_lru.c **** }
 1225              		.loc 1 186 12 is_stmt 0 view .LVU384
 1226 0086 0020     		movs	r0, #0
 1227              	.LVL137:
 1228              	.L87:
 187:lvgl/src/misc/lv_lru.c **** 
 1229              		.loc 1 187 1 view .LVU385
 1230 0088 BDE8F88F 		pop	{r3, r4, r5, r6, r7, r8, r9, r10, fp, pc}
 1231              	.LVL138:
 1232              	.L91:
 165:lvgl/src/misc/lv_lru.c ****         item->value = value;
 1233              		.loc 1 165 9 is_stmt 1 view .LVU386
ARM GAS  /var/folders/21/t9g5rlb91ys800n5npymflf80000gn/T//ccOkOylr.s 			page 34


 165:lvgl/src/misc/lv_lru.c ****         item->value = value;
 1234              		.loc 1 165 16 is_stmt 0 view .LVU387
 1235 008c 3046     		mov	r0, r6
 1236 008e FFF7FEFF 		bl	lv_lru_pop_or_create_item
 1237              	.LVL139:
 1238 0092 0446     		mov	r4, r0
 1239              	.LVL140:
 166:lvgl/src/misc/lv_lru.c ****         item->key = lv_mem_alloc(key_length);
 1240              		.loc 1 166 9 is_stmt 1 view .LVU388
 166:lvgl/src/misc/lv_lru.c ****         item->key = lv_mem_alloc(key_length);
 1241              		.loc 1 166 21 is_stmt 0 view .LVU389
 1242 0094 C0F80080 		str	r8, [r0]
 167:lvgl/src/misc/lv_lru.c ****         memcpy(item->key, key, key_length);
 1243              		.loc 1 167 9 is_stmt 1 view .LVU390
 167:lvgl/src/misc/lv_lru.c ****         memcpy(item->key, key, key_length);
 1244              		.loc 1 167 21 is_stmt 0 view .LVU391
 1245 0098 3846     		mov	r0, r7
 1246              	.LVL141:
 167:lvgl/src/misc/lv_lru.c ****         memcpy(item->key, key, key_length);
 1247              		.loc 1 167 21 view .LVU392
 1248 009a FFF7FEFF 		bl	lv_mem_alloc
 1249              	.LVL142:
 167:lvgl/src/misc/lv_lru.c ****         memcpy(item->key, key, key_length);
 1250              		.loc 1 167 19 view .LVU393
 1251 009e 6060     		str	r0, [r4, #4]
 168:lvgl/src/misc/lv_lru.c ****         item->value_length = value_length;
 1252              		.loc 1 168 9 is_stmt 1 view .LVU394
 1253 00a0 3A46     		mov	r2, r7
 1254 00a2 2946     		mov	r1, r5
 1255 00a4 FFF7FEFF 		bl	memcpy
 1256              	.LVL143:
 169:lvgl/src/misc/lv_lru.c ****         item->key_length = key_length;
 1257              		.loc 1 169 9 view .LVU395
 169:lvgl/src/misc/lv_lru.c ****         item->key_length = key_length;
 1258              		.loc 1 169 28 is_stmt 0 view .LVU396
 1259 00a8 C4F808A0 		str	r10, [r4, #8]
 170:lvgl/src/misc/lv_lru.c ****         required = (int) value_length;
 1260              		.loc 1 170 9 is_stmt 1 view .LVU397
 170:lvgl/src/misc/lv_lru.c ****         required = (int) value_length;
 1261              		.loc 1 170 26 is_stmt 0 view .LVU398
 1262 00ac E760     		str	r7, [r4, #12]
 171:lvgl/src/misc/lv_lru.c **** 
 1263              		.loc 1 171 9 is_stmt 1 view .LVU399
 171:lvgl/src/misc/lv_lru.c **** 
 1264              		.loc 1 171 18 is_stmt 0 view .LVU400
 1265 00ae 5546     		mov	r5, r10
 1266              	.LVL144:
 173:lvgl/src/misc/lv_lru.c ****             prev->next = item;
 1267              		.loc 1 173 9 is_stmt 1 view .LVU401
 173:lvgl/src/misc/lv_lru.c ****             prev->next = item;
 1268              		.loc 1 173 11 is_stmt 0 view .LVU402
 1269 00b0 B9F1000F 		cmp	r9, #0
 1270 00b4 02D0     		beq	.L93
 174:lvgl/src/misc/lv_lru.c ****         else
 1271              		.loc 1 174 13 is_stmt 1 view .LVU403
 174:lvgl/src/misc/lv_lru.c ****         else
 1272              		.loc 1 174 24 is_stmt 0 view .LVU404
ARM GAS  /var/folders/21/t9g5rlb91ys800n5npymflf80000gn/T//ccOkOylr.s 			page 35


 1273 00b6 C9F81840 		str	r4, [r9, #24]
 1274 00ba D2E7     		b	.L92
 1275              	.L93:
 176:lvgl/src/misc/lv_lru.c ****     }
 1276              		.loc 1 176 13 is_stmt 1 view .LVU405
 176:lvgl/src/misc/lv_lru.c ****     }
 1277              		.loc 1 176 18 is_stmt 0 view .LVU406
 1278 00bc 3368     		ldr	r3, [r6]
 176:lvgl/src/misc/lv_lru.c ****     }
 1279              		.loc 1 176 38 view .LVU407
 1280 00be 43F82B40 		str	r4, [r3, fp, lsl #2]
 1281 00c2 CEE7     		b	.L92
 1282              	.LVL145:
 1283              	.L96:
 183:lvgl/src/misc/lv_lru.c ****     }
 1284              		.loc 1 183 13 is_stmt 1 view .LVU408
 1285 00c4 3046     		mov	r0, r6
 1286 00c6 FFF7FEFF 		bl	lv_lru_remove_lru_item
 1287              	.LVL146:
 1288              	.L95:
 182:lvgl/src/misc/lv_lru.c ****             lv_lru_remove_lru_item(cache);
 1289              		.loc 1 182 34 view .LVU409
 182:lvgl/src/misc/lv_lru.c ****             lv_lru_remove_lru_item(cache);
 1290              		.loc 1 182 20 is_stmt 0 view .LVU410
 1291 00ca 3369     		ldr	r3, [r6, #16]
 182:lvgl/src/misc/lv_lru.c ****             lv_lru_remove_lru_item(cache);
 1292              		.loc 1 182 34 view .LVU411
 1293 00cc 9C42     		cmp	r4, r3
 1294 00ce F9D8     		bhi	.L96
 1295 00d0 D6E7     		b	.L94
 1296              	.LVL147:
 1297              	.L97:
 139:lvgl/src/misc/lv_lru.c ****     test_for_missing_key();
 1298              		.loc 1 139 5 view .LVU412
 1299 00d2 0120     		movs	r0, #1
 1300              	.LVL148:
 139:lvgl/src/misc/lv_lru.c ****     test_for_missing_key();
 1301              		.loc 1 139 5 view .LVU413
 1302 00d4 D8E7     		b	.L87
 1303              	.LVL149:
 1304              	.L98:
 140:lvgl/src/misc/lv_lru.c ****     test_for_missing_value();
 1305              		.loc 1 140 5 view .LVU414
 1306 00d6 0220     		movs	r0, #2
 1307              	.LVL150:
 140:lvgl/src/misc/lv_lru.c ****     test_for_missing_value();
 1308              		.loc 1 140 5 view .LVU415
 1309 00d8 D6E7     		b	.L87
 1310              	.LVL151:
 1311              	.L99:
 141:lvgl/src/misc/lv_lru.c ****     test_for_value_too_large();
 1312              		.loc 1 141 5 view .LVU416
 1313 00da 0320     		movs	r0, #3
 1314              	.LVL152:
 141:lvgl/src/misc/lv_lru.c ****     test_for_value_too_large();
 1315              		.loc 1 141 5 view .LVU417
 1316 00dc D4E7     		b	.L87
ARM GAS  /var/folders/21/t9g5rlb91ys800n5npymflf80000gn/T//ccOkOylr.s 			page 36


 1317              	.LVL153:
 1318              	.L100:
 141:lvgl/src/misc/lv_lru.c ****     test_for_value_too_large();
 1319              		.loc 1 141 5 view .LVU418
 1320 00de 0320     		movs	r0, #3
 1321              	.LVL154:
 141:lvgl/src/misc/lv_lru.c ****     test_for_value_too_large();
 1322              		.loc 1 141 5 view .LVU419
 1323 00e0 D2E7     		b	.L87
 1324              	.LVL155:
 1325              	.L101:
 142:lvgl/src/misc/lv_lru.c **** 
 1326              		.loc 1 142 5 view .LVU420
 1327 00e2 0520     		movs	r0, #5
 1328              	.LVL156:
 142:lvgl/src/misc/lv_lru.c **** 
 1329              		.loc 1 142 5 view .LVU421
 1330 00e4 D0E7     		b	.L87
 1331              		.cfi_endproc
 1332              	.LFE4:
 1334              		.text
 1335              	.Letext0:
 1336              		.file 2 "/usr/local/include/sys/_types/_int64_t.h"
 1337              		.file 3 "/usr/local/include/_types/_uint32_t.h"
 1338              		.file 4 "/usr/local/include/_types/_uint64_t.h"
 1339              		.file 5 "/usr/local/include/arm/_types.h"
 1340              		.file 6 "/usr/local/include/sys/_types/_size_t.h"
 1341              		.file 7 "lvgl/src/misc/lv_lru.h"
 1342              		.file 8 "/usr/local/include/string.h"
 1343              		.file 9 "lvgl/src/misc/lv_math.h"
 1344              		.file 10 "lvgl/src/misc/lv_mem.h"
 1345              		.file 11 "<built-in>"
ARM GAS  /var/folders/21/t9g5rlb91ys800n5npymflf80000gn/T//ccOkOylr.s 			page 37

