ARM GAS  /var/folders/21/t9g5rlb91ys800n5npymflf80000gn/T//cc3sO29B.s 			page 1


   1              		.cpu cortex-m4
   2              		.arch armv7e-m
   3              		.fpu fpv4-sp-d16
   4              		.eabi_attribute 27, 1
   5              		.eabi_attribute 28, 1
   6              		.eabi_attribute 20, 1
   7              		.eabi_attribute 21, 1
   8              		.eabi_attribute 23, 3
   9              		.eabi_attribute 24, 1
  10              		.eabi_attribute 25, 1
  11              		.eabi_attribute 26, 1
  12              		.eabi_attribute 30, 1
  13              		.eabi_attribute 34, 1
  14              		.eabi_attribute 18, 4
  15              		.file	"lv_math.c"
  16              		.text
  17              	.Ltext0:
  18              		.cfi_sections	.debug_frame
  19              		.file 1 "lvgl/src/misc/lv_math.c"
  20              		.section	.text.lv_trigo_sin,"ax",%progbits
  21              		.align	1
  22              		.global	lv_trigo_sin
  23              		.syntax unified
  24              		.thumb
  25              		.thumb_func
  27              	lv_trigo_sin:
  28              	.LVL0:
  29              	.LFB1:
   1:lvgl/src/misc/lv_math.c **** /**
   2:lvgl/src/misc/lv_math.c ****  * @file lv_math.c
   3:lvgl/src/misc/lv_math.c ****  *
   4:lvgl/src/misc/lv_math.c ****  */
   5:lvgl/src/misc/lv_math.c **** 
   6:lvgl/src/misc/lv_math.c **** /*********************
   7:lvgl/src/misc/lv_math.c ****  *      INCLUDES
   8:lvgl/src/misc/lv_math.c ****  *********************/
   9:lvgl/src/misc/lv_math.c **** #include "lv_math.h"
  10:lvgl/src/misc/lv_math.c **** 
  11:lvgl/src/misc/lv_math.c **** /*********************
  12:lvgl/src/misc/lv_math.c ****  *      DEFINES
  13:lvgl/src/misc/lv_math.c ****  *********************/
  14:lvgl/src/misc/lv_math.c **** 
  15:lvgl/src/misc/lv_math.c **** /**********************
  16:lvgl/src/misc/lv_math.c ****  *      TYPEDEFS
  17:lvgl/src/misc/lv_math.c ****  **********************/
  18:lvgl/src/misc/lv_math.c **** 
  19:lvgl/src/misc/lv_math.c **** /**********************
  20:lvgl/src/misc/lv_math.c ****  *  STATIC PROTOTYPES
  21:lvgl/src/misc/lv_math.c ****  **********************/
  22:lvgl/src/misc/lv_math.c **** 
  23:lvgl/src/misc/lv_math.c **** /**********************
  24:lvgl/src/misc/lv_math.c ****  *  STATIC VARIABLES
  25:lvgl/src/misc/lv_math.c ****  **********************/
  26:lvgl/src/misc/lv_math.c **** static const int16_t sin0_90_table[] = {
  27:lvgl/src/misc/lv_math.c ****     0,     572,   1144,  1715,  2286,  2856,  3425,  3993,  4560,  5126,  5690,  6252,  6813,  7371
  28:lvgl/src/misc/lv_math.c ****     9032,  9580,  10126, 10668, 11207, 11743, 12275, 12803, 13328, 13848, 14364, 14876, 15383, 1588
  29:lvgl/src/misc/lv_math.c ****     17364, 17846, 18323, 18794, 19260, 19720, 20173, 20621, 21062, 21497, 21925, 22347, 22762, 2317
ARM GAS  /var/folders/21/t9g5rlb91ys800n5npymflf80000gn/T//cc3sO29B.s 			page 2


  30:lvgl/src/misc/lv_math.c ****     24351, 24730, 25101, 25465, 25821, 26169, 26509, 26841, 27165, 27481, 27788, 28087, 28377, 2865
  31:lvgl/src/misc/lv_math.c ****     29451, 29697, 29934, 30162, 30381, 30591, 30791, 30982, 31163, 31335, 31498, 31650, 31794, 3192
  32:lvgl/src/misc/lv_math.c ****     32269, 32364, 32448, 32523, 32587, 32642, 32687, 32722, 32747, 32762, 32767
  33:lvgl/src/misc/lv_math.c **** };
  34:lvgl/src/misc/lv_math.c **** 
  35:lvgl/src/misc/lv_math.c **** /**********************
  36:lvgl/src/misc/lv_math.c ****  *      MACROS
  37:lvgl/src/misc/lv_math.c ****  **********************/
  38:lvgl/src/misc/lv_math.c **** 
  39:lvgl/src/misc/lv_math.c **** /**********************
  40:lvgl/src/misc/lv_math.c ****  *   GLOBAL FUNCTIONS
  41:lvgl/src/misc/lv_math.c ****  **********************/
  42:lvgl/src/misc/lv_math.c **** 
  43:lvgl/src/misc/lv_math.c **** /**
  44:lvgl/src/misc/lv_math.c ****  * Return with sinus of an angle
  45:lvgl/src/misc/lv_math.c ****  * @param angle
  46:lvgl/src/misc/lv_math.c ****  * @return sinus of 'angle'. sin(-90) = -32767, sin(90) = 32767
  47:lvgl/src/misc/lv_math.c ****  */
  48:lvgl/src/misc/lv_math.c **** int16_t LV_ATTRIBUTE_FAST_MEM lv_trigo_sin(int16_t angle)
  49:lvgl/src/misc/lv_math.c **** {
  30              		.loc 1 49 1 view -0
  31              		.cfi_startproc
  32              		@ args = 0, pretend = 0, frame = 0
  33              		@ frame_needed = 0, uses_anonymous_args = 0
  34              		@ link register save eliminated.
  50:lvgl/src/misc/lv_math.c ****     int16_t ret = 0;
  35              		.loc 1 50 5 view .LVU1
  51:lvgl/src/misc/lv_math.c ****     angle       = angle % 360;
  36              		.loc 1 51 5 view .LVU2
  37              		.loc 1 51 17 is_stmt 0 view .LVU3
  38 0000 1C4B     		ldr	r3, .L8
  39 0002 83FB0023 		smull	r2, r3, r3, r0
  40 0006 0344     		add	r3, r3, r0
  41 0008 C217     		asrs	r2, r0, #31
  42 000a C2EB2323 		rsb	r3, r2, r3, asr #8
  43 000e 4FF4B472 		mov	r2, #360
  44 0012 02FB1300 		mls	r0, r2, r3, r0
  45              	.LVL1:
  46              		.loc 1 51 17 view .LVU4
  47 0016 00B2     		sxth	r0, r0
  48              	.LVL2:
  52:lvgl/src/misc/lv_math.c **** 
  53:lvgl/src/misc/lv_math.c ****     if(angle < 0) angle = 360 + angle;
  49              		.loc 1 53 5 is_stmt 1 view .LVU5
  50              		.loc 1 53 7 is_stmt 0 view .LVU6
  51 0018 0028     		cmp	r0, #0
  52 001a 05DB     		blt	.L7
  53              	.L2:
  54:lvgl/src/misc/lv_math.c **** 
  55:lvgl/src/misc/lv_math.c ****     if(angle < 90) {
  54              		.loc 1 55 5 is_stmt 1 view .LVU7
  55              		.loc 1 55 7 is_stmt 0 view .LVU8
  56 001c 5928     		cmp	r0, #89
  57 001e 06DC     		bgt	.L3
  56:lvgl/src/misc/lv_math.c ****         ret = sin0_90_table[angle];
  58              		.loc 1 56 9 is_stmt 1 view .LVU9
  59              		.loc 1 56 13 is_stmt 0 view .LVU10
ARM GAS  /var/folders/21/t9g5rlb91ys800n5npymflf80000gn/T//cc3sO29B.s 			page 3


  60 0020 154B     		ldr	r3, .L8+4
  61 0022 33F91000 		ldrsh	r0, [r3, r0, lsl #1]
  62              	.LVL3:
  63              		.loc 1 56 13 view .LVU11
  64 0026 7047     		bx	lr
  65              	.LVL4:
  66              	.L7:
  53:lvgl/src/misc/lv_math.c **** 
  67              		.loc 1 53 19 is_stmt 1 discriminator 1 view .LVU12
  53:lvgl/src/misc/lv_math.c **** 
  68              		.loc 1 53 31 is_stmt 0 discriminator 1 view .LVU13
  69 0028 1044     		add	r0, r0, r2
  70              	.LVL5:
  53:lvgl/src/misc/lv_math.c **** 
  71              		.loc 1 53 25 discriminator 1 view .LVU14
  72 002a 00B2     		sxth	r0, r0
  73              	.LVL6:
  53:lvgl/src/misc/lv_math.c **** 
  74              		.loc 1 53 25 discriminator 1 view .LVU15
  75 002c F6E7     		b	.L2
  76              	.L3:
  57:lvgl/src/misc/lv_math.c ****     }
  58:lvgl/src/misc/lv_math.c ****     else if(angle >= 90 && angle < 180) {
  77              		.loc 1 58 10 is_stmt 1 view .LVU16
  78              		.loc 1 58 25 is_stmt 0 view .LVU17
  79 002e 80B2     		uxth	r0, r0
  80              		.loc 1 58 25 view .LVU18
  81 0030 A0F15A03 		sub	r3, r0, #90
  82 0034 9BB2     		uxth	r3, r3
  83              		.loc 1 58 12 view .LVU19
  84 0036 592B     		cmp	r3, #89
  85 0038 06D8     		bhi	.L5
  59:lvgl/src/misc/lv_math.c ****         angle = 180 - angle;
  86              		.loc 1 59 9 is_stmt 1 view .LVU20
  87              		.loc 1 59 21 is_stmt 0 view .LVU21
  88 003a C0F1B400 		rsb	r0, r0, #180
  89              	.LVL7:
  90              		.loc 1 59 15 view .LVU22
  91 003e 00B2     		sxth	r0, r0
  92              	.LVL8:
  60:lvgl/src/misc/lv_math.c ****         ret   = sin0_90_table[angle];
  93              		.loc 1 60 9 is_stmt 1 view .LVU23
  94              		.loc 1 60 15 is_stmt 0 view .LVU24
  95 0040 0D4B     		ldr	r3, .L8+4
  96 0042 33F91000 		ldrsh	r0, [r3, r0, lsl #1]
  97              	.LVL9:
  98              		.loc 1 60 15 view .LVU25
  99 0046 7047     		bx	lr
 100              	.LVL10:
 101              	.L5:
  61:lvgl/src/misc/lv_math.c ****     }
  62:lvgl/src/misc/lv_math.c ****     else if(angle >= 180 && angle < 270) {
 102              		.loc 1 62 10 is_stmt 1 view .LVU26
 103              		.loc 1 62 26 is_stmt 0 view .LVU27
 104 0048 A0F1B403 		sub	r3, r0, #180
 105 004c 9BB2     		uxth	r3, r3
 106              		.loc 1 62 12 view .LVU28
ARM GAS  /var/folders/21/t9g5rlb91ys800n5npymflf80000gn/T//cc3sO29B.s 			page 4


 107 004e 592B     		cmp	r3, #89
 108 0050 06D8     		bhi	.L6
  63:lvgl/src/misc/lv_math.c ****         angle = angle - 180;
 109              		.loc 1 63 9 is_stmt 1 view .LVU29
 110              		.loc 1 63 15 is_stmt 0 view .LVU30
 111 0052 1BB2     		sxth	r3, r3
 112              	.LVL11:
  64:lvgl/src/misc/lv_math.c ****         ret   = -sin0_90_table[angle];
 113              		.loc 1 64 9 is_stmt 1 view .LVU31
 114              		.loc 1 64 31 is_stmt 0 view .LVU32
 115 0054 084A     		ldr	r2, .L8+4
 116 0056 32F81300 		ldrh	r0, [r2, r3, lsl #1]
 117              		.loc 1 64 15 view .LVU33
 118 005a 4042     		rsbs	r0, r0, #0
 119 005c 00B2     		sxth	r0, r0
 120              	.LVL12:
 121              		.loc 1 64 15 view .LVU34
 122 005e 7047     		bx	lr
 123              	.LVL13:
 124              	.L6:
  65:lvgl/src/misc/lv_math.c ****     }
  66:lvgl/src/misc/lv_math.c ****     else {   /*angle >=270*/
  67:lvgl/src/misc/lv_math.c ****         angle = 360 - angle;
 125              		.loc 1 67 9 is_stmt 1 view .LVU35
 126              		.loc 1 67 21 is_stmt 0 view .LVU36
 127 0060 C0F5B470 		rsb	r0, r0, #360
 128              	.LVL14:
 129              		.loc 1 67 15 view .LVU37
 130 0064 00B2     		sxth	r0, r0
 131              	.LVL15:
  68:lvgl/src/misc/lv_math.c ****         ret   = -sin0_90_table[angle];
 132              		.loc 1 68 9 is_stmt 1 view .LVU38
 133              		.loc 1 68 31 is_stmt 0 view .LVU39
 134 0066 044B     		ldr	r3, .L8+4
 135 0068 33F81000 		ldrh	r0, [r3, r0, lsl #1]
 136              	.LVL16:
 137              		.loc 1 68 15 view .LVU40
 138 006c 4042     		rsbs	r0, r0, #0
 139 006e 00B2     		sxth	r0, r0
 140              	.LVL17:
  69:lvgl/src/misc/lv_math.c ****     }
  70:lvgl/src/misc/lv_math.c **** 
  71:lvgl/src/misc/lv_math.c ****     return ret;
 141              		.loc 1 71 5 is_stmt 1 view .LVU41
  72:lvgl/src/misc/lv_math.c **** }
 142              		.loc 1 72 1 is_stmt 0 view .LVU42
 143 0070 7047     		bx	lr
 144              	.L9:
 145 0072 00BF     		.align	2
 146              	.L8:
 147 0074 B7600BB6 		.word	-1240768329
 148 0078 00000000 		.word	sin0_90_table
 149              		.cfi_endproc
 150              	.LFE1:
 152              		.section	.text.lv_bezier3,"ax",%progbits
 153              		.align	1
 154              		.global	lv_bezier3
ARM GAS  /var/folders/21/t9g5rlb91ys800n5npymflf80000gn/T//cc3sO29B.s 			page 5


 155              		.syntax unified
 156              		.thumb
 157              		.thumb_func
 159              	lv_bezier3:
 160              	.LVL18:
 161              	.LFB2:
  73:lvgl/src/misc/lv_math.c **** 
  74:lvgl/src/misc/lv_math.c **** /**
  75:lvgl/src/misc/lv_math.c ****  * Calculate a value of a Cubic Bezier function.
  76:lvgl/src/misc/lv_math.c ****  * @param t time in range of [0..LV_BEZIER_VAL_MAX]
  77:lvgl/src/misc/lv_math.c ****  * @param u0 start values in range of [0..LV_BEZIER_VAL_MAX]
  78:lvgl/src/misc/lv_math.c ****  * @param u1 control value 1 values in range of [0..LV_BEZIER_VAL_MAX]
  79:lvgl/src/misc/lv_math.c ****  * @param u2 control value 2 in range of [0..LV_BEZIER_VAL_MAX]
  80:lvgl/src/misc/lv_math.c ****  * @param u3 end values in range of [0..LV_BEZIER_VAL_MAX]
  81:lvgl/src/misc/lv_math.c ****  * @return the value calculated from the given parameters in range of [0..LV_BEZIER_VAL_MAX]
  82:lvgl/src/misc/lv_math.c ****  */
  83:lvgl/src/misc/lv_math.c **** uint32_t lv_bezier3(uint32_t t, uint32_t u0, uint32_t u1, uint32_t u2, uint32_t u3)
  84:lvgl/src/misc/lv_math.c **** {
 162              		.loc 1 84 1 is_stmt 1 view -0
 163              		.cfi_startproc
 164              		@ args = 4, pretend = 0, frame = 0
 165              		@ frame_needed = 0, uses_anonymous_args = 0
 166              		.loc 1 84 1 is_stmt 0 view .LVU44
 167 0000 70B5     		push	{r4, r5, r6, lr}
 168              	.LCFI0:
 169              		.cfi_def_cfa_offset 16
 170              		.cfi_offset 4, -16
 171              		.cfi_offset 5, -12
 172              		.cfi_offset 6, -8
 173              		.cfi_offset 14, -4
  85:lvgl/src/misc/lv_math.c ****     uint32_t t_rem  = 1024 - t;
 174              		.loc 1 85 5 is_stmt 1 view .LVU45
 175              		.loc 1 85 14 is_stmt 0 view .LVU46
 176 0002 C0F5806C 		rsb	ip, r0, #1024
 177              	.LVL19:
  86:lvgl/src/misc/lv_math.c ****     uint32_t t_rem2 = (t_rem * t_rem) >> 10;
 178              		.loc 1 86 5 is_stmt 1 view .LVU47
 179              		.loc 1 86 30 is_stmt 0 view .LVU48
 180 0006 0CFB0CF4 		mul	r4, ip, ip
 181              		.loc 1 86 14 view .LVU49
 182 000a A40A     		lsrs	r4, r4, #10
 183              	.LVL20:
  87:lvgl/src/misc/lv_math.c ****     uint32_t t_rem3 = (t_rem2 * t_rem) >> 10;
 184              		.loc 1 87 5 is_stmt 1 view .LVU50
 185              		.loc 1 87 31 is_stmt 0 view .LVU51
 186 000c 04FB0CF6 		mul	r6, r4, ip
 187              		.loc 1 87 14 view .LVU52
 188 0010 B60A     		lsrs	r6, r6, #10
 189              	.LVL21:
  88:lvgl/src/misc/lv_math.c ****     uint32_t t2     = (t * t) >> 10;
 190              		.loc 1 88 5 is_stmt 1 view .LVU53
 191              		.loc 1 88 26 is_stmt 0 view .LVU54
 192 0012 00FB00FE 		mul	lr, r0, r0
 193              		.loc 1 88 14 view .LVU55
 194 0016 4FEA9E2E 		lsr	lr, lr, #10
 195              	.LVL22:
  89:lvgl/src/misc/lv_math.c ****     uint32_t t3     = (t2 * t) >> 10;
ARM GAS  /var/folders/21/t9g5rlb91ys800n5npymflf80000gn/T//cc3sO29B.s 			page 6


 196              		.loc 1 89 5 is_stmt 1 view .LVU56
 197              		.loc 1 89 27 is_stmt 0 view .LVU57
 198 001a 0EFB00F5 		mul	r5, lr, r0
 199              		.loc 1 89 14 view .LVU58
 200 001e AD0A     		lsrs	r5, r5, #10
 201              	.LVL23:
  90:lvgl/src/misc/lv_math.c **** 
  91:lvgl/src/misc/lv_math.c ****     uint32_t v1 = (t_rem3 * u0) >> 10;
 202              		.loc 1 91 5 is_stmt 1 view .LVU59
 203              		.loc 1 91 27 is_stmt 0 view .LVU60
 204 0020 01FB06F6 		mul	r6, r1, r6
 205              	.LVL24:
  92:lvgl/src/misc/lv_math.c ****     uint32_t v2 = (3 * t_rem2 * t * u1) >> 20;
 206              		.loc 1 92 5 is_stmt 1 view .LVU61
 207              		.loc 1 92 31 is_stmt 0 view .LVU62
 208 0024 04FB00F0 		mul	r0, r4, r0
 209              	.LVL25:
 210              		.loc 1 92 35 view .LVU63
 211 0028 00FB02F2 		mul	r2, r0, r2
 212              	.LVL26:
 213              		.loc 1 92 35 view .LVU64
 214 002c 02EB4202 		add	r2, r2, r2, lsl #1
 215              		.loc 1 92 14 view .LVU65
 216 0030 120D     		lsrs	r2, r2, #20
 217              	.LVL27:
  93:lvgl/src/misc/lv_math.c ****     uint32_t v3 = (3 * t_rem * t2 * u2) >> 20;
 218              		.loc 1 93 5 is_stmt 1 view .LVU66
 219              		.loc 1 93 30 is_stmt 0 view .LVU67
 220 0032 0EFB0CFC 		mul	ip, lr, ip
 221              	.LVL28:
 222              		.loc 1 93 35 view .LVU68
 223 0036 03FB0CFC 		mul	ip, r3, ip
 224 003a 0CEB4C0C 		add	ip, ip, ip, lsl #1
 225              	.LVL29:
  94:lvgl/src/misc/lv_math.c ****     uint32_t v4 = (t3 * u3) >> 10;
 226              		.loc 1 94 5 is_stmt 1 view .LVU69
 227              		.loc 1 94 23 is_stmt 0 view .LVU70
 228 003e 049B     		ldr	r3, [sp, #16]
 229              	.LVL30:
 230              		.loc 1 94 23 view .LVU71
 231 0040 03FB05F0 		mul	r0, r3, r5
 232              	.LVL31:
  95:lvgl/src/misc/lv_math.c **** 
  96:lvgl/src/misc/lv_math.c ****     return v1 + v2 + v3 + v4;
 233              		.loc 1 96 5 is_stmt 1 view .LVU72
 234              		.loc 1 96 15 is_stmt 0 view .LVU73
 235 0044 02EB9622 		add	r2, r2, r6, lsr #10
 236              	.LVL32:
 237              		.loc 1 96 20 view .LVU74
 238 0048 02EB1C52 		add	r2, r2, ip, lsr #20
  97:lvgl/src/misc/lv_math.c **** }
 239              		.loc 1 97 1 view .LVU75
 240 004c 02EB9020 		add	r0, r2, r0, lsr #10
 241              	.LVL33:
 242              		.loc 1 97 1 view .LVU76
 243 0050 70BD     		pop	{r4, r5, r6, pc}
 244              		.loc 1 97 1 view .LVU77
ARM GAS  /var/folders/21/t9g5rlb91ys800n5npymflf80000gn/T//cc3sO29B.s 			page 7


 245              		.cfi_endproc
 246              	.LFE2:
 248              		.section	.text.lv_sqrt,"ax",%progbits
 249              		.align	1
 250              		.global	lv_sqrt
 251              		.syntax unified
 252              		.thumb
 253              		.thumb_func
 255              	lv_sqrt:
 256              	.LVL34:
 257              	.LFB3:
  98:lvgl/src/misc/lv_math.c **** 
  99:lvgl/src/misc/lv_math.c **** /**
 100:lvgl/src/misc/lv_math.c ****  * Get the square root of a number
 101:lvgl/src/misc/lv_math.c ****  * @param x integer which square root should be calculated
 102:lvgl/src/misc/lv_math.c ****  * @param q store the result here. q->i: integer part, q->f: fractional part in 1/256 unit
 103:lvgl/src/misc/lv_math.c ****  * @param mask optional to skip some iterations if the magnitude of the root is known.
 104:lvgl/src/misc/lv_math.c ****  * Set to 0x8000 by default.
 105:lvgl/src/misc/lv_math.c ****  * If root < 16: mask = 0x80
 106:lvgl/src/misc/lv_math.c ****  * If root < 256: mask = 0x800
 107:lvgl/src/misc/lv_math.c ****  * Else: mask = 0x8000
 108:lvgl/src/misc/lv_math.c ****  */
 109:lvgl/src/misc/lv_math.c **** void LV_ATTRIBUTE_FAST_MEM lv_sqrt(uint32_t x, lv_sqrt_res_t * q, uint32_t mask)
 110:lvgl/src/misc/lv_math.c **** {
 258              		.loc 1 110 1 is_stmt 1 view -0
 259              		.cfi_startproc
 260              		@ args = 0, pretend = 0, frame = 0
 261              		@ frame_needed = 0, uses_anonymous_args = 0
 262              		.loc 1 110 1 is_stmt 0 view .LVU79
 263 0000 00B5     		push	{lr}
 264              	.LCFI1:
 265              		.cfi_def_cfa_offset 4
 266              		.cfi_offset 14, -4
 111:lvgl/src/misc/lv_math.c ****     x = x << 8; /*To get 4 bit precision. (sqrt(256) = 16 = 4 bit)*/
 267              		.loc 1 111 5 is_stmt 1 view .LVU80
 268              		.loc 1 111 7 is_stmt 0 view .LVU81
 269 0002 0002     		lsls	r0, r0, #8
 270              	.LVL35:
 112:lvgl/src/misc/lv_math.c **** 
 113:lvgl/src/misc/lv_math.c ****     uint32_t root = 0;
 271              		.loc 1 113 5 is_stmt 1 view .LVU82
 272              		.loc 1 113 14 is_stmt 0 view .LVU83
 273 0004 4FF0000C 		mov	ip, #0
 274 0008 01E0     		b	.L14
 275              	.LVL36:
 276              	.L13:
 114:lvgl/src/misc/lv_math.c ****     uint32_t trial;
 115:lvgl/src/misc/lv_math.c ****     // http://ww1.microchip.com/...en/AppNotes/91040a.pdf
 116:lvgl/src/misc/lv_math.c ****     do {
 117:lvgl/src/misc/lv_math.c ****         trial = root + mask;
 118:lvgl/src/misc/lv_math.c ****         if(trial * trial <= x) root = trial;
 119:lvgl/src/misc/lv_math.c ****         mask = mask >> 1;
 277              		.loc 1 119 9 is_stmt 1 view .LVU84
 120:lvgl/src/misc/lv_math.c ****     } while(mask);
 278              		.loc 1 120 13 view .LVU85
 279 000a 5208     		lsrs	r2, r2, #1
 280              	.LVL37:
ARM GAS  /var/folders/21/t9g5rlb91ys800n5npymflf80000gn/T//cc3sO29B.s 			page 8


 281              		.loc 1 120 13 is_stmt 0 view .LVU86
 282 000c 07D0     		beq	.L17
 283              	.LVL38:
 284              	.L14:
 114:lvgl/src/misc/lv_math.c ****     uint32_t trial;
 285              		.loc 1 114 5 is_stmt 1 view .LVU87
 116:lvgl/src/misc/lv_math.c ****         trial = root + mask;
 286              		.loc 1 116 5 view .LVU88
 117:lvgl/src/misc/lv_math.c ****         if(trial * trial <= x) root = trial;
 287              		.loc 1 117 9 view .LVU89
 117:lvgl/src/misc/lv_math.c ****         if(trial * trial <= x) root = trial;
 288              		.loc 1 117 15 is_stmt 0 view .LVU90
 289 000e 02EB0C03 		add	r3, r2, ip
 290              	.LVL39:
 118:lvgl/src/misc/lv_math.c ****         mask = mask >> 1;
 291              		.loc 1 118 9 is_stmt 1 view .LVU91
 118:lvgl/src/misc/lv_math.c ****         mask = mask >> 1;
 292              		.loc 1 118 18 is_stmt 0 view .LVU92
 293 0012 03FB03FE 		mul	lr, r3, r3
 118:lvgl/src/misc/lv_math.c ****         mask = mask >> 1;
 294              		.loc 1 118 11 view .LVU93
 295 0016 8645     		cmp	lr, r0
 296 0018 F7D8     		bhi	.L13
 118:lvgl/src/misc/lv_math.c ****         mask = mask >> 1;
 297              		.loc 1 118 37 view .LVU94
 298 001a 9C46     		mov	ip, r3
 299              	.LVL40:
 118:lvgl/src/misc/lv_math.c ****         mask = mask >> 1;
 300              		.loc 1 118 37 view .LVU95
 301 001c F5E7     		b	.L13
 302              	.LVL41:
 303              	.L17:
 121:lvgl/src/misc/lv_math.c **** 
 122:lvgl/src/misc/lv_math.c ****     q->i = root >> 4;
 304              		.loc 1 122 5 is_stmt 1 view .LVU96
 305              		.loc 1 122 17 is_stmt 0 view .LVU97
 306 001e 4FEA1C13 		lsr	r3, ip, #4
 307              	.LVL42:
 308              		.loc 1 122 10 view .LVU98
 309 0022 0B80     		strh	r3, [r1]	@ movhi
 123:lvgl/src/misc/lv_math.c ****     q->f = (root & 0xf) << 4;
 310              		.loc 1 123 5 is_stmt 1 view .LVU99
 311              		.loc 1 123 25 is_stmt 0 view .LVU100
 312 0024 4FEA0C1C 		lsl	ip, ip, #4
 313              	.LVL43:
 314              		.loc 1 123 25 view .LVU101
 315 0028 0CF0F00C 		and	ip, ip, #240
 316              		.loc 1 123 10 view .LVU102
 317 002c A1F802C0 		strh	ip, [r1, #2]	@ movhi
 124:lvgl/src/misc/lv_math.c **** }
 318              		.loc 1 124 1 view .LVU103
 319 0030 5DF804FB 		ldr	pc, [sp], #4
 320              		.cfi_endproc
 321              	.LFE3:
 323              		.section	.text.lv_atan2,"ax",%progbits
 324              		.align	1
 325              		.global	lv_atan2
ARM GAS  /var/folders/21/t9g5rlb91ys800n5npymflf80000gn/T//cc3sO29B.s 			page 9


 326              		.syntax unified
 327              		.thumb
 328              		.thumb_func
 330              	lv_atan2:
 331              	.LVL44:
 332              	.LFB4:
 125:lvgl/src/misc/lv_math.c **** 
 126:lvgl/src/misc/lv_math.c **** /**
 127:lvgl/src/misc/lv_math.c ****  * Calculate the atan2 of a vector.
 128:lvgl/src/misc/lv_math.c ****  * @param x
 129:lvgl/src/misc/lv_math.c ****  * @param y
 130:lvgl/src/misc/lv_math.c ****  * @return the angle in degree calculated from the given parameters in range of [0..360]
 131:lvgl/src/misc/lv_math.c ****  */
 132:lvgl/src/misc/lv_math.c **** uint16_t lv_atan2(int x, int y)
 133:lvgl/src/misc/lv_math.c **** {
 333              		.loc 1 133 1 is_stmt 1 view -0
 334              		.cfi_startproc
 335              		@ args = 0, pretend = 0, frame = 0
 336              		@ frame_needed = 0, uses_anonymous_args = 0
 337              		@ link register save eliminated.
 134:lvgl/src/misc/lv_math.c ****     // Fast XY vector to integer degree algorithm - Jan 2011 www.RomanBlack.com
 135:lvgl/src/misc/lv_math.c ****     // Converts any XY values including 0 to a degree value that should be
 136:lvgl/src/misc/lv_math.c ****     // within +/- 1 degree of the accurate value without needing
 137:lvgl/src/misc/lv_math.c ****     // large slow trig functions like ArcTan() or ArcCos().
 138:lvgl/src/misc/lv_math.c ****     // NOTE! at least one of the X or Y values must be non-zero!
 139:lvgl/src/misc/lv_math.c ****     // This is the full version, for all 4 quadrants and will generate
 140:lvgl/src/misc/lv_math.c ****     // the angle in integer degrees from 0-360.
 141:lvgl/src/misc/lv_math.c ****     // Any values of X and Y are usable including negative values provided
 142:lvgl/src/misc/lv_math.c ****     // they are between -1456 and 1456 so the 16bit multiply does not overflow.
 143:lvgl/src/misc/lv_math.c **** 
 144:lvgl/src/misc/lv_math.c ****     unsigned char negflag;
 338              		.loc 1 144 5 view .LVU105
 145:lvgl/src/misc/lv_math.c ****     unsigned char tempdegree;
 339              		.loc 1 145 5 view .LVU106
 146:lvgl/src/misc/lv_math.c ****     unsigned char comp;
 340              		.loc 1 146 5 view .LVU107
 147:lvgl/src/misc/lv_math.c ****     unsigned int degree;     // this will hold the result
 341              		.loc 1 147 5 view .LVU108
 148:lvgl/src/misc/lv_math.c ****     unsigned int ux;
 342              		.loc 1 148 5 view .LVU109
 149:lvgl/src/misc/lv_math.c ****     unsigned int uy;
 343              		.loc 1 149 5 view .LVU110
 150:lvgl/src/misc/lv_math.c **** 
 151:lvgl/src/misc/lv_math.c ****     // Save the sign flags then remove signs and get XY as unsigned ints
 152:lvgl/src/misc/lv_math.c ****     negflag = 0;
 344              		.loc 1 152 5 view .LVU111
 153:lvgl/src/misc/lv_math.c ****     if(x < 0) {
 345              		.loc 1 153 5 view .LVU112
 346              		.loc 1 153 7 is_stmt 0 view .LVU113
 347 0000 0028     		cmp	r0, #0
 348              		.loc 1 153 7 view .LVU114
 349 0002 15DB     		blt	.L37
 152:lvgl/src/misc/lv_math.c ****     if(x < 0) {
 350              		.loc 1 152 13 view .LVU115
 351 0004 0023     		movs	r3, #0
 352              	.LVL45:
 353              	.L19:
ARM GAS  /var/folders/21/t9g5rlb91ys800n5npymflf80000gn/T//cc3sO29B.s 			page 10


 154:lvgl/src/misc/lv_math.c ****         negflag += 0x01;    // x flag bit
 155:lvgl/src/misc/lv_math.c ****         x = (0 - x);        // is now +
 156:lvgl/src/misc/lv_math.c ****     }
 157:lvgl/src/misc/lv_math.c ****     ux = x;                // copy to unsigned var before multiply
 354              		.loc 1 157 5 is_stmt 1 view .LVU116
 158:lvgl/src/misc/lv_math.c ****     if(y < 0) {
 355              		.loc 1 158 5 view .LVU117
 356              		.loc 1 158 7 is_stmt 0 view .LVU118
 357 0006 0029     		cmp	r1, #0
 358 0008 15DB     		blt	.L38
 359              	.L20:
 159:lvgl/src/misc/lv_math.c ****         negflag += 0x02;    // y flag bit
 160:lvgl/src/misc/lv_math.c ****         y = (0 - y);        // is now +
 161:lvgl/src/misc/lv_math.c ****     }
 162:lvgl/src/misc/lv_math.c ****     uy = y;                // copy to unsigned var before multiply
 360              		.loc 1 162 5 is_stmt 1 view .LVU119
 361              	.LVL46:
 163:lvgl/src/misc/lv_math.c **** 
 164:lvgl/src/misc/lv_math.c ****     // 1. Calc the scaled "degrees"
 165:lvgl/src/misc/lv_math.c ****     if(ux > uy) {
 362              		.loc 1 165 5 view .LVU120
 363              		.loc 1 165 7 is_stmt 0 view .LVU121
 364 000a 8842     		cmp	r0, r1
 365 000c 17D9     		bls	.L21
 166:lvgl/src/misc/lv_math.c ****         degree = (uy * 45) / ux;   // degree result will be 0-45 range
 366              		.loc 1 166 9 is_stmt 1 view .LVU122
 367              		.loc 1 166 22 is_stmt 0 view .LVU123
 368 000e 01EB4101 		add	r1, r1, r1, lsl #1
 369              	.LVL47:
 370              		.loc 1 166 22 view .LVU124
 371 0012 C1EB0111 		rsb	r1, r1, r1, lsl #4
 372              		.loc 1 166 16 view .LVU125
 373 0016 B1FBF0F1 		udiv	r1, r1, r0
 374              	.LVL48:
 167:lvgl/src/misc/lv_math.c ****         negflag += 0x10;    // octant flag bit
 375              		.loc 1 167 9 is_stmt 1 view .LVU126
 376              		.loc 1 167 17 is_stmt 0 view .LVU127
 377 001a 1033     		adds	r3, r3, #16
 378              	.LVL49:
 379              		.loc 1 167 17 view .LVU128
 380 001c DBB2     		uxtb	r3, r3
 381              	.LVL50:
 382              	.L22:
 168:lvgl/src/misc/lv_math.c ****     }
 169:lvgl/src/misc/lv_math.c ****     else {
 170:lvgl/src/misc/lv_math.c ****         degree = (ux * 45) / uy;   // degree result will be 0-45 range
 171:lvgl/src/misc/lv_math.c ****     }
 172:lvgl/src/misc/lv_math.c **** 
 173:lvgl/src/misc/lv_math.c ****     // 2. Compensate for the 4 degree error curve
 174:lvgl/src/misc/lv_math.c ****     comp = 0;
 383              		.loc 1 174 5 is_stmt 1 view .LVU129
 175:lvgl/src/misc/lv_math.c ****     tempdegree = degree;    // use an unsigned char for speed!
 384              		.loc 1 175 5 view .LVU130
 385              		.loc 1 175 16 is_stmt 0 view .LVU131
 386 001e CAB2     		uxtb	r2, r1
 387              	.LVL51:
 176:lvgl/src/misc/lv_math.c ****     if(tempdegree > 22) {    // if top half of range
ARM GAS  /var/folders/21/t9g5rlb91ys800n5npymflf80000gn/T//cc3sO29B.s 			page 11


 388              		.loc 1 176 5 is_stmt 1 view .LVU132
 389              		.loc 1 176 7 is_stmt 0 view .LVU133
 390 0020 162A     		cmp	r2, #22
 391 0022 1DD9     		bls	.L23
 177:lvgl/src/misc/lv_math.c ****         if(tempdegree <= 44) comp++;
 392              		.loc 1 177 9 is_stmt 1 view .LVU134
 393              		.loc 1 177 11 is_stmt 0 view .LVU135
 394 0024 2C2A     		cmp	r2, #44
 395 0026 11D8     		bhi	.L31
 396              		.loc 1 177 30 is_stmt 1 view .LVU136
 397              	.LVL52:
 178:lvgl/src/misc/lv_math.c ****         if(tempdegree <= 41) comp++;
 398              		.loc 1 178 9 view .LVU137
 399              		.loc 1 178 11 is_stmt 0 view .LVU138
 400 0028 292A     		cmp	r2, #41
 401 002a 23D8     		bhi	.L32
 402              		.loc 1 178 34 view .LVU139
 403 002c 0220     		movs	r0, #2
 404 002e 0EE0     		b	.L24
 405              	.LVL53:
 406              	.L37:
 154:lvgl/src/misc/lv_math.c ****         x = (0 - x);        // is now +
 407              		.loc 1 154 9 is_stmt 1 view .LVU140
 155:lvgl/src/misc/lv_math.c ****     }
 408              		.loc 1 155 9 view .LVU141
 155:lvgl/src/misc/lv_math.c ****     }
 409              		.loc 1 155 11 is_stmt 0 view .LVU142
 410 0030 4042     		rsbs	r0, r0, #0
 411              	.LVL54:
 154:lvgl/src/misc/lv_math.c ****         x = (0 - x);        // is now +
 412              		.loc 1 154 17 view .LVU143
 413 0032 0123     		movs	r3, #1
 414 0034 E7E7     		b	.L19
 415              	.LVL55:
 416              	.L38:
 159:lvgl/src/misc/lv_math.c ****         y = (0 - y);        // is now +
 417              		.loc 1 159 9 is_stmt 1 view .LVU144
 159:lvgl/src/misc/lv_math.c ****         y = (0 - y);        // is now +
 418              		.loc 1 159 17 is_stmt 0 view .LVU145
 419 0036 0233     		adds	r3, r3, #2
 420              	.LVL56:
 159:lvgl/src/misc/lv_math.c ****         y = (0 - y);        // is now +
 421              		.loc 1 159 17 view .LVU146
 422 0038 DBB2     		uxtb	r3, r3
 423              	.LVL57:
 160:lvgl/src/misc/lv_math.c ****     }
 424              		.loc 1 160 9 is_stmt 1 view .LVU147
 160:lvgl/src/misc/lv_math.c ****     }
 425              		.loc 1 160 11 is_stmt 0 view .LVU148
 426 003a 4942     		rsbs	r1, r1, #0
 427              	.LVL58:
 160:lvgl/src/misc/lv_math.c ****     }
 428              		.loc 1 160 11 view .LVU149
 429 003c E5E7     		b	.L20
 430              	.LVL59:
 431              	.L21:
 170:lvgl/src/misc/lv_math.c ****     }
ARM GAS  /var/folders/21/t9g5rlb91ys800n5npymflf80000gn/T//cc3sO29B.s 			page 12


 432              		.loc 1 170 9 is_stmt 1 view .LVU150
 170:lvgl/src/misc/lv_math.c ****     }
 433              		.loc 1 170 22 is_stmt 0 view .LVU151
 434 003e 00EB4000 		add	r0, r0, r0, lsl #1
 435              	.LVL60:
 170:lvgl/src/misc/lv_math.c ****     }
 436              		.loc 1 170 22 view .LVU152
 437 0042 C0EB0010 		rsb	r0, r0, r0, lsl #4
 170:lvgl/src/misc/lv_math.c ****     }
 438              		.loc 1 170 16 view .LVU153
 439 0046 B0FBF1F1 		udiv	r1, r0, r1
 440              	.LVL61:
 170:lvgl/src/misc/lv_math.c ****     }
 441              		.loc 1 170 16 view .LVU154
 442 004a E8E7     		b	.L22
 443              	.LVL62:
 444              	.L31:
 174:lvgl/src/misc/lv_math.c ****     tempdegree = degree;    // use an unsigned char for speed!
 445              		.loc 1 174 10 view .LVU155
 446 004c 0020     		movs	r0, #0
 447              	.LVL63:
 448              	.L24:
 179:lvgl/src/misc/lv_math.c ****         if(tempdegree <= 37) comp++;
 449              		.loc 1 179 9 is_stmt 1 view .LVU156
 450              		.loc 1 179 11 is_stmt 0 view .LVU157
 451 004e 252A     		cmp	r2, #37
 452 0050 13D8     		bhi	.L25
 453              		.loc 1 179 30 is_stmt 1 discriminator 1 view .LVU158
 454              		.loc 1 179 34 is_stmt 0 discriminator 1 view .LVU159
 455 0052 0130     		adds	r0, r0, #1
 456              	.LVL64:
 457              		.loc 1 179 34 discriminator 1 view .LVU160
 458 0054 C0B2     		uxtb	r0, r0
 459              	.LVL65:
 180:lvgl/src/misc/lv_math.c ****         if(tempdegree <= 32) comp++;  // max is 4 degrees compensated
 460              		.loc 1 180 9 is_stmt 1 discriminator 1 view .LVU161
 461              		.loc 1 180 11 is_stmt 0 discriminator 1 view .LVU162
 462 0056 202A     		cmp	r2, #32
 463 0058 0FD8     		bhi	.L25
 464              		.loc 1 180 30 is_stmt 1 discriminator 1 view .LVU163
 465              		.loc 1 180 34 is_stmt 0 discriminator 1 view .LVU164
 466 005a 0130     		adds	r0, r0, #1
 467              	.LVL66:
 468              		.loc 1 180 34 discriminator 1 view .LVU165
 469 005c C0B2     		uxtb	r0, r0
 470              	.LVL67:
 471              		.loc 1 180 34 discriminator 1 view .LVU166
 472 005e 0CE0     		b	.L25
 473              	.LVL68:
 474              	.L23:
 181:lvgl/src/misc/lv_math.c ****     }
 182:lvgl/src/misc/lv_math.c ****     else {   // else is lower half of range
 183:lvgl/src/misc/lv_math.c ****         if(tempdegree >= 2) comp++;
 475              		.loc 1 183 9 is_stmt 1 view .LVU167
 476              		.loc 1 183 11 is_stmt 0 view .LVU168
 477 0060 012A     		cmp	r2, #1
 478 0062 09D9     		bls	.L33
ARM GAS  /var/folders/21/t9g5rlb91ys800n5npymflf80000gn/T//cc3sO29B.s 			page 13


 479              		.loc 1 183 29 is_stmt 1 view .LVU169
 480              	.LVL69:
 184:lvgl/src/misc/lv_math.c ****         if(tempdegree >= 6) comp++;
 481              		.loc 1 184 9 view .LVU170
 482              		.loc 1 184 11 is_stmt 0 view .LVU171
 483 0064 052A     		cmp	r2, #5
 484 0066 17D9     		bls	.L34
 485              		.loc 1 184 29 is_stmt 1 discriminator 1 view .LVU172
 486              	.LVL70:
 185:lvgl/src/misc/lv_math.c ****         if(tempdegree >= 10) comp++;
 487              		.loc 1 185 9 discriminator 1 view .LVU173
 488              		.loc 1 185 11 is_stmt 0 discriminator 1 view .LVU174
 489 0068 092A     		cmp	r2, #9
 490 006a 17D9     		bls	.L35
 491              		.loc 1 185 30 is_stmt 1 discriminator 1 view .LVU175
 492              	.LVL71:
 186:lvgl/src/misc/lv_math.c ****         if(tempdegree >= 15) comp++;  // max is 4 degrees compensated
 493              		.loc 1 186 9 discriminator 1 view .LVU176
 494              		.loc 1 186 11 is_stmt 0 discriminator 1 view .LVU177
 495 006c 0E2A     		cmp	r2, #14
 496 006e 17D8     		bhi	.L36
 185:lvgl/src/misc/lv_math.c ****         if(tempdegree >= 10) comp++;
 497              		.loc 1 185 34 view .LVU178
 498 0070 0320     		movs	r0, #3
 499 0072 02E0     		b	.L25
 500              	.LVL72:
 501              	.L32:
 177:lvgl/src/misc/lv_math.c ****         if(tempdegree <= 41) comp++;
 502              		.loc 1 177 34 view .LVU179
 503 0074 0120     		movs	r0, #1
 504 0076 00E0     		b	.L25
 505              	.LVL73:
 506              	.L33:
 174:lvgl/src/misc/lv_math.c ****     tempdegree = degree;    // use an unsigned char for speed!
 507              		.loc 1 174 10 view .LVU180
 508 0078 0020     		movs	r0, #0
 509              	.LVL74:
 510              	.L25:
 187:lvgl/src/misc/lv_math.c ****     }
 188:lvgl/src/misc/lv_math.c ****     degree += comp;   // degree is now accurate to +/- 1 degree!
 511              		.loc 1 188 5 is_stmt 1 view .LVU181
 512              		.loc 1 188 12 is_stmt 0 view .LVU182
 513 007a 0844     		add	r0, r0, r1
 514              	.LVL75:
 189:lvgl/src/misc/lv_math.c **** 
 190:lvgl/src/misc/lv_math.c ****     // Invert degree if it was X>Y octant, makes 0-45 into 90-45
 191:lvgl/src/misc/lv_math.c ****     if(negflag & 0x10) degree = (90 - degree);
 515              		.loc 1 191 5 is_stmt 1 view .LVU183
 516              		.loc 1 191 7 is_stmt 0 view .LVU184
 517 007c 13F0100F 		tst	r3, #16
 518 0080 01D0     		beq	.L26
 519              		.loc 1 191 24 is_stmt 1 discriminator 1 view .LVU185
 520              		.loc 1 191 31 is_stmt 0 discriminator 1 view .LVU186
 521 0082 C0F15A00 		rsb	r0, r0, #90
 522              	.LVL76:
 523              	.L26:
 192:lvgl/src/misc/lv_math.c **** 
ARM GAS  /var/folders/21/t9g5rlb91ys800n5npymflf80000gn/T//cc3sO29B.s 			page 14


 193:lvgl/src/misc/lv_math.c ****     // 3. Degree is now 0-90 range for this quadrant,
 194:lvgl/src/misc/lv_math.c ****     // need to invert it for whichever quadrant it was in
 195:lvgl/src/misc/lv_math.c ****     if(negflag & 0x02) { // if -Y
 524              		.loc 1 195 5 is_stmt 1 view .LVU187
 525              		.loc 1 195 7 is_stmt 0 view .LVU188
 526 0086 13F0020F 		tst	r3, #2
 527 008a 0ED0     		beq	.L27
 196:lvgl/src/misc/lv_math.c ****         if(negflag & 0x01)   // if -Y -X
 528              		.loc 1 196 9 is_stmt 1 view .LVU189
 529              		.loc 1 196 11 is_stmt 0 view .LVU190
 530 008c 13F0010F 		tst	r3, #1
 531 0090 08D0     		beq	.L28
 197:lvgl/src/misc/lv_math.c ****             degree = (180 + degree);
 532              		.loc 1 197 13 is_stmt 1 view .LVU191
 533              		.loc 1 197 20 is_stmt 0 view .LVU192
 534 0092 B430     		adds	r0, r0, #180
 535              	.LVL77:
 536              	.L29:
 198:lvgl/src/misc/lv_math.c ****         else        // else is -Y +X
 199:lvgl/src/misc/lv_math.c ****             degree = (180 - degree);
 200:lvgl/src/misc/lv_math.c ****     }
 201:lvgl/src/misc/lv_math.c ****     else {   // else is +Y
 202:lvgl/src/misc/lv_math.c ****         if(negflag & 0x01)   // if +Y -X
 203:lvgl/src/misc/lv_math.c ****             degree = (360 - degree);
 204:lvgl/src/misc/lv_math.c ****     }
 205:lvgl/src/misc/lv_math.c ****     return degree;
 537              		.loc 1 205 5 is_stmt 1 view .LVU193
 206:lvgl/src/misc/lv_math.c **** }
 538              		.loc 1 206 1 is_stmt 0 view .LVU194
 539 0094 80B2     		uxth	r0, r0
 540              	.LVL78:
 541              		.loc 1 206 1 view .LVU195
 542 0096 7047     		bx	lr
 543              	.LVL79:
 544              	.L34:
 183:lvgl/src/misc/lv_math.c ****         if(tempdegree >= 6) comp++;
 545              		.loc 1 183 33 view .LVU196
 546 0098 0120     		movs	r0, #1
 547 009a EEE7     		b	.L25
 548              	.LVL80:
 549              	.L35:
 184:lvgl/src/misc/lv_math.c ****         if(tempdegree >= 10) comp++;
 550              		.loc 1 184 33 view .LVU197
 551 009c 0220     		movs	r0, #2
 552 009e ECE7     		b	.L25
 553              	.LVL81:
 554              	.L36:
 186:lvgl/src/misc/lv_math.c ****     }
 555              		.loc 1 186 34 view .LVU198
 556 00a0 0420     		movs	r0, #4
 557 00a2 EAE7     		b	.L25
 558              	.LVL82:
 559              	.L28:
 199:lvgl/src/misc/lv_math.c ****     }
 560              		.loc 1 199 13 is_stmt 1 view .LVU199
 199:lvgl/src/misc/lv_math.c ****     }
 561              		.loc 1 199 20 is_stmt 0 view .LVU200
ARM GAS  /var/folders/21/t9g5rlb91ys800n5npymflf80000gn/T//cc3sO29B.s 			page 15


 562 00a4 C0F1B400 		rsb	r0, r0, #180
 563              	.LVL83:
 199:lvgl/src/misc/lv_math.c ****     }
 564              		.loc 1 199 20 view .LVU201
 565 00a8 F4E7     		b	.L29
 566              	.L27:
 202:lvgl/src/misc/lv_math.c ****             degree = (360 - degree);
 567              		.loc 1 202 9 is_stmt 1 view .LVU202
 202:lvgl/src/misc/lv_math.c ****             degree = (360 - degree);
 568              		.loc 1 202 11 is_stmt 0 view .LVU203
 569 00aa 13F0010F 		tst	r3, #1
 570 00ae F1D0     		beq	.L29
 203:lvgl/src/misc/lv_math.c ****     }
 571              		.loc 1 203 13 is_stmt 1 view .LVU204
 203:lvgl/src/misc/lv_math.c ****     }
 572              		.loc 1 203 20 is_stmt 0 view .LVU205
 573 00b0 C0F5B470 		rsb	r0, r0, #360
 574              	.LVL84:
 203:lvgl/src/misc/lv_math.c ****     }
 575              		.loc 1 203 20 view .LVU206
 576 00b4 EEE7     		b	.L29
 577              		.cfi_endproc
 578              	.LFE4:
 580              		.section	.text.lv_pow,"ax",%progbits
 581              		.align	1
 582              		.global	lv_pow
 583              		.syntax unified
 584              		.thumb
 585              		.thumb_func
 587              	lv_pow:
 588              	.LVL85:
 589              	.LFB5:
 207:lvgl/src/misc/lv_math.c **** 
 208:lvgl/src/misc/lv_math.c **** /**
 209:lvgl/src/misc/lv_math.c ****  * Calculate the integer exponents.
 210:lvgl/src/misc/lv_math.c ****  * @param base
 211:lvgl/src/misc/lv_math.c ****  * @param power
 212:lvgl/src/misc/lv_math.c ****  * @return base raised to the power exponent
 213:lvgl/src/misc/lv_math.c ****  */
 214:lvgl/src/misc/lv_math.c **** int64_t lv_pow(int64_t base, int8_t exp)
 215:lvgl/src/misc/lv_math.c **** {
 590              		.loc 1 215 1 is_stmt 1 view -0
 591              		.cfi_startproc
 592              		@ args = 0, pretend = 0, frame = 0
 593              		@ frame_needed = 0, uses_anonymous_args = 0
 594              		.loc 1 215 1 is_stmt 0 view .LVU208
 595 0000 0346     		mov	r3, r0
 596 0002 8C46     		mov	ip, r1
 216:lvgl/src/misc/lv_math.c ****     int64_t result = 1;
 597              		.loc 1 216 5 is_stmt 1 view .LVU209
 598              	.LVL86:
 217:lvgl/src/misc/lv_math.c ****     while(exp) {
 599              		.loc 1 217 5 view .LVU210
 216:lvgl/src/misc/lv_math.c ****     int64_t result = 1;
 600              		.loc 1 216 13 is_stmt 0 view .LVU211
 601 0004 0120     		movs	r0, #1
 602              	.LVL87:
ARM GAS  /var/folders/21/t9g5rlb91ys800n5npymflf80000gn/T//cc3sO29B.s 			page 16


 216:lvgl/src/misc/lv_math.c ****     int64_t result = 1;
 603              		.loc 1 216 13 view .LVU212
 604 0006 0021     		movs	r1, #0
 605              	.LVL88:
 606              		.loc 1 217 11 is_stmt 1 view .LVU213
 607 0008 B2B1     		cbz	r2, .L47
 215:lvgl/src/misc/lv_math.c ****     int64_t result = 1;
 608              		.loc 1 215 1 is_stmt 0 view .LVU214
 609 000a 00B5     		push	{lr}
 610              	.LCFI2:
 611              		.cfi_def_cfa_offset 4
 612              		.cfi_offset 14, -4
 613 000c 07E0     		b	.L42
 614              	.LVL89:
 615              	.L41:
 218:lvgl/src/misc/lv_math.c ****         if(exp & 1)
 219:lvgl/src/misc/lv_math.c ****             result *= base;
 220:lvgl/src/misc/lv_math.c ****         exp >>= 1;
 616              		.loc 1 220 9 is_stmt 1 view .LVU215
 617              		.loc 1 220 13 is_stmt 0 view .LVU216
 618 000e 5210     		asrs	r2, r2, #1
 619              	.LVL90:
 221:lvgl/src/misc/lv_math.c ****         base *= base;
 620              		.loc 1 221 9 is_stmt 1 view .LVU217
 621              		.loc 1 221 14 is_stmt 0 view .LVU218
 622 0010 03FB0CFE 		mul	lr, r3, ip
 623 0014 A3FB033C 		umull	r3, ip, r3, r3
 624 0018 0CEB4E0C 		add	ip, ip, lr, lsl #1
 625              	.LVL91:
 217:lvgl/src/misc/lv_math.c ****         if(exp & 1)
 626              		.loc 1 217 11 is_stmt 1 view .LVU219
 627 001c 52B1     		cbz	r2, .L48
 628              	.LVL92:
 629              	.L42:
 218:lvgl/src/misc/lv_math.c ****         if(exp & 1)
 630              		.loc 1 218 9 view .LVU220
 218:lvgl/src/misc/lv_math.c ****         if(exp & 1)
 631              		.loc 1 218 11 is_stmt 0 view .LVU221
 632 001e 12F0010F 		tst	r2, #1
 633 0022 F4D0     		beq	.L41
 219:lvgl/src/misc/lv_math.c ****         exp >>= 1;
 634              		.loc 1 219 13 is_stmt 1 view .LVU222
 219:lvgl/src/misc/lv_math.c ****         exp >>= 1;
 635              		.loc 1 219 20 is_stmt 0 view .LVU223
 636 0024 00FB0CFE 		mul	lr, r0, ip
 637 0028 03FB01EE 		mla	lr, r3, r1, lr
 638 002c A0FB0301 		umull	r0, r1, r0, r3
 639 0030 7144     		add	r1, r1, lr
 640              	.LVL93:
 219:lvgl/src/misc/lv_math.c ****         exp >>= 1;
 641              		.loc 1 219 20 view .LVU224
 642 0032 ECE7     		b	.L41
 643              	.LVL94:
 644              	.L48:
 222:lvgl/src/misc/lv_math.c ****     }
 223:lvgl/src/misc/lv_math.c **** 
 224:lvgl/src/misc/lv_math.c ****     return result;
ARM GAS  /var/folders/21/t9g5rlb91ys800n5npymflf80000gn/T//cc3sO29B.s 			page 17


 645              		.loc 1 224 5 is_stmt 1 view .LVU225
 225:lvgl/src/misc/lv_math.c **** }
 646              		.loc 1 225 1 is_stmt 0 view .LVU226
 647 0034 5DF804FB 		ldr	pc, [sp], #4
 648              	.L47:
 649              	.LCFI3:
 650              		.cfi_def_cfa_offset 0
 651              		.cfi_restore 14
 652              		.loc 1 225 1 view .LVU227
 653 0038 7047     		bx	lr
 654              		.cfi_endproc
 655              	.LFE5:
 657              		.section	.text.lv_map,"ax",%progbits
 658              		.align	1
 659              		.global	lv_map
 660              		.syntax unified
 661              		.thumb
 662              		.thumb_func
 664              	lv_map:
 665              	.LVL95:
 666              	.LFB6:
 226:lvgl/src/misc/lv_math.c **** 
 227:lvgl/src/misc/lv_math.c **** /**
 228:lvgl/src/misc/lv_math.c ****  * Get the mapped of a number given an input and output range
 229:lvgl/src/misc/lv_math.c ****  * @param x integer which mapped value should be calculated
 230:lvgl/src/misc/lv_math.c ****  * @param min_in min input range
 231:lvgl/src/misc/lv_math.c ****  * @param max_in max input range
 232:lvgl/src/misc/lv_math.c ****  * @param min_out max output range
 233:lvgl/src/misc/lv_math.c ****  * @param max_out max output range
 234:lvgl/src/misc/lv_math.c ****  * @return the mapped number
 235:lvgl/src/misc/lv_math.c ****  */
 236:lvgl/src/misc/lv_math.c **** int32_t lv_map(int32_t x, int32_t min_in, int32_t max_in, int32_t min_out, int32_t max_out)
 237:lvgl/src/misc/lv_math.c **** {
 667              		.loc 1 237 1 is_stmt 1 view -0
 668              		.cfi_startproc
 669              		@ args = 4, pretend = 0, frame = 0
 670              		@ frame_needed = 0, uses_anonymous_args = 0
 671              		@ link register save eliminated.
 672              		.loc 1 237 1 is_stmt 0 view .LVU229
 673 0000 10B4     		push	{r4}
 674              	.LCFI4:
 675              		.cfi_def_cfa_offset 4
 676              		.cfi_offset 4, -4
 238:lvgl/src/misc/lv_math.c ****     if(max_in >= min_in && x >= max_in) return max_out;
 677              		.loc 1 238 5 is_stmt 1 view .LVU230
 678              		.loc 1 238 7 is_stmt 0 view .LVU231
 679 0002 8A42     		cmp	r2, r1
 680 0004 01DB     		blt	.L50
 681              		.loc 1 238 25 discriminator 1 view .LVU232
 682 0006 8242     		cmp	r2, r0
 683 0008 18DD     		ble	.L55
 684              	.L50:
 239:lvgl/src/misc/lv_math.c ****     if(max_in >= min_in && x <= min_in) return min_out;
 685              		.loc 1 239 5 is_stmt 1 view .LVU233
 686              		.loc 1 239 7 is_stmt 0 view .LVU234
 687 000a 8A42     		cmp	r2, r1
 688 000c 01DB     		blt	.L52
ARM GAS  /var/folders/21/t9g5rlb91ys800n5npymflf80000gn/T//cc3sO29B.s 			page 18


 689              		.loc 1 239 25 discriminator 1 view .LVU235
 690 000e 8142     		cmp	r1, r0
 691 0010 16DA     		bge	.L56
 692              	.L52:
 240:lvgl/src/misc/lv_math.c **** 
 241:lvgl/src/misc/lv_math.c ****     if(max_in <= min_in && x <= max_in) return max_out;
 693              		.loc 1 241 5 is_stmt 1 view .LVU236
 694              		.loc 1 241 7 is_stmt 0 view .LVU237
 695 0012 8A42     		cmp	r2, r1
 696 0014 01DC     		bgt	.L53
 697              		.loc 1 241 25 discriminator 1 view .LVU238
 698 0016 8242     		cmp	r2, r0
 699 0018 14DA     		bge	.L57
 700              	.L53:
 242:lvgl/src/misc/lv_math.c ****     if(max_in <= min_in && x >= min_in) return min_out;
 701              		.loc 1 242 5 is_stmt 1 view .LVU239
 702              		.loc 1 242 7 is_stmt 0 view .LVU240
 703 001a 8A42     		cmp	r2, r1
 704 001c 01DC     		bgt	.L54
 705              		.loc 1 242 25 discriminator 1 view .LVU241
 706 001e 8142     		cmp	r1, r0
 707 0020 12DD     		ble	.L58
 708              	.L54:
 243:lvgl/src/misc/lv_math.c **** 
 244:lvgl/src/misc/lv_math.c ****     /**
 245:lvgl/src/misc/lv_math.c ****      * The equation should be:
 246:lvgl/src/misc/lv_math.c ****      *   ((x - min_in) * delta_out) / delta in) + min_out
 247:lvgl/src/misc/lv_math.c ****      * To avoid rounding error reorder the operations:
 248:lvgl/src/misc/lv_math.c ****      *   (x - min_in) * (delta_out / delta_min) + min_out
 249:lvgl/src/misc/lv_math.c ****      */
 250:lvgl/src/misc/lv_math.c **** 
 251:lvgl/src/misc/lv_math.c ****     int32_t delta_in = max_in - min_in;
 709              		.loc 1 251 5 is_stmt 1 view .LVU242
 710              		.loc 1 251 13 is_stmt 0 view .LVU243
 711 0022 521A     		subs	r2, r2, r1
 712              	.LVL96:
 252:lvgl/src/misc/lv_math.c ****     int32_t delta_out = max_out - min_out;
 713              		.loc 1 252 5 is_stmt 1 view .LVU244
 714              		.loc 1 252 13 is_stmt 0 view .LVU245
 715 0024 019C     		ldr	r4, [sp, #4]
 716 0026 A4EB030C 		sub	ip, r4, r3
 717              	.LVL97:
 253:lvgl/src/misc/lv_math.c **** 
 254:lvgl/src/misc/lv_math.c ****     return ((x - min_in) * delta_out) / delta_in + min_out;
 718              		.loc 1 254 5 is_stmt 1 view .LVU246
 719              		.loc 1 254 16 is_stmt 0 view .LVU247
 720 002a 411A     		subs	r1, r0, r1
 721              	.LVL98:
 722              		.loc 1 254 26 view .LVU248
 723 002c 0CFB01F1 		mul	r1, ip, r1
 724              		.loc 1 254 39 view .LVU249
 725 0030 91FBF2F2 		sdiv	r2, r1, r2
 726              	.LVL99:
 727              		.loc 1 254 50 view .LVU250
 728 0034 D018     		adds	r0, r2, r3
 729              	.LVL100:
 730              	.L49:
ARM GAS  /var/folders/21/t9g5rlb91ys800n5npymflf80000gn/T//cc3sO29B.s 			page 19


 255:lvgl/src/misc/lv_math.c **** }
 731              		.loc 1 255 1 view .LVU251
 732 0036 5DF8044B 		ldr	r4, [sp], #4
 733              	.LCFI5:
 734              		.cfi_remember_state
 735              		.cfi_restore 4
 736              		.cfi_def_cfa_offset 0
 737              	.LVL101:
 738              		.loc 1 255 1 view .LVU252
 739 003a 7047     		bx	lr
 740              	.LVL102:
 741              	.L55:
 742              	.LCFI6:
 743              		.cfi_restore_state
 238:lvgl/src/misc/lv_math.c ****     if(max_in >= min_in && x <= min_in) return min_out;
 744              		.loc 1 238 48 view .LVU253
 745 003c 0198     		ldr	r0, [sp, #4]
 746              	.LVL103:
 238:lvgl/src/misc/lv_math.c ****     if(max_in >= min_in && x <= min_in) return min_out;
 747              		.loc 1 238 48 view .LVU254
 748 003e FAE7     		b	.L49
 749              	.LVL104:
 750              	.L56:
 239:lvgl/src/misc/lv_math.c **** 
 751              		.loc 1 239 48 view .LVU255
 752 0040 1846     		mov	r0, r3
 753              	.LVL105:
 239:lvgl/src/misc/lv_math.c **** 
 754              		.loc 1 239 48 view .LVU256
 755 0042 F8E7     		b	.L49
 756              	.LVL106:
 757              	.L57:
 241:lvgl/src/misc/lv_math.c ****     if(max_in <= min_in && x >= min_in) return min_out;
 758              		.loc 1 241 48 view .LVU257
 759 0044 0198     		ldr	r0, [sp, #4]
 760              	.LVL107:
 241:lvgl/src/misc/lv_math.c ****     if(max_in <= min_in && x >= min_in) return min_out;
 761              		.loc 1 241 48 view .LVU258
 762 0046 F6E7     		b	.L49
 763              	.LVL108:
 764              	.L58:
 242:lvgl/src/misc/lv_math.c **** 
 765              		.loc 1 242 48 view .LVU259
 766 0048 1846     		mov	r0, r3
 767              	.LVL109:
 242:lvgl/src/misc/lv_math.c **** 
 768              		.loc 1 242 48 view .LVU260
 769 004a F4E7     		b	.L49
 770              		.cfi_endproc
 771              	.LFE6:
 773              		.section	.text.lv_rand,"ax",%progbits
 774              		.align	1
 775              		.global	lv_rand
 776              		.syntax unified
 777              		.thumb
 778              		.thumb_func
 780              	lv_rand:
ARM GAS  /var/folders/21/t9g5rlb91ys800n5npymflf80000gn/T//cc3sO29B.s 			page 20


 781              	.LVL110:
 782              	.LFB7:
 256:lvgl/src/misc/lv_math.c **** 
 257:lvgl/src/misc/lv_math.c **** uint32_t lv_rand(uint32_t min, uint32_t max)
 258:lvgl/src/misc/lv_math.c **** {
 783              		.loc 1 258 1 is_stmt 1 view -0
 784              		.cfi_startproc
 785              		@ args = 0, pretend = 0, frame = 0
 786              		@ frame_needed = 0, uses_anonymous_args = 0
 787              		@ link register save eliminated.
 259:lvgl/src/misc/lv_math.c ****     static uint32_t a = 0x1234ABCD; /*Seed*/
 788              		.loc 1 259 5 view .LVU262
 260:lvgl/src/misc/lv_math.c **** 
 261:lvgl/src/misc/lv_math.c ****     /*Algorithm "xor" from p. 4 of Marsaglia, "Xorshift RNGs"*/
 262:lvgl/src/misc/lv_math.c ****     uint32_t x = a;
 789              		.loc 1 262 5 view .LVU263
 790              		.loc 1 262 14 is_stmt 0 view .LVU264
 791 0000 084A     		ldr	r2, .L61
 792 0002 1368     		ldr	r3, [r2]
 793              	.LVL111:
 263:lvgl/src/misc/lv_math.c ****     x ^= x << 13;
 794              		.loc 1 263 5 is_stmt 1 view .LVU265
 795              		.loc 1 263 7 is_stmt 0 view .LVU266
 796 0004 83EA4333 		eor	r3, r3, r3, lsl #13
 797              	.LVL112:
 264:lvgl/src/misc/lv_math.c ****     x ^= x >> 17;
 798              		.loc 1 264 5 is_stmt 1 view .LVU267
 799              		.loc 1 264 7 is_stmt 0 view .LVU268
 800 0008 83EA5343 		eor	r3, r3, r3, lsr #17
 801              	.LVL113:
 265:lvgl/src/misc/lv_math.c ****     x ^= x << 5;
 802              		.loc 1 265 5 is_stmt 1 view .LVU269
 803              		.loc 1 265 7 is_stmt 0 view .LVU270
 804 000c 83EA4313 		eor	r3, r3, r3, lsl #5
 805              	.LVL114:
 266:lvgl/src/misc/lv_math.c ****     a = x;
 806              		.loc 1 266 5 is_stmt 1 view .LVU271
 807              		.loc 1 266 7 is_stmt 0 view .LVU272
 808 0010 1360     		str	r3, [r2]
 267:lvgl/src/misc/lv_math.c **** 
 268:lvgl/src/misc/lv_math.c ****     return (a % (max - min + 1)) + min;
 809              		.loc 1 268 5 is_stmt 1 view .LVU273
 810              		.loc 1 268 22 is_stmt 0 view .LVU274
 811 0012 091A     		subs	r1, r1, r0
 812              	.LVL115:
 813              		.loc 1 268 28 view .LVU275
 814 0014 0131     		adds	r1, r1, #1
 815              		.loc 1 268 15 view .LVU276
 816 0016 B3FBF1F2 		udiv	r2, r3, r1
 817 001a 01FB1233 		mls	r3, r1, r2, r3
 818              	.LVL116:
 269:lvgl/src/misc/lv_math.c **** }
 819              		.loc 1 269 1 view .LVU277
 820 001e 1844     		add	r0, r0, r3
 821              	.LVL117:
 822              		.loc 1 269 1 view .LVU278
 823 0020 7047     		bx	lr
ARM GAS  /var/folders/21/t9g5rlb91ys800n5npymflf80000gn/T//cc3sO29B.s 			page 21


 824              	.L62:
 825 0022 00BF     		.align	2
 826              	.L61:
 827 0024 00000000 		.word	a.0
 828              		.cfi_endproc
 829              	.LFE7:
 831              		.section	.data.a.0,"aw"
 832              		.align	2
 835              	a.0:
 836 0000 CDAB3412 		.word	305441741
 837              		.section	.rodata.sin0_90_table,"a"
 838              		.align	2
 841              	sin0_90_table:
 842 0000 0000     		.short	0
 843 0002 3C02     		.short	572
 844 0004 7804     		.short	1144
 845 0006 B306     		.short	1715
 846 0008 EE08     		.short	2286
 847 000a 280B     		.short	2856
 848 000c 610D     		.short	3425
 849 000e 990F     		.short	3993
 850 0010 D011     		.short	4560
 851 0012 0614     		.short	5126
 852 0014 3A16     		.short	5690
 853 0016 6C18     		.short	6252
 854 0018 9D1A     		.short	6813
 855 001a CB1C     		.short	7371
 856 001c F71E     		.short	7927
 857 001e 2121     		.short	8481
 858 0020 4823     		.short	9032
 859 0022 6C25     		.short	9580
 860 0024 8E27     		.short	10126
 861 0026 AC29     		.short	10668
 862 0028 C72B     		.short	11207
 863 002a DF2D     		.short	11743
 864 002c F32F     		.short	12275
 865 002e 0332     		.short	12803
 866 0030 1034     		.short	13328
 867 0032 1836     		.short	13848
 868 0034 1C38     		.short	14364
 869 0036 1C3A     		.short	14876
 870 0038 173C     		.short	15383
 871 003a 0E3E     		.short	15886
 872 003c FF3F     		.short	16383
 873 003e EC41     		.short	16876
 874 0040 D443     		.short	17364
 875 0042 B645     		.short	17846
 876 0044 9347     		.short	18323
 877 0046 6A49     		.short	18794
 878 0048 3C4B     		.short	19260
 879 004a 084D     		.short	19720
 880 004c CD4E     		.short	20173
 881 004e 8D50     		.short	20621
 882 0050 4652     		.short	21062
 883 0052 F953     		.short	21497
 884 0054 A555     		.short	21925
 885 0056 4B57     		.short	22347
ARM GAS  /var/folders/21/t9g5rlb91ys800n5npymflf80000gn/T//cc3sO29B.s 			page 22


 886 0058 EA58     		.short	22762
 887 005a 825A     		.short	23170
 888 005c 135C     		.short	23571
 889 005e 9C5D     		.short	23964
 890 0060 1F5F     		.short	24351
 891 0062 9A60     		.short	24730
 892 0064 0D62     		.short	25101
 893 0066 7963     		.short	25465
 894 0068 DD64     		.short	25821
 895 006a 3966     		.short	26169
 896 006c 8D67     		.short	26509
 897 006e D968     		.short	26841
 898 0070 1D6A     		.short	27165
 899 0072 596B     		.short	27481
 900 0074 8C6C     		.short	27788
 901 0076 B76D     		.short	28087
 902 0078 D96E     		.short	28377
 903 007a F36F     		.short	28659
 904 007c 0471     		.short	28932
 905 007e 0C72     		.short	29196
 906 0080 0B73     		.short	29451
 907 0082 0174     		.short	29697
 908 0084 EE74     		.short	29934
 909 0086 D275     		.short	30162
 910 0088 AD76     		.short	30381
 911 008a 7F77     		.short	30591
 912 008c 4778     		.short	30791
 913 008e 0679     		.short	30982
 914 0090 BB79     		.short	31163
 915 0092 677A     		.short	31335
 916 0094 0A7B     		.short	31498
 917 0096 A27B     		.short	31650
 918 0098 327C     		.short	31794
 919 009a B77C     		.short	31927
 920 009c 337D     		.short	32051
 921 009e A57D     		.short	32165
 922 00a0 0D7E     		.short	32269
 923 00a2 6C7E     		.short	32364
 924 00a4 C07E     		.short	32448
 925 00a6 0B7F     		.short	32523
 926 00a8 4B7F     		.short	32587
 927 00aa 827F     		.short	32642
 928 00ac AF7F     		.short	32687
 929 00ae D27F     		.short	32722
 930 00b0 EB7F     		.short	32747
 931 00b2 FA7F     		.short	32762
 932 00b4 FF7F     		.short	32767
 933              		.text
 934              	.Letext0:
 935              		.file 2 "/usr/local/include/sys/_types/_int8_t.h"
 936              		.file 3 "/usr/local/include/sys/_types/_int16_t.h"
 937              		.file 4 "/usr/local/include/sys/_types/_int32_t.h"
 938              		.file 5 "/usr/local/include/sys/_types/_int64_t.h"
 939              		.file 6 "/usr/local/include/_types/_uint16_t.h"
 940              		.file 7 "/usr/local/include/_types/_uint32_t.h"
 941              		.file 8 "lvgl/src/misc/lv_math.h"
ARM GAS  /var/folders/21/t9g5rlb91ys800n5npymflf80000gn/T//cc3sO29B.s 			page 23

