ARM GAS  /var/folders/21/t9g5rlb91ys800n5npymflf80000gn/T//ccb01ulG.s 			page 1


   1              		.cpu cortex-m4
   2              		.arch armv7e-m
   3              		.fpu fpv4-sp-d16
   4              		.eabi_attribute 27, 1
   5              		.eabi_attribute 28, 1
   6              		.eabi_attribute 20, 1
   7              		.eabi_attribute 21, 1
   8              		.eabi_attribute 23, 3
   9              		.eabi_attribute 24, 1
  10              		.eabi_attribute 25, 1
  11              		.eabi_attribute 26, 1
  12              		.eabi_attribute 30, 1
  13              		.eabi_attribute 34, 1
  14              		.eabi_attribute 18, 4
  15              		.file	"lv_meter.c"
  16              		.text
  17              	.Ltext0:
  18              		.cfi_sections	.debug_frame
  19              		.file 1 "lvgl/src/extra/widgets/meter/lv_meter.c"
  20              		.section	.text.lv_color_mix,"ax",%progbits
  21              		.align	1
  22              		.syntax unified
  23              		.thumb
  24              		.thumb_func
  26              	lv_color_mix:
  27              	.LVL0:
  28              	.LFB34:
  29              		.file 2 "lvgl/src/extra/widgets/meter/../../../../src/hal/../draw/../misc/lv_color.h"
   1:lvgl/src/extra/widgets/meter/../../../../src/hal/../draw/../misc/lv_color.h **** /**
   2:lvgl/src/extra/widgets/meter/../../../../src/hal/../draw/../misc/lv_color.h ****  * @file lv_color.h
   3:lvgl/src/extra/widgets/meter/../../../../src/hal/../draw/../misc/lv_color.h ****  *
   4:lvgl/src/extra/widgets/meter/../../../../src/hal/../draw/../misc/lv_color.h ****  */
   5:lvgl/src/extra/widgets/meter/../../../../src/hal/../draw/../misc/lv_color.h **** 
   6:lvgl/src/extra/widgets/meter/../../../../src/hal/../draw/../misc/lv_color.h **** #ifndef LV_COLOR_H
   7:lvgl/src/extra/widgets/meter/../../../../src/hal/../draw/../misc/lv_color.h **** #define LV_COLOR_H
   8:lvgl/src/extra/widgets/meter/../../../../src/hal/../draw/../misc/lv_color.h **** 
   9:lvgl/src/extra/widgets/meter/../../../../src/hal/../draw/../misc/lv_color.h **** #ifdef __cplusplus
  10:lvgl/src/extra/widgets/meter/../../../../src/hal/../draw/../misc/lv_color.h **** extern "C" {
  11:lvgl/src/extra/widgets/meter/../../../../src/hal/../draw/../misc/lv_color.h **** #endif
  12:lvgl/src/extra/widgets/meter/../../../../src/hal/../draw/../misc/lv_color.h **** 
  13:lvgl/src/extra/widgets/meter/../../../../src/hal/../draw/../misc/lv_color.h **** /*********************
  14:lvgl/src/extra/widgets/meter/../../../../src/hal/../draw/../misc/lv_color.h ****  *      INCLUDES
  15:lvgl/src/extra/widgets/meter/../../../../src/hal/../draw/../misc/lv_color.h ****  *********************/
  16:lvgl/src/extra/widgets/meter/../../../../src/hal/../draw/../misc/lv_color.h **** #include "../lv_conf_internal.h"
  17:lvgl/src/extra/widgets/meter/../../../../src/hal/../draw/../misc/lv_color.h **** #include "lv_assert.h"
  18:lvgl/src/extra/widgets/meter/../../../../src/hal/../draw/../misc/lv_color.h **** #include "lv_math.h"
  19:lvgl/src/extra/widgets/meter/../../../../src/hal/../draw/../misc/lv_color.h **** #include "lv_types.h"
  20:lvgl/src/extra/widgets/meter/../../../../src/hal/../draw/../misc/lv_color.h **** 
  21:lvgl/src/extra/widgets/meter/../../../../src/hal/../draw/../misc/lv_color.h **** /*Error checking*/
  22:lvgl/src/extra/widgets/meter/../../../../src/hal/../draw/../misc/lv_color.h **** #if LV_COLOR_DEPTH == 24
  23:lvgl/src/extra/widgets/meter/../../../../src/hal/../draw/../misc/lv_color.h **** #error "LV_COLOR_DEPTH 24 is deprecated. Use LV_COLOR_DEPTH 32 instead (lv_conf.h)"
  24:lvgl/src/extra/widgets/meter/../../../../src/hal/../draw/../misc/lv_color.h **** #endif
  25:lvgl/src/extra/widgets/meter/../../../../src/hal/../draw/../misc/lv_color.h **** 
  26:lvgl/src/extra/widgets/meter/../../../../src/hal/../draw/../misc/lv_color.h **** #if LV_COLOR_DEPTH != 16 && LV_COLOR_16_SWAP != 0
  27:lvgl/src/extra/widgets/meter/../../../../src/hal/../draw/../misc/lv_color.h **** #error "LV_COLOR_16_SWAP requires LV_COLOR_DEPTH == 16. Set it in lv_conf.h"
  28:lvgl/src/extra/widgets/meter/../../../../src/hal/../draw/../misc/lv_color.h **** #endif
  29:lvgl/src/extra/widgets/meter/../../../../src/hal/../draw/../misc/lv_color.h **** 
ARM GAS  /var/folders/21/t9g5rlb91ys800n5npymflf80000gn/T//ccb01ulG.s 			page 2


  30:lvgl/src/extra/widgets/meter/../../../../src/hal/../draw/../misc/lv_color.h **** #include <stdint.h>
  31:lvgl/src/extra/widgets/meter/../../../../src/hal/../draw/../misc/lv_color.h **** 
  32:lvgl/src/extra/widgets/meter/../../../../src/hal/../draw/../misc/lv_color.h **** /*********************
  33:lvgl/src/extra/widgets/meter/../../../../src/hal/../draw/../misc/lv_color.h ****  *      DEFINES
  34:lvgl/src/extra/widgets/meter/../../../../src/hal/../draw/../misc/lv_color.h ****  *********************/
  35:lvgl/src/extra/widgets/meter/../../../../src/hal/../draw/../misc/lv_color.h **** LV_EXPORT_CONST_INT(LV_COLOR_DEPTH);
  36:lvgl/src/extra/widgets/meter/../../../../src/hal/../draw/../misc/lv_color.h **** LV_EXPORT_CONST_INT(LV_COLOR_16_SWAP);
  37:lvgl/src/extra/widgets/meter/../../../../src/hal/../draw/../misc/lv_color.h **** 
  38:lvgl/src/extra/widgets/meter/../../../../src/hal/../draw/../misc/lv_color.h **** /**
  39:lvgl/src/extra/widgets/meter/../../../../src/hal/../draw/../misc/lv_color.h ****  * Opacity percentages.
  40:lvgl/src/extra/widgets/meter/../../../../src/hal/../draw/../misc/lv_color.h ****  */
  41:lvgl/src/extra/widgets/meter/../../../../src/hal/../draw/../misc/lv_color.h **** enum {
  42:lvgl/src/extra/widgets/meter/../../../../src/hal/../draw/../misc/lv_color.h ****     LV_OPA_TRANSP = 0,
  43:lvgl/src/extra/widgets/meter/../../../../src/hal/../draw/../misc/lv_color.h ****     LV_OPA_0      = 0,
  44:lvgl/src/extra/widgets/meter/../../../../src/hal/../draw/../misc/lv_color.h ****     LV_OPA_10     = 25,
  45:lvgl/src/extra/widgets/meter/../../../../src/hal/../draw/../misc/lv_color.h ****     LV_OPA_20     = 51,
  46:lvgl/src/extra/widgets/meter/../../../../src/hal/../draw/../misc/lv_color.h ****     LV_OPA_30     = 76,
  47:lvgl/src/extra/widgets/meter/../../../../src/hal/../draw/../misc/lv_color.h ****     LV_OPA_40     = 102,
  48:lvgl/src/extra/widgets/meter/../../../../src/hal/../draw/../misc/lv_color.h ****     LV_OPA_50     = 127,
  49:lvgl/src/extra/widgets/meter/../../../../src/hal/../draw/../misc/lv_color.h ****     LV_OPA_60     = 153,
  50:lvgl/src/extra/widgets/meter/../../../../src/hal/../draw/../misc/lv_color.h ****     LV_OPA_70     = 178,
  51:lvgl/src/extra/widgets/meter/../../../../src/hal/../draw/../misc/lv_color.h ****     LV_OPA_80     = 204,
  52:lvgl/src/extra/widgets/meter/../../../../src/hal/../draw/../misc/lv_color.h ****     LV_OPA_90     = 229,
  53:lvgl/src/extra/widgets/meter/../../../../src/hal/../draw/../misc/lv_color.h ****     LV_OPA_100    = 255,
  54:lvgl/src/extra/widgets/meter/../../../../src/hal/../draw/../misc/lv_color.h ****     LV_OPA_COVER  = 255,
  55:lvgl/src/extra/widgets/meter/../../../../src/hal/../draw/../misc/lv_color.h **** };
  56:lvgl/src/extra/widgets/meter/../../../../src/hal/../draw/../misc/lv_color.h **** 
  57:lvgl/src/extra/widgets/meter/../../../../src/hal/../draw/../misc/lv_color.h **** #define LV_OPA_MIN 2    /*Opacities below this will be transparent*/
  58:lvgl/src/extra/widgets/meter/../../../../src/hal/../draw/../misc/lv_color.h **** #define LV_OPA_MAX 253  /*Opacities above this will fully cover*/
  59:lvgl/src/extra/widgets/meter/../../../../src/hal/../draw/../misc/lv_color.h **** 
  60:lvgl/src/extra/widgets/meter/../../../../src/hal/../draw/../misc/lv_color.h **** #if LV_COLOR_DEPTH == 1
  61:lvgl/src/extra/widgets/meter/../../../../src/hal/../draw/../misc/lv_color.h **** #define LV_COLOR_SIZE 8
  62:lvgl/src/extra/widgets/meter/../../../../src/hal/../draw/../misc/lv_color.h **** #elif LV_COLOR_DEPTH == 8
  63:lvgl/src/extra/widgets/meter/../../../../src/hal/../draw/../misc/lv_color.h **** #define LV_COLOR_SIZE 8
  64:lvgl/src/extra/widgets/meter/../../../../src/hal/../draw/../misc/lv_color.h **** #elif LV_COLOR_DEPTH == 16
  65:lvgl/src/extra/widgets/meter/../../../../src/hal/../draw/../misc/lv_color.h **** #define LV_COLOR_SIZE 16
  66:lvgl/src/extra/widgets/meter/../../../../src/hal/../draw/../misc/lv_color.h **** #elif LV_COLOR_DEPTH == 32
  67:lvgl/src/extra/widgets/meter/../../../../src/hal/../draw/../misc/lv_color.h **** #define LV_COLOR_SIZE 32
  68:lvgl/src/extra/widgets/meter/../../../../src/hal/../draw/../misc/lv_color.h **** #else
  69:lvgl/src/extra/widgets/meter/../../../../src/hal/../draw/../misc/lv_color.h **** #error "Invalid LV_COLOR_DEPTH in lv_conf.h! Set it to 1, 8, 16 or 32!"
  70:lvgl/src/extra/widgets/meter/../../../../src/hal/../draw/../misc/lv_color.h **** #endif
  71:lvgl/src/extra/widgets/meter/../../../../src/hal/../draw/../misc/lv_color.h **** 
  72:lvgl/src/extra/widgets/meter/../../../../src/hal/../draw/../misc/lv_color.h **** #if defined(__cplusplus) && !defined(_LV_COLOR_HAS_MODERN_CPP)
  73:lvgl/src/extra/widgets/meter/../../../../src/hal/../draw/../misc/lv_color.h **** /**
  74:lvgl/src/extra/widgets/meter/../../../../src/hal/../draw/../misc/lv_color.h **** * MSVC compiler's definition of the __cplusplus indicating 199711L regardless to C++ standard versi
  75:lvgl/src/extra/widgets/meter/../../../../src/hal/../draw/../misc/lv_color.h **** * see https://devblogs.microsoft.com/cppblog/msvc-now-correctly-reports-cplusplus
  76:lvgl/src/extra/widgets/meter/../../../../src/hal/../draw/../misc/lv_color.h **** * so we use _MSC_VER macro instead of __cplusplus
  77:lvgl/src/extra/widgets/meter/../../../../src/hal/../draw/../misc/lv_color.h **** */
  78:lvgl/src/extra/widgets/meter/../../../../src/hal/../draw/../misc/lv_color.h **** #ifdef _MSC_VER
  79:lvgl/src/extra/widgets/meter/../../../../src/hal/../draw/../misc/lv_color.h **** #if _MSC_VER >= 1900 /*Visual Studio 2015*/
  80:lvgl/src/extra/widgets/meter/../../../../src/hal/../draw/../misc/lv_color.h **** #define _LV_COLOR_HAS_MODERN_CPP 1
  81:lvgl/src/extra/widgets/meter/../../../../src/hal/../draw/../misc/lv_color.h **** #endif
  82:lvgl/src/extra/widgets/meter/../../../../src/hal/../draw/../misc/lv_color.h **** #else
  83:lvgl/src/extra/widgets/meter/../../../../src/hal/../draw/../misc/lv_color.h **** #if __cplusplus >= 201103L
  84:lvgl/src/extra/widgets/meter/../../../../src/hal/../draw/../misc/lv_color.h **** #define _LV_COLOR_HAS_MODERN_CPP 1
  85:lvgl/src/extra/widgets/meter/../../../../src/hal/../draw/../misc/lv_color.h **** #endif
  86:lvgl/src/extra/widgets/meter/../../../../src/hal/../draw/../misc/lv_color.h **** #endif
ARM GAS  /var/folders/21/t9g5rlb91ys800n5npymflf80000gn/T//ccb01ulG.s 			page 3


  87:lvgl/src/extra/widgets/meter/../../../../src/hal/../draw/../misc/lv_color.h **** #endif /*__cplusplus*/
  88:lvgl/src/extra/widgets/meter/../../../../src/hal/../draw/../misc/lv_color.h **** 
  89:lvgl/src/extra/widgets/meter/../../../../src/hal/../draw/../misc/lv_color.h **** #ifndef _LV_COLOR_HAS_MODERN_CPP
  90:lvgl/src/extra/widgets/meter/../../../../src/hal/../draw/../misc/lv_color.h **** #define _LV_COLOR_HAS_MODERN_CPP 0
  91:lvgl/src/extra/widgets/meter/../../../../src/hal/../draw/../misc/lv_color.h **** #endif
  92:lvgl/src/extra/widgets/meter/../../../../src/hal/../draw/../misc/lv_color.h **** 
  93:lvgl/src/extra/widgets/meter/../../../../src/hal/../draw/../misc/lv_color.h **** #if _LV_COLOR_HAS_MODERN_CPP
  94:lvgl/src/extra/widgets/meter/../../../../src/hal/../draw/../misc/lv_color.h **** /*Fix msvc compiler error C4576 inside C++ code*/
  95:lvgl/src/extra/widgets/meter/../../../../src/hal/../draw/../misc/lv_color.h **** #define _LV_COLOR_MAKE_TYPE_HELPER lv_color_t
  96:lvgl/src/extra/widgets/meter/../../../../src/hal/../draw/../misc/lv_color.h **** #else
  97:lvgl/src/extra/widgets/meter/../../../../src/hal/../draw/../misc/lv_color.h **** #define _LV_COLOR_MAKE_TYPE_HELPER (lv_color_t)
  98:lvgl/src/extra/widgets/meter/../../../../src/hal/../draw/../misc/lv_color.h **** #endif
  99:lvgl/src/extra/widgets/meter/../../../../src/hal/../draw/../misc/lv_color.h **** 
 100:lvgl/src/extra/widgets/meter/../../../../src/hal/../draw/../misc/lv_color.h **** /*---------------------------------------
 101:lvgl/src/extra/widgets/meter/../../../../src/hal/../draw/../misc/lv_color.h ****  * Macros for all existing color depths
 102:lvgl/src/extra/widgets/meter/../../../../src/hal/../draw/../misc/lv_color.h ****  * to set/get values of the color channels
 103:lvgl/src/extra/widgets/meter/../../../../src/hal/../draw/../misc/lv_color.h ****  *------------------------------------------*/
 104:lvgl/src/extra/widgets/meter/../../../../src/hal/../draw/../misc/lv_color.h **** # define LV_COLOR_SET_R1(c, v) (c).ch.red = (uint8_t)((v) & 0x1)
 105:lvgl/src/extra/widgets/meter/../../../../src/hal/../draw/../misc/lv_color.h **** # define LV_COLOR_SET_G1(c, v) (c).ch.green = (uint8_t)((v) & 0x1)
 106:lvgl/src/extra/widgets/meter/../../../../src/hal/../draw/../misc/lv_color.h **** # define LV_COLOR_SET_B1(c, v) (c).ch.blue = (uint8_t)((v) & 0x1)
 107:lvgl/src/extra/widgets/meter/../../../../src/hal/../draw/../misc/lv_color.h **** # define LV_COLOR_SET_A1(c, v) do {} while(0)
 108:lvgl/src/extra/widgets/meter/../../../../src/hal/../draw/../misc/lv_color.h **** 
 109:lvgl/src/extra/widgets/meter/../../../../src/hal/../draw/../misc/lv_color.h **** # define LV_COLOR_GET_R1(c) (c).ch.red
 110:lvgl/src/extra/widgets/meter/../../../../src/hal/../draw/../misc/lv_color.h **** # define LV_COLOR_GET_G1(c) (c).ch.green
 111:lvgl/src/extra/widgets/meter/../../../../src/hal/../draw/../misc/lv_color.h **** # define LV_COLOR_GET_B1(c) (c).ch.blue
 112:lvgl/src/extra/widgets/meter/../../../../src/hal/../draw/../misc/lv_color.h **** # define LV_COLOR_GET_A1(c) 0xFF
 113:lvgl/src/extra/widgets/meter/../../../../src/hal/../draw/../misc/lv_color.h **** 
 114:lvgl/src/extra/widgets/meter/../../../../src/hal/../draw/../misc/lv_color.h **** # define _LV_COLOR_ZERO_INITIALIZER1 {0x00}
 115:lvgl/src/extra/widgets/meter/../../../../src/hal/../draw/../misc/lv_color.h **** # define LV_COLOR_MAKE1(r8, g8, b8)  {(uint8_t)((b8 >> 7) | (g8 >> 7) | (r8 >> 7))}
 116:lvgl/src/extra/widgets/meter/../../../../src/hal/../draw/../misc/lv_color.h **** 
 117:lvgl/src/extra/widgets/meter/../../../../src/hal/../draw/../misc/lv_color.h **** # define LV_COLOR_SET_R8(c, v) (c).ch.red = (uint8_t)((v) & 0x7U)
 118:lvgl/src/extra/widgets/meter/../../../../src/hal/../draw/../misc/lv_color.h **** # define LV_COLOR_SET_G8(c, v) (c).ch.green = (uint8_t)((v) & 0x7U)
 119:lvgl/src/extra/widgets/meter/../../../../src/hal/../draw/../misc/lv_color.h **** # define LV_COLOR_SET_B8(c, v) (c).ch.blue = (uint8_t)((v) & 0x3U)
 120:lvgl/src/extra/widgets/meter/../../../../src/hal/../draw/../misc/lv_color.h **** # define LV_COLOR_SET_A8(c, v) do {} while(0)
 121:lvgl/src/extra/widgets/meter/../../../../src/hal/../draw/../misc/lv_color.h **** 
 122:lvgl/src/extra/widgets/meter/../../../../src/hal/../draw/../misc/lv_color.h **** # define LV_COLOR_GET_R8(c) (c).ch.red
 123:lvgl/src/extra/widgets/meter/../../../../src/hal/../draw/../misc/lv_color.h **** # define LV_COLOR_GET_G8(c) (c).ch.green
 124:lvgl/src/extra/widgets/meter/../../../../src/hal/../draw/../misc/lv_color.h **** # define LV_COLOR_GET_B8(c) (c).ch.blue
 125:lvgl/src/extra/widgets/meter/../../../../src/hal/../draw/../misc/lv_color.h **** # define LV_COLOR_GET_A8(c) 0xFF
 126:lvgl/src/extra/widgets/meter/../../../../src/hal/../draw/../misc/lv_color.h **** 
 127:lvgl/src/extra/widgets/meter/../../../../src/hal/../draw/../misc/lv_color.h **** # define _LV_COLOR_ZERO_INITIALIZER8 {{0x00, 0x00, 0x00}}
 128:lvgl/src/extra/widgets/meter/../../../../src/hal/../draw/../misc/lv_color.h **** # define LV_COLOR_MAKE8(r8, g8, b8) {{(uint8_t)((b8 >> 6) & 0x3U), (uint8_t)((g8 >> 5) & 0x7U), (ui
 129:lvgl/src/extra/widgets/meter/../../../../src/hal/../draw/../misc/lv_color.h **** 
 130:lvgl/src/extra/widgets/meter/../../../../src/hal/../draw/../misc/lv_color.h **** # define LV_COLOR_SET_R16(c, v) (c).ch.red = (uint8_t)((v) & 0x1FU)
 131:lvgl/src/extra/widgets/meter/../../../../src/hal/../draw/../misc/lv_color.h **** #if LV_COLOR_16_SWAP == 0
 132:lvgl/src/extra/widgets/meter/../../../../src/hal/../draw/../misc/lv_color.h **** # define LV_COLOR_SET_G16(c, v) (c).ch.green = (uint8_t)((v) & 0x3FU)
 133:lvgl/src/extra/widgets/meter/../../../../src/hal/../draw/../misc/lv_color.h **** #else
 134:lvgl/src/extra/widgets/meter/../../../../src/hal/../draw/../misc/lv_color.h **** # define LV_COLOR_SET_G16(c, v) {(c).ch.green_h = (uint8_t)(((v) >> 3) & 0x7); (c).ch.green_l = (ui
 135:lvgl/src/extra/widgets/meter/../../../../src/hal/../draw/../misc/lv_color.h **** #endif
 136:lvgl/src/extra/widgets/meter/../../../../src/hal/../draw/../misc/lv_color.h **** # define LV_COLOR_SET_B16(c, v) (c).ch.blue = (uint8_t)((v) & 0x1FU)
 137:lvgl/src/extra/widgets/meter/../../../../src/hal/../draw/../misc/lv_color.h **** # define LV_COLOR_SET_A16(c, v) do {} while(0)
 138:lvgl/src/extra/widgets/meter/../../../../src/hal/../draw/../misc/lv_color.h **** 
 139:lvgl/src/extra/widgets/meter/../../../../src/hal/../draw/../misc/lv_color.h **** # define LV_COLOR_GET_R16(c) (c).ch.red
 140:lvgl/src/extra/widgets/meter/../../../../src/hal/../draw/../misc/lv_color.h **** #if LV_COLOR_16_SWAP == 0
 141:lvgl/src/extra/widgets/meter/../../../../src/hal/../draw/../misc/lv_color.h **** # define LV_COLOR_GET_G16(c) (c).ch.green
 142:lvgl/src/extra/widgets/meter/../../../../src/hal/../draw/../misc/lv_color.h **** #else
 143:lvgl/src/extra/widgets/meter/../../../../src/hal/../draw/../misc/lv_color.h **** # define LV_COLOR_GET_G16(c) (((c).ch.green_h << 3) + (c).ch.green_l)
ARM GAS  /var/folders/21/t9g5rlb91ys800n5npymflf80000gn/T//ccb01ulG.s 			page 4


 144:lvgl/src/extra/widgets/meter/../../../../src/hal/../draw/../misc/lv_color.h **** #endif
 145:lvgl/src/extra/widgets/meter/../../../../src/hal/../draw/../misc/lv_color.h **** # define LV_COLOR_GET_B16(c) (c).ch.blue
 146:lvgl/src/extra/widgets/meter/../../../../src/hal/../draw/../misc/lv_color.h **** # define LV_COLOR_GET_A16(c) 0xFF
 147:lvgl/src/extra/widgets/meter/../../../../src/hal/../draw/../misc/lv_color.h **** 
 148:lvgl/src/extra/widgets/meter/../../../../src/hal/../draw/../misc/lv_color.h **** #if LV_COLOR_16_SWAP == 0
 149:lvgl/src/extra/widgets/meter/../../../../src/hal/../draw/../misc/lv_color.h **** # define _LV_COLOR_ZERO_INITIALIZER16  {{0x00, 0x00, 0x00}}
 150:lvgl/src/extra/widgets/meter/../../../../src/hal/../draw/../misc/lv_color.h **** # define LV_COLOR_MAKE16(r8, g8, b8) {{(uint8_t)((b8 >> 3) & 0x1FU), (uint8_t)((g8 >> 2) & 0x3FU), 
 151:lvgl/src/extra/widgets/meter/../../../../src/hal/../draw/../misc/lv_color.h **** #else
 152:lvgl/src/extra/widgets/meter/../../../../src/hal/../draw/../misc/lv_color.h **** # define _LV_COLOR_ZERO_INITIALIZER16 {{0x00, 0x00, 0x00, 0x00}}
 153:lvgl/src/extra/widgets/meter/../../../../src/hal/../draw/../misc/lv_color.h **** # define LV_COLOR_MAKE16(r8, g8, b8) {{(uint8_t)((g8 >> 5) & 0x7U), (uint8_t)((r8 >> 3) & 0x1FU), (
 154:lvgl/src/extra/widgets/meter/../../../../src/hal/../draw/../misc/lv_color.h **** #endif
 155:lvgl/src/extra/widgets/meter/../../../../src/hal/../draw/../misc/lv_color.h **** 
 156:lvgl/src/extra/widgets/meter/../../../../src/hal/../draw/../misc/lv_color.h **** # define LV_COLOR_SET_R32(c, v) (c).ch.red = (uint8_t)((v) & 0xFF)
 157:lvgl/src/extra/widgets/meter/../../../../src/hal/../draw/../misc/lv_color.h **** # define LV_COLOR_SET_G32(c, v) (c).ch.green = (uint8_t)((v) & 0xFF)
 158:lvgl/src/extra/widgets/meter/../../../../src/hal/../draw/../misc/lv_color.h **** # define LV_COLOR_SET_B32(c, v) (c).ch.blue = (uint8_t)((v) & 0xFF)
 159:lvgl/src/extra/widgets/meter/../../../../src/hal/../draw/../misc/lv_color.h **** # define LV_COLOR_SET_A32(c, v) (c).ch.alpha = (uint8_t)((v) & 0xFF)
 160:lvgl/src/extra/widgets/meter/../../../../src/hal/../draw/../misc/lv_color.h **** 
 161:lvgl/src/extra/widgets/meter/../../../../src/hal/../draw/../misc/lv_color.h **** # define LV_COLOR_GET_R32(c) (c).ch.red
 162:lvgl/src/extra/widgets/meter/../../../../src/hal/../draw/../misc/lv_color.h **** # define LV_COLOR_GET_G32(c) (c).ch.green
 163:lvgl/src/extra/widgets/meter/../../../../src/hal/../draw/../misc/lv_color.h **** # define LV_COLOR_GET_B32(c) (c).ch.blue
 164:lvgl/src/extra/widgets/meter/../../../../src/hal/../draw/../misc/lv_color.h **** # define LV_COLOR_GET_A32(c) (c).ch.alpha
 165:lvgl/src/extra/widgets/meter/../../../../src/hal/../draw/../misc/lv_color.h **** 
 166:lvgl/src/extra/widgets/meter/../../../../src/hal/../draw/../misc/lv_color.h **** # define _LV_COLOR_ZERO_INITIALIZER32  {{0x00, 0x00, 0x00, 0x00}}
 167:lvgl/src/extra/widgets/meter/../../../../src/hal/../draw/../misc/lv_color.h **** # define LV_COLOR_MAKE32(r8, g8, b8) {{b8, g8, r8, 0xff}} /*Fix 0xff alpha*/
 168:lvgl/src/extra/widgets/meter/../../../../src/hal/../draw/../misc/lv_color.h **** 
 169:lvgl/src/extra/widgets/meter/../../../../src/hal/../draw/../misc/lv_color.h **** /*---------------------------------------
 170:lvgl/src/extra/widgets/meter/../../../../src/hal/../draw/../misc/lv_color.h ****  * Macros for the current color depth
 171:lvgl/src/extra/widgets/meter/../../../../src/hal/../draw/../misc/lv_color.h ****  * to set/get values of the color channels
 172:lvgl/src/extra/widgets/meter/../../../../src/hal/../draw/../misc/lv_color.h ****  *------------------------------------------*/
 173:lvgl/src/extra/widgets/meter/../../../../src/hal/../draw/../misc/lv_color.h **** #define LV_COLOR_SET_R(c, v) LV_CONCAT(LV_COLOR_SET_R, LV_COLOR_DEPTH)(c, v)
 174:lvgl/src/extra/widgets/meter/../../../../src/hal/../draw/../misc/lv_color.h **** #define LV_COLOR_SET_G(c, v) LV_CONCAT(LV_COLOR_SET_G, LV_COLOR_DEPTH)(c, v)
 175:lvgl/src/extra/widgets/meter/../../../../src/hal/../draw/../misc/lv_color.h **** #define LV_COLOR_SET_B(c, v) LV_CONCAT(LV_COLOR_SET_B, LV_COLOR_DEPTH)(c, v)
 176:lvgl/src/extra/widgets/meter/../../../../src/hal/../draw/../misc/lv_color.h **** #define LV_COLOR_SET_A(c, v) LV_CONCAT(LV_COLOR_SET_A, LV_COLOR_DEPTH)(c, v)
 177:lvgl/src/extra/widgets/meter/../../../../src/hal/../draw/../misc/lv_color.h **** 
 178:lvgl/src/extra/widgets/meter/../../../../src/hal/../draw/../misc/lv_color.h **** #define LV_COLOR_GET_R(c) LV_CONCAT(LV_COLOR_GET_R, LV_COLOR_DEPTH)(c)
 179:lvgl/src/extra/widgets/meter/../../../../src/hal/../draw/../misc/lv_color.h **** #define LV_COLOR_GET_G(c) LV_CONCAT(LV_COLOR_GET_G, LV_COLOR_DEPTH)(c)
 180:lvgl/src/extra/widgets/meter/../../../../src/hal/../draw/../misc/lv_color.h **** #define LV_COLOR_GET_B(c) LV_CONCAT(LV_COLOR_GET_B, LV_COLOR_DEPTH)(c)
 181:lvgl/src/extra/widgets/meter/../../../../src/hal/../draw/../misc/lv_color.h **** #define LV_COLOR_GET_A(c) LV_CONCAT(LV_COLOR_GET_A, LV_COLOR_DEPTH)(c)
 182:lvgl/src/extra/widgets/meter/../../../../src/hal/../draw/../misc/lv_color.h **** 
 183:lvgl/src/extra/widgets/meter/../../../../src/hal/../draw/../misc/lv_color.h **** #define _LV_COLOR_ZERO_INITIALIZER LV_CONCAT(_LV_COLOR_ZERO_INITIALIZER, LV_COLOR_DEPTH)
 184:lvgl/src/extra/widgets/meter/../../../../src/hal/../draw/../misc/lv_color.h **** #define LV_COLOR_MAKE(r8, g8, b8) LV_CONCAT(LV_COLOR_MAKE, LV_COLOR_DEPTH)(r8, g8, b8)
 185:lvgl/src/extra/widgets/meter/../../../../src/hal/../draw/../misc/lv_color.h **** 
 186:lvgl/src/extra/widgets/meter/../../../../src/hal/../draw/../misc/lv_color.h **** /**********************
 187:lvgl/src/extra/widgets/meter/../../../../src/hal/../draw/../misc/lv_color.h ****  *      TYPEDEFS
 188:lvgl/src/extra/widgets/meter/../../../../src/hal/../draw/../misc/lv_color.h ****  **********************/
 189:lvgl/src/extra/widgets/meter/../../../../src/hal/../draw/../misc/lv_color.h **** 
 190:lvgl/src/extra/widgets/meter/../../../../src/hal/../draw/../misc/lv_color.h **** typedef union {
 191:lvgl/src/extra/widgets/meter/../../../../src/hal/../draw/../misc/lv_color.h ****     uint8_t full; /*must be declared first to set all bits of byte via initializer list*/
 192:lvgl/src/extra/widgets/meter/../../../../src/hal/../draw/../misc/lv_color.h ****     union {
 193:lvgl/src/extra/widgets/meter/../../../../src/hal/../draw/../misc/lv_color.h ****         uint8_t blue : 1;
 194:lvgl/src/extra/widgets/meter/../../../../src/hal/../draw/../misc/lv_color.h ****         uint8_t green : 1;
 195:lvgl/src/extra/widgets/meter/../../../../src/hal/../draw/../misc/lv_color.h ****         uint8_t red : 1;
 196:lvgl/src/extra/widgets/meter/../../../../src/hal/../draw/../misc/lv_color.h ****     } ch;
 197:lvgl/src/extra/widgets/meter/../../../../src/hal/../draw/../misc/lv_color.h **** } lv_color1_t;
 198:lvgl/src/extra/widgets/meter/../../../../src/hal/../draw/../misc/lv_color.h **** 
 199:lvgl/src/extra/widgets/meter/../../../../src/hal/../draw/../misc/lv_color.h **** typedef union {
 200:lvgl/src/extra/widgets/meter/../../../../src/hal/../draw/../misc/lv_color.h ****     struct {
ARM GAS  /var/folders/21/t9g5rlb91ys800n5npymflf80000gn/T//ccb01ulG.s 			page 5


 201:lvgl/src/extra/widgets/meter/../../../../src/hal/../draw/../misc/lv_color.h ****         uint8_t blue : 2;
 202:lvgl/src/extra/widgets/meter/../../../../src/hal/../draw/../misc/lv_color.h ****         uint8_t green : 3;
 203:lvgl/src/extra/widgets/meter/../../../../src/hal/../draw/../misc/lv_color.h ****         uint8_t red : 3;
 204:lvgl/src/extra/widgets/meter/../../../../src/hal/../draw/../misc/lv_color.h ****     } ch;
 205:lvgl/src/extra/widgets/meter/../../../../src/hal/../draw/../misc/lv_color.h ****     uint8_t full;
 206:lvgl/src/extra/widgets/meter/../../../../src/hal/../draw/../misc/lv_color.h **** } lv_color8_t;
 207:lvgl/src/extra/widgets/meter/../../../../src/hal/../draw/../misc/lv_color.h **** 
 208:lvgl/src/extra/widgets/meter/../../../../src/hal/../draw/../misc/lv_color.h **** typedef union {
 209:lvgl/src/extra/widgets/meter/../../../../src/hal/../draw/../misc/lv_color.h ****     struct {
 210:lvgl/src/extra/widgets/meter/../../../../src/hal/../draw/../misc/lv_color.h **** #if LV_COLOR_16_SWAP == 0
 211:lvgl/src/extra/widgets/meter/../../../../src/hal/../draw/../misc/lv_color.h ****         uint16_t blue : 5;
 212:lvgl/src/extra/widgets/meter/../../../../src/hal/../draw/../misc/lv_color.h ****         uint16_t green : 6;
 213:lvgl/src/extra/widgets/meter/../../../../src/hal/../draw/../misc/lv_color.h ****         uint16_t red : 5;
 214:lvgl/src/extra/widgets/meter/../../../../src/hal/../draw/../misc/lv_color.h **** #else
 215:lvgl/src/extra/widgets/meter/../../../../src/hal/../draw/../misc/lv_color.h ****         uint16_t green_h : 3;
 216:lvgl/src/extra/widgets/meter/../../../../src/hal/../draw/../misc/lv_color.h ****         uint16_t red : 5;
 217:lvgl/src/extra/widgets/meter/../../../../src/hal/../draw/../misc/lv_color.h ****         uint16_t blue : 5;
 218:lvgl/src/extra/widgets/meter/../../../../src/hal/../draw/../misc/lv_color.h ****         uint16_t green_l : 3;
 219:lvgl/src/extra/widgets/meter/../../../../src/hal/../draw/../misc/lv_color.h **** #endif
 220:lvgl/src/extra/widgets/meter/../../../../src/hal/../draw/../misc/lv_color.h ****     } ch;
 221:lvgl/src/extra/widgets/meter/../../../../src/hal/../draw/../misc/lv_color.h ****     uint16_t full;
 222:lvgl/src/extra/widgets/meter/../../../../src/hal/../draw/../misc/lv_color.h **** } lv_color16_t;
 223:lvgl/src/extra/widgets/meter/../../../../src/hal/../draw/../misc/lv_color.h **** 
 224:lvgl/src/extra/widgets/meter/../../../../src/hal/../draw/../misc/lv_color.h **** typedef union {
 225:lvgl/src/extra/widgets/meter/../../../../src/hal/../draw/../misc/lv_color.h ****     struct {
 226:lvgl/src/extra/widgets/meter/../../../../src/hal/../draw/../misc/lv_color.h ****         uint8_t blue;
 227:lvgl/src/extra/widgets/meter/../../../../src/hal/../draw/../misc/lv_color.h ****         uint8_t green;
 228:lvgl/src/extra/widgets/meter/../../../../src/hal/../draw/../misc/lv_color.h ****         uint8_t red;
 229:lvgl/src/extra/widgets/meter/../../../../src/hal/../draw/../misc/lv_color.h ****         uint8_t alpha;
 230:lvgl/src/extra/widgets/meter/../../../../src/hal/../draw/../misc/lv_color.h ****     } ch;
 231:lvgl/src/extra/widgets/meter/../../../../src/hal/../draw/../misc/lv_color.h ****     uint32_t full;
 232:lvgl/src/extra/widgets/meter/../../../../src/hal/../draw/../misc/lv_color.h **** } lv_color32_t;
 233:lvgl/src/extra/widgets/meter/../../../../src/hal/../draw/../misc/lv_color.h **** 
 234:lvgl/src/extra/widgets/meter/../../../../src/hal/../draw/../misc/lv_color.h **** typedef LV_CONCAT3(uint, LV_COLOR_SIZE, _t) lv_color_int_t;
 235:lvgl/src/extra/widgets/meter/../../../../src/hal/../draw/../misc/lv_color.h **** typedef LV_CONCAT3(lv_color, LV_COLOR_DEPTH, _t) lv_color_t;
 236:lvgl/src/extra/widgets/meter/../../../../src/hal/../draw/../misc/lv_color.h **** 
 237:lvgl/src/extra/widgets/meter/../../../../src/hal/../draw/../misc/lv_color.h **** typedef struct {
 238:lvgl/src/extra/widgets/meter/../../../../src/hal/../draw/../misc/lv_color.h ****     uint16_t h;
 239:lvgl/src/extra/widgets/meter/../../../../src/hal/../draw/../misc/lv_color.h ****     uint8_t s;
 240:lvgl/src/extra/widgets/meter/../../../../src/hal/../draw/../misc/lv_color.h ****     uint8_t v;
 241:lvgl/src/extra/widgets/meter/../../../../src/hal/../draw/../misc/lv_color.h **** } lv_color_hsv_t;
 242:lvgl/src/extra/widgets/meter/../../../../src/hal/../draw/../misc/lv_color.h **** 
 243:lvgl/src/extra/widgets/meter/../../../../src/hal/../draw/../misc/lv_color.h **** //! @cond Doxygen_Suppress
 244:lvgl/src/extra/widgets/meter/../../../../src/hal/../draw/../misc/lv_color.h **** /*No idea where the guard is required but else throws warnings in the docs*/
 245:lvgl/src/extra/widgets/meter/../../../../src/hal/../draw/../misc/lv_color.h **** typedef uint8_t lv_opa_t;
 246:lvgl/src/extra/widgets/meter/../../../../src/hal/../draw/../misc/lv_color.h **** //! @endcond
 247:lvgl/src/extra/widgets/meter/../../../../src/hal/../draw/../misc/lv_color.h **** 
 248:lvgl/src/extra/widgets/meter/../../../../src/hal/../draw/../misc/lv_color.h **** struct _lv_color_filter_dsc_t;
 249:lvgl/src/extra/widgets/meter/../../../../src/hal/../draw/../misc/lv_color.h **** 
 250:lvgl/src/extra/widgets/meter/../../../../src/hal/../draw/../misc/lv_color.h **** typedef lv_color_t (*lv_color_filter_cb_t)(const struct _lv_color_filter_dsc_t *, lv_color_t, lv_op
 251:lvgl/src/extra/widgets/meter/../../../../src/hal/../draw/../misc/lv_color.h **** 
 252:lvgl/src/extra/widgets/meter/../../../../src/hal/../draw/../misc/lv_color.h **** typedef struct _lv_color_filter_dsc_t {
 253:lvgl/src/extra/widgets/meter/../../../../src/hal/../draw/../misc/lv_color.h ****     lv_color_filter_cb_t filter_cb;
 254:lvgl/src/extra/widgets/meter/../../../../src/hal/../draw/../misc/lv_color.h ****     void * user_data;
 255:lvgl/src/extra/widgets/meter/../../../../src/hal/../draw/../misc/lv_color.h **** } lv_color_filter_dsc_t;
 256:lvgl/src/extra/widgets/meter/../../../../src/hal/../draw/../misc/lv_color.h **** 
 257:lvgl/src/extra/widgets/meter/../../../../src/hal/../draw/../misc/lv_color.h **** typedef enum {
ARM GAS  /var/folders/21/t9g5rlb91ys800n5npymflf80000gn/T//ccb01ulG.s 			page 6


 258:lvgl/src/extra/widgets/meter/../../../../src/hal/../draw/../misc/lv_color.h ****     LV_PALETTE_RED,
 259:lvgl/src/extra/widgets/meter/../../../../src/hal/../draw/../misc/lv_color.h ****     LV_PALETTE_PINK,
 260:lvgl/src/extra/widgets/meter/../../../../src/hal/../draw/../misc/lv_color.h ****     LV_PALETTE_PURPLE,
 261:lvgl/src/extra/widgets/meter/../../../../src/hal/../draw/../misc/lv_color.h ****     LV_PALETTE_DEEP_PURPLE,
 262:lvgl/src/extra/widgets/meter/../../../../src/hal/../draw/../misc/lv_color.h ****     LV_PALETTE_INDIGO,
 263:lvgl/src/extra/widgets/meter/../../../../src/hal/../draw/../misc/lv_color.h ****     LV_PALETTE_BLUE,
 264:lvgl/src/extra/widgets/meter/../../../../src/hal/../draw/../misc/lv_color.h ****     LV_PALETTE_LIGHT_BLUE,
 265:lvgl/src/extra/widgets/meter/../../../../src/hal/../draw/../misc/lv_color.h ****     LV_PALETTE_CYAN,
 266:lvgl/src/extra/widgets/meter/../../../../src/hal/../draw/../misc/lv_color.h ****     LV_PALETTE_TEAL,
 267:lvgl/src/extra/widgets/meter/../../../../src/hal/../draw/../misc/lv_color.h ****     LV_PALETTE_GREEN,
 268:lvgl/src/extra/widgets/meter/../../../../src/hal/../draw/../misc/lv_color.h ****     LV_PALETTE_LIGHT_GREEN,
 269:lvgl/src/extra/widgets/meter/../../../../src/hal/../draw/../misc/lv_color.h ****     LV_PALETTE_LIME,
 270:lvgl/src/extra/widgets/meter/../../../../src/hal/../draw/../misc/lv_color.h ****     LV_PALETTE_YELLOW,
 271:lvgl/src/extra/widgets/meter/../../../../src/hal/../draw/../misc/lv_color.h ****     LV_PALETTE_AMBER,
 272:lvgl/src/extra/widgets/meter/../../../../src/hal/../draw/../misc/lv_color.h ****     LV_PALETTE_ORANGE,
 273:lvgl/src/extra/widgets/meter/../../../../src/hal/../draw/../misc/lv_color.h ****     LV_PALETTE_DEEP_ORANGE,
 274:lvgl/src/extra/widgets/meter/../../../../src/hal/../draw/../misc/lv_color.h ****     LV_PALETTE_BROWN,
 275:lvgl/src/extra/widgets/meter/../../../../src/hal/../draw/../misc/lv_color.h ****     LV_PALETTE_BLUE_GREY,
 276:lvgl/src/extra/widgets/meter/../../../../src/hal/../draw/../misc/lv_color.h ****     LV_PALETTE_GREY,
 277:lvgl/src/extra/widgets/meter/../../../../src/hal/../draw/../misc/lv_color.h ****     _LV_PALETTE_LAST,
 278:lvgl/src/extra/widgets/meter/../../../../src/hal/../draw/../misc/lv_color.h ****     LV_PALETTE_NONE = 0xff,
 279:lvgl/src/extra/widgets/meter/../../../../src/hal/../draw/../misc/lv_color.h **** } lv_palette_t;
 280:lvgl/src/extra/widgets/meter/../../../../src/hal/../draw/../misc/lv_color.h **** 
 281:lvgl/src/extra/widgets/meter/../../../../src/hal/../draw/../misc/lv_color.h **** /**********************
 282:lvgl/src/extra/widgets/meter/../../../../src/hal/../draw/../misc/lv_color.h ****  * GLOBAL PROTOTYPES
 283:lvgl/src/extra/widgets/meter/../../../../src/hal/../draw/../misc/lv_color.h ****  **********************/
 284:lvgl/src/extra/widgets/meter/../../../../src/hal/../draw/../misc/lv_color.h **** 
 285:lvgl/src/extra/widgets/meter/../../../../src/hal/../draw/../misc/lv_color.h **** /*In color conversations:
 286:lvgl/src/extra/widgets/meter/../../../../src/hal/../draw/../misc/lv_color.h ****  * - When converting to bigger color type the LSB weight of 1 LSB is calculated
 287:lvgl/src/extra/widgets/meter/../../../../src/hal/../draw/../misc/lv_color.h ****  *   E.g. 16 bit Red has 5 bits
 288:lvgl/src/extra/widgets/meter/../../../../src/hal/../draw/../misc/lv_color.h ****  *         8 bit Red has 3 bits
 289:lvgl/src/extra/widgets/meter/../../../../src/hal/../draw/../misc/lv_color.h ****  *        ----------------------
 290:lvgl/src/extra/widgets/meter/../../../../src/hal/../draw/../misc/lv_color.h ****  *        8 bit red LSB = (2^5 - 1) / (2^3 - 1) = 31 / 7 = 4
 291:lvgl/src/extra/widgets/meter/../../../../src/hal/../draw/../misc/lv_color.h ****  *
 292:lvgl/src/extra/widgets/meter/../../../../src/hal/../draw/../misc/lv_color.h ****  * - When calculating to smaller color type simply shift out the LSBs
 293:lvgl/src/extra/widgets/meter/../../../../src/hal/../draw/../misc/lv_color.h ****  *   E.g.  8 bit Red has 3 bits
 294:lvgl/src/extra/widgets/meter/../../../../src/hal/../draw/../misc/lv_color.h ****  *        16 bit Red has 5 bits
 295:lvgl/src/extra/widgets/meter/../../../../src/hal/../draw/../misc/lv_color.h ****  *        ----------------------
 296:lvgl/src/extra/widgets/meter/../../../../src/hal/../draw/../misc/lv_color.h ****  *         Shift right with 5 - 3 = 2
 297:lvgl/src/extra/widgets/meter/../../../../src/hal/../draw/../misc/lv_color.h ****  */
 298:lvgl/src/extra/widgets/meter/../../../../src/hal/../draw/../misc/lv_color.h **** static inline uint8_t lv_color_to1(lv_color_t color)
 299:lvgl/src/extra/widgets/meter/../../../../src/hal/../draw/../misc/lv_color.h **** {
 300:lvgl/src/extra/widgets/meter/../../../../src/hal/../draw/../misc/lv_color.h **** #if LV_COLOR_DEPTH == 1
 301:lvgl/src/extra/widgets/meter/../../../../src/hal/../draw/../misc/lv_color.h ****     return color.full;
 302:lvgl/src/extra/widgets/meter/../../../../src/hal/../draw/../misc/lv_color.h **** #elif LV_COLOR_DEPTH == 8
 303:lvgl/src/extra/widgets/meter/../../../../src/hal/../draw/../misc/lv_color.h ****     if((LV_COLOR_GET_R(color) & 0x4) || (LV_COLOR_GET_G(color) & 0x4) || (LV_COLOR_GET_B(color) & 0
 304:lvgl/src/extra/widgets/meter/../../../../src/hal/../draw/../misc/lv_color.h ****         return 1;
 305:lvgl/src/extra/widgets/meter/../../../../src/hal/../draw/../misc/lv_color.h ****     }
 306:lvgl/src/extra/widgets/meter/../../../../src/hal/../draw/../misc/lv_color.h ****     else {
 307:lvgl/src/extra/widgets/meter/../../../../src/hal/../draw/../misc/lv_color.h ****         return 0;
 308:lvgl/src/extra/widgets/meter/../../../../src/hal/../draw/../misc/lv_color.h ****     }
 309:lvgl/src/extra/widgets/meter/../../../../src/hal/../draw/../misc/lv_color.h **** #elif LV_COLOR_DEPTH == 16
 310:lvgl/src/extra/widgets/meter/../../../../src/hal/../draw/../misc/lv_color.h ****     if((LV_COLOR_GET_R(color) & 0x10) || (LV_COLOR_GET_G(color) & 0x20) || (LV_COLOR_GET_B(color) &
 311:lvgl/src/extra/widgets/meter/../../../../src/hal/../draw/../misc/lv_color.h ****         return 1;
 312:lvgl/src/extra/widgets/meter/../../../../src/hal/../draw/../misc/lv_color.h ****     }
 313:lvgl/src/extra/widgets/meter/../../../../src/hal/../draw/../misc/lv_color.h ****     else {
 314:lvgl/src/extra/widgets/meter/../../../../src/hal/../draw/../misc/lv_color.h ****         return 0;
ARM GAS  /var/folders/21/t9g5rlb91ys800n5npymflf80000gn/T//ccb01ulG.s 			page 7


 315:lvgl/src/extra/widgets/meter/../../../../src/hal/../draw/../misc/lv_color.h ****     }
 316:lvgl/src/extra/widgets/meter/../../../../src/hal/../draw/../misc/lv_color.h **** #elif LV_COLOR_DEPTH == 32
 317:lvgl/src/extra/widgets/meter/../../../../src/hal/../draw/../misc/lv_color.h ****     if((LV_COLOR_GET_R(color) & 0x80) || (LV_COLOR_GET_G(color) & 0x80) || (LV_COLOR_GET_B(color) &
 318:lvgl/src/extra/widgets/meter/../../../../src/hal/../draw/../misc/lv_color.h ****         return 1;
 319:lvgl/src/extra/widgets/meter/../../../../src/hal/../draw/../misc/lv_color.h ****     }
 320:lvgl/src/extra/widgets/meter/../../../../src/hal/../draw/../misc/lv_color.h ****     else {
 321:lvgl/src/extra/widgets/meter/../../../../src/hal/../draw/../misc/lv_color.h ****         return 0;
 322:lvgl/src/extra/widgets/meter/../../../../src/hal/../draw/../misc/lv_color.h ****     }
 323:lvgl/src/extra/widgets/meter/../../../../src/hal/../draw/../misc/lv_color.h **** #endif
 324:lvgl/src/extra/widgets/meter/../../../../src/hal/../draw/../misc/lv_color.h **** }
 325:lvgl/src/extra/widgets/meter/../../../../src/hal/../draw/../misc/lv_color.h **** 
 326:lvgl/src/extra/widgets/meter/../../../../src/hal/../draw/../misc/lv_color.h **** static inline uint8_t lv_color_to8(lv_color_t color)
 327:lvgl/src/extra/widgets/meter/../../../../src/hal/../draw/../misc/lv_color.h **** {
 328:lvgl/src/extra/widgets/meter/../../../../src/hal/../draw/../misc/lv_color.h **** #if LV_COLOR_DEPTH == 1
 329:lvgl/src/extra/widgets/meter/../../../../src/hal/../draw/../misc/lv_color.h ****     if(color.full == 0)
 330:lvgl/src/extra/widgets/meter/../../../../src/hal/../draw/../misc/lv_color.h ****         return 0;
 331:lvgl/src/extra/widgets/meter/../../../../src/hal/../draw/../misc/lv_color.h ****     else
 332:lvgl/src/extra/widgets/meter/../../../../src/hal/../draw/../misc/lv_color.h ****         return 0xFF;
 333:lvgl/src/extra/widgets/meter/../../../../src/hal/../draw/../misc/lv_color.h **** #elif LV_COLOR_DEPTH == 8
 334:lvgl/src/extra/widgets/meter/../../../../src/hal/../draw/../misc/lv_color.h ****     return color.full;
 335:lvgl/src/extra/widgets/meter/../../../../src/hal/../draw/../misc/lv_color.h **** #elif LV_COLOR_DEPTH == 16
 336:lvgl/src/extra/widgets/meter/../../../../src/hal/../draw/../misc/lv_color.h ****     lv_color8_t ret;
 337:lvgl/src/extra/widgets/meter/../../../../src/hal/../draw/../misc/lv_color.h ****     LV_COLOR_SET_R8(ret, LV_COLOR_GET_R(color) >> 2); /*5 - 3  = 2*/
 338:lvgl/src/extra/widgets/meter/../../../../src/hal/../draw/../misc/lv_color.h ****     LV_COLOR_SET_G8(ret, LV_COLOR_GET_G(color) >> 3); /*6 - 3  = 3*/
 339:lvgl/src/extra/widgets/meter/../../../../src/hal/../draw/../misc/lv_color.h ****     LV_COLOR_SET_B8(ret, LV_COLOR_GET_B(color) >> 3); /*5 - 2  = 3*/
 340:lvgl/src/extra/widgets/meter/../../../../src/hal/../draw/../misc/lv_color.h ****     return ret.full;
 341:lvgl/src/extra/widgets/meter/../../../../src/hal/../draw/../misc/lv_color.h **** #elif LV_COLOR_DEPTH == 32
 342:lvgl/src/extra/widgets/meter/../../../../src/hal/../draw/../misc/lv_color.h ****     lv_color8_t ret;
 343:lvgl/src/extra/widgets/meter/../../../../src/hal/../draw/../misc/lv_color.h ****     LV_COLOR_SET_R8(ret, LV_COLOR_GET_R(color) >> 5); /*8 - 3  = 5*/
 344:lvgl/src/extra/widgets/meter/../../../../src/hal/../draw/../misc/lv_color.h ****     LV_COLOR_SET_G8(ret, LV_COLOR_GET_G(color) >> 5); /*8 - 3  = 5*/
 345:lvgl/src/extra/widgets/meter/../../../../src/hal/../draw/../misc/lv_color.h ****     LV_COLOR_SET_B8(ret, LV_COLOR_GET_B(color) >> 6); /*8 - 2  = 6*/
 346:lvgl/src/extra/widgets/meter/../../../../src/hal/../draw/../misc/lv_color.h ****     return ret.full;
 347:lvgl/src/extra/widgets/meter/../../../../src/hal/../draw/../misc/lv_color.h **** #endif
 348:lvgl/src/extra/widgets/meter/../../../../src/hal/../draw/../misc/lv_color.h **** }
 349:lvgl/src/extra/widgets/meter/../../../../src/hal/../draw/../misc/lv_color.h **** 
 350:lvgl/src/extra/widgets/meter/../../../../src/hal/../draw/../misc/lv_color.h **** static inline uint16_t lv_color_to16(lv_color_t color)
 351:lvgl/src/extra/widgets/meter/../../../../src/hal/../draw/../misc/lv_color.h **** {
 352:lvgl/src/extra/widgets/meter/../../../../src/hal/../draw/../misc/lv_color.h **** #if LV_COLOR_DEPTH == 1
 353:lvgl/src/extra/widgets/meter/../../../../src/hal/../draw/../misc/lv_color.h ****     if(color.full == 0)
 354:lvgl/src/extra/widgets/meter/../../../../src/hal/../draw/../misc/lv_color.h ****         return 0;
 355:lvgl/src/extra/widgets/meter/../../../../src/hal/../draw/../misc/lv_color.h ****     else
 356:lvgl/src/extra/widgets/meter/../../../../src/hal/../draw/../misc/lv_color.h ****         return 0xFFFF;
 357:lvgl/src/extra/widgets/meter/../../../../src/hal/../draw/../misc/lv_color.h **** #elif LV_COLOR_DEPTH == 8
 358:lvgl/src/extra/widgets/meter/../../../../src/hal/../draw/../misc/lv_color.h ****     lv_color16_t ret;
 359:lvgl/src/extra/widgets/meter/../../../../src/hal/../draw/../misc/lv_color.h ****     LV_COLOR_SET_R16(ret, LV_COLOR_GET_R(color) * 4);  /*(2^5 - 1)/(2^3 - 1) = 31/7 = 4*/
 360:lvgl/src/extra/widgets/meter/../../../../src/hal/../draw/../misc/lv_color.h ****     LV_COLOR_SET_G16(ret, LV_COLOR_GET_G(color) * 9);  /*(2^6 - 1)/(2^3 - 1) = 63/7 = 9*/
 361:lvgl/src/extra/widgets/meter/../../../../src/hal/../draw/../misc/lv_color.h ****     LV_COLOR_SET_B16(ret, LV_COLOR_GET_B(color) * 10); /*(2^5 - 1)/(2^2 - 1) = 31/3 = 10*/
 362:lvgl/src/extra/widgets/meter/../../../../src/hal/../draw/../misc/lv_color.h ****     return ret.full;
 363:lvgl/src/extra/widgets/meter/../../../../src/hal/../draw/../misc/lv_color.h **** #elif LV_COLOR_DEPTH == 16
 364:lvgl/src/extra/widgets/meter/../../../../src/hal/../draw/../misc/lv_color.h ****     return color.full;
 365:lvgl/src/extra/widgets/meter/../../../../src/hal/../draw/../misc/lv_color.h **** #elif LV_COLOR_DEPTH == 32
 366:lvgl/src/extra/widgets/meter/../../../../src/hal/../draw/../misc/lv_color.h ****     lv_color16_t ret;
 367:lvgl/src/extra/widgets/meter/../../../../src/hal/../draw/../misc/lv_color.h ****     LV_COLOR_SET_R16(ret, LV_COLOR_GET_R(color) >> 3); /*8 - 5  = 3*/
 368:lvgl/src/extra/widgets/meter/../../../../src/hal/../draw/../misc/lv_color.h ****     LV_COLOR_SET_G16(ret, LV_COLOR_GET_G(color) >> 2); /*8 - 6  = 2*/
 369:lvgl/src/extra/widgets/meter/../../../../src/hal/../draw/../misc/lv_color.h ****     LV_COLOR_SET_B16(ret, LV_COLOR_GET_B(color) >> 3); /*8 - 5  = 3*/
 370:lvgl/src/extra/widgets/meter/../../../../src/hal/../draw/../misc/lv_color.h ****     return ret.full;
 371:lvgl/src/extra/widgets/meter/../../../../src/hal/../draw/../misc/lv_color.h **** #endif
ARM GAS  /var/folders/21/t9g5rlb91ys800n5npymflf80000gn/T//ccb01ulG.s 			page 8


 372:lvgl/src/extra/widgets/meter/../../../../src/hal/../draw/../misc/lv_color.h **** }
 373:lvgl/src/extra/widgets/meter/../../../../src/hal/../draw/../misc/lv_color.h **** 
 374:lvgl/src/extra/widgets/meter/../../../../src/hal/../draw/../misc/lv_color.h **** static inline uint32_t lv_color_to32(lv_color_t color)
 375:lvgl/src/extra/widgets/meter/../../../../src/hal/../draw/../misc/lv_color.h **** {
 376:lvgl/src/extra/widgets/meter/../../../../src/hal/../draw/../misc/lv_color.h **** #if LV_COLOR_DEPTH == 1
 377:lvgl/src/extra/widgets/meter/../../../../src/hal/../draw/../misc/lv_color.h ****     if(color.full == 0)
 378:lvgl/src/extra/widgets/meter/../../../../src/hal/../draw/../misc/lv_color.h ****         return 0xFF000000;
 379:lvgl/src/extra/widgets/meter/../../../../src/hal/../draw/../misc/lv_color.h ****     else
 380:lvgl/src/extra/widgets/meter/../../../../src/hal/../draw/../misc/lv_color.h ****         return 0xFFFFFFFF;
 381:lvgl/src/extra/widgets/meter/../../../../src/hal/../draw/../misc/lv_color.h **** #elif LV_COLOR_DEPTH == 8
 382:lvgl/src/extra/widgets/meter/../../../../src/hal/../draw/../misc/lv_color.h ****     lv_color32_t ret;
 383:lvgl/src/extra/widgets/meter/../../../../src/hal/../draw/../misc/lv_color.h ****     LV_COLOR_SET_R32(ret, LV_COLOR_GET_R(color) * 36); /*(2^8 - 1)/(2^3 - 1) = 255/7 = 36*/
 384:lvgl/src/extra/widgets/meter/../../../../src/hal/../draw/../misc/lv_color.h ****     LV_COLOR_SET_G32(ret, LV_COLOR_GET_G(color) * 36); /*(2^8 - 1)/(2^3 - 1) = 255/7 = 36*/
 385:lvgl/src/extra/widgets/meter/../../../../src/hal/../draw/../misc/lv_color.h ****     LV_COLOR_SET_B32(ret, LV_COLOR_GET_B(color) * 85); /*(2^8 - 1)/(2^2 - 1) = 255/3 = 85*/
 386:lvgl/src/extra/widgets/meter/../../../../src/hal/../draw/../misc/lv_color.h ****     LV_COLOR_SET_A32(ret, 0xFF);
 387:lvgl/src/extra/widgets/meter/../../../../src/hal/../draw/../misc/lv_color.h ****     return ret.full;
 388:lvgl/src/extra/widgets/meter/../../../../src/hal/../draw/../misc/lv_color.h **** #elif LV_COLOR_DEPTH == 16
 389:lvgl/src/extra/widgets/meter/../../../../src/hal/../draw/../misc/lv_color.h ****     /**
 390:lvgl/src/extra/widgets/meter/../../../../src/hal/../draw/../misc/lv_color.h ****      * The floating point math for conversion is:
 391:lvgl/src/extra/widgets/meter/../../../../src/hal/../draw/../misc/lv_color.h ****      *  valueto = valuefrom * ( (2^bitsto - 1) / (float)(2^bitsfrom - 1) )
 392:lvgl/src/extra/widgets/meter/../../../../src/hal/../draw/../misc/lv_color.h ****      * The faster integer math for conversion is:
 393:lvgl/src/extra/widgets/meter/../../../../src/hal/../draw/../misc/lv_color.h ****      *  valueto = ( valuefrom * multiplier + adder ) >> divisor
 394:lvgl/src/extra/widgets/meter/../../../../src/hal/../draw/../misc/lv_color.h ****      *   multiplier = FLOOR( ( (2^bitsto - 1) << divisor ) / (float)(2^bitsfrom - 1) )
 395:lvgl/src/extra/widgets/meter/../../../../src/hal/../draw/../misc/lv_color.h ****      *
 396:lvgl/src/extra/widgets/meter/../../../../src/hal/../draw/../misc/lv_color.h ****      * Find the first divisor where ( adder >> divisor ) <= 0
 397:lvgl/src/extra/widgets/meter/../../../../src/hal/../draw/../misc/lv_color.h ****      *
 398:lvgl/src/extra/widgets/meter/../../../../src/hal/../draw/../misc/lv_color.h ****      * 5-bit to 8-bit: ( 31 * multiplier + adder ) >> divisor = 255
 399:lvgl/src/extra/widgets/meter/../../../../src/hal/../draw/../misc/lv_color.h ****      * divisor  multiplier  adder  min (0)  max (31)
 400:lvgl/src/extra/widgets/meter/../../../../src/hal/../draw/../misc/lv_color.h ****      *       0           8      7        7       255
 401:lvgl/src/extra/widgets/meter/../../../../src/hal/../draw/../misc/lv_color.h ****      *       1          16     14        7       255
 402:lvgl/src/extra/widgets/meter/../../../../src/hal/../draw/../misc/lv_color.h ****      *       2          32     28        7       255
 403:lvgl/src/extra/widgets/meter/../../../../src/hal/../draw/../misc/lv_color.h ****      *       3          65     25        3       255
 404:lvgl/src/extra/widgets/meter/../../../../src/hal/../draw/../misc/lv_color.h ****      *       4         131     19        1       255
 405:lvgl/src/extra/widgets/meter/../../../../src/hal/../draw/../misc/lv_color.h ****      *       5         263      7        0       255
 406:lvgl/src/extra/widgets/meter/../../../../src/hal/../draw/../misc/lv_color.h ****      *
 407:lvgl/src/extra/widgets/meter/../../../../src/hal/../draw/../misc/lv_color.h ****      * 6-bit to 8-bit: 255 = ( 63 * multiplier + adder ) >> divisor
 408:lvgl/src/extra/widgets/meter/../../../../src/hal/../draw/../misc/lv_color.h ****      * divisor  multiplier  adder  min (0)  max (63)
 409:lvgl/src/extra/widgets/meter/../../../../src/hal/../draw/../misc/lv_color.h ****      *       0           4      3        3       255
 410:lvgl/src/extra/widgets/meter/../../../../src/hal/../draw/../misc/lv_color.h ****      *       1           8      6        3       255
 411:lvgl/src/extra/widgets/meter/../../../../src/hal/../draw/../misc/lv_color.h ****      *       2          16     12        3       255
 412:lvgl/src/extra/widgets/meter/../../../../src/hal/../draw/../misc/lv_color.h ****      *       3          32     24        3       255
 413:lvgl/src/extra/widgets/meter/../../../../src/hal/../draw/../misc/lv_color.h ****      *       4          64     48        3       255
 414:lvgl/src/extra/widgets/meter/../../../../src/hal/../draw/../misc/lv_color.h ****      *       5         129     33        1       255
 415:lvgl/src/extra/widgets/meter/../../../../src/hal/../draw/../misc/lv_color.h ****      *       6         259      3        0       255
 416:lvgl/src/extra/widgets/meter/../../../../src/hal/../draw/../misc/lv_color.h ****      */
 417:lvgl/src/extra/widgets/meter/../../../../src/hal/../draw/../misc/lv_color.h **** 
 418:lvgl/src/extra/widgets/meter/../../../../src/hal/../draw/../misc/lv_color.h ****     lv_color32_t ret;
 419:lvgl/src/extra/widgets/meter/../../../../src/hal/../draw/../misc/lv_color.h ****     LV_COLOR_SET_R32(ret, (LV_COLOR_GET_R(color) * 263 + 7) >> 5);
 420:lvgl/src/extra/widgets/meter/../../../../src/hal/../draw/../misc/lv_color.h ****     LV_COLOR_SET_G32(ret, (LV_COLOR_GET_G(color) * 259 + 3) >> 6);
 421:lvgl/src/extra/widgets/meter/../../../../src/hal/../draw/../misc/lv_color.h ****     LV_COLOR_SET_B32(ret, (LV_COLOR_GET_B(color) * 263 + 7) >> 5);
 422:lvgl/src/extra/widgets/meter/../../../../src/hal/../draw/../misc/lv_color.h ****     LV_COLOR_SET_A32(ret, 0xFF);
 423:lvgl/src/extra/widgets/meter/../../../../src/hal/../draw/../misc/lv_color.h ****     return ret.full;
 424:lvgl/src/extra/widgets/meter/../../../../src/hal/../draw/../misc/lv_color.h **** #elif LV_COLOR_DEPTH == 32
 425:lvgl/src/extra/widgets/meter/../../../../src/hal/../draw/../misc/lv_color.h ****     return color.full;
 426:lvgl/src/extra/widgets/meter/../../../../src/hal/../draw/../misc/lv_color.h **** #endif
 427:lvgl/src/extra/widgets/meter/../../../../src/hal/../draw/../misc/lv_color.h **** }
 428:lvgl/src/extra/widgets/meter/../../../../src/hal/../draw/../misc/lv_color.h **** 
ARM GAS  /var/folders/21/t9g5rlb91ys800n5npymflf80000gn/T//ccb01ulG.s 			page 9


 429:lvgl/src/extra/widgets/meter/../../../../src/hal/../draw/../misc/lv_color.h **** //! @cond Doxygen_Suppress
 430:lvgl/src/extra/widgets/meter/../../../../src/hal/../draw/../misc/lv_color.h **** 
 431:lvgl/src/extra/widgets/meter/../../../../src/hal/../draw/../misc/lv_color.h **** /**
 432:lvgl/src/extra/widgets/meter/../../../../src/hal/../draw/../misc/lv_color.h ****  * Mix two colors with a given ratio.
 433:lvgl/src/extra/widgets/meter/../../../../src/hal/../draw/../misc/lv_color.h ****  * @param c1 the first color to mix (usually the foreground)
 434:lvgl/src/extra/widgets/meter/../../../../src/hal/../draw/../misc/lv_color.h ****  * @param c2 the second color to mix (usually the background)
 435:lvgl/src/extra/widgets/meter/../../../../src/hal/../draw/../misc/lv_color.h ****  * @param mix The ratio of the colors. 0: full `c2`, 255: full `c1`, 127: half `c1` and half`c2`
 436:lvgl/src/extra/widgets/meter/../../../../src/hal/../draw/../misc/lv_color.h ****  * @return the mixed color
 437:lvgl/src/extra/widgets/meter/../../../../src/hal/../draw/../misc/lv_color.h ****  */
 438:lvgl/src/extra/widgets/meter/../../../../src/hal/../draw/../misc/lv_color.h **** static inline lv_color_t LV_ATTRIBUTE_FAST_MEM lv_color_mix(lv_color_t c1, lv_color_t c2, uint8_t m
 439:lvgl/src/extra/widgets/meter/../../../../src/hal/../draw/../misc/lv_color.h **** {
  30              		.loc 2 439 1 view -0
  31              		.cfi_startproc
  32              		@ args = 0, pretend = 0, frame = 0
  33              		@ frame_needed = 0, uses_anonymous_args = 0
  34              		@ link register save eliminated.
 440:lvgl/src/extra/widgets/meter/../../../../src/hal/../draw/../misc/lv_color.h ****     lv_color_t ret;
  35              		.loc 2 440 5 view .LVU1
 441:lvgl/src/extra/widgets/meter/../../../../src/hal/../draw/../misc/lv_color.h **** 
 442:lvgl/src/extra/widgets/meter/../../../../src/hal/../draw/../misc/lv_color.h **** #if LV_COLOR_DEPTH == 16 && LV_COLOR_MIX_ROUND_OFS == 0
 443:lvgl/src/extra/widgets/meter/../../../../src/hal/../draw/../misc/lv_color.h **** #if LV_COLOR_16_SWAP == 1
 444:lvgl/src/extra/widgets/meter/../../../../src/hal/../draw/../misc/lv_color.h ****     c1.full = c1.full << 8 | c1.full >> 8;
 445:lvgl/src/extra/widgets/meter/../../../../src/hal/../draw/../misc/lv_color.h ****     c2.full = c2.full << 8 | c2.full >> 8;
 446:lvgl/src/extra/widgets/meter/../../../../src/hal/../draw/../misc/lv_color.h **** #endif
 447:lvgl/src/extra/widgets/meter/../../../../src/hal/../draw/../misc/lv_color.h ****     /*Source: https://stackoverflow.com/a/50012418/1999969*/
 448:lvgl/src/extra/widgets/meter/../../../../src/hal/../draw/../misc/lv_color.h ****     mix = (uint32_t)((uint32_t)mix + 4) >> 3;
  36              		.loc 2 448 5 view .LVU2
  37              		.loc 2 448 11 is_stmt 0 view .LVU3
  38 0000 0432     		adds	r2, r2, #4
  39              	.LVL1:
 449:lvgl/src/extra/widgets/meter/../../../../src/hal/../draw/../misc/lv_color.h ****     uint32_t bg = (uint32_t)((uint32_t)c2.full | ((uint32_t)c2.full << 16)) &
  40              		.loc 2 449 5 is_stmt 1 view .LVU4
  41              		.loc 2 449 19 is_stmt 0 view .LVU5
  42 0002 0B04     		lsls	r3, r1, #16
  43 0004 13FA81F1 		uxtah	r1, r3, r1
  44              	.LVL2:
  45              		.loc 2 449 14 view .LVU6
  46 0008 084B     		ldr	r3, .L2
  47 000a 1940     		ands	r1, r1, r3
  48              	.LVL3:
 450:lvgl/src/extra/widgets/meter/../../../../src/hal/../draw/../misc/lv_color.h ****                   0x7E0F81F; /*0b00000111111000001111100000011111*/
 451:lvgl/src/extra/widgets/meter/../../../../src/hal/../draw/../misc/lv_color.h ****     uint32_t fg = (uint32_t)((uint32_t)c1.full | ((uint32_t)c1.full << 16)) & 0x7E0F81F;
  49              		.loc 2 451 5 is_stmt 1 view .LVU7
  50              		.loc 2 451 19 is_stmt 0 view .LVU8
  51 000c 4FEA004C 		lsl	ip, r0, #16
  52 0010 1CFA80F0 		uxtah	r0, ip, r0
  53              	.LVL4:
  54              		.loc 2 451 14 view .LVU9
  55 0014 1840     		ands	r0, r0, r3
  56              	.LVL5:
 452:lvgl/src/extra/widgets/meter/../../../../src/hal/../draw/../misc/lv_color.h ****     uint32_t result = ((((fg - bg) * mix) >> 5) + bg) & 0x7E0F81F;
  57              		.loc 2 452 5 is_stmt 1 view .LVU10
  58              		.loc 2 452 30 is_stmt 0 view .LVU11
  59 0016 401A     		subs	r0, r0, r1
  60              	.LVL6:
  61              		.loc 2 452 36 view .LVU12
  62 0018 D208     		lsrs	r2, r2, #3
ARM GAS  /var/folders/21/t9g5rlb91ys800n5npymflf80000gn/T//ccb01ulG.s 			page 10


  63              	.LVL7:
  64              		.loc 2 452 36 view .LVU13
  65 001a 00FB02F2 		mul	r2, r0, r2
  66              		.loc 2 452 49 view .LVU14
  67 001e 01EB5211 		add	r1, r1, r2, lsr #5
  68              	.LVL8:
  69              		.loc 2 452 14 view .LVU15
  70 0022 01EA0300 		and	r0, r1, r3
  71              	.LVL9:
 453:lvgl/src/extra/widgets/meter/../../../../src/hal/../draw/../misc/lv_color.h ****     ret.full = (uint16_t)((result >> 16) | result);
  72              		.loc 2 453 5 is_stmt 1 view .LVU16
 454:lvgl/src/extra/widgets/meter/../../../../src/hal/../draw/../misc/lv_color.h **** #if LV_COLOR_16_SWAP == 1
 455:lvgl/src/extra/widgets/meter/../../../../src/hal/../draw/../misc/lv_color.h ****     ret.full = ret.full << 8 | ret.full >> 8;
 456:lvgl/src/extra/widgets/meter/../../../../src/hal/../draw/../misc/lv_color.h **** #endif
 457:lvgl/src/extra/widgets/meter/../../../../src/hal/../draw/../misc/lv_color.h **** #elif LV_COLOR_DEPTH != 1
 458:lvgl/src/extra/widgets/meter/../../../../src/hal/../draw/../misc/lv_color.h ****     /*LV_COLOR_DEPTH == 8, 16 or 32*/
 459:lvgl/src/extra/widgets/meter/../../../../src/hal/../draw/../misc/lv_color.h ****     LV_COLOR_SET_R(ret, LV_UDIV255((uint16_t)LV_COLOR_GET_R(c1) * mix + LV_COLOR_GET_R(c2) *
 460:lvgl/src/extra/widgets/meter/../../../../src/hal/../draw/../misc/lv_color.h ****                                    (255 - mix) + LV_COLOR_MIX_ROUND_OFS));
 461:lvgl/src/extra/widgets/meter/../../../../src/hal/../draw/../misc/lv_color.h ****     LV_COLOR_SET_G(ret, LV_UDIV255((uint16_t)LV_COLOR_GET_G(c1) * mix + LV_COLOR_GET_G(c2) *
 462:lvgl/src/extra/widgets/meter/../../../../src/hal/../draw/../misc/lv_color.h ****                                    (255 - mix) + LV_COLOR_MIX_ROUND_OFS));
 463:lvgl/src/extra/widgets/meter/../../../../src/hal/../draw/../misc/lv_color.h ****     LV_COLOR_SET_B(ret, LV_UDIV255((uint16_t)LV_COLOR_GET_B(c1) * mix + LV_COLOR_GET_B(c2) *
 464:lvgl/src/extra/widgets/meter/../../../../src/hal/../draw/../misc/lv_color.h ****                                    (255 - mix) + LV_COLOR_MIX_ROUND_OFS));
 465:lvgl/src/extra/widgets/meter/../../../../src/hal/../draw/../misc/lv_color.h ****     LV_COLOR_SET_A(ret, 0xFF);
 466:lvgl/src/extra/widgets/meter/../../../../src/hal/../draw/../misc/lv_color.h **** #else
 467:lvgl/src/extra/widgets/meter/../../../../src/hal/../draw/../misc/lv_color.h ****     /*LV_COLOR_DEPTH == 1*/
 468:lvgl/src/extra/widgets/meter/../../../../src/hal/../draw/../misc/lv_color.h ****     ret.full = mix > LV_OPA_50 ? c1.full : c2.full;
 469:lvgl/src/extra/widgets/meter/../../../../src/hal/../draw/../misc/lv_color.h **** #endif
 470:lvgl/src/extra/widgets/meter/../../../../src/hal/../draw/../misc/lv_color.h **** 
 471:lvgl/src/extra/widgets/meter/../../../../src/hal/../draw/../misc/lv_color.h ****     return ret;
  73              		.loc 2 471 5 view .LVU17
 472:lvgl/src/extra/widgets/meter/../../../../src/hal/../draw/../misc/lv_color.h **** }
  74              		.loc 2 472 1 is_stmt 0 view .LVU18
  75 0026 40EA1040 		orr	r0, r0, r0, lsr #16
  76              	.LVL10:
  77              		.loc 2 472 1 view .LVU19
  78 002a 7047     		bx	lr
  79              	.L3:
  80              		.align	2
  81              	.L2:
  82 002c 1FF8E007 		.word	132184095
  83              		.cfi_endproc
  84              	.LFE34:
  86              		.section	.text.draw_arcs,"ax",%progbits
  87              		.align	1
  88              		.syntax unified
  89              		.thumb
  90              		.thumb_func
  92              	draw_arcs:
  93              	.LVL11:
  94              	.LFB219:
   1:lvgl/src/extra/widgets/meter/lv_meter.c **** /**
   2:lvgl/src/extra/widgets/meter/lv_meter.c ****  * @file lv_meter.c
   3:lvgl/src/extra/widgets/meter/lv_meter.c ****  *
   4:lvgl/src/extra/widgets/meter/lv_meter.c ****  */
   5:lvgl/src/extra/widgets/meter/lv_meter.c **** 
   6:lvgl/src/extra/widgets/meter/lv_meter.c **** /*********************
   7:lvgl/src/extra/widgets/meter/lv_meter.c ****  *      INCLUDES
ARM GAS  /var/folders/21/t9g5rlb91ys800n5npymflf80000gn/T//ccb01ulG.s 			page 11


   8:lvgl/src/extra/widgets/meter/lv_meter.c ****  *********************/
   9:lvgl/src/extra/widgets/meter/lv_meter.c **** #include "lv_meter.h"
  10:lvgl/src/extra/widgets/meter/lv_meter.c **** #if LV_USE_METER != 0
  11:lvgl/src/extra/widgets/meter/lv_meter.c **** 
  12:lvgl/src/extra/widgets/meter/lv_meter.c **** #include "../../../misc/lv_assert.h"
  13:lvgl/src/extra/widgets/meter/lv_meter.c **** 
  14:lvgl/src/extra/widgets/meter/lv_meter.c **** /*********************
  15:lvgl/src/extra/widgets/meter/lv_meter.c ****  *      DEFINES
  16:lvgl/src/extra/widgets/meter/lv_meter.c ****  *********************/
  17:lvgl/src/extra/widgets/meter/lv_meter.c **** #define MY_CLASS &lv_meter_class
  18:lvgl/src/extra/widgets/meter/lv_meter.c **** 
  19:lvgl/src/extra/widgets/meter/lv_meter.c **** /**********************
  20:lvgl/src/extra/widgets/meter/lv_meter.c ****  *      TYPEDEFS
  21:lvgl/src/extra/widgets/meter/lv_meter.c ****  **********************/
  22:lvgl/src/extra/widgets/meter/lv_meter.c **** 
  23:lvgl/src/extra/widgets/meter/lv_meter.c **** /**********************
  24:lvgl/src/extra/widgets/meter/lv_meter.c ****  *  STATIC PROTOTYPES
  25:lvgl/src/extra/widgets/meter/lv_meter.c ****  **********************/
  26:lvgl/src/extra/widgets/meter/lv_meter.c **** static void lv_meter_constructor(const lv_obj_class_t * class_p, lv_obj_t * obj);
  27:lvgl/src/extra/widgets/meter/lv_meter.c **** static void lv_meter_destructor(const lv_obj_class_t * class_p, lv_obj_t * obj);
  28:lvgl/src/extra/widgets/meter/lv_meter.c **** static void lv_meter_event(const lv_obj_class_t * class_p, lv_event_t * e);
  29:lvgl/src/extra/widgets/meter/lv_meter.c **** static void draw_arcs(lv_obj_t * obj, lv_draw_ctx_t * draw_ctx, const lv_area_t * scale_area);
  30:lvgl/src/extra/widgets/meter/lv_meter.c **** static void draw_ticks_and_labels(lv_obj_t * obj, lv_draw_ctx_t * draw_ctx, const lv_area_t * scale
  31:lvgl/src/extra/widgets/meter/lv_meter.c **** static void draw_needles(lv_obj_t * obj, lv_draw_ctx_t * draw_ctx, const lv_area_t * scale_area);
  32:lvgl/src/extra/widgets/meter/lv_meter.c **** static void inv_arc(lv_obj_t * obj, lv_meter_indicator_t * indic, int32_t old_value, int32_t new_va
  33:lvgl/src/extra/widgets/meter/lv_meter.c **** static void inv_line(lv_obj_t * obj, lv_meter_indicator_t * indic, int32_t value);
  34:lvgl/src/extra/widgets/meter/lv_meter.c **** 
  35:lvgl/src/extra/widgets/meter/lv_meter.c **** /**********************
  36:lvgl/src/extra/widgets/meter/lv_meter.c ****  *  STATIC VARIABLES
  37:lvgl/src/extra/widgets/meter/lv_meter.c ****  **********************/
  38:lvgl/src/extra/widgets/meter/lv_meter.c **** const lv_obj_class_t lv_meter_class = {
  39:lvgl/src/extra/widgets/meter/lv_meter.c ****     .constructor_cb = lv_meter_constructor,
  40:lvgl/src/extra/widgets/meter/lv_meter.c ****     .destructor_cb = lv_meter_destructor,
  41:lvgl/src/extra/widgets/meter/lv_meter.c ****     .event_cb = lv_meter_event,
  42:lvgl/src/extra/widgets/meter/lv_meter.c ****     .instance_size = sizeof(lv_meter_t),
  43:lvgl/src/extra/widgets/meter/lv_meter.c ****     .base_class = &lv_obj_class
  44:lvgl/src/extra/widgets/meter/lv_meter.c **** };
  45:lvgl/src/extra/widgets/meter/lv_meter.c **** 
  46:lvgl/src/extra/widgets/meter/lv_meter.c **** /**********************
  47:lvgl/src/extra/widgets/meter/lv_meter.c ****  *      MACROS
  48:lvgl/src/extra/widgets/meter/lv_meter.c ****  **********************/
  49:lvgl/src/extra/widgets/meter/lv_meter.c **** 
  50:lvgl/src/extra/widgets/meter/lv_meter.c **** /**********************
  51:lvgl/src/extra/widgets/meter/lv_meter.c ****  *   GLOBAL FUNCTIONS
  52:lvgl/src/extra/widgets/meter/lv_meter.c ****  **********************/
  53:lvgl/src/extra/widgets/meter/lv_meter.c **** 
  54:lvgl/src/extra/widgets/meter/lv_meter.c **** lv_obj_t * lv_meter_create(lv_obj_t * parent)
  55:lvgl/src/extra/widgets/meter/lv_meter.c **** {
  56:lvgl/src/extra/widgets/meter/lv_meter.c ****     LV_LOG_INFO("begin");
  57:lvgl/src/extra/widgets/meter/lv_meter.c ****     lv_obj_t * obj = lv_obj_class_create_obj(MY_CLASS, parent);
  58:lvgl/src/extra/widgets/meter/lv_meter.c ****     lv_obj_class_init_obj(obj);
  59:lvgl/src/extra/widgets/meter/lv_meter.c ****     return obj;
  60:lvgl/src/extra/widgets/meter/lv_meter.c **** }
  61:lvgl/src/extra/widgets/meter/lv_meter.c **** 
  62:lvgl/src/extra/widgets/meter/lv_meter.c **** /*=====================
  63:lvgl/src/extra/widgets/meter/lv_meter.c ****  * Add scale
  64:lvgl/src/extra/widgets/meter/lv_meter.c ****  *====================*/
ARM GAS  /var/folders/21/t9g5rlb91ys800n5npymflf80000gn/T//ccb01ulG.s 			page 12


  65:lvgl/src/extra/widgets/meter/lv_meter.c **** 
  66:lvgl/src/extra/widgets/meter/lv_meter.c **** lv_meter_scale_t * lv_meter_add_scale(lv_obj_t * obj)
  67:lvgl/src/extra/widgets/meter/lv_meter.c **** {
  68:lvgl/src/extra/widgets/meter/lv_meter.c ****     LV_ASSERT_OBJ(obj, MY_CLASS);
  69:lvgl/src/extra/widgets/meter/lv_meter.c ****     lv_meter_t * meter = (lv_meter_t *)obj;
  70:lvgl/src/extra/widgets/meter/lv_meter.c **** 
  71:lvgl/src/extra/widgets/meter/lv_meter.c ****     lv_meter_scale_t * scale = _lv_ll_ins_head(&meter->scale_ll);
  72:lvgl/src/extra/widgets/meter/lv_meter.c ****     LV_ASSERT_MALLOC(scale);
  73:lvgl/src/extra/widgets/meter/lv_meter.c ****     lv_memset_00(scale, sizeof(lv_meter_scale_t));
  74:lvgl/src/extra/widgets/meter/lv_meter.c **** 
  75:lvgl/src/extra/widgets/meter/lv_meter.c ****     scale->angle_range = 270;
  76:lvgl/src/extra/widgets/meter/lv_meter.c ****     scale->rotation = 90 + (360 - scale->angle_range) / 2;
  77:lvgl/src/extra/widgets/meter/lv_meter.c ****     scale->min = 0;
  78:lvgl/src/extra/widgets/meter/lv_meter.c ****     scale->max = 100;
  79:lvgl/src/extra/widgets/meter/lv_meter.c ****     scale->tick_cnt = 6;
  80:lvgl/src/extra/widgets/meter/lv_meter.c ****     scale->tick_length = 8;
  81:lvgl/src/extra/widgets/meter/lv_meter.c ****     scale->tick_width = 2;
  82:lvgl/src/extra/widgets/meter/lv_meter.c ****     scale->label_gap = 2;
  83:lvgl/src/extra/widgets/meter/lv_meter.c **** 
  84:lvgl/src/extra/widgets/meter/lv_meter.c ****     return scale;
  85:lvgl/src/extra/widgets/meter/lv_meter.c **** }
  86:lvgl/src/extra/widgets/meter/lv_meter.c **** 
  87:lvgl/src/extra/widgets/meter/lv_meter.c **** void lv_meter_set_scale_ticks(lv_obj_t * obj, lv_meter_scale_t * scale, uint16_t cnt, uint16_t widt
  88:lvgl/src/extra/widgets/meter/lv_meter.c ****                               lv_color_t color)
  89:lvgl/src/extra/widgets/meter/lv_meter.c **** {
  90:lvgl/src/extra/widgets/meter/lv_meter.c ****     scale->tick_cnt = cnt;
  91:lvgl/src/extra/widgets/meter/lv_meter.c ****     scale->tick_width = width;
  92:lvgl/src/extra/widgets/meter/lv_meter.c ****     scale->tick_length = len;
  93:lvgl/src/extra/widgets/meter/lv_meter.c ****     scale->tick_color = color;
  94:lvgl/src/extra/widgets/meter/lv_meter.c ****     lv_obj_invalidate(obj);
  95:lvgl/src/extra/widgets/meter/lv_meter.c **** }
  96:lvgl/src/extra/widgets/meter/lv_meter.c **** 
  97:lvgl/src/extra/widgets/meter/lv_meter.c **** void lv_meter_set_scale_major_ticks(lv_obj_t * obj, lv_meter_scale_t * scale, uint16_t nth, uint16_
  98:lvgl/src/extra/widgets/meter/lv_meter.c ****                                     uint16_t len, lv_color_t color, int16_t label_gap)
  99:lvgl/src/extra/widgets/meter/lv_meter.c **** {
 100:lvgl/src/extra/widgets/meter/lv_meter.c ****     scale->tick_major_nth = nth;
 101:lvgl/src/extra/widgets/meter/lv_meter.c ****     scale->tick_major_width = width;
 102:lvgl/src/extra/widgets/meter/lv_meter.c ****     scale->tick_major_length = len;
 103:lvgl/src/extra/widgets/meter/lv_meter.c ****     scale->tick_major_color = color;
 104:lvgl/src/extra/widgets/meter/lv_meter.c ****     scale->label_gap = label_gap;
 105:lvgl/src/extra/widgets/meter/lv_meter.c ****     lv_obj_invalidate(obj);
 106:lvgl/src/extra/widgets/meter/lv_meter.c **** }
 107:lvgl/src/extra/widgets/meter/lv_meter.c **** 
 108:lvgl/src/extra/widgets/meter/lv_meter.c **** void lv_meter_set_scale_range(lv_obj_t * obj, lv_meter_scale_t * scale, int32_t min, int32_t max, u
 109:lvgl/src/extra/widgets/meter/lv_meter.c ****                               uint32_t rotation)
 110:lvgl/src/extra/widgets/meter/lv_meter.c **** {
 111:lvgl/src/extra/widgets/meter/lv_meter.c ****     scale->min = min;
 112:lvgl/src/extra/widgets/meter/lv_meter.c ****     scale->max = max;
 113:lvgl/src/extra/widgets/meter/lv_meter.c ****     scale->angle_range = angle_range;
 114:lvgl/src/extra/widgets/meter/lv_meter.c ****     scale->rotation = rotation;
 115:lvgl/src/extra/widgets/meter/lv_meter.c ****     lv_obj_invalidate(obj);
 116:lvgl/src/extra/widgets/meter/lv_meter.c **** }
 117:lvgl/src/extra/widgets/meter/lv_meter.c **** 
 118:lvgl/src/extra/widgets/meter/lv_meter.c **** /*=====================
 119:lvgl/src/extra/widgets/meter/lv_meter.c ****  * Add indicator
 120:lvgl/src/extra/widgets/meter/lv_meter.c ****  *====================*/
 121:lvgl/src/extra/widgets/meter/lv_meter.c **** 
ARM GAS  /var/folders/21/t9g5rlb91ys800n5npymflf80000gn/T//ccb01ulG.s 			page 13


 122:lvgl/src/extra/widgets/meter/lv_meter.c **** lv_meter_indicator_t * lv_meter_add_needle_line(lv_obj_t * obj, lv_meter_scale_t * scale, uint16_t 
 123:lvgl/src/extra/widgets/meter/lv_meter.c ****                                                 lv_color_t color, int16_t r_mod)
 124:lvgl/src/extra/widgets/meter/lv_meter.c **** {
 125:lvgl/src/extra/widgets/meter/lv_meter.c ****     LV_ASSERT_OBJ(obj, MY_CLASS);
 126:lvgl/src/extra/widgets/meter/lv_meter.c ****     lv_meter_t * meter = (lv_meter_t *)obj;
 127:lvgl/src/extra/widgets/meter/lv_meter.c ****     lv_meter_indicator_t * indic = _lv_ll_ins_head(&meter->indicator_ll);
 128:lvgl/src/extra/widgets/meter/lv_meter.c ****     LV_ASSERT_MALLOC(indic);
 129:lvgl/src/extra/widgets/meter/lv_meter.c ****     lv_memset_00(indic, sizeof(lv_meter_indicator_t));
 130:lvgl/src/extra/widgets/meter/lv_meter.c ****     indic->scale = scale;
 131:lvgl/src/extra/widgets/meter/lv_meter.c ****     indic->opa = LV_OPA_COVER;
 132:lvgl/src/extra/widgets/meter/lv_meter.c **** 
 133:lvgl/src/extra/widgets/meter/lv_meter.c ****     indic->type = LV_METER_INDICATOR_TYPE_NEEDLE_LINE;
 134:lvgl/src/extra/widgets/meter/lv_meter.c ****     indic->type_data.needle_line.width = width;
 135:lvgl/src/extra/widgets/meter/lv_meter.c ****     indic->type_data.needle_line.color = color;
 136:lvgl/src/extra/widgets/meter/lv_meter.c ****     indic->type_data.needle_line.r_mod = r_mod;
 137:lvgl/src/extra/widgets/meter/lv_meter.c ****     lv_obj_invalidate(obj);
 138:lvgl/src/extra/widgets/meter/lv_meter.c **** 
 139:lvgl/src/extra/widgets/meter/lv_meter.c ****     return indic;
 140:lvgl/src/extra/widgets/meter/lv_meter.c **** }
 141:lvgl/src/extra/widgets/meter/lv_meter.c **** 
 142:lvgl/src/extra/widgets/meter/lv_meter.c **** lv_meter_indicator_t * lv_meter_add_needle_img(lv_obj_t * obj, lv_meter_scale_t * scale, const void
 143:lvgl/src/extra/widgets/meter/lv_meter.c ****                                                lv_coord_t pivot_x, lv_coord_t pivot_y)
 144:lvgl/src/extra/widgets/meter/lv_meter.c **** {
 145:lvgl/src/extra/widgets/meter/lv_meter.c ****     LV_ASSERT_OBJ(obj, MY_CLASS);
 146:lvgl/src/extra/widgets/meter/lv_meter.c ****     lv_meter_t * meter = (lv_meter_t *)obj;
 147:lvgl/src/extra/widgets/meter/lv_meter.c ****     lv_meter_indicator_t * indic = _lv_ll_ins_head(&meter->indicator_ll);
 148:lvgl/src/extra/widgets/meter/lv_meter.c ****     LV_ASSERT_MALLOC(indic);
 149:lvgl/src/extra/widgets/meter/lv_meter.c ****     lv_memset_00(indic, sizeof(lv_meter_indicator_t));
 150:lvgl/src/extra/widgets/meter/lv_meter.c ****     indic->scale = scale;
 151:lvgl/src/extra/widgets/meter/lv_meter.c ****     indic->opa = LV_OPA_COVER;
 152:lvgl/src/extra/widgets/meter/lv_meter.c **** 
 153:lvgl/src/extra/widgets/meter/lv_meter.c ****     indic->type = LV_METER_INDICATOR_TYPE_NEEDLE_IMG;
 154:lvgl/src/extra/widgets/meter/lv_meter.c ****     indic->type_data.needle_img.src = src;
 155:lvgl/src/extra/widgets/meter/lv_meter.c ****     indic->type_data.needle_img.pivot.x = pivot_x;
 156:lvgl/src/extra/widgets/meter/lv_meter.c ****     indic->type_data.needle_img.pivot.y = pivot_y;
 157:lvgl/src/extra/widgets/meter/lv_meter.c ****     lv_obj_invalidate(obj);
 158:lvgl/src/extra/widgets/meter/lv_meter.c **** 
 159:lvgl/src/extra/widgets/meter/lv_meter.c ****     return indic;
 160:lvgl/src/extra/widgets/meter/lv_meter.c **** }
 161:lvgl/src/extra/widgets/meter/lv_meter.c **** 
 162:lvgl/src/extra/widgets/meter/lv_meter.c **** lv_meter_indicator_t * lv_meter_add_arc(lv_obj_t * obj, lv_meter_scale_t * scale, uint16_t width, l
 163:lvgl/src/extra/widgets/meter/lv_meter.c ****                                         int16_t r_mod)
 164:lvgl/src/extra/widgets/meter/lv_meter.c **** {
 165:lvgl/src/extra/widgets/meter/lv_meter.c ****     LV_ASSERT_OBJ(obj, MY_CLASS);
 166:lvgl/src/extra/widgets/meter/lv_meter.c ****     lv_meter_t * meter = (lv_meter_t *)obj;
 167:lvgl/src/extra/widgets/meter/lv_meter.c ****     lv_meter_indicator_t * indic = _lv_ll_ins_head(&meter->indicator_ll);
 168:lvgl/src/extra/widgets/meter/lv_meter.c ****     LV_ASSERT_MALLOC(indic);
 169:lvgl/src/extra/widgets/meter/lv_meter.c ****     lv_memset_00(indic, sizeof(lv_meter_indicator_t));
 170:lvgl/src/extra/widgets/meter/lv_meter.c ****     indic->scale = scale;
 171:lvgl/src/extra/widgets/meter/lv_meter.c ****     indic->opa = LV_OPA_COVER;
 172:lvgl/src/extra/widgets/meter/lv_meter.c **** 
 173:lvgl/src/extra/widgets/meter/lv_meter.c ****     indic->type = LV_METER_INDICATOR_TYPE_ARC;
 174:lvgl/src/extra/widgets/meter/lv_meter.c ****     indic->type_data.arc.width = width;
 175:lvgl/src/extra/widgets/meter/lv_meter.c ****     indic->type_data.arc.color = color;
 176:lvgl/src/extra/widgets/meter/lv_meter.c ****     indic->type_data.arc.r_mod = r_mod;
 177:lvgl/src/extra/widgets/meter/lv_meter.c **** 
 178:lvgl/src/extra/widgets/meter/lv_meter.c ****     lv_obj_invalidate(obj);
ARM GAS  /var/folders/21/t9g5rlb91ys800n5npymflf80000gn/T//ccb01ulG.s 			page 14


 179:lvgl/src/extra/widgets/meter/lv_meter.c ****     return indic;
 180:lvgl/src/extra/widgets/meter/lv_meter.c **** }
 181:lvgl/src/extra/widgets/meter/lv_meter.c **** 
 182:lvgl/src/extra/widgets/meter/lv_meter.c **** lv_meter_indicator_t * lv_meter_add_scale_lines(lv_obj_t * obj, lv_meter_scale_t * scale, lv_color_
 183:lvgl/src/extra/widgets/meter/lv_meter.c ****                                                 lv_color_t color_end, bool local, int16_t width_mod
 184:lvgl/src/extra/widgets/meter/lv_meter.c **** {
 185:lvgl/src/extra/widgets/meter/lv_meter.c ****     LV_ASSERT_OBJ(obj, MY_CLASS);
 186:lvgl/src/extra/widgets/meter/lv_meter.c ****     lv_meter_t * meter = (lv_meter_t *)obj;
 187:lvgl/src/extra/widgets/meter/lv_meter.c ****     lv_meter_indicator_t * indic = _lv_ll_ins_head(&meter->indicator_ll);
 188:lvgl/src/extra/widgets/meter/lv_meter.c ****     LV_ASSERT_MALLOC(indic);
 189:lvgl/src/extra/widgets/meter/lv_meter.c ****     lv_memset_00(indic, sizeof(lv_meter_indicator_t));
 190:lvgl/src/extra/widgets/meter/lv_meter.c ****     indic->scale = scale;
 191:lvgl/src/extra/widgets/meter/lv_meter.c ****     indic->opa = LV_OPA_COVER;
 192:lvgl/src/extra/widgets/meter/lv_meter.c **** 
 193:lvgl/src/extra/widgets/meter/lv_meter.c ****     indic->type = LV_METER_INDICATOR_TYPE_SCALE_LINES;
 194:lvgl/src/extra/widgets/meter/lv_meter.c ****     indic->type_data.scale_lines.color_start = color_start;
 195:lvgl/src/extra/widgets/meter/lv_meter.c ****     indic->type_data.scale_lines.color_end = color_end;
 196:lvgl/src/extra/widgets/meter/lv_meter.c ****     indic->type_data.scale_lines.local_grad = local;
 197:lvgl/src/extra/widgets/meter/lv_meter.c ****     indic->type_data.scale_lines.width_mod = width_mod;
 198:lvgl/src/extra/widgets/meter/lv_meter.c **** 
 199:lvgl/src/extra/widgets/meter/lv_meter.c ****     lv_obj_invalidate(obj);
 200:lvgl/src/extra/widgets/meter/lv_meter.c ****     return indic;
 201:lvgl/src/extra/widgets/meter/lv_meter.c **** }
 202:lvgl/src/extra/widgets/meter/lv_meter.c **** 
 203:lvgl/src/extra/widgets/meter/lv_meter.c **** /*=====================
 204:lvgl/src/extra/widgets/meter/lv_meter.c ****  * Set indicator value
 205:lvgl/src/extra/widgets/meter/lv_meter.c ****  *====================*/
 206:lvgl/src/extra/widgets/meter/lv_meter.c **** 
 207:lvgl/src/extra/widgets/meter/lv_meter.c **** void lv_meter_set_indicator_value(lv_obj_t * obj, lv_meter_indicator_t * indic, int32_t value)
 208:lvgl/src/extra/widgets/meter/lv_meter.c **** {
 209:lvgl/src/extra/widgets/meter/lv_meter.c ****     int32_t old_start = indic->start_value;
 210:lvgl/src/extra/widgets/meter/lv_meter.c ****     int32_t old_end = indic->end_value;
 211:lvgl/src/extra/widgets/meter/lv_meter.c ****     indic->start_value = value;
 212:lvgl/src/extra/widgets/meter/lv_meter.c ****     indic->end_value = value;
 213:lvgl/src/extra/widgets/meter/lv_meter.c **** 
 214:lvgl/src/extra/widgets/meter/lv_meter.c ****     if(indic->type == LV_METER_INDICATOR_TYPE_ARC) {
 215:lvgl/src/extra/widgets/meter/lv_meter.c ****         inv_arc(obj, indic, old_start, value);
 216:lvgl/src/extra/widgets/meter/lv_meter.c ****         inv_arc(obj, indic, old_end, value);
 217:lvgl/src/extra/widgets/meter/lv_meter.c ****     }
 218:lvgl/src/extra/widgets/meter/lv_meter.c ****     else if(indic->type == LV_METER_INDICATOR_TYPE_NEEDLE_IMG || indic->type == LV_METER_INDICATOR_
 219:lvgl/src/extra/widgets/meter/lv_meter.c ****         inv_line(obj, indic, old_start);
 220:lvgl/src/extra/widgets/meter/lv_meter.c ****         inv_line(obj, indic, old_end);
 221:lvgl/src/extra/widgets/meter/lv_meter.c ****         inv_line(obj, indic, value);
 222:lvgl/src/extra/widgets/meter/lv_meter.c ****     }
 223:lvgl/src/extra/widgets/meter/lv_meter.c ****     else {
 224:lvgl/src/extra/widgets/meter/lv_meter.c ****         lv_obj_invalidate(obj);
 225:lvgl/src/extra/widgets/meter/lv_meter.c ****     }
 226:lvgl/src/extra/widgets/meter/lv_meter.c **** }
 227:lvgl/src/extra/widgets/meter/lv_meter.c **** 
 228:lvgl/src/extra/widgets/meter/lv_meter.c **** void lv_meter_set_indicator_start_value(lv_obj_t * obj, lv_meter_indicator_t * indic, int32_t value
 229:lvgl/src/extra/widgets/meter/lv_meter.c **** {
 230:lvgl/src/extra/widgets/meter/lv_meter.c ****     int32_t old_value = indic->start_value;
 231:lvgl/src/extra/widgets/meter/lv_meter.c ****     indic->start_value = value;
 232:lvgl/src/extra/widgets/meter/lv_meter.c **** 
 233:lvgl/src/extra/widgets/meter/lv_meter.c ****     if(indic->type == LV_METER_INDICATOR_TYPE_ARC) {
 234:lvgl/src/extra/widgets/meter/lv_meter.c ****         inv_arc(obj, indic, old_value, value);
 235:lvgl/src/extra/widgets/meter/lv_meter.c ****     }
ARM GAS  /var/folders/21/t9g5rlb91ys800n5npymflf80000gn/T//ccb01ulG.s 			page 15


 236:lvgl/src/extra/widgets/meter/lv_meter.c ****     else if(indic->type == LV_METER_INDICATOR_TYPE_NEEDLE_IMG || indic->type == LV_METER_INDICATOR_
 237:lvgl/src/extra/widgets/meter/lv_meter.c ****         inv_line(obj, indic, old_value);
 238:lvgl/src/extra/widgets/meter/lv_meter.c ****         inv_line(obj, indic, value);
 239:lvgl/src/extra/widgets/meter/lv_meter.c ****     }
 240:lvgl/src/extra/widgets/meter/lv_meter.c ****     else {
 241:lvgl/src/extra/widgets/meter/lv_meter.c ****         lv_obj_invalidate(obj);
 242:lvgl/src/extra/widgets/meter/lv_meter.c ****     }
 243:lvgl/src/extra/widgets/meter/lv_meter.c **** }
 244:lvgl/src/extra/widgets/meter/lv_meter.c **** 
 245:lvgl/src/extra/widgets/meter/lv_meter.c **** void lv_meter_set_indicator_end_value(lv_obj_t * obj, lv_meter_indicator_t * indic, int32_t value)
 246:lvgl/src/extra/widgets/meter/lv_meter.c **** {
 247:lvgl/src/extra/widgets/meter/lv_meter.c ****     int32_t old_value = indic->end_value;
 248:lvgl/src/extra/widgets/meter/lv_meter.c ****     indic->end_value = value;
 249:lvgl/src/extra/widgets/meter/lv_meter.c **** 
 250:lvgl/src/extra/widgets/meter/lv_meter.c ****     if(indic->type == LV_METER_INDICATOR_TYPE_ARC) {
 251:lvgl/src/extra/widgets/meter/lv_meter.c ****         inv_arc(obj, indic, old_value, value);
 252:lvgl/src/extra/widgets/meter/lv_meter.c ****     }
 253:lvgl/src/extra/widgets/meter/lv_meter.c ****     else if(indic->type == LV_METER_INDICATOR_TYPE_NEEDLE_IMG || indic->type == LV_METER_INDICATOR_
 254:lvgl/src/extra/widgets/meter/lv_meter.c ****         inv_line(obj, indic, old_value);
 255:lvgl/src/extra/widgets/meter/lv_meter.c ****         inv_line(obj, indic, value);
 256:lvgl/src/extra/widgets/meter/lv_meter.c ****     }
 257:lvgl/src/extra/widgets/meter/lv_meter.c ****     else {
 258:lvgl/src/extra/widgets/meter/lv_meter.c ****         lv_obj_invalidate(obj);
 259:lvgl/src/extra/widgets/meter/lv_meter.c ****     }
 260:lvgl/src/extra/widgets/meter/lv_meter.c **** }
 261:lvgl/src/extra/widgets/meter/lv_meter.c **** 
 262:lvgl/src/extra/widgets/meter/lv_meter.c **** /**********************
 263:lvgl/src/extra/widgets/meter/lv_meter.c ****  *   STATIC FUNCTIONS
 264:lvgl/src/extra/widgets/meter/lv_meter.c ****  **********************/
 265:lvgl/src/extra/widgets/meter/lv_meter.c **** 
 266:lvgl/src/extra/widgets/meter/lv_meter.c **** static void lv_meter_constructor(const lv_obj_class_t * class_p, lv_obj_t * obj)
 267:lvgl/src/extra/widgets/meter/lv_meter.c **** {
 268:lvgl/src/extra/widgets/meter/lv_meter.c ****     LV_UNUSED(class_p);
 269:lvgl/src/extra/widgets/meter/lv_meter.c ****     LV_TRACE_OBJ_CREATE("begin");
 270:lvgl/src/extra/widgets/meter/lv_meter.c **** 
 271:lvgl/src/extra/widgets/meter/lv_meter.c ****     lv_meter_t * meter = (lv_meter_t *)obj;
 272:lvgl/src/extra/widgets/meter/lv_meter.c **** 
 273:lvgl/src/extra/widgets/meter/lv_meter.c ****     _lv_ll_init(&meter->scale_ll, sizeof(lv_meter_scale_t));
 274:lvgl/src/extra/widgets/meter/lv_meter.c ****     _lv_ll_init(&meter->indicator_ll, sizeof(lv_meter_indicator_t));
 275:lvgl/src/extra/widgets/meter/lv_meter.c **** 
 276:lvgl/src/extra/widgets/meter/lv_meter.c ****     LV_TRACE_OBJ_CREATE("finished");
 277:lvgl/src/extra/widgets/meter/lv_meter.c **** }
 278:lvgl/src/extra/widgets/meter/lv_meter.c **** 
 279:lvgl/src/extra/widgets/meter/lv_meter.c **** static void lv_meter_destructor(const lv_obj_class_t * class_p, lv_obj_t * obj)
 280:lvgl/src/extra/widgets/meter/lv_meter.c **** {
 281:lvgl/src/extra/widgets/meter/lv_meter.c ****     LV_UNUSED(class_p);
 282:lvgl/src/extra/widgets/meter/lv_meter.c ****     LV_ASSERT_OBJ(obj, MY_CLASS);
 283:lvgl/src/extra/widgets/meter/lv_meter.c ****     lv_meter_t * meter = (lv_meter_t *)obj;
 284:lvgl/src/extra/widgets/meter/lv_meter.c ****     _lv_ll_clear(&meter->indicator_ll);
 285:lvgl/src/extra/widgets/meter/lv_meter.c ****     _lv_ll_clear(&meter->scale_ll);
 286:lvgl/src/extra/widgets/meter/lv_meter.c **** 
 287:lvgl/src/extra/widgets/meter/lv_meter.c **** }
 288:lvgl/src/extra/widgets/meter/lv_meter.c **** 
 289:lvgl/src/extra/widgets/meter/lv_meter.c **** static void lv_meter_event(const lv_obj_class_t * class_p, lv_event_t * e)
 290:lvgl/src/extra/widgets/meter/lv_meter.c **** {
 291:lvgl/src/extra/widgets/meter/lv_meter.c ****     LV_UNUSED(class_p);
 292:lvgl/src/extra/widgets/meter/lv_meter.c **** 
ARM GAS  /var/folders/21/t9g5rlb91ys800n5npymflf80000gn/T//ccb01ulG.s 			page 16


 293:lvgl/src/extra/widgets/meter/lv_meter.c ****     lv_res_t res = lv_obj_event_base(MY_CLASS, e);
 294:lvgl/src/extra/widgets/meter/lv_meter.c ****     if(res != LV_RES_OK) return;
 295:lvgl/src/extra/widgets/meter/lv_meter.c **** 
 296:lvgl/src/extra/widgets/meter/lv_meter.c ****     lv_event_code_t code = lv_event_get_code(e);
 297:lvgl/src/extra/widgets/meter/lv_meter.c ****     lv_obj_t * obj = lv_event_get_target(e);
 298:lvgl/src/extra/widgets/meter/lv_meter.c ****     if(code == LV_EVENT_DRAW_MAIN) {
 299:lvgl/src/extra/widgets/meter/lv_meter.c ****         lv_draw_ctx_t * draw_ctx = lv_event_get_draw_ctx(e);
 300:lvgl/src/extra/widgets/meter/lv_meter.c ****         lv_area_t scale_area;
 301:lvgl/src/extra/widgets/meter/lv_meter.c ****         lv_obj_get_content_coords(obj, &scale_area);
 302:lvgl/src/extra/widgets/meter/lv_meter.c **** 
 303:lvgl/src/extra/widgets/meter/lv_meter.c ****         draw_arcs(obj, draw_ctx, &scale_area);
 304:lvgl/src/extra/widgets/meter/lv_meter.c ****         draw_ticks_and_labels(obj, draw_ctx, &scale_area);
 305:lvgl/src/extra/widgets/meter/lv_meter.c ****         draw_needles(obj, draw_ctx, &scale_area);
 306:lvgl/src/extra/widgets/meter/lv_meter.c **** 
 307:lvgl/src/extra/widgets/meter/lv_meter.c ****         lv_coord_t r_edge = lv_area_get_width(&scale_area) / 2;
 308:lvgl/src/extra/widgets/meter/lv_meter.c ****         lv_point_t scale_center;
 309:lvgl/src/extra/widgets/meter/lv_meter.c ****         scale_center.x = scale_area.x1 + r_edge;
 310:lvgl/src/extra/widgets/meter/lv_meter.c ****         scale_center.y = scale_area.y1 + r_edge;
 311:lvgl/src/extra/widgets/meter/lv_meter.c **** 
 312:lvgl/src/extra/widgets/meter/lv_meter.c ****         lv_draw_rect_dsc_t mid_dsc;
 313:lvgl/src/extra/widgets/meter/lv_meter.c ****         lv_draw_rect_dsc_init(&mid_dsc);
 314:lvgl/src/extra/widgets/meter/lv_meter.c ****         lv_obj_init_draw_rect_dsc(obj, LV_PART_INDICATOR, &mid_dsc);
 315:lvgl/src/extra/widgets/meter/lv_meter.c ****         lv_coord_t w = lv_obj_get_style_width(obj, LV_PART_INDICATOR) / 2;
 316:lvgl/src/extra/widgets/meter/lv_meter.c ****         lv_coord_t h = lv_obj_get_style_height(obj, LV_PART_INDICATOR) / 2;
 317:lvgl/src/extra/widgets/meter/lv_meter.c ****         lv_area_t nm_cord;
 318:lvgl/src/extra/widgets/meter/lv_meter.c ****         nm_cord.x1 = scale_center.x - w;
 319:lvgl/src/extra/widgets/meter/lv_meter.c ****         nm_cord.y1 = scale_center.y - h;
 320:lvgl/src/extra/widgets/meter/lv_meter.c ****         nm_cord.x2 = scale_center.x + w;
 321:lvgl/src/extra/widgets/meter/lv_meter.c ****         nm_cord.y2 = scale_center.y + h;
 322:lvgl/src/extra/widgets/meter/lv_meter.c ****         lv_draw_rect(draw_ctx, &mid_dsc, &nm_cord);
 323:lvgl/src/extra/widgets/meter/lv_meter.c ****     }
 324:lvgl/src/extra/widgets/meter/lv_meter.c **** }
 325:lvgl/src/extra/widgets/meter/lv_meter.c **** 
 326:lvgl/src/extra/widgets/meter/lv_meter.c **** static void draw_arcs(lv_obj_t * obj, lv_draw_ctx_t * draw_ctx, const lv_area_t * scale_area)
 327:lvgl/src/extra/widgets/meter/lv_meter.c **** {
  95              		.loc 1 327 1 is_stmt 1 view -0
  96              		.cfi_startproc
  97              		@ args = 0, pretend = 0, frame = 104
  98              		@ frame_needed = 0, uses_anonymous_args = 0
  99              		.loc 1 327 1 is_stmt 0 view .LVU21
 100 0000 2DE9F04F 		push	{r4, r5, r6, r7, r8, r9, r10, fp, lr}
 101              	.LCFI0:
 102              		.cfi_def_cfa_offset 36
 103              		.cfi_offset 4, -36
 104              		.cfi_offset 5, -32
 105              		.cfi_offset 6, -28
 106              		.cfi_offset 7, -24
 107              		.cfi_offset 8, -20
 108              		.cfi_offset 9, -16
 109              		.cfi_offset 10, -12
 110              		.cfi_offset 11, -8
 111              		.cfi_offset 14, -4
 112 0004 9DB0     		sub	sp, sp, #116
 113              	.LCFI1:
 114              		.cfi_def_cfa_offset 152
 115 0006 8046     		mov	r8, r0
 116 0008 8B46     		mov	fp, r1
ARM GAS  /var/folders/21/t9g5rlb91ys800n5npymflf80000gn/T//ccb01ulG.s 			page 17


 117 000a 1546     		mov	r5, r2
 328:lvgl/src/extra/widgets/meter/lv_meter.c ****     lv_meter_t * meter = (lv_meter_t *)obj;
 118              		.loc 1 328 5 is_stmt 1 view .LVU22
 119              	.LVL12:
 329:lvgl/src/extra/widgets/meter/lv_meter.c **** 
 330:lvgl/src/extra/widgets/meter/lv_meter.c ****     lv_draw_arc_dsc_t arc_dsc;
 120              		.loc 1 330 5 view .LVU23
 331:lvgl/src/extra/widgets/meter/lv_meter.c ****     lv_draw_arc_dsc_init(&arc_dsc);
 121              		.loc 1 331 5 view .LVU24
 122 000c 18AC     		add	r4, sp, #96
 123 000e 2046     		mov	r0, r4
 124              	.LVL13:
 125              		.loc 1 331 5 is_stmt 0 view .LVU25
 126 0010 FFF7FEFF 		bl	lv_draw_arc_dsc_init
 127              	.LVL14:
 332:lvgl/src/extra/widgets/meter/lv_meter.c ****     arc_dsc.rounded = lv_obj_get_style_arc_rounded(obj, LV_PART_ITEMS);
 128              		.loc 1 332 5 is_stmt 1 view .LVU26
 129              	.LBB43:
 130              	.LBI43:
 131              		.file 3 "lvgl/src/extra/widgets/meter/../../../../src/core/lv_obj_style_gen.h"
   1:lvgl/src/extra/widgets/meter/../../../../src/core/lv_obj_style_gen.h **** static inline lv_coord_t lv_obj_get_style_width(const struct _lv_obj_t * obj, uint32_t part)
   2:lvgl/src/extra/widgets/meter/../../../../src/core/lv_obj_style_gen.h **** {
   3:lvgl/src/extra/widgets/meter/../../../../src/core/lv_obj_style_gen.h ****     lv_style_value_t v = lv_obj_get_style_prop(obj, part, LV_STYLE_WIDTH);
   4:lvgl/src/extra/widgets/meter/../../../../src/core/lv_obj_style_gen.h ****     return (lv_coord_t)v.num;
   5:lvgl/src/extra/widgets/meter/../../../../src/core/lv_obj_style_gen.h **** }
   6:lvgl/src/extra/widgets/meter/../../../../src/core/lv_obj_style_gen.h **** 
   7:lvgl/src/extra/widgets/meter/../../../../src/core/lv_obj_style_gen.h **** static inline lv_coord_t lv_obj_get_style_min_width(const struct _lv_obj_t * obj, uint32_t part)
   8:lvgl/src/extra/widgets/meter/../../../../src/core/lv_obj_style_gen.h **** {
   9:lvgl/src/extra/widgets/meter/../../../../src/core/lv_obj_style_gen.h ****     lv_style_value_t v = lv_obj_get_style_prop(obj, part, LV_STYLE_MIN_WIDTH);
  10:lvgl/src/extra/widgets/meter/../../../../src/core/lv_obj_style_gen.h ****     return (lv_coord_t)v.num;
  11:lvgl/src/extra/widgets/meter/../../../../src/core/lv_obj_style_gen.h **** }
  12:lvgl/src/extra/widgets/meter/../../../../src/core/lv_obj_style_gen.h **** 
  13:lvgl/src/extra/widgets/meter/../../../../src/core/lv_obj_style_gen.h **** static inline lv_coord_t lv_obj_get_style_max_width(const struct _lv_obj_t * obj, uint32_t part)
  14:lvgl/src/extra/widgets/meter/../../../../src/core/lv_obj_style_gen.h **** {
  15:lvgl/src/extra/widgets/meter/../../../../src/core/lv_obj_style_gen.h ****     lv_style_value_t v = lv_obj_get_style_prop(obj, part, LV_STYLE_MAX_WIDTH);
  16:lvgl/src/extra/widgets/meter/../../../../src/core/lv_obj_style_gen.h ****     return (lv_coord_t)v.num;
  17:lvgl/src/extra/widgets/meter/../../../../src/core/lv_obj_style_gen.h **** }
  18:lvgl/src/extra/widgets/meter/../../../../src/core/lv_obj_style_gen.h **** 
  19:lvgl/src/extra/widgets/meter/../../../../src/core/lv_obj_style_gen.h **** static inline lv_coord_t lv_obj_get_style_height(const struct _lv_obj_t * obj, uint32_t part)
  20:lvgl/src/extra/widgets/meter/../../../../src/core/lv_obj_style_gen.h **** {
  21:lvgl/src/extra/widgets/meter/../../../../src/core/lv_obj_style_gen.h ****     lv_style_value_t v = lv_obj_get_style_prop(obj, part, LV_STYLE_HEIGHT);
  22:lvgl/src/extra/widgets/meter/../../../../src/core/lv_obj_style_gen.h ****     return (lv_coord_t)v.num;
  23:lvgl/src/extra/widgets/meter/../../../../src/core/lv_obj_style_gen.h **** }
  24:lvgl/src/extra/widgets/meter/../../../../src/core/lv_obj_style_gen.h **** 
  25:lvgl/src/extra/widgets/meter/../../../../src/core/lv_obj_style_gen.h **** static inline lv_coord_t lv_obj_get_style_min_height(const struct _lv_obj_t * obj, uint32_t part)
  26:lvgl/src/extra/widgets/meter/../../../../src/core/lv_obj_style_gen.h **** {
  27:lvgl/src/extra/widgets/meter/../../../../src/core/lv_obj_style_gen.h ****     lv_style_value_t v = lv_obj_get_style_prop(obj, part, LV_STYLE_MIN_HEIGHT);
  28:lvgl/src/extra/widgets/meter/../../../../src/core/lv_obj_style_gen.h ****     return (lv_coord_t)v.num;
  29:lvgl/src/extra/widgets/meter/../../../../src/core/lv_obj_style_gen.h **** }
  30:lvgl/src/extra/widgets/meter/../../../../src/core/lv_obj_style_gen.h **** 
  31:lvgl/src/extra/widgets/meter/../../../../src/core/lv_obj_style_gen.h **** static inline lv_coord_t lv_obj_get_style_max_height(const struct _lv_obj_t * obj, uint32_t part)
  32:lvgl/src/extra/widgets/meter/../../../../src/core/lv_obj_style_gen.h **** {
  33:lvgl/src/extra/widgets/meter/../../../../src/core/lv_obj_style_gen.h ****     lv_style_value_t v = lv_obj_get_style_prop(obj, part, LV_STYLE_MAX_HEIGHT);
  34:lvgl/src/extra/widgets/meter/../../../../src/core/lv_obj_style_gen.h ****     return (lv_coord_t)v.num;
  35:lvgl/src/extra/widgets/meter/../../../../src/core/lv_obj_style_gen.h **** }
  36:lvgl/src/extra/widgets/meter/../../../../src/core/lv_obj_style_gen.h **** 
  37:lvgl/src/extra/widgets/meter/../../../../src/core/lv_obj_style_gen.h **** static inline lv_coord_t lv_obj_get_style_x(const struct _lv_obj_t * obj, uint32_t part)
ARM GAS  /var/folders/21/t9g5rlb91ys800n5npymflf80000gn/T//ccb01ulG.s 			page 18


  38:lvgl/src/extra/widgets/meter/../../../../src/core/lv_obj_style_gen.h **** {
  39:lvgl/src/extra/widgets/meter/../../../../src/core/lv_obj_style_gen.h ****     lv_style_value_t v = lv_obj_get_style_prop(obj, part, LV_STYLE_X);
  40:lvgl/src/extra/widgets/meter/../../../../src/core/lv_obj_style_gen.h ****     return (lv_coord_t)v.num;
  41:lvgl/src/extra/widgets/meter/../../../../src/core/lv_obj_style_gen.h **** }
  42:lvgl/src/extra/widgets/meter/../../../../src/core/lv_obj_style_gen.h **** 
  43:lvgl/src/extra/widgets/meter/../../../../src/core/lv_obj_style_gen.h **** static inline lv_coord_t lv_obj_get_style_y(const struct _lv_obj_t * obj, uint32_t part)
  44:lvgl/src/extra/widgets/meter/../../../../src/core/lv_obj_style_gen.h **** {
  45:lvgl/src/extra/widgets/meter/../../../../src/core/lv_obj_style_gen.h ****     lv_style_value_t v = lv_obj_get_style_prop(obj, part, LV_STYLE_Y);
  46:lvgl/src/extra/widgets/meter/../../../../src/core/lv_obj_style_gen.h ****     return (lv_coord_t)v.num;
  47:lvgl/src/extra/widgets/meter/../../../../src/core/lv_obj_style_gen.h **** }
  48:lvgl/src/extra/widgets/meter/../../../../src/core/lv_obj_style_gen.h **** 
  49:lvgl/src/extra/widgets/meter/../../../../src/core/lv_obj_style_gen.h **** static inline lv_align_t lv_obj_get_style_align(const struct _lv_obj_t * obj, uint32_t part)
  50:lvgl/src/extra/widgets/meter/../../../../src/core/lv_obj_style_gen.h **** {
  51:lvgl/src/extra/widgets/meter/../../../../src/core/lv_obj_style_gen.h ****     lv_style_value_t v = lv_obj_get_style_prop(obj, part, LV_STYLE_ALIGN);
  52:lvgl/src/extra/widgets/meter/../../../../src/core/lv_obj_style_gen.h ****     return (lv_align_t)v.num;
  53:lvgl/src/extra/widgets/meter/../../../../src/core/lv_obj_style_gen.h **** }
  54:lvgl/src/extra/widgets/meter/../../../../src/core/lv_obj_style_gen.h **** 
  55:lvgl/src/extra/widgets/meter/../../../../src/core/lv_obj_style_gen.h **** static inline lv_coord_t lv_obj_get_style_transform_width(const struct _lv_obj_t * obj, uint32_t pa
  56:lvgl/src/extra/widgets/meter/../../../../src/core/lv_obj_style_gen.h **** {
  57:lvgl/src/extra/widgets/meter/../../../../src/core/lv_obj_style_gen.h ****     lv_style_value_t v = lv_obj_get_style_prop(obj, part, LV_STYLE_TRANSFORM_WIDTH);
  58:lvgl/src/extra/widgets/meter/../../../../src/core/lv_obj_style_gen.h ****     return (lv_coord_t)v.num;
  59:lvgl/src/extra/widgets/meter/../../../../src/core/lv_obj_style_gen.h **** }
  60:lvgl/src/extra/widgets/meter/../../../../src/core/lv_obj_style_gen.h **** 
  61:lvgl/src/extra/widgets/meter/../../../../src/core/lv_obj_style_gen.h **** static inline lv_coord_t lv_obj_get_style_transform_height(const struct _lv_obj_t * obj, uint32_t p
  62:lvgl/src/extra/widgets/meter/../../../../src/core/lv_obj_style_gen.h **** {
  63:lvgl/src/extra/widgets/meter/../../../../src/core/lv_obj_style_gen.h ****     lv_style_value_t v = lv_obj_get_style_prop(obj, part, LV_STYLE_TRANSFORM_HEIGHT);
  64:lvgl/src/extra/widgets/meter/../../../../src/core/lv_obj_style_gen.h ****     return (lv_coord_t)v.num;
  65:lvgl/src/extra/widgets/meter/../../../../src/core/lv_obj_style_gen.h **** }
  66:lvgl/src/extra/widgets/meter/../../../../src/core/lv_obj_style_gen.h **** 
  67:lvgl/src/extra/widgets/meter/../../../../src/core/lv_obj_style_gen.h **** static inline lv_coord_t lv_obj_get_style_translate_x(const struct _lv_obj_t * obj, uint32_t part)
  68:lvgl/src/extra/widgets/meter/../../../../src/core/lv_obj_style_gen.h **** {
  69:lvgl/src/extra/widgets/meter/../../../../src/core/lv_obj_style_gen.h ****     lv_style_value_t v = lv_obj_get_style_prop(obj, part, LV_STYLE_TRANSLATE_X);
  70:lvgl/src/extra/widgets/meter/../../../../src/core/lv_obj_style_gen.h ****     return (lv_coord_t)v.num;
  71:lvgl/src/extra/widgets/meter/../../../../src/core/lv_obj_style_gen.h **** }
  72:lvgl/src/extra/widgets/meter/../../../../src/core/lv_obj_style_gen.h **** 
  73:lvgl/src/extra/widgets/meter/../../../../src/core/lv_obj_style_gen.h **** static inline lv_coord_t lv_obj_get_style_translate_y(const struct _lv_obj_t * obj, uint32_t part)
  74:lvgl/src/extra/widgets/meter/../../../../src/core/lv_obj_style_gen.h **** {
  75:lvgl/src/extra/widgets/meter/../../../../src/core/lv_obj_style_gen.h ****     lv_style_value_t v = lv_obj_get_style_prop(obj, part, LV_STYLE_TRANSLATE_Y);
  76:lvgl/src/extra/widgets/meter/../../../../src/core/lv_obj_style_gen.h ****     return (lv_coord_t)v.num;
  77:lvgl/src/extra/widgets/meter/../../../../src/core/lv_obj_style_gen.h **** }
  78:lvgl/src/extra/widgets/meter/../../../../src/core/lv_obj_style_gen.h **** 
  79:lvgl/src/extra/widgets/meter/../../../../src/core/lv_obj_style_gen.h **** static inline lv_coord_t lv_obj_get_style_transform_zoom(const struct _lv_obj_t * obj, uint32_t par
  80:lvgl/src/extra/widgets/meter/../../../../src/core/lv_obj_style_gen.h **** {
  81:lvgl/src/extra/widgets/meter/../../../../src/core/lv_obj_style_gen.h ****     lv_style_value_t v = lv_obj_get_style_prop(obj, part, LV_STYLE_TRANSFORM_ZOOM);
  82:lvgl/src/extra/widgets/meter/../../../../src/core/lv_obj_style_gen.h ****     return (lv_coord_t)v.num;
  83:lvgl/src/extra/widgets/meter/../../../../src/core/lv_obj_style_gen.h **** }
  84:lvgl/src/extra/widgets/meter/../../../../src/core/lv_obj_style_gen.h **** 
  85:lvgl/src/extra/widgets/meter/../../../../src/core/lv_obj_style_gen.h **** static inline lv_coord_t lv_obj_get_style_transform_angle(const struct _lv_obj_t * obj, uint32_t pa
  86:lvgl/src/extra/widgets/meter/../../../../src/core/lv_obj_style_gen.h **** {
  87:lvgl/src/extra/widgets/meter/../../../../src/core/lv_obj_style_gen.h ****     lv_style_value_t v = lv_obj_get_style_prop(obj, part, LV_STYLE_TRANSFORM_ANGLE);
  88:lvgl/src/extra/widgets/meter/../../../../src/core/lv_obj_style_gen.h ****     return (lv_coord_t)v.num;
  89:lvgl/src/extra/widgets/meter/../../../../src/core/lv_obj_style_gen.h **** }
  90:lvgl/src/extra/widgets/meter/../../../../src/core/lv_obj_style_gen.h **** 
  91:lvgl/src/extra/widgets/meter/../../../../src/core/lv_obj_style_gen.h **** static inline lv_coord_t lv_obj_get_style_transform_pivot_x(const struct _lv_obj_t * obj, uint32_t 
  92:lvgl/src/extra/widgets/meter/../../../../src/core/lv_obj_style_gen.h **** {
  93:lvgl/src/extra/widgets/meter/../../../../src/core/lv_obj_style_gen.h ****     lv_style_value_t v = lv_obj_get_style_prop(obj, part, LV_STYLE_TRANSFORM_PIVOT_X);
  94:lvgl/src/extra/widgets/meter/../../../../src/core/lv_obj_style_gen.h ****     return (lv_coord_t)v.num;
ARM GAS  /var/folders/21/t9g5rlb91ys800n5npymflf80000gn/T//ccb01ulG.s 			page 19


  95:lvgl/src/extra/widgets/meter/../../../../src/core/lv_obj_style_gen.h **** }
  96:lvgl/src/extra/widgets/meter/../../../../src/core/lv_obj_style_gen.h **** 
  97:lvgl/src/extra/widgets/meter/../../../../src/core/lv_obj_style_gen.h **** static inline lv_coord_t lv_obj_get_style_transform_pivot_y(const struct _lv_obj_t * obj, uint32_t 
  98:lvgl/src/extra/widgets/meter/../../../../src/core/lv_obj_style_gen.h **** {
  99:lvgl/src/extra/widgets/meter/../../../../src/core/lv_obj_style_gen.h ****     lv_style_value_t v = lv_obj_get_style_prop(obj, part, LV_STYLE_TRANSFORM_PIVOT_Y);
 100:lvgl/src/extra/widgets/meter/../../../../src/core/lv_obj_style_gen.h ****     return (lv_coord_t)v.num;
 101:lvgl/src/extra/widgets/meter/../../../../src/core/lv_obj_style_gen.h **** }
 102:lvgl/src/extra/widgets/meter/../../../../src/core/lv_obj_style_gen.h **** 
 103:lvgl/src/extra/widgets/meter/../../../../src/core/lv_obj_style_gen.h **** static inline lv_coord_t lv_obj_get_style_pad_top(const struct _lv_obj_t * obj, uint32_t part)
 104:lvgl/src/extra/widgets/meter/../../../../src/core/lv_obj_style_gen.h **** {
 105:lvgl/src/extra/widgets/meter/../../../../src/core/lv_obj_style_gen.h ****     lv_style_value_t v = lv_obj_get_style_prop(obj, part, LV_STYLE_PAD_TOP);
 106:lvgl/src/extra/widgets/meter/../../../../src/core/lv_obj_style_gen.h ****     return (lv_coord_t)v.num;
 107:lvgl/src/extra/widgets/meter/../../../../src/core/lv_obj_style_gen.h **** }
 108:lvgl/src/extra/widgets/meter/../../../../src/core/lv_obj_style_gen.h **** 
 109:lvgl/src/extra/widgets/meter/../../../../src/core/lv_obj_style_gen.h **** static inline lv_coord_t lv_obj_get_style_pad_bottom(const struct _lv_obj_t * obj, uint32_t part)
 110:lvgl/src/extra/widgets/meter/../../../../src/core/lv_obj_style_gen.h **** {
 111:lvgl/src/extra/widgets/meter/../../../../src/core/lv_obj_style_gen.h ****     lv_style_value_t v = lv_obj_get_style_prop(obj, part, LV_STYLE_PAD_BOTTOM);
 112:lvgl/src/extra/widgets/meter/../../../../src/core/lv_obj_style_gen.h ****     return (lv_coord_t)v.num;
 113:lvgl/src/extra/widgets/meter/../../../../src/core/lv_obj_style_gen.h **** }
 114:lvgl/src/extra/widgets/meter/../../../../src/core/lv_obj_style_gen.h **** 
 115:lvgl/src/extra/widgets/meter/../../../../src/core/lv_obj_style_gen.h **** static inline lv_coord_t lv_obj_get_style_pad_left(const struct _lv_obj_t * obj, uint32_t part)
 116:lvgl/src/extra/widgets/meter/../../../../src/core/lv_obj_style_gen.h **** {
 117:lvgl/src/extra/widgets/meter/../../../../src/core/lv_obj_style_gen.h ****     lv_style_value_t v = lv_obj_get_style_prop(obj, part, LV_STYLE_PAD_LEFT);
 118:lvgl/src/extra/widgets/meter/../../../../src/core/lv_obj_style_gen.h ****     return (lv_coord_t)v.num;
 119:lvgl/src/extra/widgets/meter/../../../../src/core/lv_obj_style_gen.h **** }
 120:lvgl/src/extra/widgets/meter/../../../../src/core/lv_obj_style_gen.h **** 
 121:lvgl/src/extra/widgets/meter/../../../../src/core/lv_obj_style_gen.h **** static inline lv_coord_t lv_obj_get_style_pad_right(const struct _lv_obj_t * obj, uint32_t part)
 122:lvgl/src/extra/widgets/meter/../../../../src/core/lv_obj_style_gen.h **** {
 123:lvgl/src/extra/widgets/meter/../../../../src/core/lv_obj_style_gen.h ****     lv_style_value_t v = lv_obj_get_style_prop(obj, part, LV_STYLE_PAD_RIGHT);
 124:lvgl/src/extra/widgets/meter/../../../../src/core/lv_obj_style_gen.h ****     return (lv_coord_t)v.num;
 125:lvgl/src/extra/widgets/meter/../../../../src/core/lv_obj_style_gen.h **** }
 126:lvgl/src/extra/widgets/meter/../../../../src/core/lv_obj_style_gen.h **** 
 127:lvgl/src/extra/widgets/meter/../../../../src/core/lv_obj_style_gen.h **** static inline lv_coord_t lv_obj_get_style_pad_row(const struct _lv_obj_t * obj, uint32_t part)
 128:lvgl/src/extra/widgets/meter/../../../../src/core/lv_obj_style_gen.h **** {
 129:lvgl/src/extra/widgets/meter/../../../../src/core/lv_obj_style_gen.h ****     lv_style_value_t v = lv_obj_get_style_prop(obj, part, LV_STYLE_PAD_ROW);
 130:lvgl/src/extra/widgets/meter/../../../../src/core/lv_obj_style_gen.h ****     return (lv_coord_t)v.num;
 131:lvgl/src/extra/widgets/meter/../../../../src/core/lv_obj_style_gen.h **** }
 132:lvgl/src/extra/widgets/meter/../../../../src/core/lv_obj_style_gen.h **** 
 133:lvgl/src/extra/widgets/meter/../../../../src/core/lv_obj_style_gen.h **** static inline lv_coord_t lv_obj_get_style_pad_column(const struct _lv_obj_t * obj, uint32_t part)
 134:lvgl/src/extra/widgets/meter/../../../../src/core/lv_obj_style_gen.h **** {
 135:lvgl/src/extra/widgets/meter/../../../../src/core/lv_obj_style_gen.h ****     lv_style_value_t v = lv_obj_get_style_prop(obj, part, LV_STYLE_PAD_COLUMN);
 136:lvgl/src/extra/widgets/meter/../../../../src/core/lv_obj_style_gen.h ****     return (lv_coord_t)v.num;
 137:lvgl/src/extra/widgets/meter/../../../../src/core/lv_obj_style_gen.h **** }
 138:lvgl/src/extra/widgets/meter/../../../../src/core/lv_obj_style_gen.h **** 
 139:lvgl/src/extra/widgets/meter/../../../../src/core/lv_obj_style_gen.h **** static inline lv_color_t lv_obj_get_style_bg_color(const struct _lv_obj_t * obj, uint32_t part)
 140:lvgl/src/extra/widgets/meter/../../../../src/core/lv_obj_style_gen.h **** {
 141:lvgl/src/extra/widgets/meter/../../../../src/core/lv_obj_style_gen.h ****     lv_style_value_t v = lv_obj_get_style_prop(obj, part, LV_STYLE_BG_COLOR);
 142:lvgl/src/extra/widgets/meter/../../../../src/core/lv_obj_style_gen.h ****     return v.color;
 143:lvgl/src/extra/widgets/meter/../../../../src/core/lv_obj_style_gen.h **** }
 144:lvgl/src/extra/widgets/meter/../../../../src/core/lv_obj_style_gen.h **** 
 145:lvgl/src/extra/widgets/meter/../../../../src/core/lv_obj_style_gen.h **** static inline lv_color_t lv_obj_get_style_bg_color_filtered(const struct _lv_obj_t * obj, uint32_t 
 146:lvgl/src/extra/widgets/meter/../../../../src/core/lv_obj_style_gen.h **** {
 147:lvgl/src/extra/widgets/meter/../../../../src/core/lv_obj_style_gen.h ****     lv_style_value_t v = _lv_obj_style_apply_color_filter(obj, part, lv_obj_get_style_prop(obj, par
 148:lvgl/src/extra/widgets/meter/../../../../src/core/lv_obj_style_gen.h ****     return v.color;
 149:lvgl/src/extra/widgets/meter/../../../../src/core/lv_obj_style_gen.h **** }
 150:lvgl/src/extra/widgets/meter/../../../../src/core/lv_obj_style_gen.h **** 
 151:lvgl/src/extra/widgets/meter/../../../../src/core/lv_obj_style_gen.h **** static inline lv_opa_t lv_obj_get_style_bg_opa(const struct _lv_obj_t * obj, uint32_t part)
ARM GAS  /var/folders/21/t9g5rlb91ys800n5npymflf80000gn/T//ccb01ulG.s 			page 20


 152:lvgl/src/extra/widgets/meter/../../../../src/core/lv_obj_style_gen.h **** {
 153:lvgl/src/extra/widgets/meter/../../../../src/core/lv_obj_style_gen.h ****     lv_style_value_t v = lv_obj_get_style_prop(obj, part, LV_STYLE_BG_OPA);
 154:lvgl/src/extra/widgets/meter/../../../../src/core/lv_obj_style_gen.h ****     return (lv_opa_t)v.num;
 155:lvgl/src/extra/widgets/meter/../../../../src/core/lv_obj_style_gen.h **** }
 156:lvgl/src/extra/widgets/meter/../../../../src/core/lv_obj_style_gen.h **** 
 157:lvgl/src/extra/widgets/meter/../../../../src/core/lv_obj_style_gen.h **** static inline lv_color_t lv_obj_get_style_bg_grad_color(const struct _lv_obj_t * obj, uint32_t part
 158:lvgl/src/extra/widgets/meter/../../../../src/core/lv_obj_style_gen.h **** {
 159:lvgl/src/extra/widgets/meter/../../../../src/core/lv_obj_style_gen.h ****     lv_style_value_t v = lv_obj_get_style_prop(obj, part, LV_STYLE_BG_GRAD_COLOR);
 160:lvgl/src/extra/widgets/meter/../../../../src/core/lv_obj_style_gen.h ****     return v.color;
 161:lvgl/src/extra/widgets/meter/../../../../src/core/lv_obj_style_gen.h **** }
 162:lvgl/src/extra/widgets/meter/../../../../src/core/lv_obj_style_gen.h **** 
 163:lvgl/src/extra/widgets/meter/../../../../src/core/lv_obj_style_gen.h **** static inline lv_color_t lv_obj_get_style_bg_grad_color_filtered(const struct _lv_obj_t * obj, uint
 164:lvgl/src/extra/widgets/meter/../../../../src/core/lv_obj_style_gen.h **** {
 165:lvgl/src/extra/widgets/meter/../../../../src/core/lv_obj_style_gen.h ****     lv_style_value_t v = _lv_obj_style_apply_color_filter(obj, part, lv_obj_get_style_prop(obj, par
 166:lvgl/src/extra/widgets/meter/../../../../src/core/lv_obj_style_gen.h ****     return v.color;
 167:lvgl/src/extra/widgets/meter/../../../../src/core/lv_obj_style_gen.h **** }
 168:lvgl/src/extra/widgets/meter/../../../../src/core/lv_obj_style_gen.h **** 
 169:lvgl/src/extra/widgets/meter/../../../../src/core/lv_obj_style_gen.h **** static inline lv_grad_dir_t lv_obj_get_style_bg_grad_dir(const struct _lv_obj_t * obj, uint32_t par
 170:lvgl/src/extra/widgets/meter/../../../../src/core/lv_obj_style_gen.h **** {
 171:lvgl/src/extra/widgets/meter/../../../../src/core/lv_obj_style_gen.h ****     lv_style_value_t v = lv_obj_get_style_prop(obj, part, LV_STYLE_BG_GRAD_DIR);
 172:lvgl/src/extra/widgets/meter/../../../../src/core/lv_obj_style_gen.h ****     return (lv_grad_dir_t)v.num;
 173:lvgl/src/extra/widgets/meter/../../../../src/core/lv_obj_style_gen.h **** }
 174:lvgl/src/extra/widgets/meter/../../../../src/core/lv_obj_style_gen.h **** 
 175:lvgl/src/extra/widgets/meter/../../../../src/core/lv_obj_style_gen.h **** static inline lv_coord_t lv_obj_get_style_bg_main_stop(const struct _lv_obj_t * obj, uint32_t part)
 176:lvgl/src/extra/widgets/meter/../../../../src/core/lv_obj_style_gen.h **** {
 177:lvgl/src/extra/widgets/meter/../../../../src/core/lv_obj_style_gen.h ****     lv_style_value_t v = lv_obj_get_style_prop(obj, part, LV_STYLE_BG_MAIN_STOP);
 178:lvgl/src/extra/widgets/meter/../../../../src/core/lv_obj_style_gen.h ****     return (lv_coord_t)v.num;
 179:lvgl/src/extra/widgets/meter/../../../../src/core/lv_obj_style_gen.h **** }
 180:lvgl/src/extra/widgets/meter/../../../../src/core/lv_obj_style_gen.h **** 
 181:lvgl/src/extra/widgets/meter/../../../../src/core/lv_obj_style_gen.h **** static inline lv_coord_t lv_obj_get_style_bg_grad_stop(const struct _lv_obj_t * obj, uint32_t part)
 182:lvgl/src/extra/widgets/meter/../../../../src/core/lv_obj_style_gen.h **** {
 183:lvgl/src/extra/widgets/meter/../../../../src/core/lv_obj_style_gen.h ****     lv_style_value_t v = lv_obj_get_style_prop(obj, part, LV_STYLE_BG_GRAD_STOP);
 184:lvgl/src/extra/widgets/meter/../../../../src/core/lv_obj_style_gen.h ****     return (lv_coord_t)v.num;
 185:lvgl/src/extra/widgets/meter/../../../../src/core/lv_obj_style_gen.h **** }
 186:lvgl/src/extra/widgets/meter/../../../../src/core/lv_obj_style_gen.h **** 
 187:lvgl/src/extra/widgets/meter/../../../../src/core/lv_obj_style_gen.h **** static inline const lv_grad_dsc_t * lv_obj_get_style_bg_grad(const struct _lv_obj_t * obj, uint32_t
 188:lvgl/src/extra/widgets/meter/../../../../src/core/lv_obj_style_gen.h **** {
 189:lvgl/src/extra/widgets/meter/../../../../src/core/lv_obj_style_gen.h ****     lv_style_value_t v = lv_obj_get_style_prop(obj, part, LV_STYLE_BG_GRAD);
 190:lvgl/src/extra/widgets/meter/../../../../src/core/lv_obj_style_gen.h ****     return (const lv_grad_dsc_t *)v.ptr;
 191:lvgl/src/extra/widgets/meter/../../../../src/core/lv_obj_style_gen.h **** }
 192:lvgl/src/extra/widgets/meter/../../../../src/core/lv_obj_style_gen.h **** 
 193:lvgl/src/extra/widgets/meter/../../../../src/core/lv_obj_style_gen.h **** static inline lv_dither_mode_t lv_obj_get_style_bg_dither_mode(const struct _lv_obj_t * obj, uint32
 194:lvgl/src/extra/widgets/meter/../../../../src/core/lv_obj_style_gen.h **** {
 195:lvgl/src/extra/widgets/meter/../../../../src/core/lv_obj_style_gen.h ****     lv_style_value_t v = lv_obj_get_style_prop(obj, part, LV_STYLE_BG_DITHER_MODE);
 196:lvgl/src/extra/widgets/meter/../../../../src/core/lv_obj_style_gen.h ****     return (lv_dither_mode_t)v.num;
 197:lvgl/src/extra/widgets/meter/../../../../src/core/lv_obj_style_gen.h **** }
 198:lvgl/src/extra/widgets/meter/../../../../src/core/lv_obj_style_gen.h **** 
 199:lvgl/src/extra/widgets/meter/../../../../src/core/lv_obj_style_gen.h **** static inline const void * lv_obj_get_style_bg_img_src(const struct _lv_obj_t * obj, uint32_t part)
 200:lvgl/src/extra/widgets/meter/../../../../src/core/lv_obj_style_gen.h **** {
 201:lvgl/src/extra/widgets/meter/../../../../src/core/lv_obj_style_gen.h ****     lv_style_value_t v = lv_obj_get_style_prop(obj, part, LV_STYLE_BG_IMG_SRC);
 202:lvgl/src/extra/widgets/meter/../../../../src/core/lv_obj_style_gen.h ****     return (const void *)v.ptr;
 203:lvgl/src/extra/widgets/meter/../../../../src/core/lv_obj_style_gen.h **** }
 204:lvgl/src/extra/widgets/meter/../../../../src/core/lv_obj_style_gen.h **** 
 205:lvgl/src/extra/widgets/meter/../../../../src/core/lv_obj_style_gen.h **** static inline lv_opa_t lv_obj_get_style_bg_img_opa(const struct _lv_obj_t * obj, uint32_t part)
 206:lvgl/src/extra/widgets/meter/../../../../src/core/lv_obj_style_gen.h **** {
 207:lvgl/src/extra/widgets/meter/../../../../src/core/lv_obj_style_gen.h ****     lv_style_value_t v = lv_obj_get_style_prop(obj, part, LV_STYLE_BG_IMG_OPA);
 208:lvgl/src/extra/widgets/meter/../../../../src/core/lv_obj_style_gen.h ****     return (lv_opa_t)v.num;
ARM GAS  /var/folders/21/t9g5rlb91ys800n5npymflf80000gn/T//ccb01ulG.s 			page 21


 209:lvgl/src/extra/widgets/meter/../../../../src/core/lv_obj_style_gen.h **** }
 210:lvgl/src/extra/widgets/meter/../../../../src/core/lv_obj_style_gen.h **** 
 211:lvgl/src/extra/widgets/meter/../../../../src/core/lv_obj_style_gen.h **** static inline lv_color_t lv_obj_get_style_bg_img_recolor(const struct _lv_obj_t * obj, uint32_t par
 212:lvgl/src/extra/widgets/meter/../../../../src/core/lv_obj_style_gen.h **** {
 213:lvgl/src/extra/widgets/meter/../../../../src/core/lv_obj_style_gen.h ****     lv_style_value_t v = lv_obj_get_style_prop(obj, part, LV_STYLE_BG_IMG_RECOLOR);
 214:lvgl/src/extra/widgets/meter/../../../../src/core/lv_obj_style_gen.h ****     return v.color;
 215:lvgl/src/extra/widgets/meter/../../../../src/core/lv_obj_style_gen.h **** }
 216:lvgl/src/extra/widgets/meter/../../../../src/core/lv_obj_style_gen.h **** 
 217:lvgl/src/extra/widgets/meter/../../../../src/core/lv_obj_style_gen.h **** static inline lv_color_t lv_obj_get_style_bg_img_recolor_filtered(const struct _lv_obj_t * obj, uin
 218:lvgl/src/extra/widgets/meter/../../../../src/core/lv_obj_style_gen.h **** {
 219:lvgl/src/extra/widgets/meter/../../../../src/core/lv_obj_style_gen.h ****     lv_style_value_t v = _lv_obj_style_apply_color_filter(obj, part, lv_obj_get_style_prop(obj, par
 220:lvgl/src/extra/widgets/meter/../../../../src/core/lv_obj_style_gen.h ****     return v.color;
 221:lvgl/src/extra/widgets/meter/../../../../src/core/lv_obj_style_gen.h **** }
 222:lvgl/src/extra/widgets/meter/../../../../src/core/lv_obj_style_gen.h **** 
 223:lvgl/src/extra/widgets/meter/../../../../src/core/lv_obj_style_gen.h **** static inline lv_opa_t lv_obj_get_style_bg_img_recolor_opa(const struct _lv_obj_t * obj, uint32_t p
 224:lvgl/src/extra/widgets/meter/../../../../src/core/lv_obj_style_gen.h **** {
 225:lvgl/src/extra/widgets/meter/../../../../src/core/lv_obj_style_gen.h ****     lv_style_value_t v = lv_obj_get_style_prop(obj, part, LV_STYLE_BG_IMG_RECOLOR_OPA);
 226:lvgl/src/extra/widgets/meter/../../../../src/core/lv_obj_style_gen.h ****     return (lv_opa_t)v.num;
 227:lvgl/src/extra/widgets/meter/../../../../src/core/lv_obj_style_gen.h **** }
 228:lvgl/src/extra/widgets/meter/../../../../src/core/lv_obj_style_gen.h **** 
 229:lvgl/src/extra/widgets/meter/../../../../src/core/lv_obj_style_gen.h **** static inline bool lv_obj_get_style_bg_img_tiled(const struct _lv_obj_t * obj, uint32_t part)
 230:lvgl/src/extra/widgets/meter/../../../../src/core/lv_obj_style_gen.h **** {
 231:lvgl/src/extra/widgets/meter/../../../../src/core/lv_obj_style_gen.h ****     lv_style_value_t v = lv_obj_get_style_prop(obj, part, LV_STYLE_BG_IMG_TILED);
 232:lvgl/src/extra/widgets/meter/../../../../src/core/lv_obj_style_gen.h ****     return (bool)v.num;
 233:lvgl/src/extra/widgets/meter/../../../../src/core/lv_obj_style_gen.h **** }
 234:lvgl/src/extra/widgets/meter/../../../../src/core/lv_obj_style_gen.h **** 
 235:lvgl/src/extra/widgets/meter/../../../../src/core/lv_obj_style_gen.h **** static inline lv_color_t lv_obj_get_style_border_color(const struct _lv_obj_t * obj, uint32_t part)
 236:lvgl/src/extra/widgets/meter/../../../../src/core/lv_obj_style_gen.h **** {
 237:lvgl/src/extra/widgets/meter/../../../../src/core/lv_obj_style_gen.h ****     lv_style_value_t v = lv_obj_get_style_prop(obj, part, LV_STYLE_BORDER_COLOR);
 238:lvgl/src/extra/widgets/meter/../../../../src/core/lv_obj_style_gen.h ****     return v.color;
 239:lvgl/src/extra/widgets/meter/../../../../src/core/lv_obj_style_gen.h **** }
 240:lvgl/src/extra/widgets/meter/../../../../src/core/lv_obj_style_gen.h **** 
 241:lvgl/src/extra/widgets/meter/../../../../src/core/lv_obj_style_gen.h **** static inline lv_color_t lv_obj_get_style_border_color_filtered(const struct _lv_obj_t * obj, uint3
 242:lvgl/src/extra/widgets/meter/../../../../src/core/lv_obj_style_gen.h **** {
 243:lvgl/src/extra/widgets/meter/../../../../src/core/lv_obj_style_gen.h ****     lv_style_value_t v = _lv_obj_style_apply_color_filter(obj, part, lv_obj_get_style_prop(obj, par
 244:lvgl/src/extra/widgets/meter/../../../../src/core/lv_obj_style_gen.h ****     return v.color;
 245:lvgl/src/extra/widgets/meter/../../../../src/core/lv_obj_style_gen.h **** }
 246:lvgl/src/extra/widgets/meter/../../../../src/core/lv_obj_style_gen.h **** 
 247:lvgl/src/extra/widgets/meter/../../../../src/core/lv_obj_style_gen.h **** static inline lv_opa_t lv_obj_get_style_border_opa(const struct _lv_obj_t * obj, uint32_t part)
 248:lvgl/src/extra/widgets/meter/../../../../src/core/lv_obj_style_gen.h **** {
 249:lvgl/src/extra/widgets/meter/../../../../src/core/lv_obj_style_gen.h ****     lv_style_value_t v = lv_obj_get_style_prop(obj, part, LV_STYLE_BORDER_OPA);
 250:lvgl/src/extra/widgets/meter/../../../../src/core/lv_obj_style_gen.h ****     return (lv_opa_t)v.num;
 251:lvgl/src/extra/widgets/meter/../../../../src/core/lv_obj_style_gen.h **** }
 252:lvgl/src/extra/widgets/meter/../../../../src/core/lv_obj_style_gen.h **** 
 253:lvgl/src/extra/widgets/meter/../../../../src/core/lv_obj_style_gen.h **** static inline lv_coord_t lv_obj_get_style_border_width(const struct _lv_obj_t * obj, uint32_t part)
 254:lvgl/src/extra/widgets/meter/../../../../src/core/lv_obj_style_gen.h **** {
 255:lvgl/src/extra/widgets/meter/../../../../src/core/lv_obj_style_gen.h ****     lv_style_value_t v = lv_obj_get_style_prop(obj, part, LV_STYLE_BORDER_WIDTH);
 256:lvgl/src/extra/widgets/meter/../../../../src/core/lv_obj_style_gen.h ****     return (lv_coord_t)v.num;
 257:lvgl/src/extra/widgets/meter/../../../../src/core/lv_obj_style_gen.h **** }
 258:lvgl/src/extra/widgets/meter/../../../../src/core/lv_obj_style_gen.h **** 
 259:lvgl/src/extra/widgets/meter/../../../../src/core/lv_obj_style_gen.h **** static inline lv_border_side_t lv_obj_get_style_border_side(const struct _lv_obj_t * obj, uint32_t 
 260:lvgl/src/extra/widgets/meter/../../../../src/core/lv_obj_style_gen.h **** {
 261:lvgl/src/extra/widgets/meter/../../../../src/core/lv_obj_style_gen.h ****     lv_style_value_t v = lv_obj_get_style_prop(obj, part, LV_STYLE_BORDER_SIDE);
 262:lvgl/src/extra/widgets/meter/../../../../src/core/lv_obj_style_gen.h ****     return (lv_border_side_t)v.num;
 263:lvgl/src/extra/widgets/meter/../../../../src/core/lv_obj_style_gen.h **** }
 264:lvgl/src/extra/widgets/meter/../../../../src/core/lv_obj_style_gen.h **** 
 265:lvgl/src/extra/widgets/meter/../../../../src/core/lv_obj_style_gen.h **** static inline bool lv_obj_get_style_border_post(const struct _lv_obj_t * obj, uint32_t part)
ARM GAS  /var/folders/21/t9g5rlb91ys800n5npymflf80000gn/T//ccb01ulG.s 			page 22


 266:lvgl/src/extra/widgets/meter/../../../../src/core/lv_obj_style_gen.h **** {
 267:lvgl/src/extra/widgets/meter/../../../../src/core/lv_obj_style_gen.h ****     lv_style_value_t v = lv_obj_get_style_prop(obj, part, LV_STYLE_BORDER_POST);
 268:lvgl/src/extra/widgets/meter/../../../../src/core/lv_obj_style_gen.h ****     return (bool)v.num;
 269:lvgl/src/extra/widgets/meter/../../../../src/core/lv_obj_style_gen.h **** }
 270:lvgl/src/extra/widgets/meter/../../../../src/core/lv_obj_style_gen.h **** 
 271:lvgl/src/extra/widgets/meter/../../../../src/core/lv_obj_style_gen.h **** static inline lv_coord_t lv_obj_get_style_outline_width(const struct _lv_obj_t * obj, uint32_t part
 272:lvgl/src/extra/widgets/meter/../../../../src/core/lv_obj_style_gen.h **** {
 273:lvgl/src/extra/widgets/meter/../../../../src/core/lv_obj_style_gen.h ****     lv_style_value_t v = lv_obj_get_style_prop(obj, part, LV_STYLE_OUTLINE_WIDTH);
 274:lvgl/src/extra/widgets/meter/../../../../src/core/lv_obj_style_gen.h ****     return (lv_coord_t)v.num;
 275:lvgl/src/extra/widgets/meter/../../../../src/core/lv_obj_style_gen.h **** }
 276:lvgl/src/extra/widgets/meter/../../../../src/core/lv_obj_style_gen.h **** 
 277:lvgl/src/extra/widgets/meter/../../../../src/core/lv_obj_style_gen.h **** static inline lv_color_t lv_obj_get_style_outline_color(const struct _lv_obj_t * obj, uint32_t part
 278:lvgl/src/extra/widgets/meter/../../../../src/core/lv_obj_style_gen.h **** {
 279:lvgl/src/extra/widgets/meter/../../../../src/core/lv_obj_style_gen.h ****     lv_style_value_t v = lv_obj_get_style_prop(obj, part, LV_STYLE_OUTLINE_COLOR);
 280:lvgl/src/extra/widgets/meter/../../../../src/core/lv_obj_style_gen.h ****     return v.color;
 281:lvgl/src/extra/widgets/meter/../../../../src/core/lv_obj_style_gen.h **** }
 282:lvgl/src/extra/widgets/meter/../../../../src/core/lv_obj_style_gen.h **** 
 283:lvgl/src/extra/widgets/meter/../../../../src/core/lv_obj_style_gen.h **** static inline lv_color_t lv_obj_get_style_outline_color_filtered(const struct _lv_obj_t * obj, uint
 284:lvgl/src/extra/widgets/meter/../../../../src/core/lv_obj_style_gen.h **** {
 285:lvgl/src/extra/widgets/meter/../../../../src/core/lv_obj_style_gen.h ****     lv_style_value_t v = _lv_obj_style_apply_color_filter(obj, part, lv_obj_get_style_prop(obj, par
 286:lvgl/src/extra/widgets/meter/../../../../src/core/lv_obj_style_gen.h ****     return v.color;
 287:lvgl/src/extra/widgets/meter/../../../../src/core/lv_obj_style_gen.h **** }
 288:lvgl/src/extra/widgets/meter/../../../../src/core/lv_obj_style_gen.h **** 
 289:lvgl/src/extra/widgets/meter/../../../../src/core/lv_obj_style_gen.h **** static inline lv_opa_t lv_obj_get_style_outline_opa(const struct _lv_obj_t * obj, uint32_t part)
 290:lvgl/src/extra/widgets/meter/../../../../src/core/lv_obj_style_gen.h **** {
 291:lvgl/src/extra/widgets/meter/../../../../src/core/lv_obj_style_gen.h ****     lv_style_value_t v = lv_obj_get_style_prop(obj, part, LV_STYLE_OUTLINE_OPA);
 292:lvgl/src/extra/widgets/meter/../../../../src/core/lv_obj_style_gen.h ****     return (lv_opa_t)v.num;
 293:lvgl/src/extra/widgets/meter/../../../../src/core/lv_obj_style_gen.h **** }
 294:lvgl/src/extra/widgets/meter/../../../../src/core/lv_obj_style_gen.h **** 
 295:lvgl/src/extra/widgets/meter/../../../../src/core/lv_obj_style_gen.h **** static inline lv_coord_t lv_obj_get_style_outline_pad(const struct _lv_obj_t * obj, uint32_t part)
 296:lvgl/src/extra/widgets/meter/../../../../src/core/lv_obj_style_gen.h **** {
 297:lvgl/src/extra/widgets/meter/../../../../src/core/lv_obj_style_gen.h ****     lv_style_value_t v = lv_obj_get_style_prop(obj, part, LV_STYLE_OUTLINE_PAD);
 298:lvgl/src/extra/widgets/meter/../../../../src/core/lv_obj_style_gen.h ****     return (lv_coord_t)v.num;
 299:lvgl/src/extra/widgets/meter/../../../../src/core/lv_obj_style_gen.h **** }
 300:lvgl/src/extra/widgets/meter/../../../../src/core/lv_obj_style_gen.h **** 
 301:lvgl/src/extra/widgets/meter/../../../../src/core/lv_obj_style_gen.h **** static inline lv_coord_t lv_obj_get_style_shadow_width(const struct _lv_obj_t * obj, uint32_t part)
 302:lvgl/src/extra/widgets/meter/../../../../src/core/lv_obj_style_gen.h **** {
 303:lvgl/src/extra/widgets/meter/../../../../src/core/lv_obj_style_gen.h ****     lv_style_value_t v = lv_obj_get_style_prop(obj, part, LV_STYLE_SHADOW_WIDTH);
 304:lvgl/src/extra/widgets/meter/../../../../src/core/lv_obj_style_gen.h ****     return (lv_coord_t)v.num;
 305:lvgl/src/extra/widgets/meter/../../../../src/core/lv_obj_style_gen.h **** }
 306:lvgl/src/extra/widgets/meter/../../../../src/core/lv_obj_style_gen.h **** 
 307:lvgl/src/extra/widgets/meter/../../../../src/core/lv_obj_style_gen.h **** static inline lv_coord_t lv_obj_get_style_shadow_ofs_x(const struct _lv_obj_t * obj, uint32_t part)
 308:lvgl/src/extra/widgets/meter/../../../../src/core/lv_obj_style_gen.h **** {
 309:lvgl/src/extra/widgets/meter/../../../../src/core/lv_obj_style_gen.h ****     lv_style_value_t v = lv_obj_get_style_prop(obj, part, LV_STYLE_SHADOW_OFS_X);
 310:lvgl/src/extra/widgets/meter/../../../../src/core/lv_obj_style_gen.h ****     return (lv_coord_t)v.num;
 311:lvgl/src/extra/widgets/meter/../../../../src/core/lv_obj_style_gen.h **** }
 312:lvgl/src/extra/widgets/meter/../../../../src/core/lv_obj_style_gen.h **** 
 313:lvgl/src/extra/widgets/meter/../../../../src/core/lv_obj_style_gen.h **** static inline lv_coord_t lv_obj_get_style_shadow_ofs_y(const struct _lv_obj_t * obj, uint32_t part)
 314:lvgl/src/extra/widgets/meter/../../../../src/core/lv_obj_style_gen.h **** {
 315:lvgl/src/extra/widgets/meter/../../../../src/core/lv_obj_style_gen.h ****     lv_style_value_t v = lv_obj_get_style_prop(obj, part, LV_STYLE_SHADOW_OFS_Y);
 316:lvgl/src/extra/widgets/meter/../../../../src/core/lv_obj_style_gen.h ****     return (lv_coord_t)v.num;
 317:lvgl/src/extra/widgets/meter/../../../../src/core/lv_obj_style_gen.h **** }
 318:lvgl/src/extra/widgets/meter/../../../../src/core/lv_obj_style_gen.h **** 
 319:lvgl/src/extra/widgets/meter/../../../../src/core/lv_obj_style_gen.h **** static inline lv_coord_t lv_obj_get_style_shadow_spread(const struct _lv_obj_t * obj, uint32_t part
 320:lvgl/src/extra/widgets/meter/../../../../src/core/lv_obj_style_gen.h **** {
 321:lvgl/src/extra/widgets/meter/../../../../src/core/lv_obj_style_gen.h ****     lv_style_value_t v = lv_obj_get_style_prop(obj, part, LV_STYLE_SHADOW_SPREAD);
 322:lvgl/src/extra/widgets/meter/../../../../src/core/lv_obj_style_gen.h ****     return (lv_coord_t)v.num;
ARM GAS  /var/folders/21/t9g5rlb91ys800n5npymflf80000gn/T//ccb01ulG.s 			page 23


 323:lvgl/src/extra/widgets/meter/../../../../src/core/lv_obj_style_gen.h **** }
 324:lvgl/src/extra/widgets/meter/../../../../src/core/lv_obj_style_gen.h **** 
 325:lvgl/src/extra/widgets/meter/../../../../src/core/lv_obj_style_gen.h **** static inline lv_color_t lv_obj_get_style_shadow_color(const struct _lv_obj_t * obj, uint32_t part)
 326:lvgl/src/extra/widgets/meter/../../../../src/core/lv_obj_style_gen.h **** {
 327:lvgl/src/extra/widgets/meter/../../../../src/core/lv_obj_style_gen.h ****     lv_style_value_t v = lv_obj_get_style_prop(obj, part, LV_STYLE_SHADOW_COLOR);
 328:lvgl/src/extra/widgets/meter/../../../../src/core/lv_obj_style_gen.h ****     return v.color;
 329:lvgl/src/extra/widgets/meter/../../../../src/core/lv_obj_style_gen.h **** }
 330:lvgl/src/extra/widgets/meter/../../../../src/core/lv_obj_style_gen.h **** 
 331:lvgl/src/extra/widgets/meter/../../../../src/core/lv_obj_style_gen.h **** static inline lv_color_t lv_obj_get_style_shadow_color_filtered(const struct _lv_obj_t * obj, uint3
 332:lvgl/src/extra/widgets/meter/../../../../src/core/lv_obj_style_gen.h **** {
 333:lvgl/src/extra/widgets/meter/../../../../src/core/lv_obj_style_gen.h ****     lv_style_value_t v = _lv_obj_style_apply_color_filter(obj, part, lv_obj_get_style_prop(obj, par
 334:lvgl/src/extra/widgets/meter/../../../../src/core/lv_obj_style_gen.h ****     return v.color;
 335:lvgl/src/extra/widgets/meter/../../../../src/core/lv_obj_style_gen.h **** }
 336:lvgl/src/extra/widgets/meter/../../../../src/core/lv_obj_style_gen.h **** 
 337:lvgl/src/extra/widgets/meter/../../../../src/core/lv_obj_style_gen.h **** static inline lv_opa_t lv_obj_get_style_shadow_opa(const struct _lv_obj_t * obj, uint32_t part)
 338:lvgl/src/extra/widgets/meter/../../../../src/core/lv_obj_style_gen.h **** {
 339:lvgl/src/extra/widgets/meter/../../../../src/core/lv_obj_style_gen.h ****     lv_style_value_t v = lv_obj_get_style_prop(obj, part, LV_STYLE_SHADOW_OPA);
 340:lvgl/src/extra/widgets/meter/../../../../src/core/lv_obj_style_gen.h ****     return (lv_opa_t)v.num;
 341:lvgl/src/extra/widgets/meter/../../../../src/core/lv_obj_style_gen.h **** }
 342:lvgl/src/extra/widgets/meter/../../../../src/core/lv_obj_style_gen.h **** 
 343:lvgl/src/extra/widgets/meter/../../../../src/core/lv_obj_style_gen.h **** static inline lv_opa_t lv_obj_get_style_img_opa(const struct _lv_obj_t * obj, uint32_t part)
 344:lvgl/src/extra/widgets/meter/../../../../src/core/lv_obj_style_gen.h **** {
 345:lvgl/src/extra/widgets/meter/../../../../src/core/lv_obj_style_gen.h ****     lv_style_value_t v = lv_obj_get_style_prop(obj, part, LV_STYLE_IMG_OPA);
 346:lvgl/src/extra/widgets/meter/../../../../src/core/lv_obj_style_gen.h ****     return (lv_opa_t)v.num;
 347:lvgl/src/extra/widgets/meter/../../../../src/core/lv_obj_style_gen.h **** }
 348:lvgl/src/extra/widgets/meter/../../../../src/core/lv_obj_style_gen.h **** 
 349:lvgl/src/extra/widgets/meter/../../../../src/core/lv_obj_style_gen.h **** static inline lv_color_t lv_obj_get_style_img_recolor(const struct _lv_obj_t * obj, uint32_t part)
 350:lvgl/src/extra/widgets/meter/../../../../src/core/lv_obj_style_gen.h **** {
 351:lvgl/src/extra/widgets/meter/../../../../src/core/lv_obj_style_gen.h ****     lv_style_value_t v = lv_obj_get_style_prop(obj, part, LV_STYLE_IMG_RECOLOR);
 352:lvgl/src/extra/widgets/meter/../../../../src/core/lv_obj_style_gen.h ****     return v.color;
 353:lvgl/src/extra/widgets/meter/../../../../src/core/lv_obj_style_gen.h **** }
 354:lvgl/src/extra/widgets/meter/../../../../src/core/lv_obj_style_gen.h **** 
 355:lvgl/src/extra/widgets/meter/../../../../src/core/lv_obj_style_gen.h **** static inline lv_color_t lv_obj_get_style_img_recolor_filtered(const struct _lv_obj_t * obj, uint32
 356:lvgl/src/extra/widgets/meter/../../../../src/core/lv_obj_style_gen.h **** {
 357:lvgl/src/extra/widgets/meter/../../../../src/core/lv_obj_style_gen.h ****     lv_style_value_t v = _lv_obj_style_apply_color_filter(obj, part, lv_obj_get_style_prop(obj, par
 358:lvgl/src/extra/widgets/meter/../../../../src/core/lv_obj_style_gen.h ****     return v.color;
 359:lvgl/src/extra/widgets/meter/../../../../src/core/lv_obj_style_gen.h **** }
 360:lvgl/src/extra/widgets/meter/../../../../src/core/lv_obj_style_gen.h **** 
 361:lvgl/src/extra/widgets/meter/../../../../src/core/lv_obj_style_gen.h **** static inline lv_opa_t lv_obj_get_style_img_recolor_opa(const struct _lv_obj_t * obj, uint32_t part
 362:lvgl/src/extra/widgets/meter/../../../../src/core/lv_obj_style_gen.h **** {
 363:lvgl/src/extra/widgets/meter/../../../../src/core/lv_obj_style_gen.h ****     lv_style_value_t v = lv_obj_get_style_prop(obj, part, LV_STYLE_IMG_RECOLOR_OPA);
 364:lvgl/src/extra/widgets/meter/../../../../src/core/lv_obj_style_gen.h ****     return (lv_opa_t)v.num;
 365:lvgl/src/extra/widgets/meter/../../../../src/core/lv_obj_style_gen.h **** }
 366:lvgl/src/extra/widgets/meter/../../../../src/core/lv_obj_style_gen.h **** 
 367:lvgl/src/extra/widgets/meter/../../../../src/core/lv_obj_style_gen.h **** static inline lv_coord_t lv_obj_get_style_line_width(const struct _lv_obj_t * obj, uint32_t part)
 368:lvgl/src/extra/widgets/meter/../../../../src/core/lv_obj_style_gen.h **** {
 369:lvgl/src/extra/widgets/meter/../../../../src/core/lv_obj_style_gen.h ****     lv_style_value_t v = lv_obj_get_style_prop(obj, part, LV_STYLE_LINE_WIDTH);
 370:lvgl/src/extra/widgets/meter/../../../../src/core/lv_obj_style_gen.h ****     return (lv_coord_t)v.num;
 371:lvgl/src/extra/widgets/meter/../../../../src/core/lv_obj_style_gen.h **** }
 372:lvgl/src/extra/widgets/meter/../../../../src/core/lv_obj_style_gen.h **** 
 373:lvgl/src/extra/widgets/meter/../../../../src/core/lv_obj_style_gen.h **** static inline lv_coord_t lv_obj_get_style_line_dash_width(const struct _lv_obj_t * obj, uint32_t pa
 374:lvgl/src/extra/widgets/meter/../../../../src/core/lv_obj_style_gen.h **** {
 375:lvgl/src/extra/widgets/meter/../../../../src/core/lv_obj_style_gen.h ****     lv_style_value_t v = lv_obj_get_style_prop(obj, part, LV_STYLE_LINE_DASH_WIDTH);
 376:lvgl/src/extra/widgets/meter/../../../../src/core/lv_obj_style_gen.h ****     return (lv_coord_t)v.num;
 377:lvgl/src/extra/widgets/meter/../../../../src/core/lv_obj_style_gen.h **** }
 378:lvgl/src/extra/widgets/meter/../../../../src/core/lv_obj_style_gen.h **** 
 379:lvgl/src/extra/widgets/meter/../../../../src/core/lv_obj_style_gen.h **** static inline lv_coord_t lv_obj_get_style_line_dash_gap(const struct _lv_obj_t * obj, uint32_t part
ARM GAS  /var/folders/21/t9g5rlb91ys800n5npymflf80000gn/T//ccb01ulG.s 			page 24


 380:lvgl/src/extra/widgets/meter/../../../../src/core/lv_obj_style_gen.h **** {
 381:lvgl/src/extra/widgets/meter/../../../../src/core/lv_obj_style_gen.h ****     lv_style_value_t v = lv_obj_get_style_prop(obj, part, LV_STYLE_LINE_DASH_GAP);
 382:lvgl/src/extra/widgets/meter/../../../../src/core/lv_obj_style_gen.h ****     return (lv_coord_t)v.num;
 383:lvgl/src/extra/widgets/meter/../../../../src/core/lv_obj_style_gen.h **** }
 384:lvgl/src/extra/widgets/meter/../../../../src/core/lv_obj_style_gen.h **** 
 385:lvgl/src/extra/widgets/meter/../../../../src/core/lv_obj_style_gen.h **** static inline bool lv_obj_get_style_line_rounded(const struct _lv_obj_t * obj, uint32_t part)
 386:lvgl/src/extra/widgets/meter/../../../../src/core/lv_obj_style_gen.h **** {
 387:lvgl/src/extra/widgets/meter/../../../../src/core/lv_obj_style_gen.h ****     lv_style_value_t v = lv_obj_get_style_prop(obj, part, LV_STYLE_LINE_ROUNDED);
 388:lvgl/src/extra/widgets/meter/../../../../src/core/lv_obj_style_gen.h ****     return (bool)v.num;
 389:lvgl/src/extra/widgets/meter/../../../../src/core/lv_obj_style_gen.h **** }
 390:lvgl/src/extra/widgets/meter/../../../../src/core/lv_obj_style_gen.h **** 
 391:lvgl/src/extra/widgets/meter/../../../../src/core/lv_obj_style_gen.h **** static inline lv_color_t lv_obj_get_style_line_color(const struct _lv_obj_t * obj, uint32_t part)
 392:lvgl/src/extra/widgets/meter/../../../../src/core/lv_obj_style_gen.h **** {
 393:lvgl/src/extra/widgets/meter/../../../../src/core/lv_obj_style_gen.h ****     lv_style_value_t v = lv_obj_get_style_prop(obj, part, LV_STYLE_LINE_COLOR);
 394:lvgl/src/extra/widgets/meter/../../../../src/core/lv_obj_style_gen.h ****     return v.color;
 395:lvgl/src/extra/widgets/meter/../../../../src/core/lv_obj_style_gen.h **** }
 396:lvgl/src/extra/widgets/meter/../../../../src/core/lv_obj_style_gen.h **** 
 397:lvgl/src/extra/widgets/meter/../../../../src/core/lv_obj_style_gen.h **** static inline lv_color_t lv_obj_get_style_line_color_filtered(const struct _lv_obj_t * obj, uint32_
 398:lvgl/src/extra/widgets/meter/../../../../src/core/lv_obj_style_gen.h **** {
 399:lvgl/src/extra/widgets/meter/../../../../src/core/lv_obj_style_gen.h ****     lv_style_value_t v = _lv_obj_style_apply_color_filter(obj, part, lv_obj_get_style_prop(obj, par
 400:lvgl/src/extra/widgets/meter/../../../../src/core/lv_obj_style_gen.h ****     return v.color;
 401:lvgl/src/extra/widgets/meter/../../../../src/core/lv_obj_style_gen.h **** }
 402:lvgl/src/extra/widgets/meter/../../../../src/core/lv_obj_style_gen.h **** 
 403:lvgl/src/extra/widgets/meter/../../../../src/core/lv_obj_style_gen.h **** static inline lv_opa_t lv_obj_get_style_line_opa(const struct _lv_obj_t * obj, uint32_t part)
 404:lvgl/src/extra/widgets/meter/../../../../src/core/lv_obj_style_gen.h **** {
 405:lvgl/src/extra/widgets/meter/../../../../src/core/lv_obj_style_gen.h ****     lv_style_value_t v = lv_obj_get_style_prop(obj, part, LV_STYLE_LINE_OPA);
 406:lvgl/src/extra/widgets/meter/../../../../src/core/lv_obj_style_gen.h ****     return (lv_opa_t)v.num;
 407:lvgl/src/extra/widgets/meter/../../../../src/core/lv_obj_style_gen.h **** }
 408:lvgl/src/extra/widgets/meter/../../../../src/core/lv_obj_style_gen.h **** 
 409:lvgl/src/extra/widgets/meter/../../../../src/core/lv_obj_style_gen.h **** static inline lv_coord_t lv_obj_get_style_arc_width(const struct _lv_obj_t * obj, uint32_t part)
 410:lvgl/src/extra/widgets/meter/../../../../src/core/lv_obj_style_gen.h **** {
 411:lvgl/src/extra/widgets/meter/../../../../src/core/lv_obj_style_gen.h ****     lv_style_value_t v = lv_obj_get_style_prop(obj, part, LV_STYLE_ARC_WIDTH);
 412:lvgl/src/extra/widgets/meter/../../../../src/core/lv_obj_style_gen.h ****     return (lv_coord_t)v.num;
 413:lvgl/src/extra/widgets/meter/../../../../src/core/lv_obj_style_gen.h **** }
 414:lvgl/src/extra/widgets/meter/../../../../src/core/lv_obj_style_gen.h **** 
 415:lvgl/src/extra/widgets/meter/../../../../src/core/lv_obj_style_gen.h **** static inline bool lv_obj_get_style_arc_rounded(const struct _lv_obj_t * obj, uint32_t part)
 132              		.loc 3 415 20 view .LVU27
 133              	.LBB44:
 416:lvgl/src/extra/widgets/meter/../../../../src/core/lv_obj_style_gen.h **** {
 417:lvgl/src/extra/widgets/meter/../../../../src/core/lv_obj_style_gen.h ****     lv_style_value_t v = lv_obj_get_style_prop(obj, part, LV_STYLE_ARC_ROUNDED);
 134              		.loc 3 417 5 view .LVU28
 135              		.loc 3 417 26 is_stmt 0 view .LVU29
 136 0014 5122     		movs	r2, #81
 137 0016 4FF4A021 		mov	r1, #327680
 138 001a 4046     		mov	r0, r8
 139 001c FFF7FEFF 		bl	lv_obj_get_style_prop
 140              	.LVL15:
 418:lvgl/src/extra/widgets/meter/../../../../src/core/lv_obj_style_gen.h ****     return (bool)v.num;
 141              		.loc 3 418 5 is_stmt 1 view .LVU30
 142              		.loc 3 418 12 is_stmt 0 view .LVU31
 143 0020 0038     		subs	r0, r0, #0
 144 0022 18BF     		it	ne
 145 0024 0120     		movne	r0, #1
 146              	.LVL16:
 147              		.loc 3 418 12 view .LVU32
 148              	.LBE44:
 149              	.LBE43:
ARM GAS  /var/folders/21/t9g5rlb91ys800n5npymflf80000gn/T//ccb01ulG.s 			page 25


 150              		.loc 1 332 21 view .LVU33
 151 0026 9DF86D30 		ldrb	r3, [sp, #109]	@ zero_extendqisi2
 152 002a 60F38203 		bfi	r3, r0, #2, #1
 153 002e 8DF86D30 		strb	r3, [sp, #109]
 333:lvgl/src/extra/widgets/meter/lv_meter.c **** 
 334:lvgl/src/extra/widgets/meter/lv_meter.c ****     lv_coord_t r_out = lv_area_get_width(scale_area) / 2 ;
 154              		.loc 1 334 5 is_stmt 1 view .LVU34
 155              	.LVL17:
 156              	.LBB45:
 157              	.LBI45:
 158              		.file 4 "lvgl/src/extra/widgets/meter/../../../../src/hal/../draw/../misc/../font/../misc/lv_area.
   1:lvgl/src/extra/widgets/meter/../../../../src/hal/../draw/../misc/../font/../misc/lv_area.h **** /**
   2:lvgl/src/extra/widgets/meter/../../../../src/hal/../draw/../misc/../font/../misc/lv_area.h ****  * @file lv_area.h
   3:lvgl/src/extra/widgets/meter/../../../../src/hal/../draw/../misc/../font/../misc/lv_area.h ****  *
   4:lvgl/src/extra/widgets/meter/../../../../src/hal/../draw/../misc/../font/../misc/lv_area.h ****  */
   5:lvgl/src/extra/widgets/meter/../../../../src/hal/../draw/../misc/../font/../misc/lv_area.h **** 
   6:lvgl/src/extra/widgets/meter/../../../../src/hal/../draw/../misc/../font/../misc/lv_area.h **** #ifndef LV_AREA_H
   7:lvgl/src/extra/widgets/meter/../../../../src/hal/../draw/../misc/../font/../misc/lv_area.h **** #define LV_AREA_H
   8:lvgl/src/extra/widgets/meter/../../../../src/hal/../draw/../misc/../font/../misc/lv_area.h **** 
   9:lvgl/src/extra/widgets/meter/../../../../src/hal/../draw/../misc/../font/../misc/lv_area.h **** #ifdef __cplusplus
  10:lvgl/src/extra/widgets/meter/../../../../src/hal/../draw/../misc/../font/../misc/lv_area.h **** extern "C" {
  11:lvgl/src/extra/widgets/meter/../../../../src/hal/../draw/../misc/../font/../misc/lv_area.h **** #endif
  12:lvgl/src/extra/widgets/meter/../../../../src/hal/../draw/../misc/../font/../misc/lv_area.h **** 
  13:lvgl/src/extra/widgets/meter/../../../../src/hal/../draw/../misc/../font/../misc/lv_area.h **** /*********************
  14:lvgl/src/extra/widgets/meter/../../../../src/hal/../draw/../misc/../font/../misc/lv_area.h ****  *      INCLUDES
  15:lvgl/src/extra/widgets/meter/../../../../src/hal/../draw/../misc/../font/../misc/lv_area.h ****  *********************/
  16:lvgl/src/extra/widgets/meter/../../../../src/hal/../draw/../misc/../font/../misc/lv_area.h **** #include "../lv_conf_internal.h"
  17:lvgl/src/extra/widgets/meter/../../../../src/hal/../draw/../misc/../font/../misc/lv_area.h **** #include <stdbool.h>
  18:lvgl/src/extra/widgets/meter/../../../../src/hal/../draw/../misc/../font/../misc/lv_area.h **** #include <stdint.h>
  19:lvgl/src/extra/widgets/meter/../../../../src/hal/../draw/../misc/../font/../misc/lv_area.h **** 
  20:lvgl/src/extra/widgets/meter/../../../../src/hal/../draw/../misc/../font/../misc/lv_area.h **** /*********************
  21:lvgl/src/extra/widgets/meter/../../../../src/hal/../draw/../misc/../font/../misc/lv_area.h ****  *      DEFINES
  22:lvgl/src/extra/widgets/meter/../../../../src/hal/../draw/../misc/../font/../misc/lv_area.h ****  *********************/
  23:lvgl/src/extra/widgets/meter/../../../../src/hal/../draw/../misc/../font/../misc/lv_area.h **** 
  24:lvgl/src/extra/widgets/meter/../../../../src/hal/../draw/../misc/../font/../misc/lv_area.h **** #if LV_USE_LARGE_COORD
  25:lvgl/src/extra/widgets/meter/../../../../src/hal/../draw/../misc/../font/../misc/lv_area.h **** typedef int32_t lv_coord_t;
  26:lvgl/src/extra/widgets/meter/../../../../src/hal/../draw/../misc/../font/../misc/lv_area.h **** #else
  27:lvgl/src/extra/widgets/meter/../../../../src/hal/../draw/../misc/../font/../misc/lv_area.h **** typedef int16_t lv_coord_t;
  28:lvgl/src/extra/widgets/meter/../../../../src/hal/../draw/../misc/../font/../misc/lv_area.h **** #endif
  29:lvgl/src/extra/widgets/meter/../../../../src/hal/../draw/../misc/../font/../misc/lv_area.h **** 
  30:lvgl/src/extra/widgets/meter/../../../../src/hal/../draw/../misc/../font/../misc/lv_area.h **** /**********************
  31:lvgl/src/extra/widgets/meter/../../../../src/hal/../draw/../misc/../font/../misc/lv_area.h ****  *      TYPEDEFS
  32:lvgl/src/extra/widgets/meter/../../../../src/hal/../draw/../misc/../font/../misc/lv_area.h ****  **********************/
  33:lvgl/src/extra/widgets/meter/../../../../src/hal/../draw/../misc/../font/../misc/lv_area.h **** 
  34:lvgl/src/extra/widgets/meter/../../../../src/hal/../draw/../misc/../font/../misc/lv_area.h **** /**
  35:lvgl/src/extra/widgets/meter/../../../../src/hal/../draw/../misc/../font/../misc/lv_area.h ****  * Represents a point on the screen.
  36:lvgl/src/extra/widgets/meter/../../../../src/hal/../draw/../misc/../font/../misc/lv_area.h ****  */
  37:lvgl/src/extra/widgets/meter/../../../../src/hal/../draw/../misc/../font/../misc/lv_area.h **** typedef struct {
  38:lvgl/src/extra/widgets/meter/../../../../src/hal/../draw/../misc/../font/../misc/lv_area.h ****     lv_coord_t x;
  39:lvgl/src/extra/widgets/meter/../../../../src/hal/../draw/../misc/../font/../misc/lv_area.h ****     lv_coord_t y;
  40:lvgl/src/extra/widgets/meter/../../../../src/hal/../draw/../misc/../font/../misc/lv_area.h **** } lv_point_t;
  41:lvgl/src/extra/widgets/meter/../../../../src/hal/../draw/../misc/../font/../misc/lv_area.h **** 
  42:lvgl/src/extra/widgets/meter/../../../../src/hal/../draw/../misc/../font/../misc/lv_area.h **** /** Represents an area of the screen.*/
  43:lvgl/src/extra/widgets/meter/../../../../src/hal/../draw/../misc/../font/../misc/lv_area.h **** typedef struct {
  44:lvgl/src/extra/widgets/meter/../../../../src/hal/../draw/../misc/../font/../misc/lv_area.h ****     lv_coord_t x1;
  45:lvgl/src/extra/widgets/meter/../../../../src/hal/../draw/../misc/../font/../misc/lv_area.h ****     lv_coord_t y1;
  46:lvgl/src/extra/widgets/meter/../../../../src/hal/../draw/../misc/../font/../misc/lv_area.h ****     lv_coord_t x2;
ARM GAS  /var/folders/21/t9g5rlb91ys800n5npymflf80000gn/T//ccb01ulG.s 			page 26


  47:lvgl/src/extra/widgets/meter/../../../../src/hal/../draw/../misc/../font/../misc/lv_area.h ****     lv_coord_t y2;
  48:lvgl/src/extra/widgets/meter/../../../../src/hal/../draw/../misc/../font/../misc/lv_area.h **** } lv_area_t;
  49:lvgl/src/extra/widgets/meter/../../../../src/hal/../draw/../misc/../font/../misc/lv_area.h **** 
  50:lvgl/src/extra/widgets/meter/../../../../src/hal/../draw/../misc/../font/../misc/lv_area.h **** /** Alignments*/
  51:lvgl/src/extra/widgets/meter/../../../../src/hal/../draw/../misc/../font/../misc/lv_area.h **** enum {
  52:lvgl/src/extra/widgets/meter/../../../../src/hal/../draw/../misc/../font/../misc/lv_area.h ****     LV_ALIGN_DEFAULT = 0,
  53:lvgl/src/extra/widgets/meter/../../../../src/hal/../draw/../misc/../font/../misc/lv_area.h ****     LV_ALIGN_TOP_LEFT,
  54:lvgl/src/extra/widgets/meter/../../../../src/hal/../draw/../misc/../font/../misc/lv_area.h ****     LV_ALIGN_TOP_MID,
  55:lvgl/src/extra/widgets/meter/../../../../src/hal/../draw/../misc/../font/../misc/lv_area.h ****     LV_ALIGN_TOP_RIGHT,
  56:lvgl/src/extra/widgets/meter/../../../../src/hal/../draw/../misc/../font/../misc/lv_area.h ****     LV_ALIGN_BOTTOM_LEFT,
  57:lvgl/src/extra/widgets/meter/../../../../src/hal/../draw/../misc/../font/../misc/lv_area.h ****     LV_ALIGN_BOTTOM_MID,
  58:lvgl/src/extra/widgets/meter/../../../../src/hal/../draw/../misc/../font/../misc/lv_area.h ****     LV_ALIGN_BOTTOM_RIGHT,
  59:lvgl/src/extra/widgets/meter/../../../../src/hal/../draw/../misc/../font/../misc/lv_area.h ****     LV_ALIGN_LEFT_MID,
  60:lvgl/src/extra/widgets/meter/../../../../src/hal/../draw/../misc/../font/../misc/lv_area.h ****     LV_ALIGN_RIGHT_MID,
  61:lvgl/src/extra/widgets/meter/../../../../src/hal/../draw/../misc/../font/../misc/lv_area.h ****     LV_ALIGN_CENTER,
  62:lvgl/src/extra/widgets/meter/../../../../src/hal/../draw/../misc/../font/../misc/lv_area.h **** 
  63:lvgl/src/extra/widgets/meter/../../../../src/hal/../draw/../misc/../font/../misc/lv_area.h ****     LV_ALIGN_OUT_TOP_LEFT,
  64:lvgl/src/extra/widgets/meter/../../../../src/hal/../draw/../misc/../font/../misc/lv_area.h ****     LV_ALIGN_OUT_TOP_MID,
  65:lvgl/src/extra/widgets/meter/../../../../src/hal/../draw/../misc/../font/../misc/lv_area.h ****     LV_ALIGN_OUT_TOP_RIGHT,
  66:lvgl/src/extra/widgets/meter/../../../../src/hal/../draw/../misc/../font/../misc/lv_area.h ****     LV_ALIGN_OUT_BOTTOM_LEFT,
  67:lvgl/src/extra/widgets/meter/../../../../src/hal/../draw/../misc/../font/../misc/lv_area.h ****     LV_ALIGN_OUT_BOTTOM_MID,
  68:lvgl/src/extra/widgets/meter/../../../../src/hal/../draw/../misc/../font/../misc/lv_area.h ****     LV_ALIGN_OUT_BOTTOM_RIGHT,
  69:lvgl/src/extra/widgets/meter/../../../../src/hal/../draw/../misc/../font/../misc/lv_area.h ****     LV_ALIGN_OUT_LEFT_TOP,
  70:lvgl/src/extra/widgets/meter/../../../../src/hal/../draw/../misc/../font/../misc/lv_area.h ****     LV_ALIGN_OUT_LEFT_MID,
  71:lvgl/src/extra/widgets/meter/../../../../src/hal/../draw/../misc/../font/../misc/lv_area.h ****     LV_ALIGN_OUT_LEFT_BOTTOM,
  72:lvgl/src/extra/widgets/meter/../../../../src/hal/../draw/../misc/../font/../misc/lv_area.h ****     LV_ALIGN_OUT_RIGHT_TOP,
  73:lvgl/src/extra/widgets/meter/../../../../src/hal/../draw/../misc/../font/../misc/lv_area.h ****     LV_ALIGN_OUT_RIGHT_MID,
  74:lvgl/src/extra/widgets/meter/../../../../src/hal/../draw/../misc/../font/../misc/lv_area.h ****     LV_ALIGN_OUT_RIGHT_BOTTOM,
  75:lvgl/src/extra/widgets/meter/../../../../src/hal/../draw/../misc/../font/../misc/lv_area.h **** };
  76:lvgl/src/extra/widgets/meter/../../../../src/hal/../draw/../misc/../font/../misc/lv_area.h **** typedef uint8_t lv_align_t;
  77:lvgl/src/extra/widgets/meter/../../../../src/hal/../draw/../misc/../font/../misc/lv_area.h **** 
  78:lvgl/src/extra/widgets/meter/../../../../src/hal/../draw/../misc/../font/../misc/lv_area.h **** enum {
  79:lvgl/src/extra/widgets/meter/../../../../src/hal/../draw/../misc/../font/../misc/lv_area.h ****     LV_DIR_NONE     = 0x00,
  80:lvgl/src/extra/widgets/meter/../../../../src/hal/../draw/../misc/../font/../misc/lv_area.h ****     LV_DIR_LEFT     = (1 << 0),
  81:lvgl/src/extra/widgets/meter/../../../../src/hal/../draw/../misc/../font/../misc/lv_area.h ****     LV_DIR_RIGHT    = (1 << 1),
  82:lvgl/src/extra/widgets/meter/../../../../src/hal/../draw/../misc/../font/../misc/lv_area.h ****     LV_DIR_TOP      = (1 << 2),
  83:lvgl/src/extra/widgets/meter/../../../../src/hal/../draw/../misc/../font/../misc/lv_area.h ****     LV_DIR_BOTTOM   = (1 << 3),
  84:lvgl/src/extra/widgets/meter/../../../../src/hal/../draw/../misc/../font/../misc/lv_area.h ****     LV_DIR_HOR      = LV_DIR_LEFT | LV_DIR_RIGHT,
  85:lvgl/src/extra/widgets/meter/../../../../src/hal/../draw/../misc/../font/../misc/lv_area.h ****     LV_DIR_VER      = LV_DIR_TOP | LV_DIR_BOTTOM,
  86:lvgl/src/extra/widgets/meter/../../../../src/hal/../draw/../misc/../font/../misc/lv_area.h ****     LV_DIR_ALL      = LV_DIR_HOR | LV_DIR_VER,
  87:lvgl/src/extra/widgets/meter/../../../../src/hal/../draw/../misc/../font/../misc/lv_area.h **** };
  88:lvgl/src/extra/widgets/meter/../../../../src/hal/../draw/../misc/../font/../misc/lv_area.h **** 
  89:lvgl/src/extra/widgets/meter/../../../../src/hal/../draw/../misc/../font/../misc/lv_area.h **** typedef uint8_t lv_dir_t;
  90:lvgl/src/extra/widgets/meter/../../../../src/hal/../draw/../misc/../font/../misc/lv_area.h **** 
  91:lvgl/src/extra/widgets/meter/../../../../src/hal/../draw/../misc/../font/../misc/lv_area.h **** /**********************
  92:lvgl/src/extra/widgets/meter/../../../../src/hal/../draw/../misc/../font/../misc/lv_area.h ****  * GLOBAL PROTOTYPES
  93:lvgl/src/extra/widgets/meter/../../../../src/hal/../draw/../misc/../font/../misc/lv_area.h ****  **********************/
  94:lvgl/src/extra/widgets/meter/../../../../src/hal/../draw/../misc/../font/../misc/lv_area.h **** 
  95:lvgl/src/extra/widgets/meter/../../../../src/hal/../draw/../misc/../font/../misc/lv_area.h **** /**
  96:lvgl/src/extra/widgets/meter/../../../../src/hal/../draw/../misc/../font/../misc/lv_area.h ****  * Initialize an area
  97:lvgl/src/extra/widgets/meter/../../../../src/hal/../draw/../misc/../font/../misc/lv_area.h ****  * @param area_p pointer to an area
  98:lvgl/src/extra/widgets/meter/../../../../src/hal/../draw/../misc/../font/../misc/lv_area.h ****  * @param x1 left coordinate of the area
  99:lvgl/src/extra/widgets/meter/../../../../src/hal/../draw/../misc/../font/../misc/lv_area.h ****  * @param y1 top coordinate of the area
 100:lvgl/src/extra/widgets/meter/../../../../src/hal/../draw/../misc/../font/../misc/lv_area.h ****  * @param x2 right coordinate of the area
 101:lvgl/src/extra/widgets/meter/../../../../src/hal/../draw/../misc/../font/../misc/lv_area.h ****  * @param y2 bottom coordinate of the area
 102:lvgl/src/extra/widgets/meter/../../../../src/hal/../draw/../misc/../font/../misc/lv_area.h ****  */
 103:lvgl/src/extra/widgets/meter/../../../../src/hal/../draw/../misc/../font/../misc/lv_area.h **** void lv_area_set(lv_area_t * area_p, lv_coord_t x1, lv_coord_t y1, lv_coord_t x2, lv_coord_t y2);
ARM GAS  /var/folders/21/t9g5rlb91ys800n5npymflf80000gn/T//ccb01ulG.s 			page 27


 104:lvgl/src/extra/widgets/meter/../../../../src/hal/../draw/../misc/../font/../misc/lv_area.h **** 
 105:lvgl/src/extra/widgets/meter/../../../../src/hal/../draw/../misc/../font/../misc/lv_area.h **** /**
 106:lvgl/src/extra/widgets/meter/../../../../src/hal/../draw/../misc/../font/../misc/lv_area.h ****  * Copy an area
 107:lvgl/src/extra/widgets/meter/../../../../src/hal/../draw/../misc/../font/../misc/lv_area.h ****  * @param dest pointer to the destination area
 108:lvgl/src/extra/widgets/meter/../../../../src/hal/../draw/../misc/../font/../misc/lv_area.h ****  * @param src pointer to the source area
 109:lvgl/src/extra/widgets/meter/../../../../src/hal/../draw/../misc/../font/../misc/lv_area.h ****  */
 110:lvgl/src/extra/widgets/meter/../../../../src/hal/../draw/../misc/../font/../misc/lv_area.h **** inline static void lv_area_copy(lv_area_t * dest, const lv_area_t * src)
 111:lvgl/src/extra/widgets/meter/../../../../src/hal/../draw/../misc/../font/../misc/lv_area.h **** {
 112:lvgl/src/extra/widgets/meter/../../../../src/hal/../draw/../misc/../font/../misc/lv_area.h ****     dest->x1 = src->x1;
 113:lvgl/src/extra/widgets/meter/../../../../src/hal/../draw/../misc/../font/../misc/lv_area.h ****     dest->y1 = src->y1;
 114:lvgl/src/extra/widgets/meter/../../../../src/hal/../draw/../misc/../font/../misc/lv_area.h ****     dest->x2 = src->x2;
 115:lvgl/src/extra/widgets/meter/../../../../src/hal/../draw/../misc/../font/../misc/lv_area.h ****     dest->y2 = src->y2;
 116:lvgl/src/extra/widgets/meter/../../../../src/hal/../draw/../misc/../font/../misc/lv_area.h **** }
 117:lvgl/src/extra/widgets/meter/../../../../src/hal/../draw/../misc/../font/../misc/lv_area.h **** 
 118:lvgl/src/extra/widgets/meter/../../../../src/hal/../draw/../misc/../font/../misc/lv_area.h **** /**
 119:lvgl/src/extra/widgets/meter/../../../../src/hal/../draw/../misc/../font/../misc/lv_area.h ****  * Get the width of an area
 120:lvgl/src/extra/widgets/meter/../../../../src/hal/../draw/../misc/../font/../misc/lv_area.h ****  * @param area_p pointer to an area
 121:lvgl/src/extra/widgets/meter/../../../../src/hal/../draw/../misc/../font/../misc/lv_area.h ****  * @return the width of the area (if x1 == x2 -> width = 1)
 122:lvgl/src/extra/widgets/meter/../../../../src/hal/../draw/../misc/../font/../misc/lv_area.h ****  */
 123:lvgl/src/extra/widgets/meter/../../../../src/hal/../draw/../misc/../font/../misc/lv_area.h **** static inline lv_coord_t lv_area_get_width(const lv_area_t * area_p)
 159              		.loc 4 123 26 view .LVU35
 160              	.LBB46:
 124:lvgl/src/extra/widgets/meter/../../../../src/hal/../draw/../misc/../font/../misc/lv_area.h **** {
 125:lvgl/src/extra/widgets/meter/../../../../src/hal/../draw/../misc/../font/../misc/lv_area.h ****     return (lv_coord_t)(area_p->x2 - area_p->x1 + 1);
 161              		.loc 4 125 5 view .LVU36
 162              		.loc 4 125 31 is_stmt 0 view .LVU37
 163 0032 AF88     		ldrh	r7, [r5, #4]
 164              		.loc 4 125 44 view .LVU38
 165 0034 2B88     		ldrh	r3, [r5]
 166              		.loc 4 125 36 view .LVU39
 167 0036 FF1A     		subs	r7, r7, r3
 168 0038 BFB2     		uxth	r7, r7
 169              		.loc 4 125 49 view .LVU40
 170 003a 0137     		adds	r7, r7, #1
 171              	.LVL18:
 172              		.loc 4 125 49 view .LVU41
 173              	.LBE46:
 174              	.LBE45:
 175              		.loc 1 334 16 view .LVU42
 176 003c C7F3C032 		ubfx	r2, r7, #15, #1
 177 0040 02FA87F7 		sxtah	r7, r2, r7
 178              	.LVL19:
 335:lvgl/src/extra/widgets/meter/lv_meter.c ****     lv_point_t scale_center;
 179              		.loc 1 335 5 is_stmt 1 view .LVU43
 336:lvgl/src/extra/widgets/meter/lv_meter.c ****     scale_center.x = scale_area->x1 + r_out;
 180              		.loc 1 336 5 view .LVU44
 181              		.loc 1 336 37 is_stmt 0 view .LVU45
 182 0044 C7F34F07 		ubfx	r7, r7, #1, #16
 183              	.LVL20:
 184              		.loc 1 336 37 view .LVU46
 185 0048 3B44     		add	r3, r3, r7
 186              	.LVL21:
 187              		.loc 1 336 20 view .LVU47
 188 004a ADF85C30 		strh	r3, [sp, #92]	@ movhi
 189              	.LVL22:
 337:lvgl/src/extra/widgets/meter/lv_meter.c ****     scale_center.y = scale_area->y1 + r_out;
 190              		.loc 1 337 5 is_stmt 1 view .LVU48
ARM GAS  /var/folders/21/t9g5rlb91ys800n5npymflf80000gn/T//ccb01ulG.s 			page 28


 191              		.loc 1 337 32 is_stmt 0 view .LVU49
 192 004e 6B88     		ldrh	r3, [r5, #2]
 193              		.loc 1 337 37 view .LVU50
 194 0050 3B44     		add	r3, r3, r7
 195              		.loc 1 337 20 view .LVU51
 196 0052 ADF85E30 		strh	r3, [sp, #94]	@ movhi
 338:lvgl/src/extra/widgets/meter/lv_meter.c **** 
 339:lvgl/src/extra/widgets/meter/lv_meter.c ****     lv_opa_t opa_main = lv_obj_get_style_opa_recursive(obj, LV_PART_MAIN);
 197              		.loc 1 339 5 is_stmt 1 view .LVU52
 198              		.loc 1 339 25 is_stmt 0 view .LVU53
 199 0056 0021     		movs	r1, #0
 200 0058 4046     		mov	r0, r8
 201 005a FFF7FEFF 		bl	lv_obj_get_style_opa_recursive
 202              	.LVL23:
 203              		.loc 1 339 25 view .LVU54
 204 005e 0390     		str	r0, [sp, #12]
 205              	.LVL24:
 340:lvgl/src/extra/widgets/meter/lv_meter.c ****     lv_meter_indicator_t * indic;
 206              		.loc 1 340 5 is_stmt 1 view .LVU55
 341:lvgl/src/extra/widgets/meter/lv_meter.c **** 
 342:lvgl/src/extra/widgets/meter/lv_meter.c ****     lv_obj_draw_part_dsc_t part_draw_dsc;
 207              		.loc 1 342 5 view .LVU56
 343:lvgl/src/extra/widgets/meter/lv_meter.c ****     lv_obj_draw_dsc_init(&part_draw_dsc, draw_ctx);
 208              		.loc 1 343 5 view .LVU57
 209 0060 5946     		mov	r1, fp
 210 0062 05A8     		add	r0, sp, #20
 211 0064 FFF7FEFF 		bl	lv_obj_draw_dsc_init
 212              	.LVL25:
 344:lvgl/src/extra/widgets/meter/lv_meter.c ****     part_draw_dsc.arc_dsc = &arc_dsc;
 213              		.loc 1 344 5 view .LVU58
 214              		.loc 1 344 27 is_stmt 0 view .LVU59
 215 0068 0D94     		str	r4, [sp, #52]
 345:lvgl/src/extra/widgets/meter/lv_meter.c ****     part_draw_dsc.part = LV_PART_INDICATOR;
 216              		.loc 1 345 5 is_stmt 1 view .LVU60
 217              		.loc 1 345 24 is_stmt 0 view .LVU61
 218 006a 4FF40033 		mov	r3, #131072
 219 006e 1293     		str	r3, [sp, #72]
 346:lvgl/src/extra/widgets/meter/lv_meter.c ****     part_draw_dsc.class_p = MY_CLASS;
 220              		.loc 1 346 5 is_stmt 1 view .LVU62
 221              		.loc 1 346 27 is_stmt 0 view .LVU63
 222 0070 324B     		ldr	r3, .L12
 223 0072 0693     		str	r3, [sp, #24]
 347:lvgl/src/extra/widgets/meter/lv_meter.c ****     part_draw_dsc.type = LV_METER_DRAW_PART_ARC;
 224              		.loc 1 347 5 is_stmt 1 view .LVU64
 225              		.loc 1 347 24 is_stmt 0 view .LVU65
 226 0074 0023     		movs	r3, #0
 227 0076 0793     		str	r3, [sp, #28]
 348:lvgl/src/extra/widgets/meter/lv_meter.c **** 
 349:lvgl/src/extra/widgets/meter/lv_meter.c ****     _LV_LL_READ_BACK(&meter->indicator_ll, indic) {
 228              		.loc 1 349 5 is_stmt 1 view .LVU66
 229 0078 08F1300A 		add	r10, r8, #48
 230 007c 5046     		mov	r0, r10
 231 007e FFF7FEFF 		bl	_lv_ll_get_tail
 232              	.LVL26:
 233 0082 0446     		mov	r4, r0
 234              	.LVL27:
 235              		.loc 1 349 5 is_stmt 0 view .LVU67
ARM GAS  /var/folders/21/t9g5rlb91ys800n5npymflf80000gn/T//ccb01ulG.s 			page 29


 236 0084 42E0     		b	.L5
 237              	.LVL28:
 238              	.L9:
 239              	.LBB47:
 350:lvgl/src/extra/widgets/meter/lv_meter.c ****         if(indic->type != LV_METER_INDICATOR_TYPE_ARC) continue;
 351:lvgl/src/extra/widgets/meter/lv_meter.c **** 
 352:lvgl/src/extra/widgets/meter/lv_meter.c ****         arc_dsc.color = indic->type_data.arc.color;
 353:lvgl/src/extra/widgets/meter/lv_meter.c ****         arc_dsc.width = indic->type_data.arc.width;
 354:lvgl/src/extra/widgets/meter/lv_meter.c ****         arc_dsc.opa = indic->opa > LV_OPA_MAX ? opa_main : (opa_main * indic->opa) >> 8;
 240              		.loc 1 354 21 view .LVU68
 241 0086 039B     		ldr	r3, [sp, #12]
 242              	.L7:
 243              		.loc 1 354 21 discriminator 4 view .LVU69
 244 0088 8DF86C30 		strb	r3, [sp, #108]
 355:lvgl/src/extra/widgets/meter/lv_meter.c **** 
 356:lvgl/src/extra/widgets/meter/lv_meter.c ****         lv_meter_scale_t * scale = indic->scale;
 245              		.loc 1 356 9 is_stmt 1 discriminator 4 view .LVU70
 246              		.loc 1 356 28 is_stmt 0 discriminator 4 view .LVU71
 247 008c 2668     		ldr	r6, [r4]
 248              	.LVL29:
 357:lvgl/src/extra/widgets/meter/lv_meter.c **** 
 358:lvgl/src/extra/widgets/meter/lv_meter.c ****         int32_t start_angle = lv_map(indic->start_value, scale->min, scale->max, scale->rotation,
 249              		.loc 1 358 9 is_stmt 1 discriminator 4 view .LVU72
 250              		.loc 1 358 87 is_stmt 0 discriminator 4 view .LVU73
 251 008e B6F92030 		ldrsh	r3, [r6, #32]
 359:lvgl/src/extra/widgets/meter/lv_meter.c ****                                      scale->rotation + scale->angle_range);
 252              		.loc 1 359 61 discriminator 4 view .LVU74
 253 0092 F58B     		ldrh	r5, [r6, #30]
 358:lvgl/src/extra/widgets/meter/lv_meter.c ****                                      scale->rotation + scale->angle_range);
 254              		.loc 1 358 31 discriminator 4 view .LVU75
 255 0094 B269     		ldr	r2, [r6, #24]
 256 0096 7169     		ldr	r1, [r6, #20]
 257 0098 A068     		ldr	r0, [r4, #8]
 258              	.LVL30:
 358:lvgl/src/extra/widgets/meter/lv_meter.c ****                                      scale->rotation + scale->angle_range);
 259              		.loc 1 358 31 discriminator 4 view .LVU76
 260 009a 1D44     		add	r5, r5, r3
 261 009c 0095     		str	r5, [sp]
 262 009e FFF7FEFF 		bl	lv_map
 263              	.LVL31:
 264 00a2 0546     		mov	r5, r0
 265              	.LVL32:
 360:lvgl/src/extra/widgets/meter/lv_meter.c ****         int32_t end_angle = lv_map(indic->end_value, scale->min, scale->max, scale->rotation,
 266              		.loc 1 360 9 is_stmt 1 discriminator 4 view .LVU77
 267              		.loc 1 360 83 is_stmt 0 discriminator 4 view .LVU78
 268 00a4 B6F92030 		ldrsh	r3, [r6, #32]
 361:lvgl/src/extra/widgets/meter/lv_meter.c ****                                    scale->rotation + scale->angle_range);
 269              		.loc 1 361 59 discriminator 4 view .LVU79
 270 00a8 B6F81EC0 		ldrh	ip, [r6, #30]
 360:lvgl/src/extra/widgets/meter/lv_meter.c ****         int32_t end_angle = lv_map(indic->end_value, scale->min, scale->max, scale->rotation,
 271              		.loc 1 360 29 discriminator 4 view .LVU80
 272 00ac B269     		ldr	r2, [r6, #24]
 273 00ae 7169     		ldr	r1, [r6, #20]
 274 00b0 E068     		ldr	r0, [r4, #12]
 275              	.LVL33:
 360:lvgl/src/extra/widgets/meter/lv_meter.c ****         int32_t end_angle = lv_map(indic->end_value, scale->min, scale->max, scale->rotation,
 276              		.loc 1 360 29 discriminator 4 view .LVU81
ARM GAS  /var/folders/21/t9g5rlb91ys800n5npymflf80000gn/T//ccb01ulG.s 			page 30


 277 00b2 03EB0C06 		add	r6, r3, ip
 278              	.LVL34:
 360:lvgl/src/extra/widgets/meter/lv_meter.c ****         int32_t end_angle = lv_map(indic->end_value, scale->min, scale->max, scale->rotation,
 279              		.loc 1 360 29 discriminator 4 view .LVU82
 280 00b6 0096     		str	r6, [sp]
 281 00b8 FFF7FEFF 		bl	lv_map
 282              	.LVL35:
 362:lvgl/src/extra/widgets/meter/lv_meter.c **** 
 363:lvgl/src/extra/widgets/meter/lv_meter.c ****         arc_dsc.start_angle = start_angle;
 283              		.loc 1 363 9 is_stmt 1 discriminator 4 view .LVU83
 284              		.loc 1 363 29 is_stmt 0 discriminator 4 view .LVU84
 285 00bc ADB2     		uxth	r5, r5
 286              	.LVL36:
 287              		.loc 1 363 29 discriminator 4 view .LVU85
 288 00be ADF86450 		strh	r5, [sp, #100]	@ movhi
 364:lvgl/src/extra/widgets/meter/lv_meter.c ****         arc_dsc.end_angle = end_angle;
 289              		.loc 1 364 9 is_stmt 1 discriminator 4 view .LVU86
 290              		.loc 1 364 27 is_stmt 0 discriminator 4 view .LVU87
 291 00c2 86B2     		uxth	r6, r0
 292 00c4 ADF86660 		strh	r6, [sp, #102]	@ movhi
 365:lvgl/src/extra/widgets/meter/lv_meter.c ****         part_draw_dsc.radius = r_out + indic->type_data.arc.r_mod;
 293              		.loc 1 365 9 is_stmt 1 discriminator 4 view .LVU88
 294              		.loc 1 365 60 is_stmt 0 discriminator 4 view .LVU89
 295 00c8 638B     		ldrh	r3, [r4, #26]
 296              		.loc 1 365 38 discriminator 4 view .LVU90
 297 00ca 3B44     		add	r3, r3, r7
 298              		.loc 1 365 30 discriminator 4 view .LVU91
 299 00cc ADF85030 		strh	r3, [sp, #80]	@ movhi
 366:lvgl/src/extra/widgets/meter/lv_meter.c ****         part_draw_dsc.sub_part_ptr = indic;
 300              		.loc 1 366 9 is_stmt 1 discriminator 4 view .LVU92
 301              		.loc 1 366 36 is_stmt 0 discriminator 4 view .LVU93
 302 00d0 1694     		str	r4, [sp, #88]
 367:lvgl/src/extra/widgets/meter/lv_meter.c ****         part_draw_dsc.p1 = &scale_center;
 303              		.loc 1 367 9 is_stmt 1 discriminator 4 view .LVU94
 304              		.loc 1 367 26 is_stmt 0 discriminator 4 view .LVU95
 305 00d2 0DF15C09 		add	r9, sp, #92
 306 00d6 CDF83890 		str	r9, [sp, #56]
 368:lvgl/src/extra/widgets/meter/lv_meter.c **** 
 369:lvgl/src/extra/widgets/meter/lv_meter.c ****         lv_event_send(obj, LV_EVENT_DRAW_PART_BEGIN, &part_draw_dsc);
 307              		.loc 1 369 9 is_stmt 1 discriminator 4 view .LVU96
 308 00da 05AA     		add	r2, sp, #20
 309 00dc 1A21     		movs	r1, #26
 310 00de 4046     		mov	r0, r8
 311              	.LVL37:
 312              		.loc 1 369 9 is_stmt 0 discriminator 4 view .LVU97
 313 00e0 FFF7FEFF 		bl	lv_event_send
 314              	.LVL38:
 370:lvgl/src/extra/widgets/meter/lv_meter.c ****         lv_draw_arc(draw_ctx, &arc_dsc, &scale_center, part_draw_dsc.radius, start_angle, end_angle
 315              		.loc 1 370 9 is_stmt 1 discriminator 4 view .LVU98
 316              		.loc 1 370 69 is_stmt 0 discriminator 4 view .LVU99
 317 00e4 BDF95030 		ldrsh	r3, [sp, #80]
 318              		.loc 1 370 9 discriminator 4 view .LVU100
 319 00e8 0196     		str	r6, [sp, #4]
 320 00ea 0095     		str	r5, [sp]
 321 00ec 9BB2     		uxth	r3, r3
 322 00ee 4A46     		mov	r2, r9
 323 00f0 18A9     		add	r1, sp, #96
ARM GAS  /var/folders/21/t9g5rlb91ys800n5npymflf80000gn/T//ccb01ulG.s 			page 31


 324 00f2 5846     		mov	r0, fp
 325 00f4 FFF7FEFF 		bl	lv_draw_arc
 326              	.LVL39:
 371:lvgl/src/extra/widgets/meter/lv_meter.c ****         lv_event_send(obj, LV_EVENT_DRAW_PART_END, &part_draw_dsc);
 327              		.loc 1 371 9 is_stmt 1 discriminator 4 view .LVU101
 328 00f8 05AA     		add	r2, sp, #20
 329 00fa 1B21     		movs	r1, #27
 330 00fc 4046     		mov	r0, r8
 331 00fe FFF7FEFF 		bl	lv_event_send
 332              	.LVL40:
 333              	.L6:
 334              		.loc 1 371 9 is_stmt 0 discriminator 4 view .LVU102
 335              	.LBE47:
 349:lvgl/src/extra/widgets/meter/lv_meter.c ****         if(indic->type != LV_METER_INDICATOR_TYPE_ARC) continue;
 336              		.loc 1 349 5 is_stmt 1 discriminator 2 view .LVU103
 337 0102 2146     		mov	r1, r4
 338 0104 5046     		mov	r0, r10
 339 0106 FFF7FEFF 		bl	_lv_ll_get_prev
 340              	.LVL41:
 341 010a 0446     		mov	r4, r0
 342              	.LVL42:
 343              	.L5:
 349:lvgl/src/extra/widgets/meter/lv_meter.c ****         if(indic->type != LV_METER_INDICATOR_TYPE_ARC) continue;
 344              		.loc 1 349 5 discriminator 1 view .LVU104
 345 010c 94B1     		cbz	r4, .L11
 346              	.LBB48:
 350:lvgl/src/extra/widgets/meter/lv_meter.c **** 
 347              		.loc 1 350 9 view .LVU105
 350:lvgl/src/extra/widgets/meter/lv_meter.c **** 
 348              		.loc 1 350 17 is_stmt 0 view .LVU106
 349 010e 2379     		ldrb	r3, [r4, #4]	@ zero_extendqisi2
 350:lvgl/src/extra/widgets/meter/lv_meter.c **** 
 350              		.loc 1 350 11 view .LVU107
 351 0110 032B     		cmp	r3, #3
 352 0112 F6D1     		bne	.L6
 352:lvgl/src/extra/widgets/meter/lv_meter.c ****         arc_dsc.width = indic->type_data.arc.width;
 353              		.loc 1 352 9 is_stmt 1 view .LVU108
 352:lvgl/src/extra/widgets/meter/lv_meter.c ****         arc_dsc.width = indic->type_data.arc.width;
 354              		.loc 1 352 23 is_stmt 0 view .LVU109
 355 0114 238B     		ldrh	r3, [r4, #24]
 356 0116 ADF86030 		strh	r3, [sp, #96]	@ movhi
 353:lvgl/src/extra/widgets/meter/lv_meter.c ****         arc_dsc.opa = indic->opa > LV_OPA_MAX ? opa_main : (opa_main * indic->opa) >> 8;
 357              		.loc 1 353 9 is_stmt 1 view .LVU110
 353:lvgl/src/extra/widgets/meter/lv_meter.c ****         arc_dsc.opa = indic->opa > LV_OPA_MAX ? opa_main : (opa_main * indic->opa) >> 8;
 358              		.loc 1 353 45 is_stmt 0 view .LVU111
 359 011a B4F91030 		ldrsh	r3, [r4, #16]
 353:lvgl/src/extra/widgets/meter/lv_meter.c ****         arc_dsc.opa = indic->opa > LV_OPA_MAX ? opa_main : (opa_main * indic->opa) >> 8;
 360              		.loc 1 353 23 view .LVU112
 361 011e ADF86230 		strh	r3, [sp, #98]	@ movhi
 354:lvgl/src/extra/widgets/meter/lv_meter.c **** 
 362              		.loc 1 354 9 is_stmt 1 view .LVU113
 354:lvgl/src/extra/widgets/meter/lv_meter.c **** 
 363              		.loc 1 354 28 is_stmt 0 view .LVU114
 364 0122 6379     		ldrb	r3, [r4, #5]	@ zero_extendqisi2
 354:lvgl/src/extra/widgets/meter/lv_meter.c **** 
 365              		.loc 1 354 21 view .LVU115
 366 0124 FD2B     		cmp	r3, #253
ARM GAS  /var/folders/21/t9g5rlb91ys800n5npymflf80000gn/T//ccb01ulG.s 			page 32


 367 0126 AED8     		bhi	.L9
 354:lvgl/src/extra/widgets/meter/lv_meter.c **** 
 368              		.loc 1 354 70 discriminator 1 view .LVU116
 369 0128 039A     		ldr	r2, [sp, #12]
 370 012a 02FB03F3 		mul	r3, r2, r3
 354:lvgl/src/extra/widgets/meter/lv_meter.c **** 
 371              		.loc 1 354 21 discriminator 1 view .LVU117
 372 012e C3F30723 		ubfx	r3, r3, #8, #8
 373 0132 A9E7     		b	.L7
 374              	.L11:
 375              	.LBE48:
 372:lvgl/src/extra/widgets/meter/lv_meter.c ****     }
 373:lvgl/src/extra/widgets/meter/lv_meter.c **** }
 376              		.loc 1 373 1 view .LVU118
 377 0134 1DB0     		add	sp, sp, #116
 378              	.LCFI2:
 379              		.cfi_def_cfa_offset 36
 380              		@ sp needed
 381 0136 BDE8F08F 		pop	{r4, r5, r6, r7, r8, r9, r10, fp, pc}
 382              	.LVL43:
 383              	.L13:
 384              		.loc 1 373 1 view .LVU119
 385 013a 00BF     		.align	2
 386              	.L12:
 387 013c 00000000 		.word	lv_meter_class
 388              		.cfi_endproc
 389              	.LFE219:
 391              		.section	.rodata.draw_ticks_and_labels.str1.4,"aMS",%progbits,1
 392              		.align	2
 393              	.LC0:
 394 0000 256400   		.ascii	"%d\000"
 395              		.section	.text.draw_ticks_and_labels,"ax",%progbits
 396              		.align	1
 397              		.syntax unified
 398              		.thumb
 399              		.thumb_func
 401              	draw_ticks_and_labels:
 402              	.LVL44:
 403              	.LFB220:
 374:lvgl/src/extra/widgets/meter/lv_meter.c **** 
 375:lvgl/src/extra/widgets/meter/lv_meter.c **** static void draw_ticks_and_labels(lv_obj_t * obj, lv_draw_ctx_t * draw_ctx, const lv_area_t * scale
 376:lvgl/src/extra/widgets/meter/lv_meter.c **** {
 404              		.loc 1 376 1 is_stmt 1 view -0
 405              		.cfi_startproc
 406              		@ args = 0, pretend = 0, frame = 328
 407              		@ frame_needed = 0, uses_anonymous_args = 0
 408              		.loc 1 376 1 is_stmt 0 view .LVU121
 409 0000 2DE9F04F 		push	{r4, r5, r6, r7, r8, r9, r10, fp, lr}
 410              	.LCFI3:
 411              		.cfi_def_cfa_offset 36
 412              		.cfi_offset 4, -36
 413              		.cfi_offset 5, -32
 414              		.cfi_offset 6, -28
 415              		.cfi_offset 7, -24
 416              		.cfi_offset 8, -20
 417              		.cfi_offset 9, -16
 418              		.cfi_offset 10, -12
ARM GAS  /var/folders/21/t9g5rlb91ys800n5npymflf80000gn/T//ccb01ulG.s 			page 33


 419              		.cfi_offset 11, -8
 420              		.cfi_offset 14, -4
 421 0004 D7B0     		sub	sp, sp, #348
 422              	.LCFI4:
 423              		.cfi_def_cfa_offset 384
 424 0006 0490     		str	r0, [sp, #16]
 425 0008 0891     		str	r1, [sp, #32]
 426 000a 1046     		mov	r0, r2
 427              	.LVL45:
 377:lvgl/src/extra/widgets/meter/lv_meter.c ****     lv_meter_t * meter    = (lv_meter_t *)obj;
 428              		.loc 1 377 5 is_stmt 1 view .LVU122
 378:lvgl/src/extra/widgets/meter/lv_meter.c **** 
 379:lvgl/src/extra/widgets/meter/lv_meter.c ****     lv_point_t p_center;
 429              		.loc 1 379 5 view .LVU123
 380:lvgl/src/extra/widgets/meter/lv_meter.c ****     lv_coord_t r_edge = LV_MIN(lv_area_get_width(scale_area) / 2, lv_area_get_height(scale_area) / 
 430              		.loc 1 380 5 view .LVU124
 431              	.LBB49:
 432              	.LBI49:
 123:lvgl/src/extra/widgets/meter/../../../../src/hal/../draw/../misc/../font/../misc/lv_area.h **** {
 433              		.loc 4 123 26 view .LVU125
 434              	.LBB50:
 435              		.loc 4 125 5 view .LVU126
 436              		.loc 4 125 31 is_stmt 0 view .LVU127
 437 000c 9388     		ldrh	r3, [r2, #4]
 438              		.loc 4 125 44 view .LVU128
 439 000e 1188     		ldrh	r1, [r2]
 440              	.LVL46:
 441              		.loc 4 125 36 view .LVU129
 442 0010 5B1A     		subs	r3, r3, r1
 443 0012 9BB2     		uxth	r3, r3
 444              		.loc 4 125 49 view .LVU130
 445 0014 0133     		adds	r3, r3, #1
 446              	.LVL47:
 447              		.loc 4 125 49 view .LVU131
 448              	.LBE50:
 449              	.LBE49:
 450              		.loc 1 380 25 view .LVU132
 451 0016 C3F3C032 		ubfx	r2, r3, #15, #1
 452              	.LVL48:
 453              		.loc 1 380 25 view .LVU133
 454 001a 02FA83F3 		sxtah	r3, r2, r3
 455              	.LVL49:
 456              	.LBB51:
 457              	.LBI51:
 126:lvgl/src/extra/widgets/meter/../../../../src/hal/../draw/../misc/../font/../misc/lv_area.h **** }
 127:lvgl/src/extra/widgets/meter/../../../../src/hal/../draw/../misc/../font/../misc/lv_area.h **** 
 128:lvgl/src/extra/widgets/meter/../../../../src/hal/../draw/../misc/../font/../misc/lv_area.h **** /**
 129:lvgl/src/extra/widgets/meter/../../../../src/hal/../draw/../misc/../font/../misc/lv_area.h ****  * Get the height of an area
 130:lvgl/src/extra/widgets/meter/../../../../src/hal/../draw/../misc/../font/../misc/lv_area.h ****  * @param area_p pointer to an area
 131:lvgl/src/extra/widgets/meter/../../../../src/hal/../draw/../misc/../font/../misc/lv_area.h ****  * @return the height of the area (if y1 == y2 -> height = 1)
 132:lvgl/src/extra/widgets/meter/../../../../src/hal/../draw/../misc/../font/../misc/lv_area.h ****  */
 133:lvgl/src/extra/widgets/meter/../../../../src/hal/../draw/../misc/../font/../misc/lv_area.h **** static inline lv_coord_t lv_area_get_height(const lv_area_t * area_p)
 458              		.loc 4 133 26 is_stmt 1 view .LVU134
 459              	.LBB52:
 134:lvgl/src/extra/widgets/meter/../../../../src/hal/../draw/../misc/../font/../misc/lv_area.h **** {
 135:lvgl/src/extra/widgets/meter/../../../../src/hal/../draw/../misc/../font/../misc/lv_area.h ****     return (lv_coord_t)(area_p->y2 - area_p->y1 + 1);
 460              		.loc 4 135 5 view .LVU135
ARM GAS  /var/folders/21/t9g5rlb91ys800n5npymflf80000gn/T//ccb01ulG.s 			page 34


 461              		.loc 4 135 31 is_stmt 0 view .LVU136
 462 001e C288     		ldrh	r2, [r0, #6]
 463              		.loc 4 135 44 view .LVU137
 464 0020 4088     		ldrh	r0, [r0, #2]
 465              	.LVL50:
 466              		.loc 4 135 36 view .LVU138
 467 0022 121A     		subs	r2, r2, r0
 468 0024 92B2     		uxth	r2, r2
 469              		.loc 4 135 49 view .LVU139
 470 0026 0132     		adds	r2, r2, #1
 471              	.LVL51:
 472              		.loc 4 135 49 view .LVU140
 473              	.LBE52:
 474              	.LBE51:
 475              		.loc 1 380 25 view .LVU141
 476 0028 C2F3C035 		ubfx	r5, r2, #15, #1
 477 002c 05FA82F2 		sxtah	r2, r5, r2
 478 0030 5210     		asrs	r2, r2, #1
 479 0032 0B92     		str	r2, [sp, #44]
 480              		.loc 1 380 16 view .LVU142
 481 0034 B2EB630F 		cmp	r2, r3, asr #1
 482 0038 01DD     		ble	.L15
 483 003a 5C10     		asrs	r4, r3, #1
 484 003c 0B94     		str	r4, [sp, #44]
 485              	.L15:
 486              	.LVL52:
 381:lvgl/src/extra/widgets/meter/lv_meter.c ****     p_center.x = scale_area->x1 + r_edge;
 487              		.loc 1 381 5 is_stmt 1 discriminator 4 view .LVU143
 488              		.loc 1 381 33 is_stmt 0 discriminator 4 view .LVU144
 489 003e BDF82C30 		ldrh	r3, [sp, #44]
 490 0042 0A93     		str	r3, [sp, #40]
 491 0044 1944     		add	r1, r1, r3
 492              		.loc 1 381 16 discriminator 4 view .LVU145
 493 0046 ADF85411 		strh	r1, [sp, #340]	@ movhi
 382:lvgl/src/extra/widgets/meter/lv_meter.c ****     p_center.y = scale_area->y1 + r_edge;
 494              		.loc 1 382 5 is_stmt 1 discriminator 4 view .LVU146
 495              		.loc 1 382 33 is_stmt 0 discriminator 4 view .LVU147
 496 004a 1844     		add	r0, r0, r3
 497              		.loc 1 382 16 discriminator 4 view .LVU148
 498 004c ADF85601 		strh	r0, [sp, #342]	@ movhi
 383:lvgl/src/extra/widgets/meter/lv_meter.c **** 
 384:lvgl/src/extra/widgets/meter/lv_meter.c ****     lv_draw_line_dsc_t line_dsc;
 499              		.loc 1 384 5 is_stmt 1 discriminator 4 view .LVU149
 385:lvgl/src/extra/widgets/meter/lv_meter.c ****     lv_draw_line_dsc_init(&line_dsc);
 500              		.loc 1 385 5 discriminator 4 view .LVU150
 501 0050 52AC     		add	r4, sp, #328
 502 0052 2046     		mov	r0, r4
 503 0054 FFF7FEFF 		bl	lv_draw_line_dsc_init
 504              	.LVL53:
 386:lvgl/src/extra/widgets/meter/lv_meter.c ****     lv_obj_init_draw_line_dsc(obj, LV_PART_TICKS, &line_dsc);
 505              		.loc 1 386 5 discriminator 4 view .LVU151
 506 0058 2246     		mov	r2, r4
 507 005a 4FF4C021 		mov	r1, #393216
 508 005e 049D     		ldr	r5, [sp, #16]
 509 0060 2846     		mov	r0, r5
 510 0062 FFF7FEFF 		bl	lv_obj_init_draw_line_dsc
 511              	.LVL54:
ARM GAS  /var/folders/21/t9g5rlb91ys800n5npymflf80000gn/T//ccb01ulG.s 			page 35


 387:lvgl/src/extra/widgets/meter/lv_meter.c ****     line_dsc.raw_end = 1;
 512              		.loc 1 387 5 discriminator 4 view .LVU152
 513              		.loc 1 387 22 is_stmt 0 discriminator 4 view .LVU153
 514 0066 9DF85131 		ldrb	r3, [sp, #337]	@ zero_extendqisi2
 515 006a 43F01003 		orr	r3, r3, #16
 516 006e 8DF85131 		strb	r3, [sp, #337]
 388:lvgl/src/extra/widgets/meter/lv_meter.c **** 
 389:lvgl/src/extra/widgets/meter/lv_meter.c ****     lv_draw_label_dsc_t label_dsc;
 517              		.loc 1 389 5 is_stmt 1 discriminator 4 view .LVU154
 390:lvgl/src/extra/widgets/meter/lv_meter.c ****     lv_draw_label_dsc_init(&label_dsc);
 518              		.loc 1 390 5 discriminator 4 view .LVU155
 519 0072 4AA8     		add	r0, sp, #296
 520 0074 FFF7FEFF 		bl	lv_draw_label_dsc_init
 521              	.LVL55:
 391:lvgl/src/extra/widgets/meter/lv_meter.c ****     lv_obj_init_draw_label_dsc(obj, LV_PART_TICKS, &label_dsc);
 522              		.loc 1 391 5 discriminator 4 view .LVU156
 523 0078 4AAA     		add	r2, sp, #296
 524 007a 4FF4C021 		mov	r1, #393216
 525 007e 2846     		mov	r0, r5
 526 0080 FFF7FEFF 		bl	lv_obj_init_draw_label_dsc
 527              	.LVL56:
 392:lvgl/src/extra/widgets/meter/lv_meter.c **** 
 393:lvgl/src/extra/widgets/meter/lv_meter.c ****     lv_meter_scale_t * scale;
 528              		.loc 1 393 5 discriminator 4 view .LVU157
 394:lvgl/src/extra/widgets/meter/lv_meter.c **** 
 395:lvgl/src/extra/widgets/meter/lv_meter.c ****     lv_draw_mask_radius_param_t inner_minor_mask;
 529              		.loc 1 395 5 discriminator 4 view .LVU158
 396:lvgl/src/extra/widgets/meter/lv_meter.c ****     lv_draw_mask_radius_param_t inner_major_mask;
 530              		.loc 1 396 5 discriminator 4 view .LVU159
 397:lvgl/src/extra/widgets/meter/lv_meter.c ****     lv_draw_mask_radius_param_t outer_mask;
 531              		.loc 1 397 5 discriminator 4 view .LVU160
 398:lvgl/src/extra/widgets/meter/lv_meter.c **** 
 399:lvgl/src/extra/widgets/meter/lv_meter.c ****     lv_obj_draw_part_dsc_t part_draw_dsc;
 532              		.loc 1 399 5 discriminator 4 view .LVU161
 400:lvgl/src/extra/widgets/meter/lv_meter.c ****     lv_obj_draw_dsc_init(&part_draw_dsc, draw_ctx);
 533              		.loc 1 400 5 discriminator 4 view .LVU162
 534 0084 0899     		ldr	r1, [sp, #32]
 535 0086 26A8     		add	r0, sp, #152
 536 0088 FFF7FEFF 		bl	lv_obj_draw_dsc_init
 537              	.LVL57:
 401:lvgl/src/extra/widgets/meter/lv_meter.c ****     part_draw_dsc.class_p = MY_CLASS;
 538              		.loc 1 401 5 discriminator 4 view .LVU163
 539              		.loc 1 401 27 is_stmt 0 discriminator 4 view .LVU164
 540 008c AE4B     		ldr	r3, .L43
 541 008e 2793     		str	r3, [sp, #156]
 402:lvgl/src/extra/widgets/meter/lv_meter.c ****     part_draw_dsc.part = LV_PART_TICKS;
 542              		.loc 1 402 5 is_stmt 1 discriminator 4 view .LVU165
 543              		.loc 1 402 24 is_stmt 0 discriminator 4 view .LVU166
 544 0090 4FF4C023 		mov	r3, #393216
 545 0094 3393     		str	r3, [sp, #204]
 403:lvgl/src/extra/widgets/meter/lv_meter.c ****     part_draw_dsc.type = LV_METER_DRAW_PART_TICK;
 546              		.loc 1 403 5 is_stmt 1 discriminator 4 view .LVU167
 547              		.loc 1 403 24 is_stmt 0 discriminator 4 view .LVU168
 548 0096 0323     		movs	r3, #3
 549 0098 2893     		str	r3, [sp, #160]
 404:lvgl/src/extra/widgets/meter/lv_meter.c ****     part_draw_dsc.line_dsc = &line_dsc;
 550              		.loc 1 404 5 is_stmt 1 discriminator 4 view .LVU169
ARM GAS  /var/folders/21/t9g5rlb91ys800n5npymflf80000gn/T//ccb01ulG.s 			page 36


 551              		.loc 1 404 28 is_stmt 0 discriminator 4 view .LVU170
 552 009a 2C94     		str	r4, [sp, #176]
 405:lvgl/src/extra/widgets/meter/lv_meter.c **** 
 406:lvgl/src/extra/widgets/meter/lv_meter.c ****     _LV_LL_READ_BACK(&meter->scale_ll, scale) {
 553              		.loc 1 406 5 is_stmt 1 discriminator 4 view .LVU171
 554 009c 05F12406 		add	r6, r5, #36
 555 00a0 3046     		mov	r0, r6
 556 00a2 FFF7FEFF 		bl	_lv_ll_get_tail
 557              	.LVL58:
 558              		.loc 1 406 5 is_stmt 0 discriminator 4 view .LVU172
 559 00a6 0D96     		str	r6, [sp, #52]
 560 00a8 8346     		mov	fp, r0
 561 00aa 62E1     		b	.L16
 562              	.LVL59:
 563              	.L36:
 564              	.LBB53:
 565              	.LBB54:
 407:lvgl/src/extra/widgets/meter/lv_meter.c ****         part_draw_dsc.sub_part_ptr = scale;
 408:lvgl/src/extra/widgets/meter/lv_meter.c **** 
 409:lvgl/src/extra/widgets/meter/lv_meter.c ****         lv_coord_t r_out = r_edge;
 410:lvgl/src/extra/widgets/meter/lv_meter.c ****         lv_coord_t r_in_minor = r_out - scale->tick_length;
 411:lvgl/src/extra/widgets/meter/lv_meter.c ****         lv_coord_t r_in_major = r_out - scale->tick_major_length;
 412:lvgl/src/extra/widgets/meter/lv_meter.c **** 
 413:lvgl/src/extra/widgets/meter/lv_meter.c ****         lv_area_t area_inner_minor;
 414:lvgl/src/extra/widgets/meter/lv_meter.c ****         area_inner_minor.x1 = p_center.x - r_in_minor;
 415:lvgl/src/extra/widgets/meter/lv_meter.c ****         area_inner_minor.y1 = p_center.y - r_in_minor;
 416:lvgl/src/extra/widgets/meter/lv_meter.c ****         area_inner_minor.x2 = p_center.x + r_in_minor;
 417:lvgl/src/extra/widgets/meter/lv_meter.c ****         area_inner_minor.y2 = p_center.y + r_in_minor;
 418:lvgl/src/extra/widgets/meter/lv_meter.c ****         lv_draw_mask_radius_init(&inner_minor_mask, &area_inner_minor, LV_RADIUS_CIRCLE, true);
 419:lvgl/src/extra/widgets/meter/lv_meter.c **** 
 420:lvgl/src/extra/widgets/meter/lv_meter.c ****         lv_area_t area_inner_major;
 421:lvgl/src/extra/widgets/meter/lv_meter.c ****         area_inner_major.x1 = p_center.x - r_in_major;
 422:lvgl/src/extra/widgets/meter/lv_meter.c ****         area_inner_major.y1 = p_center.y - r_in_major;
 423:lvgl/src/extra/widgets/meter/lv_meter.c ****         area_inner_major.x2 = p_center.x + r_in_major - 1;
 424:lvgl/src/extra/widgets/meter/lv_meter.c ****         area_inner_major.y2 = p_center.y + r_in_major - 1;
 425:lvgl/src/extra/widgets/meter/lv_meter.c ****         lv_draw_mask_radius_init(&inner_major_mask, &area_inner_major, LV_RADIUS_CIRCLE, true);
 426:lvgl/src/extra/widgets/meter/lv_meter.c **** 
 427:lvgl/src/extra/widgets/meter/lv_meter.c ****         lv_area_t area_outer;
 428:lvgl/src/extra/widgets/meter/lv_meter.c ****         area_outer.x1 = p_center.x - r_out;
 429:lvgl/src/extra/widgets/meter/lv_meter.c ****         area_outer.y1 = p_center.y - r_out;
 430:lvgl/src/extra/widgets/meter/lv_meter.c ****         area_outer.x2 = p_center.x + r_out - 1;
 431:lvgl/src/extra/widgets/meter/lv_meter.c ****         area_outer.y2 = p_center.y + r_out - 1;
 432:lvgl/src/extra/widgets/meter/lv_meter.c ****         lv_draw_mask_radius_init(&outer_mask, &area_outer, LV_RADIUS_CIRCLE, false);
 433:lvgl/src/extra/widgets/meter/lv_meter.c ****         int16_t outer_mask_id = lv_draw_mask_add(&outer_mask, NULL);
 434:lvgl/src/extra/widgets/meter/lv_meter.c **** 
 435:lvgl/src/extra/widgets/meter/lv_meter.c ****         int16_t inner_act_mask_id = LV_MASK_ID_INV; /*Will be added later*/
 436:lvgl/src/extra/widgets/meter/lv_meter.c **** 
 437:lvgl/src/extra/widgets/meter/lv_meter.c ****         uint32_t minor_cnt = scale->tick_major_nth ? scale->tick_major_nth - 1 : 0xFFFF;
 438:lvgl/src/extra/widgets/meter/lv_meter.c ****         uint16_t i;
 439:lvgl/src/extra/widgets/meter/lv_meter.c ****         for(i = 0; i < scale->tick_cnt; i++) {
 440:lvgl/src/extra/widgets/meter/lv_meter.c ****             minor_cnt++;
 441:lvgl/src/extra/widgets/meter/lv_meter.c ****             bool major = false;
 442:lvgl/src/extra/widgets/meter/lv_meter.c ****             if(minor_cnt == scale->tick_major_nth) {
 443:lvgl/src/extra/widgets/meter/lv_meter.c ****                 minor_cnt = 0;
 444:lvgl/src/extra/widgets/meter/lv_meter.c ****                 major = true;
 566              		.loc 1 444 23 view .LVU173
 567 00ac 4FF0010A 		mov	r10, #1
ARM GAS  /var/folders/21/t9g5rlb91ys800n5npymflf80000gn/T//ccb01ulG.s 			page 37


 443:lvgl/src/extra/widgets/meter/lv_meter.c ****                 major = true;
 568              		.loc 1 443 27 view .LVU174
 569 00b0 4FF00008 		mov	r8, #0
 570              	.LVL60:
 443:lvgl/src/extra/widgets/meter/lv_meter.c ****                 major = true;
 571              		.loc 1 443 27 view .LVU175
 572 00b4 0EE1     		b	.L18
 573              	.LVL61:
 574              	.L19:
 445:lvgl/src/extra/widgets/meter/lv_meter.c ****             }
 446:lvgl/src/extra/widgets/meter/lv_meter.c **** 
 447:lvgl/src/extra/widgets/meter/lv_meter.c ****             int32_t value_of_line = lv_map(i, 0, scale->tick_cnt - 1, scale->min, scale->max);
 448:lvgl/src/extra/widgets/meter/lv_meter.c ****             part_draw_dsc.value = value_of_line;
 449:lvgl/src/extra/widgets/meter/lv_meter.c **** 
 450:lvgl/src/extra/widgets/meter/lv_meter.c ****             lv_color_t line_color = major ? scale->tick_major_color : scale->tick_color;
 575              		.loc 1 450 24 discriminator 2 view .LVU176
 576 00b6 BBF80030 		ldrh	r3, [fp]
 577              	.LVL62:
 578              		.loc 1 450 24 discriminator 2 view .LVU177
 579 00ba ADF81C30 		strh	r3, [sp, #28]	@ movhi
 580 00be 1FE1     		b	.L20
 581              	.L21:
 451:lvgl/src/extra/widgets/meter/lv_meter.c ****             lv_color_t line_color_ori = line_color;
 452:lvgl/src/extra/widgets/meter/lv_meter.c **** 
 453:lvgl/src/extra/widgets/meter/lv_meter.c ****             lv_coord_t line_width_ori = major ? scale->tick_major_width : scale->tick_width;
 582              		.loc 1 453 24 discriminator 2 view .LVU178
 583 00c0 BBF90630 		ldrsh	r3, [fp, #6]
 584              	.LVL63:
 585              		.loc 1 453 24 discriminator 2 view .LVU179
 586 00c4 0593     		str	r3, [sp, #20]
 587 00c6 26E1     		b	.L22
 588              	.LVL64:
 589              	.L40:
 454:lvgl/src/extra/widgets/meter/lv_meter.c ****             lv_coord_t line_width = line_width_ori;
 455:lvgl/src/extra/widgets/meter/lv_meter.c **** 
 456:lvgl/src/extra/widgets/meter/lv_meter.c ****             lv_meter_indicator_t * indic;
 457:lvgl/src/extra/widgets/meter/lv_meter.c ****             _LV_LL_READ_BACK(&meter->indicator_ll, indic) {
 458:lvgl/src/extra/widgets/meter/lv_meter.c ****                 if(indic->type != LV_METER_INDICATOR_TYPE_SCALE_LINES) continue;
 459:lvgl/src/extra/widgets/meter/lv_meter.c ****                 if(value_of_line >= indic->start_value && value_of_line <= indic->end_value) {
 460:lvgl/src/extra/widgets/meter/lv_meter.c ****                     line_width += indic->type_data.scale_lines.width_mod;
 461:lvgl/src/extra/widgets/meter/lv_meter.c **** 
 462:lvgl/src/extra/widgets/meter/lv_meter.c ****                     if(indic->type_data.scale_lines.color_start.full == indic->type_data.scale_line
 463:lvgl/src/extra/widgets/meter/lv_meter.c ****                         line_color = indic->type_data.scale_lines.color_start;
 590              		.loc 1 463 25 is_stmt 1 view .LVU180
 591              		.loc 1 463 36 is_stmt 0 view .LVU181
 592 00c8 638A     		ldrh	r3, [r4, #18]
 593              	.LVL65:
 594              		.loc 1 463 36 view .LVU182
 595 00ca ADF81C30 		strh	r3, [sp, #28]	@ movhi
 596 00ce 10E0     		b	.L24
 597              	.LVL66:
 598              	.L26:
 599              	.LBB55:
 464:lvgl/src/extra/widgets/meter/lv_meter.c ****                     }
 465:lvgl/src/extra/widgets/meter/lv_meter.c ****                     else {
 466:lvgl/src/extra/widgets/meter/lv_meter.c ****                         lv_opa_t ratio;
 467:lvgl/src/extra/widgets/meter/lv_meter.c ****                         if(indic->type_data.scale_lines.local_grad) {
ARM GAS  /var/folders/21/t9g5rlb91ys800n5npymflf80000gn/T//ccb01ulG.s 			page 38


 468:lvgl/src/extra/widgets/meter/lv_meter.c ****                             ratio = lv_map(value_of_line, indic->start_value, indic->end_value, LV_
 469:lvgl/src/extra/widgets/meter/lv_meter.c ****                         }
 470:lvgl/src/extra/widgets/meter/lv_meter.c ****                         else {
 471:lvgl/src/extra/widgets/meter/lv_meter.c ****                             ratio = lv_map(value_of_line, scale->min, scale->max, LV_OPA_TRANSP, LV
 600              		.loc 1 471 29 is_stmt 1 view .LVU183
 601              		.loc 1 471 37 is_stmt 0 view .LVU184
 602 00d0 DBF81820 		ldr	r2, [fp, #24]
 603 00d4 DBF81410 		ldr	r1, [fp, #20]
 604 00d8 FF23     		movs	r3, #255
 605 00da 0093     		str	r3, [sp]
 606 00dc 0023     		movs	r3, #0
 607 00de 2846     		mov	r0, r5
 608 00e0 FFF7FEFF 		bl	lv_map
 609              	.LVL67:
 610              		.loc 1 471 35 view .LVU185
 611 00e4 C2B2     		uxtb	r2, r0
 612              	.LVL68:
 613              	.L27:
 472:lvgl/src/extra/widgets/meter/lv_meter.c ****                         }
 473:lvgl/src/extra/widgets/meter/lv_meter.c ****                         line_color = lv_color_mix(indic->type_data.scale_lines.color_end, indic->ty
 614              		.loc 1 473 25 is_stmt 1 view .LVU186
 615              		.loc 1 473 38 is_stmt 0 view .LVU187
 616 00e6 618A     		ldrh	r1, [r4, #18]
 617 00e8 A08A     		ldrh	r0, [r4, #20]
 618 00ea FFF7FEFF 		bl	lv_color_mix
 619              	.LVL69:
 620              		.loc 1 473 38 view .LVU188
 621 00ee ADF81C00 		strh	r0, [sp, #28]	@ movhi
 622              	.LVL70:
 623              	.L24:
 624              		.loc 1 473 38 view .LVU189
 625              	.LBE55:
 457:lvgl/src/extra/widgets/meter/lv_meter.c ****                 if(indic->type != LV_METER_INDICATOR_TYPE_SCALE_LINES) continue;
 626              		.loc 1 457 13 is_stmt 1 discriminator 2 view .LVU190
 627 00f2 2146     		mov	r1, r4
 628 00f4 3046     		mov	r0, r6
 629 00f6 FFF7FEFF 		bl	_lv_ll_get_prev
 630              	.LVL71:
 457:lvgl/src/extra/widgets/meter/lv_meter.c ****                 if(indic->type != LV_METER_INDICATOR_TYPE_SCALE_LINES) continue;
 631              		.loc 1 457 13 is_stmt 0 discriminator 2 view .LVU191
 632 00fa 0446     		mov	r4, r0
 633              	.LVL72:
 634              	.L23:
 457:lvgl/src/extra/widgets/meter/lv_meter.c ****                 if(indic->type != LV_METER_INDICATOR_TYPE_SCALE_LINES) continue;
 635              		.loc 1 457 13 is_stmt 1 discriminator 1 view .LVU192
 636 00fc DCB1     		cbz	r4, .L39
 458:lvgl/src/extra/widgets/meter/lv_meter.c ****                 if(value_of_line >= indic->start_value && value_of_line <= indic->end_value) {
 637              		.loc 1 458 17 view .LVU193
 458:lvgl/src/extra/widgets/meter/lv_meter.c ****                 if(value_of_line >= indic->start_value && value_of_line <= indic->end_value) {
 638              		.loc 1 458 25 is_stmt 0 view .LVU194
 639 00fe 2379     		ldrb	r3, [r4, #4]	@ zero_extendqisi2
 458:lvgl/src/extra/widgets/meter/lv_meter.c ****                 if(value_of_line >= indic->start_value && value_of_line <= indic->end_value) {
 640              		.loc 1 458 19 view .LVU195
 641 0100 022B     		cmp	r3, #2
 642 0102 F6D1     		bne	.L24
 459:lvgl/src/extra/widgets/meter/lv_meter.c ****                     line_width += indic->type_data.scale_lines.width_mod;
 643              		.loc 1 459 17 is_stmt 1 view .LVU196
ARM GAS  /var/folders/21/t9g5rlb91ys800n5npymflf80000gn/T//ccb01ulG.s 			page 39


 459:lvgl/src/extra/widgets/meter/lv_meter.c ****                     line_width += indic->type_data.scale_lines.width_mod;
 644              		.loc 1 459 42 is_stmt 0 view .LVU197
 645 0104 A168     		ldr	r1, [r4, #8]
 459:lvgl/src/extra/widgets/meter/lv_meter.c ****                     line_width += indic->type_data.scale_lines.width_mod;
 646              		.loc 1 459 19 view .LVU198
 647 0106 A942     		cmp	r1, r5
 648 0108 F3DC     		bgt	.L24
 459:lvgl/src/extra/widgets/meter/lv_meter.c ****                     line_width += indic->type_data.scale_lines.width_mod;
 649              		.loc 1 459 81 discriminator 1 view .LVU199
 650 010a E268     		ldr	r2, [r4, #12]
 459:lvgl/src/extra/widgets/meter/lv_meter.c ****                     line_width += indic->type_data.scale_lines.width_mod;
 651              		.loc 1 459 56 discriminator 1 view .LVU200
 652 010c AA42     		cmp	r2, r5
 653 010e F0DB     		blt	.L24
 460:lvgl/src/extra/widgets/meter/lv_meter.c **** 
 654              		.loc 1 460 21 is_stmt 1 view .LVU201
 460:lvgl/src/extra/widgets/meter/lv_meter.c **** 
 655              		.loc 1 460 63 is_stmt 0 view .LVU202
 656 0110 238A     		ldrh	r3, [r4, #16]
 460:lvgl/src/extra/widgets/meter/lv_meter.c **** 
 657              		.loc 1 460 32 view .LVU203
 658 0112 3B44     		add	r3, r3, r7
 659 0114 1FB2     		sxth	r7, r3
 660              	.LVL73:
 462:lvgl/src/extra/widgets/meter/lv_meter.c ****                         line_color = indic->type_data.scale_lines.color_start;
 661              		.loc 1 462 21 is_stmt 1 view .LVU204
 462:lvgl/src/extra/widgets/meter/lv_meter.c ****                         line_color = indic->type_data.scale_lines.color_start;
 662              		.loc 1 462 64 is_stmt 0 view .LVU205
 663 0116 608A     		ldrh	r0, [r4, #18]
 664              	.LVL74:
 462:lvgl/src/extra/widgets/meter/lv_meter.c ****                         line_color = indic->type_data.scale_lines.color_start;
 665              		.loc 1 462 111 view .LVU206
 666 0118 A38A     		ldrh	r3, [r4, #20]
 462:lvgl/src/extra/widgets/meter/lv_meter.c ****                         line_color = indic->type_data.scale_lines.color_start;
 667              		.loc 1 462 23 view .LVU207
 668 011a 9842     		cmp	r0, r3
 669 011c D4D0     		beq	.L40
 670              	.LBB56:
 466:lvgl/src/extra/widgets/meter/lv_meter.c ****                         if(indic->type_data.scale_lines.local_grad) {
 671              		.loc 1 466 25 is_stmt 1 view .LVU208
 467:lvgl/src/extra/widgets/meter/lv_meter.c ****                             ratio = lv_map(value_of_line, indic->start_value, indic->end_value, LV_
 672              		.loc 1 467 25 view .LVU209
 467:lvgl/src/extra/widgets/meter/lv_meter.c ****                             ratio = lv_map(value_of_line, indic->start_value, indic->end_value, LV_
 673              		.loc 1 467 28 is_stmt 0 view .LVU210
 674 011e A37D     		ldrb	r3, [r4, #22]	@ zero_extendqisi2
 467:lvgl/src/extra/widgets/meter/lv_meter.c ****                             ratio = lv_map(value_of_line, indic->start_value, indic->end_value, LV_
 675              		.loc 1 467 27 view .LVU211
 676 0120 13F0010F 		tst	r3, #1
 677 0124 D4D0     		beq	.L26
 468:lvgl/src/extra/widgets/meter/lv_meter.c ****                         }
 678              		.loc 1 468 29 is_stmt 1 view .LVU212
 468:lvgl/src/extra/widgets/meter/lv_meter.c ****                         }
 679              		.loc 1 468 37 is_stmt 0 view .LVU213
 680 0126 FF23     		movs	r3, #255
 681 0128 0093     		str	r3, [sp]
 682 012a 0023     		movs	r3, #0
 683 012c 2846     		mov	r0, r5
ARM GAS  /var/folders/21/t9g5rlb91ys800n5npymflf80000gn/T//ccb01ulG.s 			page 40


 684 012e FFF7FEFF 		bl	lv_map
 685              	.LVL75:
 468:lvgl/src/extra/widgets/meter/lv_meter.c ****                         }
 686              		.loc 1 468 35 view .LVU214
 687 0132 C2B2     		uxtb	r2, r0
 688              	.LVL76:
 468:lvgl/src/extra/widgets/meter/lv_meter.c ****                         }
 689              		.loc 1 468 35 view .LVU215
 690 0134 D7E7     		b	.L27
 691              	.LVL77:
 692              	.L39:
 468:lvgl/src/extra/widgets/meter/lv_meter.c ****                         }
 693              		.loc 1 468 35 view .LVU216
 694              	.LBE56:
 474:lvgl/src/extra/widgets/meter/lv_meter.c ****                     }
 475:lvgl/src/extra/widgets/meter/lv_meter.c ****                 }
 476:lvgl/src/extra/widgets/meter/lv_meter.c ****             }
 477:lvgl/src/extra/widgets/meter/lv_meter.c **** 
 478:lvgl/src/extra/widgets/meter/lv_meter.c ****             int32_t angle_upscale = ((i * scale->angle_range) * 10) / (scale->tick_cnt - 1) +  + sc
 695              		.loc 1 478 13 is_stmt 1 view .LVU217
 696              		.loc 1 478 48 is_stmt 0 view .LVU218
 697 0136 BBF81E30 		ldrh	r3, [fp, #30]
 698              		.loc 1 478 41 view .LVU219
 699 013a 069A     		ldr	r2, [sp, #24]
 700 013c 03FB02F2 		mul	r2, r3, r2
 701              		.loc 1 478 63 view .LVU220
 702 0140 02EB8204 		add	r4, r2, r2, lsl #2
 703 0144 6400     		lsls	r4, r4, #1
 704              		.loc 1 478 77 view .LVU221
 705 0146 BBF80230 		ldrh	r3, [fp, #2]
 706              		.loc 1 478 88 view .LVU222
 707 014a 013B     		subs	r3, r3, #1
 708              		.loc 1 478 69 view .LVU223
 709 014c 94FBF3F4 		sdiv	r4, r4, r3
 710              		.loc 1 478 103 view .LVU224
 711 0150 BBF92030 		ldrsh	r3, [fp, #32]
 712              		.loc 1 478 114 view .LVU225
 713 0154 03EB8303 		add	r3, r3, r3, lsl #2
 714              		.loc 1 478 21 view .LVU226
 715 0158 04EB4304 		add	r4, r4, r3, lsl #1
 716              	.LVL78:
 479:lvgl/src/extra/widgets/meter/lv_meter.c **** 
 480:lvgl/src/extra/widgets/meter/lv_meter.c ****             line_dsc.color = line_color;
 717              		.loc 1 480 13 is_stmt 1 view .LVU227
 718              		.loc 1 480 28 is_stmt 0 view .LVU228
 719 015c BDF81C30 		ldrh	r3, [sp, #28]
 720              	.LVL79:
 721              		.loc 1 480 28 view .LVU229
 722 0160 ADF84831 		strh	r3, [sp, #328]	@ movhi
 481:lvgl/src/extra/widgets/meter/lv_meter.c ****             line_dsc.width = line_width;
 723              		.loc 1 481 13 is_stmt 1 view .LVU230
 724              		.loc 1 481 28 is_stmt 0 view .LVU231
 725 0164 ADF84A71 		strh	r7, [sp, #330]	@ movhi
 482:lvgl/src/extra/widgets/meter/lv_meter.c **** 
 483:lvgl/src/extra/widgets/meter/lv_meter.c ****             /*Draw a little bit longer lines to be sure the mask will clip them correctly
 484:lvgl/src/extra/widgets/meter/lv_meter.c ****              *and to get a better precision*/
 485:lvgl/src/extra/widgets/meter/lv_meter.c ****             lv_point_t p_outer;
ARM GAS  /var/folders/21/t9g5rlb91ys800n5npymflf80000gn/T//ccb01ulG.s 			page 41


 726              		.loc 1 485 13 is_stmt 1 view .LVU232
 486:lvgl/src/extra/widgets/meter/lv_meter.c ****             p_outer.x = p_center.x + r_out + LV_MAX(LV_DPI_DEF, r_out);
 727              		.loc 1 486 13 view .LVU233
 728              		.loc 1 486 33 is_stmt 0 view .LVU234
 729 0168 BDF85431 		ldrh	r3, [sp, #340]
 730              	.LVL80:
 731              		.loc 1 486 36 view .LVU235
 732 016c 0A9A     		ldr	r2, [sp, #40]
 733 016e 1344     		add	r3, r3, r2
 734              		.loc 1 486 46 view .LVU236
 735 0170 0B9A     		ldr	r2, [sp, #44]
 736 0172 822A     		cmp	r2, #130
 737 0174 B8BF     		it	lt
 738 0176 8222     		movlt	r2, #130
 739 0178 92B2     		uxth	r2, r2
 740              		.loc 1 486 44 view .LVU237
 741 017a 12FA83F3 		uxtah	r3, r2, r3
 742              		.loc 1 486 23 view .LVU238
 743 017e 0FAE     		add	r6, sp, #60
 744 0180 ADF83C30 		strh	r3, [sp, #60]	@ movhi
 487:lvgl/src/extra/widgets/meter/lv_meter.c ****             p_outer.y = p_center.y;
 745              		.loc 1 487 13 is_stmt 1 view .LVU239
 746              		.loc 1 487 33 is_stmt 0 view .LVU240
 747 0184 BDF95631 		ldrsh	r3, [sp, #342]
 748              		.loc 1 487 23 view .LVU241
 749 0188 ADF83E30 		strh	r3, [sp, #62]	@ movhi
 488:lvgl/src/extra/widgets/meter/lv_meter.c ****             lv_point_transform(&p_outer, angle_upscale, 256, &p_center);
 750              		.loc 1 488 13 is_stmt 1 view .LVU242
 751 018c 55AF     		add	r7, sp, #340
 752              	.LVL81:
 753              		.loc 1 488 13 is_stmt 0 view .LVU243
 754 018e 3B46     		mov	r3, r7
 755 0190 4FF48072 		mov	r2, #256
 756 0194 2146     		mov	r1, r4
 757 0196 3046     		mov	r0, r6
 758              	.LVL82:
 759              		.loc 1 488 13 view .LVU244
 760 0198 FFF7FEFF 		bl	lv_point_transform
 761              	.LVL83:
 489:lvgl/src/extra/widgets/meter/lv_meter.c **** 
 490:lvgl/src/extra/widgets/meter/lv_meter.c ****             part_draw_dsc.p1 = &p_center;
 762              		.loc 1 490 13 is_stmt 1 view .LVU245
 763              		.loc 1 490 30 is_stmt 0 view .LVU246
 764 019c 2F97     		str	r7, [sp, #188]
 491:lvgl/src/extra/widgets/meter/lv_meter.c ****             part_draw_dsc.p2 = &p_outer;
 765              		.loc 1 491 13 is_stmt 1 view .LVU247
 766              		.loc 1 491 30 is_stmt 0 view .LVU248
 767 019e 3096     		str	r6, [sp, #192]
 492:lvgl/src/extra/widgets/meter/lv_meter.c ****             part_draw_dsc.id = i;
 768              		.loc 1 492 13 is_stmt 1 view .LVU249
 769              		.loc 1 492 30 is_stmt 0 view .LVU250
 770 01a0 CDF8D090 		str	r9, [sp, #208]
 493:lvgl/src/extra/widgets/meter/lv_meter.c ****             part_draw_dsc.label_dsc = &label_dsc;
 771              		.loc 1 493 13 is_stmt 1 view .LVU251
 772              		.loc 1 493 37 is_stmt 0 view .LVU252
 773 01a4 4AAB     		add	r3, sp, #296
 774 01a6 2B93     		str	r3, [sp, #172]
ARM GAS  /var/folders/21/t9g5rlb91ys800n5npymflf80000gn/T//ccb01ulG.s 			page 42


 494:lvgl/src/extra/widgets/meter/lv_meter.c **** 
 495:lvgl/src/extra/widgets/meter/lv_meter.c ****             /*Draw the text*/
 496:lvgl/src/extra/widgets/meter/lv_meter.c ****             if(major) {
 775              		.loc 1 496 13 is_stmt 1 view .LVU253
 776              		.loc 1 496 15 is_stmt 0 view .LVU254
 777 01a8 BAF1000F 		cmp	r10, #0
 778 01ac 00F0BC80 		beq	.L29
 779              	.LBB57:
 497:lvgl/src/extra/widgets/meter/lv_meter.c ****                 lv_draw_mask_remove_id(outer_mask_id);
 780              		.loc 1 497 17 is_stmt 1 view .LVU255
 781 01b0 0998     		ldr	r0, [sp, #36]
 782 01b2 FFF7FEFF 		bl	lv_draw_mask_remove_id
 783              	.LVL84:
 498:lvgl/src/extra/widgets/meter/lv_meter.c ****                 uint32_t r_text = r_in_major - scale->label_gap;
 784              		.loc 1 498 17 view .LVU256
 785              		.loc 1 498 53 is_stmt 0 view .LVU257
 786 01b6 BBF91020 		ldrsh	r2, [fp, #16]
 787              		.loc 1 498 46 view .LVU258
 788 01ba 0C9B     		ldr	r3, [sp, #48]
 789 01bc 9A1A     		subs	r2, r3, r2
 790              	.LVL85:
 499:lvgl/src/extra/widgets/meter/lv_meter.c ****                 lv_point_t p;
 791              		.loc 1 499 17 is_stmt 1 view .LVU259
 500:lvgl/src/extra/widgets/meter/lv_meter.c ****                 p.x = p_center.x + r_text;
 792              		.loc 1 500 17 view .LVU260
 793              		.loc 1 500 31 is_stmt 0 view .LVU261
 794 01be BDF85431 		ldrh	r3, [sp, #340]
 795              		.loc 1 500 34 view .LVU262
 796 01c2 1344     		add	r3, r3, r2
 797              		.loc 1 500 21 view .LVU263
 798 01c4 ADF84030 		strh	r3, [sp, #64]	@ movhi
 501:lvgl/src/extra/widgets/meter/lv_meter.c ****                 p.y = p_center.y;
 799              		.loc 1 501 17 is_stmt 1 view .LVU264
 800              		.loc 1 501 31 is_stmt 0 view .LVU265
 801 01c8 BDF95631 		ldrsh	r3, [sp, #342]
 802              		.loc 1 501 21 view .LVU266
 803 01cc ADF84230 		strh	r3, [sp, #66]	@ movhi
 502:lvgl/src/extra/widgets/meter/lv_meter.c ****                 lv_point_transform(&p, angle_upscale, 256, &p_center);
 804              		.loc 1 502 17 is_stmt 1 view .LVU267
 805 01d0 3B46     		mov	r3, r7
 806 01d2 4FF48072 		mov	r2, #256
 807              	.LVL86:
 808              		.loc 1 502 17 is_stmt 0 view .LVU268
 809 01d6 2146     		mov	r1, r4
 810 01d8 10A8     		add	r0, sp, #64
 811 01da FFF7FEFF 		bl	lv_point_transform
 812              	.LVL87:
 503:lvgl/src/extra/widgets/meter/lv_meter.c **** 
 504:lvgl/src/extra/widgets/meter/lv_meter.c ****                 lv_draw_label_dsc_t label_dsc_tmp;
 813              		.loc 1 504 17 is_stmt 1 view .LVU269
 505:lvgl/src/extra/widgets/meter/lv_meter.c ****                 lv_memcpy(&label_dsc_tmp, &label_dsc, sizeof(label_dsc_tmp));
 814              		.loc 1 505 17 view .LVU270
 815 01de 1EAC     		add	r4, sp, #120
 816              	.LVL88:
 817              		.loc 1 505 17 is_stmt 0 view .LVU271
 818 01e0 2022     		movs	r2, #32
 819 01e2 4AA9     		add	r1, sp, #296
ARM GAS  /var/folders/21/t9g5rlb91ys800n5npymflf80000gn/T//ccb01ulG.s 			page 43


 820 01e4 2046     		mov	r0, r4
 821 01e6 FFF7FEFF 		bl	lv_memcpy
 822              	.LVL89:
 506:lvgl/src/extra/widgets/meter/lv_meter.c **** 
 507:lvgl/src/extra/widgets/meter/lv_meter.c ****                 part_draw_dsc.label_dsc = &label_dsc_tmp;
 823              		.loc 1 507 17 is_stmt 1 view .LVU272
 824              		.loc 1 507 41 is_stmt 0 view .LVU273
 825 01ea 2B94     		str	r4, [sp, #172]
 508:lvgl/src/extra/widgets/meter/lv_meter.c ****                 char buf[16];
 826              		.loc 1 508 17 is_stmt 1 view .LVU274
 509:lvgl/src/extra/widgets/meter/lv_meter.c **** 
 510:lvgl/src/extra/widgets/meter/lv_meter.c ****                 lv_snprintf(buf, sizeof(buf), "%" LV_PRId32, value_of_line);
 827              		.loc 1 510 17 view .LVU275
 828 01ec 1AAC     		add	r4, sp, #104
 829 01ee 2B46     		mov	r3, r5
 830 01f0 564A     		ldr	r2, .L43+4
 831 01f2 1021     		movs	r1, #16
 832 01f4 2046     		mov	r0, r4
 833 01f6 FFF7FEFF 		bl	lv_snprintf
 834              	.LVL90:
 511:lvgl/src/extra/widgets/meter/lv_meter.c ****                 part_draw_dsc.text = buf;
 835              		.loc 1 511 17 view .LVU276
 836              		.loc 1 511 36 is_stmt 0 view .LVU277
 837 01fa 3194     		str	r4, [sp, #196]
 512:lvgl/src/extra/widgets/meter/lv_meter.c **** 
 513:lvgl/src/extra/widgets/meter/lv_meter.c ****                 lv_event_send(obj, LV_EVENT_DRAW_PART_BEGIN, &part_draw_dsc);
 838              		.loc 1 513 17 is_stmt 1 view .LVU278
 839 01fc 26AA     		add	r2, sp, #152
 840 01fe 1A21     		movs	r1, #26
 841 0200 0498     		ldr	r0, [sp, #16]
 842 0202 FFF7FEFF 		bl	lv_event_send
 843              	.LVL91:
 514:lvgl/src/extra/widgets/meter/lv_meter.c **** 
 515:lvgl/src/extra/widgets/meter/lv_meter.c ****                 lv_point_t label_size;
 844              		.loc 1 515 17 view .LVU279
 516:lvgl/src/extra/widgets/meter/lv_meter.c ****                 lv_txt_get_size(&label_size, part_draw_dsc.text, label_dsc_tmp.font, label_dsc_tmp.
 845              		.loc 1 516 17 view .LVU280
 846 0206 0024     		movs	r4, #0
 847 0208 0294     		str	r4, [sp, #8]
 848 020a 41F6FF73 		movw	r3, #8191
 849 020e 0193     		str	r3, [sp, #4]
 850 0210 BDF98A30 		ldrsh	r3, [sp, #138]
 851 0214 0093     		str	r3, [sp]
 852 0216 BDF98C30 		ldrsh	r3, [sp, #140]
 853 021a 1E9A     		ldr	r2, [sp, #120]
 854 021c 3199     		ldr	r1, [sp, #196]
 855 021e 11A8     		add	r0, sp, #68
 856 0220 FFF7FEFF 		bl	lv_txt_get_size
 857              	.LVL92:
 517:lvgl/src/extra/widgets/meter/lv_meter.c ****                                 label_dsc_tmp.line_space,
 518:lvgl/src/extra/widgets/meter/lv_meter.c ****                                 LV_COORD_MAX, LV_TEXT_FLAG_NONE);
 519:lvgl/src/extra/widgets/meter/lv_meter.c **** 
 520:lvgl/src/extra/widgets/meter/lv_meter.c ****                 lv_area_t label_cord;
 858              		.loc 1 520 17 view .LVU281
 521:lvgl/src/extra/widgets/meter/lv_meter.c ****                 label_cord.x1 = p.x - label_size.x / 2;
 859              		.loc 1 521 17 view .LVU282
 860              		.loc 1 521 34 is_stmt 0 view .LVU283
ARM GAS  /var/folders/21/t9g5rlb91ys800n5npymflf80000gn/T//ccb01ulG.s 			page 44


 861 0224 BDF84020 		ldrh	r2, [sp, #64]
 862              		.loc 1 521 49 view .LVU284
 863 0228 BDF94410 		ldrsh	r1, [sp, #68]
 864              		.loc 1 521 37 view .LVU285
 865 022c 01EBD173 		add	r3, r1, r1, lsr #31
 866 0230 A2EB6302 		sub	r2, r2, r3, asr #1
 867              		.loc 1 521 31 view .LVU286
 868 0234 ADF86020 		strh	r2, [sp, #96]	@ movhi
 522:lvgl/src/extra/widgets/meter/lv_meter.c ****                 label_cord.y1 = p.y - label_size.y / 2;
 869              		.loc 1 522 17 is_stmt 1 view .LVU287
 870              		.loc 1 522 34 is_stmt 0 view .LVU288
 871 0238 BDF84230 		ldrh	r3, [sp, #66]
 872              		.loc 1 522 49 view .LVU289
 873 023c BDF94600 		ldrsh	r0, [sp, #70]
 874              		.loc 1 522 37 view .LVU290
 875 0240 00EBD075 		add	r5, r0, r0, lsr #31
 876              	.LVL93:
 877              		.loc 1 522 37 view .LVU291
 878 0244 A3EB6503 		sub	r3, r3, r5, asr #1
 879              		.loc 1 522 31 view .LVU292
 880 0248 ADF86230 		strh	r3, [sp, #98]	@ movhi
 523:lvgl/src/extra/widgets/meter/lv_meter.c ****                 label_cord.x2 = label_cord.x1 + label_size.x;
 881              		.loc 1 523 17 is_stmt 1 view .LVU293
 882              		.loc 1 523 59 is_stmt 0 view .LVU294
 883 024c 89B2     		uxth	r1, r1
 884              		.loc 1 523 47 view .LVU295
 885 024e 11FA82F2 		uxtah	r2, r1, r2
 886              		.loc 1 523 31 view .LVU296
 887 0252 ADF86420 		strh	r2, [sp, #100]	@ movhi
 524:lvgl/src/extra/widgets/meter/lv_meter.c ****                 label_cord.y2 = label_cord.y1 + label_size.y;
 888              		.loc 1 524 17 is_stmt 1 view .LVU297
 889              		.loc 1 524 59 is_stmt 0 view .LVU298
 890 0256 82B2     		uxth	r2, r0
 891              		.loc 1 524 47 view .LVU299
 892 0258 12FA83F3 		uxtah	r3, r2, r3
 893              		.loc 1 524 31 view .LVU300
 894 025c ADF86630 		strh	r3, [sp, #102]	@ movhi
 525:lvgl/src/extra/widgets/meter/lv_meter.c **** 
 526:lvgl/src/extra/widgets/meter/lv_meter.c ****                 lv_draw_label(draw_ctx, part_draw_dsc.label_dsc, &label_cord, part_draw_dsc.text, N
 895              		.loc 1 526 17 is_stmt 1 view .LVU301
 896 0260 0094     		str	r4, [sp]
 897 0262 319B     		ldr	r3, [sp, #196]
 898 0264 18AA     		add	r2, sp, #96
 899 0266 2B99     		ldr	r1, [sp, #172]
 900 0268 0898     		ldr	r0, [sp, #32]
 901 026a FFF7FEFF 		bl	lv_draw_label
 902              	.LVL94:
 527:lvgl/src/extra/widgets/meter/lv_meter.c **** 
 528:lvgl/src/extra/widgets/meter/lv_meter.c ****                 outer_mask_id = lv_draw_mask_add(&outer_mask, NULL);
 903              		.loc 1 528 17 view .LVU302
 904              		.loc 1 528 33 is_stmt 0 view .LVU303
 905 026e 2146     		mov	r1, r4
 906 0270 38A8     		add	r0, sp, #224
 907 0272 FFF7FEFF 		bl	lv_draw_mask_add
 908              	.LVL95:
 909 0276 0990     		str	r0, [sp, #36]
 910              	.LVL96:
ARM GAS  /var/folders/21/t9g5rlb91ys800n5npymflf80000gn/T//ccb01ulG.s 			page 45


 911              	.L30:
 912              		.loc 1 528 33 view .LVU304
 913              	.LBE57:
 529:lvgl/src/extra/widgets/meter/lv_meter.c ****             }
 530:lvgl/src/extra/widgets/meter/lv_meter.c ****             else {
 531:lvgl/src/extra/widgets/meter/lv_meter.c ****                 part_draw_dsc.label_dsc = NULL;
 532:lvgl/src/extra/widgets/meter/lv_meter.c ****                 part_draw_dsc.text = NULL;
 533:lvgl/src/extra/widgets/meter/lv_meter.c ****                 lv_event_send(obj, LV_EVENT_DRAW_PART_BEGIN, &part_draw_dsc);
 534:lvgl/src/extra/widgets/meter/lv_meter.c ****             }
 535:lvgl/src/extra/widgets/meter/lv_meter.c **** 
 536:lvgl/src/extra/widgets/meter/lv_meter.c ****             inner_act_mask_id = lv_draw_mask_add(major ? &inner_major_mask : &inner_minor_mask, NUL
 914              		.loc 1 536 13 is_stmt 1 view .LVU305
 915              		.loc 1 536 33 is_stmt 0 view .LVU306
 916 0278 BAF1000F 		cmp	r10, #0
 917 027c 5DD0     		beq	.L37
 918 027e 3EA8     		add	r0, sp, #248
 919              	.L31:
 920              		.loc 1 536 33 discriminator 4 view .LVU307
 921 0280 0021     		movs	r1, #0
 922 0282 FFF7FEFF 		bl	lv_draw_mask_add
 923              	.LVL97:
 924 0286 0446     		mov	r4, r0
 925              	.LVL98:
 537:lvgl/src/extra/widgets/meter/lv_meter.c ****             lv_draw_line(draw_ctx, &line_dsc, &p_outer, &p_center);
 926              		.loc 1 537 13 is_stmt 1 discriminator 4 view .LVU308
 927 0288 55AB     		add	r3, sp, #340
 928 028a 0FAA     		add	r2, sp, #60
 929 028c 52A9     		add	r1, sp, #328
 930 028e 0898     		ldr	r0, [sp, #32]
 931 0290 FFF7FEFF 		bl	lv_draw_line
 932              	.LVL99:
 538:lvgl/src/extra/widgets/meter/lv_meter.c ****             lv_draw_mask_remove_id(inner_act_mask_id);
 933              		.loc 1 538 13 discriminator 4 view .LVU309
 934 0294 2046     		mov	r0, r4
 935 0296 FFF7FEFF 		bl	lv_draw_mask_remove_id
 936              	.LVL100:
 539:lvgl/src/extra/widgets/meter/lv_meter.c ****             lv_event_send(obj, LV_EVENT_DRAW_MAIN_END, &part_draw_dsc);
 937              		.loc 1 539 13 discriminator 4 view .LVU310
 938 029a 26AA     		add	r2, sp, #152
 939 029c 1621     		movs	r1, #22
 940 029e 0498     		ldr	r0, [sp, #16]
 941 02a0 FFF7FEFF 		bl	lv_event_send
 942              	.LVL101:
 540:lvgl/src/extra/widgets/meter/lv_meter.c **** 
 541:lvgl/src/extra/widgets/meter/lv_meter.c ****             line_dsc.color = line_color_ori;
 943              		.loc 1 541 13 discriminator 4 view .LVU311
 944              		.loc 1 541 28 is_stmt 0 discriminator 4 view .LVU312
 945 02a4 BDF81E30 		ldrh	r3, [sp, #30]
 946              	.LVL102:
 947              		.loc 1 541 28 discriminator 4 view .LVU313
 948 02a8 ADF84831 		strh	r3, [sp, #328]	@ movhi
 542:lvgl/src/extra/widgets/meter/lv_meter.c ****             line_dsc.width = line_width_ori;
 949              		.loc 1 542 13 is_stmt 1 discriminator 4 view .LVU314
 950              		.loc 1 542 28 is_stmt 0 discriminator 4 view .LVU315
 951 02ac 059B     		ldr	r3, [sp, #20]
 952              	.LVL103:
 953              		.loc 1 542 28 discriminator 4 view .LVU316
ARM GAS  /var/folders/21/t9g5rlb91ys800n5npymflf80000gn/T//ccb01ulG.s 			page 46


 954 02ae ADF84A31 		strh	r3, [sp, #330]	@ movhi
 955              	.LBE54:
 439:lvgl/src/extra/widgets/meter/lv_meter.c ****             minor_cnt++;
 956              		.loc 1 439 42 is_stmt 1 discriminator 4 view .LVU317
 957 02b2 09F10109 		add	r9, r9, #1
 958              	.LVL104:
 439:lvgl/src/extra/widgets/meter/lv_meter.c ****             minor_cnt++;
 959              		.loc 1 439 42 is_stmt 0 discriminator 4 view .LVU318
 960 02b6 1FFA89F9 		uxth	r9, r9
 961              	.LVL105:
 962              	.L32:
 439:lvgl/src/extra/widgets/meter/lv_meter.c ****             minor_cnt++;
 963              		.loc 1 439 22 is_stmt 1 discriminator 2 view .LVU319
 439:lvgl/src/extra/widgets/meter/lv_meter.c ****             minor_cnt++;
 964              		.loc 1 439 29 is_stmt 0 discriminator 2 view .LVU320
 965 02ba BBF80220 		ldrh	r2, [fp, #2]
 439:lvgl/src/extra/widgets/meter/lv_meter.c ****             minor_cnt++;
 966              		.loc 1 439 22 discriminator 2 view .LVU321
 967 02be 4A45     		cmp	r2, r9
 968 02c0 46D9     		bls	.L41
 969              	.LBB58:
 440:lvgl/src/extra/widgets/meter/lv_meter.c ****             bool major = false;
 970              		.loc 1 440 13 is_stmt 1 view .LVU322
 440:lvgl/src/extra/widgets/meter/lv_meter.c ****             bool major = false;
 971              		.loc 1 440 22 is_stmt 0 view .LVU323
 972 02c2 08F10108 		add	r8, r8, #1
 973              	.LVL106:
 441:lvgl/src/extra/widgets/meter/lv_meter.c ****             if(minor_cnt == scale->tick_major_nth) {
 974              		.loc 1 441 13 is_stmt 1 view .LVU324
 442:lvgl/src/extra/widgets/meter/lv_meter.c ****                 minor_cnt = 0;
 975              		.loc 1 442 13 view .LVU325
 442:lvgl/src/extra/widgets/meter/lv_meter.c ****                 minor_cnt = 0;
 976              		.loc 1 442 34 is_stmt 0 view .LVU326
 977 02c6 BBF80A30 		ldrh	r3, [fp, #10]
 442:lvgl/src/extra/widgets/meter/lv_meter.c ****                 minor_cnt = 0;
 978              		.loc 1 442 15 view .LVU327
 979 02ca 4345     		cmp	r3, r8
 980 02cc 3FF4EEAE 		beq	.L36
 441:lvgl/src/extra/widgets/meter/lv_meter.c ****             if(minor_cnt == scale->tick_major_nth) {
 981              		.loc 1 441 18 view .LVU328
 982 02d0 4FF0000A 		mov	r10, #0
 983              	.LVL107:
 984              	.L18:
 447:lvgl/src/extra/widgets/meter/lv_meter.c ****             part_draw_dsc.value = value_of_line;
 985              		.loc 1 447 13 is_stmt 1 view .LVU329
 447:lvgl/src/extra/widgets/meter/lv_meter.c ****             part_draw_dsc.value = value_of_line;
 986              		.loc 1 447 37 is_stmt 0 view .LVU330
 987 02d4 CDF81890 		str	r9, [sp, #24]
 988 02d8 DBF81430 		ldr	r3, [fp, #20]
 989 02dc DBF81810 		ldr	r1, [fp, #24]
 990 02e0 0091     		str	r1, [sp]
 991 02e2 013A     		subs	r2, r2, #1
 992 02e4 0021     		movs	r1, #0
 993 02e6 4846     		mov	r0, r9
 994 02e8 FFF7FEFF 		bl	lv_map
 995              	.LVL108:
 996 02ec 0546     		mov	r5, r0
ARM GAS  /var/folders/21/t9g5rlb91ys800n5npymflf80000gn/T//ccb01ulG.s 			page 47


 997              	.LVL109:
 448:lvgl/src/extra/widgets/meter/lv_meter.c **** 
 998              		.loc 1 448 13 is_stmt 1 view .LVU331
 448:lvgl/src/extra/widgets/meter/lv_meter.c **** 
 999              		.loc 1 448 33 is_stmt 0 view .LVU332
 1000 02ee 3690     		str	r0, [sp, #216]
 450:lvgl/src/extra/widgets/meter/lv_meter.c ****             lv_color_t line_color_ori = line_color;
 1001              		.loc 1 450 13 is_stmt 1 view .LVU333
 450:lvgl/src/extra/widgets/meter/lv_meter.c ****             lv_color_t line_color_ori = line_color;
 1002              		.loc 1 450 69 is_stmt 0 view .LVU334
 1003 02f0 BAF1000F 		cmp	r10, #0
 1004 02f4 3FF4DFAE 		beq	.L19
 450:lvgl/src/extra/widgets/meter/lv_meter.c ****             lv_color_t line_color_ori = line_color;
 1005              		.loc 1 450 24 discriminator 1 view .LVU335
 1006 02f8 BBF80830 		ldrh	r3, [fp, #8]
 1007              	.LVL110:
 450:lvgl/src/extra/widgets/meter/lv_meter.c ****             lv_color_t line_color_ori = line_color;
 1008              		.loc 1 450 24 discriminator 1 view .LVU336
 1009 02fc ADF81C30 		strh	r3, [sp, #28]	@ movhi
 1010              	.L20:
 451:lvgl/src/extra/widgets/meter/lv_meter.c **** 
 1011              		.loc 1 451 13 is_stmt 1 view .LVU337
 451:lvgl/src/extra/widgets/meter/lv_meter.c **** 
 1012              		.loc 1 451 24 is_stmt 0 view .LVU338
 1013 0300 BDF81C30 		ldrh	r3, [sp, #28]
 1014              	.LVL111:
 451:lvgl/src/extra/widgets/meter/lv_meter.c **** 
 1015              		.loc 1 451 24 view .LVU339
 1016 0304 ADF81E30 		strh	r3, [sp, #30]	@ movhi
 453:lvgl/src/extra/widgets/meter/lv_meter.c ****             lv_coord_t line_width = line_width_ori;
 1017              		.loc 1 453 13 is_stmt 1 view .LVU340
 453:lvgl/src/extra/widgets/meter/lv_meter.c ****             lv_coord_t line_width = line_width_ori;
 1018              		.loc 1 453 24 is_stmt 0 view .LVU341
 1019 0308 BAF1000F 		cmp	r10, #0
 1020 030c 3FF4D8AE 		beq	.L21
 453:lvgl/src/extra/widgets/meter/lv_meter.c ****             lv_coord_t line_width = line_width_ori;
 1021              		.loc 1 453 24 discriminator 1 view .LVU342
 1022 0310 BBF90E30 		ldrsh	r3, [fp, #14]
 1023              	.LVL112:
 453:lvgl/src/extra/widgets/meter/lv_meter.c ****             lv_coord_t line_width = line_width_ori;
 1024              		.loc 1 453 24 discriminator 1 view .LVU343
 1025 0314 0593     		str	r3, [sp, #20]
 1026              	.L22:
 1027              	.LVL113:
 454:lvgl/src/extra/widgets/meter/lv_meter.c **** 
 1028              		.loc 1 454 13 is_stmt 1 discriminator 4 view .LVU344
 456:lvgl/src/extra/widgets/meter/lv_meter.c ****             _LV_LL_READ_BACK(&meter->indicator_ll, indic) {
 1029              		.loc 1 456 13 discriminator 4 view .LVU345
 457:lvgl/src/extra/widgets/meter/lv_meter.c ****                 if(indic->type != LV_METER_INDICATOR_TYPE_SCALE_LINES) continue;
 1030              		.loc 1 457 13 discriminator 4 view .LVU346
 1031 0316 049B     		ldr	r3, [sp, #16]
 1032 0318 03F13006 		add	r6, r3, #48
 1033 031c 3046     		mov	r0, r6
 1034              	.LVL114:
 457:lvgl/src/extra/widgets/meter/lv_meter.c ****                 if(indic->type != LV_METER_INDICATOR_TYPE_SCALE_LINES) continue;
 1035              		.loc 1 457 13 is_stmt 0 discriminator 4 view .LVU347
 1036 031e FFF7FEFF 		bl	_lv_ll_get_tail
ARM GAS  /var/folders/21/t9g5rlb91ys800n5npymflf80000gn/T//ccb01ulG.s 			page 48


 1037              	.LVL115:
 1038 0322 0446     		mov	r4, r0
 1039              	.LVL116:
 454:lvgl/src/extra/widgets/meter/lv_meter.c **** 
 1040              		.loc 1 454 24 discriminator 4 view .LVU348
 1041 0324 059F     		ldr	r7, [sp, #20]
 457:lvgl/src/extra/widgets/meter/lv_meter.c ****                 if(indic->type != LV_METER_INDICATOR_TYPE_SCALE_LINES) continue;
 1042              		.loc 1 457 13 discriminator 4 view .LVU349
 1043 0326 E9E6     		b	.L23
 1044              	.LVL117:
 1045              	.L29:
 531:lvgl/src/extra/widgets/meter/lv_meter.c ****                 part_draw_dsc.text = NULL;
 1046              		.loc 1 531 17 is_stmt 1 view .LVU350
 531:lvgl/src/extra/widgets/meter/lv_meter.c ****                 part_draw_dsc.text = NULL;
 1047              		.loc 1 531 41 is_stmt 0 view .LVU351
 1048 0328 0023     		movs	r3, #0
 1049 032a 2B93     		str	r3, [sp, #172]
 532:lvgl/src/extra/widgets/meter/lv_meter.c ****                 lv_event_send(obj, LV_EVENT_DRAW_PART_BEGIN, &part_draw_dsc);
 1050              		.loc 1 532 17 is_stmt 1 view .LVU352
 532:lvgl/src/extra/widgets/meter/lv_meter.c ****                 lv_event_send(obj, LV_EVENT_DRAW_PART_BEGIN, &part_draw_dsc);
 1051              		.loc 1 532 36 is_stmt 0 view .LVU353
 1052 032c 3193     		str	r3, [sp, #196]
 533:lvgl/src/extra/widgets/meter/lv_meter.c ****             }
 1053              		.loc 1 533 17 is_stmt 1 view .LVU354
 1054 032e 26AA     		add	r2, sp, #152
 1055 0330 1A21     		movs	r1, #26
 1056 0332 0498     		ldr	r0, [sp, #16]
 1057 0334 FFF7FEFF 		bl	lv_event_send
 1058              	.LVL118:
 1059 0338 9EE7     		b	.L30
 1060              	.LVL119:
 1061              	.L37:
 536:lvgl/src/extra/widgets/meter/lv_meter.c ****             lv_draw_line(draw_ctx, &line_dsc, &p_outer, &p_center);
 1062              		.loc 1 536 33 is_stmt 0 view .LVU355
 1063 033a 44A8     		add	r0, sp, #272
 1064 033c A0E7     		b	.L31
 1065              	.LVL120:
 1066              	.L35:
 536:lvgl/src/extra/widgets/meter/lv_meter.c ****             lv_draw_line(draw_ctx, &line_dsc, &p_outer, &p_center);
 1067              		.loc 1 536 33 view .LVU356
 1068              	.LBE58:
 437:lvgl/src/extra/widgets/meter/lv_meter.c ****         uint16_t i;
 1069              		.loc 1 437 80 view .LVU357
 1070 033e 4FF6FF78 		movw	r8, #65535
 1071              	.L17:
 437:lvgl/src/extra/widgets/meter/lv_meter.c ****         uint16_t i;
 1072              		.loc 1 437 80 discriminator 2 view .LVU358
 1073 0342 4FF00009 		mov	r9, #0
 1074 0346 B8E7     		b	.L32
 1075              	.L44:
 1076              		.align	2
 1077              	.L43:
 1078 0348 00000000 		.word	lv_meter_class
 1079 034c 00000000 		.word	.LC0
 1080              	.LVL121:
 1081              	.L41:
 543:lvgl/src/extra/widgets/meter/lv_meter.c **** 
ARM GAS  /var/folders/21/t9g5rlb91ys800n5npymflf80000gn/T//ccb01ulG.s 			page 49


 544:lvgl/src/extra/widgets/meter/lv_meter.c ****         }
 545:lvgl/src/extra/widgets/meter/lv_meter.c ****         lv_draw_mask_free_param(&inner_minor_mask);
 1082              		.loc 1 545 9 is_stmt 1 discriminator 2 view .LVU359
 1083 0350 44A8     		add	r0, sp, #272
 1084 0352 FFF7FEFF 		bl	lv_draw_mask_free_param
 1085              	.LVL122:
 546:lvgl/src/extra/widgets/meter/lv_meter.c ****         lv_draw_mask_free_param(&inner_major_mask);
 1086              		.loc 1 546 9 discriminator 2 view .LVU360
 1087 0356 3EA8     		add	r0, sp, #248
 1088 0358 FFF7FEFF 		bl	lv_draw_mask_free_param
 1089              	.LVL123:
 547:lvgl/src/extra/widgets/meter/lv_meter.c ****         lv_draw_mask_free_param(&outer_mask);
 1090              		.loc 1 547 9 discriminator 2 view .LVU361
 1091 035c 38A8     		add	r0, sp, #224
 1092 035e FFF7FEFF 		bl	lv_draw_mask_free_param
 1093              	.LVL124:
 548:lvgl/src/extra/widgets/meter/lv_meter.c ****         lv_draw_mask_remove_id(outer_mask_id);
 1094              		.loc 1 548 9 discriminator 2 view .LVU362
 1095 0362 0998     		ldr	r0, [sp, #36]
 1096 0364 FFF7FEFF 		bl	lv_draw_mask_remove_id
 1097              	.LVL125:
 1098              	.LBE53:
 406:lvgl/src/extra/widgets/meter/lv_meter.c ****         part_draw_dsc.sub_part_ptr = scale;
 1099              		.loc 1 406 5 discriminator 2 view .LVU363
 1100 0368 5946     		mov	r1, fp
 1101 036a 0D98     		ldr	r0, [sp, #52]
 1102 036c FFF7FEFF 		bl	_lv_ll_get_prev
 1103              	.LVL126:
 1104 0370 8346     		mov	fp, r0
 1105              	.LVL127:
 1106              	.L16:
 406:lvgl/src/extra/widgets/meter/lv_meter.c ****         part_draw_dsc.sub_part_ptr = scale;
 1107              		.loc 1 406 5 discriminator 1 view .LVU364
 1108 0372 BBF1000F 		cmp	fp, #0
 1109 0376 6AD0     		beq	.L42
 1110              	.LBB59:
 407:lvgl/src/extra/widgets/meter/lv_meter.c **** 
 1111              		.loc 1 407 9 view .LVU365
 407:lvgl/src/extra/widgets/meter/lv_meter.c **** 
 1112              		.loc 1 407 36 is_stmt 0 view .LVU366
 1113 0378 CDF8DCB0 		str	fp, [sp, #220]
 409:lvgl/src/extra/widgets/meter/lv_meter.c ****         lv_coord_t r_in_minor = r_out - scale->tick_length;
 1114              		.loc 1 409 9 is_stmt 1 view .LVU367
 1115              	.LVL128:
 410:lvgl/src/extra/widgets/meter/lv_meter.c ****         lv_coord_t r_in_major = r_out - scale->tick_major_length;
 1116              		.loc 1 410 9 view .LVU368
 410:lvgl/src/extra/widgets/meter/lv_meter.c ****         lv_coord_t r_in_major = r_out - scale->tick_major_length;
 1117              		.loc 1 410 46 is_stmt 0 view .LVU369
 1118 037c BBF80430 		ldrh	r3, [fp, #4]
 410:lvgl/src/extra/widgets/meter/lv_meter.c ****         lv_coord_t r_in_major = r_out - scale->tick_major_length;
 1119              		.loc 1 410 39 view .LVU370
 1120 0380 0A9E     		ldr	r6, [sp, #40]
 1121 0382 F21A     		subs	r2, r6, r3
 1122 0384 92B2     		uxth	r2, r2
 1123              	.LVL129:
 411:lvgl/src/extra/widgets/meter/lv_meter.c **** 
 1124              		.loc 1 411 9 is_stmt 1 view .LVU371
ARM GAS  /var/folders/21/t9g5rlb91ys800n5npymflf80000gn/T//ccb01ulG.s 			page 50


 411:lvgl/src/extra/widgets/meter/lv_meter.c **** 
 1125              		.loc 1 411 46 is_stmt 0 view .LVU372
 1126 0386 BBF80C40 		ldrh	r4, [fp, #12]
 411:lvgl/src/extra/widgets/meter/lv_meter.c **** 
 1127              		.loc 1 411 39 view .LVU373
 1128 038a 311B     		subs	r1, r6, r4
 1129 038c 8DB2     		uxth	r5, r1
 411:lvgl/src/extra/widgets/meter/lv_meter.c **** 
 1130              		.loc 1 411 20 view .LVU374
 1131 038e 09B2     		sxth	r1, r1
 1132 0390 0C91     		str	r1, [sp, #48]
 1133              	.LVL130:
 413:lvgl/src/extra/widgets/meter/lv_meter.c ****         area_inner_minor.x1 = p_center.x - r_in_minor;
 1134              		.loc 1 413 9 is_stmt 1 view .LVU375
 414:lvgl/src/extra/widgets/meter/lv_meter.c ****         area_inner_minor.y1 = p_center.y - r_in_minor;
 1135              		.loc 1 414 9 view .LVU376
 414:lvgl/src/extra/widgets/meter/lv_meter.c ****         area_inner_minor.y1 = p_center.y - r_in_minor;
 1136              		.loc 1 414 39 is_stmt 0 view .LVU377
 1137 0392 BDF85411 		ldrh	r1, [sp, #340]
 1138 0396 9B1B     		subs	r3, r3, r6
 1139 0398 9BB2     		uxth	r3, r3
 414:lvgl/src/extra/widgets/meter/lv_meter.c ****         area_inner_minor.y1 = p_center.y - r_in_minor;
 1140              		.loc 1 414 42 view .LVU378
 1141 039a C818     		adds	r0, r1, r3
 1142              	.LVL131:
 414:lvgl/src/extra/widgets/meter/lv_meter.c ****         area_inner_minor.y1 = p_center.y - r_in_minor;
 1143              		.loc 1 414 29 view .LVU379
 1144 039c ADF84800 		strh	r0, [sp, #72]	@ movhi
 415:lvgl/src/extra/widgets/meter/lv_meter.c ****         area_inner_minor.x2 = p_center.x + r_in_minor;
 1145              		.loc 1 415 9 is_stmt 1 view .LVU380
 415:lvgl/src/extra/widgets/meter/lv_meter.c ****         area_inner_minor.x2 = p_center.x + r_in_minor;
 1146              		.loc 1 415 39 is_stmt 0 view .LVU381
 1147 03a0 BDF85601 		ldrh	r0, [sp, #342]
 415:lvgl/src/extra/widgets/meter/lv_meter.c ****         area_inner_minor.x2 = p_center.x + r_in_minor;
 1148              		.loc 1 415 42 view .LVU382
 1149 03a4 0344     		add	r3, r3, r0
 415:lvgl/src/extra/widgets/meter/lv_meter.c ****         area_inner_minor.x2 = p_center.x + r_in_minor;
 1150              		.loc 1 415 29 view .LVU383
 1151 03a6 ADF84A30 		strh	r3, [sp, #74]	@ movhi
 416:lvgl/src/extra/widgets/meter/lv_meter.c ****         area_inner_minor.y2 = p_center.y + r_in_minor;
 1152              		.loc 1 416 9 is_stmt 1 view .LVU384
 416:lvgl/src/extra/widgets/meter/lv_meter.c ****         area_inner_minor.y2 = p_center.y + r_in_minor;
 1153              		.loc 1 416 42 is_stmt 0 view .LVU385
 1154 03aa 1144     		add	r1, r1, r2
 416:lvgl/src/extra/widgets/meter/lv_meter.c ****         area_inner_minor.y2 = p_center.y + r_in_minor;
 1155              		.loc 1 416 29 view .LVU386
 1156 03ac ADF84C10 		strh	r1, [sp, #76]	@ movhi
 417:lvgl/src/extra/widgets/meter/lv_meter.c ****         lv_draw_mask_radius_init(&inner_minor_mask, &area_inner_minor, LV_RADIUS_CIRCLE, true);
 1157              		.loc 1 417 9 is_stmt 1 view .LVU387
 417:lvgl/src/extra/widgets/meter/lv_meter.c ****         lv_draw_mask_radius_init(&inner_minor_mask, &area_inner_minor, LV_RADIUS_CIRCLE, true);
 1158              		.loc 1 417 42 is_stmt 0 view .LVU388
 1159 03b0 0244     		add	r2, r2, r0
 1160              	.LVL132:
 417:lvgl/src/extra/widgets/meter/lv_meter.c ****         lv_draw_mask_radius_init(&inner_minor_mask, &area_inner_minor, LV_RADIUS_CIRCLE, true);
 1161              		.loc 1 417 29 view .LVU389
 1162 03b2 ADF84E20 		strh	r2, [sp, #78]	@ movhi
 418:lvgl/src/extra/widgets/meter/lv_meter.c **** 
ARM GAS  /var/folders/21/t9g5rlb91ys800n5npymflf80000gn/T//ccb01ulG.s 			page 51


 1163              		.loc 1 418 9 is_stmt 1 view .LVU390
 1164 03b6 0123     		movs	r3, #1
 1165 03b8 47F6FF72 		movw	r2, #32767
 1166 03bc 12A9     		add	r1, sp, #72
 1167 03be 44A8     		add	r0, sp, #272
 1168 03c0 FFF7FEFF 		bl	lv_draw_mask_radius_init
 1169              	.LVL133:
 420:lvgl/src/extra/widgets/meter/lv_meter.c ****         area_inner_major.x1 = p_center.x - r_in_major;
 1170              		.loc 1 420 9 view .LVU391
 421:lvgl/src/extra/widgets/meter/lv_meter.c ****         area_inner_major.y1 = p_center.y - r_in_major;
 1171              		.loc 1 421 9 view .LVU392
 421:lvgl/src/extra/widgets/meter/lv_meter.c ****         area_inner_major.y1 = p_center.y - r_in_major;
 1172              		.loc 1 421 39 is_stmt 0 view .LVU393
 1173 03c4 BDF85421 		ldrh	r2, [sp, #340]
 1174 03c8 A31B     		subs	r3, r4, r6
 1175 03ca 9BB2     		uxth	r3, r3
 421:lvgl/src/extra/widgets/meter/lv_meter.c ****         area_inner_major.y1 = p_center.y - r_in_major;
 1176              		.loc 1 421 42 view .LVU394
 1177 03cc 9918     		adds	r1, r3, r2
 421:lvgl/src/extra/widgets/meter/lv_meter.c ****         area_inner_major.y1 = p_center.y - r_in_major;
 1178              		.loc 1 421 29 view .LVU395
 1179 03ce ADF85010 		strh	r1, [sp, #80]	@ movhi
 422:lvgl/src/extra/widgets/meter/lv_meter.c ****         area_inner_major.x2 = p_center.x + r_in_major - 1;
 1180              		.loc 1 422 9 is_stmt 1 view .LVU396
 422:lvgl/src/extra/widgets/meter/lv_meter.c ****         area_inner_major.x2 = p_center.x + r_in_major - 1;
 1181              		.loc 1 422 39 is_stmt 0 view .LVU397
 1182 03d2 BDF85611 		ldrh	r1, [sp, #342]
 422:lvgl/src/extra/widgets/meter/lv_meter.c ****         area_inner_major.x2 = p_center.x + r_in_major - 1;
 1183              		.loc 1 422 42 view .LVU398
 1184 03d6 0B44     		add	r3, r3, r1
 422:lvgl/src/extra/widgets/meter/lv_meter.c ****         area_inner_major.x2 = p_center.x + r_in_major - 1;
 1185              		.loc 1 422 29 view .LVU399
 1186 03d8 ADF85230 		strh	r3, [sp, #82]	@ movhi
 423:lvgl/src/extra/widgets/meter/lv_meter.c ****         area_inner_major.y2 = p_center.y + r_in_major - 1;
 1187              		.loc 1 423 9 is_stmt 1 view .LVU400
 423:lvgl/src/extra/widgets/meter/lv_meter.c ****         area_inner_major.y2 = p_center.y + r_in_major - 1;
 1188              		.loc 1 423 42 is_stmt 0 view .LVU401
 1189 03dc AB18     		adds	r3, r5, r2
 1190 03de 9BB2     		uxth	r3, r3
 423:lvgl/src/extra/widgets/meter/lv_meter.c ****         area_inner_major.y2 = p_center.y + r_in_major - 1;
 1191              		.loc 1 423 55 view .LVU402
 1192 03e0 013B     		subs	r3, r3, #1
 423:lvgl/src/extra/widgets/meter/lv_meter.c ****         area_inner_major.y2 = p_center.y + r_in_major - 1;
 1193              		.loc 1 423 29 view .LVU403
 1194 03e2 ADF85430 		strh	r3, [sp, #84]	@ movhi
 424:lvgl/src/extra/widgets/meter/lv_meter.c ****         lv_draw_mask_radius_init(&inner_major_mask, &area_inner_major, LV_RADIUS_CIRCLE, true);
 1195              		.loc 1 424 9 is_stmt 1 view .LVU404
 424:lvgl/src/extra/widgets/meter/lv_meter.c ****         lv_draw_mask_radius_init(&inner_major_mask, &area_inner_major, LV_RADIUS_CIRCLE, true);
 1196              		.loc 1 424 42 is_stmt 0 view .LVU405
 1197 03e6 6B18     		adds	r3, r5, r1
 1198 03e8 9BB2     		uxth	r3, r3
 424:lvgl/src/extra/widgets/meter/lv_meter.c ****         lv_draw_mask_radius_init(&inner_major_mask, &area_inner_major, LV_RADIUS_CIRCLE, true);
 1199              		.loc 1 424 55 view .LVU406
 1200 03ea 013B     		subs	r3, r3, #1
 424:lvgl/src/extra/widgets/meter/lv_meter.c ****         lv_draw_mask_radius_init(&inner_major_mask, &area_inner_major, LV_RADIUS_CIRCLE, true);
 1201              		.loc 1 424 29 view .LVU407
 1202 03ec ADF85630 		strh	r3, [sp, #86]	@ movhi
ARM GAS  /var/folders/21/t9g5rlb91ys800n5npymflf80000gn/T//ccb01ulG.s 			page 52


 425:lvgl/src/extra/widgets/meter/lv_meter.c **** 
 1203              		.loc 1 425 9 is_stmt 1 view .LVU408
 1204 03f0 0123     		movs	r3, #1
 1205 03f2 47F6FF72 		movw	r2, #32767
 1206 03f6 14A9     		add	r1, sp, #80
 1207 03f8 3EA8     		add	r0, sp, #248
 1208 03fa FFF7FEFF 		bl	lv_draw_mask_radius_init
 1209              	.LVL134:
 427:lvgl/src/extra/widgets/meter/lv_meter.c ****         area_outer.x1 = p_center.x - r_out;
 1210              		.loc 1 427 9 view .LVU409
 428:lvgl/src/extra/widgets/meter/lv_meter.c ****         area_outer.y1 = p_center.y - r_out;
 1211              		.loc 1 428 9 view .LVU410
 428:lvgl/src/extra/widgets/meter/lv_meter.c ****         area_outer.y1 = p_center.y - r_out;
 1212              		.loc 1 428 33 is_stmt 0 view .LVU411
 1213 03fe BDF85421 		ldrh	r2, [sp, #340]
 428:lvgl/src/extra/widgets/meter/lv_meter.c ****         area_outer.y1 = p_center.y - r_out;
 1214              		.loc 1 428 36 view .LVU412
 1215 0402 931B     		subs	r3, r2, r6
 428:lvgl/src/extra/widgets/meter/lv_meter.c ****         area_outer.y1 = p_center.y - r_out;
 1216              		.loc 1 428 23 view .LVU413
 1217 0404 ADF85830 		strh	r3, [sp, #88]	@ movhi
 429:lvgl/src/extra/widgets/meter/lv_meter.c ****         area_outer.x2 = p_center.x + r_out - 1;
 1218              		.loc 1 429 9 is_stmt 1 view .LVU414
 429:lvgl/src/extra/widgets/meter/lv_meter.c ****         area_outer.x2 = p_center.x + r_out - 1;
 1219              		.loc 1 429 33 is_stmt 0 view .LVU415
 1220 0408 BDF85631 		ldrh	r3, [sp, #342]
 429:lvgl/src/extra/widgets/meter/lv_meter.c ****         area_outer.x2 = p_center.x + r_out - 1;
 1221              		.loc 1 429 36 view .LVU416
 1222 040c 991B     		subs	r1, r3, r6
 429:lvgl/src/extra/widgets/meter/lv_meter.c ****         area_outer.x2 = p_center.x + r_out - 1;
 1223              		.loc 1 429 23 view .LVU417
 1224 040e ADF85A10 		strh	r1, [sp, #90]	@ movhi
 430:lvgl/src/extra/widgets/meter/lv_meter.c ****         area_outer.y2 = p_center.y + r_out - 1;
 1225              		.loc 1 430 9 is_stmt 1 view .LVU418
 430:lvgl/src/extra/widgets/meter/lv_meter.c ****         area_outer.y2 = p_center.y + r_out - 1;
 1226              		.loc 1 430 36 is_stmt 0 view .LVU419
 1227 0412 3244     		add	r2, r2, r6
 1228 0414 92B2     		uxth	r2, r2
 430:lvgl/src/extra/widgets/meter/lv_meter.c ****         area_outer.y2 = p_center.y + r_out - 1;
 1229              		.loc 1 430 44 view .LVU420
 1230 0416 013A     		subs	r2, r2, #1
 430:lvgl/src/extra/widgets/meter/lv_meter.c ****         area_outer.y2 = p_center.y + r_out - 1;
 1231              		.loc 1 430 23 view .LVU421
 1232 0418 ADF85C20 		strh	r2, [sp, #92]	@ movhi
 431:lvgl/src/extra/widgets/meter/lv_meter.c ****         lv_draw_mask_radius_init(&outer_mask, &area_outer, LV_RADIUS_CIRCLE, false);
 1233              		.loc 1 431 9 is_stmt 1 view .LVU422
 431:lvgl/src/extra/widgets/meter/lv_meter.c ****         lv_draw_mask_radius_init(&outer_mask, &area_outer, LV_RADIUS_CIRCLE, false);
 1234              		.loc 1 431 36 is_stmt 0 view .LVU423
 1235 041c 3344     		add	r3, r3, r6
 1236 041e 9BB2     		uxth	r3, r3
 431:lvgl/src/extra/widgets/meter/lv_meter.c ****         lv_draw_mask_radius_init(&outer_mask, &area_outer, LV_RADIUS_CIRCLE, false);
 1237              		.loc 1 431 44 view .LVU424
 1238 0420 013B     		subs	r3, r3, #1
 431:lvgl/src/extra/widgets/meter/lv_meter.c ****         lv_draw_mask_radius_init(&outer_mask, &area_outer, LV_RADIUS_CIRCLE, false);
 1239              		.loc 1 431 23 view .LVU425
 1240 0422 ADF85E30 		strh	r3, [sp, #94]	@ movhi
 432:lvgl/src/extra/widgets/meter/lv_meter.c ****         int16_t outer_mask_id = lv_draw_mask_add(&outer_mask, NULL);
ARM GAS  /var/folders/21/t9g5rlb91ys800n5npymflf80000gn/T//ccb01ulG.s 			page 53


 1241              		.loc 1 432 9 is_stmt 1 view .LVU426
 1242 0426 0023     		movs	r3, #0
 1243 0428 47F6FF72 		movw	r2, #32767
 1244 042c 16A9     		add	r1, sp, #88
 1245 042e 38A8     		add	r0, sp, #224
 1246 0430 FFF7FEFF 		bl	lv_draw_mask_radius_init
 1247              	.LVL135:
 433:lvgl/src/extra/widgets/meter/lv_meter.c **** 
 1248              		.loc 1 433 9 view .LVU427
 433:lvgl/src/extra/widgets/meter/lv_meter.c **** 
 1249              		.loc 1 433 33 is_stmt 0 view .LVU428
 1250 0434 0021     		movs	r1, #0
 1251 0436 38A8     		add	r0, sp, #224
 1252 0438 FFF7FEFF 		bl	lv_draw_mask_add
 1253              	.LVL136:
 1254 043c 0990     		str	r0, [sp, #36]
 1255              	.LVL137:
 435:lvgl/src/extra/widgets/meter/lv_meter.c **** 
 1256              		.loc 1 435 9 is_stmt 1 view .LVU429
 437:lvgl/src/extra/widgets/meter/lv_meter.c ****         uint16_t i;
 1257              		.loc 1 437 9 view .LVU430
 437:lvgl/src/extra/widgets/meter/lv_meter.c ****         uint16_t i;
 1258              		.loc 1 437 35 is_stmt 0 view .LVU431
 1259 043e BBF80A30 		ldrh	r3, [fp, #10]
 437:lvgl/src/extra/widgets/meter/lv_meter.c ****         uint16_t i;
 1260              		.loc 1 437 80 view .LVU432
 1261 0442 002B     		cmp	r3, #0
 1262 0444 3FF47BAF 		beq	.L35
 437:lvgl/src/extra/widgets/meter/lv_meter.c ****         uint16_t i;
 1263              		.loc 1 437 76 discriminator 1 view .LVU433
 1264 0448 03F1FF38 		add	r8, r3, #-1
 1265 044c 79E7     		b	.L17
 1266              	.LVL138:
 1267              	.L42:
 437:lvgl/src/extra/widgets/meter/lv_meter.c ****         uint16_t i;
 1268              		.loc 1 437 76 discriminator 1 view .LVU434
 1269              	.LBE59:
 549:lvgl/src/extra/widgets/meter/lv_meter.c ****     }
 550:lvgl/src/extra/widgets/meter/lv_meter.c **** }
 1270              		.loc 1 550 1 view .LVU435
 1271 044e 57B0     		add	sp, sp, #348
 1272              	.LCFI5:
 1273              		.cfi_def_cfa_offset 36
 1274              		@ sp needed
 1275 0450 BDE8F08F 		pop	{r4, r5, r6, r7, r8, r9, r10, fp, pc}
 1276              		.loc 1 550 1 view .LVU436
 1277              		.cfi_endproc
 1278              	.LFE220:
 1280              		.section	.text.draw_needles,"ax",%progbits
 1281              		.align	1
 1282              		.syntax unified
 1283              		.thumb
 1284              		.thumb_func
 1286              	draw_needles:
 1287              	.LVL139:
 1288              	.LFB221:
 551:lvgl/src/extra/widgets/meter/lv_meter.c **** 
ARM GAS  /var/folders/21/t9g5rlb91ys800n5npymflf80000gn/T//ccb01ulG.s 			page 54


 552:lvgl/src/extra/widgets/meter/lv_meter.c **** static void draw_needles(lv_obj_t * obj, lv_draw_ctx_t * draw_ctx, const lv_area_t * scale_area)
 553:lvgl/src/extra/widgets/meter/lv_meter.c **** {
 1289              		.loc 1 553 1 is_stmt 1 view -0
 1290              		.cfi_startproc
 1291              		@ args = 0, pretend = 0, frame = 136
 1292              		@ frame_needed = 0, uses_anonymous_args = 0
 1293              		.loc 1 553 1 is_stmt 0 view .LVU438
 1294 0000 2DE9F04F 		push	{r4, r5, r6, r7, r8, r9, r10, fp, lr}
 1295              	.LCFI6:
 1296              		.cfi_def_cfa_offset 36
 1297              		.cfi_offset 4, -36
 1298              		.cfi_offset 5, -32
 1299              		.cfi_offset 6, -28
 1300              		.cfi_offset 7, -24
 1301              		.cfi_offset 8, -20
 1302              		.cfi_offset 9, -16
 1303              		.cfi_offset 10, -12
 1304              		.cfi_offset 11, -8
 1305              		.cfi_offset 14, -4
 1306 0004 A5B0     		sub	sp, sp, #148
 1307              	.LCFI7:
 1308              		.cfi_def_cfa_offset 184
 1309 0006 0746     		mov	r7, r0
 1310 0008 8A46     		mov	r10, r1
 554:lvgl/src/extra/widgets/meter/lv_meter.c ****     lv_meter_t * meter = (lv_meter_t *)obj;
 1311              		.loc 1 554 5 is_stmt 1 view .LVU439
 1312              	.LVL140:
 555:lvgl/src/extra/widgets/meter/lv_meter.c **** 
 556:lvgl/src/extra/widgets/meter/lv_meter.c ****     lv_coord_t r_edge = lv_area_get_width(scale_area) / 2;
 1313              		.loc 1 556 5 view .LVU440
 1314              	.LBB60:
 1315              	.LBI60:
 123:lvgl/src/extra/widgets/meter/../../../../src/hal/../draw/../misc/../font/../misc/lv_area.h **** {
 1316              		.loc 4 123 26 view .LVU441
 1317              	.LBB61:
 125:lvgl/src/extra/widgets/meter/../../../../src/hal/../draw/../misc/../font/../misc/lv_area.h **** }
 1318              		.loc 4 125 5 view .LVU442
 125:lvgl/src/extra/widgets/meter/../../../../src/hal/../draw/../misc/../font/../misc/lv_area.h **** }
 1319              		.loc 4 125 31 is_stmt 0 view .LVU443
 1320 000a 9688     		ldrh	r6, [r2, #4]
 125:lvgl/src/extra/widgets/meter/../../../../src/hal/../draw/../misc/../font/../misc/lv_area.h **** }
 1321              		.loc 4 125 44 view .LVU444
 1322 000c 1388     		ldrh	r3, [r2]
 125:lvgl/src/extra/widgets/meter/../../../../src/hal/../draw/../misc/../font/../misc/lv_area.h **** }
 1323              		.loc 4 125 36 view .LVU445
 1324 000e F61A     		subs	r6, r6, r3
 1325 0010 B6B2     		uxth	r6, r6
 125:lvgl/src/extra/widgets/meter/../../../../src/hal/../draw/../misc/../font/../misc/lv_area.h **** }
 1326              		.loc 4 125 49 view .LVU446
 1327 0012 0136     		adds	r6, r6, #1
 1328              	.LVL141:
 125:lvgl/src/extra/widgets/meter/../../../../src/hal/../draw/../misc/../font/../misc/lv_area.h **** }
 1329              		.loc 4 125 49 view .LVU447
 1330              	.LBE61:
 1331              	.LBE60:
 1332              		.loc 1 556 16 view .LVU448
 1333 0014 C6F3C031 		ubfx	r1, r6, #15, #1
ARM GAS  /var/folders/21/t9g5rlb91ys800n5npymflf80000gn/T//ccb01ulG.s 			page 55


 1334              	.LVL142:
 1335              		.loc 1 556 16 view .LVU449
 1336 0018 01FA86F6 		sxtah	r6, r1, r6
 1337              	.LVL143:
 557:lvgl/src/extra/widgets/meter/lv_meter.c ****     lv_point_t scale_center;
 1338              		.loc 1 557 5 is_stmt 1 view .LVU450
 558:lvgl/src/extra/widgets/meter/lv_meter.c ****     scale_center.x = scale_area->x1 + r_edge;
 1339              		.loc 1 558 5 view .LVU451
 1340              		.loc 1 558 37 is_stmt 0 view .LVU452
 1341 001c C6F34F06 		ubfx	r6, r6, #1, #16
 1342              	.LVL144:
 1343              		.loc 1 558 37 view .LVU453
 1344 0020 3344     		add	r3, r3, r6
 1345              	.LVL145:
 1346              		.loc 1 558 20 view .LVU454
 1347 0022 ADF88C30 		strh	r3, [sp, #140]	@ movhi
 1348              	.LVL146:
 559:lvgl/src/extra/widgets/meter/lv_meter.c ****     scale_center.y = scale_area->y1 + r_edge;
 1349              		.loc 1 559 5 is_stmt 1 view .LVU455
 1350              		.loc 1 559 32 is_stmt 0 view .LVU456
 1351 0026 5388     		ldrh	r3, [r2, #2]
 1352              		.loc 1 559 37 view .LVU457
 1353 0028 3344     		add	r3, r3, r6
 1354              		.loc 1 559 20 view .LVU458
 1355 002a ADF88E30 		strh	r3, [sp, #142]	@ movhi
 560:lvgl/src/extra/widgets/meter/lv_meter.c **** 
 561:lvgl/src/extra/widgets/meter/lv_meter.c ****     lv_draw_line_dsc_t line_dsc;
 1356              		.loc 1 561 5 is_stmt 1 view .LVU459
 562:lvgl/src/extra/widgets/meter/lv_meter.c ****     lv_draw_line_dsc_init(&line_dsc);
 1357              		.loc 1 562 5 view .LVU460
 1358 002e 20A8     		add	r0, sp, #128
 1359              	.LVL147:
 1360              		.loc 1 562 5 is_stmt 0 view .LVU461
 1361 0030 FFF7FEFF 		bl	lv_draw_line_dsc_init
 1362              	.LVL148:
 563:lvgl/src/extra/widgets/meter/lv_meter.c ****     lv_obj_init_draw_line_dsc(obj, LV_PART_ITEMS, &line_dsc);
 1363              		.loc 1 563 5 is_stmt 1 view .LVU462
 1364 0034 20AA     		add	r2, sp, #128
 1365 0036 4FF4A021 		mov	r1, #327680
 1366 003a 3846     		mov	r0, r7
 1367 003c FFF7FEFF 		bl	lv_obj_init_draw_line_dsc
 1368              	.LVL149:
 564:lvgl/src/extra/widgets/meter/lv_meter.c **** 
 565:lvgl/src/extra/widgets/meter/lv_meter.c ****     lv_draw_img_dsc_t img_dsc;
 1369              		.loc 1 565 5 view .LVU463
 566:lvgl/src/extra/widgets/meter/lv_meter.c ****     lv_draw_img_dsc_init(&img_dsc);
 1370              		.loc 1 566 5 view .LVU464
 1371 0040 1AA8     		add	r0, sp, #104
 1372 0042 FFF7FEFF 		bl	lv_draw_img_dsc_init
 1373              	.LVL150:
 567:lvgl/src/extra/widgets/meter/lv_meter.c ****     lv_obj_init_draw_img_dsc(obj, LV_PART_ITEMS, &img_dsc);
 1374              		.loc 1 567 5 view .LVU465
 1375 0046 1AAA     		add	r2, sp, #104
 1376 0048 4FF4A021 		mov	r1, #327680
 1377 004c 3846     		mov	r0, r7
 1378 004e FFF7FEFF 		bl	lv_obj_init_draw_img_dsc
 1379              	.LVL151:
ARM GAS  /var/folders/21/t9g5rlb91ys800n5npymflf80000gn/T//ccb01ulG.s 			page 56


 568:lvgl/src/extra/widgets/meter/lv_meter.c ****     lv_opa_t opa_main = lv_obj_get_style_opa_recursive(obj, LV_PART_MAIN);
 1380              		.loc 1 568 5 view .LVU466
 1381              		.loc 1 568 25 is_stmt 0 view .LVU467
 1382 0052 0021     		movs	r1, #0
 1383 0054 3846     		mov	r0, r7
 1384 0056 FFF7FEFF 		bl	lv_obj_get_style_opa_recursive
 1385              	.LVL152:
 1386 005a 8346     		mov	fp, r0
 1387              	.LVL153:
 569:lvgl/src/extra/widgets/meter/lv_meter.c **** 
 570:lvgl/src/extra/widgets/meter/lv_meter.c ****     lv_obj_draw_part_dsc_t part_draw_dsc;
 1388              		.loc 1 570 5 is_stmt 1 view .LVU468
 571:lvgl/src/extra/widgets/meter/lv_meter.c ****     lv_obj_draw_dsc_init(&part_draw_dsc, draw_ctx);
 1389              		.loc 1 571 5 view .LVU469
 1390 005c 5146     		mov	r1, r10
 1391 005e 08A8     		add	r0, sp, #32
 1392 0060 FFF7FEFF 		bl	lv_obj_draw_dsc_init
 1393              	.LVL154:
 572:lvgl/src/extra/widgets/meter/lv_meter.c ****     part_draw_dsc.class_p = MY_CLASS;
 1394              		.loc 1 572 5 view .LVU470
 1395              		.loc 1 572 27 is_stmt 0 view .LVU471
 1396 0064 754B     		ldr	r3, .L59
 1397 0066 0993     		str	r3, [sp, #36]
 573:lvgl/src/extra/widgets/meter/lv_meter.c ****     part_draw_dsc.p1 = &scale_center;
