ARM GAS  /var/folders/21/t9g5rlb91ys800n5npymflf80000gn/T//ccl2N14m.s 			page 1


   1              		.cpu cortex-m4
   2              		.arch armv7e-m
   3              		.fpu fpv4-sp-d16
   4              		.eabi_attribute 27, 1
   5              		.eabi_attribute 28, 1
   6              		.eabi_attribute 20, 1
   7              		.eabi_attribute 21, 1
   8              		.eabi_attribute 23, 3
   9              		.eabi_attribute 24, 1
  10              		.eabi_attribute 25, 1
  11              		.eabi_attribute 26, 1
  12              		.eabi_attribute 30, 1
  13              		.eabi_attribute 34, 1
  14              		.eabi_attribute 18, 4
  15              		.file	"lv_spinbox.c"
  16              		.text
  17              	.Ltext0:
  18              		.cfi_sections	.debug_frame
  19              		.file 1 "lvgl/src/extra/widgets/spinbox/lv_spinbox.c"
  20              		.section	.rodata.lv_spinbox_updatevalue.str1.4,"aMS",%progbits,1
  21              		.align	2
  22              	.LC0:
  23 0000 256400   		.ascii	"%d\000"
  24              		.section	.text.lv_spinbox_updatevalue,"ax",%progbits
  25              		.align	1
  26              		.syntax unified
  27              		.thumb
  28              		.thumb_func
  30              	lv_spinbox_updatevalue:
  31              	.LVL0:
  32              	.LFB221:
   1:lvgl/src/extra/widgets/spinbox/lv_spinbox.c **** /**
   2:lvgl/src/extra/widgets/spinbox/lv_spinbox.c ****  * @file lv_spinbox.c
   3:lvgl/src/extra/widgets/spinbox/lv_spinbox.c ****  *
   4:lvgl/src/extra/widgets/spinbox/lv_spinbox.c ****  */
   5:lvgl/src/extra/widgets/spinbox/lv_spinbox.c **** 
   6:lvgl/src/extra/widgets/spinbox/lv_spinbox.c **** /*********************
   7:lvgl/src/extra/widgets/spinbox/lv_spinbox.c ****  *      INCLUDES
   8:lvgl/src/extra/widgets/spinbox/lv_spinbox.c ****  *********************/
   9:lvgl/src/extra/widgets/spinbox/lv_spinbox.c **** #include "lv_spinbox.h"
  10:lvgl/src/extra/widgets/spinbox/lv_spinbox.c **** #if LV_USE_SPINBOX
  11:lvgl/src/extra/widgets/spinbox/lv_spinbox.c **** 
  12:lvgl/src/extra/widgets/spinbox/lv_spinbox.c **** #include "../../../misc/lv_assert.h"
  13:lvgl/src/extra/widgets/spinbox/lv_spinbox.c **** 
  14:lvgl/src/extra/widgets/spinbox/lv_spinbox.c **** /*********************
  15:lvgl/src/extra/widgets/spinbox/lv_spinbox.c ****  *      DEFINES
  16:lvgl/src/extra/widgets/spinbox/lv_spinbox.c ****  *********************/
  17:lvgl/src/extra/widgets/spinbox/lv_spinbox.c **** #define MY_CLASS    &lv_spinbox_class
  18:lvgl/src/extra/widgets/spinbox/lv_spinbox.c **** 
  19:lvgl/src/extra/widgets/spinbox/lv_spinbox.c **** /**********************
  20:lvgl/src/extra/widgets/spinbox/lv_spinbox.c ****  *      TYPEDEFS
  21:lvgl/src/extra/widgets/spinbox/lv_spinbox.c ****  **********************/
  22:lvgl/src/extra/widgets/spinbox/lv_spinbox.c **** 
  23:lvgl/src/extra/widgets/spinbox/lv_spinbox.c **** /**********************
  24:lvgl/src/extra/widgets/spinbox/lv_spinbox.c ****  *  STATIC PROTOTYPES
  25:lvgl/src/extra/widgets/spinbox/lv_spinbox.c ****  **********************/
  26:lvgl/src/extra/widgets/spinbox/lv_spinbox.c **** 
ARM GAS  /var/folders/21/t9g5rlb91ys800n5npymflf80000gn/T//ccl2N14m.s 			page 2


  27:lvgl/src/extra/widgets/spinbox/lv_spinbox.c **** static void lv_spinbox_constructor(const lv_obj_class_t * class_p, lv_obj_t * obj);
  28:lvgl/src/extra/widgets/spinbox/lv_spinbox.c **** static void lv_spinbox_event(const lv_obj_class_t * class_p, lv_event_t * e);
  29:lvgl/src/extra/widgets/spinbox/lv_spinbox.c **** static void lv_spinbox_updatevalue(lv_obj_t * obj);
  30:lvgl/src/extra/widgets/spinbox/lv_spinbox.c **** 
  31:lvgl/src/extra/widgets/spinbox/lv_spinbox.c **** /**********************
  32:lvgl/src/extra/widgets/spinbox/lv_spinbox.c ****  *  STATIC VARIABLES
  33:lvgl/src/extra/widgets/spinbox/lv_spinbox.c ****  **********************/
  34:lvgl/src/extra/widgets/spinbox/lv_spinbox.c **** const lv_obj_class_t lv_spinbox_class = {
  35:lvgl/src/extra/widgets/spinbox/lv_spinbox.c ****     .constructor_cb = lv_spinbox_constructor,
  36:lvgl/src/extra/widgets/spinbox/lv_spinbox.c ****     .event_cb = lv_spinbox_event,
  37:lvgl/src/extra/widgets/spinbox/lv_spinbox.c ****     .width_def = LV_DPI_DEF,
  38:lvgl/src/extra/widgets/spinbox/lv_spinbox.c ****     .instance_size = sizeof(lv_spinbox_t),
  39:lvgl/src/extra/widgets/spinbox/lv_spinbox.c ****     .editable = LV_OBJ_CLASS_EDITABLE_TRUE,
  40:lvgl/src/extra/widgets/spinbox/lv_spinbox.c ****     .base_class = &lv_textarea_class
  41:lvgl/src/extra/widgets/spinbox/lv_spinbox.c **** };
  42:lvgl/src/extra/widgets/spinbox/lv_spinbox.c **** /**********************
  43:lvgl/src/extra/widgets/spinbox/lv_spinbox.c ****  *      MACROS
  44:lvgl/src/extra/widgets/spinbox/lv_spinbox.c ****  **********************/
  45:lvgl/src/extra/widgets/spinbox/lv_spinbox.c **** 
  46:lvgl/src/extra/widgets/spinbox/lv_spinbox.c **** /**********************
  47:lvgl/src/extra/widgets/spinbox/lv_spinbox.c ****  *   GLOBAL FUNCTIONS
  48:lvgl/src/extra/widgets/spinbox/lv_spinbox.c ****  **********************/
  49:lvgl/src/extra/widgets/spinbox/lv_spinbox.c **** 
  50:lvgl/src/extra/widgets/spinbox/lv_spinbox.c **** lv_obj_t * lv_spinbox_create(lv_obj_t * parent)
  51:lvgl/src/extra/widgets/spinbox/lv_spinbox.c **** {
  52:lvgl/src/extra/widgets/spinbox/lv_spinbox.c ****     LV_LOG_INFO("begin");
  53:lvgl/src/extra/widgets/spinbox/lv_spinbox.c ****     lv_obj_t * obj = lv_obj_class_create_obj(MY_CLASS, parent);
  54:lvgl/src/extra/widgets/spinbox/lv_spinbox.c ****     lv_obj_class_init_obj(obj);
  55:lvgl/src/extra/widgets/spinbox/lv_spinbox.c ****     return obj;
  56:lvgl/src/extra/widgets/spinbox/lv_spinbox.c **** }
  57:lvgl/src/extra/widgets/spinbox/lv_spinbox.c **** 
  58:lvgl/src/extra/widgets/spinbox/lv_spinbox.c **** /*=====================
  59:lvgl/src/extra/widgets/spinbox/lv_spinbox.c ****  * Setter functions
  60:lvgl/src/extra/widgets/spinbox/lv_spinbox.c ****  *====================*/
  61:lvgl/src/extra/widgets/spinbox/lv_spinbox.c **** 
  62:lvgl/src/extra/widgets/spinbox/lv_spinbox.c **** /**
  63:lvgl/src/extra/widgets/spinbox/lv_spinbox.c ****  * Set spinbox value
  64:lvgl/src/extra/widgets/spinbox/lv_spinbox.c ****  * @param obj pointer to spinbox
  65:lvgl/src/extra/widgets/spinbox/lv_spinbox.c ****  * @param i value to be set
  66:lvgl/src/extra/widgets/spinbox/lv_spinbox.c ****  */
  67:lvgl/src/extra/widgets/spinbox/lv_spinbox.c **** void lv_spinbox_set_value(lv_obj_t * obj, int32_t i)
  68:lvgl/src/extra/widgets/spinbox/lv_spinbox.c **** {
  69:lvgl/src/extra/widgets/spinbox/lv_spinbox.c ****     LV_ASSERT_OBJ(obj, MY_CLASS);
  70:lvgl/src/extra/widgets/spinbox/lv_spinbox.c ****     lv_spinbox_t * spinbox = (lv_spinbox_t *)obj;
  71:lvgl/src/extra/widgets/spinbox/lv_spinbox.c **** 
  72:lvgl/src/extra/widgets/spinbox/lv_spinbox.c ****     if(i > spinbox->range_max) i = spinbox->range_max;
  73:lvgl/src/extra/widgets/spinbox/lv_spinbox.c ****     if(i < spinbox->range_min) i = spinbox->range_min;
  74:lvgl/src/extra/widgets/spinbox/lv_spinbox.c **** 
  75:lvgl/src/extra/widgets/spinbox/lv_spinbox.c ****     spinbox->value = i;
  76:lvgl/src/extra/widgets/spinbox/lv_spinbox.c **** 
  77:lvgl/src/extra/widgets/spinbox/lv_spinbox.c ****     lv_spinbox_updatevalue(obj);
  78:lvgl/src/extra/widgets/spinbox/lv_spinbox.c **** }
  79:lvgl/src/extra/widgets/spinbox/lv_spinbox.c **** 
  80:lvgl/src/extra/widgets/spinbox/lv_spinbox.c **** /**
  81:lvgl/src/extra/widgets/spinbox/lv_spinbox.c ****  * Set spinbox rollover function
  82:lvgl/src/extra/widgets/spinbox/lv_spinbox.c ****  * @param spinbox pointer to spinbox
  83:lvgl/src/extra/widgets/spinbox/lv_spinbox.c ****  * @param b true or false to enable or disable (default)
ARM GAS  /var/folders/21/t9g5rlb91ys800n5npymflf80000gn/T//ccl2N14m.s 			page 3


  84:lvgl/src/extra/widgets/spinbox/lv_spinbox.c ****  */
  85:lvgl/src/extra/widgets/spinbox/lv_spinbox.c **** void lv_spinbox_set_rollover(lv_obj_t * obj, bool b)
  86:lvgl/src/extra/widgets/spinbox/lv_spinbox.c **** {
  87:lvgl/src/extra/widgets/spinbox/lv_spinbox.c ****     LV_ASSERT_OBJ(obj, MY_CLASS);
  88:lvgl/src/extra/widgets/spinbox/lv_spinbox.c ****     lv_spinbox_t * spinbox = (lv_spinbox_t *)obj;
  89:lvgl/src/extra/widgets/spinbox/lv_spinbox.c **** 
  90:lvgl/src/extra/widgets/spinbox/lv_spinbox.c ****     spinbox->rollover = b;
  91:lvgl/src/extra/widgets/spinbox/lv_spinbox.c **** }
  92:lvgl/src/extra/widgets/spinbox/lv_spinbox.c **** 
  93:lvgl/src/extra/widgets/spinbox/lv_spinbox.c **** /**
  94:lvgl/src/extra/widgets/spinbox/lv_spinbox.c ****  * Set spinbox digit format (digit count and decimal format)
  95:lvgl/src/extra/widgets/spinbox/lv_spinbox.c ****  * @param spinbox pointer to spinbox
  96:lvgl/src/extra/widgets/spinbox/lv_spinbox.c ****  * @param digit_count number of digit excluding the decimal separator and the sign
  97:lvgl/src/extra/widgets/spinbox/lv_spinbox.c ****  * @param separator_position number of digit before the decimal point. If 0, decimal point is not
  98:lvgl/src/extra/widgets/spinbox/lv_spinbox.c ****  * shown
  99:lvgl/src/extra/widgets/spinbox/lv_spinbox.c ****  */
 100:lvgl/src/extra/widgets/spinbox/lv_spinbox.c **** void lv_spinbox_set_digit_format(lv_obj_t * obj, uint8_t digit_count, uint8_t separator_position)
 101:lvgl/src/extra/widgets/spinbox/lv_spinbox.c **** {
 102:lvgl/src/extra/widgets/spinbox/lv_spinbox.c ****     LV_ASSERT_OBJ(obj, MY_CLASS);
 103:lvgl/src/extra/widgets/spinbox/lv_spinbox.c ****     lv_spinbox_t * spinbox = (lv_spinbox_t *)obj;
 104:lvgl/src/extra/widgets/spinbox/lv_spinbox.c **** 
 105:lvgl/src/extra/widgets/spinbox/lv_spinbox.c ****     if(digit_count > LV_SPINBOX_MAX_DIGIT_COUNT) digit_count = LV_SPINBOX_MAX_DIGIT_COUNT;
 106:lvgl/src/extra/widgets/spinbox/lv_spinbox.c **** 
 107:lvgl/src/extra/widgets/spinbox/lv_spinbox.c ****     if(separator_position >= digit_count) separator_position = 0;
 108:lvgl/src/extra/widgets/spinbox/lv_spinbox.c **** 
 109:lvgl/src/extra/widgets/spinbox/lv_spinbox.c ****     if(digit_count < LV_SPINBOX_MAX_DIGIT_COUNT) {
 110:lvgl/src/extra/widgets/spinbox/lv_spinbox.c ****         int64_t max_val = lv_pow(10, digit_count);
 111:lvgl/src/extra/widgets/spinbox/lv_spinbox.c ****         if(spinbox->range_max > max_val - 1) spinbox->range_max = max_val - 1;
 112:lvgl/src/extra/widgets/spinbox/lv_spinbox.c ****         if(spinbox->range_min < - max_val  + 1) spinbox->range_min = - max_val  + 1;
 113:lvgl/src/extra/widgets/spinbox/lv_spinbox.c ****     }
 114:lvgl/src/extra/widgets/spinbox/lv_spinbox.c **** 
 115:lvgl/src/extra/widgets/spinbox/lv_spinbox.c ****     spinbox->digit_count   = digit_count;
 116:lvgl/src/extra/widgets/spinbox/lv_spinbox.c ****     spinbox->dec_point_pos = separator_position;
 117:lvgl/src/extra/widgets/spinbox/lv_spinbox.c **** 
 118:lvgl/src/extra/widgets/spinbox/lv_spinbox.c ****     lv_spinbox_updatevalue(obj);
 119:lvgl/src/extra/widgets/spinbox/lv_spinbox.c **** }
 120:lvgl/src/extra/widgets/spinbox/lv_spinbox.c **** 
 121:lvgl/src/extra/widgets/spinbox/lv_spinbox.c **** /**
 122:lvgl/src/extra/widgets/spinbox/lv_spinbox.c ****  * Set spinbox step
 123:lvgl/src/extra/widgets/spinbox/lv_spinbox.c ****  * @param spinbox pointer to spinbox
 124:lvgl/src/extra/widgets/spinbox/lv_spinbox.c ****  * @param step steps on increment/decrement
 125:lvgl/src/extra/widgets/spinbox/lv_spinbox.c ****  */
 126:lvgl/src/extra/widgets/spinbox/lv_spinbox.c **** void lv_spinbox_set_step(lv_obj_t * obj, uint32_t step)
 127:lvgl/src/extra/widgets/spinbox/lv_spinbox.c **** {
 128:lvgl/src/extra/widgets/spinbox/lv_spinbox.c ****     LV_ASSERT_OBJ(obj, MY_CLASS);
 129:lvgl/src/extra/widgets/spinbox/lv_spinbox.c ****     lv_spinbox_t * spinbox = (lv_spinbox_t *)obj;
 130:lvgl/src/extra/widgets/spinbox/lv_spinbox.c **** 
 131:lvgl/src/extra/widgets/spinbox/lv_spinbox.c ****     spinbox->step = step;
 132:lvgl/src/extra/widgets/spinbox/lv_spinbox.c ****     lv_spinbox_updatevalue(obj);
 133:lvgl/src/extra/widgets/spinbox/lv_spinbox.c **** }
 134:lvgl/src/extra/widgets/spinbox/lv_spinbox.c **** 
 135:lvgl/src/extra/widgets/spinbox/lv_spinbox.c **** /**
 136:lvgl/src/extra/widgets/spinbox/lv_spinbox.c ****  * Set spinbox value range
 137:lvgl/src/extra/widgets/spinbox/lv_spinbox.c ****  * @param spinbox pointer to spinbox
 138:lvgl/src/extra/widgets/spinbox/lv_spinbox.c ****  * @param range_min maximum value, inclusive
 139:lvgl/src/extra/widgets/spinbox/lv_spinbox.c ****  * @param range_max minimum value, inclusive
 140:lvgl/src/extra/widgets/spinbox/lv_spinbox.c ****  */
ARM GAS  /var/folders/21/t9g5rlb91ys800n5npymflf80000gn/T//ccl2N14m.s 			page 4


 141:lvgl/src/extra/widgets/spinbox/lv_spinbox.c **** void lv_spinbox_set_range(lv_obj_t * obj, int32_t range_min, int32_t range_max)
 142:lvgl/src/extra/widgets/spinbox/lv_spinbox.c **** {
 143:lvgl/src/extra/widgets/spinbox/lv_spinbox.c ****     LV_ASSERT_OBJ(obj, MY_CLASS);
 144:lvgl/src/extra/widgets/spinbox/lv_spinbox.c ****     lv_spinbox_t * spinbox = (lv_spinbox_t *)obj;
 145:lvgl/src/extra/widgets/spinbox/lv_spinbox.c **** 
 146:lvgl/src/extra/widgets/spinbox/lv_spinbox.c ****     spinbox->range_max = range_max;
 147:lvgl/src/extra/widgets/spinbox/lv_spinbox.c ****     spinbox->range_min = range_min;
 148:lvgl/src/extra/widgets/spinbox/lv_spinbox.c **** 
 149:lvgl/src/extra/widgets/spinbox/lv_spinbox.c ****     if(spinbox->value > spinbox->range_max) spinbox->value = spinbox->range_max;
 150:lvgl/src/extra/widgets/spinbox/lv_spinbox.c ****     if(spinbox->value < spinbox->range_min) spinbox->value = spinbox->range_min;
 151:lvgl/src/extra/widgets/spinbox/lv_spinbox.c **** 
 152:lvgl/src/extra/widgets/spinbox/lv_spinbox.c ****     lv_spinbox_updatevalue(obj);
 153:lvgl/src/extra/widgets/spinbox/lv_spinbox.c **** }
 154:lvgl/src/extra/widgets/spinbox/lv_spinbox.c **** 
 155:lvgl/src/extra/widgets/spinbox/lv_spinbox.c **** /**
 156:lvgl/src/extra/widgets/spinbox/lv_spinbox.c ****  * Set cursor position to a specific digit for edition
 157:lvgl/src/extra/widgets/spinbox/lv_spinbox.c ****  * @param spinbox pointer to spinbox
 158:lvgl/src/extra/widgets/spinbox/lv_spinbox.c ****  * @param pos selected position in spinbox
 159:lvgl/src/extra/widgets/spinbox/lv_spinbox.c ****  */
 160:lvgl/src/extra/widgets/spinbox/lv_spinbox.c **** void lv_spinbox_set_cursor_pos(lv_obj_t * obj, uint8_t pos)
 161:lvgl/src/extra/widgets/spinbox/lv_spinbox.c **** {
 162:lvgl/src/extra/widgets/spinbox/lv_spinbox.c ****     LV_ASSERT_OBJ(obj, MY_CLASS);
 163:lvgl/src/extra/widgets/spinbox/lv_spinbox.c ****     lv_spinbox_t * spinbox = (lv_spinbox_t *)obj;
 164:lvgl/src/extra/widgets/spinbox/lv_spinbox.c ****     int32_t step_limit;
 165:lvgl/src/extra/widgets/spinbox/lv_spinbox.c ****     step_limit       = LV_MAX(spinbox->range_max, (spinbox->range_min < 0 ? (-spinbox->range_min) :
 166:lvgl/src/extra/widgets/spinbox/lv_spinbox.c ****     int32_t new_step = spinbox->step * lv_pow(10, pos);
 167:lvgl/src/extra/widgets/spinbox/lv_spinbox.c ****     if(pos <= 0) spinbox->step = 1;
 168:lvgl/src/extra/widgets/spinbox/lv_spinbox.c ****     else if(new_step <= step_limit) spinbox->step = new_step;
 169:lvgl/src/extra/widgets/spinbox/lv_spinbox.c **** 
 170:lvgl/src/extra/widgets/spinbox/lv_spinbox.c ****     lv_spinbox_updatevalue(obj);
 171:lvgl/src/extra/widgets/spinbox/lv_spinbox.c **** }
 172:lvgl/src/extra/widgets/spinbox/lv_spinbox.c **** 
 173:lvgl/src/extra/widgets/spinbox/lv_spinbox.c **** /**
 174:lvgl/src/extra/widgets/spinbox/lv_spinbox.c ****  * Set direction of digit step when clicking an encoder button while in editing mode
 175:lvgl/src/extra/widgets/spinbox/lv_spinbox.c ****  * @param spinbox pointer to spinbox
 176:lvgl/src/extra/widgets/spinbox/lv_spinbox.c ****  * @param direction the direction (LV_DIR_RIGHT or LV_DIR_LEFT)
 177:lvgl/src/extra/widgets/spinbox/lv_spinbox.c ****  */
 178:lvgl/src/extra/widgets/spinbox/lv_spinbox.c **** void lv_spinbox_set_digit_step_direction(lv_obj_t * obj, lv_dir_t direction)
 179:lvgl/src/extra/widgets/spinbox/lv_spinbox.c **** {
 180:lvgl/src/extra/widgets/spinbox/lv_spinbox.c ****     LV_ASSERT_OBJ(obj, MY_CLASS);
 181:lvgl/src/extra/widgets/spinbox/lv_spinbox.c ****     lv_spinbox_t * spinbox = (lv_spinbox_t *)obj;
 182:lvgl/src/extra/widgets/spinbox/lv_spinbox.c ****     spinbox->digit_step_dir = direction;
 183:lvgl/src/extra/widgets/spinbox/lv_spinbox.c **** 
 184:lvgl/src/extra/widgets/spinbox/lv_spinbox.c ****     lv_spinbox_updatevalue(obj);
 185:lvgl/src/extra/widgets/spinbox/lv_spinbox.c **** }
 186:lvgl/src/extra/widgets/spinbox/lv_spinbox.c **** /*=====================
 187:lvgl/src/extra/widgets/spinbox/lv_spinbox.c ****  * Getter functions
 188:lvgl/src/extra/widgets/spinbox/lv_spinbox.c ****  *====================*/
 189:lvgl/src/extra/widgets/spinbox/lv_spinbox.c **** 
 190:lvgl/src/extra/widgets/spinbox/lv_spinbox.c **** /**
 191:lvgl/src/extra/widgets/spinbox/lv_spinbox.c ****  * Get the spinbox numeral value (user has to convert to float according to its digit format)
 192:lvgl/src/extra/widgets/spinbox/lv_spinbox.c ****  * @param obj pointer to spinbox
 193:lvgl/src/extra/widgets/spinbox/lv_spinbox.c ****  * @return value integer value of the spinbox
 194:lvgl/src/extra/widgets/spinbox/lv_spinbox.c ****  */
 195:lvgl/src/extra/widgets/spinbox/lv_spinbox.c **** int32_t lv_spinbox_get_value(lv_obj_t * obj)
 196:lvgl/src/extra/widgets/spinbox/lv_spinbox.c **** {
 197:lvgl/src/extra/widgets/spinbox/lv_spinbox.c ****     LV_ASSERT_OBJ(obj, MY_CLASS);
ARM GAS  /var/folders/21/t9g5rlb91ys800n5npymflf80000gn/T//ccl2N14m.s 			page 5


 198:lvgl/src/extra/widgets/spinbox/lv_spinbox.c ****     lv_spinbox_t * spinbox = (lv_spinbox_t *)obj;
 199:lvgl/src/extra/widgets/spinbox/lv_spinbox.c **** 
 200:lvgl/src/extra/widgets/spinbox/lv_spinbox.c ****     return spinbox->value;
 201:lvgl/src/extra/widgets/spinbox/lv_spinbox.c **** }
 202:lvgl/src/extra/widgets/spinbox/lv_spinbox.c **** /**
 203:lvgl/src/extra/widgets/spinbox/lv_spinbox.c ****  * Get the spinbox step value (user has to convert to float according to its digit format)
 204:lvgl/src/extra/widgets/spinbox/lv_spinbox.c ****  * @param obj pointer to spinbox
 205:lvgl/src/extra/widgets/spinbox/lv_spinbox.c ****  * @return value integer step value of the spinbox
 206:lvgl/src/extra/widgets/spinbox/lv_spinbox.c ****  */
 207:lvgl/src/extra/widgets/spinbox/lv_spinbox.c **** int32_t lv_spinbox_get_step(lv_obj_t * obj)
 208:lvgl/src/extra/widgets/spinbox/lv_spinbox.c **** {
 209:lvgl/src/extra/widgets/spinbox/lv_spinbox.c ****     LV_ASSERT_OBJ(obj, MY_CLASS);
 210:lvgl/src/extra/widgets/spinbox/lv_spinbox.c ****     lv_spinbox_t * spinbox = (lv_spinbox_t *)obj;
 211:lvgl/src/extra/widgets/spinbox/lv_spinbox.c **** 
 212:lvgl/src/extra/widgets/spinbox/lv_spinbox.c ****     return spinbox->step;
 213:lvgl/src/extra/widgets/spinbox/lv_spinbox.c **** }
 214:lvgl/src/extra/widgets/spinbox/lv_spinbox.c **** 
 215:lvgl/src/extra/widgets/spinbox/lv_spinbox.c **** /*=====================
 216:lvgl/src/extra/widgets/spinbox/lv_spinbox.c ****  * Other functions
 217:lvgl/src/extra/widgets/spinbox/lv_spinbox.c ****  *====================*/
 218:lvgl/src/extra/widgets/spinbox/lv_spinbox.c **** 
 219:lvgl/src/extra/widgets/spinbox/lv_spinbox.c **** /**
 220:lvgl/src/extra/widgets/spinbox/lv_spinbox.c ****  * Select next lower digit for edition
 221:lvgl/src/extra/widgets/spinbox/lv_spinbox.c ****  * @param obj pointer to spinbox
 222:lvgl/src/extra/widgets/spinbox/lv_spinbox.c ****  */
 223:lvgl/src/extra/widgets/spinbox/lv_spinbox.c **** void lv_spinbox_step_next(lv_obj_t * obj)
 224:lvgl/src/extra/widgets/spinbox/lv_spinbox.c **** {
 225:lvgl/src/extra/widgets/spinbox/lv_spinbox.c ****     LV_ASSERT_OBJ(obj, MY_CLASS);
 226:lvgl/src/extra/widgets/spinbox/lv_spinbox.c ****     lv_spinbox_t * spinbox = (lv_spinbox_t *)obj;
 227:lvgl/src/extra/widgets/spinbox/lv_spinbox.c **** 
 228:lvgl/src/extra/widgets/spinbox/lv_spinbox.c ****     int32_t new_step = spinbox->step / 10;
 229:lvgl/src/extra/widgets/spinbox/lv_spinbox.c ****     if((new_step) > 0)
 230:lvgl/src/extra/widgets/spinbox/lv_spinbox.c ****         spinbox->step = new_step;
 231:lvgl/src/extra/widgets/spinbox/lv_spinbox.c ****     else
 232:lvgl/src/extra/widgets/spinbox/lv_spinbox.c ****         spinbox->step = 1;
 233:lvgl/src/extra/widgets/spinbox/lv_spinbox.c **** 
 234:lvgl/src/extra/widgets/spinbox/lv_spinbox.c ****     lv_spinbox_updatevalue(obj);
 235:lvgl/src/extra/widgets/spinbox/lv_spinbox.c **** }
 236:lvgl/src/extra/widgets/spinbox/lv_spinbox.c **** 
 237:lvgl/src/extra/widgets/spinbox/lv_spinbox.c **** /**
 238:lvgl/src/extra/widgets/spinbox/lv_spinbox.c ****  * Select next higher digit for edition
 239:lvgl/src/extra/widgets/spinbox/lv_spinbox.c ****  * @param obj pointer to spinbox
 240:lvgl/src/extra/widgets/spinbox/lv_spinbox.c ****  */
 241:lvgl/src/extra/widgets/spinbox/lv_spinbox.c **** void lv_spinbox_step_prev(lv_obj_t * obj)
 242:lvgl/src/extra/widgets/spinbox/lv_spinbox.c **** {
 243:lvgl/src/extra/widgets/spinbox/lv_spinbox.c ****     LV_ASSERT_OBJ(obj, MY_CLASS);
 244:lvgl/src/extra/widgets/spinbox/lv_spinbox.c ****     lv_spinbox_t * spinbox = (lv_spinbox_t *)obj;
 245:lvgl/src/extra/widgets/spinbox/lv_spinbox.c ****     int32_t step_limit;
 246:lvgl/src/extra/widgets/spinbox/lv_spinbox.c ****     step_limit       = LV_MAX(spinbox->range_max, (spinbox->range_min < 0 ? (-spinbox->range_min) :
 247:lvgl/src/extra/widgets/spinbox/lv_spinbox.c ****     int32_t new_step = spinbox->step * 10;
 248:lvgl/src/extra/widgets/spinbox/lv_spinbox.c ****     if(new_step <= step_limit) spinbox->step = new_step;
 249:lvgl/src/extra/widgets/spinbox/lv_spinbox.c **** 
 250:lvgl/src/extra/widgets/spinbox/lv_spinbox.c ****     lv_spinbox_updatevalue(obj);
 251:lvgl/src/extra/widgets/spinbox/lv_spinbox.c **** }
 252:lvgl/src/extra/widgets/spinbox/lv_spinbox.c **** 
 253:lvgl/src/extra/widgets/spinbox/lv_spinbox.c **** /**
 254:lvgl/src/extra/widgets/spinbox/lv_spinbox.c ****  * Get spinbox rollover function status
ARM GAS  /var/folders/21/t9g5rlb91ys800n5npymflf80000gn/T//ccl2N14m.s 			page 6


 255:lvgl/src/extra/widgets/spinbox/lv_spinbox.c ****  * @param obj pointer to spinbox
 256:lvgl/src/extra/widgets/spinbox/lv_spinbox.c ****  */
 257:lvgl/src/extra/widgets/spinbox/lv_spinbox.c **** bool lv_spinbox_get_rollover(lv_obj_t * obj)
 258:lvgl/src/extra/widgets/spinbox/lv_spinbox.c **** {
 259:lvgl/src/extra/widgets/spinbox/lv_spinbox.c ****     LV_ASSERT_OBJ(obj, MY_CLASS);
 260:lvgl/src/extra/widgets/spinbox/lv_spinbox.c ****     lv_spinbox_t * spinbox = (lv_spinbox_t *)obj;
 261:lvgl/src/extra/widgets/spinbox/lv_spinbox.c **** 
 262:lvgl/src/extra/widgets/spinbox/lv_spinbox.c ****     return spinbox->rollover;
 263:lvgl/src/extra/widgets/spinbox/lv_spinbox.c **** }
 264:lvgl/src/extra/widgets/spinbox/lv_spinbox.c **** 
 265:lvgl/src/extra/widgets/spinbox/lv_spinbox.c **** /**
 266:lvgl/src/extra/widgets/spinbox/lv_spinbox.c ****  * Increment spinbox value by one step
 267:lvgl/src/extra/widgets/spinbox/lv_spinbox.c ****  * @param obj pointer to spinbox
 268:lvgl/src/extra/widgets/spinbox/lv_spinbox.c ****  */
 269:lvgl/src/extra/widgets/spinbox/lv_spinbox.c **** void lv_spinbox_increment(lv_obj_t * obj)
 270:lvgl/src/extra/widgets/spinbox/lv_spinbox.c **** {
 271:lvgl/src/extra/widgets/spinbox/lv_spinbox.c ****     LV_ASSERT_OBJ(obj, MY_CLASS);
 272:lvgl/src/extra/widgets/spinbox/lv_spinbox.c ****     lv_spinbox_t * spinbox = (lv_spinbox_t *)obj;
 273:lvgl/src/extra/widgets/spinbox/lv_spinbox.c **** 
 274:lvgl/src/extra/widgets/spinbox/lv_spinbox.c ****     if(spinbox->value + spinbox->step <= spinbox->range_max) {
 275:lvgl/src/extra/widgets/spinbox/lv_spinbox.c ****         /*Special mode when zero crossing*/
 276:lvgl/src/extra/widgets/spinbox/lv_spinbox.c ****         if((spinbox->value + spinbox->step) > 0 && spinbox->value < 0) spinbox->value = -spinbox->v
 277:lvgl/src/extra/widgets/spinbox/lv_spinbox.c ****         spinbox->value += spinbox->step;
 278:lvgl/src/extra/widgets/spinbox/lv_spinbox.c **** 
 279:lvgl/src/extra/widgets/spinbox/lv_spinbox.c ****     }
 280:lvgl/src/extra/widgets/spinbox/lv_spinbox.c ****     else {
 281:lvgl/src/extra/widgets/spinbox/lv_spinbox.c ****         // Rollover?
 282:lvgl/src/extra/widgets/spinbox/lv_spinbox.c ****         if((spinbox->rollover) && (spinbox->value == spinbox->range_max))
 283:lvgl/src/extra/widgets/spinbox/lv_spinbox.c ****             spinbox->value = spinbox->range_min;
 284:lvgl/src/extra/widgets/spinbox/lv_spinbox.c ****         else
 285:lvgl/src/extra/widgets/spinbox/lv_spinbox.c ****             spinbox->value = spinbox->range_max;
 286:lvgl/src/extra/widgets/spinbox/lv_spinbox.c ****     }
 287:lvgl/src/extra/widgets/spinbox/lv_spinbox.c **** 
 288:lvgl/src/extra/widgets/spinbox/lv_spinbox.c ****     lv_spinbox_updatevalue(obj);
 289:lvgl/src/extra/widgets/spinbox/lv_spinbox.c **** }
 290:lvgl/src/extra/widgets/spinbox/lv_spinbox.c **** 
 291:lvgl/src/extra/widgets/spinbox/lv_spinbox.c **** /**
 292:lvgl/src/extra/widgets/spinbox/lv_spinbox.c ****  * Decrement spinbox value by one step
 293:lvgl/src/extra/widgets/spinbox/lv_spinbox.c ****  * @param obj pointer to spinbox
 294:lvgl/src/extra/widgets/spinbox/lv_spinbox.c ****  */
 295:lvgl/src/extra/widgets/spinbox/lv_spinbox.c **** void lv_spinbox_decrement(lv_obj_t * obj)
 296:lvgl/src/extra/widgets/spinbox/lv_spinbox.c **** {
 297:lvgl/src/extra/widgets/spinbox/lv_spinbox.c ****     LV_ASSERT_OBJ(obj, MY_CLASS);
 298:lvgl/src/extra/widgets/spinbox/lv_spinbox.c ****     lv_spinbox_t * spinbox = (lv_spinbox_t *)obj;
 299:lvgl/src/extra/widgets/spinbox/lv_spinbox.c **** 
 300:lvgl/src/extra/widgets/spinbox/lv_spinbox.c ****     if(spinbox->value - spinbox->step >= spinbox->range_min) {
 301:lvgl/src/extra/widgets/spinbox/lv_spinbox.c ****         /*Special mode when zero crossing*/
 302:lvgl/src/extra/widgets/spinbox/lv_spinbox.c ****         if((spinbox->value - spinbox->step) < 0 && spinbox->value > 0) spinbox->value = -spinbox->v
 303:lvgl/src/extra/widgets/spinbox/lv_spinbox.c ****         spinbox->value -= spinbox->step;
 304:lvgl/src/extra/widgets/spinbox/lv_spinbox.c ****     }
 305:lvgl/src/extra/widgets/spinbox/lv_spinbox.c ****     else {
 306:lvgl/src/extra/widgets/spinbox/lv_spinbox.c ****         /*Rollover?*/
 307:lvgl/src/extra/widgets/spinbox/lv_spinbox.c ****         if((spinbox->rollover) && (spinbox->value == spinbox->range_min))
 308:lvgl/src/extra/widgets/spinbox/lv_spinbox.c ****             spinbox->value = spinbox->range_max;
 309:lvgl/src/extra/widgets/spinbox/lv_spinbox.c ****         else
 310:lvgl/src/extra/widgets/spinbox/lv_spinbox.c ****             spinbox->value = spinbox->range_min;
 311:lvgl/src/extra/widgets/spinbox/lv_spinbox.c ****     }
ARM GAS  /var/folders/21/t9g5rlb91ys800n5npymflf80000gn/T//ccl2N14m.s 			page 7


 312:lvgl/src/extra/widgets/spinbox/lv_spinbox.c **** 
 313:lvgl/src/extra/widgets/spinbox/lv_spinbox.c ****     lv_spinbox_updatevalue(obj);
 314:lvgl/src/extra/widgets/spinbox/lv_spinbox.c **** }
 315:lvgl/src/extra/widgets/spinbox/lv_spinbox.c **** 
 316:lvgl/src/extra/widgets/spinbox/lv_spinbox.c **** /**********************
 317:lvgl/src/extra/widgets/spinbox/lv_spinbox.c ****  *   STATIC FUNCTIONS
 318:lvgl/src/extra/widgets/spinbox/lv_spinbox.c ****  **********************/
 319:lvgl/src/extra/widgets/spinbox/lv_spinbox.c **** 
 320:lvgl/src/extra/widgets/spinbox/lv_spinbox.c **** static void lv_spinbox_constructor(const lv_obj_class_t * class_p, lv_obj_t * obj)
 321:lvgl/src/extra/widgets/spinbox/lv_spinbox.c **** {
 322:lvgl/src/extra/widgets/spinbox/lv_spinbox.c ****     LV_UNUSED(class_p);
 323:lvgl/src/extra/widgets/spinbox/lv_spinbox.c ****     LV_LOG_TRACE("begin");
 324:lvgl/src/extra/widgets/spinbox/lv_spinbox.c **** 
 325:lvgl/src/extra/widgets/spinbox/lv_spinbox.c ****     lv_spinbox_t * spinbox = (lv_spinbox_t *)obj;
 326:lvgl/src/extra/widgets/spinbox/lv_spinbox.c **** 
 327:lvgl/src/extra/widgets/spinbox/lv_spinbox.c ****     /*Initialize the allocated 'ext'*/
 328:lvgl/src/extra/widgets/spinbox/lv_spinbox.c ****     spinbox->value              = 0;
 329:lvgl/src/extra/widgets/spinbox/lv_spinbox.c ****     spinbox->dec_point_pos      = 0;
 330:lvgl/src/extra/widgets/spinbox/lv_spinbox.c ****     spinbox->digit_count        = 5;
 331:lvgl/src/extra/widgets/spinbox/lv_spinbox.c ****     spinbox->step               = 1;
 332:lvgl/src/extra/widgets/spinbox/lv_spinbox.c ****     spinbox->range_max          = 99999;
 333:lvgl/src/extra/widgets/spinbox/lv_spinbox.c ****     spinbox->range_min          = -99999;
 334:lvgl/src/extra/widgets/spinbox/lv_spinbox.c ****     spinbox->rollover           = false;
 335:lvgl/src/extra/widgets/spinbox/lv_spinbox.c ****     spinbox->digit_step_dir     = LV_DIR_RIGHT;
 336:lvgl/src/extra/widgets/spinbox/lv_spinbox.c **** 
 337:lvgl/src/extra/widgets/spinbox/lv_spinbox.c ****     lv_textarea_set_one_line(obj, true);
 338:lvgl/src/extra/widgets/spinbox/lv_spinbox.c ****     lv_textarea_set_cursor_click_pos(obj, true);
 339:lvgl/src/extra/widgets/spinbox/lv_spinbox.c **** 
 340:lvgl/src/extra/widgets/spinbox/lv_spinbox.c ****     lv_spinbox_updatevalue(obj);
 341:lvgl/src/extra/widgets/spinbox/lv_spinbox.c **** 
 342:lvgl/src/extra/widgets/spinbox/lv_spinbox.c ****     LV_LOG_TRACE("Spinbox constructor finished");
 343:lvgl/src/extra/widgets/spinbox/lv_spinbox.c **** }
 344:lvgl/src/extra/widgets/spinbox/lv_spinbox.c **** 
 345:lvgl/src/extra/widgets/spinbox/lv_spinbox.c **** static void lv_spinbox_event(const lv_obj_class_t * class_p, lv_event_t * e)
 346:lvgl/src/extra/widgets/spinbox/lv_spinbox.c **** {
 347:lvgl/src/extra/widgets/spinbox/lv_spinbox.c ****     LV_UNUSED(class_p);
 348:lvgl/src/extra/widgets/spinbox/lv_spinbox.c **** 
 349:lvgl/src/extra/widgets/spinbox/lv_spinbox.c ****     /*Call the ancestor's event handler*/
 350:lvgl/src/extra/widgets/spinbox/lv_spinbox.c ****     lv_res_t res = LV_RES_OK;
 351:lvgl/src/extra/widgets/spinbox/lv_spinbox.c ****     res = lv_obj_event_base(MY_CLASS, e);
 352:lvgl/src/extra/widgets/spinbox/lv_spinbox.c ****     if(res != LV_RES_OK) return;
 353:lvgl/src/extra/widgets/spinbox/lv_spinbox.c **** 
 354:lvgl/src/extra/widgets/spinbox/lv_spinbox.c ****     lv_event_code_t code = lv_event_get_code(e);
 355:lvgl/src/extra/widgets/spinbox/lv_spinbox.c ****     lv_obj_t * obj = lv_event_get_target(e);
 356:lvgl/src/extra/widgets/spinbox/lv_spinbox.c ****     lv_spinbox_t * spinbox = (lv_spinbox_t *)obj;
 357:lvgl/src/extra/widgets/spinbox/lv_spinbox.c ****     if(code == LV_EVENT_RELEASED) {
 358:lvgl/src/extra/widgets/spinbox/lv_spinbox.c ****         /*If released with an ENCODER then move to the next digit*/
 359:lvgl/src/extra/widgets/spinbox/lv_spinbox.c ****         lv_indev_t * indev = lv_indev_get_act();
 360:lvgl/src/extra/widgets/spinbox/lv_spinbox.c ****         if(lv_indev_get_type(indev) == LV_INDEV_TYPE_ENCODER) {
 361:lvgl/src/extra/widgets/spinbox/lv_spinbox.c ****             if(lv_group_get_editing(lv_obj_get_group(obj))) {
 362:lvgl/src/extra/widgets/spinbox/lv_spinbox.c ****                 if(spinbox->digit_count > 1) {
 363:lvgl/src/extra/widgets/spinbox/lv_spinbox.c ****                     if(spinbox->digit_step_dir == LV_DIR_RIGHT) {
 364:lvgl/src/extra/widgets/spinbox/lv_spinbox.c ****                         if(spinbox->step > 1) {
 365:lvgl/src/extra/widgets/spinbox/lv_spinbox.c ****                             lv_spinbox_step_next(obj);
 366:lvgl/src/extra/widgets/spinbox/lv_spinbox.c ****                         }
 367:lvgl/src/extra/widgets/spinbox/lv_spinbox.c ****                         else {
 368:lvgl/src/extra/widgets/spinbox/lv_spinbox.c ****                             /*Restart from the MSB*/
ARM GAS  /var/folders/21/t9g5rlb91ys800n5npymflf80000gn/T//ccl2N14m.s 			page 8


 369:lvgl/src/extra/widgets/spinbox/lv_spinbox.c ****                             spinbox->step = lv_pow(10, spinbox->digit_count - 2);
 370:lvgl/src/extra/widgets/spinbox/lv_spinbox.c ****                             lv_spinbox_step_prev(obj);
 371:lvgl/src/extra/widgets/spinbox/lv_spinbox.c ****                         }
 372:lvgl/src/extra/widgets/spinbox/lv_spinbox.c ****                     }
 373:lvgl/src/extra/widgets/spinbox/lv_spinbox.c ****                     else {
 374:lvgl/src/extra/widgets/spinbox/lv_spinbox.c ****                         if(spinbox->step < lv_pow(10, spinbox->digit_count - 1)) {
 375:lvgl/src/extra/widgets/spinbox/lv_spinbox.c ****                             lv_spinbox_step_prev(obj);
 376:lvgl/src/extra/widgets/spinbox/lv_spinbox.c ****                         }
 377:lvgl/src/extra/widgets/spinbox/lv_spinbox.c ****                         else {
 378:lvgl/src/extra/widgets/spinbox/lv_spinbox.c ****                             /*Restart from the LSB*/
 379:lvgl/src/extra/widgets/spinbox/lv_spinbox.c ****                             spinbox->step = 10;
 380:lvgl/src/extra/widgets/spinbox/lv_spinbox.c ****                             lv_spinbox_step_next(obj);
 381:lvgl/src/extra/widgets/spinbox/lv_spinbox.c ****                         }
 382:lvgl/src/extra/widgets/spinbox/lv_spinbox.c ****                     }
 383:lvgl/src/extra/widgets/spinbox/lv_spinbox.c ****                 }
 384:lvgl/src/extra/widgets/spinbox/lv_spinbox.c ****             }
 385:lvgl/src/extra/widgets/spinbox/lv_spinbox.c ****         }
 386:lvgl/src/extra/widgets/spinbox/lv_spinbox.c ****         /*The cursor has been positioned to a digit.
 387:lvgl/src/extra/widgets/spinbox/lv_spinbox.c ****          * Set `step` accordingly*/
 388:lvgl/src/extra/widgets/spinbox/lv_spinbox.c ****         else {
 389:lvgl/src/extra/widgets/spinbox/lv_spinbox.c ****             const char * txt = lv_textarea_get_text(obj);
 390:lvgl/src/extra/widgets/spinbox/lv_spinbox.c ****             size_t txt_len = strlen(txt);
 391:lvgl/src/extra/widgets/spinbox/lv_spinbox.c **** 
 392:lvgl/src/extra/widgets/spinbox/lv_spinbox.c ****             if(txt[spinbox->ta.cursor.pos] == '.') {
 393:lvgl/src/extra/widgets/spinbox/lv_spinbox.c ****                 lv_textarea_cursor_left(obj);
 394:lvgl/src/extra/widgets/spinbox/lv_spinbox.c ****             }
 395:lvgl/src/extra/widgets/spinbox/lv_spinbox.c ****             else if(spinbox->ta.cursor.pos == (uint32_t)txt_len) {
 396:lvgl/src/extra/widgets/spinbox/lv_spinbox.c ****                 lv_textarea_set_cursor_pos(obj, txt_len - 1);
 397:lvgl/src/extra/widgets/spinbox/lv_spinbox.c ****             }
 398:lvgl/src/extra/widgets/spinbox/lv_spinbox.c ****             else if(spinbox->ta.cursor.pos == 0 && spinbox->range_min < 0) {
 399:lvgl/src/extra/widgets/spinbox/lv_spinbox.c ****                 lv_textarea_set_cursor_pos(obj, 1);
 400:lvgl/src/extra/widgets/spinbox/lv_spinbox.c ****             }
 401:lvgl/src/extra/widgets/spinbox/lv_spinbox.c **** 
 402:lvgl/src/extra/widgets/spinbox/lv_spinbox.c ****             size_t len = spinbox->digit_count - 1;
 403:lvgl/src/extra/widgets/spinbox/lv_spinbox.c ****             uint16_t cp = spinbox->ta.cursor.pos;
 404:lvgl/src/extra/widgets/spinbox/lv_spinbox.c **** 
 405:lvgl/src/extra/widgets/spinbox/lv_spinbox.c ****             if(spinbox->ta.cursor.pos > spinbox->dec_point_pos && spinbox->dec_point_pos != 0) cp--
 406:lvgl/src/extra/widgets/spinbox/lv_spinbox.c ****             uint32_t pos = len - cp;
 407:lvgl/src/extra/widgets/spinbox/lv_spinbox.c **** 
 408:lvgl/src/extra/widgets/spinbox/lv_spinbox.c ****             if(spinbox->range_min < 0) pos++;
 409:lvgl/src/extra/widgets/spinbox/lv_spinbox.c **** 
 410:lvgl/src/extra/widgets/spinbox/lv_spinbox.c ****             spinbox->step = 1;
 411:lvgl/src/extra/widgets/spinbox/lv_spinbox.c ****             uint16_t i;
 412:lvgl/src/extra/widgets/spinbox/lv_spinbox.c ****             for(i = 0; i < pos; i++) spinbox->step *= 10;
 413:lvgl/src/extra/widgets/spinbox/lv_spinbox.c ****         }
 414:lvgl/src/extra/widgets/spinbox/lv_spinbox.c ****     }
 415:lvgl/src/extra/widgets/spinbox/lv_spinbox.c ****     else if(code == LV_EVENT_KEY) {
 416:lvgl/src/extra/widgets/spinbox/lv_spinbox.c ****         lv_indev_type_t indev_type = lv_indev_get_type(lv_indev_get_act());
 417:lvgl/src/extra/widgets/spinbox/lv_spinbox.c **** 
 418:lvgl/src/extra/widgets/spinbox/lv_spinbox.c ****         uint32_t c = *((uint32_t *)lv_event_get_param(e)); /*uint32_t because can be UTF-8*/
 419:lvgl/src/extra/widgets/spinbox/lv_spinbox.c ****         if(c == LV_KEY_RIGHT) {
 420:lvgl/src/extra/widgets/spinbox/lv_spinbox.c ****             if(indev_type == LV_INDEV_TYPE_ENCODER)
 421:lvgl/src/extra/widgets/spinbox/lv_spinbox.c ****                 lv_spinbox_increment(obj);
 422:lvgl/src/extra/widgets/spinbox/lv_spinbox.c ****             else
 423:lvgl/src/extra/widgets/spinbox/lv_spinbox.c ****                 lv_spinbox_step_next(obj);
 424:lvgl/src/extra/widgets/spinbox/lv_spinbox.c ****         }
 425:lvgl/src/extra/widgets/spinbox/lv_spinbox.c ****         else if(c == LV_KEY_LEFT) {
ARM GAS  /var/folders/21/t9g5rlb91ys800n5npymflf80000gn/T//ccl2N14m.s 			page 9


 426:lvgl/src/extra/widgets/spinbox/lv_spinbox.c ****             if(indev_type == LV_INDEV_TYPE_ENCODER)
 427:lvgl/src/extra/widgets/spinbox/lv_spinbox.c ****                 lv_spinbox_decrement(obj);
 428:lvgl/src/extra/widgets/spinbox/lv_spinbox.c ****             else
 429:lvgl/src/extra/widgets/spinbox/lv_spinbox.c ****                 lv_spinbox_step_prev(obj);
 430:lvgl/src/extra/widgets/spinbox/lv_spinbox.c ****         }
 431:lvgl/src/extra/widgets/spinbox/lv_spinbox.c ****         else if(c == LV_KEY_UP) {
 432:lvgl/src/extra/widgets/spinbox/lv_spinbox.c ****             lv_spinbox_increment(obj);
 433:lvgl/src/extra/widgets/spinbox/lv_spinbox.c ****         }
 434:lvgl/src/extra/widgets/spinbox/lv_spinbox.c ****         else if(c == LV_KEY_DOWN) {
 435:lvgl/src/extra/widgets/spinbox/lv_spinbox.c ****             lv_spinbox_decrement(obj);
 436:lvgl/src/extra/widgets/spinbox/lv_spinbox.c ****         }
 437:lvgl/src/extra/widgets/spinbox/lv_spinbox.c ****     }
 438:lvgl/src/extra/widgets/spinbox/lv_spinbox.c **** }
 439:lvgl/src/extra/widgets/spinbox/lv_spinbox.c **** 
 440:lvgl/src/extra/widgets/spinbox/lv_spinbox.c **** static void lv_spinbox_updatevalue(lv_obj_t * obj)
 441:lvgl/src/extra/widgets/spinbox/lv_spinbox.c **** {
  33              		.loc 1 441 1 view -0
  34              		.cfi_startproc
  35              		@ args = 0, pretend = 0, frame = 40
  36              		@ frame_needed = 0, uses_anonymous_args = 0
  37              		.loc 1 441 1 is_stmt 0 view .LVU1
  38 0000 F0B5     		push	{r4, r5, r6, r7, lr}
  39              	.LCFI0:
  40              		.cfi_def_cfa_offset 20
  41              		.cfi_offset 4, -20
  42              		.cfi_offset 5, -16
  43              		.cfi_offset 6, -12
  44              		.cfi_offset 7, -8
  45              		.cfi_offset 14, -4
  46 0002 8BB0     		sub	sp, sp, #44
  47              	.LCFI1:
  48              		.cfi_def_cfa_offset 64
  49 0004 0446     		mov	r4, r0
 442:lvgl/src/extra/widgets/spinbox/lv_spinbox.c ****     lv_spinbox_t * spinbox = (lv_spinbox_t *)obj;
  50              		.loc 1 442 5 is_stmt 1 view .LVU2
  51              	.LVL1:
 443:lvgl/src/extra/widgets/spinbox/lv_spinbox.c **** 
 444:lvgl/src/extra/widgets/spinbox/lv_spinbox.c ****     char buf[LV_SPINBOX_MAX_DIGIT_COUNT + 8];
  52              		.loc 1 444 5 view .LVU3
 445:lvgl/src/extra/widgets/spinbox/lv_spinbox.c ****     lv_memset_00(buf, sizeof(buf));
  53              		.loc 1 445 5 view .LVU4
  54 0006 1221     		movs	r1, #18
  55 0008 05A8     		add	r0, sp, #20
  56              	.LVL2:
  57              		.loc 1 445 5 is_stmt 0 view .LVU5
  58 000a FFF7FEFF 		bl	lv_memset_00
  59              	.LVL3:
 446:lvgl/src/extra/widgets/spinbox/lv_spinbox.c ****     char * buf_p = buf;
  60              		.loc 1 446 5 is_stmt 1 view .LVU6
 447:lvgl/src/extra/widgets/spinbox/lv_spinbox.c ****     uint8_t cur_shift_left = 0;
  61              		.loc 1 447 5 view .LVU7
 448:lvgl/src/extra/widgets/spinbox/lv_spinbox.c **** 
 449:lvgl/src/extra/widgets/spinbox/lv_spinbox.c ****     if(spinbox->range_min < 0) {  // hide sign if there are only positive values
  62              		.loc 1 449 5 view .LVU8
  63              		.loc 1 449 15 is_stmt 0 view .LVU9
  64 000e E36E     		ldr	r3, [r4, #108]
  65              		.loc 1 449 7 view .LVU10
ARM GAS  /var/folders/21/t9g5rlb91ys800n5npymflf80000gn/T//ccl2N14m.s 			page 10


  66 0010 002B     		cmp	r3, #0
  67 0012 23DB     		blt	.L22
 450:lvgl/src/extra/widgets/spinbox/lv_spinbox.c ****         /*Add the sign*/
 451:lvgl/src/extra/widgets/spinbox/lv_spinbox.c ****         (*buf_p) = spinbox->value >= 0 ? '+' : '-';
 452:lvgl/src/extra/widgets/spinbox/lv_spinbox.c ****         buf_p++;
 453:lvgl/src/extra/widgets/spinbox/lv_spinbox.c ****     }
 454:lvgl/src/extra/widgets/spinbox/lv_spinbox.c ****     else {
 455:lvgl/src/extra/widgets/spinbox/lv_spinbox.c ****         /*Cursor need shift to left*/
 456:lvgl/src/extra/widgets/spinbox/lv_spinbox.c ****         cur_shift_left++;
  68              		.loc 1 456 23 view .LVU11
  69 0014 0126     		movs	r6, #1
 446:lvgl/src/extra/widgets/spinbox/lv_spinbox.c ****     uint8_t cur_shift_left = 0;
  70              		.loc 1 446 12 view .LVU12
  71 0016 05AF     		add	r7, sp, #20
  72              	.LVL4:
  73              	.L2:
 457:lvgl/src/extra/widgets/spinbox/lv_spinbox.c ****     }
 458:lvgl/src/extra/widgets/spinbox/lv_spinbox.c **** 
 459:lvgl/src/extra/widgets/spinbox/lv_spinbox.c ****     int32_t i;
  74              		.loc 1 459 5 is_stmt 1 view .LVU13
 460:lvgl/src/extra/widgets/spinbox/lv_spinbox.c ****     char digits[LV_SPINBOX_MAX_DIGIT_COUNT + 4];
  75              		.loc 1 460 5 view .LVU14
 461:lvgl/src/extra/widgets/spinbox/lv_spinbox.c ****     /*Convert the numbers to string (the sign is already handled so always covert positive number)*
 462:lvgl/src/extra/widgets/spinbox/lv_spinbox.c ****     lv_snprintf(digits, sizeof(digits), "%" LV_PRId32, LV_ABS(spinbox->value));
  76              		.loc 1 462 5 view .LVU15
  77              		.loc 1 462 56 is_stmt 0 view .LVU16
  78 0018 636E     		ldr	r3, [r4, #100]
  79              		.loc 1 462 5 view .LVU17
  80 001a 002B     		cmp	r3, #0
  81 001c B8BF     		it	lt
  82 001e 5B42     		rsblt	r3, r3, #0
  83 0020 3F4A     		ldr	r2, .L24
  84 0022 0E21     		movs	r1, #14
  85 0024 01A8     		add	r0, sp, #4
  86 0026 FFF7FEFF 		bl	lv_snprintf
  87              	.LVL5:
 463:lvgl/src/extra/widgets/spinbox/lv_spinbox.c **** 
 464:lvgl/src/extra/widgets/spinbox/lv_spinbox.c ****     /*Add leading zeros*/
 465:lvgl/src/extra/widgets/spinbox/lv_spinbox.c ****     int lz_cnt = spinbox->digit_count - (int)strlen(digits);
  88              		.loc 1 465 5 is_stmt 1 view .LVU18
  89              		.loc 1 465 25 is_stmt 0 view .LVU19
  90 002a 94F87450 		ldrb	r5, [r4, #116]	@ zero_extendqisi2
  91 002e 05F00F05 		and	r5, r5, #15
  92              		.loc 1 465 46 view .LVU20
  93 0032 01A8     		add	r0, sp, #4
  94 0034 FFF7FEFF 		bl	strlen
  95              	.LVL6:
  96              		.loc 1 465 41 view .LVU21
  97 0038 0346     		mov	r3, r0
  98              		.loc 1 465 9 view .LVU22
  99 003a 281A     		subs	r0, r5, r0
 100              	.LVL7:
 466:lvgl/src/extra/widgets/spinbox/lv_spinbox.c ****     if(lz_cnt > 0) {
 101              		.loc 1 466 5 is_stmt 1 view .LVU23
 102              		.loc 1 466 7 is_stmt 0 view .LVU24
 103 003c 0028     		cmp	r0, #0
 104 003e 24DD     		ble	.L5
ARM GAS  /var/folders/21/t9g5rlb91ys800n5npymflf80000gn/T//ccl2N14m.s 			page 11


 105              	.L4:
 106              	.LVL8:
 467:lvgl/src/extra/widgets/spinbox/lv_spinbox.c ****         for(i = (uint16_t)strlen(digits); i >= 0; i--) {
 107              		.loc 1 467 45 is_stmt 1 discriminator 1 view .LVU25
 108 0040 002B     		cmp	r3, #0
 109 0042 17DB     		blt	.L23
 468:lvgl/src/extra/widgets/spinbox/lv_spinbox.c ****             digits[i + lz_cnt] = digits[i];
 110              		.loc 1 468 13 discriminator 3 view .LVU26
 111              		.loc 1 468 22 is_stmt 0 discriminator 3 view .LVU27
 112 0044 1A18     		adds	r2, r3, r0
 113              		.loc 1 468 40 discriminator 3 view .LVU28
 114 0046 03F12801 		add	r1, r3, #40
 115 004a 6944     		add	r1, sp, r1
 116 004c 11F8241C 		ldrb	r1, [r1, #-36]	@ zero_extendqisi2
 117              		.loc 1 468 32 discriminator 3 view .LVU29
 118 0050 2832     		adds	r2, r2, #40
 119 0052 6A44     		add	r2, sp, r2
 120 0054 02F8241C 		strb	r1, [r2, #-36]
 467:lvgl/src/extra/widgets/spinbox/lv_spinbox.c ****         for(i = (uint16_t)strlen(digits); i >= 0; i--) {
 121              		.loc 1 467 52 is_stmt 1 discriminator 3 view .LVU30
 122 0058 013B     		subs	r3, r3, #1
 123              	.LVL9:
 467:lvgl/src/extra/widgets/spinbox/lv_spinbox.c ****         for(i = (uint16_t)strlen(digits); i >= 0; i--) {
 124              		.loc 1 467 52 is_stmt 0 discriminator 3 view .LVU31
 125 005a F1E7     		b	.L4
 126              	.LVL10:
 127              	.L22:
 451:lvgl/src/extra/widgets/spinbox/lv_spinbox.c ****         buf_p++;
 128              		.loc 1 451 9 is_stmt 1 view .LVU32
 451:lvgl/src/extra/widgets/spinbox/lv_spinbox.c ****         buf_p++;
 129              		.loc 1 451 27 is_stmt 0 view .LVU33
 130 005c 636E     		ldr	r3, [r4, #100]
 451:lvgl/src/extra/widgets/spinbox/lv_spinbox.c ****         buf_p++;
 131              		.loc 1 451 18 view .LVU34
 132 005e 002B     		cmp	r3, #0
 133 0060 06DB     		blt	.L20
 134 0062 2B23     		movs	r3, #43
 135              	.L3:
 451:lvgl/src/extra/widgets/spinbox/lv_spinbox.c ****         buf_p++;
 136              		.loc 1 451 18 discriminator 4 view .LVU35
 137 0064 8DF81430 		strb	r3, [sp, #20]
 452:lvgl/src/extra/widgets/spinbox/lv_spinbox.c ****     }
 138              		.loc 1 452 9 is_stmt 1 discriminator 4 view .LVU36
 139              	.LVL11:
 447:lvgl/src/extra/widgets/spinbox/lv_spinbox.c **** 
 140              		.loc 1 447 13 is_stmt 0 discriminator 4 view .LVU37
 141 0068 0026     		movs	r6, #0
 452:lvgl/src/extra/widgets/spinbox/lv_spinbox.c ****     }
 142              		.loc 1 452 14 discriminator 4 view .LVU38
 143 006a 0DF11507 		add	r7, sp, #21
 144              	.LVL12:
 452:lvgl/src/extra/widgets/spinbox/lv_spinbox.c ****     }
 145              		.loc 1 452 14 discriminator 4 view .LVU39
 146 006e D3E7     		b	.L2
 147              	.LVL13:
 148              	.L20:
 451:lvgl/src/extra/widgets/spinbox/lv_spinbox.c ****         buf_p++;
ARM GAS  /var/folders/21/t9g5rlb91ys800n5npymflf80000gn/T//ccl2N14m.s 			page 12


 149              		.loc 1 451 18 view .LVU40
 150 0070 2D23     		movs	r3, #45
 151 0072 F7E7     		b	.L3
 152              	.LVL14:
 153              	.L23:
 469:lvgl/src/extra/widgets/spinbox/lv_spinbox.c ****         }
 470:lvgl/src/extra/widgets/spinbox/lv_spinbox.c ****         for(i = 0; i < lz_cnt; i++) {
 154              		.loc 1 470 15 view .LVU41
 155 0074 0023     		movs	r3, #0
 156              	.LVL15:
 157              	.L7:
 158              		.loc 1 470 22 is_stmt 1 discriminator 1 view .LVU42
 159 0076 8342     		cmp	r3, r0
 160 0078 07DA     		bge	.L5
 471:lvgl/src/extra/widgets/spinbox/lv_spinbox.c ****             digits[i] = '0';
 161              		.loc 1 471 13 discriminator 3 view .LVU43
 162              		.loc 1 471 23 is_stmt 0 discriminator 3 view .LVU44
 163 007a 03F12802 		add	r2, r3, #40
 164 007e 6A44     		add	r2, sp, r2
 165 0080 3021     		movs	r1, #48
 166 0082 02F8241C 		strb	r1, [r2, #-36]
 470:lvgl/src/extra/widgets/spinbox/lv_spinbox.c ****             digits[i] = '0';
 167              		.loc 1 470 33 is_stmt 1 discriminator 3 view .LVU45
 168 0086 0133     		adds	r3, r3, #1
 169              	.LVL16:
 470:lvgl/src/extra/widgets/spinbox/lv_spinbox.c ****             digits[i] = '0';
 170              		.loc 1 470 33 is_stmt 0 discriminator 3 view .LVU46
 171 0088 F5E7     		b	.L7
 172              	.LVL17:
 173              	.L5:
 472:lvgl/src/extra/widgets/spinbox/lv_spinbox.c ****         }
 473:lvgl/src/extra/widgets/spinbox/lv_spinbox.c ****     }
 474:lvgl/src/extra/widgets/spinbox/lv_spinbox.c **** 
 475:lvgl/src/extra/widgets/spinbox/lv_spinbox.c ****     int32_t intDigits;
 174              		.loc 1 475 5 is_stmt 1 view .LVU47
 476:lvgl/src/extra/widgets/spinbox/lv_spinbox.c ****     intDigits = (spinbox->dec_point_pos == 0) ? spinbox->digit_count : spinbox->dec_point_pos;
 175              		.loc 1 476 5 view .LVU48
 176              		.loc 1 476 41 is_stmt 0 view .LVU49
 177 008a 94F87430 		ldrb	r3, [r4, #116]	@ zero_extendqisi2
 178              		.loc 1 476 70 view .LVU50
 179 008e 0F2B     		cmp	r3, #15
 180 0090 00D9     		bls	.L9
 181              		.loc 1 476 79 discriminator 2 view .LVU51
 182 0092 1D09     		lsrs	r5, r3, #4
 183              	.L9:
 184              	.LVL18:
 477:lvgl/src/extra/widgets/spinbox/lv_spinbox.c **** 
 478:lvgl/src/extra/widgets/spinbox/lv_spinbox.c ****     /*Add the decimal part*/
 479:lvgl/src/extra/widgets/spinbox/lv_spinbox.c ****     for(i = 0; i < intDigits && digits[i] != '\0'; i++) {
 185              		.loc 1 479 5 is_stmt 1 discriminator 4 view .LVU52
 186              		.loc 1 479 11 is_stmt 0 discriminator 4 view .LVU53
 187 0094 0023     		movs	r3, #0
 188              		.loc 1 479 5 discriminator 4 view .LVU54
 189 0096 02E0     		b	.L10
 190              	.LVL19:
 191              	.L12:
 480:lvgl/src/extra/widgets/spinbox/lv_spinbox.c ****         (*buf_p) = digits[i];
ARM GAS  /var/folders/21/t9g5rlb91ys800n5npymflf80000gn/T//ccl2N14m.s 			page 13


 192              		.loc 1 480 9 is_stmt 1 discriminator 4 view .LVU55
 193              		.loc 1 480 18 is_stmt 0 discriminator 4 view .LVU56
 194 0098 07F8012B 		strb	r2, [r7], #1
 195              	.LVL20:
 481:lvgl/src/extra/widgets/spinbox/lv_spinbox.c ****         buf_p++;
 196              		.loc 1 481 9 is_stmt 1 discriminator 4 view .LVU57
 479:lvgl/src/extra/widgets/spinbox/lv_spinbox.c ****         (*buf_p) = digits[i];
 197              		.loc 1 479 53 discriminator 4 view .LVU58
 198 009c 0133     		adds	r3, r3, #1
 199              	.LVL21:
 200              	.L10:
 479:lvgl/src/extra/widgets/spinbox/lv_spinbox.c ****         (*buf_p) = digits[i];
 201              		.loc 1 479 30 discriminator 1 view .LVU59
 202 009e AB42     		cmp	r3, r5
 203 00a0 06DA     		bge	.L11
 479:lvgl/src/extra/widgets/spinbox/lv_spinbox.c ****         (*buf_p) = digits[i];
 204              		.loc 1 479 39 is_stmt 0 discriminator 3 view .LVU60
 205 00a2 03F12802 		add	r2, r3, #40
 206 00a6 6A44     		add	r2, sp, r2
 207 00a8 12F8242C 		ldrb	r2, [r2, #-36]	@ zero_extendqisi2
 479:lvgl/src/extra/widgets/spinbox/lv_spinbox.c ****         (*buf_p) = digits[i];
 208              		.loc 1 479 30 discriminator 3 view .LVU61
 209 00ac 002A     		cmp	r2, #0
 210 00ae F3D1     		bne	.L12
 211              	.L11:
 482:lvgl/src/extra/widgets/spinbox/lv_spinbox.c ****     }
 483:lvgl/src/extra/widgets/spinbox/lv_spinbox.c **** 
 484:lvgl/src/extra/widgets/spinbox/lv_spinbox.c ****     if(spinbox->dec_point_pos != 0) {
 212              		.loc 1 484 5 is_stmt 1 view .LVU62
 213              		.loc 1 484 31 is_stmt 0 view .LVU63
 214 00b0 94F87420 		ldrb	r2, [r4, #116]	@ zero_extendqisi2
 215              		.loc 1 484 7 view .LVU64
 216 00b4 0F2A     		cmp	r2, #15
 217 00b6 13D9     		bls	.L13
 485:lvgl/src/extra/widgets/spinbox/lv_spinbox.c ****         /*Insert the decimal point*/
 486:lvgl/src/extra/widgets/spinbox/lv_spinbox.c ****         (*buf_p) = '.';
 218              		.loc 1 486 9 is_stmt 1 view .LVU65
 219              		.loc 1 486 18 is_stmt 0 view .LVU66
 220 00b8 2E22     		movs	r2, #46
 221 00ba 07F8012B 		strb	r2, [r7], #1
 222              	.LVL22:
 487:lvgl/src/extra/widgets/spinbox/lv_spinbox.c ****         buf_p++;
 223              		.loc 1 487 9 is_stmt 1 view .LVU67
 488:lvgl/src/extra/widgets/spinbox/lv_spinbox.c **** 
 489:lvgl/src/extra/widgets/spinbox/lv_spinbox.c ****         for(/*Leave i*/; i < spinbox->digit_count && digits[i] != '\0'; i++) {
 224              		.loc 1 489 9 view .LVU68
 225 00be 02E0     		b	.L14
 226              	.L15:
 490:lvgl/src/extra/widgets/spinbox/lv_spinbox.c ****             (*buf_p) = digits[i];
 227              		.loc 1 490 13 discriminator 3 view .LVU69
 228              		.loc 1 490 22 is_stmt 0 discriminator 3 view .LVU70
 229 00c0 07F8012B 		strb	r2, [r7], #1
 230              	.LVL23:
 491:lvgl/src/extra/widgets/spinbox/lv_spinbox.c ****             buf_p++;
 231              		.loc 1 491 13 is_stmt 1 discriminator 3 view .LVU71
 489:lvgl/src/extra/widgets/spinbox/lv_spinbox.c ****             (*buf_p) = digits[i];
 232              		.loc 1 489 74 discriminator 3 view .LVU72
ARM GAS  /var/folders/21/t9g5rlb91ys800n5npymflf80000gn/T//ccl2N14m.s 			page 14


 233 00c4 0133     		adds	r3, r3, #1
 234              	.LVL24:
 235              	.L14:
 489:lvgl/src/extra/widgets/spinbox/lv_spinbox.c ****             (*buf_p) = digits[i];
 236              		.loc 1 489 51 discriminator 1 view .LVU73
 489:lvgl/src/extra/widgets/spinbox/lv_spinbox.c ****             (*buf_p) = digits[i];
 237              		.loc 1 489 37 is_stmt 0 discriminator 1 view .LVU74
 238 00c6 94F87420 		ldrb	r2, [r4, #116]	@ zero_extendqisi2
 239 00ca 02F00F02 		and	r2, r2, #15
 489:lvgl/src/extra/widgets/spinbox/lv_spinbox.c ****             (*buf_p) = digits[i];
 240              		.loc 1 489 51 discriminator 1 view .LVU75
 241 00ce 9A42     		cmp	r2, r3
 242 00d0 06DD     		ble	.L13
 489:lvgl/src/extra/widgets/spinbox/lv_spinbox.c ****             (*buf_p) = digits[i];
 243              		.loc 1 489 60 discriminator 2 view .LVU76
 244 00d2 03F12802 		add	r2, r3, #40
 245 00d6 6A44     		add	r2, sp, r2
 246 00d8 12F8242C 		ldrb	r2, [r2, #-36]	@ zero_extendqisi2
 489:lvgl/src/extra/widgets/spinbox/lv_spinbox.c ****             (*buf_p) = digits[i];
 247              		.loc 1 489 51 discriminator 2 view .LVU77
 248 00dc 002A     		cmp	r2, #0
 249 00de EFD1     		bne	.L15
 250              	.L13:
 492:lvgl/src/extra/widgets/spinbox/lv_spinbox.c ****         }
 493:lvgl/src/extra/widgets/spinbox/lv_spinbox.c ****     }
 494:lvgl/src/extra/widgets/spinbox/lv_spinbox.c **** 
 495:lvgl/src/extra/widgets/spinbox/lv_spinbox.c ****     /*Refresh the text*/
 496:lvgl/src/extra/widgets/spinbox/lv_spinbox.c ****     lv_textarea_set_text(obj, (char *)buf);
 251              		.loc 1 496 5 is_stmt 1 view .LVU78
 252 00e0 05A9     		add	r1, sp, #20
 253 00e2 2046     		mov	r0, r4
 254              	.LVL25:
 255              		.loc 1 496 5 is_stmt 0 view .LVU79
 256 00e4 FFF7FEFF 		bl	lv_textarea_set_text
 257              	.LVL26:
 497:lvgl/src/extra/widgets/spinbox/lv_spinbox.c **** 
 498:lvgl/src/extra/widgets/spinbox/lv_spinbox.c ****     /*Set the cursor position*/
 499:lvgl/src/extra/widgets/spinbox/lv_spinbox.c ****     int32_t step    = spinbox->step;
 258              		.loc 1 499 5 is_stmt 1 view .LVU80
 259              		.loc 1 499 13 is_stmt 0 view .LVU81
 260 00e8 236F     		ldr	r3, [r4, #112]
 261              	.LVL27:
 500:lvgl/src/extra/widgets/spinbox/lv_spinbox.c ****     uint8_t cur_pos = (uint8_t)spinbox->digit_count;
 262              		.loc 1 500 5 is_stmt 1 view .LVU82
 263              		.loc 1 500 39 is_stmt 0 view .LVU83
 264 00ea 94F87410 		ldrb	r1, [r4, #116]	@ zero_extendqisi2
 265 00ee 01F00F01 		and	r1, r1, #15
 266              	.LVL28:
 501:lvgl/src/extra/widgets/spinbox/lv_spinbox.c ****     while(step >= 10) {
 267              		.loc 1 501 5 is_stmt 1 view .LVU84
 268              		.loc 1 501 10 is_stmt 0 view .LVU85
 269 00f2 07E0     		b	.L16
 270              	.LVL29:
 271              	.L17:
 502:lvgl/src/extra/widgets/spinbox/lv_spinbox.c ****         step /= 10;
 272              		.loc 1 502 9 is_stmt 1 view .LVU86
 273              		.loc 1 502 14 is_stmt 0 view .LVU87
ARM GAS  /var/folders/21/t9g5rlb91ys800n5npymflf80000gn/T//ccl2N14m.s 			page 15


 274 00f4 0B4A     		ldr	r2, .L24+4
 275 00f6 82FB0302 		smull	r0, r2, r2, r3
 276 00fa DB17     		asrs	r3, r3, #31
 277              	.LVL30:
 278              		.loc 1 502 14 view .LVU88
 279 00fc C3EBA203 		rsb	r3, r3, r2, asr #2
 280              	.LVL31:
 503:lvgl/src/extra/widgets/spinbox/lv_spinbox.c ****         cur_pos--;
 281              		.loc 1 503 9 is_stmt 1 view .LVU89
 282              		.loc 1 503 16 is_stmt 0 view .LVU90
 283 0100 0139     		subs	r1, r1, #1
 284              	.LVL32:
 285              		.loc 1 503 16 view .LVU91
 286 0102 C9B2     		uxtb	r1, r1
 287              	.LVL33:
 288              	.L16:
 501:lvgl/src/extra/widgets/spinbox/lv_spinbox.c ****     while(step >= 10) {
 289              		.loc 1 501 16 is_stmt 1 view .LVU92
 290 0104 092B     		cmp	r3, #9
 291 0106 F5DC     		bgt	.L17
 504:lvgl/src/extra/widgets/spinbox/lv_spinbox.c ****     }
 505:lvgl/src/extra/widgets/spinbox/lv_spinbox.c **** 
 506:lvgl/src/extra/widgets/spinbox/lv_spinbox.c ****     if(cur_pos > intDigits) cur_pos++; /*Skip the decimal point*/
 292              		.loc 1 506 5 view .LVU93
 293              		.loc 1 506 7 is_stmt 0 view .LVU94
 294 0108 A942     		cmp	r1, r5
 295 010a 01DD     		ble	.L18
 296              		.loc 1 506 29 is_stmt 1 discriminator 1 view .LVU95
 297              		.loc 1 506 36 is_stmt 0 discriminator 1 view .LVU96
 298 010c 0131     		adds	r1, r1, #1
 299              	.LVL34:
 300              		.loc 1 506 36 discriminator 1 view .LVU97
 301 010e C9B2     		uxtb	r1, r1
 302              	.LVL35:
 303              	.L18:
 507:lvgl/src/extra/widgets/spinbox/lv_spinbox.c **** 
 508:lvgl/src/extra/widgets/spinbox/lv_spinbox.c ****     cur_pos -= cur_shift_left;
 304              		.loc 1 508 5 is_stmt 1 view .LVU98
 305              		.loc 1 508 13 is_stmt 0 view .LVU99
 306 0110 891B     		subs	r1, r1, r6
 307              	.LVL36:
 509:lvgl/src/extra/widgets/spinbox/lv_spinbox.c **** 
 510:lvgl/src/extra/widgets/spinbox/lv_spinbox.c ****     lv_textarea_set_cursor_pos(obj, cur_pos);
 308              		.loc 1 510 5 is_stmt 1 view .LVU100
 309 0112 C9B2     		uxtb	r1, r1
 310              		.loc 1 510 5 is_stmt 0 view .LVU101
 311 0114 2046     		mov	r0, r4
 312 0116 FFF7FEFF 		bl	lv_textarea_set_cursor_pos
 313              	.LVL37:
 511:lvgl/src/extra/widgets/spinbox/lv_spinbox.c **** }
 314              		.loc 1 511 1 view .LVU102
 315 011a 0BB0     		add	sp, sp, #44
 316              	.LCFI2:
 317              		.cfi_def_cfa_offset 20
 318              		@ sp needed
 319 011c F0BD     		pop	{r4, r5, r6, r7, pc}
 320              	.LVL38:
ARM GAS  /var/folders/21/t9g5rlb91ys800n5npymflf80000gn/T//ccl2N14m.s 			page 16


 321              	.L25:
 322              		.loc 1 511 1 view .LVU103
 323 011e 00BF     		.align	2
 324              	.L24:
 325 0120 00000000 		.word	.LC0
 326 0124 67666666 		.word	1717986919
 327              		.cfi_endproc
 328              	.LFE221:
 330              		.section	.text.lv_spinbox_constructor,"ax",%progbits
 331              		.align	1
 332              		.syntax unified
 333              		.thumb
 334              		.thumb_func
 336              	lv_spinbox_constructor:
 337              	.LVL39:
 338              	.LFB219:
 321:lvgl/src/extra/widgets/spinbox/lv_spinbox.c ****     LV_UNUSED(class_p);
 339              		.loc 1 321 1 is_stmt 1 view -0
 340              		.cfi_startproc
 341              		@ args = 0, pretend = 0, frame = 0
 342              		@ frame_needed = 0, uses_anonymous_args = 0
 321:lvgl/src/extra/widgets/spinbox/lv_spinbox.c ****     LV_UNUSED(class_p);
 343              		.loc 1 321 1 is_stmt 0 view .LVU105
 344 0000 38B5     		push	{r3, r4, r5, lr}
 345              	.LCFI3:
 346              		.cfi_def_cfa_offset 16
 347              		.cfi_offset 3, -16
 348              		.cfi_offset 4, -12
 349              		.cfi_offset 5, -8
 350              		.cfi_offset 14, -4
 351 0002 0C46     		mov	r4, r1
 322:lvgl/src/extra/widgets/spinbox/lv_spinbox.c ****     LV_LOG_TRACE("begin");
 352              		.loc 1 322 5 is_stmt 1 view .LVU106
 323:lvgl/src/extra/widgets/spinbox/lv_spinbox.c **** 
 353              		.loc 1 323 5 view .LVU107
 323:lvgl/src/extra/widgets/spinbox/lv_spinbox.c **** 
 354              		.loc 1 323 5 view .LVU108
 323:lvgl/src/extra/widgets/spinbox/lv_spinbox.c **** 
 355              		.loc 1 323 5 view .LVU109
 325:lvgl/src/extra/widgets/spinbox/lv_spinbox.c **** 
 356              		.loc 1 325 5 view .LVU110
 357              	.LVL40:
 328:lvgl/src/extra/widgets/spinbox/lv_spinbox.c ****     spinbox->dec_point_pos      = 0;
 358              		.loc 1 328 5 view .LVU111
 328:lvgl/src/extra/widgets/spinbox/lv_spinbox.c ****     spinbox->dec_point_pos      = 0;
 359              		.loc 1 328 33 is_stmt 0 view .LVU112
 360 0004 0023     		movs	r3, #0
 361 0006 4B66     		str	r3, [r1, #100]
 329:lvgl/src/extra/widgets/spinbox/lv_spinbox.c ****     spinbox->digit_count        = 5;
 362              		.loc 1 329 5 is_stmt 1 view .LVU113
 329:lvgl/src/extra/widgets/spinbox/lv_spinbox.c ****     spinbox->digit_count        = 5;
 363              		.loc 1 329 33 is_stmt 0 view .LVU114
 364 0008 91F87420 		ldrb	r2, [r1, #116]	@ zero_extendqisi2
 365 000c 63F30712 		bfi	r2, r3, #4, #4
 366 0010 81F87420 		strb	r2, [r1, #116]
 330:lvgl/src/extra/widgets/spinbox/lv_spinbox.c ****     spinbox->step               = 1;
 367              		.loc 1 330 5 is_stmt 1 view .LVU115
ARM GAS  /var/folders/21/t9g5rlb91ys800n5npymflf80000gn/T//ccl2N14m.s 			page 17


 330:lvgl/src/extra/widgets/spinbox/lv_spinbox.c ****     spinbox->step               = 1;
 368              		.loc 1 330 33 is_stmt 0 view .LVU116
 369 0014 D2B2     		uxtb	r2, r2
 370 0016 0521     		movs	r1, #5
 371              	.LVL41:
 330:lvgl/src/extra/widgets/spinbox/lv_spinbox.c ****     spinbox->step               = 1;
 372              		.loc 1 330 33 view .LVU117
 373 0018 61F30302 		bfi	r2, r1, #0, #4
 374 001c 84F87420 		strb	r2, [r4, #116]
 331:lvgl/src/extra/widgets/spinbox/lv_spinbox.c ****     spinbox->range_max          = 99999;
 375              		.loc 1 331 5 is_stmt 1 view .LVU118
 331:lvgl/src/extra/widgets/spinbox/lv_spinbox.c ****     spinbox->range_max          = 99999;
 376              		.loc 1 331 33 is_stmt 0 view .LVU119
 377 0020 0125     		movs	r5, #1
 378 0022 2567     		str	r5, [r4, #112]
 332:lvgl/src/extra/widgets/spinbox/lv_spinbox.c ****     spinbox->range_min          = -99999;
 379              		.loc 1 332 5 is_stmt 1 view .LVU120
 332:lvgl/src/extra/widgets/spinbox/lv_spinbox.c ****     spinbox->range_min          = -99999;
 380              		.loc 1 332 33 is_stmt 0 view .LVU121
 381 0024 0D4A     		ldr	r2, .L28
 382 0026 A266     		str	r2, [r4, #104]
 333:lvgl/src/extra/widgets/spinbox/lv_spinbox.c ****     spinbox->rollover           = false;
 383              		.loc 1 333 5 is_stmt 1 view .LVU122
 333:lvgl/src/extra/widgets/spinbox/lv_spinbox.c ****     spinbox->rollover           = false;
 384              		.loc 1 333 33 is_stmt 0 view .LVU123
 385 0028 0D4A     		ldr	r2, .L28+4
 386 002a E266     		str	r2, [r4, #108]
 334:lvgl/src/extra/widgets/spinbox/lv_spinbox.c ****     spinbox->digit_step_dir     = LV_DIR_RIGHT;
 387              		.loc 1 334 5 is_stmt 1 view .LVU124
 334:lvgl/src/extra/widgets/spinbox/lv_spinbox.c ****     spinbox->digit_step_dir     = LV_DIR_RIGHT;
 388              		.loc 1 334 33 is_stmt 0 view .LVU125
 389 002c 94F87520 		ldrb	r2, [r4, #117]	@ zero_extendqisi2
 390 0030 63F30002 		bfi	r2, r3, #0, #1
 391 0034 84F87520 		strb	r2, [r4, #117]
 335:lvgl/src/extra/widgets/spinbox/lv_spinbox.c **** 
 392              		.loc 1 335 5 is_stmt 1 view .LVU126
 335:lvgl/src/extra/widgets/spinbox/lv_spinbox.c **** 
 393              		.loc 1 335 33 is_stmt 0 view .LVU127
 394 0038 D3B2     		uxtb	r3, r2
 395 003a 0222     		movs	r2, #2
 396 003c 62F34203 		bfi	r3, r2, #1, #2
 397 0040 84F87530 		strb	r3, [r4, #117]
 337:lvgl/src/extra/widgets/spinbox/lv_spinbox.c ****     lv_textarea_set_cursor_click_pos(obj, true);
 398              		.loc 1 337 5 is_stmt 1 view .LVU128
 399 0044 2946     		mov	r1, r5
 400 0046 2046     		mov	r0, r4
 401              	.LVL42:
 337:lvgl/src/extra/widgets/spinbox/lv_spinbox.c ****     lv_textarea_set_cursor_click_pos(obj, true);
 402              		.loc 1 337 5 is_stmt 0 view .LVU129
 403 0048 FFF7FEFF 		bl	lv_textarea_set_one_line
 404              	.LVL43:
 338:lvgl/src/extra/widgets/spinbox/lv_spinbox.c **** 
 405              		.loc 1 338 5 is_stmt 1 view .LVU130
 406 004c 2946     		mov	r1, r5
 407 004e 2046     		mov	r0, r4
 408 0050 FFF7FEFF 		bl	lv_textarea_set_cursor_click_pos
 409              	.LVL44:
ARM GAS  /var/folders/21/t9g5rlb91ys800n5npymflf80000gn/T//ccl2N14m.s 			page 18


 340:lvgl/src/extra/widgets/spinbox/lv_spinbox.c **** 
 410              		.loc 1 340 5 view .LVU131
 411 0054 2046     		mov	r0, r4
 412 0056 FFF7FEFF 		bl	lv_spinbox_updatevalue
 413              	.LVL45:
 342:lvgl/src/extra/widgets/spinbox/lv_spinbox.c **** }
 414              		.loc 1 342 5 view .LVU132
 342:lvgl/src/extra/widgets/spinbox/lv_spinbox.c **** }
 415              		.loc 1 342 5 view .LVU133
 342:lvgl/src/extra/widgets/spinbox/lv_spinbox.c **** }
 416              		.loc 1 342 5 view .LVU134
 343:lvgl/src/extra/widgets/spinbox/lv_spinbox.c **** 
 417              		.loc 1 343 1 is_stmt 0 view .LVU135
 418 005a 38BD     		pop	{r3, r4, r5, pc}
 419              	.LVL46:
 420              	.L29:
 343:lvgl/src/extra/widgets/spinbox/lv_spinbox.c **** 
 421              		.loc 1 343 1 view .LVU136
 422              		.align	2
 423              	.L28:
 424 005c 9F860100 		.word	99999
 425 0060 6179FEFF 		.word	-99999
 426              		.cfi_endproc
 427              	.LFE219:
 429              		.section	.text.lv_spinbox_create,"ax",%progbits
 430              		.align	1
 431              		.global	lv_spinbox_create
 432              		.syntax unified
 433              		.thumb
 434              		.thumb_func
 436              	lv_spinbox_create:
 437              	.LVL47:
 438              	.LFB204:
  51:lvgl/src/extra/widgets/spinbox/lv_spinbox.c ****     LV_LOG_INFO("begin");
 439              		.loc 1 51 1 is_stmt 1 view -0
 440              		.cfi_startproc
 441              		@ args = 0, pretend = 0, frame = 0
 442              		@ frame_needed = 0, uses_anonymous_args = 0
  51:lvgl/src/extra/widgets/spinbox/lv_spinbox.c ****     LV_LOG_INFO("begin");
 443              		.loc 1 51 1 is_stmt 0 view .LVU138
 444 0000 10B5     		push	{r4, lr}
 445              	.LCFI4:
 446              		.cfi_def_cfa_offset 8
 447              		.cfi_offset 4, -8
 448              		.cfi_offset 14, -4
 449 0002 0146     		mov	r1, r0
  52:lvgl/src/extra/widgets/spinbox/lv_spinbox.c ****     lv_obj_t * obj = lv_obj_class_create_obj(MY_CLASS, parent);
 450              		.loc 1 52 5 is_stmt 1 view .LVU139
  52:lvgl/src/extra/widgets/spinbox/lv_spinbox.c ****     lv_obj_t * obj = lv_obj_class_create_obj(MY_CLASS, parent);
 451              		.loc 1 52 5 view .LVU140
  52:lvgl/src/extra/widgets/spinbox/lv_spinbox.c ****     lv_obj_t * obj = lv_obj_class_create_obj(MY_CLASS, parent);
 452              		.loc 1 52 5 view .LVU141
  53:lvgl/src/extra/widgets/spinbox/lv_spinbox.c ****     lv_obj_class_init_obj(obj);
 453              		.loc 1 53 5 view .LVU142
  53:lvgl/src/extra/widgets/spinbox/lv_spinbox.c ****     lv_obj_class_init_obj(obj);
 454              		.loc 1 53 22 is_stmt 0 view .LVU143
 455 0004 0348     		ldr	r0, .L32
ARM GAS  /var/folders/21/t9g5rlb91ys800n5npymflf80000gn/T//ccl2N14m.s 			page 19


 456              	.LVL48:
  53:lvgl/src/extra/widgets/spinbox/lv_spinbox.c ****     lv_obj_class_init_obj(obj);
 457              		.loc 1 53 22 view .LVU144
 458 0006 FFF7FEFF 		bl	lv_obj_class_create_obj
 459              	.LVL49:
  53:lvgl/src/extra/widgets/spinbox/lv_spinbox.c ****     lv_obj_class_init_obj(obj);
 460              		.loc 1 53 22 view .LVU145
 461 000a 0446     		mov	r4, r0
 462              	.LVL50:
  54:lvgl/src/extra/widgets/spinbox/lv_spinbox.c ****     return obj;
 463              		.loc 1 54 5 is_stmt 1 view .LVU146
 464 000c FFF7FEFF 		bl	lv_obj_class_init_obj
 465              	.LVL51:
  55:lvgl/src/extra/widgets/spinbox/lv_spinbox.c **** }
 466              		.loc 1 55 5 view .LVU147
  56:lvgl/src/extra/widgets/spinbox/lv_spinbox.c **** 
 467              		.loc 1 56 1 is_stmt 0 view .LVU148
 468 0010 2046     		mov	r0, r4
 469 0012 10BD     		pop	{r4, pc}
 470              	.LVL52:
 471              	.L33:
  56:lvgl/src/extra/widgets/spinbox/lv_spinbox.c **** 
 472              		.loc 1 56 1 view .LVU149
 473              		.align	2
 474              	.L32:
 475 0014 00000000 		.word	lv_spinbox_class
 476              		.cfi_endproc
 477              	.LFE204:
 479              		.section	.text.lv_spinbox_set_value,"ax",%progbits
 480              		.align	1
 481              		.global	lv_spinbox_set_value
 482              		.syntax unified
 483              		.thumb
 484              		.thumb_func
 486              	lv_spinbox_set_value:
 487              	.LVL53:
 488              	.LFB205:
  68:lvgl/src/extra/widgets/spinbox/lv_spinbox.c ****     LV_ASSERT_OBJ(obj, MY_CLASS);
 489              		.loc 1 68 1 is_stmt 1 view -0
 490              		.cfi_startproc
 491              		@ args = 0, pretend = 0, frame = 0
 492              		@ frame_needed = 0, uses_anonymous_args = 0
  68:lvgl/src/extra/widgets/spinbox/lv_spinbox.c ****     LV_ASSERT_OBJ(obj, MY_CLASS);
 493              		.loc 1 68 1 is_stmt 0 view .LVU151
 494 0000 08B5     		push	{r3, lr}
 495              	.LCFI5:
 496              		.cfi_def_cfa_offset 8
 497              		.cfi_offset 3, -8
 498              		.cfi_offset 14, -4
  69:lvgl/src/extra/widgets/spinbox/lv_spinbox.c ****     lv_spinbox_t * spinbox = (lv_spinbox_t *)obj;
 499              		.loc 1 69 5 is_stmt 1 view .LVU152
  69:lvgl/src/extra/widgets/spinbox/lv_spinbox.c ****     lv_spinbox_t * spinbox = (lv_spinbox_t *)obj;
 500              		.loc 1 69 5 view .LVU153
  69:lvgl/src/extra/widgets/spinbox/lv_spinbox.c ****     lv_spinbox_t * spinbox = (lv_spinbox_t *)obj;
 501              		.loc 1 69 5 view .LVU154
  70:lvgl/src/extra/widgets/spinbox/lv_spinbox.c **** 
 502              		.loc 1 70 5 view .LVU155
ARM GAS  /var/folders/21/t9g5rlb91ys800n5npymflf80000gn/T//ccl2N14m.s 			page 20


 503              	.LVL54:
  72:lvgl/src/extra/widgets/spinbox/lv_spinbox.c ****     if(i < spinbox->range_min) i = spinbox->range_min;
 504              		.loc 1 72 5 view .LVU156
  72:lvgl/src/extra/widgets/spinbox/lv_spinbox.c ****     if(i < spinbox->range_min) i = spinbox->range_min;
 505              		.loc 1 72 19 is_stmt 0 view .LVU157
 506 0002 836E     		ldr	r3, [r0, #104]
  72:lvgl/src/extra/widgets/spinbox/lv_spinbox.c ****     if(i < spinbox->range_min) i = spinbox->range_min;
 507              		.loc 1 72 7 view .LVU158
 508 0004 8B42     		cmp	r3, r1
 509 0006 00DB     		blt	.L35
 510 0008 0B46     		mov	r3, r1
 511              	.L35:
 512              	.LVL55:
  73:lvgl/src/extra/widgets/spinbox/lv_spinbox.c **** 
 513              		.loc 1 73 5 is_stmt 1 view .LVU159
  73:lvgl/src/extra/widgets/spinbox/lv_spinbox.c **** 
 514              		.loc 1 73 19 is_stmt 0 view .LVU160
 515 000a C26E     		ldr	r2, [r0, #108]
  73:lvgl/src/extra/widgets/spinbox/lv_spinbox.c **** 
 516              		.loc 1 73 7 view .LVU161
 517 000c 9A42     		cmp	r2, r3
 518 000e 00DC     		bgt	.L36
 519 0010 1A46     		mov	r2, r3
 520              	.L36:
 521              	.LVL56:
  75:lvgl/src/extra/widgets/spinbox/lv_spinbox.c **** 
 522              		.loc 1 75 5 is_stmt 1 view .LVU162
  75:lvgl/src/extra/widgets/spinbox/lv_spinbox.c **** 
 523              		.loc 1 75 20 is_stmt 0 view .LVU163
 524 0012 4266     		str	r2, [r0, #100]
  77:lvgl/src/extra/widgets/spinbox/lv_spinbox.c **** }
 525              		.loc 1 77 5 is_stmt 1 view .LVU164
 526 0014 FFF7FEFF 		bl	lv_spinbox_updatevalue
 527              	.LVL57:
  78:lvgl/src/extra/widgets/spinbox/lv_spinbox.c **** 
 528              		.loc 1 78 1 is_stmt 0 view .LVU165
 529 0018 08BD     		pop	{r3, pc}
 530              		.cfi_endproc
 531              	.LFE205:
 533              		.section	.text.lv_spinbox_set_rollover,"ax",%progbits
 534              		.align	1
 535              		.global	lv_spinbox_set_rollover
 536              		.syntax unified
 537              		.thumb
 538              		.thumb_func
 540              	lv_spinbox_set_rollover:
 541              	.LVL58:
 542              	.LFB206:
  86:lvgl/src/extra/widgets/spinbox/lv_spinbox.c ****     LV_ASSERT_OBJ(obj, MY_CLASS);
 543              		.loc 1 86 1 is_stmt 1 view -0
 544              		.cfi_startproc
 545              		@ args = 0, pretend = 0, frame = 0
 546              		@ frame_needed = 0, uses_anonymous_args = 0
 547              		@ link register save eliminated.
  87:lvgl/src/extra/widgets/spinbox/lv_spinbox.c ****     lv_spinbox_t * spinbox = (lv_spinbox_t *)obj;
 548              		.loc 1 87 5 view .LVU167
  87:lvgl/src/extra/widgets/spinbox/lv_spinbox.c ****     lv_spinbox_t * spinbox = (lv_spinbox_t *)obj;
ARM GAS  /var/folders/21/t9g5rlb91ys800n5npymflf80000gn/T//ccl2N14m.s 			page 21


 549              		.loc 1 87 5 view .LVU168
  87:lvgl/src/extra/widgets/spinbox/lv_spinbox.c ****     lv_spinbox_t * spinbox = (lv_spinbox_t *)obj;
 550              		.loc 1 87 5 view .LVU169
  88:lvgl/src/extra/widgets/spinbox/lv_spinbox.c **** 
 551              		.loc 1 88 5 view .LVU170
  90:lvgl/src/extra/widgets/spinbox/lv_spinbox.c **** }
 552              		.loc 1 90 5 view .LVU171
  90:lvgl/src/extra/widgets/spinbox/lv_spinbox.c **** }
 553              		.loc 1 90 23 is_stmt 0 view .LVU172
 554 0000 90F87530 		ldrb	r3, [r0, #117]	@ zero_extendqisi2
 555 0004 61F30003 		bfi	r3, r1, #0, #1
 556              	.LVL59:
  90:lvgl/src/extra/widgets/spinbox/lv_spinbox.c **** }
 557              		.loc 1 90 23 view .LVU173
 558 0008 80F87530 		strb	r3, [r0, #117]
  91:lvgl/src/extra/widgets/spinbox/lv_spinbox.c **** 
 559              		.loc 1 91 1 view .LVU174
 560 000c 7047     		bx	lr
 561              		.cfi_endproc
 562              	.LFE206:
 564              		.section	.text.lv_spinbox_set_digit_format,"ax",%progbits
 565              		.align	1
 566              		.global	lv_spinbox_set_digit_format
 567              		.syntax unified
 568              		.thumb
 569              		.thumb_func
 571              	lv_spinbox_set_digit_format:
 572              	.LVL60:
 573              	.LFB207:
 101:lvgl/src/extra/widgets/spinbox/lv_spinbox.c ****     LV_ASSERT_OBJ(obj, MY_CLASS);
 574              		.loc 1 101 1 is_stmt 1 view -0
 575              		.cfi_startproc
 576              		@ args = 0, pretend = 0, frame = 0
 577              		@ frame_needed = 0, uses_anonymous_args = 0
 101:lvgl/src/extra/widgets/spinbox/lv_spinbox.c ****     LV_ASSERT_OBJ(obj, MY_CLASS);
 578              		.loc 1 101 1 is_stmt 0 view .LVU176
 579 0000 70B5     		push	{r4, r5, r6, lr}
 580              	.LCFI6:
 581              		.cfi_def_cfa_offset 16
 582              		.cfi_offset 4, -16
 583              		.cfi_offset 5, -12
 584              		.cfi_offset 6, -8
 585              		.cfi_offset 14, -4
 586 0002 0446     		mov	r4, r0
 587 0004 0D46     		mov	r5, r1
 588 0006 1646     		mov	r6, r2
 102:lvgl/src/extra/widgets/spinbox/lv_spinbox.c ****     lv_spinbox_t * spinbox = (lv_spinbox_t *)obj;
 589              		.loc 1 102 5 is_stmt 1 view .LVU177
 102:lvgl/src/extra/widgets/spinbox/lv_spinbox.c ****     lv_spinbox_t * spinbox = (lv_spinbox_t *)obj;
 590              		.loc 1 102 5 view .LVU178
 102:lvgl/src/extra/widgets/spinbox/lv_spinbox.c ****     lv_spinbox_t * spinbox = (lv_spinbox_t *)obj;
 591              		.loc 1 102 5 view .LVU179
 103:lvgl/src/extra/widgets/spinbox/lv_spinbox.c **** 
 592              		.loc 1 103 5 view .LVU180
 593              	.LVL61:
 105:lvgl/src/extra/widgets/spinbox/lv_spinbox.c **** 
 594              		.loc 1 105 5 view .LVU181
ARM GAS  /var/folders/21/t9g5rlb91ys800n5npymflf80000gn/T//ccl2N14m.s 			page 22


 105:lvgl/src/extra/widgets/spinbox/lv_spinbox.c **** 
 595              		.loc 1 105 7 is_stmt 0 view .LVU182
 596 0008 0A29     		cmp	r1, #10
 597 000a 00D9     		bls	.L40
 105:lvgl/src/extra/widgets/spinbox/lv_spinbox.c **** 
 598              		.loc 1 105 62 view .LVU183
 599 000c 0A25     		movs	r5, #10
 600              	.L40:
 601              	.LVL62:
 107:lvgl/src/extra/widgets/spinbox/lv_spinbox.c **** 
 602              		.loc 1 107 5 is_stmt 1 view .LVU184
 107:lvgl/src/extra/widgets/spinbox/lv_spinbox.c **** 
 603              		.loc 1 107 7 is_stmt 0 view .LVU185
 604 000e B542     		cmp	r5, r6
 605 0010 00D8     		bhi	.L41
 107:lvgl/src/extra/widgets/spinbox/lv_spinbox.c **** 
 606              		.loc 1 107 62 view .LVU186
 607 0012 0026     		movs	r6, #0
 608              	.L41:
 609              	.LVL63:
 109:lvgl/src/extra/widgets/spinbox/lv_spinbox.c ****         int64_t max_val = lv_pow(10, digit_count);
 610              		.loc 1 109 5 is_stmt 1 view .LVU187
 109:lvgl/src/extra/widgets/spinbox/lv_spinbox.c ****         int64_t max_val = lv_pow(10, digit_count);
 611              		.loc 1 109 7 is_stmt 0 view .LVU188
 612 0014 092D     		cmp	r5, #9
 613 0016 0ED9     		bls	.L47
 614              	.LVL64:
 615              	.L42:
 115:lvgl/src/extra/widgets/spinbox/lv_spinbox.c ****     spinbox->dec_point_pos = separator_position;
 616              		.loc 1 115 5 is_stmt 1 view .LVU189
 115:lvgl/src/extra/widgets/spinbox/lv_spinbox.c ****     spinbox->dec_point_pos = separator_position;
 617              		.loc 1 115 28 is_stmt 0 view .LVU190
 618 0018 94F87430 		ldrb	r3, [r4, #116]	@ zero_extendqisi2
 619 001c 65F30303 		bfi	r3, r5, #0, #4
 620 0020 84F87430 		strb	r3, [r4, #116]
 116:lvgl/src/extra/widgets/spinbox/lv_spinbox.c **** 
 621              		.loc 1 116 5 is_stmt 1 view .LVU191
 116:lvgl/src/extra/widgets/spinbox/lv_spinbox.c **** 
 622              		.loc 1 116 28 is_stmt 0 view .LVU192
 623 0024 DBB2     		uxtb	r3, r3
 624 0026 66F30713 		bfi	r3, r6, #4, #4
 625 002a 84F87430 		strb	r3, [r4, #116]
 118:lvgl/src/extra/widgets/spinbox/lv_spinbox.c **** }
 626              		.loc 1 118 5 is_stmt 1 view .LVU193
 627 002e 2046     		mov	r0, r4
 628 0030 FFF7FEFF 		bl	lv_spinbox_updatevalue
 629              	.LVL65:
 119:lvgl/src/extra/widgets/spinbox/lv_spinbox.c **** 
 630              		.loc 1 119 1 is_stmt 0 view .LVU194
 631 0034 70BD     		pop	{r4, r5, r6, pc}
 632              	.LVL66:
 633              	.L47:
 634              	.LBB2:
 110:lvgl/src/extra/widgets/spinbox/lv_spinbox.c ****         if(spinbox->range_max > max_val - 1) spinbox->range_max = max_val - 1;
 635              		.loc 1 110 9 is_stmt 1 view .LVU195
 110:lvgl/src/extra/widgets/spinbox/lv_spinbox.c ****         if(spinbox->range_max > max_val - 1) spinbox->range_max = max_val - 1;
 636              		.loc 1 110 27 is_stmt 0 view .LVU196
ARM GAS  /var/folders/21/t9g5rlb91ys800n5npymflf80000gn/T//ccl2N14m.s 			page 23


 637 0036 6AB2     		sxtb	r2, r5
 638 0038 0A20     		movs	r0, #10
 639              	.LVL67:
 110:lvgl/src/extra/widgets/spinbox/lv_spinbox.c ****         if(spinbox->range_max > max_val - 1) spinbox->range_max = max_val - 1;
 640              		.loc 1 110 27 view .LVU197
 641 003a 0021     		movs	r1, #0
 642 003c FFF7FEFF 		bl	lv_pow
 643              	.LVL68:
 111:lvgl/src/extra/widgets/spinbox/lv_spinbox.c ****         if(spinbox->range_min < - max_val  + 1) spinbox->range_min = - max_val  + 1;
 644              		.loc 1 111 9 is_stmt 1 view .LVU198
 111:lvgl/src/extra/widgets/spinbox/lv_spinbox.c ****         if(spinbox->range_min < - max_val  + 1) spinbox->range_min = - max_val  + 1;
 645              		.loc 1 111 19 is_stmt 0 view .LVU199
 646 0040 A26E     		ldr	r2, [r4, #104]
 647 0042 D317     		asrs	r3, r2, #31
 111:lvgl/src/extra/widgets/spinbox/lv_spinbox.c ****         if(spinbox->range_min < - max_val  + 1) spinbox->range_min = - max_val  + 1;
 648              		.loc 1 111 11 view .LVU200
 649 0044 8242     		cmp	r2, r0
 650 0046 8B41     		sbcs	r3, r3, r1
 651 0048 01DB     		blt	.L43
 111:lvgl/src/extra/widgets/spinbox/lv_spinbox.c ****         if(spinbox->range_min < - max_val  + 1) spinbox->range_min = - max_val  + 1;
 652              		.loc 1 111 46 is_stmt 1 discriminator 1 view .LVU201
 111:lvgl/src/extra/widgets/spinbox/lv_spinbox.c ****         if(spinbox->range_min < - max_val  + 1) spinbox->range_min = - max_val  + 1;
 653              		.loc 1 111 75 is_stmt 0 discriminator 1 view .LVU202
 654 004a 431E     		subs	r3, r0, #1
 111:lvgl/src/extra/widgets/spinbox/lv_spinbox.c ****         if(spinbox->range_min < - max_val  + 1) spinbox->range_min = - max_val  + 1;
 655              		.loc 1 111 65 discriminator 1 view .LVU203
 656 004c A366     		str	r3, [r4, #104]
 657              	.L43:
 112:lvgl/src/extra/widgets/spinbox/lv_spinbox.c ****     }
 658              		.loc 1 112 9 is_stmt 1 view .LVU204
 112:lvgl/src/extra/widgets/spinbox/lv_spinbox.c ****     }
 659              		.loc 1 112 19 is_stmt 0 view .LVU205
 660 004e E26E     		ldr	r2, [r4, #108]
 661 0050 D317     		asrs	r3, r2, #31
 112:lvgl/src/extra/widgets/spinbox/lv_spinbox.c ****     }
 662              		.loc 1 112 44 view .LVU206
 663 0052 D0F1010C 		rsbs	ip, r0, #1
 664 0056 61EB4101 		sbc	r1, r1, r1, lsl #1
 665              	.LVL69:
 112:lvgl/src/extra/widgets/spinbox/lv_spinbox.c ****     }
 666              		.loc 1 112 11 view .LVU207
 667 005a 6245     		cmp	r2, ip
 668 005c 8B41     		sbcs	r3, r3, r1
 669 005e DBDA     		bge	.L42
 112:lvgl/src/extra/widgets/spinbox/lv_spinbox.c ****     }
 670              		.loc 1 112 49 is_stmt 1 discriminator 1 view .LVU208
 112:lvgl/src/extra/widgets/spinbox/lv_spinbox.c ****     }
 671              		.loc 1 112 68 is_stmt 0 discriminator 1 view .LVU209
 672 0060 C4F86CC0 		str	ip, [r4, #108]
 673 0064 D8E7     		b	.L42
 674              	.LBE2:
 675              		.cfi_endproc
 676              	.LFE207:
 678              		.section	.text.lv_spinbox_set_step,"ax",%progbits
 679              		.align	1
 680              		.global	lv_spinbox_set_step
 681              		.syntax unified
ARM GAS  /var/folders/21/t9g5rlb91ys800n5npymflf80000gn/T//ccl2N14m.s 			page 24


 682              		.thumb
 683              		.thumb_func
 685              	lv_spinbox_set_step:
 686              	.LVL70:
 687              	.LFB208:
 127:lvgl/src/extra/widgets/spinbox/lv_spinbox.c ****     LV_ASSERT_OBJ(obj, MY_CLASS);
 688              		.loc 1 127 1 is_stmt 1 view -0
 689              		.cfi_startproc
 690              		@ args = 0, pretend = 0, frame = 0
 691              		@ frame_needed = 0, uses_anonymous_args = 0
 127:lvgl/src/extra/widgets/spinbox/lv_spinbox.c ****     LV_ASSERT_OBJ(obj, MY_CLASS);
 692              		.loc 1 127 1 is_stmt 0 view .LVU211
 693 0000 08B5     		push	{r3, lr}
 694              	.LCFI7:
 695              		.cfi_def_cfa_offset 8
 696              		.cfi_offset 3, -8
 697              		.cfi_offset 14, -4
 128:lvgl/src/extra/widgets/spinbox/lv_spinbox.c ****     lv_spinbox_t * spinbox = (lv_spinbox_t *)obj;
 698              		.loc 1 128 5 is_stmt 1 view .LVU212
 128:lvgl/src/extra/widgets/spinbox/lv_spinbox.c ****     lv_spinbox_t * spinbox = (lv_spinbox_t *)obj;
 699              		.loc 1 128 5 view .LVU213
 128:lvgl/src/extra/widgets/spinbox/lv_spinbox.c ****     lv_spinbox_t * spinbox = (lv_spinbox_t *)obj;
 700              		.loc 1 128 5 view .LVU214
 129:lvgl/src/extra/widgets/spinbox/lv_spinbox.c **** 
 701              		.loc 1 129 5 view .LVU215
 702              	.LVL71:
 131:lvgl/src/extra/widgets/spinbox/lv_spinbox.c ****     lv_spinbox_updatevalue(obj);
 703              		.loc 1 131 5 view .LVU216
 131:lvgl/src/extra/widgets/spinbox/lv_spinbox.c ****     lv_spinbox_updatevalue(obj);
 704              		.loc 1 131 19 is_stmt 0 view .LVU217
 705 0002 0167     		str	r1, [r0, #112]
 132:lvgl/src/extra/widgets/spinbox/lv_spinbox.c **** }
 706              		.loc 1 132 5 is_stmt 1 view .LVU218
 707 0004 FFF7FEFF 		bl	lv_spinbox_updatevalue
 708              	.LVL72:
 133:lvgl/src/extra/widgets/spinbox/lv_spinbox.c **** 
 709              		.loc 1 133 1 is_stmt 0 view .LVU219
 710 0008 08BD     		pop	{r3, pc}
 711              		.cfi_endproc
 712              	.LFE208:
 714              		.section	.text.lv_spinbox_set_range,"ax",%progbits
 715              		.align	1
 716              		.global	lv_spinbox_set_range
 717              		.syntax unified
 718              		.thumb
 719              		.thumb_func
 721              	lv_spinbox_set_range:
 722              	.LVL73:
 723              	.LFB209:
 142:lvgl/src/extra/widgets/spinbox/lv_spinbox.c ****     LV_ASSERT_OBJ(obj, MY_CLASS);
 724              		.loc 1 142 1 is_stmt 1 view -0
 725              		.cfi_startproc
 726              		@ args = 0, pretend = 0, frame = 0
 727              		@ frame_needed = 0, uses_anonymous_args = 0
 142:lvgl/src/extra/widgets/spinbox/lv_spinbox.c ****     LV_ASSERT_OBJ(obj, MY_CLASS);
 728              		.loc 1 142 1 is_stmt 0 view .LVU221
 729 0000 08B5     		push	{r3, lr}
ARM GAS  /var/folders/21/t9g5rlb91ys800n5npymflf80000gn/T//ccl2N14m.s 			page 25


 730              	.LCFI8:
 731              		.cfi_def_cfa_offset 8
 732              		.cfi_offset 3, -8
 733              		.cfi_offset 14, -4
 143:lvgl/src/extra/widgets/spinbox/lv_spinbox.c ****     lv_spinbox_t * spinbox = (lv_spinbox_t *)obj;
 734              		.loc 1 143 5 is_stmt 1 view .LVU222
 143:lvgl/src/extra/widgets/spinbox/lv_spinbox.c ****     lv_spinbox_t * spinbox = (lv_spinbox_t *)obj;
 735              		.loc 1 143 5 view .LVU223
 143:lvgl/src/extra/widgets/spinbox/lv_spinbox.c ****     lv_spinbox_t * spinbox = (lv_spinbox_t *)obj;
 736              		.loc 1 143 5 view .LVU224
 144:lvgl/src/extra/widgets/spinbox/lv_spinbox.c **** 
 737              		.loc 1 144 5 view .LVU225
 738              	.LVL74:
 146:lvgl/src/extra/widgets/spinbox/lv_spinbox.c ****     spinbox->range_min = range_min;
 739              		.loc 1 146 5 view .LVU226
 146:lvgl/src/extra/widgets/spinbox/lv_spinbox.c ****     spinbox->range_min = range_min;
 740              		.loc 1 146 24 is_stmt 0 view .LVU227
 741 0002 8266     		str	r2, [r0, #104]
 147:lvgl/src/extra/widgets/spinbox/lv_spinbox.c **** 
 742              		.loc 1 147 5 is_stmt 1 view .LVU228
 147:lvgl/src/extra/widgets/spinbox/lv_spinbox.c **** 
 743              		.loc 1 147 24 is_stmt 0 view .LVU229
 744 0004 C166     		str	r1, [r0, #108]
 149:lvgl/src/extra/widgets/spinbox/lv_spinbox.c ****     if(spinbox->value < spinbox->range_min) spinbox->value = spinbox->range_min;
 745              		.loc 1 149 5 is_stmt 1 view .LVU230
 149:lvgl/src/extra/widgets/spinbox/lv_spinbox.c ****     if(spinbox->value < spinbox->range_min) spinbox->value = spinbox->range_min;
 746              		.loc 1 149 15 is_stmt 0 view .LVU231
 747 0006 436E     		ldr	r3, [r0, #100]
 149:lvgl/src/extra/widgets/spinbox/lv_spinbox.c ****     if(spinbox->value < spinbox->range_min) spinbox->value = spinbox->range_min;
 748              		.loc 1 149 7 view .LVU232
 749 0008 9342     		cmp	r3, r2
 750 000a 00DD     		ble	.L51
 149:lvgl/src/extra/widgets/spinbox/lv_spinbox.c ****     if(spinbox->value < spinbox->range_min) spinbox->value = spinbox->range_min;
 751              		.loc 1 149 45 is_stmt 1 discriminator 1 view .LVU233
 149:lvgl/src/extra/widgets/spinbox/lv_spinbox.c ****     if(spinbox->value < spinbox->range_min) spinbox->value = spinbox->range_min;
 752              		.loc 1 149 60 is_stmt 0 discriminator 1 view .LVU234
 753 000c 4266     		str	r2, [r0, #100]
 754              	.L51:
 150:lvgl/src/extra/widgets/spinbox/lv_spinbox.c **** 
 755              		.loc 1 150 5 is_stmt 1 view .LVU235
 150:lvgl/src/extra/widgets/spinbox/lv_spinbox.c **** 
 756              		.loc 1 150 15 is_stmt 0 view .LVU236
 757 000e 436E     		ldr	r3, [r0, #100]
 150:lvgl/src/extra/widgets/spinbox/lv_spinbox.c **** 
 758              		.loc 1 150 7 view .LVU237
 759 0010 8B42     		cmp	r3, r1
 760 0012 00DA     		bge	.L52
 150:lvgl/src/extra/widgets/spinbox/lv_spinbox.c **** 
 761              		.loc 1 150 45 is_stmt 1 discriminator 1 view .LVU238
 150:lvgl/src/extra/widgets/spinbox/lv_spinbox.c **** 
 762              		.loc 1 150 60 is_stmt 0 discriminator 1 view .LVU239
 763 0014 4166     		str	r1, [r0, #100]
 764              	.L52:
 152:lvgl/src/extra/widgets/spinbox/lv_spinbox.c **** }
 765              		.loc 1 152 5 is_stmt 1 view .LVU240
 766 0016 FFF7FEFF 		bl	lv_spinbox_updatevalue
 767              	.LVL75:
ARM GAS  /var/folders/21/t9g5rlb91ys800n5npymflf80000gn/T//ccl2N14m.s 			page 26


 153:lvgl/src/extra/widgets/spinbox/lv_spinbox.c **** 
 768              		.loc 1 153 1 is_stmt 0 view .LVU241
 769 001a 08BD     		pop	{r3, pc}
 770              		.cfi_endproc
 771              	.LFE209:
 773              		.section	.text.lv_spinbox_set_cursor_pos,"ax",%progbits
 774              		.align	1
 775              		.global	lv_spinbox_set_cursor_pos
 776              		.syntax unified
 777              		.thumb
 778              		.thumb_func
 780              	lv_spinbox_set_cursor_pos:
 781              	.LVL76:
 782              	.LFB210:
 161:lvgl/src/extra/widgets/spinbox/lv_spinbox.c ****     LV_ASSERT_OBJ(obj, MY_CLASS);
 783              		.loc 1 161 1 is_stmt 1 view -0
 784              		.cfi_startproc
 785              		@ args = 0, pretend = 0, frame = 0
 786              		@ frame_needed = 0, uses_anonymous_args = 0
 161:lvgl/src/extra/widgets/spinbox/lv_spinbox.c ****     LV_ASSERT_OBJ(obj, MY_CLASS);
 787              		.loc 1 161 1 is_stmt 0 view .LVU243
 788 0000 F8B5     		push	{r3, r4, r5, r6, r7, lr}
 789              	.LCFI9:
 790              		.cfi_def_cfa_offset 24
 791              		.cfi_offset 3, -24
 792              		.cfi_offset 4, -20
 793              		.cfi_offset 5, -16
 794              		.cfi_offset 6, -12
 795              		.cfi_offset 7, -8
 796              		.cfi_offset 14, -4
 797 0002 0446     		mov	r4, r0
 798 0004 0E46     		mov	r6, r1
 162:lvgl/src/extra/widgets/spinbox/lv_spinbox.c ****     lv_spinbox_t * spinbox = (lv_spinbox_t *)obj;
 799              		.loc 1 162 5 is_stmt 1 view .LVU244
 162:lvgl/src/extra/widgets/spinbox/lv_spinbox.c ****     lv_spinbox_t * spinbox = (lv_spinbox_t *)obj;
 800              		.loc 1 162 5 view .LVU245
 162:lvgl/src/extra/widgets/spinbox/lv_spinbox.c ****     lv_spinbox_t * spinbox = (lv_spinbox_t *)obj;
 801              		.loc 1 162 5 view .LVU246
 163:lvgl/src/extra/widgets/spinbox/lv_spinbox.c ****     int32_t step_limit;
 802              		.loc 1 163 5 view .LVU247
 803              	.LVL77:
 164:lvgl/src/extra/widgets/spinbox/lv_spinbox.c ****     step_limit       = LV_MAX(spinbox->range_max, (spinbox->range_min < 0 ? (-spinbox->range_min) :
 804              		.loc 1 164 5 view .LVU248
 165:lvgl/src/extra/widgets/spinbox/lv_spinbox.c ****     int32_t new_step = spinbox->step * lv_pow(10, pos);
 805              		.loc 1 165 5 view .LVU249
 165:lvgl/src/extra/widgets/spinbox/lv_spinbox.c ****     int32_t new_step = spinbox->step * lv_pow(10, pos);
 806              		.loc 1 165 24 is_stmt 0 view .LVU250
 807 0006 C36E     		ldr	r3, [r0, #108]
 808 0008 002B     		cmp	r3, #0
 809 000a B8BF     		it	lt
 810 000c 5B42     		rsblt	r3, r3, #0
 811 000e 826E     		ldr	r2, [r0, #104]
 165:lvgl/src/extra/widgets/spinbox/lv_spinbox.c ****     int32_t new_step = spinbox->step * lv_pow(10, pos);
 812              		.loc 1 165 22 view .LVU251
 813 0010 9342     		cmp	r3, r2
 814 0012 B8BF     		it	lt
 815 0014 1346     		movlt	r3, r2
ARM GAS  /var/folders/21/t9g5rlb91ys800n5npymflf80000gn/T//ccl2N14m.s 			page 27


 816 0016 1D46     		mov	r5, r3
 817              	.LVL78:
 166:lvgl/src/extra/widgets/spinbox/lv_spinbox.c ****     if(pos <= 0) spinbox->step = 1;
 818              		.loc 1 166 5 is_stmt 1 view .LVU252
 166:lvgl/src/extra/widgets/spinbox/lv_spinbox.c ****     if(pos <= 0) spinbox->step = 1;
 819              		.loc 1 166 31 is_stmt 0 view .LVU253
 820 0018 076F     		ldr	r7, [r0, #112]
 166:lvgl/src/extra/widgets/spinbox/lv_spinbox.c ****     if(pos <= 0) spinbox->step = 1;
 821              		.loc 1 166 40 view .LVU254
 822 001a 4AB2     		sxtb	r2, r1
 823 001c 0A20     		movs	r0, #10
 824              	.LVL79:
 166:lvgl/src/extra/widgets/spinbox/lv_spinbox.c ****     if(pos <= 0) spinbox->step = 1;
 825              		.loc 1 166 40 view .LVU255
 826 001e 0021     		movs	r1, #0
 827              	.LVL80:
 166:lvgl/src/extra/widgets/spinbox/lv_spinbox.c ****     if(pos <= 0) spinbox->step = 1;
 828              		.loc 1 166 40 view .LVU256
 829 0020 FFF7FEFF 		bl	lv_pow
 830              	.LVL81:
 166:lvgl/src/extra/widgets/spinbox/lv_spinbox.c ****     if(pos <= 0) spinbox->step = 1;
 831              		.loc 1 166 13 view .LVU257
 832 0024 00FB07F7 		mul	r7, r0, r7
 833              	.LVL82:
 167:lvgl/src/extra/widgets/spinbox/lv_spinbox.c ****     else if(new_step <= step_limit) spinbox->step = new_step;
 834              		.loc 1 167 5 is_stmt 1 view .LVU258
 167:lvgl/src/extra/widgets/spinbox/lv_spinbox.c ****     else if(new_step <= step_limit) spinbox->step = new_step;
 835              		.loc 1 167 7 is_stmt 0 view .LVU259
 836 0028 2EB9     		cbnz	r6, .L55
 167:lvgl/src/extra/widgets/spinbox/lv_spinbox.c ****     else if(new_step <= step_limit) spinbox->step = new_step;
 837              		.loc 1 167 18 is_stmt 1 discriminator 1 view .LVU260
 167:lvgl/src/extra/widgets/spinbox/lv_spinbox.c ****     else if(new_step <= step_limit) spinbox->step = new_step;
 838              		.loc 1 167 32 is_stmt 0 discriminator 1 view .LVU261
 839 002a 0123     		movs	r3, #1
 840 002c 2367     		str	r3, [r4, #112]
 841              	.L56:
 170:lvgl/src/extra/widgets/spinbox/lv_spinbox.c **** }
 842              		.loc 1 170 5 is_stmt 1 view .LVU262
 843 002e 2046     		mov	r0, r4
 844 0030 FFF7FEFF 		bl	lv_spinbox_updatevalue
 845              	.LVL83:
 171:lvgl/src/extra/widgets/spinbox/lv_spinbox.c **** 
 846              		.loc 1 171 1 is_stmt 0 view .LVU263
 847 0034 F8BD     		pop	{r3, r4, r5, r6, r7, pc}
 848              	.LVL84:
 849              	.L55:
 168:lvgl/src/extra/widgets/spinbox/lv_spinbox.c **** 
 850              		.loc 1 168 10 is_stmt 1 view .LVU264
 168:lvgl/src/extra/widgets/spinbox/lv_spinbox.c **** 
 851              		.loc 1 168 12 is_stmt 0 view .LVU265
 852 0036 BD42     		cmp	r5, r7
 853 0038 F9DB     		blt	.L56
 168:lvgl/src/extra/widgets/spinbox/lv_spinbox.c **** 
 854              		.loc 1 168 37 is_stmt 1 discriminator 1 view .LVU266
 168:lvgl/src/extra/widgets/spinbox/lv_spinbox.c **** 
 855              		.loc 1 168 51 is_stmt 0 discriminator 1 view .LVU267
 856 003a 2767     		str	r7, [r4, #112]
ARM GAS  /var/folders/21/t9g5rlb91ys800n5npymflf80000gn/T//ccl2N14m.s 			page 28


 857 003c F7E7     		b	.L56
 858              		.cfi_endproc
 859              	.LFE210:
 861              		.section	.text.lv_spinbox_set_digit_step_direction,"ax",%progbits
 862              		.align	1
 863              		.global	lv_spinbox_set_digit_step_direction
 864              		.syntax unified
 865              		.thumb
 866              		.thumb_func
 868              	lv_spinbox_set_digit_step_direction:
 869              	.LVL85:
 870              	.LFB211:
 179:lvgl/src/extra/widgets/spinbox/lv_spinbox.c ****     LV_ASSERT_OBJ(obj, MY_CLASS);
 871              		.loc 1 179 1 is_stmt 1 view -0
 872              		.cfi_startproc
 873              		@ args = 0, pretend = 0, frame = 0
 874              		@ frame_needed = 0, uses_anonymous_args = 0
 179:lvgl/src/extra/widgets/spinbox/lv_spinbox.c ****     LV_ASSERT_OBJ(obj, MY_CLASS);
 875              		.loc 1 179 1 is_stmt 0 view .LVU269
 876 0000 08B5     		push	{r3, lr}
 877              	.LCFI10:
 878              		.cfi_def_cfa_offset 8
 879              		.cfi_offset 3, -8
 880              		.cfi_offset 14, -4
 180:lvgl/src/extra/widgets/spinbox/lv_spinbox.c ****     lv_spinbox_t * spinbox = (lv_spinbox_t *)obj;
 881              		.loc 1 180 5 is_stmt 1 view .LVU270
 180:lvgl/src/extra/widgets/spinbox/lv_spinbox.c ****     lv_spinbox_t * spinbox = (lv_spinbox_t *)obj;
 882              		.loc 1 180 5 view .LVU271
 180:lvgl/src/extra/widgets/spinbox/lv_spinbox.c ****     lv_spinbox_t * spinbox = (lv_spinbox_t *)obj;
 883              		.loc 1 180 5 view .LVU272
 181:lvgl/src/extra/widgets/spinbox/lv_spinbox.c ****     spinbox->digit_step_dir = direction;
 884              		.loc 1 181 5 view .LVU273
 885              	.LVL86:
 182:lvgl/src/extra/widgets/spinbox/lv_spinbox.c **** 
 886              		.loc 1 182 5 view .LVU274
 182:lvgl/src/extra/widgets/spinbox/lv_spinbox.c **** 
 887              		.loc 1 182 29 is_stmt 0 view .LVU275
 888 0002 90F87520 		ldrb	r2, [r0, #117]	@ zero_extendqisi2
 889 0006 61F34202 		bfi	r2, r1, #1, #2
 890              	.LVL87:
 182:lvgl/src/extra/widgets/spinbox/lv_spinbox.c **** 
 891              		.loc 1 182 29 view .LVU276
 892 000a 80F87520 		strb	r2, [r0, #117]
 184:lvgl/src/extra/widgets/spinbox/lv_spinbox.c **** }
 893              		.loc 1 184 5 is_stmt 1 view .LVU277
 894 000e FFF7FEFF 		bl	lv_spinbox_updatevalue
 895              	.LVL88:
 185:lvgl/src/extra/widgets/spinbox/lv_spinbox.c **** /*=====================
 896              		.loc 1 185 1 is_stmt 0 view .LVU278
 897 0012 08BD     		pop	{r3, pc}
 898              		.cfi_endproc
 899              	.LFE211:
 901              		.section	.text.lv_spinbox_get_value,"ax",%progbits
 902              		.align	1
 903              		.global	lv_spinbox_get_value
 904              		.syntax unified
 905              		.thumb
ARM GAS  /var/folders/21/t9g5rlb91ys800n5npymflf80000gn/T//ccl2N14m.s 			page 29


 906              		.thumb_func
 908              	lv_spinbox_get_value:
 909              	.LVL89:
 910              	.LFB212:
 196:lvgl/src/extra/widgets/spinbox/lv_spinbox.c ****     LV_ASSERT_OBJ(obj, MY_CLASS);
 911              		.loc 1 196 1 is_stmt 1 view -0
 912              		.cfi_startproc
 913              		@ args = 0, pretend = 0, frame = 0
 914              		@ frame_needed = 0, uses_anonymous_args = 0
 915              		@ link register save eliminated.
 197:lvgl/src/extra/widgets/spinbox/lv_spinbox.c ****     lv_spinbox_t * spinbox = (lv_spinbox_t *)obj;
 916              		.loc 1 197 5 view .LVU280
 197:lvgl/src/extra/widgets/spinbox/lv_spinbox.c ****     lv_spinbox_t * spinbox = (lv_spinbox_t *)obj;
 917              		.loc 1 197 5 view .LVU281
 197:lvgl/src/extra/widgets/spinbox/lv_spinbox.c ****     lv_spinbox_t * spinbox = (lv_spinbox_t *)obj;
 918              		.loc 1 197 5 view .LVU282
 198:lvgl/src/extra/widgets/spinbox/lv_spinbox.c **** 
 919              		.loc 1 198 5 view .LVU283
 200:lvgl/src/extra/widgets/spinbox/lv_spinbox.c **** }
 920              		.loc 1 200 5 view .LVU284
 201:lvgl/src/extra/widgets/spinbox/lv_spinbox.c **** /**
 921              		.loc 1 201 1 is_stmt 0 view .LVU285
 922 0000 406E     		ldr	r0, [r0, #100]
 923              	.LVL90:
 201:lvgl/src/extra/widgets/spinbox/lv_spinbox.c **** /**
 924              		.loc 1 201 1 view .LVU286
 925 0002 7047     		bx	lr
 926              		.cfi_endproc
 927              	.LFE212:
 929              		.section	.text.lv_spinbox_get_step,"ax",%progbits
 930              		.align	1
 931              		.global	lv_spinbox_get_step
 932              		.syntax unified
 933              		.thumb
 934              		.thumb_func
 936              	lv_spinbox_get_step:
 937              	.LVL91:
 938              	.LFB213:
 208:lvgl/src/extra/widgets/spinbox/lv_spinbox.c ****     LV_ASSERT_OBJ(obj, MY_CLASS);
 939              		.loc 1 208 1 is_stmt 1 view -0
 940              		.cfi_startproc
 941              		@ args = 0, pretend = 0, frame = 0
 942              		@ frame_needed = 0, uses_anonymous_args = 0
 943              		@ link register save eliminated.
 209:lvgl/src/extra/widgets/spinbox/lv_spinbox.c ****     lv_spinbox_t * spinbox = (lv_spinbox_t *)obj;
 944              		.loc 1 209 5 view .LVU288
 209:lvgl/src/extra/widgets/spinbox/lv_spinbox.c ****     lv_spinbox_t * spinbox = (lv_spinbox_t *)obj;
 945              		.loc 1 209 5 view .LVU289
 209:lvgl/src/extra/widgets/spinbox/lv_spinbox.c ****     lv_spinbox_t * spinbox = (lv_spinbox_t *)obj;
 946              		.loc 1 209 5 view .LVU290
 210:lvgl/src/extra/widgets/spinbox/lv_spinbox.c **** 
 947              		.loc 1 210 5 view .LVU291
 212:lvgl/src/extra/widgets/spinbox/lv_spinbox.c **** }
 948              		.loc 1 212 5 view .LVU292
 213:lvgl/src/extra/widgets/spinbox/lv_spinbox.c **** 
 949              		.loc 1 213 1 is_stmt 0 view .LVU293
 950 0000 006F     		ldr	r0, [r0, #112]
ARM GAS  /var/folders/21/t9g5rlb91ys800n5npymflf80000gn/T//ccl2N14m.s 			page 30


 951              	.LVL92:
 213:lvgl/src/extra/widgets/spinbox/lv_spinbox.c **** 
 952              		.loc 1 213 1 view .LVU294
 953 0002 7047     		bx	lr
 954              		.cfi_endproc
 955              	.LFE213:
 957              		.section	.text.lv_spinbox_step_next,"ax",%progbits
 958              		.align	1
 959              		.global	lv_spinbox_step_next
 960              		.syntax unified
 961              		.thumb
 962              		.thumb_func
 964              	lv_spinbox_step_next:
 965              	.LVL93:
 966              	.LFB214:
 224:lvgl/src/extra/widgets/spinbox/lv_spinbox.c ****     LV_ASSERT_OBJ(obj, MY_CLASS);
 967              		.loc 1 224 1 is_stmt 1 view -0
 968              		.cfi_startproc
 969              		@ args = 0, pretend = 0, frame = 0
 970              		@ frame_needed = 0, uses_anonymous_args = 0
 224:lvgl/src/extra/widgets/spinbox/lv_spinbox.c ****     LV_ASSERT_OBJ(obj, MY_CLASS);
 971              		.loc 1 224 1 is_stmt 0 view .LVU296
 972 0000 08B5     		push	{r3, lr}
 973              	.LCFI11:
 974              		.cfi_def_cfa_offset 8
 975              		.cfi_offset 3, -8
 976              		.cfi_offset 14, -4
 225:lvgl/src/extra/widgets/spinbox/lv_spinbox.c ****     lv_spinbox_t * spinbox = (lv_spinbox_t *)obj;
 977              		.loc 1 225 5 is_stmt 1 view .LVU297
 225:lvgl/src/extra/widgets/spinbox/lv_spinbox.c ****     lv_spinbox_t * spinbox = (lv_spinbox_t *)obj;
 978              		.loc 1 225 5 view .LVU298
 225:lvgl/src/extra/widgets/spinbox/lv_spinbox.c ****     lv_spinbox_t * spinbox = (lv_spinbox_t *)obj;
 979              		.loc 1 225 5 view .LVU299
 226:lvgl/src/extra/widgets/spinbox/lv_spinbox.c **** 
 980              		.loc 1 226 5 view .LVU300
 981              	.LVL94:
 228:lvgl/src/extra/widgets/spinbox/lv_spinbox.c ****     if((new_step) > 0)
 982              		.loc 1 228 5 view .LVU301
 228:lvgl/src/extra/widgets/spinbox/lv_spinbox.c ****     if((new_step) > 0)
 983              		.loc 1 228 31 is_stmt 0 view .LVU302
 984 0002 036F     		ldr	r3, [r0, #112]
 228:lvgl/src/extra/widgets/spinbox/lv_spinbox.c ****     if((new_step) > 0)
 985              		.loc 1 228 13 view .LVU303
 986 0004 074A     		ldr	r2, .L66
 987 0006 82FB0312 		smull	r1, r2, r2, r3
 988 000a D917     		asrs	r1, r3, #31
 989 000c C1EBA201 		rsb	r1, r1, r2, asr #2
 990              	.LVL95:
 229:lvgl/src/extra/widgets/spinbox/lv_spinbox.c ****         spinbox->step = new_step;
 991              		.loc 1 229 5 is_stmt 1 view .LVU304
 229:lvgl/src/extra/widgets/spinbox/lv_spinbox.c ****         spinbox->step = new_step;
 992              		.loc 1 229 7 is_stmt 0 view .LVU305
 993 0010 092B     		cmp	r3, #9
 994 0012 03DD     		ble	.L63
 230:lvgl/src/extra/widgets/spinbox/lv_spinbox.c ****     else
 995              		.loc 1 230 9 is_stmt 1 view .LVU306
 230:lvgl/src/extra/widgets/spinbox/lv_spinbox.c ****     else
ARM GAS  /var/folders/21/t9g5rlb91ys800n5npymflf80000gn/T//ccl2N14m.s 			page 31


 996              		.loc 1 230 23 is_stmt 0 view .LVU307
 997 0014 0167     		str	r1, [r0, #112]
 998              	.L64:
 234:lvgl/src/extra/widgets/spinbox/lv_spinbox.c **** }
 999              		.loc 1 234 5 is_stmt 1 view .LVU308
 1000 0016 FFF7FEFF 		bl	lv_spinbox_updatevalue
 1001              	.LVL96:
 235:lvgl/src/extra/widgets/spinbox/lv_spinbox.c **** 
 1002              		.loc 1 235 1 is_stmt 0 view .LVU309
 1003 001a 08BD     		pop	{r3, pc}
 1004              	.LVL97:
 1005              	.L63:
 232:lvgl/src/extra/widgets/spinbox/lv_spinbox.c **** 
 1006              		.loc 1 232 9 is_stmt 1 view .LVU310
 232:lvgl/src/extra/widgets/spinbox/lv_spinbox.c **** 
 1007              		.loc 1 232 23 is_stmt 0 view .LVU311
 1008 001c 0123     		movs	r3, #1
 1009 001e 0367     		str	r3, [r0, #112]
 1010 0020 F9E7     		b	.L64
 1011              	.L67:
 1012 0022 00BF     		.align	2
 1013              	.L66:
 1014 0024 67666666 		.word	1717986919
 1015              		.cfi_endproc
 1016              	.LFE214:
 1018              		.section	.text.lv_spinbox_step_prev,"ax",%progbits
 1019              		.align	1
 1020              		.global	lv_spinbox_step_prev
 1021              		.syntax unified
 1022              		.thumb
 1023              		.thumb_func
 1025              	lv_spinbox_step_prev:
 1026              	.LVL98:
 1027              	.LFB215:
 242:lvgl/src/extra/widgets/spinbox/lv_spinbox.c ****     LV_ASSERT_OBJ(obj, MY_CLASS);
 1028              		.loc 1 242 1 is_stmt 1 view -0
 1029              		.cfi_startproc
 1030              		@ args = 0, pretend = 0, frame = 0
 1031              		@ frame_needed = 0, uses_anonymous_args = 0
 242:lvgl/src/extra/widgets/spinbox/lv_spinbox.c ****     LV_ASSERT_OBJ(obj, MY_CLASS);
 1032              		.loc 1 242 1 is_stmt 0 view .LVU313
 1033 0000 08B5     		push	{r3, lr}
 1034              	.LCFI12:
 1035              		.cfi_def_cfa_offset 8
 1036              		.cfi_offset 3, -8
 1037              		.cfi_offset 14, -4
 243:lvgl/src/extra/widgets/spinbox/lv_spinbox.c ****     lv_spinbox_t * spinbox = (lv_spinbox_t *)obj;
 1038              		.loc 1 243 5 is_stmt 1 view .LVU314
 243:lvgl/src/extra/widgets/spinbox/lv_spinbox.c ****     lv_spinbox_t * spinbox = (lv_spinbox_t *)obj;
 1039              		.loc 1 243 5 view .LVU315
 243:lvgl/src/extra/widgets/spinbox/lv_spinbox.c ****     lv_spinbox_t * spinbox = (lv_spinbox_t *)obj;
 1040              		.loc 1 243 5 view .LVU316
 244:lvgl/src/extra/widgets/spinbox/lv_spinbox.c ****     int32_t step_limit;
 1041              		.loc 1 244 5 view .LVU317
 1042              	.LVL99:
 245:lvgl/src/extra/widgets/spinbox/lv_spinbox.c ****     step_limit       = LV_MAX(spinbox->range_max, (spinbox->range_min < 0 ? (-spinbox->range_min) :
 1043              		.loc 1 245 5 view .LVU318
ARM GAS  /var/folders/21/t9g5rlb91ys800n5npymflf80000gn/T//ccl2N14m.s 			page 32


 246:lvgl/src/extra/widgets/spinbox/lv_spinbox.c ****     int32_t new_step = spinbox->step * 10;
 1044              		.loc 1 246 5 view .LVU319
 246:lvgl/src/extra/widgets/spinbox/lv_spinbox.c ****     int32_t new_step = spinbox->step * 10;
 1045              		.loc 1 246 24 is_stmt 0 view .LVU320
 1046 0002 C36E     		ldr	r3, [r0, #108]
 1047 0004 002B     		cmp	r3, #0
 1048 0006 B8BF     		it	lt
 1049 0008 5B42     		rsblt	r3, r3, #0
 1050 000a 826E     		ldr	r2, [r0, #104]
 246:lvgl/src/extra/widgets/spinbox/lv_spinbox.c ****     int32_t new_step = spinbox->step * 10;
 1051              		.loc 1 246 22 view .LVU321
 1052 000c 9342     		cmp	r3, r2
 1053 000e B8BF     		it	lt
 1054 0010 1346     		movlt	r3, r2
 1055              	.LVL100:
 247:lvgl/src/extra/widgets/spinbox/lv_spinbox.c ****     if(new_step <= step_limit) spinbox->step = new_step;
 1056              		.loc 1 247 5 is_stmt 1 view .LVU322
 247:lvgl/src/extra/widgets/spinbox/lv_spinbox.c ****     if(new_step <= step_limit) spinbox->step = new_step;
 1057              		.loc 1 247 31 is_stmt 0 view .LVU323
 1058 0012 026F     		ldr	r2, [r0, #112]
 247:lvgl/src/extra/widgets/spinbox/lv_spinbox.c ****     if(new_step <= step_limit) spinbox->step = new_step;
 1059              		.loc 1 247 13 view .LVU324
 1060 0014 02EB8202 		add	r2, r2, r2, lsl #2
 1061              	.LVL101:
 248:lvgl/src/extra/widgets/spinbox/lv_spinbox.c **** 
 1062              		.loc 1 248 5 is_stmt 1 view .LVU325
 248:lvgl/src/extra/widgets/spinbox/lv_spinbox.c **** 
 1063              		.loc 1 248 7 is_stmt 0 view .LVU326
 1064 0018 B3EB420F 		cmp	r3, r2, lsl #1
 1065 001c 01DB     		blt	.L69
 1066 001e 5100     		lsls	r1, r2, #1
 1067              	.LVL102:
 248:lvgl/src/extra/widgets/spinbox/lv_spinbox.c **** 
 1068              		.loc 1 248 32 is_stmt 1 discriminator 1 view .LVU327
 248:lvgl/src/extra/widgets/spinbox/lv_spinbox.c **** 
 1069              		.loc 1 248 46 is_stmt 0 discriminator 1 view .LVU328
 1070 0020 0167     		str	r1, [r0, #112]
 1071              	.LVL103:
 1072              	.L69:
 250:lvgl/src/extra/widgets/spinbox/lv_spinbox.c **** }
 1073              		.loc 1 250 5 is_stmt 1 view .LVU329
 1074 0022 FFF7FEFF 		bl	lv_spinbox_updatevalue
 1075              	.LVL104:
 251:lvgl/src/extra/widgets/spinbox/lv_spinbox.c **** 
 1076              		.loc 1 251 1 is_stmt 0 view .LVU330
 1077 0026 08BD     		pop	{r3, pc}
 1078              		.cfi_endproc
 1079              	.LFE215:
 1081              		.section	.text.lv_spinbox_get_rollover,"ax",%progbits
 1082              		.align	1
 1083              		.global	lv_spinbox_get_rollover
 1084              		.syntax unified
 1085              		.thumb
 1086              		.thumb_func
 1088              	lv_spinbox_get_rollover:
 1089              	.LVL105:
 1090              	.LFB216:
ARM GAS  /var/folders/21/t9g5rlb91ys800n5npymflf80000gn/T//ccl2N14m.s 			page 33


 258:lvgl/src/extra/widgets/spinbox/lv_spinbox.c ****     LV_ASSERT_OBJ(obj, MY_CLASS);
 1091              		.loc 1 258 1 is_stmt 1 view -0
 1092              		.cfi_startproc
 1093              		@ args = 0, pretend = 0, frame = 0
 1094              		@ frame_needed = 0, uses_anonymous_args = 0
 1095              		@ link register save eliminated.
 259:lvgl/src/extra/widgets/spinbox/lv_spinbox.c ****     lv_spinbox_t * spinbox = (lv_spinbox_t *)obj;
 1096              		.loc 1 259 5 view .LVU332
 259:lvgl/src/extra/widgets/spinbox/lv_spinbox.c ****     lv_spinbox_t * spinbox = (lv_spinbox_t *)obj;
 1097              		.loc 1 259 5 view .LVU333
 259:lvgl/src/extra/widgets/spinbox/lv_spinbox.c ****     lv_spinbox_t * spinbox = (lv_spinbox_t *)obj;
 1098              		.loc 1 259 5 view .LVU334
 260:lvgl/src/extra/widgets/spinbox/lv_spinbox.c **** 
 1099              		.loc 1 260 5 view .LVU335
 262:lvgl/src/extra/widgets/spinbox/lv_spinbox.c **** }
 1100              		.loc 1 262 5 view .LVU336
 262:lvgl/src/extra/widgets/spinbox/lv_spinbox.c **** }
 1101              		.loc 1 262 19 is_stmt 0 view .LVU337
 1102 0000 90F87500 		ldrb	r0, [r0, #117]	@ zero_extendqisi2
 1103              	.LVL106:
 263:lvgl/src/extra/widgets/spinbox/lv_spinbox.c **** 
 1104              		.loc 1 263 1 view .LVU338
 1105 0004 00F00100 		and	r0, r0, #1
 1106 0008 7047     		bx	lr
 1107              		.cfi_endproc
 1108              	.LFE216:
 1110              		.section	.text.lv_spinbox_increment,"ax",%progbits
 1111              		.align	1
 1112              		.global	lv_spinbox_increment
 1113              		.syntax unified
 1114              		.thumb
 1115              		.thumb_func
 1117              	lv_spinbox_increment:
 1118              	.LVL107:
 1119              	.LFB217:
 270:lvgl/src/extra/widgets/spinbox/lv_spinbox.c ****     LV_ASSERT_OBJ(obj, MY_CLASS);
 1120              		.loc 1 270 1 is_stmt 1 view -0
 1121              		.cfi_startproc
 1122              		@ args = 0, pretend = 0, frame = 0
 1123              		@ frame_needed = 0, uses_anonymous_args = 0
 270:lvgl/src/extra/widgets/spinbox/lv_spinbox.c ****     LV_ASSERT_OBJ(obj, MY_CLASS);
 1124              		.loc 1 270 1 is_stmt 0 view .LVU340
 1125 0000 08B5     		push	{r3, lr}
 1126              	.LCFI13:
 1127              		.cfi_def_cfa_offset 8
 1128              		.cfi_offset 3, -8
 1129              		.cfi_offset 14, -4
 271:lvgl/src/extra/widgets/spinbox/lv_spinbox.c ****     lv_spinbox_t * spinbox = (lv_spinbox_t *)obj;
 1130              		.loc 1 271 5 is_stmt 1 view .LVU341
 271:lvgl/src/extra/widgets/spinbox/lv_spinbox.c ****     lv_spinbox_t * spinbox = (lv_spinbox_t *)obj;
 1131              		.loc 1 271 5 view .LVU342
 271:lvgl/src/extra/widgets/spinbox/lv_spinbox.c ****     lv_spinbox_t * spinbox = (lv_spinbox_t *)obj;
 1132              		.loc 1 271 5 view .LVU343
 272:lvgl/src/extra/widgets/spinbox/lv_spinbox.c **** 
 1133              		.loc 1 272 5 view .LVU344
 1134              	.LVL108:
 274:lvgl/src/extra/widgets/spinbox/lv_spinbox.c ****         /*Special mode when zero crossing*/
ARM GAS  /var/folders/21/t9g5rlb91ys800n5npymflf80000gn/T//ccl2N14m.s 			page 34


 1135              		.loc 1 274 5 view .LVU345
 274:lvgl/src/extra/widgets/spinbox/lv_spinbox.c ****         /*Special mode when zero crossing*/
 1136              		.loc 1 274 15 is_stmt 0 view .LVU346
 1137 0002 426E     		ldr	r2, [r0, #100]
 274:lvgl/src/extra/widgets/spinbox/lv_spinbox.c ****         /*Special mode when zero crossing*/
 1138              		.loc 1 274 32 view .LVU347
 1139 0004 036F     		ldr	r3, [r0, #112]
 274:lvgl/src/extra/widgets/spinbox/lv_spinbox.c ****         /*Special mode when zero crossing*/
 1140              		.loc 1 274 23 view .LVU348
 1141 0006 02EB030C 		add	ip, r2, r3
 274:lvgl/src/extra/widgets/spinbox/lv_spinbox.c ****         /*Special mode when zero crossing*/
 1142              		.loc 1 274 49 view .LVU349
 1143 000a 816E     		ldr	r1, [r0, #104]
 274:lvgl/src/extra/widgets/spinbox/lv_spinbox.c ****         /*Special mode when zero crossing*/
 1144              		.loc 1 274 7 view .LVU350
 1145 000c 8C45     		cmp	ip, r1
 1146 000e 0DDC     		bgt	.L73
 276:lvgl/src/extra/widgets/spinbox/lv_spinbox.c ****         spinbox->value += spinbox->step;
 1147              		.loc 1 276 9 is_stmt 1 view .LVU351
 276:lvgl/src/extra/widgets/spinbox/lv_spinbox.c ****         spinbox->value += spinbox->step;
 1148              		.loc 1 276 11 is_stmt 0 view .LVU352
 1149 0010 BCF1000F 		cmp	ip, #0
 1150 0014 01DD     		ble	.L74
 276:lvgl/src/extra/widgets/spinbox/lv_spinbox.c ****         spinbox->value += spinbox->step;
 1151              		.loc 1 276 49 discriminator 1 view .LVU353
 1152 0016 002A     		cmp	r2, #0
 1153 0018 05DB     		blt	.L78
 1154              	.L74:
 277:lvgl/src/extra/widgets/spinbox/lv_spinbox.c **** 
 1155              		.loc 1 277 9 is_stmt 1 view .LVU354
 277:lvgl/src/extra/widgets/spinbox/lv_spinbox.c **** 
 1156              		.loc 1 277 16 is_stmt 0 view .LVU355
 1157 001a 426E     		ldr	r2, [r0, #100]
 277:lvgl/src/extra/widgets/spinbox/lv_spinbox.c **** 
 1158              		.loc 1 277 24 view .LVU356
 1159 001c 1344     		add	r3, r3, r2
 1160 001e 4366     		str	r3, [r0, #100]
 1161              	.L75:
 288:lvgl/src/extra/widgets/spinbox/lv_spinbox.c **** }
 1162              		.loc 1 288 5 is_stmt 1 view .LVU357
 1163 0020 FFF7FEFF 		bl	lv_spinbox_updatevalue
 1164              	.LVL109:
 289:lvgl/src/extra/widgets/spinbox/lv_spinbox.c **** 
 1165              		.loc 1 289 1 is_stmt 0 view .LVU358
 1166 0024 08BD     		pop	{r3, pc}
 1167              	.LVL110:
 1168              	.L78:
 276:lvgl/src/extra/widgets/spinbox/lv_spinbox.c ****         spinbox->value += spinbox->step;
 1169              		.loc 1 276 72 is_stmt 1 discriminator 2 view .LVU359
 276:lvgl/src/extra/widgets/spinbox/lv_spinbox.c ****         spinbox->value += spinbox->step;
 1170              		.loc 1 276 89 is_stmt 0 discriminator 2 view .LVU360
 1171 0026 5242     		rsbs	r2, r2, #0
 276:lvgl/src/extra/widgets/spinbox/lv_spinbox.c ****         spinbox->value += spinbox->step;
 1172              		.loc 1 276 87 discriminator 2 view .LVU361
 1173 0028 4266     		str	r2, [r0, #100]
 1174 002a F6E7     		b	.L74
 1175              	.L73:
ARM GAS  /var/folders/21/t9g5rlb91ys800n5npymflf80000gn/T//ccl2N14m.s 			page 35


 282:lvgl/src/extra/widgets/spinbox/lv_spinbox.c ****             spinbox->value = spinbox->range_min;
 1176              		.loc 1 282 9 is_stmt 1 view .LVU362
 282:lvgl/src/extra/widgets/spinbox/lv_spinbox.c ****             spinbox->value = spinbox->range_min;
 1177              		.loc 1 282 12 is_stmt 0 view .LVU363
 1178 002c 90F87530 		ldrb	r3, [r0, #117]	@ zero_extendqisi2
 282:lvgl/src/extra/widgets/spinbox/lv_spinbox.c ****             spinbox->value = spinbox->range_min;
 1179              		.loc 1 282 11 view .LVU364
 1180 0030 13F0010F 		tst	r3, #1
 1181 0034 01D0     		beq	.L76
 282:lvgl/src/extra/widgets/spinbox/lv_spinbox.c ****             spinbox->value = spinbox->range_min;
 1182              		.loc 1 282 32 discriminator 1 view .LVU365
 1183 0036 8A42     		cmp	r2, r1
 1184 0038 01D0     		beq	.L79
 1185              	.L76:
 285:lvgl/src/extra/widgets/spinbox/lv_spinbox.c ****     }
 1186              		.loc 1 285 13 is_stmt 1 view .LVU366
 285:lvgl/src/extra/widgets/spinbox/lv_spinbox.c ****     }
 1187              		.loc 1 285 28 is_stmt 0 view .LVU367
 1188 003a 4166     		str	r1, [r0, #100]
 1189 003c F0E7     		b	.L75
 1190              	.L79:
 283:lvgl/src/extra/widgets/spinbox/lv_spinbox.c ****         else
 1191              		.loc 1 283 13 is_stmt 1 view .LVU368
 283:lvgl/src/extra/widgets/spinbox/lv_spinbox.c ****         else
 1192              		.loc 1 283 37 is_stmt 0 view .LVU369
 1193 003e C36E     		ldr	r3, [r0, #108]
 283:lvgl/src/extra/widgets/spinbox/lv_spinbox.c ****         else
 1194              		.loc 1 283 28 view .LVU370
 1195 0040 4366     		str	r3, [r0, #100]
 1196 0042 EDE7     		b	.L75
 1197              		.cfi_endproc
 1198              	.LFE217:
 1200              		.section	.text.lv_spinbox_decrement,"ax",%progbits
 1201              		.align	1
 1202              		.global	lv_spinbox_decrement
 1203              		.syntax unified
 1204              		.thumb
 1205              		.thumb_func
 1207              	lv_spinbox_decrement:
 1208              	.LVL111:
 1209              	.LFB218:
 296:lvgl/src/extra/widgets/spinbox/lv_spinbox.c ****     LV_ASSERT_OBJ(obj, MY_CLASS);
 1210              		.loc 1 296 1 is_stmt 1 view -0
 1211              		.cfi_startproc
 1212              		@ args = 0, pretend = 0, frame = 0
 1213              		@ frame_needed = 0, uses_anonymous_args = 0
 296:lvgl/src/extra/widgets/spinbox/lv_spinbox.c ****     LV_ASSERT_OBJ(obj, MY_CLASS);
 1214              		.loc 1 296 1 is_stmt 0 view .LVU372
 1215 0000 08B5     		push	{r3, lr}
 1216              	.LCFI14:
 1217              		.cfi_def_cfa_offset 8
 1218              		.cfi_offset 3, -8
 1219              		.cfi_offset 14, -4
 297:lvgl/src/extra/widgets/spinbox/lv_spinbox.c ****     lv_spinbox_t * spinbox = (lv_spinbox_t *)obj;
 1220              		.loc 1 297 5 is_stmt 1 view .LVU373
 297:lvgl/src/extra/widgets/spinbox/lv_spinbox.c ****     lv_spinbox_t * spinbox = (lv_spinbox_t *)obj;
 1221              		.loc 1 297 5 view .LVU374
ARM GAS  /var/folders/21/t9g5rlb91ys800n5npymflf80000gn/T//ccl2N14m.s 			page 36


 297:lvgl/src/extra/widgets/spinbox/lv_spinbox.c ****     lv_spinbox_t * spinbox = (lv_spinbox_t *)obj;
 1222              		.loc 1 297 5 view .LVU375
 298:lvgl/src/extra/widgets/spinbox/lv_spinbox.c **** 
 1223              		.loc 1 298 5 view .LVU376
 1224              	.LVL112:
 300:lvgl/src/extra/widgets/spinbox/lv_spinbox.c ****         /*Special mode when zero crossing*/
 1225              		.loc 1 300 5 view .LVU377
 300:lvgl/src/extra/widgets/spinbox/lv_spinbox.c ****         /*Special mode when zero crossing*/
 1226              		.loc 1 300 15 is_stmt 0 view .LVU378
 1227 0002 436E     		ldr	r3, [r0, #100]
 300:lvgl/src/extra/widgets/spinbox/lv_spinbox.c ****         /*Special mode when zero crossing*/
 1228              		.loc 1 300 32 view .LVU379
 1229 0004 016F     		ldr	r1, [r0, #112]
 300:lvgl/src/extra/widgets/spinbox/lv_spinbox.c ****         /*Special mode when zero crossing*/
 1230              		.loc 1 300 23 view .LVU380
 1231 0006 A3EB010C 		sub	ip, r3, r1
 300:lvgl/src/extra/widgets/spinbox/lv_spinbox.c ****         /*Special mode when zero crossing*/
 1232              		.loc 1 300 49 view .LVU381
 1233 000a C26E     		ldr	r2, [r0, #108]
 300:lvgl/src/extra/widgets/spinbox/lv_spinbox.c ****         /*Special mode when zero crossing*/
 1234              		.loc 1 300 7 view .LVU382
 1235 000c 9445     		cmp	ip, r2
 1236 000e 0DDB     		blt	.L81
 302:lvgl/src/extra/widgets/spinbox/lv_spinbox.c ****         spinbox->value -= spinbox->step;
 1237              		.loc 1 302 9 is_stmt 1 view .LVU383
 302:lvgl/src/extra/widgets/spinbox/lv_spinbox.c ****         spinbox->value -= spinbox->step;
 1238              		.loc 1 302 11 is_stmt 0 view .LVU384
 1239 0010 BCF1000F 		cmp	ip, #0
 1240 0014 05DB     		blt	.L86
 1241              	.L82:
 303:lvgl/src/extra/widgets/spinbox/lv_spinbox.c ****     }
 1242              		.loc 1 303 9 is_stmt 1 view .LVU385
 303:lvgl/src/extra/widgets/spinbox/lv_spinbox.c ****     }
 1243              		.loc 1 303 16 is_stmt 0 view .LVU386
 1244 0016 436E     		ldr	r3, [r0, #100]
 303:lvgl/src/extra/widgets/spinbox/lv_spinbox.c ****     }
 1245              		.loc 1 303 24 view .LVU387
 1246 0018 5B1A     		subs	r3, r3, r1
 1247 001a 4366     		str	r3, [r0, #100]
 1248              	.L83:
 313:lvgl/src/extra/widgets/spinbox/lv_spinbox.c **** }
 1249              		.loc 1 313 5 is_stmt 1 view .LVU388
 1250 001c FFF7FEFF 		bl	lv_spinbox_updatevalue
 1251              	.LVL113:
 314:lvgl/src/extra/widgets/spinbox/lv_spinbox.c **** 
 1252              		.loc 1 314 1 is_stmt 0 view .LVU389
 1253 0020 08BD     		pop	{r3, pc}
 1254              	.LVL114:
 1255              	.L86:
 302:lvgl/src/extra/widgets/spinbox/lv_spinbox.c ****         spinbox->value -= spinbox->step;
 1256              		.loc 1 302 49 discriminator 1 view .LVU390
 1257 0022 002B     		cmp	r3, #0
 1258 0024 F7DD     		ble	.L82
 302:lvgl/src/extra/widgets/spinbox/lv_spinbox.c ****         spinbox->value -= spinbox->step;
 1259              		.loc 1 302 72 is_stmt 1 discriminator 2 view .LVU391
 302:lvgl/src/extra/widgets/spinbox/lv_spinbox.c ****         spinbox->value -= spinbox->step;
 1260              		.loc 1 302 89 is_stmt 0 discriminator 2 view .LVU392
ARM GAS  /var/folders/21/t9g5rlb91ys800n5npymflf80000gn/T//ccl2N14m.s 			page 37


 1261 0026 5B42     		rsbs	r3, r3, #0
 302:lvgl/src/extra/widgets/spinbox/lv_spinbox.c ****         spinbox->value -= spinbox->step;
 1262              		.loc 1 302 87 discriminator 2 view .LVU393
 1263 0028 4366     		str	r3, [r0, #100]
 1264 002a F4E7     		b	.L82
 1265              	.L81:
 307:lvgl/src/extra/widgets/spinbox/lv_spinbox.c ****             spinbox->value = spinbox->range_max;
 1266              		.loc 1 307 9 is_stmt 1 view .LVU394
 307:lvgl/src/extra/widgets/spinbox/lv_spinbox.c ****             spinbox->value = spinbox->range_max;
 1267              		.loc 1 307 12 is_stmt 0 view .LVU395
 1268 002c 90F87510 		ldrb	r1, [r0, #117]	@ zero_extendqisi2
 307:lvgl/src/extra/widgets/spinbox/lv_spinbox.c ****             spinbox->value = spinbox->range_max;
 1269              		.loc 1 307 11 view .LVU396
 1270 0030 11F0010F 		tst	r1, #1
 1271 0034 01D0     		beq	.L84
 307:lvgl/src/extra/widgets/spinbox/lv_spinbox.c ****             spinbox->value = spinbox->range_max;
 1272              		.loc 1 307 32 discriminator 1 view .LVU397
 1273 0036 9342     		cmp	r3, r2
 1274 0038 01D0     		beq	.L87
 1275              	.L84:
 310:lvgl/src/extra/widgets/spinbox/lv_spinbox.c ****     }
 1276              		.loc 1 310 13 is_stmt 1 view .LVU398
 310:lvgl/src/extra/widgets/spinbox/lv_spinbox.c ****     }
 1277              		.loc 1 310 28 is_stmt 0 view .LVU399
 1278 003a 4266     		str	r2, [r0, #100]
 1279 003c EEE7     		b	.L83
 1280              	.L87:
 308:lvgl/src/extra/widgets/spinbox/lv_spinbox.c ****         else
 1281              		.loc 1 308 13 is_stmt 1 view .LVU400
 308:lvgl/src/extra/widgets/spinbox/lv_spinbox.c ****         else
 1282              		.loc 1 308 37 is_stmt 0 view .LVU401
 1283 003e 836E     		ldr	r3, [r0, #104]
 308:lvgl/src/extra/widgets/spinbox/lv_spinbox.c ****         else
 1284              		.loc 1 308 28 view .LVU402
 1285 0040 4366     		str	r3, [r0, #100]
 1286 0042 EBE7     		b	.L83
 1287              		.cfi_endproc
 1288              	.LFE218:
 1290              		.section	.text.lv_spinbox_event,"ax",%progbits
 1291              		.align	1
 1292              		.syntax unified
 1293              		.thumb
 1294              		.thumb_func
 1296              	lv_spinbox_event:
 1297              	.LVL115:
 1298              	.LFB220:
 346:lvgl/src/extra/widgets/spinbox/lv_spinbox.c ****     LV_UNUSED(class_p);
 1299              		.loc 1 346 1 is_stmt 1 view -0
 1300              		.cfi_startproc
 1301              		@ args = 0, pretend = 0, frame = 0
 1302              		@ frame_needed = 0, uses_anonymous_args = 0
 346:lvgl/src/extra/widgets/spinbox/lv_spinbox.c ****     LV_UNUSED(class_p);
 1303              		.loc 1 346 1 is_stmt 0 view .LVU404
 1304 0000 70B5     		push	{r4, r5, r6, lr}
 1305              	.LCFI15:
 1306              		.cfi_def_cfa_offset 16
 1307              		.cfi_offset 4, -16
ARM GAS  /var/folders/21/t9g5rlb91ys800n5npymflf80000gn/T//ccl2N14m.s 			page 38


 1308              		.cfi_offset 5, -12
 1309              		.cfi_offset 6, -8
 1310              		.cfi_offset 14, -4
 1311 0002 0C46     		mov	r4, r1
 347:lvgl/src/extra/widgets/spinbox/lv_spinbox.c **** 
 1312              		.loc 1 347 5 is_stmt 1 view .LVU405
 350:lvgl/src/extra/widgets/spinbox/lv_spinbox.c ****     res = lv_obj_event_base(MY_CLASS, e);
 1313              		.loc 1 350 5 view .LVU406
 1314              	.LVL116:
 351:lvgl/src/extra/widgets/spinbox/lv_spinbox.c ****     if(res != LV_RES_OK) return;
 1315              		.loc 1 351 5 view .LVU407
 351:lvgl/src/extra/widgets/spinbox/lv_spinbox.c ****     if(res != LV_RES_OK) return;
 1316              		.loc 1 351 11 is_stmt 0 view .LVU408
 1317 0004 5F48     		ldr	r0, .L120
 1318              	.LVL117:
 351:lvgl/src/extra/widgets/spinbox/lv_spinbox.c ****     if(res != LV_RES_OK) return;
 1319              		.loc 1 351 11 view .LVU409
 1320 0006 FFF7FEFF 		bl	lv_obj_event_base
 1321              	.LVL118:
 352:lvgl/src/extra/widgets/spinbox/lv_spinbox.c **** 
 1322              		.loc 1 352 5 is_stmt 1 view .LVU410
 352:lvgl/src/extra/widgets/spinbox/lv_spinbox.c **** 
 1323              		.loc 1 352 7 is_stmt 0 view .LVU411
 1324 000a 0128     		cmp	r0, #1
 1325 000c 00D0     		beq	.L108
 1326              	.LVL119:
 1327              	.L88:
 438:lvgl/src/extra/widgets/spinbox/lv_spinbox.c **** 
 1328              		.loc 1 438 1 view .LVU412
 1329 000e 70BD     		pop	{r4, r5, r6, pc}
 1330              	.LVL120:
 1331              	.L108:
 354:lvgl/src/extra/widgets/spinbox/lv_spinbox.c ****     lv_obj_t * obj = lv_event_get_target(e);
 1332              		.loc 1 354 5 is_stmt 1 view .LVU413
 354:lvgl/src/extra/widgets/spinbox/lv_spinbox.c ****     lv_obj_t * obj = lv_event_get_target(e);
 1333              		.loc 1 354 28 is_stmt 0 view .LVU414
 1334 0010 2046     		mov	r0, r4
 1335              	.LVL121:
 354:lvgl/src/extra/widgets/spinbox/lv_spinbox.c ****     lv_obj_t * obj = lv_event_get_target(e);
 1336              		.loc 1 354 28 view .LVU415
 1337 0012 FFF7FEFF 		bl	lv_event_get_code
 1338              	.LVL122:
 1339 0016 0646     		mov	r6, r0
 1340              	.LVL123:
 355:lvgl/src/extra/widgets/spinbox/lv_spinbox.c ****     lv_spinbox_t * spinbox = (lv_spinbox_t *)obj;
 1341              		.loc 1 355 5 is_stmt 1 view .LVU416
 355:lvgl/src/extra/widgets/spinbox/lv_spinbox.c ****     lv_spinbox_t * spinbox = (lv_spinbox_t *)obj;
 1342              		.loc 1 355 22 is_stmt 0 view .LVU417
 1343 0018 2046     		mov	r0, r4
 1344 001a FFF7FEFF 		bl	lv_event_get_target
 1345              	.LVL124:
 1346 001e 0546     		mov	r5, r0
 1347              	.LVL125:
 356:lvgl/src/extra/widgets/spinbox/lv_spinbox.c ****     if(code == LV_EVENT_RELEASED) {
 1348              		.loc 1 356 5 is_stmt 1 view .LVU418
 357:lvgl/src/extra/widgets/spinbox/lv_spinbox.c ****         /*If released with an ENCODER then move to the next digit*/
 1349              		.loc 1 357 5 view .LVU419
ARM GAS  /var/folders/21/t9g5rlb91ys800n5npymflf80000gn/T//ccl2N14m.s 			page 39


 357:lvgl/src/extra/widgets/spinbox/lv_spinbox.c ****         /*If released with an ENCODER then move to the next digit*/
 1350              		.loc 1 357 7 is_stmt 0 view .LVU420
 1351 0020 082E     		cmp	r6, #8
 1352 0022 19D0     		beq	.L109
 415:lvgl/src/extra/widgets/spinbox/lv_spinbox.c ****         lv_indev_type_t indev_type = lv_indev_get_type(lv_indev_get_act());
 1353              		.loc 1 415 10 is_stmt 1 view .LVU421
 415:lvgl/src/extra/widgets/spinbox/lv_spinbox.c ****         lv_indev_type_t indev_type = lv_indev_get_type(lv_indev_get_act());
 1354              		.loc 1 415 12 is_stmt 0 view .LVU422
 1355 0024 0D2E     		cmp	r6, #13
 1356 0026 F2D1     		bne	.L88
 1357              	.LBB3:
 416:lvgl/src/extra/widgets/spinbox/lv_spinbox.c **** 
 1358              		.loc 1 416 9 is_stmt 1 view .LVU423
 416:lvgl/src/extra/widgets/spinbox/lv_spinbox.c **** 
 1359              		.loc 1 416 56 is_stmt 0 view .LVU424
 1360 0028 FFF7FEFF 		bl	lv_indev_get_act
 1361              	.LVL126:
 416:lvgl/src/extra/widgets/spinbox/lv_spinbox.c **** 
 1362              		.loc 1 416 38 view .LVU425
 1363 002c FFF7FEFF 		bl	lv_indev_get_type
 1364              	.LVL127:
 1365 0030 0646     		mov	r6, r0
 1366              	.LVL128:
 418:lvgl/src/extra/widgets/spinbox/lv_spinbox.c ****         if(c == LV_KEY_RIGHT) {
 1367              		.loc 1 418 9 is_stmt 1 view .LVU426
 418:lvgl/src/extra/widgets/spinbox/lv_spinbox.c ****         if(c == LV_KEY_RIGHT) {
 1368              		.loc 1 418 36 is_stmt 0 view .LVU427
 1369 0032 2046     		mov	r0, r4
 1370 0034 FFF7FEFF 		bl	lv_event_get_param
 1371              	.LVL129:
 418:lvgl/src/extra/widgets/spinbox/lv_spinbox.c ****         if(c == LV_KEY_RIGHT) {
 1372              		.loc 1 418 18 view .LVU428
 1373 0038 0368     		ldr	r3, [r0]
 1374              	.LVL130:
 419:lvgl/src/extra/widgets/spinbox/lv_spinbox.c ****             if(indev_type == LV_INDEV_TYPE_ENCODER)
 1375              		.loc 1 419 9 is_stmt 1 view .LVU429
 419:lvgl/src/extra/widgets/spinbox/lv_spinbox.c ****             if(indev_type == LV_INDEV_TYPE_ENCODER)
 1376              		.loc 1 419 11 is_stmt 0 view .LVU430
 1377 003a 132B     		cmp	r3, #19
 1378 003c 00F08A80 		beq	.L110
 425:lvgl/src/extra/widgets/spinbox/lv_spinbox.c ****             if(indev_type == LV_INDEV_TYPE_ENCODER)
 1379              		.loc 1 425 14 is_stmt 1 view .LVU431
 425:lvgl/src/extra/widgets/spinbox/lv_spinbox.c ****             if(indev_type == LV_INDEV_TYPE_ENCODER)
 1380              		.loc 1 425 16 is_stmt 0 view .LVU432
 1381 0040 142B     		cmp	r3, #20
 1382 0042 00F09180 		beq	.L111
 431:lvgl/src/extra/widgets/spinbox/lv_spinbox.c ****             lv_spinbox_increment(obj);
 1383              		.loc 1 431 14 is_stmt 1 view .LVU433
 431:lvgl/src/extra/widgets/spinbox/lv_spinbox.c ****             lv_spinbox_increment(obj);
 1384              		.loc 1 431 16 is_stmt 0 view .LVU434
 1385 0046 112B     		cmp	r3, #17
 1386 0048 00F09880 		beq	.L112
 434:lvgl/src/extra/widgets/spinbox/lv_spinbox.c ****             lv_spinbox_decrement(obj);
 1387              		.loc 1 434 14 is_stmt 1 view .LVU435
 434:lvgl/src/extra/widgets/spinbox/lv_spinbox.c ****             lv_spinbox_decrement(obj);
 1388              		.loc 1 434 16 is_stmt 0 view .LVU436
 1389 004c 122B     		cmp	r3, #18
ARM GAS  /var/folders/21/t9g5rlb91ys800n5npymflf80000gn/T//ccl2N14m.s 			page 40


 1390 004e DED1     		bne	.L88
 435:lvgl/src/extra/widgets/spinbox/lv_spinbox.c ****         }
 1391              		.loc 1 435 13 is_stmt 1 view .LVU437
 1392 0050 2846     		mov	r0, r5
 1393 0052 FFF7FEFF 		bl	lv_spinbox_decrement
 1394              	.LVL131:
 435:lvgl/src/extra/widgets/spinbox/lv_spinbox.c ****         }
 1395              		.loc 1 435 13 is_stmt 0 view .LVU438
 1396 0056 DAE7     		b	.L88
 1397              	.LVL132:
 1398              	.L109:
 435:lvgl/src/extra/widgets/spinbox/lv_spinbox.c ****         }
 1399              		.loc 1 435 13 view .LVU439
 1400              	.LBE3:
 1401              	.LBB4:
 359:lvgl/src/extra/widgets/spinbox/lv_spinbox.c ****         if(lv_indev_get_type(indev) == LV_INDEV_TYPE_ENCODER) {
 1402              		.loc 1 359 9 is_stmt 1 view .LVU440
 359:lvgl/src/extra/widgets/spinbox/lv_spinbox.c ****         if(lv_indev_get_type(indev) == LV_INDEV_TYPE_ENCODER) {
 1403              		.loc 1 359 30 is_stmt 0 view .LVU441
 1404 0058 FFF7FEFF 		bl	lv_indev_get_act
 1405              	.LVL133:
 360:lvgl/src/extra/widgets/spinbox/lv_spinbox.c ****             if(lv_group_get_editing(lv_obj_get_group(obj))) {
 1406              		.loc 1 360 9 is_stmt 1 view .LVU442
 360:lvgl/src/extra/widgets/spinbox/lv_spinbox.c ****             if(lv_group_get_editing(lv_obj_get_group(obj))) {
 1407              		.loc 1 360 12 is_stmt 0 view .LVU443
 1408 005c FFF7FEFF 		bl	lv_indev_get_type
 1409              	.LVL134:
 360:lvgl/src/extra/widgets/spinbox/lv_spinbox.c ****             if(lv_group_get_editing(lv_obj_get_group(obj))) {
 1410              		.loc 1 360 11 view .LVU444
 1411 0060 0428     		cmp	r0, #4
 1412 0062 25D0     		beq	.L113
 1413              	.LBB5:
 389:lvgl/src/extra/widgets/spinbox/lv_spinbox.c ****             size_t txt_len = strlen(txt);
 1414              		.loc 1 389 13 is_stmt 1 view .LVU445
 389:lvgl/src/extra/widgets/spinbox/lv_spinbox.c ****             size_t txt_len = strlen(txt);
 1415              		.loc 1 389 32 is_stmt 0 view .LVU446
 1416 0064 2846     		mov	r0, r5
 1417 0066 FFF7FEFF 		bl	lv_textarea_get_text
 1418              	.LVL135:
 1419 006a 0446     		mov	r4, r0
 1420              	.LVL136:
 390:lvgl/src/extra/widgets/spinbox/lv_spinbox.c **** 
 1421              		.loc 1 390 13 is_stmt 1 view .LVU447
 390:lvgl/src/extra/widgets/spinbox/lv_spinbox.c **** 
 1422              		.loc 1 390 30 is_stmt 0 view .LVU448
 1423 006c FFF7FEFF 		bl	strlen
 1424              	.LVL137:
 392:lvgl/src/extra/widgets/spinbox/lv_spinbox.c ****                 lv_textarea_cursor_left(obj);
 1425              		.loc 1 392 13 is_stmt 1 view .LVU449
 392:lvgl/src/extra/widgets/spinbox/lv_spinbox.c ****                 lv_textarea_cursor_left(obj);
 1426              		.loc 1 392 38 is_stmt 0 view .LVU450
 1427 0070 6B6C     		ldr	r3, [r5, #68]
 392:lvgl/src/extra/widgets/spinbox/lv_spinbox.c ****                 lv_textarea_cursor_left(obj);
 1428              		.loc 1 392 19 view .LVU451
 1429 0072 E25C     		ldrb	r2, [r4, r3]	@ zero_extendqisi2
 392:lvgl/src/extra/widgets/spinbox/lv_spinbox.c ****                 lv_textarea_cursor_left(obj);
 1430              		.loc 1 392 15 view .LVU452
ARM GAS  /var/folders/21/t9g5rlb91ys800n5npymflf80000gn/T//ccl2N14m.s 			page 41


 1431 0074 2E2A     		cmp	r2, #46
 1432 0076 53D0     		beq	.L114
 395:lvgl/src/extra/widgets/spinbox/lv_spinbox.c ****                 lv_textarea_set_cursor_pos(obj, txt_len - 1);
 1433              		.loc 1 395 18 is_stmt 1 view .LVU453
 395:lvgl/src/extra/widgets/spinbox/lv_spinbox.c ****                 lv_textarea_set_cursor_pos(obj, txt_len - 1);
 1434              		.loc 1 395 20 is_stmt 0 view .LVU454
 1435 0078 8342     		cmp	r3, r0
 1436 007a 55D0     		beq	.L115
 398:lvgl/src/extra/widgets/spinbox/lv_spinbox.c ****                 lv_textarea_set_cursor_pos(obj, 1);
 1437              		.loc 1 398 18 is_stmt 1 view .LVU455
 398:lvgl/src/extra/widgets/spinbox/lv_spinbox.c ****                 lv_textarea_set_cursor_pos(obj, 1);
 1438              		.loc 1 398 20 is_stmt 0 view .LVU456
 1439 007c 13B9     		cbnz	r3, .L96
 398:lvgl/src/extra/widgets/spinbox/lv_spinbox.c ****                 lv_textarea_set_cursor_pos(obj, 1);
 1440              		.loc 1 398 59 discriminator 1 view .LVU457
 1441 007e EB6E     		ldr	r3, [r5, #108]
 398:lvgl/src/extra/widgets/spinbox/lv_spinbox.c ****                 lv_textarea_set_cursor_pos(obj, 1);
 1442              		.loc 1 398 49 discriminator 1 view .LVU458
 1443 0080 002B     		cmp	r3, #0
 1444 0082 56DB     		blt	.L116
 1445              	.LVL138:
 1446              	.L96:
 402:lvgl/src/extra/widgets/spinbox/lv_spinbox.c ****             uint16_t cp = spinbox->ta.cursor.pos;
 1447              		.loc 1 402 13 is_stmt 1 view .LVU459
 402:lvgl/src/extra/widgets/spinbox/lv_spinbox.c ****             uint16_t cp = spinbox->ta.cursor.pos;
 1448              		.loc 1 402 33 is_stmt 0 view .LVU460
 1449 0084 95F87400 		ldrb	r0, [r5, #116]	@ zero_extendqisi2
 1450 0088 00F00F01 		and	r1, r0, #15
 402:lvgl/src/extra/widgets/spinbox/lv_spinbox.c ****             uint16_t cp = spinbox->ta.cursor.pos;
 1451              		.loc 1 402 47 view .LVU461
 1452 008c 0139     		subs	r1, r1, #1
 1453              	.LVL139:
 403:lvgl/src/extra/widgets/spinbox/lv_spinbox.c **** 
 1454              		.loc 1 403 13 is_stmt 1 view .LVU462
 403:lvgl/src/extra/widgets/spinbox/lv_spinbox.c **** 
 1455              		.loc 1 403 45 is_stmt 0 view .LVU463
 1456 008e 6A6C     		ldr	r2, [r5, #68]
 403:lvgl/src/extra/widgets/spinbox/lv_spinbox.c **** 
 1457              		.loc 1 403 22 view .LVU464
 1458 0090 93B2     		uxth	r3, r2
 1459              	.LVL140:
 405:lvgl/src/extra/widgets/spinbox/lv_spinbox.c ****             uint32_t pos = len - cp;
 1460              		.loc 1 405 13 is_stmt 1 view .LVU465
 405:lvgl/src/extra/widgets/spinbox/lv_spinbox.c ****             uint32_t pos = len - cp;
 1461              		.loc 1 405 15 is_stmt 0 view .LVU466
 1462 0092 B2EB101F 		cmp	r2, r0, lsr #4
 1463 0096 03D9     		bls	.L98
 405:lvgl/src/extra/widgets/spinbox/lv_spinbox.c ****             uint32_t pos = len - cp;
 1464              		.loc 1 405 64 discriminator 1 view .LVU467
 1465 0098 0F28     		cmp	r0, #15
 1466 009a 01D9     		bls	.L98
 405:lvgl/src/extra/widgets/spinbox/lv_spinbox.c ****             uint32_t pos = len - cp;
 1467              		.loc 1 405 96 is_stmt 1 discriminator 2 view .LVU468
 405:lvgl/src/extra/widgets/spinbox/lv_spinbox.c ****             uint32_t pos = len - cp;
 1468              		.loc 1 405 98 is_stmt 0 discriminator 2 view .LVU469
 1469 009c 013B     		subs	r3, r3, #1
 1470              	.LVL141:
ARM GAS  /var/folders/21/t9g5rlb91ys800n5npymflf80000gn/T//ccl2N14m.s 			page 42


 405:lvgl/src/extra/widgets/spinbox/lv_spinbox.c ****             uint32_t pos = len - cp;
 1471              		.loc 1 405 98 discriminator 2 view .LVU470
 1472 009e 9BB2     		uxth	r3, r3
 1473              	.LVL142:
 1474              	.L98:
 406:lvgl/src/extra/widgets/spinbox/lv_spinbox.c **** 
 1475              		.loc 1 406 13 is_stmt 1 view .LVU471
 406:lvgl/src/extra/widgets/spinbox/lv_spinbox.c **** 
 1476              		.loc 1 406 22 is_stmt 0 view .LVU472
 1477 00a0 C91A     		subs	r1, r1, r3
 1478              	.LVL143:
 408:lvgl/src/extra/widgets/spinbox/lv_spinbox.c **** 
 1479              		.loc 1 408 13 is_stmt 1 view .LVU473
 408:lvgl/src/extra/widgets/spinbox/lv_spinbox.c **** 
 1480              		.loc 1 408 23 is_stmt 0 view .LVU474
 1481 00a2 EB6E     		ldr	r3, [r5, #108]
 1482              	.LVL144:
 408:lvgl/src/extra/widgets/spinbox/lv_spinbox.c **** 
 1483              		.loc 1 408 15 view .LVU475
 1484 00a4 002B     		cmp	r3, #0
 1485 00a6 49DB     		blt	.L117
 1486              	.L99:
 410:lvgl/src/extra/widgets/spinbox/lv_spinbox.c ****             uint16_t i;
 1487              		.loc 1 410 13 is_stmt 1 view .LVU476
 410:lvgl/src/extra/widgets/spinbox/lv_spinbox.c ****             uint16_t i;
 1488              		.loc 1 410 27 is_stmt 0 view .LVU477
 1489 00a8 0123     		movs	r3, #1
 1490 00aa 2B67     		str	r3, [r5, #112]
 411:lvgl/src/extra/widgets/spinbox/lv_spinbox.c ****             for(i = 0; i < pos; i++) spinbox->step *= 10;
 1491              		.loc 1 411 13 is_stmt 1 view .LVU478
 412:lvgl/src/extra/widgets/spinbox/lv_spinbox.c ****         }
 1492              		.loc 1 412 13 view .LVU479
 1493              	.LVL145:
 412:lvgl/src/extra/widgets/spinbox/lv_spinbox.c ****         }
 1494              		.loc 1 412 19 is_stmt 0 view .LVU480
 1495 00ac 0022     		movs	r2, #0
 412:lvgl/src/extra/widgets/spinbox/lv_spinbox.c ****         }
 1496              		.loc 1 412 13 view .LVU481
 1497 00ae 4EE0     		b	.L100
 1498              	.LVL146:
 1499              	.L113:
 412:lvgl/src/extra/widgets/spinbox/lv_spinbox.c ****         }
 1500              		.loc 1 412 13 view .LVU482
 1501              	.LBE5:
 361:lvgl/src/extra/widgets/spinbox/lv_spinbox.c ****                 if(spinbox->digit_count > 1) {
 1502              		.loc 1 361 13 is_stmt 1 view .LVU483
 361:lvgl/src/extra/widgets/spinbox/lv_spinbox.c ****                 if(spinbox->digit_count > 1) {
 1503              		.loc 1 361 37 is_stmt 0 view .LVU484
 1504 00b0 2846     		mov	r0, r5
 1505 00b2 FFF7FEFF 		bl	lv_obj_get_group
 1506              	.LVL147:
 361:lvgl/src/extra/widgets/spinbox/lv_spinbox.c ****                 if(spinbox->digit_count > 1) {
 1507              		.loc 1 361 16 view .LVU485
 1508 00b6 FFF7FEFF 		bl	lv_group_get_editing
 1509              	.LVL148:
 361:lvgl/src/extra/widgets/spinbox/lv_spinbox.c ****                 if(spinbox->digit_count > 1) {
 1510              		.loc 1 361 15 view .LVU486
ARM GAS  /var/folders/21/t9g5rlb91ys800n5npymflf80000gn/T//ccl2N14m.s 			page 43


 1511 00ba 0028     		cmp	r0, #0
 1512 00bc A7D0     		beq	.L88
 362:lvgl/src/extra/widgets/spinbox/lv_spinbox.c ****                     if(spinbox->digit_step_dir == LV_DIR_RIGHT) {
 1513              		.loc 1 362 17 is_stmt 1 view .LVU487
 362:lvgl/src/extra/widgets/spinbox/lv_spinbox.c ****                     if(spinbox->digit_step_dir == LV_DIR_RIGHT) {
 1514              		.loc 1 362 27 is_stmt 0 view .LVU488
 1515 00be 95F87420 		ldrb	r2, [r5, #116]	@ zero_extendqisi2
 1516 00c2 02F00F02 		and	r2, r2, #15
 362:lvgl/src/extra/widgets/spinbox/lv_spinbox.c ****                     if(spinbox->digit_step_dir == LV_DIR_RIGHT) {
 1517              		.loc 1 362 19 view .LVU489
 1518 00c6 012A     		cmp	r2, #1
 1519 00c8 A1D9     		bls	.L88
 363:lvgl/src/extra/widgets/spinbox/lv_spinbox.c ****                         if(spinbox->step > 1) {
 1520              		.loc 1 363 21 is_stmt 1 view .LVU490
 363:lvgl/src/extra/widgets/spinbox/lv_spinbox.c ****                         if(spinbox->step > 1) {
 1521              		.loc 1 363 48 is_stmt 0 view .LVU491
 1522 00ca 95F87530 		ldrb	r3, [r5, #117]	@ zero_extendqisi2
 1523 00ce 03F00603 		and	r3, r3, #6
 363:lvgl/src/extra/widgets/spinbox/lv_spinbox.c ****                         if(spinbox->step > 1) {
 1524              		.loc 1 363 23 view .LVU492
 1525 00d2 042B     		cmp	r3, #4
 1526 00d4 10D1     		bne	.L92
 364:lvgl/src/extra/widgets/spinbox/lv_spinbox.c ****                             lv_spinbox_step_next(obj);
 1527              		.loc 1 364 25 is_stmt 1 view .LVU493
 364:lvgl/src/extra/widgets/spinbox/lv_spinbox.c ****                             lv_spinbox_step_next(obj);
 1528              		.loc 1 364 35 is_stmt 0 view .LVU494
 1529 00d6 2B6F     		ldr	r3, [r5, #112]
 364:lvgl/src/extra/widgets/spinbox/lv_spinbox.c ****                             lv_spinbox_step_next(obj);
 1530              		.loc 1 364 27 view .LVU495
 1531 00d8 012B     		cmp	r3, #1
 1532 00da 03DD     		ble	.L93
 365:lvgl/src/extra/widgets/spinbox/lv_spinbox.c ****                         }
 1533              		.loc 1 365 29 is_stmt 1 view .LVU496
 1534 00dc 2846     		mov	r0, r5
 1535 00de FFF7FEFF 		bl	lv_spinbox_step_next
 1536              	.LVL149:
 1537 00e2 94E7     		b	.L88
 1538              	.L93:
 369:lvgl/src/extra/widgets/spinbox/lv_spinbox.c ****                             lv_spinbox_step_prev(obj);
 1539              		.loc 1 369 29 view .LVU497
 369:lvgl/src/extra/widgets/spinbox/lv_spinbox.c ****                             lv_spinbox_step_prev(obj);
 1540              		.loc 1 369 45 is_stmt 0 view .LVU498
 1541 00e4 023A     		subs	r2, r2, #2
 1542 00e6 0A20     		movs	r0, #10
 1543 00e8 0021     		movs	r1, #0
 1544 00ea FFF7FEFF 		bl	lv_pow
 1545              	.LVL150:
 369:lvgl/src/extra/widgets/spinbox/lv_spinbox.c ****                             lv_spinbox_step_prev(obj);
 1546              		.loc 1 369 43 view .LVU499
 1547 00ee 2867     		str	r0, [r5, #112]
 370:lvgl/src/extra/widgets/spinbox/lv_spinbox.c ****                         }
 1548              		.loc 1 370 29 is_stmt 1 view .LVU500
 1549 00f0 2846     		mov	r0, r5
 1550 00f2 FFF7FEFF 		bl	lv_spinbox_step_prev
 1551              	.LVL151:
 1552 00f6 8AE7     		b	.L88
 1553              	.L92:
ARM GAS  /var/folders/21/t9g5rlb91ys800n5npymflf80000gn/T//ccl2N14m.s 			page 44


 374:lvgl/src/extra/widgets/spinbox/lv_spinbox.c ****                             lv_spinbox_step_prev(obj);
 1554              		.loc 1 374 25 view .LVU501
 374:lvgl/src/extra/widgets/spinbox/lv_spinbox.c ****                             lv_spinbox_step_prev(obj);
 1555              		.loc 1 374 35 is_stmt 0 view .LVU502
 1556 00f8 2E6F     		ldr	r6, [r5, #112]
 1557              	.LVL152:
 374:lvgl/src/extra/widgets/spinbox/lv_spinbox.c ****                             lv_spinbox_step_prev(obj);
 1558              		.loc 1 374 35 view .LVU503
 1559 00fa F417     		asrs	r4, r6, #31
 1560              	.LVL153:
 374:lvgl/src/extra/widgets/spinbox/lv_spinbox.c ****                             lv_spinbox_step_prev(obj);
 1561              		.loc 1 374 44 view .LVU504
 1562 00fc 013A     		subs	r2, r2, #1
 1563 00fe 0A20     		movs	r0, #10
 1564 0100 0021     		movs	r1, #0
 1565 0102 FFF7FEFF 		bl	lv_pow
 1566              	.LVL154:
 374:lvgl/src/extra/widgets/spinbox/lv_spinbox.c ****                             lv_spinbox_step_prev(obj);
 1567              		.loc 1 374 27 view .LVU505
 1568 0106 8642     		cmp	r6, r0
 1569 0108 8C41     		sbcs	r4, r4, r1
 1570 010a 03DA     		bge	.L94
 375:lvgl/src/extra/widgets/spinbox/lv_spinbox.c ****                         }
 1571              		.loc 1 375 29 is_stmt 1 view .LVU506
 1572 010c 2846     		mov	r0, r5
 1573 010e FFF7FEFF 		bl	lv_spinbox_step_prev
 1574              	.LVL155:
 1575 0112 7CE7     		b	.L88
 1576              	.L94:
 379:lvgl/src/extra/widgets/spinbox/lv_spinbox.c ****                             lv_spinbox_step_next(obj);
 1577              		.loc 1 379 29 view .LVU507
 379:lvgl/src/extra/widgets/spinbox/lv_spinbox.c ****                             lv_spinbox_step_next(obj);
 1578              		.loc 1 379 43 is_stmt 0 view .LVU508
 1579 0114 0A23     		movs	r3, #10
 1580 0116 2B67     		str	r3, [r5, #112]
 380:lvgl/src/extra/widgets/spinbox/lv_spinbox.c ****                         }
 1581              		.loc 1 380 29 is_stmt 1 view .LVU509
 1582 0118 2846     		mov	r0, r5
 1583 011a FFF7FEFF 		bl	lv_spinbox_step_next
 1584              	.LVL156:
 1585 011e 76E7     		b	.L88
 1586              	.LVL157:
 1587              	.L114:
 1588              	.LBB6:
 393:lvgl/src/extra/widgets/spinbox/lv_spinbox.c ****             }
 1589              		.loc 1 393 17 view .LVU510
 1590 0120 2846     		mov	r0, r5
 1591              	.LVL158:
 393:lvgl/src/extra/widgets/spinbox/lv_spinbox.c ****             }
 1592              		.loc 1 393 17 is_stmt 0 view .LVU511
 1593 0122 FFF7FEFF 		bl	lv_textarea_cursor_left
 1594              	.LVL159:
 1595 0126 ADE7     		b	.L96
 1596              	.LVL160:
 1597              	.L115:
 396:lvgl/src/extra/widgets/spinbox/lv_spinbox.c ****             }
 1598              		.loc 1 396 17 is_stmt 1 view .LVU512
ARM GAS  /var/folders/21/t9g5rlb91ys800n5npymflf80000gn/T//ccl2N14m.s 			page 45


 1599 0128 411E     		subs	r1, r0, #1
 1600 012a 2846     		mov	r0, r5
 1601              	.LVL161:
 396:lvgl/src/extra/widgets/spinbox/lv_spinbox.c ****             }
 1602              		.loc 1 396 17 is_stmt 0 view .LVU513
 1603 012c FFF7FEFF 		bl	lv_textarea_set_cursor_pos
 1604              	.LVL162:
 396:lvgl/src/extra/widgets/spinbox/lv_spinbox.c ****             }
 1605              		.loc 1 396 17 view .LVU514
 1606 0130 A8E7     		b	.L96
 1607              	.LVL163:
 1608              	.L116:
 399:lvgl/src/extra/widgets/spinbox/lv_spinbox.c ****             }
 1609              		.loc 1 399 17 is_stmt 1 view .LVU515
 1610 0132 0121     		movs	r1, #1
 1611 0134 2846     		mov	r0, r5
 1612              	.LVL164:
 399:lvgl/src/extra/widgets/spinbox/lv_spinbox.c ****             }
 1613              		.loc 1 399 17 is_stmt 0 view .LVU516
 1614 0136 FFF7FEFF 		bl	lv_textarea_set_cursor_pos
 1615              	.LVL165:
 1616 013a A3E7     		b	.L96
 1617              	.LVL166:
 1618              	.L117:
 408:lvgl/src/extra/widgets/spinbox/lv_spinbox.c **** 
 1619              		.loc 1 408 40 is_stmt 1 discriminator 1 view .LVU517
 408:lvgl/src/extra/widgets/spinbox/lv_spinbox.c **** 
 1620              		.loc 1 408 43 is_stmt 0 discriminator 1 view .LVU518
 1621 013c 0131     		adds	r1, r1, #1
 1622              	.LVL167:
 408:lvgl/src/extra/widgets/spinbox/lv_spinbox.c **** 
 1623              		.loc 1 408 43 discriminator 1 view .LVU519
 1624 013e B3E7     		b	.L99
 1625              	.LVL168:
 1626              	.L101:
 412:lvgl/src/extra/widgets/spinbox/lv_spinbox.c ****         }
 1627              		.loc 1 412 38 is_stmt 1 discriminator 3 view .LVU520
 412:lvgl/src/extra/widgets/spinbox/lv_spinbox.c ****         }
 1628              		.loc 1 412 45 is_stmt 0 discriminator 3 view .LVU521
 1629 0140 2B6F     		ldr	r3, [r5, #112]
 412:lvgl/src/extra/widgets/spinbox/lv_spinbox.c ****         }
 1630              		.loc 1 412 52 discriminator 3 view .LVU522
 1631 0142 03EB8303 		add	r3, r3, r3, lsl #2
 1632 0146 5B00     		lsls	r3, r3, #1
 1633 0148 2B67     		str	r3, [r5, #112]
 412:lvgl/src/extra/widgets/spinbox/lv_spinbox.c ****         }
 1634              		.loc 1 412 34 is_stmt 1 discriminator 3 view .LVU523
 1635 014a 0132     		adds	r2, r2, #1
 1636              	.LVL169:
 412:lvgl/src/extra/widgets/spinbox/lv_spinbox.c ****         }
 1637              		.loc 1 412 34 is_stmt 0 discriminator 3 view .LVU524
 1638 014c 92B2     		uxth	r2, r2
 1639              	.LVL170:
 1640              	.L100:
 412:lvgl/src/extra/widgets/spinbox/lv_spinbox.c ****         }
 1641              		.loc 1 412 26 is_stmt 1 discriminator 1 view .LVU525
 1642 014e 8A42     		cmp	r2, r1
ARM GAS  /var/folders/21/t9g5rlb91ys800n5npymflf80000gn/T//ccl2N14m.s 			page 46


 1643 0150 F6D3     		bcc	.L101
 1644 0152 5CE7     		b	.L88
 1645              	.LVL171:
 1646              	.L110:
 412:lvgl/src/extra/widgets/spinbox/lv_spinbox.c ****         }
 1647              		.loc 1 412 26 is_stmt 0 discriminator 1 view .LVU526
 1648              	.LBE6:
 1649              	.LBE4:
 1650              	.LBB7:
 420:lvgl/src/extra/widgets/spinbox/lv_spinbox.c ****                 lv_spinbox_increment(obj);
 1651              		.loc 1 420 13 is_stmt 1 view .LVU527
 420:lvgl/src/extra/widgets/spinbox/lv_spinbox.c ****                 lv_spinbox_increment(obj);
 1652              		.loc 1 420 15 is_stmt 0 view .LVU528
 1653 0154 042E     		cmp	r6, #4
 1654 0156 03D0     		beq	.L118
 423:lvgl/src/extra/widgets/spinbox/lv_spinbox.c ****         }
 1655              		.loc 1 423 17 is_stmt 1 view .LVU529
 1656 0158 2846     		mov	r0, r5
 1657 015a FFF7FEFF 		bl	lv_spinbox_step_next
 1658              	.LVL172:
 423:lvgl/src/extra/widgets/spinbox/lv_spinbox.c ****         }
 1659              		.loc 1 423 17 is_stmt 0 view .LVU530
 1660 015e 56E7     		b	.L88
 1661              	.LVL173:
 1662              	.L118:
 421:lvgl/src/extra/widgets/spinbox/lv_spinbox.c ****             else
 1663              		.loc 1 421 17 is_stmt 1 view .LVU531
 1664 0160 2846     		mov	r0, r5
 1665 0162 FFF7FEFF 		bl	lv_spinbox_increment
 1666              	.LVL174:
 421:lvgl/src/extra/widgets/spinbox/lv_spinbox.c ****             else
 1667              		.loc 1 421 17 is_stmt 0 view .LVU532
 1668 0166 52E7     		b	.L88
 1669              	.LVL175:
 1670              	.L111:
 426:lvgl/src/extra/widgets/spinbox/lv_spinbox.c ****                 lv_spinbox_decrement(obj);
 1671              		.loc 1 426 13 is_stmt 1 view .LVU533
 426:lvgl/src/extra/widgets/spinbox/lv_spinbox.c ****                 lv_spinbox_decrement(obj);
 1672              		.loc 1 426 15 is_stmt 0 view .LVU534
 1673 0168 042E     		cmp	r6, #4
 1674 016a 03D0     		beq	.L119
 429:lvgl/src/extra/widgets/spinbox/lv_spinbox.c ****         }
 1675              		.loc 1 429 17 is_stmt 1 view .LVU535
 1676 016c 2846     		mov	r0, r5
 1677 016e FFF7FEFF 		bl	lv_spinbox_step_prev
 1678              	.LVL176:
 429:lvgl/src/extra/widgets/spinbox/lv_spinbox.c ****         }
 1679              		.loc 1 429 17 is_stmt 0 view .LVU536
 1680 0172 4CE7     		b	.L88
 1681              	.LVL177:
 1682              	.L119:
 427:lvgl/src/extra/widgets/spinbox/lv_spinbox.c ****             else
 1683              		.loc 1 427 17 is_stmt 1 view .LVU537
 1684 0174 2846     		mov	r0, r5
 1685 0176 FFF7FEFF 		bl	lv_spinbox_decrement
 1686              	.LVL178:
 427:lvgl/src/extra/widgets/spinbox/lv_spinbox.c ****             else
ARM GAS  /var/folders/21/t9g5rlb91ys800n5npymflf80000gn/T//ccl2N14m.s 			page 47


 1687              		.loc 1 427 17 is_stmt 0 view .LVU538
 1688 017a 48E7     		b	.L88
 1689              	.LVL179:
 1690              	.L112:
 432:lvgl/src/extra/widgets/spinbox/lv_spinbox.c ****         }
 1691              		.loc 1 432 13 is_stmt 1 view .LVU539
 1692 017c 2846     		mov	r0, r5
 1693 017e FFF7FEFF 		bl	lv_spinbox_increment
 1694              	.LVL180:
 432:lvgl/src/extra/widgets/spinbox/lv_spinbox.c ****         }
 1695              		.loc 1 432 13 is_stmt 0 view .LVU540
 1696 0182 44E7     		b	.L88
 1697              	.L121:
 1698              		.align	2
 1699              	.L120:
 1700 0184 00000000 		.word	lv_spinbox_class
 1701              	.LBE7:
 1702              		.cfi_endproc
 1703              	.LFE220:
 1705              		.global	lv_spinbox_class
 1706              		.section	.rodata.lv_spinbox_class,"a"
 1707              		.align	2
 1710              	lv_spinbox_class:
 1711 0000 00000000 		.word	lv_textarea_class
 1712 0004 00000000 		.word	lv_spinbox_constructor
 1713 0008 00000000 		.space	8
 1713      00000000 
 1714 0010 00000000 		.word	lv_spinbox_event
 1715 0014 8200     		.short	130
 1716 0016 0000     		.space	2
 1717 0018 81       		.byte	129
 1718 0019 07       		.byte	7
 1719 001a 00       		.byte	0
 1720 001b 00       		.space	1
 1721              		.text
 1722              	.Letext0:
 1723              		.file 2 "/usr/local/include/sys/_types/_int8_t.h"
 1724              		.file 3 "/usr/local/include/sys/_types/_int16_t.h"
 1725              		.file 4 "/usr/local/include/sys/_types/_int32_t.h"
 1726              		.file 5 "/usr/local/include/sys/_types/_int64_t.h"
 1727              		.file 6 "/usr/local/include/_types/_uint8_t.h"
 1728              		.file 7 "/usr/local/include/_types/_uint16_t.h"
 1729              		.file 8 "/usr/local/include/_types/_uint32_t.h"
 1730              		.file 9 "/usr/local/include/arm/_types.h"
 1731              		.file 10 "lvgl/src/extra/widgets/spinbox/../../../../src/misc/lv_types.h"
 1732              		.file 11 "lvgl/src/extra/widgets/spinbox/../../../../src/misc/lv_timer.h"
 1733              		.file 12 "/usr/local/include/sys/_types/_size_t.h"
 1734              		.file 13 "lvgl/src/extra/widgets/spinbox/../../../../src/hal/../draw/../misc/../font/../misc/lv_ar
 1735              		.file 14 "lvgl/src/extra/widgets/spinbox/../../../../src/hal/../draw/../misc/../font/lv_font.h"
 1736              		.file 15 "lvgl/src/extra/widgets/spinbox/../../../../src/hal/../draw/../misc/lv_color.h"
 1737              		.file 16 "lvgl/src/extra/widgets/spinbox/../../../../src/hal/../draw/../misc/lv_txt.h"
 1738              		.file 17 "lvgl/src/extra/widgets/spinbox/../../../../src/hal/../draw/../misc/lv_bidi.h"
 1739              		.file 18 "lvgl/src/extra/widgets/spinbox/../../../../src/hal/../draw/../misc/lv_style.h"
 1740              		.file 19 "lvgl/src/extra/widgets/spinbox/../../../../src/hal/../draw/lv_img_buf.h"
 1741              		.file 20 "lvgl/src/extra/widgets/spinbox/../../../../src/core/lv_obj.h"
 1742              		.file 21 "lvgl/src/extra/widgets/spinbox/../../../../src/hal/../draw/lv_draw_rect.h"
 1743              		.file 22 "lvgl/src/extra/widgets/spinbox/../../../../src/hal/../draw/lv_draw_label.h"
ARM GAS  /var/folders/21/t9g5rlb91ys800n5npymflf80000gn/T//ccl2N14m.s 			page 48


 1744              		.file 23 "lvgl/src/extra/widgets/spinbox/../../../../src/hal/../draw/lv_draw_img.h"
 1745              		.file 24 "lvgl/src/extra/widgets/spinbox/../../../../src/hal/../draw/lv_draw_line.h"
 1746              		.file 25 "lvgl/src/extra/widgets/spinbox/../../../../src/hal/../draw/lv_draw_arc.h"
 1747              		.file 26 "lvgl/src/extra/widgets/spinbox/../../../../src/hal/../draw/lv_draw_layer.h"
 1748              		.file 27 "lvgl/src/extra/widgets/spinbox/../../../../src/hal/../draw/lv_draw.h"
 1749              		.file 28 "lvgl/src/extra/widgets/spinbox/../../../../src/hal/../misc/lv_ll.h"
 1750              		.file 29 "lvgl/src/extra/widgets/spinbox/../../../../src/hal/lv_hal_disp.h"
 1751              		.file 30 "lvgl/src/extra/widgets/spinbox/../../../../src/core/lv_theme.h"
 1752              		.file 31 "lvgl/src/extra/widgets/spinbox/../../../../src/hal/lv_hal_indev.h"
 1753              		.file 32 "lvgl/src/extra/widgets/spinbox/../../../../src/core/lv_group.h"
 1754              		.file 33 "lvgl/src/extra/widgets/spinbox/../../../../src/core/lv_obj_scroll.h"
 1755              		.file 34 "lvgl/src/extra/widgets/spinbox/../../../../src/core/lv_obj_style.h"
 1756              		.file 35 "lvgl/src/extra/widgets/spinbox/../../../../src/core/lv_obj_class.h"
 1757              		.file 36 "lvgl/src/extra/widgets/spinbox/../../../../src/core/lv_event.h"
 1758              		.file 37 "lvgl/src/extra/widgets/spinbox/../../../../src/widgets/lv_bar.h"
 1759              		.file 38 "lvgl/src/extra/widgets/spinbox/../../../../src/widgets/lv_textarea.h"
 1760              		.file 39 "lvgl/src/extra/widgets/spinbox/../../../../src/extra/widgets/imgbtn/lv_imgbtn.h"
 1761              		.file 40 "lvgl/src/extra/widgets/spinbox/lv_spinbox.h"
 1762              		.file 41 "lvgl/src/extra/widgets/spinbox/../../../../src/misc/lv_printf.h"
 1763              		.file 42 "lvgl/src/extra/widgets/spinbox/../../../../src/misc/lv_mem.h"
 1764              		.file 43 "/usr/local/include/string.h"
 1765              		.file 44 "lvgl/src/extra/widgets/spinbox/../../../../src/misc/lv_math.h"
 1766              		.file 45 "lvgl/src/extra/widgets/spinbox/../../../../src/core/lv_indev.h"
ARM GAS  /var/folders/21/t9g5rlb91ys800n5npymflf80000gn/T//ccl2N14m.s 			page 49

