ARM GAS  /var/folders/21/t9g5rlb91ys800n5npymflf80000gn/T//ccdafQ6l.s 			page 1


   1              		.cpu cortex-m4
   2              		.arch armv7e-m
   3              		.fpu fpv4-sp-d16
   4              		.eabi_attribute 27, 1
   5              		.eabi_attribute 28, 1
   6              		.eabi_attribute 20, 1
   7              		.eabi_attribute 21, 1
   8              		.eabi_attribute 23, 3
   9              		.eabi_attribute 24, 1
  10              		.eabi_attribute 25, 1
  11              		.eabi_attribute 26, 1
  12              		.eabi_attribute 30, 1
  13              		.eabi_attribute 34, 1
  14              		.eabi_attribute 18, 4
  15              		.file	"lv_span.c"
  16              		.text
  17              	.Ltext0:
  18              		.cfi_sections	.debug_frame
  19              		.file 1 "lvgl/src/extra/widgets/span/lv_span.c"
  20              		.section	.text.lv_get_snippet_cnt,"ax",%progbits
  21              		.align	1
  22              		.syntax unified
  23              		.thumb
  24              		.thumb_func
  26              	lv_get_snippet_cnt:
  27              	.LFB231:
   1:lvgl/src/extra/widgets/span/lv_span.c **** /**
   2:lvgl/src/extra/widgets/span/lv_span.c ****  * @file lv_span.c
   3:lvgl/src/extra/widgets/span/lv_span.c ****  *
   4:lvgl/src/extra/widgets/span/lv_span.c ****  */
   5:lvgl/src/extra/widgets/span/lv_span.c **** 
   6:lvgl/src/extra/widgets/span/lv_span.c **** /*********************
   7:lvgl/src/extra/widgets/span/lv_span.c ****  *      INCLUDES
   8:lvgl/src/extra/widgets/span/lv_span.c ****  *********************/
   9:lvgl/src/extra/widgets/span/lv_span.c **** #include "lv_span.h"
  10:lvgl/src/extra/widgets/span/lv_span.c **** 
  11:lvgl/src/extra/widgets/span/lv_span.c **** #if LV_USE_SPAN != 0
  12:lvgl/src/extra/widgets/span/lv_span.c **** 
  13:lvgl/src/extra/widgets/span/lv_span.c **** #include "../../../misc/lv_assert.h"
  14:lvgl/src/extra/widgets/span/lv_span.c **** 
  15:lvgl/src/extra/widgets/span/lv_span.c **** /*********************
  16:lvgl/src/extra/widgets/span/lv_span.c ****  *      DEFINES
  17:lvgl/src/extra/widgets/span/lv_span.c ****  *********************/
  18:lvgl/src/extra/widgets/span/lv_span.c **** #define MY_CLASS &lv_spangroup_class
  19:lvgl/src/extra/widgets/span/lv_span.c **** 
  20:lvgl/src/extra/widgets/span/lv_span.c **** /**********************
  21:lvgl/src/extra/widgets/span/lv_span.c ****  *      TYPEDEFS
  22:lvgl/src/extra/widgets/span/lv_span.c ****  **********************/
  23:lvgl/src/extra/widgets/span/lv_span.c **** typedef struct {
  24:lvgl/src/extra/widgets/span/lv_span.c ****     lv_span_t * span;
  25:lvgl/src/extra/widgets/span/lv_span.c ****     const char * txt;
  26:lvgl/src/extra/widgets/span/lv_span.c ****     const lv_font_t * font;
  27:lvgl/src/extra/widgets/span/lv_span.c ****     uint16_t   bytes;
  28:lvgl/src/extra/widgets/span/lv_span.c ****     lv_coord_t txt_w;
  29:lvgl/src/extra/widgets/span/lv_span.c ****     lv_coord_t line_h;
  30:lvgl/src/extra/widgets/span/lv_span.c ****     lv_coord_t letter_space;
  31:lvgl/src/extra/widgets/span/lv_span.c **** } lv_snippet_t;
ARM GAS  /var/folders/21/t9g5rlb91ys800n5npymflf80000gn/T//ccdafQ6l.s 			page 2


  32:lvgl/src/extra/widgets/span/lv_span.c **** 
  33:lvgl/src/extra/widgets/span/lv_span.c **** struct _snippet_stack {
  34:lvgl/src/extra/widgets/span/lv_span.c ****     lv_snippet_t    stack[LV_SPAN_SNIPPET_STACK_SIZE];
  35:lvgl/src/extra/widgets/span/lv_span.c ****     uint16_t        index;
  36:lvgl/src/extra/widgets/span/lv_span.c **** };
  37:lvgl/src/extra/widgets/span/lv_span.c **** 
  38:lvgl/src/extra/widgets/span/lv_span.c **** /**********************
  39:lvgl/src/extra/widgets/span/lv_span.c ****  *  STATIC PROTOTYPES
  40:lvgl/src/extra/widgets/span/lv_span.c ****  **********************/
  41:lvgl/src/extra/widgets/span/lv_span.c **** static void lv_spangroup_destructor(const lv_obj_class_t * class_p, lv_obj_t * obj);
  42:lvgl/src/extra/widgets/span/lv_span.c **** static void lv_spangroup_constructor(const lv_obj_class_t * class_p, lv_obj_t * obj);
  43:lvgl/src/extra/widgets/span/lv_span.c **** static void lv_spangroup_event(const lv_obj_class_t * class_p, lv_event_t * e);
  44:lvgl/src/extra/widgets/span/lv_span.c **** static void draw_main(lv_event_t * e);
  45:lvgl/src/extra/widgets/span/lv_span.c **** static void refresh_self_size(lv_obj_t * obj);
  46:lvgl/src/extra/widgets/span/lv_span.c **** 
  47:lvgl/src/extra/widgets/span/lv_span.c **** static const lv_font_t * lv_span_get_style_text_font(lv_obj_t * par, lv_span_t * span);
  48:lvgl/src/extra/widgets/span/lv_span.c **** static lv_coord_t lv_span_get_style_text_letter_space(lv_obj_t * par, lv_span_t * span);
  49:lvgl/src/extra/widgets/span/lv_span.c **** static lv_color_t lv_span_get_style_text_color(lv_obj_t * par, lv_span_t * span);
  50:lvgl/src/extra/widgets/span/lv_span.c **** static lv_opa_t lv_span_get_style_text_opa(lv_obj_t * par, lv_span_t * span);
  51:lvgl/src/extra/widgets/span/lv_span.c **** static lv_opa_t lv_span_get_style_text_blend_mode(lv_obj_t * par, lv_span_t * span);
  52:lvgl/src/extra/widgets/span/lv_span.c **** static int32_t lv_span_get_style_text_decor(lv_obj_t * par, lv_span_t * span);
  53:lvgl/src/extra/widgets/span/lv_span.c **** 
  54:lvgl/src/extra/widgets/span/lv_span.c **** static inline void span_text_check(const char ** text);
  55:lvgl/src/extra/widgets/span/lv_span.c **** static void lv_draw_span(lv_obj_t * obj, lv_draw_ctx_t * draw_ctx);
  56:lvgl/src/extra/widgets/span/lv_span.c **** static bool lv_txt_get_snippet(const char * txt, const lv_font_t * font, lv_coord_t letter_space,
  57:lvgl/src/extra/widgets/span/lv_span.c ****                                lv_coord_t max_width, lv_text_flag_t flag, lv_coord_t * use_width,
  58:lvgl/src/extra/widgets/span/lv_span.c ****                                uint32_t * end_ofs);
  59:lvgl/src/extra/widgets/span/lv_span.c **** 
  60:lvgl/src/extra/widgets/span/lv_span.c **** static void lv_snippet_clear(void);
  61:lvgl/src/extra/widgets/span/lv_span.c **** static uint16_t lv_get_snippet_cnt(void);
  62:lvgl/src/extra/widgets/span/lv_span.c **** static void lv_snippet_push(lv_snippet_t * item);
  63:lvgl/src/extra/widgets/span/lv_span.c **** static lv_snippet_t * lv_get_snippet(uint16_t index);
  64:lvgl/src/extra/widgets/span/lv_span.c **** static lv_coord_t convert_indent_pct(lv_obj_t * spans, lv_coord_t width);
  65:lvgl/src/extra/widgets/span/lv_span.c **** 
  66:lvgl/src/extra/widgets/span/lv_span.c **** /**********************
  67:lvgl/src/extra/widgets/span/lv_span.c ****  *  STATIC VARIABLES
  68:lvgl/src/extra/widgets/span/lv_span.c ****  **********************/
  69:lvgl/src/extra/widgets/span/lv_span.c **** static struct _snippet_stack snippet_stack;
  70:lvgl/src/extra/widgets/span/lv_span.c **** 
  71:lvgl/src/extra/widgets/span/lv_span.c **** const lv_obj_class_t lv_spangroup_class  = {
  72:lvgl/src/extra/widgets/span/lv_span.c ****     .base_class = &lv_obj_class,
  73:lvgl/src/extra/widgets/span/lv_span.c ****     .constructor_cb = lv_spangroup_constructor,
  74:lvgl/src/extra/widgets/span/lv_span.c ****     .destructor_cb = lv_spangroup_destructor,
  75:lvgl/src/extra/widgets/span/lv_span.c ****     .event_cb = lv_spangroup_event,
  76:lvgl/src/extra/widgets/span/lv_span.c ****     .instance_size = sizeof(lv_spangroup_t),
  77:lvgl/src/extra/widgets/span/lv_span.c ****     .width_def = LV_SIZE_CONTENT,
  78:lvgl/src/extra/widgets/span/lv_span.c ****     .height_def = LV_SIZE_CONTENT,
  79:lvgl/src/extra/widgets/span/lv_span.c **** };
  80:lvgl/src/extra/widgets/span/lv_span.c **** 
  81:lvgl/src/extra/widgets/span/lv_span.c **** /**********************
  82:lvgl/src/extra/widgets/span/lv_span.c ****  *      MACROS
  83:lvgl/src/extra/widgets/span/lv_span.c ****  **********************/
  84:lvgl/src/extra/widgets/span/lv_span.c **** 
  85:lvgl/src/extra/widgets/span/lv_span.c **** /**********************
  86:lvgl/src/extra/widgets/span/lv_span.c ****  *   GLOBAL FUNCTIONS
  87:lvgl/src/extra/widgets/span/lv_span.c ****  **********************/
  88:lvgl/src/extra/widgets/span/lv_span.c **** 
ARM GAS  /var/folders/21/t9g5rlb91ys800n5npymflf80000gn/T//ccdafQ6l.s 			page 3


  89:lvgl/src/extra/widgets/span/lv_span.c **** lv_obj_t * lv_spangroup_create(lv_obj_t * par)
  90:lvgl/src/extra/widgets/span/lv_span.c **** {
  91:lvgl/src/extra/widgets/span/lv_span.c ****     lv_obj_t * obj = lv_obj_class_create_obj(&lv_spangroup_class, par);
  92:lvgl/src/extra/widgets/span/lv_span.c ****     lv_obj_class_init_obj(obj);
  93:lvgl/src/extra/widgets/span/lv_span.c ****     return obj;
  94:lvgl/src/extra/widgets/span/lv_span.c **** }
  95:lvgl/src/extra/widgets/span/lv_span.c **** 
  96:lvgl/src/extra/widgets/span/lv_span.c **** lv_span_t * lv_spangroup_new_span(lv_obj_t * obj)
  97:lvgl/src/extra/widgets/span/lv_span.c **** {
  98:lvgl/src/extra/widgets/span/lv_span.c ****     if(obj == NULL) {
  99:lvgl/src/extra/widgets/span/lv_span.c ****         return NULL;
 100:lvgl/src/extra/widgets/span/lv_span.c ****     }
 101:lvgl/src/extra/widgets/span/lv_span.c **** 
 102:lvgl/src/extra/widgets/span/lv_span.c ****     LV_ASSERT_OBJ(obj, MY_CLASS);
 103:lvgl/src/extra/widgets/span/lv_span.c ****     lv_spangroup_t * spans = (lv_spangroup_t *)obj;
 104:lvgl/src/extra/widgets/span/lv_span.c ****     lv_span_t * span = _lv_ll_ins_tail(&spans->child_ll);
 105:lvgl/src/extra/widgets/span/lv_span.c ****     LV_ASSERT_MALLOC(span);
 106:lvgl/src/extra/widgets/span/lv_span.c **** 
 107:lvgl/src/extra/widgets/span/lv_span.c ****     lv_style_init(&span->style);
 108:lvgl/src/extra/widgets/span/lv_span.c ****     span->txt = (char *)"";
 109:lvgl/src/extra/widgets/span/lv_span.c ****     span->static_flag = 1;
 110:lvgl/src/extra/widgets/span/lv_span.c ****     span->spangroup = obj;
 111:lvgl/src/extra/widgets/span/lv_span.c **** 
 112:lvgl/src/extra/widgets/span/lv_span.c ****     refresh_self_size(obj);
 113:lvgl/src/extra/widgets/span/lv_span.c **** 
 114:lvgl/src/extra/widgets/span/lv_span.c ****     return span;
 115:lvgl/src/extra/widgets/span/lv_span.c **** }
 116:lvgl/src/extra/widgets/span/lv_span.c **** 
 117:lvgl/src/extra/widgets/span/lv_span.c **** void lv_spangroup_del_span(lv_obj_t * obj, lv_span_t * span)
 118:lvgl/src/extra/widgets/span/lv_span.c **** {
 119:lvgl/src/extra/widgets/span/lv_span.c ****     if(obj == NULL || span == NULL) {
 120:lvgl/src/extra/widgets/span/lv_span.c ****         return;
 121:lvgl/src/extra/widgets/span/lv_span.c ****     }
 122:lvgl/src/extra/widgets/span/lv_span.c **** 
 123:lvgl/src/extra/widgets/span/lv_span.c ****     LV_ASSERT_OBJ(obj, MY_CLASS);
 124:lvgl/src/extra/widgets/span/lv_span.c ****     lv_spangroup_t * spans = (lv_spangroup_t *)obj;
 125:lvgl/src/extra/widgets/span/lv_span.c ****     lv_span_t * cur_span;
 126:lvgl/src/extra/widgets/span/lv_span.c ****     _LV_LL_READ(&spans->child_ll, cur_span) {
 127:lvgl/src/extra/widgets/span/lv_span.c ****         if(cur_span == span) {
 128:lvgl/src/extra/widgets/span/lv_span.c ****             _lv_ll_remove(&spans->child_ll, cur_span);
 129:lvgl/src/extra/widgets/span/lv_span.c ****             if(cur_span->txt && cur_span->static_flag == 0) {
 130:lvgl/src/extra/widgets/span/lv_span.c ****                 lv_mem_free(cur_span->txt);
 131:lvgl/src/extra/widgets/span/lv_span.c ****             }
 132:lvgl/src/extra/widgets/span/lv_span.c ****             lv_style_reset(&cur_span->style);
 133:lvgl/src/extra/widgets/span/lv_span.c ****             lv_mem_free(cur_span);
 134:lvgl/src/extra/widgets/span/lv_span.c ****             break;
 135:lvgl/src/extra/widgets/span/lv_span.c ****         }
 136:lvgl/src/extra/widgets/span/lv_span.c ****     }
 137:lvgl/src/extra/widgets/span/lv_span.c **** 
 138:lvgl/src/extra/widgets/span/lv_span.c ****     refresh_self_size(obj);
 139:lvgl/src/extra/widgets/span/lv_span.c **** }
 140:lvgl/src/extra/widgets/span/lv_span.c **** 
 141:lvgl/src/extra/widgets/span/lv_span.c **** /*=====================
 142:lvgl/src/extra/widgets/span/lv_span.c ****  * Setter functions
 143:lvgl/src/extra/widgets/span/lv_span.c ****  *====================*/
 144:lvgl/src/extra/widgets/span/lv_span.c **** 
 145:lvgl/src/extra/widgets/span/lv_span.c **** void lv_span_set_text(lv_span_t * span, const char * text)
ARM GAS  /var/folders/21/t9g5rlb91ys800n5npymflf80000gn/T//ccdafQ6l.s 			page 4


 146:lvgl/src/extra/widgets/span/lv_span.c **** {
 147:lvgl/src/extra/widgets/span/lv_span.c ****     if(span == NULL || text == NULL) {
 148:lvgl/src/extra/widgets/span/lv_span.c ****         return;
 149:lvgl/src/extra/widgets/span/lv_span.c ****     }
 150:lvgl/src/extra/widgets/span/lv_span.c **** 
 151:lvgl/src/extra/widgets/span/lv_span.c ****     if(span->txt == NULL || span->static_flag == 1) {
 152:lvgl/src/extra/widgets/span/lv_span.c ****         span->txt = lv_mem_alloc(strlen(text) + 1);
 153:lvgl/src/extra/widgets/span/lv_span.c ****     }
 154:lvgl/src/extra/widgets/span/lv_span.c ****     else {
 155:lvgl/src/extra/widgets/span/lv_span.c ****         span->txt = lv_mem_realloc(span->txt, strlen(text) + 1);
 156:lvgl/src/extra/widgets/span/lv_span.c ****     }
 157:lvgl/src/extra/widgets/span/lv_span.c ****     span->static_flag = 0;
 158:lvgl/src/extra/widgets/span/lv_span.c ****     strcpy(span->txt, text);
 159:lvgl/src/extra/widgets/span/lv_span.c **** 
 160:lvgl/src/extra/widgets/span/lv_span.c ****     refresh_self_size(span->spangroup);
 161:lvgl/src/extra/widgets/span/lv_span.c **** }
 162:lvgl/src/extra/widgets/span/lv_span.c **** 
 163:lvgl/src/extra/widgets/span/lv_span.c **** void lv_span_set_text_static(lv_span_t * span, const char * text)
 164:lvgl/src/extra/widgets/span/lv_span.c **** {
 165:lvgl/src/extra/widgets/span/lv_span.c ****     if(span == NULL || text == NULL) {
 166:lvgl/src/extra/widgets/span/lv_span.c ****         return;
 167:lvgl/src/extra/widgets/span/lv_span.c ****     }
 168:lvgl/src/extra/widgets/span/lv_span.c **** 
 169:lvgl/src/extra/widgets/span/lv_span.c ****     if(span->txt && span->static_flag == 0) {
 170:lvgl/src/extra/widgets/span/lv_span.c ****         lv_mem_free(span->txt);
 171:lvgl/src/extra/widgets/span/lv_span.c ****     }
 172:lvgl/src/extra/widgets/span/lv_span.c ****     span->static_flag = 1;
 173:lvgl/src/extra/widgets/span/lv_span.c ****     span->txt = (char *)text;
 174:lvgl/src/extra/widgets/span/lv_span.c **** 
 175:lvgl/src/extra/widgets/span/lv_span.c ****     refresh_self_size(span->spangroup);
 176:lvgl/src/extra/widgets/span/lv_span.c **** }
 177:lvgl/src/extra/widgets/span/lv_span.c **** 
 178:lvgl/src/extra/widgets/span/lv_span.c **** void lv_spangroup_set_align(lv_obj_t * obj, lv_text_align_t align)
 179:lvgl/src/extra/widgets/span/lv_span.c **** {
 180:lvgl/src/extra/widgets/span/lv_span.c ****     lv_obj_set_style_text_align(obj, align, LV_PART_MAIN);
 181:lvgl/src/extra/widgets/span/lv_span.c **** }
 182:lvgl/src/extra/widgets/span/lv_span.c **** 
 183:lvgl/src/extra/widgets/span/lv_span.c **** void lv_spangroup_set_overflow(lv_obj_t * obj, lv_span_overflow_t overflow)
 184:lvgl/src/extra/widgets/span/lv_span.c **** {
 185:lvgl/src/extra/widgets/span/lv_span.c ****     LV_ASSERT_OBJ(obj, MY_CLASS);
 186:lvgl/src/extra/widgets/span/lv_span.c ****     lv_spangroup_t * spans = (lv_spangroup_t *)obj;
 187:lvgl/src/extra/widgets/span/lv_span.c ****     if(spans->overflow == overflow) return;
 188:lvgl/src/extra/widgets/span/lv_span.c **** 
 189:lvgl/src/extra/widgets/span/lv_span.c ****     spans->overflow = overflow;
 190:lvgl/src/extra/widgets/span/lv_span.c ****     lv_obj_invalidate(obj);
 191:lvgl/src/extra/widgets/span/lv_span.c **** }
 192:lvgl/src/extra/widgets/span/lv_span.c **** 
 193:lvgl/src/extra/widgets/span/lv_span.c **** void lv_spangroup_set_indent(lv_obj_t * obj, lv_coord_t indent)
 194:lvgl/src/extra/widgets/span/lv_span.c **** {
 195:lvgl/src/extra/widgets/span/lv_span.c ****     LV_ASSERT_OBJ(obj, MY_CLASS);
 196:lvgl/src/extra/widgets/span/lv_span.c ****     lv_spangroup_t * spans = (lv_spangroup_t *)obj;
 197:lvgl/src/extra/widgets/span/lv_span.c ****     if(spans->indent == indent) return;
 198:lvgl/src/extra/widgets/span/lv_span.c **** 
 199:lvgl/src/extra/widgets/span/lv_span.c ****     spans->indent = indent;
 200:lvgl/src/extra/widgets/span/lv_span.c **** 
 201:lvgl/src/extra/widgets/span/lv_span.c ****     refresh_self_size(obj);
 202:lvgl/src/extra/widgets/span/lv_span.c **** }
ARM GAS  /var/folders/21/t9g5rlb91ys800n5npymflf80000gn/T//ccdafQ6l.s 			page 5


 203:lvgl/src/extra/widgets/span/lv_span.c **** 
 204:lvgl/src/extra/widgets/span/lv_span.c **** void lv_spangroup_set_mode(lv_obj_t * obj, lv_span_mode_t mode)
 205:lvgl/src/extra/widgets/span/lv_span.c **** {
 206:lvgl/src/extra/widgets/span/lv_span.c ****     LV_ASSERT_OBJ(obj, MY_CLASS);
 207:lvgl/src/extra/widgets/span/lv_span.c ****     lv_spangroup_t * spans = (lv_spangroup_t *)obj;
 208:lvgl/src/extra/widgets/span/lv_span.c ****     spans->mode = mode;
 209:lvgl/src/extra/widgets/span/lv_span.c ****     lv_spangroup_refr_mode(obj);
 210:lvgl/src/extra/widgets/span/lv_span.c **** }
 211:lvgl/src/extra/widgets/span/lv_span.c **** 
 212:lvgl/src/extra/widgets/span/lv_span.c **** void lv_spangroup_set_lines(lv_obj_t * obj, int32_t lines)
 213:lvgl/src/extra/widgets/span/lv_span.c **** {
 214:lvgl/src/extra/widgets/span/lv_span.c ****     LV_ASSERT_OBJ(obj, MY_CLASS);
 215:lvgl/src/extra/widgets/span/lv_span.c ****     lv_spangroup_t * spans = (lv_spangroup_t *)obj;
 216:lvgl/src/extra/widgets/span/lv_span.c ****     spans->lines = lines;
 217:lvgl/src/extra/widgets/span/lv_span.c ****     lv_spangroup_refr_mode(obj);
 218:lvgl/src/extra/widgets/span/lv_span.c **** }
 219:lvgl/src/extra/widgets/span/lv_span.c **** 
 220:lvgl/src/extra/widgets/span/lv_span.c **** /*=====================
 221:lvgl/src/extra/widgets/span/lv_span.c ****  * Getter functions
 222:lvgl/src/extra/widgets/span/lv_span.c ****  *====================*/
 223:lvgl/src/extra/widgets/span/lv_span.c **** 
 224:lvgl/src/extra/widgets/span/lv_span.c **** lv_span_t * lv_spangroup_get_child(const lv_obj_t * obj, int32_t id)
 225:lvgl/src/extra/widgets/span/lv_span.c **** {
 226:lvgl/src/extra/widgets/span/lv_span.c ****     if(obj == NULL) {
 227:lvgl/src/extra/widgets/span/lv_span.c ****         return NULL;
 228:lvgl/src/extra/widgets/span/lv_span.c ****     }
 229:lvgl/src/extra/widgets/span/lv_span.c **** 
 230:lvgl/src/extra/widgets/span/lv_span.c ****     LV_ASSERT_OBJ(obj, MY_CLASS);
 231:lvgl/src/extra/widgets/span/lv_span.c ****     lv_spangroup_t * spans = (lv_spangroup_t *)obj;
 232:lvgl/src/extra/widgets/span/lv_span.c ****     lv_ll_t * linked_list = &spans->child_ll;
 233:lvgl/src/extra/widgets/span/lv_span.c **** 
 234:lvgl/src/extra/widgets/span/lv_span.c ****     bool traverse_forwards = (id >= 0);
 235:lvgl/src/extra/widgets/span/lv_span.c ****     int32_t cur_idx = 0;
 236:lvgl/src/extra/widgets/span/lv_span.c ****     lv_ll_node_t * cur_node = linked_list->head;
 237:lvgl/src/extra/widgets/span/lv_span.c **** 
 238:lvgl/src/extra/widgets/span/lv_span.c ****     /*If using a negative index, start from the tail and use cur -1 to indicate the end*/
 239:lvgl/src/extra/widgets/span/lv_span.c ****     if(!traverse_forwards) {
 240:lvgl/src/extra/widgets/span/lv_span.c ****         cur_idx = -1;
 241:lvgl/src/extra/widgets/span/lv_span.c ****         cur_node = linked_list->tail;
 242:lvgl/src/extra/widgets/span/lv_span.c ****     }
 243:lvgl/src/extra/widgets/span/lv_span.c **** 
 244:lvgl/src/extra/widgets/span/lv_span.c ****     while(cur_node != NULL) {
 245:lvgl/src/extra/widgets/span/lv_span.c ****         if(cur_idx == id) {
 246:lvgl/src/extra/widgets/span/lv_span.c ****             return (lv_span_t *) cur_node;
 247:lvgl/src/extra/widgets/span/lv_span.c ****         }
 248:lvgl/src/extra/widgets/span/lv_span.c ****         if(traverse_forwards) {
 249:lvgl/src/extra/widgets/span/lv_span.c ****             cur_node = (lv_ll_node_t *) _lv_ll_get_next(linked_list, cur_node);
 250:lvgl/src/extra/widgets/span/lv_span.c ****             cur_idx++;
 251:lvgl/src/extra/widgets/span/lv_span.c ****         }
 252:lvgl/src/extra/widgets/span/lv_span.c ****         else {
 253:lvgl/src/extra/widgets/span/lv_span.c ****             cur_node = (lv_ll_node_t *) _lv_ll_get_prev(linked_list, cur_node);
 254:lvgl/src/extra/widgets/span/lv_span.c ****             cur_idx--;
 255:lvgl/src/extra/widgets/span/lv_span.c ****         }
 256:lvgl/src/extra/widgets/span/lv_span.c ****     }
 257:lvgl/src/extra/widgets/span/lv_span.c **** 
 258:lvgl/src/extra/widgets/span/lv_span.c ****     return NULL;
 259:lvgl/src/extra/widgets/span/lv_span.c **** }
ARM GAS  /var/folders/21/t9g5rlb91ys800n5npymflf80000gn/T//ccdafQ6l.s 			page 6


 260:lvgl/src/extra/widgets/span/lv_span.c **** 
 261:lvgl/src/extra/widgets/span/lv_span.c **** uint32_t lv_spangroup_get_child_cnt(const lv_obj_t * obj)
 262:lvgl/src/extra/widgets/span/lv_span.c **** {
 263:lvgl/src/extra/widgets/span/lv_span.c ****     LV_ASSERT_OBJ(obj, MY_CLASS);
 264:lvgl/src/extra/widgets/span/lv_span.c **** 
 265:lvgl/src/extra/widgets/span/lv_span.c ****     if(obj == NULL) {
 266:lvgl/src/extra/widgets/span/lv_span.c ****         return 0;
 267:lvgl/src/extra/widgets/span/lv_span.c ****     }
 268:lvgl/src/extra/widgets/span/lv_span.c **** 
 269:lvgl/src/extra/widgets/span/lv_span.c ****     LV_ASSERT_OBJ(obj, MY_CLASS);
 270:lvgl/src/extra/widgets/span/lv_span.c ****     lv_spangroup_t * spans = (lv_spangroup_t *)obj;
 271:lvgl/src/extra/widgets/span/lv_span.c ****     return _lv_ll_get_len(&(spans->child_ll));
 272:lvgl/src/extra/widgets/span/lv_span.c **** }
 273:lvgl/src/extra/widgets/span/lv_span.c **** 
 274:lvgl/src/extra/widgets/span/lv_span.c **** lv_text_align_t lv_spangroup_get_align(lv_obj_t * obj)
 275:lvgl/src/extra/widgets/span/lv_span.c **** {
 276:lvgl/src/extra/widgets/span/lv_span.c ****     return lv_obj_get_style_text_align(obj, LV_PART_MAIN);
 277:lvgl/src/extra/widgets/span/lv_span.c **** }
 278:lvgl/src/extra/widgets/span/lv_span.c **** 
 279:lvgl/src/extra/widgets/span/lv_span.c **** lv_span_overflow_t lv_spangroup_get_overflow(lv_obj_t * obj)
 280:lvgl/src/extra/widgets/span/lv_span.c **** {
 281:lvgl/src/extra/widgets/span/lv_span.c ****     LV_ASSERT_OBJ(obj, MY_CLASS);
 282:lvgl/src/extra/widgets/span/lv_span.c ****     lv_spangroup_t * spans = (lv_spangroup_t *)obj;
 283:lvgl/src/extra/widgets/span/lv_span.c ****     return spans->overflow;
 284:lvgl/src/extra/widgets/span/lv_span.c **** }
 285:lvgl/src/extra/widgets/span/lv_span.c **** 
 286:lvgl/src/extra/widgets/span/lv_span.c **** lv_coord_t lv_spangroup_get_indent(lv_obj_t * obj)
 287:lvgl/src/extra/widgets/span/lv_span.c **** {
 288:lvgl/src/extra/widgets/span/lv_span.c ****     LV_ASSERT_OBJ(obj, MY_CLASS);
 289:lvgl/src/extra/widgets/span/lv_span.c ****     lv_spangroup_t * spans = (lv_spangroup_t *)obj;
 290:lvgl/src/extra/widgets/span/lv_span.c ****     return spans->indent;
 291:lvgl/src/extra/widgets/span/lv_span.c **** }
 292:lvgl/src/extra/widgets/span/lv_span.c **** 
 293:lvgl/src/extra/widgets/span/lv_span.c **** lv_span_mode_t lv_spangroup_get_mode(lv_obj_t * obj)
 294:lvgl/src/extra/widgets/span/lv_span.c **** {
 295:lvgl/src/extra/widgets/span/lv_span.c ****     LV_ASSERT_OBJ(obj, MY_CLASS);
 296:lvgl/src/extra/widgets/span/lv_span.c ****     lv_spangroup_t * spans = (lv_spangroup_t *)obj;
 297:lvgl/src/extra/widgets/span/lv_span.c ****     return spans->mode;
 298:lvgl/src/extra/widgets/span/lv_span.c **** }
 299:lvgl/src/extra/widgets/span/lv_span.c **** 
 300:lvgl/src/extra/widgets/span/lv_span.c **** int32_t lv_spangroup_get_lines(lv_obj_t * obj)
 301:lvgl/src/extra/widgets/span/lv_span.c **** {
 302:lvgl/src/extra/widgets/span/lv_span.c ****     LV_ASSERT_OBJ(obj, MY_CLASS);
 303:lvgl/src/extra/widgets/span/lv_span.c ****     lv_spangroup_t * spans = (lv_spangroup_t *)obj;
 304:lvgl/src/extra/widgets/span/lv_span.c ****     return spans->lines;
 305:lvgl/src/extra/widgets/span/lv_span.c **** }
 306:lvgl/src/extra/widgets/span/lv_span.c **** 
 307:lvgl/src/extra/widgets/span/lv_span.c **** void lv_spangroup_refr_mode(lv_obj_t * obj)
 308:lvgl/src/extra/widgets/span/lv_span.c **** {
 309:lvgl/src/extra/widgets/span/lv_span.c ****     LV_ASSERT_OBJ(obj, MY_CLASS);
 310:lvgl/src/extra/widgets/span/lv_span.c ****     lv_spangroup_t * spans = (lv_spangroup_t *)obj;
 311:lvgl/src/extra/widgets/span/lv_span.c **** 
 312:lvgl/src/extra/widgets/span/lv_span.c ****     if(spans->mode == LV_SPAN_MODE_EXPAND) {
 313:lvgl/src/extra/widgets/span/lv_span.c ****         lv_obj_set_width(obj, LV_SIZE_CONTENT);
 314:lvgl/src/extra/widgets/span/lv_span.c ****         lv_obj_set_height(obj, LV_SIZE_CONTENT);
 315:lvgl/src/extra/widgets/span/lv_span.c ****     }
 316:lvgl/src/extra/widgets/span/lv_span.c ****     else if(spans->mode == LV_SPAN_MODE_BREAK) {
ARM GAS  /var/folders/21/t9g5rlb91ys800n5npymflf80000gn/T//ccdafQ6l.s 			page 7


 317:lvgl/src/extra/widgets/span/lv_span.c ****         if(lv_obj_get_style_width(obj, LV_PART_MAIN) == LV_SIZE_CONTENT) {
 318:lvgl/src/extra/widgets/span/lv_span.c ****             lv_obj_set_width(obj, 100);
 319:lvgl/src/extra/widgets/span/lv_span.c ****         }
 320:lvgl/src/extra/widgets/span/lv_span.c ****         lv_obj_set_height(obj, LV_SIZE_CONTENT);
 321:lvgl/src/extra/widgets/span/lv_span.c ****     }
 322:lvgl/src/extra/widgets/span/lv_span.c ****     else if(spans->mode == LV_SPAN_MODE_FIXED) {
 323:lvgl/src/extra/widgets/span/lv_span.c ****         /* use this mode, The user needs to set the size. */
 324:lvgl/src/extra/widgets/span/lv_span.c ****         /* This is just to prevent an infinite loop. */
 325:lvgl/src/extra/widgets/span/lv_span.c ****         if(lv_obj_get_style_width(obj, LV_PART_MAIN) == LV_SIZE_CONTENT) {
 326:lvgl/src/extra/widgets/span/lv_span.c ****             lv_obj_set_width(obj, 100);
 327:lvgl/src/extra/widgets/span/lv_span.c ****         }
 328:lvgl/src/extra/widgets/span/lv_span.c ****         if(lv_obj_get_style_height(obj, LV_PART_MAIN) == LV_SIZE_CONTENT) {
 329:lvgl/src/extra/widgets/span/lv_span.c ****             lv_coord_t width = lv_obj_get_style_width(obj, LV_PART_MAIN);
 330:lvgl/src/extra/widgets/span/lv_span.c ****             if(LV_COORD_IS_PCT(width)) {
 331:lvgl/src/extra/widgets/span/lv_span.c ****                 width = 100;
 332:lvgl/src/extra/widgets/span/lv_span.c ****             }
 333:lvgl/src/extra/widgets/span/lv_span.c ****             lv_coord_t height = lv_spangroup_get_expand_height(obj, width);
 334:lvgl/src/extra/widgets/span/lv_span.c ****             lv_obj_set_content_height(obj, height);
 335:lvgl/src/extra/widgets/span/lv_span.c ****         }
 336:lvgl/src/extra/widgets/span/lv_span.c ****     }
 337:lvgl/src/extra/widgets/span/lv_span.c **** 
 338:lvgl/src/extra/widgets/span/lv_span.c ****     refresh_self_size(obj);
 339:lvgl/src/extra/widgets/span/lv_span.c **** }
 340:lvgl/src/extra/widgets/span/lv_span.c **** 
 341:lvgl/src/extra/widgets/span/lv_span.c **** lv_coord_t lv_spangroup_get_max_line_h(lv_obj_t * obj)
 342:lvgl/src/extra/widgets/span/lv_span.c **** {
 343:lvgl/src/extra/widgets/span/lv_span.c ****     LV_ASSERT_OBJ(obj, MY_CLASS);
 344:lvgl/src/extra/widgets/span/lv_span.c ****     lv_spangroup_t * spans = (lv_spangroup_t *)obj;
 345:lvgl/src/extra/widgets/span/lv_span.c **** 
 346:lvgl/src/extra/widgets/span/lv_span.c ****     lv_coord_t max_line_h = 0;
 347:lvgl/src/extra/widgets/span/lv_span.c ****     lv_span_t * cur_span;
 348:lvgl/src/extra/widgets/span/lv_span.c ****     _LV_LL_READ(&spans->child_ll, cur_span) {
 349:lvgl/src/extra/widgets/span/lv_span.c ****         const lv_font_t * font = lv_span_get_style_text_font(obj, cur_span);
 350:lvgl/src/extra/widgets/span/lv_span.c ****         lv_coord_t line_h = lv_font_get_line_height(font);
 351:lvgl/src/extra/widgets/span/lv_span.c ****         if(line_h > max_line_h) {
 352:lvgl/src/extra/widgets/span/lv_span.c ****             max_line_h = line_h;
 353:lvgl/src/extra/widgets/span/lv_span.c ****         }
 354:lvgl/src/extra/widgets/span/lv_span.c ****     }
 355:lvgl/src/extra/widgets/span/lv_span.c **** 
 356:lvgl/src/extra/widgets/span/lv_span.c ****     return max_line_h;
 357:lvgl/src/extra/widgets/span/lv_span.c **** }
 358:lvgl/src/extra/widgets/span/lv_span.c **** 
 359:lvgl/src/extra/widgets/span/lv_span.c **** uint32_t lv_spangroup_get_expand_width(lv_obj_t * obj, uint32_t max_width)
 360:lvgl/src/extra/widgets/span/lv_span.c **** {
 361:lvgl/src/extra/widgets/span/lv_span.c ****     LV_ASSERT_OBJ(obj, MY_CLASS);
 362:lvgl/src/extra/widgets/span/lv_span.c ****     lv_spangroup_t * spans = (lv_spangroup_t *)obj;
 363:lvgl/src/extra/widgets/span/lv_span.c **** 
 364:lvgl/src/extra/widgets/span/lv_span.c ****     if(_lv_ll_get_head(&spans->child_ll) == NULL) {
 365:lvgl/src/extra/widgets/span/lv_span.c ****         return 0;
 366:lvgl/src/extra/widgets/span/lv_span.c ****     }
 367:lvgl/src/extra/widgets/span/lv_span.c **** 
 368:lvgl/src/extra/widgets/span/lv_span.c ****     uint32_t width = LV_COORD_IS_PCT(spans->indent) ? 0 : spans->indent;
 369:lvgl/src/extra/widgets/span/lv_span.c ****     lv_span_t * cur_span;
 370:lvgl/src/extra/widgets/span/lv_span.c ****     lv_coord_t letter_space = 0;
 371:lvgl/src/extra/widgets/span/lv_span.c ****     _LV_LL_READ(&spans->child_ll, cur_span) {
 372:lvgl/src/extra/widgets/span/lv_span.c ****         const lv_font_t * font = lv_span_get_style_text_font(obj, cur_span);
 373:lvgl/src/extra/widgets/span/lv_span.c ****         letter_space = lv_span_get_style_text_letter_space(obj, cur_span);
ARM GAS  /var/folders/21/t9g5rlb91ys800n5npymflf80000gn/T//ccdafQ6l.s 			page 8


 374:lvgl/src/extra/widgets/span/lv_span.c ****         uint32_t j = 0;
 375:lvgl/src/extra/widgets/span/lv_span.c ****         const char * cur_txt = cur_span->txt;
 376:lvgl/src/extra/widgets/span/lv_span.c ****         span_text_check(&cur_txt);
 377:lvgl/src/extra/widgets/span/lv_span.c ****         while(cur_txt[j] != '\0') {
 378:lvgl/src/extra/widgets/span/lv_span.c ****             if(max_width > 0 && width >= max_width) {
 379:lvgl/src/extra/widgets/span/lv_span.c ****                 return max_width;
 380:lvgl/src/extra/widgets/span/lv_span.c ****             }
 381:lvgl/src/extra/widgets/span/lv_span.c ****             uint32_t letter      = _lv_txt_encoded_next(cur_txt, &j);
 382:lvgl/src/extra/widgets/span/lv_span.c ****             uint32_t letter_next = _lv_txt_encoded_next(&cur_txt[j], NULL);
 383:lvgl/src/extra/widgets/span/lv_span.c ****             uint16_t letter_w = lv_font_get_glyph_width(font, letter, letter_next);
 384:lvgl/src/extra/widgets/span/lv_span.c ****             width = width + letter_w + letter_space;
 385:lvgl/src/extra/widgets/span/lv_span.c ****         }
 386:lvgl/src/extra/widgets/span/lv_span.c ****     }
 387:lvgl/src/extra/widgets/span/lv_span.c **** 
 388:lvgl/src/extra/widgets/span/lv_span.c ****     return width - letter_space;
 389:lvgl/src/extra/widgets/span/lv_span.c **** }
 390:lvgl/src/extra/widgets/span/lv_span.c **** 
 391:lvgl/src/extra/widgets/span/lv_span.c **** lv_coord_t lv_spangroup_get_expand_height(lv_obj_t * obj, lv_coord_t width)
 392:lvgl/src/extra/widgets/span/lv_span.c **** {
 393:lvgl/src/extra/widgets/span/lv_span.c ****     LV_ASSERT_OBJ(obj, MY_CLASS);
 394:lvgl/src/extra/widgets/span/lv_span.c ****     lv_spangroup_t * spans = (lv_spangroup_t *)obj;
 395:lvgl/src/extra/widgets/span/lv_span.c ****     if(_lv_ll_get_head(&spans->child_ll) == NULL || width <= 0) {
 396:lvgl/src/extra/widgets/span/lv_span.c ****         return 0;
 397:lvgl/src/extra/widgets/span/lv_span.c ****     }
 398:lvgl/src/extra/widgets/span/lv_span.c **** 
 399:lvgl/src/extra/widgets/span/lv_span.c ****     /* init draw variable */
 400:lvgl/src/extra/widgets/span/lv_span.c ****     lv_text_flag_t txt_flag = LV_TEXT_FLAG_NONE;
 401:lvgl/src/extra/widgets/span/lv_span.c ****     lv_coord_t line_space = lv_obj_get_style_text_line_space(obj, LV_PART_MAIN);
 402:lvgl/src/extra/widgets/span/lv_span.c ****     lv_coord_t max_width = width;
 403:lvgl/src/extra/widgets/span/lv_span.c ****     lv_coord_t indent = convert_indent_pct(obj, max_width);
 404:lvgl/src/extra/widgets/span/lv_span.c ****     lv_coord_t max_w  = max_width - indent; /* first line need minus indent */
 405:lvgl/src/extra/widgets/span/lv_span.c **** 
 406:lvgl/src/extra/widgets/span/lv_span.c ****     /* coords of draw span-txt */
 407:lvgl/src/extra/widgets/span/lv_span.c ****     lv_point_t txt_pos;
 408:lvgl/src/extra/widgets/span/lv_span.c ****     txt_pos.y = 0;
 409:lvgl/src/extra/widgets/span/lv_span.c ****     txt_pos.x = 0 + indent; /* first line need add indent */
 410:lvgl/src/extra/widgets/span/lv_span.c **** 
 411:lvgl/src/extra/widgets/span/lv_span.c ****     lv_span_t * cur_span = _lv_ll_get_head(&spans->child_ll);
 412:lvgl/src/extra/widgets/span/lv_span.c ****     const char * cur_txt = cur_span->txt;
 413:lvgl/src/extra/widgets/span/lv_span.c ****     span_text_check(&cur_txt);
 414:lvgl/src/extra/widgets/span/lv_span.c ****     uint32_t cur_txt_ofs = 0;
 415:lvgl/src/extra/widgets/span/lv_span.c ****     lv_snippet_t snippet;   /* use to save cur_span info and push it to stack */
 416:lvgl/src/extra/widgets/span/lv_span.c ****     memset(&snippet, 0, sizeof(snippet));
 417:lvgl/src/extra/widgets/span/lv_span.c **** 
 418:lvgl/src/extra/widgets/span/lv_span.c ****     int32_t line_cnt = 0;
 419:lvgl/src/extra/widgets/span/lv_span.c ****     int32_t lines = spans->lines < 0 ? INT32_MAX : spans->lines;
 420:lvgl/src/extra/widgets/span/lv_span.c ****     /* the loop control how many lines need to draw */
 421:lvgl/src/extra/widgets/span/lv_span.c ****     while(cur_span) {
 422:lvgl/src/extra/widgets/span/lv_span.c ****         int snippet_cnt = 0;
 423:lvgl/src/extra/widgets/span/lv_span.c ****         lv_coord_t max_line_h = 0;  /* the max height of span-font when a line have a lot of span *
 424:lvgl/src/extra/widgets/span/lv_span.c **** 
 425:lvgl/src/extra/widgets/span/lv_span.c ****         /* the loop control to find a line and push the relevant span info into stack  */
 426:lvgl/src/extra/widgets/span/lv_span.c ****         while(1) {
 427:lvgl/src/extra/widgets/span/lv_span.c ****             /* switch to the next span when current is end */
 428:lvgl/src/extra/widgets/span/lv_span.c ****             if(cur_txt[cur_txt_ofs] == '\0') {
 429:lvgl/src/extra/widgets/span/lv_span.c ****                 cur_span = _lv_ll_get_next(&spans->child_ll, cur_span);
 430:lvgl/src/extra/widgets/span/lv_span.c ****                 if(cur_span == NULL) break;
ARM GAS  /var/folders/21/t9g5rlb91ys800n5npymflf80000gn/T//ccdafQ6l.s 			page 9


 431:lvgl/src/extra/widgets/span/lv_span.c ****                 cur_txt = cur_span->txt;
 432:lvgl/src/extra/widgets/span/lv_span.c ****                 span_text_check(&cur_txt);
 433:lvgl/src/extra/widgets/span/lv_span.c ****                 cur_txt_ofs = 0;
 434:lvgl/src/extra/widgets/span/lv_span.c ****                 /* maybe also cur_txt[cur_txt_ofs] == '\0' */
 435:lvgl/src/extra/widgets/span/lv_span.c ****                 continue;
 436:lvgl/src/extra/widgets/span/lv_span.c ****             }
 437:lvgl/src/extra/widgets/span/lv_span.c **** 
 438:lvgl/src/extra/widgets/span/lv_span.c ****             /* init span info to snippet. */
 439:lvgl/src/extra/widgets/span/lv_span.c ****             if(cur_txt_ofs == 0) {
 440:lvgl/src/extra/widgets/span/lv_span.c ****                 snippet.span = cur_span;
 441:lvgl/src/extra/widgets/span/lv_span.c ****                 snippet.font = lv_span_get_style_text_font(obj, cur_span);
 442:lvgl/src/extra/widgets/span/lv_span.c ****                 snippet.letter_space = lv_span_get_style_text_letter_space(obj, cur_span);
 443:lvgl/src/extra/widgets/span/lv_span.c ****                 snippet.line_h = lv_font_get_line_height(snippet.font) + line_space;
 444:lvgl/src/extra/widgets/span/lv_span.c ****             }
 445:lvgl/src/extra/widgets/span/lv_span.c **** 
 446:lvgl/src/extra/widgets/span/lv_span.c ****             /* get current span text line info */
 447:lvgl/src/extra/widgets/span/lv_span.c ****             uint32_t next_ofs = 0;
 448:lvgl/src/extra/widgets/span/lv_span.c ****             lv_coord_t use_width = 0;
 449:lvgl/src/extra/widgets/span/lv_span.c ****             bool isfill = lv_txt_get_snippet(&cur_txt[cur_txt_ofs], snippet.font, snippet.letter_sp
 450:lvgl/src/extra/widgets/span/lv_span.c ****                                              max_w, txt_flag, &use_width, &next_ofs);
 451:lvgl/src/extra/widgets/span/lv_span.c **** 
 452:lvgl/src/extra/widgets/span/lv_span.c ****             /* break word deal width */
 453:lvgl/src/extra/widgets/span/lv_span.c ****             if(isfill && next_ofs > 0 && snippet_cnt > 0) {
 454:lvgl/src/extra/widgets/span/lv_span.c ****                 if(max_w < use_width) {
 455:lvgl/src/extra/widgets/span/lv_span.c ****                     break;
 456:lvgl/src/extra/widgets/span/lv_span.c ****                 }
 457:lvgl/src/extra/widgets/span/lv_span.c **** 
 458:lvgl/src/extra/widgets/span/lv_span.c ****                 uint32_t tmp_ofs = next_ofs;
 459:lvgl/src/extra/widgets/span/lv_span.c ****                 uint32_t letter = _lv_txt_encoded_prev(&cur_txt[cur_txt_ofs], &tmp_ofs);
 460:lvgl/src/extra/widgets/span/lv_span.c ****                 if(!(letter == '\0' || letter == '\n' || letter == '\r' || _lv_txt_is_break_char(le
 461:lvgl/src/extra/widgets/span/lv_span.c ****                     tmp_ofs = 0;
 462:lvgl/src/extra/widgets/span/lv_span.c ****                     letter = _lv_txt_encoded_next(&cur_txt[cur_txt_ofs + next_ofs], &tmp_ofs);
 463:lvgl/src/extra/widgets/span/lv_span.c ****                     if(!(letter == '\0' || letter == '\n'  || letter == '\r' || _lv_txt_is_break_ch
 464:lvgl/src/extra/widgets/span/lv_span.c ****                         break;
 465:lvgl/src/extra/widgets/span/lv_span.c ****                     }
 466:lvgl/src/extra/widgets/span/lv_span.c ****                 }
 467:lvgl/src/extra/widgets/span/lv_span.c ****             }
 468:lvgl/src/extra/widgets/span/lv_span.c **** 
 469:lvgl/src/extra/widgets/span/lv_span.c ****             snippet.txt = &cur_txt[cur_txt_ofs];
 470:lvgl/src/extra/widgets/span/lv_span.c ****             snippet.bytes = next_ofs;
 471:lvgl/src/extra/widgets/span/lv_span.c ****             snippet.txt_w = use_width;
 472:lvgl/src/extra/widgets/span/lv_span.c ****             cur_txt_ofs += next_ofs;
 473:lvgl/src/extra/widgets/span/lv_span.c ****             if(max_line_h < snippet.line_h) {
 474:lvgl/src/extra/widgets/span/lv_span.c ****                 max_line_h = snippet.line_h;
 475:lvgl/src/extra/widgets/span/lv_span.c ****             }
 476:lvgl/src/extra/widgets/span/lv_span.c ****             snippet_cnt ++;
 477:lvgl/src/extra/widgets/span/lv_span.c ****             max_w = max_w - use_width - snippet.letter_space;
 478:lvgl/src/extra/widgets/span/lv_span.c ****             if(isfill  || max_w <= 0) {
 479:lvgl/src/extra/widgets/span/lv_span.c ****                 break;
 480:lvgl/src/extra/widgets/span/lv_span.c ****             }
 481:lvgl/src/extra/widgets/span/lv_span.c ****         }
 482:lvgl/src/extra/widgets/span/lv_span.c **** 
 483:lvgl/src/extra/widgets/span/lv_span.c ****         /* next line init */
 484:lvgl/src/extra/widgets/span/lv_span.c ****         txt_pos.x = 0;
 485:lvgl/src/extra/widgets/span/lv_span.c ****         txt_pos.y += max_line_h;
 486:lvgl/src/extra/widgets/span/lv_span.c ****         max_w = max_width;
 487:lvgl/src/extra/widgets/span/lv_span.c ****         line_cnt += 1;
ARM GAS  /var/folders/21/t9g5rlb91ys800n5npymflf80000gn/T//ccdafQ6l.s 			page 10


 488:lvgl/src/extra/widgets/span/lv_span.c ****         if(line_cnt >= lines) {
 489:lvgl/src/extra/widgets/span/lv_span.c ****             break;
 490:lvgl/src/extra/widgets/span/lv_span.c ****         }
 491:lvgl/src/extra/widgets/span/lv_span.c ****     }
 492:lvgl/src/extra/widgets/span/lv_span.c ****     txt_pos.y -= line_space;
 493:lvgl/src/extra/widgets/span/lv_span.c **** 
 494:lvgl/src/extra/widgets/span/lv_span.c ****     return txt_pos.y;
 495:lvgl/src/extra/widgets/span/lv_span.c **** }
 496:lvgl/src/extra/widgets/span/lv_span.c **** 
 497:lvgl/src/extra/widgets/span/lv_span.c **** /**********************
 498:lvgl/src/extra/widgets/span/lv_span.c ****  *   STATIC FUNCTIONS
 499:lvgl/src/extra/widgets/span/lv_span.c ****  **********************/
 500:lvgl/src/extra/widgets/span/lv_span.c **** 
 501:lvgl/src/extra/widgets/span/lv_span.c **** static void lv_spangroup_constructor(const lv_obj_class_t * class_p, lv_obj_t * obj)
 502:lvgl/src/extra/widgets/span/lv_span.c **** {
 503:lvgl/src/extra/widgets/span/lv_span.c ****     LV_UNUSED(class_p);
 504:lvgl/src/extra/widgets/span/lv_span.c ****     lv_spangroup_t * spans = (lv_spangroup_t *)obj;
 505:lvgl/src/extra/widgets/span/lv_span.c ****     _lv_ll_init(&spans->child_ll, sizeof(lv_span_t));
 506:lvgl/src/extra/widgets/span/lv_span.c ****     spans->indent = 0;
 507:lvgl/src/extra/widgets/span/lv_span.c ****     spans->lines = -1;
 508:lvgl/src/extra/widgets/span/lv_span.c ****     spans->mode = LV_SPAN_MODE_EXPAND;
 509:lvgl/src/extra/widgets/span/lv_span.c ****     spans->overflow = LV_SPAN_OVERFLOW_CLIP;
 510:lvgl/src/extra/widgets/span/lv_span.c ****     spans->cache_w = 0;
 511:lvgl/src/extra/widgets/span/lv_span.c ****     spans->cache_h = 0;
 512:lvgl/src/extra/widgets/span/lv_span.c ****     spans->refresh = 1;
 513:lvgl/src/extra/widgets/span/lv_span.c **** }
 514:lvgl/src/extra/widgets/span/lv_span.c **** 
 515:lvgl/src/extra/widgets/span/lv_span.c **** static void lv_spangroup_destructor(const lv_obj_class_t * class_p, lv_obj_t * obj)
 516:lvgl/src/extra/widgets/span/lv_span.c **** {
 517:lvgl/src/extra/widgets/span/lv_span.c ****     LV_UNUSED(class_p);
 518:lvgl/src/extra/widgets/span/lv_span.c ****     lv_spangroup_t * spans = (lv_spangroup_t *)obj;
 519:lvgl/src/extra/widgets/span/lv_span.c ****     lv_span_t * cur_span = _lv_ll_get_head(&spans->child_ll);
 520:lvgl/src/extra/widgets/span/lv_span.c ****     while(cur_span) {
 521:lvgl/src/extra/widgets/span/lv_span.c ****         _lv_ll_remove(&spans->child_ll, cur_span);
 522:lvgl/src/extra/widgets/span/lv_span.c ****         if(cur_span->txt && cur_span->static_flag == 0) {
 523:lvgl/src/extra/widgets/span/lv_span.c ****             lv_mem_free(cur_span->txt);
 524:lvgl/src/extra/widgets/span/lv_span.c ****         }
 525:lvgl/src/extra/widgets/span/lv_span.c ****         lv_style_reset(&cur_span->style);
 526:lvgl/src/extra/widgets/span/lv_span.c ****         lv_mem_free(cur_span);
 527:lvgl/src/extra/widgets/span/lv_span.c ****         cur_span = _lv_ll_get_head(&spans->child_ll);
 528:lvgl/src/extra/widgets/span/lv_span.c ****     }
 529:lvgl/src/extra/widgets/span/lv_span.c **** }
 530:lvgl/src/extra/widgets/span/lv_span.c **** 
 531:lvgl/src/extra/widgets/span/lv_span.c **** static void lv_spangroup_event(const lv_obj_class_t * class_p, lv_event_t * e)
 532:lvgl/src/extra/widgets/span/lv_span.c **** {
 533:lvgl/src/extra/widgets/span/lv_span.c ****     LV_UNUSED(class_p);
 534:lvgl/src/extra/widgets/span/lv_span.c **** 
 535:lvgl/src/extra/widgets/span/lv_span.c ****     /* Call the ancestor's event handler */
 536:lvgl/src/extra/widgets/span/lv_span.c ****     if(lv_obj_event_base(MY_CLASS, e) != LV_RES_OK) return;
 537:lvgl/src/extra/widgets/span/lv_span.c **** 
 538:lvgl/src/extra/widgets/span/lv_span.c ****     lv_event_code_t code = lv_event_get_code(e);
 539:lvgl/src/extra/widgets/span/lv_span.c ****     lv_obj_t * obj = lv_event_get_target(e);
 540:lvgl/src/extra/widgets/span/lv_span.c ****     lv_spangroup_t * spans = (lv_spangroup_t *)obj;
 541:lvgl/src/extra/widgets/span/lv_span.c **** 
 542:lvgl/src/extra/widgets/span/lv_span.c ****     if(code == LV_EVENT_DRAW_MAIN) {
 543:lvgl/src/extra/widgets/span/lv_span.c ****         draw_main(e);
 544:lvgl/src/extra/widgets/span/lv_span.c ****     }
ARM GAS  /var/folders/21/t9g5rlb91ys800n5npymflf80000gn/T//ccdafQ6l.s 			page 11


 545:lvgl/src/extra/widgets/span/lv_span.c ****     else if(code == LV_EVENT_STYLE_CHANGED) {
 546:lvgl/src/extra/widgets/span/lv_span.c ****         refresh_self_size(obj);
 547:lvgl/src/extra/widgets/span/lv_span.c ****     }
 548:lvgl/src/extra/widgets/span/lv_span.c ****     else if(code == LV_EVENT_SIZE_CHANGED) {
 549:lvgl/src/extra/widgets/span/lv_span.c ****         refresh_self_size(obj);
 550:lvgl/src/extra/widgets/span/lv_span.c ****     }
 551:lvgl/src/extra/widgets/span/lv_span.c ****     else if(code == LV_EVENT_GET_SELF_SIZE) {
 552:lvgl/src/extra/widgets/span/lv_span.c ****         lv_coord_t width = 0;
 553:lvgl/src/extra/widgets/span/lv_span.c ****         lv_coord_t height = 0;
 554:lvgl/src/extra/widgets/span/lv_span.c ****         lv_point_t * self_size = lv_event_get_param(e);
 555:lvgl/src/extra/widgets/span/lv_span.c **** 
 556:lvgl/src/extra/widgets/span/lv_span.c ****         if(spans->mode == LV_SPAN_MODE_EXPAND) {
 557:lvgl/src/extra/widgets/span/lv_span.c ****             if(spans->refresh) {
 558:lvgl/src/extra/widgets/span/lv_span.c ****                 spans->cache_w = (lv_coord_t)lv_spangroup_get_expand_width(obj, 0);
 559:lvgl/src/extra/widgets/span/lv_span.c ****                 spans->cache_h = lv_spangroup_get_max_line_h(obj);
 560:lvgl/src/extra/widgets/span/lv_span.c ****                 spans->refresh = 0;
 561:lvgl/src/extra/widgets/span/lv_span.c ****             }
 562:lvgl/src/extra/widgets/span/lv_span.c ****             width = spans->cache_w;
 563:lvgl/src/extra/widgets/span/lv_span.c ****             height = spans->cache_h;
 564:lvgl/src/extra/widgets/span/lv_span.c ****         }
 565:lvgl/src/extra/widgets/span/lv_span.c ****         else if(spans->mode == LV_SPAN_MODE_BREAK) {
 566:lvgl/src/extra/widgets/span/lv_span.c ****             width = lv_obj_get_content_width(obj);
 567:lvgl/src/extra/widgets/span/lv_span.c ****             if(self_size->y >= 0) {
 568:lvgl/src/extra/widgets/span/lv_span.c ****                 if(width != spans->cache_w || spans->refresh) {
 569:lvgl/src/extra/widgets/span/lv_span.c ****                     height = lv_spangroup_get_expand_height(obj, width);
 570:lvgl/src/extra/widgets/span/lv_span.c ****                     spans->cache_w = width;
 571:lvgl/src/extra/widgets/span/lv_span.c ****                     spans->cache_h = height;
 572:lvgl/src/extra/widgets/span/lv_span.c ****                     spans->refresh = 0;
 573:lvgl/src/extra/widgets/span/lv_span.c ****                 }
 574:lvgl/src/extra/widgets/span/lv_span.c ****                 else {
 575:lvgl/src/extra/widgets/span/lv_span.c ****                     height = spans->cache_h;
 576:lvgl/src/extra/widgets/span/lv_span.c ****                 }
 577:lvgl/src/extra/widgets/span/lv_span.c ****             }
 578:lvgl/src/extra/widgets/span/lv_span.c ****         }
 579:lvgl/src/extra/widgets/span/lv_span.c ****         else if(spans->mode == LV_SPAN_MODE_FIXED) {
 580:lvgl/src/extra/widgets/span/lv_span.c ****             width =  self_size->x >= 0 ? lv_obj_get_content_width(obj) : 0;
 581:lvgl/src/extra/widgets/span/lv_span.c ****             height = self_size->y >= 0 ? lv_obj_get_content_height(obj) : 0;
 582:lvgl/src/extra/widgets/span/lv_span.c ****         }
 583:lvgl/src/extra/widgets/span/lv_span.c ****         self_size->x = LV_MAX(self_size->x, width);
 584:lvgl/src/extra/widgets/span/lv_span.c ****         self_size->y = LV_MAX(self_size->y, height);
 585:lvgl/src/extra/widgets/span/lv_span.c ****     }
 586:lvgl/src/extra/widgets/span/lv_span.c **** }
 587:lvgl/src/extra/widgets/span/lv_span.c **** 
 588:lvgl/src/extra/widgets/span/lv_span.c **** static void draw_main(lv_event_t * e)
 589:lvgl/src/extra/widgets/span/lv_span.c **** {
 590:lvgl/src/extra/widgets/span/lv_span.c ****     lv_obj_t * obj = lv_event_get_target(e);
 591:lvgl/src/extra/widgets/span/lv_span.c ****     lv_draw_ctx_t * draw_ctx = lv_event_get_draw_ctx(e);
 592:lvgl/src/extra/widgets/span/lv_span.c **** 
 593:lvgl/src/extra/widgets/span/lv_span.c ****     lv_draw_span(obj, draw_ctx);
 594:lvgl/src/extra/widgets/span/lv_span.c **** }
 595:lvgl/src/extra/widgets/span/lv_span.c **** 
 596:lvgl/src/extra/widgets/span/lv_span.c **** /**
 597:lvgl/src/extra/widgets/span/lv_span.c ****  * @return true for txt fill the max_width.
 598:lvgl/src/extra/widgets/span/lv_span.c ****  */
 599:lvgl/src/extra/widgets/span/lv_span.c **** static bool lv_txt_get_snippet(const char * txt, const lv_font_t * font,
 600:lvgl/src/extra/widgets/span/lv_span.c ****                                lv_coord_t letter_space, lv_coord_t max_width, lv_text_flag_t flag,
 601:lvgl/src/extra/widgets/span/lv_span.c ****                                lv_coord_t * use_width, uint32_t * end_ofs)
ARM GAS  /var/folders/21/t9g5rlb91ys800n5npymflf80000gn/T//ccdafQ6l.s 			page 12


 602:lvgl/src/extra/widgets/span/lv_span.c **** {
 603:lvgl/src/extra/widgets/span/lv_span.c ****     if(txt == NULL || txt[0] == '\0') {
 604:lvgl/src/extra/widgets/span/lv_span.c ****         *end_ofs = 0;
 605:lvgl/src/extra/widgets/span/lv_span.c ****         *use_width = 0;
 606:lvgl/src/extra/widgets/span/lv_span.c ****         return false;
 607:lvgl/src/extra/widgets/span/lv_span.c ****     }
 608:lvgl/src/extra/widgets/span/lv_span.c **** 
 609:lvgl/src/extra/widgets/span/lv_span.c ****     uint32_t ofs = _lv_txt_get_next_line(txt, font, letter_space, max_width, use_width, flag);
 610:lvgl/src/extra/widgets/span/lv_span.c ****     *end_ofs = ofs;
 611:lvgl/src/extra/widgets/span/lv_span.c **** 
 612:lvgl/src/extra/widgets/span/lv_span.c ****     if(txt[ofs] == '\0' && *use_width < max_width) {
 613:lvgl/src/extra/widgets/span/lv_span.c ****         return false;
 614:lvgl/src/extra/widgets/span/lv_span.c ****     }
 615:lvgl/src/extra/widgets/span/lv_span.c ****     else {
 616:lvgl/src/extra/widgets/span/lv_span.c ****         return true;
 617:lvgl/src/extra/widgets/span/lv_span.c ****     }
 618:lvgl/src/extra/widgets/span/lv_span.c **** }
 619:lvgl/src/extra/widgets/span/lv_span.c **** 
 620:lvgl/src/extra/widgets/span/lv_span.c **** static void lv_snippet_push(lv_snippet_t * item)
 621:lvgl/src/extra/widgets/span/lv_span.c **** {
 622:lvgl/src/extra/widgets/span/lv_span.c ****     if(snippet_stack.index < LV_SPAN_SNIPPET_STACK_SIZE) {
 623:lvgl/src/extra/widgets/span/lv_span.c ****         memcpy(&snippet_stack.stack[snippet_stack.index], item, sizeof(lv_snippet_t));
 624:lvgl/src/extra/widgets/span/lv_span.c ****         snippet_stack.index++;
 625:lvgl/src/extra/widgets/span/lv_span.c ****     }
 626:lvgl/src/extra/widgets/span/lv_span.c ****     else {
 627:lvgl/src/extra/widgets/span/lv_span.c ****         LV_LOG_ERROR("span draw stack overflow, please set LV_SPAN_SNIPPET_STACK_SIZE too larger");
 628:lvgl/src/extra/widgets/span/lv_span.c ****     }
 629:lvgl/src/extra/widgets/span/lv_span.c **** }
 630:lvgl/src/extra/widgets/span/lv_span.c **** 
 631:lvgl/src/extra/widgets/span/lv_span.c **** static uint16_t lv_get_snippet_cnt(void)
 632:lvgl/src/extra/widgets/span/lv_span.c **** {
  28              		.loc 1 632 1 view -0
  29              		.cfi_startproc
  30              		@ args = 0, pretend = 0, frame = 0
  31              		@ frame_needed = 0, uses_anonymous_args = 0
  32              		@ link register save eliminated.
 633:lvgl/src/extra/widgets/span/lv_span.c ****     return snippet_stack.index;
  33              		.loc 1 633 5 view .LVU1
 634:lvgl/src/extra/widgets/span/lv_span.c **** }
  34              		.loc 1 634 1 is_stmt 0 view .LVU2
  35 0000 014B     		ldr	r3, .L2
  36 0002 B3F80005 		ldrh	r0, [r3, #1280]
  37 0006 7047     		bx	lr
  38              	.L3:
  39              		.align	2
  40              	.L2:
  41 0008 00000000 		.word	snippet_stack
  42              		.cfi_endproc
  43              	.LFE231:
  45              		.section	.text.lv_get_snippet,"ax",%progbits
  46              		.align	1
  47              		.syntax unified
  48              		.thumb
  49              		.thumb_func
  51              	lv_get_snippet:
  52              	.LVL0:
  53              	.LFB232:
ARM GAS  /var/folders/21/t9g5rlb91ys800n5npymflf80000gn/T//ccdafQ6l.s 			page 13


 635:lvgl/src/extra/widgets/span/lv_span.c **** 
 636:lvgl/src/extra/widgets/span/lv_span.c **** static lv_snippet_t * lv_get_snippet(uint16_t index)
 637:lvgl/src/extra/widgets/span/lv_span.c **** {
  54              		.loc 1 637 1 is_stmt 1 view -0
  55              		.cfi_startproc
  56              		@ args = 0, pretend = 0, frame = 0
  57              		@ frame_needed = 0, uses_anonymous_args = 0
  58              		@ link register save eliminated.
 638:lvgl/src/extra/widgets/span/lv_span.c ****     return &snippet_stack.stack[index];
  59              		.loc 1 638 5 view .LVU4
  60              		.loc 1 638 12 is_stmt 0 view .LVU5
  61 0000 00EB8000 		add	r0, r0, r0, lsl #2
  62              	.LVL1:
 639:lvgl/src/extra/widgets/span/lv_span.c **** }
  63              		.loc 1 639 1 view .LVU6
  64 0004 014B     		ldr	r3, .L5
  65 0006 03EB8000 		add	r0, r3, r0, lsl #2
  66 000a 7047     		bx	lr
  67              	.L6:
  68              		.align	2
  69              	.L5:
  70 000c 00000000 		.word	snippet_stack
  71              		.cfi_endproc
  72              	.LFE232:
  74              		.section	.text.lv_snippet_clear,"ax",%progbits
  75              		.align	1
  76              		.syntax unified
  77              		.thumb
  78              		.thumb_func
  80              	lv_snippet_clear:
  81              	.LFB233:
 640:lvgl/src/extra/widgets/span/lv_span.c **** 
 641:lvgl/src/extra/widgets/span/lv_span.c **** static void lv_snippet_clear(void)
 642:lvgl/src/extra/widgets/span/lv_span.c **** {
  82              		.loc 1 642 1 is_stmt 1 view -0
  83              		.cfi_startproc
  84              		@ args = 0, pretend = 0, frame = 0
  85              		@ frame_needed = 0, uses_anonymous_args = 0
  86              		@ link register save eliminated.
 643:lvgl/src/extra/widgets/span/lv_span.c ****     snippet_stack.index = 0;
  87              		.loc 1 643 5 view .LVU8
  88              		.loc 1 643 25 is_stmt 0 view .LVU9
  89 0000 024B     		ldr	r3, .L8
  90 0002 0022     		movs	r2, #0
  91 0004 A3F80025 		strh	r2, [r3, #1280]	@ movhi
 644:lvgl/src/extra/widgets/span/lv_span.c **** }
  92              		.loc 1 644 1 view .LVU10
  93 0008 7047     		bx	lr
  94              	.L9:
  95 000a 00BF     		.align	2
  96              	.L8:
  97 000c 00000000 		.word	snippet_stack
  98              		.cfi_endproc
  99              	.LFE233:
 101              		.section	.text.convert_indent_pct,"ax",%progbits
 102              		.align	1
 103              		.syntax unified
ARM GAS  /var/folders/21/t9g5rlb91ys800n5npymflf80000gn/T//ccdafQ6l.s 			page 14


 104              		.thumb
 105              		.thumb_func
 107              	convert_indent_pct:
 108              	.LVL2:
 109              	.LFB241:
 645:lvgl/src/extra/widgets/span/lv_span.c **** 
 646:lvgl/src/extra/widgets/span/lv_span.c **** static const lv_font_t * lv_span_get_style_text_font(lv_obj_t * par, lv_span_t * span)
 647:lvgl/src/extra/widgets/span/lv_span.c **** {
 648:lvgl/src/extra/widgets/span/lv_span.c ****     const lv_font_t * font;
 649:lvgl/src/extra/widgets/span/lv_span.c ****     lv_style_value_t value;
 650:lvgl/src/extra/widgets/span/lv_span.c ****     lv_res_t res = lv_style_get_prop(&span->style, LV_STYLE_TEXT_FONT, &value);
 651:lvgl/src/extra/widgets/span/lv_span.c ****     if(res != LV_RES_OK) {
 652:lvgl/src/extra/widgets/span/lv_span.c ****         font = lv_obj_get_style_text_font(par, LV_PART_MAIN);
 653:lvgl/src/extra/widgets/span/lv_span.c ****     }
 654:lvgl/src/extra/widgets/span/lv_span.c ****     else {
 655:lvgl/src/extra/widgets/span/lv_span.c ****         font = (const lv_font_t *)value.ptr;
 656:lvgl/src/extra/widgets/span/lv_span.c ****     }
 657:lvgl/src/extra/widgets/span/lv_span.c ****     return font;
 658:lvgl/src/extra/widgets/span/lv_span.c **** }
 659:lvgl/src/extra/widgets/span/lv_span.c **** 
 660:lvgl/src/extra/widgets/span/lv_span.c **** static lv_coord_t lv_span_get_style_text_letter_space(lv_obj_t * par, lv_span_t * span)
 661:lvgl/src/extra/widgets/span/lv_span.c **** {
 662:lvgl/src/extra/widgets/span/lv_span.c ****     lv_coord_t letter_space;
 663:lvgl/src/extra/widgets/span/lv_span.c ****     lv_style_value_t value;
 664:lvgl/src/extra/widgets/span/lv_span.c ****     lv_res_t res = lv_style_get_prop(&span->style, LV_STYLE_TEXT_LETTER_SPACE, &value);
 665:lvgl/src/extra/widgets/span/lv_span.c ****     if(res != LV_RES_OK) {
 666:lvgl/src/extra/widgets/span/lv_span.c ****         letter_space = lv_obj_get_style_text_letter_space(par, LV_PART_MAIN);
 667:lvgl/src/extra/widgets/span/lv_span.c ****     }
 668:lvgl/src/extra/widgets/span/lv_span.c ****     else {
 669:lvgl/src/extra/widgets/span/lv_span.c ****         letter_space = (lv_coord_t)value.num;
 670:lvgl/src/extra/widgets/span/lv_span.c ****     }
 671:lvgl/src/extra/widgets/span/lv_span.c ****     return letter_space;
 672:lvgl/src/extra/widgets/span/lv_span.c **** }
 673:lvgl/src/extra/widgets/span/lv_span.c **** 
 674:lvgl/src/extra/widgets/span/lv_span.c **** static lv_color_t lv_span_get_style_text_color(lv_obj_t * par, lv_span_t * span)
 675:lvgl/src/extra/widgets/span/lv_span.c **** {
 676:lvgl/src/extra/widgets/span/lv_span.c ****     lv_style_value_t value;
 677:lvgl/src/extra/widgets/span/lv_span.c ****     lv_res_t res = lv_style_get_prop(&span->style, LV_STYLE_TEXT_COLOR, &value);
 678:lvgl/src/extra/widgets/span/lv_span.c ****     if(res != LV_RES_OK) {
 679:lvgl/src/extra/widgets/span/lv_span.c ****         value.color = lv_obj_get_style_text_color(par, LV_PART_MAIN);
 680:lvgl/src/extra/widgets/span/lv_span.c ****     }
 681:lvgl/src/extra/widgets/span/lv_span.c ****     return value.color;
 682:lvgl/src/extra/widgets/span/lv_span.c **** }
 683:lvgl/src/extra/widgets/span/lv_span.c **** 
 684:lvgl/src/extra/widgets/span/lv_span.c **** static lv_opa_t lv_span_get_style_text_opa(lv_obj_t * par, lv_span_t * span)
 685:lvgl/src/extra/widgets/span/lv_span.c **** {
 686:lvgl/src/extra/widgets/span/lv_span.c ****     lv_opa_t opa;
 687:lvgl/src/extra/widgets/span/lv_span.c ****     lv_style_value_t value;
 688:lvgl/src/extra/widgets/span/lv_span.c ****     lv_res_t res = lv_style_get_prop(&span->style, LV_STYLE_TEXT_OPA, &value);
 689:lvgl/src/extra/widgets/span/lv_span.c ****     if(res != LV_RES_OK) {
 690:lvgl/src/extra/widgets/span/lv_span.c ****         opa = (lv_opa_t)lv_obj_get_style_text_opa(par, LV_PART_MAIN);
 691:lvgl/src/extra/widgets/span/lv_span.c ****     }
 692:lvgl/src/extra/widgets/span/lv_span.c ****     else {
 693:lvgl/src/extra/widgets/span/lv_span.c ****         opa = (lv_opa_t)value.num;
 694:lvgl/src/extra/widgets/span/lv_span.c ****     }
 695:lvgl/src/extra/widgets/span/lv_span.c ****     return opa;
 696:lvgl/src/extra/widgets/span/lv_span.c **** }
ARM GAS  /var/folders/21/t9g5rlb91ys800n5npymflf80000gn/T//ccdafQ6l.s 			page 15


 697:lvgl/src/extra/widgets/span/lv_span.c **** 
 698:lvgl/src/extra/widgets/span/lv_span.c **** static lv_blend_mode_t lv_span_get_style_text_blend_mode(lv_obj_t * par, lv_span_t * span)
 699:lvgl/src/extra/widgets/span/lv_span.c **** {
 700:lvgl/src/extra/widgets/span/lv_span.c ****     lv_blend_mode_t mode;
 701:lvgl/src/extra/widgets/span/lv_span.c ****     lv_style_value_t value;
 702:lvgl/src/extra/widgets/span/lv_span.c ****     lv_res_t res = lv_style_get_prop(&span->style, LV_STYLE_BLEND_MODE, &value);
 703:lvgl/src/extra/widgets/span/lv_span.c ****     if(res != LV_RES_OK) {
 704:lvgl/src/extra/widgets/span/lv_span.c ****         mode = (lv_blend_mode_t)lv_obj_get_style_blend_mode(par, LV_PART_MAIN);
 705:lvgl/src/extra/widgets/span/lv_span.c ****     }
 706:lvgl/src/extra/widgets/span/lv_span.c ****     else {
 707:lvgl/src/extra/widgets/span/lv_span.c ****         mode = (lv_blend_mode_t)value.num;
 708:lvgl/src/extra/widgets/span/lv_span.c ****     }
 709:lvgl/src/extra/widgets/span/lv_span.c ****     return mode;
 710:lvgl/src/extra/widgets/span/lv_span.c **** }
 711:lvgl/src/extra/widgets/span/lv_span.c **** 
 712:lvgl/src/extra/widgets/span/lv_span.c **** static int32_t lv_span_get_style_text_decor(lv_obj_t * par, lv_span_t * span)
 713:lvgl/src/extra/widgets/span/lv_span.c **** {
 714:lvgl/src/extra/widgets/span/lv_span.c ****     int32_t decor;
 715:lvgl/src/extra/widgets/span/lv_span.c ****     lv_style_value_t value;
 716:lvgl/src/extra/widgets/span/lv_span.c ****     lv_res_t res = lv_style_get_prop(&span->style, LV_STYLE_TEXT_DECOR, &value);
 717:lvgl/src/extra/widgets/span/lv_span.c ****     if(res != LV_RES_OK) {
 718:lvgl/src/extra/widgets/span/lv_span.c ****         decor = (lv_text_decor_t)lv_obj_get_style_text_decor(par, LV_PART_MAIN);;
 719:lvgl/src/extra/widgets/span/lv_span.c ****     }
 720:lvgl/src/extra/widgets/span/lv_span.c ****     else {
 721:lvgl/src/extra/widgets/span/lv_span.c ****         decor = (int32_t)value.num;
 722:lvgl/src/extra/widgets/span/lv_span.c ****     }
 723:lvgl/src/extra/widgets/span/lv_span.c ****     return decor;
 724:lvgl/src/extra/widgets/span/lv_span.c **** }
 725:lvgl/src/extra/widgets/span/lv_span.c **** 
 726:lvgl/src/extra/widgets/span/lv_span.c **** static inline void span_text_check(const char ** text)
 727:lvgl/src/extra/widgets/span/lv_span.c **** {
 728:lvgl/src/extra/widgets/span/lv_span.c ****     if(*text == NULL) {
 729:lvgl/src/extra/widgets/span/lv_span.c ****         *text = "";
 730:lvgl/src/extra/widgets/span/lv_span.c ****         LV_LOG_ERROR("occur an error that span text == NULL");
 731:lvgl/src/extra/widgets/span/lv_span.c ****     }
 732:lvgl/src/extra/widgets/span/lv_span.c **** }
 733:lvgl/src/extra/widgets/span/lv_span.c **** 
 734:lvgl/src/extra/widgets/span/lv_span.c **** static lv_coord_t convert_indent_pct(lv_obj_t * obj, lv_coord_t width)
 735:lvgl/src/extra/widgets/span/lv_span.c **** {
 110              		.loc 1 735 1 is_stmt 1 view -0
 111              		.cfi_startproc
 112              		@ args = 0, pretend = 0, frame = 0
 113              		@ frame_needed = 0, uses_anonymous_args = 0
 114              		@ link register save eliminated.
 115              		.loc 1 735 1 is_stmt 0 view .LVU12
 116 0000 0346     		mov	r3, r0
 736:lvgl/src/extra/widgets/span/lv_span.c ****     lv_spangroup_t * spans = (lv_spangroup_t *)obj;
 117              		.loc 1 736 5 is_stmt 1 view .LVU13
 118              	.LVL3:
 737:lvgl/src/extra/widgets/span/lv_span.c **** 
 738:lvgl/src/extra/widgets/span/lv_span.c ****     lv_coord_t indent = spans->indent;
 119              		.loc 1 738 5 view .LVU14
 120              		.loc 1 738 16 is_stmt 0 view .LVU15
 121 0002 B0F92800 		ldrsh	r0, [r0, #40]
 122              	.LVL4:
 739:lvgl/src/extra/widgets/span/lv_span.c ****     if(LV_COORD_IS_PCT(spans->indent)) {
 123              		.loc 1 739 5 is_stmt 1 view .LVU16
ARM GAS  /var/folders/21/t9g5rlb91ys800n5npymflf80000gn/T//ccdafQ6l.s 			page 16


 124              		.loc 1 739 7 is_stmt 0 view .LVU17
 125 0006 00F4C042 		and	r2, r0, #24576
 126 000a B2F5005F 		cmp	r2, #8192
 127 000e 00D0     		beq	.L15
 128              	.LVL5:
 129              	.L11:
 740:lvgl/src/extra/widgets/span/lv_span.c ****         if(spans->mode == LV_SPAN_MODE_EXPAND) {
 741:lvgl/src/extra/widgets/span/lv_span.c ****             indent = 0;
 742:lvgl/src/extra/widgets/span/lv_span.c ****         }
 743:lvgl/src/extra/widgets/span/lv_span.c ****         else {
 744:lvgl/src/extra/widgets/span/lv_span.c ****             indent = (width * LV_COORD_GET_PCT(spans->indent)) / 100;
 745:lvgl/src/extra/widgets/span/lv_span.c ****         }
 746:lvgl/src/extra/widgets/span/lv_span.c ****     }
 747:lvgl/src/extra/widgets/span/lv_span.c **** 
 748:lvgl/src/extra/widgets/span/lv_span.c ****     return indent;
 130              		.loc 1 748 5 is_stmt 1 view .LVU18
 749:lvgl/src/extra/widgets/span/lv_span.c **** }
 131              		.loc 1 749 1 is_stmt 0 view .LVU19
 132 0010 7047     		bx	lr
 133              	.LVL6:
 134              	.L15:
 739:lvgl/src/extra/widgets/span/lv_span.c ****     if(LV_COORD_IS_PCT(spans->indent)) {
 135              		.loc 1 739 8 discriminator 1 view .LVU20
 136 0012 20F4C042 		bic	r2, r0, #24576
 137 0016 B2F5FA6F 		cmp	r2, #2000
 138 001a F9DC     		bgt	.L11
 740:lvgl/src/extra/widgets/span/lv_span.c ****         if(spans->mode == LV_SPAN_MODE_EXPAND) {
 139              		.loc 1 740 9 is_stmt 1 view .LVU21
 740:lvgl/src/extra/widgets/span/lv_span.c ****         if(spans->mode == LV_SPAN_MODE_EXPAND) {
 140              		.loc 1 740 24 is_stmt 0 view .LVU22
 141 001c 93F83C30 		ldrb	r3, [r3, #60]	@ zero_extendqisi2
 142              	.LVL7:
 740:lvgl/src/extra/widgets/span/lv_span.c ****         if(spans->mode == LV_SPAN_MODE_EXPAND) {
 143              		.loc 1 740 24 view .LVU23
 144 0020 03F00303 		and	r3, r3, #3
 740:lvgl/src/extra/widgets/span/lv_span.c ****         if(spans->mode == LV_SPAN_MODE_EXPAND) {
 145              		.loc 1 740 11 view .LVU24
 146 0024 012B     		cmp	r3, #1
 147 0026 0ED0     		beq	.L14
 744:lvgl/src/extra/widgets/span/lv_span.c ****         }
 148              		.loc 1 744 13 is_stmt 1 view .LVU25
 744:lvgl/src/extra/widgets/span/lv_span.c ****         }
 149              		.loc 1 744 31 is_stmt 0 view .LVU26
 150 0028 B2F57A7F 		cmp	r2, #1000
 151 002c 01DD     		ble	.L13
 744:lvgl/src/extra/widgets/span/lv_span.c ****         }
 152              		.loc 1 744 31 discriminator 1 view .LVU27
 153 002e C2F57A72 		rsb	r2, r2, #1000
 154              	.L13:
 744:lvgl/src/extra/widgets/span/lv_span.c ****         }
 155              		.loc 1 744 29 discriminator 4 view .LVU28
 156 0032 02FB01F1 		mul	r1, r2, r1
 157              	.LVL8:
 744:lvgl/src/extra/widgets/span/lv_span.c ****         }
 158              		.loc 1 744 64 discriminator 4 view .LVU29
 159 0036 054B     		ldr	r3, .L16
 160 0038 83FB0123 		smull	r2, r3, r3, r1
ARM GAS  /var/folders/21/t9g5rlb91ys800n5npymflf80000gn/T//ccdafQ6l.s 			page 17


 161 003c C917     		asrs	r1, r1, #31
 162 003e C1EB6311 		rsb	r1, r1, r3, asr #5
 744:lvgl/src/extra/widgets/span/lv_span.c ****         }
 163              		.loc 1 744 20 discriminator 4 view .LVU30
 164 0042 08B2     		sxth	r0, r1
 165              	.LVL9:
 744:lvgl/src/extra/widgets/span/lv_span.c ****         }
 166              		.loc 1 744 20 discriminator 4 view .LVU31
 167 0044 7047     		bx	lr
 168              	.LVL10:
 169              	.L14:
 741:lvgl/src/extra/widgets/span/lv_span.c ****         }
 170              		.loc 1 741 20 view .LVU32
 171 0046 0020     		movs	r0, #0
 172              	.LVL11:
 741:lvgl/src/extra/widgets/span/lv_span.c ****         }
 173              		.loc 1 741 20 view .LVU33
 174 0048 E2E7     		b	.L11
 175              	.L17:
 176 004a 00BF     		.align	2
 177              	.L16:
 178 004c 1F85EB51 		.word	1374389535
 179              		.cfi_endproc
 180              	.LFE241:
 182              		.section	.text.lv_span_get_style_text_letter_space,"ax",%progbits
 183              		.align	1
 184              		.syntax unified
 185              		.thumb
 186              		.thumb_func
 188              	lv_span_get_style_text_letter_space:
 189              	.LVL12:
 190              	.LFB235:
 661:lvgl/src/extra/widgets/span/lv_span.c ****     lv_coord_t letter_space;
 191              		.loc 1 661 1 is_stmt 1 view -0
 192              		.cfi_startproc
 193              		@ args = 0, pretend = 0, frame = 8
 194              		@ frame_needed = 0, uses_anonymous_args = 0
 661:lvgl/src/extra/widgets/span/lv_span.c ****     lv_coord_t letter_space;
 195              		.loc 1 661 1 is_stmt 0 view .LVU35
 196 0000 10B5     		push	{r4, lr}
 197              	.LCFI0:
 198              		.cfi_def_cfa_offset 8
 199              		.cfi_offset 4, -8
 200              		.cfi_offset 14, -4
 201 0002 82B0     		sub	sp, sp, #8
 202              	.LCFI1:
 203              		.cfi_def_cfa_offset 16
 204 0004 0446     		mov	r4, r0
 205 0006 0846     		mov	r0, r1
 206              	.LVL13:
 662:lvgl/src/extra/widgets/span/lv_span.c ****     lv_style_value_t value;
 207              		.loc 1 662 5 is_stmt 1 view .LVU36
 663:lvgl/src/extra/widgets/span/lv_span.c ****     lv_res_t res = lv_style_get_prop(&span->style, LV_STYLE_TEXT_LETTER_SPACE, &value);
 208              		.loc 1 663 5 view .LVU37
 664:lvgl/src/extra/widgets/span/lv_span.c ****     if(res != LV_RES_OK) {
 209              		.loc 1 664 5 view .LVU38
 664:lvgl/src/extra/widgets/span/lv_span.c ****     if(res != LV_RES_OK) {
ARM GAS  /var/folders/21/t9g5rlb91ys800n5npymflf80000gn/T//ccdafQ6l.s 			page 18


 210              		.loc 1 664 20 is_stmt 0 view .LVU39
 211 0008 01AA     		add	r2, sp, #4
 212 000a 5821     		movs	r1, #88
 213              	.LVL14:
 664:lvgl/src/extra/widgets/span/lv_span.c ****     if(res != LV_RES_OK) {
 214              		.loc 1 664 20 view .LVU40
 215 000c 0830     		adds	r0, r0, #8
 216              	.LVL15:
 664:lvgl/src/extra/widgets/span/lv_span.c ****     if(res != LV_RES_OK) {
 217              		.loc 1 664 20 view .LVU41
 218 000e FFF7FEFF 		bl	lv_style_get_prop
 219              	.LVL16:
 665:lvgl/src/extra/widgets/span/lv_span.c ****         letter_space = lv_obj_get_style_text_letter_space(par, LV_PART_MAIN);
 220              		.loc 1 665 5 is_stmt 1 view .LVU42
 665:lvgl/src/extra/widgets/span/lv_span.c ****         letter_space = lv_obj_get_style_text_letter_space(par, LV_PART_MAIN);
 221              		.loc 1 665 7 is_stmt 0 view .LVU43
 222 0012 0128     		cmp	r0, #1
 223 0014 03D1     		bne	.L22
 669:lvgl/src/extra/widgets/span/lv_span.c ****     }
 224              		.loc 1 669 9 is_stmt 1 view .LVU44
 669:lvgl/src/extra/widgets/span/lv_span.c ****     }
 225              		.loc 1 669 22 is_stmt 0 view .LVU45
 226 0016 BDF90400 		ldrsh	r0, [sp, #4]
 227              	.LVL17:
 228              	.L20:
 671:lvgl/src/extra/widgets/span/lv_span.c **** }
 229              		.loc 1 671 5 is_stmt 1 view .LVU46
 672:lvgl/src/extra/widgets/span/lv_span.c **** 
 230              		.loc 1 672 1 is_stmt 0 view .LVU47
 231 001a 02B0     		add	sp, sp, #8
 232              	.LCFI2:
 233              		.cfi_remember_state
 234              		.cfi_def_cfa_offset 8
 235              		@ sp needed
 236 001c 10BD     		pop	{r4, pc}
 237              	.LVL18:
 238              	.L22:
 239              	.LCFI3:
 240              		.cfi_restore_state
 666:lvgl/src/extra/widgets/span/lv_span.c ****     }
 241              		.loc 1 666 9 is_stmt 1 view .LVU48
 242              	.LBB79:
 243              	.LBI79:
 244              		.file 2 "lvgl/src/extra/widgets/span/../../../../src/core/lv_obj_style_gen.h"
   1:lvgl/src/extra/widgets/span/../../../../src/core/lv_obj_style_gen.h **** static inline lv_coord_t lv_obj_get_style_width(const struct _lv_obj_t * obj, uint32_t part)
   2:lvgl/src/extra/widgets/span/../../../../src/core/lv_obj_style_gen.h **** {
   3:lvgl/src/extra/widgets/span/../../../../src/core/lv_obj_style_gen.h ****     lv_style_value_t v = lv_obj_get_style_prop(obj, part, LV_STYLE_WIDTH);
   4:lvgl/src/extra/widgets/span/../../../../src/core/lv_obj_style_gen.h ****     return (lv_coord_t)v.num;
   5:lvgl/src/extra/widgets/span/../../../../src/core/lv_obj_style_gen.h **** }
   6:lvgl/src/extra/widgets/span/../../../../src/core/lv_obj_style_gen.h **** 
   7:lvgl/src/extra/widgets/span/../../../../src/core/lv_obj_style_gen.h **** static inline lv_coord_t lv_obj_get_style_min_width(const struct _lv_obj_t * obj, uint32_t part)
   8:lvgl/src/extra/widgets/span/../../../../src/core/lv_obj_style_gen.h **** {
   9:lvgl/src/extra/widgets/span/../../../../src/core/lv_obj_style_gen.h ****     lv_style_value_t v = lv_obj_get_style_prop(obj, part, LV_STYLE_MIN_WIDTH);
  10:lvgl/src/extra/widgets/span/../../../../src/core/lv_obj_style_gen.h ****     return (lv_coord_t)v.num;
  11:lvgl/src/extra/widgets/span/../../../../src/core/lv_obj_style_gen.h **** }
  12:lvgl/src/extra/widgets/span/../../../../src/core/lv_obj_style_gen.h **** 
  13:lvgl/src/extra/widgets/span/../../../../src/core/lv_obj_style_gen.h **** static inline lv_coord_t lv_obj_get_style_max_width(const struct _lv_obj_t * obj, uint32_t part)
ARM GAS  /var/folders/21/t9g5rlb91ys800n5npymflf80000gn/T//ccdafQ6l.s 			page 19


  14:lvgl/src/extra/widgets/span/../../../../src/core/lv_obj_style_gen.h **** {
  15:lvgl/src/extra/widgets/span/../../../../src/core/lv_obj_style_gen.h ****     lv_style_value_t v = lv_obj_get_style_prop(obj, part, LV_STYLE_MAX_WIDTH);
  16:lvgl/src/extra/widgets/span/../../../../src/core/lv_obj_style_gen.h ****     return (lv_coord_t)v.num;
  17:lvgl/src/extra/widgets/span/../../../../src/core/lv_obj_style_gen.h **** }
  18:lvgl/src/extra/widgets/span/../../../../src/core/lv_obj_style_gen.h **** 
  19:lvgl/src/extra/widgets/span/../../../../src/core/lv_obj_style_gen.h **** static inline lv_coord_t lv_obj_get_style_height(const struct _lv_obj_t * obj, uint32_t part)
  20:lvgl/src/extra/widgets/span/../../../../src/core/lv_obj_style_gen.h **** {
  21:lvgl/src/extra/widgets/span/../../../../src/core/lv_obj_style_gen.h ****     lv_style_value_t v = lv_obj_get_style_prop(obj, part, LV_STYLE_HEIGHT);
  22:lvgl/src/extra/widgets/span/../../../../src/core/lv_obj_style_gen.h ****     return (lv_coord_t)v.num;
  23:lvgl/src/extra/widgets/span/../../../../src/core/lv_obj_style_gen.h **** }
  24:lvgl/src/extra/widgets/span/../../../../src/core/lv_obj_style_gen.h **** 
  25:lvgl/src/extra/widgets/span/../../../../src/core/lv_obj_style_gen.h **** static inline lv_coord_t lv_obj_get_style_min_height(const struct _lv_obj_t * obj, uint32_t part)
  26:lvgl/src/extra/widgets/span/../../../../src/core/lv_obj_style_gen.h **** {
  27:lvgl/src/extra/widgets/span/../../../../src/core/lv_obj_style_gen.h ****     lv_style_value_t v = lv_obj_get_style_prop(obj, part, LV_STYLE_MIN_HEIGHT);
  28:lvgl/src/extra/widgets/span/../../../../src/core/lv_obj_style_gen.h ****     return (lv_coord_t)v.num;
  29:lvgl/src/extra/widgets/span/../../../../src/core/lv_obj_style_gen.h **** }
  30:lvgl/src/extra/widgets/span/../../../../src/core/lv_obj_style_gen.h **** 
  31:lvgl/src/extra/widgets/span/../../../../src/core/lv_obj_style_gen.h **** static inline lv_coord_t lv_obj_get_style_max_height(const struct _lv_obj_t * obj, uint32_t part)
  32:lvgl/src/extra/widgets/span/../../../../src/core/lv_obj_style_gen.h **** {
  33:lvgl/src/extra/widgets/span/../../../../src/core/lv_obj_style_gen.h ****     lv_style_value_t v = lv_obj_get_style_prop(obj, part, LV_STYLE_MAX_HEIGHT);
  34:lvgl/src/extra/widgets/span/../../../../src/core/lv_obj_style_gen.h ****     return (lv_coord_t)v.num;
  35:lvgl/src/extra/widgets/span/../../../../src/core/lv_obj_style_gen.h **** }
  36:lvgl/src/extra/widgets/span/../../../../src/core/lv_obj_style_gen.h **** 
  37:lvgl/src/extra/widgets/span/../../../../src/core/lv_obj_style_gen.h **** static inline lv_coord_t lv_obj_get_style_x(const struct _lv_obj_t * obj, uint32_t part)
  38:lvgl/src/extra/widgets/span/../../../../src/core/lv_obj_style_gen.h **** {
  39:lvgl/src/extra/widgets/span/../../../../src/core/lv_obj_style_gen.h ****     lv_style_value_t v = lv_obj_get_style_prop(obj, part, LV_STYLE_X);
  40:lvgl/src/extra/widgets/span/../../../../src/core/lv_obj_style_gen.h ****     return (lv_coord_t)v.num;
  41:lvgl/src/extra/widgets/span/../../../../src/core/lv_obj_style_gen.h **** }
  42:lvgl/src/extra/widgets/span/../../../../src/core/lv_obj_style_gen.h **** 
  43:lvgl/src/extra/widgets/span/../../../../src/core/lv_obj_style_gen.h **** static inline lv_coord_t lv_obj_get_style_y(const struct _lv_obj_t * obj, uint32_t part)
  44:lvgl/src/extra/widgets/span/../../../../src/core/lv_obj_style_gen.h **** {
  45:lvgl/src/extra/widgets/span/../../../../src/core/lv_obj_style_gen.h ****     lv_style_value_t v = lv_obj_get_style_prop(obj, part, LV_STYLE_Y);
  46:lvgl/src/extra/widgets/span/../../../../src/core/lv_obj_style_gen.h ****     return (lv_coord_t)v.num;
  47:lvgl/src/extra/widgets/span/../../../../src/core/lv_obj_style_gen.h **** }
  48:lvgl/src/extra/widgets/span/../../../../src/core/lv_obj_style_gen.h **** 
  49:lvgl/src/extra/widgets/span/../../../../src/core/lv_obj_style_gen.h **** static inline lv_align_t lv_obj_get_style_align(const struct _lv_obj_t * obj, uint32_t part)
  50:lvgl/src/extra/widgets/span/../../../../src/core/lv_obj_style_gen.h **** {
  51:lvgl/src/extra/widgets/span/../../../../src/core/lv_obj_style_gen.h ****     lv_style_value_t v = lv_obj_get_style_prop(obj, part, LV_STYLE_ALIGN);
  52:lvgl/src/extra/widgets/span/../../../../src/core/lv_obj_style_gen.h ****     return (lv_align_t)v.num;
  53:lvgl/src/extra/widgets/span/../../../../src/core/lv_obj_style_gen.h **** }
  54:lvgl/src/extra/widgets/span/../../../../src/core/lv_obj_style_gen.h **** 
  55:lvgl/src/extra/widgets/span/../../../../src/core/lv_obj_style_gen.h **** static inline lv_coord_t lv_obj_get_style_transform_width(const struct _lv_obj_t * obj, uint32_t pa
  56:lvgl/src/extra/widgets/span/../../../../src/core/lv_obj_style_gen.h **** {
  57:lvgl/src/extra/widgets/span/../../../../src/core/lv_obj_style_gen.h ****     lv_style_value_t v = lv_obj_get_style_prop(obj, part, LV_STYLE_TRANSFORM_WIDTH);
  58:lvgl/src/extra/widgets/span/../../../../src/core/lv_obj_style_gen.h ****     return (lv_coord_t)v.num;
  59:lvgl/src/extra/widgets/span/../../../../src/core/lv_obj_style_gen.h **** }
  60:lvgl/src/extra/widgets/span/../../../../src/core/lv_obj_style_gen.h **** 
  61:lvgl/src/extra/widgets/span/../../../../src/core/lv_obj_style_gen.h **** static inline lv_coord_t lv_obj_get_style_transform_height(const struct _lv_obj_t * obj, uint32_t p
  62:lvgl/src/extra/widgets/span/../../../../src/core/lv_obj_style_gen.h **** {
  63:lvgl/src/extra/widgets/span/../../../../src/core/lv_obj_style_gen.h ****     lv_style_value_t v = lv_obj_get_style_prop(obj, part, LV_STYLE_TRANSFORM_HEIGHT);
  64:lvgl/src/extra/widgets/span/../../../../src/core/lv_obj_style_gen.h ****     return (lv_coord_t)v.num;
  65:lvgl/src/extra/widgets/span/../../../../src/core/lv_obj_style_gen.h **** }
  66:lvgl/src/extra/widgets/span/../../../../src/core/lv_obj_style_gen.h **** 
  67:lvgl/src/extra/widgets/span/../../../../src/core/lv_obj_style_gen.h **** static inline lv_coord_t lv_obj_get_style_translate_x(const struct _lv_obj_t * obj, uint32_t part)
  68:lvgl/src/extra/widgets/span/../../../../src/core/lv_obj_style_gen.h **** {
  69:lvgl/src/extra/widgets/span/../../../../src/core/lv_obj_style_gen.h ****     lv_style_value_t v = lv_obj_get_style_prop(obj, part, LV_STYLE_TRANSLATE_X);
  70:lvgl/src/extra/widgets/span/../../../../src/core/lv_obj_style_gen.h ****     return (lv_coord_t)v.num;
ARM GAS  /var/folders/21/t9g5rlb91ys800n5npymflf80000gn/T//ccdafQ6l.s 			page 20


  71:lvgl/src/extra/widgets/span/../../../../src/core/lv_obj_style_gen.h **** }
  72:lvgl/src/extra/widgets/span/../../../../src/core/lv_obj_style_gen.h **** 
  73:lvgl/src/extra/widgets/span/../../../../src/core/lv_obj_style_gen.h **** static inline lv_coord_t lv_obj_get_style_translate_y(const struct _lv_obj_t * obj, uint32_t part)
  74:lvgl/src/extra/widgets/span/../../../../src/core/lv_obj_style_gen.h **** {
  75:lvgl/src/extra/widgets/span/../../../../src/core/lv_obj_style_gen.h ****     lv_style_value_t v = lv_obj_get_style_prop(obj, part, LV_STYLE_TRANSLATE_Y);
  76:lvgl/src/extra/widgets/span/../../../../src/core/lv_obj_style_gen.h ****     return (lv_coord_t)v.num;
  77:lvgl/src/extra/widgets/span/../../../../src/core/lv_obj_style_gen.h **** }
  78:lvgl/src/extra/widgets/span/../../../../src/core/lv_obj_style_gen.h **** 
  79:lvgl/src/extra/widgets/span/../../../../src/core/lv_obj_style_gen.h **** static inline lv_coord_t lv_obj_get_style_transform_zoom(const struct _lv_obj_t * obj, uint32_t par
  80:lvgl/src/extra/widgets/span/../../../../src/core/lv_obj_style_gen.h **** {
  81:lvgl/src/extra/widgets/span/../../../../src/core/lv_obj_style_gen.h ****     lv_style_value_t v = lv_obj_get_style_prop(obj, part, LV_STYLE_TRANSFORM_ZOOM);
  82:lvgl/src/extra/widgets/span/../../../../src/core/lv_obj_style_gen.h ****     return (lv_coord_t)v.num;
  83:lvgl/src/extra/widgets/span/../../../../src/core/lv_obj_style_gen.h **** }
  84:lvgl/src/extra/widgets/span/../../../../src/core/lv_obj_style_gen.h **** 
  85:lvgl/src/extra/widgets/span/../../../../src/core/lv_obj_style_gen.h **** static inline lv_coord_t lv_obj_get_style_transform_angle(const struct _lv_obj_t * obj, uint32_t pa
  86:lvgl/src/extra/widgets/span/../../../../src/core/lv_obj_style_gen.h **** {
  87:lvgl/src/extra/widgets/span/../../../../src/core/lv_obj_style_gen.h ****     lv_style_value_t v = lv_obj_get_style_prop(obj, part, LV_STYLE_TRANSFORM_ANGLE);
  88:lvgl/src/extra/widgets/span/../../../../src/core/lv_obj_style_gen.h ****     return (lv_coord_t)v.num;
  89:lvgl/src/extra/widgets/span/../../../../src/core/lv_obj_style_gen.h **** }
  90:lvgl/src/extra/widgets/span/../../../../src/core/lv_obj_style_gen.h **** 
  91:lvgl/src/extra/widgets/span/../../../../src/core/lv_obj_style_gen.h **** static inline lv_coord_t lv_obj_get_style_transform_pivot_x(const struct _lv_obj_t * obj, uint32_t 
  92:lvgl/src/extra/widgets/span/../../../../src/core/lv_obj_style_gen.h **** {
  93:lvgl/src/extra/widgets/span/../../../../src/core/lv_obj_style_gen.h ****     lv_style_value_t v = lv_obj_get_style_prop(obj, part, LV_STYLE_TRANSFORM_PIVOT_X);
  94:lvgl/src/extra/widgets/span/../../../../src/core/lv_obj_style_gen.h ****     return (lv_coord_t)v.num;
  95:lvgl/src/extra/widgets/span/../../../../src/core/lv_obj_style_gen.h **** }
  96:lvgl/src/extra/widgets/span/../../../../src/core/lv_obj_style_gen.h **** 
  97:lvgl/src/extra/widgets/span/../../../../src/core/lv_obj_style_gen.h **** static inline lv_coord_t lv_obj_get_style_transform_pivot_y(const struct _lv_obj_t * obj, uint32_t 
  98:lvgl/src/extra/widgets/span/../../../../src/core/lv_obj_style_gen.h **** {
  99:lvgl/src/extra/widgets/span/../../../../src/core/lv_obj_style_gen.h ****     lv_style_value_t v = lv_obj_get_style_prop(obj, part, LV_STYLE_TRANSFORM_PIVOT_Y);
 100:lvgl/src/extra/widgets/span/../../../../src/core/lv_obj_style_gen.h ****     return (lv_coord_t)v.num;
 101:lvgl/src/extra/widgets/span/../../../../src/core/lv_obj_style_gen.h **** }
 102:lvgl/src/extra/widgets/span/../../../../src/core/lv_obj_style_gen.h **** 
 103:lvgl/src/extra/widgets/span/../../../../src/core/lv_obj_style_gen.h **** static inline lv_coord_t lv_obj_get_style_pad_top(const struct _lv_obj_t * obj, uint32_t part)
 104:lvgl/src/extra/widgets/span/../../../../src/core/lv_obj_style_gen.h **** {
 105:lvgl/src/extra/widgets/span/../../../../src/core/lv_obj_style_gen.h ****     lv_style_value_t v = lv_obj_get_style_prop(obj, part, LV_STYLE_PAD_TOP);
 106:lvgl/src/extra/widgets/span/../../../../src/core/lv_obj_style_gen.h ****     return (lv_coord_t)v.num;
 107:lvgl/src/extra/widgets/span/../../../../src/core/lv_obj_style_gen.h **** }
 108:lvgl/src/extra/widgets/span/../../../../src/core/lv_obj_style_gen.h **** 
 109:lvgl/src/extra/widgets/span/../../../../src/core/lv_obj_style_gen.h **** static inline lv_coord_t lv_obj_get_style_pad_bottom(const struct _lv_obj_t * obj, uint32_t part)
 110:lvgl/src/extra/widgets/span/../../../../src/core/lv_obj_style_gen.h **** {
 111:lvgl/src/extra/widgets/span/../../../../src/core/lv_obj_style_gen.h ****     lv_style_value_t v = lv_obj_get_style_prop(obj, part, LV_STYLE_PAD_BOTTOM);
 112:lvgl/src/extra/widgets/span/../../../../src/core/lv_obj_style_gen.h ****     return (lv_coord_t)v.num;
 113:lvgl/src/extra/widgets/span/../../../../src/core/lv_obj_style_gen.h **** }
 114:lvgl/src/extra/widgets/span/../../../../src/core/lv_obj_style_gen.h **** 
 115:lvgl/src/extra/widgets/span/../../../../src/core/lv_obj_style_gen.h **** static inline lv_coord_t lv_obj_get_style_pad_left(const struct _lv_obj_t * obj, uint32_t part)
 116:lvgl/src/extra/widgets/span/../../../../src/core/lv_obj_style_gen.h **** {
 117:lvgl/src/extra/widgets/span/../../../../src/core/lv_obj_style_gen.h ****     lv_style_value_t v = lv_obj_get_style_prop(obj, part, LV_STYLE_PAD_LEFT);
 118:lvgl/src/extra/widgets/span/../../../../src/core/lv_obj_style_gen.h ****     return (lv_coord_t)v.num;
 119:lvgl/src/extra/widgets/span/../../../../src/core/lv_obj_style_gen.h **** }
 120:lvgl/src/extra/widgets/span/../../../../src/core/lv_obj_style_gen.h **** 
 121:lvgl/src/extra/widgets/span/../../../../src/core/lv_obj_style_gen.h **** static inline lv_coord_t lv_obj_get_style_pad_right(const struct _lv_obj_t * obj, uint32_t part)
 122:lvgl/src/extra/widgets/span/../../../../src/core/lv_obj_style_gen.h **** {
 123:lvgl/src/extra/widgets/span/../../../../src/core/lv_obj_style_gen.h ****     lv_style_value_t v = lv_obj_get_style_prop(obj, part, LV_STYLE_PAD_RIGHT);
 124:lvgl/src/extra/widgets/span/../../../../src/core/lv_obj_style_gen.h ****     return (lv_coord_t)v.num;
 125:lvgl/src/extra/widgets/span/../../../../src/core/lv_obj_style_gen.h **** }
 126:lvgl/src/extra/widgets/span/../../../../src/core/lv_obj_style_gen.h **** 
 127:lvgl/src/extra/widgets/span/../../../../src/core/lv_obj_style_gen.h **** static inline lv_coord_t lv_obj_get_style_pad_row(const struct _lv_obj_t * obj, uint32_t part)
ARM GAS  /var/folders/21/t9g5rlb91ys800n5npymflf80000gn/T//ccdafQ6l.s 			page 21


 128:lvgl/src/extra/widgets/span/../../../../src/core/lv_obj_style_gen.h **** {
 129:lvgl/src/extra/widgets/span/../../../../src/core/lv_obj_style_gen.h ****     lv_style_value_t v = lv_obj_get_style_prop(obj, part, LV_STYLE_PAD_ROW);
 130:lvgl/src/extra/widgets/span/../../../../src/core/lv_obj_style_gen.h ****     return (lv_coord_t)v.num;
 131:lvgl/src/extra/widgets/span/../../../../src/core/lv_obj_style_gen.h **** }
 132:lvgl/src/extra/widgets/span/../../../../src/core/lv_obj_style_gen.h **** 
 133:lvgl/src/extra/widgets/span/../../../../src/core/lv_obj_style_gen.h **** static inline lv_coord_t lv_obj_get_style_pad_column(const struct _lv_obj_t * obj, uint32_t part)
 134:lvgl/src/extra/widgets/span/../../../../src/core/lv_obj_style_gen.h **** {
 135:lvgl/src/extra/widgets/span/../../../../src/core/lv_obj_style_gen.h ****     lv_style_value_t v = lv_obj_get_style_prop(obj, part, LV_STYLE_PAD_COLUMN);
 136:lvgl/src/extra/widgets/span/../../../../src/core/lv_obj_style_gen.h ****     return (lv_coord_t)v.num;
 137:lvgl/src/extra/widgets/span/../../../../src/core/lv_obj_style_gen.h **** }
 138:lvgl/src/extra/widgets/span/../../../../src/core/lv_obj_style_gen.h **** 
 139:lvgl/src/extra/widgets/span/../../../../src/core/lv_obj_style_gen.h **** static inline lv_color_t lv_obj_get_style_bg_color(const struct _lv_obj_t * obj, uint32_t part)
 140:lvgl/src/extra/widgets/span/../../../../src/core/lv_obj_style_gen.h **** {
 141:lvgl/src/extra/widgets/span/../../../../src/core/lv_obj_style_gen.h ****     lv_style_value_t v = lv_obj_get_style_prop(obj, part, LV_STYLE_BG_COLOR);
 142:lvgl/src/extra/widgets/span/../../../../src/core/lv_obj_style_gen.h ****     return v.color;
 143:lvgl/src/extra/widgets/span/../../../../src/core/lv_obj_style_gen.h **** }
 144:lvgl/src/extra/widgets/span/../../../../src/core/lv_obj_style_gen.h **** 
 145:lvgl/src/extra/widgets/span/../../../../src/core/lv_obj_style_gen.h **** static inline lv_color_t lv_obj_get_style_bg_color_filtered(const struct _lv_obj_t * obj, uint32_t 
 146:lvgl/src/extra/widgets/span/../../../../src/core/lv_obj_style_gen.h **** {
 147:lvgl/src/extra/widgets/span/../../../../src/core/lv_obj_style_gen.h ****     lv_style_value_t v = _lv_obj_style_apply_color_filter(obj, part, lv_obj_get_style_prop(obj, par
 148:lvgl/src/extra/widgets/span/../../../../src/core/lv_obj_style_gen.h ****     return v.color;
 149:lvgl/src/extra/widgets/span/../../../../src/core/lv_obj_style_gen.h **** }
 150:lvgl/src/extra/widgets/span/../../../../src/core/lv_obj_style_gen.h **** 
 151:lvgl/src/extra/widgets/span/../../../../src/core/lv_obj_style_gen.h **** static inline lv_opa_t lv_obj_get_style_bg_opa(const struct _lv_obj_t * obj, uint32_t part)
 152:lvgl/src/extra/widgets/span/../../../../src/core/lv_obj_style_gen.h **** {
 153:lvgl/src/extra/widgets/span/../../../../src/core/lv_obj_style_gen.h ****     lv_style_value_t v = lv_obj_get_style_prop(obj, part, LV_STYLE_BG_OPA);
 154:lvgl/src/extra/widgets/span/../../../../src/core/lv_obj_style_gen.h ****     return (lv_opa_t)v.num;
 155:lvgl/src/extra/widgets/span/../../../../src/core/lv_obj_style_gen.h **** }
 156:lvgl/src/extra/widgets/span/../../../../src/core/lv_obj_style_gen.h **** 
 157:lvgl/src/extra/widgets/span/../../../../src/core/lv_obj_style_gen.h **** static inline lv_color_t lv_obj_get_style_bg_grad_color(const struct _lv_obj_t * obj, uint32_t part
 158:lvgl/src/extra/widgets/span/../../../../src/core/lv_obj_style_gen.h **** {
 159:lvgl/src/extra/widgets/span/../../../../src/core/lv_obj_style_gen.h ****     lv_style_value_t v = lv_obj_get_style_prop(obj, part, LV_STYLE_BG_GRAD_COLOR);
 160:lvgl/src/extra/widgets/span/../../../../src/core/lv_obj_style_gen.h ****     return v.color;
 161:lvgl/src/extra/widgets/span/../../../../src/core/lv_obj_style_gen.h **** }
 162:lvgl/src/extra/widgets/span/../../../../src/core/lv_obj_style_gen.h **** 
 163:lvgl/src/extra/widgets/span/../../../../src/core/lv_obj_style_gen.h **** static inline lv_color_t lv_obj_get_style_bg_grad_color_filtered(const struct _lv_obj_t * obj, uint
 164:lvgl/src/extra/widgets/span/../../../../src/core/lv_obj_style_gen.h **** {
 165:lvgl/src/extra/widgets/span/../../../../src/core/lv_obj_style_gen.h ****     lv_style_value_t v = _lv_obj_style_apply_color_filter(obj, part, lv_obj_get_style_prop(obj, par
 166:lvgl/src/extra/widgets/span/../../../../src/core/lv_obj_style_gen.h ****     return v.color;
 167:lvgl/src/extra/widgets/span/../../../../src/core/lv_obj_style_gen.h **** }
 168:lvgl/src/extra/widgets/span/../../../../src/core/lv_obj_style_gen.h **** 
 169:lvgl/src/extra/widgets/span/../../../../src/core/lv_obj_style_gen.h **** static inline lv_grad_dir_t lv_obj_get_style_bg_grad_dir(const struct _lv_obj_t * obj, uint32_t par
 170:lvgl/src/extra/widgets/span/../../../../src/core/lv_obj_style_gen.h **** {
 171:lvgl/src/extra/widgets/span/../../../../src/core/lv_obj_style_gen.h ****     lv_style_value_t v = lv_obj_get_style_prop(obj, part, LV_STYLE_BG_GRAD_DIR);
 172:lvgl/src/extra/widgets/span/../../../../src/core/lv_obj_style_gen.h ****     return (lv_grad_dir_t)v.num;
 173:lvgl/src/extra/widgets/span/../../../../src/core/lv_obj_style_gen.h **** }
 174:lvgl/src/extra/widgets/span/../../../../src/core/lv_obj_style_gen.h **** 
 175:lvgl/src/extra/widgets/span/../../../../src/core/lv_obj_style_gen.h **** static inline lv_coord_t lv_obj_get_style_bg_main_stop(const struct _lv_obj_t * obj, uint32_t part)
 176:lvgl/src/extra/widgets/span/../../../../src/core/lv_obj_style_gen.h **** {
 177:lvgl/src/extra/widgets/span/../../../../src/core/lv_obj_style_gen.h ****     lv_style_value_t v = lv_obj_get_style_prop(obj, part, LV_STYLE_BG_MAIN_STOP);
 178:lvgl/src/extra/widgets/span/../../../../src/core/lv_obj_style_gen.h ****     return (lv_coord_t)v.num;
 179:lvgl/src/extra/widgets/span/../../../../src/core/lv_obj_style_gen.h **** }
 180:lvgl/src/extra/widgets/span/../../../../src/core/lv_obj_style_gen.h **** 
 181:lvgl/src/extra/widgets/span/../../../../src/core/lv_obj_style_gen.h **** static inline lv_coord_t lv_obj_get_style_bg_grad_stop(const struct _lv_obj_t * obj, uint32_t part)
 182:lvgl/src/extra/widgets/span/../../../../src/core/lv_obj_style_gen.h **** {
 183:lvgl/src/extra/widgets/span/../../../../src/core/lv_obj_style_gen.h ****     lv_style_value_t v = lv_obj_get_style_prop(obj, part, LV_STYLE_BG_GRAD_STOP);
 184:lvgl/src/extra/widgets/span/../../../../src/core/lv_obj_style_gen.h ****     return (lv_coord_t)v.num;
ARM GAS  /var/folders/21/t9g5rlb91ys800n5npymflf80000gn/T//ccdafQ6l.s 			page 22


 185:lvgl/src/extra/widgets/span/../../../../src/core/lv_obj_style_gen.h **** }
 186:lvgl/src/extra/widgets/span/../../../../src/core/lv_obj_style_gen.h **** 
 187:lvgl/src/extra/widgets/span/../../../../src/core/lv_obj_style_gen.h **** static inline const lv_grad_dsc_t * lv_obj_get_style_bg_grad(const struct _lv_obj_t * obj, uint32_t
 188:lvgl/src/extra/widgets/span/../../../../src/core/lv_obj_style_gen.h **** {
 189:lvgl/src/extra/widgets/span/../../../../src/core/lv_obj_style_gen.h ****     lv_style_value_t v = lv_obj_get_style_prop(obj, part, LV_STYLE_BG_GRAD);
 190:lvgl/src/extra/widgets/span/../../../../src/core/lv_obj_style_gen.h ****     return (const lv_grad_dsc_t *)v.ptr;
 191:lvgl/src/extra/widgets/span/../../../../src/core/lv_obj_style_gen.h **** }
 192:lvgl/src/extra/widgets/span/../../../../src/core/lv_obj_style_gen.h **** 
 193:lvgl/src/extra/widgets/span/../../../../src/core/lv_obj_style_gen.h **** static inline lv_dither_mode_t lv_obj_get_style_bg_dither_mode(const struct _lv_obj_t * obj, uint32
 194:lvgl/src/extra/widgets/span/../../../../src/core/lv_obj_style_gen.h **** {
 195:lvgl/src/extra/widgets/span/../../../../src/core/lv_obj_style_gen.h ****     lv_style_value_t v = lv_obj_get_style_prop(obj, part, LV_STYLE_BG_DITHER_MODE);
 196:lvgl/src/extra/widgets/span/../../../../src/core/lv_obj_style_gen.h ****     return (lv_dither_mode_t)v.num;
 197:lvgl/src/extra/widgets/span/../../../../src/core/lv_obj_style_gen.h **** }
 198:lvgl/src/extra/widgets/span/../../../../src/core/lv_obj_style_gen.h **** 
 199:lvgl/src/extra/widgets/span/../../../../src/core/lv_obj_style_gen.h **** static inline const void * lv_obj_get_style_bg_img_src(const struct _lv_obj_t * obj, uint32_t part)
 200:lvgl/src/extra/widgets/span/../../../../src/core/lv_obj_style_gen.h **** {
 201:lvgl/src/extra/widgets/span/../../../../src/core/lv_obj_style_gen.h ****     lv_style_value_t v = lv_obj_get_style_prop(obj, part, LV_STYLE_BG_IMG_SRC);
 202:lvgl/src/extra/widgets/span/../../../../src/core/lv_obj_style_gen.h ****     return (const void *)v.ptr;
 203:lvgl/src/extra/widgets/span/../../../../src/core/lv_obj_style_gen.h **** }
 204:lvgl/src/extra/widgets/span/../../../../src/core/lv_obj_style_gen.h **** 
 205:lvgl/src/extra/widgets/span/../../../../src/core/lv_obj_style_gen.h **** static inline lv_opa_t lv_obj_get_style_bg_img_opa(const struct _lv_obj_t * obj, uint32_t part)
 206:lvgl/src/extra/widgets/span/../../../../src/core/lv_obj_style_gen.h **** {
 207:lvgl/src/extra/widgets/span/../../../../src/core/lv_obj_style_gen.h ****     lv_style_value_t v = lv_obj_get_style_prop(obj, part, LV_STYLE_BG_IMG_OPA);
 208:lvgl/src/extra/widgets/span/../../../../src/core/lv_obj_style_gen.h ****     return (lv_opa_t)v.num;
 209:lvgl/src/extra/widgets/span/../../../../src/core/lv_obj_style_gen.h **** }
 210:lvgl/src/extra/widgets/span/../../../../src/core/lv_obj_style_gen.h **** 
 211:lvgl/src/extra/widgets/span/../../../../src/core/lv_obj_style_gen.h **** static inline lv_color_t lv_obj_get_style_bg_img_recolor(const struct _lv_obj_t * obj, uint32_t par
 212:lvgl/src/extra/widgets/span/../../../../src/core/lv_obj_style_gen.h **** {
 213:lvgl/src/extra/widgets/span/../../../../src/core/lv_obj_style_gen.h ****     lv_style_value_t v = lv_obj_get_style_prop(obj, part, LV_STYLE_BG_IMG_RECOLOR);
 214:lvgl/src/extra/widgets/span/../../../../src/core/lv_obj_style_gen.h ****     return v.color;
 215:lvgl/src/extra/widgets/span/../../../../src/core/lv_obj_style_gen.h **** }
 216:lvgl/src/extra/widgets/span/../../../../src/core/lv_obj_style_gen.h **** 
 217:lvgl/src/extra/widgets/span/../../../../src/core/lv_obj_style_gen.h **** static inline lv_color_t lv_obj_get_style_bg_img_recolor_filtered(const struct _lv_obj_t * obj, uin
 218:lvgl/src/extra/widgets/span/../../../../src/core/lv_obj_style_gen.h **** {
 219:lvgl/src/extra/widgets/span/../../../../src/core/lv_obj_style_gen.h ****     lv_style_value_t v = _lv_obj_style_apply_color_filter(obj, part, lv_obj_get_style_prop(obj, par
 220:lvgl/src/extra/widgets/span/../../../../src/core/lv_obj_style_gen.h ****     return v.color;
 221:lvgl/src/extra/widgets/span/../../../../src/core/lv_obj_style_gen.h **** }
 222:lvgl/src/extra/widgets/span/../../../../src/core/lv_obj_style_gen.h **** 
 223:lvgl/src/extra/widgets/span/../../../../src/core/lv_obj_style_gen.h **** static inline lv_opa_t lv_obj_get_style_bg_img_recolor_opa(const struct _lv_obj_t * obj, uint32_t p
 224:lvgl/src/extra/widgets/span/../../../../src/core/lv_obj_style_gen.h **** {
 225:lvgl/src/extra/widgets/span/../../../../src/core/lv_obj_style_gen.h ****     lv_style_value_t v = lv_obj_get_style_prop(obj, part, LV_STYLE_BG_IMG_RECOLOR_OPA);
 226:lvgl/src/extra/widgets/span/../../../../src/core/lv_obj_style_gen.h ****     return (lv_opa_t)v.num;
 227:lvgl/src/extra/widgets/span/../../../../src/core/lv_obj_style_gen.h **** }
 228:lvgl/src/extra/widgets/span/../../../../src/core/lv_obj_style_gen.h **** 
 229:lvgl/src/extra/widgets/span/../../../../src/core/lv_obj_style_gen.h **** static inline bool lv_obj_get_style_bg_img_tiled(const struct _lv_obj_t * obj, uint32_t part)
 230:lvgl/src/extra/widgets/span/../../../../src/core/lv_obj_style_gen.h **** {
 231:lvgl/src/extra/widgets/span/../../../../src/core/lv_obj_style_gen.h ****     lv_style_value_t v = lv_obj_get_style_prop(obj, part, LV_STYLE_BG_IMG_TILED);
 232:lvgl/src/extra/widgets/span/../../../../src/core/lv_obj_style_gen.h ****     return (bool)v.num;
 233:lvgl/src/extra/widgets/span/../../../../src/core/lv_obj_style_gen.h **** }
 234:lvgl/src/extra/widgets/span/../../../../src/core/lv_obj_style_gen.h **** 
 235:lvgl/src/extra/widgets/span/../../../../src/core/lv_obj_style_gen.h **** static inline lv_color_t lv_obj_get_style_border_color(const struct _lv_obj_t * obj, uint32_t part)
 236:lvgl/src/extra/widgets/span/../../../../src/core/lv_obj_style_gen.h **** {
 237:lvgl/src/extra/widgets/span/../../../../src/core/lv_obj_style_gen.h ****     lv_style_value_t v = lv_obj_get_style_prop(obj, part, LV_STYLE_BORDER_COLOR);
 238:lvgl/src/extra/widgets/span/../../../../src/core/lv_obj_style_gen.h ****     return v.color;
 239:lvgl/src/extra/widgets/span/../../../../src/core/lv_obj_style_gen.h **** }
 240:lvgl/src/extra/widgets/span/../../../../src/core/lv_obj_style_gen.h **** 
 241:lvgl/src/extra/widgets/span/../../../../src/core/lv_obj_style_gen.h **** static inline lv_color_t lv_obj_get_style_border_color_filtered(const struct _lv_obj_t * obj, uint3
ARM GAS  /var/folders/21/t9g5rlb91ys800n5npymflf80000gn/T//ccdafQ6l.s 			page 23


 242:lvgl/src/extra/widgets/span/../../../../src/core/lv_obj_style_gen.h **** {
 243:lvgl/src/extra/widgets/span/../../../../src/core/lv_obj_style_gen.h ****     lv_style_value_t v = _lv_obj_style_apply_color_filter(obj, part, lv_obj_get_style_prop(obj, par
 244:lvgl/src/extra/widgets/span/../../../../src/core/lv_obj_style_gen.h ****     return v.color;
 245:lvgl/src/extra/widgets/span/../../../../src/core/lv_obj_style_gen.h **** }
 246:lvgl/src/extra/widgets/span/../../../../src/core/lv_obj_style_gen.h **** 
 247:lvgl/src/extra/widgets/span/../../../../src/core/lv_obj_style_gen.h **** static inline lv_opa_t lv_obj_get_style_border_opa(const struct _lv_obj_t * obj, uint32_t part)
 248:lvgl/src/extra/widgets/span/../../../../src/core/lv_obj_style_gen.h **** {
 249:lvgl/src/extra/widgets/span/../../../../src/core/lv_obj_style_gen.h ****     lv_style_value_t v = lv_obj_get_style_prop(obj, part, LV_STYLE_BORDER_OPA);
 250:lvgl/src/extra/widgets/span/../../../../src/core/lv_obj_style_gen.h ****     return (lv_opa_t)v.num;
 251:lvgl/src/extra/widgets/span/../../../../src/core/lv_obj_style_gen.h **** }
 252:lvgl/src/extra/widgets/span/../../../../src/core/lv_obj_style_gen.h **** 
 253:lvgl/src/extra/widgets/span/../../../../src/core/lv_obj_style_gen.h **** static inline lv_coord_t lv_obj_get_style_border_width(const struct _lv_obj_t * obj, uint32_t part)
 254:lvgl/src/extra/widgets/span/../../../../src/core/lv_obj_style_gen.h **** {
 255:lvgl/src/extra/widgets/span/../../../../src/core/lv_obj_style_gen.h ****     lv_style_value_t v = lv_obj_get_style_prop(obj, part, LV_STYLE_BORDER_WIDTH);
 256:lvgl/src/extra/widgets/span/../../../../src/core/lv_obj_style_gen.h ****     return (lv_coord_t)v.num;
 257:lvgl/src/extra/widgets/span/../../../../src/core/lv_obj_style_gen.h **** }
 258:lvgl/src/extra/widgets/span/../../../../src/core/lv_obj_style_gen.h **** 
 259:lvgl/src/extra/widgets/span/../../../../src/core/lv_obj_style_gen.h **** static inline lv_border_side_t lv_obj_get_style_border_side(const struct _lv_obj_t * obj, uint32_t 
 260:lvgl/src/extra/widgets/span/../../../../src/core/lv_obj_style_gen.h **** {
 261:lvgl/src/extra/widgets/span/../../../../src/core/lv_obj_style_gen.h ****     lv_style_value_t v = lv_obj_get_style_prop(obj, part, LV_STYLE_BORDER_SIDE);
 262:lvgl/src/extra/widgets/span/../../../../src/core/lv_obj_style_gen.h ****     return (lv_border_side_t)v.num;
 263:lvgl/src/extra/widgets/span/../../../../src/core/lv_obj_style_gen.h **** }
 264:lvgl/src/extra/widgets/span/../../../../src/core/lv_obj_style_gen.h **** 
 265:lvgl/src/extra/widgets/span/../../../../src/core/lv_obj_style_gen.h **** static inline bool lv_obj_get_style_border_post(const struct _lv_obj_t * obj, uint32_t part)
 266:lvgl/src/extra/widgets/span/../../../../src/core/lv_obj_style_gen.h **** {
 267:lvgl/src/extra/widgets/span/../../../../src/core/lv_obj_style_gen.h ****     lv_style_value_t v = lv_obj_get_style_prop(obj, part, LV_STYLE_BORDER_POST);
 268:lvgl/src/extra/widgets/span/../../../../src/core/lv_obj_style_gen.h ****     return (bool)v.num;
 269:lvgl/src/extra/widgets/span/../../../../src/core/lv_obj_style_gen.h **** }
 270:lvgl/src/extra/widgets/span/../../../../src/core/lv_obj_style_gen.h **** 
 271:lvgl/src/extra/widgets/span/../../../../src/core/lv_obj_style_gen.h **** static inline lv_coord_t lv_obj_get_style_outline_width(const struct _lv_obj_t * obj, uint32_t part
 272:lvgl/src/extra/widgets/span/../../../../src/core/lv_obj_style_gen.h **** {
 273:lvgl/src/extra/widgets/span/../../../../src/core/lv_obj_style_gen.h ****     lv_style_value_t v = lv_obj_get_style_prop(obj, part, LV_STYLE_OUTLINE_WIDTH);
 274:lvgl/src/extra/widgets/span/../../../../src/core/lv_obj_style_gen.h ****     return (lv_coord_t)v.num;
 275:lvgl/src/extra/widgets/span/../../../../src/core/lv_obj_style_gen.h **** }
 276:lvgl/src/extra/widgets/span/../../../../src/core/lv_obj_style_gen.h **** 
 277:lvgl/src/extra/widgets/span/../../../../src/core/lv_obj_style_gen.h **** static inline lv_color_t lv_obj_get_style_outline_color(const struct _lv_obj_t * obj, uint32_t part
 278:lvgl/src/extra/widgets/span/../../../../src/core/lv_obj_style_gen.h **** {
 279:lvgl/src/extra/widgets/span/../../../../src/core/lv_obj_style_gen.h ****     lv_style_value_t v = lv_obj_get_style_prop(obj, part, LV_STYLE_OUTLINE_COLOR);
 280:lvgl/src/extra/widgets/span/../../../../src/core/lv_obj_style_gen.h ****     return v.color;
 281:lvgl/src/extra/widgets/span/../../../../src/core/lv_obj_style_gen.h **** }
 282:lvgl/src/extra/widgets/span/../../../../src/core/lv_obj_style_gen.h **** 
 283:lvgl/src/extra/widgets/span/../../../../src/core/lv_obj_style_gen.h **** static inline lv_color_t lv_obj_get_style_outline_color_filtered(const struct _lv_obj_t * obj, uint
 284:lvgl/src/extra/widgets/span/../../../../src/core/lv_obj_style_gen.h **** {
 285:lvgl/src/extra/widgets/span/../../../../src/core/lv_obj_style_gen.h ****     lv_style_value_t v = _lv_obj_style_apply_color_filter(obj, part, lv_obj_get_style_prop(obj, par
 286:lvgl/src/extra/widgets/span/../../../../src/core/lv_obj_style_gen.h ****     return v.color;
 287:lvgl/src/extra/widgets/span/../../../../src/core/lv_obj_style_gen.h **** }
 288:lvgl/src/extra/widgets/span/../../../../src/core/lv_obj_style_gen.h **** 
 289:lvgl/src/extra/widgets/span/../../../../src/core/lv_obj_style_gen.h **** static inline lv_opa_t lv_obj_get_style_outline_opa(const struct _lv_obj_t * obj, uint32_t part)
 290:lvgl/src/extra/widgets/span/../../../../src/core/lv_obj_style_gen.h **** {
 291:lvgl/src/extra/widgets/span/../../../../src/core/lv_obj_style_gen.h ****     lv_style_value_t v = lv_obj_get_style_prop(obj, part, LV_STYLE_OUTLINE_OPA);
 292:lvgl/src/extra/widgets/span/../../../../src/core/lv_obj_style_gen.h ****     return (lv_opa_t)v.num;
 293:lvgl/src/extra/widgets/span/../../../../src/core/lv_obj_style_gen.h **** }
 294:lvgl/src/extra/widgets/span/../../../../src/core/lv_obj_style_gen.h **** 
 295:lvgl/src/extra/widgets/span/../../../../src/core/lv_obj_style_gen.h **** static inline lv_coord_t lv_obj_get_style_outline_pad(const struct _lv_obj_t * obj, uint32_t part)
 296:lvgl/src/extra/widgets/span/../../../../src/core/lv_obj_style_gen.h **** {
 297:lvgl/src/extra/widgets/span/../../../../src/core/lv_obj_style_gen.h ****     lv_style_value_t v = lv_obj_get_style_prop(obj, part, LV_STYLE_OUTLINE_PAD);
 298:lvgl/src/extra/widgets/span/../../../../src/core/lv_obj_style_gen.h ****     return (lv_coord_t)v.num;
ARM GAS  /var/folders/21/t9g5rlb91ys800n5npymflf80000gn/T//ccdafQ6l.s 			page 24


 299:lvgl/src/extra/widgets/span/../../../../src/core/lv_obj_style_gen.h **** }
 300:lvgl/src/extra/widgets/span/../../../../src/core/lv_obj_style_gen.h **** 
 301:lvgl/src/extra/widgets/span/../../../../src/core/lv_obj_style_gen.h **** static inline lv_coord_t lv_obj_get_style_shadow_width(const struct _lv_obj_t * obj, uint32_t part)
 302:lvgl/src/extra/widgets/span/../../../../src/core/lv_obj_style_gen.h **** {
 303:lvgl/src/extra/widgets/span/../../../../src/core/lv_obj_style_gen.h ****     lv_style_value_t v = lv_obj_get_style_prop(obj, part, LV_STYLE_SHADOW_WIDTH);
 304:lvgl/src/extra/widgets/span/../../../../src/core/lv_obj_style_gen.h ****     return (lv_coord_t)v.num;
 305:lvgl/src/extra/widgets/span/../../../../src/core/lv_obj_style_gen.h **** }
 306:lvgl/src/extra/widgets/span/../../../../src/core/lv_obj_style_gen.h **** 
 307:lvgl/src/extra/widgets/span/../../../../src/core/lv_obj_style_gen.h **** static inline lv_coord_t lv_obj_get_style_shadow_ofs_x(const struct _lv_obj_t * obj, uint32_t part)
 308:lvgl/src/extra/widgets/span/../../../../src/core/lv_obj_style_gen.h **** {
 309:lvgl/src/extra/widgets/span/../../../../src/core/lv_obj_style_gen.h ****     lv_style_value_t v = lv_obj_get_style_prop(obj, part, LV_STYLE_SHADOW_OFS_X);
 310:lvgl/src/extra/widgets/span/../../../../src/core/lv_obj_style_gen.h ****     return (lv_coord_t)v.num;
 311:lvgl/src/extra/widgets/span/../../../../src/core/lv_obj_style_gen.h **** }
 312:lvgl/src/extra/widgets/span/../../../../src/core/lv_obj_style_gen.h **** 
 313:lvgl/src/extra/widgets/span/../../../../src/core/lv_obj_style_gen.h **** static inline lv_coord_t lv_obj_get_style_shadow_ofs_y(const struct _lv_obj_t * obj, uint32_t part)
 314:lvgl/src/extra/widgets/span/../../../../src/core/lv_obj_style_gen.h **** {
 315:lvgl/src/extra/widgets/span/../../../../src/core/lv_obj_style_gen.h ****     lv_style_value_t v = lv_obj_get_style_prop(obj, part, LV_STYLE_SHADOW_OFS_Y);
 316:lvgl/src/extra/widgets/span/../../../../src/core/lv_obj_style_gen.h ****     return (lv_coord_t)v.num;
 317:lvgl/src/extra/widgets/span/../../../../src/core/lv_obj_style_gen.h **** }
 318:lvgl/src/extra/widgets/span/../../../../src/core/lv_obj_style_gen.h **** 
 319:lvgl/src/extra/widgets/span/../../../../src/core/lv_obj_style_gen.h **** static inline lv_coord_t lv_obj_get_style_shadow_spread(const struct _lv_obj_t * obj, uint32_t part
 320:lvgl/src/extra/widgets/span/../../../../src/core/lv_obj_style_gen.h **** {
 321:lvgl/src/extra/widgets/span/../../../../src/core/lv_obj_style_gen.h ****     lv_style_value_t v = lv_obj_get_style_prop(obj, part, LV_STYLE_SHADOW_SPREAD);
 322:lvgl/src/extra/widgets/span/../../../../src/core/lv_obj_style_gen.h ****     return (lv_coord_t)v.num;
 323:lvgl/src/extra/widgets/span/../../../../src/core/lv_obj_style_gen.h **** }
 324:lvgl/src/extra/widgets/span/../../../../src/core/lv_obj_style_gen.h **** 
 325:lvgl/src/extra/widgets/span/../../../../src/core/lv_obj_style_gen.h **** static inline lv_color_t lv_obj_get_style_shadow_color(const struct _lv_obj_t * obj, uint32_t part)
 326:lvgl/src/extra/widgets/span/../../../../src/core/lv_obj_style_gen.h **** {
 327:lvgl/src/extra/widgets/span/../../../../src/core/lv_obj_style_gen.h ****     lv_style_value_t v = lv_obj_get_style_prop(obj, part, LV_STYLE_SHADOW_COLOR);
 328:lvgl/src/extra/widgets/span/../../../../src/core/lv_obj_style_gen.h ****     return v.color;
 329:lvgl/src/extra/widgets/span/../../../../src/core/lv_obj_style_gen.h **** }
 330:lvgl/src/extra/widgets/span/../../../../src/core/lv_obj_style_gen.h **** 
 331:lvgl/src/extra/widgets/span/../../../../src/core/lv_obj_style_gen.h **** static inline lv_color_t lv_obj_get_style_shadow_color_filtered(const struct _lv_obj_t * obj, uint3
 332:lvgl/src/extra/widgets/span/../../../../src/core/lv_obj_style_gen.h **** {
 333:lvgl/src/extra/widgets/span/../../../../src/core/lv_obj_style_gen.h ****     lv_style_value_t v = _lv_obj_style_apply_color_filter(obj, part, lv_obj_get_style_prop(obj, par
 334:lvgl/src/extra/widgets/span/../../../../src/core/lv_obj_style_gen.h ****     return v.color;
 335:lvgl/src/extra/widgets/span/../../../../src/core/lv_obj_style_gen.h **** }
 336:lvgl/src/extra/widgets/span/../../../../src/core/lv_obj_style_gen.h **** 
 337:lvgl/src/extra/widgets/span/../../../../src/core/lv_obj_style_gen.h **** static inline lv_opa_t lv_obj_get_style_shadow_opa(const struct _lv_obj_t * obj, uint32_t part)
 338:lvgl/src/extra/widgets/span/../../../../src/core/lv_obj_style_gen.h **** {
 339:lvgl/src/extra/widgets/span/../../../../src/core/lv_obj_style_gen.h ****     lv_style_value_t v = lv_obj_get_style_prop(obj, part, LV_STYLE_SHADOW_OPA);
 340:lvgl/src/extra/widgets/span/../../../../src/core/lv_obj_style_gen.h ****     return (lv_opa_t)v.num;
 341:lvgl/src/extra/widgets/span/../../../../src/core/lv_obj_style_gen.h **** }
 342:lvgl/src/extra/widgets/span/../../../../src/core/lv_obj_style_gen.h **** 
 343:lvgl/src/extra/widgets/span/../../../../src/core/lv_obj_style_gen.h **** static inline lv_opa_t lv_obj_get_style_img_opa(const struct _lv_obj_t * obj, uint32_t part)
 344:lvgl/src/extra/widgets/span/../../../../src/core/lv_obj_style_gen.h **** {
 345:lvgl/src/extra/widgets/span/../../../../src/core/lv_obj_style_gen.h ****     lv_style_value_t v = lv_obj_get_style_prop(obj, part, LV_STYLE_IMG_OPA);
 346:lvgl/src/extra/widgets/span/../../../../src/core/lv_obj_style_gen.h ****     return (lv_opa_t)v.num;
 347:lvgl/src/extra/widgets/span/../../../../src/core/lv_obj_style_gen.h **** }
 348:lvgl/src/extra/widgets/span/../../../../src/core/lv_obj_style_gen.h **** 
 349:lvgl/src/extra/widgets/span/../../../../src/core/lv_obj_style_gen.h **** static inline lv_color_t lv_obj_get_style_img_recolor(const struct _lv_obj_t * obj, uint32_t part)
 350:lvgl/src/extra/widgets/span/../../../../src/core/lv_obj_style_gen.h **** {
 351:lvgl/src/extra/widgets/span/../../../../src/core/lv_obj_style_gen.h ****     lv_style_value_t v = lv_obj_get_style_prop(obj, part, LV_STYLE_IMG_RECOLOR);
 352:lvgl/src/extra/widgets/span/../../../../src/core/lv_obj_style_gen.h ****     return v.color;
 353:lvgl/src/extra/widgets/span/../../../../src/core/lv_obj_style_gen.h **** }
 354:lvgl/src/extra/widgets/span/../../../../src/core/lv_obj_style_gen.h **** 
 355:lvgl/src/extra/widgets/span/../../../../src/core/lv_obj_style_gen.h **** static inline lv_color_t lv_obj_get_style_img_recolor_filtered(const struct _lv_obj_t * obj, uint32
ARM GAS  /var/folders/21/t9g5rlb91ys800n5npymflf80000gn/T//ccdafQ6l.s 			page 25


 356:lvgl/src/extra/widgets/span/../../../../src/core/lv_obj_style_gen.h **** {
 357:lvgl/src/extra/widgets/span/../../../../src/core/lv_obj_style_gen.h ****     lv_style_value_t v = _lv_obj_style_apply_color_filter(obj, part, lv_obj_get_style_prop(obj, par
 358:lvgl/src/extra/widgets/span/../../../../src/core/lv_obj_style_gen.h ****     return v.color;
 359:lvgl/src/extra/widgets/span/../../../../src/core/lv_obj_style_gen.h **** }
 360:lvgl/src/extra/widgets/span/../../../../src/core/lv_obj_style_gen.h **** 
 361:lvgl/src/extra/widgets/span/../../../../src/core/lv_obj_style_gen.h **** static inline lv_opa_t lv_obj_get_style_img_recolor_opa(const struct _lv_obj_t * obj, uint32_t part
 362:lvgl/src/extra/widgets/span/../../../../src/core/lv_obj_style_gen.h **** {
 363:lvgl/src/extra/widgets/span/../../../../src/core/lv_obj_style_gen.h ****     lv_style_value_t v = lv_obj_get_style_prop(obj, part, LV_STYLE_IMG_RECOLOR_OPA);
 364:lvgl/src/extra/widgets/span/../../../../src/core/lv_obj_style_gen.h ****     return (lv_opa_t)v.num;
 365:lvgl/src/extra/widgets/span/../../../../src/core/lv_obj_style_gen.h **** }
 366:lvgl/src/extra/widgets/span/../../../../src/core/lv_obj_style_gen.h **** 
 367:lvgl/src/extra/widgets/span/../../../../src/core/lv_obj_style_gen.h **** static inline lv_coord_t lv_obj_get_style_line_width(const struct _lv_obj_t * obj, uint32_t part)
 368:lvgl/src/extra/widgets/span/../../../../src/core/lv_obj_style_gen.h **** {
 369:lvgl/src/extra/widgets/span/../../../../src/core/lv_obj_style_gen.h ****     lv_style_value_t v = lv_obj_get_style_prop(obj, part, LV_STYLE_LINE_WIDTH);
 370:lvgl/src/extra/widgets/span/../../../../src/core/lv_obj_style_gen.h ****     return (lv_coord_t)v.num;
 371:lvgl/src/extra/widgets/span/../../../../src/core/lv_obj_style_gen.h **** }
 372:lvgl/src/extra/widgets/span/../../../../src/core/lv_obj_style_gen.h **** 
 373:lvgl/src/extra/widgets/span/../../../../src/core/lv_obj_style_gen.h **** static inline lv_coord_t lv_obj_get_style_line_dash_width(const struct _lv_obj_t * obj, uint32_t pa
 374:lvgl/src/extra/widgets/span/../../../../src/core/lv_obj_style_gen.h **** {
 375:lvgl/src/extra/widgets/span/../../../../src/core/lv_obj_style_gen.h ****     lv_style_value_t v = lv_obj_get_style_prop(obj, part, LV_STYLE_LINE_DASH_WIDTH);
 376:lvgl/src/extra/widgets/span/../../../../src/core/lv_obj_style_gen.h ****     return (lv_coord_t)v.num;
 377:lvgl/src/extra/widgets/span/../../../../src/core/lv_obj_style_gen.h **** }
 378:lvgl/src/extra/widgets/span/../../../../src/core/lv_obj_style_gen.h **** 
 379:lvgl/src/extra/widgets/span/../../../../src/core/lv_obj_style_gen.h **** static inline lv_coord_t lv_obj_get_style_line_dash_gap(const struct _lv_obj_t * obj, uint32_t part
 380:lvgl/src/extra/widgets/span/../../../../src/core/lv_obj_style_gen.h **** {
 381:lvgl/src/extra/widgets/span/../../../../src/core/lv_obj_style_gen.h ****     lv_style_value_t v = lv_obj_get_style_prop(obj, part, LV_STYLE_LINE_DASH_GAP);
 382:lvgl/src/extra/widgets/span/../../../../src/core/lv_obj_style_gen.h ****     return (lv_coord_t)v.num;
 383:lvgl/src/extra/widgets/span/../../../../src/core/lv_obj_style_gen.h **** }
 384:lvgl/src/extra/widgets/span/../../../../src/core/lv_obj_style_gen.h **** 
 385:lvgl/src/extra/widgets/span/../../../../src/core/lv_obj_style_gen.h **** static inline bool lv_obj_get_style_line_rounded(const struct _lv_obj_t * obj, uint32_t part)
 386:lvgl/src/extra/widgets/span/../../../../src/core/lv_obj_style_gen.h **** {
 387:lvgl/src/extra/widgets/span/../../../../src/core/lv_obj_style_gen.h ****     lv_style_value_t v = lv_obj_get_style_prop(obj, part, LV_STYLE_LINE_ROUNDED);
 388:lvgl/src/extra/widgets/span/../../../../src/core/lv_obj_style_gen.h ****     return (bool)v.num;
 389:lvgl/src/extra/widgets/span/../../../../src/core/lv_obj_style_gen.h **** }
 390:lvgl/src/extra/widgets/span/../../../../src/core/lv_obj_style_gen.h **** 
 391:lvgl/src/extra/widgets/span/../../../../src/core/lv_obj_style_gen.h **** static inline lv_color_t lv_obj_get_style_line_color(const struct _lv_obj_t * obj, uint32_t part)
 392:lvgl/src/extra/widgets/span/../../../../src/core/lv_obj_style_gen.h **** {
 393:lvgl/src/extra/widgets/span/../../../../src/core/lv_obj_style_gen.h ****     lv_style_value_t v = lv_obj_get_style_prop(obj, part, LV_STYLE_LINE_COLOR);
 394:lvgl/src/extra/widgets/span/../../../../src/core/lv_obj_style_gen.h ****     return v.color;
 395:lvgl/src/extra/widgets/span/../../../../src/core/lv_obj_style_gen.h **** }
 396:lvgl/src/extra/widgets/span/../../../../src/core/lv_obj_style_gen.h **** 
 397:lvgl/src/extra/widgets/span/../../../../src/core/lv_obj_style_gen.h **** static inline lv_color_t lv_obj_get_style_line_color_filtered(const struct _lv_obj_t * obj, uint32_
 398:lvgl/src/extra/widgets/span/../../../../src/core/lv_obj_style_gen.h **** {
 399:lvgl/src/extra/widgets/span/../../../../src/core/lv_obj_style_gen.h ****     lv_style_value_t v = _lv_obj_style_apply_color_filter(obj, part, lv_obj_get_style_prop(obj, par
 400:lvgl/src/extra/widgets/span/../../../../src/core/lv_obj_style_gen.h ****     return v.color;
 401:lvgl/src/extra/widgets/span/../../../../src/core/lv_obj_style_gen.h **** }
 402:lvgl/src/extra/widgets/span/../../../../src/core/lv_obj_style_gen.h **** 
 403:lvgl/src/extra/widgets/span/../../../../src/core/lv_obj_style_gen.h **** static inline lv_opa_t lv_obj_get_style_line_opa(const struct _lv_obj_t * obj, uint32_t part)
 404:lvgl/src/extra/widgets/span/../../../../src/core/lv_obj_style_gen.h **** {
 405:lvgl/src/extra/widgets/span/../../../../src/core/lv_obj_style_gen.h ****     lv_style_value_t v = lv_obj_get_style_prop(obj, part, LV_STYLE_LINE_OPA);
 406:lvgl/src/extra/widgets/span/../../../../src/core/lv_obj_style_gen.h ****     return (lv_opa_t)v.num;
 407:lvgl/src/extra/widgets/span/../../../../src/core/lv_obj_style_gen.h **** }
 408:lvgl/src/extra/widgets/span/../../../../src/core/lv_obj_style_gen.h **** 
 409:lvgl/src/extra/widgets/span/../../../../src/core/lv_obj_style_gen.h **** static inline lv_coord_t lv_obj_get_style_arc_width(const struct _lv_obj_t * obj, uint32_t part)
 410:lvgl/src/extra/widgets/span/../../../../src/core/lv_obj_style_gen.h **** {
 411:lvgl/src/extra/widgets/span/../../../../src/core/lv_obj_style_gen.h ****     lv_style_value_t v = lv_obj_get_style_prop(obj, part, LV_STYLE_ARC_WIDTH);
 412:lvgl/src/extra/widgets/span/../../../../src/core/lv_obj_style_gen.h ****     return (lv_coord_t)v.num;
ARM GAS  /var/folders/21/t9g5rlb91ys800n5npymflf80000gn/T//ccdafQ6l.s 			page 26


 413:lvgl/src/extra/widgets/span/../../../../src/core/lv_obj_style_gen.h **** }
 414:lvgl/src/extra/widgets/span/../../../../src/core/lv_obj_style_gen.h **** 
 415:lvgl/src/extra/widgets/span/../../../../src/core/lv_obj_style_gen.h **** static inline bool lv_obj_get_style_arc_rounded(const struct _lv_obj_t * obj, uint32_t part)
 416:lvgl/src/extra/widgets/span/../../../../src/core/lv_obj_style_gen.h **** {
 417:lvgl/src/extra/widgets/span/../../../../src/core/lv_obj_style_gen.h ****     lv_style_value_t v = lv_obj_get_style_prop(obj, part, LV_STYLE_ARC_ROUNDED);
 418:lvgl/src/extra/widgets/span/../../../../src/core/lv_obj_style_gen.h ****     return (bool)v.num;
 419:lvgl/src/extra/widgets/span/../../../../src/core/lv_obj_style_gen.h **** }
 420:lvgl/src/extra/widgets/span/../../../../src/core/lv_obj_style_gen.h **** 
 421:lvgl/src/extra/widgets/span/../../../../src/core/lv_obj_style_gen.h **** static inline lv_color_t lv_obj_get_style_arc_color(const struct _lv_obj_t * obj, uint32_t part)
 422:lvgl/src/extra/widgets/span/../../../../src/core/lv_obj_style_gen.h **** {
 423:lvgl/src/extra/widgets/span/../../../../src/core/lv_obj_style_gen.h ****     lv_style_value_t v = lv_obj_get_style_prop(obj, part, LV_STYLE_ARC_COLOR);
 424:lvgl/src/extra/widgets/span/../../../../src/core/lv_obj_style_gen.h ****     return v.color;
 425:lvgl/src/extra/widgets/span/../../../../src/core/lv_obj_style_gen.h **** }
 426:lvgl/src/extra/widgets/span/../../../../src/core/lv_obj_style_gen.h **** 
 427:lvgl/src/extra/widgets/span/../../../../src/core/lv_obj_style_gen.h **** static inline lv_color_t lv_obj_get_style_arc_color_filtered(const struct _lv_obj_t * obj, uint32_t
 428:lvgl/src/extra/widgets/span/../../../../src/core/lv_obj_style_gen.h **** {
 429:lvgl/src/extra/widgets/span/../../../../src/core/lv_obj_style_gen.h ****     lv_style_value_t v = _lv_obj_style_apply_color_filter(obj, part, lv_obj_get_style_prop(obj, par
 430:lvgl/src/extra/widgets/span/../../../../src/core/lv_obj_style_gen.h ****     return v.color;
 431:lvgl/src/extra/widgets/span/../../../../src/core/lv_obj_style_gen.h **** }
 432:lvgl/src/extra/widgets/span/../../../../src/core/lv_obj_style_gen.h **** 
 433:lvgl/src/extra/widgets/span/../../../../src/core/lv_obj_style_gen.h **** static inline lv_opa_t lv_obj_get_style_arc_opa(const struct _lv_obj_t * obj, uint32_t part)
 434:lvgl/src/extra/widgets/span/../../../../src/core/lv_obj_style_gen.h **** {
 435:lvgl/src/extra/widgets/span/../../../../src/core/lv_obj_style_gen.h ****     lv_style_value_t v = lv_obj_get_style_prop(obj, part, LV_STYLE_ARC_OPA);
 436:lvgl/src/extra/widgets/span/../../../../src/core/lv_obj_style_gen.h ****     return (lv_opa_t)v.num;
 437:lvgl/src/extra/widgets/span/../../../../src/core/lv_obj_style_gen.h **** }
 438:lvgl/src/extra/widgets/span/../../../../src/core/lv_obj_style_gen.h **** 
 439:lvgl/src/extra/widgets/span/../../../../src/core/lv_obj_style_gen.h **** static inline const void * lv_obj_get_style_arc_img_src(const struct _lv_obj_t * obj, uint32_t part
 440:lvgl/src/extra/widgets/span/../../../../src/core/lv_obj_style_gen.h **** {
 441:lvgl/src/extra/widgets/span/../../../../src/core/lv_obj_style_gen.h ****     lv_style_value_t v = lv_obj_get_style_prop(obj, part, LV_STYLE_ARC_IMG_SRC);
 442:lvgl/src/extra/widgets/span/../../../../src/core/lv_obj_style_gen.h ****     return (const void *)v.ptr;
 443:lvgl/src/extra/widgets/span/../../../../src/core/lv_obj_style_gen.h **** }
 444:lvgl/src/extra/widgets/span/../../../../src/core/lv_obj_style_gen.h **** 
 445:lvgl/src/extra/widgets/span/../../../../src/core/lv_obj_style_gen.h **** static inline lv_color_t lv_obj_get_style_text_color(const struct _lv_obj_t * obj, uint32_t part)
 446:lvgl/src/extra/widgets/span/../../../../src/core/lv_obj_style_gen.h **** {
 447:lvgl/src/extra/widgets/span/../../../../src/core/lv_obj_style_gen.h ****     lv_style_value_t v = lv_obj_get_style_prop(obj, part, LV_STYLE_TEXT_COLOR);
 448:lvgl/src/extra/widgets/span/../../../../src/core/lv_obj_style_gen.h ****     return v.color;
 449:lvgl/src/extra/widgets/span/../../../../src/core/lv_obj_style_gen.h **** }
 450:lvgl/src/extra/widgets/span/../../../../src/core/lv_obj_style_gen.h **** 
 451:lvgl/src/extra/widgets/span/../../../../src/core/lv_obj_style_gen.h **** static inline lv_color_t lv_obj_get_style_text_color_filtered(const struct _lv_obj_t * obj, uint32_
 452:lvgl/src/extra/widgets/span/../../../../src/core/lv_obj_style_gen.h **** {
 453:lvgl/src/extra/widgets/span/../../../../src/core/lv_obj_style_gen.h ****     lv_style_value_t v = _lv_obj_style_apply_color_filter(obj, part, lv_obj_get_style_prop(obj, par
 454:lvgl/src/extra/widgets/span/../../../../src/core/lv_obj_style_gen.h ****     return v.color;
 455:lvgl/src/extra/widgets/span/../../../../src/core/lv_obj_style_gen.h **** }
 456:lvgl/src/extra/widgets/span/../../../../src/core/lv_obj_style_gen.h **** 
 457:lvgl/src/extra/widgets/span/../../../../src/core/lv_obj_style_gen.h **** static inline lv_opa_t lv_obj_get_style_text_opa(const struct _lv_obj_t * obj, uint32_t part)
 458:lvgl/src/extra/widgets/span/../../../../src/core/lv_obj_style_gen.h **** {
 459:lvgl/src/extra/widgets/span/../../../../src/core/lv_obj_style_gen.h ****     lv_style_value_t v = lv_obj_get_style_prop(obj, part, LV_STYLE_TEXT_OPA);
 460:lvgl/src/extra/widgets/span/../../../../src/core/lv_obj_style_gen.h ****     return (lv_opa_t)v.num;
 461:lvgl/src/extra/widgets/span/../../../../src/core/lv_obj_style_gen.h **** }
 462:lvgl/src/extra/widgets/span/../../../../src/core/lv_obj_style_gen.h **** 
 463:lvgl/src/extra/widgets/span/../../../../src/core/lv_obj_style_gen.h **** static inline const lv_font_t * lv_obj_get_style_text_font(const struct _lv_obj_t * obj, uint32_t p
 464:lvgl/src/extra/widgets/span/../../../../src/core/lv_obj_style_gen.h **** {
 465:lvgl/src/extra/widgets/span/../../../../src/core/lv_obj_style_gen.h ****     lv_style_value_t v = lv_obj_get_style_prop(obj, part, LV_STYLE_TEXT_FONT);
 466:lvgl/src/extra/widgets/span/../../../../src/core/lv_obj_style_gen.h ****     return (const lv_font_t *)v.ptr;
 467:lvgl/src/extra/widgets/span/../../../../src/core/lv_obj_style_gen.h **** }
 468:lvgl/src/extra/widgets/span/../../../../src/core/lv_obj_style_gen.h **** 
 469:lvgl/src/extra/widgets/span/../../../../src/core/lv_obj_style_gen.h **** static inline lv_coord_t lv_obj_get_style_text_letter_space(const struct _lv_obj_t * obj, uint32_t 
ARM GAS  /var/folders/21/t9g5rlb91ys800n5npymflf80000gn/T//ccdafQ6l.s 			page 27


 245              		.loc 2 469 26 view .LVU49
 246              	.LBB80:
 470:lvgl/src/extra/widgets/span/../../../../src/core/lv_obj_style_gen.h **** {
 471:lvgl/src/extra/widgets/span/../../../../src/core/lv_obj_style_gen.h ****     lv_style_value_t v = lv_obj_get_style_prop(obj, part, LV_STYLE_TEXT_LETTER_SPACE);
 247              		.loc 2 471 5 view .LVU50
 248              		.loc 2 471 26 is_stmt 0 view .LVU51
 249 001e 5822     		movs	r2, #88
 250 0020 0021     		movs	r1, #0
 251 0022 2046     		mov	r0, r4
 252              	.LVL19:
 253              		.loc 2 471 26 view .LVU52
 254 0024 FFF7FEFF 		bl	lv_obj_get_style_prop
 255              	.LVL20:
 472:lvgl/src/extra/widgets/span/../../../../src/core/lv_obj_style_gen.h ****     return (lv_coord_t)v.num;
 256              		.loc 2 472 5 is_stmt 1 view .LVU53
 257              		.loc 2 472 12 is_stmt 0 view .LVU54
 258 0028 00B2     		sxth	r0, r0
 259              	.LVL21:
 260              		.loc 2 472 12 view .LVU55
 261              	.LBE80:
 262              	.LBE79:
 263 002a F6E7     		b	.L20
 264              		.cfi_endproc
 265              	.LFE235:
 267              		.section	.text.lv_span_get_style_text_color,"ax",%progbits
 268              		.align	1
 269              		.syntax unified
 270              		.thumb
 271              		.thumb_func
 273              	lv_span_get_style_text_color:
 274              	.LVL22:
 275              	.LFB236:
 675:lvgl/src/extra/widgets/span/lv_span.c ****     lv_style_value_t value;
 276              		.loc 1 675 1 is_stmt 1 view -0
 277              		.cfi_startproc
 278              		@ args = 0, pretend = 0, frame = 8
 279              		@ frame_needed = 0, uses_anonymous_args = 0
 675:lvgl/src/extra/widgets/span/lv_span.c ****     lv_style_value_t value;
 280              		.loc 1 675 1 is_stmt 0 view .LVU57
 281 0000 10B5     		push	{r4, lr}
 282              	.LCFI4:
 283              		.cfi_def_cfa_offset 8
 284              		.cfi_offset 4, -8
 285              		.cfi_offset 14, -4
 286 0002 82B0     		sub	sp, sp, #8
 287              	.LCFI5:
 288              		.cfi_def_cfa_offset 16
 289 0004 0446     		mov	r4, r0
 290 0006 0846     		mov	r0, r1
 291              	.LVL23:
 676:lvgl/src/extra/widgets/span/lv_span.c ****     lv_res_t res = lv_style_get_prop(&span->style, LV_STYLE_TEXT_COLOR, &value);
 292              		.loc 1 676 5 is_stmt 1 view .LVU58
 677:lvgl/src/extra/widgets/span/lv_span.c ****     if(res != LV_RES_OK) {
 293              		.loc 1 677 5 view .LVU59
 677:lvgl/src/extra/widgets/span/lv_span.c ****     if(res != LV_RES_OK) {
 294              		.loc 1 677 20 is_stmt 0 view .LVU60
 295 0008 01AA     		add	r2, sp, #4
ARM GAS  /var/folders/21/t9g5rlb91ys800n5npymflf80000gn/T//ccdafQ6l.s 			page 28


 296 000a 5521     		movs	r1, #85
 297              	.LVL24:
 677:lvgl/src/extra/widgets/span/lv_span.c ****     if(res != LV_RES_OK) {
 298              		.loc 1 677 20 view .LVU61
 299 000c 0830     		adds	r0, r0, #8
 300              	.LVL25:
 677:lvgl/src/extra/widgets/span/lv_span.c ****     if(res != LV_RES_OK) {
 301              		.loc 1 677 20 view .LVU62
 302 000e FFF7FEFF 		bl	lv_style_get_prop
 303              	.LVL26:
 678:lvgl/src/extra/widgets/span/lv_span.c ****         value.color = lv_obj_get_style_text_color(par, LV_PART_MAIN);
 304              		.loc 1 678 5 is_stmt 1 view .LVU63
 678:lvgl/src/extra/widgets/span/lv_span.c ****         value.color = lv_obj_get_style_text_color(par, LV_PART_MAIN);
 305              		.loc 1 678 7 is_stmt 0 view .LVU64
 306 0012 0128     		cmp	r0, #1
 307 0014 03D1     		bne	.L26
 308              	.LVL27:
 309              	.L24:
 681:lvgl/src/extra/widgets/span/lv_span.c **** }
 310              		.loc 1 681 5 is_stmt 1 view .LVU65
 682:lvgl/src/extra/widgets/span/lv_span.c **** 
 311              		.loc 1 682 1 is_stmt 0 view .LVU66
 312 0016 BDF80400 		ldrh	r0, [sp, #4]
 313 001a 02B0     		add	sp, sp, #8
 314              	.LCFI6:
 315              		.cfi_remember_state
 316              		.cfi_def_cfa_offset 8
 317              		@ sp needed
 318 001c 10BD     		pop	{r4, pc}
 319              	.LVL28:
 320              	.L26:
 321              	.LCFI7:
 322              		.cfi_restore_state
 679:lvgl/src/extra/widgets/span/lv_span.c ****     }
 323              		.loc 1 679 9 is_stmt 1 view .LVU67
 324              	.LBB81:
 325              	.LBI81:
 445:lvgl/src/extra/widgets/span/../../../../src/core/lv_obj_style_gen.h **** {
 326              		.loc 2 445 26 view .LVU68
 327              	.LBB82:
 447:lvgl/src/extra/widgets/span/../../../../src/core/lv_obj_style_gen.h ****     return v.color;
 328              		.loc 2 447 5 view .LVU69
 447:lvgl/src/extra/widgets/span/../../../../src/core/lv_obj_style_gen.h ****     return v.color;
 329              		.loc 2 447 26 is_stmt 0 view .LVU70
 330 001e 5522     		movs	r2, #85
 331 0020 0021     		movs	r1, #0
 332 0022 2046     		mov	r0, r4
 333              	.LVL29:
 447:lvgl/src/extra/widgets/span/../../../../src/core/lv_obj_style_gen.h ****     return v.color;
 334              		.loc 2 447 26 view .LVU71
 335 0024 FFF7FEFF 		bl	lv_obj_get_style_prop
 336              	.LVL30:
 448:lvgl/src/extra/widgets/span/../../../../src/core/lv_obj_style_gen.h **** }
 337              		.loc 2 448 5 is_stmt 1 view .LVU72
 448:lvgl/src/extra/widgets/span/../../../../src/core/lv_obj_style_gen.h **** }
 338              		.loc 2 448 5 is_stmt 0 view .LVU73
 339              	.LBE82:
ARM GAS  /var/folders/21/t9g5rlb91ys800n5npymflf80000gn/T//ccdafQ6l.s 			page 29


 340              	.LBE81:
 679:lvgl/src/extra/widgets/span/lv_span.c ****     }
 341              		.loc 1 679 23 view .LVU74
 342 0028 ADF80400 		strh	r0, [sp, #4]	@ movhi
 343 002c F3E7     		b	.L24
 344              		.cfi_endproc
 345              	.LFE236:
 347              		.section	.text.lv_span_get_style_text_opa,"ax",%progbits
 348              		.align	1
 349              		.syntax unified
 350              		.thumb
 351              		.thumb_func
 353              	lv_span_get_style_text_opa:
 354              	.LVL31:
 355              	.LFB237:
 685:lvgl/src/extra/widgets/span/lv_span.c ****     lv_opa_t opa;
 356              		.loc 1 685 1 is_stmt 1 view -0
 357              		.cfi_startproc
 358              		@ args = 0, pretend = 0, frame = 8
 359              		@ frame_needed = 0, uses_anonymous_args = 0
 685:lvgl/src/extra/widgets/span/lv_span.c ****     lv_opa_t opa;
 360              		.loc 1 685 1 is_stmt 0 view .LVU76
 361 0000 10B5     		push	{r4, lr}
 362              	.LCFI8:
 363              		.cfi_def_cfa_offset 8
 364              		.cfi_offset 4, -8
 365              		.cfi_offset 14, -4
 366 0002 82B0     		sub	sp, sp, #8
 367              	.LCFI9:
 368              		.cfi_def_cfa_offset 16
 369 0004 0446     		mov	r4, r0
 370 0006 0846     		mov	r0, r1
 371              	.LVL32:
 686:lvgl/src/extra/widgets/span/lv_span.c ****     lv_style_value_t value;
 372              		.loc 1 686 5 is_stmt 1 view .LVU77
 687:lvgl/src/extra/widgets/span/lv_span.c ****     lv_res_t res = lv_style_get_prop(&span->style, LV_STYLE_TEXT_OPA, &value);
 373              		.loc 1 687 5 view .LVU78
 688:lvgl/src/extra/widgets/span/lv_span.c ****     if(res != LV_RES_OK) {
 374              		.loc 1 688 5 view .LVU79
 688:lvgl/src/extra/widgets/span/lv_span.c ****     if(res != LV_RES_OK) {
 375              		.loc 1 688 20 is_stmt 0 view .LVU80
 376 0008 01AA     		add	r2, sp, #4
 377 000a 5621     		movs	r1, #86
 378              	.LVL33:
 688:lvgl/src/extra/widgets/span/lv_span.c ****     if(res != LV_RES_OK) {
 379              		.loc 1 688 20 view .LVU81
 380 000c 0830     		adds	r0, r0, #8
 381              	.LVL34:
 688:lvgl/src/extra/widgets/span/lv_span.c ****     if(res != LV_RES_OK) {
 382              		.loc 1 688 20 view .LVU82
 383 000e FFF7FEFF 		bl	lv_style_get_prop
 384              	.LVL35:
 689:lvgl/src/extra/widgets/span/lv_span.c ****         opa = (lv_opa_t)lv_obj_get_style_text_opa(par, LV_PART_MAIN);
 385              		.loc 1 689 5 is_stmt 1 view .LVU83
 689:lvgl/src/extra/widgets/span/lv_span.c ****         opa = (lv_opa_t)lv_obj_get_style_text_opa(par, LV_PART_MAIN);
 386              		.loc 1 689 7 is_stmt 0 view .LVU84
 387 0012 0128     		cmp	r0, #1
ARM GAS  /var/folders/21/t9g5rlb91ys800n5npymflf80000gn/T//ccdafQ6l.s 			page 30


 388 0014 03D1     		bne	.L31
 693:lvgl/src/extra/widgets/span/lv_span.c ****     }
 389              		.loc 1 693 9 is_stmt 1 view .LVU85
 693:lvgl/src/extra/widgets/span/lv_span.c ****     }
 390              		.loc 1 693 13 is_stmt 0 view .LVU86
 391 0016 9DF80400 		ldrb	r0, [sp, #4]	@ zero_extendqisi2
 392              	.LVL36:
 393              	.L29:
 695:lvgl/src/extra/widgets/span/lv_span.c **** }
 394              		.loc 1 695 5 is_stmt 1 view .LVU87
 696:lvgl/src/extra/widgets/span/lv_span.c **** 
 395              		.loc 1 696 1 is_stmt 0 view .LVU88
 396 001a 02B0     		add	sp, sp, #8
 397              	.LCFI10:
 398              		.cfi_remember_state
 399              		.cfi_def_cfa_offset 8
 400              		@ sp needed
 401 001c 10BD     		pop	{r4, pc}
 402              	.LVL37:
 403              	.L31:
 404              	.LCFI11:
 405              		.cfi_restore_state
 690:lvgl/src/extra/widgets/span/lv_span.c ****     }
 406              		.loc 1 690 9 is_stmt 1 view .LVU89
 407              	.LBB83:
 408              	.LBI83:
 457:lvgl/src/extra/widgets/span/../../../../src/core/lv_obj_style_gen.h **** {
 409              		.loc 2 457 24 view .LVU90
 410              	.LBB84:
 459:lvgl/src/extra/widgets/span/../../../../src/core/lv_obj_style_gen.h ****     return (lv_opa_t)v.num;
 411              		.loc 2 459 5 view .LVU91
 459:lvgl/src/extra/widgets/span/../../../../src/core/lv_obj_style_gen.h ****     return (lv_opa_t)v.num;
 412              		.loc 2 459 26 is_stmt 0 view .LVU92
 413 001e 5622     		movs	r2, #86
 414 0020 0021     		movs	r1, #0
 415 0022 2046     		mov	r0, r4
 416              	.LVL38:
 459:lvgl/src/extra/widgets/span/../../../../src/core/lv_obj_style_gen.h ****     return (lv_opa_t)v.num;
 417              		.loc 2 459 26 view .LVU93
 418 0024 FFF7FEFF 		bl	lv_obj_get_style_prop
 419              	.LVL39:
 460:lvgl/src/extra/widgets/span/../../../../src/core/lv_obj_style_gen.h **** }
 420              		.loc 2 460 5 is_stmt 1 view .LVU94
 460:lvgl/src/extra/widgets/span/../../../../src/core/lv_obj_style_gen.h **** }
 421              		.loc 2 460 12 is_stmt 0 view .LVU95
 422 0028 C0B2     		uxtb	r0, r0
 423              	.LVL40:
 460:lvgl/src/extra/widgets/span/../../../../src/core/lv_obj_style_gen.h **** }
 424              		.loc 2 460 12 view .LVU96
 425              	.LBE84:
 426              	.LBE83:
 427 002a F6E7     		b	.L29
 428              		.cfi_endproc
 429              	.LFE237:
 431              		.section	.text.lv_span_get_style_text_font,"ax",%progbits
 432              		.align	1
 433              		.syntax unified
ARM GAS  /var/folders/21/t9g5rlb91ys800n5npymflf80000gn/T//ccdafQ6l.s 			page 31


 434              		.thumb
 435              		.thumb_func
 437              	lv_span_get_style_text_font:
 438              	.LVL41:
 439              	.LFB234:
 647:lvgl/src/extra/widgets/span/lv_span.c ****     const lv_font_t * font;
 440              		.loc 1 647 1 is_stmt 1 view -0
 441              		.cfi_startproc
 442              		@ args = 0, pretend = 0, frame = 8
 443              		@ frame_needed = 0, uses_anonymous_args = 0
 647:lvgl/src/extra/widgets/span/lv_span.c ****     const lv_font_t * font;
 444              		.loc 1 647 1 is_stmt 0 view .LVU98
 445 0000 10B5     		push	{r4, lr}
 446              	.LCFI12:
 447              		.cfi_def_cfa_offset 8
 448              		.cfi_offset 4, -8
 449              		.cfi_offset 14, -4
 450 0002 82B0     		sub	sp, sp, #8
 451              	.LCFI13:
 452              		.cfi_def_cfa_offset 16
 453 0004 0446     		mov	r4, r0
 454 0006 0846     		mov	r0, r1
 455              	.LVL42:
 648:lvgl/src/extra/widgets/span/lv_span.c ****     lv_style_value_t value;
 456              		.loc 1 648 5 is_stmt 1 view .LVU99
 649:lvgl/src/extra/widgets/span/lv_span.c ****     lv_res_t res = lv_style_get_prop(&span->style, LV_STYLE_TEXT_FONT, &value);
 457              		.loc 1 649 5 view .LVU100
 650:lvgl/src/extra/widgets/span/lv_span.c ****     if(res != LV_RES_OK) {
 458              		.loc 1 650 5 view .LVU101
 650:lvgl/src/extra/widgets/span/lv_span.c ****     if(res != LV_RES_OK) {
 459              		.loc 1 650 20 is_stmt 0 view .LVU102
 460 0008 01AA     		add	r2, sp, #4
 461 000a 5721     		movs	r1, #87
 462              	.LVL43:
 650:lvgl/src/extra/widgets/span/lv_span.c ****     if(res != LV_RES_OK) {
 463              		.loc 1 650 20 view .LVU103
 464 000c 0830     		adds	r0, r0, #8
 465              	.LVL44:
 650:lvgl/src/extra/widgets/span/lv_span.c ****     if(res != LV_RES_OK) {
 466              		.loc 1 650 20 view .LVU104
 467 000e FFF7FEFF 		bl	lv_style_get_prop
 468              	.LVL45:
 651:lvgl/src/extra/widgets/span/lv_span.c ****         font = lv_obj_get_style_text_font(par, LV_PART_MAIN);
 469              		.loc 1 651 5 is_stmt 1 view .LVU105
 651:lvgl/src/extra/widgets/span/lv_span.c ****         font = lv_obj_get_style_text_font(par, LV_PART_MAIN);
 470              		.loc 1 651 7 is_stmt 0 view .LVU106
 471 0012 0128     		cmp	r0, #1
 472 0014 02D1     		bne	.L36
 655:lvgl/src/extra/widgets/span/lv_span.c ****     }
 473              		.loc 1 655 9 is_stmt 1 view .LVU107
 655:lvgl/src/extra/widgets/span/lv_span.c ****     }
 474              		.loc 1 655 14 is_stmt 0 view .LVU108
 475 0016 0198     		ldr	r0, [sp, #4]
 476              	.LVL46:
 657:lvgl/src/extra/widgets/span/lv_span.c **** }
 477              		.loc 1 657 5 is_stmt 1 view .LVU109
 478              	.L32:
ARM GAS  /var/folders/21/t9g5rlb91ys800n5npymflf80000gn/T//ccdafQ6l.s 			page 32


 658:lvgl/src/extra/widgets/span/lv_span.c **** 
 479              		.loc 1 658 1 is_stmt 0 view .LVU110
 480 0018 02B0     		add	sp, sp, #8
 481              	.LCFI14:
 482              		.cfi_remember_state
 483              		.cfi_def_cfa_offset 8
 484              		@ sp needed
 485 001a 10BD     		pop	{r4, pc}
 486              	.LVL47:
 487              	.L36:
 488              	.LCFI15:
 489              		.cfi_restore_state
 652:lvgl/src/extra/widgets/span/lv_span.c ****     }
 490              		.loc 1 652 9 is_stmt 1 view .LVU111
 491              	.LBB85:
 492              	.LBI85:
 463:lvgl/src/extra/widgets/span/../../../../src/core/lv_obj_style_gen.h **** {
 493              		.loc 2 463 33 view .LVU112
 494              	.LBB86:
 465:lvgl/src/extra/widgets/span/../../../../src/core/lv_obj_style_gen.h ****     return (const lv_font_t *)v.ptr;
 495              		.loc 2 465 5 view .LVU113
 465:lvgl/src/extra/widgets/span/../../../../src/core/lv_obj_style_gen.h ****     return (const lv_font_t *)v.ptr;
 496              		.loc 2 465 26 is_stmt 0 view .LVU114
 497 001c 5722     		movs	r2, #87
 498 001e 0021     		movs	r1, #0
 499 0020 2046     		mov	r0, r4
 500              	.LVL48:
 465:lvgl/src/extra/widgets/span/../../../../src/core/lv_obj_style_gen.h ****     return (const lv_font_t *)v.ptr;
 501              		.loc 2 465 26 view .LVU115
 502 0022 FFF7FEFF 		bl	lv_obj_get_style_prop
 503              	.LVL49:
 466:lvgl/src/extra/widgets/span/../../../../src/core/lv_obj_style_gen.h **** }
 504              		.loc 2 466 5 is_stmt 1 view .LVU116
 466:lvgl/src/extra/widgets/span/../../../../src/core/lv_obj_style_gen.h **** }
 505              		.loc 2 466 5 is_stmt 0 view .LVU117
 506              	.LBE86:
 507              	.LBE85:
 508 0026 F7E7     		b	.L32
 509              		.cfi_endproc
 510              	.LFE234:
 512              		.section	.text.lv_span_get_style_text_blend_mode,"ax",%progbits
 513              		.align	1
 514              		.syntax unified
 515              		.thumb
 516              		.thumb_func
 518              	lv_span_get_style_text_blend_mode:
 519              	.LVL50:
 520              	.LFB238:
 699:lvgl/src/extra/widgets/span/lv_span.c ****     lv_blend_mode_t mode;
 521              		.loc 1 699 1 is_stmt 1 view -0
 522              		.cfi_startproc
 523              		@ args = 0, pretend = 0, frame = 8
 524              		@ frame_needed = 0, uses_anonymous_args = 0
 699:lvgl/src/extra/widgets/span/lv_span.c ****     lv_blend_mode_t mode;
 525              		.loc 1 699 1 is_stmt 0 view .LVU119
 526 0000 10B5     		push	{r4, lr}
 527              	.LCFI16:
ARM GAS  /var/folders/21/t9g5rlb91ys800n5npymflf80000gn/T//ccdafQ6l.s 			page 33


 528              		.cfi_def_cfa_offset 8
 529              		.cfi_offset 4, -8
 530              		.cfi_offset 14, -4
 531 0002 82B0     		sub	sp, sp, #8
 532              	.LCFI17:
 533              		.cfi_def_cfa_offset 16
 534 0004 0446     		mov	r4, r0
 535 0006 0846     		mov	r0, r1
 536              	.LVL51:
 700:lvgl/src/extra/widgets/span/lv_span.c ****     lv_style_value_t value;
 537              		.loc 1 700 5 is_stmt 1 view .LVU120
 701:lvgl/src/extra/widgets/span/lv_span.c ****     lv_res_t res = lv_style_get_prop(&span->style, LV_STYLE_BLEND_MODE, &value);
 538              		.loc 1 701 5 view .LVU121
 702:lvgl/src/extra/widgets/span/lv_span.c ****     if(res != LV_RES_OK) {
 539              		.loc 1 702 5 view .LVU122
 702:lvgl/src/extra/widgets/span/lv_span.c ****     if(res != LV_RES_OK) {
 540              		.loc 1 702 20 is_stmt 0 view .LVU123
 541 0008 01AA     		add	r2, sp, #4
 542 000a 6821     		movs	r1, #104
 543              	.LVL52:
 702:lvgl/src/extra/widgets/span/lv_span.c ****     if(res != LV_RES_OK) {
 544              		.loc 1 702 20 view .LVU124
 545 000c 0830     		adds	r0, r0, #8
 546              	.LVL53:
 702:lvgl/src/extra/widgets/span/lv_span.c ****     if(res != LV_RES_OK) {
 547              		.loc 1 702 20 view .LVU125
 548 000e FFF7FEFF 		bl	lv_style_get_prop
 549              	.LVL54:
 703:lvgl/src/extra/widgets/span/lv_span.c ****         mode = (lv_blend_mode_t)lv_obj_get_style_blend_mode(par, LV_PART_MAIN);
 550              		.loc 1 703 5 is_stmt 1 view .LVU126
 703:lvgl/src/extra/widgets/span/lv_span.c ****         mode = (lv_blend_mode_t)lv_obj_get_style_blend_mode(par, LV_PART_MAIN);
 551              		.loc 1 703 7 is_stmt 0 view .LVU127
 552 0012 0128     		cmp	r0, #1
 553 0014 03D1     		bne	.L41
 707:lvgl/src/extra/widgets/span/lv_span.c ****     }
 554              		.loc 1 707 9 is_stmt 1 view .LVU128
 707:lvgl/src/extra/widgets/span/lv_span.c ****     }
 555              		.loc 1 707 14 is_stmt 0 view .LVU129
 556 0016 9DF80400 		ldrb	r0, [sp, #4]	@ zero_extendqisi2
 557              	.LVL55:
 558              	.L39:
 709:lvgl/src/extra/widgets/span/lv_span.c **** }
 559              		.loc 1 709 5 is_stmt 1 view .LVU130
 710:lvgl/src/extra/widgets/span/lv_span.c **** 
 560              		.loc 1 710 1 is_stmt 0 view .LVU131
 561 001a 02B0     		add	sp, sp, #8
 562              	.LCFI18:
 563              		.cfi_remember_state
 564              		.cfi_def_cfa_offset 8
 565              		@ sp needed
 566 001c 10BD     		pop	{r4, pc}
 567              	.LVL56:
 568              	.L41:
 569              	.LCFI19:
 570              		.cfi_restore_state
 704:lvgl/src/extra/widgets/span/lv_span.c ****     }
 571              		.loc 1 704 9 is_stmt 1 view .LVU132
ARM GAS  /var/folders/21/t9g5rlb91ys800n5npymflf80000gn/T//ccdafQ6l.s 			page 34


 572              	.LBB87:
 573              	.LBI87:
 473:lvgl/src/extra/widgets/span/../../../../src/core/lv_obj_style_gen.h **** }
 474:lvgl/src/extra/widgets/span/../../../../src/core/lv_obj_style_gen.h **** 
 475:lvgl/src/extra/widgets/span/../../../../src/core/lv_obj_style_gen.h **** static inline lv_coord_t lv_obj_get_style_text_line_space(const struct _lv_obj_t * obj, uint32_t pa
 476:lvgl/src/extra/widgets/span/../../../../src/core/lv_obj_style_gen.h **** {
 477:lvgl/src/extra/widgets/span/../../../../src/core/lv_obj_style_gen.h ****     lv_style_value_t v = lv_obj_get_style_prop(obj, part, LV_STYLE_TEXT_LINE_SPACE);
 478:lvgl/src/extra/widgets/span/../../../../src/core/lv_obj_style_gen.h ****     return (lv_coord_t)v.num;
 479:lvgl/src/extra/widgets/span/../../../../src/core/lv_obj_style_gen.h **** }
 480:lvgl/src/extra/widgets/span/../../../../src/core/lv_obj_style_gen.h **** 
 481:lvgl/src/extra/widgets/span/../../../../src/core/lv_obj_style_gen.h **** static inline lv_text_decor_t lv_obj_get_style_text_decor(const struct _lv_obj_t * obj, uint32_t pa
 482:lvgl/src/extra/widgets/span/../../../../src/core/lv_obj_style_gen.h **** {
 483:lvgl/src/extra/widgets/span/../../../../src/core/lv_obj_style_gen.h ****     lv_style_value_t v = lv_obj_get_style_prop(obj, part, LV_STYLE_TEXT_DECOR);
 484:lvgl/src/extra/widgets/span/../../../../src/core/lv_obj_style_gen.h ****     return (lv_text_decor_t)v.num;
 485:lvgl/src/extra/widgets/span/../../../../src/core/lv_obj_style_gen.h **** }
 486:lvgl/src/extra/widgets/span/../../../../src/core/lv_obj_style_gen.h **** 
 487:lvgl/src/extra/widgets/span/../../../../src/core/lv_obj_style_gen.h **** static inline lv_text_align_t lv_obj_get_style_text_align(const struct _lv_obj_t * obj, uint32_t pa
 488:lvgl/src/extra/widgets/span/../../../../src/core/lv_obj_style_gen.h **** {
 489:lvgl/src/extra/widgets/span/../../../../src/core/lv_obj_style_gen.h ****     lv_style_value_t v = lv_obj_get_style_prop(obj, part, LV_STYLE_TEXT_ALIGN);
 490:lvgl/src/extra/widgets/span/../../../../src/core/lv_obj_style_gen.h ****     return (lv_text_align_t)v.num;
 491:lvgl/src/extra/widgets/span/../../../../src/core/lv_obj_style_gen.h **** }
 492:lvgl/src/extra/widgets/span/../../../../src/core/lv_obj_style_gen.h **** 
 493:lvgl/src/extra/widgets/span/../../../../src/core/lv_obj_style_gen.h **** static inline lv_coord_t lv_obj_get_style_radius(const struct _lv_obj_t * obj, uint32_t part)
 494:lvgl/src/extra/widgets/span/../../../../src/core/lv_obj_style_gen.h **** {
 495:lvgl/src/extra/widgets/span/../../../../src/core/lv_obj_style_gen.h ****     lv_style_value_t v = lv_obj_get_style_prop(obj, part, LV_STYLE_RADIUS);
 496:lvgl/src/extra/widgets/span/../../../../src/core/lv_obj_style_gen.h ****     return (lv_coord_t)v.num;
 497:lvgl/src/extra/widgets/span/../../../../src/core/lv_obj_style_gen.h **** }
 498:lvgl/src/extra/widgets/span/../../../../src/core/lv_obj_style_gen.h **** 
 499:lvgl/src/extra/widgets/span/../../../../src/core/lv_obj_style_gen.h **** static inline bool lv_obj_get_style_clip_corner(const struct _lv_obj_t * obj, uint32_t part)
 500:lvgl/src/extra/widgets/span/../../../../src/core/lv_obj_style_gen.h **** {
 501:lvgl/src/extra/widgets/span/../../../../src/core/lv_obj_style_gen.h ****     lv_style_value_t v = lv_obj_get_style_prop(obj, part, LV_STYLE_CLIP_CORNER);
 502:lvgl/src/extra/widgets/span/../../../../src/core/lv_obj_style_gen.h ****     return (bool)v.num;
 503:lvgl/src/extra/widgets/span/../../../../src/core/lv_obj_style_gen.h **** }
 504:lvgl/src/extra/widgets/span/../../../../src/core/lv_obj_style_gen.h **** 
 505:lvgl/src/extra/widgets/span/../../../../src/core/lv_obj_style_gen.h **** static inline lv_opa_t lv_obj_get_style_opa(const struct _lv_obj_t * obj, uint32_t part)
 506:lvgl/src/extra/widgets/span/../../../../src/core/lv_obj_style_gen.h **** {
 507:lvgl/src/extra/widgets/span/../../../../src/core/lv_obj_style_gen.h ****     lv_style_value_t v = lv_obj_get_style_prop(obj, part, LV_STYLE_OPA);
 508:lvgl/src/extra/widgets/span/../../../../src/core/lv_obj_style_gen.h ****     return (lv_opa_t)v.num;
 509:lvgl/src/extra/widgets/span/../../../../src/core/lv_obj_style_gen.h **** }
 510:lvgl/src/extra/widgets/span/../../../../src/core/lv_obj_style_gen.h **** 
 511:lvgl/src/extra/widgets/span/../../../../src/core/lv_obj_style_gen.h **** static inline lv_opa_t lv_obj_get_style_opa_layered(const struct _lv_obj_t * obj, uint32_t part)
 512:lvgl/src/extra/widgets/span/../../../../src/core/lv_obj_style_gen.h **** {
 513:lvgl/src/extra/widgets/span/../../../../src/core/lv_obj_style_gen.h ****     lv_style_value_t v = lv_obj_get_style_prop(obj, part, LV_STYLE_OPA_LAYERED);
 514:lvgl/src/extra/widgets/span/../../../../src/core/lv_obj_style_gen.h ****     return (lv_opa_t)v.num;
 515:lvgl/src/extra/widgets/span/../../../../src/core/lv_obj_style_gen.h **** }
 516:lvgl/src/extra/widgets/span/../../../../src/core/lv_obj_style_gen.h **** 
 517:lvgl/src/extra/widgets/span/../../../../src/core/lv_obj_style_gen.h **** static inline const lv_color_filter_dsc_t * lv_obj_get_style_color_filter_dsc(const struct _lv_obj_
 518:lvgl/src/extra/widgets/span/../../../../src/core/lv_obj_style_gen.h **** {
 519:lvgl/src/extra/widgets/span/../../../../src/core/lv_obj_style_gen.h ****     lv_style_value_t v = lv_obj_get_style_prop(obj, part, LV_STYLE_COLOR_FILTER_DSC);
 520:lvgl/src/extra/widgets/span/../../../../src/core/lv_obj_style_gen.h ****     return (const lv_color_filter_dsc_t *)v.ptr;
 521:lvgl/src/extra/widgets/span/../../../../src/core/lv_obj_style_gen.h **** }
 522:lvgl/src/extra/widgets/span/../../../../src/core/lv_obj_style_gen.h **** 
 523:lvgl/src/extra/widgets/span/../../../../src/core/lv_obj_style_gen.h **** static inline lv_opa_t lv_obj_get_style_color_filter_opa(const struct _lv_obj_t * obj, uint32_t par
 524:lvgl/src/extra/widgets/span/../../../../src/core/lv_obj_style_gen.h **** {
 525:lvgl/src/extra/widgets/span/../../../../src/core/lv_obj_style_gen.h ****     lv_style_value_t v = lv_obj_get_style_prop(obj, part, LV_STYLE_COLOR_FILTER_OPA);
 526:lvgl/src/extra/widgets/span/../../../../src/core/lv_obj_style_gen.h ****     return (lv_opa_t)v.num;
 527:lvgl/src/extra/widgets/span/../../../../src/core/lv_obj_style_gen.h **** }
ARM GAS  /var/folders/21/t9g5rlb91ys800n5npymflf80000gn/T//ccdafQ6l.s 			page 35


 528:lvgl/src/extra/widgets/span/../../../../src/core/lv_obj_style_gen.h **** 
 529:lvgl/src/extra/widgets/span/../../../../src/core/lv_obj_style_gen.h **** static inline const lv_anim_t * lv_obj_get_style_anim(const struct _lv_obj_t * obj, uint32_t part)
 530:lvgl/src/extra/widgets/span/../../../../src/core/lv_obj_style_gen.h **** {
 531:lvgl/src/extra/widgets/span/../../../../src/core/lv_obj_style_gen.h ****     lv_style_value_t v = lv_obj_get_style_prop(obj, part, LV_STYLE_ANIM);
 532:lvgl/src/extra/widgets/span/../../../../src/core/lv_obj_style_gen.h ****     return (const lv_anim_t *)v.ptr;
 533:lvgl/src/extra/widgets/span/../../../../src/core/lv_obj_style_gen.h **** }
 534:lvgl/src/extra/widgets/span/../../../../src/core/lv_obj_style_gen.h **** 
 535:lvgl/src/extra/widgets/span/../../../../src/core/lv_obj_style_gen.h **** static inline uint32_t lv_obj_get_style_anim_time(const struct _lv_obj_t * obj, uint32_t part)
 536:lvgl/src/extra/widgets/span/../../../../src/core/lv_obj_style_gen.h **** {
 537:lvgl/src/extra/widgets/span/../../../../src/core/lv_obj_style_gen.h ****     lv_style_value_t v = lv_obj_get_style_prop(obj, part, LV_STYLE_ANIM_TIME);
 538:lvgl/src/extra/widgets/span/../../../../src/core/lv_obj_style_gen.h ****     return (uint32_t)v.num;
 539:lvgl/src/extra/widgets/span/../../../../src/core/lv_obj_style_gen.h **** }
 540:lvgl/src/extra/widgets/span/../../../../src/core/lv_obj_style_gen.h **** 
 541:lvgl/src/extra/widgets/span/../../../../src/core/lv_obj_style_gen.h **** static inline uint32_t lv_obj_get_style_anim_speed(const struct _lv_obj_t * obj, uint32_t part)
 542:lvgl/src/extra/widgets/span/../../../../src/core/lv_obj_style_gen.h **** {
 543:lvgl/src/extra/widgets/span/../../../../src/core/lv_obj_style_gen.h ****     lv_style_value_t v = lv_obj_get_style_prop(obj, part, LV_STYLE_ANIM_SPEED);
 544:lvgl/src/extra/widgets/span/../../../../src/core/lv_obj_style_gen.h ****     return (uint32_t)v.num;
 545:lvgl/src/extra/widgets/span/../../../../src/core/lv_obj_style_gen.h **** }
 546:lvgl/src/extra/widgets/span/../../../../src/core/lv_obj_style_gen.h **** 
 547:lvgl/src/extra/widgets/span/../../../../src/core/lv_obj_style_gen.h **** static inline const lv_style_transition_dsc_t * lv_obj_get_style_transition(const struct _lv_obj_t 
 548:lvgl/src/extra/widgets/span/../../../../src/core/lv_obj_style_gen.h **** {
 549:lvgl/src/extra/widgets/span/../../../../src/core/lv_obj_style_gen.h ****     lv_style_value_t v = lv_obj_get_style_prop(obj, part, LV_STYLE_TRANSITION);
 550:lvgl/src/extra/widgets/span/../../../../src/core/lv_obj_style_gen.h ****     return (const lv_style_transition_dsc_t *)v.ptr;
 551:lvgl/src/extra/widgets/span/../../../../src/core/lv_obj_style_gen.h **** }
 552:lvgl/src/extra/widgets/span/../../../../src/core/lv_obj_style_gen.h **** 
 553:lvgl/src/extra/widgets/span/../../../../src/core/lv_obj_style_gen.h **** static inline lv_blend_mode_t lv_obj_get_style_blend_mode(const struct _lv_obj_t * obj, uint32_t pa
 574              		.loc 2 553 31 view .LVU133
 575              	.LBB88:
 554:lvgl/src/extra/widgets/span/../../../../src/core/lv_obj_style_gen.h **** {
 555:lvgl/src/extra/widgets/span/../../../../src/core/lv_obj_style_gen.h ****     lv_style_value_t v = lv_obj_get_style_prop(obj, part, LV_STYLE_BLEND_MODE);
 576              		.loc 2 555 5 view .LVU134
 577              		.loc 2 555 26 is_stmt 0 view .LVU135
 578 001e 6822     		movs	r2, #104
 579 0020 0021     		movs	r1, #0
 580 0022 2046     		mov	r0, r4
 581              	.LVL57:
 582              		.loc 2 555 26 view .LVU136
 583 0024 FFF7FEFF 		bl	lv_obj_get_style_prop
 584              	.LVL58:
 556:lvgl/src/extra/widgets/span/../../../../src/core/lv_obj_style_gen.h ****     return (lv_blend_mode_t)v.num;
 585              		.loc 2 556 5 is_stmt 1 view .LVU137
 586              		.loc 2 556 12 is_stmt 0 view .LVU138
 587 0028 C0B2     		uxtb	r0, r0
 588              	.LVL59:
 589              		.loc 2 556 12 view .LVU139
 590              	.LBE88:
 591              	.LBE87:
 592 002a F6E7     		b	.L39
 593              		.cfi_endproc
 594              	.LFE238:
 596              		.section	.text.lv_span_get_style_text_decor,"ax",%progbits
 597              		.align	1
 598              		.syntax unified
 599              		.thumb
 600              		.thumb_func
 602              	lv_span_get_style_text_decor:
 603              	.LVL60:
ARM GAS  /var/folders/21/t9g5rlb91ys800n5npymflf80000gn/T//ccdafQ6l.s 			page 36


 604              	.LFB239:
 713:lvgl/src/extra/widgets/span/lv_span.c ****     int32_t decor;
 605              		.loc 1 713 1 is_stmt 1 view -0
 606              		.cfi_startproc
 607              		@ args = 0, pretend = 0, frame = 8
 608              		@ frame_needed = 0, uses_anonymous_args = 0
 713:lvgl/src/extra/widgets/span/lv_span.c ****     int32_t decor;
 609              		.loc 1 713 1 is_stmt 0 view .LVU141
 610 0000 10B5     		push	{r4, lr}
 611              	.LCFI20:
 612              		.cfi_def_cfa_offset 8
 613              		.cfi_offset 4, -8
 614              		.cfi_offset 14, -4
 615 0002 82B0     		sub	sp, sp, #8
 616              	.LCFI21:
 617              		.cfi_def_cfa_offset 16
 618 0004 0446     		mov	r4, r0
 619 0006 0846     		mov	r0, r1
 620              	.LVL61:
 714:lvgl/src/extra/widgets/span/lv_span.c ****     lv_style_value_t value;
 621              		.loc 1 714 5 is_stmt 1 view .LVU142
 715:lvgl/src/extra/widgets/span/lv_span.c ****     lv_res_t res = lv_style_get_prop(&span->style, LV_STYLE_TEXT_DECOR, &value);
 622              		.loc 1 715 5 view .LVU143
 716:lvgl/src/extra/widgets/span/lv_span.c ****     if(res != LV_RES_OK) {
 623              		.loc 1 716 5 view .LVU144
 716:lvgl/src/extra/widgets/span/lv_span.c ****     if(res != LV_RES_OK) {
 624              		.loc 1 716 20 is_stmt 0 view .LVU145
 625 0008 01AA     		add	r2, sp, #4
 626 000a 5A21     		movs	r1, #90
 627              	.LVL62:
 716:lvgl/src/extra/widgets/span/lv_span.c ****     if(res != LV_RES_OK) {
 628              		.loc 1 716 20 view .LVU146
 629 000c 0830     		adds	r0, r0, #8
 630              	.LVL63:
 716:lvgl/src/extra/widgets/span/lv_span.c ****     if(res != LV_RES_OK) {
 631              		.loc 1 716 20 view .LVU147
 632 000e FFF7FEFF 		bl	lv_style_get_prop
 633              	.LVL64:
 717:lvgl/src/extra/widgets/span/lv_span.c ****         decor = (lv_text_decor_t)lv_obj_get_style_text_decor(par, LV_PART_MAIN);;
 634              		.loc 1 717 5 is_stmt 1 view .LVU148
 717:lvgl/src/extra/widgets/span/lv_span.c ****         decor = (lv_text_decor_t)lv_obj_get_style_text_decor(par, LV_PART_MAIN);;
 635              		.loc 1 717 7 is_stmt 0 view .LVU149
 636 0012 0128     		cmp	r0, #1
 637 0014 02D1     		bne	.L46
 721:lvgl/src/extra/widgets/span/lv_span.c ****     }
 638              		.loc 1 721 9 is_stmt 1 view .LVU150
 721:lvgl/src/extra/widgets/span/lv_span.c ****     }
 639              		.loc 1 721 15 is_stmt 0 view .LVU151
 640 0016 0198     		ldr	r0, [sp, #4]
 641              	.LVL65:
 723:lvgl/src/extra/widgets/span/lv_span.c **** }
 642              		.loc 1 723 5 is_stmt 1 view .LVU152
 643              	.L42:
 724:lvgl/src/extra/widgets/span/lv_span.c **** 
 644              		.loc 1 724 1 is_stmt 0 view .LVU153
 645 0018 02B0     		add	sp, sp, #8
 646              	.LCFI22:
ARM GAS  /var/folders/21/t9g5rlb91ys800n5npymflf80000gn/T//ccdafQ6l.s 			page 37


 647              		.cfi_remember_state
 648              		.cfi_def_cfa_offset 8
 649              		@ sp needed
 650 001a 10BD     		pop	{r4, pc}
 651              	.LVL66:
 652              	.L46:
 653              	.LCFI23:
 654              		.cfi_restore_state
 718:lvgl/src/extra/widgets/span/lv_span.c ****     }
 655              		.loc 1 718 9 is_stmt 1 view .LVU154
 656              	.LBB89:
 657              	.LBI89:
 481:lvgl/src/extra/widgets/span/../../../../src/core/lv_obj_style_gen.h **** {
 658              		.loc 2 481 31 view .LVU155
 659              	.LBB90:
 483:lvgl/src/extra/widgets/span/../../../../src/core/lv_obj_style_gen.h ****     return (lv_text_decor_t)v.num;
 660              		.loc 2 483 5 view .LVU156
 483:lvgl/src/extra/widgets/span/../../../../src/core/lv_obj_style_gen.h ****     return (lv_text_decor_t)v.num;
 661              		.loc 2 483 26 is_stmt 0 view .LVU157
 662 001c 5A22     		movs	r2, #90
 663 001e 0021     		movs	r1, #0
 664 0020 2046     		mov	r0, r4
 665              	.LVL67:
 483:lvgl/src/extra/widgets/span/../../../../src/core/lv_obj_style_gen.h ****     return (lv_text_decor_t)v.num;
 666              		.loc 2 483 26 view .LVU158
 667 0022 FFF7FEFF 		bl	lv_obj_get_style_prop
 668              	.LVL68:
 484:lvgl/src/extra/widgets/span/../../../../src/core/lv_obj_style_gen.h **** }
 669              		.loc 2 484 5 is_stmt 1 view .LVU159
 484:lvgl/src/extra/widgets/span/../../../../src/core/lv_obj_style_gen.h **** }
 670              		.loc 2 484 5 is_stmt 0 view .LVU160
 671 0026 C0B2     		uxtb	r0, r0
 672              	.LVL69:
 484:lvgl/src/extra/widgets/span/../../../../src/core/lv_obj_style_gen.h **** }
 673              		.loc 2 484 5 view .LVU161
 674              	.LBE90:
 675              	.LBE89:
 718:lvgl/src/extra/widgets/span/lv_span.c ****     }
 676              		.loc 1 718 81 is_stmt 1 view .LVU162
 677 0028 F6E7     		b	.L42
 678              		.cfi_endproc
 679              	.LFE239:
 681              		.section	.text.lv_txt_get_snippet,"ax",%progbits
 682              		.align	1
 683              		.syntax unified
 684              		.thumb
 685              		.thumb_func
 687              	lv_txt_get_snippet:
 688              	.LVL70:
 689              	.LFB229:
 602:lvgl/src/extra/widgets/span/lv_span.c ****     if(txt == NULL || txt[0] == '\0') {
 690              		.loc 1 602 1 view -0
 691              		.cfi_startproc
 692              		@ args = 12, pretend = 0, frame = 0
 693              		@ frame_needed = 0, uses_anonymous_args = 0
 602:lvgl/src/extra/widgets/span/lv_span.c ****     if(txt == NULL || txt[0] == '\0') {
 694              		.loc 1 602 1 is_stmt 0 view .LVU164
ARM GAS  /var/folders/21/t9g5rlb91ys800n5npymflf80000gn/T//ccdafQ6l.s 			page 38


 695 0000 70B5     		push	{r4, r5, r6, lr}
 696              	.LCFI24:
 697              		.cfi_def_cfa_offset 16
 698              		.cfi_offset 4, -16
 699              		.cfi_offset 5, -12
 700              		.cfi_offset 6, -8
 701              		.cfi_offset 14, -4
 702 0002 82B0     		sub	sp, sp, #8
 703              	.LCFI25:
 704              		.cfi_def_cfa_offset 24
 705 0004 079C     		ldr	r4, [sp, #28]
 603:lvgl/src/extra/widgets/span/lv_span.c ****         *end_ofs = 0;
 706              		.loc 1 603 5 is_stmt 1 view .LVU165
 603:lvgl/src/extra/widgets/span/lv_span.c ****         *end_ofs = 0;
 707              		.loc 1 603 7 is_stmt 0 view .LVU166
 708 0006 18B1     		cbz	r0, .L48
 709 0008 1D46     		mov	r5, r3
 710 000a 0646     		mov	r6, r0
 603:lvgl/src/extra/widgets/span/lv_span.c ****         *end_ofs = 0;
 711              		.loc 1 603 26 discriminator 1 view .LVU167
 712 000c 0378     		ldrb	r3, [r0]	@ zero_extendqisi2
 713              	.LVL71:
 603:lvgl/src/extra/widgets/span/lv_span.c ****         *end_ofs = 0;
 714              		.loc 1 603 20 discriminator 1 view .LVU168
 715 000e 2BB9     		cbnz	r3, .L49
 716              	.L48:
 604:lvgl/src/extra/widgets/span/lv_span.c ****         *use_width = 0;
 717              		.loc 1 604 9 is_stmt 1 view .LVU169
 604:lvgl/src/extra/widgets/span/lv_span.c ****         *use_width = 0;
 718              		.loc 1 604 18 is_stmt 0 view .LVU170
 719 0010 0020     		movs	r0, #0
 720              	.LVL72:
 604:lvgl/src/extra/widgets/span/lv_span.c ****         *use_width = 0;
 721              		.loc 1 604 18 view .LVU171
 722 0012 089B     		ldr	r3, [sp, #32]
 723 0014 1860     		str	r0, [r3]
 605:lvgl/src/extra/widgets/span/lv_span.c ****         return false;
 724              		.loc 1 605 9 is_stmt 1 view .LVU172
 605:lvgl/src/extra/widgets/span/lv_span.c ****         return false;
 725              		.loc 1 605 20 is_stmt 0 view .LVU173
 726 0016 2080     		strh	r0, [r4]	@ movhi
 606:lvgl/src/extra/widgets/span/lv_span.c ****     }
 727              		.loc 1 606 9 is_stmt 1 view .LVU174
 728              	.LVL73:
 729              	.L50:
 618:lvgl/src/extra/widgets/span/lv_span.c **** 
 730              		.loc 1 618 1 is_stmt 0 view .LVU175
 731 0018 02B0     		add	sp, sp, #8
 732              	.LCFI26:
 733              		.cfi_remember_state
 734              		.cfi_def_cfa_offset 16
 735              		@ sp needed
 736 001a 70BD     		pop	{r4, r5, r6, pc}
 737              	.LVL74:
 738              	.L49:
 739              	.LCFI27:
 740              		.cfi_restore_state
ARM GAS  /var/folders/21/t9g5rlb91ys800n5npymflf80000gn/T//ccdafQ6l.s 			page 39


 609:lvgl/src/extra/widgets/span/lv_span.c ****     *end_ofs = ofs;
 741              		.loc 1 609 5 is_stmt 1 view .LVU176
 609:lvgl/src/extra/widgets/span/lv_span.c ****     *end_ofs = ofs;
 742              		.loc 1 609 20 is_stmt 0 view .LVU177
 743 001c 9DF81830 		ldrb	r3, [sp, #24]	@ zero_extendqisi2
 744 0020 0193     		str	r3, [sp, #4]
 745 0022 0094     		str	r4, [sp]
 746 0024 2B46     		mov	r3, r5
 747 0026 FFF7FEFF 		bl	_lv_txt_get_next_line
 748              	.LVL75:
 610:lvgl/src/extra/widgets/span/lv_span.c **** 
 749              		.loc 1 610 5 is_stmt 1 view .LVU178
 610:lvgl/src/extra/widgets/span/lv_span.c **** 
 750              		.loc 1 610 14 is_stmt 0 view .LVU179
 751 002a 089B     		ldr	r3, [sp, #32]
 752 002c 1860     		str	r0, [r3]
 612:lvgl/src/extra/widgets/span/lv_span.c ****         return false;
 753              		.loc 1 612 5 is_stmt 1 view .LVU180
 612:lvgl/src/extra/widgets/span/lv_span.c ****         return false;
 754              		.loc 1 612 11 is_stmt 0 view .LVU181
 755 002e 335C     		ldrb	r3, [r6, r0]	@ zero_extendqisi2
 612:lvgl/src/extra/widgets/span/lv_span.c ****         return false;
 756              		.loc 1 612 7 view .LVU182
 757 0030 2BB9     		cbnz	r3, .L51
 612:lvgl/src/extra/widgets/span/lv_span.c ****         return false;
 758              		.loc 1 612 28 discriminator 1 view .LVU183
 759 0032 B4F90030 		ldrsh	r3, [r4]
 612:lvgl/src/extra/widgets/span/lv_span.c ****         return false;
 760              		.loc 1 612 25 discriminator 1 view .LVU184
 761 0036 AB42     		cmp	r3, r5
 762 0038 03DB     		blt	.L52
 616:lvgl/src/extra/widgets/span/lv_span.c ****     }
 763              		.loc 1 616 16 view .LVU185
 764 003a 0120     		movs	r0, #1
 765              	.LVL76:
 616:lvgl/src/extra/widgets/span/lv_span.c ****     }
 766              		.loc 1 616 16 view .LVU186
 767 003c ECE7     		b	.L50
 768              	.LVL77:
 769              	.L51:
 616:lvgl/src/extra/widgets/span/lv_span.c ****     }
 770              		.loc 1 616 16 view .LVU187
 771 003e 0120     		movs	r0, #1
 772              	.LVL78:
 616:lvgl/src/extra/widgets/span/lv_span.c ****     }
 773              		.loc 1 616 16 view .LVU188
 774 0040 EAE7     		b	.L50
 775              	.LVL79:
 776              	.L52:
 613:lvgl/src/extra/widgets/span/lv_span.c ****     }
 777              		.loc 1 613 16 view .LVU189
 778 0042 0020     		movs	r0, #0
 779              	.LVL80:
 613:lvgl/src/extra/widgets/span/lv_span.c ****     }
 780              		.loc 1 613 16 view .LVU190
 781 0044 E8E7     		b	.L50
 782              		.cfi_endproc
ARM GAS  /var/folders/21/t9g5rlb91ys800n5npymflf80000gn/T//ccdafQ6l.s 			page 40


 783              	.LFE229:
 785              		.section	.text.lv_snippet_push,"ax",%progbits
 786              		.align	1
 787              		.syntax unified
 788              		.thumb
 789              		.thumb_func
 791              	lv_snippet_push:
 792              	.LVL81:
 793              	.LFB230:
 621:lvgl/src/extra/widgets/span/lv_span.c ****     if(snippet_stack.index < LV_SPAN_SNIPPET_STACK_SIZE) {
 794              		.loc 1 621 1 is_stmt 1 view -0
 795              		.cfi_startproc
 796              		@ args = 0, pretend = 0, frame = 0
 797              		@ frame_needed = 0, uses_anonymous_args = 0
 622:lvgl/src/extra/widgets/span/lv_span.c ****         memcpy(&snippet_stack.stack[snippet_stack.index], item, sizeof(lv_snippet_t));
 798              		.loc 1 622 5 view .LVU192
 622:lvgl/src/extra/widgets/span/lv_span.c ****         memcpy(&snippet_stack.stack[snippet_stack.index], item, sizeof(lv_snippet_t));
 799              		.loc 1 622 21 is_stmt 0 view .LVU193
 800 0000 104B     		ldr	r3, .L61
 801 0002 B3F80035 		ldrh	r3, [r3, #1280]
 622:lvgl/src/extra/widgets/span/lv_span.c ****         memcpy(&snippet_stack.stack[snippet_stack.index], item, sizeof(lv_snippet_t));
 802              		.loc 1 622 7 view .LVU194
 803 0006 3F2B     		cmp	r3, #63
 804 0008 00D9     		bls	.L60
 805 000a 7047     		bx	lr
 806              	.L60:
 621:lvgl/src/extra/widgets/span/lv_span.c ****     if(snippet_stack.index < LV_SPAN_SNIPPET_STACK_SIZE) {
 807              		.loc 1 621 1 view .LVU195
 808 000c 30B5     		push	{r4, r5, lr}
 809              	.LCFI28:
 810              		.cfi_def_cfa_offset 12
 811              		.cfi_offset 4, -12
 812              		.cfi_offset 5, -8
 813              		.cfi_offset 14, -4
 623:lvgl/src/extra/widgets/span/lv_span.c ****         snippet_stack.index++;
 814              		.loc 1 623 9 is_stmt 1 view .LVU196
 815 000e 03EB8303 		add	r3, r3, r3, lsl #2
 816 0012 0C4A     		ldr	r2, .L61
 817 0014 02EB8301 		add	r1, r2, r3, lsl #2
 818 0018 D0F800C0 		ldr	ip, [r0]	@ unaligned
 819 001c 4568     		ldr	r5, [r0, #4]	@ unaligned
 820 001e 8468     		ldr	r4, [r0, #8]	@ unaligned
 821 0020 D0F80CE0 		ldr	lr, [r0, #12]	@ unaligned
 822 0024 42F823C0 		str	ip, [r2, r3, lsl #2]	@ unaligned
 823 0028 4D60     		str	r5, [r1, #4]	@ unaligned
 824 002a 8C60     		str	r4, [r1, #8]	@ unaligned
 825 002c C1F80CE0 		str	lr, [r1, #12]	@ unaligned
 826 0030 D0F810C0 		ldr	ip, [r0, #16]	@ unaligned
 827 0034 C1F810C0 		str	ip, [r1, #16]	@ unaligned
 624:lvgl/src/extra/widgets/span/lv_span.c ****     }
 828              		.loc 1 624 9 view .LVU197
 624:lvgl/src/extra/widgets/span/lv_span.c ****     }
 829              		.loc 1 624 22 is_stmt 0 view .LVU198
 830 0038 B2F80035 		ldrh	r3, [r2, #1280]
 624:lvgl/src/extra/widgets/span/lv_span.c ****     }
 831              		.loc 1 624 28 view .LVU199
 832 003c 0133     		adds	r3, r3, #1
ARM GAS  /var/folders/21/t9g5rlb91ys800n5npymflf80000gn/T//ccdafQ6l.s 			page 41


 833 003e A2F80035 		strh	r3, [r2, #1280]	@ movhi
 627:lvgl/src/extra/widgets/span/lv_span.c ****     }
 834              		.loc 1 627 9 is_stmt 1 view .LVU200
 627:lvgl/src/extra/widgets/span/lv_span.c ****     }
 835              		.loc 1 627 9 view .LVU201
 627:lvgl/src/extra/widgets/span/lv_span.c ****     }
 836              		.loc 1 627 9 view .LVU202
 629:lvgl/src/extra/widgets/span/lv_span.c **** 
 837              		.loc 1 629 1 is_stmt 0 view .LVU203
 838 0042 30BD     		pop	{r4, r5, pc}
 839              	.L62:
 840              		.align	2
 841              	.L61:
 842 0044 00000000 		.word	snippet_stack
 843              		.cfi_endproc
 844              	.LFE230:
 846              		.section	.rodata.lv_draw_span.str1.4,"aMS",%progbits,1
 847              		.align	2
 848              	.LC0:
 849 0000 00       		.ascii	"\000"
 850 0001 000000   		.align	2
 851              	.LC1:
 852 0004 202C2E3B 		.ascii	" ,.;:-_\000"
 852      3A2D5F00 
 853              		.section	.text.lv_draw_span,"ax",%progbits
 854              		.align	1
 855              		.syntax unified
 856              		.thumb
 857              		.thumb_func
 859              	lv_draw_span:
 860              	.LVL82:
 861              	.LFB242:
 750:lvgl/src/extra/widgets/span/lv_span.c **** 
 751:lvgl/src/extra/widgets/span/lv_span.c **** /**
 752:lvgl/src/extra/widgets/span/lv_span.c ****  * draw span group
 753:lvgl/src/extra/widgets/span/lv_span.c ****  * @param spans obj handle
 754:lvgl/src/extra/widgets/span/lv_span.c ****  * @param coords coordinates of the label
 755:lvgl/src/extra/widgets/span/lv_span.c ****  * @param mask the label will be drawn only in this area
 756:lvgl/src/extra/widgets/span/lv_span.c ****  */
 757:lvgl/src/extra/widgets/span/lv_span.c **** static void lv_draw_span(lv_obj_t * obj, lv_draw_ctx_t * draw_ctx)
 758:lvgl/src/extra/widgets/span/lv_span.c **** {
 862              		.loc 1 758 1 is_stmt 1 view -0
 863              		.cfi_startproc
 864              		@ args = 0, pretend = 0, frame = 192
 865              		@ frame_needed = 0, uses_anonymous_args = 0
 866              		.loc 1 758 1 is_stmt 0 view .LVU205
 867 0000 2DE9F04F 		push	{r4, r5, r6, r7, r8, r9, r10, fp, lr}
 868              	.LCFI29:
 869              		.cfi_def_cfa_offset 36
 870              		.cfi_offset 4, -36
 871              		.cfi_offset 5, -32
 872              		.cfi_offset 6, -28
 873              		.cfi_offset 7, -24
 874              		.cfi_offset 8, -20
 875              		.cfi_offset 9, -16
 876              		.cfi_offset 10, -12
 877              		.cfi_offset 11, -8
ARM GAS  /var/folders/21/t9g5rlb91ys800n5npymflf80000gn/T//ccdafQ6l.s 			page 42


 878              		.cfi_offset 14, -4
 879 0004 B5B0     		sub	sp, sp, #212
 880              	.LCFI30:
 881              		.cfi_def_cfa_offset 248
 882 0006 0446     		mov	r4, r0
 883 0008 0690     		str	r0, [sp, #24]
 884 000a 8B46     		mov	fp, r1
 759:lvgl/src/extra/widgets/span/lv_span.c **** 
 760:lvgl/src/extra/widgets/span/lv_span.c ****     lv_area_t coords;
 885              		.loc 1 760 5 is_stmt 1 view .LVU206
 761:lvgl/src/extra/widgets/span/lv_span.c ****     lv_obj_get_content_coords(obj, &coords);
 886              		.loc 1 761 5 view .LVU207
 887 000c 32A9     		add	r1, sp, #200
 888              	.LVL83:
 889              		.loc 1 761 5 is_stmt 0 view .LVU208
 890 000e FFF7FEFF 		bl	lv_obj_get_content_coords
 891              	.LVL84:
 762:lvgl/src/extra/widgets/span/lv_span.c **** 
 763:lvgl/src/extra/widgets/span/lv_span.c ****     lv_spangroup_t * spans = (lv_spangroup_t *)obj;
 892              		.loc 1 763 5 is_stmt 1 view .LVU209
 764:lvgl/src/extra/widgets/span/lv_span.c **** 
 765:lvgl/src/extra/widgets/span/lv_span.c ****     /* return if not span */
 766:lvgl/src/extra/widgets/span/lv_span.c ****     if(_lv_ll_get_head(&spans->child_ll) == NULL) {
 893              		.loc 1 766 5 view .LVU210
 894              		.loc 1 766 24 is_stmt 0 view .LVU211
 895 0012 04F13003 		add	r3, r4, #48
 896 0016 0C93     		str	r3, [sp, #48]
 897              		.loc 1 766 8 view .LVU212
 898 0018 9846     		mov	r8, r3
 899 001a 1846     		mov	r0, r3
 900 001c FFF7FEFF 		bl	_lv_ll_get_head
 901              	.LVL85:
 902              		.loc 1 766 7 view .LVU213
 903 0020 38B1     		cbz	r0, .L63
 767:lvgl/src/extra/widgets/span/lv_span.c ****         return;
 768:lvgl/src/extra/widgets/span/lv_span.c ****     }
 769:lvgl/src/extra/widgets/span/lv_span.c **** 
 770:lvgl/src/extra/widgets/span/lv_span.c ****     /* return if no draw area */
 771:lvgl/src/extra/widgets/span/lv_span.c ****     lv_area_t clip_area;
 904              		.loc 1 771 5 is_stmt 1 view .LVU214
 772:lvgl/src/extra/widgets/span/lv_span.c ****     if(!_lv_area_intersect(&clip_area, &coords, draw_ctx->clip_area))  return;
 905              		.loc 1 772 5 view .LVU215
 906              		.loc 1 772 9 is_stmt 0 view .LVU216
 907 0022 DBF80820 		ldr	r2, [fp, #8]
 908 0026 32A9     		add	r1, sp, #200
 909 0028 30A8     		add	r0, sp, #192
 910 002a FFF7FEFF 		bl	_lv_area_intersect
 911              	.LVL86:
 912              		.loc 1 772 7 view .LVU217
 913 002e 1490     		str	r0, [sp, #80]
 914 0030 10B9     		cbnz	r0, .L128
 915              	.LVL87:
 916              	.L63:
 773:lvgl/src/extra/widgets/span/lv_span.c ****     const lv_area_t * clip_area_ori = draw_ctx->clip_area;
 774:lvgl/src/extra/widgets/span/lv_span.c ****     draw_ctx->clip_area = &clip_area;
 775:lvgl/src/extra/widgets/span/lv_span.c **** 
 776:lvgl/src/extra/widgets/span/lv_span.c ****     /* init draw variable */
ARM GAS  /var/folders/21/t9g5rlb91ys800n5npymflf80000gn/T//ccdafQ6l.s 			page 43


 777:lvgl/src/extra/widgets/span/lv_span.c ****     lv_text_flag_t txt_flag = LV_TEXT_FLAG_NONE;
 778:lvgl/src/extra/widgets/span/lv_span.c ****     lv_coord_t line_space = lv_obj_get_style_text_line_space(obj, LV_PART_MAIN);;
 779:lvgl/src/extra/widgets/span/lv_span.c ****     lv_coord_t max_width = lv_area_get_width(&coords);
 780:lvgl/src/extra/widgets/span/lv_span.c ****     lv_coord_t indent = convert_indent_pct(obj, max_width);
 781:lvgl/src/extra/widgets/span/lv_span.c ****     lv_coord_t max_w  = max_width - indent; /* first line need minus indent */
 782:lvgl/src/extra/widgets/span/lv_span.c ****     lv_opa_t obj_opa = lv_obj_get_style_opa_recursive(obj, LV_PART_MAIN);
 783:lvgl/src/extra/widgets/span/lv_span.c **** 
 784:lvgl/src/extra/widgets/span/lv_span.c ****     /* coords of draw span-txt */
 785:lvgl/src/extra/widgets/span/lv_span.c ****     lv_point_t txt_pos;
 786:lvgl/src/extra/widgets/span/lv_span.c ****     txt_pos.y = coords.y1;
 787:lvgl/src/extra/widgets/span/lv_span.c ****     txt_pos.x = coords.x1 + indent; /* first line need add indent */
 788:lvgl/src/extra/widgets/span/lv_span.c **** 
 789:lvgl/src/extra/widgets/span/lv_span.c ****     lv_span_t * cur_span = _lv_ll_get_head(&spans->child_ll);
 790:lvgl/src/extra/widgets/span/lv_span.c ****     const char * cur_txt = cur_span->txt;
 791:lvgl/src/extra/widgets/span/lv_span.c ****     span_text_check(&cur_txt);
 792:lvgl/src/extra/widgets/span/lv_span.c ****     uint32_t cur_txt_ofs = 0;
 793:lvgl/src/extra/widgets/span/lv_span.c ****     lv_snippet_t snippet;   /* use to save cur_span info and push it to stack */
 794:lvgl/src/extra/widgets/span/lv_span.c ****     lv_memset_00(&snippet, sizeof(snippet));
 795:lvgl/src/extra/widgets/span/lv_span.c **** 
 796:lvgl/src/extra/widgets/span/lv_span.c ****     lv_draw_label_dsc_t label_draw_dsc;
 797:lvgl/src/extra/widgets/span/lv_span.c ****     lv_draw_label_dsc_init(&label_draw_dsc);
 798:lvgl/src/extra/widgets/span/lv_span.c **** 
 799:lvgl/src/extra/widgets/span/lv_span.c ****     bool is_first_line = true;
 800:lvgl/src/extra/widgets/span/lv_span.c ****     /* the loop control how many lines need to draw */
 801:lvgl/src/extra/widgets/span/lv_span.c ****     while(cur_span) {
 802:lvgl/src/extra/widgets/span/lv_span.c ****         bool is_end_line = false;
 803:lvgl/src/extra/widgets/span/lv_span.c ****         bool ellipsis_valid = false;
 804:lvgl/src/extra/widgets/span/lv_span.c ****         lv_coord_t max_line_h = 0;  /* the max height of span-font when a line have a lot of span *
 805:lvgl/src/extra/widgets/span/lv_span.c ****         lv_coord_t max_baseline = 0; /*baseline of the highest span*/
 806:lvgl/src/extra/widgets/span/lv_span.c ****         lv_snippet_clear();
 807:lvgl/src/extra/widgets/span/lv_span.c **** 
 808:lvgl/src/extra/widgets/span/lv_span.c ****         /* the loop control to find a line and push the relevant span info into stack  */
 809:lvgl/src/extra/widgets/span/lv_span.c ****         while(1) {
 810:lvgl/src/extra/widgets/span/lv_span.c ****             /* switch to the next span when current is end */
 811:lvgl/src/extra/widgets/span/lv_span.c ****             if(cur_txt[cur_txt_ofs] == '\0') {
 812:lvgl/src/extra/widgets/span/lv_span.c ****                 cur_span = _lv_ll_get_next(&spans->child_ll, cur_span);
 813:lvgl/src/extra/widgets/span/lv_span.c ****                 if(cur_span == NULL) break;
 814:lvgl/src/extra/widgets/span/lv_span.c ****                 cur_txt = cur_span->txt;
 815:lvgl/src/extra/widgets/span/lv_span.c ****                 span_text_check(&cur_txt);
 816:lvgl/src/extra/widgets/span/lv_span.c ****                 cur_txt_ofs = 0;
 817:lvgl/src/extra/widgets/span/lv_span.c ****                 /* maybe also cur_txt[cur_txt_ofs] == '\0' */
 818:lvgl/src/extra/widgets/span/lv_span.c ****                 continue;
 819:lvgl/src/extra/widgets/span/lv_span.c ****             }
 820:lvgl/src/extra/widgets/span/lv_span.c **** 
 821:lvgl/src/extra/widgets/span/lv_span.c ****             /* init span info to snippet. */
 822:lvgl/src/extra/widgets/span/lv_span.c ****             if(cur_txt_ofs == 0) {
 823:lvgl/src/extra/widgets/span/lv_span.c ****                 snippet.span = cur_span;
 824:lvgl/src/extra/widgets/span/lv_span.c ****                 snippet.font = lv_span_get_style_text_font(obj, cur_span);
 825:lvgl/src/extra/widgets/span/lv_span.c ****                 snippet.letter_space = lv_span_get_style_text_letter_space(obj, cur_span);
 826:lvgl/src/extra/widgets/span/lv_span.c ****                 snippet.line_h = lv_font_get_line_height(snippet.font) + line_space;
 827:lvgl/src/extra/widgets/span/lv_span.c ****             }
 828:lvgl/src/extra/widgets/span/lv_span.c **** 
 829:lvgl/src/extra/widgets/span/lv_span.c ****             /* get current span text line info */
 830:lvgl/src/extra/widgets/span/lv_span.c ****             uint32_t next_ofs = 0;
 831:lvgl/src/extra/widgets/span/lv_span.c ****             lv_coord_t use_width = 0;
 832:lvgl/src/extra/widgets/span/lv_span.c ****             bool isfill = lv_txt_get_snippet(&cur_txt[cur_txt_ofs], snippet.font, snippet.letter_sp
 833:lvgl/src/extra/widgets/span/lv_span.c ****                                              max_w, txt_flag, &use_width, &next_ofs);
ARM GAS  /var/folders/21/t9g5rlb91ys800n5npymflf80000gn/T//ccdafQ6l.s 			page 44


 834:lvgl/src/extra/widgets/span/lv_span.c **** 
 835:lvgl/src/extra/widgets/span/lv_span.c ****             if(isfill) {
 836:lvgl/src/extra/widgets/span/lv_span.c ****                 if(next_ofs > 0 && lv_get_snippet_cnt() > 0) {
 837:lvgl/src/extra/widgets/span/lv_span.c ****                     /* To prevent infinite loops, the _lv_txt_get_next_line() may return incomplete
 838:lvgl/src/extra/widgets/span/lv_span.c ****                     /* This phenomenon should be avoided when lv_get_snippet_cnt() > 0 */
 839:lvgl/src/extra/widgets/span/lv_span.c ****                     if(max_w < use_width) {
 840:lvgl/src/extra/widgets/span/lv_span.c ****                         break;
 841:lvgl/src/extra/widgets/span/lv_span.c ****                     }
 842:lvgl/src/extra/widgets/span/lv_span.c ****                     uint32_t tmp_ofs = next_ofs;
 843:lvgl/src/extra/widgets/span/lv_span.c ****                     uint32_t letter = _lv_txt_encoded_prev(&cur_txt[cur_txt_ofs], &tmp_ofs);
 844:lvgl/src/extra/widgets/span/lv_span.c ****                     if(!(letter == '\0' || letter == '\n' || letter == '\r' || _lv_txt_is_break_cha
 845:lvgl/src/extra/widgets/span/lv_span.c ****                         tmp_ofs = 0;
 846:lvgl/src/extra/widgets/span/lv_span.c ****                         letter = _lv_txt_encoded_next(&cur_txt[cur_txt_ofs + next_ofs], &tmp_ofs);
 847:lvgl/src/extra/widgets/span/lv_span.c ****                         if(!(letter == '\0' || letter == '\n'  || letter == '\r' || _lv_txt_is_brea
 848:lvgl/src/extra/widgets/span/lv_span.c ****                             break;
 849:lvgl/src/extra/widgets/span/lv_span.c ****                         }
 850:lvgl/src/extra/widgets/span/lv_span.c ****                     }
 851:lvgl/src/extra/widgets/span/lv_span.c ****                 }
 852:lvgl/src/extra/widgets/span/lv_span.c ****             }
 853:lvgl/src/extra/widgets/span/lv_span.c **** 
 854:lvgl/src/extra/widgets/span/lv_span.c ****             snippet.txt = &cur_txt[cur_txt_ofs];
 855:lvgl/src/extra/widgets/span/lv_span.c ****             snippet.bytes = next_ofs;
 856:lvgl/src/extra/widgets/span/lv_span.c ****             snippet.txt_w = use_width;
 857:lvgl/src/extra/widgets/span/lv_span.c ****             cur_txt_ofs += next_ofs;
 858:lvgl/src/extra/widgets/span/lv_span.c ****             if(max_line_h < snippet.line_h) {
 859:lvgl/src/extra/widgets/span/lv_span.c ****                 max_line_h = snippet.line_h;
 860:lvgl/src/extra/widgets/span/lv_span.c ****                 max_baseline = snippet.font->base_line;
 861:lvgl/src/extra/widgets/span/lv_span.c ****             }
 862:lvgl/src/extra/widgets/span/lv_span.c **** 
 863:lvgl/src/extra/widgets/span/lv_span.c ****             lv_snippet_push(&snippet);
 864:lvgl/src/extra/widgets/span/lv_span.c ****             max_w = max_w - use_width - snippet.letter_space;
 865:lvgl/src/extra/widgets/span/lv_span.c ****             if(isfill || max_w <= 0) {
 866:lvgl/src/extra/widgets/span/lv_span.c ****                 break;
 867:lvgl/src/extra/widgets/span/lv_span.c ****             }
 868:lvgl/src/extra/widgets/span/lv_span.c ****         }
 869:lvgl/src/extra/widgets/span/lv_span.c **** 
 870:lvgl/src/extra/widgets/span/lv_span.c ****         /* start current line deal with */
 871:lvgl/src/extra/widgets/span/lv_span.c **** 
 872:lvgl/src/extra/widgets/span/lv_span.c ****         uint16_t item_cnt = lv_get_snippet_cnt();
 873:lvgl/src/extra/widgets/span/lv_span.c ****         if(item_cnt == 0) {     /* break if stack is empty */
 874:lvgl/src/extra/widgets/span/lv_span.c ****             break;
 875:lvgl/src/extra/widgets/span/lv_span.c ****         }
 876:lvgl/src/extra/widgets/span/lv_span.c **** 
 877:lvgl/src/extra/widgets/span/lv_span.c ****         /* Whether the current line is the end line and does overflow processing */
 878:lvgl/src/extra/widgets/span/lv_span.c ****         {
 879:lvgl/src/extra/widgets/span/lv_span.c ****             lv_snippet_t * last_snippet = lv_get_snippet(item_cnt - 1);
 880:lvgl/src/extra/widgets/span/lv_span.c ****             lv_coord_t next_line_h = last_snippet->line_h;
 881:lvgl/src/extra/widgets/span/lv_span.c ****             if(last_snippet->txt[last_snippet->bytes] == '\0') {
 882:lvgl/src/extra/widgets/span/lv_span.c ****                 next_line_h = 0;
 883:lvgl/src/extra/widgets/span/lv_span.c ****                 lv_span_t * next_span = _lv_ll_get_next(&spans->child_ll, last_snippet->span);
 884:lvgl/src/extra/widgets/span/lv_span.c ****                 if(next_span) { /* have the next line */
 885:lvgl/src/extra/widgets/span/lv_span.c ****                     next_line_h = lv_font_get_line_height(lv_span_get_style_text_font(obj, next_spa
 886:lvgl/src/extra/widgets/span/lv_span.c ****                 }
 887:lvgl/src/extra/widgets/span/lv_span.c ****             }
 888:lvgl/src/extra/widgets/span/lv_span.c ****             if(txt_pos.y + max_line_h + next_line_h - line_space > coords.y2 + 1) { /* for overflow
 889:lvgl/src/extra/widgets/span/lv_span.c ****                 if(last_snippet->txt[last_snippet->bytes] != '\0') {
 890:lvgl/src/extra/widgets/span/lv_span.c ****                     last_snippet->bytes = strlen(last_snippet->txt);
ARM GAS  /var/folders/21/t9g5rlb91ys800n5npymflf80000gn/T//ccdafQ6l.s 			page 45


 891:lvgl/src/extra/widgets/span/lv_span.c ****                     last_snippet->txt_w = lv_txt_get_width(last_snippet->txt, last_snippet->bytes, 
 892:lvgl/src/extra/widgets/span/lv_span.c ****                                                            last_snippet->letter_space, txt_flag);
 893:lvgl/src/extra/widgets/span/lv_span.c ****                 }
 894:lvgl/src/extra/widgets/span/lv_span.c ****                 ellipsis_valid = spans->overflow == LV_SPAN_OVERFLOW_ELLIPSIS ? true : false;
 895:lvgl/src/extra/widgets/span/lv_span.c ****                 is_end_line = true;
 896:lvgl/src/extra/widgets/span/lv_span.c ****             }
 897:lvgl/src/extra/widgets/span/lv_span.c ****         }
 898:lvgl/src/extra/widgets/span/lv_span.c **** 
 899:lvgl/src/extra/widgets/span/lv_span.c ****         /*Go the first visible line*/
 900:lvgl/src/extra/widgets/span/lv_span.c ****         if(txt_pos.y + max_line_h < clip_area.y1) {
 901:lvgl/src/extra/widgets/span/lv_span.c ****             goto Next_line_init;
 902:lvgl/src/extra/widgets/span/lv_span.c ****         }
 903:lvgl/src/extra/widgets/span/lv_span.c **** 
 904:lvgl/src/extra/widgets/span/lv_span.c ****         /* align deal with */
 905:lvgl/src/extra/widgets/span/lv_span.c ****         lv_text_align_t align = lv_obj_get_style_text_align(obj, LV_PART_MAIN);
 906:lvgl/src/extra/widgets/span/lv_span.c ****         if(align == LV_TEXT_ALIGN_CENTER || align == LV_TEXT_ALIGN_RIGHT) {
 907:lvgl/src/extra/widgets/span/lv_span.c ****             lv_coord_t align_ofs = 0;
 908:lvgl/src/extra/widgets/span/lv_span.c ****             lv_coord_t txts_w = is_first_line ? indent : 0;
 909:lvgl/src/extra/widgets/span/lv_span.c ****             for(int i = 0; i < item_cnt; i++) {
 910:lvgl/src/extra/widgets/span/lv_span.c ****                 lv_snippet_t * pinfo = lv_get_snippet(i);
 911:lvgl/src/extra/widgets/span/lv_span.c ****                 txts_w = txts_w + pinfo->txt_w + pinfo->letter_space;
 912:lvgl/src/extra/widgets/span/lv_span.c ****             }
 913:lvgl/src/extra/widgets/span/lv_span.c ****             txts_w -= lv_get_snippet(item_cnt - 1)->letter_space;
 914:lvgl/src/extra/widgets/span/lv_span.c ****             align_ofs = max_width > txts_w ? max_width - txts_w : 0;
 915:lvgl/src/extra/widgets/span/lv_span.c ****             if(align == LV_TEXT_ALIGN_CENTER) {
 916:lvgl/src/extra/widgets/span/lv_span.c ****                 align_ofs = align_ofs >> 1;
 917:lvgl/src/extra/widgets/span/lv_span.c ****             }
 918:lvgl/src/extra/widgets/span/lv_span.c ****             txt_pos.x += align_ofs;
 919:lvgl/src/extra/widgets/span/lv_span.c ****         }
 920:lvgl/src/extra/widgets/span/lv_span.c **** 
 921:lvgl/src/extra/widgets/span/lv_span.c ****         /* draw line letters */
 922:lvgl/src/extra/widgets/span/lv_span.c ****         int i;
 923:lvgl/src/extra/widgets/span/lv_span.c ****         for(i = 0; i < item_cnt; i++) {
 924:lvgl/src/extra/widgets/span/lv_span.c ****             lv_snippet_t * pinfo = lv_get_snippet(i);
 925:lvgl/src/extra/widgets/span/lv_span.c **** 
 926:lvgl/src/extra/widgets/span/lv_span.c ****             /* bidi deal with:todo */
 927:lvgl/src/extra/widgets/span/lv_span.c ****             const char * bidi_txt = pinfo->txt;
 928:lvgl/src/extra/widgets/span/lv_span.c **** 
 929:lvgl/src/extra/widgets/span/lv_span.c ****             lv_point_t pos;
 930:lvgl/src/extra/widgets/span/lv_span.c ****             pos.x = txt_pos.x;
 931:lvgl/src/extra/widgets/span/lv_span.c ****             pos.y = txt_pos.y + max_line_h - pinfo->line_h - (max_baseline - pinfo->font->base_line
 932:lvgl/src/extra/widgets/span/lv_span.c ****             label_draw_dsc.color = lv_span_get_style_text_color(obj, pinfo->span);
 933:lvgl/src/extra/widgets/span/lv_span.c ****             label_draw_dsc.opa = lv_span_get_style_text_opa(obj, pinfo->span);
 934:lvgl/src/extra/widgets/span/lv_span.c ****             label_draw_dsc.font = lv_span_get_style_text_font(obj, pinfo->span);
 935:lvgl/src/extra/widgets/span/lv_span.c ****             label_draw_dsc.blend_mode = lv_span_get_style_text_blend_mode(obj, pinfo->span);
 936:lvgl/src/extra/widgets/span/lv_span.c ****             if(obj_opa < LV_OPA_MAX) {
 937:lvgl/src/extra/widgets/span/lv_span.c ****                 label_draw_dsc.opa = (uint16_t)((uint16_t)label_draw_dsc.opa * obj_opa) >> 8;
 938:lvgl/src/extra/widgets/span/lv_span.c ****             }
 939:lvgl/src/extra/widgets/span/lv_span.c ****             uint32_t txt_bytes = pinfo->bytes;
 940:lvgl/src/extra/widgets/span/lv_span.c **** 
 941:lvgl/src/extra/widgets/span/lv_span.c ****             /* overflow */
 942:lvgl/src/extra/widgets/span/lv_span.c ****             uint16_t dot_letter_w = 0;
 943:lvgl/src/extra/widgets/span/lv_span.c ****             uint16_t dot_width = 0;
 944:lvgl/src/extra/widgets/span/lv_span.c ****             if(ellipsis_valid) {
 945:lvgl/src/extra/widgets/span/lv_span.c ****                 dot_letter_w = lv_font_get_glyph_width(pinfo->font, '.', '.');
 946:lvgl/src/extra/widgets/span/lv_span.c ****                 dot_width = dot_letter_w * 3;
 947:lvgl/src/extra/widgets/span/lv_span.c ****             }
ARM GAS  /var/folders/21/t9g5rlb91ys800n5npymflf80000gn/T//ccdafQ6l.s 			page 46


 948:lvgl/src/extra/widgets/span/lv_span.c ****             lv_coord_t ellipsis_width = coords.x1 + max_width - dot_width;
 949:lvgl/src/extra/widgets/span/lv_span.c **** 
 950:lvgl/src/extra/widgets/span/lv_span.c ****             uint32_t j = 0;
 951:lvgl/src/extra/widgets/span/lv_span.c ****             while(j < txt_bytes) {
 952:lvgl/src/extra/widgets/span/lv_span.c ****                 /* skip invalid fields */
 953:lvgl/src/extra/widgets/span/lv_span.c ****                 if(pos.x > clip_area.x2) {
 954:lvgl/src/extra/widgets/span/lv_span.c ****                     break;
 955:lvgl/src/extra/widgets/span/lv_span.c ****                 }
 956:lvgl/src/extra/widgets/span/lv_span.c ****                 uint32_t letter      = _lv_txt_encoded_next(bidi_txt, &j);
 957:lvgl/src/extra/widgets/span/lv_span.c ****                 uint32_t letter_next = _lv_txt_encoded_next(&bidi_txt[j], NULL);
 958:lvgl/src/extra/widgets/span/lv_span.c ****                 int32_t letter_w = lv_font_get_glyph_width(pinfo->font, letter, letter_next);
 959:lvgl/src/extra/widgets/span/lv_span.c **** 
 960:lvgl/src/extra/widgets/span/lv_span.c ****                 /* skip invalid fields */
 961:lvgl/src/extra/widgets/span/lv_span.c ****                 if(pos.x + letter_w + pinfo->letter_space < clip_area.x1) {
 962:lvgl/src/extra/widgets/span/lv_span.c ****                     if(letter_w > 0) {
 963:lvgl/src/extra/widgets/span/lv_span.c ****                         pos.x = pos.x + letter_w + pinfo->letter_space;
 964:lvgl/src/extra/widgets/span/lv_span.c ****                     }
 965:lvgl/src/extra/widgets/span/lv_span.c ****                     continue;
 966:lvgl/src/extra/widgets/span/lv_span.c ****                 }
 967:lvgl/src/extra/widgets/span/lv_span.c **** 
 968:lvgl/src/extra/widgets/span/lv_span.c ****                 if(ellipsis_valid && pos.x + letter_w + pinfo->letter_space > ellipsis_width) {
 969:lvgl/src/extra/widgets/span/lv_span.c ****                     for(int ell = 0; ell < 3; ell++) {
 970:lvgl/src/extra/widgets/span/lv_span.c ****                         lv_draw_letter(draw_ctx, &label_draw_dsc, &pos, '.');
 971:lvgl/src/extra/widgets/span/lv_span.c ****                         pos.x = pos.x + dot_letter_w + pinfo->letter_space;
 972:lvgl/src/extra/widgets/span/lv_span.c ****                     }
 973:lvgl/src/extra/widgets/span/lv_span.c ****                     if(pos.x <= ellipsis_width) {
 974:lvgl/src/extra/widgets/span/lv_span.c ****                         pos.x = ellipsis_width + 1;
 975:lvgl/src/extra/widgets/span/lv_span.c ****                     }
 976:lvgl/src/extra/widgets/span/lv_span.c ****                     break;
 977:lvgl/src/extra/widgets/span/lv_span.c ****                 }
 978:lvgl/src/extra/widgets/span/lv_span.c ****                 else {
 979:lvgl/src/extra/widgets/span/lv_span.c ****                     lv_draw_letter(draw_ctx, &label_draw_dsc, &pos, letter);
 980:lvgl/src/extra/widgets/span/lv_span.c ****                     if(letter_w > 0) {
 981:lvgl/src/extra/widgets/span/lv_span.c ****                         pos.x = pos.x + letter_w + pinfo->letter_space;
 982:lvgl/src/extra/widgets/span/lv_span.c ****                     }
 983:lvgl/src/extra/widgets/span/lv_span.c ****                 }
 984:lvgl/src/extra/widgets/span/lv_span.c ****             }
 985:lvgl/src/extra/widgets/span/lv_span.c **** 
 986:lvgl/src/extra/widgets/span/lv_span.c ****             /* draw decor */
 987:lvgl/src/extra/widgets/span/lv_span.c ****             lv_text_decor_t decor = lv_span_get_style_text_decor(obj, pinfo->span);
 988:lvgl/src/extra/widgets/span/lv_span.c ****             if(decor != LV_TEXT_DECOR_NONE) {
 989:lvgl/src/extra/widgets/span/lv_span.c ****                 lv_draw_line_dsc_t line_dsc;
 990:lvgl/src/extra/widgets/span/lv_span.c ****                 lv_draw_line_dsc_init(&line_dsc);
 991:lvgl/src/extra/widgets/span/lv_span.c ****                 line_dsc.color = label_draw_dsc.color;
 992:lvgl/src/extra/widgets/span/lv_span.c ****                 line_dsc.width = label_draw_dsc.font->underline_thickness ? pinfo->font->underline_
 993:lvgl/src/extra/widgets/span/lv_span.c ****                 line_dsc.opa = label_draw_dsc.opa;
 994:lvgl/src/extra/widgets/span/lv_span.c ****                 line_dsc.blend_mode = label_draw_dsc.blend_mode;
 995:lvgl/src/extra/widgets/span/lv_span.c **** 
 996:lvgl/src/extra/widgets/span/lv_span.c ****                 if(decor & LV_TEXT_DECOR_STRIKETHROUGH) {
 997:lvgl/src/extra/widgets/span/lv_span.c ****                     lv_point_t p1;
 998:lvgl/src/extra/widgets/span/lv_span.c ****                     lv_point_t p2;
 999:lvgl/src/extra/widgets/span/lv_span.c ****                     p1.x = txt_pos.x;
1000:lvgl/src/extra/widgets/span/lv_span.c ****                     p1.y = pos.y + ((pinfo->line_h - line_space) >> 1)  + (line_dsc.width >> 1);
1001:lvgl/src/extra/widgets/span/lv_span.c ****                     p2.x = pos.x;
1002:lvgl/src/extra/widgets/span/lv_span.c ****                     p2.y = p1.y;
1003:lvgl/src/extra/widgets/span/lv_span.c ****                     lv_draw_line(draw_ctx, &line_dsc, &p1, &p2);
1004:lvgl/src/extra/widgets/span/lv_span.c ****                 }
ARM GAS  /var/folders/21/t9g5rlb91ys800n5npymflf80000gn/T//ccdafQ6l.s 			page 47


1005:lvgl/src/extra/widgets/span/lv_span.c **** 
1006:lvgl/src/extra/widgets/span/lv_span.c ****                 if(decor & LV_TEXT_DECOR_UNDERLINE) {
1007:lvgl/src/extra/widgets/span/lv_span.c ****                     lv_point_t p1;
1008:lvgl/src/extra/widgets/span/lv_span.c ****                     lv_point_t p2;
1009:lvgl/src/extra/widgets/span/lv_span.c ****                     p1.x = txt_pos.x;
1010:lvgl/src/extra/widgets/span/lv_span.c ****                     p1.y = pos.y + pinfo->line_h - line_space - pinfo->font->base_line - pinfo->fon
1011:lvgl/src/extra/widgets/span/lv_span.c ****                     p2.x = pos.x;
1012:lvgl/src/extra/widgets/span/lv_span.c ****                     p2.y = p1.y;
1013:lvgl/src/extra/widgets/span/lv_span.c ****                     lv_draw_line(draw_ctx, &line_dsc, &p1, &p2);
1014:lvgl/src/extra/widgets/span/lv_span.c ****                 }
1015:lvgl/src/extra/widgets/span/lv_span.c ****             }
1016:lvgl/src/extra/widgets/span/lv_span.c ****             txt_pos.x = pos.x;
1017:lvgl/src/extra/widgets/span/lv_span.c ****         }
1018:lvgl/src/extra/widgets/span/lv_span.c **** 
1019:lvgl/src/extra/widgets/span/lv_span.c **** Next_line_init:
1020:lvgl/src/extra/widgets/span/lv_span.c ****         /* next line init */
1021:lvgl/src/extra/widgets/span/lv_span.c ****         is_first_line = false;
1022:lvgl/src/extra/widgets/span/lv_span.c ****         txt_pos.x = coords.x1;
1023:lvgl/src/extra/widgets/span/lv_span.c ****         txt_pos.y += max_line_h;
1024:lvgl/src/extra/widgets/span/lv_span.c ****         if(is_end_line || txt_pos.y > clip_area.y2 + 1) {
1025:lvgl/src/extra/widgets/span/lv_span.c ****             draw_ctx->clip_area = clip_area_ori;
1026:lvgl/src/extra/widgets/span/lv_span.c ****             return;
1027:lvgl/src/extra/widgets/span/lv_span.c ****         }
1028:lvgl/src/extra/widgets/span/lv_span.c ****         max_w = max_width;
1029:lvgl/src/extra/widgets/span/lv_span.c ****     }
1030:lvgl/src/extra/widgets/span/lv_span.c ****     draw_ctx->clip_area = clip_area_ori;
1031:lvgl/src/extra/widgets/span/lv_span.c **** }
 917              		.loc 1 1031 1 view .LVU218
 918 0032 35B0     		add	sp, sp, #212
 919              	.LCFI31:
 920              		.cfi_remember_state
 921              		.cfi_def_cfa_offset 36
 922              		@ sp needed
 923 0034 BDE8F08F 		pop	{r4, r5, r6, r7, r8, r9, r10, fp, pc}
 924              	.LVL88:
 925              	.L128:
 926              	.LCFI32:
 927              		.cfi_restore_state
 773:lvgl/src/extra/widgets/span/lv_span.c ****     const lv_area_t * clip_area_ori = draw_ctx->clip_area;
 928              		.loc 1 773 5 is_stmt 1 view .LVU219
 773:lvgl/src/extra/widgets/span/lv_span.c ****     const lv_area_t * clip_area_ori = draw_ctx->clip_area;
 929              		.loc 1 773 23 is_stmt 0 view .LVU220
 930 0038 DBF80860 		ldr	r6, [fp, #8]
 931              	.LVL89:
 774:lvgl/src/extra/widgets/span/lv_span.c **** 
 932              		.loc 1 774 5 is_stmt 1 view .LVU221
 774:lvgl/src/extra/widgets/span/lv_span.c **** 
 933              		.loc 1 774 25 is_stmt 0 view .LVU222
 934 003c 30AB     		add	r3, sp, #192
 935 003e CBF80830 		str	r3, [fp, #8]
 777:lvgl/src/extra/widgets/span/lv_span.c ****     lv_coord_t line_space = lv_obj_get_style_text_line_space(obj, LV_PART_MAIN);;
 936              		.loc 1 777 5 is_stmt 1 view .LVU223
 937              	.LVL90:
 778:lvgl/src/extra/widgets/span/lv_span.c ****     lv_coord_t max_width = lv_area_get_width(&coords);
 938              		.loc 1 778 5 view .LVU224
 939              	.LBB91:
 940              	.LBI91:
ARM GAS  /var/folders/21/t9g5rlb91ys800n5npymflf80000gn/T//ccdafQ6l.s 			page 48


 475:lvgl/src/extra/widgets/span/../../../../src/core/lv_obj_style_gen.h **** {
 941              		.loc 2 475 26 view .LVU225
 942              	.LBB92:
 477:lvgl/src/extra/widgets/span/../../../../src/core/lv_obj_style_gen.h ****     return (lv_coord_t)v.num;
 943              		.loc 2 477 5 view .LVU226
 477:lvgl/src/extra/widgets/span/../../../../src/core/lv_obj_style_gen.h ****     return (lv_coord_t)v.num;
 944              		.loc 2 477 26 is_stmt 0 view .LVU227
 945 0042 5922     		movs	r2, #89
 946 0044 0021     		movs	r1, #0
 947 0046 A146     		mov	r9, r4
 948 0048 2046     		mov	r0, r4
 949 004a FFF7FEFF 		bl	lv_obj_get_style_prop
 950              	.LVL91:
 951 004e 1190     		str	r0, [sp, #68]
 478:lvgl/src/extra/widgets/span/../../../../src/core/lv_obj_style_gen.h **** }
 952              		.loc 2 478 5 is_stmt 1 view .LVU228
 478:lvgl/src/extra/widgets/span/../../../../src/core/lv_obj_style_gen.h **** }
 953              		.loc 2 478 12 is_stmt 0 view .LVU229
 954 0050 02B2     		sxth	r2, r0
 955 0052 1292     		str	r2, [sp, #72]
 956              	.LVL92:
 478:lvgl/src/extra/widgets/span/../../../../src/core/lv_obj_style_gen.h **** }
 957              		.loc 2 478 12 view .LVU230
 958              	.LBE92:
 959              	.LBE91:
 778:lvgl/src/extra/widgets/span/lv_span.c ****     lv_coord_t max_width = lv_area_get_width(&coords);
 960              		.loc 1 778 81 is_stmt 1 view .LVU231
 779:lvgl/src/extra/widgets/span/lv_span.c ****     lv_coord_t indent = convert_indent_pct(obj, max_width);
 961              		.loc 1 779 5 view .LVU232
 962              	.LBB93:
 963              	.LBI93:
 964              		.file 3 "lvgl/src/extra/widgets/span/../../../../src/hal/../draw/../misc/../font/../misc/lv_area.h
   1:lvgl/src/extra/widgets/span/../../../../src/hal/../draw/../misc/../font/../misc/lv_area.h **** /**
   2:lvgl/src/extra/widgets/span/../../../../src/hal/../draw/../misc/../font/../misc/lv_area.h ****  * @file lv_area.h
   3:lvgl/src/extra/widgets/span/../../../../src/hal/../draw/../misc/../font/../misc/lv_area.h ****  *
   4:lvgl/src/extra/widgets/span/../../../../src/hal/../draw/../misc/../font/../misc/lv_area.h ****  */
   5:lvgl/src/extra/widgets/span/../../../../src/hal/../draw/../misc/../font/../misc/lv_area.h **** 
   6:lvgl/src/extra/widgets/span/../../../../src/hal/../draw/../misc/../font/../misc/lv_area.h **** #ifndef LV_AREA_H
   7:lvgl/src/extra/widgets/span/../../../../src/hal/../draw/../misc/../font/../misc/lv_area.h **** #define LV_AREA_H
   8:lvgl/src/extra/widgets/span/../../../../src/hal/../draw/../misc/../font/../misc/lv_area.h **** 
   9:lvgl/src/extra/widgets/span/../../../../src/hal/../draw/../misc/../font/../misc/lv_area.h **** #ifdef __cplusplus
  10:lvgl/src/extra/widgets/span/../../../../src/hal/../draw/../misc/../font/../misc/lv_area.h **** extern "C" {
  11:lvgl/src/extra/widgets/span/../../../../src/hal/../draw/../misc/../font/../misc/lv_area.h **** #endif
  12:lvgl/src/extra/widgets/span/../../../../src/hal/../draw/../misc/../font/../misc/lv_area.h **** 
  13:lvgl/src/extra/widgets/span/../../../../src/hal/../draw/../misc/../font/../misc/lv_area.h **** /*********************
  14:lvgl/src/extra/widgets/span/../../../../src/hal/../draw/../misc/../font/../misc/lv_area.h ****  *      INCLUDES
  15:lvgl/src/extra/widgets/span/../../../../src/hal/../draw/../misc/../font/../misc/lv_area.h ****  *********************/
  16:lvgl/src/extra/widgets/span/../../../../src/hal/../draw/../misc/../font/../misc/lv_area.h **** #include "../lv_conf_internal.h"
  17:lvgl/src/extra/widgets/span/../../../../src/hal/../draw/../misc/../font/../misc/lv_area.h **** #include <stdbool.h>
  18:lvgl/src/extra/widgets/span/../../../../src/hal/../draw/../misc/../font/../misc/lv_area.h **** #include <stdint.h>
  19:lvgl/src/extra/widgets/span/../../../../src/hal/../draw/../misc/../font/../misc/lv_area.h **** 
  20:lvgl/src/extra/widgets/span/../../../../src/hal/../draw/../misc/../font/../misc/lv_area.h **** /*********************
  21:lvgl/src/extra/widgets/span/../../../../src/hal/../draw/../misc/../font/../misc/lv_area.h ****  *      DEFINES
  22:lvgl/src/extra/widgets/span/../../../../src/hal/../draw/../misc/../font/../misc/lv_area.h ****  *********************/
  23:lvgl/src/extra/widgets/span/../../../../src/hal/../draw/../misc/../font/../misc/lv_area.h **** 
  24:lvgl/src/extra/widgets/span/../../../../src/hal/../draw/../misc/../font/../misc/lv_area.h **** #if LV_USE_LARGE_COORD
  25:lvgl/src/extra/widgets/span/../../../../src/hal/../draw/../misc/../font/../misc/lv_area.h **** typedef int32_t lv_coord_t;
ARM GAS  /var/folders/21/t9g5rlb91ys800n5npymflf80000gn/T//ccdafQ6l.s 			page 49


  26:lvgl/src/extra/widgets/span/../../../../src/hal/../draw/../misc/../font/../misc/lv_area.h **** #else
  27:lvgl/src/extra/widgets/span/../../../../src/hal/../draw/../misc/../font/../misc/lv_area.h **** typedef int16_t lv_coord_t;
  28:lvgl/src/extra/widgets/span/../../../../src/hal/../draw/../misc/../font/../misc/lv_area.h **** #endif
  29:lvgl/src/extra/widgets/span/../../../../src/hal/../draw/../misc/../font/../misc/lv_area.h **** 
  30:lvgl/src/extra/widgets/span/../../../../src/hal/../draw/../misc/../font/../misc/lv_area.h **** /**********************
  31:lvgl/src/extra/widgets/span/../../../../src/hal/../draw/../misc/../font/../misc/lv_area.h ****  *      TYPEDEFS
  32:lvgl/src/extra/widgets/span/../../../../src/hal/../draw/../misc/../font/../misc/lv_area.h ****  **********************/
  33:lvgl/src/extra/widgets/span/../../../../src/hal/../draw/../misc/../font/../misc/lv_area.h **** 
  34:lvgl/src/extra/widgets/span/../../../../src/hal/../draw/../misc/../font/../misc/lv_area.h **** /**
  35:lvgl/src/extra/widgets/span/../../../../src/hal/../draw/../misc/../font/../misc/lv_area.h ****  * Represents a point on the screen.
  36:lvgl/src/extra/widgets/span/../../../../src/hal/../draw/../misc/../font/../misc/lv_area.h ****  */
  37:lvgl/src/extra/widgets/span/../../../../src/hal/../draw/../misc/../font/../misc/lv_area.h **** typedef struct {
  38:lvgl/src/extra/widgets/span/../../../../src/hal/../draw/../misc/../font/../misc/lv_area.h ****     lv_coord_t x;
  39:lvgl/src/extra/widgets/span/../../../../src/hal/../draw/../misc/../font/../misc/lv_area.h ****     lv_coord_t y;
  40:lvgl/src/extra/widgets/span/../../../../src/hal/../draw/../misc/../font/../misc/lv_area.h **** } lv_point_t;
  41:lvgl/src/extra/widgets/span/../../../../src/hal/../draw/../misc/../font/../misc/lv_area.h **** 
  42:lvgl/src/extra/widgets/span/../../../../src/hal/../draw/../misc/../font/../misc/lv_area.h **** /** Represents an area of the screen.*/
  43:lvgl/src/extra/widgets/span/../../../../src/hal/../draw/../misc/../font/../misc/lv_area.h **** typedef struct {
  44:lvgl/src/extra/widgets/span/../../../../src/hal/../draw/../misc/../font/../misc/lv_area.h ****     lv_coord_t x1;
  45:lvgl/src/extra/widgets/span/../../../../src/hal/../draw/../misc/../font/../misc/lv_area.h ****     lv_coord_t y1;
  46:lvgl/src/extra/widgets/span/../../../../src/hal/../draw/../misc/../font/../misc/lv_area.h ****     lv_coord_t x2;
  47:lvgl/src/extra/widgets/span/../../../../src/hal/../draw/../misc/../font/../misc/lv_area.h ****     lv_coord_t y2;
  48:lvgl/src/extra/widgets/span/../../../../src/hal/../draw/../misc/../font/../misc/lv_area.h **** } lv_area_t;
  49:lvgl/src/extra/widgets/span/../../../../src/hal/../draw/../misc/../font/../misc/lv_area.h **** 
  50:lvgl/src/extra/widgets/span/../../../../src/hal/../draw/../misc/../font/../misc/lv_area.h **** /** Alignments*/
  51:lvgl/src/extra/widgets/span/../../../../src/hal/../draw/../misc/../font/../misc/lv_area.h **** enum {
  52:lvgl/src/extra/widgets/span/../../../../src/hal/../draw/../misc/../font/../misc/lv_area.h ****     LV_ALIGN_DEFAULT = 0,
  53:lvgl/src/extra/widgets/span/../../../../src/hal/../draw/../misc/../font/../misc/lv_area.h ****     LV_ALIGN_TOP_LEFT,
  54:lvgl/src/extra/widgets/span/../../../../src/hal/../draw/../misc/../font/../misc/lv_area.h ****     LV_ALIGN_TOP_MID,
  55:lvgl/src/extra/widgets/span/../../../../src/hal/../draw/../misc/../font/../misc/lv_area.h ****     LV_ALIGN_TOP_RIGHT,
  56:lvgl/src/extra/widgets/span/../../../../src/hal/../draw/../misc/../font/../misc/lv_area.h ****     LV_ALIGN_BOTTOM_LEFT,
  57:lvgl/src/extra/widgets/span/../../../../src/hal/../draw/../misc/../font/../misc/lv_area.h ****     LV_ALIGN_BOTTOM_MID,
  58:lvgl/src/extra/widgets/span/../../../../src/hal/../draw/../misc/../font/../misc/lv_area.h ****     LV_ALIGN_BOTTOM_RIGHT,
  59:lvgl/src/extra/widgets/span/../../../../src/hal/../draw/../misc/../font/../misc/lv_area.h ****     LV_ALIGN_LEFT_MID,
  60:lvgl/src/extra/widgets/span/../../../../src/hal/../draw/../misc/../font/../misc/lv_area.h ****     LV_ALIGN_RIGHT_MID,
  61:lvgl/src/extra/widgets/span/../../../../src/hal/../draw/../misc/../font/../misc/lv_area.h ****     LV_ALIGN_CENTER,
  62:lvgl/src/extra/widgets/span/../../../../src/hal/../draw/../misc/../font/../misc/lv_area.h **** 
  63:lvgl/src/extra/widgets/span/../../../../src/hal/../draw/../misc/../font/../misc/lv_area.h ****     LV_ALIGN_OUT_TOP_LEFT,
  64:lvgl/src/extra/widgets/span/../../../../src/hal/../draw/../misc/../font/../misc/lv_area.h ****     LV_ALIGN_OUT_TOP_MID,
  65:lvgl/src/extra/widgets/span/../../../../src/hal/../draw/../misc/../font/../misc/lv_area.h ****     LV_ALIGN_OUT_TOP_RIGHT,
  66:lvgl/src/extra/widgets/span/../../../../src/hal/../draw/../misc/../font/../misc/lv_area.h ****     LV_ALIGN_OUT_BOTTOM_LEFT,
  67:lvgl/src/extra/widgets/span/../../../../src/hal/../draw/../misc/../font/../misc/lv_area.h ****     LV_ALIGN_OUT_BOTTOM_MID,
  68:lvgl/src/extra/widgets/span/../../../../src/hal/../draw/../misc/../font/../misc/lv_area.h ****     LV_ALIGN_OUT_BOTTOM_RIGHT,
  69:lvgl/src/extra/widgets/span/../../../../src/hal/../draw/../misc/../font/../misc/lv_area.h ****     LV_ALIGN_OUT_LEFT_TOP,
  70:lvgl/src/extra/widgets/span/../../../../src/hal/../draw/../misc/../font/../misc/lv_area.h ****     LV_ALIGN_OUT_LEFT_MID,
  71:lvgl/src/extra/widgets/span/../../../../src/hal/../draw/../misc/../font/../misc/lv_area.h ****     LV_ALIGN_OUT_LEFT_BOTTOM,
  72:lvgl/src/extra/widgets/span/../../../../src/hal/../draw/../misc/../font/../misc/lv_area.h ****     LV_ALIGN_OUT_RIGHT_TOP,
  73:lvgl/src/extra/widgets/span/../../../../src/hal/../draw/../misc/../font/../misc/lv_area.h ****     LV_ALIGN_OUT_RIGHT_MID,
  74:lvgl/src/extra/widgets/span/../../../../src/hal/../draw/../misc/../font/../misc/lv_area.h ****     LV_ALIGN_OUT_RIGHT_BOTTOM,
  75:lvgl/src/extra/widgets/span/../../../../src/hal/../draw/../misc/../font/../misc/lv_area.h **** };
  76:lvgl/src/extra/widgets/span/../../../../src/hal/../draw/../misc/../font/../misc/lv_area.h **** typedef uint8_t lv_align_t;
  77:lvgl/src/extra/widgets/span/../../../../src/hal/../draw/../misc/../font/../misc/lv_area.h **** 
  78:lvgl/src/extra/widgets/span/../../../../src/hal/../draw/../misc/../font/../misc/lv_area.h **** enum {
  79:lvgl/src/extra/widgets/span/../../../../src/hal/../draw/../misc/../font/../misc/lv_area.h ****     LV_DIR_NONE     = 0x00,
  80:lvgl/src/extra/widgets/span/../../../../src/hal/../draw/../misc/../font/../misc/lv_area.h ****     LV_DIR_LEFT     = (1 << 0),
  81:lvgl/src/extra/widgets/span/../../../../src/hal/../draw/../misc/../font/../misc/lv_area.h ****     LV_DIR_RIGHT    = (1 << 1),
  82:lvgl/src/extra/widgets/span/../../../../src/hal/../draw/../misc/../font/../misc/lv_area.h ****     LV_DIR_TOP      = (1 << 2),
ARM GAS  /var/folders/21/t9g5rlb91ys800n5npymflf80000gn/T//ccdafQ6l.s 			page 50


  83:lvgl/src/extra/widgets/span/../../../../src/hal/../draw/../misc/../font/../misc/lv_area.h ****     LV_DIR_BOTTOM   = (1 << 3),
  84:lvgl/src/extra/widgets/span/../../../../src/hal/../draw/../misc/../font/../misc/lv_area.h ****     LV_DIR_HOR      = LV_DIR_LEFT | LV_DIR_RIGHT,
  85:lvgl/src/extra/widgets/span/../../../../src/hal/../draw/../misc/../font/../misc/lv_area.h ****     LV_DIR_VER      = LV_DIR_TOP | LV_DIR_BOTTOM,
  86:lvgl/src/extra/widgets/span/../../../../src/hal/../draw/../misc/../font/../misc/lv_area.h ****     LV_DIR_ALL      = LV_DIR_HOR | LV_DIR_VER,
  87:lvgl/src/extra/widgets/span/../../../../src/hal/../draw/../misc/../font/../misc/lv_area.h **** };
  88:lvgl/src/extra/widgets/span/../../../../src/hal/../draw/../misc/../font/../misc/lv_area.h **** 
  89:lvgl/src/extra/widgets/span/../../../../src/hal/../draw/../misc/../font/../misc/lv_area.h **** typedef uint8_t lv_dir_t;
  90:lvgl/src/extra/widgets/span/../../../../src/hal/../draw/../misc/../font/../misc/lv_area.h **** 
  91:lvgl/src/extra/widgets/span/../../../../src/hal/../draw/../misc/../font/../misc/lv_area.h **** /**********************
  92:lvgl/src/extra/widgets/span/../../../../src/hal/../draw/../misc/../font/../misc/lv_area.h ****  * GLOBAL PROTOTYPES
  93:lvgl/src/extra/widgets/span/../../../../src/hal/../draw/../misc/../font/../misc/lv_area.h ****  **********************/
  94:lvgl/src/extra/widgets/span/../../../../src/hal/../draw/../misc/../font/../misc/lv_area.h **** 
  95:lvgl/src/extra/widgets/span/../../../../src/hal/../draw/../misc/../font/../misc/lv_area.h **** /**
  96:lvgl/src/extra/widgets/span/../../../../src/hal/../draw/../misc/../font/../misc/lv_area.h ****  * Initialize an area
  97:lvgl/src/extra/widgets/span/../../../../src/hal/../draw/../misc/../font/../misc/lv_area.h ****  * @param area_p pointer to an area
  98:lvgl/src/extra/widgets/span/../../../../src/hal/../draw/../misc/../font/../misc/lv_area.h ****  * @param x1 left coordinate of the area
  99:lvgl/src/extra/widgets/span/../../../../src/hal/../draw/../misc/../font/../misc/lv_area.h ****  * @param y1 top coordinate of the area
 100:lvgl/src/extra/widgets/span/../../../../src/hal/../draw/../misc/../font/../misc/lv_area.h ****  * @param x2 right coordinate of the area
 101:lvgl/src/extra/widgets/span/../../../../src/hal/../draw/../misc/../font/../misc/lv_area.h ****  * @param y2 bottom coordinate of the area
 102:lvgl/src/extra/widgets/span/../../../../src/hal/../draw/../misc/../font/../misc/lv_area.h ****  */
 103:lvgl/src/extra/widgets/span/../../../../src/hal/../draw/../misc/../font/../misc/lv_area.h **** void lv_area_set(lv_area_t * area_p, lv_coord_t x1, lv_coord_t y1, lv_coord_t x2, lv_coord_t y2);
 104:lvgl/src/extra/widgets/span/../../../../src/hal/../draw/../misc/../font/../misc/lv_area.h **** 
 105:lvgl/src/extra/widgets/span/../../../../src/hal/../draw/../misc/../font/../misc/lv_area.h **** /**
 106:lvgl/src/extra/widgets/span/../../../../src/hal/../draw/../misc/../font/../misc/lv_area.h ****  * Copy an area
 107:lvgl/src/extra/widgets/span/../../../../src/hal/../draw/../misc/../font/../misc/lv_area.h ****  * @param dest pointer to the destination area
 108:lvgl/src/extra/widgets/span/../../../../src/hal/../draw/../misc/../font/../misc/lv_area.h ****  * @param src pointer to the source area
 109:lvgl/src/extra/widgets/span/../../../../src/hal/../draw/../misc/../font/../misc/lv_area.h ****  */
 110:lvgl/src/extra/widgets/span/../../../../src/hal/../draw/../misc/../font/../misc/lv_area.h **** inline static void lv_area_copy(lv_area_t * dest, const lv_area_t * src)
 111:lvgl/src/extra/widgets/span/../../../../src/hal/../draw/../misc/../font/../misc/lv_area.h **** {
 112:lvgl/src/extra/widgets/span/../../../../src/hal/../draw/../misc/../font/../misc/lv_area.h ****     dest->x1 = src->x1;
 113:lvgl/src/extra/widgets/span/../../../../src/hal/../draw/../misc/../font/../misc/lv_area.h ****     dest->y1 = src->y1;
 114:lvgl/src/extra/widgets/span/../../../../src/hal/../draw/../misc/../font/../misc/lv_area.h ****     dest->x2 = src->x2;
 115:lvgl/src/extra/widgets/span/../../../../src/hal/../draw/../misc/../font/../misc/lv_area.h ****     dest->y2 = src->y2;
 116:lvgl/src/extra/widgets/span/../../../../src/hal/../draw/../misc/../font/../misc/lv_area.h **** }
 117:lvgl/src/extra/widgets/span/../../../../src/hal/../draw/../misc/../font/../misc/lv_area.h **** 
 118:lvgl/src/extra/widgets/span/../../../../src/hal/../draw/../misc/../font/../misc/lv_area.h **** /**
 119:lvgl/src/extra/widgets/span/../../../../src/hal/../draw/../misc/../font/../misc/lv_area.h ****  * Get the width of an area
 120:lvgl/src/extra/widgets/span/../../../../src/hal/../draw/../misc/../font/../misc/lv_area.h ****  * @param area_p pointer to an area
 121:lvgl/src/extra/widgets/span/../../../../src/hal/../draw/../misc/../font/../misc/lv_area.h ****  * @return the width of the area (if x1 == x2 -> width = 1)
 122:lvgl/src/extra/widgets/span/../../../../src/hal/../draw/../misc/../font/../misc/lv_area.h ****  */
 123:lvgl/src/extra/widgets/span/../../../../src/hal/../draw/../misc/../font/../misc/lv_area.h **** static inline lv_coord_t lv_area_get_width(const lv_area_t * area_p)
 965              		.loc 3 123 26 view .LVU233
 966              	.LBB94:
 124:lvgl/src/extra/widgets/span/../../../../src/hal/../draw/../misc/../font/../misc/lv_area.h **** {
 125:lvgl/src/extra/widgets/span/../../../../src/hal/../draw/../misc/../font/../misc/lv_area.h ****     return (lv_coord_t)(area_p->x2 - area_p->x1 + 1);
 967              		.loc 3 125 5 view .LVU234
 968              		.loc 3 125 31 is_stmt 0 view .LVU235
 969 0054 BDF8CC30 		ldrh	r3, [sp, #204]
 970              		.loc 3 125 44 view .LVU236
 971 0058 BDF8C820 		ldrh	r2, [sp, #200]
 972              		.loc 3 125 36 view .LVU237
 973 005c 9B1A     		subs	r3, r3, r2
 974 005e 9BB2     		uxth	r3, r3
 975              		.loc 3 125 49 view .LVU238
 976 0060 0133     		adds	r3, r3, #1
 977 0062 9FB2     		uxth	r7, r3
 978 0064 0F97     		str	r7, [sp, #60]
ARM GAS  /var/folders/21/t9g5rlb91ys800n5npymflf80000gn/T//ccdafQ6l.s 			page 51


 979              		.loc 3 125 12 view .LVU239
 980 0066 1AB2     		sxth	r2, r3
 981 0068 1392     		str	r2, [sp, #76]
 982              	.LVL93:
 983              		.loc 3 125 12 view .LVU240
 984              	.LBE94:
 985              	.LBE93:
 780:lvgl/src/extra/widgets/span/lv_span.c ****     lv_coord_t max_w  = max_width - indent; /* first line need minus indent */
 986              		.loc 1 780 5 is_stmt 1 view .LVU241
 780:lvgl/src/extra/widgets/span/lv_span.c ****     lv_coord_t max_w  = max_width - indent; /* first line need minus indent */
 987              		.loc 1 780 25 is_stmt 0 view .LVU242
 988 006a 1146     		mov	r1, r2
 989 006c 2046     		mov	r0, r4
 990 006e FFF7FEFF 		bl	convert_indent_pct
 991              	.LVL94:
 780:lvgl/src/extra/widgets/span/lv_span.c ****     lv_coord_t max_w  = max_width - indent; /* first line need minus indent */
 992              		.loc 1 780 25 view .LVU243
 993 0072 1990     		str	r0, [sp, #100]
 994              	.LVL95:
 781:lvgl/src/extra/widgets/span/lv_span.c ****     lv_opa_t obj_opa = lv_obj_get_style_opa_recursive(obj, LV_PART_MAIN);
 995              		.loc 1 781 5 is_stmt 1 view .LVU244
 781:lvgl/src/extra/widgets/span/lv_span.c ****     lv_opa_t obj_opa = lv_obj_get_style_opa_recursive(obj, LV_PART_MAIN);
 996              		.loc 1 781 35 is_stmt 0 view .LVU245
 997 0074 85B2     		uxth	r5, r0
 998 0076 7C1B     		subs	r4, r7, r5
 999              	.LVL96:
 781:lvgl/src/extra/widgets/span/lv_span.c ****     lv_opa_t obj_opa = lv_obj_get_style_opa_recursive(obj, LV_PART_MAIN);
 1000              		.loc 1 781 16 view .LVU246
 1001 0078 24B2     		sxth	r4, r4
 1002              	.LVL97:
 782:lvgl/src/extra/widgets/span/lv_span.c **** 
 1003              		.loc 1 782 5 is_stmt 1 view .LVU247
 782:lvgl/src/extra/widgets/span/lv_span.c **** 
 1004              		.loc 1 782 24 is_stmt 0 view .LVU248
 1005 007a 0021     		movs	r1, #0
 1006 007c 4846     		mov	r0, r9
 1007              	.LVL98:
 782:lvgl/src/extra/widgets/span/lv_span.c **** 
 1008              		.loc 1 782 24 view .LVU249
 1009 007e FFF7FEFF 		bl	lv_obj_get_style_opa_recursive
 1010              	.LVL99:
 1011 0082 1090     		str	r0, [sp, #64]
 1012              	.LVL100:
 785:lvgl/src/extra/widgets/span/lv_span.c ****     txt_pos.y = coords.y1;
 1013              		.loc 1 785 5 is_stmt 1 view .LVU250
 786:lvgl/src/extra/widgets/span/lv_span.c ****     txt_pos.x = coords.x1 + indent; /* first line need add indent */
 1014              		.loc 1 786 5 view .LVU251
 786:lvgl/src/extra/widgets/span/lv_span.c ****     txt_pos.x = coords.x1 + indent; /* first line need add indent */
 1015              		.loc 1 786 23 is_stmt 0 view .LVU252
 1016 0084 BDF9CA30 		ldrsh	r3, [sp, #202]
 786:lvgl/src/extra/widgets/span/lv_span.c ****     txt_pos.x = coords.x1 + indent; /* first line need add indent */
 1017              		.loc 1 786 15 view .LVU253
 1018 0088 ADF8BE30 		strh	r3, [sp, #190]	@ movhi
 787:lvgl/src/extra/widgets/span/lv_span.c **** 
 1019              		.loc 1 787 5 is_stmt 1 view .LVU254
 787:lvgl/src/extra/widgets/span/lv_span.c **** 
 1020              		.loc 1 787 23 is_stmt 0 view .LVU255
ARM GAS  /var/folders/21/t9g5rlb91ys800n5npymflf80000gn/T//ccdafQ6l.s 			page 52


 1021 008c BDF8C830 		ldrh	r3, [sp, #200]
 787:lvgl/src/extra/widgets/span/lv_span.c **** 
 1022              		.loc 1 787 27 view .LVU256
 1023 0090 1D44     		add	r5, r5, r3
 1024              	.LVL101:
 787:lvgl/src/extra/widgets/span/lv_span.c **** 
 1025              		.loc 1 787 15 view .LVU257
 1026 0092 ADF8BC50 		strh	r5, [sp, #188]	@ movhi
 789:lvgl/src/extra/widgets/span/lv_span.c ****     const char * cur_txt = cur_span->txt;
 1027              		.loc 1 789 5 is_stmt 1 view .LVU258
 789:lvgl/src/extra/widgets/span/lv_span.c ****     const char * cur_txt = cur_span->txt;
 1028              		.loc 1 789 28 is_stmt 0 view .LVU259
 1029 0096 4046     		mov	r0, r8
 1030 0098 FFF7FEFF 		bl	_lv_ll_get_head
 1031              	.LVL102:
 1032 009c 0790     		str	r0, [sp, #28]
 1033              	.LVL103:
 790:lvgl/src/extra/widgets/span/lv_span.c ****     span_text_check(&cur_txt);
 1034              		.loc 1 790 5 is_stmt 1 view .LVU260
 790:lvgl/src/extra/widgets/span/lv_span.c ****     span_text_check(&cur_txt);
 1035              		.loc 1 790 36 is_stmt 0 view .LVU261
 1036 009e D0F80080 		ldr	r8, [r0]
 1037              	.LVL104:
 791:lvgl/src/extra/widgets/span/lv_span.c ****     uint32_t cur_txt_ofs = 0;
 1038              		.loc 1 791 5 is_stmt 1 view .LVU262
 1039              	.LBB95:
 1040              	.LBI95:
 726:lvgl/src/extra/widgets/span/lv_span.c **** {
 1041              		.loc 1 726 20 view .LVU263
 1042              	.LBB96:
 728:lvgl/src/extra/widgets/span/lv_span.c ****         *text = "";
 1043              		.loc 1 728 5 view .LVU264
 728:lvgl/src/extra/widgets/span/lv_span.c ****         *text = "";
 1044              		.loc 1 728 7 is_stmt 0 view .LVU265
 1045 00a2 B8F1000F 		cmp	r8, #0
 1046 00a6 0ED0     		beq	.L129
 1047              	.LVL105:
 1048              	.L65:
 730:lvgl/src/extra/widgets/span/lv_span.c ****     }
 1049              		.loc 1 730 9 is_stmt 1 view .LVU266
 730:lvgl/src/extra/widgets/span/lv_span.c ****     }
 1050              		.loc 1 730 9 view .LVU267
 730:lvgl/src/extra/widgets/span/lv_span.c ****     }
 1051              		.loc 1 730 9 view .LVU268
 730:lvgl/src/extra/widgets/span/lv_span.c ****     }
 1052              		.loc 1 730 9 is_stmt 0 view .LVU269
 1053              	.LBE96:
 1054              	.LBE95:
 792:lvgl/src/extra/widgets/span/lv_span.c ****     lv_snippet_t snippet;   /* use to save cur_span info and push it to stack */
 1055              		.loc 1 792 5 is_stmt 1 view .LVU270
 793:lvgl/src/extra/widgets/span/lv_span.c ****     lv_memset_00(&snippet, sizeof(snippet));
 1056              		.loc 1 793 5 view .LVU271
 794:lvgl/src/extra/widgets/span/lv_span.c **** 
 1057              		.loc 1 794 5 view .LVU272
 1058 00a8 1421     		movs	r1, #20
 1059 00aa 2AA8     		add	r0, sp, #168
 1060              	.LVL106:
ARM GAS  /var/folders/21/t9g5rlb91ys800n5npymflf80000gn/T//ccdafQ6l.s 			page 53


 794:lvgl/src/extra/widgets/span/lv_span.c **** 
 1061              		.loc 1 794 5 is_stmt 0 view .LVU273
 1062 00ac FFF7FEFF 		bl	lv_memset_00
 1063              	.LVL107:
 796:lvgl/src/extra/widgets/span/lv_span.c ****     lv_draw_label_dsc_init(&label_draw_dsc);
 1064              		.loc 1 796 5 is_stmt 1 view .LVU274
 797:lvgl/src/extra/widgets/span/lv_span.c **** 
 1065              		.loc 1 797 5 view .LVU275
 1066 00b0 22A8     		add	r0, sp, #136
 1067 00b2 FFF7FEFF 		bl	lv_draw_label_dsc_init
 1068              	.LVL108:
 799:lvgl/src/extra/widgets/span/lv_span.c ****     /* the loop control how many lines need to draw */
 1069              		.loc 1 799 5 view .LVU276
 801:lvgl/src/extra/widgets/span/lv_span.c ****         bool is_end_line = false;
 1070              		.loc 1 801 5 view .LVU277
 799:lvgl/src/extra/widgets/span/lv_span.c ****     /* the loop control how many lines need to draw */
 1071              		.loc 1 799 10 is_stmt 0 view .LVU278
 1072 00b6 149B     		ldr	r3, [sp, #80]
 1073 00b8 0593     		str	r3, [sp, #20]
 792:lvgl/src/extra/widgets/span/lv_span.c ****     lv_snippet_t snippet;   /* use to save cur_span info and push it to stack */
 1074              		.loc 1 792 14 view .LVU279
 1075 00ba 4FF00009 		mov	r9, #0
 1076              	.LVL109:
 792:lvgl/src/extra/widgets/span/lv_span.c ****     lv_snippet_t snippet;   /* use to save cur_span info and push it to stack */
 1077              		.loc 1 792 14 view .LVU280
 1078 00be 4F46     		mov	r7, r9
 1079 00c0 1896     		str	r6, [sp, #96]
 1080 00c2 4646     		mov	r6, r8
 1081              	.LVL110:
 801:lvgl/src/extra/widgets/span/lv_span.c ****         bool is_end_line = false;
 1082              		.loc 1 801 10 view .LVU281
 1083 00c4 03E1     		b	.L66
 1084              	.LVL111:
 1085              	.L129:
 1086              	.LBB98:
 1087              	.LBB97:
 729:lvgl/src/extra/widgets/span/lv_span.c ****         LV_LOG_ERROR("occur an error that span text == NULL");
 1088              		.loc 1 729 15 view .LVU282
 1089 00c6 DFF89C82 		ldr	r8, .L145
 1090              	.LVL112:
 729:lvgl/src/extra/widgets/span/lv_span.c ****         LV_LOG_ERROR("occur an error that span text == NULL");
 1091              		.loc 1 729 15 view .LVU283
 1092 00ca EDE7     		b	.L65
 1093              	.LVL113:
 1094              	.L131:
 729:lvgl/src/extra/widgets/span/lv_span.c ****         LV_LOG_ERROR("occur an error that span text == NULL");
 1095              		.loc 1 729 15 view .LVU284
 1096              	.LBE97:
 1097              	.LBE98:
 1098              	.LBB99:
 1099              	.LBB100:
 812:lvgl/src/extra/widgets/span/lv_span.c ****                 if(cur_span == NULL) break;
 1100              		.loc 1 812 17 is_stmt 1 view .LVU285
 812:lvgl/src/extra/widgets/span/lv_span.c ****                 if(cur_span == NULL) break;
 1101              		.loc 1 812 28 is_stmt 0 view .LVU286
 1102 00cc 0799     		ldr	r1, [sp, #28]
 1103 00ce 0C98     		ldr	r0, [sp, #48]
ARM GAS  /var/folders/21/t9g5rlb91ys800n5npymflf80000gn/T//ccdafQ6l.s 			page 54


 1104 00d0 FFF7FEFF 		bl	_lv_ll_get_next
 1105              	.LVL114:
 813:lvgl/src/extra/widgets/span/lv_span.c ****                 cur_txt = cur_span->txt;
 1106              		.loc 1 813 17 is_stmt 1 view .LVU287
 813:lvgl/src/extra/widgets/span/lv_span.c ****                 cur_txt = cur_span->txt;
 1107              		.loc 1 813 19 is_stmt 0 view .LVU288
 1108 00d4 0790     		str	r0, [sp, #28]
 1109 00d6 0028     		cmp	r0, #0
 1110 00d8 00F0B080 		beq	.L69
 814:lvgl/src/extra/widgets/span/lv_span.c ****                 span_text_check(&cur_txt);
 1111              		.loc 1 814 17 is_stmt 1 view .LVU289
 814:lvgl/src/extra/widgets/span/lv_span.c ****                 span_text_check(&cur_txt);
 1112              		.loc 1 814 35 is_stmt 0 view .LVU290
 1113 00dc 0668     		ldr	r6, [r0]
 1114              	.LVL115:
 815:lvgl/src/extra/widgets/span/lv_span.c ****                 cur_txt_ofs = 0;
 1115              		.loc 1 815 17 is_stmt 1 view .LVU291
 1116              	.LBB101:
 1117              	.LBI101:
 726:lvgl/src/extra/widgets/span/lv_span.c **** {
 1118              		.loc 1 726 20 view .LVU292
 1119              	.LBB102:
 728:lvgl/src/extra/widgets/span/lv_span.c ****         *text = "";
 1120              		.loc 1 728 5 view .LVU293
 728:lvgl/src/extra/widgets/span/lv_span.c ****         *text = "";
 1121              		.loc 1 728 7 is_stmt 0 view .LVU294
 1122 00de 0EB1     		cbz	r6, .L130
 1123              	.LVL116:
 1124              	.L70:
 730:lvgl/src/extra/widgets/span/lv_span.c ****     }
 1125              		.loc 1 730 9 is_stmt 1 view .LVU295
 730:lvgl/src/extra/widgets/span/lv_span.c ****     }
 1126              		.loc 1 730 9 view .LVU296
 730:lvgl/src/extra/widgets/span/lv_span.c ****     }
 1127              		.loc 1 730 9 view .LVU297
 730:lvgl/src/extra/widgets/span/lv_span.c ****     }
 1128              		.loc 1 730 9 is_stmt 0 view .LVU298
 1129              	.LBE102:
 1130              	.LBE101:
 816:lvgl/src/extra/widgets/span/lv_span.c ****                 /* maybe also cur_txt[cur_txt_ofs] == '\0' */
 1131              		.loc 1 816 17 is_stmt 1 view .LVU299
 818:lvgl/src/extra/widgets/span/lv_span.c ****             }
 1132              		.loc 1 818 17 view .LVU300
 816:lvgl/src/extra/widgets/span/lv_span.c ****                 /* maybe also cur_txt[cur_txt_ofs] == '\0' */
 1133              		.loc 1 816 29 is_stmt 0 view .LVU301
 1134 00e0 0027     		movs	r7, #0
 1135 00e2 65E0     		b	.L67
 1136              	.LVL117:
 1137              	.L130:
 1138              	.LBB104:
 1139              	.LBB103:
 729:lvgl/src/extra/widgets/span/lv_span.c ****         LV_LOG_ERROR("occur an error that span text == NULL");
 1140              		.loc 1 729 15 view .LVU302
 1141 00e4 9F4E     		ldr	r6, .L145
 1142              	.LVL118:
 729:lvgl/src/extra/widgets/span/lv_span.c ****         LV_LOG_ERROR("occur an error that span text == NULL");
 1143              		.loc 1 729 15 view .LVU303
ARM GAS  /var/folders/21/t9g5rlb91ys800n5npymflf80000gn/T//ccdafQ6l.s 			page 55


 1144 00e6 FBE7     		b	.L70
 1145              	.LVL119:
 1146              	.L132:
 729:lvgl/src/extra/widgets/span/lv_span.c ****         LV_LOG_ERROR("occur an error that span text == NULL");
 1147              		.loc 1 729 15 view .LVU304
 1148              	.LBE103:
 1149              	.LBE104:
 823:lvgl/src/extra/widgets/span/lv_span.c ****                 snippet.font = lv_span_get_style_text_font(obj, cur_span);
 1150              		.loc 1 823 17 is_stmt 1 view .LVU305
 823:lvgl/src/extra/widgets/span/lv_span.c ****                 snippet.font = lv_span_get_style_text_font(obj, cur_span);
 1151              		.loc 1 823 30 is_stmt 0 view .LVU306
 1152 00e8 079B     		ldr	r3, [sp, #28]
 1153 00ea 2A93     		str	r3, [sp, #168]
 824:lvgl/src/extra/widgets/span/lv_span.c ****                 snippet.letter_space = lv_span_get_style_text_letter_space(obj, cur_span);
 1154              		.loc 1 824 17 is_stmt 1 view .LVU307
 824:lvgl/src/extra/widgets/span/lv_span.c ****                 snippet.letter_space = lv_span_get_style_text_letter_space(obj, cur_span);
 1155              		.loc 1 824 32 is_stmt 0 view .LVU308
 1156 00ec 9946     		mov	r9, r3
 1157 00ee 1946     		mov	r1, r3
 1158 00f0 069D     		ldr	r5, [sp, #24]
 1159 00f2 2846     		mov	r0, r5
 1160 00f4 FFF7FEFF 		bl	lv_span_get_style_text_font
 1161              	.LVL120:
 824:lvgl/src/extra/widgets/span/lv_span.c ****                 snippet.letter_space = lv_span_get_style_text_letter_space(obj, cur_span);
 1162              		.loc 1 824 30 view .LVU309
 1163 00f8 2C90     		str	r0, [sp, #176]
 825:lvgl/src/extra/widgets/span/lv_span.c ****                 snippet.line_h = lv_font_get_line_height(snippet.font) + line_space;
 1164              		.loc 1 825 17 is_stmt 1 view .LVU310
 825:lvgl/src/extra/widgets/span/lv_span.c ****                 snippet.line_h = lv_font_get_line_height(snippet.font) + line_space;
 1165              		.loc 1 825 40 is_stmt 0 view .LVU311
 1166 00fa 4946     		mov	r1, r9
 1167 00fc 2846     		mov	r0, r5
 1168 00fe FFF7FEFF 		bl	lv_span_get_style_text_letter_space
 1169              	.LVL121:
 825:lvgl/src/extra/widgets/span/lv_span.c ****                 snippet.line_h = lv_font_get_line_height(snippet.font) + line_space;
 1170              		.loc 1 825 38 view .LVU312
 1171 0102 ADF8BA00 		strh	r0, [sp, #186]	@ movhi
 826:lvgl/src/extra/widgets/span/lv_span.c ****             }
 1172              		.loc 1 826 17 is_stmt 1 view .LVU313
 826:lvgl/src/extra/widgets/span/lv_span.c ****             }
 1173              		.loc 1 826 34 is_stmt 0 view .LVU314
 1174 0106 2C9B     		ldr	r3, [sp, #176]
 1175              	.LVL122:
 1176              	.LBB105:
 1177              	.LBI105:
 1178              		.file 4 "lvgl/src/extra/widgets/span/../../../../src/hal/../draw/../misc/../font/lv_font.h"
   1:lvgl/src/extra/widgets/span/../../../../src/hal/../draw/../misc/../font/lv_font.h **** /**
   2:lvgl/src/extra/widgets/span/../../../../src/hal/../draw/../misc/../font/lv_font.h ****  * @file lv_font.h
   3:lvgl/src/extra/widgets/span/../../../../src/hal/../draw/../misc/../font/lv_font.h ****  *
   4:lvgl/src/extra/widgets/span/../../../../src/hal/../draw/../misc/../font/lv_font.h ****  */
   5:lvgl/src/extra/widgets/span/../../../../src/hal/../draw/../misc/../font/lv_font.h **** 
   6:lvgl/src/extra/widgets/span/../../../../src/hal/../draw/../misc/../font/lv_font.h **** #ifndef LV_FONT_H
   7:lvgl/src/extra/widgets/span/../../../../src/hal/../draw/../misc/../font/lv_font.h **** #define LV_FONT_H
   8:lvgl/src/extra/widgets/span/../../../../src/hal/../draw/../misc/../font/lv_font.h **** 
   9:lvgl/src/extra/widgets/span/../../../../src/hal/../draw/../misc/../font/lv_font.h **** #ifdef __cplusplus
  10:lvgl/src/extra/widgets/span/../../../../src/hal/../draw/../misc/../font/lv_font.h **** extern "C" {
  11:lvgl/src/extra/widgets/span/../../../../src/hal/../draw/../misc/../font/lv_font.h **** #endif
ARM GAS  /var/folders/21/t9g5rlb91ys800n5npymflf80000gn/T//ccdafQ6l.s 			page 56


  12:lvgl/src/extra/widgets/span/../../../../src/hal/../draw/../misc/../font/lv_font.h **** 
  13:lvgl/src/extra/widgets/span/../../../../src/hal/../draw/../misc/../font/lv_font.h **** /*********************
  14:lvgl/src/extra/widgets/span/../../../../src/hal/../draw/../misc/../font/lv_font.h ****  *      INCLUDES
  15:lvgl/src/extra/widgets/span/../../../../src/hal/../draw/../misc/../font/lv_font.h ****  *********************/
  16:lvgl/src/extra/widgets/span/../../../../src/hal/../draw/../misc/../font/lv_font.h **** #include "../lv_conf_internal.h"
  17:lvgl/src/extra/widgets/span/../../../../src/hal/../draw/../misc/../font/lv_font.h **** #include <stdint.h>
  18:lvgl/src/extra/widgets/span/../../../../src/hal/../draw/../misc/../font/lv_font.h **** #include <stddef.h>
  19:lvgl/src/extra/widgets/span/../../../../src/hal/../draw/../misc/../font/lv_font.h **** #include <stdbool.h>
  20:lvgl/src/extra/widgets/span/../../../../src/hal/../draw/../misc/../font/lv_font.h **** 
  21:lvgl/src/extra/widgets/span/../../../../src/hal/../draw/../misc/../font/lv_font.h **** #include "lv_symbol_def.h"
  22:lvgl/src/extra/widgets/span/../../../../src/hal/../draw/../misc/../font/lv_font.h **** #include "../misc/lv_area.h"
  23:lvgl/src/extra/widgets/span/../../../../src/hal/../draw/../misc/../font/lv_font.h **** 
  24:lvgl/src/extra/widgets/span/../../../../src/hal/../draw/../misc/../font/lv_font.h **** /*********************
  25:lvgl/src/extra/widgets/span/../../../../src/hal/../draw/../misc/../font/lv_font.h ****  *      DEFINES
  26:lvgl/src/extra/widgets/span/../../../../src/hal/../draw/../misc/../font/lv_font.h ****  *********************/
  27:lvgl/src/extra/widgets/span/../../../../src/hal/../draw/../misc/../font/lv_font.h **** 
  28:lvgl/src/extra/widgets/span/../../../../src/hal/../draw/../misc/../font/lv_font.h **** /* imgfont identifier */
  29:lvgl/src/extra/widgets/span/../../../../src/hal/../draw/../misc/../font/lv_font.h **** #define LV_IMGFONT_BPP 9
  30:lvgl/src/extra/widgets/span/../../../../src/hal/../draw/../misc/../font/lv_font.h **** 
  31:lvgl/src/extra/widgets/span/../../../../src/hal/../draw/../misc/../font/lv_font.h **** /**********************
  32:lvgl/src/extra/widgets/span/../../../../src/hal/../draw/../misc/../font/lv_font.h ****  *      TYPEDEFS
  33:lvgl/src/extra/widgets/span/../../../../src/hal/../draw/../misc/../font/lv_font.h ****  **********************/
  34:lvgl/src/extra/widgets/span/../../../../src/hal/../draw/../misc/../font/lv_font.h **** 
  35:lvgl/src/extra/widgets/span/../../../../src/hal/../draw/../misc/../font/lv_font.h **** /*------------------
  36:lvgl/src/extra/widgets/span/../../../../src/hal/../draw/../misc/../font/lv_font.h ****  * General types
  37:lvgl/src/extra/widgets/span/../../../../src/hal/../draw/../misc/../font/lv_font.h ****  *-----------------*/
  38:lvgl/src/extra/widgets/span/../../../../src/hal/../draw/../misc/../font/lv_font.h **** 
  39:lvgl/src/extra/widgets/span/../../../../src/hal/../draw/../misc/../font/lv_font.h **** struct _lv_font_t;
  40:lvgl/src/extra/widgets/span/../../../../src/hal/../draw/../misc/../font/lv_font.h **** /** Describes the properties of a glyph.*/
  41:lvgl/src/extra/widgets/span/../../../../src/hal/../draw/../misc/../font/lv_font.h **** typedef struct {
  42:lvgl/src/extra/widgets/span/../../../../src/hal/../draw/../misc/../font/lv_font.h ****     const struct _lv_font_t *
  43:lvgl/src/extra/widgets/span/../../../../src/hal/../draw/../misc/../font/lv_font.h ****         resolved_font; /**< Pointer to a font where the glyph was actually found after handling fal
  44:lvgl/src/extra/widgets/span/../../../../src/hal/../draw/../misc/../font/lv_font.h ****     uint16_t adv_w; /**< The glyph needs this space. Draw the next glyph after this width.*/
  45:lvgl/src/extra/widgets/span/../../../../src/hal/../draw/../misc/../font/lv_font.h ****     uint16_t box_w; /**< Width of the glyph's bounding box*/
  46:lvgl/src/extra/widgets/span/../../../../src/hal/../draw/../misc/../font/lv_font.h ****     uint16_t box_h; /**< Height of the glyph's bounding box*/
  47:lvgl/src/extra/widgets/span/../../../../src/hal/../draw/../misc/../font/lv_font.h ****     int16_t ofs_x;  /**< x offset of the bounding box*/
  48:lvgl/src/extra/widgets/span/../../../../src/hal/../draw/../misc/../font/lv_font.h ****     int16_t ofs_y;  /**< y offset of the bounding box*/
  49:lvgl/src/extra/widgets/span/../../../../src/hal/../draw/../misc/../font/lv_font.h ****     uint8_t bpp: 4;  /**< Bit-per-pixel: 1, 2, 4, 8*/
  50:lvgl/src/extra/widgets/span/../../../../src/hal/../draw/../misc/../font/lv_font.h ****     uint8_t is_placeholder: 1; /** Glyph is missing. But placeholder will still be displayed */
  51:lvgl/src/extra/widgets/span/../../../../src/hal/../draw/../misc/../font/lv_font.h **** } lv_font_glyph_dsc_t;
  52:lvgl/src/extra/widgets/span/../../../../src/hal/../draw/../misc/../font/lv_font.h **** 
  53:lvgl/src/extra/widgets/span/../../../../src/hal/../draw/../misc/../font/lv_font.h **** /** The bitmaps might be upscaled by 3 to achieve subpixel rendering.*/
  54:lvgl/src/extra/widgets/span/../../../../src/hal/../draw/../misc/../font/lv_font.h **** enum {
  55:lvgl/src/extra/widgets/span/../../../../src/hal/../draw/../misc/../font/lv_font.h ****     LV_FONT_SUBPX_NONE,
  56:lvgl/src/extra/widgets/span/../../../../src/hal/../draw/../misc/../font/lv_font.h ****     LV_FONT_SUBPX_HOR,
  57:lvgl/src/extra/widgets/span/../../../../src/hal/../draw/../misc/../font/lv_font.h ****     LV_FONT_SUBPX_VER,
  58:lvgl/src/extra/widgets/span/../../../../src/hal/../draw/../misc/../font/lv_font.h ****     LV_FONT_SUBPX_BOTH,
  59:lvgl/src/extra/widgets/span/../../../../src/hal/../draw/../misc/../font/lv_font.h **** };
  60:lvgl/src/extra/widgets/span/../../../../src/hal/../draw/../misc/../font/lv_font.h **** 
  61:lvgl/src/extra/widgets/span/../../../../src/hal/../draw/../misc/../font/lv_font.h **** typedef uint8_t lv_font_subpx_t;
  62:lvgl/src/extra/widgets/span/../../../../src/hal/../draw/../misc/../font/lv_font.h **** 
  63:lvgl/src/extra/widgets/span/../../../../src/hal/../draw/../misc/../font/lv_font.h **** /** Describe the properties of a font*/
  64:lvgl/src/extra/widgets/span/../../../../src/hal/../draw/../misc/../font/lv_font.h **** typedef struct _lv_font_t {
  65:lvgl/src/extra/widgets/span/../../../../src/hal/../draw/../misc/../font/lv_font.h ****     /** Get a glyph's descriptor from a font*/
  66:lvgl/src/extra/widgets/span/../../../../src/hal/../draw/../misc/../font/lv_font.h ****     bool (*get_glyph_dsc)(const struct _lv_font_t *, lv_font_glyph_dsc_t *, uint32_t letter, uint32
  67:lvgl/src/extra/widgets/span/../../../../src/hal/../draw/../misc/../font/lv_font.h **** 
  68:lvgl/src/extra/widgets/span/../../../../src/hal/../draw/../misc/../font/lv_font.h ****     /** Get a glyph's bitmap from a font*/
ARM GAS  /var/folders/21/t9g5rlb91ys800n5npymflf80000gn/T//ccdafQ6l.s 			page 57


  69:lvgl/src/extra/widgets/span/../../../../src/hal/../draw/../misc/../font/lv_font.h ****     const uint8_t * (*get_glyph_bitmap)(const struct _lv_font_t *, uint32_t);
  70:lvgl/src/extra/widgets/span/../../../../src/hal/../draw/../misc/../font/lv_font.h **** 
  71:lvgl/src/extra/widgets/span/../../../../src/hal/../draw/../misc/../font/lv_font.h ****     /*Pointer to the font in a font pack (must have the same line height)*/
  72:lvgl/src/extra/widgets/span/../../../../src/hal/../draw/../misc/../font/lv_font.h ****     lv_coord_t line_height;         /**< The real line height where any text fits*/
  73:lvgl/src/extra/widgets/span/../../../../src/hal/../draw/../misc/../font/lv_font.h ****     lv_coord_t base_line;           /**< Base line measured from the top of the line_height*/
  74:lvgl/src/extra/widgets/span/../../../../src/hal/../draw/../misc/../font/lv_font.h ****     uint8_t subpx  : 2;             /**< An element of `lv_font_subpx_t`*/
  75:lvgl/src/extra/widgets/span/../../../../src/hal/../draw/../misc/../font/lv_font.h **** 
  76:lvgl/src/extra/widgets/span/../../../../src/hal/../draw/../misc/../font/lv_font.h ****     int8_t underline_position;      /**< Distance between the top of the underline and base line (<
  77:lvgl/src/extra/widgets/span/../../../../src/hal/../draw/../misc/../font/lv_font.h ****     int8_t underline_thickness;     /**< Thickness of the underline*/
  78:lvgl/src/extra/widgets/span/../../../../src/hal/../draw/../misc/../font/lv_font.h **** 
  79:lvgl/src/extra/widgets/span/../../../../src/hal/../draw/../misc/../font/lv_font.h ****     const void * dsc;               /**< Store implementation specific or run_time data or caching 
  80:lvgl/src/extra/widgets/span/../../../../src/hal/../draw/../misc/../font/lv_font.h ****     const struct _lv_font_t * fallback;   /**< Fallback font for missing glyph. Resolved recursivel
  81:lvgl/src/extra/widgets/span/../../../../src/hal/../draw/../misc/../font/lv_font.h **** #if LV_USE_USER_DATA
  82:lvgl/src/extra/widgets/span/../../../../src/hal/../draw/../misc/../font/lv_font.h ****     void * user_data;               /**< Custom user data for font.*/
  83:lvgl/src/extra/widgets/span/../../../../src/hal/../draw/../misc/../font/lv_font.h **** #endif
  84:lvgl/src/extra/widgets/span/../../../../src/hal/../draw/../misc/../font/lv_font.h **** } lv_font_t;
  85:lvgl/src/extra/widgets/span/../../../../src/hal/../draw/../misc/../font/lv_font.h **** 
  86:lvgl/src/extra/widgets/span/../../../../src/hal/../draw/../misc/../font/lv_font.h **** /**********************
  87:lvgl/src/extra/widgets/span/../../../../src/hal/../draw/../misc/../font/lv_font.h ****  * GLOBAL PROTOTYPES
  88:lvgl/src/extra/widgets/span/../../../../src/hal/../draw/../misc/../font/lv_font.h ****  **********************/
  89:lvgl/src/extra/widgets/span/../../../../src/hal/../draw/../misc/../font/lv_font.h **** 
  90:lvgl/src/extra/widgets/span/../../../../src/hal/../draw/../misc/../font/lv_font.h **** /**
  91:lvgl/src/extra/widgets/span/../../../../src/hal/../draw/../misc/../font/lv_font.h ****  * Return with the bitmap of a font.
  92:lvgl/src/extra/widgets/span/../../../../src/hal/../draw/../misc/../font/lv_font.h ****  * @param font_p pointer to a font
  93:lvgl/src/extra/widgets/span/../../../../src/hal/../draw/../misc/../font/lv_font.h ****  * @param letter a UNICODE character code
  94:lvgl/src/extra/widgets/span/../../../../src/hal/../draw/../misc/../font/lv_font.h ****  * @return pointer to the bitmap of the letter
  95:lvgl/src/extra/widgets/span/../../../../src/hal/../draw/../misc/../font/lv_font.h ****  */
  96:lvgl/src/extra/widgets/span/../../../../src/hal/../draw/../misc/../font/lv_font.h **** const uint8_t * lv_font_get_glyph_bitmap(const lv_font_t * font_p, uint32_t letter);
  97:lvgl/src/extra/widgets/span/../../../../src/hal/../draw/../misc/../font/lv_font.h **** 
  98:lvgl/src/extra/widgets/span/../../../../src/hal/../draw/../misc/../font/lv_font.h **** /**
  99:lvgl/src/extra/widgets/span/../../../../src/hal/../draw/../misc/../font/lv_font.h ****  * Get the descriptor of a glyph
 100:lvgl/src/extra/widgets/span/../../../../src/hal/../draw/../misc/../font/lv_font.h ****  * @param font_p pointer to font
 101:lvgl/src/extra/widgets/span/../../../../src/hal/../draw/../misc/../font/lv_font.h ****  * @param dsc_out store the result descriptor here
 102:lvgl/src/extra/widgets/span/../../../../src/hal/../draw/../misc/../font/lv_font.h ****  * @param letter a UNICODE letter code
 103:lvgl/src/extra/widgets/span/../../../../src/hal/../draw/../misc/../font/lv_font.h ****  * @param letter_next the next letter after `letter`. Used for kerning
 104:lvgl/src/extra/widgets/span/../../../../src/hal/../draw/../misc/../font/lv_font.h ****  * @return true: descriptor is successfully loaded into `dsc_out`.
 105:lvgl/src/extra/widgets/span/../../../../src/hal/../draw/../misc/../font/lv_font.h ****  *         false: the letter was not found, no data is loaded to `dsc_out`
 106:lvgl/src/extra/widgets/span/../../../../src/hal/../draw/../misc/../font/lv_font.h ****  */
 107:lvgl/src/extra/widgets/span/../../../../src/hal/../draw/../misc/../font/lv_font.h **** bool lv_font_get_glyph_dsc(const lv_font_t * font_p, lv_font_glyph_dsc_t * dsc_out, uint32_t letter
 108:lvgl/src/extra/widgets/span/../../../../src/hal/../draw/../misc/../font/lv_font.h ****                            uint32_t letter_next);
 109:lvgl/src/extra/widgets/span/../../../../src/hal/../draw/../misc/../font/lv_font.h **** 
 110:lvgl/src/extra/widgets/span/../../../../src/hal/../draw/../misc/../font/lv_font.h **** /**
 111:lvgl/src/extra/widgets/span/../../../../src/hal/../draw/../misc/../font/lv_font.h ****  * Get the width of a glyph with kerning
 112:lvgl/src/extra/widgets/span/../../../../src/hal/../draw/../misc/../font/lv_font.h ****  * @param font pointer to a font
 113:lvgl/src/extra/widgets/span/../../../../src/hal/../draw/../misc/../font/lv_font.h ****  * @param letter a UNICODE letter
 114:lvgl/src/extra/widgets/span/../../../../src/hal/../draw/../misc/../font/lv_font.h ****  * @param letter_next the next letter after `letter`. Used for kerning
 115:lvgl/src/extra/widgets/span/../../../../src/hal/../draw/../misc/../font/lv_font.h ****  * @return the width of the glyph
 116:lvgl/src/extra/widgets/span/../../../../src/hal/../draw/../misc/../font/lv_font.h ****  */
 117:lvgl/src/extra/widgets/span/../../../../src/hal/../draw/../misc/../font/lv_font.h **** uint16_t lv_font_get_glyph_width(const lv_font_t * font, uint32_t letter, uint32_t letter_next);
 118:lvgl/src/extra/widgets/span/../../../../src/hal/../draw/../misc/../font/lv_font.h **** 
 119:lvgl/src/extra/widgets/span/../../../../src/hal/../draw/../misc/../font/lv_font.h **** /**
 120:lvgl/src/extra/widgets/span/../../../../src/hal/../draw/../misc/../font/lv_font.h ****  * Get the line height of a font. All characters fit into this height
 121:lvgl/src/extra/widgets/span/../../../../src/hal/../draw/../misc/../font/lv_font.h ****  * @param font_p pointer to a font
 122:lvgl/src/extra/widgets/span/../../../../src/hal/../draw/../misc/../font/lv_font.h ****  * @return the height of a font
 123:lvgl/src/extra/widgets/span/../../../../src/hal/../draw/../misc/../font/lv_font.h ****  */
 124:lvgl/src/extra/widgets/span/../../../../src/hal/../draw/../misc/../font/lv_font.h **** static inline lv_coord_t lv_font_get_line_height(const lv_font_t * font_p)
 1179              		.loc 4 124 26 is_stmt 1 view .LVU315
ARM GAS  /var/folders/21/t9g5rlb91ys800n5npymflf80000gn/T//ccdafQ6l.s 			page 58


 1180              	.LBB106:
 125:lvgl/src/extra/widgets/span/../../../../src/hal/../draw/../misc/../font/lv_font.h **** {
 126:lvgl/src/extra/widgets/span/../../../../src/hal/../draw/../misc/../font/lv_font.h ****     return font_p->line_height;
 1181              		.loc 4 126 5 view .LVU316
 1182              		.loc 4 126 18 is_stmt 0 view .LVU317
 1183 0108 B3F90830 		ldrsh	r3, [r3, #8]
 1184              	.LVL123:
 1185              		.loc 4 126 18 view .LVU318
 1186              	.LBE106:
 1187              	.LBE105:
 826:lvgl/src/extra/widgets/span/lv_span.c ****             }
 1188              		.loc 1 826 72 view .LVU319
 1189 010c 119A     		ldr	r2, [sp, #68]
 1190 010e 12FA83F3 		uxtah	r3, r2, r3
 826:lvgl/src/extra/widgets/span/lv_span.c ****             }
