ARM GAS  /var/folders/21/t9g5rlb91ys800n5npymflf80000gn/T//ccNiYEm1.s 			page 1


   1              		.cpu cortex-m4
   2              		.arch armv7e-m
   3              		.fpu fpv4-sp-d16
   4              		.eabi_attribute 27, 1
   5              		.eabi_attribute 28, 1
   6              		.eabi_attribute 20, 1
   7              		.eabi_attribute 21, 1
   8              		.eabi_attribute 23, 3
   9              		.eabi_attribute 24, 1
  10              		.eabi_attribute 25, 1
  11              		.eabi_attribute 26, 1
  12              		.eabi_attribute 30, 1
  13              		.eabi_attribute 34, 1
  14              		.eabi_attribute 18, 4
  15              		.file	"lv_table.c"
  16              		.text
  17              	.Ltext0:
  18              		.cfi_sections	.debug_frame
  19              		.file 1 "lvgl/src/widgets/lv_table.c"
  20              		.section	.text.get_row_height,"ax",%progbits
  21              		.align	1
  22              		.syntax unified
  23              		.thumb
  24              		.thumb_func
  26              	get_row_height:
  27              	.LVL0:
  28              	.LFB184:
   1:lvgl/src/widgets/lv_table.c **** /**
   2:lvgl/src/widgets/lv_table.c ****  * @file lv_table.c
   3:lvgl/src/widgets/lv_table.c ****  *
   4:lvgl/src/widgets/lv_table.c ****  */
   5:lvgl/src/widgets/lv_table.c **** 
   6:lvgl/src/widgets/lv_table.c **** /*********************
   7:lvgl/src/widgets/lv_table.c ****  *      INCLUDES
   8:lvgl/src/widgets/lv_table.c ****  *********************/
   9:lvgl/src/widgets/lv_table.c **** #include "lv_table.h"
  10:lvgl/src/widgets/lv_table.c **** #if LV_USE_TABLE != 0
  11:lvgl/src/widgets/lv_table.c **** 
  12:lvgl/src/widgets/lv_table.c **** #include "../core/lv_indev.h"
  13:lvgl/src/widgets/lv_table.c **** #include "../misc/lv_assert.h"
  14:lvgl/src/widgets/lv_table.c **** #include "../misc/lv_txt.h"
  15:lvgl/src/widgets/lv_table.c **** #include "../misc/lv_txt_ap.h"
  16:lvgl/src/widgets/lv_table.c **** #include "../misc/lv_math.h"
  17:lvgl/src/widgets/lv_table.c **** #include "../misc/lv_printf.h"
  18:lvgl/src/widgets/lv_table.c **** #include "../draw/lv_draw.h"
  19:lvgl/src/widgets/lv_table.c **** 
  20:lvgl/src/widgets/lv_table.c **** /*********************
  21:lvgl/src/widgets/lv_table.c ****  *      DEFINES
  22:lvgl/src/widgets/lv_table.c ****  *********************/
  23:lvgl/src/widgets/lv_table.c **** #define MY_CLASS &lv_table_class
  24:lvgl/src/widgets/lv_table.c **** 
  25:lvgl/src/widgets/lv_table.c **** /**********************
  26:lvgl/src/widgets/lv_table.c ****  *      TYPEDEFS
  27:lvgl/src/widgets/lv_table.c ****  **********************/
  28:lvgl/src/widgets/lv_table.c **** 
  29:lvgl/src/widgets/lv_table.c **** /**********************
  30:lvgl/src/widgets/lv_table.c ****  *  STATIC PROTOTYPES
ARM GAS  /var/folders/21/t9g5rlb91ys800n5npymflf80000gn/T//ccNiYEm1.s 			page 2


  31:lvgl/src/widgets/lv_table.c ****  **********************/
  32:lvgl/src/widgets/lv_table.c **** static void lv_table_constructor(const lv_obj_class_t * class_p, lv_obj_t * obj);
  33:lvgl/src/widgets/lv_table.c **** static void lv_table_destructor(const lv_obj_class_t * class_p, lv_obj_t * obj);
  34:lvgl/src/widgets/lv_table.c **** static void lv_table_event(const lv_obj_class_t * class_p, lv_event_t * e);
  35:lvgl/src/widgets/lv_table.c **** static void draw_main(lv_event_t * e);
  36:lvgl/src/widgets/lv_table.c **** static lv_coord_t get_row_height(lv_obj_t * obj, uint16_t row_id, const lv_font_t * font,
  37:lvgl/src/widgets/lv_table.c ****                                  lv_coord_t letter_space, lv_coord_t line_space,
  38:lvgl/src/widgets/lv_table.c ****                                  lv_coord_t cell_left, lv_coord_t cell_right, lv_coord_t cell_top, 
  39:lvgl/src/widgets/lv_table.c **** static void refr_size_form_row(lv_obj_t * obj, uint32_t start_row);
  40:lvgl/src/widgets/lv_table.c **** static void refr_cell_size(lv_obj_t * obj, uint32_t row, uint32_t col);
  41:lvgl/src/widgets/lv_table.c **** static lv_res_t get_pressed_cell(lv_obj_t * obj, uint16_t * row, uint16_t * col);
  42:lvgl/src/widgets/lv_table.c **** static size_t get_cell_txt_len(const char * txt);
  43:lvgl/src/widgets/lv_table.c **** static void copy_cell_txt(lv_table_cell_t * dst, const char * txt);
  44:lvgl/src/widgets/lv_table.c **** static void get_cell_area(lv_obj_t * obj, uint16_t row, uint16_t col, lv_area_t * area);
  45:lvgl/src/widgets/lv_table.c **** static void scroll_to_selected_cell(lv_obj_t * obj);
  46:lvgl/src/widgets/lv_table.c **** 
  47:lvgl/src/widgets/lv_table.c **** static inline bool is_cell_empty(void * cell)
  48:lvgl/src/widgets/lv_table.c **** {
  49:lvgl/src/widgets/lv_table.c ****     return cell == NULL;
  50:lvgl/src/widgets/lv_table.c **** }
  51:lvgl/src/widgets/lv_table.c **** 
  52:lvgl/src/widgets/lv_table.c **** /**********************
  53:lvgl/src/widgets/lv_table.c ****  *  STATIC VARIABLES
  54:lvgl/src/widgets/lv_table.c ****  **********************/
  55:lvgl/src/widgets/lv_table.c **** const lv_obj_class_t lv_table_class  = {
  56:lvgl/src/widgets/lv_table.c ****     .constructor_cb = lv_table_constructor,
  57:lvgl/src/widgets/lv_table.c ****     .destructor_cb = lv_table_destructor,
  58:lvgl/src/widgets/lv_table.c ****     .event_cb = lv_table_event,
  59:lvgl/src/widgets/lv_table.c ****     .width_def = LV_SIZE_CONTENT,
  60:lvgl/src/widgets/lv_table.c ****     .height_def = LV_SIZE_CONTENT,
  61:lvgl/src/widgets/lv_table.c ****     .base_class = &lv_obj_class,
  62:lvgl/src/widgets/lv_table.c ****     .editable = LV_OBJ_CLASS_EDITABLE_TRUE,
  63:lvgl/src/widgets/lv_table.c ****     .group_def = LV_OBJ_CLASS_GROUP_DEF_TRUE,
  64:lvgl/src/widgets/lv_table.c ****     .instance_size = sizeof(lv_table_t),
  65:lvgl/src/widgets/lv_table.c **** };
  66:lvgl/src/widgets/lv_table.c **** /**********************
  67:lvgl/src/widgets/lv_table.c ****  *      MACROS
  68:lvgl/src/widgets/lv_table.c ****  **********************/
  69:lvgl/src/widgets/lv_table.c **** 
  70:lvgl/src/widgets/lv_table.c **** /**********************
  71:lvgl/src/widgets/lv_table.c ****  *   GLOBAL FUNCTIONS
  72:lvgl/src/widgets/lv_table.c ****  **********************/
  73:lvgl/src/widgets/lv_table.c **** 
  74:lvgl/src/widgets/lv_table.c **** lv_obj_t * lv_table_create(lv_obj_t * parent)
  75:lvgl/src/widgets/lv_table.c **** {
  76:lvgl/src/widgets/lv_table.c ****     LV_LOG_INFO("begin");
  77:lvgl/src/widgets/lv_table.c ****     lv_obj_t * obj = lv_obj_class_create_obj(MY_CLASS, parent);
  78:lvgl/src/widgets/lv_table.c ****     lv_obj_class_init_obj(obj);
  79:lvgl/src/widgets/lv_table.c ****     return obj;
  80:lvgl/src/widgets/lv_table.c **** }
  81:lvgl/src/widgets/lv_table.c **** 
  82:lvgl/src/widgets/lv_table.c **** /*=====================
  83:lvgl/src/widgets/lv_table.c ****  * Setter functions
  84:lvgl/src/widgets/lv_table.c ****  *====================*/
  85:lvgl/src/widgets/lv_table.c **** 
  86:lvgl/src/widgets/lv_table.c **** void lv_table_set_cell_value(lv_obj_t * obj, uint16_t row, uint16_t col, const char * txt)
  87:lvgl/src/widgets/lv_table.c **** {
ARM GAS  /var/folders/21/t9g5rlb91ys800n5npymflf80000gn/T//ccNiYEm1.s 			page 3


  88:lvgl/src/widgets/lv_table.c ****     LV_ASSERT_OBJ(obj, MY_CLASS);
  89:lvgl/src/widgets/lv_table.c ****     LV_ASSERT_NULL(txt);
  90:lvgl/src/widgets/lv_table.c **** 
  91:lvgl/src/widgets/lv_table.c ****     lv_table_t * table = (lv_table_t *)obj;
  92:lvgl/src/widgets/lv_table.c **** 
  93:lvgl/src/widgets/lv_table.c ****     /*Auto expand*/
  94:lvgl/src/widgets/lv_table.c ****     if(col >= table->col_cnt) lv_table_set_col_cnt(obj, col + 1);
  95:lvgl/src/widgets/lv_table.c ****     if(row >= table->row_cnt) lv_table_set_row_cnt(obj, row + 1);
  96:lvgl/src/widgets/lv_table.c **** 
  97:lvgl/src/widgets/lv_table.c ****     uint32_t cell = row * table->col_cnt + col;
  98:lvgl/src/widgets/lv_table.c ****     lv_table_cell_ctrl_t ctrl = 0;
  99:lvgl/src/widgets/lv_table.c **** 
 100:lvgl/src/widgets/lv_table.c ****     /*Save the control byte*/
 101:lvgl/src/widgets/lv_table.c ****     if(table->cell_data[cell]) ctrl = table->cell_data[cell]->ctrl;
 102:lvgl/src/widgets/lv_table.c **** 
 103:lvgl/src/widgets/lv_table.c **** #if LV_USE_USER_DATA
 104:lvgl/src/widgets/lv_table.c ****     void * user_data = NULL;
 105:lvgl/src/widgets/lv_table.c **** 
 106:lvgl/src/widgets/lv_table.c ****     /*Save the user data*/
 107:lvgl/src/widgets/lv_table.c ****     if(table->cell_data[cell]) user_data = table->cell_data[cell]->user_data;
 108:lvgl/src/widgets/lv_table.c **** #endif
 109:lvgl/src/widgets/lv_table.c **** 
 110:lvgl/src/widgets/lv_table.c ****     size_t to_allocate = get_cell_txt_len(txt);
 111:lvgl/src/widgets/lv_table.c **** 
 112:lvgl/src/widgets/lv_table.c ****     table->cell_data[cell] = lv_mem_realloc(table->cell_data[cell], to_allocate);
 113:lvgl/src/widgets/lv_table.c ****     LV_ASSERT_MALLOC(table->cell_data[cell]);
 114:lvgl/src/widgets/lv_table.c ****     if(table->cell_data[cell] == NULL) return;
 115:lvgl/src/widgets/lv_table.c **** 
 116:lvgl/src/widgets/lv_table.c ****     copy_cell_txt(table->cell_data[cell], txt);
 117:lvgl/src/widgets/lv_table.c **** 
 118:lvgl/src/widgets/lv_table.c ****     table->cell_data[cell]->ctrl = ctrl;
 119:lvgl/src/widgets/lv_table.c **** #if LV_USE_USER_DATA
 120:lvgl/src/widgets/lv_table.c ****     table->cell_data[cell]->user_data = user_data;
 121:lvgl/src/widgets/lv_table.c **** #endif
 122:lvgl/src/widgets/lv_table.c ****     refr_cell_size(obj, row, col);
 123:lvgl/src/widgets/lv_table.c **** }
 124:lvgl/src/widgets/lv_table.c **** 
 125:lvgl/src/widgets/lv_table.c **** void lv_table_set_cell_value_fmt(lv_obj_t * obj, uint16_t row, uint16_t col, const char * fmt, ...)
 126:lvgl/src/widgets/lv_table.c **** {
 127:lvgl/src/widgets/lv_table.c ****     LV_ASSERT_OBJ(obj, MY_CLASS);
 128:lvgl/src/widgets/lv_table.c ****     LV_ASSERT_NULL(fmt);
 129:lvgl/src/widgets/lv_table.c **** 
 130:lvgl/src/widgets/lv_table.c ****     lv_table_t * table = (lv_table_t *)obj;
 131:lvgl/src/widgets/lv_table.c ****     if(col >= table->col_cnt) {
 132:lvgl/src/widgets/lv_table.c ****         lv_table_set_col_cnt(obj, col + 1);
 133:lvgl/src/widgets/lv_table.c ****     }
 134:lvgl/src/widgets/lv_table.c **** 
 135:lvgl/src/widgets/lv_table.c ****     /*Auto expand*/
 136:lvgl/src/widgets/lv_table.c ****     if(row >= table->row_cnt) {
 137:lvgl/src/widgets/lv_table.c ****         lv_table_set_row_cnt(obj, row + 1);
 138:lvgl/src/widgets/lv_table.c ****     }
 139:lvgl/src/widgets/lv_table.c **** 
 140:lvgl/src/widgets/lv_table.c ****     uint32_t cell = row * table->col_cnt + col;
 141:lvgl/src/widgets/lv_table.c ****     lv_table_cell_ctrl_t ctrl = 0;
 142:lvgl/src/widgets/lv_table.c **** 
 143:lvgl/src/widgets/lv_table.c ****     /*Save the control byte*/
 144:lvgl/src/widgets/lv_table.c ****     if(table->cell_data[cell]) ctrl = table->cell_data[cell]->ctrl;
ARM GAS  /var/folders/21/t9g5rlb91ys800n5npymflf80000gn/T//ccNiYEm1.s 			page 4


 145:lvgl/src/widgets/lv_table.c **** 
 146:lvgl/src/widgets/lv_table.c **** #if LV_USE_USER_DATA
 147:lvgl/src/widgets/lv_table.c ****     void * user_data = NULL;
 148:lvgl/src/widgets/lv_table.c **** 
 149:lvgl/src/widgets/lv_table.c ****     /*Save the user_data*/
 150:lvgl/src/widgets/lv_table.c ****     if(table->cell_data[cell]) user_data = table->cell_data[cell]->user_data;
 151:lvgl/src/widgets/lv_table.c **** #endif
 152:lvgl/src/widgets/lv_table.c **** 
 153:lvgl/src/widgets/lv_table.c ****     va_list ap, ap2;
 154:lvgl/src/widgets/lv_table.c ****     va_start(ap, fmt);
 155:lvgl/src/widgets/lv_table.c ****     va_copy(ap2, ap);
 156:lvgl/src/widgets/lv_table.c **** 
 157:lvgl/src/widgets/lv_table.c ****     /*Allocate space for the new text by using trick from C99 standard section 7.19.6.12*/
 158:lvgl/src/widgets/lv_table.c ****     uint32_t len = lv_vsnprintf(NULL, 0, fmt, ap);
 159:lvgl/src/widgets/lv_table.c ****     va_end(ap);
 160:lvgl/src/widgets/lv_table.c **** 
 161:lvgl/src/widgets/lv_table.c **** #if LV_USE_ARABIC_PERSIAN_CHARS
 162:lvgl/src/widgets/lv_table.c ****     /*Put together the text according to the format string*/
 163:lvgl/src/widgets/lv_table.c ****     char * raw_txt = lv_mem_buf_get(len + 1);
 164:lvgl/src/widgets/lv_table.c ****     LV_ASSERT_MALLOC(raw_txt);
 165:lvgl/src/widgets/lv_table.c ****     if(raw_txt == NULL) {
 166:lvgl/src/widgets/lv_table.c ****         va_end(ap2);
 167:lvgl/src/widgets/lv_table.c ****         return;
 168:lvgl/src/widgets/lv_table.c ****     }
 169:lvgl/src/widgets/lv_table.c **** 
 170:lvgl/src/widgets/lv_table.c ****     lv_vsnprintf(raw_txt, len + 1, fmt, ap2);
 171:lvgl/src/widgets/lv_table.c **** 
 172:lvgl/src/widgets/lv_table.c ****     /*Get the size of the Arabic text and process it*/
 173:lvgl/src/widgets/lv_table.c ****     size_t len_ap = _lv_txt_ap_calc_bytes_cnt(raw_txt);
 174:lvgl/src/widgets/lv_table.c ****     table->cell_data[cell] = lv_mem_realloc(table->cell_data[cell], sizeof(lv_table_cell_t) + len_a
 175:lvgl/src/widgets/lv_table.c ****     LV_ASSERT_MALLOC(table->cell_data[cell]);
 176:lvgl/src/widgets/lv_table.c ****     if(table->cell_data[cell] == NULL) {
 177:lvgl/src/widgets/lv_table.c ****         va_end(ap2);
 178:lvgl/src/widgets/lv_table.c ****         return;
 179:lvgl/src/widgets/lv_table.c ****     }
 180:lvgl/src/widgets/lv_table.c ****     _lv_txt_ap_proc(raw_txt, table->cell_data[cell]->txt);
 181:lvgl/src/widgets/lv_table.c **** 
 182:lvgl/src/widgets/lv_table.c ****     lv_mem_buf_release(raw_txt);
 183:lvgl/src/widgets/lv_table.c **** #else
 184:lvgl/src/widgets/lv_table.c ****     table->cell_data[cell] = lv_mem_realloc(table->cell_data[cell],
 185:lvgl/src/widgets/lv_table.c ****                                             sizeof(lv_table_cell_t) + len + 1); /*+1: trailing '\0;
 186:lvgl/src/widgets/lv_table.c ****     LV_ASSERT_MALLOC(table->cell_data[cell]);
 187:lvgl/src/widgets/lv_table.c ****     if(table->cell_data[cell] == NULL) {
 188:lvgl/src/widgets/lv_table.c ****         va_end(ap2);
 189:lvgl/src/widgets/lv_table.c ****         return;
 190:lvgl/src/widgets/lv_table.c ****     }
 191:lvgl/src/widgets/lv_table.c **** 
 192:lvgl/src/widgets/lv_table.c ****     table->cell_data[cell]->txt[len] = 0; /*Ensure NULL termination*/
 193:lvgl/src/widgets/lv_table.c **** 
 194:lvgl/src/widgets/lv_table.c ****     lv_vsnprintf(table->cell_data[cell]->txt, len + 1, fmt, ap2);
 195:lvgl/src/widgets/lv_table.c **** #endif
 196:lvgl/src/widgets/lv_table.c **** 
 197:lvgl/src/widgets/lv_table.c ****     va_end(ap2);
 198:lvgl/src/widgets/lv_table.c **** 
 199:lvgl/src/widgets/lv_table.c ****     table->cell_data[cell]->ctrl = ctrl;
 200:lvgl/src/widgets/lv_table.c **** #if LV_USE_USER_DATA
 201:lvgl/src/widgets/lv_table.c ****     table->cell_data[cell]->user_data = user_data;
ARM GAS  /var/folders/21/t9g5rlb91ys800n5npymflf80000gn/T//ccNiYEm1.s 			page 5


 202:lvgl/src/widgets/lv_table.c **** #endif
 203:lvgl/src/widgets/lv_table.c ****     refr_cell_size(obj, row, col);
 204:lvgl/src/widgets/lv_table.c **** }
 205:lvgl/src/widgets/lv_table.c **** 
 206:lvgl/src/widgets/lv_table.c **** void lv_table_set_row_cnt(lv_obj_t * obj, uint16_t row_cnt)
 207:lvgl/src/widgets/lv_table.c **** {
 208:lvgl/src/widgets/lv_table.c ****     LV_ASSERT_OBJ(obj, MY_CLASS);
 209:lvgl/src/widgets/lv_table.c **** 
 210:lvgl/src/widgets/lv_table.c ****     lv_table_t * table = (lv_table_t *)obj;
 211:lvgl/src/widgets/lv_table.c **** 
 212:lvgl/src/widgets/lv_table.c ****     if(table->row_cnt == row_cnt) return;
 213:lvgl/src/widgets/lv_table.c **** 
 214:lvgl/src/widgets/lv_table.c ****     uint16_t old_row_cnt = table->row_cnt;
 215:lvgl/src/widgets/lv_table.c ****     table->row_cnt         = row_cnt;
 216:lvgl/src/widgets/lv_table.c **** 
 217:lvgl/src/widgets/lv_table.c ****     table->row_h = lv_mem_realloc(table->row_h, table->row_cnt * sizeof(table->row_h[0]));
 218:lvgl/src/widgets/lv_table.c ****     LV_ASSERT_MALLOC(table->row_h);
 219:lvgl/src/widgets/lv_table.c ****     if(table->row_h == NULL) return;
 220:lvgl/src/widgets/lv_table.c **** 
 221:lvgl/src/widgets/lv_table.c ****     /*Free the unused cells*/
 222:lvgl/src/widgets/lv_table.c ****     if(old_row_cnt > row_cnt) {
 223:lvgl/src/widgets/lv_table.c ****         uint16_t old_cell_cnt = old_row_cnt * table->col_cnt;
 224:lvgl/src/widgets/lv_table.c ****         uint32_t new_cell_cnt = table->col_cnt * table->row_cnt;
 225:lvgl/src/widgets/lv_table.c ****         uint32_t i;
 226:lvgl/src/widgets/lv_table.c ****         for(i = new_cell_cnt; i < old_cell_cnt; i++) {
 227:lvgl/src/widgets/lv_table.c **** #if LV_USE_USER_DATA
 228:lvgl/src/widgets/lv_table.c ****             if(table->cell_data[i]->user_data) {
 229:lvgl/src/widgets/lv_table.c ****                 lv_mem_free(table->cell_data[i]->user_data);
 230:lvgl/src/widgets/lv_table.c ****                 table->cell_data[i]->user_data = NULL;
 231:lvgl/src/widgets/lv_table.c ****             }
 232:lvgl/src/widgets/lv_table.c **** #endif
 233:lvgl/src/widgets/lv_table.c ****             lv_mem_free(table->cell_data[i]);
 234:lvgl/src/widgets/lv_table.c ****         }
 235:lvgl/src/widgets/lv_table.c ****     }
 236:lvgl/src/widgets/lv_table.c **** 
 237:lvgl/src/widgets/lv_table.c ****     table->cell_data = lv_mem_realloc(table->cell_data, table->row_cnt * table->col_cnt * sizeof(lv
 238:lvgl/src/widgets/lv_table.c ****     LV_ASSERT_MALLOC(table->cell_data);
 239:lvgl/src/widgets/lv_table.c ****     if(table->cell_data == NULL) return;
 240:lvgl/src/widgets/lv_table.c **** 
 241:lvgl/src/widgets/lv_table.c ****     /*Initialize the new fields*/
 242:lvgl/src/widgets/lv_table.c ****     if(old_row_cnt < row_cnt) {
 243:lvgl/src/widgets/lv_table.c ****         uint32_t old_cell_cnt = old_row_cnt * table->col_cnt;
 244:lvgl/src/widgets/lv_table.c ****         uint32_t new_cell_cnt = table->col_cnt * table->row_cnt;
 245:lvgl/src/widgets/lv_table.c ****         lv_memset_00(&table->cell_data[old_cell_cnt], (new_cell_cnt - old_cell_cnt) * sizeof(table-
 246:lvgl/src/widgets/lv_table.c ****     }
 247:lvgl/src/widgets/lv_table.c **** 
 248:lvgl/src/widgets/lv_table.c ****     refr_size_form_row(obj, 0);
 249:lvgl/src/widgets/lv_table.c **** }
 250:lvgl/src/widgets/lv_table.c **** 
 251:lvgl/src/widgets/lv_table.c **** void lv_table_set_col_cnt(lv_obj_t * obj, uint16_t col_cnt)
 252:lvgl/src/widgets/lv_table.c **** {
 253:lvgl/src/widgets/lv_table.c ****     LV_ASSERT_OBJ(obj, MY_CLASS);
 254:lvgl/src/widgets/lv_table.c **** 
 255:lvgl/src/widgets/lv_table.c ****     lv_table_t * table = (lv_table_t *)obj;
 256:lvgl/src/widgets/lv_table.c **** 
 257:lvgl/src/widgets/lv_table.c ****     if(table->col_cnt == col_cnt) return;
 258:lvgl/src/widgets/lv_table.c **** 
ARM GAS  /var/folders/21/t9g5rlb91ys800n5npymflf80000gn/T//ccNiYEm1.s 			page 6


 259:lvgl/src/widgets/lv_table.c ****     uint16_t old_col_cnt = table->col_cnt;
 260:lvgl/src/widgets/lv_table.c ****     table->col_cnt         = col_cnt;
 261:lvgl/src/widgets/lv_table.c **** 
 262:lvgl/src/widgets/lv_table.c ****     lv_table_cell_t ** new_cell_data = lv_mem_alloc(table->row_cnt * table->col_cnt * sizeof(lv_tab
 263:lvgl/src/widgets/lv_table.c ****     LV_ASSERT_MALLOC(new_cell_data);
 264:lvgl/src/widgets/lv_table.c ****     if(new_cell_data == NULL) return;
 265:lvgl/src/widgets/lv_table.c ****     uint32_t new_cell_cnt = table->col_cnt * table->row_cnt;
 266:lvgl/src/widgets/lv_table.c **** 
 267:lvgl/src/widgets/lv_table.c ****     lv_memset_00(new_cell_data, new_cell_cnt * sizeof(table->cell_data[0]));
 268:lvgl/src/widgets/lv_table.c **** 
 269:lvgl/src/widgets/lv_table.c ****     /*The new column(s) messes up the mapping of `cell_data`*/
 270:lvgl/src/widgets/lv_table.c ****     uint32_t old_col_start;
 271:lvgl/src/widgets/lv_table.c ****     uint32_t new_col_start;
 272:lvgl/src/widgets/lv_table.c ****     uint32_t min_col_cnt = LV_MIN(old_col_cnt, col_cnt);
 273:lvgl/src/widgets/lv_table.c ****     uint32_t row;
 274:lvgl/src/widgets/lv_table.c ****     for(row = 0; row < table->row_cnt; row++) {
 275:lvgl/src/widgets/lv_table.c ****         old_col_start = row * old_col_cnt;
 276:lvgl/src/widgets/lv_table.c ****         new_col_start = row * col_cnt;
 277:lvgl/src/widgets/lv_table.c **** 
 278:lvgl/src/widgets/lv_table.c ****         lv_memcpy_small(&new_cell_data[new_col_start], &table->cell_data[old_col_start],
 279:lvgl/src/widgets/lv_table.c ****                         sizeof(new_cell_data[0]) * min_col_cnt);
 280:lvgl/src/widgets/lv_table.c **** 
 281:lvgl/src/widgets/lv_table.c ****         /*Free the old cells (only if the table becomes smaller)*/
 282:lvgl/src/widgets/lv_table.c ****         int32_t i;
 283:lvgl/src/widgets/lv_table.c ****         for(i = 0; i < (int32_t)old_col_cnt - col_cnt; i++) {
 284:lvgl/src/widgets/lv_table.c ****             uint32_t idx = old_col_start + min_col_cnt + i;
 285:lvgl/src/widgets/lv_table.c **** #if LV_USE_USER_DATA
 286:lvgl/src/widgets/lv_table.c ****             if(table->cell_data[idx]->user_data) {
 287:lvgl/src/widgets/lv_table.c ****                 lv_mem_free(table->cell_data[idx]->user_data);
 288:lvgl/src/widgets/lv_table.c ****                 table->cell_data[idx]->user_data = NULL;
 289:lvgl/src/widgets/lv_table.c ****             }
 290:lvgl/src/widgets/lv_table.c **** #endif
 291:lvgl/src/widgets/lv_table.c ****             lv_mem_free(table->cell_data[idx]);
 292:lvgl/src/widgets/lv_table.c ****             table->cell_data[idx] = NULL;
 293:lvgl/src/widgets/lv_table.c ****         }
 294:lvgl/src/widgets/lv_table.c ****     }
 295:lvgl/src/widgets/lv_table.c **** 
 296:lvgl/src/widgets/lv_table.c ****     lv_mem_free(table->cell_data);
 297:lvgl/src/widgets/lv_table.c ****     table->cell_data = new_cell_data;
 298:lvgl/src/widgets/lv_table.c **** 
 299:lvgl/src/widgets/lv_table.c ****     /*Initialize the new column widths if any*/
 300:lvgl/src/widgets/lv_table.c ****     table->col_w = lv_mem_realloc(table->col_w, col_cnt * sizeof(table->col_w[0]));
 301:lvgl/src/widgets/lv_table.c ****     LV_ASSERT_MALLOC(table->col_w);
 302:lvgl/src/widgets/lv_table.c ****     if(table->col_w == NULL) return;
 303:lvgl/src/widgets/lv_table.c **** 
 304:lvgl/src/widgets/lv_table.c ****     uint32_t col;
 305:lvgl/src/widgets/lv_table.c ****     for(col = old_col_cnt; col < col_cnt; col++) {
 306:lvgl/src/widgets/lv_table.c ****         table->col_w[col] = LV_DPI_DEF;
 307:lvgl/src/widgets/lv_table.c ****     }
 308:lvgl/src/widgets/lv_table.c **** 
 309:lvgl/src/widgets/lv_table.c ****     refr_size_form_row(obj, 0) ;
 310:lvgl/src/widgets/lv_table.c **** }
 311:lvgl/src/widgets/lv_table.c **** 
 312:lvgl/src/widgets/lv_table.c **** void lv_table_set_col_width(lv_obj_t * obj, uint16_t col_id, lv_coord_t w)
 313:lvgl/src/widgets/lv_table.c **** {
 314:lvgl/src/widgets/lv_table.c ****     LV_ASSERT_OBJ(obj, MY_CLASS);
 315:lvgl/src/widgets/lv_table.c **** 
ARM GAS  /var/folders/21/t9g5rlb91ys800n5npymflf80000gn/T//ccNiYEm1.s 			page 7


 316:lvgl/src/widgets/lv_table.c ****     lv_table_t * table = (lv_table_t *)obj;
 317:lvgl/src/widgets/lv_table.c **** 
 318:lvgl/src/widgets/lv_table.c ****     /*Auto expand*/
 319:lvgl/src/widgets/lv_table.c ****     if(col_id >= table->col_cnt) lv_table_set_col_cnt(obj, col_id + 1);
 320:lvgl/src/widgets/lv_table.c **** 
 321:lvgl/src/widgets/lv_table.c ****     table->col_w[col_id] = w;
 322:lvgl/src/widgets/lv_table.c ****     refr_size_form_row(obj, 0);
 323:lvgl/src/widgets/lv_table.c **** }
 324:lvgl/src/widgets/lv_table.c **** 
 325:lvgl/src/widgets/lv_table.c **** void lv_table_add_cell_ctrl(lv_obj_t * obj, uint16_t row, uint16_t col, lv_table_cell_ctrl_t ctrl)
 326:lvgl/src/widgets/lv_table.c **** {
 327:lvgl/src/widgets/lv_table.c ****     LV_ASSERT_OBJ(obj, MY_CLASS);
 328:lvgl/src/widgets/lv_table.c **** 
 329:lvgl/src/widgets/lv_table.c ****     lv_table_t * table = (lv_table_t *)obj;
 330:lvgl/src/widgets/lv_table.c **** 
 331:lvgl/src/widgets/lv_table.c ****     /*Auto expand*/
 332:lvgl/src/widgets/lv_table.c ****     if(col >= table->col_cnt) lv_table_set_col_cnt(obj, col + 1);
 333:lvgl/src/widgets/lv_table.c ****     if(row >= table->row_cnt) lv_table_set_row_cnt(obj, row + 1);
 334:lvgl/src/widgets/lv_table.c **** 
 335:lvgl/src/widgets/lv_table.c ****     uint32_t cell = row * table->col_cnt + col;
 336:lvgl/src/widgets/lv_table.c **** 
 337:lvgl/src/widgets/lv_table.c ****     if(is_cell_empty(table->cell_data[cell])) {
 338:lvgl/src/widgets/lv_table.c ****         table->cell_data[cell]    = lv_mem_alloc(sizeof(lv_table_cell_t) + 1); /*+1: trailing '\0 *
 339:lvgl/src/widgets/lv_table.c ****         LV_ASSERT_MALLOC(table->cell_data[cell]);
 340:lvgl/src/widgets/lv_table.c ****         if(table->cell_data[cell] == NULL) return;
 341:lvgl/src/widgets/lv_table.c **** 
 342:lvgl/src/widgets/lv_table.c ****         table->cell_data[cell]->ctrl = 0;
 343:lvgl/src/widgets/lv_table.c **** #if LV_USE_USER_DATA
 344:lvgl/src/widgets/lv_table.c ****         table->cell_data[cell]->user_data = NULL;
 345:lvgl/src/widgets/lv_table.c **** #endif
 346:lvgl/src/widgets/lv_table.c ****         table->cell_data[cell]->txt[0] = '\0';
 347:lvgl/src/widgets/lv_table.c ****     }
 348:lvgl/src/widgets/lv_table.c **** 
 349:lvgl/src/widgets/lv_table.c ****     table->cell_data[cell]->ctrl |= ctrl;
 350:lvgl/src/widgets/lv_table.c **** }
 351:lvgl/src/widgets/lv_table.c **** 
 352:lvgl/src/widgets/lv_table.c **** void lv_table_clear_cell_ctrl(lv_obj_t * obj, uint16_t row, uint16_t col, lv_table_cell_ctrl_t ctrl
 353:lvgl/src/widgets/lv_table.c **** {
 354:lvgl/src/widgets/lv_table.c ****     LV_ASSERT_OBJ(obj, MY_CLASS);
 355:lvgl/src/widgets/lv_table.c **** 
 356:lvgl/src/widgets/lv_table.c ****     lv_table_t * table = (lv_table_t *)obj;
 357:lvgl/src/widgets/lv_table.c **** 
 358:lvgl/src/widgets/lv_table.c ****     /*Auto expand*/
 359:lvgl/src/widgets/lv_table.c ****     if(col >= table->col_cnt) lv_table_set_col_cnt(obj, col + 1);
 360:lvgl/src/widgets/lv_table.c ****     if(row >= table->row_cnt) lv_table_set_row_cnt(obj, row + 1);
 361:lvgl/src/widgets/lv_table.c **** 
 362:lvgl/src/widgets/lv_table.c ****     uint32_t cell = row * table->col_cnt + col;
 363:lvgl/src/widgets/lv_table.c **** 
 364:lvgl/src/widgets/lv_table.c ****     if(is_cell_empty(table->cell_data[cell])) {
 365:lvgl/src/widgets/lv_table.c ****         table->cell_data[cell]    = lv_mem_alloc(sizeof(lv_table_cell_t) + 1); /*+1: trailing '\0 *
 366:lvgl/src/widgets/lv_table.c ****         LV_ASSERT_MALLOC(table->cell_data[cell]);
 367:lvgl/src/widgets/lv_table.c ****         if(table->cell_data[cell] == NULL) return;
 368:lvgl/src/widgets/lv_table.c **** 
 369:lvgl/src/widgets/lv_table.c ****         table->cell_data[cell]->ctrl = 0;
 370:lvgl/src/widgets/lv_table.c **** #if LV_USE_USER_DATA
 371:lvgl/src/widgets/lv_table.c ****         table->cell_data[cell]->user_data = NULL;
 372:lvgl/src/widgets/lv_table.c **** #endif
ARM GAS  /var/folders/21/t9g5rlb91ys800n5npymflf80000gn/T//ccNiYEm1.s 			page 8


 373:lvgl/src/widgets/lv_table.c ****         table->cell_data[cell]->txt[0] = '\0';
 374:lvgl/src/widgets/lv_table.c ****     }
 375:lvgl/src/widgets/lv_table.c **** 
 376:lvgl/src/widgets/lv_table.c ****     table->cell_data[cell]->ctrl &= (~ctrl);
 377:lvgl/src/widgets/lv_table.c **** }
 378:lvgl/src/widgets/lv_table.c **** 
 379:lvgl/src/widgets/lv_table.c **** #if LV_USE_USER_DATA
 380:lvgl/src/widgets/lv_table.c **** void lv_table_set_cell_user_data(lv_obj_t * obj, uint16_t row, uint16_t col, void * user_data)
 381:lvgl/src/widgets/lv_table.c **** {
 382:lvgl/src/widgets/lv_table.c ****     LV_ASSERT_OBJ(obj, MY_CLASS);
 383:lvgl/src/widgets/lv_table.c **** 
 384:lvgl/src/widgets/lv_table.c ****     lv_table_t * table = (lv_table_t *)obj;
 385:lvgl/src/widgets/lv_table.c **** 
 386:lvgl/src/widgets/lv_table.c ****     /*Auto expand*/
 387:lvgl/src/widgets/lv_table.c ****     if(col >= table->col_cnt) lv_table_set_col_cnt(obj, col + 1);
 388:lvgl/src/widgets/lv_table.c ****     if(row >= table->row_cnt) lv_table_set_row_cnt(obj, row + 1);
 389:lvgl/src/widgets/lv_table.c **** 
 390:lvgl/src/widgets/lv_table.c ****     uint32_t cell = row * table->col_cnt + col;
 391:lvgl/src/widgets/lv_table.c **** 
 392:lvgl/src/widgets/lv_table.c ****     if(is_cell_empty(table->cell_data[cell])) {
 393:lvgl/src/widgets/lv_table.c ****         table->cell_data[cell]    = lv_mem_alloc(sizeof(lv_table_cell_t) + 1); /*+1: trailing '\0 *
 394:lvgl/src/widgets/lv_table.c ****         LV_ASSERT_MALLOC(table->cell_data[cell]);
 395:lvgl/src/widgets/lv_table.c ****         if(table->cell_data[cell] == NULL) return;
 396:lvgl/src/widgets/lv_table.c **** 
 397:lvgl/src/widgets/lv_table.c ****         table->cell_data[cell]->ctrl = 0;
 398:lvgl/src/widgets/lv_table.c ****         table->cell_data[cell]->user_data = NULL;
 399:lvgl/src/widgets/lv_table.c ****         table->cell_data[cell]->txt[0] = '\0';
 400:lvgl/src/widgets/lv_table.c ****     }
 401:lvgl/src/widgets/lv_table.c **** 
 402:lvgl/src/widgets/lv_table.c ****     if(table->cell_data[cell]->user_data) {
 403:lvgl/src/widgets/lv_table.c ****         lv_mem_free(table->cell_data[cell]->user_data);
 404:lvgl/src/widgets/lv_table.c ****     }
 405:lvgl/src/widgets/lv_table.c **** 
 406:lvgl/src/widgets/lv_table.c ****     table->cell_data[cell]->user_data = user_data;
 407:lvgl/src/widgets/lv_table.c **** }
 408:lvgl/src/widgets/lv_table.c **** #endif
 409:lvgl/src/widgets/lv_table.c **** 
 410:lvgl/src/widgets/lv_table.c **** /*=====================
 411:lvgl/src/widgets/lv_table.c ****  * Getter functions
 412:lvgl/src/widgets/lv_table.c ****  *====================*/
 413:lvgl/src/widgets/lv_table.c **** 
 414:lvgl/src/widgets/lv_table.c **** const char * lv_table_get_cell_value(lv_obj_t * obj, uint16_t row, uint16_t col)
 415:lvgl/src/widgets/lv_table.c **** {
 416:lvgl/src/widgets/lv_table.c ****     LV_ASSERT_OBJ(obj, MY_CLASS);
 417:lvgl/src/widgets/lv_table.c **** 
 418:lvgl/src/widgets/lv_table.c ****     lv_table_t * table = (lv_table_t *)obj;
 419:lvgl/src/widgets/lv_table.c ****     if(row >= table->row_cnt || col >= table->col_cnt) {
 420:lvgl/src/widgets/lv_table.c ****         LV_LOG_WARN("invalid row or column");
 421:lvgl/src/widgets/lv_table.c ****         return "";
 422:lvgl/src/widgets/lv_table.c ****     }
 423:lvgl/src/widgets/lv_table.c ****     uint32_t cell = row * table->col_cnt + col;
 424:lvgl/src/widgets/lv_table.c **** 
 425:lvgl/src/widgets/lv_table.c ****     if(is_cell_empty(table->cell_data[cell])) return "";
 426:lvgl/src/widgets/lv_table.c **** 
 427:lvgl/src/widgets/lv_table.c ****     return table->cell_data[cell]->txt;
 428:lvgl/src/widgets/lv_table.c **** }
 429:lvgl/src/widgets/lv_table.c **** 
ARM GAS  /var/folders/21/t9g5rlb91ys800n5npymflf80000gn/T//ccNiYEm1.s 			page 9


 430:lvgl/src/widgets/lv_table.c **** uint16_t lv_table_get_row_cnt(lv_obj_t * obj)
 431:lvgl/src/widgets/lv_table.c **** {
 432:lvgl/src/widgets/lv_table.c ****     LV_ASSERT_OBJ(obj, MY_CLASS);
 433:lvgl/src/widgets/lv_table.c **** 
 434:lvgl/src/widgets/lv_table.c ****     lv_table_t * table = (lv_table_t *)obj;
 435:lvgl/src/widgets/lv_table.c ****     return table->row_cnt;
 436:lvgl/src/widgets/lv_table.c **** }
 437:lvgl/src/widgets/lv_table.c **** 
 438:lvgl/src/widgets/lv_table.c **** uint16_t lv_table_get_col_cnt(lv_obj_t * obj)
 439:lvgl/src/widgets/lv_table.c **** {
 440:lvgl/src/widgets/lv_table.c ****     LV_ASSERT_OBJ(obj, MY_CLASS);
 441:lvgl/src/widgets/lv_table.c **** 
 442:lvgl/src/widgets/lv_table.c ****     lv_table_t * table = (lv_table_t *)obj;
 443:lvgl/src/widgets/lv_table.c ****     return table->col_cnt;
 444:lvgl/src/widgets/lv_table.c **** }
 445:lvgl/src/widgets/lv_table.c **** 
 446:lvgl/src/widgets/lv_table.c **** lv_coord_t lv_table_get_col_width(lv_obj_t * obj, uint16_t col)
 447:lvgl/src/widgets/lv_table.c **** {
 448:lvgl/src/widgets/lv_table.c ****     LV_ASSERT_OBJ(obj, MY_CLASS);
 449:lvgl/src/widgets/lv_table.c **** 
 450:lvgl/src/widgets/lv_table.c ****     lv_table_t * table = (lv_table_t *)obj;
 451:lvgl/src/widgets/lv_table.c **** 
 452:lvgl/src/widgets/lv_table.c ****     if(col >= table->col_cnt) {
 453:lvgl/src/widgets/lv_table.c ****         LV_LOG_WARN("lv_table_set_col_width: too big 'col_id'. Must be < LV_TABLE_COL_MAX.");
 454:lvgl/src/widgets/lv_table.c ****         return 0;
 455:lvgl/src/widgets/lv_table.c ****     }
 456:lvgl/src/widgets/lv_table.c **** 
 457:lvgl/src/widgets/lv_table.c ****     return table->col_w[col];
 458:lvgl/src/widgets/lv_table.c **** }
 459:lvgl/src/widgets/lv_table.c **** 
 460:lvgl/src/widgets/lv_table.c **** bool lv_table_has_cell_ctrl(lv_obj_t * obj, uint16_t row, uint16_t col, lv_table_cell_ctrl_t ctrl)
 461:lvgl/src/widgets/lv_table.c **** {
 462:lvgl/src/widgets/lv_table.c ****     LV_ASSERT_OBJ(obj, MY_CLASS);
 463:lvgl/src/widgets/lv_table.c **** 
 464:lvgl/src/widgets/lv_table.c ****     lv_table_t * table = (lv_table_t *)obj;
 465:lvgl/src/widgets/lv_table.c ****     if(row >= table->row_cnt || col >= table->col_cnt) {
 466:lvgl/src/widgets/lv_table.c ****         LV_LOG_WARN("lv_table_get_cell_crop: invalid row or column");
 467:lvgl/src/widgets/lv_table.c ****         return false;
 468:lvgl/src/widgets/lv_table.c ****     }
 469:lvgl/src/widgets/lv_table.c ****     uint32_t cell = row * table->col_cnt + col;
 470:lvgl/src/widgets/lv_table.c **** 
 471:lvgl/src/widgets/lv_table.c ****     if(is_cell_empty(table->cell_data[cell])) return false;
 472:lvgl/src/widgets/lv_table.c ****     else return (table->cell_data[cell]->ctrl & ctrl) == ctrl;
 473:lvgl/src/widgets/lv_table.c **** }
 474:lvgl/src/widgets/lv_table.c **** 
 475:lvgl/src/widgets/lv_table.c **** void lv_table_get_selected_cell(lv_obj_t * obj, uint16_t * row, uint16_t * col)
 476:lvgl/src/widgets/lv_table.c **** {
 477:lvgl/src/widgets/lv_table.c ****     lv_table_t * table = (lv_table_t *)obj;
 478:lvgl/src/widgets/lv_table.c ****     *row = table->row_act;
 479:lvgl/src/widgets/lv_table.c ****     *col = table->col_act;
 480:lvgl/src/widgets/lv_table.c **** }
 481:lvgl/src/widgets/lv_table.c **** 
 482:lvgl/src/widgets/lv_table.c **** #if LV_USE_USER_DATA
 483:lvgl/src/widgets/lv_table.c **** void * lv_table_get_cell_user_data(lv_obj_t * obj, uint16_t row, uint16_t col)
 484:lvgl/src/widgets/lv_table.c **** {
 485:lvgl/src/widgets/lv_table.c ****     LV_ASSERT_OBJ(obj, MY_CLASS);
 486:lvgl/src/widgets/lv_table.c **** 
ARM GAS  /var/folders/21/t9g5rlb91ys800n5npymflf80000gn/T//ccNiYEm1.s 			page 10


 487:lvgl/src/widgets/lv_table.c ****     lv_table_t * table = (lv_table_t *)obj;
 488:lvgl/src/widgets/lv_table.c ****     if(row >= table->row_cnt || col >= table->col_cnt) {
 489:lvgl/src/widgets/lv_table.c ****         LV_LOG_WARN("invalid row or column");
 490:lvgl/src/widgets/lv_table.c ****         return NULL;
 491:lvgl/src/widgets/lv_table.c ****     }
 492:lvgl/src/widgets/lv_table.c ****     uint32_t cell = row * table->col_cnt + col;
 493:lvgl/src/widgets/lv_table.c **** 
 494:lvgl/src/widgets/lv_table.c ****     if(is_cell_empty(table->cell_data[cell])) return NULL;
 495:lvgl/src/widgets/lv_table.c **** 
 496:lvgl/src/widgets/lv_table.c ****     return table->cell_data[cell]->user_data;
 497:lvgl/src/widgets/lv_table.c **** }
 498:lvgl/src/widgets/lv_table.c **** #endif
 499:lvgl/src/widgets/lv_table.c **** 
 500:lvgl/src/widgets/lv_table.c **** /**********************
 501:lvgl/src/widgets/lv_table.c ****  *   STATIC FUNCTIONS
 502:lvgl/src/widgets/lv_table.c ****  **********************/
 503:lvgl/src/widgets/lv_table.c **** 
 504:lvgl/src/widgets/lv_table.c **** static void lv_table_constructor(const lv_obj_class_t * class_p, lv_obj_t * obj)
 505:lvgl/src/widgets/lv_table.c **** {
 506:lvgl/src/widgets/lv_table.c ****     LV_UNUSED(class_p);
 507:lvgl/src/widgets/lv_table.c ****     LV_TRACE_OBJ_CREATE("begin");
 508:lvgl/src/widgets/lv_table.c **** 
 509:lvgl/src/widgets/lv_table.c ****     lv_table_t * table = (lv_table_t *)obj;
 510:lvgl/src/widgets/lv_table.c **** 
 511:lvgl/src/widgets/lv_table.c ****     table->col_cnt = 1;
 512:lvgl/src/widgets/lv_table.c ****     table->row_cnt = 1;
 513:lvgl/src/widgets/lv_table.c ****     table->col_w = lv_mem_alloc(table->col_cnt * sizeof(table->col_w[0]));
 514:lvgl/src/widgets/lv_table.c ****     table->row_h = lv_mem_alloc(table->row_cnt * sizeof(table->row_h[0]));
 515:lvgl/src/widgets/lv_table.c ****     table->col_w[0] = LV_DPI_DEF;
 516:lvgl/src/widgets/lv_table.c ****     table->row_h[0] = LV_DPI_DEF;
 517:lvgl/src/widgets/lv_table.c ****     table->cell_data = lv_mem_realloc(table->cell_data, table->row_cnt * table->col_cnt * sizeof(lv
 518:lvgl/src/widgets/lv_table.c ****     table->cell_data[0] = NULL;
 519:lvgl/src/widgets/lv_table.c **** 
 520:lvgl/src/widgets/lv_table.c ****     LV_TRACE_OBJ_CREATE("finished");
 521:lvgl/src/widgets/lv_table.c **** }
 522:lvgl/src/widgets/lv_table.c **** 
 523:lvgl/src/widgets/lv_table.c **** static void lv_table_destructor(const lv_obj_class_t * class_p, lv_obj_t * obj)
 524:lvgl/src/widgets/lv_table.c **** {
 525:lvgl/src/widgets/lv_table.c ****     LV_UNUSED(class_p);
 526:lvgl/src/widgets/lv_table.c ****     lv_table_t * table = (lv_table_t *)obj;
 527:lvgl/src/widgets/lv_table.c ****     /*Free the cell texts*/
 528:lvgl/src/widgets/lv_table.c ****     uint16_t i;
 529:lvgl/src/widgets/lv_table.c ****     for(i = 0; i < table->col_cnt * table->row_cnt; i++) {
 530:lvgl/src/widgets/lv_table.c ****         if(table->cell_data[i]) {
 531:lvgl/src/widgets/lv_table.c **** #if LV_USE_USER_DATA
 532:lvgl/src/widgets/lv_table.c ****             if(table->cell_data[i]->user_data) {
 533:lvgl/src/widgets/lv_table.c ****                 lv_mem_free(table->cell_data[i]->user_data);
 534:lvgl/src/widgets/lv_table.c ****                 table->cell_data[i]->user_data = NULL;
 535:lvgl/src/widgets/lv_table.c ****             }
 536:lvgl/src/widgets/lv_table.c **** #endif
 537:lvgl/src/widgets/lv_table.c ****             lv_mem_free(table->cell_data[i]);
 538:lvgl/src/widgets/lv_table.c ****             table->cell_data[i] = NULL;
 539:lvgl/src/widgets/lv_table.c ****         }
 540:lvgl/src/widgets/lv_table.c ****     }
 541:lvgl/src/widgets/lv_table.c **** 
 542:lvgl/src/widgets/lv_table.c ****     if(table->cell_data) lv_mem_free(table->cell_data);
 543:lvgl/src/widgets/lv_table.c ****     if(table->row_h) lv_mem_free(table->row_h);
ARM GAS  /var/folders/21/t9g5rlb91ys800n5npymflf80000gn/T//ccNiYEm1.s 			page 11


 544:lvgl/src/widgets/lv_table.c ****     if(table->col_w) lv_mem_free(table->col_w);
 545:lvgl/src/widgets/lv_table.c **** }
 546:lvgl/src/widgets/lv_table.c **** 
 547:lvgl/src/widgets/lv_table.c **** static void lv_table_event(const lv_obj_class_t * class_p, lv_event_t * e)
 548:lvgl/src/widgets/lv_table.c **** {
 549:lvgl/src/widgets/lv_table.c ****     LV_UNUSED(class_p);
 550:lvgl/src/widgets/lv_table.c **** 
 551:lvgl/src/widgets/lv_table.c ****     lv_res_t res;
 552:lvgl/src/widgets/lv_table.c **** 
 553:lvgl/src/widgets/lv_table.c ****     /*Call the ancestor's event handler*/
 554:lvgl/src/widgets/lv_table.c ****     res = lv_obj_event_base(MY_CLASS, e);
 555:lvgl/src/widgets/lv_table.c ****     if(res != LV_RES_OK) return;
 556:lvgl/src/widgets/lv_table.c **** 
 557:lvgl/src/widgets/lv_table.c ****     lv_event_code_t code = lv_event_get_code(e);
 558:lvgl/src/widgets/lv_table.c ****     lv_obj_t * obj = lv_event_get_target(e);
 559:lvgl/src/widgets/lv_table.c ****     lv_table_t * table = (lv_table_t *)obj;
 560:lvgl/src/widgets/lv_table.c **** 
 561:lvgl/src/widgets/lv_table.c ****     if(code == LV_EVENT_STYLE_CHANGED) {
 562:lvgl/src/widgets/lv_table.c ****         refr_size_form_row(obj, 0);
 563:lvgl/src/widgets/lv_table.c ****     }
 564:lvgl/src/widgets/lv_table.c ****     else if(code == LV_EVENT_GET_SELF_SIZE) {
 565:lvgl/src/widgets/lv_table.c ****         lv_point_t * p = lv_event_get_param(e);
 566:lvgl/src/widgets/lv_table.c ****         uint32_t i;
 567:lvgl/src/widgets/lv_table.c ****         lv_coord_t w = 0;
 568:lvgl/src/widgets/lv_table.c ****         for(i = 0; i < table->col_cnt; i++) w += table->col_w[i];
 569:lvgl/src/widgets/lv_table.c **** 
 570:lvgl/src/widgets/lv_table.c ****         lv_coord_t h = 0;
 571:lvgl/src/widgets/lv_table.c ****         for(i = 0; i < table->row_cnt; i++) h += table->row_h[i];
 572:lvgl/src/widgets/lv_table.c **** 
 573:lvgl/src/widgets/lv_table.c ****         p->x = w - 1;
 574:lvgl/src/widgets/lv_table.c ****         p->y = h - 1;
 575:lvgl/src/widgets/lv_table.c ****     }
 576:lvgl/src/widgets/lv_table.c ****     else if(code == LV_EVENT_PRESSED || code == LV_EVENT_PRESSING) {
 577:lvgl/src/widgets/lv_table.c ****         uint16_t col;
 578:lvgl/src/widgets/lv_table.c ****         uint16_t row;
 579:lvgl/src/widgets/lv_table.c ****         lv_res_t pr_res = get_pressed_cell(obj, &row, &col);
 580:lvgl/src/widgets/lv_table.c **** 
 581:lvgl/src/widgets/lv_table.c ****         if(pr_res == LV_RES_OK && (table->col_act != col || table->row_act != row)) {
 582:lvgl/src/widgets/lv_table.c ****             table->col_act = col;
 583:lvgl/src/widgets/lv_table.c ****             table->row_act = row;
 584:lvgl/src/widgets/lv_table.c ****             lv_obj_invalidate(obj);
 585:lvgl/src/widgets/lv_table.c ****         }
 586:lvgl/src/widgets/lv_table.c ****     }
 587:lvgl/src/widgets/lv_table.c ****     else if(code == LV_EVENT_RELEASED) {
 588:lvgl/src/widgets/lv_table.c ****         lv_obj_invalidate(obj);
 589:lvgl/src/widgets/lv_table.c ****         lv_indev_t * indev = lv_indev_get_act();
 590:lvgl/src/widgets/lv_table.c ****         lv_obj_t * scroll_obj = lv_indev_get_scroll_obj(indev);
 591:lvgl/src/widgets/lv_table.c ****         if(table->col_act != LV_TABLE_CELL_NONE && table->row_act != LV_TABLE_CELL_NONE && scroll_o
 592:lvgl/src/widgets/lv_table.c ****             res = lv_event_send(obj, LV_EVENT_VALUE_CHANGED, NULL);
 593:lvgl/src/widgets/lv_table.c ****             if(res != LV_RES_OK) return;
 594:lvgl/src/widgets/lv_table.c ****         }
 595:lvgl/src/widgets/lv_table.c **** 
 596:lvgl/src/widgets/lv_table.c ****         lv_indev_type_t indev_type = lv_indev_get_type(lv_indev_get_act());
 597:lvgl/src/widgets/lv_table.c ****         if(indev_type == LV_INDEV_TYPE_POINTER || indev_type == LV_INDEV_TYPE_BUTTON) {
 598:lvgl/src/widgets/lv_table.c ****             table->col_act = LV_TABLE_CELL_NONE;
 599:lvgl/src/widgets/lv_table.c ****             table->row_act = LV_TABLE_CELL_NONE;
 600:lvgl/src/widgets/lv_table.c ****         }
ARM GAS  /var/folders/21/t9g5rlb91ys800n5npymflf80000gn/T//ccNiYEm1.s 			page 12


 601:lvgl/src/widgets/lv_table.c ****     }
 602:lvgl/src/widgets/lv_table.c ****     else if(code == LV_EVENT_FOCUSED) {
 603:lvgl/src/widgets/lv_table.c ****         lv_obj_invalidate(obj);
 604:lvgl/src/widgets/lv_table.c ****     }
 605:lvgl/src/widgets/lv_table.c ****     else if(code == LV_EVENT_KEY) {
 606:lvgl/src/widgets/lv_table.c ****         int32_t c = *((int32_t *)lv_event_get_param(e));
 607:lvgl/src/widgets/lv_table.c ****         int32_t col = table->col_act;
 608:lvgl/src/widgets/lv_table.c ****         int32_t row = table->row_act;
 609:lvgl/src/widgets/lv_table.c ****         if(col == LV_TABLE_CELL_NONE || row == LV_TABLE_CELL_NONE) {
 610:lvgl/src/widgets/lv_table.c ****             table->col_act = 0;
 611:lvgl/src/widgets/lv_table.c ****             table->row_act = 0;
 612:lvgl/src/widgets/lv_table.c ****             scroll_to_selected_cell(obj);
 613:lvgl/src/widgets/lv_table.c ****             lv_obj_invalidate(obj);
 614:lvgl/src/widgets/lv_table.c ****             return;
 615:lvgl/src/widgets/lv_table.c ****         }
 616:lvgl/src/widgets/lv_table.c **** 
 617:lvgl/src/widgets/lv_table.c ****         if(col >= table->col_cnt) col = 0;
 618:lvgl/src/widgets/lv_table.c ****         if(row >= table->row_cnt) row = 0;
 619:lvgl/src/widgets/lv_table.c **** 
 620:lvgl/src/widgets/lv_table.c ****         if(c == LV_KEY_LEFT) col--;
 621:lvgl/src/widgets/lv_table.c ****         else if(c == LV_KEY_RIGHT) col++;
 622:lvgl/src/widgets/lv_table.c ****         else if(c == LV_KEY_UP) row--;
 623:lvgl/src/widgets/lv_table.c ****         else if(c == LV_KEY_DOWN) row++;
 624:lvgl/src/widgets/lv_table.c ****         else return;
 625:lvgl/src/widgets/lv_table.c **** 
 626:lvgl/src/widgets/lv_table.c ****         if(col >= table->col_cnt) {
 627:lvgl/src/widgets/lv_table.c ****             if(row < table->row_cnt - 1) {
 628:lvgl/src/widgets/lv_table.c ****                 col = 0;
 629:lvgl/src/widgets/lv_table.c ****                 row++;
 630:lvgl/src/widgets/lv_table.c ****             }
 631:lvgl/src/widgets/lv_table.c ****             else {
 632:lvgl/src/widgets/lv_table.c ****                 col = table->col_cnt - 1;
 633:lvgl/src/widgets/lv_table.c ****             }
 634:lvgl/src/widgets/lv_table.c ****         }
 635:lvgl/src/widgets/lv_table.c ****         else if(col < 0) {
 636:lvgl/src/widgets/lv_table.c ****             if(row != 0) {
 637:lvgl/src/widgets/lv_table.c ****                 col = table->col_cnt - 1;
 638:lvgl/src/widgets/lv_table.c ****                 row--;
 639:lvgl/src/widgets/lv_table.c ****             }
 640:lvgl/src/widgets/lv_table.c ****             else {
 641:lvgl/src/widgets/lv_table.c ****                 col = 0;
 642:lvgl/src/widgets/lv_table.c ****             }
 643:lvgl/src/widgets/lv_table.c ****         }
 644:lvgl/src/widgets/lv_table.c **** 
 645:lvgl/src/widgets/lv_table.c ****         if(row >= table->row_cnt) {
 646:lvgl/src/widgets/lv_table.c ****             row = table->row_cnt - 1;
 647:lvgl/src/widgets/lv_table.c ****         }
 648:lvgl/src/widgets/lv_table.c ****         else if(row < 0) {
 649:lvgl/src/widgets/lv_table.c ****             row = 0;
 650:lvgl/src/widgets/lv_table.c ****         }
 651:lvgl/src/widgets/lv_table.c **** 
 652:lvgl/src/widgets/lv_table.c ****         if(table->col_act != col || table->row_act != row) {
 653:lvgl/src/widgets/lv_table.c ****             table->col_act = col;
 654:lvgl/src/widgets/lv_table.c ****             table->row_act = row;
 655:lvgl/src/widgets/lv_table.c ****             lv_obj_invalidate(obj);
 656:lvgl/src/widgets/lv_table.c **** 
 657:lvgl/src/widgets/lv_table.c ****             scroll_to_selected_cell(obj);
ARM GAS  /var/folders/21/t9g5rlb91ys800n5npymflf80000gn/T//ccNiYEm1.s 			page 13


 658:lvgl/src/widgets/lv_table.c **** 
 659:lvgl/src/widgets/lv_table.c ****             res = lv_event_send(obj, LV_EVENT_VALUE_CHANGED, NULL);
 660:lvgl/src/widgets/lv_table.c ****             if(res != LV_RES_OK) return;
 661:lvgl/src/widgets/lv_table.c ****         }
 662:lvgl/src/widgets/lv_table.c ****     }
 663:lvgl/src/widgets/lv_table.c ****     else if(code == LV_EVENT_DRAW_MAIN) {
 664:lvgl/src/widgets/lv_table.c ****         draw_main(e);
 665:lvgl/src/widgets/lv_table.c ****     }
 666:lvgl/src/widgets/lv_table.c **** }
 667:lvgl/src/widgets/lv_table.c **** 
 668:lvgl/src/widgets/lv_table.c **** static void draw_main(lv_event_t * e)
 669:lvgl/src/widgets/lv_table.c **** {
 670:lvgl/src/widgets/lv_table.c ****     lv_obj_t * obj = lv_event_get_target(e);
 671:lvgl/src/widgets/lv_table.c ****     lv_table_t * table = (lv_table_t *)obj;
 672:lvgl/src/widgets/lv_table.c ****     lv_draw_ctx_t * draw_ctx = lv_event_get_draw_ctx(e);
 673:lvgl/src/widgets/lv_table.c ****     lv_area_t clip_area;
 674:lvgl/src/widgets/lv_table.c ****     if(!_lv_area_intersect(&clip_area, &obj->coords, draw_ctx->clip_area)) return;
 675:lvgl/src/widgets/lv_table.c **** 
 676:lvgl/src/widgets/lv_table.c ****     const lv_area_t * clip_area_ori = draw_ctx->clip_area;
 677:lvgl/src/widgets/lv_table.c ****     draw_ctx->clip_area = &clip_area;
 678:lvgl/src/widgets/lv_table.c **** 
 679:lvgl/src/widgets/lv_table.c ****     lv_point_t txt_size;
 680:lvgl/src/widgets/lv_table.c ****     lv_area_t cell_area;
 681:lvgl/src/widgets/lv_table.c **** 
 682:lvgl/src/widgets/lv_table.c ****     lv_coord_t border_width = lv_obj_get_style_border_width(obj, LV_PART_MAIN);
 683:lvgl/src/widgets/lv_table.c ****     lv_coord_t bg_top = lv_obj_get_style_pad_top(obj, LV_PART_MAIN);
 684:lvgl/src/widgets/lv_table.c ****     lv_coord_t bg_bottom = lv_obj_get_style_pad_bottom(obj, LV_PART_MAIN);
 685:lvgl/src/widgets/lv_table.c ****     lv_coord_t bg_left = lv_obj_get_style_pad_left(obj, LV_PART_MAIN);
 686:lvgl/src/widgets/lv_table.c ****     lv_coord_t bg_right = lv_obj_get_style_pad_right(obj, LV_PART_MAIN);
 687:lvgl/src/widgets/lv_table.c **** 
 688:lvgl/src/widgets/lv_table.c ****     lv_state_t state_ori = obj->state;
 689:lvgl/src/widgets/lv_table.c ****     obj->state = LV_STATE_DEFAULT;
 690:lvgl/src/widgets/lv_table.c ****     obj->skip_trans = 1;
 691:lvgl/src/widgets/lv_table.c ****     lv_draw_rect_dsc_t rect_dsc_def;
 692:lvgl/src/widgets/lv_table.c ****     lv_draw_rect_dsc_t rect_dsc_act; /*Passed to the event to modify it*/
 693:lvgl/src/widgets/lv_table.c ****     lv_draw_rect_dsc_init(&rect_dsc_def);
 694:lvgl/src/widgets/lv_table.c ****     lv_obj_init_draw_rect_dsc(obj, LV_PART_ITEMS, &rect_dsc_def);
 695:lvgl/src/widgets/lv_table.c **** 
 696:lvgl/src/widgets/lv_table.c ****     lv_draw_label_dsc_t label_dsc_def;
 697:lvgl/src/widgets/lv_table.c ****     lv_draw_label_dsc_t label_dsc_act;  /*Passed to the event to modify it*/
 698:lvgl/src/widgets/lv_table.c ****     lv_draw_label_dsc_init(&label_dsc_def);
 699:lvgl/src/widgets/lv_table.c ****     lv_obj_init_draw_label_dsc(obj, LV_PART_ITEMS, &label_dsc_def);
 700:lvgl/src/widgets/lv_table.c ****     obj->state = state_ori;
 701:lvgl/src/widgets/lv_table.c ****     obj->skip_trans = 0;
 702:lvgl/src/widgets/lv_table.c **** 
 703:lvgl/src/widgets/lv_table.c ****     uint16_t col;
 704:lvgl/src/widgets/lv_table.c ****     uint16_t row;
 705:lvgl/src/widgets/lv_table.c ****     uint16_t cell = 0;
 706:lvgl/src/widgets/lv_table.c **** 
 707:lvgl/src/widgets/lv_table.c ****     cell_area.y2 = obj->coords.y1 + bg_top - 1 - lv_obj_get_scroll_y(obj) + border_width;
 708:lvgl/src/widgets/lv_table.c ****     lv_coord_t scroll_x = lv_obj_get_scroll_x(obj) ;
 709:lvgl/src/widgets/lv_table.c ****     bool rtl = lv_obj_get_style_base_dir(obj, LV_PART_MAIN) == LV_BASE_DIR_RTL;
 710:lvgl/src/widgets/lv_table.c **** 
 711:lvgl/src/widgets/lv_table.c ****     /*Handle custom drawer*/
 712:lvgl/src/widgets/lv_table.c ****     lv_obj_draw_part_dsc_t part_draw_dsc;
 713:lvgl/src/widgets/lv_table.c ****     lv_obj_draw_dsc_init(&part_draw_dsc, draw_ctx);
 714:lvgl/src/widgets/lv_table.c ****     part_draw_dsc.part = LV_PART_ITEMS;
ARM GAS  /var/folders/21/t9g5rlb91ys800n5npymflf80000gn/T//ccNiYEm1.s 			page 14


 715:lvgl/src/widgets/lv_table.c ****     part_draw_dsc.class_p = MY_CLASS;
 716:lvgl/src/widgets/lv_table.c ****     part_draw_dsc.type = LV_TABLE_DRAW_PART_CELL;
 717:lvgl/src/widgets/lv_table.c ****     part_draw_dsc.rect_dsc = &rect_dsc_act;
 718:lvgl/src/widgets/lv_table.c ****     part_draw_dsc.label_dsc = &label_dsc_act;
 719:lvgl/src/widgets/lv_table.c **** 
 720:lvgl/src/widgets/lv_table.c ****     for(row = 0; row < table->row_cnt; row++) {
 721:lvgl/src/widgets/lv_table.c ****         lv_coord_t h_row = table->row_h[row];
 722:lvgl/src/widgets/lv_table.c **** 
 723:lvgl/src/widgets/lv_table.c ****         cell_area.y1 = cell_area.y2 + 1;
 724:lvgl/src/widgets/lv_table.c ****         cell_area.y2 = cell_area.y1 + h_row - 1;
 725:lvgl/src/widgets/lv_table.c **** 
 726:lvgl/src/widgets/lv_table.c ****         if(cell_area.y1 > clip_area.y2) break;
 727:lvgl/src/widgets/lv_table.c **** 
 728:lvgl/src/widgets/lv_table.c ****         if(rtl) cell_area.x1 = obj->coords.x2 - bg_right - 1 - scroll_x - border_width;
 729:lvgl/src/widgets/lv_table.c ****         else cell_area.x2 = obj->coords.x1 + bg_left - 1 - scroll_x + border_width;
 730:lvgl/src/widgets/lv_table.c **** 
 731:lvgl/src/widgets/lv_table.c ****         for(col = 0; col < table->col_cnt; col++) {
 732:lvgl/src/widgets/lv_table.c ****             lv_table_cell_ctrl_t ctrl = 0;
 733:lvgl/src/widgets/lv_table.c ****             if(table->cell_data[cell]) ctrl = table->cell_data[cell]->ctrl;
 734:lvgl/src/widgets/lv_table.c **** 
 735:lvgl/src/widgets/lv_table.c ****             if(rtl) {
 736:lvgl/src/widgets/lv_table.c ****                 cell_area.x2 = cell_area.x1 - 1;
 737:lvgl/src/widgets/lv_table.c ****                 cell_area.x1 = cell_area.x2 - table->col_w[col] + 1;
 738:lvgl/src/widgets/lv_table.c ****             }
 739:lvgl/src/widgets/lv_table.c ****             else {
 740:lvgl/src/widgets/lv_table.c ****                 cell_area.x1 = cell_area.x2 + 1;
 741:lvgl/src/widgets/lv_table.c ****                 cell_area.x2 = cell_area.x1 + table->col_w[col] - 1;
 742:lvgl/src/widgets/lv_table.c ****             }
 743:lvgl/src/widgets/lv_table.c **** 
 744:lvgl/src/widgets/lv_table.c ****             uint16_t col_merge = 0;
 745:lvgl/src/widgets/lv_table.c ****             for(col_merge = 0; col_merge + col < table->col_cnt - 1; col_merge++) {
 746:lvgl/src/widgets/lv_table.c ****                 lv_table_cell_t * next_cell_data = table->cell_data[cell + col_merge];
 747:lvgl/src/widgets/lv_table.c **** 
 748:lvgl/src/widgets/lv_table.c ****                 if(is_cell_empty(next_cell_data)) break;
 749:lvgl/src/widgets/lv_table.c **** 
 750:lvgl/src/widgets/lv_table.c ****                 lv_table_cell_ctrl_t merge_ctrl = (lv_table_cell_ctrl_t) next_cell_data->ctrl;
 751:lvgl/src/widgets/lv_table.c ****                 if(merge_ctrl & LV_TABLE_CELL_CTRL_MERGE_RIGHT) {
 752:lvgl/src/widgets/lv_table.c ****                     lv_coord_t offset = table->col_w[col + col_merge + 1];
 753:lvgl/src/widgets/lv_table.c **** 
 754:lvgl/src/widgets/lv_table.c ****                     if(rtl) cell_area.x1 -= offset;
 755:lvgl/src/widgets/lv_table.c ****                     else cell_area.x2 += offset;
 756:lvgl/src/widgets/lv_table.c ****                 }
 757:lvgl/src/widgets/lv_table.c ****                 else {
 758:lvgl/src/widgets/lv_table.c ****                     break;
 759:lvgl/src/widgets/lv_table.c ****                 }
 760:lvgl/src/widgets/lv_table.c ****             }
 761:lvgl/src/widgets/lv_table.c **** 
 762:lvgl/src/widgets/lv_table.c ****             if(cell_area.y2 < clip_area.y1) {
 763:lvgl/src/widgets/lv_table.c ****                 cell += col_merge + 1;
 764:lvgl/src/widgets/lv_table.c ****                 col += col_merge;
 765:lvgl/src/widgets/lv_table.c ****                 continue;
 766:lvgl/src/widgets/lv_table.c ****             }
 767:lvgl/src/widgets/lv_table.c **** 
 768:lvgl/src/widgets/lv_table.c ****             /*Expand the cell area with a half border to avoid drawing 2 borders next to each other
 769:lvgl/src/widgets/lv_table.c ****             lv_area_t cell_area_border;
 770:lvgl/src/widgets/lv_table.c ****             lv_area_copy(&cell_area_border, &cell_area);
 771:lvgl/src/widgets/lv_table.c ****             if((rect_dsc_def.border_side & LV_BORDER_SIDE_LEFT) && cell_area_border.x1 > obj->coord
ARM GAS  /var/folders/21/t9g5rlb91ys800n5npymflf80000gn/T//ccNiYEm1.s 			page 15


 772:lvgl/src/widgets/lv_table.c ****                 cell_area_border.x1 -= rect_dsc_def.border_width / 2;
 773:lvgl/src/widgets/lv_table.c ****             }
 774:lvgl/src/widgets/lv_table.c ****             if((rect_dsc_def.border_side & LV_BORDER_SIDE_TOP) && cell_area_border.y1 > obj->coords
 775:lvgl/src/widgets/lv_table.c ****                 cell_area_border.y1 -= rect_dsc_def.border_width / 2;
 776:lvgl/src/widgets/lv_table.c ****             }
 777:lvgl/src/widgets/lv_table.c ****             if((rect_dsc_def.border_side & LV_BORDER_SIDE_RIGHT) && cell_area_border.x2 < obj->coor
 778:lvgl/src/widgets/lv_table.c ****                 cell_area_border.x2 += rect_dsc_def.border_width / 2 + (rect_dsc_def.border_width &
 779:lvgl/src/widgets/lv_table.c ****             }
 780:lvgl/src/widgets/lv_table.c ****             if((rect_dsc_def.border_side & LV_BORDER_SIDE_BOTTOM) &&
 781:lvgl/src/widgets/lv_table.c ****                cell_area_border.y2 < obj->coords.y2 - bg_bottom - 1) {
 782:lvgl/src/widgets/lv_table.c ****                 cell_area_border.y2 += rect_dsc_def.border_width / 2 + (rect_dsc_def.border_width &
 783:lvgl/src/widgets/lv_table.c ****             }
 784:lvgl/src/widgets/lv_table.c **** 
 785:lvgl/src/widgets/lv_table.c ****             lv_state_t cell_state = LV_STATE_DEFAULT;
 786:lvgl/src/widgets/lv_table.c ****             if(row == table->row_act && col == table->col_act) {
 787:lvgl/src/widgets/lv_table.c ****                 if(!(obj->state & LV_STATE_SCROLLED) && (obj->state & LV_STATE_PRESSED)) cell_state
 788:lvgl/src/widgets/lv_table.c ****                 if(obj->state & LV_STATE_FOCUSED) cell_state |= LV_STATE_FOCUSED;
 789:lvgl/src/widgets/lv_table.c ****                 if(obj->state & LV_STATE_FOCUS_KEY) cell_state |= LV_STATE_FOCUS_KEY;
 790:lvgl/src/widgets/lv_table.c ****                 if(obj->state & LV_STATE_EDITED) cell_state |= LV_STATE_EDITED;
 791:lvgl/src/widgets/lv_table.c ****             }
 792:lvgl/src/widgets/lv_table.c **** 
 793:lvgl/src/widgets/lv_table.c ****             /*Set up the draw descriptors*/
 794:lvgl/src/widgets/lv_table.c ****             if(cell_state == LV_STATE_DEFAULT) {
 795:lvgl/src/widgets/lv_table.c ****                 lv_memcpy(&rect_dsc_act, &rect_dsc_def, sizeof(lv_draw_rect_dsc_t));
 796:lvgl/src/widgets/lv_table.c ****                 lv_memcpy(&label_dsc_act, &label_dsc_def, sizeof(lv_draw_label_dsc_t));
 797:lvgl/src/widgets/lv_table.c ****             }
 798:lvgl/src/widgets/lv_table.c ****             /*In other cases get the styles directly without caching them*/
 799:lvgl/src/widgets/lv_table.c ****             else {
 800:lvgl/src/widgets/lv_table.c ****                 obj->state = cell_state;
 801:lvgl/src/widgets/lv_table.c ****                 obj->skip_trans = 1;
 802:lvgl/src/widgets/lv_table.c ****                 lv_draw_rect_dsc_init(&rect_dsc_act);
 803:lvgl/src/widgets/lv_table.c ****                 lv_draw_label_dsc_init(&label_dsc_act);
 804:lvgl/src/widgets/lv_table.c ****                 lv_obj_init_draw_rect_dsc(obj, LV_PART_ITEMS, &rect_dsc_act);
 805:lvgl/src/widgets/lv_table.c ****                 lv_obj_init_draw_label_dsc(obj, LV_PART_ITEMS, &label_dsc_act);
 806:lvgl/src/widgets/lv_table.c ****                 obj->state = state_ori;
 807:lvgl/src/widgets/lv_table.c ****                 obj->skip_trans = 0;
 808:lvgl/src/widgets/lv_table.c ****             }
 809:lvgl/src/widgets/lv_table.c **** 
 810:lvgl/src/widgets/lv_table.c ****             part_draw_dsc.draw_area = &cell_area_border;
 811:lvgl/src/widgets/lv_table.c ****             part_draw_dsc.id = row * table->col_cnt + col;
 812:lvgl/src/widgets/lv_table.c ****             lv_event_send(obj, LV_EVENT_DRAW_PART_BEGIN, &part_draw_dsc);
 813:lvgl/src/widgets/lv_table.c **** 
 814:lvgl/src/widgets/lv_table.c ****             lv_draw_rect(draw_ctx, &rect_dsc_act, &cell_area_border);
 815:lvgl/src/widgets/lv_table.c **** 
 816:lvgl/src/widgets/lv_table.c ****             if(table->cell_data[cell]) {
 817:lvgl/src/widgets/lv_table.c ****                 const lv_coord_t cell_left = lv_obj_get_style_pad_left(obj, LV_PART_ITEMS);
 818:lvgl/src/widgets/lv_table.c ****                 const lv_coord_t cell_right = lv_obj_get_style_pad_right(obj, LV_PART_ITEMS);
 819:lvgl/src/widgets/lv_table.c ****                 const lv_coord_t cell_top = lv_obj_get_style_pad_top(obj, LV_PART_ITEMS);
 820:lvgl/src/widgets/lv_table.c ****                 const lv_coord_t cell_bottom = lv_obj_get_style_pad_bottom(obj, LV_PART_ITEMS);
 821:lvgl/src/widgets/lv_table.c ****                 lv_text_flag_t txt_flags = LV_TEXT_FLAG_NONE;
 822:lvgl/src/widgets/lv_table.c ****                 lv_area_t txt_area;
 823:lvgl/src/widgets/lv_table.c **** 
 824:lvgl/src/widgets/lv_table.c ****                 txt_area.x1 = cell_area.x1 + cell_left;
 825:lvgl/src/widgets/lv_table.c ****                 txt_area.x2 = cell_area.x2 - cell_right;
 826:lvgl/src/widgets/lv_table.c ****                 txt_area.y1 = cell_area.y1 + cell_top;
 827:lvgl/src/widgets/lv_table.c ****                 txt_area.y2 = cell_area.y2 - cell_bottom;
 828:lvgl/src/widgets/lv_table.c **** 
ARM GAS  /var/folders/21/t9g5rlb91ys800n5npymflf80000gn/T//ccNiYEm1.s 			page 16


 829:lvgl/src/widgets/lv_table.c ****                 /*Align the content to the middle if not cropped*/
 830:lvgl/src/widgets/lv_table.c ****                 bool crop = ctrl & LV_TABLE_CELL_CTRL_TEXT_CROP ? true : false;
 831:lvgl/src/widgets/lv_table.c ****                 if(crop) txt_flags = LV_TEXT_FLAG_EXPAND;
 832:lvgl/src/widgets/lv_table.c **** 
 833:lvgl/src/widgets/lv_table.c ****                 lv_txt_get_size(&txt_size, table->cell_data[cell]->txt, label_dsc_def.font,
 834:lvgl/src/widgets/lv_table.c ****                                 label_dsc_act.letter_space, label_dsc_act.line_space,
 835:lvgl/src/widgets/lv_table.c ****                                 lv_area_get_width(&txt_area), txt_flags);
 836:lvgl/src/widgets/lv_table.c **** 
 837:lvgl/src/widgets/lv_table.c ****                 /*Align the content to the middle if not cropped*/
 838:lvgl/src/widgets/lv_table.c ****                 if(!crop) {
 839:lvgl/src/widgets/lv_table.c ****                     txt_area.y1 = cell_area.y1 + h_row / 2 - txt_size.y / 2;
 840:lvgl/src/widgets/lv_table.c ****                     txt_area.y2 = cell_area.y1 + h_row / 2 + txt_size.y / 2;
 841:lvgl/src/widgets/lv_table.c ****                 }
 842:lvgl/src/widgets/lv_table.c **** 
 843:lvgl/src/widgets/lv_table.c ****                 lv_area_t label_clip_area;
 844:lvgl/src/widgets/lv_table.c ****                 bool label_mask_ok;
 845:lvgl/src/widgets/lv_table.c ****                 label_mask_ok = _lv_area_intersect(&label_clip_area, &clip_area, &cell_area);
 846:lvgl/src/widgets/lv_table.c ****                 if(label_mask_ok) {
 847:lvgl/src/widgets/lv_table.c ****                     draw_ctx->clip_area = &label_clip_area;
 848:lvgl/src/widgets/lv_table.c ****                     lv_draw_label(draw_ctx, &label_dsc_act, &txt_area, table->cell_data[cell]->txt,
 849:lvgl/src/widgets/lv_table.c ****                     draw_ctx->clip_area = &clip_area;
 850:lvgl/src/widgets/lv_table.c ****                 }
 851:lvgl/src/widgets/lv_table.c ****             }
 852:lvgl/src/widgets/lv_table.c **** 
 853:lvgl/src/widgets/lv_table.c ****             lv_event_send(obj, LV_EVENT_DRAW_PART_END, &part_draw_dsc);
 854:lvgl/src/widgets/lv_table.c **** 
 855:lvgl/src/widgets/lv_table.c ****             cell += col_merge + 1;
 856:lvgl/src/widgets/lv_table.c ****             col += col_merge;
 857:lvgl/src/widgets/lv_table.c ****         }
 858:lvgl/src/widgets/lv_table.c ****     }
 859:lvgl/src/widgets/lv_table.c **** 
 860:lvgl/src/widgets/lv_table.c ****     draw_ctx->clip_area = clip_area_ori;
 861:lvgl/src/widgets/lv_table.c **** }
 862:lvgl/src/widgets/lv_table.c **** 
 863:lvgl/src/widgets/lv_table.c **** /* Refreshes size of the table starting from @start_row row */
 864:lvgl/src/widgets/lv_table.c **** static void refr_size_form_row(lv_obj_t * obj, uint32_t start_row)
 865:lvgl/src/widgets/lv_table.c **** {
 866:lvgl/src/widgets/lv_table.c ****     const lv_coord_t cell_pad_left = lv_obj_get_style_pad_left(obj, LV_PART_ITEMS);
 867:lvgl/src/widgets/lv_table.c ****     const lv_coord_t cell_pad_right = lv_obj_get_style_pad_right(obj, LV_PART_ITEMS);
 868:lvgl/src/widgets/lv_table.c ****     const lv_coord_t cell_pad_top = lv_obj_get_style_pad_top(obj, LV_PART_ITEMS);
 869:lvgl/src/widgets/lv_table.c ****     const lv_coord_t cell_pad_bottom = lv_obj_get_style_pad_bottom(obj, LV_PART_ITEMS);
 870:lvgl/src/widgets/lv_table.c **** 
 871:lvgl/src/widgets/lv_table.c ****     lv_coord_t letter_space = lv_obj_get_style_text_letter_space(obj, LV_PART_ITEMS);
 872:lvgl/src/widgets/lv_table.c ****     lv_coord_t line_space = lv_obj_get_style_text_line_space(obj, LV_PART_ITEMS);
 873:lvgl/src/widgets/lv_table.c ****     const lv_font_t * font = lv_obj_get_style_text_font(obj, LV_PART_ITEMS);
 874:lvgl/src/widgets/lv_table.c **** 
 875:lvgl/src/widgets/lv_table.c ****     const lv_coord_t minh = lv_obj_get_style_min_height(obj, LV_PART_ITEMS);
 876:lvgl/src/widgets/lv_table.c ****     const lv_coord_t maxh = lv_obj_get_style_max_height(obj, LV_PART_ITEMS);
 877:lvgl/src/widgets/lv_table.c **** 
 878:lvgl/src/widgets/lv_table.c ****     lv_table_t * table = (lv_table_t *)obj;
 879:lvgl/src/widgets/lv_table.c ****     uint32_t i;
 880:lvgl/src/widgets/lv_table.c ****     for(i = start_row; i < table->row_cnt; i++) {
 881:lvgl/src/widgets/lv_table.c ****         lv_coord_t calculated_height = get_row_height(obj, i, font, letter_space, line_space,
 882:lvgl/src/widgets/lv_table.c ****                                                       cell_pad_left, cell_pad_right, cell_pad_top, 
 883:lvgl/src/widgets/lv_table.c ****         table->row_h[i] = LV_CLAMP(minh, calculated_height, maxh);
 884:lvgl/src/widgets/lv_table.c ****     }
 885:lvgl/src/widgets/lv_table.c **** 
ARM GAS  /var/folders/21/t9g5rlb91ys800n5npymflf80000gn/T//ccNiYEm1.s 			page 17


 886:lvgl/src/widgets/lv_table.c ****     lv_obj_refresh_self_size(obj);
 887:lvgl/src/widgets/lv_table.c ****     lv_obj_invalidate(obj);
 888:lvgl/src/widgets/lv_table.c **** }
 889:lvgl/src/widgets/lv_table.c **** 
 890:lvgl/src/widgets/lv_table.c **** static void refr_cell_size(lv_obj_t * obj, uint32_t row, uint32_t col)
 891:lvgl/src/widgets/lv_table.c **** {
 892:lvgl/src/widgets/lv_table.c ****     const lv_coord_t cell_pad_left = lv_obj_get_style_pad_left(obj, LV_PART_ITEMS);
 893:lvgl/src/widgets/lv_table.c ****     const lv_coord_t cell_pad_right = lv_obj_get_style_pad_right(obj, LV_PART_ITEMS);
 894:lvgl/src/widgets/lv_table.c ****     const lv_coord_t cell_pad_top = lv_obj_get_style_pad_top(obj, LV_PART_ITEMS);
 895:lvgl/src/widgets/lv_table.c ****     const lv_coord_t cell_pad_bottom = lv_obj_get_style_pad_bottom(obj, LV_PART_ITEMS);
 896:lvgl/src/widgets/lv_table.c **** 
 897:lvgl/src/widgets/lv_table.c ****     lv_coord_t letter_space = lv_obj_get_style_text_letter_space(obj, LV_PART_ITEMS);
 898:lvgl/src/widgets/lv_table.c ****     lv_coord_t line_space = lv_obj_get_style_text_line_space(obj, LV_PART_ITEMS);
 899:lvgl/src/widgets/lv_table.c ****     const lv_font_t * font = lv_obj_get_style_text_font(obj, LV_PART_ITEMS);
 900:lvgl/src/widgets/lv_table.c **** 
 901:lvgl/src/widgets/lv_table.c ****     const lv_coord_t minh = lv_obj_get_style_min_height(obj, LV_PART_ITEMS);
 902:lvgl/src/widgets/lv_table.c ****     const lv_coord_t maxh = lv_obj_get_style_max_height(obj, LV_PART_ITEMS);
 903:lvgl/src/widgets/lv_table.c **** 
 904:lvgl/src/widgets/lv_table.c ****     lv_table_t * table = (lv_table_t *)obj;
 905:lvgl/src/widgets/lv_table.c ****     lv_coord_t calculated_height = get_row_height(obj, row, font, letter_space, line_space,
 906:lvgl/src/widgets/lv_table.c ****                                                   cell_pad_left, cell_pad_right, cell_pad_top, cell
 907:lvgl/src/widgets/lv_table.c **** 
 908:lvgl/src/widgets/lv_table.c ****     lv_coord_t prev_row_size = table->row_h[row];
 909:lvgl/src/widgets/lv_table.c ****     table->row_h[row] = LV_CLAMP(minh, calculated_height, maxh);
 910:lvgl/src/widgets/lv_table.c **** 
 911:lvgl/src/widgets/lv_table.c ****     /*If the row height havn't changed invalidate only this cell*/
 912:lvgl/src/widgets/lv_table.c ****     if(prev_row_size == table->row_h[row]) {
 913:lvgl/src/widgets/lv_table.c ****         lv_area_t cell_area;
 914:lvgl/src/widgets/lv_table.c ****         get_cell_area(obj, row, col, &cell_area);
 915:lvgl/src/widgets/lv_table.c ****         lv_area_move(&cell_area, obj->coords.x1, obj->coords.y1);
 916:lvgl/src/widgets/lv_table.c ****         lv_obj_invalidate_area(obj, &cell_area);
 917:lvgl/src/widgets/lv_table.c ****     }
 918:lvgl/src/widgets/lv_table.c ****     else {
 919:lvgl/src/widgets/lv_table.c ****         lv_obj_refresh_self_size(obj);
 920:lvgl/src/widgets/lv_table.c ****         lv_obj_invalidate(obj);
 921:lvgl/src/widgets/lv_table.c ****     }
 922:lvgl/src/widgets/lv_table.c **** }
 923:lvgl/src/widgets/lv_table.c **** 
 924:lvgl/src/widgets/lv_table.c **** static lv_coord_t get_row_height(lv_obj_t * obj, uint16_t row_id, const lv_font_t * font,
 925:lvgl/src/widgets/lv_table.c ****                                  lv_coord_t letter_space, lv_coord_t line_space,
 926:lvgl/src/widgets/lv_table.c ****                                  lv_coord_t cell_left, lv_coord_t cell_right, lv_coord_t cell_top, 
 927:lvgl/src/widgets/lv_table.c **** {
  29              		.loc 1 927 1 view -0
  30              		.cfi_startproc
  31              		@ args = 20, pretend = 0, frame = 48
  32              		@ frame_needed = 0, uses_anonymous_args = 0
  33              		.loc 1 927 1 is_stmt 0 view .LVU1
  34 0000 2DE9F04F 		push	{r4, r5, r6, r7, r8, r9, r10, fp, lr}
  35              	.LCFI0:
  36              		.cfi_def_cfa_offset 36
  37              		.cfi_offset 4, -36
  38              		.cfi_offset 5, -32
  39              		.cfi_offset 6, -28
  40              		.cfi_offset 7, -24
  41              		.cfi_offset 8, -20
  42              		.cfi_offset 9, -16
  43              		.cfi_offset 10, -12
ARM GAS  /var/folders/21/t9g5rlb91ys800n5npymflf80000gn/T//ccNiYEm1.s 			page 18


  44              		.cfi_offset 11, -8
  45              		.cfi_offset 14, -4
  46 0004 91B0     		sub	sp, sp, #68
  47              	.LCFI1:
  48              		.cfi_def_cfa_offset 104
  49 0006 8046     		mov	r8, r0
  50 0008 0692     		str	r2, [sp, #24]
  51 000a 0A93     		str	r3, [sp, #40]
  52 000c BDF96830 		ldrsh	r3, [sp, #104]
  53              	.LVL1:
  54              		.loc 1 927 1 view .LVU2
  55 0010 0B93     		str	r3, [sp, #44]
  56 0012 BDF96C30 		ldrsh	r3, [sp, #108]
  57 0016 0C93     		str	r3, [sp, #48]
  58 0018 BDF97030 		ldrsh	r3, [sp, #112]
  59 001c 0D93     		str	r3, [sp, #52]
  60 001e BDF974B0 		ldrsh	fp, [sp, #116]
  61 0022 BDF97830 		ldrsh	r3, [sp, #120]
  62 0026 0793     		str	r3, [sp, #28]
 928:lvgl/src/widgets/lv_table.c ****     lv_table_t * table = (lv_table_t *)obj;
  63              		.loc 1 928 5 is_stmt 1 view .LVU3
  64              	.LVL2:
 929:lvgl/src/widgets/lv_table.c **** 
 930:lvgl/src/widgets/lv_table.c ****     lv_coord_t h_max = lv_font_get_line_height(font) + cell_top + cell_bottom;
  65              		.loc 1 930 5 view .LVU4
  66              	.LBB119:
  67              	.LBI119:
  68              		.file 2 "lvgl/src/widgets/../core/../misc/../font/lv_font.h"
   1:lvgl/src/widgets/../core/../misc/../font/lv_font.h **** /**
   2:lvgl/src/widgets/../core/../misc/../font/lv_font.h ****  * @file lv_font.h
   3:lvgl/src/widgets/../core/../misc/../font/lv_font.h ****  *
   4:lvgl/src/widgets/../core/../misc/../font/lv_font.h ****  */
   5:lvgl/src/widgets/../core/../misc/../font/lv_font.h **** 
   6:lvgl/src/widgets/../core/../misc/../font/lv_font.h **** #ifndef LV_FONT_H
   7:lvgl/src/widgets/../core/../misc/../font/lv_font.h **** #define LV_FONT_H
   8:lvgl/src/widgets/../core/../misc/../font/lv_font.h **** 
   9:lvgl/src/widgets/../core/../misc/../font/lv_font.h **** #ifdef __cplusplus
  10:lvgl/src/widgets/../core/../misc/../font/lv_font.h **** extern "C" {
  11:lvgl/src/widgets/../core/../misc/../font/lv_font.h **** #endif
  12:lvgl/src/widgets/../core/../misc/../font/lv_font.h **** 
  13:lvgl/src/widgets/../core/../misc/../font/lv_font.h **** /*********************
  14:lvgl/src/widgets/../core/../misc/../font/lv_font.h ****  *      INCLUDES
  15:lvgl/src/widgets/../core/../misc/../font/lv_font.h ****  *********************/
  16:lvgl/src/widgets/../core/../misc/../font/lv_font.h **** #include "../lv_conf_internal.h"
  17:lvgl/src/widgets/../core/../misc/../font/lv_font.h **** #include <stdint.h>
  18:lvgl/src/widgets/../core/../misc/../font/lv_font.h **** #include <stddef.h>
  19:lvgl/src/widgets/../core/../misc/../font/lv_font.h **** #include <stdbool.h>
  20:lvgl/src/widgets/../core/../misc/../font/lv_font.h **** 
  21:lvgl/src/widgets/../core/../misc/../font/lv_font.h **** #include "lv_symbol_def.h"
  22:lvgl/src/widgets/../core/../misc/../font/lv_font.h **** #include "../misc/lv_area.h"
  23:lvgl/src/widgets/../core/../misc/../font/lv_font.h **** 
  24:lvgl/src/widgets/../core/../misc/../font/lv_font.h **** /*********************
  25:lvgl/src/widgets/../core/../misc/../font/lv_font.h ****  *      DEFINES
  26:lvgl/src/widgets/../core/../misc/../font/lv_font.h ****  *********************/
  27:lvgl/src/widgets/../core/../misc/../font/lv_font.h **** 
  28:lvgl/src/widgets/../core/../misc/../font/lv_font.h **** /* imgfont identifier */
  29:lvgl/src/widgets/../core/../misc/../font/lv_font.h **** #define LV_IMGFONT_BPP 9
ARM GAS  /var/folders/21/t9g5rlb91ys800n5npymflf80000gn/T//ccNiYEm1.s 			page 19


  30:lvgl/src/widgets/../core/../misc/../font/lv_font.h **** 
  31:lvgl/src/widgets/../core/../misc/../font/lv_font.h **** /**********************
  32:lvgl/src/widgets/../core/../misc/../font/lv_font.h ****  *      TYPEDEFS
  33:lvgl/src/widgets/../core/../misc/../font/lv_font.h ****  **********************/
  34:lvgl/src/widgets/../core/../misc/../font/lv_font.h **** 
  35:lvgl/src/widgets/../core/../misc/../font/lv_font.h **** /*------------------
  36:lvgl/src/widgets/../core/../misc/../font/lv_font.h ****  * General types
  37:lvgl/src/widgets/../core/../misc/../font/lv_font.h ****  *-----------------*/
  38:lvgl/src/widgets/../core/../misc/../font/lv_font.h **** 
  39:lvgl/src/widgets/../core/../misc/../font/lv_font.h **** struct _lv_font_t;
  40:lvgl/src/widgets/../core/../misc/../font/lv_font.h **** /** Describes the properties of a glyph.*/
  41:lvgl/src/widgets/../core/../misc/../font/lv_font.h **** typedef struct {
  42:lvgl/src/widgets/../core/../misc/../font/lv_font.h ****     const struct _lv_font_t *
  43:lvgl/src/widgets/../core/../misc/../font/lv_font.h ****         resolved_font; /**< Pointer to a font where the glyph was actually found after handling fal
  44:lvgl/src/widgets/../core/../misc/../font/lv_font.h ****     uint16_t adv_w; /**< The glyph needs this space. Draw the next glyph after this width.*/
  45:lvgl/src/widgets/../core/../misc/../font/lv_font.h ****     uint16_t box_w; /**< Width of the glyph's bounding box*/
  46:lvgl/src/widgets/../core/../misc/../font/lv_font.h ****     uint16_t box_h; /**< Height of the glyph's bounding box*/
  47:lvgl/src/widgets/../core/../misc/../font/lv_font.h ****     int16_t ofs_x;  /**< x offset of the bounding box*/
  48:lvgl/src/widgets/../core/../misc/../font/lv_font.h ****     int16_t ofs_y;  /**< y offset of the bounding box*/
  49:lvgl/src/widgets/../core/../misc/../font/lv_font.h ****     uint8_t bpp: 4;  /**< Bit-per-pixel: 1, 2, 4, 8*/
  50:lvgl/src/widgets/../core/../misc/../font/lv_font.h ****     uint8_t is_placeholder: 1; /** Glyph is missing. But placeholder will still be displayed */
  51:lvgl/src/widgets/../core/../misc/../font/lv_font.h **** } lv_font_glyph_dsc_t;
  52:lvgl/src/widgets/../core/../misc/../font/lv_font.h **** 
  53:lvgl/src/widgets/../core/../misc/../font/lv_font.h **** /** The bitmaps might be upscaled by 3 to achieve subpixel rendering.*/
  54:lvgl/src/widgets/../core/../misc/../font/lv_font.h **** enum {
  55:lvgl/src/widgets/../core/../misc/../font/lv_font.h ****     LV_FONT_SUBPX_NONE,
  56:lvgl/src/widgets/../core/../misc/../font/lv_font.h ****     LV_FONT_SUBPX_HOR,
  57:lvgl/src/widgets/../core/../misc/../font/lv_font.h ****     LV_FONT_SUBPX_VER,
  58:lvgl/src/widgets/../core/../misc/../font/lv_font.h ****     LV_FONT_SUBPX_BOTH,
  59:lvgl/src/widgets/../core/../misc/../font/lv_font.h **** };
  60:lvgl/src/widgets/../core/../misc/../font/lv_font.h **** 
  61:lvgl/src/widgets/../core/../misc/../font/lv_font.h **** typedef uint8_t lv_font_subpx_t;
  62:lvgl/src/widgets/../core/../misc/../font/lv_font.h **** 
  63:lvgl/src/widgets/../core/../misc/../font/lv_font.h **** /** Describe the properties of a font*/
  64:lvgl/src/widgets/../core/../misc/../font/lv_font.h **** typedef struct _lv_font_t {
  65:lvgl/src/widgets/../core/../misc/../font/lv_font.h ****     /** Get a glyph's descriptor from a font*/
  66:lvgl/src/widgets/../core/../misc/../font/lv_font.h ****     bool (*get_glyph_dsc)(const struct _lv_font_t *, lv_font_glyph_dsc_t *, uint32_t letter, uint32
  67:lvgl/src/widgets/../core/../misc/../font/lv_font.h **** 
  68:lvgl/src/widgets/../core/../misc/../font/lv_font.h ****     /** Get a glyph's bitmap from a font*/
  69:lvgl/src/widgets/../core/../misc/../font/lv_font.h ****     const uint8_t * (*get_glyph_bitmap)(const struct _lv_font_t *, uint32_t);
  70:lvgl/src/widgets/../core/../misc/../font/lv_font.h **** 
  71:lvgl/src/widgets/../core/../misc/../font/lv_font.h ****     /*Pointer to the font in a font pack (must have the same line height)*/
  72:lvgl/src/widgets/../core/../misc/../font/lv_font.h ****     lv_coord_t line_height;         /**< The real line height where any text fits*/
  73:lvgl/src/widgets/../core/../misc/../font/lv_font.h ****     lv_coord_t base_line;           /**< Base line measured from the top of the line_height*/
  74:lvgl/src/widgets/../core/../misc/../font/lv_font.h ****     uint8_t subpx  : 2;             /**< An element of `lv_font_subpx_t`*/
  75:lvgl/src/widgets/../core/../misc/../font/lv_font.h **** 
  76:lvgl/src/widgets/../core/../misc/../font/lv_font.h ****     int8_t underline_position;      /**< Distance between the top of the underline and base line (<
  77:lvgl/src/widgets/../core/../misc/../font/lv_font.h ****     int8_t underline_thickness;     /**< Thickness of the underline*/
  78:lvgl/src/widgets/../core/../misc/../font/lv_font.h **** 
  79:lvgl/src/widgets/../core/../misc/../font/lv_font.h ****     const void * dsc;               /**< Store implementation specific or run_time data or caching 
  80:lvgl/src/widgets/../core/../misc/../font/lv_font.h ****     const struct _lv_font_t * fallback;   /**< Fallback font for missing glyph. Resolved recursivel
  81:lvgl/src/widgets/../core/../misc/../font/lv_font.h **** #if LV_USE_USER_DATA
  82:lvgl/src/widgets/../core/../misc/../font/lv_font.h ****     void * user_data;               /**< Custom user data for font.*/
  83:lvgl/src/widgets/../core/../misc/../font/lv_font.h **** #endif
  84:lvgl/src/widgets/../core/../misc/../font/lv_font.h **** } lv_font_t;
  85:lvgl/src/widgets/../core/../misc/../font/lv_font.h **** 
  86:lvgl/src/widgets/../core/../misc/../font/lv_font.h **** /**********************
ARM GAS  /var/folders/21/t9g5rlb91ys800n5npymflf80000gn/T//ccNiYEm1.s 			page 20


  87:lvgl/src/widgets/../core/../misc/../font/lv_font.h ****  * GLOBAL PROTOTYPES
  88:lvgl/src/widgets/../core/../misc/../font/lv_font.h ****  **********************/
  89:lvgl/src/widgets/../core/../misc/../font/lv_font.h **** 
  90:lvgl/src/widgets/../core/../misc/../font/lv_font.h **** /**
  91:lvgl/src/widgets/../core/../misc/../font/lv_font.h ****  * Return with the bitmap of a font.
  92:lvgl/src/widgets/../core/../misc/../font/lv_font.h ****  * @param font_p pointer to a font
  93:lvgl/src/widgets/../core/../misc/../font/lv_font.h ****  * @param letter a UNICODE character code
  94:lvgl/src/widgets/../core/../misc/../font/lv_font.h ****  * @return pointer to the bitmap of the letter
  95:lvgl/src/widgets/../core/../misc/../font/lv_font.h ****  */
  96:lvgl/src/widgets/../core/../misc/../font/lv_font.h **** const uint8_t * lv_font_get_glyph_bitmap(const lv_font_t * font_p, uint32_t letter);
  97:lvgl/src/widgets/../core/../misc/../font/lv_font.h **** 
  98:lvgl/src/widgets/../core/../misc/../font/lv_font.h **** /**
  99:lvgl/src/widgets/../core/../misc/../font/lv_font.h ****  * Get the descriptor of a glyph
 100:lvgl/src/widgets/../core/../misc/../font/lv_font.h ****  * @param font_p pointer to font
 101:lvgl/src/widgets/../core/../misc/../font/lv_font.h ****  * @param dsc_out store the result descriptor here
 102:lvgl/src/widgets/../core/../misc/../font/lv_font.h ****  * @param letter a UNICODE letter code
 103:lvgl/src/widgets/../core/../misc/../font/lv_font.h ****  * @param letter_next the next letter after `letter`. Used for kerning
 104:lvgl/src/widgets/../core/../misc/../font/lv_font.h ****  * @return true: descriptor is successfully loaded into `dsc_out`.
 105:lvgl/src/widgets/../core/../misc/../font/lv_font.h ****  *         false: the letter was not found, no data is loaded to `dsc_out`
 106:lvgl/src/widgets/../core/../misc/../font/lv_font.h ****  */
 107:lvgl/src/widgets/../core/../misc/../font/lv_font.h **** bool lv_font_get_glyph_dsc(const lv_font_t * font_p, lv_font_glyph_dsc_t * dsc_out, uint32_t letter
 108:lvgl/src/widgets/../core/../misc/../font/lv_font.h ****                            uint32_t letter_next);
 109:lvgl/src/widgets/../core/../misc/../font/lv_font.h **** 
 110:lvgl/src/widgets/../core/../misc/../font/lv_font.h **** /**
 111:lvgl/src/widgets/../core/../misc/../font/lv_font.h ****  * Get the width of a glyph with kerning
 112:lvgl/src/widgets/../core/../misc/../font/lv_font.h ****  * @param font pointer to a font
 113:lvgl/src/widgets/../core/../misc/../font/lv_font.h ****  * @param letter a UNICODE letter
 114:lvgl/src/widgets/../core/../misc/../font/lv_font.h ****  * @param letter_next the next letter after `letter`. Used for kerning
 115:lvgl/src/widgets/../core/../misc/../font/lv_font.h ****  * @return the width of the glyph
 116:lvgl/src/widgets/../core/../misc/../font/lv_font.h ****  */
 117:lvgl/src/widgets/../core/../misc/../font/lv_font.h **** uint16_t lv_font_get_glyph_width(const lv_font_t * font, uint32_t letter, uint32_t letter_next);
 118:lvgl/src/widgets/../core/../misc/../font/lv_font.h **** 
 119:lvgl/src/widgets/../core/../misc/../font/lv_font.h **** /**
 120:lvgl/src/widgets/../core/../misc/../font/lv_font.h ****  * Get the line height of a font. All characters fit into this height
 121:lvgl/src/widgets/../core/../misc/../font/lv_font.h ****  * @param font_p pointer to a font
 122:lvgl/src/widgets/../core/../misc/../font/lv_font.h ****  * @return the height of a font
 123:lvgl/src/widgets/../core/../misc/../font/lv_font.h ****  */
 124:lvgl/src/widgets/../core/../misc/../font/lv_font.h **** static inline lv_coord_t lv_font_get_line_height(const lv_font_t * font_p)
  69              		.loc 2 124 26 view .LVU5
  70              	.LBB120:
 125:lvgl/src/widgets/../core/../misc/../font/lv_font.h **** {
 126:lvgl/src/widgets/../core/../misc/../font/lv_font.h ****     return font_p->line_height;
  71              		.loc 2 126 5 view .LVU6
  72              		.loc 2 126 18 is_stmt 0 view .LVU7
  73 0028 B2F90870 		ldrsh	r7, [r2, #8]
  74              	.LVL3:
  75              		.loc 2 126 18 view .LVU8
  76              	.LBE120:
  77              	.LBE119:
  78              		.loc 1 930 54 view .LVU9
  79 002c 1FFA8BF2 		uxth	r2, fp
  80              	.LVL4:
  81              		.loc 1 930 54 view .LVU10
  82 0030 0892     		str	r2, [sp, #32]
  83 0032 12FA87F7 		uxtah	r7, r2, r7
  84              		.loc 1 930 65 view .LVU11
  85 0036 9BB2     		uxth	r3, r3
ARM GAS  /var/folders/21/t9g5rlb91ys800n5npymflf80000gn/T//ccNiYEm1.s 			page 21


  86 0038 0993     		str	r3, [sp, #36]
  87 003a 13FA87F7 		uxtah	r7, r3, r7
  88              		.loc 1 930 16 view .LVU12
  89 003e 3FB2     		sxth	r7, r7
  90              	.LVL5:
 931:lvgl/src/widgets/lv_table.c ****     /* Calculate the cell_data index where to start */
 932:lvgl/src/widgets/lv_table.c ****     uint16_t row_start = row_id * table->col_cnt;
  91              		.loc 1 932 5 is_stmt 1 view .LVU13
  92              		.loc 1 932 40 is_stmt 0 view .LVU14
  93 0040 B0F82490 		ldrh	r9, [r0, #36]
  94              		.loc 1 932 14 view .LVU15
  95 0044 19FB01F9 		smulbb	r9, r9, r1
  96 0048 1FFA89F9 		uxth	r9, r9
  97              	.LVL6:
 933:lvgl/src/widgets/lv_table.c **** 
 934:lvgl/src/widgets/lv_table.c ****     /* Traverse the cells in the row_id row */
 935:lvgl/src/widgets/lv_table.c ****     uint16_t cell;
  98              		.loc 1 935 5 is_stmt 1 view .LVU16
 936:lvgl/src/widgets/lv_table.c ****     uint16_t col;
  99              		.loc 1 936 5 view .LVU17
 937:lvgl/src/widgets/lv_table.c ****     for(cell = row_start, col = 0; cell < row_start + table->col_cnt; cell++, col++) {
 100              		.loc 1 937 5 view .LVU18
 101              		.loc 1 937 14 is_stmt 0 view .LVU19
 102 004c 4E46     		mov	r6, r9
 103              		.loc 1 937 31 view .LVU20
 104 004e 0025     		movs	r5, #0
 105              		.loc 1 937 5 view .LVU21
 106 0050 18E0     		b	.L2
 107              	.LVL7:
 108              	.L5:
 109              	.LBB121:
 938:lvgl/src/widgets/lv_table.c ****         lv_table_cell_t * cell_data = table->cell_data[cell];
 939:lvgl/src/widgets/lv_table.c **** 
 940:lvgl/src/widgets/lv_table.c ****         if(is_cell_empty(cell_data)) {
 941:lvgl/src/widgets/lv_table.c ****             continue;
 942:lvgl/src/widgets/lv_table.c ****         }
 943:lvgl/src/widgets/lv_table.c **** 
 944:lvgl/src/widgets/lv_table.c ****         lv_coord_t txt_w = table->col_w[col];
 945:lvgl/src/widgets/lv_table.c **** 
 946:lvgl/src/widgets/lv_table.c ****         /* Traverse the current row from the first until the penultimate column.
 947:lvgl/src/widgets/lv_table.c ****          * Increment the text width if the cell has the LV_TABLE_CELL_CTRL_MERGE_RIGHT control,
 948:lvgl/src/widgets/lv_table.c ****          * exit the traversal when the current cell control is not LV_TABLE_CELL_CTRL_MERGE_RIGHT *
 949:lvgl/src/widgets/lv_table.c ****         uint16_t col_merge = 0;
 950:lvgl/src/widgets/lv_table.c ****         for(col_merge = 0; col_merge + col < table->col_cnt - 1; col_merge++) {
 951:lvgl/src/widgets/lv_table.c ****             lv_table_cell_t * next_cell_data = table->cell_data[cell + col_merge];
 952:lvgl/src/widgets/lv_table.c **** 
 953:lvgl/src/widgets/lv_table.c ****             if(is_cell_empty(next_cell_data)) break;
 954:lvgl/src/widgets/lv_table.c **** 
 955:lvgl/src/widgets/lv_table.c ****             lv_table_cell_ctrl_t ctrl = (lv_table_cell_ctrl_t) next_cell_data->ctrl;
 956:lvgl/src/widgets/lv_table.c ****             if(ctrl & LV_TABLE_CELL_CTRL_MERGE_RIGHT) {
 957:lvgl/src/widgets/lv_table.c ****                 txt_w += table->col_w[col + col_merge + 1];
 958:lvgl/src/widgets/lv_table.c ****             }
 959:lvgl/src/widgets/lv_table.c ****             else {
 960:lvgl/src/widgets/lv_table.c ****                 break;
 961:lvgl/src/widgets/lv_table.c ****             }
 962:lvgl/src/widgets/lv_table.c ****         }
 963:lvgl/src/widgets/lv_table.c **** 
ARM GAS  /var/folders/21/t9g5rlb91ys800n5npymflf80000gn/T//ccNiYEm1.s 			page 22


 964:lvgl/src/widgets/lv_table.c ****         lv_table_cell_ctrl_t ctrl = (lv_table_cell_ctrl_t) cell_data->ctrl;
 110              		.loc 1 964 30 view .LVU22
 111 0052 059E     		ldr	r6, [sp, #20]
 112              		.loc 1 964 9 is_stmt 1 view .LVU23
 113              		.loc 1 964 30 is_stmt 0 view .LVU24
 114 0054 0278     		ldrb	r2, [r0]	@ zero_extendqisi2
 115              	.LVL8:
 965:lvgl/src/widgets/lv_table.c **** 
 966:lvgl/src/widgets/lv_table.c ****         /*When cropping the text we can assume the row height is equal to the line height*/
 967:lvgl/src/widgets/lv_table.c ****         if(ctrl & LV_TABLE_CELL_CTRL_TEXT_CROP) {
 116              		.loc 1 967 9 is_stmt 1 view .LVU25
 117              		.loc 1 967 11 is_stmt 0 view .LVU26
 118 0056 12F0020F 		tst	r2, #2
 119 005a 3DD0     		beq	.L7
 968:lvgl/src/widgets/lv_table.c ****             h_max = LV_MAX(lv_font_get_line_height(font) + cell_top + cell_bottom,
 120              		.loc 1 968 13 is_stmt 1 view .LVU27
 121              	.LVL9:
 122              	.LBB122:
 123              	.LBI122:
 124:lvgl/src/widgets/../core/../misc/../font/lv_font.h **** {
 124              		.loc 2 124 26 view .LVU28
 125              	.LBB123:
 126              		.loc 2 126 5 view .LVU29
 127              		.loc 2 126 18 is_stmt 0 view .LVU30
 128 005c 069B     		ldr	r3, [sp, #24]
 129              	.LVL10:
 130              		.loc 2 126 18 view .LVU31
 131 005e B3F90830 		ldrsh	r3, [r3, #8]
 132              	.LVL11:
 133              		.loc 2 126 18 view .LVU32
 134              	.LBE123:
 135              	.LBE122:
 136              		.loc 1 968 21 view .LVU33
 137 0062 0BEB0302 		add	r2, fp, r3
 138 0066 0799     		ldr	r1, [sp, #28]
 139 0068 0A44     		add	r2, r2, r1
 140              		.loc 1 968 19 view .LVU34
 141 006a BA42     		cmp	r2, r7
 142 006c 06DD     		ble	.L3
 143              		.loc 1 968 21 view .LVU35
 144 006e 089A     		ldr	r2, [sp, #32]
 145 0070 12FA83F3 		uxtah	r3, r2, r3
 146 0074 099A     		ldr	r2, [sp, #36]
 147 0076 12FA83F3 		uxtah	r3, r2, r3
 148              		.loc 1 968 19 view .LVU36
 149 007a 1FB2     		sxth	r7, r3
 150              	.LVL12:
 151              	.L3:
 152              		.loc 1 968 19 view .LVU37
 153              	.LBE121:
 937:lvgl/src/widgets/lv_table.c ****         lv_table_cell_t * cell_data = table->cell_data[cell];
 154              		.loc 1 937 77 is_stmt 1 discriminator 2 view .LVU38
 937:lvgl/src/widgets/lv_table.c ****         lv_table_cell_t * cell_data = table->cell_data[cell];
 155              		.loc 1 937 75 is_stmt 0 discriminator 2 view .LVU39
 156 007c 0136     		adds	r6, r6, #1
 157              	.LVL13:
 937:lvgl/src/widgets/lv_table.c ****         lv_table_cell_t * cell_data = table->cell_data[cell];
ARM GAS  /var/folders/21/t9g5rlb91ys800n5npymflf80000gn/T//ccNiYEm1.s 			page 23


 158              		.loc 1 937 75 discriminator 2 view .LVU40
 159 007e B6B2     		uxth	r6, r6
 160              	.LVL14:
 937:lvgl/src/widgets/lv_table.c ****         lv_table_cell_t * cell_data = table->cell_data[cell];
 161              		.loc 1 937 82 discriminator 2 view .LVU41
 162 0080 0135     		adds	r5, r5, #1
 163              	.LVL15:
 937:lvgl/src/widgets/lv_table.c ****         lv_table_cell_t * cell_data = table->cell_data[cell];
 164              		.loc 1 937 82 discriminator 2 view .LVU42
 165 0082 ADB2     		uxth	r5, r5
 166              	.LVL16:
 167              	.L2:
 937:lvgl/src/widgets/lv_table.c ****         lv_table_cell_t * cell_data = table->cell_data[cell];
 168              		.loc 1 937 41 is_stmt 1 discriminator 1 view .LVU43
 169 0084 B646     		mov	lr, r6
 937:lvgl/src/widgets/lv_table.c ****         lv_table_cell_t * cell_data = table->cell_data[cell];
 170              		.loc 1 937 60 is_stmt 0 discriminator 1 view .LVU44
 171 0086 B8F824C0 		ldrh	ip, [r8, #36]
 937:lvgl/src/widgets/lv_table.c ****         lv_table_cell_t * cell_data = table->cell_data[cell];
 172              		.loc 1 937 53 discriminator 1 view .LVU45
 173 008a 09EB0C03 		add	r3, r9, ip
 937:lvgl/src/widgets/lv_table.c ****         lv_table_cell_t * cell_data = table->cell_data[cell];
 174              		.loc 1 937 41 discriminator 1 view .LVU46
 175 008e 9E42     		cmp	r6, r3
 176 0090 42DA     		bge	.L10
 177              	.LBB126:
 938:lvgl/src/widgets/lv_table.c **** 
 178              		.loc 1 938 9 is_stmt 1 view .LVU47
 938:lvgl/src/widgets/lv_table.c **** 
 179              		.loc 1 938 44 is_stmt 0 view .LVU48
 180 0092 D8F82810 		ldr	r1, [r8, #40]
 938:lvgl/src/widgets/lv_table.c **** 
 181              		.loc 1 938 27 view .LVU49
 182 0096 51F82600 		ldr	r0, [r1, r6, lsl #2]
 183              	.LVL17:
 940:lvgl/src/widgets/lv_table.c ****             continue;
 184              		.loc 1 940 9 is_stmt 1 view .LVU50
 940:lvgl/src/widgets/lv_table.c ****             continue;
 185              		.loc 1 940 11 is_stmt 0 view .LVU51
 186 009a 0028     		cmp	r0, #0
 187 009c EED0     		beq	.L3
 944:lvgl/src/widgets/lv_table.c **** 
 188              		.loc 1 944 9 is_stmt 1 view .LVU52
 944:lvgl/src/widgets/lv_table.c **** 
 189              		.loc 1 944 33 is_stmt 0 view .LVU53
 190 009e D8F830A0 		ldr	r10, [r8, #48]
 944:lvgl/src/widgets/lv_table.c **** 
 191              		.loc 1 944 20 view .LVU54
 192 00a2 3AF91530 		ldrsh	r3, [r10, r5, lsl #1]
 193              	.LVL18:
 949:lvgl/src/widgets/lv_table.c ****         for(col_merge = 0; col_merge + col < table->col_cnt - 1; col_merge++) {
 194              		.loc 1 949 9 is_stmt 1 view .LVU55
 950:lvgl/src/widgets/lv_table.c ****             lv_table_cell_t * next_cell_data = table->cell_data[cell + col_merge];
 195              		.loc 1 950 9 view .LVU56
 950:lvgl/src/widgets/lv_table.c ****             lv_table_cell_t * next_cell_data = table->cell_data[cell + col_merge];
 196              		.loc 1 950 23 is_stmt 0 view .LVU57
 197 00a6 0024     		movs	r4, #0
ARM GAS  /var/folders/21/t9g5rlb91ys800n5npymflf80000gn/T//ccNiYEm1.s 			page 24


 198 00a8 0596     		str	r6, [sp, #20]
 199              	.LVL19:
 200              	.L4:
 950:lvgl/src/widgets/lv_table.c ****             lv_table_cell_t * next_cell_data = table->cell_data[cell + col_merge];
 201              		.loc 1 950 44 is_stmt 1 discriminator 1 view .LVU58
 950:lvgl/src/widgets/lv_table.c ****             lv_table_cell_t * next_cell_data = table->cell_data[cell + col_merge];
 202              		.loc 1 950 38 is_stmt 0 discriminator 1 view .LVU59
 203 00aa 2A19     		adds	r2, r5, r4
 950:lvgl/src/widgets/lv_table.c ****             lv_table_cell_t * next_cell_data = table->cell_data[cell + col_merge];
 204              		.loc 1 950 61 discriminator 1 view .LVU60
 205 00ac 0CF1FF36 		add	r6, ip, #-1
 950:lvgl/src/widgets/lv_table.c ****             lv_table_cell_t * next_cell_data = table->cell_data[cell + col_merge];
 206              		.loc 1 950 44 discriminator 1 view .LVU61
 207 00b0 B242     		cmp	r2, r6
 208 00b2 CEDA     		bge	.L5
 209              	.LBB124:
 951:lvgl/src/widgets/lv_table.c **** 
 210              		.loc 1 951 13 is_stmt 1 view .LVU62
 951:lvgl/src/widgets/lv_table.c **** 
 211              		.loc 1 951 70 is_stmt 0 view .LVU63
 212 00b4 04EB0E06 		add	r6, r4, lr
 951:lvgl/src/widgets/lv_table.c **** 
 213              		.loc 1 951 31 view .LVU64
 214 00b8 51F82660 		ldr	r6, [r1, r6, lsl #2]
 215              	.LVL20:
 953:lvgl/src/widgets/lv_table.c **** 
 216              		.loc 1 953 13 is_stmt 1 view .LVU65
 953:lvgl/src/widgets/lv_table.c **** 
 217              		.loc 1 953 15 is_stmt 0 view .LVU66
 218 00bc 002E     		cmp	r6, #0
 219 00be C8D0     		beq	.L5
 955:lvgl/src/widgets/lv_table.c ****             if(ctrl & LV_TABLE_CELL_CTRL_MERGE_RIGHT) {
 220              		.loc 1 955 13 is_stmt 1 view .LVU67
 955:lvgl/src/widgets/lv_table.c ****             if(ctrl & LV_TABLE_CELL_CTRL_MERGE_RIGHT) {
 221              		.loc 1 955 34 is_stmt 0 view .LVU68
 222 00c0 3678     		ldrb	r6, [r6]	@ zero_extendqisi2
 223              	.LVL21:
 956:lvgl/src/widgets/lv_table.c ****                 txt_w += table->col_w[col + col_merge + 1];
 224              		.loc 1 956 13 is_stmt 1 view .LVU69
 956:lvgl/src/widgets/lv_table.c ****                 txt_w += table->col_w[col + col_merge + 1];
 225              		.loc 1 956 15 is_stmt 0 view .LVU70
 226 00c2 16F0010F 		tst	r6, #1
 227 00c6 C4D0     		beq	.L5
 957:lvgl/src/widgets/lv_table.c ****             }
 228              		.loc 1 957 17 is_stmt 1 discriminator 2 view .LVU71
 957:lvgl/src/widgets/lv_table.c ****             }
 229              		.loc 1 957 38 is_stmt 0 discriminator 2 view .LVU72
 230 00c8 0132     		adds	r2, r2, #1
 231 00ca 3AF81220 		ldrh	r2, [r10, r2, lsl #1]
 957:lvgl/src/widgets/lv_table.c ****             }
 232              		.loc 1 957 23 discriminator 2 view .LVU73
 233 00ce 1344     		add	r3, r3, r2
 234              	.LVL22:
 957:lvgl/src/widgets/lv_table.c ****             }
 235              		.loc 1 957 23 discriminator 2 view .LVU74
 236 00d0 1BB2     		sxth	r3, r3
 237              	.LVL23:
ARM GAS  /var/folders/21/t9g5rlb91ys800n5npymflf80000gn/T//ccNiYEm1.s 			page 25


 957:lvgl/src/widgets/lv_table.c ****             }
 238              		.loc 1 957 23 discriminator 2 view .LVU75
 239              	.LBE124:
 950:lvgl/src/widgets/lv_table.c ****             lv_table_cell_t * next_cell_data = table->cell_data[cell + col_merge];
 240              		.loc 1 950 75 is_stmt 1 discriminator 2 view .LVU76
 241 00d2 0134     		adds	r4, r4, #1
 242              	.LVL24:
 950:lvgl/src/widgets/lv_table.c ****             lv_table_cell_t * next_cell_data = table->cell_data[cell + col_merge];
 243              		.loc 1 950 75 is_stmt 0 discriminator 2 view .LVU77
 244 00d4 A4B2     		uxth	r4, r4
 245              	.LVL25:
 950:lvgl/src/widgets/lv_table.c ****             lv_table_cell_t * next_cell_data = table->cell_data[cell + col_merge];
 246              		.loc 1 950 75 discriminator 2 view .LVU78
 247 00d6 E8E7     		b	.L4
 248              	.LVL26:
 249              	.L7:
 250              	.LBB125:
 969:lvgl/src/widgets/lv_table.c ****                            h_max);
 970:lvgl/src/widgets/lv_table.c ****         }
 971:lvgl/src/widgets/lv_table.c ****         /*Else we have to calculate the height of the cell text*/
 972:lvgl/src/widgets/lv_table.c ****         else {
 973:lvgl/src/widgets/lv_table.c ****             lv_point_t txt_size;
 251              		.loc 1 973 13 is_stmt 1 view .LVU79
 974:lvgl/src/widgets/lv_table.c ****             txt_w -= cell_left + cell_right;
 252              		.loc 1 974 13 view .LVU80
 253              		.loc 1 974 32 is_stmt 0 view .LVU81
 254 00d8 0C9A     		ldr	r2, [sp, #48]
 255 00da 0D99     		ldr	r1, [sp, #52]
 256 00dc 0A44     		add	r2, r2, r1
 257 00de 92B2     		uxth	r2, r2
 258              		.loc 1 974 19 view .LVU82
 259 00e0 9B1A     		subs	r3, r3, r2
 260              	.LVL27:
 261              		.loc 1 974 19 view .LVU83
 262 00e2 1BB2     		sxth	r3, r3
 263              	.LVL28:
 975:lvgl/src/widgets/lv_table.c **** 
 976:lvgl/src/widgets/lv_table.c ****             lv_txt_get_size(&txt_size, table->cell_data[cell]->txt, font,
 264              		.loc 1 976 13 is_stmt 1 view .LVU84
 265 00e4 0022     		movs	r2, #0
 266 00e6 0292     		str	r2, [sp, #8]
 267              	.LVL29:
 268              		.loc 1 976 13 is_stmt 0 view .LVU85
 269 00e8 0193     		str	r3, [sp, #4]
 270 00ea 0B9B     		ldr	r3, [sp, #44]
 271              	.LVL30:
 272              		.loc 1 976 13 view .LVU86
 273 00ec 0093     		str	r3, [sp]
 274 00ee 0A9B     		ldr	r3, [sp, #40]
 275 00f0 069A     		ldr	r2, [sp, #24]
 276 00f2 00F10801 		add	r1, r0, #8
 277 00f6 0FA8     		add	r0, sp, #60
 278              	.LVL31:
 279              		.loc 1 976 13 view .LVU87
 280 00f8 FFF7FEFF 		bl	lv_txt_get_size
 281              	.LVL32:
 977:lvgl/src/widgets/lv_table.c ****                             letter_space, line_space, txt_w, LV_TEXT_FLAG_NONE);
ARM GAS  /var/folders/21/t9g5rlb91ys800n5npymflf80000gn/T//ccNiYEm1.s 			page 26


 978:lvgl/src/widgets/lv_table.c **** 
 979:lvgl/src/widgets/lv_table.c ****             h_max = LV_MAX(txt_size.y + cell_top + cell_bottom, h_max);
 282              		.loc 1 979 13 is_stmt 1 view .LVU88
 283              		.loc 1 979 21 is_stmt 0 view .LVU89
 284 00fc BDF93E30 		ldrsh	r3, [sp, #62]
 285 0100 5B44     		add	r3, r3, fp
 286 0102 079A     		ldr	r2, [sp, #28]
 287 0104 1344     		add	r3, r3, r2
 288 0106 BB42     		cmp	r3, r7
 289 0108 B8BF     		it	lt
 290 010a 3B46     		movlt	r3, r7
 291              		.loc 1 979 19 view .LVU90
 292 010c 1FB2     		sxth	r7, r3
 293              	.LVL33:
 980:lvgl/src/widgets/lv_table.c ****             /*Skip until one element after the last merged column*/
 981:lvgl/src/widgets/lv_table.c ****             cell += col_merge;
 294              		.loc 1 981 13 is_stmt 1 view .LVU91
 295              		.loc 1 981 18 is_stmt 0 view .LVU92
 296 010e 2644     		add	r6, r6, r4
 297 0110 B6B2     		uxth	r6, r6
 298              	.LVL34:
 982:lvgl/src/widgets/lv_table.c ****             col += col_merge;
 299              		.loc 1 982 13 is_stmt 1 view .LVU93
 300              		.loc 1 982 17 is_stmt 0 view .LVU94
 301 0112 2C44     		add	r4, r4, r5
 302              	.LVL35:
 303              		.loc 1 982 17 view .LVU95
 304 0114 A5B2     		uxth	r5, r4
 305              	.LVL36:
 306              		.loc 1 982 17 view .LVU96
 307 0116 B1E7     		b	.L3
 308              	.LVL37:
 309              	.L10:
 310              		.loc 1 982 17 view .LVU97
 311              	.LBE125:
 312              	.LBE126:
 983:lvgl/src/widgets/lv_table.c ****         }
 984:lvgl/src/widgets/lv_table.c ****     }
 985:lvgl/src/widgets/lv_table.c **** 
 986:lvgl/src/widgets/lv_table.c ****     return h_max;
 313              		.loc 1 986 5 is_stmt 1 view .LVU98
 987:lvgl/src/widgets/lv_table.c **** }
 314              		.loc 1 987 1 is_stmt 0 view .LVU99
 315 0118 3846     		mov	r0, r7
 316 011a 11B0     		add	sp, sp, #68
 317              	.LCFI2:
 318              		.cfi_def_cfa_offset 36
 319              		@ sp needed
 320 011c BDE8F08F 		pop	{r4, r5, r6, r7, r8, r9, r10, fp, pc}
 321              		.loc 1 987 1 view .LVU100
 322              		.cfi_endproc
 323              	.LFE184:
 325              		.section	.text.refr_size_form_row,"ax",%progbits
 326              		.align	1
 327              		.syntax unified
 328              		.thumb
 329              		.thumb_func
ARM GAS  /var/folders/21/t9g5rlb91ys800n5npymflf80000gn/T//ccNiYEm1.s 			page 27


 331              	refr_size_form_row:
 332              	.LVL38:
 333              	.LFB182:
 865:lvgl/src/widgets/lv_table.c ****     const lv_coord_t cell_pad_left = lv_obj_get_style_pad_left(obj, LV_PART_ITEMS);
 334              		.loc 1 865 1 is_stmt 1 view -0
 335              		.cfi_startproc
 336              		@ args = 0, pretend = 0, frame = 16
 337              		@ frame_needed = 0, uses_anonymous_args = 0
 865:lvgl/src/widgets/lv_table.c ****     const lv_coord_t cell_pad_left = lv_obj_get_style_pad_left(obj, LV_PART_ITEMS);
 338              		.loc 1 865 1 is_stmt 0 view .LVU102
 339 0000 2DE9F04F 		push	{r4, r5, r6, r7, r8, r9, r10, fp, lr}
 340              	.LCFI3:
 341              		.cfi_def_cfa_offset 36
 342              		.cfi_offset 4, -36
 343              		.cfi_offset 5, -32
 344              		.cfi_offset 6, -28
 345              		.cfi_offset 7, -24
 346              		.cfi_offset 8, -20
 347              		.cfi_offset 9, -16
 348              		.cfi_offset 10, -12
 349              		.cfi_offset 11, -8
 350              		.cfi_offset 14, -4
 351 0004 8BB0     		sub	sp, sp, #44
 352              	.LCFI4:
 353              		.cfi_def_cfa_offset 80
 354 0006 0546     		mov	r5, r0
 355 0008 0C46     		mov	r4, r1
 866:lvgl/src/widgets/lv_table.c ****     const lv_coord_t cell_pad_right = lv_obj_get_style_pad_right(obj, LV_PART_ITEMS);
 356              		.loc 1 866 5 is_stmt 1 view .LVU103
 357              	.LVL39:
 358              	.LBB127:
 359              	.LBI127:
 360              		.file 3 "lvgl/src/widgets/../core/lv_obj_style_gen.h"
   1:lvgl/src/widgets/../core/lv_obj_style_gen.h **** static inline lv_coord_t lv_obj_get_style_width(const struct _lv_obj_t * obj, uint32_t part)
   2:lvgl/src/widgets/../core/lv_obj_style_gen.h **** {
   3:lvgl/src/widgets/../core/lv_obj_style_gen.h ****     lv_style_value_t v = lv_obj_get_style_prop(obj, part, LV_STYLE_WIDTH);
   4:lvgl/src/widgets/../core/lv_obj_style_gen.h ****     return (lv_coord_t)v.num;
   5:lvgl/src/widgets/../core/lv_obj_style_gen.h **** }
   6:lvgl/src/widgets/../core/lv_obj_style_gen.h **** 
   7:lvgl/src/widgets/../core/lv_obj_style_gen.h **** static inline lv_coord_t lv_obj_get_style_min_width(const struct _lv_obj_t * obj, uint32_t part)
   8:lvgl/src/widgets/../core/lv_obj_style_gen.h **** {
   9:lvgl/src/widgets/../core/lv_obj_style_gen.h ****     lv_style_value_t v = lv_obj_get_style_prop(obj, part, LV_STYLE_MIN_WIDTH);
  10:lvgl/src/widgets/../core/lv_obj_style_gen.h ****     return (lv_coord_t)v.num;
  11:lvgl/src/widgets/../core/lv_obj_style_gen.h **** }
  12:lvgl/src/widgets/../core/lv_obj_style_gen.h **** 
  13:lvgl/src/widgets/../core/lv_obj_style_gen.h **** static inline lv_coord_t lv_obj_get_style_max_width(const struct _lv_obj_t * obj, uint32_t part)
  14:lvgl/src/widgets/../core/lv_obj_style_gen.h **** {
  15:lvgl/src/widgets/../core/lv_obj_style_gen.h ****     lv_style_value_t v = lv_obj_get_style_prop(obj, part, LV_STYLE_MAX_WIDTH);
  16:lvgl/src/widgets/../core/lv_obj_style_gen.h ****     return (lv_coord_t)v.num;
  17:lvgl/src/widgets/../core/lv_obj_style_gen.h **** }
  18:lvgl/src/widgets/../core/lv_obj_style_gen.h **** 
  19:lvgl/src/widgets/../core/lv_obj_style_gen.h **** static inline lv_coord_t lv_obj_get_style_height(const struct _lv_obj_t * obj, uint32_t part)
  20:lvgl/src/widgets/../core/lv_obj_style_gen.h **** {
  21:lvgl/src/widgets/../core/lv_obj_style_gen.h ****     lv_style_value_t v = lv_obj_get_style_prop(obj, part, LV_STYLE_HEIGHT);
  22:lvgl/src/widgets/../core/lv_obj_style_gen.h ****     return (lv_coord_t)v.num;
  23:lvgl/src/widgets/../core/lv_obj_style_gen.h **** }
  24:lvgl/src/widgets/../core/lv_obj_style_gen.h **** 
ARM GAS  /var/folders/21/t9g5rlb91ys800n5npymflf80000gn/T//ccNiYEm1.s 			page 28


  25:lvgl/src/widgets/../core/lv_obj_style_gen.h **** static inline lv_coord_t lv_obj_get_style_min_height(const struct _lv_obj_t * obj, uint32_t part)
  26:lvgl/src/widgets/../core/lv_obj_style_gen.h **** {
  27:lvgl/src/widgets/../core/lv_obj_style_gen.h ****     lv_style_value_t v = lv_obj_get_style_prop(obj, part, LV_STYLE_MIN_HEIGHT);
  28:lvgl/src/widgets/../core/lv_obj_style_gen.h ****     return (lv_coord_t)v.num;
  29:lvgl/src/widgets/../core/lv_obj_style_gen.h **** }
  30:lvgl/src/widgets/../core/lv_obj_style_gen.h **** 
  31:lvgl/src/widgets/../core/lv_obj_style_gen.h **** static inline lv_coord_t lv_obj_get_style_max_height(const struct _lv_obj_t * obj, uint32_t part)
  32:lvgl/src/widgets/../core/lv_obj_style_gen.h **** {
  33:lvgl/src/widgets/../core/lv_obj_style_gen.h ****     lv_style_value_t v = lv_obj_get_style_prop(obj, part, LV_STYLE_MAX_HEIGHT);
  34:lvgl/src/widgets/../core/lv_obj_style_gen.h ****     return (lv_coord_t)v.num;
  35:lvgl/src/widgets/../core/lv_obj_style_gen.h **** }
  36:lvgl/src/widgets/../core/lv_obj_style_gen.h **** 
  37:lvgl/src/widgets/../core/lv_obj_style_gen.h **** static inline lv_coord_t lv_obj_get_style_x(const struct _lv_obj_t * obj, uint32_t part)
  38:lvgl/src/widgets/../core/lv_obj_style_gen.h **** {
  39:lvgl/src/widgets/../core/lv_obj_style_gen.h ****     lv_style_value_t v = lv_obj_get_style_prop(obj, part, LV_STYLE_X);
  40:lvgl/src/widgets/../core/lv_obj_style_gen.h ****     return (lv_coord_t)v.num;
  41:lvgl/src/widgets/../core/lv_obj_style_gen.h **** }
  42:lvgl/src/widgets/../core/lv_obj_style_gen.h **** 
  43:lvgl/src/widgets/../core/lv_obj_style_gen.h **** static inline lv_coord_t lv_obj_get_style_y(const struct _lv_obj_t * obj, uint32_t part)
  44:lvgl/src/widgets/../core/lv_obj_style_gen.h **** {
  45:lvgl/src/widgets/../core/lv_obj_style_gen.h ****     lv_style_value_t v = lv_obj_get_style_prop(obj, part, LV_STYLE_Y);
  46:lvgl/src/widgets/../core/lv_obj_style_gen.h ****     return (lv_coord_t)v.num;
  47:lvgl/src/widgets/../core/lv_obj_style_gen.h **** }
  48:lvgl/src/widgets/../core/lv_obj_style_gen.h **** 
  49:lvgl/src/widgets/../core/lv_obj_style_gen.h **** static inline lv_align_t lv_obj_get_style_align(const struct _lv_obj_t * obj, uint32_t part)
  50:lvgl/src/widgets/../core/lv_obj_style_gen.h **** {
  51:lvgl/src/widgets/../core/lv_obj_style_gen.h ****     lv_style_value_t v = lv_obj_get_style_prop(obj, part, LV_STYLE_ALIGN);
  52:lvgl/src/widgets/../core/lv_obj_style_gen.h ****     return (lv_align_t)v.num;
  53:lvgl/src/widgets/../core/lv_obj_style_gen.h **** }
  54:lvgl/src/widgets/../core/lv_obj_style_gen.h **** 
  55:lvgl/src/widgets/../core/lv_obj_style_gen.h **** static inline lv_coord_t lv_obj_get_style_transform_width(const struct _lv_obj_t * obj, uint32_t pa
  56:lvgl/src/widgets/../core/lv_obj_style_gen.h **** {
  57:lvgl/src/widgets/../core/lv_obj_style_gen.h ****     lv_style_value_t v = lv_obj_get_style_prop(obj, part, LV_STYLE_TRANSFORM_WIDTH);
  58:lvgl/src/widgets/../core/lv_obj_style_gen.h ****     return (lv_coord_t)v.num;
  59:lvgl/src/widgets/../core/lv_obj_style_gen.h **** }
  60:lvgl/src/widgets/../core/lv_obj_style_gen.h **** 
  61:lvgl/src/widgets/../core/lv_obj_style_gen.h **** static inline lv_coord_t lv_obj_get_style_transform_height(const struct _lv_obj_t * obj, uint32_t p
  62:lvgl/src/widgets/../core/lv_obj_style_gen.h **** {
  63:lvgl/src/widgets/../core/lv_obj_style_gen.h ****     lv_style_value_t v = lv_obj_get_style_prop(obj, part, LV_STYLE_TRANSFORM_HEIGHT);
  64:lvgl/src/widgets/../core/lv_obj_style_gen.h ****     return (lv_coord_t)v.num;
  65:lvgl/src/widgets/../core/lv_obj_style_gen.h **** }
  66:lvgl/src/widgets/../core/lv_obj_style_gen.h **** 
  67:lvgl/src/widgets/../core/lv_obj_style_gen.h **** static inline lv_coord_t lv_obj_get_style_translate_x(const struct _lv_obj_t * obj, uint32_t part)
  68:lvgl/src/widgets/../core/lv_obj_style_gen.h **** {
  69:lvgl/src/widgets/../core/lv_obj_style_gen.h ****     lv_style_value_t v = lv_obj_get_style_prop(obj, part, LV_STYLE_TRANSLATE_X);
  70:lvgl/src/widgets/../core/lv_obj_style_gen.h ****     return (lv_coord_t)v.num;
  71:lvgl/src/widgets/../core/lv_obj_style_gen.h **** }
  72:lvgl/src/widgets/../core/lv_obj_style_gen.h **** 
  73:lvgl/src/widgets/../core/lv_obj_style_gen.h **** static inline lv_coord_t lv_obj_get_style_translate_y(const struct _lv_obj_t * obj, uint32_t part)
  74:lvgl/src/widgets/../core/lv_obj_style_gen.h **** {
  75:lvgl/src/widgets/../core/lv_obj_style_gen.h ****     lv_style_value_t v = lv_obj_get_style_prop(obj, part, LV_STYLE_TRANSLATE_Y);
  76:lvgl/src/widgets/../core/lv_obj_style_gen.h ****     return (lv_coord_t)v.num;
  77:lvgl/src/widgets/../core/lv_obj_style_gen.h **** }
  78:lvgl/src/widgets/../core/lv_obj_style_gen.h **** 
  79:lvgl/src/widgets/../core/lv_obj_style_gen.h **** static inline lv_coord_t lv_obj_get_style_transform_zoom(const struct _lv_obj_t * obj, uint32_t par
  80:lvgl/src/widgets/../core/lv_obj_style_gen.h **** {
  81:lvgl/src/widgets/../core/lv_obj_style_gen.h ****     lv_style_value_t v = lv_obj_get_style_prop(obj, part, LV_STYLE_TRANSFORM_ZOOM);
ARM GAS  /var/folders/21/t9g5rlb91ys800n5npymflf80000gn/T//ccNiYEm1.s 			page 29


  82:lvgl/src/widgets/../core/lv_obj_style_gen.h ****     return (lv_coord_t)v.num;
  83:lvgl/src/widgets/../core/lv_obj_style_gen.h **** }
  84:lvgl/src/widgets/../core/lv_obj_style_gen.h **** 
  85:lvgl/src/widgets/../core/lv_obj_style_gen.h **** static inline lv_coord_t lv_obj_get_style_transform_angle(const struct _lv_obj_t * obj, uint32_t pa
  86:lvgl/src/widgets/../core/lv_obj_style_gen.h **** {
  87:lvgl/src/widgets/../core/lv_obj_style_gen.h ****     lv_style_value_t v = lv_obj_get_style_prop(obj, part, LV_STYLE_TRANSFORM_ANGLE);
  88:lvgl/src/widgets/../core/lv_obj_style_gen.h ****     return (lv_coord_t)v.num;
  89:lvgl/src/widgets/../core/lv_obj_style_gen.h **** }
  90:lvgl/src/widgets/../core/lv_obj_style_gen.h **** 
  91:lvgl/src/widgets/../core/lv_obj_style_gen.h **** static inline lv_coord_t lv_obj_get_style_transform_pivot_x(const struct _lv_obj_t * obj, uint32_t 
  92:lvgl/src/widgets/../core/lv_obj_style_gen.h **** {
  93:lvgl/src/widgets/../core/lv_obj_style_gen.h ****     lv_style_value_t v = lv_obj_get_style_prop(obj, part, LV_STYLE_TRANSFORM_PIVOT_X);
  94:lvgl/src/widgets/../core/lv_obj_style_gen.h ****     return (lv_coord_t)v.num;
  95:lvgl/src/widgets/../core/lv_obj_style_gen.h **** }
  96:lvgl/src/widgets/../core/lv_obj_style_gen.h **** 
  97:lvgl/src/widgets/../core/lv_obj_style_gen.h **** static inline lv_coord_t lv_obj_get_style_transform_pivot_y(const struct _lv_obj_t * obj, uint32_t 
  98:lvgl/src/widgets/../core/lv_obj_style_gen.h **** {
  99:lvgl/src/widgets/../core/lv_obj_style_gen.h ****     lv_style_value_t v = lv_obj_get_style_prop(obj, part, LV_STYLE_TRANSFORM_PIVOT_Y);
 100:lvgl/src/widgets/../core/lv_obj_style_gen.h ****     return (lv_coord_t)v.num;
 101:lvgl/src/widgets/../core/lv_obj_style_gen.h **** }
 102:lvgl/src/widgets/../core/lv_obj_style_gen.h **** 
 103:lvgl/src/widgets/../core/lv_obj_style_gen.h **** static inline lv_coord_t lv_obj_get_style_pad_top(const struct _lv_obj_t * obj, uint32_t part)
 104:lvgl/src/widgets/../core/lv_obj_style_gen.h **** {
 105:lvgl/src/widgets/../core/lv_obj_style_gen.h ****     lv_style_value_t v = lv_obj_get_style_prop(obj, part, LV_STYLE_PAD_TOP);
 106:lvgl/src/widgets/../core/lv_obj_style_gen.h ****     return (lv_coord_t)v.num;
 107:lvgl/src/widgets/../core/lv_obj_style_gen.h **** }
 108:lvgl/src/widgets/../core/lv_obj_style_gen.h **** 
 109:lvgl/src/widgets/../core/lv_obj_style_gen.h **** static inline lv_coord_t lv_obj_get_style_pad_bottom(const struct _lv_obj_t * obj, uint32_t part)
 110:lvgl/src/widgets/../core/lv_obj_style_gen.h **** {
 111:lvgl/src/widgets/../core/lv_obj_style_gen.h ****     lv_style_value_t v = lv_obj_get_style_prop(obj, part, LV_STYLE_PAD_BOTTOM);
 112:lvgl/src/widgets/../core/lv_obj_style_gen.h ****     return (lv_coord_t)v.num;
 113:lvgl/src/widgets/../core/lv_obj_style_gen.h **** }
 114:lvgl/src/widgets/../core/lv_obj_style_gen.h **** 
 115:lvgl/src/widgets/../core/lv_obj_style_gen.h **** static inline lv_coord_t lv_obj_get_style_pad_left(const struct _lv_obj_t * obj, uint32_t part)
 361              		.loc 3 115 26 view .LVU104
 362              	.LBB128:
 116:lvgl/src/widgets/../core/lv_obj_style_gen.h **** {
 117:lvgl/src/widgets/../core/lv_obj_style_gen.h ****     lv_style_value_t v = lv_obj_get_style_prop(obj, part, LV_STYLE_PAD_LEFT);
 363              		.loc 3 117 5 view .LVU105
 364              		.loc 3 117 26 is_stmt 0 view .LVU106
 365 000a 1222     		movs	r2, #18
 366 000c 4FF4A021 		mov	r1, #327680
 367              	.LVL40:
 368              		.loc 3 117 26 view .LVU107
 369 0010 FFF7FEFF 		bl	lv_obj_get_style_prop
 370              	.LVL41:
 118:lvgl/src/widgets/../core/lv_obj_style_gen.h ****     return (lv_coord_t)v.num;
 371              		.loc 3 118 5 is_stmt 1 view .LVU108
 372              		.loc 3 118 12 is_stmt 0 view .LVU109
 373 0014 0FFA80FB 		sxth	fp, r0
 374              	.LVL42:
 375              		.loc 3 118 12 view .LVU110
 376              	.LBE128:
 377              	.LBE127:
 867:lvgl/src/widgets/lv_table.c ****     const lv_coord_t cell_pad_top = lv_obj_get_style_pad_top(obj, LV_PART_ITEMS);
 378              		.loc 1 867 5 is_stmt 1 view .LVU111
 379              	.LBB129:
ARM GAS  /var/folders/21/t9g5rlb91ys800n5npymflf80000gn/T//ccNiYEm1.s 			page 30


 380              	.LBI129:
 119:lvgl/src/widgets/../core/lv_obj_style_gen.h **** }
 120:lvgl/src/widgets/../core/lv_obj_style_gen.h **** 
 121:lvgl/src/widgets/../core/lv_obj_style_gen.h **** static inline lv_coord_t lv_obj_get_style_pad_right(const struct _lv_obj_t * obj, uint32_t part)
 381              		.loc 3 121 26 view .LVU112
 382              	.LBB130:
 122:lvgl/src/widgets/../core/lv_obj_style_gen.h **** {
 123:lvgl/src/widgets/../core/lv_obj_style_gen.h ****     lv_style_value_t v = lv_obj_get_style_prop(obj, part, LV_STYLE_PAD_RIGHT);
 383              		.loc 3 123 5 view .LVU113
 384              		.loc 3 123 26 is_stmt 0 view .LVU114
 385 0018 1322     		movs	r2, #19
 386 001a 4FF4A021 		mov	r1, #327680
 387 001e 2846     		mov	r0, r5
 388 0020 FFF7FEFF 		bl	lv_obj_get_style_prop
 389              	.LVL43:
 124:lvgl/src/widgets/../core/lv_obj_style_gen.h ****     return (lv_coord_t)v.num;
 390              		.loc 3 124 5 is_stmt 1 view .LVU115
 391              		.loc 3 124 12 is_stmt 0 view .LVU116
 392 0024 0FFA80FA 		sxth	r10, r0
 393              	.LVL44:
 394              		.loc 3 124 12 view .LVU117
 395              	.LBE130:
 396              	.LBE129:
 868:lvgl/src/widgets/lv_table.c ****     const lv_coord_t cell_pad_bottom = lv_obj_get_style_pad_bottom(obj, LV_PART_ITEMS);
 397              		.loc 1 868 5 is_stmt 1 view .LVU118
 398              	.LBB131:
 399              	.LBI131:
 103:lvgl/src/widgets/../core/lv_obj_style_gen.h **** {
 400              		.loc 3 103 26 view .LVU119
 401              	.LBB132:
 105:lvgl/src/widgets/../core/lv_obj_style_gen.h ****     return (lv_coord_t)v.num;
 402              		.loc 3 105 5 view .LVU120
 105:lvgl/src/widgets/../core/lv_obj_style_gen.h ****     return (lv_coord_t)v.num;
 403              		.loc 3 105 26 is_stmt 0 view .LVU121
 404 0028 1022     		movs	r2, #16
 405 002a 4FF4A021 		mov	r1, #327680
 406 002e 2846     		mov	r0, r5
 407 0030 FFF7FEFF 		bl	lv_obj_get_style_prop
 408              	.LVL45:
 106:lvgl/src/widgets/../core/lv_obj_style_gen.h **** }
 409              		.loc 3 106 5 is_stmt 1 view .LVU122
 106:lvgl/src/widgets/../core/lv_obj_style_gen.h **** }
 410              		.loc 3 106 12 is_stmt 0 view .LVU123
 411 0034 0FFA80F9 		sxth	r9, r0
 412              	.LVL46:
 106:lvgl/src/widgets/../core/lv_obj_style_gen.h **** }
 413              		.loc 3 106 12 view .LVU124
 414              	.LBE132:
 415              	.LBE131:
 869:lvgl/src/widgets/lv_table.c **** 
 416              		.loc 1 869 5 is_stmt 1 view .LVU125
 417              	.LBB133:
 418              	.LBI133:
 109:lvgl/src/widgets/../core/lv_obj_style_gen.h **** {
 419              		.loc 3 109 26 view .LVU126
 420              	.LBB134:
 111:lvgl/src/widgets/../core/lv_obj_style_gen.h ****     return (lv_coord_t)v.num;
ARM GAS  /var/folders/21/t9g5rlb91ys800n5npymflf80000gn/T//ccNiYEm1.s 			page 31


 421              		.loc 3 111 5 view .LVU127
 111:lvgl/src/widgets/../core/lv_obj_style_gen.h ****     return (lv_coord_t)v.num;
 422              		.loc 3 111 26 is_stmt 0 view .LVU128
 423 0038 1122     		movs	r2, #17
 424 003a 4FF4A021 		mov	r1, #327680
 425 003e 2846     		mov	r0, r5
 426 0040 FFF7FEFF 		bl	lv_obj_get_style_prop
 427              	.LVL47:
 112:lvgl/src/widgets/../core/lv_obj_style_gen.h **** }
 428              		.loc 3 112 5 is_stmt 1 view .LVU129
 112:lvgl/src/widgets/../core/lv_obj_style_gen.h **** }
 429              		.loc 3 112 12 is_stmt 0 view .LVU130
 430 0044 03B2     		sxth	r3, r0
 431 0046 0993     		str	r3, [sp, #36]
 432              	.LVL48:
 112:lvgl/src/widgets/../core/lv_obj_style_gen.h **** }
 433              		.loc 3 112 12 view .LVU131
 434              	.LBE134:
 435              	.LBE133:
 871:lvgl/src/widgets/lv_table.c ****     lv_coord_t line_space = lv_obj_get_style_text_line_space(obj, LV_PART_ITEMS);
 436              		.loc 1 871 5 is_stmt 1 view .LVU132
 437              	.LBB135:
 438              	.LBI135:
 125:lvgl/src/widgets/../core/lv_obj_style_gen.h **** }
 126:lvgl/src/widgets/../core/lv_obj_style_gen.h **** 
 127:lvgl/src/widgets/../core/lv_obj_style_gen.h **** static inline lv_coord_t lv_obj_get_style_pad_row(const struct _lv_obj_t * obj, uint32_t part)
 128:lvgl/src/widgets/../core/lv_obj_style_gen.h **** {
 129:lvgl/src/widgets/../core/lv_obj_style_gen.h ****     lv_style_value_t v = lv_obj_get_style_prop(obj, part, LV_STYLE_PAD_ROW);
 130:lvgl/src/widgets/../core/lv_obj_style_gen.h ****     return (lv_coord_t)v.num;
 131:lvgl/src/widgets/../core/lv_obj_style_gen.h **** }
 132:lvgl/src/widgets/../core/lv_obj_style_gen.h **** 
 133:lvgl/src/widgets/../core/lv_obj_style_gen.h **** static inline lv_coord_t lv_obj_get_style_pad_column(const struct _lv_obj_t * obj, uint32_t part)
 134:lvgl/src/widgets/../core/lv_obj_style_gen.h **** {
 135:lvgl/src/widgets/../core/lv_obj_style_gen.h ****     lv_style_value_t v = lv_obj_get_style_prop(obj, part, LV_STYLE_PAD_COLUMN);
 136:lvgl/src/widgets/../core/lv_obj_style_gen.h ****     return (lv_coord_t)v.num;
 137:lvgl/src/widgets/../core/lv_obj_style_gen.h **** }
 138:lvgl/src/widgets/../core/lv_obj_style_gen.h **** 
 139:lvgl/src/widgets/../core/lv_obj_style_gen.h **** static inline lv_color_t lv_obj_get_style_bg_color(const struct _lv_obj_t * obj, uint32_t part)
 140:lvgl/src/widgets/../core/lv_obj_style_gen.h **** {
 141:lvgl/src/widgets/../core/lv_obj_style_gen.h ****     lv_style_value_t v = lv_obj_get_style_prop(obj, part, LV_STYLE_BG_COLOR);
 142:lvgl/src/widgets/../core/lv_obj_style_gen.h ****     return v.color;
 143:lvgl/src/widgets/../core/lv_obj_style_gen.h **** }
 144:lvgl/src/widgets/../core/lv_obj_style_gen.h **** 
 145:lvgl/src/widgets/../core/lv_obj_style_gen.h **** static inline lv_color_t lv_obj_get_style_bg_color_filtered(const struct _lv_obj_t * obj, uint32_t 
 146:lvgl/src/widgets/../core/lv_obj_style_gen.h **** {
 147:lvgl/src/widgets/../core/lv_obj_style_gen.h ****     lv_style_value_t v = _lv_obj_style_apply_color_filter(obj, part, lv_obj_get_style_prop(obj, par
 148:lvgl/src/widgets/../core/lv_obj_style_gen.h ****     return v.color;
 149:lvgl/src/widgets/../core/lv_obj_style_gen.h **** }
 150:lvgl/src/widgets/../core/lv_obj_style_gen.h **** 
 151:lvgl/src/widgets/../core/lv_obj_style_gen.h **** static inline lv_opa_t lv_obj_get_style_bg_opa(const struct _lv_obj_t * obj, uint32_t part)
 152:lvgl/src/widgets/../core/lv_obj_style_gen.h **** {
 153:lvgl/src/widgets/../core/lv_obj_style_gen.h ****     lv_style_value_t v = lv_obj_get_style_prop(obj, part, LV_STYLE_BG_OPA);
 154:lvgl/src/widgets/../core/lv_obj_style_gen.h ****     return (lv_opa_t)v.num;
 155:lvgl/src/widgets/../core/lv_obj_style_gen.h **** }
 156:lvgl/src/widgets/../core/lv_obj_style_gen.h **** 
 157:lvgl/src/widgets/../core/lv_obj_style_gen.h **** static inline lv_color_t lv_obj_get_style_bg_grad_color(const struct _lv_obj_t * obj, uint32_t part
 158:lvgl/src/widgets/../core/lv_obj_style_gen.h **** {
ARM GAS  /var/folders/21/t9g5rlb91ys800n5npymflf80000gn/T//ccNiYEm1.s 			page 32


 159:lvgl/src/widgets/../core/lv_obj_style_gen.h ****     lv_style_value_t v = lv_obj_get_style_prop(obj, part, LV_STYLE_BG_GRAD_COLOR);
 160:lvgl/src/widgets/../core/lv_obj_style_gen.h ****     return v.color;
 161:lvgl/src/widgets/../core/lv_obj_style_gen.h **** }
 162:lvgl/src/widgets/../core/lv_obj_style_gen.h **** 
 163:lvgl/src/widgets/../core/lv_obj_style_gen.h **** static inline lv_color_t lv_obj_get_style_bg_grad_color_filtered(const struct _lv_obj_t * obj, uint
 164:lvgl/src/widgets/../core/lv_obj_style_gen.h **** {
 165:lvgl/src/widgets/../core/lv_obj_style_gen.h ****     lv_style_value_t v = _lv_obj_style_apply_color_filter(obj, part, lv_obj_get_style_prop(obj, par
 166:lvgl/src/widgets/../core/lv_obj_style_gen.h ****     return v.color;
 167:lvgl/src/widgets/../core/lv_obj_style_gen.h **** }
 168:lvgl/src/widgets/../core/lv_obj_style_gen.h **** 
 169:lvgl/src/widgets/../core/lv_obj_style_gen.h **** static inline lv_grad_dir_t lv_obj_get_style_bg_grad_dir(const struct _lv_obj_t * obj, uint32_t par
 170:lvgl/src/widgets/../core/lv_obj_style_gen.h **** {
 171:lvgl/src/widgets/../core/lv_obj_style_gen.h ****     lv_style_value_t v = lv_obj_get_style_prop(obj, part, LV_STYLE_BG_GRAD_DIR);
 172:lvgl/src/widgets/../core/lv_obj_style_gen.h ****     return (lv_grad_dir_t)v.num;
 173:lvgl/src/widgets/../core/lv_obj_style_gen.h **** }
 174:lvgl/src/widgets/../core/lv_obj_style_gen.h **** 
 175:lvgl/src/widgets/../core/lv_obj_style_gen.h **** static inline lv_coord_t lv_obj_get_style_bg_main_stop(const struct _lv_obj_t * obj, uint32_t part)
 176:lvgl/src/widgets/../core/lv_obj_style_gen.h **** {
 177:lvgl/src/widgets/../core/lv_obj_style_gen.h ****     lv_style_value_t v = lv_obj_get_style_prop(obj, part, LV_STYLE_BG_MAIN_STOP);
 178:lvgl/src/widgets/../core/lv_obj_style_gen.h ****     return (lv_coord_t)v.num;
 179:lvgl/src/widgets/../core/lv_obj_style_gen.h **** }
 180:lvgl/src/widgets/../core/lv_obj_style_gen.h **** 
 181:lvgl/src/widgets/../core/lv_obj_style_gen.h **** static inline lv_coord_t lv_obj_get_style_bg_grad_stop(const struct _lv_obj_t * obj, uint32_t part)
 182:lvgl/src/widgets/../core/lv_obj_style_gen.h **** {
 183:lvgl/src/widgets/../core/lv_obj_style_gen.h ****     lv_style_value_t v = lv_obj_get_style_prop(obj, part, LV_STYLE_BG_GRAD_STOP);
 184:lvgl/src/widgets/../core/lv_obj_style_gen.h ****     return (lv_coord_t)v.num;
 185:lvgl/src/widgets/../core/lv_obj_style_gen.h **** }
 186:lvgl/src/widgets/../core/lv_obj_style_gen.h **** 
 187:lvgl/src/widgets/../core/lv_obj_style_gen.h **** static inline const lv_grad_dsc_t * lv_obj_get_style_bg_grad(const struct _lv_obj_t * obj, uint32_t
 188:lvgl/src/widgets/../core/lv_obj_style_gen.h **** {
 189:lvgl/src/widgets/../core/lv_obj_style_gen.h ****     lv_style_value_t v = lv_obj_get_style_prop(obj, part, LV_STYLE_BG_GRAD);
 190:lvgl/src/widgets/../core/lv_obj_style_gen.h ****     return (const lv_grad_dsc_t *)v.ptr;
 191:lvgl/src/widgets/../core/lv_obj_style_gen.h **** }
 192:lvgl/src/widgets/../core/lv_obj_style_gen.h **** 
 193:lvgl/src/widgets/../core/lv_obj_style_gen.h **** static inline lv_dither_mode_t lv_obj_get_style_bg_dither_mode(const struct _lv_obj_t * obj, uint32
 194:lvgl/src/widgets/../core/lv_obj_style_gen.h **** {
 195:lvgl/src/widgets/../core/lv_obj_style_gen.h ****     lv_style_value_t v = lv_obj_get_style_prop(obj, part, LV_STYLE_BG_DITHER_MODE);
 196:lvgl/src/widgets/../core/lv_obj_style_gen.h ****     return (lv_dither_mode_t)v.num;
 197:lvgl/src/widgets/../core/lv_obj_style_gen.h **** }
 198:lvgl/src/widgets/../core/lv_obj_style_gen.h **** 
 199:lvgl/src/widgets/../core/lv_obj_style_gen.h **** static inline const void * lv_obj_get_style_bg_img_src(const struct _lv_obj_t * obj, uint32_t part)
 200:lvgl/src/widgets/../core/lv_obj_style_gen.h **** {
 201:lvgl/src/widgets/../core/lv_obj_style_gen.h ****     lv_style_value_t v = lv_obj_get_style_prop(obj, part, LV_STYLE_BG_IMG_SRC);
 202:lvgl/src/widgets/../core/lv_obj_style_gen.h ****     return (const void *)v.ptr;
 203:lvgl/src/widgets/../core/lv_obj_style_gen.h **** }
 204:lvgl/src/widgets/../core/lv_obj_style_gen.h **** 
 205:lvgl/src/widgets/../core/lv_obj_style_gen.h **** static inline lv_opa_t lv_obj_get_style_bg_img_opa(const struct _lv_obj_t * obj, uint32_t part)
 206:lvgl/src/widgets/../core/lv_obj_style_gen.h **** {
 207:lvgl/src/widgets/../core/lv_obj_style_gen.h ****     lv_style_value_t v = lv_obj_get_style_prop(obj, part, LV_STYLE_BG_IMG_OPA);
 208:lvgl/src/widgets/../core/lv_obj_style_gen.h ****     return (lv_opa_t)v.num;
 209:lvgl/src/widgets/../core/lv_obj_style_gen.h **** }
 210:lvgl/src/widgets/../core/lv_obj_style_gen.h **** 
 211:lvgl/src/widgets/../core/lv_obj_style_gen.h **** static inline lv_color_t lv_obj_get_style_bg_img_recolor(const struct _lv_obj_t * obj, uint32_t par
 212:lvgl/src/widgets/../core/lv_obj_style_gen.h **** {
 213:lvgl/src/widgets/../core/lv_obj_style_gen.h ****     lv_style_value_t v = lv_obj_get_style_prop(obj, part, LV_STYLE_BG_IMG_RECOLOR);
 214:lvgl/src/widgets/../core/lv_obj_style_gen.h ****     return v.color;
 215:lvgl/src/widgets/../core/lv_obj_style_gen.h **** }
ARM GAS  /var/folders/21/t9g5rlb91ys800n5npymflf80000gn/T//ccNiYEm1.s 			page 33


 216:lvgl/src/widgets/../core/lv_obj_style_gen.h **** 
 217:lvgl/src/widgets/../core/lv_obj_style_gen.h **** static inline lv_color_t lv_obj_get_style_bg_img_recolor_filtered(const struct _lv_obj_t * obj, uin
 218:lvgl/src/widgets/../core/lv_obj_style_gen.h **** {
 219:lvgl/src/widgets/../core/lv_obj_style_gen.h ****     lv_style_value_t v = _lv_obj_style_apply_color_filter(obj, part, lv_obj_get_style_prop(obj, par
 220:lvgl/src/widgets/../core/lv_obj_style_gen.h ****     return v.color;
 221:lvgl/src/widgets/../core/lv_obj_style_gen.h **** }
 222:lvgl/src/widgets/../core/lv_obj_style_gen.h **** 
 223:lvgl/src/widgets/../core/lv_obj_style_gen.h **** static inline lv_opa_t lv_obj_get_style_bg_img_recolor_opa(const struct _lv_obj_t * obj, uint32_t p
 224:lvgl/src/widgets/../core/lv_obj_style_gen.h **** {
 225:lvgl/src/widgets/../core/lv_obj_style_gen.h ****     lv_style_value_t v = lv_obj_get_style_prop(obj, part, LV_STYLE_BG_IMG_RECOLOR_OPA);
 226:lvgl/src/widgets/../core/lv_obj_style_gen.h ****     return (lv_opa_t)v.num;
 227:lvgl/src/widgets/../core/lv_obj_style_gen.h **** }
 228:lvgl/src/widgets/../core/lv_obj_style_gen.h **** 
 229:lvgl/src/widgets/../core/lv_obj_style_gen.h **** static inline bool lv_obj_get_style_bg_img_tiled(const struct _lv_obj_t * obj, uint32_t part)
 230:lvgl/src/widgets/../core/lv_obj_style_gen.h **** {
 231:lvgl/src/widgets/../core/lv_obj_style_gen.h ****     lv_style_value_t v = lv_obj_get_style_prop(obj, part, LV_STYLE_BG_IMG_TILED);
 232:lvgl/src/widgets/../core/lv_obj_style_gen.h ****     return (bool)v.num;
 233:lvgl/src/widgets/../core/lv_obj_style_gen.h **** }
 234:lvgl/src/widgets/../core/lv_obj_style_gen.h **** 
 235:lvgl/src/widgets/../core/lv_obj_style_gen.h **** static inline lv_color_t lv_obj_get_style_border_color(const struct _lv_obj_t * obj, uint32_t part)
 236:lvgl/src/widgets/../core/lv_obj_style_gen.h **** {
 237:lvgl/src/widgets/../core/lv_obj_style_gen.h ****     lv_style_value_t v = lv_obj_get_style_prop(obj, part, LV_STYLE_BORDER_COLOR);
 238:lvgl/src/widgets/../core/lv_obj_style_gen.h ****     return v.color;
 239:lvgl/src/widgets/../core/lv_obj_style_gen.h **** }
 240:lvgl/src/widgets/../core/lv_obj_style_gen.h **** 
 241:lvgl/src/widgets/../core/lv_obj_style_gen.h **** static inline lv_color_t lv_obj_get_style_border_color_filtered(const struct _lv_obj_t * obj, uint3
 242:lvgl/src/widgets/../core/lv_obj_style_gen.h **** {
 243:lvgl/src/widgets/../core/lv_obj_style_gen.h ****     lv_style_value_t v = _lv_obj_style_apply_color_filter(obj, part, lv_obj_get_style_prop(obj, par
 244:lvgl/src/widgets/../core/lv_obj_style_gen.h ****     return v.color;
 245:lvgl/src/widgets/../core/lv_obj_style_gen.h **** }
 246:lvgl/src/widgets/../core/lv_obj_style_gen.h **** 
 247:lvgl/src/widgets/../core/lv_obj_style_gen.h **** static inline lv_opa_t lv_obj_get_style_border_opa(const struct _lv_obj_t * obj, uint32_t part)
 248:lvgl/src/widgets/../core/lv_obj_style_gen.h **** {
 249:lvgl/src/widgets/../core/lv_obj_style_gen.h ****     lv_style_value_t v = lv_obj_get_style_prop(obj, part, LV_STYLE_BORDER_OPA);
 250:lvgl/src/widgets/../core/lv_obj_style_gen.h ****     return (lv_opa_t)v.num;
 251:lvgl/src/widgets/../core/lv_obj_style_gen.h **** }
 252:lvgl/src/widgets/../core/lv_obj_style_gen.h **** 
 253:lvgl/src/widgets/../core/lv_obj_style_gen.h **** static inline lv_coord_t lv_obj_get_style_border_width(const struct _lv_obj_t * obj, uint32_t part)
 254:lvgl/src/widgets/../core/lv_obj_style_gen.h **** {
 255:lvgl/src/widgets/../core/lv_obj_style_gen.h ****     lv_style_value_t v = lv_obj_get_style_prop(obj, part, LV_STYLE_BORDER_WIDTH);
 256:lvgl/src/widgets/../core/lv_obj_style_gen.h ****     return (lv_coord_t)v.num;
 257:lvgl/src/widgets/../core/lv_obj_style_gen.h **** }
 258:lvgl/src/widgets/../core/lv_obj_style_gen.h **** 
 259:lvgl/src/widgets/../core/lv_obj_style_gen.h **** static inline lv_border_side_t lv_obj_get_style_border_side(const struct _lv_obj_t * obj, uint32_t 
 260:lvgl/src/widgets/../core/lv_obj_style_gen.h **** {
 261:lvgl/src/widgets/../core/lv_obj_style_gen.h ****     lv_style_value_t v = lv_obj_get_style_prop(obj, part, LV_STYLE_BORDER_SIDE);
 262:lvgl/src/widgets/../core/lv_obj_style_gen.h ****     return (lv_border_side_t)v.num;
 263:lvgl/src/widgets/../core/lv_obj_style_gen.h **** }
 264:lvgl/src/widgets/../core/lv_obj_style_gen.h **** 
 265:lvgl/src/widgets/../core/lv_obj_style_gen.h **** static inline bool lv_obj_get_style_border_post(const struct _lv_obj_t * obj, uint32_t part)
 266:lvgl/src/widgets/../core/lv_obj_style_gen.h **** {
 267:lvgl/src/widgets/../core/lv_obj_style_gen.h ****     lv_style_value_t v = lv_obj_get_style_prop(obj, part, LV_STYLE_BORDER_POST);
 268:lvgl/src/widgets/../core/lv_obj_style_gen.h ****     return (bool)v.num;
 269:lvgl/src/widgets/../core/lv_obj_style_gen.h **** }
 270:lvgl/src/widgets/../core/lv_obj_style_gen.h **** 
 271:lvgl/src/widgets/../core/lv_obj_style_gen.h **** static inline lv_coord_t lv_obj_get_style_outline_width(const struct _lv_obj_t * obj, uint32_t part
 272:lvgl/src/widgets/../core/lv_obj_style_gen.h **** {
ARM GAS  /var/folders/21/t9g5rlb91ys800n5npymflf80000gn/T//ccNiYEm1.s 			page 34


 273:lvgl/src/widgets/../core/lv_obj_style_gen.h ****     lv_style_value_t v = lv_obj_get_style_prop(obj, part, LV_STYLE_OUTLINE_WIDTH);
 274:lvgl/src/widgets/../core/lv_obj_style_gen.h ****     return (lv_coord_t)v.num;
 275:lvgl/src/widgets/../core/lv_obj_style_gen.h **** }
 276:lvgl/src/widgets/../core/lv_obj_style_gen.h **** 
 277:lvgl/src/widgets/../core/lv_obj_style_gen.h **** static inline lv_color_t lv_obj_get_style_outline_color(const struct _lv_obj_t * obj, uint32_t part
 278:lvgl/src/widgets/../core/lv_obj_style_gen.h **** {
 279:lvgl/src/widgets/../core/lv_obj_style_gen.h ****     lv_style_value_t v = lv_obj_get_style_prop(obj, part, LV_STYLE_OUTLINE_COLOR);
 280:lvgl/src/widgets/../core/lv_obj_style_gen.h ****     return v.color;
 281:lvgl/src/widgets/../core/lv_obj_style_gen.h **** }
 282:lvgl/src/widgets/../core/lv_obj_style_gen.h **** 
 283:lvgl/src/widgets/../core/lv_obj_style_gen.h **** static inline lv_color_t lv_obj_get_style_outline_color_filtered(const struct _lv_obj_t * obj, uint
 284:lvgl/src/widgets/../core/lv_obj_style_gen.h **** {
 285:lvgl/src/widgets/../core/lv_obj_style_gen.h ****     lv_style_value_t v = _lv_obj_style_apply_color_filter(obj, part, lv_obj_get_style_prop(obj, par
 286:lvgl/src/widgets/../core/lv_obj_style_gen.h ****     return v.color;
 287:lvgl/src/widgets/../core/lv_obj_style_gen.h **** }
 288:lvgl/src/widgets/../core/lv_obj_style_gen.h **** 
 289:lvgl/src/widgets/../core/lv_obj_style_gen.h **** static inline lv_opa_t lv_obj_get_style_outline_opa(const struct _lv_obj_t * obj, uint32_t part)
 290:lvgl/src/widgets/../core/lv_obj_style_gen.h **** {
 291:lvgl/src/widgets/../core/lv_obj_style_gen.h ****     lv_style_value_t v = lv_obj_get_style_prop(obj, part, LV_STYLE_OUTLINE_OPA);
 292:lvgl/src/widgets/../core/lv_obj_style_gen.h ****     return (lv_opa_t)v.num;
 293:lvgl/src/widgets/../core/lv_obj_style_gen.h **** }
 294:lvgl/src/widgets/../core/lv_obj_style_gen.h **** 
 295:lvgl/src/widgets/../core/lv_obj_style_gen.h **** static inline lv_coord_t lv_obj_get_style_outline_pad(const struct _lv_obj_t * obj, uint32_t part)
 296:lvgl/src/widgets/../core/lv_obj_style_gen.h **** {
 297:lvgl/src/widgets/../core/lv_obj_style_gen.h ****     lv_style_value_t v = lv_obj_get_style_prop(obj, part, LV_STYLE_OUTLINE_PAD);
 298:lvgl/src/widgets/../core/lv_obj_style_gen.h ****     return (lv_coord_t)v.num;
 299:lvgl/src/widgets/../core/lv_obj_style_gen.h **** }
 300:lvgl/src/widgets/../core/lv_obj_style_gen.h **** 
 301:lvgl/src/widgets/../core/lv_obj_style_gen.h **** static inline lv_coord_t lv_obj_get_style_shadow_width(const struct _lv_obj_t * obj, uint32_t part)
 302:lvgl/src/widgets/../core/lv_obj_style_gen.h **** {
 303:lvgl/src/widgets/../core/lv_obj_style_gen.h ****     lv_style_value_t v = lv_obj_get_style_prop(obj, part, LV_STYLE_SHADOW_WIDTH);
 304:lvgl/src/widgets/../core/lv_obj_style_gen.h ****     return (lv_coord_t)v.num;
 305:lvgl/src/widgets/../core/lv_obj_style_gen.h **** }
 306:lvgl/src/widgets/../core/lv_obj_style_gen.h **** 
 307:lvgl/src/widgets/../core/lv_obj_style_gen.h **** static inline lv_coord_t lv_obj_get_style_shadow_ofs_x(const struct _lv_obj_t * obj, uint32_t part)
 308:lvgl/src/widgets/../core/lv_obj_style_gen.h **** {
 309:lvgl/src/widgets/../core/lv_obj_style_gen.h ****     lv_style_value_t v = lv_obj_get_style_prop(obj, part, LV_STYLE_SHADOW_OFS_X);
 310:lvgl/src/widgets/../core/lv_obj_style_gen.h ****     return (lv_coord_t)v.num;
 311:lvgl/src/widgets/../core/lv_obj_style_gen.h **** }
 312:lvgl/src/widgets/../core/lv_obj_style_gen.h **** 
 313:lvgl/src/widgets/../core/lv_obj_style_gen.h **** static inline lv_coord_t lv_obj_get_style_shadow_ofs_y(const struct _lv_obj_t * obj, uint32_t part)
 314:lvgl/src/widgets/../core/lv_obj_style_gen.h **** {
 315:lvgl/src/widgets/../core/lv_obj_style_gen.h ****     lv_style_value_t v = lv_obj_get_style_prop(obj, part, LV_STYLE_SHADOW_OFS_Y);
 316:lvgl/src/widgets/../core/lv_obj_style_gen.h ****     return (lv_coord_t)v.num;
 317:lvgl/src/widgets/../core/lv_obj_style_gen.h **** }
 318:lvgl/src/widgets/../core/lv_obj_style_gen.h **** 
 319:lvgl/src/widgets/../core/lv_obj_style_gen.h **** static inline lv_coord_t lv_obj_get_style_shadow_spread(const struct _lv_obj_t * obj, uint32_t part
 320:lvgl/src/widgets/../core/lv_obj_style_gen.h **** {
 321:lvgl/src/widgets/../core/lv_obj_style_gen.h ****     lv_style_value_t v = lv_obj_get_style_prop(obj, part, LV_STYLE_SHADOW_SPREAD);
 322:lvgl/src/widgets/../core/lv_obj_style_gen.h ****     return (lv_coord_t)v.num;
 323:lvgl/src/widgets/../core/lv_obj_style_gen.h **** }
 324:lvgl/src/widgets/../core/lv_obj_style_gen.h **** 
 325:lvgl/src/widgets/../core/lv_obj_style_gen.h **** static inline lv_color_t lv_obj_get_style_shadow_color(const struct _lv_obj_t * obj, uint32_t part)
 326:lvgl/src/widgets/../core/lv_obj_style_gen.h **** {
 327:lvgl/src/widgets/../core/lv_obj_style_gen.h ****     lv_style_value_t v = lv_obj_get_style_prop(obj, part, LV_STYLE_SHADOW_COLOR);
 328:lvgl/src/widgets/../core/lv_obj_style_gen.h ****     return v.color;
 329:lvgl/src/widgets/../core/lv_obj_style_gen.h **** }
ARM GAS  /var/folders/21/t9g5rlb91ys800n5npymflf80000gn/T//ccNiYEm1.s 			page 35


 330:lvgl/src/widgets/../core/lv_obj_style_gen.h **** 
 331:lvgl/src/widgets/../core/lv_obj_style_gen.h **** static inline lv_color_t lv_obj_get_style_shadow_color_filtered(const struct _lv_obj_t * obj, uint3
 332:lvgl/src/widgets/../core/lv_obj_style_gen.h **** {
 333:lvgl/src/widgets/../core/lv_obj_style_gen.h ****     lv_style_value_t v = _lv_obj_style_apply_color_filter(obj, part, lv_obj_get_style_prop(obj, par
 334:lvgl/src/widgets/../core/lv_obj_style_gen.h ****     return v.color;
 335:lvgl/src/widgets/../core/lv_obj_style_gen.h **** }
 336:lvgl/src/widgets/../core/lv_obj_style_gen.h **** 
 337:lvgl/src/widgets/../core/lv_obj_style_gen.h **** static inline lv_opa_t lv_obj_get_style_shadow_opa(const struct _lv_obj_t * obj, uint32_t part)
 338:lvgl/src/widgets/../core/lv_obj_style_gen.h **** {
 339:lvgl/src/widgets/../core/lv_obj_style_gen.h ****     lv_style_value_t v = lv_obj_get_style_prop(obj, part, LV_STYLE_SHADOW_OPA);
 340:lvgl/src/widgets/../core/lv_obj_style_gen.h ****     return (lv_opa_t)v.num;
 341:lvgl/src/widgets/../core/lv_obj_style_gen.h **** }
 342:lvgl/src/widgets/../core/lv_obj_style_gen.h **** 
 343:lvgl/src/widgets/../core/lv_obj_style_gen.h **** static inline lv_opa_t lv_obj_get_style_img_opa(const struct _lv_obj_t * obj, uint32_t part)
 344:lvgl/src/widgets/../core/lv_obj_style_gen.h **** {
 345:lvgl/src/widgets/../core/lv_obj_style_gen.h ****     lv_style_value_t v = lv_obj_get_style_prop(obj, part, LV_STYLE_IMG_OPA);
 346:lvgl/src/widgets/../core/lv_obj_style_gen.h ****     return (lv_opa_t)v.num;
 347:lvgl/src/widgets/../core/lv_obj_style_gen.h **** }
 348:lvgl/src/widgets/../core/lv_obj_style_gen.h **** 
 349:lvgl/src/widgets/../core/lv_obj_style_gen.h **** static inline lv_color_t lv_obj_get_style_img_recolor(const struct _lv_obj_t * obj, uint32_t part)
 350:lvgl/src/widgets/../core/lv_obj_style_gen.h **** {
 351:lvgl/src/widgets/../core/lv_obj_style_gen.h ****     lv_style_value_t v = lv_obj_get_style_prop(obj, part, LV_STYLE_IMG_RECOLOR);
 352:lvgl/src/widgets/../core/lv_obj_style_gen.h ****     return v.color;
 353:lvgl/src/widgets/../core/lv_obj_style_gen.h **** }
 354:lvgl/src/widgets/../core/lv_obj_style_gen.h **** 
 355:lvgl/src/widgets/../core/lv_obj_style_gen.h **** static inline lv_color_t lv_obj_get_style_img_recolor_filtered(const struct _lv_obj_t * obj, uint32
 356:lvgl/src/widgets/../core/lv_obj_style_gen.h **** {
 357:lvgl/src/widgets/../core/lv_obj_style_gen.h ****     lv_style_value_t v = _lv_obj_style_apply_color_filter(obj, part, lv_obj_get_style_prop(obj, par
 358:lvgl/src/widgets/../core/lv_obj_style_gen.h ****     return v.color;
 359:lvgl/src/widgets/../core/lv_obj_style_gen.h **** }
 360:lvgl/src/widgets/../core/lv_obj_style_gen.h **** 
 361:lvgl/src/widgets/../core/lv_obj_style_gen.h **** static inline lv_opa_t lv_obj_get_style_img_recolor_opa(const struct _lv_obj_t * obj, uint32_t part
 362:lvgl/src/widgets/../core/lv_obj_style_gen.h **** {
 363:lvgl/src/widgets/../core/lv_obj_style_gen.h ****     lv_style_value_t v = lv_obj_get_style_prop(obj, part, LV_STYLE_IMG_RECOLOR_OPA);
 364:lvgl/src/widgets/../core/lv_obj_style_gen.h ****     return (lv_opa_t)v.num;
 365:lvgl/src/widgets/../core/lv_obj_style_gen.h **** }
 366:lvgl/src/widgets/../core/lv_obj_style_gen.h **** 
 367:lvgl/src/widgets/../core/lv_obj_style_gen.h **** static inline lv_coord_t lv_obj_get_style_line_width(const struct _lv_obj_t * obj, uint32_t part)
 368:lvgl/src/widgets/../core/lv_obj_style_gen.h **** {
 369:lvgl/src/widgets/../core/lv_obj_style_gen.h ****     lv_style_value_t v = lv_obj_get_style_prop(obj, part, LV_STYLE_LINE_WIDTH);
 370:lvgl/src/widgets/../core/lv_obj_style_gen.h ****     return (lv_coord_t)v.num;
 371:lvgl/src/widgets/../core/lv_obj_style_gen.h **** }
 372:lvgl/src/widgets/../core/lv_obj_style_gen.h **** 
 373:lvgl/src/widgets/../core/lv_obj_style_gen.h **** static inline lv_coord_t lv_obj_get_style_line_dash_width(const struct _lv_obj_t * obj, uint32_t pa
 374:lvgl/src/widgets/../core/lv_obj_style_gen.h **** {
 375:lvgl/src/widgets/../core/lv_obj_style_gen.h ****     lv_style_value_t v = lv_obj_get_style_prop(obj, part, LV_STYLE_LINE_DASH_WIDTH);
 376:lvgl/src/widgets/../core/lv_obj_style_gen.h ****     return (lv_coord_t)v.num;
 377:lvgl/src/widgets/../core/lv_obj_style_gen.h **** }
 378:lvgl/src/widgets/../core/lv_obj_style_gen.h **** 
 379:lvgl/src/widgets/../core/lv_obj_style_gen.h **** static inline lv_coord_t lv_obj_get_style_line_dash_gap(const struct _lv_obj_t * obj, uint32_t part
 380:lvgl/src/widgets/../core/lv_obj_style_gen.h **** {
 381:lvgl/src/widgets/../core/lv_obj_style_gen.h ****     lv_style_value_t v = lv_obj_get_style_prop(obj, part, LV_STYLE_LINE_DASH_GAP);
 382:lvgl/src/widgets/../core/lv_obj_style_gen.h ****     return (lv_coord_t)v.num;
 383:lvgl/src/widgets/../core/lv_obj_style_gen.h **** }
 384:lvgl/src/widgets/../core/lv_obj_style_gen.h **** 
 385:lvgl/src/widgets/../core/lv_obj_style_gen.h **** static inline bool lv_obj_get_style_line_rounded(const struct _lv_obj_t * obj, uint32_t part)
 386:lvgl/src/widgets/../core/lv_obj_style_gen.h **** {
ARM GAS  /var/folders/21/t9g5rlb91ys800n5npymflf80000gn/T//ccNiYEm1.s 			page 36


 387:lvgl/src/widgets/../core/lv_obj_style_gen.h ****     lv_style_value_t v = lv_obj_get_style_prop(obj, part, LV_STYLE_LINE_ROUNDED);
 388:lvgl/src/widgets/../core/lv_obj_style_gen.h ****     return (bool)v.num;
 389:lvgl/src/widgets/../core/lv_obj_style_gen.h **** }
 390:lvgl/src/widgets/../core/lv_obj_style_gen.h **** 
 391:lvgl/src/widgets/../core/lv_obj_style_gen.h **** static inline lv_color_t lv_obj_get_style_line_color(const struct _lv_obj_t * obj, uint32_t part)
 392:lvgl/src/widgets/../core/lv_obj_style_gen.h **** {
 393:lvgl/src/widgets/../core/lv_obj_style_gen.h ****     lv_style_value_t v = lv_obj_get_style_prop(obj, part, LV_STYLE_LINE_COLOR);
 394:lvgl/src/widgets/../core/lv_obj_style_gen.h ****     return v.color;
 395:lvgl/src/widgets/../core/lv_obj_style_gen.h **** }
 396:lvgl/src/widgets/../core/lv_obj_style_gen.h **** 
 397:lvgl/src/widgets/../core/lv_obj_style_gen.h **** static inline lv_color_t lv_obj_get_style_line_color_filtered(const struct _lv_obj_t * obj, uint32_
 398:lvgl/src/widgets/../core/lv_obj_style_gen.h **** {
 399:lvgl/src/widgets/../core/lv_obj_style_gen.h ****     lv_style_value_t v = _lv_obj_style_apply_color_filter(obj, part, lv_obj_get_style_prop(obj, par
 400:lvgl/src/widgets/../core/lv_obj_style_gen.h ****     return v.color;
 401:lvgl/src/widgets/../core/lv_obj_style_gen.h **** }
 402:lvgl/src/widgets/../core/lv_obj_style_gen.h **** 
 403:lvgl/src/widgets/../core/lv_obj_style_gen.h **** static inline lv_opa_t lv_obj_get_style_line_opa(const struct _lv_obj_t * obj, uint32_t part)
 404:lvgl/src/widgets/../core/lv_obj_style_gen.h **** {
 405:lvgl/src/widgets/../core/lv_obj_style_gen.h ****     lv_style_value_t v = lv_obj_get_style_prop(obj, part, LV_STYLE_LINE_OPA);
 406:lvgl/src/widgets/../core/lv_obj_style_gen.h ****     return (lv_opa_t)v.num;
 407:lvgl/src/widgets/../core/lv_obj_style_gen.h **** }
 408:lvgl/src/widgets/../core/lv_obj_style_gen.h **** 
 409:lvgl/src/widgets/../core/lv_obj_style_gen.h **** static inline lv_coord_t lv_obj_get_style_arc_width(const struct _lv_obj_t * obj, uint32_t part)
 410:lvgl/src/widgets/../core/lv_obj_style_gen.h **** {
 411:lvgl/src/widgets/../core/lv_obj_style_gen.h ****     lv_style_value_t v = lv_obj_get_style_prop(obj, part, LV_STYLE_ARC_WIDTH);
 412:lvgl/src/widgets/../core/lv_obj_style_gen.h ****     return (lv_coord_t)v.num;
 413:lvgl/src/widgets/../core/lv_obj_style_gen.h **** }
 414:lvgl/src/widgets/../core/lv_obj_style_gen.h **** 
 415:lvgl/src/widgets/../core/lv_obj_style_gen.h **** static inline bool lv_obj_get_style_arc_rounded(const struct _lv_obj_t * obj, uint32_t part)
 416:lvgl/src/widgets/../core/lv_obj_style_gen.h **** {
 417:lvgl/src/widgets/../core/lv_obj_style_gen.h ****     lv_style_value_t v = lv_obj_get_style_prop(obj, part, LV_STYLE_ARC_ROUNDED);
 418:lvgl/src/widgets/../core/lv_obj_style_gen.h ****     return (bool)v.num;
 419:lvgl/src/widgets/../core/lv_obj_style_gen.h **** }
 420:lvgl/src/widgets/../core/lv_obj_style_gen.h **** 
 421:lvgl/src/widgets/../core/lv_obj_style_gen.h **** static inline lv_color_t lv_obj_get_style_arc_color(const struct _lv_obj_t * obj, uint32_t part)
 422:lvgl/src/widgets/../core/lv_obj_style_gen.h **** {
 423:lvgl/src/widgets/../core/lv_obj_style_gen.h ****     lv_style_value_t v = lv_obj_get_style_prop(obj, part, LV_STYLE_ARC_COLOR);
 424:lvgl/src/widgets/../core/lv_obj_style_gen.h ****     return v.color;
 425:lvgl/src/widgets/../core/lv_obj_style_gen.h **** }
 426:lvgl/src/widgets/../core/lv_obj_style_gen.h **** 
 427:lvgl/src/widgets/../core/lv_obj_style_gen.h **** static inline lv_color_t lv_obj_get_style_arc_color_filtered(const struct _lv_obj_t * obj, uint32_t
 428:lvgl/src/widgets/../core/lv_obj_style_gen.h **** {
 429:lvgl/src/widgets/../core/lv_obj_style_gen.h ****     lv_style_value_t v = _lv_obj_style_apply_color_filter(obj, part, lv_obj_get_style_prop(obj, par
 430:lvgl/src/widgets/../core/lv_obj_style_gen.h ****     return v.color;
 431:lvgl/src/widgets/../core/lv_obj_style_gen.h **** }
 432:lvgl/src/widgets/../core/lv_obj_style_gen.h **** 
 433:lvgl/src/widgets/../core/lv_obj_style_gen.h **** static inline lv_opa_t lv_obj_get_style_arc_opa(const struct _lv_obj_t * obj, uint32_t part)
 434:lvgl/src/widgets/../core/lv_obj_style_gen.h **** {
 435:lvgl/src/widgets/../core/lv_obj_style_gen.h ****     lv_style_value_t v = lv_obj_get_style_prop(obj, part, LV_STYLE_ARC_OPA);
 436:lvgl/src/widgets/../core/lv_obj_style_gen.h ****     return (lv_opa_t)v.num;
 437:lvgl/src/widgets/../core/lv_obj_style_gen.h **** }
 438:lvgl/src/widgets/../core/lv_obj_style_gen.h **** 
 439:lvgl/src/widgets/../core/lv_obj_style_gen.h **** static inline const void * lv_obj_get_style_arc_img_src(const struct _lv_obj_t * obj, uint32_t part
 440:lvgl/src/widgets/../core/lv_obj_style_gen.h **** {
 441:lvgl/src/widgets/../core/lv_obj_style_gen.h ****     lv_style_value_t v = lv_obj_get_style_prop(obj, part, LV_STYLE_ARC_IMG_SRC);
 442:lvgl/src/widgets/../core/lv_obj_style_gen.h ****     return (const void *)v.ptr;
 443:lvgl/src/widgets/../core/lv_obj_style_gen.h **** }
ARM GAS  /var/folders/21/t9g5rlb91ys800n5npymflf80000gn/T//ccNiYEm1.s 			page 37


 444:lvgl/src/widgets/../core/lv_obj_style_gen.h **** 
 445:lvgl/src/widgets/../core/lv_obj_style_gen.h **** static inline lv_color_t lv_obj_get_style_text_color(const struct _lv_obj_t * obj, uint32_t part)
 446:lvgl/src/widgets/../core/lv_obj_style_gen.h **** {
 447:lvgl/src/widgets/../core/lv_obj_style_gen.h ****     lv_style_value_t v = lv_obj_get_style_prop(obj, part, LV_STYLE_TEXT_COLOR);
 448:lvgl/src/widgets/../core/lv_obj_style_gen.h ****     return v.color;
 449:lvgl/src/widgets/../core/lv_obj_style_gen.h **** }
 450:lvgl/src/widgets/../core/lv_obj_style_gen.h **** 
 451:lvgl/src/widgets/../core/lv_obj_style_gen.h **** static inline lv_color_t lv_obj_get_style_text_color_filtered(const struct _lv_obj_t * obj, uint32_
 452:lvgl/src/widgets/../core/lv_obj_style_gen.h **** {
 453:lvgl/src/widgets/../core/lv_obj_style_gen.h ****     lv_style_value_t v = _lv_obj_style_apply_color_filter(obj, part, lv_obj_get_style_prop(obj, par
 454:lvgl/src/widgets/../core/lv_obj_style_gen.h ****     return v.color;
 455:lvgl/src/widgets/../core/lv_obj_style_gen.h **** }
 456:lvgl/src/widgets/../core/lv_obj_style_gen.h **** 
 457:lvgl/src/widgets/../core/lv_obj_style_gen.h **** static inline lv_opa_t lv_obj_get_style_text_opa(const struct _lv_obj_t * obj, uint32_t part)
 458:lvgl/src/widgets/../core/lv_obj_style_gen.h **** {
 459:lvgl/src/widgets/../core/lv_obj_style_gen.h ****     lv_style_value_t v = lv_obj_get_style_prop(obj, part, LV_STYLE_TEXT_OPA);
 460:lvgl/src/widgets/../core/lv_obj_style_gen.h ****     return (lv_opa_t)v.num;
 461:lvgl/src/widgets/../core/lv_obj_style_gen.h **** }
 462:lvgl/src/widgets/../core/lv_obj_style_gen.h **** 
 463:lvgl/src/widgets/../core/lv_obj_style_gen.h **** static inline const lv_font_t * lv_obj_get_style_text_font(const struct _lv_obj_t * obj, uint32_t p
 464:lvgl/src/widgets/../core/lv_obj_style_gen.h **** {
 465:lvgl/src/widgets/../core/lv_obj_style_gen.h ****     lv_style_value_t v = lv_obj_get_style_prop(obj, part, LV_STYLE_TEXT_FONT);
 466:lvgl/src/widgets/../core/lv_obj_style_gen.h ****     return (const lv_font_t *)v.ptr;
 467:lvgl/src/widgets/../core/lv_obj_style_gen.h **** }
 468:lvgl/src/widgets/../core/lv_obj_style_gen.h **** 
 469:lvgl/src/widgets/../core/lv_obj_style_gen.h **** static inline lv_coord_t lv_obj_get_style_text_letter_space(const struct _lv_obj_t * obj, uint32_t 
 439              		.loc 3 469 26 view .LVU133
 440              	.LBB136:
 470:lvgl/src/widgets/../core/lv_obj_style_gen.h **** {
 471:lvgl/src/widgets/../core/lv_obj_style_gen.h ****     lv_style_value_t v = lv_obj_get_style_prop(obj, part, LV_STYLE_TEXT_LETTER_SPACE);
 441              		.loc 3 471 5 view .LVU134
 442              		.loc 3 471 26 is_stmt 0 view .LVU135
 443 0048 5822     		movs	r2, #88
 444 004a 4FF4A021 		mov	r1, #327680
 445 004e 2846     		mov	r0, r5
 446 0050 FFF7FEFF 		bl	lv_obj_get_style_prop
 447              	.LVL49:
 472:lvgl/src/widgets/../core/lv_obj_style_gen.h ****     return (lv_coord_t)v.num;
 448              		.loc 3 472 5 is_stmt 1 view .LVU136
 449              		.loc 3 472 12 is_stmt 0 view .LVU137
 450 0054 03B2     		sxth	r3, r0
 451 0056 0893     		str	r3, [sp, #32]
 452              	.LVL50:
 453              		.loc 3 472 12 view .LVU138
 454              	.LBE136:
 455              	.LBE135:
 872:lvgl/src/widgets/lv_table.c ****     const lv_font_t * font = lv_obj_get_style_text_font(obj, LV_PART_ITEMS);
 456              		.loc 1 872 5 is_stmt 1 view .LVU139
 457              	.LBB137:
 458              	.LBI137:
 473:lvgl/src/widgets/../core/lv_obj_style_gen.h **** }
 474:lvgl/src/widgets/../core/lv_obj_style_gen.h **** 
 475:lvgl/src/widgets/../core/lv_obj_style_gen.h **** static inline lv_coord_t lv_obj_get_style_text_line_space(const struct _lv_obj_t * obj, uint32_t pa
 459              		.loc 3 475 26 view .LVU140
 460              	.LBB138:
 476:lvgl/src/widgets/../core/lv_obj_style_gen.h **** {
 477:lvgl/src/widgets/../core/lv_obj_style_gen.h ****     lv_style_value_t v = lv_obj_get_style_prop(obj, part, LV_STYLE_TEXT_LINE_SPACE);
ARM GAS  /var/folders/21/t9g5rlb91ys800n5npymflf80000gn/T//ccNiYEm1.s 			page 38


 461              		.loc 3 477 5 view .LVU141
 462              		.loc 3 477 26 is_stmt 0 view .LVU142
 463 0058 5922     		movs	r2, #89
 464 005a 4FF4A021 		mov	r1, #327680
 465 005e 2846     		mov	r0, r5
 466 0060 FFF7FEFF 		bl	lv_obj_get_style_prop
 467              	.LVL51:
 478:lvgl/src/widgets/../core/lv_obj_style_gen.h ****     return (lv_coord_t)v.num;
 468              		.loc 3 478 5 is_stmt 1 view .LVU143
 469              		.loc 3 478 12 is_stmt 0 view .LVU144
 470 0064 07B2     		sxth	r7, r0
 471              	.LVL52:
 472              		.loc 3 478 12 view .LVU145
 473              	.LBE138:
 474              	.LBE137:
 873:lvgl/src/widgets/lv_table.c **** 
 475              		.loc 1 873 5 is_stmt 1 view .LVU146
 476              	.LBB139:
 477              	.LBI139:
 463:lvgl/src/widgets/../core/lv_obj_style_gen.h **** {
 478              		.loc 3 463 33 view .LVU147
 479              	.LBB140:
 465:lvgl/src/widgets/../core/lv_obj_style_gen.h ****     return (const lv_font_t *)v.ptr;
 480              		.loc 3 465 5 view .LVU148
 465:lvgl/src/widgets/../core/lv_obj_style_gen.h ****     return (const lv_font_t *)v.ptr;
 481              		.loc 3 465 26 is_stmt 0 view .LVU149
 482 0066 5722     		movs	r2, #87
 483 0068 4FF4A021 		mov	r1, #327680
 484 006c 2846     		mov	r0, r5
 485 006e FFF7FEFF 		bl	lv_obj_get_style_prop
 486              	.LVL53:
 487 0072 0790     		str	r0, [sp, #28]
 466:lvgl/src/widgets/../core/lv_obj_style_gen.h **** }
 488              		.loc 3 466 5 is_stmt 1 view .LVU150
 489              	.LVL54:
 466:lvgl/src/widgets/../core/lv_obj_style_gen.h **** }
 490              		.loc 3 466 5 is_stmt 0 view .LVU151
 491              	.LBE140:
 492              	.LBE139:
 875:lvgl/src/widgets/lv_table.c ****     const lv_coord_t maxh = lv_obj_get_style_max_height(obj, LV_PART_ITEMS);
 493              		.loc 1 875 5 is_stmt 1 view .LVU152
 494              	.LBB141:
 495              	.LBI141:
  25:lvgl/src/widgets/../core/lv_obj_style_gen.h **** {
 496              		.loc 3 25 26 view .LVU153
 497              	.LBB142:
  27:lvgl/src/widgets/../core/lv_obj_style_gen.h ****     return (lv_coord_t)v.num;
 498              		.loc 3 27 5 view .LVU154
  27:lvgl/src/widgets/../core/lv_obj_style_gen.h ****     return (lv_coord_t)v.num;
 499              		.loc 3 27 26 is_stmt 0 view .LVU155
 500 0074 0522     		movs	r2, #5
 501 0076 4FF4A021 		mov	r1, #327680
 502 007a 2846     		mov	r0, r5
 503              	.LVL55:
  27:lvgl/src/widgets/../core/lv_obj_style_gen.h ****     return (lv_coord_t)v.num;
 504              		.loc 3 27 26 view .LVU156
 505 007c FFF7FEFF 		bl	lv_obj_get_style_prop
ARM GAS  /var/folders/21/t9g5rlb91ys800n5npymflf80000gn/T//ccNiYEm1.s 			page 39


 506              	.LVL56:
  28:lvgl/src/widgets/../core/lv_obj_style_gen.h **** }
 507              		.loc 3 28 5 is_stmt 1 view .LVU157
  28:lvgl/src/widgets/../core/lv_obj_style_gen.h **** }
 508              		.loc 3 28 12 is_stmt 0 view .LVU158
 509 0080 0FFA80F8 		sxth	r8, r0
 510              	.LVL57:
  28:lvgl/src/widgets/../core/lv_obj_style_gen.h **** }
 511              		.loc 3 28 12 view .LVU159
 512              	.LBE142:
 513              	.LBE141:
 876:lvgl/src/widgets/lv_table.c **** 
 514              		.loc 1 876 5 is_stmt 1 view .LVU160
 515              	.LBB143:
 516              	.LBI143:
  31:lvgl/src/widgets/../core/lv_obj_style_gen.h **** {
 517              		.loc 3 31 26 view .LVU161
 518              	.LBB144:
  33:lvgl/src/widgets/../core/lv_obj_style_gen.h ****     return (lv_coord_t)v.num;
 519              		.loc 3 33 5 view .LVU162
  33:lvgl/src/widgets/../core/lv_obj_style_gen.h ****     return (lv_coord_t)v.num;
 520              		.loc 3 33 26 is_stmt 0 view .LVU163
 521 0084 0622     		movs	r2, #6
 522 0086 4FF4A021 		mov	r1, #327680
 523 008a 2846     		mov	r0, r5
 524 008c FFF7FEFF 		bl	lv_obj_get_style_prop
 525              	.LVL58:
  34:lvgl/src/widgets/../core/lv_obj_style_gen.h **** }
 526              		.loc 3 34 5 is_stmt 1 view .LVU164
  34:lvgl/src/widgets/../core/lv_obj_style_gen.h **** }
 527              		.loc 3 34 12 is_stmt 0 view .LVU165
 528 0090 06B2     		sxth	r6, r0
 529              	.LVL59:
  34:lvgl/src/widgets/../core/lv_obj_style_gen.h **** }
 530              		.loc 3 34 12 view .LVU166
 531              	.LBE144:
 532              	.LBE143:
 878:lvgl/src/widgets/lv_table.c ****     uint32_t i;
 533              		.loc 1 878 5 is_stmt 1 view .LVU167
 879:lvgl/src/widgets/lv_table.c ****     for(i = start_row; i < table->row_cnt; i++) {
 534              		.loc 1 879 5 view .LVU168
 880:lvgl/src/widgets/lv_table.c ****         lv_coord_t calculated_height = get_row_height(obj, i, font, letter_space, line_space,
 535              		.loc 1 880 5 view .LVU169
 880:lvgl/src/widgets/lv_table.c ****         lv_coord_t calculated_height = get_row_height(obj, i, font, letter_space, line_space,
 536              		.loc 1 880 5 is_stmt 0 view .LVU170
 537 0092 19E0     		b	.L12
 538              	.LVL60:
 539              	.L13:
 540              	.LBB145:
 881:lvgl/src/widgets/lv_table.c ****                                                       cell_pad_left, cell_pad_right, cell_pad_top, 
 541              		.loc 1 881 9 is_stmt 1 discriminator 3 view .LVU171
 881:lvgl/src/widgets/lv_table.c ****                                                       cell_pad_left, cell_pad_right, cell_pad_top, 
 542              		.loc 1 881 40 is_stmt 0 discriminator 3 view .LVU172
 543 0094 099B     		ldr	r3, [sp, #36]
 544 0096 0493     		str	r3, [sp, #16]
 545 0098 CDF80C90 		str	r9, [sp, #12]
 546 009c CDF808A0 		str	r10, [sp, #8]
ARM GAS  /var/folders/21/t9g5rlb91ys800n5npymflf80000gn/T//ccNiYEm1.s 			page 40


 547 00a0 CDF804B0 		str	fp, [sp, #4]
 548 00a4 0097     		str	r7, [sp]
 549 00a6 089B     		ldr	r3, [sp, #32]
 550 00a8 079A     		ldr	r2, [sp, #28]
 551 00aa A1B2     		uxth	r1, r4
 552 00ac 2846     		mov	r0, r5
 553 00ae FFF7FEFF 		bl	get_row_height
 554              	.LVL61:
 883:lvgl/src/widgets/lv_table.c ****     }
 555              		.loc 1 883 9 is_stmt 1 discriminator 3 view .LVU173
 883:lvgl/src/widgets/lv_table.c ****     }
 556              		.loc 1 883 27 is_stmt 0 discriminator 3 view .LVU174
 557 00b2 B042     		cmp	r0, r6
 558 00b4 A8BF     		it	ge
 559 00b6 3046     		movge	r0, r6
 560              	.LVL62:
 883:lvgl/src/widgets/lv_table.c ****     }
 561              		.loc 1 883 27 discriminator 3 view .LVU175
 562 00b8 00B2     		sxth	r0, r0
 883:lvgl/src/widgets/lv_table.c ****     }
 563              		.loc 1 883 14 discriminator 3 view .LVU176
 564 00ba EB6A     		ldr	r3, [r5, #44]
 883:lvgl/src/widgets/lv_table.c ****     }
 565              		.loc 1 883 27 discriminator 3 view .LVU177
 566 00bc 4045     		cmp	r0, r8
 567 00be B8BF     		it	lt
 568 00c0 4046     		movlt	r0, r8
 883:lvgl/src/widgets/lv_table.c ****     }
 569              		.loc 1 883 25 discriminator 3 view .LVU178
 570 00c2 23F81400 		strh	r0, [r3, r4, lsl #1]	@ movhi
 571              	.LBE145:
 880:lvgl/src/widgets/lv_table.c ****         lv_coord_t calculated_height = get_row_height(obj, i, font, letter_space, line_space,
 572              		.loc 1 880 45 is_stmt 1 discriminator 3 view .LVU179
 573 00c6 0134     		adds	r4, r4, #1
 574              	.LVL63:
 575              	.L12:
 880:lvgl/src/widgets/lv_table.c ****         lv_coord_t calculated_height = get_row_height(obj, i, font, letter_space, line_space,
 576              		.loc 1 880 26 discriminator 1 view .LVU180
 880:lvgl/src/widgets/lv_table.c ****         lv_coord_t calculated_height = get_row_height(obj, i, font, letter_space, line_space,
 577              		.loc 1 880 33 is_stmt 0 discriminator 1 view .LVU181
 578 00c8 EB8C     		ldrh	r3, [r5, #38]
 880:lvgl/src/widgets/lv_table.c ****         lv_coord_t calculated_height = get_row_height(obj, i, font, letter_space, line_space,
 579              		.loc 1 880 26 discriminator 1 view .LVU182
 580 00ca A342     		cmp	r3, r4
 581 00cc E2D8     		bhi	.L13
 886:lvgl/src/widgets/lv_table.c ****     lv_obj_invalidate(obj);
 582              		.loc 1 886 5 is_stmt 1 view .LVU183
 583 00ce 2846     		mov	r0, r5
 584 00d0 FFF7FEFF 		bl	lv_obj_refresh_self_size
 585              	.LVL64:
 887:lvgl/src/widgets/lv_table.c **** }
 586              		.loc 1 887 5 view .LVU184
 587 00d4 2846     		mov	r0, r5
 588 00d6 FFF7FEFF 		bl	lv_obj_invalidate
 589              	.LVL65:
 888:lvgl/src/widgets/lv_table.c **** 
 590              		.loc 1 888 1 is_stmt 0 view .LVU185
ARM GAS  /var/folders/21/t9g5rlb91ys800n5npymflf80000gn/T//ccNiYEm1.s 			page 41


 591 00da 0BB0     		add	sp, sp, #44
 592              	.LCFI5:
 593              		.cfi_def_cfa_offset 36
 594              		@ sp needed
 595 00dc BDE8F08F 		pop	{r4, r5, r6, r7, r8, r9, r10, fp, pc}
 888:lvgl/src/widgets/lv_table.c **** 
 596              		.loc 1 888 1 view .LVU186
 597              		.cfi_endproc
 598              	.LFE182:
 600              		.section	.text.get_pressed_cell,"ax",%progbits
 601              		.align	1
 602              		.syntax unified
 603              		.thumb
 604              		.thumb_func
 606              	get_pressed_cell:
 607              	.LVL66:
 608              	.LFB185:
 988:lvgl/src/widgets/lv_table.c **** 
 989:lvgl/src/widgets/lv_table.c **** static lv_res_t get_pressed_cell(lv_obj_t * obj, uint16_t * row, uint16_t * col)
 990:lvgl/src/widgets/lv_table.c **** {
 609              		.loc 1 990 1 is_stmt 1 view -0
 610              		.cfi_startproc
 611              		@ args = 0, pretend = 0, frame = 8
 612              		@ frame_needed = 0, uses_anonymous_args = 0
 613              		.loc 1 990 1 is_stmt 0 view .LVU188
 614 0000 2DE9F041 		push	{r4, r5, r6, r7, r8, lr}
 615              	.LCFI6:
 616              		.cfi_def_cfa_offset 24
 617              		.cfi_offset 4, -24
 618              		.cfi_offset 5, -20
 619              		.cfi_offset 6, -16
 620              		.cfi_offset 7, -12
 621              		.cfi_offset 8, -8
 622              		.cfi_offset 14, -4
 623 0004 82B0     		sub	sp, sp, #8
 624              	.LCFI7:
 625              		.cfi_def_cfa_offset 32
 626 0006 0446     		mov	r4, r0
 627 0008 0D46     		mov	r5, r1
 628 000a 1646     		mov	r6, r2
 991:lvgl/src/widgets/lv_table.c ****     lv_table_t * table = (lv_table_t *)obj;
 629              		.loc 1 991 5 is_stmt 1 view .LVU189
 630              	.LVL67:
 992:lvgl/src/widgets/lv_table.c **** 
 993:lvgl/src/widgets/lv_table.c ****     lv_indev_type_t type = lv_indev_get_type(lv_indev_get_act());
 631              		.loc 1 993 5 view .LVU190
 632              		.loc 1 993 46 is_stmt 0 view .LVU191
 633 000c FFF7FEFF 		bl	lv_indev_get_act
 634              	.LVL68:
 635              		.loc 1 993 28 view .LVU192
 636 0010 FFF7FEFF 		bl	lv_indev_get_type
 637              	.LVL69:
 994:lvgl/src/widgets/lv_table.c ****     if(type != LV_INDEV_TYPE_POINTER && type != LV_INDEV_TYPE_BUTTON) {
 638              		.loc 1 994 5 is_stmt 1 view .LVU193
 639              		.loc 1 994 7 is_stmt 0 view .LVU194
 640 0014 0128     		cmp	r0, #1
 641 0016 0DD0     		beq	.L16
ARM GAS  /var/folders/21/t9g5rlb91ys800n5npymflf80000gn/T//ccNiYEm1.s 			page 42


 642              		.loc 1 994 38 discriminator 1 view .LVU195
 643 0018 0328     		cmp	r0, #3
 644 001a 0BD0     		beq	.L16
 995:lvgl/src/widgets/lv_table.c ****         if(col) *col = LV_TABLE_CELL_NONE;
 645              		.loc 1 995 9 is_stmt 1 view .LVU196
 646              		.loc 1 995 11 is_stmt 0 view .LVU197
 647 001c 16B1     		cbz	r6, .L17
 648              		.loc 1 995 17 is_stmt 1 discriminator 1 view .LVU198
 649              		.loc 1 995 22 is_stmt 0 discriminator 1 view .LVU199
 650 001e 4FF6FF73 		movw	r3, #65535
 651 0022 3380     		strh	r3, [r6]	@ movhi
 652              	.L17:
 996:lvgl/src/widgets/lv_table.c ****         if(row) *row = LV_TABLE_CELL_NONE;
 653              		.loc 1 996 9 is_stmt 1 view .LVU200
 654              		.loc 1 996 11 is_stmt 0 view .LVU201
 655 0024 15B1     		cbz	r5, .L18
 656              		.loc 1 996 17 is_stmt 1 discriminator 1 view .LVU202
 657              		.loc 1 996 22 is_stmt 0 discriminator 1 view .LVU203
 658 0026 4FF6FF73 		movw	r3, #65535
 659 002a 2B80     		strh	r3, [r5]	@ movhi
 660              	.L18:
 997:lvgl/src/widgets/lv_table.c ****         return LV_RES_INV;
 661              		.loc 1 997 9 is_stmt 1 view .LVU204
 662              		.loc 1 997 16 is_stmt 0 view .LVU205
 663 002c 0020     		movs	r0, #0
 664              	.LVL70:
 665              	.L19:
 998:lvgl/src/widgets/lv_table.c ****     }
 999:lvgl/src/widgets/lv_table.c **** 
1000:lvgl/src/widgets/lv_table.c ****     lv_point_t p;
1001:lvgl/src/widgets/lv_table.c ****     lv_indev_get_point(lv_indev_get_act(), &p);
1002:lvgl/src/widgets/lv_table.c **** 
1003:lvgl/src/widgets/lv_table.c ****     lv_coord_t tmp;
1004:lvgl/src/widgets/lv_table.c ****     if(col) {
1005:lvgl/src/widgets/lv_table.c ****         lv_coord_t x = p.x + lv_obj_get_scroll_x(obj);
1006:lvgl/src/widgets/lv_table.c **** 
1007:lvgl/src/widgets/lv_table.c ****         if(lv_obj_get_style_base_dir(obj, LV_PART_MAIN) == LV_BASE_DIR_RTL) {
1008:lvgl/src/widgets/lv_table.c ****             x = obj->coords.x2 - lv_obj_get_style_pad_right(obj, LV_PART_MAIN) - x;
1009:lvgl/src/widgets/lv_table.c ****         }
1010:lvgl/src/widgets/lv_table.c ****         else {
1011:lvgl/src/widgets/lv_table.c ****             x -= obj->coords.x1;
1012:lvgl/src/widgets/lv_table.c ****             x -= lv_obj_get_style_pad_left(obj, LV_PART_MAIN);
1013:lvgl/src/widgets/lv_table.c ****         }
1014:lvgl/src/widgets/lv_table.c **** 
1015:lvgl/src/widgets/lv_table.c ****         *col = 0;
1016:lvgl/src/widgets/lv_table.c ****         tmp = 0;
1017:lvgl/src/widgets/lv_table.c ****         for(*col = 0; *col < table->col_cnt; (*col)++) {
1018:lvgl/src/widgets/lv_table.c ****             tmp += table->col_w[*col];
1019:lvgl/src/widgets/lv_table.c ****             if(x < tmp) break;
1020:lvgl/src/widgets/lv_table.c ****         }
1021:lvgl/src/widgets/lv_table.c ****     }
1022:lvgl/src/widgets/lv_table.c **** 
1023:lvgl/src/widgets/lv_table.c ****     if(row) {
1024:lvgl/src/widgets/lv_table.c ****         lv_coord_t y = p.y + lv_obj_get_scroll_y(obj);;
1025:lvgl/src/widgets/lv_table.c ****         y -= obj->coords.y1;
1026:lvgl/src/widgets/lv_table.c ****         y -= lv_obj_get_style_pad_top(obj, LV_PART_MAIN);
1027:lvgl/src/widgets/lv_table.c **** 
ARM GAS  /var/folders/21/t9g5rlb91ys800n5npymflf80000gn/T//ccNiYEm1.s 			page 43


1028:lvgl/src/widgets/lv_table.c ****         *row = 0;
1029:lvgl/src/widgets/lv_table.c ****         tmp = 0;
1030:lvgl/src/widgets/lv_table.c **** 
1031:lvgl/src/widgets/lv_table.c ****         for(*row = 0; *row < table->row_cnt; (*row)++) {
1032:lvgl/src/widgets/lv_table.c ****             tmp += table->row_h[*row];
1033:lvgl/src/widgets/lv_table.c ****             if(y < tmp) break;
1034:lvgl/src/widgets/lv_table.c ****         }
1035:lvgl/src/widgets/lv_table.c ****     }
1036:lvgl/src/widgets/lv_table.c **** 
1037:lvgl/src/widgets/lv_table.c ****     return LV_RES_OK;
1038:lvgl/src/widgets/lv_table.c **** }
 666              		.loc 1 1038 1 view .LVU206
 667 002e 02B0     		add	sp, sp, #8
 668              	.LCFI8:
 669              		.cfi_remember_state
 670              		.cfi_def_cfa_offset 24
 671              		@ sp needed
 672 0030 BDE8F081 		pop	{r4, r5, r6, r7, r8, pc}
 673              	.LVL71:
 674              	.L16:
 675              	.LCFI9:
 676              		.cfi_restore_state
1000:lvgl/src/widgets/lv_table.c ****     lv_indev_get_point(lv_indev_get_act(), &p);
 677              		.loc 1 1000 5 is_stmt 1 view .LVU207
1001:lvgl/src/widgets/lv_table.c **** 
 678              		.loc 1 1001 5 view .LVU208
1001:lvgl/src/widgets/lv_table.c **** 
 679              		.loc 1 1001 24 is_stmt 0 view .LVU209
 680 0034 FFF7FEFF 		bl	lv_indev_get_act
 681              	.LVL72:
1001:lvgl/src/widgets/lv_table.c **** 
 682              		.loc 1 1001 5 view .LVU210
 683 0038 01A9     		add	r1, sp, #4
 684 003a FFF7FEFF 		bl	lv_indev_get_point
 685              	.LVL73:
1003:lvgl/src/widgets/lv_table.c ****     if(col) {
 686              		.loc 1 1003 5 is_stmt 1 view .LVU211
1004:lvgl/src/widgets/lv_table.c ****         lv_coord_t x = p.x + lv_obj_get_scroll_x(obj);
 687              		.loc 1 1004 5 view .LVU212
1004:lvgl/src/widgets/lv_table.c ****         lv_coord_t x = p.x + lv_obj_get_scroll_x(obj);
 688              		.loc 1 1004 7 is_stmt 0 view .LVU213
 689 003e 002E     		cmp	r6, #0
 690 0040 38D0     		beq	.L20
 691              	.LBB146:
1005:lvgl/src/widgets/lv_table.c **** 
 692              		.loc 1 1005 9 is_stmt 1 view .LVU214
1005:lvgl/src/widgets/lv_table.c **** 
 693              		.loc 1 1005 25 is_stmt 0 view .LVU215
 694 0042 BDF80470 		ldrh	r7, [sp, #4]
1005:lvgl/src/widgets/lv_table.c **** 
 695              		.loc 1 1005 30 view .LVU216
 696 0046 2046     		mov	r0, r4
 697 0048 FFF7FEFF 		bl	lv_obj_get_scroll_x
 698              	.LVL74:
1005:lvgl/src/widgets/lv_table.c **** 
 699              		.loc 1 1005 28 view .LVU217
 700 004c 17FA80F7 		uxtah	r7, r7, r0
ARM GAS  /var/folders/21/t9g5rlb91ys800n5npymflf80000gn/T//ccNiYEm1.s 			page 44


 701 0050 BFB2     		uxth	r7, r7
 702              	.LVL75:
1007:lvgl/src/widgets/lv_table.c ****             x = obj->coords.x2 - lv_obj_get_style_pad_right(obj, LV_PART_MAIN) - x;
 703              		.loc 1 1007 9 is_stmt 1 view .LVU218
 704              	.LBB147:
 705              	.LBI147:
 479:lvgl/src/widgets/../core/lv_obj_style_gen.h **** }
 480:lvgl/src/widgets/../core/lv_obj_style_gen.h **** 
 481:lvgl/src/widgets/../core/lv_obj_style_gen.h **** static inline lv_text_decor_t lv_obj_get_style_text_decor(const struct _lv_obj_t * obj, uint32_t pa
 482:lvgl/src/widgets/../core/lv_obj_style_gen.h **** {
 483:lvgl/src/widgets/../core/lv_obj_style_gen.h ****     lv_style_value_t v = lv_obj_get_style_prop(obj, part, LV_STYLE_TEXT_DECOR);
 484:lvgl/src/widgets/../core/lv_obj_style_gen.h ****     return (lv_text_decor_t)v.num;
 485:lvgl/src/widgets/../core/lv_obj_style_gen.h **** }
 486:lvgl/src/widgets/../core/lv_obj_style_gen.h **** 
 487:lvgl/src/widgets/../core/lv_obj_style_gen.h **** static inline lv_text_align_t lv_obj_get_style_text_align(const struct _lv_obj_t * obj, uint32_t pa
 488:lvgl/src/widgets/../core/lv_obj_style_gen.h **** {
 489:lvgl/src/widgets/../core/lv_obj_style_gen.h ****     lv_style_value_t v = lv_obj_get_style_prop(obj, part, LV_STYLE_TEXT_ALIGN);
 490:lvgl/src/widgets/../core/lv_obj_style_gen.h ****     return (lv_text_align_t)v.num;
 491:lvgl/src/widgets/../core/lv_obj_style_gen.h **** }
 492:lvgl/src/widgets/../core/lv_obj_style_gen.h **** 
 493:lvgl/src/widgets/../core/lv_obj_style_gen.h **** static inline lv_coord_t lv_obj_get_style_radius(const struct _lv_obj_t * obj, uint32_t part)
 494:lvgl/src/widgets/../core/lv_obj_style_gen.h **** {
 495:lvgl/src/widgets/../core/lv_obj_style_gen.h ****     lv_style_value_t v = lv_obj_get_style_prop(obj, part, LV_STYLE_RADIUS);
 496:lvgl/src/widgets/../core/lv_obj_style_gen.h ****     return (lv_coord_t)v.num;
 497:lvgl/src/widgets/../core/lv_obj_style_gen.h **** }
 498:lvgl/src/widgets/../core/lv_obj_style_gen.h **** 
 499:lvgl/src/widgets/../core/lv_obj_style_gen.h **** static inline bool lv_obj_get_style_clip_corner(const struct _lv_obj_t * obj, uint32_t part)
 500:lvgl/src/widgets/../core/lv_obj_style_gen.h **** {
 501:lvgl/src/widgets/../core/lv_obj_style_gen.h ****     lv_style_value_t v = lv_obj_get_style_prop(obj, part, LV_STYLE_CLIP_CORNER);
 502:lvgl/src/widgets/../core/lv_obj_style_gen.h ****     return (bool)v.num;
 503:lvgl/src/widgets/../core/lv_obj_style_gen.h **** }
 504:lvgl/src/widgets/../core/lv_obj_style_gen.h **** 
 505:lvgl/src/widgets/../core/lv_obj_style_gen.h **** static inline lv_opa_t lv_obj_get_style_opa(const struct _lv_obj_t * obj, uint32_t part)
 506:lvgl/src/widgets/../core/lv_obj_style_gen.h **** {
 507:lvgl/src/widgets/../core/lv_obj_style_gen.h ****     lv_style_value_t v = lv_obj_get_style_prop(obj, part, LV_STYLE_OPA);
 508:lvgl/src/widgets/../core/lv_obj_style_gen.h ****     return (lv_opa_t)v.num;
 509:lvgl/src/widgets/../core/lv_obj_style_gen.h **** }
 510:lvgl/src/widgets/../core/lv_obj_style_gen.h **** 
 511:lvgl/src/widgets/../core/lv_obj_style_gen.h **** static inline lv_opa_t lv_obj_get_style_opa_layered(const struct _lv_obj_t * obj, uint32_t part)
 512:lvgl/src/widgets/../core/lv_obj_style_gen.h **** {
 513:lvgl/src/widgets/../core/lv_obj_style_gen.h ****     lv_style_value_t v = lv_obj_get_style_prop(obj, part, LV_STYLE_OPA_LAYERED);
 514:lvgl/src/widgets/../core/lv_obj_style_gen.h ****     return (lv_opa_t)v.num;
 515:lvgl/src/widgets/../core/lv_obj_style_gen.h **** }
 516:lvgl/src/widgets/../core/lv_obj_style_gen.h **** 
 517:lvgl/src/widgets/../core/lv_obj_style_gen.h **** static inline const lv_color_filter_dsc_t * lv_obj_get_style_color_filter_dsc(const struct _lv_obj_
 518:lvgl/src/widgets/../core/lv_obj_style_gen.h **** {
 519:lvgl/src/widgets/../core/lv_obj_style_gen.h ****     lv_style_value_t v = lv_obj_get_style_prop(obj, part, LV_STYLE_COLOR_FILTER_DSC);
 520:lvgl/src/widgets/../core/lv_obj_style_gen.h ****     return (const lv_color_filter_dsc_t *)v.ptr;
 521:lvgl/src/widgets/../core/lv_obj_style_gen.h **** }
 522:lvgl/src/widgets/../core/lv_obj_style_gen.h **** 
 523:lvgl/src/widgets/../core/lv_obj_style_gen.h **** static inline lv_opa_t lv_obj_get_style_color_filter_opa(const struct _lv_obj_t * obj, uint32_t par
 524:lvgl/src/widgets/../core/lv_obj_style_gen.h **** {
 525:lvgl/src/widgets/../core/lv_obj_style_gen.h ****     lv_style_value_t v = lv_obj_get_style_prop(obj, part, LV_STYLE_COLOR_FILTER_OPA);
 526:lvgl/src/widgets/../core/lv_obj_style_gen.h ****     return (lv_opa_t)v.num;
 527:lvgl/src/widgets/../core/lv_obj_style_gen.h **** }
 528:lvgl/src/widgets/../core/lv_obj_style_gen.h **** 
 529:lvgl/src/widgets/../core/lv_obj_style_gen.h **** static inline const lv_anim_t * lv_obj_get_style_anim(const struct _lv_obj_t * obj, uint32_t part)
ARM GAS  /var/folders/21/t9g5rlb91ys800n5npymflf80000gn/T//ccNiYEm1.s 			page 45


 530:lvgl/src/widgets/../core/lv_obj_style_gen.h **** {
 531:lvgl/src/widgets/../core/lv_obj_style_gen.h ****     lv_style_value_t v = lv_obj_get_style_prop(obj, part, LV_STYLE_ANIM);
 532:lvgl/src/widgets/../core/lv_obj_style_gen.h ****     return (const lv_anim_t *)v.ptr;
 533:lvgl/src/widgets/../core/lv_obj_style_gen.h **** }
 534:lvgl/src/widgets/../core/lv_obj_style_gen.h **** 
 535:lvgl/src/widgets/../core/lv_obj_style_gen.h **** static inline uint32_t lv_obj_get_style_anim_time(const struct _lv_obj_t * obj, uint32_t part)
 536:lvgl/src/widgets/../core/lv_obj_style_gen.h **** {
 537:lvgl/src/widgets/../core/lv_obj_style_gen.h ****     lv_style_value_t v = lv_obj_get_style_prop(obj, part, LV_STYLE_ANIM_TIME);
 538:lvgl/src/widgets/../core/lv_obj_style_gen.h ****     return (uint32_t)v.num;
 539:lvgl/src/widgets/../core/lv_obj_style_gen.h **** }
 540:lvgl/src/widgets/../core/lv_obj_style_gen.h **** 
 541:lvgl/src/widgets/../core/lv_obj_style_gen.h **** static inline uint32_t lv_obj_get_style_anim_speed(const struct _lv_obj_t * obj, uint32_t part)
 542:lvgl/src/widgets/../core/lv_obj_style_gen.h **** {
 543:lvgl/src/widgets/../core/lv_obj_style_gen.h ****     lv_style_value_t v = lv_obj_get_style_prop(obj, part, LV_STYLE_ANIM_SPEED);
 544:lvgl/src/widgets/../core/lv_obj_style_gen.h ****     return (uint32_t)v.num;
 545:lvgl/src/widgets/../core/lv_obj_style_gen.h **** }
 546:lvgl/src/widgets/../core/lv_obj_style_gen.h **** 
 547:lvgl/src/widgets/../core/lv_obj_style_gen.h **** static inline const lv_style_transition_dsc_t * lv_obj_get_style_transition(const struct _lv_obj_t 
 548:lvgl/src/widgets/../core/lv_obj_style_gen.h **** {
 549:lvgl/src/widgets/../core/lv_obj_style_gen.h ****     lv_style_value_t v = lv_obj_get_style_prop(obj, part, LV_STYLE_TRANSITION);
 550:lvgl/src/widgets/../core/lv_obj_style_gen.h ****     return (const lv_style_transition_dsc_t *)v.ptr;
 551:lvgl/src/widgets/../core/lv_obj_style_gen.h **** }
 552:lvgl/src/widgets/../core/lv_obj_style_gen.h **** 
 553:lvgl/src/widgets/../core/lv_obj_style_gen.h **** static inline lv_blend_mode_t lv_obj_get_style_blend_mode(const struct _lv_obj_t * obj, uint32_t pa
 554:lvgl/src/widgets/../core/lv_obj_style_gen.h **** {
 555:lvgl/src/widgets/../core/lv_obj_style_gen.h ****     lv_style_value_t v = lv_obj_get_style_prop(obj, part, LV_STYLE_BLEND_MODE);
 556:lvgl/src/widgets/../core/lv_obj_style_gen.h ****     return (lv_blend_mode_t)v.num;
 557:lvgl/src/widgets/../core/lv_obj_style_gen.h **** }
 558:lvgl/src/widgets/../core/lv_obj_style_gen.h **** 
 559:lvgl/src/widgets/../core/lv_obj_style_gen.h **** static inline uint16_t lv_obj_get_style_layout(const struct _lv_obj_t * obj, uint32_t part)
 560:lvgl/src/widgets/../core/lv_obj_style_gen.h **** {
 561:lvgl/src/widgets/../core/lv_obj_style_gen.h ****     lv_style_value_t v = lv_obj_get_style_prop(obj, part, LV_STYLE_LAYOUT);
 562:lvgl/src/widgets/../core/lv_obj_style_gen.h ****     return (uint16_t)v.num;
 563:lvgl/src/widgets/../core/lv_obj_style_gen.h **** }
 564:lvgl/src/widgets/../core/lv_obj_style_gen.h **** 
 565:lvgl/src/widgets/../core/lv_obj_style_gen.h **** static inline lv_base_dir_t lv_obj_get_style_base_dir(const struct _lv_obj_t * obj, uint32_t part)
 706              		.loc 3 565 29 view .LVU219
 707              	.LBB148:
 566:lvgl/src/widgets/../core/lv_obj_style_gen.h **** {
 567:lvgl/src/widgets/../core/lv_obj_style_gen.h ****     lv_style_value_t v = lv_obj_get_style_prop(obj, part, LV_STYLE_BASE_DIR);
 708              		.loc 3 567 5 view .LVU220
 709              		.loc 3 567 26 is_stmt 0 view .LVU221
 710 0052 1622     		movs	r2, #22
 711 0054 0021     		movs	r1, #0
 712 0056 2046     		mov	r0, r4
 713 0058 FFF7FEFF 		bl	lv_obj_get_style_prop
 714              	.LVL76:
 568:lvgl/src/widgets/../core/lv_obj_style_gen.h ****     return (lv_base_dir_t)v.num;
 715              		.loc 3 568 5 is_stmt 1 view .LVU222
 716              		.loc 3 568 12 is_stmt 0 view .LVU223
 717 005c C0B2     		uxtb	r0, r0
 718              	.LVL77:
 719              		.loc 3 568 12 view .LVU224
 720              	.LBE148:
 721              	.LBE147:
1007:lvgl/src/widgets/lv_table.c ****             x = obj->coords.x2 - lv_obj_get_style_pad_right(obj, LV_PART_MAIN) - x;
 722              		.loc 1 1007 11 view .LVU225
ARM GAS  /var/folders/21/t9g5rlb91ys800n5npymflf80000gn/T//ccNiYEm1.s 			page 46


 723 005e 0128     		cmp	r0, #1
 724 0060 1AD0     		beq	.L30
1011:lvgl/src/widgets/lv_table.c ****             x -= lv_obj_get_style_pad_left(obj, LV_PART_MAIN);
 725              		.loc 1 1011 13 is_stmt 1 view .LVU226
1011:lvgl/src/widgets/lv_table.c ****             x -= lv_obj_get_style_pad_left(obj, LV_PART_MAIN);
 726              		.loc 1 1011 29 is_stmt 0 view .LVU227
 727 0062 A38A     		ldrh	r3, [r4, #20]
1011:lvgl/src/widgets/lv_table.c ****             x -= lv_obj_get_style_pad_left(obj, LV_PART_MAIN);
 728              		.loc 1 1011 15 view .LVU228
 729 0064 FF1A     		subs	r7, r7, r3
 730              	.LVL78:
1011:lvgl/src/widgets/lv_table.c ****             x -= lv_obj_get_style_pad_left(obj, LV_PART_MAIN);
 731              		.loc 1 1011 15 view .LVU229
 732 0066 BFB2     		uxth	r7, r7
 733              	.LVL79:
1012:lvgl/src/widgets/lv_table.c ****         }
 734              		.loc 1 1012 13 is_stmt 1 view .LVU230
 735              	.LBB149:
 736              	.LBI149:
 115:lvgl/src/widgets/../core/lv_obj_style_gen.h **** {
 737              		.loc 3 115 26 view .LVU231
 738              	.LBB150:
 117:lvgl/src/widgets/../core/lv_obj_style_gen.h ****     return (lv_coord_t)v.num;
 739              		.loc 3 117 5 view .LVU232
 117:lvgl/src/widgets/../core/lv_obj_style_gen.h ****     return (lv_coord_t)v.num;
 740              		.loc 3 117 26 is_stmt 0 view .LVU233
 741 0068 1222     		movs	r2, #18
 742 006a 0021     		movs	r1, #0
 743 006c 2046     		mov	r0, r4
 744 006e FFF7FEFF 		bl	lv_obj_get_style_prop
 745              	.LVL80:
 118:lvgl/src/widgets/../core/lv_obj_style_gen.h **** }
 746              		.loc 3 118 5 is_stmt 1 view .LVU234
 118:lvgl/src/widgets/../core/lv_obj_style_gen.h **** }
 747              		.loc 3 118 5 is_stmt 0 view .LVU235
 748              	.LBE150:
 749              	.LBE149:
1012:lvgl/src/widgets/lv_table.c ****         }
 750              		.loc 1 1012 18 view .LVU236
 751 0072 80B2     		uxth	r0, r0
1012:lvgl/src/widgets/lv_table.c ****         }
 752              		.loc 1 1012 15 view .LVU237
 753 0074 381A     		subs	r0, r7, r0
 754 0076 00B2     		sxth	r0, r0
 755              	.LVL81:
 756              	.L22:
1015:lvgl/src/widgets/lv_table.c ****         tmp = 0;
 757              		.loc 1 1015 9 is_stmt 1 view .LVU238
1015:lvgl/src/widgets/lv_table.c ****         tmp = 0;
 758              		.loc 1 1015 14 is_stmt 0 view .LVU239
 759 0078 0021     		movs	r1, #0
 760 007a 3180     		strh	r1, [r6]	@ movhi
1016:lvgl/src/widgets/lv_table.c ****         for(*col = 0; *col < table->col_cnt; (*col)++) {
 761              		.loc 1 1016 9 is_stmt 1 view .LVU240
 762              	.LVL82:
1017:lvgl/src/widgets/lv_table.c ****             tmp += table->col_w[*col];
 763              		.loc 1 1017 9 view .LVU241
ARM GAS  /var/folders/21/t9g5rlb91ys800n5npymflf80000gn/T//ccNiYEm1.s 			page 47


 764              	.L23:
1017:lvgl/src/widgets/lv_table.c ****             tmp += table->col_w[*col];
 765              		.loc 1 1017 28 discriminator 1 view .LVU242
1017:lvgl/src/widgets/lv_table.c ****             tmp += table->col_w[*col];
 766              		.loc 1 1017 23 is_stmt 0 discriminator 1 view .LVU243
 767 007c 3388     		ldrh	r3, [r6]
1017:lvgl/src/widgets/lv_table.c ****             tmp += table->col_w[*col];
 768              		.loc 1 1017 35 discriminator 1 view .LVU244
 769 007e A28C     		ldrh	r2, [r4, #36]
1017:lvgl/src/widgets/lv_table.c ****             tmp += table->col_w[*col];
 770              		.loc 1 1017 28 discriminator 1 view .LVU245
 771 0080 9342     		cmp	r3, r2
 772 0082 17D2     		bcs	.L20
1018:lvgl/src/widgets/lv_table.c ****             if(x < tmp) break;
 773              		.loc 1 1018 13 is_stmt 1 view .LVU246
1018:lvgl/src/widgets/lv_table.c ****             if(x < tmp) break;
 774              		.loc 1 1018 25 is_stmt 0 view .LVU247
 775 0084 226B     		ldr	r2, [r4, #48]
1018:lvgl/src/widgets/lv_table.c ****             if(x < tmp) break;
 776              		.loc 1 1018 32 view .LVU248
 777 0086 32F81320 		ldrh	r2, [r2, r3, lsl #1]
1018:lvgl/src/widgets/lv_table.c ****             if(x < tmp) break;
 778              		.loc 1 1018 17 view .LVU249
 779 008a 1144     		add	r1, r1, r2
 780              	.LVL83:
1018:lvgl/src/widgets/lv_table.c ****             if(x < tmp) break;
 781              		.loc 1 1018 17 view .LVU250
 782 008c 09B2     		sxth	r1, r1
 783              	.LVL84:
1019:lvgl/src/widgets/lv_table.c ****         }
 784              		.loc 1 1019 13 is_stmt 1 view .LVU251
1019:lvgl/src/widgets/lv_table.c ****         }
 785              		.loc 1 1019 15 is_stmt 0 view .LVU252
 786 008e 8842     		cmp	r0, r1
 787 0090 10DB     		blt	.L20
1017:lvgl/src/widgets/lv_table.c ****             tmp += table->col_w[*col];
 788              		.loc 1 1017 52 is_stmt 1 discriminator 2 view .LVU253
 789 0092 0133     		adds	r3, r3, #1
 790 0094 3380     		strh	r3, [r6]	@ movhi
 791 0096 F1E7     		b	.L23
 792              	.LVL85:
 793              	.L30:
1008:lvgl/src/widgets/lv_table.c ****         }
 794              		.loc 1 1008 13 view .LVU254
1008:lvgl/src/widgets/lv_table.c ****         }
 795              		.loc 1 1008 28 is_stmt 0 view .LVU255
 796 0098 B4F81880 		ldrh	r8, [r4, #24]
 797              	.LVL86:
 798              	.LBB151:
 799              	.LBI151:
 121:lvgl/src/widgets/../core/lv_obj_style_gen.h **** {
 800              		.loc 3 121 26 is_stmt 1 view .LVU256
 801              	.LBB152:
 123:lvgl/src/widgets/../core/lv_obj_style_gen.h ****     return (lv_coord_t)v.num;
 802              		.loc 3 123 5 view .LVU257
 123:lvgl/src/widgets/../core/lv_obj_style_gen.h ****     return (lv_coord_t)v.num;
 803              		.loc 3 123 26 is_stmt 0 view .LVU258
ARM GAS  /var/folders/21/t9g5rlb91ys800n5npymflf80000gn/T//ccNiYEm1.s 			page 48


 804 009c 1322     		movs	r2, #19
 805 009e 0021     		movs	r1, #0
 806 00a0 2046     		mov	r0, r4
 807 00a2 FFF7FEFF 		bl	lv_obj_get_style_prop
 808              	.LVL87:
 124:lvgl/src/widgets/../core/lv_obj_style_gen.h **** }
 809              		.loc 3 124 5 is_stmt 1 view .LVU259
 124:lvgl/src/widgets/../core/lv_obj_style_gen.h **** }
 810              		.loc 3 124 5 is_stmt 0 view .LVU260
 811              	.LBE152:
 812              	.LBE151:
1008:lvgl/src/widgets/lv_table.c ****         }
 813              		.loc 1 1008 34 view .LVU261
 814 00a6 80B2     		uxth	r0, r0
1008:lvgl/src/widgets/lv_table.c ****         }
 815              		.loc 1 1008 32 view .LVU262
 816 00a8 A8EB0003 		sub	r3, r8, r0
 817 00ac 9BB2     		uxth	r3, r3
1008:lvgl/src/widgets/lv_table.c ****         }
 818              		.loc 1 1008 80 view .LVU263
 819 00ae DB1B     		subs	r3, r3, r7
1008:lvgl/src/widgets/lv_table.c ****         }
 820              		.loc 1 1008 15 view .LVU264
 821 00b0 18B2     		sxth	r0, r3
 822              	.LVL88:
1008:lvgl/src/widgets/lv_table.c ****         }
 823              		.loc 1 1008 15 view .LVU265
 824 00b2 E1E7     		b	.L22
 825              	.LVL89:
 826              	.L20:
1008:lvgl/src/widgets/lv_table.c ****         }
 827              		.loc 1 1008 15 view .LVU266
 828              	.LBE146:
1023:lvgl/src/widgets/lv_table.c ****         lv_coord_t y = p.y + lv_obj_get_scroll_y(obj);;
 829              		.loc 1 1023 5 is_stmt 1 view .LVU267
1023:lvgl/src/widgets/lv_table.c ****         lv_coord_t y = p.y + lv_obj_get_scroll_y(obj);;
 830              		.loc 1 1023 7 is_stmt 0 view .LVU268
 831 00b4 25B3     		cbz	r5, .L27
 832              	.LBB153:
1024:lvgl/src/widgets/lv_table.c ****         y -= obj->coords.y1;
 833              		.loc 1 1024 9 is_stmt 1 view .LVU269
1024:lvgl/src/widgets/lv_table.c ****         y -= obj->coords.y1;
 834              		.loc 1 1024 25 is_stmt 0 view .LVU270
 835 00b6 BDF80660 		ldrh	r6, [sp, #6]
 836              	.LVL90:
1024:lvgl/src/widgets/lv_table.c ****         y -= obj->coords.y1;
 837              		.loc 1 1024 30 view .LVU271
 838 00ba 2046     		mov	r0, r4
 839 00bc FFF7FEFF 		bl	lv_obj_get_scroll_y
 840              	.LVL91:
1024:lvgl/src/widgets/lv_table.c ****         y -= obj->coords.y1;
 841              		.loc 1 1024 28 view .LVU272
 842 00c0 16FA80F6 		uxtah	r6, r6, r0
 843 00c4 B6B2     		uxth	r6, r6
 844              	.LVL92:
1024:lvgl/src/widgets/lv_table.c ****         y -= obj->coords.y1;
 845              		.loc 1 1024 55 is_stmt 1 view .LVU273
ARM GAS  /var/folders/21/t9g5rlb91ys800n5npymflf80000gn/T//ccNiYEm1.s 			page 49


1025:lvgl/src/widgets/lv_table.c ****         y -= lv_obj_get_style_pad_top(obj, LV_PART_MAIN);
 846              		.loc 1 1025 9 view .LVU274
1025:lvgl/src/widgets/lv_table.c ****         y -= lv_obj_get_style_pad_top(obj, LV_PART_MAIN);
 847              		.loc 1 1025 25 is_stmt 0 view .LVU275
 848 00c6 E38A     		ldrh	r3, [r4, #22]
1025:lvgl/src/widgets/lv_table.c ****         y -= lv_obj_get_style_pad_top(obj, LV_PART_MAIN);
 849              		.loc 1 1025 11 view .LVU276
 850 00c8 F61A     		subs	r6, r6, r3
 851              	.LVL93:
1025:lvgl/src/widgets/lv_table.c ****         y -= lv_obj_get_style_pad_top(obj, LV_PART_MAIN);
 852              		.loc 1 1025 11 view .LVU277
 853 00ca B6B2     		uxth	r6, r6
 854              	.LVL94:
1026:lvgl/src/widgets/lv_table.c **** 
 855              		.loc 1 1026 9 is_stmt 1 view .LVU278
 856              	.LBB154:
 857              	.LBI154:
 103:lvgl/src/widgets/../core/lv_obj_style_gen.h **** {
 858              		.loc 3 103 26 view .LVU279
 859              	.LBB155:
 105:lvgl/src/widgets/../core/lv_obj_style_gen.h ****     return (lv_coord_t)v.num;
 860              		.loc 3 105 5 view .LVU280
 105:lvgl/src/widgets/../core/lv_obj_style_gen.h ****     return (lv_coord_t)v.num;
 861              		.loc 3 105 26 is_stmt 0 view .LVU281
 862 00cc 1022     		movs	r2, #16
 863 00ce 0021     		movs	r1, #0
 864 00d0 2046     		mov	r0, r4
 865 00d2 FFF7FEFF 		bl	lv_obj_get_style_prop
 866              	.LVL95:
 106:lvgl/src/widgets/../core/lv_obj_style_gen.h **** }
 867              		.loc 3 106 5 is_stmt 1 view .LVU282
 106:lvgl/src/widgets/../core/lv_obj_style_gen.h **** }
 868              		.loc 3 106 5 is_stmt 0 view .LVU283
 869              	.LBE155:
 870              	.LBE154:
1026:lvgl/src/widgets/lv_table.c **** 
 871              		.loc 1 1026 14 view .LVU284
 872 00d6 80B2     		uxth	r0, r0
1026:lvgl/src/widgets/lv_table.c **** 
 873              		.loc 1 1026 11 view .LVU285
 874 00d8 311A     		subs	r1, r6, r0
 875 00da 09B2     		sxth	r1, r1
 876              	.LVL96:
1028:lvgl/src/widgets/lv_table.c ****         tmp = 0;
 877              		.loc 1 1028 9 is_stmt 1 view .LVU286
1028:lvgl/src/widgets/lv_table.c ****         tmp = 0;
 878              		.loc 1 1028 14 is_stmt 0 view .LVU287
 879 00dc 0022     		movs	r2, #0
 880 00de 2A80     		strh	r2, [r5]	@ movhi
1029:lvgl/src/widgets/lv_table.c **** 
 881              		.loc 1 1029 9 is_stmt 1 view .LVU288
 882              	.LVL97:
1031:lvgl/src/widgets/lv_table.c ****             tmp += table->row_h[*row];
 883              		.loc 1 1031 9 view .LVU289
 884              	.L25:
1031:lvgl/src/widgets/lv_table.c ****             tmp += table->row_h[*row];
 885              		.loc 1 1031 28 discriminator 1 view .LVU290
ARM GAS  /var/folders/21/t9g5rlb91ys800n5npymflf80000gn/T//ccNiYEm1.s 			page 50


1031:lvgl/src/widgets/lv_table.c ****             tmp += table->row_h[*row];
 886              		.loc 1 1031 23 is_stmt 0 discriminator 1 view .LVU291
 887 00e0 2B88     		ldrh	r3, [r5]
1031:lvgl/src/widgets/lv_table.c ****             tmp += table->row_h[*row];
 888              		.loc 1 1031 35 discriminator 1 view .LVU292
 889 00e2 E08C     		ldrh	r0, [r4, #38]
1031:lvgl/src/widgets/lv_table.c ****             tmp += table->row_h[*row];
 890              		.loc 1 1031 28 discriminator 1 view .LVU293
 891 00e4 8342     		cmp	r3, r0
 892 00e6 09D2     		bcs	.L31
1032:lvgl/src/widgets/lv_table.c ****             if(y < tmp) break;
 893              		.loc 1 1032 13 is_stmt 1 view .LVU294
1032:lvgl/src/widgets/lv_table.c ****             if(y < tmp) break;
 894              		.loc 1 1032 25 is_stmt 0 view .LVU295
 895 00e8 E06A     		ldr	r0, [r4, #44]
1032:lvgl/src/widgets/lv_table.c ****             if(y < tmp) break;
 896              		.loc 1 1032 32 view .LVU296
 897 00ea 30F81300 		ldrh	r0, [r0, r3, lsl #1]
1032:lvgl/src/widgets/lv_table.c ****             if(y < tmp) break;
 898              		.loc 1 1032 17 view .LVU297
 899 00ee 0244     		add	r2, r2, r0
 900              	.LVL98:
1032:lvgl/src/widgets/lv_table.c ****             if(y < tmp) break;
 901              		.loc 1 1032 17 view .LVU298
 902 00f0 12B2     		sxth	r2, r2
 903              	.LVL99:
1033:lvgl/src/widgets/lv_table.c ****         }
 904              		.loc 1 1033 13 is_stmt 1 view .LVU299
1033:lvgl/src/widgets/lv_table.c ****         }
 905              		.loc 1 1033 15 is_stmt 0 view .LVU300
 906 00f2 9142     		cmp	r1, r2
 907 00f4 06DB     		blt	.L28
1031:lvgl/src/widgets/lv_table.c ****             tmp += table->row_h[*row];
 908              		.loc 1 1031 52 is_stmt 1 discriminator 2 view .LVU301
 909 00f6 0133     		adds	r3, r3, #1
 910 00f8 2B80     		strh	r3, [r5]	@ movhi
 911 00fa F1E7     		b	.L25
 912              	.L31:
1031:lvgl/src/widgets/lv_table.c ****             tmp += table->row_h[*row];
 913              		.loc 1 1031 52 is_stmt 0 discriminator 2 view .LVU302
 914              	.LBE153:
1037:lvgl/src/widgets/lv_table.c **** }
 915              		.loc 1 1037 12 view .LVU303
 916 00fc 0120     		movs	r0, #1
 917              	.LBB156:
 918 00fe 96E7     		b	.L19
 919              	.LVL100:
 920              	.L27:
1037:lvgl/src/widgets/lv_table.c **** }
 921              		.loc 1 1037 12 view .LVU304
 922              	.LBE156:
 923 0100 0120     		movs	r0, #1
 924 0102 94E7     		b	.L19
 925              	.LVL101:
 926              	.L28:
1037:lvgl/src/widgets/lv_table.c **** }
 927              		.loc 1 1037 12 view .LVU305
ARM GAS  /var/folders/21/t9g5rlb91ys800n5npymflf80000gn/T//ccNiYEm1.s 			page 51


 928 0104 0120     		movs	r0, #1
 929 0106 92E7     		b	.L19
 930              		.cfi_endproc
 931              	.LFE185:
 933              		.section	.text.get_cell_area,"ax",%progbits
 934              		.align	1
 935              		.syntax unified
 936              		.thumb
 937              		.thumb_func
 939              	get_cell_area:
 940              	.LVL102:
 941              	.LFB188:
1039:lvgl/src/widgets/lv_table.c **** 
1040:lvgl/src/widgets/lv_table.c **** /* Returns number of bytes to allocate based on chars configuration */
1041:lvgl/src/widgets/lv_table.c **** static size_t get_cell_txt_len(const char * txt)
1042:lvgl/src/widgets/lv_table.c **** {
1043:lvgl/src/widgets/lv_table.c ****     size_t retval = 0;
1044:lvgl/src/widgets/lv_table.c **** 
1045:lvgl/src/widgets/lv_table.c **** #if LV_USE_ARABIC_PERSIAN_CHARS
1046:lvgl/src/widgets/lv_table.c ****     retval = sizeof(lv_table_cell_t) + _lv_txt_ap_calc_bytes_cnt(txt) + 1;
1047:lvgl/src/widgets/lv_table.c **** #else
1048:lvgl/src/widgets/lv_table.c ****     retval = sizeof(lv_table_cell_t) + strlen(txt) + 1;
1049:lvgl/src/widgets/lv_table.c **** #endif
1050:lvgl/src/widgets/lv_table.c **** 
1051:lvgl/src/widgets/lv_table.c ****     return retval;
1052:lvgl/src/widgets/lv_table.c **** }
1053:lvgl/src/widgets/lv_table.c **** 
1054:lvgl/src/widgets/lv_table.c **** /* Copy txt into dst skipping the format byte */
1055:lvgl/src/widgets/lv_table.c **** static void copy_cell_txt(lv_table_cell_t * dst, const char * txt)
1056:lvgl/src/widgets/lv_table.c **** {
1057:lvgl/src/widgets/lv_table.c **** #if LV_USE_ARABIC_PERSIAN_CHARS
1058:lvgl/src/widgets/lv_table.c ****     _lv_txt_ap_proc(txt, dst->txt);
1059:lvgl/src/widgets/lv_table.c **** #else
1060:lvgl/src/widgets/lv_table.c ****     strcpy(dst->txt, txt);
1061:lvgl/src/widgets/lv_table.c **** #endif
1062:lvgl/src/widgets/lv_table.c **** }
1063:lvgl/src/widgets/lv_table.c **** 
1064:lvgl/src/widgets/lv_table.c **** static void get_cell_area(lv_obj_t * obj, uint16_t row, uint16_t col, lv_area_t * area)
1065:lvgl/src/widgets/lv_table.c **** {
 942              		.loc 1 1065 1 is_stmt 1 view -0
 943              		.cfi_startproc
 944              		@ args = 0, pretend = 0, frame = 0
 945              		@ frame_needed = 0, uses_anonymous_args = 0
 946              		.loc 1 1065 1 is_stmt 0 view .LVU307
 947 0000 2DE9F041 		push	{r4, r5, r6, r7, r8, lr}
 948              	.LCFI10:
 949              		.cfi_def_cfa_offset 24
 950              		.cfi_offset 4, -24
 951              		.cfi_offset 5, -20
 952              		.cfi_offset 6, -16
 953              		.cfi_offset 7, -12
 954              		.cfi_offset 8, -8
 955              		.cfi_offset 14, -4
 956 0004 0546     		mov	r5, r0
 957 0006 0E46     		mov	r6, r1
 958 0008 1746     		mov	r7, r2
 959 000a 1C46     		mov	r4, r3
ARM GAS  /var/folders/21/t9g5rlb91ys800n5npymflf80000gn/T//ccNiYEm1.s 			page 52


1066:lvgl/src/widgets/lv_table.c ****     lv_table_t * table = (lv_table_t *)obj;
 960              		.loc 1 1066 5 is_stmt 1 view .LVU308
 961              	.LVL103:
1067:lvgl/src/widgets/lv_table.c **** 
1068:lvgl/src/widgets/lv_table.c ****     uint32_t c;
 962              		.loc 1 1068 5 view .LVU309
1069:lvgl/src/widgets/lv_table.c ****     area->x1 = 0;
 963              		.loc 1 1069 5 view .LVU310
 964              		.loc 1 1069 14 is_stmt 0 view .LVU311
 965 000c 0023     		movs	r3, #0
 966              	.LVL104:
 967              		.loc 1 1069 14 view .LVU312
 968 000e 2380     		strh	r3, [r4]	@ movhi
1070:lvgl/src/widgets/lv_table.c ****     for(c = 0; c < col; c++) {
 969              		.loc 1 1070 5 is_stmt 1 view .LVU313
 970              	.LVL105:
 971              		.loc 1 1070 5 is_stmt 0 view .LVU314
 972 0010 06E0     		b	.L33
 973              	.LVL106:
 974              	.L34:
1071:lvgl/src/widgets/lv_table.c ****         area->x1 += table->col_w[c];
 975              		.loc 1 1071 9 is_stmt 1 discriminator 3 view .LVU315
 976              		.loc 1 1071 13 is_stmt 0 discriminator 3 view .LVU316
 977 0012 2188     		ldrh	r1, [r4]
 978              		.loc 1 1071 26 discriminator 3 view .LVU317
 979 0014 2A6B     		ldr	r2, [r5, #48]
 980              		.loc 1 1071 33 discriminator 3 view .LVU318
 981 0016 32F81320 		ldrh	r2, [r2, r3, lsl #1]
 982              		.loc 1 1071 18 discriminator 3 view .LVU319
 983 001a 1144     		add	r1, r1, r2
 984 001c 2180     		strh	r1, [r4]	@ movhi
1070:lvgl/src/widgets/lv_table.c ****     for(c = 0; c < col; c++) {
 985              		.loc 1 1070 26 is_stmt 1 discriminator 3 view .LVU320
 986 001e 0133     		adds	r3, r3, #1
 987              	.LVL107:
 988              	.L33:
1070:lvgl/src/widgets/lv_table.c ****     for(c = 0; c < col; c++) {
 989              		.loc 1 1070 18 discriminator 1 view .LVU321
 990 0020 9F42     		cmp	r7, r3
 991 0022 F6D8     		bhi	.L34
1072:lvgl/src/widgets/lv_table.c ****     }
1073:lvgl/src/widgets/lv_table.c **** 
1074:lvgl/src/widgets/lv_table.c ****     bool rtl = lv_obj_get_style_base_dir(obj, LV_PART_MAIN) == LV_BASE_DIR_RTL;
 992              		.loc 1 1074 5 view .LVU322
 993              	.LVL108:
 994              	.LBB157:
 995              	.LBI157:
 565:lvgl/src/widgets/../core/lv_obj_style_gen.h **** {
 996              		.loc 3 565 29 view .LVU323
 997              	.LBB158:
 567:lvgl/src/widgets/../core/lv_obj_style_gen.h ****     return (lv_base_dir_t)v.num;
 998              		.loc 3 567 5 view .LVU324
 567:lvgl/src/widgets/../core/lv_obj_style_gen.h ****     return (lv_base_dir_t)v.num;
 999              		.loc 3 567 26 is_stmt 0 view .LVU325
 1000 0024 1622     		movs	r2, #22
 1001 0026 0021     		movs	r1, #0
 1002 0028 2846     		mov	r0, r5
ARM GAS  /var/folders/21/t9g5rlb91ys800n5npymflf80000gn/T//ccNiYEm1.s 			page 53


 1003              	.LVL109:
 567:lvgl/src/widgets/../core/lv_obj_style_gen.h ****     return (lv_base_dir_t)v.num;
 1004              		.loc 3 567 26 view .LVU326
 1005 002a FFF7FEFF 		bl	lv_obj_get_style_prop
 1006              	.LVL110:
 1007              		.loc 3 568 5 is_stmt 1 view .LVU327
 1008              		.loc 3 568 12 is_stmt 0 view .LVU328
 1009 002e C0B2     		uxtb	r0, r0
 1010              	.LVL111:
 1011              		.loc 3 568 12 view .LVU329
 1012              	.LBE158:
 1013              	.LBE157:
1075:lvgl/src/widgets/lv_table.c ****     if(rtl) {
 1014              		.loc 1 1075 5 is_stmt 1 view .LVU330
 1015              		.loc 1 1075 7 is_stmt 0 view .LVU331
 1016 0030 0128     		cmp	r0, #1
 1017 0032 1AD0     		beq	.L40
1076:lvgl/src/widgets/lv_table.c ****         area->x1 += lv_obj_get_scroll_x(obj);
1077:lvgl/src/widgets/lv_table.c ****         lv_coord_t w = lv_obj_get_width(obj);
1078:lvgl/src/widgets/lv_table.c ****         area->x2 = w - area->x1 - lv_obj_get_style_pad_right(obj, 0);
1079:lvgl/src/widgets/lv_table.c ****         area->x1 = area->x2 - table->col_w[col];
1080:lvgl/src/widgets/lv_table.c ****     }
1081:lvgl/src/widgets/lv_table.c ****     else {
1082:lvgl/src/widgets/lv_table.c ****         area->x1 -= lv_obj_get_scroll_x(obj);
 1018              		.loc 1 1082 9 is_stmt 1 view .LVU332
 1019              		.loc 1 1082 21 is_stmt 0 view .LVU333
 1020 0034 2846     		mov	r0, r5
 1021              	.LVL112:
 1022              		.loc 1 1082 21 view .LVU334
 1023 0036 FFF7FEFF 		bl	lv_obj_get_scroll_x
 1024              	.LVL113:
 1025              		.loc 1 1082 13 view .LVU335
 1026 003a 2388     		ldrh	r3, [r4]
 1027              		.loc 1 1082 21 view .LVU336
 1028 003c 80B2     		uxth	r0, r0
 1029              		.loc 1 1082 18 view .LVU337
 1030 003e 1B1A     		subs	r3, r3, r0
 1031 0040 2380     		strh	r3, [r4]	@ movhi
1083:lvgl/src/widgets/lv_table.c ****         area->x1 += lv_obj_get_style_pad_left(obj, 0);
 1032              		.loc 1 1083 9 is_stmt 1 view .LVU338
 1033              	.LVL114:
 1034              	.LBB159:
 1035              	.LBI159:
 115:lvgl/src/widgets/../core/lv_obj_style_gen.h **** {
 1036              		.loc 3 115 26 view .LVU339
 1037              	.LBB160:
 117:lvgl/src/widgets/../core/lv_obj_style_gen.h ****     return (lv_coord_t)v.num;
 1038              		.loc 3 117 5 view .LVU340
 117:lvgl/src/widgets/../core/lv_obj_style_gen.h ****     return (lv_coord_t)v.num;
 1039              		.loc 3 117 26 is_stmt 0 view .LVU341
 1040 0042 1222     		movs	r2, #18
 1041 0044 0021     		movs	r1, #0
 1042 0046 2846     		mov	r0, r5
 1043 0048 FFF7FEFF 		bl	lv_obj_get_style_prop
 1044              	.LVL115:
 118:lvgl/src/widgets/../core/lv_obj_style_gen.h **** }
 1045              		.loc 3 118 5 is_stmt 1 view .LVU342
ARM GAS  /var/folders/21/t9g5rlb91ys800n5npymflf80000gn/T//ccNiYEm1.s 			page 54


 118:lvgl/src/widgets/../core/lv_obj_style_gen.h **** }
 1046              		.loc 3 118 5 is_stmt 0 view .LVU343
 1047              	.LBE160:
 1048              	.LBE159:
 1049              		.loc 1 1083 13 view .LVU344
 1050 004c 2388     		ldrh	r3, [r4]
 1051              		.loc 1 1083 18 view .LVU345
 1052 004e 13FA80F0 		uxtah	r0, r3, r0
 1053 0052 80B2     		uxth	r0, r0
 1054 0054 2080     		strh	r0, [r4]	@ movhi
1084:lvgl/src/widgets/lv_table.c ****         area->x2 = area->x1 + table->col_w[col] - 1;
 1055              		.loc 1 1084 9 is_stmt 1 view .LVU346
 1056              		.loc 1 1084 36 is_stmt 0 view .LVU347
 1057 0056 2B6B     		ldr	r3, [r5, #48]
 1058              		.loc 1 1084 43 view .LVU348
 1059 0058 33F81730 		ldrh	r3, [r3, r7, lsl #1]
 1060              		.loc 1 1084 29 view .LVU349
 1061 005c 1844     		add	r0, r0, r3
 1062 005e 80B2     		uxth	r0, r0
 1063              		.loc 1 1084 49 view .LVU350
 1064 0060 0138     		subs	r0, r0, #1
 1065              		.loc 1 1084 18 view .LVU351
 1066 0062 A080     		strh	r0, [r4, #4]	@ movhi
 1067              	.L36:
1085:lvgl/src/widgets/lv_table.c ****     }
1086:lvgl/src/widgets/lv_table.c **** 
1087:lvgl/src/widgets/lv_table.c ****     uint32_t r;
 1068              		.loc 1 1087 5 is_stmt 1 view .LVU352
1088:lvgl/src/widgets/lv_table.c ****     area->y1 = 0;
 1069              		.loc 1 1088 5 view .LVU353
 1070              		.loc 1 1088 14 is_stmt 0 view .LVU354
 1071 0064 0023     		movs	r3, #0
 1072 0066 6380     		strh	r3, [r4, #2]	@ movhi
1089:lvgl/src/widgets/lv_table.c ****     for(r = 0; r < row; r++) {
 1073              		.loc 1 1089 5 is_stmt 1 view .LVU355
 1074              	.LVL116:
 1075              		.loc 1 1089 5 is_stmt 0 view .LVU356
 1076 0068 24E0     		b	.L37
 1077              	.LVL117:
 1078              	.L40:
 1079              	.LBB161:
1076:lvgl/src/widgets/lv_table.c ****         lv_coord_t w = lv_obj_get_width(obj);
 1080              		.loc 1 1076 9 is_stmt 1 view .LVU357
1076:lvgl/src/widgets/lv_table.c ****         lv_coord_t w = lv_obj_get_width(obj);
 1081              		.loc 1 1076 21 is_stmt 0 view .LVU358
 1082 006a 2846     		mov	r0, r5
 1083              	.LVL118:
1076:lvgl/src/widgets/lv_table.c ****         lv_coord_t w = lv_obj_get_width(obj);
 1084              		.loc 1 1076 21 view .LVU359
 1085 006c FFF7FEFF 		bl	lv_obj_get_scroll_x
 1086              	.LVL119:
1076:lvgl/src/widgets/lv_table.c ****         lv_coord_t w = lv_obj_get_width(obj);
 1087              		.loc 1 1076 13 view .LVU360
 1088 0070 2388     		ldrh	r3, [r4]
1076:lvgl/src/widgets/lv_table.c ****         lv_coord_t w = lv_obj_get_width(obj);
 1089              		.loc 1 1076 18 view .LVU361
 1090 0072 13FA80F0 		uxtah	r0, r3, r0
ARM GAS  /var/folders/21/t9g5rlb91ys800n5npymflf80000gn/T//ccNiYEm1.s 			page 55


 1091 0076 2080     		strh	r0, [r4]	@ movhi
1077:lvgl/src/widgets/lv_table.c ****         area->x2 = w - area->x1 - lv_obj_get_style_pad_right(obj, 0);
 1092              		.loc 1 1077 9 is_stmt 1 view .LVU362
1077:lvgl/src/widgets/lv_table.c ****         area->x2 = w - area->x1 - lv_obj_get_style_pad_right(obj, 0);
 1093              		.loc 1 1077 24 is_stmt 0 view .LVU363
 1094 0078 2846     		mov	r0, r5
 1095 007a FFF7FEFF 		bl	lv_obj_get_width
 1096              	.LVL120:
1078:lvgl/src/widgets/lv_table.c ****         area->x1 = area->x2 - table->col_w[col];
 1097              		.loc 1 1078 9 is_stmt 1 view .LVU364
1078:lvgl/src/widgets/lv_table.c ****         area->x1 = area->x2 - table->col_w[col];
 1098              		.loc 1 1078 28 is_stmt 0 view .LVU365
 1099 007e 2388     		ldrh	r3, [r4]
1078:lvgl/src/widgets/lv_table.c ****         area->x1 = area->x2 - table->col_w[col];
 1100              		.loc 1 1078 22 view .LVU366
 1101 0080 C31A     		subs	r3, r0, r3
 1102 0082 1FFA83F8 		uxth	r8, r3
 1103              	.LVL121:
 1104              	.LBB162:
 1105              	.LBI162:
 121:lvgl/src/widgets/../core/lv_obj_style_gen.h **** {
 1106              		.loc 3 121 26 is_stmt 1 view .LVU367
 1107              	.LBB163:
 123:lvgl/src/widgets/../core/lv_obj_style_gen.h ****     return (lv_coord_t)v.num;
 1108              		.loc 3 123 5 view .LVU368
 123:lvgl/src/widgets/../core/lv_obj_style_gen.h ****     return (lv_coord_t)v.num;
 1109              		.loc 3 123 26 is_stmt 0 view .LVU369
 1110 0086 1322     		movs	r2, #19
 1111 0088 0021     		movs	r1, #0
 1112 008a 2846     		mov	r0, r5
 1113              	.LVL122:
 123:lvgl/src/widgets/../core/lv_obj_style_gen.h ****     return (lv_coord_t)v.num;
 1114              		.loc 3 123 26 view .LVU370
 1115 008c FFF7FEFF 		bl	lv_obj_get_style_prop
 1116              	.LVL123:
 124:lvgl/src/widgets/../core/lv_obj_style_gen.h **** }
 1117              		.loc 3 124 5 is_stmt 1 view .LVU371
 124:lvgl/src/widgets/../core/lv_obj_style_gen.h **** }
 1118              		.loc 3 124 5 is_stmt 0 view .LVU372
 1119              	.LBE163:
 1120              	.LBE162:
1078:lvgl/src/widgets/lv_table.c ****         area->x1 = area->x2 - table->col_w[col];
 1121              		.loc 1 1078 35 view .LVU373
 1122 0090 80B2     		uxth	r0, r0
1078:lvgl/src/widgets/lv_table.c ****         area->x1 = area->x2 - table->col_w[col];
 1123              		.loc 1 1078 33 view .LVU374
 1124 0092 A8EB0003 		sub	r3, r8, r0
 1125 0096 9AB2     		uxth	r2, r3
1078:lvgl/src/widgets/lv_table.c ****         area->x1 = area->x2 - table->col_w[col];
 1126              		.loc 1 1078 18 view .LVU375
 1127 0098 A380     		strh	r3, [r4, #4]	@ movhi
1079:lvgl/src/widgets/lv_table.c ****     }
 1128              		.loc 1 1079 9 is_stmt 1 view .LVU376
1079:lvgl/src/widgets/lv_table.c ****     }
 1129              		.loc 1 1079 36 is_stmt 0 view .LVU377
 1130 009a 2B6B     		ldr	r3, [r5, #48]
1079:lvgl/src/widgets/lv_table.c ****     }
ARM GAS  /var/folders/21/t9g5rlb91ys800n5npymflf80000gn/T//ccNiYEm1.s 			page 56


 1131              		.loc 1 1079 43 view .LVU378
 1132 009c 33F81730 		ldrh	r3, [r3, r7, lsl #1]
1079:lvgl/src/widgets/lv_table.c ****     }
 1133              		.loc 1 1079 29 view .LVU379
 1134 00a0 D31A     		subs	r3, r2, r3
1079:lvgl/src/widgets/lv_table.c ****     }
 1135              		.loc 1 1079 18 view .LVU380
 1136 00a2 2380     		strh	r3, [r4]	@ movhi
 1137              	.LBE161:
 1138 00a4 DEE7     		b	.L36
 1139              	.LVL124:
 1140              	.L38:
1090:lvgl/src/widgets/lv_table.c ****         area->y1 += table->row_h[r];
 1141              		.loc 1 1090 9 is_stmt 1 discriminator 3 view .LVU381
 1142              		.loc 1 1090 13 is_stmt 0 discriminator 3 view .LVU382
 1143 00a6 6288     		ldrh	r2, [r4, #2]
 1144              		.loc 1 1090 26 discriminator 3 view .LVU383
 1145 00a8 E96A     		ldr	r1, [r5, #44]
 1146              		.loc 1 1090 33 discriminator 3 view .LVU384
 1147 00aa 31F81310 		ldrh	r1, [r1, r3, lsl #1]
 1148              		.loc 1 1090 18 discriminator 3 view .LVU385
 1149 00ae 0A44     		add	r2, r2, r1
 1150 00b0 6280     		strh	r2, [r4, #2]	@ movhi
1089:lvgl/src/widgets/lv_table.c ****         area->y1 += table->row_h[r];
 1151              		.loc 1 1089 26 is_stmt 1 discriminator 3 view .LVU386
 1152 00b2 0133     		adds	r3, r3, #1
 1153              	.LVL125:
 1154              	.L37:
1089:lvgl/src/widgets/lv_table.c ****         area->y1 += table->row_h[r];
 1155              		.loc 1 1089 18 discriminator 1 view .LVU387
 1156 00b4 9E42     		cmp	r6, r3
 1157 00b6 F6D8     		bhi	.L38
1091:lvgl/src/widgets/lv_table.c ****     }
1092:lvgl/src/widgets/lv_table.c **** 
1093:lvgl/src/widgets/lv_table.c ****     area->y1 += lv_obj_get_style_pad_top(obj, 0);
 1158              		.loc 1 1093 5 view .LVU388
 1159              	.LVL126:
 1160              	.LBB164:
 1161              	.LBI164:
 103:lvgl/src/widgets/../core/lv_obj_style_gen.h **** {
 1162              		.loc 3 103 26 view .LVU389
 1163              	.LBB165:
 105:lvgl/src/widgets/../core/lv_obj_style_gen.h ****     return (lv_coord_t)v.num;
 1164              		.loc 3 105 5 view .LVU390
 105:lvgl/src/widgets/../core/lv_obj_style_gen.h ****     return (lv_coord_t)v.num;
 1165              		.loc 3 105 26 is_stmt 0 view .LVU391
 1166 00b8 1022     		movs	r2, #16
 1167 00ba 0021     		movs	r1, #0
 1168 00bc 2846     		mov	r0, r5
 1169 00be FFF7FEFF 		bl	lv_obj_get_style_prop
 1170              	.LVL127:
 106:lvgl/src/widgets/../core/lv_obj_style_gen.h **** }
 1171              		.loc 3 106 5 is_stmt 1 view .LVU392
 106:lvgl/src/widgets/../core/lv_obj_style_gen.h **** }
 1172              		.loc 3 106 5 is_stmt 0 view .LVU393
 1173              	.LBE165:
 1174              	.LBE164:
ARM GAS  /var/folders/21/t9g5rlb91ys800n5npymflf80000gn/T//ccNiYEm1.s 			page 57


 1175              		.loc 1 1093 9 view .LVU394
 1176 00c2 6388     		ldrh	r3, [r4, #2]
 1177              		.loc 1 1093 14 view .LVU395
 1178 00c4 13FA80F0 		uxtah	r0, r3, r0
 1179 00c8 6080     		strh	r0, [r4, #2]	@ movhi
1094:lvgl/src/widgets/lv_table.c ****     area->y1 -= lv_obj_get_scroll_y(obj);
 1180              		.loc 1 1094 5 is_stmt 1 view .LVU396
 1181              		.loc 1 1094 17 is_stmt 0 view .LVU397
 1182 00ca 2846     		mov	r0, r5
 1183 00cc FFF7FEFF 		bl	lv_obj_get_scroll_y
 1184              	.LVL128:
 1185              		.loc 1 1094 9 view .LVU398
 1186 00d0 6388     		ldrh	r3, [r4, #2]
 1187              		.loc 1 1094 17 view .LVU399
 1188 00d2 80B2     		uxth	r0, r0
 1189              		.loc 1 1094 14 view .LVU400
 1190 00d4 1B1A     		subs	r3, r3, r0
 1191 00d6 9BB2     		uxth	r3, r3
 1192 00d8 6380     		strh	r3, [r4, #2]	@ movhi
1095:lvgl/src/widgets/lv_table.c ****     area->y2 = area->y1 + table->row_h[row] - 1;
 1193              		.loc 1 1095 5 is_stmt 1 view .LVU401
 1194              		.loc 1 1095 32 is_stmt 0 view .LVU402
 1195 00da EA6A     		ldr	r2, [r5, #44]
 1196              		.loc 1 1095 39 view .LVU403
 1197 00dc 32F81620 		ldrh	r2, [r2, r6, lsl #1]
 1198              		.loc 1 1095 25 view .LVU404
 1199 00e0 1344     		add	r3, r3, r2
 1200 00e2 9BB2     		uxth	r3, r3
 1201              		.loc 1 1095 45 view .LVU405
 1202 00e4 013B     		subs	r3, r3, #1
 1203              		.loc 1 1095 14 view .LVU406
 1204 00e6 E380     		strh	r3, [r4, #6]	@ movhi
1096:lvgl/src/widgets/lv_table.c **** 
1097:lvgl/src/widgets/lv_table.c **** }
 1205              		.loc 1 1097 1 view .LVU407
 1206 00e8 BDE8F081 		pop	{r4, r5, r6, r7, r8, pc}
 1207              		.loc 1 1097 1 view .LVU408
 1208              		.cfi_endproc
 1209              	.LFE188:
 1211              		.section	.text.scroll_to_selected_cell,"ax",%progbits
 1212              		.align	1
 1213              		.syntax unified
 1214              		.thumb
 1215              		.thumb_func
 1217              	scroll_to_selected_cell:
 1218              	.LVL129:
 1219              	.LFB189:
1098:lvgl/src/widgets/lv_table.c **** 
1099:lvgl/src/widgets/lv_table.c **** static void scroll_to_selected_cell(lv_obj_t * obj)
1100:lvgl/src/widgets/lv_table.c **** {
 1220              		.loc 1 1100 1 is_stmt 1 view -0
 1221              		.cfi_startproc
 1222              		@ args = 0, pretend = 0, frame = 8
 1223              		@ frame_needed = 0, uses_anonymous_args = 0
 1224              		.loc 1 1100 1 is_stmt 0 view .LVU410
 1225 0000 30B5     		push	{r4, r5, lr}
 1226              	.LCFI11:
ARM GAS  /var/folders/21/t9g5rlb91ys800n5npymflf80000gn/T//ccNiYEm1.s 			page 58


 1227              		.cfi_def_cfa_offset 12
 1228              		.cfi_offset 4, -12
 1229              		.cfi_offset 5, -8
 1230              		.cfi_offset 14, -4
 1231 0002 83B0     		sub	sp, sp, #12
 1232              	.LCFI12:
 1233              		.cfi_def_cfa_offset 24
 1234 0004 0446     		mov	r4, r0
1101:lvgl/src/widgets/lv_table.c ****     lv_table_t * table = (lv_table_t *)obj;
 1235              		.loc 1 1101 5 is_stmt 1 view .LVU411
 1236              	.LVL130:
1102:lvgl/src/widgets/lv_table.c **** 
1103:lvgl/src/widgets/lv_table.c ****     lv_area_t a;
 1237              		.loc 1 1103 5 view .LVU412
1104:lvgl/src/widgets/lv_table.c ****     get_cell_area(obj, table->row_act, table->col_act, &a);
 1238              		.loc 1 1104 5 view .LVU413
 1239 0006 6B46     		mov	r3, sp
 1240 0008 828E     		ldrh	r2, [r0, #52]
 1241 000a C18E     		ldrh	r1, [r0, #54]
 1242 000c FFF7FEFF 		bl	get_cell_area
 1243              	.LVL131:
1105:lvgl/src/widgets/lv_table.c ****     if(a.x1 < 0) {
 1244              		.loc 1 1105 5 view .LVU414
 1245              		.loc 1 1105 9 is_stmt 0 view .LVU415
 1246 0010 BDF90010 		ldrsh	r1, [sp]
 1247              		.loc 1 1105 7 view .LVU416
 1248 0014 0029     		cmp	r1, #0
 1249 0016 14DB     		blt	.L47
1106:lvgl/src/widgets/lv_table.c ****         lv_obj_scroll_by_bounded(obj, -a.x1, 0, LV_ANIM_ON);
1107:lvgl/src/widgets/lv_table.c ****     }
1108:lvgl/src/widgets/lv_table.c ****     else if(a.x2 > lv_obj_get_width(obj)) {
 1250              		.loc 1 1108 10 is_stmt 1 view .LVU417
 1251              		.loc 1 1108 14 is_stmt 0 view .LVU418
 1252 0018 BDF90450 		ldrsh	r5, [sp, #4]
 1253              		.loc 1 1108 20 view .LVU419
 1254 001c 2046     		mov	r0, r4
 1255 001e FFF7FEFF 		bl	lv_obj_get_width
 1256              	.LVL132:
 1257              		.loc 1 1108 12 view .LVU420
 1258 0022 8542     		cmp	r5, r0
 1259 0024 15DD     		ble	.L43
1109:lvgl/src/widgets/lv_table.c ****         lv_obj_scroll_by_bounded(obj, lv_obj_get_width(obj) - a.x2, 0, LV_ANIM_ON);
 1260              		.loc 1 1109 9 is_stmt 1 view .LVU421
 1261              		.loc 1 1109 39 is_stmt 0 view .LVU422
 1262 0026 2046     		mov	r0, r4
 1263 0028 FFF7FEFF 		bl	lv_obj_get_width
 1264              	.LVL133:
 1265 002c 81B2     		uxth	r1, r0
 1266              		.loc 1 1109 64 view .LVU423
 1267 002e BDF80430 		ldrh	r3, [sp, #4]
 1268              		.loc 1 1109 61 view .LVU424
 1269 0032 C91A     		subs	r1, r1, r3
 1270              		.loc 1 1109 9 view .LVU425
 1271 0034 0123     		movs	r3, #1
 1272 0036 0022     		movs	r2, #0
 1273 0038 09B2     		sxth	r1, r1
 1274 003a 2046     		mov	r0, r4
ARM GAS  /var/folders/21/t9g5rlb91ys800n5npymflf80000gn/T//ccNiYEm1.s 			page 59


 1275 003c FFF7FEFF 		bl	lv_obj_scroll_by_bounded
 1276              	.LVL134:
 1277 0040 07E0     		b	.L43
 1278              	.L47:
1106:lvgl/src/widgets/lv_table.c ****         lv_obj_scroll_by_bounded(obj, -a.x1, 0, LV_ANIM_ON);
 1279              		.loc 1 1106 9 is_stmt 1 view .LVU426
1106:lvgl/src/widgets/lv_table.c ****         lv_obj_scroll_by_bounded(obj, -a.x1, 0, LV_ANIM_ON);
 1280              		.loc 1 1106 41 is_stmt 0 view .LVU427
 1281 0042 89B2     		uxth	r1, r1
1106:lvgl/src/widgets/lv_table.c ****         lv_obj_scroll_by_bounded(obj, -a.x1, 0, LV_ANIM_ON);
 1282              		.loc 1 1106 9 view .LVU428
 1283 0044 4942     		rsbs	r1, r1, #0
 1284 0046 0123     		movs	r3, #1
 1285 0048 0022     		movs	r2, #0
 1286 004a 09B2     		sxth	r1, r1
 1287 004c 2046     		mov	r0, r4
 1288 004e FFF7FEFF 		bl	lv_obj_scroll_by_bounded
 1289              	.LVL135:
 1290              	.L43:
1110:lvgl/src/widgets/lv_table.c ****     }
1111:lvgl/src/widgets/lv_table.c **** 
1112:lvgl/src/widgets/lv_table.c ****     if(a.y1 < 0) {
 1291              		.loc 1 1112 5 is_stmt 1 view .LVU429
 1292              		.loc 1 1112 9 is_stmt 0 view .LVU430
 1293 0052 BDF90220 		ldrsh	r2, [sp, #2]
 1294              		.loc 1 1112 7 view .LVU431
 1295 0056 002A     		cmp	r2, #0
 1296 0058 14DB     		blt	.L48
1113:lvgl/src/widgets/lv_table.c ****         lv_obj_scroll_by_bounded(obj, 0, -a.y1, LV_ANIM_ON);
1114:lvgl/src/widgets/lv_table.c ****     }
1115:lvgl/src/widgets/lv_table.c ****     else if(a.y2 > lv_obj_get_height(obj)) {
 1297              		.loc 1 1115 10 is_stmt 1 view .LVU432
 1298              		.loc 1 1115 14 is_stmt 0 view .LVU433
 1299 005a BDF90650 		ldrsh	r5, [sp, #6]
 1300              		.loc 1 1115 20 view .LVU434
 1301 005e 2046     		mov	r0, r4
 1302 0060 FFF7FEFF 		bl	lv_obj_get_height
 1303              	.LVL136:
 1304              		.loc 1 1115 12 view .LVU435
 1305 0064 8542     		cmp	r5, r0
 1306 0066 15DD     		ble	.L41
1116:lvgl/src/widgets/lv_table.c ****         lv_obj_scroll_by_bounded(obj, 0, lv_obj_get_height(obj) - a.y2, LV_ANIM_ON);
 1307              		.loc 1 1116 9 is_stmt 1 view .LVU436
 1308              		.loc 1 1116 42 is_stmt 0 view .LVU437
 1309 0068 2046     		mov	r0, r4
 1310 006a FFF7FEFF 		bl	lv_obj_get_height
 1311              	.LVL137:
 1312 006e 82B2     		uxth	r2, r0
 1313              		.loc 1 1116 68 view .LVU438
 1314 0070 BDF80630 		ldrh	r3, [sp, #6]
 1315              		.loc 1 1116 65 view .LVU439
 1316 0074 D21A     		subs	r2, r2, r3
 1317              		.loc 1 1116 9 view .LVU440
 1318 0076 0123     		movs	r3, #1
 1319 0078 12B2     		sxth	r2, r2
 1320 007a 0021     		movs	r1, #0
 1321 007c 2046     		mov	r0, r4
ARM GAS  /var/folders/21/t9g5rlb91ys800n5npymflf80000gn/T//ccNiYEm1.s 			page 60


 1322 007e FFF7FEFF 		bl	lv_obj_scroll_by_bounded
 1323              	.LVL138:
1117:lvgl/src/widgets/lv_table.c ****     }
1118:lvgl/src/widgets/lv_table.c **** 
1119:lvgl/src/widgets/lv_table.c **** }
 1324              		.loc 1 1119 1 view .LVU441
 1325 0082 07E0     		b	.L41
 1326              	.L48:
1113:lvgl/src/widgets/lv_table.c ****     }
 1327              		.loc 1 1113 9 is_stmt 1 view .LVU442
1113:lvgl/src/widgets/lv_table.c ****     }
 1328              		.loc 1 1113 44 is_stmt 0 view .LVU443
 1329 0084 92B2     		uxth	r2, r2
1113:lvgl/src/widgets/lv_table.c ****     }
 1330              		.loc 1 1113 9 view .LVU444
 1331 0086 5242     		rsbs	r2, r2, #0
 1332 0088 0123     		movs	r3, #1
 1333 008a 12B2     		sxth	r2, r2
 1334 008c 0021     		movs	r1, #0
 1335 008e 2046     		mov	r0, r4
 1336 0090 FFF7FEFF 		bl	lv_obj_scroll_by_bounded
 1337              	.LVL139:
 1338              	.L41:
 1339              		.loc 1 1119 1 view .LVU445
 1340 0094 03B0     		add	sp, sp, #12
 1341              	.LCFI13:
 1342              		.cfi_def_cfa_offset 12
 1343              		@ sp needed
 1344 0096 30BD     		pop	{r4, r5, pc}
 1345              		.loc 1 1119 1 view .LVU446
 1346              		.cfi_endproc
 1347              	.LFE189:
 1349              		.section	.text.draw_main,"ax",%progbits
 1350              		.align	1
 1351              		.syntax unified
 1352              		.thumb
 1353              		.thumb_func
 1355              	draw_main:
 1356              	.LVL140:
 1357              	.LFB181:
 669:lvgl/src/widgets/lv_table.c ****     lv_obj_t * obj = lv_event_get_target(e);
 1358              		.loc 1 669 1 is_stmt 1 view -0
 1359              		.cfi_startproc
 1360              		@ args = 0, pretend = 0, frame = 360
 1361              		@ frame_needed = 0, uses_anonymous_args = 0
 669:lvgl/src/widgets/lv_table.c ****     lv_obj_t * obj = lv_event_get_target(e);
 1362              		.loc 1 669 1 is_stmt 0 view .LVU448
 1363 0000 2DE9F04F 		push	{r4, r5, r6, r7, r8, r9, r10, fp, lr}
 1364              	.LCFI14:
 1365              		.cfi_def_cfa_offset 36
 1366              		.cfi_offset 4, -36
 1367              		.cfi_offset 5, -32
 1368              		.cfi_offset 6, -28
 1369              		.cfi_offset 7, -24
 1370              		.cfi_offset 8, -20
 1371              		.cfi_offset 9, -16
 1372              		.cfi_offset 10, -12
ARM GAS  /var/folders/21/t9g5rlb91ys800n5npymflf80000gn/T//ccNiYEm1.s 			page 61


 1373              		.cfi_offset 11, -8
 1374              		.cfi_offset 14, -4
 1375 0004 DFB0     		sub	sp, sp, #380
 1376              	.LCFI15:
 1377              		.cfi_def_cfa_offset 416
 1378 0006 0446     		mov	r4, r0
 670:lvgl/src/widgets/lv_table.c ****     lv_table_t * table = (lv_table_t *)obj;
 1379              		.loc 1 670 5 is_stmt 1 view .LVU449
 670:lvgl/src/widgets/lv_table.c ****     lv_table_t * table = (lv_table_t *)obj;
 1380              		.loc 1 670 22 is_stmt 0 view .LVU450
 1381 0008 FFF7FEFF 		bl	lv_event_get_target
 1382              	.LVL141:
 670:lvgl/src/widgets/lv_table.c ****     lv_table_t * table = (lv_table_t *)obj;
 1383              		.loc 1 670 22 view .LVU451
 1384 000c 0646     		mov	r6, r0
 1385              	.LVL142:
 671:lvgl/src/widgets/lv_table.c ****     lv_draw_ctx_t * draw_ctx = lv_event_get_draw_ctx(e);
 1386              		.loc 1 671 5 is_stmt 1 view .LVU452
 672:lvgl/src/widgets/lv_table.c ****     lv_area_t clip_area;
 1387              		.loc 1 672 5 view .LVU453
 672:lvgl/src/widgets/lv_table.c ****     lv_area_t clip_area;
 1388              		.loc 1 672 32 is_stmt 0 view .LVU454
 1389 000e 2046     		mov	r0, r4
 1390              	.LVL143:
 672:lvgl/src/widgets/lv_table.c ****     lv_area_t clip_area;
 1391              		.loc 1 672 32 view .LVU455
 1392 0010 FFF7FEFF 		bl	lv_event_get_draw_ctx
 1393              	.LVL144:
 1394 0014 0446     		mov	r4, r0
 1395              	.LVL145:
 672:lvgl/src/widgets/lv_table.c ****     lv_area_t clip_area;
 1396              		.loc 1 672 32 view .LVU456
 1397 0016 0790     		str	r0, [sp, #28]
 1398              	.LVL146:
 673:lvgl/src/widgets/lv_table.c ****     if(!_lv_area_intersect(&clip_area, &obj->coords, draw_ctx->clip_area)) return;
 1399              		.loc 1 673 5 is_stmt 1 view .LVU457
 674:lvgl/src/widgets/lv_table.c **** 
 1400              		.loc 1 674 5 view .LVU458
 674:lvgl/src/widgets/lv_table.c **** 
 1401              		.loc 1 674 9 is_stmt 0 view .LVU459
 1402 0018 8268     		ldr	r2, [r0, #8]
 1403 001a 06F11401 		add	r1, r6, #20
 1404 001e 5CA8     		add	r0, sp, #368
 1405              	.LVL147:
 674:lvgl/src/widgets/lv_table.c **** 
 1406              		.loc 1 674 9 view .LVU460
 1407 0020 FFF7FEFF 		bl	_lv_area_intersect
 1408              	.LVL148:
 674:lvgl/src/widgets/lv_table.c **** 
 1409              		.loc 1 674 7 view .LVU461
 1410 0024 10B9     		cbnz	r0, .L87
 1411              	.LVL149:
 1412              	.L49:
 861:lvgl/src/widgets/lv_table.c **** 
 1413              		.loc 1 861 1 view .LVU462
 1414 0026 5FB0     		add	sp, sp, #380
 1415              	.LCFI16:
ARM GAS  /var/folders/21/t9g5rlb91ys800n5npymflf80000gn/T//ccNiYEm1.s 			page 62


 1416              		.cfi_remember_state
 1417              		.cfi_def_cfa_offset 36
 1418              		@ sp needed
 1419 0028 BDE8F08F 		pop	{r4, r5, r6, r7, r8, r9, r10, fp, pc}
 1420              	.LVL150:
 1421              	.L87:
 1422              	.LCFI17:
 1423              		.cfi_restore_state
 676:lvgl/src/widgets/lv_table.c ****     draw_ctx->clip_area = &clip_area;
 1424              		.loc 1 676 5 is_stmt 1 view .LVU463
 676:lvgl/src/widgets/lv_table.c ****     draw_ctx->clip_area = &clip_area;
 1425              		.loc 1 676 23 is_stmt 0 view .LVU464
 1426 002c 2246     		mov	r2, r4
 1427 002e A468     		ldr	r4, [r4, #8]
 1428              	.LVL151:
 677:lvgl/src/widgets/lv_table.c **** 
 1429              		.loc 1 677 5 is_stmt 1 view .LVU465
 677:lvgl/src/widgets/lv_table.c **** 
 1430              		.loc 1 677 25 is_stmt 0 view .LVU466
 1431 0030 5CAB     		add	r3, sp, #368
 1432 0032 0792     		str	r2, [sp, #28]
 1433              	.LVL152:
 677:lvgl/src/widgets/lv_table.c **** 
 1434              		.loc 1 677 25 view .LVU467
 1435 0034 9360     		str	r3, [r2, #8]
 679:lvgl/src/widgets/lv_table.c ****     lv_area_t cell_area;
 1436              		.loc 1 679 5 is_stmt 1 view .LVU468
 680:lvgl/src/widgets/lv_table.c **** 
 1437              		.loc 1 680 5 view .LVU469
 682:lvgl/src/widgets/lv_table.c ****     lv_coord_t bg_top = lv_obj_get_style_pad_top(obj, LV_PART_MAIN);
 1438              		.loc 1 682 5 view .LVU470
 1439              	.LVL153:
 1440              	.LBB166:
 1441              	.LBI166:
 253:lvgl/src/widgets/../core/lv_obj_style_gen.h **** {
 1442              		.loc 3 253 26 view .LVU471
 1443              	.LBB167:
 255:lvgl/src/widgets/../core/lv_obj_style_gen.h ****     return (lv_coord_t)v.num;
 1444              		.loc 3 255 5 view .LVU472
 255:lvgl/src/widgets/../core/lv_obj_style_gen.h ****     return (lv_coord_t)v.num;
 1445              		.loc 3 255 26 is_stmt 0 view .LVU473
 1446 0036 3222     		movs	r2, #50
 1447              	.LVL154:
 255:lvgl/src/widgets/../core/lv_obj_style_gen.h ****     return (lv_coord_t)v.num;
 1448              		.loc 3 255 26 view .LVU474
 1449 0038 0021     		movs	r1, #0
 1450 003a 3046     		mov	r0, r6
 1451 003c FFF7FEFF 		bl	lv_obj_get_style_prop
 1452              	.LVL155:
 1453 0040 0746     		mov	r7, r0
 1454              	.LVL156:
 256:lvgl/src/widgets/../core/lv_obj_style_gen.h **** }
 1455              		.loc 3 256 5 is_stmt 1 view .LVU475
 256:lvgl/src/widgets/../core/lv_obj_style_gen.h **** }
 1456              		.loc 3 256 5 is_stmt 0 view .LVU476
 1457              	.LBE167:
 1458              	.LBE166:
ARM GAS  /var/folders/21/t9g5rlb91ys800n5npymflf80000gn/T//ccNiYEm1.s 			page 63


 683:lvgl/src/widgets/lv_table.c ****     lv_coord_t bg_bottom = lv_obj_get_style_pad_bottom(obj, LV_PART_MAIN);
 1459              		.loc 1 683 5 is_stmt 1 view .LVU477
 1460              	.LBB168:
 1461              	.LBI168:
 103:lvgl/src/widgets/../core/lv_obj_style_gen.h **** {
 1462              		.loc 3 103 26 view .LVU478
 1463              	.LBB169:
 105:lvgl/src/widgets/../core/lv_obj_style_gen.h ****     return (lv_coord_t)v.num;
 1464              		.loc 3 105 5 view .LVU479
 105:lvgl/src/widgets/../core/lv_obj_style_gen.h ****     return (lv_coord_t)v.num;
 1465              		.loc 3 105 26 is_stmt 0 view .LVU480
 1466 0042 1022     		movs	r2, #16
 1467 0044 0021     		movs	r1, #0
 1468 0046 3046     		mov	r0, r6
 1469 0048 FFF7FEFF 		bl	lv_obj_get_style_prop
 1470              	.LVL157:
 1471 004c 0546     		mov	r5, r0
 1472              	.LVL158:
 106:lvgl/src/widgets/../core/lv_obj_style_gen.h **** }
 1473              		.loc 3 106 5 is_stmt 1 view .LVU481
 106:lvgl/src/widgets/../core/lv_obj_style_gen.h **** }
 1474              		.loc 3 106 12 is_stmt 0 view .LVU482
 1475 004e 03B2     		sxth	r3, r0
 1476 0050 0C93     		str	r3, [sp, #48]
 1477              	.LVL159:
 106:lvgl/src/widgets/../core/lv_obj_style_gen.h **** }
 1478              		.loc 3 106 12 view .LVU483
 1479              	.LBE169:
 1480              	.LBE168:
 684:lvgl/src/widgets/lv_table.c ****     lv_coord_t bg_left = lv_obj_get_style_pad_left(obj, LV_PART_MAIN);
 1481              		.loc 1 684 5 is_stmt 1 view .LVU484
 1482              	.LBB170:
 1483              	.LBI170:
 109:lvgl/src/widgets/../core/lv_obj_style_gen.h **** {
 1484              		.loc 3 109 26 view .LVU485
 1485              	.LBB171:
 111:lvgl/src/widgets/../core/lv_obj_style_gen.h ****     return (lv_coord_t)v.num;
 1486              		.loc 3 111 5 view .LVU486
 111:lvgl/src/widgets/../core/lv_obj_style_gen.h ****     return (lv_coord_t)v.num;
 1487              		.loc 3 111 26 is_stmt 0 view .LVU487
 1488 0052 1122     		movs	r2, #17
 1489 0054 0021     		movs	r1, #0
 1490 0056 3046     		mov	r0, r6
 111:lvgl/src/widgets/../core/lv_obj_style_gen.h ****     return (lv_coord_t)v.num;
 1491              		.loc 3 111 26 view .LVU488
 1492 0058 FFF7FEFF 		bl	lv_obj_get_style_prop
 1493              	.LVL160:
 112:lvgl/src/widgets/../core/lv_obj_style_gen.h **** }
 1494              		.loc 3 112 5 is_stmt 1 view .LVU489
 112:lvgl/src/widgets/../core/lv_obj_style_gen.h **** }
 1495              		.loc 3 112 12 is_stmt 0 view .LVU490
 1496 005c 03B2     		sxth	r3, r0
 1497 005e 0B93     		str	r3, [sp, #44]
 1498              	.LVL161:
 112:lvgl/src/widgets/../core/lv_obj_style_gen.h **** }
 1499              		.loc 3 112 12 view .LVU491
 1500              	.LBE171:
ARM GAS  /var/folders/21/t9g5rlb91ys800n5npymflf80000gn/T//ccNiYEm1.s 			page 64


 1501              	.LBE170:
 685:lvgl/src/widgets/lv_table.c ****     lv_coord_t bg_right = lv_obj_get_style_pad_right(obj, LV_PART_MAIN);
 1502              		.loc 1 685 5 is_stmt 1 view .LVU492
 1503              	.LBB172:
 1504              	.LBI172:
 115:lvgl/src/widgets/../core/lv_obj_style_gen.h **** {
 1505              		.loc 3 115 26 view .LVU493
 1506              	.LBB173:
 117:lvgl/src/widgets/../core/lv_obj_style_gen.h ****     return (lv_coord_t)v.num;
 1507              		.loc 3 117 5 view .LVU494
 117:lvgl/src/widgets/../core/lv_obj_style_gen.h ****     return (lv_coord_t)v.num;
 1508              		.loc 3 117 26 is_stmt 0 view .LVU495
 1509 0060 1222     		movs	r2, #18
 1510 0062 0021     		movs	r1, #0
 1511 0064 3046     		mov	r0, r6
 1512 0066 FFF7FEFF 		bl	lv_obj_get_style_prop
 1513              	.LVL162:
 1514 006a 8246     		mov	r10, r0
 118:lvgl/src/widgets/../core/lv_obj_style_gen.h **** }
 1515              		.loc 3 118 5 is_stmt 1 view .LVU496
 118:lvgl/src/widgets/../core/lv_obj_style_gen.h **** }
 1516              		.loc 3 118 12 is_stmt 0 view .LVU497
 1517 006c 03B2     		sxth	r3, r0
 1518 006e 0A93     		str	r3, [sp, #40]
 1519              	.LVL163:
 118:lvgl/src/widgets/../core/lv_obj_style_gen.h **** }
 1520              		.loc 3 118 12 view .LVU498
 1521              	.LBE173:
 1522              	.LBE172:
 686:lvgl/src/widgets/lv_table.c **** 
 1523              		.loc 1 686 5 is_stmt 1 view .LVU499
 1524              	.LBB174:
 1525              	.LBI174:
 121:lvgl/src/widgets/../core/lv_obj_style_gen.h **** {
 1526              		.loc 3 121 26 view .LVU500
 1527              	.LBB175:
 123:lvgl/src/widgets/../core/lv_obj_style_gen.h ****     return (lv_coord_t)v.num;
 1528              		.loc 3 123 5 view .LVU501
 123:lvgl/src/widgets/../core/lv_obj_style_gen.h ****     return (lv_coord_t)v.num;
 1529              		.loc 3 123 26 is_stmt 0 view .LVU502
 1530 0070 1322     		movs	r2, #19
 1531 0072 0021     		movs	r1, #0
 1532 0074 3046     		mov	r0, r6
 1533 0076 FFF7FEFF 		bl	lv_obj_get_style_prop
 1534              	.LVL164:
 1535 007a 1290     		str	r0, [sp, #72]
 124:lvgl/src/widgets/../core/lv_obj_style_gen.h **** }
 1536              		.loc 3 124 5 is_stmt 1 view .LVU503
 124:lvgl/src/widgets/../core/lv_obj_style_gen.h **** }
 1537              		.loc 3 124 12 is_stmt 0 view .LVU504
 1538 007c 03B2     		sxth	r3, r0
 1539 007e 0993     		str	r3, [sp, #36]
 1540              	.LVL165:
 124:lvgl/src/widgets/../core/lv_obj_style_gen.h **** }
 1541              		.loc 3 124 12 view .LVU505
 1542              	.LBE175:
 1543              	.LBE174:
ARM GAS  /var/folders/21/t9g5rlb91ys800n5npymflf80000gn/T//ccNiYEm1.s 			page 65


 688:lvgl/src/widgets/lv_table.c ****     obj->state = LV_STATE_DEFAULT;
 1544              		.loc 1 688 5 is_stmt 1 view .LVU506
 688:lvgl/src/widgets/lv_table.c ****     obj->state = LV_STATE_DEFAULT;
 1545              		.loc 1 688 16 is_stmt 0 view .LVU507
 1546 0080 338C     		ldrh	r3, [r6, #32]
 1547 0082 1093     		str	r3, [sp, #64]
 1548              	.LVL166:
 689:lvgl/src/widgets/lv_table.c ****     obj->skip_trans = 1;
 1549              		.loc 1 689 5 is_stmt 1 view .LVU508
 689:lvgl/src/widgets/lv_table.c ****     obj->skip_trans = 1;
 1550              		.loc 1 689 16 is_stmt 0 view .LVU509
 1551 0084 4FF00009 		mov	r9, #0
 1552 0088 A6F82090 		strh	r9, [r6, #32]	@ movhi
 690:lvgl/src/widgets/lv_table.c ****     lv_draw_rect_dsc_t rect_dsc_def;
 1553              		.loc 1 690 5 is_stmt 1 view .LVU510
 690:lvgl/src/widgets/lv_table.c ****     lv_draw_rect_dsc_t rect_dsc_def;
 1554              		.loc 1 690 21 is_stmt 0 view .LVU511
 1555 008c 96F82230 		ldrb	r3, [r6, #34]	@ zero_extendqisi2
 1556 0090 43F00803 		orr	r3, r3, #8
 1557 0094 86F82230 		strb	r3, [r6, #34]
 691:lvgl/src/widgets/lv_table.c ****     lv_draw_rect_dsc_t rect_dsc_act; /*Passed to the event to modify it*/
 1558              		.loc 1 691 5 is_stmt 1 view .LVU512
 692:lvgl/src/widgets/lv_table.c ****     lv_draw_rect_dsc_init(&rect_dsc_def);
 1559              		.loc 1 692 5 view .LVU513
 693:lvgl/src/widgets/lv_table.c ****     lv_obj_init_draw_rect_dsc(obj, LV_PART_ITEMS, &rect_dsc_def);
 1560              		.loc 1 693 5 view .LVU514
 1561 0098 4BA8     		add	r0, sp, #300
 1562 009a FFF7FEFF 		bl	lv_draw_rect_dsc_init
 1563              	.LVL167:
 694:lvgl/src/widgets/lv_table.c **** 
 1564              		.loc 1 694 5 view .LVU515
 1565 009e 4BA8     		add	r0, sp, #300
 1566 00a0 0246     		mov	r2, r0
 1567 00a2 4FF4A021 		mov	r1, #327680
 1568 00a6 3046     		mov	r0, r6
 1569 00a8 FFF7FEFF 		bl	lv_obj_init_draw_rect_dsc
 1570              	.LVL168:
 696:lvgl/src/widgets/lv_table.c ****     lv_draw_label_dsc_t label_dsc_act;  /*Passed to the event to modify it*/
 1571              		.loc 1 696 5 view .LVU516
 697:lvgl/src/widgets/lv_table.c ****     lv_draw_label_dsc_init(&label_dsc_def);
 1572              		.loc 1 697 5 view .LVU517
 698:lvgl/src/widgets/lv_table.c ****     lv_obj_init_draw_label_dsc(obj, LV_PART_ITEMS, &label_dsc_def);
 1573              		.loc 1 698 5 view .LVU518
 1574 00ac 35A8     		add	r0, sp, #212
 1575 00ae FFF7FEFF 		bl	lv_draw_label_dsc_init
 1576              	.LVL169:
 699:lvgl/src/widgets/lv_table.c ****     obj->state = state_ori;
 1577              		.loc 1 699 5 view .LVU519
 1578 00b2 35A8     		add	r0, sp, #212
 1579 00b4 0246     		mov	r2, r0
 1580 00b6 4FF4A021 		mov	r1, #327680
 1581 00ba 3046     		mov	r0, r6
 1582 00bc FFF7FEFF 		bl	lv_obj_init_draw_label_dsc
 1583              	.LVL170:
 700:lvgl/src/widgets/lv_table.c ****     obj->skip_trans = 0;
 1584              		.loc 1 700 5 view .LVU520
 700:lvgl/src/widgets/lv_table.c ****     obj->skip_trans = 0;
ARM GAS  /var/folders/21/t9g5rlb91ys800n5npymflf80000gn/T//ccNiYEm1.s 			page 66


 1585              		.loc 1 700 16 is_stmt 0 view .LVU521
 1586 00c0 109B     		ldr	r3, [sp, #64]
 1587 00c2 3384     		strh	r3, [r6, #32]	@ movhi
 701:lvgl/src/widgets/lv_table.c **** 
 1588              		.loc 1 701 5 is_stmt 1 view .LVU522
 701:lvgl/src/widgets/lv_table.c **** 
 1589              		.loc 1 701 21 is_stmt 0 view .LVU523
 1590 00c4 96F82230 		ldrb	r3, [r6, #34]	@ zero_extendqisi2
 1591 00c8 69F3C303 		bfi	r3, r9, #3, #1
 1592 00cc 86F82230 		strb	r3, [r6, #34]
 703:lvgl/src/widgets/lv_table.c ****     uint16_t row;
 1593              		.loc 1 703 5 is_stmt 1 view .LVU524
 704:lvgl/src/widgets/lv_table.c ****     uint16_t cell = 0;
 1594              		.loc 1 704 5 view .LVU525
 705:lvgl/src/widgets/lv_table.c **** 
 1595              		.loc 1 705 5 view .LVU526
 1596              	.LVL171:
 707:lvgl/src/widgets/lv_table.c ****     lv_coord_t scroll_x = lv_obj_get_scroll_x(obj) ;
 1597              		.loc 1 707 5 view .LVU527
 707:lvgl/src/widgets/lv_table.c ****     lv_coord_t scroll_x = lv_obj_get_scroll_x(obj) ;
 1598              		.loc 1 707 31 is_stmt 0 view .LVU528
 1599 00d0 F38A     		ldrh	r3, [r6, #22]
 1600              	.LVL172:
 707:lvgl/src/widgets/lv_table.c ****     lv_coord_t scroll_x = lv_obj_get_scroll_x(obj) ;
 1601              		.loc 1 707 35 view .LVU529
 1602 00d2 1D44     		add	r5, r5, r3
 1603              	.LVL173:
 707:lvgl/src/widgets/lv_table.c ****     lv_coord_t scroll_x = lv_obj_get_scroll_x(obj) ;
 1604              		.loc 1 707 35 view .LVU530
 1605 00d4 ADB2     		uxth	r5, r5
 707:lvgl/src/widgets/lv_table.c ****     lv_coord_t scroll_x = lv_obj_get_scroll_x(obj) ;
 1606              		.loc 1 707 50 view .LVU531
 1607 00d6 3046     		mov	r0, r6
 1608 00d8 FFF7FEFF 		bl	lv_obj_get_scroll_y
 1609              	.LVL174:
 707:lvgl/src/widgets/lv_table.c ****     lv_coord_t scroll_x = lv_obj_get_scroll_x(obj) ;
 1610              		.loc 1 707 48 view .LVU532
 1611 00dc 2B1A     		subs	r3, r5, r0
 707:lvgl/src/widgets/lv_table.c ****     lv_coord_t scroll_x = lv_obj_get_scroll_x(obj) ;
 1612              		.loc 1 707 75 view .LVU533
 1613 00de BFB2     		uxth	r7, r7
 707:lvgl/src/widgets/lv_table.c ****     lv_coord_t scroll_x = lv_obj_get_scroll_x(obj) ;
 1614              		.loc 1 707 75 view .LVU534
 1615 00e0 17FA83F3 		uxtah	r3, r7, r3
 1616 00e4 013B     		subs	r3, r3, #1
 707:lvgl/src/widgets/lv_table.c ****     lv_coord_t scroll_x = lv_obj_get_scroll_x(obj) ;
 1617              		.loc 1 707 18 view .LVU535
 1618 00e6 ADF86A31 		strh	r3, [sp, #362]	@ movhi
 708:lvgl/src/widgets/lv_table.c ****     bool rtl = lv_obj_get_style_base_dir(obj, LV_PART_MAIN) == LV_BASE_DIR_RTL;
 1619              		.loc 1 708 5 is_stmt 1 view .LVU536
 708:lvgl/src/widgets/lv_table.c ****     bool rtl = lv_obj_get_style_base_dir(obj, LV_PART_MAIN) == LV_BASE_DIR_RTL;
 1620              		.loc 1 708 27 is_stmt 0 view .LVU537
 1621 00ea 3046     		mov	r0, r6
 1622 00ec FFF7FEFF 		bl	lv_obj_get_scroll_x
 1623              	.LVL175:
 1624 00f0 0E90     		str	r0, [sp, #56]
 1625              	.LVL176:
ARM GAS  /var/folders/21/t9g5rlb91ys800n5npymflf80000gn/T//ccNiYEm1.s 			page 67


 709:lvgl/src/widgets/lv_table.c **** 
 1626              		.loc 1 709 5 is_stmt 1 view .LVU538
 1627              	.LBB176:
 1628              	.LBI176:
 565:lvgl/src/widgets/../core/lv_obj_style_gen.h **** {
 1629              		.loc 3 565 29 view .LVU539
 1630              	.LBB177:
 567:lvgl/src/widgets/../core/lv_obj_style_gen.h ****     return (lv_base_dir_t)v.num;
 1631              		.loc 3 567 5 view .LVU540
 567:lvgl/src/widgets/../core/lv_obj_style_gen.h ****     return (lv_base_dir_t)v.num;
 1632              		.loc 3 567 26 is_stmt 0 view .LVU541
 1633 00f2 1622     		movs	r2, #22
 1634 00f4 4946     		mov	r1, r9
 1635 00f6 3046     		mov	r0, r6
 1636 00f8 FFF7FEFF 		bl	lv_obj_get_style_prop
 1637              	.LVL177:
 1638              		.loc 3 568 5 is_stmt 1 view .LVU542
 1639              		.loc 3 568 12 is_stmt 0 view .LVU543
 1640 00fc 5FFA80F8 		uxtb	r8, r0
 1641              	.LVL178:
 1642              		.loc 3 568 12 view .LVU544
 1643              	.LBE177:
 1644              	.LBE176:
 712:lvgl/src/widgets/lv_table.c ****     lv_obj_draw_dsc_init(&part_draw_dsc, draw_ctx);
 1645              		.loc 1 712 5 is_stmt 1 view .LVU545
 713:lvgl/src/widgets/lv_table.c ****     part_draw_dsc.part = LV_PART_ITEMS;
 1646              		.loc 1 713 5 view .LVU546
 1647 0100 0799     		ldr	r1, [sp, #28]
 1648 0102 1BA8     		add	r0, sp, #108
 1649 0104 FFF7FEFF 		bl	lv_obj_draw_dsc_init
 1650              	.LVL179:
 714:lvgl/src/widgets/lv_table.c ****     part_draw_dsc.class_p = MY_CLASS;
 1651              		.loc 1 714 5 view .LVU547
 714:lvgl/src/widgets/lv_table.c ****     part_draw_dsc.class_p = MY_CLASS;
 1652              		.loc 1 714 24 is_stmt 0 view .LVU548
 1653 0108 4FF4A023 		mov	r3, #327680
 1654 010c 2893     		str	r3, [sp, #160]
 715:lvgl/src/widgets/lv_table.c ****     part_draw_dsc.type = LV_TABLE_DRAW_PART_CELL;
 1655              		.loc 1 715 5 is_stmt 1 view .LVU549
 715:lvgl/src/widgets/lv_table.c ****     part_draw_dsc.type = LV_TABLE_DRAW_PART_CELL;
 1656              		.loc 1 715 27 is_stmt 0 view .LVU550
 1657 010e C24B     		ldr	r3, .L95
 1658 0110 1C93     		str	r3, [sp, #112]
 716:lvgl/src/widgets/lv_table.c ****     part_draw_dsc.rect_dsc = &rect_dsc_act;
 1659              		.loc 1 716 5 is_stmt 1 view .LVU551
 716:lvgl/src/widgets/lv_table.c ****     part_draw_dsc.rect_dsc = &rect_dsc_act;
 1660              		.loc 1 716 24 is_stmt 0 view .LVU552
 1661 0112 CDF87490 		str	r9, [sp, #116]
 717:lvgl/src/widgets/lv_table.c ****     part_draw_dsc.label_dsc = &label_dsc_act;
 1662              		.loc 1 717 5 is_stmt 1 view .LVU553
 717:lvgl/src/widgets/lv_table.c ****     part_draw_dsc.label_dsc = &label_dsc_act;
 1663              		.loc 1 717 28 is_stmt 0 view .LVU554
 1664 0116 3DAB     		add	r3, sp, #244
 1665 0118 1F93     		str	r3, [sp, #124]
 718:lvgl/src/widgets/lv_table.c **** 
 1666              		.loc 1 718 5 is_stmt 1 view .LVU555
 718:lvgl/src/widgets/lv_table.c **** 
ARM GAS  /var/folders/21/t9g5rlb91ys800n5npymflf80000gn/T//ccNiYEm1.s 			page 68


 1667              		.loc 1 718 29 is_stmt 0 view .LVU556
 1668 011a 2DAB     		add	r3, sp, #180
 1669 011c 2093     		str	r3, [sp, #128]
 720:lvgl/src/widgets/lv_table.c ****         lv_coord_t h_row = table->row_h[row];
 1670              		.loc 1 720 5 is_stmt 1 view .LVU557
 1671              	.LVL180:
 705:lvgl/src/widgets/lv_table.c **** 
 1672              		.loc 1 705 14 is_stmt 0 view .LVU558
 1673 011e CB46     		mov	fp, r9
 1674 0120 0F97     		str	r7, [sp, #60]
 1675 0122 1394     		str	r4, [sp, #76]
 1676 0124 4446     		mov	r4, r8
 1677              	.LVL181:
 705:lvgl/src/widgets/lv_table.c **** 
 1678              		.loc 1 705 14 view .LVU559
 1679 0126 C846     		mov	r8, r9
 1680              	.LVL182:
 705:lvgl/src/widgets/lv_table.c **** 
 1681              		.loc 1 705 14 view .LVU560
 1682 0128 CDF844A0 		str	r10, [sp, #68]
 720:lvgl/src/widgets/lv_table.c ****         lv_coord_t h_row = table->row_h[row];
 1683              		.loc 1 720 5 view .LVU561
 1684 012c D4E1     		b	.L52
 1685              	.LVL183:
 1686              	.L94:
 1687              	.LBB178:
 728:lvgl/src/widgets/lv_table.c ****         else cell_area.x2 = obj->coords.x1 + bg_left - 1 - scroll_x + border_width;
 1688              		.loc 1 728 17 is_stmt 1 discriminator 1 view .LVU562
 728:lvgl/src/widgets/lv_table.c ****         else cell_area.x2 = obj->coords.x1 + bg_left - 1 - scroll_x + border_width;
 1689              		.loc 1 728 43 is_stmt 0 discriminator 1 view .LVU563
 1690 012e 338B     		ldrh	r3, [r6, #24]
 728:lvgl/src/widgets/lv_table.c ****         else cell_area.x2 = obj->coords.x1 + bg_left - 1 - scroll_x + border_width;
 1691              		.loc 1 728 47 discriminator 1 view .LVU564
 1692 0130 129A     		ldr	r2, [sp, #72]
 1693 0132 9B1A     		subs	r3, r3, r2
 1694 0134 9BB2     		uxth	r3, r3
 728:lvgl/src/widgets/lv_table.c ****         else cell_area.x2 = obj->coords.x1 + bg_left - 1 - scroll_x + border_width;
 1695              		.loc 1 728 62 discriminator 1 view .LVU565
 1696 0136 0E9A     		ldr	r2, [sp, #56]
 1697 0138 9B1A     		subs	r3, r3, r2
 1698 013a 9BB2     		uxth	r3, r3
 728:lvgl/src/widgets/lv_table.c ****         else cell_area.x2 = obj->coords.x1 + bg_left - 1 - scroll_x + border_width;
 1699              		.loc 1 728 73 discriminator 1 view .LVU566
 1700 013c 0F9A     		ldr	r2, [sp, #60]
 1701 013e 9B1A     		subs	r3, r3, r2
 1702 0140 013B     		subs	r3, r3, #1
 728:lvgl/src/widgets/lv_table.c ****         else cell_area.x2 = obj->coords.x1 + bg_left - 1 - scroll_x + border_width;
 1703              		.loc 1 728 30 discriminator 1 view .LVU567
 1704 0142 ADF86431 		strh	r3, [sp, #356]	@ movhi
 1705 0146 EDE1     		b	.L55
 1706              	.LVL184:
 1707              	.L84:
 1708              	.LBB179:
 732:lvgl/src/widgets/lv_table.c ****             if(table->cell_data[cell]) ctrl = table->cell_data[cell]->ctrl;
 1709              		.loc 1 732 34 view .LVU568
 1710 0148 0023     		movs	r3, #0
 1711 014a 0693     		str	r3, [sp, #24]
ARM GAS  /var/folders/21/t9g5rlb91ys800n5npymflf80000gn/T//ccNiYEm1.s 			page 69


 1712 014c 50E1     		b	.L56
 1713              	.LVL185:
 1714              	.L93:
 736:lvgl/src/widgets/lv_table.c ****                 cell_area.x1 = cell_area.x2 - table->col_w[col] + 1;
 1715              		.loc 1 736 17 is_stmt 1 view .LVU569
 736:lvgl/src/widgets/lv_table.c ****                 cell_area.x1 = cell_area.x2 - table->col_w[col] + 1;
 1716              		.loc 1 736 41 is_stmt 0 view .LVU570
 1717 014e BDF86421 		ldrh	r2, [sp, #356]
 736:lvgl/src/widgets/lv_table.c ****                 cell_area.x1 = cell_area.x2 - table->col_w[col] + 1;
 1718              		.loc 1 736 45 view .LVU571
 1719 0152 013A     		subs	r2, r2, #1
 1720 0154 93B2     		uxth	r3, r2
 736:lvgl/src/widgets/lv_table.c ****                 cell_area.x1 = cell_area.x2 - table->col_w[col] + 1;
 1721              		.loc 1 736 30 view .LVU572
 1722 0156 ADF86821 		strh	r2, [sp, #360]	@ movhi
 737:lvgl/src/widgets/lv_table.c ****             }
 1723              		.loc 1 737 17 is_stmt 1 view .LVU573
 737:lvgl/src/widgets/lv_table.c ****             }
 1724              		.loc 1 737 52 is_stmt 0 view .LVU574
 1725 015a 326B     		ldr	r2, [r6, #48]
 737:lvgl/src/widgets/lv_table.c ****             }
 1726              		.loc 1 737 59 view .LVU575
 1727 015c 32F81520 		ldrh	r2, [r2, r5, lsl #1]
 737:lvgl/src/widgets/lv_table.c ****             }
 1728              		.loc 1 737 45 view .LVU576
 1729 0160 9B1A     		subs	r3, r3, r2
 1730 0162 9BB2     		uxth	r3, r3
 737:lvgl/src/widgets/lv_table.c ****             }
 1731              		.loc 1 737 65 view .LVU577
 1732 0164 0133     		adds	r3, r3, #1
 737:lvgl/src/widgets/lv_table.c ****             }
 1733              		.loc 1 737 30 view .LVU578
 1734 0166 ADF86431 		strh	r3, [sp, #356]	@ movhi
 1735 016a 52E1     		b	.L58
 1736              	.LVL186:
 1737              	.L88:
 1738              	.LBB180:
 1739              	.LBB181:
 754:lvgl/src/widgets/lv_table.c ****                     else cell_area.x2 += offset;
 1740              		.loc 1 754 29 is_stmt 1 discriminator 1 view .LVU579
 754:lvgl/src/widgets/lv_table.c ****                     else cell_area.x2 += offset;
 1741              		.loc 1 754 38 is_stmt 0 discriminator 1 view .LVU580
 1742 016c BDF86431 		ldrh	r3, [sp, #356]
 754:lvgl/src/widgets/lv_table.c ****                     else cell_area.x2 += offset;
 1743              		.loc 1 754 42 discriminator 1 view .LVU581
 1744 0170 9B1A     		subs	r3, r3, r2
 1745 0172 ADF86431 		strh	r3, [sp, #356]	@ movhi
 1746              	.LVL187:
 1747              	.L61:
 754:lvgl/src/widgets/lv_table.c ****                     else cell_area.x2 += offset;
 1748              		.loc 1 754 42 discriminator 1 view .LVU582
 1749              	.LBE181:
 1750              	.LBE180:
 745:lvgl/src/widgets/lv_table.c ****                 lv_table_cell_t * next_cell_data = table->cell_data[cell + col_merge];
 1751              		.loc 1 745 79 is_stmt 1 discriminator 2 view .LVU583
 1752 0176 0137     		adds	r7, r7, #1
 1753              	.LVL188:
ARM GAS  /var/folders/21/t9g5rlb91ys800n5npymflf80000gn/T//ccNiYEm1.s 			page 70


 745:lvgl/src/widgets/lv_table.c ****                 lv_table_cell_t * next_cell_data = table->cell_data[cell + col_merge];
 1754              		.loc 1 745 79 is_stmt 0 discriminator 2 view .LVU584
 1755 0178 BFB2     		uxth	r7, r7
 1756              	.LVL189:
 1757              	.L62:
 745:lvgl/src/widgets/lv_table.c ****                 lv_table_cell_t * next_cell_data = table->cell_data[cell + col_merge];
 1758              		.loc 1 745 48 is_stmt 1 discriminator 1 view .LVU585
 745:lvgl/src/widgets/lv_table.c ****                 lv_table_cell_t * next_cell_data = table->cell_data[cell + col_merge];
 1759              		.loc 1 745 42 is_stmt 0 discriminator 1 view .LVU586
 1760 017a A946     		mov	r9, r5
 1761 017c 7B19     		adds	r3, r7, r5
 745:lvgl/src/widgets/lv_table.c ****                 lv_table_cell_t * next_cell_data = table->cell_data[cell + col_merge];
 1762              		.loc 1 745 65 discriminator 1 view .LVU587
 1763 017e 4A1E     		subs	r2, r1, #1
 745:lvgl/src/widgets/lv_table.c ****                 lv_table_cell_t * next_cell_data = table->cell_data[cell + col_merge];
 1764              		.loc 1 745 48 discriminator 1 view .LVU588
 1765 0180 9342     		cmp	r3, r2
 1766 0182 14DA     		bge	.L59
 1767              	.LBB183:
 746:lvgl/src/widgets/lv_table.c **** 
 1768              		.loc 1 746 17 is_stmt 1 view .LVU589
 746:lvgl/src/widgets/lv_table.c **** 
 1769              		.loc 1 746 74 is_stmt 0 view .LVU590
 1770 0184 08EB0702 		add	r2, r8, r7
 746:lvgl/src/widgets/lv_table.c **** 
 1771              		.loc 1 746 35 view .LVU591
 1772 0188 50F82220 		ldr	r2, [r0, r2, lsl #2]
 1773              	.LVL190:
 748:lvgl/src/widgets/lv_table.c **** 
 1774              		.loc 1 748 17 is_stmt 1 view .LVU592
 748:lvgl/src/widgets/lv_table.c **** 
 1775              		.loc 1 748 19 is_stmt 0 view .LVU593
 1776 018c 7AB1     		cbz	r2, .L59
