ARM GAS  /var/folders/21/t9g5rlb91ys800n5npymflf80000gn/T//ccWhGGwq.s 			page 1


   1              		.cpu cortex-m4
   2              		.arch armv7e-m
   3              		.fpu fpv4-sp-d16
   4              		.eabi_attribute 27, 1
   5              		.eabi_attribute 28, 1
   6              		.eabi_attribute 20, 1
   7              		.eabi_attribute 21, 1
   8              		.eabi_attribute 23, 3
   9              		.eabi_attribute 24, 1
  10              		.eabi_attribute 25, 1
  11              		.eabi_attribute 26, 1
  12              		.eabi_attribute 30, 1
  13              		.eabi_attribute 34, 1
  14              		.eabi_attribute 18, 4
  15              		.file	"lv_tileview.c"
  16              		.text
  17              	.Ltext0:
  18              		.cfi_sections	.debug_frame
  19              		.file 1 "lvgl/src/extra/widgets/tileview/lv_tileview.c"
  20              		.section	.text.lv_tileview_constructor,"ax",%progbits
  21              		.align	1
  22              		.syntax unified
  23              		.thumb
  24              		.thumb_func
  26              	lv_tileview_constructor:
  27              	.LVL0:
  28              	.LFB166:
   1:lvgl/src/extra/widgets/tileview/lv_tileview.c **** /**
   2:lvgl/src/extra/widgets/tileview/lv_tileview.c ****  * @file lv_tileview.c
   3:lvgl/src/extra/widgets/tileview/lv_tileview.c ****  *
   4:lvgl/src/extra/widgets/tileview/lv_tileview.c ****  */
   5:lvgl/src/extra/widgets/tileview/lv_tileview.c **** 
   6:lvgl/src/extra/widgets/tileview/lv_tileview.c **** /*********************
   7:lvgl/src/extra/widgets/tileview/lv_tileview.c ****  *      INCLUDES
   8:lvgl/src/extra/widgets/tileview/lv_tileview.c ****  *********************/
   9:lvgl/src/extra/widgets/tileview/lv_tileview.c **** #include "lv_tileview.h"
  10:lvgl/src/extra/widgets/tileview/lv_tileview.c **** #include "../../../core/lv_indev.h"
  11:lvgl/src/extra/widgets/tileview/lv_tileview.c **** #if LV_USE_TILEVIEW
  12:lvgl/src/extra/widgets/tileview/lv_tileview.c **** 
  13:lvgl/src/extra/widgets/tileview/lv_tileview.c **** /*********************
  14:lvgl/src/extra/widgets/tileview/lv_tileview.c ****  *      DEFINES
  15:lvgl/src/extra/widgets/tileview/lv_tileview.c ****  *********************/
  16:lvgl/src/extra/widgets/tileview/lv_tileview.c **** 
  17:lvgl/src/extra/widgets/tileview/lv_tileview.c **** /**********************
  18:lvgl/src/extra/widgets/tileview/lv_tileview.c ****  *      TYPEDEFS
  19:lvgl/src/extra/widgets/tileview/lv_tileview.c ****  **********************/
  20:lvgl/src/extra/widgets/tileview/lv_tileview.c **** 
  21:lvgl/src/extra/widgets/tileview/lv_tileview.c **** /**********************
  22:lvgl/src/extra/widgets/tileview/lv_tileview.c ****  *  STATIC PROTOTYPES
  23:lvgl/src/extra/widgets/tileview/lv_tileview.c ****  **********************/
  24:lvgl/src/extra/widgets/tileview/lv_tileview.c **** static void lv_tileview_constructor(const lv_obj_class_t * class_p, lv_obj_t * obj);
  25:lvgl/src/extra/widgets/tileview/lv_tileview.c **** static void lv_tileview_tile_constructor(const lv_obj_class_t * class_p, lv_obj_t * obj);
  26:lvgl/src/extra/widgets/tileview/lv_tileview.c **** static void tileview_event_cb(lv_event_t * e);
  27:lvgl/src/extra/widgets/tileview/lv_tileview.c **** 
  28:lvgl/src/extra/widgets/tileview/lv_tileview.c **** /**********************
  29:lvgl/src/extra/widgets/tileview/lv_tileview.c ****  *  STATIC VARIABLES
  30:lvgl/src/extra/widgets/tileview/lv_tileview.c ****  **********************/
ARM GAS  /var/folders/21/t9g5rlb91ys800n5npymflf80000gn/T//ccWhGGwq.s 			page 2


  31:lvgl/src/extra/widgets/tileview/lv_tileview.c **** 
  32:lvgl/src/extra/widgets/tileview/lv_tileview.c **** const lv_obj_class_t lv_tileview_class = {.constructor_cb = lv_tileview_constructor,
  33:lvgl/src/extra/widgets/tileview/lv_tileview.c ****                                           .base_class = &lv_obj_class,
  34:lvgl/src/extra/widgets/tileview/lv_tileview.c ****                                           .instance_size = sizeof(lv_tileview_t)
  35:lvgl/src/extra/widgets/tileview/lv_tileview.c ****                                          };
  36:lvgl/src/extra/widgets/tileview/lv_tileview.c **** 
  37:lvgl/src/extra/widgets/tileview/lv_tileview.c **** const lv_obj_class_t lv_tileview_tile_class = {.constructor_cb = lv_tileview_tile_constructor,
  38:lvgl/src/extra/widgets/tileview/lv_tileview.c ****                                                .base_class = &lv_obj_class,
  39:lvgl/src/extra/widgets/tileview/lv_tileview.c ****                                                .instance_size = sizeof(lv_tileview_tile_t)
  40:lvgl/src/extra/widgets/tileview/lv_tileview.c ****                                               };
  41:lvgl/src/extra/widgets/tileview/lv_tileview.c **** 
  42:lvgl/src/extra/widgets/tileview/lv_tileview.c **** static lv_dir_t create_dir;
  43:lvgl/src/extra/widgets/tileview/lv_tileview.c **** static uint32_t create_col_id;
  44:lvgl/src/extra/widgets/tileview/lv_tileview.c **** static uint32_t create_row_id;
  45:lvgl/src/extra/widgets/tileview/lv_tileview.c **** 
  46:lvgl/src/extra/widgets/tileview/lv_tileview.c **** /**********************
  47:lvgl/src/extra/widgets/tileview/lv_tileview.c ****  *      MACROS
  48:lvgl/src/extra/widgets/tileview/lv_tileview.c ****  **********************/
  49:lvgl/src/extra/widgets/tileview/lv_tileview.c **** 
  50:lvgl/src/extra/widgets/tileview/lv_tileview.c **** /**********************
  51:lvgl/src/extra/widgets/tileview/lv_tileview.c ****  *   GLOBAL FUNCTIONS
  52:lvgl/src/extra/widgets/tileview/lv_tileview.c ****  **********************/
  53:lvgl/src/extra/widgets/tileview/lv_tileview.c **** 
  54:lvgl/src/extra/widgets/tileview/lv_tileview.c **** lv_obj_t * lv_tileview_create(lv_obj_t * parent)
  55:lvgl/src/extra/widgets/tileview/lv_tileview.c **** {
  56:lvgl/src/extra/widgets/tileview/lv_tileview.c ****     LV_LOG_INFO("begin");
  57:lvgl/src/extra/widgets/tileview/lv_tileview.c ****     lv_obj_t * obj = lv_obj_class_create_obj(&lv_tileview_class, parent);
  58:lvgl/src/extra/widgets/tileview/lv_tileview.c ****     lv_obj_class_init_obj(obj);
  59:lvgl/src/extra/widgets/tileview/lv_tileview.c ****     return obj;
  60:lvgl/src/extra/widgets/tileview/lv_tileview.c **** }
  61:lvgl/src/extra/widgets/tileview/lv_tileview.c **** 
  62:lvgl/src/extra/widgets/tileview/lv_tileview.c **** /*======================
  63:lvgl/src/extra/widgets/tileview/lv_tileview.c ****  * Add/remove functions
  64:lvgl/src/extra/widgets/tileview/lv_tileview.c ****  *=====================*/
  65:lvgl/src/extra/widgets/tileview/lv_tileview.c **** 
  66:lvgl/src/extra/widgets/tileview/lv_tileview.c **** lv_obj_t * lv_tileview_add_tile(lv_obj_t * tv, uint8_t col_id, uint8_t row_id, lv_dir_t dir)
  67:lvgl/src/extra/widgets/tileview/lv_tileview.c **** {
  68:lvgl/src/extra/widgets/tileview/lv_tileview.c ****     LV_LOG_INFO("begin");
  69:lvgl/src/extra/widgets/tileview/lv_tileview.c ****     create_dir = dir;
  70:lvgl/src/extra/widgets/tileview/lv_tileview.c ****     create_col_id = col_id;
  71:lvgl/src/extra/widgets/tileview/lv_tileview.c ****     create_row_id = row_id;
  72:lvgl/src/extra/widgets/tileview/lv_tileview.c **** 
  73:lvgl/src/extra/widgets/tileview/lv_tileview.c ****     lv_obj_t * obj = lv_obj_class_create_obj(&lv_tileview_tile_class, tv);
  74:lvgl/src/extra/widgets/tileview/lv_tileview.c ****     lv_obj_class_init_obj(obj);
  75:lvgl/src/extra/widgets/tileview/lv_tileview.c ****     return obj;
  76:lvgl/src/extra/widgets/tileview/lv_tileview.c **** }
  77:lvgl/src/extra/widgets/tileview/lv_tileview.c **** 
  78:lvgl/src/extra/widgets/tileview/lv_tileview.c **** void lv_obj_set_tile(lv_obj_t * obj, lv_obj_t * tile_obj, lv_anim_enable_t anim_en)
  79:lvgl/src/extra/widgets/tileview/lv_tileview.c **** {
  80:lvgl/src/extra/widgets/tileview/lv_tileview.c ****     lv_coord_t tx = lv_obj_get_x(tile_obj);
  81:lvgl/src/extra/widgets/tileview/lv_tileview.c ****     lv_coord_t ty = lv_obj_get_y(tile_obj);
  82:lvgl/src/extra/widgets/tileview/lv_tileview.c **** 
  83:lvgl/src/extra/widgets/tileview/lv_tileview.c ****     lv_tileview_tile_t * tile = (lv_tileview_tile_t *)tile_obj;
  84:lvgl/src/extra/widgets/tileview/lv_tileview.c ****     lv_tileview_t * tv = (lv_tileview_t *) obj;
  85:lvgl/src/extra/widgets/tileview/lv_tileview.c ****     tv->tile_act = (lv_obj_t *)tile;
  86:lvgl/src/extra/widgets/tileview/lv_tileview.c **** 
  87:lvgl/src/extra/widgets/tileview/lv_tileview.c ****     lv_obj_set_scroll_dir(obj, tile->dir);
ARM GAS  /var/folders/21/t9g5rlb91ys800n5npymflf80000gn/T//ccWhGGwq.s 			page 3


  88:lvgl/src/extra/widgets/tileview/lv_tileview.c ****     lv_obj_scroll_to(obj, tx, ty, anim_en);
  89:lvgl/src/extra/widgets/tileview/lv_tileview.c **** }
  90:lvgl/src/extra/widgets/tileview/lv_tileview.c **** 
  91:lvgl/src/extra/widgets/tileview/lv_tileview.c **** void lv_obj_set_tile_id(lv_obj_t * tv, uint32_t col_id, uint32_t row_id, lv_anim_enable_t anim_en)
  92:lvgl/src/extra/widgets/tileview/lv_tileview.c **** {
  93:lvgl/src/extra/widgets/tileview/lv_tileview.c ****     lv_obj_update_layout(tv);
  94:lvgl/src/extra/widgets/tileview/lv_tileview.c **** 
  95:lvgl/src/extra/widgets/tileview/lv_tileview.c ****     lv_coord_t w = lv_obj_get_content_width(tv);
  96:lvgl/src/extra/widgets/tileview/lv_tileview.c ****     lv_coord_t h = lv_obj_get_content_height(tv);
  97:lvgl/src/extra/widgets/tileview/lv_tileview.c **** 
  98:lvgl/src/extra/widgets/tileview/lv_tileview.c ****     lv_coord_t tx = col_id * w;
  99:lvgl/src/extra/widgets/tileview/lv_tileview.c ****     lv_coord_t ty = row_id * h;
 100:lvgl/src/extra/widgets/tileview/lv_tileview.c **** 
 101:lvgl/src/extra/widgets/tileview/lv_tileview.c ****     uint32_t i;
 102:lvgl/src/extra/widgets/tileview/lv_tileview.c ****     for(i = 0; i < lv_obj_get_child_cnt(tv); i++) {
 103:lvgl/src/extra/widgets/tileview/lv_tileview.c ****         lv_obj_t * tile_obj = lv_obj_get_child(tv, i);
 104:lvgl/src/extra/widgets/tileview/lv_tileview.c ****         lv_coord_t x = lv_obj_get_x(tile_obj);
 105:lvgl/src/extra/widgets/tileview/lv_tileview.c ****         lv_coord_t y = lv_obj_get_y(tile_obj);
 106:lvgl/src/extra/widgets/tileview/lv_tileview.c ****         if(x == tx && y == ty) {
 107:lvgl/src/extra/widgets/tileview/lv_tileview.c ****             lv_obj_set_tile(tv, tile_obj, anim_en);
 108:lvgl/src/extra/widgets/tileview/lv_tileview.c ****             return;
 109:lvgl/src/extra/widgets/tileview/lv_tileview.c ****         }
 110:lvgl/src/extra/widgets/tileview/lv_tileview.c ****     }
 111:lvgl/src/extra/widgets/tileview/lv_tileview.c **** 
 112:lvgl/src/extra/widgets/tileview/lv_tileview.c ****     LV_LOG_WARN("No tile found with at (%d,%d) index", (int)col_id, (int)row_id);
 113:lvgl/src/extra/widgets/tileview/lv_tileview.c **** }
 114:lvgl/src/extra/widgets/tileview/lv_tileview.c **** 
 115:lvgl/src/extra/widgets/tileview/lv_tileview.c **** lv_obj_t * lv_tileview_get_tile_act(lv_obj_t * obj)
 116:lvgl/src/extra/widgets/tileview/lv_tileview.c **** {
 117:lvgl/src/extra/widgets/tileview/lv_tileview.c ****     lv_tileview_t * tv = (lv_tileview_t *) obj;
 118:lvgl/src/extra/widgets/tileview/lv_tileview.c ****     return tv->tile_act;
 119:lvgl/src/extra/widgets/tileview/lv_tileview.c **** }
 120:lvgl/src/extra/widgets/tileview/lv_tileview.c **** 
 121:lvgl/src/extra/widgets/tileview/lv_tileview.c **** /**********************
 122:lvgl/src/extra/widgets/tileview/lv_tileview.c ****  *   STATIC FUNCTIONS
 123:lvgl/src/extra/widgets/tileview/lv_tileview.c ****  **********************/
 124:lvgl/src/extra/widgets/tileview/lv_tileview.c **** 
 125:lvgl/src/extra/widgets/tileview/lv_tileview.c **** static void lv_tileview_constructor(const lv_obj_class_t * class_p, lv_obj_t * obj)
 126:lvgl/src/extra/widgets/tileview/lv_tileview.c **** {
  29              		.loc 1 126 1 view -0
  30              		.cfi_startproc
  31              		@ args = 0, pretend = 0, frame = 0
  32              		@ frame_needed = 0, uses_anonymous_args = 0
  33              		.loc 1 126 1 is_stmt 0 view .LVU1
  34 0000 10B5     		push	{r4, lr}
  35              	.LCFI0:
  36              		.cfi_def_cfa_offset 8
  37              		.cfi_offset 4, -8
  38              		.cfi_offset 14, -4
  39 0002 0C46     		mov	r4, r1
 127:lvgl/src/extra/widgets/tileview/lv_tileview.c ****     LV_UNUSED(class_p);
  40              		.loc 1 127 5 is_stmt 1 view .LVU2
 128:lvgl/src/extra/widgets/tileview/lv_tileview.c ****     lv_obj_set_size(obj, LV_PCT(100), LV_PCT(100));
  41              		.loc 1 128 5 view .LVU3
  42 0004 42F26402 		movw	r2, #8292
  43 0008 1146     		mov	r1, r2
  44              	.LVL1:
ARM GAS  /var/folders/21/t9g5rlb91ys800n5npymflf80000gn/T//ccWhGGwq.s 			page 4


  45              		.loc 1 128 5 is_stmt 0 view .LVU4
  46 000a 2046     		mov	r0, r4
  47              	.LVL2:
  48              		.loc 1 128 5 view .LVU5
  49 000c FFF7FEFF 		bl	lv_obj_set_size
  50              	.LVL3:
 129:lvgl/src/extra/widgets/tileview/lv_tileview.c ****     lv_obj_add_event_cb(obj, tileview_event_cb, LV_EVENT_ALL, NULL);
  51              		.loc 1 129 5 is_stmt 1 view .LVU6
  52 0010 0023     		movs	r3, #0
  53 0012 1A46     		mov	r2, r3
  54 0014 0849     		ldr	r1, .L3
  55 0016 2046     		mov	r0, r4
  56 0018 FFF7FEFF 		bl	lv_obj_add_event_cb
  57              	.LVL4:
 130:lvgl/src/extra/widgets/tileview/lv_tileview.c ****     lv_obj_add_flag(obj, LV_OBJ_FLAG_SCROLL_ONE);
  58              		.loc 1 130 5 view .LVU7
  59 001c 8021     		movs	r1, #128
  60 001e 2046     		mov	r0, r4
  61 0020 FFF7FEFF 		bl	lv_obj_add_flag
  62              	.LVL5:
 131:lvgl/src/extra/widgets/tileview/lv_tileview.c ****     lv_obj_set_scroll_snap_x(obj, LV_SCROLL_SNAP_CENTER);
  63              		.loc 1 131 5 view .LVU8
  64 0024 0321     		movs	r1, #3
  65 0026 2046     		mov	r0, r4
  66 0028 FFF7FEFF 		bl	lv_obj_set_scroll_snap_x
  67              	.LVL6:
 132:lvgl/src/extra/widgets/tileview/lv_tileview.c ****     lv_obj_set_scroll_snap_y(obj, LV_SCROLL_SNAP_CENTER);
  68              		.loc 1 132 5 view .LVU9
  69 002c 0321     		movs	r1, #3
  70 002e 2046     		mov	r0, r4
  71 0030 FFF7FEFF 		bl	lv_obj_set_scroll_snap_y
  72              	.LVL7:
 133:lvgl/src/extra/widgets/tileview/lv_tileview.c **** 
 134:lvgl/src/extra/widgets/tileview/lv_tileview.c **** }
  73              		.loc 1 134 1 is_stmt 0 view .LVU10
  74 0034 10BD     		pop	{r4, pc}
  75              	.LVL8:
  76              	.L4:
  77              		.loc 1 134 1 view .LVU11
  78 0036 00BF     		.align	2
  79              	.L3:
  80 0038 00000000 		.word	tileview_event_cb
  81              		.cfi_endproc
  82              	.LFE166:
  84              		.section	.text.tileview_event_cb,"ax",%progbits
  85              		.align	1
  86              		.syntax unified
  87              		.thumb
  88              		.thumb_func
  90              	tileview_event_cb:
  91              	.LVL9:
  92              	.LFB168:
 135:lvgl/src/extra/widgets/tileview/lv_tileview.c **** 
 136:lvgl/src/extra/widgets/tileview/lv_tileview.c **** static void lv_tileview_tile_constructor(const lv_obj_class_t * class_p, lv_obj_t * obj)
 137:lvgl/src/extra/widgets/tileview/lv_tileview.c **** {
 138:lvgl/src/extra/widgets/tileview/lv_tileview.c **** 
 139:lvgl/src/extra/widgets/tileview/lv_tileview.c ****     LV_UNUSED(class_p);
ARM GAS  /var/folders/21/t9g5rlb91ys800n5npymflf80000gn/T//ccWhGGwq.s 			page 5


 140:lvgl/src/extra/widgets/tileview/lv_tileview.c ****     lv_obj_t * parent = lv_obj_get_parent(obj);
 141:lvgl/src/extra/widgets/tileview/lv_tileview.c ****     lv_obj_set_size(obj, LV_PCT(100), LV_PCT(100));
 142:lvgl/src/extra/widgets/tileview/lv_tileview.c ****     lv_obj_update_layout(obj);  /*Be sure the size is correct*/
 143:lvgl/src/extra/widgets/tileview/lv_tileview.c ****     lv_obj_set_pos(obj, create_col_id * lv_obj_get_content_width(parent),
 144:lvgl/src/extra/widgets/tileview/lv_tileview.c ****                    create_row_id * lv_obj_get_content_height(parent));
 145:lvgl/src/extra/widgets/tileview/lv_tileview.c **** 
 146:lvgl/src/extra/widgets/tileview/lv_tileview.c ****     lv_tileview_tile_t * tile = (lv_tileview_tile_t *)obj;
 147:lvgl/src/extra/widgets/tileview/lv_tileview.c ****     tile->dir = create_dir;
 148:lvgl/src/extra/widgets/tileview/lv_tileview.c **** 
 149:lvgl/src/extra/widgets/tileview/lv_tileview.c ****     if(create_col_id == 0 && create_row_id == 0) {
 150:lvgl/src/extra/widgets/tileview/lv_tileview.c ****         lv_obj_set_scroll_dir(parent, create_dir);
 151:lvgl/src/extra/widgets/tileview/lv_tileview.c ****     }
 152:lvgl/src/extra/widgets/tileview/lv_tileview.c **** }
 153:lvgl/src/extra/widgets/tileview/lv_tileview.c **** 
 154:lvgl/src/extra/widgets/tileview/lv_tileview.c **** static void tileview_event_cb(lv_event_t * e)
 155:lvgl/src/extra/widgets/tileview/lv_tileview.c **** {
  93              		.loc 1 155 1 is_stmt 1 view -0
  94              		.cfi_startproc
  95              		@ args = 0, pretend = 0, frame = 8
  96              		@ frame_needed = 0, uses_anonymous_args = 0
  97              		.loc 1 155 1 is_stmt 0 view .LVU13
  98 0000 2DE9F043 		push	{r4, r5, r6, r7, r8, r9, lr}
  99              	.LCFI1:
 100              		.cfi_def_cfa_offset 28
 101              		.cfi_offset 4, -28
 102              		.cfi_offset 5, -24
 103              		.cfi_offset 6, -20
 104              		.cfi_offset 7, -16
 105              		.cfi_offset 8, -12
 106              		.cfi_offset 9, -8
 107              		.cfi_offset 14, -4
 108 0004 83B0     		sub	sp, sp, #12
 109              	.LCFI2:
 110              		.cfi_def_cfa_offset 40
 111 0006 0546     		mov	r5, r0
 156:lvgl/src/extra/widgets/tileview/lv_tileview.c ****     lv_event_code_t code = lv_event_get_code(e);
 112              		.loc 1 156 5 is_stmt 1 view .LVU14
 113              		.loc 1 156 28 is_stmt 0 view .LVU15
 114 0008 FFF7FEFF 		bl	lv_event_get_code
 115              	.LVL10:
 116              		.loc 1 156 28 view .LVU16
 117 000c 0446     		mov	r4, r0
 118              	.LVL11:
 157:lvgl/src/extra/widgets/tileview/lv_tileview.c ****     lv_obj_t * obj = lv_event_get_target(e);
 119              		.loc 1 157 5 is_stmt 1 view .LVU17
 120              		.loc 1 157 22 is_stmt 0 view .LVU18
 121 000e 2846     		mov	r0, r5
 122 0010 FFF7FEFF 		bl	lv_event_get_target
 123              	.LVL12:
 158:lvgl/src/extra/widgets/tileview/lv_tileview.c ****     lv_tileview_t * tv = (lv_tileview_t *) obj;
 124              		.loc 1 158 5 is_stmt 1 view .LVU19
 159:lvgl/src/extra/widgets/tileview/lv_tileview.c **** 
 160:lvgl/src/extra/widgets/tileview/lv_tileview.c ****     if(code == LV_EVENT_SCROLL_END) {
 125              		.loc 1 160 5 view .LVU20
 126              		.loc 1 160 7 is_stmt 0 view .LVU21
 127 0014 0A2C     		cmp	r4, #10
 128 0016 02D0     		beq	.L13
ARM GAS  /var/folders/21/t9g5rlb91ys800n5npymflf80000gn/T//ccWhGGwq.s 			page 6


 129              	.LVL13:
 130              	.L5:
 161:lvgl/src/extra/widgets/tileview/lv_tileview.c ****         lv_indev_t * indev = lv_indev_get_act();
 162:lvgl/src/extra/widgets/tileview/lv_tileview.c ****         if(indev && indev->proc.state == LV_INDEV_STATE_PRESSED) {
 163:lvgl/src/extra/widgets/tileview/lv_tileview.c ****             return;
 164:lvgl/src/extra/widgets/tileview/lv_tileview.c ****         }
 165:lvgl/src/extra/widgets/tileview/lv_tileview.c **** 
 166:lvgl/src/extra/widgets/tileview/lv_tileview.c ****         lv_coord_t w = lv_obj_get_content_width(obj);
 167:lvgl/src/extra/widgets/tileview/lv_tileview.c ****         lv_coord_t h = lv_obj_get_content_height(obj);
 168:lvgl/src/extra/widgets/tileview/lv_tileview.c **** 
 169:lvgl/src/extra/widgets/tileview/lv_tileview.c ****         lv_point_t scroll_end;
 170:lvgl/src/extra/widgets/tileview/lv_tileview.c ****         lv_obj_get_scroll_end(obj, &scroll_end);
 171:lvgl/src/extra/widgets/tileview/lv_tileview.c ****         lv_coord_t left = scroll_end.x;
 172:lvgl/src/extra/widgets/tileview/lv_tileview.c ****         lv_coord_t top = scroll_end.y;
 173:lvgl/src/extra/widgets/tileview/lv_tileview.c **** 
 174:lvgl/src/extra/widgets/tileview/lv_tileview.c ****         lv_coord_t tx = ((left + (w / 2)) / w) * w;
 175:lvgl/src/extra/widgets/tileview/lv_tileview.c ****         lv_coord_t ty = ((top + (h / 2)) / h) * h;
 176:lvgl/src/extra/widgets/tileview/lv_tileview.c **** 
 177:lvgl/src/extra/widgets/tileview/lv_tileview.c ****         lv_dir_t dir = LV_DIR_ALL;
 178:lvgl/src/extra/widgets/tileview/lv_tileview.c ****         uint32_t i;
 179:lvgl/src/extra/widgets/tileview/lv_tileview.c ****         for(i = 0; i < lv_obj_get_child_cnt(obj); i++) {
 180:lvgl/src/extra/widgets/tileview/lv_tileview.c ****             lv_obj_t * tile_obj = lv_obj_get_child(obj, i);
 181:lvgl/src/extra/widgets/tileview/lv_tileview.c ****             lv_coord_t x = lv_obj_get_x(tile_obj);
 182:lvgl/src/extra/widgets/tileview/lv_tileview.c ****             lv_coord_t y = lv_obj_get_y(tile_obj);
 183:lvgl/src/extra/widgets/tileview/lv_tileview.c ****             if(x == tx && y == ty) {
 184:lvgl/src/extra/widgets/tileview/lv_tileview.c ****                 lv_tileview_tile_t * tile = (lv_tileview_tile_t *)tile_obj;
 185:lvgl/src/extra/widgets/tileview/lv_tileview.c ****                 tv->tile_act = (lv_obj_t *)tile;
 186:lvgl/src/extra/widgets/tileview/lv_tileview.c ****                 dir = tile->dir;
 187:lvgl/src/extra/widgets/tileview/lv_tileview.c ****                 lv_event_send(obj, LV_EVENT_VALUE_CHANGED, NULL);
 188:lvgl/src/extra/widgets/tileview/lv_tileview.c ****                 break;
 189:lvgl/src/extra/widgets/tileview/lv_tileview.c ****             }
 190:lvgl/src/extra/widgets/tileview/lv_tileview.c ****         }
 191:lvgl/src/extra/widgets/tileview/lv_tileview.c ****         lv_obj_set_scroll_dir(obj, dir);
 192:lvgl/src/extra/widgets/tileview/lv_tileview.c ****     }
 193:lvgl/src/extra/widgets/tileview/lv_tileview.c **** }
 131              		.loc 1 193 1 view .LVU22
 132 0018 03B0     		add	sp, sp, #12
 133              	.LCFI3:
 134              		.cfi_remember_state
 135              		.cfi_def_cfa_offset 28
 136              		@ sp needed
 137 001a BDE8F083 		pop	{r4, r5, r6, r7, r8, r9, pc}
 138              	.LVL14:
 139              	.L13:
 140              	.LCFI4:
 141              		.cfi_restore_state
 142              		.loc 1 193 1 view .LVU23
 143 001e 0746     		mov	r7, r0
 144              	.LBB2:
 161:lvgl/src/extra/widgets/tileview/lv_tileview.c ****         lv_indev_t * indev = lv_indev_get_act();
 145              		.loc 1 161 9 is_stmt 1 view .LVU24
 161:lvgl/src/extra/widgets/tileview/lv_tileview.c ****         lv_indev_t * indev = lv_indev_get_act();
 146              		.loc 1 161 30 is_stmt 0 view .LVU25
 147 0020 FFF7FEFF 		bl	lv_indev_get_act
 148              	.LVL15:
 162:lvgl/src/extra/widgets/tileview/lv_tileview.c ****             return;
 149              		.loc 1 162 9 is_stmt 1 view .LVU26
ARM GAS  /var/folders/21/t9g5rlb91ys800n5npymflf80000gn/T//ccWhGGwq.s 			page 7


 162:lvgl/src/extra/widgets/tileview/lv_tileview.c ****             return;
 150              		.loc 1 162 11 is_stmt 0 view .LVU27
 151 0024 10B1     		cbz	r0, .L7
 162:lvgl/src/extra/widgets/tileview/lv_tileview.c ****             return;
 152              		.loc 1 162 32 discriminator 1 view .LVU28
 153 0026 0379     		ldrb	r3, [r0, #4]	@ zero_extendqisi2
 162:lvgl/src/extra/widgets/tileview/lv_tileview.c ****             return;
 154              		.loc 1 162 18 discriminator 1 view .LVU29
 155 0028 012B     		cmp	r3, #1
 156 002a F5D0     		beq	.L5
 157              	.L7:
 166:lvgl/src/extra/widgets/tileview/lv_tileview.c ****         lv_coord_t h = lv_obj_get_content_height(obj);
 158              		.loc 1 166 9 is_stmt 1 view .LVU30
 166:lvgl/src/extra/widgets/tileview/lv_tileview.c ****         lv_coord_t h = lv_obj_get_content_height(obj);
 159              		.loc 1 166 24 is_stmt 0 view .LVU31
 160 002c 3846     		mov	r0, r7
 161              	.LVL16:
 166:lvgl/src/extra/widgets/tileview/lv_tileview.c ****         lv_coord_t h = lv_obj_get_content_height(obj);
 162              		.loc 1 166 24 view .LVU32
 163 002e FFF7FEFF 		bl	lv_obj_get_content_width
 164              	.LVL17:
 165 0032 0546     		mov	r5, r0
 166              	.LVL18:
 167:lvgl/src/extra/widgets/tileview/lv_tileview.c **** 
 167              		.loc 1 167 9 is_stmt 1 view .LVU33
 167:lvgl/src/extra/widgets/tileview/lv_tileview.c **** 
 168              		.loc 1 167 24 is_stmt 0 view .LVU34
 169 0034 3846     		mov	r0, r7
 170 0036 FFF7FEFF 		bl	lv_obj_get_content_height
 171              	.LVL19:
 172 003a 0446     		mov	r4, r0
 173              	.LVL20:
 169:lvgl/src/extra/widgets/tileview/lv_tileview.c ****         lv_obj_get_scroll_end(obj, &scroll_end);
 174              		.loc 1 169 9 is_stmt 1 view .LVU35
 170:lvgl/src/extra/widgets/tileview/lv_tileview.c ****         lv_coord_t left = scroll_end.x;
 175              		.loc 1 170 9 view .LVU36
 176 003c 01A9     		add	r1, sp, #4
 177 003e 3846     		mov	r0, r7
 178 0040 FFF7FEFF 		bl	lv_obj_get_scroll_end
 179              	.LVL21:
 171:lvgl/src/extra/widgets/tileview/lv_tileview.c ****         lv_coord_t top = scroll_end.y;
 180              		.loc 1 171 9 view .LVU37
 171:lvgl/src/extra/widgets/tileview/lv_tileview.c ****         lv_coord_t top = scroll_end.y;
 181              		.loc 1 171 20 is_stmt 0 view .LVU38
 182 0044 BDF90480 		ldrsh	r8, [sp, #4]
 183              	.LVL22:
 172:lvgl/src/extra/widgets/tileview/lv_tileview.c **** 
 184              		.loc 1 172 9 is_stmt 1 view .LVU39
 172:lvgl/src/extra/widgets/tileview/lv_tileview.c **** 
 185              		.loc 1 172 20 is_stmt 0 view .LVU40
 186 0048 BDF90690 		ldrsh	r9, [sp, #6]
 187              	.LVL23:
 174:lvgl/src/extra/widgets/tileview/lv_tileview.c ****         lv_coord_t ty = ((top + (h / 2)) / h) * h;
 188              		.loc 1 174 9 is_stmt 1 view .LVU41
 174:lvgl/src/extra/widgets/tileview/lv_tileview.c ****         lv_coord_t ty = ((top + (h / 2)) / h) * h;
 189              		.loc 1 174 37 is_stmt 0 view .LVU42
 190 004c 05EBD573 		add	r3, r5, r5, lsr #31
ARM GAS  /var/folders/21/t9g5rlb91ys800n5npymflf80000gn/T//ccWhGGwq.s 			page 8


 191 0050 43F34F03 		sbfx	r3, r3, #1, #16
 174:lvgl/src/extra/widgets/tileview/lv_tileview.c ****         lv_coord_t ty = ((top + (h / 2)) / h) * h;
 192              		.loc 1 174 32 view .LVU43
 193 0054 9844     		add	r8, r8, r3
 174:lvgl/src/extra/widgets/tileview/lv_tileview.c ****         lv_coord_t ty = ((top + (h / 2)) / h) * h;
 194              		.loc 1 174 43 view .LVU44
 195 0056 98FBF5F8 		sdiv	r8, r8, r5
 174:lvgl/src/extra/widgets/tileview/lv_tileview.c ****         lv_coord_t ty = ((top + (h / 2)) / h) * h;
 196              		.loc 1 174 20 view .LVU45
 197 005a 18FB05F8 		smulbb	r8, r8, r5
 198 005e 0FFA88F8 		sxth	r8, r8
 199              	.LVL24:
 175:lvgl/src/extra/widgets/tileview/lv_tileview.c **** 
 200              		.loc 1 175 9 is_stmt 1 view .LVU46
 175:lvgl/src/extra/widgets/tileview/lv_tileview.c **** 
 201              		.loc 1 175 36 is_stmt 0 view .LVU47
 202 0062 04EBD473 		add	r3, r4, r4, lsr #31
 203 0066 43F34F03 		sbfx	r3, r3, #1, #16
 175:lvgl/src/extra/widgets/tileview/lv_tileview.c **** 
 204              		.loc 1 175 31 view .LVU48
 205 006a 9944     		add	r9, r9, r3
 175:lvgl/src/extra/widgets/tileview/lv_tileview.c **** 
 206              		.loc 1 175 42 view .LVU49
 207 006c 99FBF4F9 		sdiv	r9, r9, r4
 175:lvgl/src/extra/widgets/tileview/lv_tileview.c **** 
 208              		.loc 1 175 20 view .LVU50
 209 0070 19FB04F9 		smulbb	r9, r9, r4
 210 0074 0FFA89F9 		sxth	r9, r9
 211              	.LVL25:
 177:lvgl/src/extra/widgets/tileview/lv_tileview.c ****         uint32_t i;
 212              		.loc 1 177 9 is_stmt 1 view .LVU51
 178:lvgl/src/extra/widgets/tileview/lv_tileview.c ****         for(i = 0; i < lv_obj_get_child_cnt(obj); i++) {
 213              		.loc 1 178 9 view .LVU52
 179:lvgl/src/extra/widgets/tileview/lv_tileview.c ****             lv_obj_t * tile_obj = lv_obj_get_child(obj, i);
 214              		.loc 1 179 9 view .LVU53
 179:lvgl/src/extra/widgets/tileview/lv_tileview.c ****             lv_obj_t * tile_obj = lv_obj_get_child(obj, i);
 215              		.loc 1 179 15 is_stmt 0 view .LVU54
 216 0078 0024     		movs	r4, #0
 217              	.LVL26:
 179:lvgl/src/extra/widgets/tileview/lv_tileview.c ****             lv_obj_t * tile_obj = lv_obj_get_child(obj, i);
 218              		.loc 1 179 9 view .LVU55
 219 007a 00E0     		b	.L8
 220              	.LVL27:
 221              	.L9:
 179:lvgl/src/extra/widgets/tileview/lv_tileview.c ****             lv_obj_t * tile_obj = lv_obj_get_child(obj, i);
 222              		.loc 1 179 52 is_stmt 1 discriminator 2 view .LVU56
 223 007c 0134     		adds	r4, r4, #1
 224              	.LVL28:
 225              	.L8:
 179:lvgl/src/extra/widgets/tileview/lv_tileview.c ****             lv_obj_t * tile_obj = lv_obj_get_child(obj, i);
 226              		.loc 1 179 22 discriminator 1 view .LVU57
 179:lvgl/src/extra/widgets/tileview/lv_tileview.c ****             lv_obj_t * tile_obj = lv_obj_get_child(obj, i);
 227              		.loc 1 179 24 is_stmt 0 discriminator 1 view .LVU58
 228 007e 3846     		mov	r0, r7
 229 0080 FFF7FEFF 		bl	lv_obj_get_child_cnt
 230              	.LVL29:
 179:lvgl/src/extra/widgets/tileview/lv_tileview.c ****             lv_obj_t * tile_obj = lv_obj_get_child(obj, i);
ARM GAS  /var/folders/21/t9g5rlb91ys800n5npymflf80000gn/T//ccWhGGwq.s 			page 9


 231              		.loc 1 179 22 discriminator 1 view .LVU59
 232 0084 A042     		cmp	r0, r4
 233 0086 17D9     		bls	.L14
 234              	.LBB3:
 180:lvgl/src/extra/widgets/tileview/lv_tileview.c ****             lv_coord_t x = lv_obj_get_x(tile_obj);
 235              		.loc 1 180 13 is_stmt 1 view .LVU60
 180:lvgl/src/extra/widgets/tileview/lv_tileview.c ****             lv_coord_t x = lv_obj_get_x(tile_obj);
 236              		.loc 1 180 35 is_stmt 0 view .LVU61
 237 0088 2146     		mov	r1, r4
 238 008a 3846     		mov	r0, r7
 239 008c FFF7FEFF 		bl	lv_obj_get_child
 240              	.LVL30:
 241 0090 0546     		mov	r5, r0
 242              	.LVL31:
 181:lvgl/src/extra/widgets/tileview/lv_tileview.c ****             lv_coord_t y = lv_obj_get_y(tile_obj);
 243              		.loc 1 181 13 is_stmt 1 view .LVU62
 181:lvgl/src/extra/widgets/tileview/lv_tileview.c ****             lv_coord_t y = lv_obj_get_y(tile_obj);
 244              		.loc 1 181 28 is_stmt 0 view .LVU63
 245 0092 FFF7FEFF 		bl	lv_obj_get_x
 246              	.LVL32:
 181:lvgl/src/extra/widgets/tileview/lv_tileview.c ****             lv_coord_t y = lv_obj_get_y(tile_obj);
 247              		.loc 1 181 28 view .LVU64
 248 0096 0646     		mov	r6, r0
 249              	.LVL33:
 182:lvgl/src/extra/widgets/tileview/lv_tileview.c ****             if(x == tx && y == ty) {
 250              		.loc 1 182 13 is_stmt 1 view .LVU65
 182:lvgl/src/extra/widgets/tileview/lv_tileview.c ****             if(x == tx && y == ty) {
 251              		.loc 1 182 28 is_stmt 0 view .LVU66
 252 0098 2846     		mov	r0, r5
 253 009a FFF7FEFF 		bl	lv_obj_get_y
 254              	.LVL34:
 183:lvgl/src/extra/widgets/tileview/lv_tileview.c ****                 lv_tileview_tile_t * tile = (lv_tileview_tile_t *)tile_obj;
 255              		.loc 1 183 13 is_stmt 1 view .LVU67
 183:lvgl/src/extra/widgets/tileview/lv_tileview.c ****                 lv_tileview_tile_t * tile = (lv_tileview_tile_t *)tile_obj;
 256              		.loc 1 183 15 is_stmt 0 view .LVU68
 257 009e B045     		cmp	r8, r6
 258 00a0 ECD1     		bne	.L9
 183:lvgl/src/extra/widgets/tileview/lv_tileview.c ****                 lv_tileview_tile_t * tile = (lv_tileview_tile_t *)tile_obj;
 259              		.loc 1 183 24 discriminator 1 view .LVU69
 260 00a2 8145     		cmp	r9, r0
 261 00a4 EAD1     		bne	.L9
 262              	.LBB4:
 184:lvgl/src/extra/widgets/tileview/lv_tileview.c ****                 tv->tile_act = (lv_obj_t *)tile;
 263              		.loc 1 184 17 is_stmt 1 view .LVU70
 264              	.LVL35:
 185:lvgl/src/extra/widgets/tileview/lv_tileview.c ****                 dir = tile->dir;
 265              		.loc 1 185 17 view .LVU71
 185:lvgl/src/extra/widgets/tileview/lv_tileview.c ****                 dir = tile->dir;
 266              		.loc 1 185 30 is_stmt 0 view .LVU72
 267 00a6 7D62     		str	r5, [r7, #36]
 186:lvgl/src/extra/widgets/tileview/lv_tileview.c ****                 lv_event_send(obj, LV_EVENT_VALUE_CHANGED, NULL);
 268              		.loc 1 186 17 is_stmt 1 view .LVU73
 186:lvgl/src/extra/widgets/tileview/lv_tileview.c ****                 lv_event_send(obj, LV_EVENT_VALUE_CHANGED, NULL);
 269              		.loc 1 186 21 is_stmt 0 view .LVU74
 270 00a8 95F82440 		ldrb	r4, [r5, #36]	@ zero_extendqisi2
 271              	.LVL36:
 187:lvgl/src/extra/widgets/tileview/lv_tileview.c ****                 break;
ARM GAS  /var/folders/21/t9g5rlb91ys800n5npymflf80000gn/T//ccWhGGwq.s 			page 10


 272              		.loc 1 187 17 is_stmt 1 view .LVU75
 273 00ac 0022     		movs	r2, #0
 274 00ae 1C21     		movs	r1, #28
 275 00b0 3846     		mov	r0, r7
 276              	.LVL37:
 187:lvgl/src/extra/widgets/tileview/lv_tileview.c ****                 break;
 277              		.loc 1 187 17 is_stmt 0 view .LVU76
 278 00b2 FFF7FEFF 		bl	lv_event_send
 279              	.LVL38:
 188:lvgl/src/extra/widgets/tileview/lv_tileview.c ****             }
 280              		.loc 1 188 17 is_stmt 1 view .LVU77
 281 00b6 00E0     		b	.L10
 282              	.LVL39:
 283              	.L14:
 188:lvgl/src/extra/widgets/tileview/lv_tileview.c ****             }
 284              		.loc 1 188 17 is_stmt 0 view .LVU78
 285              	.LBE4:
 286              	.LBE3:
 177:lvgl/src/extra/widgets/tileview/lv_tileview.c ****         uint32_t i;
 287              		.loc 1 177 18 view .LVU79
 288 00b8 0F24     		movs	r4, #15
 289              	.LVL40:
 290              	.L10:
 191:lvgl/src/extra/widgets/tileview/lv_tileview.c ****     }
 291              		.loc 1 191 9 is_stmt 1 view .LVU80
 292 00ba 2146     		mov	r1, r4
 293 00bc 3846     		mov	r0, r7
 294 00be FFF7FEFF 		bl	lv_obj_set_scroll_dir
 295              	.LVL41:
 296 00c2 A9E7     		b	.L5
 297              	.LBE2:
 298              		.cfi_endproc
 299              	.LFE168:
 301              		.section	.text.lv_tileview_tile_constructor,"ax",%progbits
 302              		.align	1
 303              		.syntax unified
 304              		.thumb
 305              		.thumb_func
 307              	lv_tileview_tile_constructor:
 308              	.LVL42:
 309              	.LFB167:
 137:lvgl/src/extra/widgets/tileview/lv_tileview.c **** 
 310              		.loc 1 137 1 view -0
 311              		.cfi_startproc
 312              		@ args = 0, pretend = 0, frame = 0
 313              		@ frame_needed = 0, uses_anonymous_args = 0
 137:lvgl/src/extra/widgets/tileview/lv_tileview.c **** 
 314              		.loc 1 137 1 is_stmt 0 view .LVU82
 315 0000 F8B5     		push	{r3, r4, r5, r6, r7, lr}
 316              	.LCFI5:
 317              		.cfi_def_cfa_offset 24
 318              		.cfi_offset 3, -24
 319              		.cfi_offset 4, -20
 320              		.cfi_offset 5, -16
 321              		.cfi_offset 6, -12
 322              		.cfi_offset 7, -8
 323              		.cfi_offset 14, -4
ARM GAS  /var/folders/21/t9g5rlb91ys800n5npymflf80000gn/T//ccWhGGwq.s 			page 11


 324 0002 0C46     		mov	r4, r1
 139:lvgl/src/extra/widgets/tileview/lv_tileview.c ****     lv_obj_t * parent = lv_obj_get_parent(obj);
 325              		.loc 1 139 5 is_stmt 1 view .LVU83
 140:lvgl/src/extra/widgets/tileview/lv_tileview.c ****     lv_obj_set_size(obj, LV_PCT(100), LV_PCT(100));
 326              		.loc 1 140 5 view .LVU84
 140:lvgl/src/extra/widgets/tileview/lv_tileview.c ****     lv_obj_set_size(obj, LV_PCT(100), LV_PCT(100));
 327              		.loc 1 140 25 is_stmt 0 view .LVU85
 328 0004 0846     		mov	r0, r1
 329              	.LVL43:
 140:lvgl/src/extra/widgets/tileview/lv_tileview.c ****     lv_obj_set_size(obj, LV_PCT(100), LV_PCT(100));
 330              		.loc 1 140 25 view .LVU86
 331 0006 FFF7FEFF 		bl	lv_obj_get_parent
 332              	.LVL44:
 140:lvgl/src/extra/widgets/tileview/lv_tileview.c ****     lv_obj_set_size(obj, LV_PCT(100), LV_PCT(100));
 333              		.loc 1 140 25 view .LVU87
 334 000a 0646     		mov	r6, r0
 335              	.LVL45:
 141:lvgl/src/extra/widgets/tileview/lv_tileview.c ****     lv_obj_update_layout(obj);  /*Be sure the size is correct*/
 336              		.loc 1 141 5 is_stmt 1 view .LVU88
 337 000c 42F26402 		movw	r2, #8292
 338 0010 1146     		mov	r1, r2
 339 0012 2046     		mov	r0, r4
 340              	.LVL46:
 141:lvgl/src/extra/widgets/tileview/lv_tileview.c ****     lv_obj_update_layout(obj);  /*Be sure the size is correct*/
 341              		.loc 1 141 5 is_stmt 0 view .LVU89
 342 0014 FFF7FEFF 		bl	lv_obj_set_size
 343              	.LVL47:
 142:lvgl/src/extra/widgets/tileview/lv_tileview.c ****     lv_obj_set_pos(obj, create_col_id * lv_obj_get_content_width(parent),
 344              		.loc 1 142 5 is_stmt 1 view .LVU90
 345 0018 2046     		mov	r0, r4
 346 001a FFF7FEFF 		bl	lv_obj_update_layout
 347              	.LVL48:
 143:lvgl/src/extra/widgets/tileview/lv_tileview.c ****                    create_row_id * lv_obj_get_content_height(parent));
 348              		.loc 1 143 5 view .LVU91
 143:lvgl/src/extra/widgets/tileview/lv_tileview.c ****                    create_row_id * lv_obj_get_content_height(parent));
 349              		.loc 1 143 41 is_stmt 0 view .LVU92
 350 001e 3046     		mov	r0, r6
 351 0020 FFF7FEFF 		bl	lv_obj_get_content_width
 352              	.LVL49:
 143:lvgl/src/extra/widgets/tileview/lv_tileview.c ****                    create_row_id * lv_obj_get_content_height(parent));
 353              		.loc 1 143 5 view .LVU93
 354 0024 0F4F     		ldr	r7, .L19
 355 0026 3D68     		ldr	r5, [r7]
 356 0028 15FB00F5 		smulbb	r5, r5, r0
 357 002c 2DB2     		sxth	r5, r5
 144:lvgl/src/extra/widgets/tileview/lv_tileview.c **** 
 358              		.loc 1 144 36 view .LVU94
 359 002e 3046     		mov	r0, r6
 360 0030 FFF7FEFF 		bl	lv_obj_get_content_height
 361              	.LVL50:
 143:lvgl/src/extra/widgets/tileview/lv_tileview.c ****                    create_row_id * lv_obj_get_content_height(parent));
 362              		.loc 1 143 5 view .LVU95
 363 0034 0C4B     		ldr	r3, .L19+4
 364 0036 1A68     		ldr	r2, [r3]
 365 0038 12FB00F2 		smulbb	r2, r2, r0
 366 003c 12B2     		sxth	r2, r2
 367 003e 2946     		mov	r1, r5
ARM GAS  /var/folders/21/t9g5rlb91ys800n5npymflf80000gn/T//ccWhGGwq.s 			page 12


 368 0040 2046     		mov	r0, r4
 369 0042 FFF7FEFF 		bl	lv_obj_set_pos
 370              	.LVL51:
 146:lvgl/src/extra/widgets/tileview/lv_tileview.c ****     tile->dir = create_dir;
 371              		.loc 1 146 5 is_stmt 1 view .LVU96
 147:lvgl/src/extra/widgets/tileview/lv_tileview.c **** 
 372              		.loc 1 147 5 view .LVU97
 147:lvgl/src/extra/widgets/tileview/lv_tileview.c **** 
 373              		.loc 1 147 15 is_stmt 0 view .LVU98
 374 0046 094B     		ldr	r3, .L19+8
 375 0048 1978     		ldrb	r1, [r3]	@ zero_extendqisi2
 376 004a 84F82410 		strb	r1, [r4, #36]
 149:lvgl/src/extra/widgets/tileview/lv_tileview.c ****         lv_obj_set_scroll_dir(parent, create_dir);
 377              		.loc 1 149 5 is_stmt 1 view .LVU99
 149:lvgl/src/extra/widgets/tileview/lv_tileview.c ****         lv_obj_set_scroll_dir(parent, create_dir);
 378              		.loc 1 149 22 is_stmt 0 view .LVU100
 379 004e 3B68     		ldr	r3, [r7]
 149:lvgl/src/extra/widgets/tileview/lv_tileview.c ****         lv_obj_set_scroll_dir(parent, create_dir);
 380              		.loc 1 149 7 view .LVU101
 381 0050 13B9     		cbnz	r3, .L15
 149:lvgl/src/extra/widgets/tileview/lv_tileview.c ****         lv_obj_set_scroll_dir(parent, create_dir);
 382              		.loc 1 149 44 discriminator 1 view .LVU102
 383 0052 054B     		ldr	r3, .L19+4
 384 0054 1B68     		ldr	r3, [r3]
 149:lvgl/src/extra/widgets/tileview/lv_tileview.c ****         lv_obj_set_scroll_dir(parent, create_dir);
 385              		.loc 1 149 27 discriminator 1 view .LVU103
 386 0056 03B1     		cbz	r3, .L18
 387              	.L15:
 152:lvgl/src/extra/widgets/tileview/lv_tileview.c **** 
 388              		.loc 1 152 1 view .LVU104
 389 0058 F8BD     		pop	{r3, r4, r5, r6, r7, pc}
 390              	.LVL52:
 391              	.L18:
 150:lvgl/src/extra/widgets/tileview/lv_tileview.c ****     }
 392              		.loc 1 150 9 is_stmt 1 view .LVU105
 393 005a 3046     		mov	r0, r6
 394 005c FFF7FEFF 		bl	lv_obj_set_scroll_dir
 395              	.LVL53:
 152:lvgl/src/extra/widgets/tileview/lv_tileview.c **** 
 396              		.loc 1 152 1 is_stmt 0 view .LVU106
 397 0060 FAE7     		b	.L15
 398              	.L20:
 399 0062 00BF     		.align	2
 400              	.L19:
 401 0064 00000000 		.word	create_col_id
 402 0068 00000000 		.word	create_row_id
 403 006c 00000000 		.word	create_dir
 404              		.cfi_endproc
 405              	.LFE167:
 407              		.section	.text.lv_tileview_create,"ax",%progbits
 408              		.align	1
 409              		.global	lv_tileview_create
 410              		.syntax unified
 411              		.thumb
 412              		.thumb_func
 414              	lv_tileview_create:
 415              	.LVL54:
ARM GAS  /var/folders/21/t9g5rlb91ys800n5npymflf80000gn/T//ccWhGGwq.s 			page 13


 416              	.LFB161:
  55:lvgl/src/extra/widgets/tileview/lv_tileview.c ****     LV_LOG_INFO("begin");
 417              		.loc 1 55 1 is_stmt 1 view -0
 418              		.cfi_startproc
 419              		@ args = 0, pretend = 0, frame = 0
 420              		@ frame_needed = 0, uses_anonymous_args = 0
  55:lvgl/src/extra/widgets/tileview/lv_tileview.c ****     LV_LOG_INFO("begin");
 421              		.loc 1 55 1 is_stmt 0 view .LVU108
 422 0000 10B5     		push	{r4, lr}
 423              	.LCFI6:
 424              		.cfi_def_cfa_offset 8
 425              		.cfi_offset 4, -8
 426              		.cfi_offset 14, -4
 427 0002 0146     		mov	r1, r0
  56:lvgl/src/extra/widgets/tileview/lv_tileview.c ****     lv_obj_t * obj = lv_obj_class_create_obj(&lv_tileview_class, parent);
 428              		.loc 1 56 5 is_stmt 1 view .LVU109
  56:lvgl/src/extra/widgets/tileview/lv_tileview.c ****     lv_obj_t * obj = lv_obj_class_create_obj(&lv_tileview_class, parent);
 429              		.loc 1 56 5 view .LVU110
  56:lvgl/src/extra/widgets/tileview/lv_tileview.c ****     lv_obj_t * obj = lv_obj_class_create_obj(&lv_tileview_class, parent);
 430              		.loc 1 56 5 view .LVU111
  57:lvgl/src/extra/widgets/tileview/lv_tileview.c ****     lv_obj_class_init_obj(obj);
 431              		.loc 1 57 5 view .LVU112
  57:lvgl/src/extra/widgets/tileview/lv_tileview.c ****     lv_obj_class_init_obj(obj);
 432              		.loc 1 57 22 is_stmt 0 view .LVU113
 433 0004 0348     		ldr	r0, .L23
 434              	.LVL55:
  57:lvgl/src/extra/widgets/tileview/lv_tileview.c ****     lv_obj_class_init_obj(obj);
 435              		.loc 1 57 22 view .LVU114
 436 0006 FFF7FEFF 		bl	lv_obj_class_create_obj
 437              	.LVL56:
  57:lvgl/src/extra/widgets/tileview/lv_tileview.c ****     lv_obj_class_init_obj(obj);
 438              		.loc 1 57 22 view .LVU115
 439 000a 0446     		mov	r4, r0
 440              	.LVL57:
  58:lvgl/src/extra/widgets/tileview/lv_tileview.c ****     return obj;
 441              		.loc 1 58 5 is_stmt 1 view .LVU116
 442 000c FFF7FEFF 		bl	lv_obj_class_init_obj
 443              	.LVL58:
  59:lvgl/src/extra/widgets/tileview/lv_tileview.c **** }
 444              		.loc 1 59 5 view .LVU117
  60:lvgl/src/extra/widgets/tileview/lv_tileview.c **** 
 445              		.loc 1 60 1 is_stmt 0 view .LVU118
 446 0010 2046     		mov	r0, r4
 447 0012 10BD     		pop	{r4, pc}
 448              	.LVL59:
 449              	.L24:
  60:lvgl/src/extra/widgets/tileview/lv_tileview.c **** 
 450              		.loc 1 60 1 view .LVU119
 451              		.align	2
 452              	.L23:
 453 0014 00000000 		.word	lv_tileview_class
 454              		.cfi_endproc
 455              	.LFE161:
 457              		.section	.text.lv_tileview_add_tile,"ax",%progbits
 458              		.align	1
 459              		.global	lv_tileview_add_tile
 460              		.syntax unified
ARM GAS  /var/folders/21/t9g5rlb91ys800n5npymflf80000gn/T//ccWhGGwq.s 			page 14


 461              		.thumb
 462              		.thumb_func
 464              	lv_tileview_add_tile:
 465              	.LVL60:
 466              	.LFB162:
  67:lvgl/src/extra/widgets/tileview/lv_tileview.c ****     LV_LOG_INFO("begin");
 467              		.loc 1 67 1 is_stmt 1 view -0
 468              		.cfi_startproc
 469              		@ args = 0, pretend = 0, frame = 0
 470              		@ frame_needed = 0, uses_anonymous_args = 0
  67:lvgl/src/extra/widgets/tileview/lv_tileview.c ****     LV_LOG_INFO("begin");
 471              		.loc 1 67 1 is_stmt 0 view .LVU121
 472 0000 10B5     		push	{r4, lr}
 473              	.LCFI7:
 474              		.cfi_def_cfa_offset 8
 475              		.cfi_offset 4, -8
 476              		.cfi_offset 14, -4
  68:lvgl/src/extra/widgets/tileview/lv_tileview.c ****     create_dir = dir;
 477              		.loc 1 68 5 is_stmt 1 view .LVU122
  68:lvgl/src/extra/widgets/tileview/lv_tileview.c ****     create_dir = dir;
 478              		.loc 1 68 5 view .LVU123
  68:lvgl/src/extra/widgets/tileview/lv_tileview.c ****     create_dir = dir;
 479              		.loc 1 68 5 view .LVU124
  69:lvgl/src/extra/widgets/tileview/lv_tileview.c ****     create_col_id = col_id;
 480              		.loc 1 69 5 view .LVU125
  69:lvgl/src/extra/widgets/tileview/lv_tileview.c ****     create_col_id = col_id;
 481              		.loc 1 69 16 is_stmt 0 view .LVU126
 482 0002 074C     		ldr	r4, .L27
 483 0004 2370     		strb	r3, [r4]
  70:lvgl/src/extra/widgets/tileview/lv_tileview.c ****     create_row_id = row_id;
 484              		.loc 1 70 5 is_stmt 1 view .LVU127
  70:lvgl/src/extra/widgets/tileview/lv_tileview.c ****     create_row_id = row_id;
 485              		.loc 1 70 19 is_stmt 0 view .LVU128
 486 0006 074B     		ldr	r3, .L27+4
 487              	.LVL61:
  70:lvgl/src/extra/widgets/tileview/lv_tileview.c ****     create_row_id = row_id;
 488              		.loc 1 70 19 view .LVU129
 489 0008 1960     		str	r1, [r3]
  71:lvgl/src/extra/widgets/tileview/lv_tileview.c **** 
 490              		.loc 1 71 5 is_stmt 1 view .LVU130
  71:lvgl/src/extra/widgets/tileview/lv_tileview.c **** 
 491              		.loc 1 71 19 is_stmt 0 view .LVU131
 492 000a 074B     		ldr	r3, .L27+8
 493 000c 1A60     		str	r2, [r3]
  73:lvgl/src/extra/widgets/tileview/lv_tileview.c ****     lv_obj_class_init_obj(obj);
 494              		.loc 1 73 5 is_stmt 1 view .LVU132
  73:lvgl/src/extra/widgets/tileview/lv_tileview.c ****     lv_obj_class_init_obj(obj);
 495              		.loc 1 73 22 is_stmt 0 view .LVU133
 496 000e 0146     		mov	r1, r0
 497              	.LVL62:
  73:lvgl/src/extra/widgets/tileview/lv_tileview.c ****     lv_obj_class_init_obj(obj);
 498              		.loc 1 73 22 view .LVU134
 499 0010 0648     		ldr	r0, .L27+12
 500              	.LVL63:
  73:lvgl/src/extra/widgets/tileview/lv_tileview.c ****     lv_obj_class_init_obj(obj);
 501              		.loc 1 73 22 view .LVU135
 502 0012 FFF7FEFF 		bl	lv_obj_class_create_obj
ARM GAS  /var/folders/21/t9g5rlb91ys800n5npymflf80000gn/T//ccWhGGwq.s 			page 15


 503              	.LVL64:
  73:lvgl/src/extra/widgets/tileview/lv_tileview.c ****     lv_obj_class_init_obj(obj);
 504              		.loc 1 73 22 view .LVU136
 505 0016 0446     		mov	r4, r0
 506              	.LVL65:
  74:lvgl/src/extra/widgets/tileview/lv_tileview.c ****     return obj;
 507              		.loc 1 74 5 is_stmt 1 view .LVU137
 508 0018 FFF7FEFF 		bl	lv_obj_class_init_obj
 509              	.LVL66:
  75:lvgl/src/extra/widgets/tileview/lv_tileview.c **** }
 510              		.loc 1 75 5 view .LVU138
  76:lvgl/src/extra/widgets/tileview/lv_tileview.c **** 
 511              		.loc 1 76 1 is_stmt 0 view .LVU139
 512 001c 2046     		mov	r0, r4
 513 001e 10BD     		pop	{r4, pc}
 514              	.LVL67:
 515              	.L28:
  76:lvgl/src/extra/widgets/tileview/lv_tileview.c **** 
 516              		.loc 1 76 1 view .LVU140
 517              		.align	2
 518              	.L27:
 519 0020 00000000 		.word	create_dir
 520 0024 00000000 		.word	create_col_id
 521 0028 00000000 		.word	create_row_id
 522 002c 00000000 		.word	lv_tileview_tile_class
 523              		.cfi_endproc
 524              	.LFE162:
 526              		.section	.text.lv_obj_set_tile,"ax",%progbits
 527              		.align	1
 528              		.global	lv_obj_set_tile
 529              		.syntax unified
 530              		.thumb
 531              		.thumb_func
 533              	lv_obj_set_tile:
 534              	.LVL68:
 535              	.LFB163:
  79:lvgl/src/extra/widgets/tileview/lv_tileview.c ****     lv_coord_t tx = lv_obj_get_x(tile_obj);
 536              		.loc 1 79 1 is_stmt 1 view -0
 537              		.cfi_startproc
 538              		@ args = 0, pretend = 0, frame = 0
 539              		@ frame_needed = 0, uses_anonymous_args = 0
  79:lvgl/src/extra/widgets/tileview/lv_tileview.c ****     lv_coord_t tx = lv_obj_get_x(tile_obj);
 540              		.loc 1 79 1 is_stmt 0 view .LVU142
 541 0000 2DE9F041 		push	{r4, r5, r6, r7, r8, lr}
 542              	.LCFI8:
 543              		.cfi_def_cfa_offset 24
 544              		.cfi_offset 4, -24
 545              		.cfi_offset 5, -20
 546              		.cfi_offset 6, -16
 547              		.cfi_offset 7, -12
 548              		.cfi_offset 8, -8
 549              		.cfi_offset 14, -4
 550 0004 0546     		mov	r5, r0
 551 0006 0C46     		mov	r4, r1
 552 0008 9046     		mov	r8, r2
  80:lvgl/src/extra/widgets/tileview/lv_tileview.c ****     lv_coord_t ty = lv_obj_get_y(tile_obj);
 553              		.loc 1 80 5 is_stmt 1 view .LVU143
ARM GAS  /var/folders/21/t9g5rlb91ys800n5npymflf80000gn/T//ccWhGGwq.s 			page 16


  80:lvgl/src/extra/widgets/tileview/lv_tileview.c ****     lv_coord_t ty = lv_obj_get_y(tile_obj);
 554              		.loc 1 80 21 is_stmt 0 view .LVU144
 555 000a 0846     		mov	r0, r1
 556              	.LVL69:
  80:lvgl/src/extra/widgets/tileview/lv_tileview.c ****     lv_coord_t ty = lv_obj_get_y(tile_obj);
 557              		.loc 1 80 21 view .LVU145
 558 000c FFF7FEFF 		bl	lv_obj_get_x
 559              	.LVL70:
  80:lvgl/src/extra/widgets/tileview/lv_tileview.c ****     lv_coord_t ty = lv_obj_get_y(tile_obj);
 560              		.loc 1 80 21 view .LVU146
 561 0010 0646     		mov	r6, r0
 562              	.LVL71:
  81:lvgl/src/extra/widgets/tileview/lv_tileview.c **** 
 563              		.loc 1 81 5 is_stmt 1 view .LVU147
  81:lvgl/src/extra/widgets/tileview/lv_tileview.c **** 
 564              		.loc 1 81 21 is_stmt 0 view .LVU148
 565 0012 2046     		mov	r0, r4
 566 0014 FFF7FEFF 		bl	lv_obj_get_y
 567              	.LVL72:
 568 0018 0746     		mov	r7, r0
 569              	.LVL73:
  83:lvgl/src/extra/widgets/tileview/lv_tileview.c ****     lv_tileview_t * tv = (lv_tileview_t *) obj;
 570              		.loc 1 83 5 is_stmt 1 view .LVU149
  84:lvgl/src/extra/widgets/tileview/lv_tileview.c ****     tv->tile_act = (lv_obj_t *)tile;
 571              		.loc 1 84 5 view .LVU150
  85:lvgl/src/extra/widgets/tileview/lv_tileview.c **** 
 572              		.loc 1 85 5 view .LVU151
  85:lvgl/src/extra/widgets/tileview/lv_tileview.c **** 
 573              		.loc 1 85 18 is_stmt 0 view .LVU152
 574 001a 6C62     		str	r4, [r5, #36]
  87:lvgl/src/extra/widgets/tileview/lv_tileview.c ****     lv_obj_scroll_to(obj, tx, ty, anim_en);
 575              		.loc 1 87 5 is_stmt 1 view .LVU153
 576 001c 94F82410 		ldrb	r1, [r4, #36]	@ zero_extendqisi2
 577 0020 2846     		mov	r0, r5
 578 0022 FFF7FEFF 		bl	lv_obj_set_scroll_dir
 579              	.LVL74:
  88:lvgl/src/extra/widgets/tileview/lv_tileview.c **** }
 580              		.loc 1 88 5 view .LVU154
 581 0026 4346     		mov	r3, r8
 582 0028 3A46     		mov	r2, r7
 583 002a 3146     		mov	r1, r6
 584 002c 2846     		mov	r0, r5
 585 002e FFF7FEFF 		bl	lv_obj_scroll_to
 586              	.LVL75:
  89:lvgl/src/extra/widgets/tileview/lv_tileview.c **** 
 587              		.loc 1 89 1 is_stmt 0 view .LVU155
 588 0032 BDE8F081 		pop	{r4, r5, r6, r7, r8, pc}
  89:lvgl/src/extra/widgets/tileview/lv_tileview.c **** 
 589              		.loc 1 89 1 view .LVU156
 590              		.cfi_endproc
 591              	.LFE163:
 593              		.section	.text.lv_obj_set_tile_id,"ax",%progbits
 594              		.align	1
 595              		.global	lv_obj_set_tile_id
 596              		.syntax unified
 597              		.thumb
 598              		.thumb_func
ARM GAS  /var/folders/21/t9g5rlb91ys800n5npymflf80000gn/T//ccWhGGwq.s 			page 17


 600              	lv_obj_set_tile_id:
 601              	.LVL76:
 602              	.LFB164:
  92:lvgl/src/extra/widgets/tileview/lv_tileview.c ****     lv_obj_update_layout(tv);
 603              		.loc 1 92 1 is_stmt 1 view -0
 604              		.cfi_startproc
 605              		@ args = 0, pretend = 0, frame = 0
 606              		@ frame_needed = 0, uses_anonymous_args = 0
  92:lvgl/src/extra/widgets/tileview/lv_tileview.c ****     lv_obj_update_layout(tv);
 607              		.loc 1 92 1 is_stmt 0 view .LVU158
 608 0000 2DE9F047 		push	{r4, r5, r6, r7, r8, r9, r10, lr}
 609              	.LCFI9:
 610              		.cfi_def_cfa_offset 32
 611              		.cfi_offset 4, -32
 612              		.cfi_offset 5, -28
 613              		.cfi_offset 6, -24
 614              		.cfi_offset 7, -20
 615              		.cfi_offset 8, -16
 616              		.cfi_offset 9, -12
 617              		.cfi_offset 10, -8
 618              		.cfi_offset 14, -4
 619 0004 0746     		mov	r7, r0
 620 0006 0D46     		mov	r5, r1
 621 0008 9146     		mov	r9, r2
 622 000a 9A46     		mov	r10, r3
  93:lvgl/src/extra/widgets/tileview/lv_tileview.c **** 
 623              		.loc 1 93 5 is_stmt 1 view .LVU159
 624 000c FFF7FEFF 		bl	lv_obj_update_layout
 625              	.LVL77:
  95:lvgl/src/extra/widgets/tileview/lv_tileview.c ****     lv_coord_t h = lv_obj_get_content_height(tv);
 626              		.loc 1 95 5 view .LVU160
  95:lvgl/src/extra/widgets/tileview/lv_tileview.c ****     lv_coord_t h = lv_obj_get_content_height(tv);
 627              		.loc 1 95 20 is_stmt 0 view .LVU161
 628 0010 3846     		mov	r0, r7
 629 0012 FFF7FEFF 		bl	lv_obj_get_content_width
 630              	.LVL78:
 631 0016 8046     		mov	r8, r0
 632              	.LVL79:
  96:lvgl/src/extra/widgets/tileview/lv_tileview.c **** 
 633              		.loc 1 96 5 is_stmt 1 view .LVU162
  96:lvgl/src/extra/widgets/tileview/lv_tileview.c **** 
 634              		.loc 1 96 20 is_stmt 0 view .LVU163
 635 0018 3846     		mov	r0, r7
 636 001a FFF7FEFF 		bl	lv_obj_get_content_height
 637              	.LVL80:
  98:lvgl/src/extra/widgets/tileview/lv_tileview.c ****     lv_coord_t ty = row_id * h;
 638              		.loc 1 98 5 is_stmt 1 view .LVU164
  98:lvgl/src/extra/widgets/tileview/lv_tileview.c ****     lv_coord_t ty = row_id * h;
 639              		.loc 1 98 16 is_stmt 0 view .LVU165
 640 001e 18FB05F8 		smulbb	r8, r8, r5
 641              	.LVL81:
  98:lvgl/src/extra/widgets/tileview/lv_tileview.c ****     lv_coord_t ty = row_id * h;
 642              		.loc 1 98 16 view .LVU166
 643 0022 0FFA88F8 		sxth	r8, r8
 644              	.LVL82:
  99:lvgl/src/extra/widgets/tileview/lv_tileview.c **** 
 645              		.loc 1 99 5 is_stmt 1 view .LVU167
ARM GAS  /var/folders/21/t9g5rlb91ys800n5npymflf80000gn/T//ccWhGGwq.s 			page 18


  99:lvgl/src/extra/widgets/tileview/lv_tileview.c **** 
 646              		.loc 1 99 16 is_stmt 0 view .LVU168
 647 0026 10FB09F9 		smulbb	r9, r0, r9
 648              	.LVL83:
  99:lvgl/src/extra/widgets/tileview/lv_tileview.c **** 
 649              		.loc 1 99 16 view .LVU169
 650 002a 0FFA89F9 		sxth	r9, r9
 651              	.LVL84:
 101:lvgl/src/extra/widgets/tileview/lv_tileview.c ****     for(i = 0; i < lv_obj_get_child_cnt(tv); i++) {
 652              		.loc 1 101 5 is_stmt 1 view .LVU170
 102:lvgl/src/extra/widgets/tileview/lv_tileview.c ****         lv_obj_t * tile_obj = lv_obj_get_child(tv, i);
 653              		.loc 1 102 5 view .LVU171
 102:lvgl/src/extra/widgets/tileview/lv_tileview.c ****         lv_obj_t * tile_obj = lv_obj_get_child(tv, i);
 654              		.loc 1 102 11 is_stmt 0 view .LVU172
 655 002e 0024     		movs	r4, #0
 102:lvgl/src/extra/widgets/tileview/lv_tileview.c ****         lv_obj_t * tile_obj = lv_obj_get_child(tv, i);
 656              		.loc 1 102 5 view .LVU173
 657 0030 00E0     		b	.L32
 658              	.LVL85:
 659              	.L33:
 102:lvgl/src/extra/widgets/tileview/lv_tileview.c ****         lv_obj_t * tile_obj = lv_obj_get_child(tv, i);
 660              		.loc 1 102 47 is_stmt 1 discriminator 2 view .LVU174
 661 0032 0134     		adds	r4, r4, #1
 662              	.LVL86:
 663              	.L32:
 102:lvgl/src/extra/widgets/tileview/lv_tileview.c ****         lv_obj_t * tile_obj = lv_obj_get_child(tv, i);
 664              		.loc 1 102 18 discriminator 1 view .LVU175
 102:lvgl/src/extra/widgets/tileview/lv_tileview.c ****         lv_obj_t * tile_obj = lv_obj_get_child(tv, i);
 665              		.loc 1 102 20 is_stmt 0 discriminator 1 view .LVU176
 666 0034 3846     		mov	r0, r7
 667 0036 FFF7FEFF 		bl	lv_obj_get_child_cnt
 668              	.LVL87:
 102:lvgl/src/extra/widgets/tileview/lv_tileview.c ****         lv_obj_t * tile_obj = lv_obj_get_child(tv, i);
 669              		.loc 1 102 18 discriminator 1 view .LVU177
 670 003a A042     		cmp	r0, r4
 671 003c 13D9     		bls	.L31
 672              	.LBB5:
 103:lvgl/src/extra/widgets/tileview/lv_tileview.c ****         lv_coord_t x = lv_obj_get_x(tile_obj);
 673              		.loc 1 103 9 is_stmt 1 view .LVU178
 103:lvgl/src/extra/widgets/tileview/lv_tileview.c ****         lv_coord_t x = lv_obj_get_x(tile_obj);
 674              		.loc 1 103 31 is_stmt 0 view .LVU179
 675 003e 2146     		mov	r1, r4
 676 0040 3846     		mov	r0, r7
 677 0042 FFF7FEFF 		bl	lv_obj_get_child
 678              	.LVL88:
 679 0046 0546     		mov	r5, r0
 680              	.LVL89:
 104:lvgl/src/extra/widgets/tileview/lv_tileview.c ****         lv_coord_t y = lv_obj_get_y(tile_obj);
 681              		.loc 1 104 9 is_stmt 1 view .LVU180
 104:lvgl/src/extra/widgets/tileview/lv_tileview.c ****         lv_coord_t y = lv_obj_get_y(tile_obj);
 682              		.loc 1 104 24 is_stmt 0 view .LVU181
 683 0048 FFF7FEFF 		bl	lv_obj_get_x
 684              	.LVL90:
 104:lvgl/src/extra/widgets/tileview/lv_tileview.c ****         lv_coord_t y = lv_obj_get_y(tile_obj);
 685              		.loc 1 104 24 view .LVU182
 686 004c 0646     		mov	r6, r0
 687              	.LVL91:
ARM GAS  /var/folders/21/t9g5rlb91ys800n5npymflf80000gn/T//ccWhGGwq.s 			page 19


 105:lvgl/src/extra/widgets/tileview/lv_tileview.c ****         if(x == tx && y == ty) {
 688              		.loc 1 105 9 is_stmt 1 view .LVU183
 105:lvgl/src/extra/widgets/tileview/lv_tileview.c ****         if(x == tx && y == ty) {
 689              		.loc 1 105 24 is_stmt 0 view .LVU184
 690 004e 2846     		mov	r0, r5
 691 0050 FFF7FEFF 		bl	lv_obj_get_y
 692              	.LVL92:
 106:lvgl/src/extra/widgets/tileview/lv_tileview.c ****             lv_obj_set_tile(tv, tile_obj, anim_en);
 693              		.loc 1 106 9 is_stmt 1 view .LVU185
 106:lvgl/src/extra/widgets/tileview/lv_tileview.c ****             lv_obj_set_tile(tv, tile_obj, anim_en);
 694              		.loc 1 106 11 is_stmt 0 view .LVU186
 695 0054 B045     		cmp	r8, r6
 696 0056 ECD1     		bne	.L33
 106:lvgl/src/extra/widgets/tileview/lv_tileview.c ****             lv_obj_set_tile(tv, tile_obj, anim_en);
 697              		.loc 1 106 20 discriminator 1 view .LVU187
 698 0058 8145     		cmp	r9, r0
 699 005a EAD1     		bne	.L33
 107:lvgl/src/extra/widgets/tileview/lv_tileview.c ****             return;
 700              		.loc 1 107 13 is_stmt 1 view .LVU188
 701 005c 5246     		mov	r2, r10
 702 005e 2946     		mov	r1, r5
 703 0060 3846     		mov	r0, r7
 704              	.LVL93:
 107:lvgl/src/extra/widgets/tileview/lv_tileview.c ****             return;
 705              		.loc 1 107 13 is_stmt 0 view .LVU189
 706 0062 FFF7FEFF 		bl	lv_obj_set_tile
 707              	.LVL94:
 108:lvgl/src/extra/widgets/tileview/lv_tileview.c ****         }
 708              		.loc 1 108 13 is_stmt 1 view .LVU190
 709              	.L31:
 108:lvgl/src/extra/widgets/tileview/lv_tileview.c ****         }
 710              		.loc 1 108 13 is_stmt 0 view .LVU191
 711              	.LBE5:
 113:lvgl/src/extra/widgets/tileview/lv_tileview.c **** 
 712              		.loc 1 113 1 view .LVU192
 713 0066 BDE8F087 		pop	{r4, r5, r6, r7, r8, r9, r10, pc}
 113:lvgl/src/extra/widgets/tileview/lv_tileview.c **** 
 714              		.loc 1 113 1 view .LVU193
 715              		.cfi_endproc
 716              	.LFE164:
 718              		.section	.text.lv_tileview_get_tile_act,"ax",%progbits
 719              		.align	1
 720              		.global	lv_tileview_get_tile_act
 721              		.syntax unified
 722              		.thumb
 723              		.thumb_func
 725              	lv_tileview_get_tile_act:
 726              	.LVL95:
 727              	.LFB165:
 116:lvgl/src/extra/widgets/tileview/lv_tileview.c ****     lv_tileview_t * tv = (lv_tileview_t *) obj;
 728              		.loc 1 116 1 is_stmt 1 view -0
 729              		.cfi_startproc
 730              		@ args = 0, pretend = 0, frame = 0
 731              		@ frame_needed = 0, uses_anonymous_args = 0
 732              		@ link register save eliminated.
 117:lvgl/src/extra/widgets/tileview/lv_tileview.c ****     return tv->tile_act;
 733              		.loc 1 117 5 view .LVU195
ARM GAS  /var/folders/21/t9g5rlb91ys800n5npymflf80000gn/T//ccWhGGwq.s 			page 20


 118:lvgl/src/extra/widgets/tileview/lv_tileview.c **** }
 734              		.loc 1 118 5 view .LVU196
 119:lvgl/src/extra/widgets/tileview/lv_tileview.c **** 
 735              		.loc 1 119 1 is_stmt 0 view .LVU197
 736 0000 406A     		ldr	r0, [r0, #36]
 737              	.LVL96:
 119:lvgl/src/extra/widgets/tileview/lv_tileview.c **** 
 738              		.loc 1 119 1 view .LVU198
 739 0002 7047     		bx	lr
 740              		.cfi_endproc
 741              	.LFE165:
 743              		.section	.bss.create_row_id,"aw",%nobits
 744              		.align	2
 747              	create_row_id:
 748 0000 00000000 		.space	4
 749              		.section	.bss.create_col_id,"aw",%nobits
 750              		.align	2
 753              	create_col_id:
 754 0000 00000000 		.space	4
 755              		.section	.bss.create_dir,"aw",%nobits
 758              	create_dir:
 759 0000 00       		.space	1
 760              		.global	lv_tileview_tile_class
 761              		.section	.rodata.lv_tileview_tile_class,"a"
 762              		.align	2
 765              	lv_tileview_tile_class:
 766 0000 00000000 		.word	lv_obj_class
 767 0004 00000000 		.word	lv_tileview_tile_constructor
 768 0008 00000000 		.space	16
 768      00000000 
 768      00000000 
 768      00000000 
 769 0018 80       		.byte	128
 770 0019 02       		.byte	2
 771 001a 00       		.byte	0
 772 001b 00       		.space	1
 773              		.global	lv_tileview_class
 774              		.section	.rodata.lv_tileview_class,"a"
 775              		.align	2
 778              	lv_tileview_class:
 779 0000 00000000 		.word	lv_obj_class
 780 0004 00000000 		.word	lv_tileview_constructor
 781 0008 00000000 		.space	16
 781      00000000 
 781      00000000 
 781      00000000 
 782 0018 80       		.byte	128
 783 0019 02       		.byte	2
 784 001a 00       		.byte	0
 785 001b 00       		.space	1
 786              		.text
 787              	.Letext0:
 788              		.file 2 "/usr/local/include/sys/_types/_int8_t.h"
 789              		.file 3 "/usr/local/include/sys/_types/_int16_t.h"
 790              		.file 4 "/usr/local/include/sys/_types/_int32_t.h"
 791              		.file 5 "/usr/local/include/_types/_uint8_t.h"
 792              		.file 6 "/usr/local/include/_types/_uint16_t.h"
ARM GAS  /var/folders/21/t9g5rlb91ys800n5npymflf80000gn/T//ccWhGGwq.s 			page 21


 793              		.file 7 "/usr/local/include/_types/_uint32_t.h"
 794              		.file 8 "/usr/local/include/arm/_types.h"
 795              		.file 9 "/usr/local/include/sys/_types/_size_t.h"
 796              		.file 10 "lvgl/src/extra/widgets/tileview/../../../core/../misc/../font/../misc/lv_area.h"
 797              		.file 11 "lvgl/src/extra/widgets/tileview/../../../core/../misc/../font/lv_font.h"
 798              		.file 12 "lvgl/src/extra/widgets/tileview/../../../core/../misc/lv_types.h"
 799              		.file 13 "lvgl/src/extra/widgets/tileview/../../../core/../misc/lv_color.h"
 800              		.file 14 "lvgl/src/extra/widgets/tileview/../../../core/../misc/lv_anim.h"
 801              		.file 15 "lvgl/src/extra/widgets/tileview/../../../core/../misc/lv_txt.h"
 802              		.file 16 "lvgl/src/extra/widgets/tileview/../../../core/../misc/lv_bidi.h"
 803              		.file 17 "lvgl/src/extra/widgets/tileview/../../../core/../misc/lv_style.h"
 804              		.file 18 "lvgl/src/extra/widgets/tileview/../../../core/../hal/../draw/lv_img_buf.h"
 805              		.file 19 "lvgl/src/extra/widgets/tileview/../../../core/lv_obj.h"
 806              		.file 20 "lvgl/src/extra/widgets/tileview/../../../core/../hal/../draw/lv_draw_rect.h"
 807              		.file 21 "lvgl/src/extra/widgets/tileview/../../../core/../hal/../draw/lv_draw_label.h"
 808              		.file 22 "lvgl/src/extra/widgets/tileview/../../../core/../hal/../draw/lv_draw_img.h"
 809              		.file 23 "lvgl/src/extra/widgets/tileview/../../../core/../hal/../draw/lv_draw_line.h"
 810              		.file 24 "lvgl/src/extra/widgets/tileview/../../../core/../hal/../draw/lv_draw_arc.h"
 811              		.file 25 "lvgl/src/extra/widgets/tileview/../../../core/../hal/../draw/lv_draw_layer.h"
 812              		.file 26 "lvgl/src/extra/widgets/tileview/../../../core/../hal/../draw/lv_draw.h"
 813              		.file 27 "lvgl/src/extra/widgets/tileview/../../../core/../hal/../misc/lv_ll.h"
 814              		.file 28 "lvgl/src/extra/widgets/tileview/../../../core/../hal/../misc/lv_timer.h"
 815              		.file 29 "lvgl/src/extra/widgets/tileview/../../../core/../hal/lv_hal_disp.h"
 816              		.file 30 "lvgl/src/extra/widgets/tileview/../../../core/../hal/lv_hal_indev.h"
 817              		.file 31 "lvgl/src/extra/widgets/tileview/../../../core/lv_group.h"
 818              		.file 32 "lvgl/src/extra/widgets/tileview/../../../core/lv_obj_scroll.h"
 819              		.file 33 "lvgl/src/extra/widgets/tileview/../../../core/lv_obj_style.h"
 820              		.file 34 "lvgl/src/extra/widgets/tileview/../../../core/lv_obj_class.h"
 821              		.file 35 "lvgl/src/extra/widgets/tileview/../../../core/lv_event.h"
 822              		.file 36 "lvgl/src/extra/widgets/tileview/lv_tileview.h"
 823              		.file 37 "lvgl/src/extra/widgets/tileview/../../../core/../hal/../draw/sw/../../core/lv_obj_pos.h"
 824              		.file 38 "lvgl/src/extra/widgets/tileview/../../../core/lv_obj_tree.h"
 825              		.file 39 "lvgl/src/extra/widgets/tileview/../../../core/lv_indev.h"
ARM GAS  /var/folders/21/t9g5rlb91ys800n5npymflf80000gn/T//ccWhGGwq.s 			page 22

