ARM GAS  /var/folders/21/t9g5rlb91ys800n5npymflf80000gn/T//ccNiYEm1.s 			page 1


   1              		.cpu cortex-m4
   2              		.arch armv7e-m
   3              		.fpu fpv4-sp-d16
   4              		.eabi_attribute 27, 1
   5              		.eabi_attribute 28, 1
   6              		.eabi_attribute 20, 1
   7              		.eabi_attribute 21, 1
   8              		.eabi_attribute 23, 3
   9              		.eabi_attribute 24, 1
  10              		.eabi_attribute 25, 1
  11              		.eabi_attribute 26, 1
  12              		.eabi_attribute 30, 1
  13              		.eabi_attribute 34, 1
  14              		.eabi_attribute 18, 4
  15              		.file	"lv_table.c"
  16              		.text
  17              	.Ltext0:
  18              		.cfi_sections	.debug_frame
  19              		.file 1 "lvgl/src/widgets/lv_table.c"
  20              		.section	.text.get_row_height,"ax",%progbits
  21              		.align	1
  22              		.syntax unified
  23              		.thumb
  24              		.thumb_func
  26              	get_row_height:
  27              	.LVL0:
  28              	.LFB184:
   1:lvgl/src/widgets/lv_table.c **** /**
   2:lvgl/src/widgets/lv_table.c ****  * @file lv_table.c
   3:lvgl/src/widgets/lv_table.c ****  *
   4:lvgl/src/widgets/lv_table.c ****  */
   5:lvgl/src/widgets/lv_table.c **** 
   6:lvgl/src/widgets/lv_table.c **** /*********************
   7:lvgl/src/widgets/lv_table.c ****  *      INCLUDES
   8:lvgl/src/widgets/lv_table.c ****  *********************/
   9:lvgl/src/widgets/lv_table.c **** #include "lv_table.h"
  10:lvgl/src/widgets/lv_table.c **** #if LV_USE_TABLE != 0
  11:lvgl/src/widgets/lv_table.c **** 
  12:lvgl/src/widgets/lv_table.c **** #include "../core/lv_indev.h"
  13:lvgl/src/widgets/lv_table.c **** #include "../misc/lv_assert.h"
  14:lvgl/src/widgets/lv_table.c **** #include "../misc/lv_txt.h"
  15:lvgl/src/widgets/lv_table.c **** #include "../misc/lv_txt_ap.h"
  16:lvgl/src/widgets/lv_table.c **** #include "../misc/lv_math.h"
  17:lvgl/src/widgets/lv_table.c **** #include "../misc/lv_printf.h"
  18:lvgl/src/widgets/lv_table.c **** #include "../draw/lv_draw.h"
  19:lvgl/src/widgets/lv_table.c **** 
  20:lvgl/src/widgets/lv_table.c **** /*********************
  21:lvgl/src/widgets/lv_table.c ****  *      DEFINES
  22:lvgl/src/widgets/lv_table.c ****  *********************/
  23:lvgl/src/widgets/lv_table.c **** #define MY_CLASS &lv_table_class
  24:lvgl/src/widgets/lv_table.c **** 
  25:lvgl/src/widgets/lv_table.c **** /**********************
  26:lvgl/src/widgets/lv_table.c ****  *      TYPEDEFS
  27:lvgl/src/widgets/lv_table.c ****  **********************/
  28:lvgl/src/widgets/lv_table.c **** 
  29:lvgl/src/widgets/lv_table.c **** /**********************
  30:lvgl/src/widgets/lv_table.c ****  *  STATIC PROTOTYPES
ARM GAS  /var/folders/21/t9g5rlb91ys800n5npymflf80000gn/T//ccNiYEm1.s 			page 2


  31:lvgl/src/widgets/lv_table.c ****  **********************/
  32:lvgl/src/widgets/lv_table.c **** static void lv_table_constructor(const lv_obj_class_t * class_p, lv_obj_t * obj);
  33:lvgl/src/widgets/lv_table.c **** static void lv_table_destructor(const lv_obj_class_t * class_p, lv_obj_t * obj);
  34:lvgl/src/widgets/lv_table.c **** static void lv_table_event(const lv_obj_class_t * class_p, lv_event_t * e);
  35:lvgl/src/widgets/lv_table.c **** static void draw_main(lv_event_t * e);
  36:lvgl/src/widgets/lv_table.c **** static lv_coord_t get_row_height(lv_obj_t * obj, uint16_t row_id, const lv_font_t * font,
  37:lvgl/src/widgets/lv_table.c ****                                  lv_coord_t letter_space, lv_coord_t line_space,
  38:lvgl/src/widgets/lv_table.c ****                                  lv_coord_t cell_left, lv_coord_t cell_right, lv_coord_t cell_top, 
  39:lvgl/src/widgets/lv_table.c **** static void refr_size_form_row(lv_obj_t * obj, uint32_t start_row);
  40:lvgl/src/widgets/lv_table.c **** static void refr_cell_size(lv_obj_t * obj, uint32_t row, uint32_t col);
  41:lvgl/src/widgets/lv_table.c **** static lv_res_t get_pressed_cell(lv_obj_t * obj, uint16_t * row, uint16_t * col);
  42:lvgl/src/widgets/lv_table.c **** static size_t get_cell_txt_len(const char * txt);
  43:lvgl/src/widgets/lv_table.c **** static void copy_cell_txt(lv_table_cell_t * dst, const char * txt);
  44:lvgl/src/widgets/lv_table.c **** static void get_cell_area(lv_obj_t * obj, uint16_t row, uint16_t col, lv_area_t * area);
  45:lvgl/src/widgets/lv_table.c **** static void scroll_to_selected_cell(lv_obj_t * obj);
  46:lvgl/src/widgets/lv_table.c **** 
  47:lvgl/src/widgets/lv_table.c **** static inline bool is_cell_empty(void * cell)
  48:lvgl/src/widgets/lv_table.c **** {
  49:lvgl/src/widgets/lv_table.c ****     return cell == NULL;
  50:lvgl/src/widgets/lv_table.c **** }
  51:lvgl/src/widgets/lv_table.c **** 
  52:lvgl/src/widgets/lv_table.c **** /**********************
  53:lvgl/src/widgets/lv_table.c ****  *  STATIC VARIABLES
  54:lvgl/src/widgets/lv_table.c ****  **********************/
  55:lvgl/src/widgets/lv_table.c **** const lv_obj_class_t lv_table_class  = {
  56:lvgl/src/widgets/lv_table.c ****     .constructor_cb = lv_table_constructor,
  57:lvgl/src/widgets/lv_table.c ****     .destructor_cb = lv_table_destructor,
  58:lvgl/src/widgets/lv_table.c ****     .event_cb = lv_table_event,
  59:lvgl/src/widgets/lv_table.c ****     .width_def = LV_SIZE_CONTENT,
  60:lvgl/src/widgets/lv_table.c ****     .height_def = LV_SIZE_CONTENT,
  61:lvgl/src/widgets/lv_table.c ****     .base_class = &lv_obj_class,
  62:lvgl/src/widgets/lv_table.c ****     .editable = LV_OBJ_CLASS_EDITABLE_TRUE,
  63:lvgl/src/widgets/lv_table.c ****     .group_def = LV_OBJ_CLASS_GROUP_DEF_TRUE,
  64:lvgl/src/widgets/lv_table.c ****     .instance_size = sizeof(lv_table_t),
  65:lvgl/src/widgets/lv_table.c **** };
  66:lvgl/src/widgets/lv_table.c **** /**********************
  67:lvgl/src/widgets/lv_table.c ****  *      MACROS
  68:lvgl/src/widgets/lv_table.c ****  **********************/
  69:lvgl/src/widgets/lv_table.c **** 
  70:lvgl/src/widgets/lv_table.c **** /**********************
  71:lvgl/src/widgets/lv_table.c ****  *   GLOBAL FUNCTIONS
  72:lvgl/src/widgets/lv_table.c ****  **********************/
  73:lvgl/src/widgets/lv_table.c **** 
  74:lvgl/src/widgets/lv_table.c **** lv_obj_t * lv_table_create(lv_obj_t * parent)
  75:lvgl/src/widgets/lv_table.c **** {
  76:lvgl/src/widgets/lv_table.c ****     LV_LOG_INFO("begin");
  77:lvgl/src/widgets/lv_table.c ****     lv_obj_t * obj = lv_obj_class_create_obj(MY_CLASS, parent);
  78:lvgl/src/widgets/lv_table.c ****     lv_obj_class_init_obj(obj);
  79:lvgl/src/widgets/lv_table.c ****     return obj;
  80:lvgl/src/widgets/lv_table.c **** }
  81:lvgl/src/widgets/lv_table.c **** 
  82:lvgl/src/widgets/lv_table.c **** /*=====================
  83:lvgl/src/widgets/lv_table.c ****  * Setter functions
  84:lvgl/src/widgets/lv_table.c ****  *====================*/
  85:lvgl/src/widgets/lv_table.c **** 
  86:lvgl/src/widgets/lv_table.c **** void lv_table_set_cell_value(lv_obj_t * obj, uint16_t row, uint16_t col, const char * txt)
  87:lvgl/src/widgets/lv_table.c **** {
ARM GAS  /var/folders/21/t9g5rlb91ys800n5npymflf80000gn/T//ccNiYEm1.s 			page 3


  88:lvgl/src/widgets/lv_table.c ****     LV_ASSERT_OBJ(obj, MY_CLASS);
  89:lvgl/src/widgets/lv_table.c ****     LV_ASSERT_NULL(txt);
  90:lvgl/src/widgets/lv_table.c **** 
  91:lvgl/src/widgets/lv_table.c ****     lv_table_t * table = (lv_table_t *)obj;
  92:lvgl/src/widgets/lv_table.c **** 
  93:lvgl/src/widgets/lv_table.c ****     /*Auto expand*/
  94:lvgl/src/widgets/lv_table.c ****     if(col >= table->col_cnt) lv_table_set_col_cnt(obj, col + 1);
  95:lvgl/src/widgets/lv_table.c ****     if(row >= table->row_cnt) lv_table_set_row_cnt(obj, row + 1);
  96:lvgl/src/widgets/lv_table.c **** 
  97:lvgl/src/widgets/lv_table.c ****     uint32_t cell = row * table->col_cnt + col;
  98:lvgl/src/widgets/lv_table.c ****     lv_table_cell_ctrl_t ctrl = 0;
  99:lvgl/src/widgets/lv_table.c **** 
 100:lvgl/src/widgets/lv_table.c ****     /*Save the control byte*/
 101:lvgl/src/widgets/lv_table.c ****     if(table->cell_data[cell]) ctrl = table->cell_data[cell]->ctrl;
 102:lvgl/src/widgets/lv_table.c **** 
 103:lvgl/src/widgets/lv_table.c **** #if LV_USE_USER_DATA
 104:lvgl/src/widgets/lv_table.c ****     void * user_data = NULL;
 105:lvgl/src/widgets/lv_table.c **** 
 106:lvgl/src/widgets/lv_table.c ****     /*Save the user data*/
 107:lvgl/src/widgets/lv_table.c ****     if(table->cell_data[cell]) user_data = table->cell_data[cell]->user_data;
 108:lvgl/src/widgets/lv_table.c **** #endif
 109:lvgl/src/widgets/lv_table.c **** 
 110:lvgl/src/widgets/lv_table.c ****     size_t to_allocate = get_cell_txt_len(txt);
 111:lvgl/src/widgets/lv_table.c **** 
 112:lvgl/src/widgets/lv_table.c ****     table->cell_data[cell] = lv_mem_realloc(table->cell_data[cell], to_allocate);
 113:lvgl/src/widgets/lv_table.c ****     LV_ASSERT_MALLOC(table->cell_data[cell]);
 114:lvgl/src/widgets/lv_table.c ****     if(table->cell_data[cell] == NULL) return;
 115:lvgl/src/widgets/lv_table.c **** 
 116:lvgl/src/widgets/lv_table.c ****     copy_cell_txt(table->cell_data[cell], txt);
 117:lvgl/src/widgets/lv_table.c **** 
 118:lvgl/src/widgets/lv_table.c ****     table->cell_data[cell]->ctrl = ctrl;
 119:lvgl/src/widgets/lv_table.c **** #if LV_USE_USER_DATA
 120:lvgl/src/widgets/lv_table.c ****     table->cell_data[cell]->user_data = user_data;
 121:lvgl/src/widgets/lv_table.c **** #endif
 122:lvgl/src/widgets/lv_table.c ****     refr_cell_size(obj, row, col);
 123:lvgl/src/widgets/lv_table.c **** }
 124:lvgl/src/widgets/lv_table.c **** 
 125:lvgl/src/widgets/lv_table.c **** void lv_table_set_cell_value_fmt(lv_obj_t * obj, uint16_t row, uint16_t col, const char * fmt, ...)
 126:lvgl/src/widgets/lv_table.c **** {
 127:lvgl/src/widgets/lv_table.c ****     LV_ASSERT_OBJ(obj, MY_CLASS);
 128:lvgl/src/widgets/lv_table.c ****     LV_ASSERT_NULL(fmt);
 129:lvgl/src/widgets/lv_table.c **** 
 130:lvgl/src/widgets/lv_table.c ****     lv_table_t * table = (lv_table_t *)obj;
 131:lvgl/src/widgets/lv_table.c ****     if(col >= table->col_cnt) {
 132:lvgl/src/widgets/lv_table.c ****         lv_table_set_col_cnt(obj, col + 1);
 133:lvgl/src/widgets/lv_table.c ****     }
 134:lvgl/src/widgets/lv_table.c **** 
 135:lvgl/src/widgets/lv_table.c ****     /*Auto expand*/
 136:lvgl/src/widgets/lv_table.c ****     if(row >= table->row_cnt) {
 137:lvgl/src/widgets/lv_table.c ****         lv_table_set_row_cnt(obj, row + 1);
 138:lvgl/src/widgets/lv_table.c ****     }
 139:lvgl/src/widgets/lv_table.c **** 
 140:lvgl/src/widgets/lv_table.c ****     uint32_t cell = row * table->col_cnt + col;
 141:lvgl/src/widgets/lv_table.c ****     lv_table_cell_ctrl_t ctrl = 0;
 142:lvgl/src/widgets/lv_table.c **** 
 143:lvgl/src/widgets/lv_table.c ****     /*Save the control byte*/
 144:lvgl/src/widgets/lv_table.c ****     if(table->cell_data[cell]) ctrl = table->cell_data[cell]->ctrl;
ARM GAS  /var/folders/21/t9g5rlb91ys800n5npymflf80000gn/T//ccNiYEm1.s 			page 4


 145:lvgl/src/widgets/lv_table.c **** 
 146:lvgl/src/widgets/lv_table.c **** #if LV_USE_USER_DATA
 147:lvgl/src/widgets/lv_table.c ****     void * user_data = NULL;
 148:lvgl/src/widgets/lv_table.c **** 
 149:lvgl/src/widgets/lv_table.c ****     /*Save the user_data*/
 150:lvgl/src/widgets/lv_table.c ****     if(table->cell_data[cell]) user_data = table->cell_data[cell]->user_data;
 151:lvgl/src/widgets/lv_table.c **** #endif
 152:lvgl/src/widgets/lv_table.c **** 
 153:lvgl/src/widgets/lv_table.c ****     va_list ap, ap2;
 154:lvgl/src/widgets/lv_table.c ****     va_start(ap, fmt);
 155:lvgl/src/widgets/lv_table.c ****     va_copy(ap2, ap);
 156:lvgl/src/widgets/lv_table.c **** 
 157:lvgl/src/widgets/lv_table.c ****     /*Allocate space for the new text by using trick from C99 standard section 7.19.6.12*/
 158:lvgl/src/widgets/lv_table.c ****     uint32_t len = lv_vsnprintf(NULL, 0, fmt, ap);
 159:lvgl/src/widgets/lv_table.c ****     va_end(ap);
 160:lvgl/src/widgets/lv_table.c **** 
 161:lvgl/src/widgets/lv_table.c **** #if LV_USE_ARABIC_PERSIAN_CHARS
 162:lvgl/src/widgets/lv_table.c ****     /*Put together the text according to the format string*/
 163:lvgl/src/widgets/lv_table.c ****     char * raw_txt = lv_mem_buf_get(len + 1);
 164:lvgl/src/widgets/lv_table.c ****     LV_ASSERT_MALLOC(raw_txt);
 165:lvgl/src/widgets/lv_table.c ****     if(raw_txt == NULL) {
 166:lvgl/src/widgets/lv_table.c ****         va_end(ap2);
 167:lvgl/src/widgets/lv_table.c ****         return;
 168:lvgl/src/widgets/lv_table.c ****     }
 169:lvgl/src/widgets/lv_table.c **** 
 170:lvgl/src/widgets/lv_table.c ****     lv_vsnprintf(raw_txt, len + 1, fmt, ap2);
 171:lvgl/src/widgets/lv_table.c **** 
 172:lvgl/src/widgets/lv_table.c ****     /*Get the size of the Arabic text and process it*/
 173:lvgl/src/widgets/lv_table.c ****     size_t len_ap = _lv_txt_ap_calc_bytes_cnt(raw_txt);
 174:lvgl/src/widgets/lv_table.c ****     table->cell_data[cell] = lv_mem_realloc(table->cell_data[cell], sizeof(lv_table_cell_t) + len_a
 175:lvgl/src/widgets/lv_table.c ****     LV_ASSERT_MALLOC(table->cell_data[cell]);
 176:lvgl/src/widgets/lv_table.c ****     if(table->cell_data[cell] == NULL) {
 177:lvgl/src/widgets/lv_table.c ****         va_end(ap2);
 178:lvgl/src/widgets/lv_table.c ****         return;
 179:lvgl/src/widgets/lv_table.c ****     }
 180:lvgl/src/widgets/lv_table.c ****     _lv_txt_ap_proc(raw_txt, table->cell_data[cell]->txt);
 181:lvgl/src/widgets/lv_table.c **** 
 182:lvgl/src/widgets/lv_table.c ****     lv_mem_buf_release(raw_txt);
 183:lvgl/src/widgets/lv_table.c **** #else
 184:lvgl/src/widgets/lv_table.c ****     table->cell_data[cell] = lv_mem_realloc(table->cell_data[cell],
 185:lvgl/src/widgets/lv_table.c ****                                             sizeof(lv_table_cell_t) + len + 1); /*+1: trailing '\0;
 186:lvgl/src/widgets/lv_table.c ****     LV_ASSERT_MALLOC(table->cell_data[cell]);
 187:lvgl/src/widgets/lv_table.c ****     if(table->cell_data[cell] == NULL) {
 188:lvgl/src/widgets/lv_table.c ****         va_end(ap2);
 189:lvgl/src/widgets/lv_table.c ****         return;
 190:lvgl/src/widgets/lv_table.c ****     }
 191:lvgl/src/widgets/lv_table.c **** 
 192:lvgl/src/widgets/lv_table.c ****     table->cell_data[cell]->txt[len] = 0; /*Ensure NULL termination*/
 193:lvgl/src/widgets/lv_table.c **** 
 194:lvgl/src/widgets/lv_table.c ****     lv_vsnprintf(table->cell_data[cell]->txt, len + 1, fmt, ap2);
 195:lvgl/src/widgets/lv_table.c **** #endif
 196:lvgl/src/widgets/lv_table.c **** 
 197:lvgl/src/widgets/lv_table.c ****     va_end(ap2);
 198:lvgl/src/widgets/lv_table.c **** 
 199:lvgl/src/widgets/lv_table.c ****     table->cell_data[cell]->ctrl = ctrl;
 200:lvgl/src/widgets/lv_table.c **** #if LV_USE_USER_DATA
 201:lvgl/src/widgets/lv_table.c ****     table->cell_data[cell]->user_data = user_data;
ARM GAS  /var/folders/21/t9g5rlb91ys800n5npymflf80000gn/T//ccNiYEm1.s 			page 5


 202:lvgl/src/widgets/lv_table.c **** #endif
 203:lvgl/src/widgets/lv_table.c ****     refr_cell_size(obj, row, col);
 204:lvgl/src/widgets/lv_table.c **** }
 205:lvgl/src/widgets/lv_table.c **** 
 206:lvgl/src/widgets/lv_table.c **** void lv_table_set_row_cnt(lv_obj_t * obj, uint16_t row_cnt)
 207:lvgl/src/widgets/lv_table.c **** {
 208:lvgl/src/widgets/lv_table.c ****     LV_ASSERT_OBJ(obj, MY_CLASS);
 209:lvgl/src/widgets/lv_table.c **** 
 210:lvgl/src/widgets/lv_table.c ****     lv_table_t * table = (lv_table_t *)obj;
 211:lvgl/src/widgets/lv_table.c **** 
 212:lvgl/src/widgets/lv_table.c ****     if(table->row_cnt == row_cnt) return;
 213:lvgl/src/widgets/lv_table.c **** 
 214:lvgl/src/widgets/lv_table.c ****     uint16_t old_row_cnt = table->row_cnt;
 215:lvgl/src/widgets/lv_table.c ****     table->row_cnt         = row_cnt;
 216:lvgl/src/widgets/lv_table.c **** 
 217:lvgl/src/widgets/lv_table.c ****     table->row_h = lv_mem_realloc(table->row_h, table->row_cnt * sizeof(table->row_h[0]));
 218:lvgl/src/widgets/lv_table.c ****     LV_ASSERT_MALLOC(table->row_h);
 219:lvgl/src/widgets/lv_table.c ****     if(table->row_h == NULL) return;
 220:lvgl/src/widgets/lv_table.c **** 
 221:lvgl/src/widgets/lv_table.c ****     /*Free the unused cells*/
 222:lvgl/src/widgets/lv_table.c ****     if(old_row_cnt > row_cnt) {
 223:lvgl/src/widgets/lv_table.c ****         uint16_t old_cell_cnt = old_row_cnt * table->col_cnt;
 224:lvgl/src/widgets/lv_table.c ****         uint32_t new_cell_cnt = table->col_cnt * table->row_cnt;
 225:lvgl/src/widgets/lv_table.c ****         uint32_t i;
 226:lvgl/src/widgets/lv_table.c ****         for(i = new_cell_cnt; i < old_cell_cnt; i++) {
 227:lvgl/src/widgets/lv_table.c **** #if LV_USE_USER_DATA
 228:lvgl/src/widgets/lv_table.c ****             if(table->cell_data[i]->user_data) {
 229:lvgl/src/widgets/lv_table.c ****                 lv_mem_free(table->cell_data[i]->user_data);
 230:lvgl/src/widgets/lv_table.c ****                 table->cell_data[i]->user_data = NULL;
 231:lvgl/src/widgets/lv_table.c ****             }
 232:lvgl/src/widgets/lv_table.c **** #endif
 233:lvgl/src/widgets/lv_table.c ****             lv_mem_free(table->cell_data[i]);
 234:lvgl/src/widgets/lv_table.c ****         }
 235:lvgl/src/widgets/lv_table.c ****     }
 236:lvgl/src/widgets/lv_table.c **** 
 237:lvgl/src/widgets/lv_table.c ****     table->cell_data = lv_mem_realloc(table->cell_data, table->row_cnt * table->col_cnt * sizeof(lv
 238:lvgl/src/widgets/lv_table.c ****     LV_ASSERT_MALLOC(table->cell_data);
 239:lvgl/src/widgets/lv_table.c ****     if(table->cell_data == NULL) return;
 240:lvgl/src/widgets/lv_table.c **** 
 241:lvgl/src/widgets/lv_table.c ****     /*Initialize the new fields*/
 242:lvgl/src/widgets/lv_table.c ****     if(old_row_cnt < row_cnt) {
 243:lvgl/src/widgets/lv_table.c ****         uint32_t old_cell_cnt = old_row_cnt * table->col_cnt;
 244:lvgl/src/widgets/lv_table.c ****         uint32_t new_cell_cnt = table->col_cnt * table->row_cnt;
 245:lvgl/src/widgets/lv_table.c ****         lv_memset_00(&table->cell_data[old_cell_cnt], (new_cell_cnt - old_cell_cnt) * sizeof(table-
 246:lvgl/src/widgets/lv_table.c ****     }
 247:lvgl/src/widgets/lv_table.c **** 
 248:lvgl/src/widgets/lv_table.c ****     refr_size_form_row(obj, 0);
 249:lvgl/src/widgets/lv_table.c **** }
 250:lvgl/src/widgets/lv_table.c **** 
 251:lvgl/src/widgets/lv_table.c **** void lv_table_set_col_cnt(lv_obj_t * obj, uint16_t col_cnt)
 252:lvgl/src/widgets/lv_table.c **** {
 253:lvgl/src/widgets/lv_table.c ****     LV_ASSERT_OBJ(obj, MY_CLASS);
 254:lvgl/src/widgets/lv_table.c **** 
 255:lvgl/src/widgets/lv_table.c ****     lv_table_t * table = (lv_table_t *)obj;
 256:lvgl/src/widgets/lv_table.c **** 
 257:lvgl/src/widgets/lv_table.c ****     if(table->col_cnt == col_cnt) return;
 258:lvgl/src/widgets/lv_table.c **** 
ARM GAS  /var/folders/21/t9g5rlb91ys800n5npymflf80000gn/T//ccNiYEm1.s 			page 6


 259:lvgl/src/widgets/lv_table.c ****     uint16_t old_col_cnt = table->col_cnt;
 260:lvgl/src/widgets/lv_table.c ****     table->col_cnt         = col_cnt;
 261:lvgl/src/widgets/lv_table.c **** 
 262:lvgl/src/widgets/lv_table.c ****     lv_table_cell_t ** new_cell_data = lv_mem_alloc(table->row_cnt * table->col_cnt * sizeof(lv_tab
 263:lvgl/src/widgets/lv_table.c ****     LV_ASSERT_MALLOC(new_cell_data);
 264:lvgl/src/widgets/lv_table.c ****     if(new_cell_data == NULL) return;
 265:lvgl/src/widgets/lv_table.c ****     uint32_t new_cell_cnt = table->col_cnt * table->row_cnt;
 266:lvgl/src/widgets/lv_table.c **** 
 267:lvgl/src/widgets/lv_table.c ****     lv_memset_00(new_cell_data, new_cell_cnt * sizeof(table->cell_data[0]));
 268:lvgl/src/widgets/lv_table.c **** 
 269:lvgl/src/widgets/lv_table.c ****     /*The new column(s) messes up the mapping of `cell_data`*/
 270:lvgl/src/widgets/lv_table.c ****     uint32_t old_col_start;
 271:lvgl/src/widgets/lv_table.c ****     uint32_t new_col_start;
 272:lvgl/src/widgets/lv_table.c ****     uint32_t min_col_cnt = LV_MIN(old_col_cnt, col_cnt);
 273:lvgl/src/widgets/lv_table.c ****     uint32_t row;
 274:lvgl/src/widgets/lv_table.c ****     for(row = 0; row < table->row_cnt; row++) {
 275:lvgl/src/widgets/lv_table.c ****         old_col_start = row * old_col_cnt;
 276:lvgl/src/widgets/lv_table.c ****         new_col_start = row * col_cnt;
 277:lvgl/src/widgets/lv_table.c **** 
 278:lvgl/src/widgets/lv_table.c ****         lv_memcpy_small(&new_cell_data[new_col_start], &table->cell_data[old_col_start],
 279:lvgl/src/widgets/lv_table.c ****                         sizeof(new_cell_data[0]) * min_col_cnt);
 280:lvgl/src/widgets/lv_table.c **** 
 281:lvgl/src/widgets/lv_table.c ****         /*Free the old cells (only if the table becomes smaller)*/
 282:lvgl/src/widgets/lv_table.c ****         int32_t i;
 283:lvgl/src/widgets/lv_table.c ****         for(i = 0; i < (int32_t)old_col_cnt - col_cnt; i++) {
 284:lvgl/src/widgets/lv_table.c ****             uint32_t idx = old_col_start + min_col_cnt + i;
 285:lvgl/src/widgets/lv_table.c **** #if LV_USE_USER_DATA
 286:lvgl/src/widgets/lv_table.c ****             if(table->cell_data[idx]->user_data) {
 287:lvgl/src/widgets/lv_table.c ****                 lv_mem_free(table->cell_data[idx]->user_data);
 288:lvgl/src/widgets/lv_table.c ****                 table->cell_data[idx]->user_data = NULL;
 289:lvgl/src/widgets/lv_table.c ****             }
 290:lvgl/src/widgets/lv_table.c **** #endif
 291:lvgl/src/widgets/lv_table.c ****             lv_mem_free(table->cell_data[idx]);
 292:lvgl/src/widgets/lv_table.c ****             table->cell_data[idx] = NULL;
 293:lvgl/src/widgets/lv_table.c ****         }
 294:lvgl/src/widgets/lv_table.c ****     }
 295:lvgl/src/widgets/lv_table.c **** 
 296:lvgl/src/widgets/lv_table.c ****     lv_mem_free(table->cell_data);
 297:lvgl/src/widgets/lv_table.c ****     table->cell_data = new_cell_data;
 298:lvgl/src/widgets/lv_table.c **** 
 299:lvgl/src/widgets/lv_table.c ****     /*Initialize the new column widths if any*/
 300:lvgl/src/widgets/lv_table.c ****     table->col_w = lv_mem_realloc(table->col_w, col_cnt * sizeof(table->col_w[0]));
 301:lvgl/src/widgets/lv_table.c ****     LV_ASSERT_MALLOC(table->col_w);
 302:lvgl/src/widgets/lv_table.c ****     if(table->col_w == NULL) return;
 303:lvgl/src/widgets/lv_table.c **** 
 304:lvgl/src/widgets/lv_table.c ****     uint32_t col;
 305:lvgl/src/widgets/lv_table.c ****     for(col = old_col_cnt; col < col_cnt; col++) {
 306:lvgl/src/widgets/lv_table.c ****         table->col_w[col] = LV_DPI_DEF;
 307:lvgl/src/widgets/lv_table.c ****     }
 308:lvgl/src/widgets/lv_table.c **** 
 309:lvgl/src/widgets/lv_table.c ****     refr_size_form_row(obj, 0) ;
 310:lvgl/src/widgets/lv_table.c **** }
 311:lvgl/src/widgets/lv_table.c **** 
 312:lvgl/src/widgets/lv_table.c **** void lv_table_set_col_width(lv_obj_t * obj, uint16_t col_id, lv_coord_t w)
 313:lvgl/src/widgets/lv_table.c **** {
 314:lvgl/src/widgets/lv_table.c ****     LV_ASSERT_OBJ(obj, MY_CLASS);
 315:lvgl/src/widgets/lv_table.c **** 
ARM GAS  /var/folders/21/t9g5rlb91ys800n5npymflf80000gn/T//ccNiYEm1.s 			page 7


 316:lvgl/src/widgets/lv_table.c ****     lv_table_t * table = (lv_table_t *)obj;
 317:lvgl/src/widgets/lv_table.c **** 
 318:lvgl/src/widgets/lv_table.c ****     /*Auto expand*/
 319:lvgl/src/widgets/lv_table.c ****     if(col_id >= table->col_cnt) lv_table_set_col_cnt(obj, col_id + 1);
 320:lvgl/src/widgets/lv_table.c **** 
 321:lvgl/src/widgets/lv_table.c ****     table->col_w[col_id] = w;
 322:lvgl/src/widgets/lv_table.c ****     refr_size_form_row(obj, 0);
 323:lvgl/src/widgets/lv_table.c **** }
 324:lvgl/src/widgets/lv_table.c **** 
 325:lvgl/src/widgets/lv_table.c **** void lv_table_add_cell_ctrl(lv_obj_t * obj, uint16_t row, uint16_t col, lv_table_cell_ctrl_t ctrl)
 326:lvgl/src/widgets/lv_table.c **** {
 327:lvgl/src/widgets/lv_table.c ****     LV_ASSERT_OBJ(obj, MY_CLASS);
 328:lvgl/src/widgets/lv_table.c **** 
 329:lvgl/src/widgets/lv_table.c ****     lv_table_t * table = (lv_table_t *)obj;
 330:lvgl/src/widgets/lv_table.c **** 
 331:lvgl/src/widgets/lv_table.c ****     /*Auto expand*/
 332:lvgl/src/widgets/lv_table.c ****     if(col >= table->col_cnt) lv_table_set_col_cnt(obj, col + 1);
 333:lvgl/src/widgets/lv_table.c ****     if(row >= table->row_cnt) lv_table_set_row_cnt(obj, row + 1);
 334:lvgl/src/widgets/lv_table.c **** 
 335:lvgl/src/widgets/lv_table.c ****     uint32_t cell = row * table->col_cnt + col;
 336:lvgl/src/widgets/lv_table.c **** 
 337:lvgl/src/widgets/lv_table.c ****     if(is_cell_empty(table->cell_data[cell])) {
 338:lvgl/src/widgets/lv_table.c ****         table->cell_data[cell]    = lv_mem_alloc(sizeof(lv_table_cell_t) + 1); /*+1: trailing '\0 *
 339:lvgl/src/widgets/lv_table.c ****         LV_ASSERT_MALLOC(table->cell_data[cell]);
 340:lvgl/src/widgets/lv_table.c ****         if(table->cell_data[cell] == NULL) return;
 341:lvgl/src/widgets/lv_table.c **** 
 342:lvgl/src/widgets/lv_table.c ****         table->cell_data[cell]->ctrl = 0;
 343:lvgl/src/widgets/lv_table.c **** #if LV_USE_USER_DATA
 344:lvgl/src/widgets/lv_table.c ****         table->cell_data[cell]->user_data = NULL;
 345:lvgl/src/widgets/lv_table.c **** #endif
 346:lvgl/src/widgets/lv_table.c ****         table->cell_data[cell]->txt[0] = '\0';
 347:lvgl/src/widgets/lv_table.c ****     }
 348:lvgl/src/widgets/lv_table.c **** 
 349:lvgl/src/widgets/lv_table.c ****     table->cell_data[cell]->ctrl |= ctrl;
 350:lvgl/src/widgets/lv_table.c **** }
 351:lvgl/src/widgets/lv_table.c **** 
 352:lvgl/src/widgets/lv_table.c **** void lv_table_clear_cell_ctrl(lv_obj_t * obj, uint16_t row, uint16_t col, lv_table_cell_ctrl_t ctrl
 353:lvgl/src/widgets/lv_table.c **** {
 354:lvgl/src/widgets/lv_table.c ****     LV_ASSERT_OBJ(obj, MY_CLASS);
 355:lvgl/src/widgets/lv_table.c **** 
 356:lvgl/src/widgets/lv_table.c ****     lv_table_t * table = (lv_table_t *)obj;
 357:lvgl/src/widgets/lv_table.c **** 
 358:lvgl/src/widgets/lv_table.c ****     /*Auto expand*/
 359:lvgl/src/widgets/lv_table.c ****     if(col >= table->col_cnt) lv_table_set_col_cnt(obj, col + 1);
 360:lvgl/src/widgets/lv_table.c ****     if(row >= table->row_cnt) lv_table_set_row_cnt(obj, row + 1);
 361:lvgl/src/widgets/lv_table.c **** 
 362:lvgl/src/widgets/lv_table.c ****     uint32_t cell = row * table->col_cnt + col;
 363:lvgl/src/widgets/lv_table.c **** 
 364:lvgl/src/widgets/lv_table.c ****     if(is_cell_empty(table->cell_data[cell])) {
 365:lvgl/src/widgets/lv_table.c ****         table->cell_data[cell]    = lv_mem_alloc(sizeof(lv_table_cell_t) + 1); /*+1: trailing '\0 *
 366:lvgl/src/widgets/lv_table.c ****         LV_ASSERT_MALLOC(table->cell_data[cell]);
 367:lvgl/src/widgets/lv_table.c ****         if(table->cell_data[cell] == NULL) return;
 368:lvgl/src/widgets/lv_table.c **** 
 369:lvgl/src/widgets/lv_table.c ****         table->cell_data[cell]->ctrl = 0;
 370:lvgl/src/widgets/lv_table.c **** #if LV_USE_USER_DATA
 371:lvgl/src/widgets/lv_table.c ****         table->cell_data[cell]->user_data = NULL;
 372:lvgl/src/widgets/lv_table.c **** #endif
ARM GAS  /var/folders/21/t9g5rlb91ys800n5npymflf80000gn/T//ccNiYEm1.s 			page 8


 373:lvgl/src/widgets/lv_table.c ****         table->cell_data[cell]->txt[0] = '\0';
 374:lvgl/src/widgets/lv_table.c ****     }
 375:lvgl/src/widgets/lv_table.c **** 
 376:lvgl/src/widgets/lv_table.c ****     table->cell_data[cell]->ctrl &= (~ctrl);
 377:lvgl/src/widgets/lv_table.c **** }
 378:lvgl/src/widgets/lv_table.c **** 
 379:lvgl/src/widgets/lv_table.c **** #if LV_USE_USER_DATA
 380:lvgl/src/widgets/lv_table.c **** void lv_table_set_cell_user_data(lv_obj_t * obj, uint16_t row, uint16_t col, void * user_data)
 381:lvgl/src/widgets/lv_table.c **** {
 382:lvgl/src/widgets/lv_table.c ****     LV_ASSERT_OBJ(obj, MY_CLASS);
 383:lvgl/src/widgets/lv_table.c **** 
 384:lvgl/src/widgets/lv_table.c ****     lv_table_t * table = (lv_table_t *)obj;
 385:lvgl/src/widgets/lv_table.c **** 
 386:lvgl/src/widgets/lv_table.c ****     /*Auto expand*/
 387:lvgl/src/widgets/lv_table.c ****     if(col >= table->col_cnt) lv_table_set_col_cnt(obj, col + 1);
 388:lvgl/src/widgets/lv_table.c ****     if(row >= table->row_cnt) lv_table_set_row_cnt(obj, row + 1);
 389:lvgl/src/widgets/lv_table.c **** 
 390:lvgl/src/widgets/lv_table.c ****     uint32_t cell = row * table->col_cnt + col;
 391:lvgl/src/widgets/lv_table.c **** 
 392:lvgl/src/widgets/lv_table.c ****     if(is_cell_empty(table->cell_data[cell])) {
 393:lvgl/src/widgets/lv_table.c ****         table->cell_data[cell]    = lv_mem_alloc(sizeof(lv_table_cell_t) + 1); /*+1: trailing '\0 *
 394:lvgl/src/widgets/lv_table.c ****         LV_ASSERT_MALLOC(table->cell_data[cell]);
 395:lvgl/src/widgets/lv_table.c ****         if(table->cell_data[cell] == NULL) return;
 396:lvgl/src/widgets/lv_table.c **** 
 397:lvgl/src/widgets/lv_table.c ****         table->cell_data[cell]->ctrl = 0;
 398:lvgl/src/widgets/lv_table.c ****         table->cell_data[cell]->user_data = NULL;
 399:lvgl/src/widgets/lv_table.c ****         table->cell_data[cell]->txt[0] = '\0';
 400:lvgl/src/widgets/lv_table.c ****     }
 401:lvgl/src/widgets/lv_table.c **** 
 402:lvgl/src/widgets/lv_table.c ****     if(table->cell_data[cell]->user_data) {
 403:lvgl/src/widgets/lv_table.c ****         lv_mem_free(table->cell_data[cell]->user_data);
 404:lvgl/src/widgets/lv_table.c ****     }
 405:lvgl/src/widgets/lv_table.c **** 
 406:lvgl/src/widgets/lv_table.c ****     table->cell_data[cell]->user_data = user_data;
 407:lvgl/src/widgets/lv_table.c **** }
 408:lvgl/src/widgets/lv_table.c **** #endif
 409:lvgl/src/widgets/lv_table.c **** 
 410:lvgl/src/widgets/lv_table.c **** /*=====================
 411:lvgl/src/widgets/lv_table.c ****  * Getter functions
 412:lvgl/src/widgets/lv_table.c ****  *====================*/
 413:lvgl/src/widgets/lv_table.c **** 
 414:lvgl/src/widgets/lv_table.c **** const char * lv_table_get_cell_value(lv_obj_t * obj, uint16_t row, uint16_t col)
 415:lvgl/src/widgets/lv_table.c **** {
 416:lvgl/src/widgets/lv_table.c ****     LV_ASSERT_OBJ(obj, MY_CLASS);
 417:lvgl/src/widgets/lv_table.c **** 
 418:lvgl/src/widgets/lv_table.c ****     lv_table_t * table = (lv_table_t *)obj;
 419:lvgl/src/widgets/lv_table.c ****     if(row >= table->row_cnt || col >= table->col_cnt) {
 420:lvgl/src/widgets/lv_table.c ****         LV_LOG_WARN("invalid row or column");
 421:lvgl/src/widgets/lv_table.c ****         return "";
 422:lvgl/src/widgets/lv_table.c ****     }
 423:lvgl/src/widgets/lv_table.c ****     uint32_t cell = row * table->col_cnt + col;
 424:lvgl/src/widgets/lv_table.c **** 
 425:lvgl/src/widgets/lv_table.c ****     if(is_cell_empty(table->cell_data[cell])) return "";
 426:lvgl/src/widgets/lv_table.c **** 
 427:lvgl/src/widgets/lv_table.c ****     return table->cell_data[cell]->txt;
 428:lvgl/src/widgets/lv_table.c **** }
 429:lvgl/src/widgets/lv_table.c **** 
ARM GAS  /var/folders/21/t9g5rlb91ys800n5npymflf80000gn/T//ccNiYEm1.s 			page 9


 430:lvgl/src/widgets/lv_table.c **** uint16_t lv_table_get_row_cnt(lv_obj_t * obj)
 431:lvgl/src/widgets/lv_table.c **** {
 432:lvgl/src/widgets/lv_table.c ****     LV_ASSERT_OBJ(obj, MY_CLASS);
 433:lvgl/src/widgets/lv_table.c **** 
 434:lvgl/src/widgets/lv_table.c ****     lv_table_t * table = (lv_table_t *)obj;
 435:lvgl/src/widgets/lv_table.c ****     return table->row_cnt;
 436:lvgl/src/widgets/lv_table.c **** }
 437:lvgl/src/widgets/lv_table.c **** 
 438:lvgl/src/widgets/lv_table.c **** uint16_t lv_table_get_col_cnt(lv_obj_t * obj)
 439:lvgl/src/widgets/lv_table.c **** {
 440:lvgl/src/widgets/lv_table.c ****     LV_ASSERT_OBJ(obj, MY_CLASS);
 441:lvgl/src/widgets/lv_table.c **** 
 442:lvgl/src/widgets/lv_table.c ****     lv_table_t * table = (lv_table_t *)obj;
 443:lvgl/src/widgets/lv_table.c ****     return table->col_cnt;
 444:lvgl/src/widgets/lv_table.c **** }
 445:lvgl/src/widgets/lv_table.c **** 
 446:lvgl/src/widgets/lv_table.c **** lv_coord_t lv_table_get_col_width(lv_obj_t * obj, uint16_t col)
 447:lvgl/src/widgets/lv_table.c **** {
 448:lvgl/src/widgets/lv_table.c ****     LV_ASSERT_OBJ(obj, MY_CLASS);
 449:lvgl/src/widgets/lv_table.c **** 
 450:lvgl/src/widgets/lv_table.c ****     lv_table_t * table = (lv_table_t *)obj;
 451:lvgl/src/widgets/lv_table.c **** 
 452:lvgl/src/widgets/lv_table.c ****     if(col >= table->col_cnt) {
 453:lvgl/src/widgets/lv_table.c ****         LV_LOG_WARN("lv_table_set_col_width: too big 'col_id'. Must be < LV_TABLE_COL_MAX.");
 454:lvgl/src/widgets/lv_table.c ****         return 0;
 455:lvgl/src/widgets/lv_table.c ****     }
 456:lvgl/src/widgets/lv_table.c **** 
 457:lvgl/src/widgets/lv_table.c ****     return table->col_w[col];
 458:lvgl/src/widgets/lv_table.c **** }
 459:lvgl/src/widgets/lv_table.c **** 
 460:lvgl/src/widgets/lv_table.c **** bool lv_table_has_cell_ctrl(lv_obj_t * obj, uint16_t row, uint16_t col, lv_table_cell_ctrl_t ctrl)
 461:lvgl/src/widgets/lv_table.c **** {
 462:lvgl/src/widgets/lv_table.c ****     LV_ASSERT_OBJ(obj, MY_CLASS);
 463:lvgl/src/widgets/lv_table.c **** 
 464:lvgl/src/widgets/lv_table.c ****     lv_table_t * table = (lv_table_t *)obj;
 465:lvgl/src/widgets/lv_table.c ****     if(row >= table->row_cnt || col >= table->col_cnt) {
 466:lvgl/src/widgets/lv_table.c ****         LV_LOG_WARN("lv_table_get_cell_crop: invalid row or column");
 467:lvgl/src/widgets/lv_table.c ****         return false;
 468:lvgl/src/widgets/lv_table.c ****     }
 469:lvgl/src/widgets/lv_table.c ****     uint32_t cell = row * table->col_cnt + col;
 470:lvgl/src/widgets/lv_table.c **** 
 471:lvgl/src/widgets/lv_table.c ****     if(is_cell_empty(table->cell_data[cell])) return false;
 472:lvgl/src/widgets/lv_table.c ****     else return (table->cell_data[cell]->ctrl & ctrl) == ctrl;
 473:lvgl/src/widgets/lv_table.c **** }
 474:lvgl/src/widgets/lv_table.c **** 
 475:lvgl/src/widgets/lv_table.c **** void lv_table_get_selected_cell(lv_obj_t * obj, uint16_t * row, uint16_t * col)
 476:lvgl/src/widgets/lv_table.c **** {
 477:lvgl/src/widgets/lv_table.c ****     lv_table_t * table = (lv_table_t *)obj;
 478:lvgl/src/widgets/lv_table.c ****     *row = table->row_act;
 479:lvgl/src/widgets/lv_table.c ****     *col = table->col_act;
 480:lvgl/src/widgets/lv_table.c **** }
 481:lvgl/src/widgets/lv_table.c **** 
 482:lvgl/src/widgets/lv_table.c **** #if LV_USE_USER_DATA
 483:lvgl/src/widgets/lv_table.c **** void * lv_table_get_cell_user_data(lv_obj_t * obj, uint16_t row, uint16_t col)
 484:lvgl/src/widgets/lv_table.c **** {
 485:lvgl/src/widgets/lv_table.c ****     LV_ASSERT_OBJ(obj, MY_CLASS);
 486:lvgl/src/widgets/lv_table.c **** 
ARM GAS  /var/folders/21/t9g5rlb91ys800n5npymflf80000gn/T//ccNiYEm1.s 			page 10


 487:lvgl/src/widgets/lv_table.c ****     lv_table_t * table = (lv_table_t *)obj;
 488:lvgl/src/widgets/lv_table.c ****     if(row >= table->row_cnt || col >= table->col_cnt) {
 489:lvgl/src/widgets/lv_table.c ****         LV_LOG_WARN("invalid row or column");
 490:lvgl/src/widgets/lv_table.c ****         return NULL;
 491:lvgl/src/widgets/lv_table.c ****     }
 492:lvgl/src/widgets/lv_table.c ****     uint32_t cell = row * table->col_cnt + col;
 493:lvgl/src/widgets/lv_table.c **** 
 494:lvgl/src/widgets/lv_table.c ****     if(is_cell_empty(table->cell_data[cell])) return NULL;
 495:lvgl/src/widgets/lv_table.c **** 
 496:lvgl/src/widgets/lv_table.c ****     return table->cell_data[cell]->user_data;
 497:lvgl/src/widgets/lv_table.c **** }
 498:lvgl/src/widgets/lv_table.c **** #endif
 499:lvgl/src/widgets/lv_table.c **** 
 500:lvgl/src/widgets/lv_table.c **** /**********************
 501:lvgl/src/widgets/lv_table.c ****  *   STATIC FUNCTIONS
 502:lvgl/src/widgets/lv_table.c ****  **********************/
 503:lvgl/src/widgets/lv_table.c **** 
 504:lvgl/src/widgets/lv_table.c **** static void lv_table_constructor(const lv_obj_class_t * class_p, lv_obj_t * obj)
 505:lvgl/src/widgets/lv_table.c **** {
 506:lvgl/src/widgets/lv_table.c ****     LV_UNUSED(class_p);
 507:lvgl/src/widgets/lv_table.c ****     LV_TRACE_OBJ_CREATE("begin");
 508:lvgl/src/widgets/lv_table.c **** 
 509:lvgl/src/widgets/lv_table.c ****     lv_table_t * table = (lv_table_t *)obj;
 510:lvgl/src/widgets/lv_table.c **** 
 511:lvgl/src/widgets/lv_table.c ****     table->col_cnt = 1;
 512:lvgl/src/widgets/lv_table.c ****     table->row_cnt = 1;
 513:lvgl/src/widgets/lv_table.c ****     table->col_w = lv_mem_alloc(table->col_cnt * sizeof(table->col_w[0]));
 514:lvgl/src/widgets/lv_table.c ****     table->row_h = lv_mem_alloc(table->row_cnt * sizeof(table->row_h[0]));
 515:lvgl/src/widgets/lv_table.c ****     table->col_w[0] = LV_DPI_DEF;
 516:lvgl/src/widgets/lv_table.c ****     table->row_h[0] = LV_DPI_DEF;
 517:lvgl/src/widgets/lv_table.c ****     table->cell_data = lv_mem_realloc(table->cell_data, table->row_cnt * table->col_cnt * sizeof(lv
 518:lvgl/src/widgets/lv_table.c ****     table->cell_data[0] = NULL;
 519:lvgl/src/widgets/lv_table.c **** 
 520:lvgl/src/widgets/lv_table.c ****     LV_TRACE_OBJ_CREATE("finished");
 521:lvgl/src/widgets/lv_table.c **** }
 522:lvgl/src/widgets/lv_table.c **** 
 523:lvgl/src/widgets/lv_table.c **** static void lv_table_destructor(const lv_obj_class_t * class_p, lv_obj_t * obj)
 524:lvgl/src/widgets/lv_table.c **** {
 525:lvgl/src/widgets/lv_table.c ****     LV_UNUSED(class_p);
 526:lvgl/src/widgets/lv_table.c ****     lv_table_t * table = (lv_table_t *)obj;
 527:lvgl/src/widgets/lv_table.c ****     /*Free the cell texts*/
 528:lvgl/src/widgets/lv_table.c ****     uint16_t i;
 529:lvgl/src/widgets/lv_table.c ****     for(i = 0; i < table->col_cnt * table->row_cnt; i++) {
 530:lvgl/src/widgets/lv_table.c ****         if(table->cell_data[i]) {
 531:lvgl/src/widgets/lv_table.c **** #if LV_USE_USER_DATA
 532:lvgl/src/widgets/lv_table.c ****             if(table->cell_data[i]->user_data) {
 533:lvgl/src/widgets/lv_table.c ****                 lv_mem_free(table->cell_data[i]->user_data);
 534:lvgl/src/widgets/lv_table.c ****                 table->cell_data[i]->user_data = NULL;
 535:lvgl/src/widgets/lv_table.c ****             }
 536:lvgl/src/widgets/lv_table.c **** #endif
 537:lvgl/src/widgets/lv_table.c ****             lv_mem_free(table->cell_data[i]);
 538:lvgl/src/widgets/lv_table.c ****             table->cell_data[i] = NULL;
 539:lvgl/src/widgets/lv_table.c ****         }
 540:lvgl/src/widgets/lv_table.c ****     }
 541:lvgl/src/widgets/lv_table.c **** 
 542:lvgl/src/widgets/lv_table.c ****     if(table->cell_data) lv_mem_free(table->cell_data);
 543:lvgl/src/widgets/lv_table.c ****     if(table->row_h) lv_mem_free(table->row_h);
ARM GAS  /var/folders/21/t9g5rlb91ys800n5npymflf80000gn/T//ccNiYEm1.s 			page 11


 544:lvgl/src/widgets/lv_table.c ****     if(table->col_w) lv_mem_free(table->col_w);
 545:lvgl/src/widgets/lv_table.c **** }
 546:lvgl/src/widgets/lv_table.c **** 
 547:lvgl/src/widgets/lv_table.c **** static void lv_table_event(const lv_obj_class_t * class_p, lv_event_t * e)
 548:lvgl/src/widgets/lv_table.c **** {
 549:lvgl/src/widgets/lv_table.c ****     LV_UNUSED(class_p);
 550:lvgl/src/widgets/lv_table.c **** 
 551:lvgl/src/widgets/lv_table.c ****     lv_res_t res;
 552:lvgl/src/widgets/lv_table.c **** 
 553:lvgl/src/widgets/lv_table.c ****     /*Call the ancestor's event handler*/
 554:lvgl/src/widgets/lv_table.c ****     res = lv_obj_event_base(MY_CLASS, e);
 555:lvgl/src/widgets/lv_table.c ****     if(res != LV_RES_OK) return;
 556:lvgl/src/widgets/lv_table.c **** 
 557:lvgl/src/widgets/lv_table.c ****     lv_event_code_t code = lv_event_get_code(e);
 558:lvgl/src/widgets/lv_table.c ****     lv_obj_t * obj = lv_event_get_target(e);
 559:lvgl/src/widgets/lv_table.c ****     lv_table_t * table = (lv_table_t *)obj;
 560:lvgl/src/widgets/lv_table.c **** 
 561:lvgl/src/widgets/lv_table.c ****     if(code == LV_EVENT_STYLE_CHANGED) {
 562:lvgl/src/widgets/lv_table.c ****         refr_size_form_row(obj, 0);
 563:lvgl/src/widgets/lv_table.c ****     }
 564:lvgl/src/widgets/lv_table.c ****     else if(code == LV_EVENT_GET_SELF_SIZE) {
 565:lvgl/src/widgets/lv_table.c ****         lv_point_t * p = lv_event_get_param(e);
 566:lvgl/src/widgets/lv_table.c ****         uint32_t i;
 567:lvgl/src/widgets/lv_table.c ****         lv_coord_t w = 0;
 568:lvgl/src/widgets/lv_table.c ****         for(i = 0; i < table->col_cnt; i++) w += table->col_w[i];
 569:lvgl/src/widgets/lv_table.c **** 
 570:lvgl/src/widgets/lv_table.c ****         lv_coord_t h = 0;
 571:lvgl/src/widgets/lv_table.c ****         for(i = 0; i < table->row_cnt; i++) h += table->row_h[i];
 572:lvgl/src/widgets/lv_table.c **** 
 573:lvgl/src/widgets/lv_table.c ****         p->x = w - 1;
 574:lvgl/src/widgets/lv_table.c ****         p->y = h - 1;
 575:lvgl/src/widgets/lv_table.c ****     }
 576:lvgl/src/widgets/lv_table.c ****     else if(code == LV_EVENT_PRESSED || code == LV_EVENT_PRESSING) {
 577:lvgl/src/widgets/lv_table.c ****         uint16_t col;
 578:lvgl/src/widgets/lv_table.c ****         uint16_t row;
 579:lvgl/src/widgets/lv_table.c ****         lv_res_t pr_res = get_pressed_cell(obj, &row, &col);
 580:lvgl/src/widgets/lv_table.c **** 
 581:lvgl/src/widgets/lv_table.c ****         if(pr_res == LV_RES_OK && (table->col_act != col || table->row_act != row)) {
 582:lvgl/src/widgets/lv_table.c ****             table->col_act = col;
 583:lvgl/src/widgets/lv_table.c ****             table->row_act = row;
 584:lvgl/src/widgets/lv_table.c ****             lv_obj_invalidate(obj);
 585:lvgl/src/widgets/lv_table.c ****         }
 586:lvgl/src/widgets/lv_table.c ****     }
 587:lvgl/src/widgets/lv_table.c ****     else if(code == LV_EVENT_RELEASED) {
 588:lvgl/src/widgets/lv_table.c ****         lv_obj_invalidate(obj);
 589:lvgl/src/widgets/lv_table.c ****         lv_indev_t * indev = lv_indev_get_act();
 590:lvgl/src/widgets/lv_table.c ****         lv_obj_t * scroll_obj = lv_indev_get_scroll_obj(indev);
 591:lvgl/src/widgets/lv_table.c ****         if(table->col_act != LV_TABLE_CELL_NONE && table->row_act != LV_TABLE_CELL_NONE && scroll_o
 592:lvgl/src/widgets/lv_table.c ****             res = lv_event_send(obj, LV_EVENT_VALUE_CHANGED, NULL);
 593:lvgl/src/widgets/lv_table.c ****             if(res != LV_RES_OK) return;
 594:lvgl/src/widgets/lv_table.c ****         }
 595:lvgl/src/widgets/lv_table.c **** 
 596:lvgl/src/widgets/lv_table.c ****         lv_indev_type_t indev_type = lv_indev_get_type(lv_indev_get_act());
 597:lvgl/src/widgets/lv_table.c ****         if(indev_type == LV_INDEV_TYPE_POINTER || indev_type == LV_INDEV_TYPE_BUTTON) {
 598:lvgl/src/widgets/lv_table.c ****             table->col_act = LV_TABLE_CELL_NONE;
 599:lvgl/src/widgets/lv_table.c ****             table->row_act = LV_TABLE_CELL_NONE;
 600:lvgl/src/widgets/lv_table.c ****         }
ARM GAS  /var/folders/21/t9g5rlb91ys800n5npymflf80000gn/T//ccNiYEm1.s 			page 12


 601:lvgl/src/widgets/lv_table.c ****     }
 602:lvgl/src/widgets/lv_table.c ****     else if(code == LV_EVENT_FOCUSED) {
 603:lvgl/src/widgets/lv_table.c ****         lv_obj_invalidate(obj);
 604:lvgl/src/widgets/lv_table.c ****     }
 605:lvgl/src/widgets/lv_table.c ****     else if(code == LV_EVENT_KEY) {
 606:lvgl/src/widgets/lv_table.c ****         int32_t c = *((int32_t *)lv_event_get_param(e));
 607:lvgl/src/widgets/lv_table.c ****         int32_t col = table->col_act;
 608:lvgl/src/widgets/lv_table.c ****         int32_t row = table->row_act;
 609:lvgl/src/widgets/lv_table.c ****         if(col == LV_TABLE_CELL_NONE || row == LV_TABLE_CELL_NONE) {
 610:lvgl/src/widgets/lv_table.c ****             table->col_act = 0;
 611:lvgl/src/widgets/lv_table.c ****             table->row_act = 0;
 612:lvgl/src/widgets/lv_table.c ****             scroll_to_selected_cell(obj);
 613:lvgl/src/widgets/lv_table.c ****             lv_obj_invalidate(obj);
 614:lvgl/src/widgets/lv_table.c ****             return;
 615:lvgl/src/widgets/lv_table.c ****         }
 616:lvgl/src/widgets/lv_table.c **** 
 617:lvgl/src/widgets/lv_table.c ****         if(col >= table->col_cnt) col = 0;
 618:lvgl/src/widgets/lv_table.c ****         if(row >= table->row_cnt) row = 0;
 619:lvgl/src/widgets/lv_table.c **** 
 620:lvgl/src/widgets/lv_table.c ****         if(c == LV_KEY_LEFT) col--;
 621:lvgl/src/widgets/lv_table.c ****         else if(c == LV_KEY_RIGHT) col++;
 622:lvgl/src/widgets/lv_table.c ****         else if(c == LV_KEY_UP) row--;
 623:lvgl/src/widgets/lv_table.c ****         else if(c == LV_KEY_DOWN) row++;
 624:lvgl/src/widgets/lv_table.c ****         else return;
 625:lvgl/src/widgets/lv_table.c **** 
 626:lvgl/src/widgets/lv_table.c ****         if(col >= table->col_cnt) {
 627:lvgl/src/widgets/lv_table.c ****             if(row < table->row_cnt - 1) {
 628:lvgl/src/widgets/lv_table.c ****                 col = 0;
 629:lvgl/src/widgets/lv_table.c ****                 row++;
 630:lvgl/src/widgets/lv_table.c ****             }
 631:lvgl/src/widgets/lv_table.c ****             else {
 632:lvgl/src/widgets/lv_table.c ****                 col = table->col_cnt - 1;
 633:lvgl/src/widgets/lv_table.c ****             }
 634:lvgl/src/widgets/lv_table.c ****         }
 635:lvgl/src/widgets/lv_table.c ****         else if(col < 0) {
 636:lvgl/src/widgets/lv_table.c ****             if(row != 0) {
 637:lvgl/src/widgets/lv_table.c ****                 col = table->col_cnt - 1;
 638:lvgl/src/widgets/lv_table.c ****                 row--;
 639:lvgl/src/widgets/lv_table.c ****             }
 640:lvgl/src/widgets/lv_table.c ****             else {
 641:lvgl/src/widgets/lv_table.c ****                 col = 0;
 642:lvgl/src/widgets/lv_table.c ****             }
 643:lvgl/src/widgets/lv_table.c ****         }
 644:lvgl/src/widgets/lv_table.c **** 
 645:lvgl/src/widgets/lv_table.c ****         if(row >= table->row_cnt) {
 646:lvgl/src/widgets/lv_table.c ****             row = table->row_cnt - 1;
 647:lvgl/src/widgets/lv_table.c ****         }
 648:lvgl/src/widgets/lv_table.c ****         else if(row < 0) {
 649:lvgl/src/widgets/lv_table.c ****             row = 0;
 650:lvgl/src/widgets/lv_table.c ****         }
 651:lvgl/src/widgets/lv_table.c **** 
 652:lvgl/src/widgets/lv_table.c ****         if(table->col_act != col || table->row_act != row) {
 653:lvgl/src/widgets/lv_table.c ****             table->col_act = col;
 654:lvgl/src/widgets/lv_table.c ****             table->row_act = row;
 655:lvgl/src/widgets/lv_table.c ****             lv_obj_invalidate(obj);
 656:lvgl/src/widgets/lv_table.c **** 
 657:lvgl/src/widgets/lv_table.c ****             scroll_to_selected_cell(obj);
ARM GAS  /var/folders/21/t9g5rlb91ys800n5npymflf80000gn/T//ccNiYEm1.s 			page 13


 658:lvgl/src/widgets/lv_table.c **** 
 659:lvgl/src/widgets/lv_table.c ****             res = lv_event_send(obj, LV_EVENT_VALUE_CHANGED, NULL);
 660:lvgl/src/widgets/lv_table.c ****             if(res != LV_RES_OK) return;
 661:lvgl/src/widgets/lv_table.c ****         }
 662:lvgl/src/widgets/lv_table.c ****     }
 663:lvgl/src/widgets/lv_table.c ****     else if(code == LV_EVENT_DRAW_MAIN) {
 664:lvgl/src/widgets/lv_table.c ****         draw_main(e);
 665:lvgl/src/widgets/lv_table.c ****     }
 666:lvgl/src/widgets/lv_table.c **** }
 667:lvgl/src/widgets/lv_table.c **** 
 668:lvgl/src/widgets/lv_table.c **** static void draw_main(lv_event_t * e)
 669:lvgl/src/widgets/lv_table.c **** {
 670:lvgl/src/widgets/lv_table.c ****     lv_obj_t * obj = lv_event_get_target(e);
 671:lvgl/src/widgets/lv_table.c ****     lv_table_t * table = (lv_table_t *)obj;
 672:lvgl/src/widgets/lv_table.c ****     lv_draw_ctx_t * draw_ctx = lv_event_get_draw_ctx(e);
 673:lvgl/src/widgets/lv_table.c ****     lv_area_t clip_area;
 674:lvgl/src/widgets/lv_table.c ****     if(!_lv_area_intersect(&clip_area, &obj->coords, draw_ctx->clip_area)) return;
 675:lvgl/src/widgets/lv_table.c **** 
 676:lvgl/src/widgets/lv_table.c ****     const lv_area_t * clip_area_ori = draw_ctx->clip_area;
 677:lvgl/src/widgets/lv_table.c ****     draw_ctx->clip_area = &clip_area;
 678:lvgl/src/widgets/lv_table.c **** 
 679:lvgl/src/widgets/lv_table.c ****     lv_point_t txt_size;
 680:lvgl/src/widgets/lv_table.c ****     lv_area_t cell_area;
 681:lvgl/src/widgets/lv_table.c **** 
 682:lvgl/src/widgets/lv_table.c ****     lv_coord_t border_width = lv_obj_get_style_border_width(obj, LV_PART_MAIN);
 683:lvgl/src/widgets/lv_table.c ****     lv_coord_t bg_top = lv_obj_get_style_pad_top(obj, LV_PART_MAIN);
 684:lvgl/src/widgets/lv_table.c ****     lv_coord_t bg_bottom = lv_obj_get_style_pad_bottom(obj, LV_PART_MAIN);
 685:lvgl/src/widgets/lv_table.c ****     lv_coord_t bg_left = lv_obj_get_style_pad_left(obj, LV_PART_MAIN);
 686:lvgl/src/widgets/lv_table.c ****     lv_coord_t bg_right = lv_obj_get_style_pad_right(obj, LV_PART_MAIN);
 687:lvgl/src/widgets/lv_table.c **** 
 688:lvgl/src/widgets/lv_table.c ****     lv_state_t state_ori = obj->state;
 689:lvgl/src/widgets/lv_table.c ****     obj->state = LV_STATE_DEFAULT;
 690:lvgl/src/widgets/lv_table.c ****     obj->skip_trans = 1;
 691:lvgl/src/widgets/lv_table.c ****     lv_draw_rect_dsc_t rect_dsc_def;
 692:lvgl/src/widgets/lv_table.c ****     lv_draw_rect_dsc_t rect_dsc_act; /*Passed to the event to modify it*/
 693:lvgl/src/widgets/lv_table.c ****     lv_draw_rect_dsc_init(&rect_dsc_def);
 694:lvgl/src/widgets/lv_table.c ****     lv_obj_init_draw_rect_dsc(obj, LV_PART_ITEMS, &rect_dsc_def);
 695:lvgl/src/widgets/lv_table.c **** 
 696:lvgl/src/widgets/lv_table.c ****     lv_draw_label_dsc_t label_dsc_def;
 697:lvgl/src/widgets/lv_table.c ****     lv_draw_label_dsc_t label_dsc_act;  /*Passed to the event to modify it*/
 698:lvgl/src/widgets/lv_table.c ****     lv_draw_label_dsc_init(&label_dsc_def);
 699:lvgl/src/widgets/lv_table.c ****     lv_obj_init_draw_label_dsc(obj, LV_PART_ITEMS, &label_dsc_def);
 700:lvgl/src/widgets/lv_table.c ****     obj->state = state_ori;
 701:lvgl/src/widgets/lv_table.c ****     obj->skip_trans = 0;
 702:lvgl/src/widgets/lv_table.c **** 
 703:lvgl/src/widgets/lv_table.c ****     uint16_t col;
 704:lvgl/src/widgets/lv_table.c ****     uint16_t row;
 705:lvgl/src/widgets/lv_table.c ****     uint16_t cell = 0;
 706:lvgl/src/widgets/lv_table.c **** 
 707:lvgl/src/widgets/lv_table.c ****     cell_area.y2 = obj->coords.y1 + bg_top - 1 - lv_obj_get_scroll_y(obj) + border_width;
 708:lvgl/src/widgets/lv_table.c ****     lv_coord_t scroll_x = lv_obj_get_scroll_x(obj) ;
 709:lvgl/src/widgets/lv_table.c ****     bool rtl = lv_obj_get_style_base_dir(obj, LV_PART_MAIN) == LV_BASE_DIR_RTL;
 710:lvgl/src/widgets/lv_table.c **** 
 711:lvgl/src/widgets/lv_table.c ****     /*Handle custom drawer*/
 712:lvgl/src/widgets/lv_table.c ****     lv_obj_draw_part_dsc_t part_draw_dsc;
 713:lvgl/src/widgets/lv_table.c ****     lv_obj_draw_dsc_init(&part_draw_dsc, draw_ctx);
 714:lvgl/src/widgets/lv_table.c ****     part_draw_dsc.part = LV_PART_ITEMS;
ARM GAS  /var/folders/21/t9g5rlb91ys800n5npymflf80000gn/T//ccNiYEm1.s 			page 14


 715:lvgl/src/widgets/lv_table.c ****     part_draw_dsc.class_p = MY_CLASS;
 716:lvgl/src/widgets/lv_table.c ****     part_draw_dsc.type = LV_TABLE_DRAW_PART_CELL;
 717:lvgl/src/widgets/lv_table.c ****     part_draw_dsc.rect_dsc = &rect_dsc_act;
 718:lvgl/src/widgets/lv_table.c ****     part_draw_dsc.label_dsc = &label_dsc_act;
 719:lvgl/src/widgets/lv_table.c **** 
 720:lvgl/src/widgets/lv_table.c ****     for(row = 0; row < table->row_cnt; row++) {
 721:lvgl/src/widgets/lv_table.c ****         lv_coord_t h_row = table->row_h[row];
 722:lvgl/src/widgets/lv_table.c **** 
 723:lvgl/src/widgets/lv_table.c ****         cell_area.y1 = cell_area.y2 + 1;
 724:lvgl/src/widgets/lv_table.c ****         cell_area.y2 = cell_area.y1 + h_row - 1;
 725:lvgl/src/widgets/lv_table.c **** 
 726:lvgl/src/widgets/lv_table.c ****         if(cell_area.y1 > clip_area.y2) break;
 727:lvgl/src/widgets/lv_table.c **** 
 728:lvgl/src/widgets/lv_table.c ****         if(rtl) cell_area.x1 = obj->coords.x2 - bg_right - 1 - scroll_x - border_width;
 729:lvgl/src/widgets/lv_table.c ****         else cell_area.x2 = obj->coords.x1 + bg_left - 1 - scroll_x + border_width;
 730:lvgl/src/widgets/lv_table.c **** 
 731:lvgl/src/widgets/lv_table.c ****         for(col = 0; col < table->col_cnt; col++) {
 732:lvgl/src/widgets/lv_table.c ****             lv_table_cell_ctrl_t ctrl = 0;
 733:lvgl/src/widgets/lv_table.c ****             if(table->cell_data[cell]) ctrl = table->cell_data[cell]->ctrl;
 734:lvgl/src/widgets/lv_table.c **** 
 735:lvgl/src/widgets/lv_table.c ****             if(rtl) {
 736:lvgl/src/widgets/lv_table.c ****                 cell_area.x2 = cell_area.x1 - 1;
 737:lvgl/src/widgets/lv_table.c ****                 cell_area.x1 = cell_area.x2 - table->col_w[col] + 1;
 738:lvgl/src/widgets/lv_table.c ****             }
 739:lvgl/src/widgets/lv_table.c ****             else {
 740:lvgl/src/widgets/lv_table.c ****                 cell_area.x1 = cell_area.x2 + 1;
 741:lvgl/src/widgets/lv_table.c ****                 cell_area.x2 = cell_area.x1 + table->col_w[col] - 1;
 742:lvgl/src/widgets/lv_table.c ****             }
 743:lvgl/src/widgets/lv_table.c **** 
 744:lvgl/src/widgets/lv_table.c ****             uint16_t col_merge = 0;
 745:lvgl/src/widgets/lv_table.c ****             for(col_merge = 0; col_merge + col < table->col_cnt - 1; col_merge++) {
 746:lvgl/src/widgets/lv_table.c ****                 lv_table_cell_t * next_cell_data = table->cell_data[cell + col_merge];
 747:lvgl/src/widgets/lv_table.c **** 
 748:lvgl/src/widgets/lv_table.c ****                 if(is_cell_empty(next_cell_data)) break;
 749:lvgl/src/widgets/lv_table.c **** 
 750:lvgl/src/widgets/lv_table.c ****                 lv_table_cell_ctrl_t merge_ctrl = (lv_table_cell_ctrl_t) next_cell_data->ctrl;
 751:lvgl/src/widgets/lv_table.c ****                 if(merge_ctrl & LV_TABLE_CELL_CTRL_MERGE_RIGHT) {
 752:lvgl/src/widgets/lv_table.c ****                     lv_coord_t offset = table->col_w[col + col_merge + 1];
 753:lvgl/src/widgets/lv_table.c **** 
 754:lvgl/src/widgets/lv_table.c ****                     if(rtl) cell_area.x1 -= offset;
 755:lvgl/src/widgets/lv_table.c ****                     else cell_area.x2 += offset;
 756:lvgl/src/widgets/lv_table.c ****                 }
 757:lvgl/src/widgets/lv_table.c ****                 else {
 758:lvgl/src/widgets/lv_table.c ****                     break;
 759:lvgl/src/widgets/lv_table.c ****                 }
 760:lvgl/src/widgets/lv_table.c ****             }
 761:lvgl/src/widgets/lv_table.c **** 
 762:lvgl/src/widgets/lv_table.c ****             if(cell_area.y2 < clip_area.y1) {
 763:lvgl/src/widgets/lv_table.c ****                 cell += col_merge + 1;
 764:lvgl/src/widgets/lv_table.c ****                 col += col_merge;
 765:lvgl/src/widgets/lv_table.c ****                 continue;
 766:lvgl/src/widgets/lv_table.c ****             }
 767:lvgl/src/widgets/lv_table.c **** 
 768:lvgl/src/widgets/lv_table.c ****             /*Expand the cell area with a half border to avoid drawing 2 borders next to each other
 769:lvgl/src/widgets/lv_table.c ****             lv_area_t cell_area_border;
 770:lvgl/src/widgets/lv_table.c ****             lv_area_copy(&cell_area_border, &cell_area);
 771:lvgl/src/widgets/lv_table.c ****             if((rect_dsc_def.border_side & LV_BORDER_SIDE_LEFT) && cell_area_border.x1 > obj->coord
ARM GAS  /var/folders/21/t9g5rlb91ys800n5npymflf80000gn/T//ccNiYEm1.s 			page 15


 772:lvgl/src/widgets/lv_table.c ****                 cell_area_border.x1 -= rect_dsc_def.border_width / 2;
 773:lvgl/src/widgets/lv_table.c ****             }
 774:lvgl/src/widgets/lv_table.c ****             if((rect_dsc_def.border_side & LV_BORDER_SIDE_TOP) && cell_area_border.y1 > obj->coords
 775:lvgl/src/widgets/lv_table.c ****                 cell_area_border.y1 -= rect_dsc_def.border_width / 2;
 776:lvgl/src/widgets/lv_table.c ****             }
 777:lvgl/src/widgets/lv_table.c ****             if((rect_dsc_def.border_side & LV_BORDER_SIDE_RIGHT) && cell_area_border.x2 < obj->coor
 778:lvgl/src/widgets/lv_table.c ****                 cell_area_border.x2 += rect_dsc_def.border_width / 2 + (rect_dsc_def.border_width &
 779:lvgl/src/widgets/lv_table.c ****             }
 780:lvgl/src/widgets/lv_table.c ****             if((rect_dsc_def.border_side & LV_BORDER_SIDE_BOTTOM) &&
 781:lvgl/src/widgets/lv_table.c ****                cell_area_border.y2 < obj->coords.y2 - bg_bottom - 1) {
 782:lvgl/src/widgets/lv_table.c ****                 cell_area_border.y2 += rect_dsc_def.border_width / 2 + (rect_dsc_def.border_width &
 783:lvgl/src/widgets/lv_table.c ****             }
 784:lvgl/src/widgets/lv_table.c **** 
 785:lvgl/src/widgets/lv_table.c ****             lv_state_t cell_state = LV_STATE_DEFAULT;
 786:lvgl/src/widgets/lv_table.c ****             if(row == table->row_act && col == table->col_act) {
 787:lvgl/src/widgets/lv_table.c ****                 if(!(obj->state & LV_STATE_SCROLLED) && (obj->state & LV_STATE_PRESSED)) cell_state
 788:lvgl/src/widgets/lv_table.c ****                 if(obj->state & LV_STATE_FOCUSED) cell_state |= LV_STATE_FOCUSED;
 789:lvgl/src/widgets/lv_table.c ****                 if(obj->state & LV_STATE_FOCUS_KEY) cell_state |= LV_STATE_FOCUS_KEY;
 790:lvgl/src/widgets/lv_table.c ****                 if(obj->state & LV_STATE_EDITED) cell_state |= LV_STATE_EDITED;
 791:lvgl/src/widgets/lv_table.c ****             }
 792:lvgl/src/widgets/lv_table.c **** 
 793:lvgl/src/widgets/lv_table.c ****             /*Set up the draw descriptors*/
 794:lvgl/src/widgets/lv_table.c ****             if(cell_state == LV_STATE_DEFAULT) {
 795:lvgl/src/widgets/lv_table.c ****                 lv_memcpy(&rect_dsc_act, &rect_dsc_def, sizeof(lv_draw_rect_dsc_t));
 796:lvgl/src/widgets/lv_table.c ****                 lv_memcpy(&label_dsc_act, &label_dsc_def, sizeof(lv_draw_label_dsc_t));
 797:lvgl/src/widgets/lv_table.c ****             }
 798:lvgl/src/widgets/lv_table.c ****             /*In other cases get the styles directly without caching them*/
 799:lvgl/src/widgets/lv_table.c ****             else {
 800:lvgl/src/widgets/lv_table.c ****                 obj->state = cell_state;
 801:lvgl/src/widgets/lv_table.c ****                 obj->skip_trans = 1;
 802:lvgl/src/widgets/lv_table.c ****                 lv_draw_rect_dsc_init(&rect_dsc_act);
 803:lvgl/src/widgets/lv_table.c ****                 lv_draw_label_dsc_init(&label_dsc_act);
 804:lvgl/src/widgets/lv_table.c ****                 lv_obj_init_draw_rect_dsc(obj, LV_PART_ITEMS, &rect_dsc_act);
 805:lvgl/src/widgets/lv_table.c ****                 lv_obj_init_draw_label_dsc(obj, LV_PART_ITEMS, &label_dsc_act);
 806:lvgl/src/widgets/lv_table.c ****                 obj->state = state_ori;
 807:lvgl/src/widgets/lv_table.c ****                 obj->skip_trans = 0;
 808:lvgl/src/widgets/lv_table.c ****             }
 809:lvgl/src/widgets/lv_table.c **** 
 810:lvgl/src/widgets/lv_table.c ****             part_draw_dsc.draw_area = &cell_area_border;
 811:lvgl/src/widgets/lv_table.c ****             part_draw_dsc.id = row * table->col_cnt + col;
 812:lvgl/src/widgets/lv_table.c ****             lv_event_send(obj, LV_EVENT_DRAW_PART_BEGIN, &part_draw_dsc);
 813:lvgl/src/widgets/lv_table.c **** 
 814:lvgl/src/widgets/lv_table.c ****             lv_draw_rect(draw_ctx, &rect_dsc_act, &cell_area_border);
 815:lvgl/src/widgets/lv_table.c **** 
 816:lvgl/src/widgets/lv_table.c ****             if(table->cell_data[cell]) {
 817:lvgl/src/widgets/lv_table.c ****                 const lv_coord_t cell_left = lv_obj_get_style_pad_left(obj, LV_PART_ITEMS);
 818:lvgl/src/widgets/lv_table.c ****                 const lv_coord_t cell_right = lv_obj_get_style_pad_right(obj, LV_PART_ITEMS);
 819:lvgl/src/widgets/lv_table.c ****                 const lv_coord_t cell_top = lv_obj_get_style_pad_top(obj, LV_PART_ITEMS);
 820:lvgl/src/widgets/lv_table.c ****                 const lv_coord_t cell_bottom = lv_obj_get_style_pad_bottom(obj, LV_PART_ITEMS);
 821:lvgl/src/widgets/lv_table.c ****                 lv_text_flag_t txt_flags = LV_TEXT_FLAG_NONE;
 822:lvgl/src/widgets/lv_table.c ****                 lv_area_t txt_area;
 823:lvgl/src/widgets/lv_table.c **** 
 824:lvgl/src/widgets/lv_table.c ****                 txt_area.x1 = cell_area.x1 + cell_left;
 825:lvgl/src/widgets/lv_table.c ****                 txt_area.x2 = cell_area.x2 - cell_right;
 826:lvgl/src/widgets/lv_table.c ****                 txt_area.y1 = cell_area.y1 + cell_top;
 827:lvgl/src/widgets/lv_table.c ****                 txt_area.y2 = cell_area.y2 - cell_bottom;
 828:lvgl/src/widgets/lv_table.c **** 
ARM GAS  /var/folders/21/t9g5rlb91ys800n5npymflf80000gn/T//ccNiYEm1.s 			page 16


 829:lvgl/src/widgets/lv_table.c ****                 /*Align the content to the middle if not cropped*/
 830:lvgl/src/widgets/lv_table.c ****                 bool crop = ctrl & LV_TABLE_CELL_CTRL_TEXT_CROP ? true : false;
 831:lvgl/src/widgets/lv_table.c ****                 if(crop) txt_flags = LV_TEXT_FLAG_EXPAND;
 832:lvgl/src/widgets/lv_table.c **** 
 833:lvgl/src/widgets/lv_table.c ****                 lv_txt_get_size(&txt_size, table->cell_data[cell]->txt, label_dsc_def.font,
 834:lvgl/src/widgets/lv_table.c ****                                 label_dsc_act.letter_space, label_dsc_act.line_space,
 835:lvgl/src/widgets/lv_table.c ****                                 lv_area_get_width(&txt_area), txt_flags);
 836:lvgl/src/widgets/lv_table.c **** 
 837:lvgl/src/widgets/lv_table.c ****                 /*Align the content to the middle if not cropped*/
 838:lvgl/src/widgets/lv_table.c ****                 if(!crop) {
 839:lvgl/src/widgets/lv_table.c ****                     txt_area.y1 = cell_area.y1 + h_row / 2 - txt_size.y / 2;
 840:lvgl/src/widgets/lv_table.c ****                     txt_area.y2 = cell_area.y1 + h_row / 2 + txt_size.y / 2;
 841:lvgl/src/widgets/lv_table.c ****                 }
 842:lvgl/src/widgets/lv_table.c **** 
 843:lvgl/src/widgets/lv_table.c ****                 lv_area_t label_clip_area;
 844:lvgl/src/widgets/lv_table.c ****                 bool label_mask_ok;
 845:lvgl/src/widgets/lv_table.c ****                 label_mask_ok = _lv_area_intersect(&label_clip_area, &clip_area, &cell_area);
 846:lvgl/src/widgets/lv_table.c ****                 if(label_mask_ok) {
 847:lvgl/src/widgets/lv_table.c ****                     draw_ctx->clip_area = &label_clip_area;
 848:lvgl/src/widgets/lv_table.c ****                     lv_draw_label(draw_ctx, &label_dsc_act, &txt_area, table->cell_data[cell]->txt,
 849:lvgl/src/widgets/lv_table.c ****                     draw_ctx->clip_area = &clip_area;
 850:lvgl/src/widgets/lv_table.c ****                 }
 851:lvgl/src/widgets/lv_table.c ****             }
 852:lvgl/src/widgets/lv_table.c **** 
 853:lvgl/src/widgets/lv_table.c ****             lv_event_send(obj, LV_EVENT_DRAW_PART_END, &part_draw_dsc);
 854:lvgl/src/widgets/lv_table.c **** 
 855:lvgl/src/widgets/lv_table.c ****             cell += col_merge + 1;
 856:lvgl/src/widgets/lv_table.c ****             col += col_merge;
 857:lvgl/src/widgets/lv_table.c ****         }
 858:lvgl/src/widgets/lv_table.c ****     }
 859:lvgl/src/widgets/lv_table.c **** 
 860:lvgl/src/widgets/lv_table.c ****     draw_ctx->clip_area = clip_area_ori;
 861:lvgl/src/widgets/lv_table.c **** }
 862:lvgl/src/widgets/lv_table.c **** 
 863:lvgl/src/widgets/lv_table.c **** /* Refreshes size of the table starting from @start_row row */
 864:lvgl/src/widgets/lv_table.c **** static void refr_size_form_row(lv_obj_t * obj, uint32_t start_row)
 865:lvgl/src/widgets/lv_table.c **** {
 866:lvgl/src/widgets/lv_table.c ****     const lv_coord_t cell_pad_left = lv_obj_get_style_pad_left(obj, LV_PART_ITEMS);
 867:lvgl/src/widgets/lv_table.c ****     const lv_coord_t cell_pad_right = lv_obj_get_style_pad_right(obj, LV_PART_ITEMS);
 868:lvgl/src/widgets/lv_table.c ****     const lv_coord_t cell_pad_top = lv_obj_get_style_pad_top(obj, LV_PART_ITEMS);
 869:lvgl/src/widgets/lv_table.c ****     const lv_coord_t cell_pad_bottom = lv_obj_get_style_pad_bottom(obj, LV_PART_ITEMS);
 870:lvgl/src/widgets/lv_table.c **** 
 871:lvgl/src/widgets/lv_table.c ****     lv_coord_t letter_space = lv_obj_get_style_text_letter_space(obj, LV_PART_ITEMS);
 872:lvgl/src/widgets/lv_table.c ****     lv_coord_t line_space = lv_obj_get_style_text_line_space(obj, LV_PART_ITEMS);
 873:lvgl/src/widgets/lv_table.c ****     const lv_font_t * font = lv_obj_get_style_text_font(obj, LV_PART_ITEMS);
 874:lvgl/src/widgets/lv_table.c **** 
 875:lvgl/src/widgets/lv_table.c ****     const lv_coord_t minh = lv_obj_get_style_min_height(obj, LV_PART_ITEMS);
 876:lvgl/src/widgets/lv_table.c ****     const lv_coord_t maxh = lv_obj_get_style_max_height(obj, LV_PART_ITEMS);
 877:lvgl/src/widgets/lv_table.c **** 
 878:lvgl/src/widgets/lv_table.c ****     lv_table_t * table = (lv_table_t *)obj;
 879:lvgl/src/widgets/lv_table.c ****     uint32_t i;
 880:lvgl/src/widgets/lv_table.c ****     for(i = start_row; i < table->row_cnt; i++) {
 881:lvgl/src/widgets/lv_table.c ****         lv_coord_t calculated_height = get_row_height(obj, i, font, letter_space, line_space,
 882:lvgl/src/widgets/lv_table.c ****                                                       cell_pad_left, cell_pad_right, cell_pad_top, 
 883:lvgl/src/widgets/lv_table.c ****         table->row_h[i] = LV_CLAMP(minh, calculated_height, maxh);
 884:lvgl/src/widgets/lv_table.c ****     }
 885:lvgl/src/widgets/lv_table.c **** 
ARM GAS  /var/folders/21/t9g5rlb91ys800n5npymflf80000gn/T//ccNiYEm1.s 			page 17


 886:lvgl/src/widgets/lv_table.c ****     lv_obj_refresh_self_size(obj);
 887:lvgl/src/widgets/lv_table.c ****     lv_obj_invalidate(obj);
 888:lvgl/src/widgets/lv_table.c **** }
 889:lvgl/src/widgets/lv_table.c **** 
 890:lvgl/src/widgets/lv_table.c **** static void refr_cell_size(lv_obj_t * obj, uint32_t row, uint32_t col)
 891:lvgl/src/widgets/lv_table.c **** {
 892:lvgl/src/widgets/lv_table.c ****     const lv_coord_t cell_pad_left = lv_obj_get_style_pad_left(obj, LV_PART_ITEMS);
 893:lvgl/src/widgets/lv_table.c ****     const lv_coord_t cell_pad_right = lv_obj_get_style_pad_right(obj, LV_PART_ITEMS);
 894:lvgl/src/widgets/lv_table.c ****     const lv_coord_t cell_pad_top = lv_obj_get_style_pad_top(obj, LV_PART_ITEMS);
 895:lvgl/src/widgets/lv_table.c ****     const lv_coord_t cell_pad_bottom = lv_obj_get_style_pad_bottom(obj, LV_PART_ITEMS);
 896:lvgl/src/widgets/lv_table.c **** 
 897:lvgl/src/widgets/lv_table.c ****     lv_coord_t letter_space = lv_obj_get_style_text_letter_space(obj, LV_PART_ITEMS);
 898:lvgl/src/widgets/lv_table.c ****     lv_coord_t line_space = lv_obj_get_style_text_line_space(obj, LV_PART_ITEMS);
 899:lvgl/src/widgets/lv_table.c ****     const lv_font_t * font = lv_obj_get_style_text_font(obj, LV_PART_ITEMS);
 900:lvgl/src/widgets/lv_table.c **** 
 901:lvgl/src/widgets/lv_table.c ****     const lv_coord_t minh = lv_obj_get_style_min_height(obj, LV_PART_ITEMS);
 902:lvgl/src/widgets/lv_table.c ****     const lv_coord_t maxh = lv_obj_get_style_max_height(obj, LV_PART_ITEMS);
 903:lvgl/src/widgets/lv_table.c **** 
 904:lvgl/src/widgets/lv_table.c ****     lv_table_t * table = (lv_table_t *)obj;
 905:lvgl/src/widgets/lv_table.c ****     lv_coord_t calculated_height = get_row_height(obj, row, font, letter_space, line_space,
 906:lvgl/src/widgets/lv_table.c ****                                                   cell_pad_left, cell_pad_right, cell_pad_top, cell
 907:lvgl/src/widgets/lv_table.c **** 
 908:lvgl/src/widgets/lv_table.c ****     lv_coord_t prev_row_size = table->row_h[row];
 909:lvgl/src/widgets/lv_table.c ****     table->row_h[row] = LV_CLAMP(minh, calculated_height, maxh);
 910:lvgl/src/widgets/lv_table.c **** 
 911:lvgl/src/widgets/lv_table.c ****     /*If the row height havn't changed invalidate only this cell*/
 912:lvgl/src/widgets/lv_table.c ****     if(prev_row_size == table->row_h[row]) {
 913:lvgl/src/widgets/lv_table.c ****         lv_area_t cell_area;
 914:lvgl/src/widgets/lv_table.c ****         get_cell_area(obj, row, col, &cell_area);
 915:lvgl/src/widgets/lv_table.c ****         lv_area_move(&cell_area, obj->coords.x1, obj->coords.y1);
 916:lvgl/src/widgets/lv_table.c ****         lv_obj_invalidate_area(obj, &cell_area);
 917:lvgl/src/widgets/lv_table.c ****     }
 918:lvgl/src/widgets/lv_table.c ****     else {
 919:lvgl/src/widgets/lv_table.c ****         lv_obj_refresh_self_size(obj);
 920:lvgl/src/widgets/lv_table.c ****         lv_obj_invalidate(obj);
 921:lvgl/src/widgets/lv_table.c ****     }
 922:lvgl/src/widgets/lv_table.c **** }
 923:lvgl/src/widgets/lv_table.c **** 
 924:lvgl/src/widgets/lv_table.c **** static lv_coord_t get_row_height(lv_obj_t * obj, uint16_t row_id, const lv_font_t * font,
 925:lvgl/src/widgets/lv_table.c ****                                  lv_coord_t letter_space, lv_coord_t line_space,
 926:lvgl/src/widgets/lv_table.c ****                                  lv_coord_t cell_left, lv_coord_t cell_right, lv_coord_t cell_top, 
 927:lvgl/src/widgets/lv_table.c **** {
  29              		.loc 1 927 1 view -0
  30              		.cfi_startproc
  31              		@ args = 20, pretend = 0, frame = 48
  32              		@ frame_needed = 0, uses_anonymous_args = 0
  33              		.loc 1 927 1 is_stmt 0 view .LVU1
  34 0000 2DE9F04F 		push	{r4, r5, r6, r7, r8, r9, r10, fp, lr}
  35              	.LCFI0:
  36              		.cfi_def_cfa_offset 36
  37              		.cfi_offset 4, -36
  38              		.cfi_offset 5, -32
  39              		.cfi_offset 6, -28
  40              		.cfi_offset 7, -24
  41              		.cfi_offset 8, -20
  42              		.cfi_offset 9, -16
  43              		.cfi_offset 10, -12
ARM GAS  /var/folders/21/t9g5rlb91ys800n5npymflf80000gn/T//ccNiYEm1.s 			page 18


  44              		.cfi_offset 11, -8
  45              		.cfi_offset 14, -4
  46 0004 91B0     		sub	sp, sp, #68
  47              	.LCFI1:
  48              		.cfi_def_cfa_offset 104
  49 0006 8046     		mov	r8, r0
  50 0008 0692     		str	r2, [sp, #24]
  51 000a 0A93     		str	r3, [sp, #40]
  52 000c BDF96830 		ldrsh	r3, [sp, #104]
  53              	.LVL1:
  54              		.loc 1 927 1 view .LVU2
  55 0010 0B93     		str	r3, [sp, #44]
  56 0012 BDF96C30 		ldrsh	r3, [sp, #108]
  57 0016 0C93     		str	r3, [sp, #48]
  58 0018 BDF97030 		ldrsh	r3, [sp, #112]
  59 001c 0D93     		str	r3, [sp, #52]
  60 001e BDF974B0 		ldrsh	fp, [sp, #116]
  61 0022 BDF97830 		ldrsh	r3, [sp, #120]
  62 0026 0793     		str	r3, [sp, #28]
 928:lvgl/src/widgets/lv_table.c ****     lv_table_t * table = (lv_table_t *)obj;
  63              		.loc 1 928 5 is_stmt 1 view .LVU3
  64              	.LVL2:
 929:lvgl/src/widgets/lv_table.c **** 
 930:lvgl/src/widgets/lv_table.c ****     lv_coord_t h_max = lv_font_get_line_height(font) + cell_top + cell_bottom;
  65              		.loc 1 930 5 view .LVU4
  66              	.LBB119:
  67              	.LBI119:
  68              		.file 2 "lvgl/src/widgets/../core/../misc/../font/lv_font.h"
   1:lvgl/src/widgets/../core/../misc/../font/lv_font.h **** /**
   2:lvgl/src/widgets/../core/../misc/../font/lv_font.h ****  * @file lv_font.h
   3:lvgl/src/widgets/../core/../misc/../font/lv_font.h ****  *
   4:lvgl/src/widgets/../core/../misc/../font/lv_font.h ****  */
   5:lvgl/src/widgets/../core/../misc/../font/lv_font.h **** 
   6:lvgl/src/widgets/../core/../misc/../font/lv_font.h **** #ifndef LV_FONT_H
   7:lvgl/src/widgets/../core/../misc/../font/lv_font.h **** #define LV_FONT_H
   8:lvgl/src/widgets/../core/../misc/../font/lv_font.h **** 
   9:lvgl/src/widgets/../core/../misc/../font/lv_font.h **** #ifdef __cplusplus
  10:lvgl/src/widgets/../core/../misc/../font/lv_font.h **** extern "C" {
  11:lvgl/src/widgets/../core/../misc/../font/lv_font.h **** #endif
  12:lvgl/src/widgets/../core/../misc/../font/lv_font.h **** 
  13:lvgl/src/widgets/../core/../misc/../font/lv_font.h **** /*********************
  14:lvgl/src/widgets/../core/../misc/../font/lv_font.h ****  *      INCLUDES
  15:lvgl/src/widgets/../core/../misc/../font/lv_font.h ****  *********************/
  16:lvgl/src/widgets/../core/../misc/../font/lv_font.h **** #include "../lv_conf_internal.h"
  17:lvgl/src/widgets/../core/../misc/../font/lv_font.h **** #include <stdint.h>
  18:lvgl/src/widgets/../core/../misc/../font/lv_font.h **** #include <stddef.h>
  19:lvgl/src/widgets/../core/../misc/../font/lv_font.h **** #include <stdbool.h>
  20:lvgl/src/widgets/../core/../misc/../font/lv_font.h **** 
  21:lvgl/src/widgets/../core/../misc/../font/lv_font.h **** #include "lv_symbol_def.h"
  22:lvgl/src/widgets/../core/../misc/../font/lv_font.h **** #include "../misc/lv_area.h"
  23:lvgl/src/widgets/../core/../misc/../font/lv_font.h **** 
  24:lvgl/src/widgets/../core/../misc/../font/lv_font.h **** /*********************
  25:lvgl/src/widgets/../core/../misc/../font/lv_font.h ****  *      DEFINES
  26:lvgl/src/widgets/../core/../misc/../font/lv_font.h ****  *********************/
  27:lvgl/src/widgets/../core/../misc/../font/lv_font.h **** 
  28:lvgl/src/widgets/../core/../misc/../font/lv_font.h **** /* imgfont identifier */
  29:lvgl/src/widgets/../core/../misc/../font/lv_font.h **** #define LV_IMGFONT_BPP 9
ARM GAS  /var/folders/21/t9g5rlb91ys800n5npymflf80000gn/T//ccNiYEm1.s 			page 19


  30:lvgl/src/widgets/../core/../misc/../font/lv_font.h **** 
  31:lvgl/src/widgets/../core/../misc/../font/lv_font.h **** /**********************
  32:lvgl/src/widgets/../core/../misc/../font/lv_font.h ****  *      TYPEDEFS
  33:lvgl/src/widgets/../core/../misc/../font/lv_font.h ****  **********************/
  34:lvgl/src/widgets/../core/../misc/../font/lv_font.h **** 
  35:lvgl/src/widgets/../core/../misc/../font/lv_font.h **** /*------------------
  36:lvgl/src/widgets/../core/../misc/../font/lv_font.h ****  * General types
  37:lvgl/src/widgets/../core/../misc/../font/lv_font.h ****  *-----------------*/
  38:lvgl/src/widgets/../core/../misc/../font/lv_font.h **** 
  39:lvgl/src/widgets/../core/../misc/../font/lv_font.h **** struct _lv_font_t;
  40:lvgl/src/widgets/../core/../misc/../font/lv_font.h **** /** Describes the properties of a glyph.*/
  41:lvgl/src/widgets/../core/../misc/../font/lv_font.h **** typedef struct {
  42:lvgl/src/widgets/../core/../misc/../font/lv_font.h ****     const struct _lv_font_t *
  43:lvgl/src/widgets/../core/../misc/../font/lv_font.h ****         resolved_font; /**< Pointer to a font where the glyph was actually found after handling fal
  44:lvgl/src/widgets/../core/../misc/../font/lv_font.h ****     uint16_t adv_w; /**< The glyph needs this space. Draw the next glyph after this width.*/
  45:lvgl/src/widgets/../core/../misc/../font/lv_font.h ****     uint16_t box_w; /**< Width of the glyph's bounding box*/
  46:lvgl/src/widgets/../core/../misc/../font/lv_font.h ****     uint16_t box_h; /**< Height of the glyph's bounding box*/
  47:lvgl/src/widgets/../core/../misc/../font/lv_font.h ****     int16_t ofs_x;  /**< x offset of the bounding box*/
  48:lvgl/src/widgets/../core/../misc/../font/lv_font.h ****     int16_t ofs_y;  /**< y offset of the bounding box*/
  49:lvgl/src/widgets/../core/../misc/../font/lv_font.h ****     uint8_t bpp: 4;  /**< Bit-per-pixel: 1, 2, 4, 8*/
  50:lvgl/src/widgets/../core/../misc/../font/lv_font.h ****     uint8_t is_placeholder: 1; /** Glyph is missing. But placeholder will still be displayed */
  51:lvgl/src/widgets/../core/../misc/../font/lv_font.h **** } lv_font_glyph_dsc_t;
  52:lvgl/src/widgets/../core/../misc/../font/lv_font.h **** 
  53:lvgl/src/widgets/../core/../misc/../font/lv_font.h **** /** The bitmaps might be upscaled by 3 to achieve subpixel rendering.*/
  54:lvgl/src/widgets/../core/../misc/../font/lv_font.h **** enum {
  55:lvgl/src/widgets/../core/../misc/../font/lv_font.h ****     LV_FONT_SUBPX_NONE,
  56:lvgl/src/widgets/../core/../misc/../font/lv_font.h ****     LV_FONT_SUBPX_HOR,
  57:lvgl/src/widgets/../core/../misc/../font/lv_font.h ****     LV_FONT_SUBPX_VER,
  58:lvgl/src/widgets/../core/../misc/../font/lv_font.h ****     LV_FONT_SUBPX_BOTH,
  59:lvgl/src/widgets/../core/../misc/../font/lv_font.h **** };
  60:lvgl/src/widgets/../core/../misc/../font/lv_font.h **** 
  61:lvgl/src/widgets/../core/../misc/../font/lv_font.h **** typedef uint8_t lv_font_subpx_t;
  62:lvgl/src/widgets/../core/../misc/../font/lv_font.h **** 
  63:lvgl/src/widgets/../core/../misc/../font/lv_font.h **** /** Describe the properties of a font*/
  64:lvgl/src/widgets/../core/../misc/../font/lv_font.h **** typedef struct _lv_font_t {
  65:lvgl/src/widgets/../core/../misc/../font/lv_font.h ****     /** Get a glyph's descriptor from a font*/
  66:lvgl/src/widgets/../core/../misc/../font/lv_font.h ****     bool (*get_glyph_dsc)(const struct _lv_font_t *, lv_font_glyph_dsc_t *, uint32_t letter, uint32
  67:lvgl/src/widgets/../core/../misc/../font/lv_font.h **** 
  68:lvgl/src/widgets/../core/../misc/../font/lv_font.h ****     /** Get a glyph's bitmap from a font*/
  69:lvgl/src/widgets/../core/../misc/../font/lv_font.h ****     const uint8_t * (*get_glyph_bitmap)(const struct _lv_font_t *, uint32_t);
  70:lvgl/src/widgets/../core/../misc/../font/lv_font.h **** 
  71:lvgl/src/widgets/../core/../misc/../font/lv_font.h ****     /*Pointer to the font in a font pack (must have the same line height)*/
  72:lvgl/src/widgets/../core/../misc/../font/lv_font.h ****     lv_coord_t line_height;         /**< The real line height where any text fits*/
  73:lvgl/src/widgets/../core/../misc/../font/lv_font.h ****     lv_coord_t base_line;           /**< Base line measured from the top of the line_height*/
  74:lvgl/src/widgets/../core/../misc/../font/lv_font.h ****     uint8_t subpx  : 2;             /**< An element of `lv_font_subpx_t`*/
  75:lvgl/src/widgets/../core/../misc/../font/lv_font.h **** 
  76:lvgl/src/widgets/../core/../misc/../font/lv_font.h ****     int8_t underline_position;      /**< Distance between the top of the underline and base line (<
  77:lvgl/src/widgets/../core/../misc/../font/lv_font.h ****     int8_t underline_thickness;     /**< Thickness of the underline*/
  78:lvgl/src/widgets/../core/../misc/../font/lv_font.h **** 
  79:lvgl/src/widgets/../core/../misc/../font/lv_font.h ****     const void * dsc;               /**< Store implementation specific or run_time data or caching 
  80:lvgl/src/widgets/../core/../misc/../font/lv_font.h ****     const struct _lv_font_t * fallback;   /**< Fallback font for missing glyph. Resolved recursivel
  81:lvgl/src/widgets/../core/../misc/../font/lv_font.h **** #if LV_USE_USER_DATA
  82:lvgl/src/widgets/../core/../misc/../font/lv_font.h ****     void * user_data;               /**< Custom user data for font.*/
  83:lvgl/src/widgets/../core/../misc/../font/lv_font.h **** #endif
  84:lvgl/src/widgets/../core/../misc/../font/lv_font.h **** } lv_font_t;
  85:lvgl/src/widgets/../core/../misc/../font/lv_font.h **** 
  86:lvgl/src/widgets/../core/../misc/../font/lv_font.h **** /**********************
ARM GAS  /var/folders/21/t9g5rlb91ys800n5npymflf80000gn/T//ccNiYEm1.s 			page 20


  87:lvgl/src/widgets/../core/../misc/../font/lv_font.h ****  * GLOBAL PROTOTYPES
  88:lvgl/src/widgets/../core/../misc/../font/lv_font.h ****  **********************/
  89:lvgl/src/widgets/../core/../misc/../font/lv_font.h **** 
  90:lvgl/src/widgets/../core/../misc/../font/lv_font.h **** /**
  91:lvgl/src/widgets/../core/../misc/../font/lv_font.h ****  * Return with the bitmap of a font.
  92:lvgl/src/widgets/../core/../misc/../font/lv_font.h ****  * @param font_p pointer to a font
  93:lvgl/src/widgets/../core/../misc/../font/lv_font.h ****  * @param letter a UNICODE character code
  94:lvgl/src/widgets/../core/../misc/../font/lv_font.h ****  * @return pointer to the bitmap of the letter
  95:lvgl/src/widgets/../core/../misc/../font/lv_font.h ****  */
  96:lvgl/src/widgets/../core/../misc/../font/lv_font.h **** const uint8_t * lv_font_get_glyph_bitmap(const lv_font_t * font_p, uint32_t letter);
  97:lvgl/src/widgets/../core/../misc/../font/lv_font.h **** 
  98:lvgl/src/widgets/../core/../misc/../font/lv_font.h **** /**
  99:lvgl/src/widgets/../core/../misc/../font/lv_font.h ****  * Get the descriptor of a glyph
 100:lvgl/src/widgets/../core/../misc/../font/lv_font.h ****  * @param font_p pointer to font
 101:lvgl/src/widgets/../core/../misc/../font/lv_font.h ****  * @param dsc_out store the result descriptor here
 102:lvgl/src/widgets/../core/../misc/../font/lv_font.h ****  * @param letter a UNICODE letter code
 103:lvgl/src/widgets/../core/../misc/../font/lv_font.h ****  * @param letter_next the next letter after `letter`. Used for kerning
 104:lvgl/src/widgets/../core/../misc/../font/lv_font.h ****  * @return true: descriptor is successfully loaded into `dsc_out`.
 105:lvgl/src/widgets/../core/../misc/../font/lv_font.h ****  *         false: the letter was not found, no data is loaded to `dsc_out`
 106:lvgl/src/widgets/../core/../misc/../font/lv_font.h ****  */
 107:lvgl/src/widgets/../core/../misc/../font/lv_font.h **** bool lv_font_get_glyph_dsc(const lv_font_t * font_p, lv_font_glyph_dsc_t * dsc_out, uint32_t letter
 108:lvgl/src/widgets/../core/../misc/../font/lv_font.h ****                            uint32_t letter_next);
 109:lvgl/src/widgets/../core/../misc/../font/lv_font.h **** 
 110:lvgl/src/widgets/../core/../misc/../font/lv_font.h **** /**
 111:lvgl/src/widgets/../core/../misc/../font/lv_font.h ****  * Get the width of a glyph with kerning
 112:lvgl/src/widgets/../core/../misc/../font/lv_font.h ****  * @param font pointer to a font
 113:lvgl/src/widgets/../core/../misc/../font/lv_font.h ****  * @param letter a UNICODE letter
 114:lvgl/src/widgets/../core/../misc/../font/lv_font.h ****  * @param letter_next the next letter after `letter`. Used for kerning
 115:lvgl/src/widgets/../core/../misc/../font/lv_font.h ****  * @return the width of the glyph
 116:lvgl/src/widgets/../core/../misc/../font/lv_font.h ****  */
 117:lvgl/src/widgets/../core/../misc/../font/lv_font.h **** uint16_t lv_font_get_glyph_width(const lv_font_t * font, uint32_t letter, uint32_t letter_next);
 118:lvgl/src/widgets/../core/../misc/../font/lv_font.h **** 
 119:lvgl/src/widgets/../core/../misc/../font/lv_font.h **** /**
 120:lvgl/src/widgets/../core/../misc/../font/lv_font.h ****  * Get the line height of a font. All characters fit into this height
 121:lvgl/src/widgets/../core/../misc/../font/lv_font.h ****  * @param font_p pointer to a font
 122:lvgl/src/widgets/../core/../misc/../font/lv_font.h ****  * @return the height of a font
 123:lvgl/src/widgets/../core/../misc/../font/lv_font.h ****  */
 124:lvgl/src/widgets/../core/../misc/../font/lv_font.h **** static inline lv_coord_t lv_font_get_line_height(const lv_font_t * font_p)
  69              		.loc 2 124 26 view .LVU5
  70              	.LBB120:
 125:lvgl/src/widgets/../core/../misc/../font/lv_font.h **** {
 126:lvgl/src/widgets/../core/../misc/../font/lv_font.h ****     return font_p->line_height;
  71              		.loc 2 126 5 view .LVU6
  72              		.loc 2 126 18 is_stmt 0 view .LVU7
  73 0028 B2F90870 		ldrsh	r7, [r2, #8]
  74              	.LVL3:
  75              		.loc 2 126 18 view .LVU8
  76              	.LBE120:
  77              	.LBE119:
  78              		.loc 1 930 54 view .LVU9
  79 002c 1FFA8BF2 		uxth	r2, fp
  80              	.LVL4:
  81              		.loc 1 930 54 view .LVU10
  82 0030 0892     		str	r2, [sp, #32]
  83 0032 12FA87F7 		uxtah	r7, r2, r7
  84              		.loc 1 930 65 view .LVU11
  85 0036 9BB2     		uxth	r3, r3
ARM GAS  /var/folders/21/t9g5rlb91ys800n5npymflf80000gn/T//ccNiYEm1.s 			page 21


  86 0038 0993     		str	r3, [sp, #36]
  87 003a 13FA87F7 		uxtah	r7, r3, r7
  88              		.loc 1 930 16 view .LVU12
  89 003e 3FB2     		sxth	r7, r7
  90              	.LVL5:
 931:lvgl/src/widgets/lv_table.c ****     /* Calculate the cell_data index where to start */
 932:lvgl/src/widgets/lv_table.c ****     uint16_t row_start = row_id * table->col_cnt;
  91              		.loc 1 932 5 is_stmt 1 view .LVU13
  92              		.loc 1 932 40 is_stmt 0 view .LVU14
  93 0040 B0F82490 		ldrh	r9, [r0, #36]
  94              		.loc 1 932 14 view .LVU15
  95 0044 19FB01F9 		smulbb	r9, r9, r1
  96 0048 1FFA89F9 		uxth	r9, r9
  97              	.LVL6:
 933:lvgl/src/widgets/lv_table.c **** 
 934:lvgl/src/widgets/lv_table.c ****     /* Traverse the cells in the row_id row */
 935:lvgl/src/widgets/lv_table.c ****     uint16_t cell;
  98              		.loc 1 935 5 is_stmt 1 view .LVU16
 936:lvgl/src/widgets/lv_table.c ****     uint16_t col;
  99              		.loc 1 936 5 view .LVU17
 937:lvgl/src/widgets/lv_table.c ****     for(cell = row_start, col = 0; cell < row_start + table->col_cnt; cell++, col++) {
 100              		.loc 1 937 5 view .LVU18
 101              		.loc 1 937 14 is_stmt 0 view .LVU19
 102 004c 4E46     		mov	r6, r9
 103              		.loc 1 937 31 view .LVU20
 104 004e 0025     		movs	r5, #0
 105              		.loc 1 937 5 view .LVU21
 106 0050 18E0     		b	.L2
 107              	.LVL7:
 108              	.L5:
 109              	.LBB121:
 938:lvgl/src/widgets/lv_table.c ****         lv_table_cell_t * cell_data = table->cell_data[cell];
 939:lvgl/src/widgets/lv_table.c **** 
 940:lvgl/src/widgets/lv_table.c ****         if(is_cell_empty(cell_data)) {
 941:lvgl/src/widgets/lv_table.c ****             continue;
 942:lvgl/src/widgets/lv_table.c ****         }
 943:lvgl/src/widgets/lv_table.c **** 
 944:lvgl/src/widgets/lv_table.c ****         lv_coord_t txt_w = table->col_w[col];
 945:lvgl/src/widgets/lv_table.c **** 
 946:lvgl/src/widgets/lv_table.c ****         /* Traverse the current row from the first until the penultimate column.
 947:lvgl/src/widgets/lv_table.c ****          * Increment the text width if the cell has the LV_TABLE_CELL_CTRL_MERGE_RIGHT control,
 948:lvgl/src/widgets/lv_table.c ****          * exit the traversal when the current cell control is not LV_TABLE_CELL_CTRL_MERGE_RIGHT *
 949:lvgl/src/widgets/lv_table.c ****         uint16_t col_merge = 0;
 950:lvgl/src/widgets/lv_table.c ****         for(col_merge = 0; col_merge + col < table->col_cnt - 1; col_merge++) {
 951:lvgl/src/widgets/lv_table.c ****             lv_table_cell_t * next_cell_data = table->cell_data[cell + col_merge];
 952:lvgl/src/widgets/lv_table.c **** 
 953:lvgl/src/widgets/lv_table.c ****             if(is_cell_empty(next_cell_data)) break;
 954:lvgl/src/widgets/lv_table.c **** 
 955:lvgl/src/widgets/lv_table.c ****             lv_table_cell_ctrl_t ctrl = (lv_table_cell_ctrl_t) next_cell_data->ctrl;
 956:lvgl/src/widgets/lv_table.c ****             if(ctrl & LV_TABLE_CELL_CTRL_MERGE_RIGHT) {
 957:lvgl/src/widgets/lv_table.c ****                 txt_w += table->col_w[col + col_merge + 1];
 958:lvgl/src/widgets/lv_table.c ****             }
 959:lvgl/src/widgets/lv_table.c ****             else {
 960:lvgl/src/widgets/lv_table.c ****                 break;
 961:lvgl/src/widgets/lv_table.c ****             }
 962:lvgl/src/widgets/lv_table.c ****         }
 963:lvgl/src/widgets/lv_table.c **** 
ARM GAS  /var/folders/21/t9g5rlb91ys800n5npymflf80000gn/T//ccNiYEm1.s 			page 22


 964:lvgl/src/widgets/lv_table.c ****         lv_table_cell_ctrl_t ctrl = (lv_table_cell_ctrl_t) cell_data->ctrl;
 110              		.loc 1 964 30 view .LVU22
 111 0052 059E     		ldr	r6, [sp, #20]
 112              		.loc 1 964 9 is_stmt 1 view .LVU23
 113              		.loc 1 964 30 is_stmt 0 view .LVU24
 114 0054 0278     		ldrb	r2, [r0]	@ zero_extendqisi2
 115              	.LVL8:
 965:lvgl/src/widgets/lv_table.c **** 
 966:lvgl/src/widgets/lv_table.c ****         /*When cropping the text we can assume the row height is equal to the line height*/
 967:lvgl/src/widgets/lv_table.c ****         if(ctrl & LV_TABLE_CELL_CTRL_TEXT_CROP) {
 116              		.loc 1 967 9 is_stmt 1 view .LVU25
 117              		.loc 1 967 11 is_stmt 0 view .LVU26
 118 0056 12F0020F 		tst	r2, #2
 119 005a 3DD0     		beq	.L7
 968:lvgl/src/widgets/lv_table.c ****             h_max = LV_MAX(lv_font_get_line_height(font) + cell_top + cell_bottom,
 120              		.loc 1 968 13 is_stmt 1 view .LVU27
 121              	.LVL9:
 122              	.LBB122:
 123              	.LBI122:
 124:lvgl/src/widgets/../core/../misc/../font/lv_font.h **** {
 124              		.loc 2 124 26 view .LVU28
 125              	.LBB123:
 126              		.loc 2 126 5 view .LVU29
 127              		.loc 2 126 18 is_stmt 0 view .LVU30
 128 005c 069B     		ldr	r3, [sp, #24]
 129              	.LVL10:
 130              		.loc 2 126 18 view .LVU31
 131 005e B3F90830 		ldrsh	r3, [r3, #8]
 132              	.LVL11:
 133              		.loc 2 126 18 view .LVU32
 134              	.LBE123:
 135              	.LBE122:
 136              		.loc 1 968 21 view .LVU33
 137 0062 0BEB0302 		add	r2, fp, r3
 138 0066 0799     		ldr	r1, [sp, #28]
 139 0068 0A44     		add	r2, r2, r1
 140              		.loc 1 968 19 view .LVU34
 141 006a BA42     		cmp	r2, r7
 142 006c 06DD     		ble	.L3
 143              		.loc 1 968 21 view .LVU35
 144 006e 089A     		ldr	r2, [sp, #32]
 145 0070 12FA83F3 		uxtah	r3, r2, r3
 146 0074 099A     		ldr	r2, [sp, #36]
 147 0076 12FA83F3 		uxtah	r3, r2, r3
 148              		.loc 1 968 19 view .LVU36
 149 007a 1FB2     		sxth	r7, r3
 150              	.LVL12:
 151              	.L3:
 152              		.loc 1 968 19 view .LVU37
 153              	.LBE121:
 937:lvgl/src/widgets/lv_table.c ****         lv_table_cell_t * cell_data = table->cell_data[cell];
 154              		.loc 1 937 77 is_stmt 1 discriminator 2 view .LVU38
 937:lvgl/src/widgets/lv_table.c ****         lv_table_cell_t * cell_data = table->cell_data[cell];
 155              		.loc 1 937 75 is_stmt 0 discriminator 2 view .LVU39
 156 007c 0136     		adds	r6, r6, #1
 157              	.LVL13:
 937:lvgl/src/widgets/lv_table.c ****         lv_table_cell_t * cell_data = table->cell_data[cell];
ARM GAS  /var/folders/21/t9g5rlb91ys800n5npymflf80000gn/T//ccNiYEm1.s 			page 23


 158              		.loc 1 937 75 discriminator 2 view .LVU40
 159 007e B6B2     		uxth	r6, r6
 160              	.LVL14:
 937:lvgl/src/widgets/lv_table.c ****         lv_table_cell_t * cell_data = table->cell_data[cell];
 161              		.loc 1 937 82 discriminator 2 view .LVU41
 162 0080 0135     		adds	r5, r5, #1
 163              	.LVL15:
 937:lvgl/src/widgets/lv_table.c ****         lv_table_cell_t * cell_data = table->cell_data[cell];
 164              		.loc 1 937 82 discriminator 2 view .LVU42
 165 0082 ADB2     		uxth	r5, r5
 166              	.LVL16:
 167              	.L2:
 937:lvgl/src/widgets/lv_table.c ****         lv_table_cell_t * cell_data = table->cell_data[cell];
 168              		.loc 1 937 41 is_stmt 1 discriminator 1 view .LVU43
 169 0084 B646     		mov	lr, r6
 937:lvgl/src/widgets/lv_table.c ****         lv_table_cell_t * cell_data = table->cell_data[cell];
 170              		.loc 1 937 60 is_stmt 0 discriminator 1 view .LVU44
 171 0086 B8F824C0 		ldrh	ip, [r8, #36]
 937:lvgl/src/widgets/lv_table.c ****         lv_table_cell_t * cell_data = table->cell_data[cell];
 172              		.loc 1 937 53 discriminator 1 view .LVU45
 173 008a 09EB0C03 		add	r3, r9, ip
 937:lvgl/src/widgets/lv_table.c ****         lv_table_cell_t * cell_data = table->cell_data[cell];
 174              		.loc 1 937 41 discriminator 1 view .LVU46
 175 008e 9E42     		cmp	r6, r3
 176 0090 42DA     		bge	.L10
 177              	.LBB126:
 938:lvgl/src/widgets/lv_table.c **** 
 178              		.loc 1 938 9 is_stmt 1 view .LVU47
 938:lvgl/src/widgets/lv_table.c **** 
 179              		.loc 1 938 44 is_stmt 0 view .LVU48
 180 0092 D8F82810 		ldr	r1, [r8, #40]
 938:lvgl/src/widgets/lv_table.c **** 
 181              		.loc 1 938 27 view .LVU49
 182 0096 51F82600 		ldr	r0, [r1, r6, lsl #2]
 183              	.LVL17:
 940:lvgl/src/widgets/lv_table.c ****             continue;
 184              		.loc 1 940 9 is_stmt 1 view .LVU50
 940:lvgl/src/widgets/lv_table.c ****             continue;
 185              		.loc 1 940 11 is_stmt 0 view .LVU51
 186 009a 0028     		cmp	r0, #0
 187 009c EED0     		beq	.L3
 944:lvgl/src/widgets/lv_table.c **** 
 188              		.loc 1 944 9 is_stmt 1 view .LVU52
 944:lvgl/src/widgets/lv_table.c **** 
 189              		.loc 1 944 33 is_stmt 0 view .LVU53
 190 009e D8F830A0 		ldr	r10, [r8, #48]
 944:lvgl/src/widgets/lv_table.c **** 
 191              		.loc 1 944 20 view .LVU54
 192 00a2 3AF91530 		ldrsh	r3, [r10, r5, lsl #1]
 193              	.LVL18:
 949:lvgl/src/widgets/lv_table.c ****         for(col_merge = 0; col_merge + col < table->col_cnt - 1; col_merge++) {
 194              		.loc 1 949 9 is_stmt 1 view .LVU55
 950:lvgl/src/widgets/lv_table.c ****             lv_table_cell_t * next_cell_data = table->cell_data[cell + col_merge];
 195              		.loc 1 950 9 view .LVU56
 950:lvgl/src/widgets/lv_table.c ****             lv_table_cell_t * next_cell_data = table->cell_data[cell + col_merge];
 196              		.loc 1 950 23 is_stmt 0 view .LVU57
 197 00a6 0024     		movs	r4, #0
ARM GAS  /var/folders/21/t9g5rlb91ys800n5npymflf80000gn/T//ccNiYEm1.s 			page 24


 198 00a8 0596     		str	r6, [sp, #20]
 199              	.LVL19:
 200              	.L4:
 950:lvgl/src/widgets/lv_table.c ****             lv_table_cell_t * next_cell_data = table->cell_data[cell + col_merge];
 201              		.loc 1 950 44 is_stmt 1 discriminator 1 view .LVU58
 950:lvgl/src/widgets/lv_table.c ****             lv_table_cell_t * next_cell_data = table->cell_data[cell + col_merge];
 202              		.loc 1 950 38 is_stmt 0 discriminator 1 view .LVU59
 203 00aa 2A19     		adds	r2, r5, r4
 950:lvgl/src/widgets/lv_table.c ****             lv_table_cell_t * next_cell_data = table->cell_data[cell + col_merge];
 204              		.loc 1 950 61 discriminator 1 view .LVU60
 205 00ac 0CF1FF36 		add	r6, ip, #-1
 950:lvgl/src/widgets/lv_table.c ****             lv_table_cell_t * next_cell_data = table->cell_data[cell + col_merge];
 206              		.loc 1 950 44 discriminator 1 view .LVU61
 207 00b0 B242     		cmp	r2, r6
 208 00b2 CEDA     		bge	.L5
 209              	.LBB124:
 951:lvgl/src/widgets/lv_table.c **** 
 210              		.loc 1 951 13 is_stmt 1 view .LVU62
 951:lvgl/src/widgets/lv_table.c **** 
 211              		.loc 1 951 70 is_stmt 0 view .LVU63
 212 00b4 04EB0E06 		add	r6, r4, lr
 951:lvgl/src/widgets/lv_table.c **** 
 213              		.loc 1 951 31 view .LVU64
 214 00b8 51F82660 		ldr	r6, [r1, r6, lsl #2]
 215              	.LVL20:
 953:lvgl/src/widgets/lv_table.c **** 
 216              		.loc 1 953 13 is_stmt 1 view .LVU65
 953:lvgl/src/widgets/lv_table.c **** 
 217              		.loc 1 953 15 is_stmt 0 view .LVU66
 218 00bc 002E     		cmp	r6, #0
 219 00be C8D0     		beq	.L5
 955:lvgl/src/widgets/lv_table.c ****             if(ctrl & LV_TABLE_CELL_CTRL_MERGE_RIGHT) {
 220              		.loc 1 955 13 is_stmt 1 view .LVU67
 955:lvgl/src/widgets/lv_table.c ****             if(ctrl & LV_TABLE_CELL_CTRL_MERGE_RIGHT) {
 221              		.loc 1 955 34 is_stmt 0 view .LVU68
 222 00c0 3678     		ldrb	r6, [r6]	@ zero_extendqisi2
 223              	.LVL21:
 956:lvgl/src/widgets/lv_table.c ****                 txt_w += table->col_w[col + col_merge + 1];
 224              		.loc 1 956 13 is_stmt 1 view .LVU69
 956:lvgl/src/widgets/lv_table.c ****                 txt_w += table->col_w[col + col_merge + 1];
 225              		.loc 1 956 15 is_stmt 0 view .LVU70
 226 00c2 16F0010F 		tst	r6, #1
 227 00c6 C4D0     		beq	.L5
 957:lvgl/src/widgets/lv_table.c ****             }
 228              		.loc 1 957 17 is_stmt 1 discriminator 2 view .LVU71
 957:lvgl/src/widgets/lv_table.c ****             }
 229              		.loc 1 957 38 is_stmt 0 discriminator 2 view .LVU72
 230 00c8 0132     		adds	r2, r2, #1
 231 00ca 3AF81220 		ldrh	r2, [r10, r2, lsl #1]
 957:lvgl/src/widgets/lv_table.c ****             }
 232              		.loc 1 957 23 discriminator 2 view .LVU73
 233 00ce 1344     		add	r3, r3, r2
 234              	.LVL22:
 957:lvgl/src/widgets/lv_table.c ****             }
 235              		.loc 1 957 23 discriminator 2 view .LVU74
 236 00d0 1BB2     		sxth	r3, r3
 237              	.LVL23:
ARM GAS  /var/folders/21/t9g5rlb91ys800n5npymflf80000gn/T//ccNiYEm1.s 			page 25


 957:lvgl/src/widgets/lv_table.c ****             }
 238              		.loc 1 957 23 discriminator 2 view .LVU75
 239              	.LBE124:
 950:lvgl/src/widgets/lv_table.c ****             lv_table_cell_t * next_cell_data = table->cell_data[cell + col_merge];
 240              		.loc 1 950 75 is_stmt 1 discriminator 2 view .LVU76
 241 00d2 0134     		adds	r4, r4, #1
 242              	.LVL24:
 950:lvgl/src/widgets/lv_table.c ****             lv_table_cell_t * next_cell_data = table->cell_data[cell + col_merge];
 243              		.loc 1 950 75 is_stmt 0 discriminator 2 view .LVU77
 244 00d4 A4B2     		uxth	r4, r4
 245              	.LVL25:
 950:lvgl/src/widgets/lv_table.c ****             lv_table_cell_t * next_cell_data = table->cell_data[cell + col_merge];
 246              		.loc 1 950 75 discriminator 2 view .LVU78
 247 00d6 E8E7     		b	.L4
 248              	.LVL26:
 249              	.L7:
 250              	.LBB125:
 969:lvgl/src/widgets/lv_table.c ****                            h_max);
 970:lvgl/src/widgets/lv_table.c ****         }
 971:lvgl/src/widgets/lv_table.c ****         /*Else we have to calculate the height of the cell text*/
 972:lvgl/src/widgets/lv_table.c ****         else {
 973:lvgl/src/widgets/lv_table.c ****             lv_point_t txt_size;
 251              		.loc 1 973 13 is_stmt 1 view .LVU79
 974:lvgl/src/widgets/lv_table.c ****             txt_w -= cell_left + cell_right;
 252              		.loc 1 974 13 view .LVU80
 253              		.loc 1 974 32 is_stmt 0 view .LVU81
 254 00d8 0C9A     		ldr	r2, [sp, #48]
 255 00da 0D99     		ldr	r1, [sp, #52]
 256 00dc 0A44     		add	r2, r2, r1
 257 00de 92B2     		uxth	r2, r2
 258              		.loc 1 974 19 view .LVU82
 259 00e0 9B1A     		subs	r3, r3, r2
 260              	.LVL27:
 261              		.loc 1 974 19 view .LVU83
 262 00e2 1BB2     		sxth	r3, r3
 263              	.LVL28:
 975:lvgl/src/widgets/lv_table.c **** 
 976:lvgl/src/widgets/lv_table.c ****             lv_txt_get_size(&txt_size, table->cell_data[cell]->txt, font,
 264              		.loc 1 976 13 is_stmt 1 view .LVU84
 265 00e4 0022     		movs	r2, #0
 266 00e6 0292     		str	r2, [sp, #8]
 267              	.LVL29:
 268              		.loc 1 976 13 is_stmt 0 view .LVU85
 269 00e8 0193     		str	r3, [sp, #4]
 270 00ea 0B9B     		ldr	r3, [sp, #44]
 271              	.LVL30:
 272              		.loc 1 976 13 view .LVU86
 273 00ec 0093     		str	r3, [sp]
 274 00ee 0A9B     		ldr	r3, [sp, #40]
 275 00f0 069A     		ldr	r2, [sp, #24]
 276 00f2 00F10801 		add	r1, r0, #8
 277 00f6 0FA8     		add	r0, sp, #60
 278              	.LVL31:
 279              		.loc 1 976 13 view .LVU87
 280 00f8 FFF7FEFF 		bl	lv_txt_get_size
 281              	.LVL32:
 977:lvgl/src/widgets/lv_table.c ****                             letter_space, line_space, txt_w, LV_TEXT_FLAG_NONE);
ARM GAS  /var/folders/21/t9g5rlb91ys800n5npymflf80000gn/T//ccNiYEm1.s 			page 26


 978:lvgl/src/widgets/lv_table.c **** 
 979:lvgl/src/widgets/lv_table.c ****             h_max = LV_MAX(txt_size.y + cell_top + cell_bottom, h_max);
 282              		.loc 1 979 13 is_stmt 1 view .LVU88
 283              		.loc 1 979 21 is_stmt 0 view .LVU89
 284 00fc BDF93E30 		ldrsh	r3, [sp, #62]
 285 0100 5B44     		add	r3, r3, fp
 286 0102 079A     		ldr	r2, [sp, #28]
 287 0104 1344     		add	r3, r3, r2
 288 0106 BB42     		cmp	r3, r7
 289 0108 B8BF     		it	lt
 290 010a 3B46     		movlt	r3, r7
 291              		.loc 1 979 19 view .LVU90
 292 010c 1FB2     		sxth	r7, r3
 293              	.LVL33:
 980:lvgl/src/widgets/lv_table.c ****             /*Skip until one element after the last merged column*/
 981:lvgl/src/widgets/lv_table.c ****             cell += col_merge;
 294              		.loc 1 981 13 is_stmt 1 view .LVU91
 295              		.loc 1 981 18 is_stmt 0 view .LVU92
 296 010e 2644     		add	r6, r6, r4
 297 0110 B6B2     		uxth	r6, r6
 298              	.LVL34:
 982:lvgl/src/widgets/lv_table.c ****             col += col_merge;
 299              		.loc 1 982 13 is_stmt 1 view .LVU93
 300              		.loc 1 982 17 is_stmt 0 view .LVU94
 301 0112 2C44     		add	r4, r4, r5
 302              	.LVL35:
 303              		.loc 1 982 17 view .LVU95
 304 0114 A5B2     		uxth	r5, r4
 305              	.LVL36:
 306              		.loc 1 982 17 view .LVU96
 307 0116 B1E7     		b	.L3
 308              	.LVL37:
 309              	.L10:
 310              		.loc 1 982 17 view .LVU97
 311              	.LBE125:
 312              	.LBE126:
 983:lvgl/src/widgets/lv_table.c ****         }
 984:lvgl/src/widgets/lv_table.c ****     }
 985:lvgl/src/widgets/lv_table.c **** 
 986:lvgl/src/widgets/lv_table.c ****     return h_max;
 313              		.loc 1 986 5 is_stmt 1 view .LVU98
 987:lvgl/src/widgets/lv_table.c **** }
 314              		.loc 1 987 1 is_stmt 0 view .LVU99
 315 0118 3846     		mov	r0, r7
 316 011a 11B0     		add	sp, sp, #68
 317              	.LCFI2:
 318              		.cfi_def_cfa_offset 36
 319              		@ sp needed
 320 011c BDE8F08F 		pop	{r4, r5, r6, r7, r8, r9, r10, fp, pc}
 321              		.loc 1 987 1 view .LVU100
 322              		.cfi_endproc
 323              	.LFE184:
 325              		.section	.text.refr_size_form_row,"ax",%progbits
 326              		.align	1
 327              		.syntax unified
 328              		.thumb
 329              		.thumb_func
ARM GAS  /var/folders/21/t9g5rlb91ys800n5npymflf80000gn/T//ccNiYEm1.s 			page 27


 331              	refr_size_form_row:
 332              	.LVL38:
 333              	.LFB182:
 865:lvgl/src/widgets/lv_table.c ****     const lv_coord_t cell_pad_left = lv_obj_get_style_pad_left(obj, LV_PART_ITEMS);
 334              		.loc 1 865 1 is_stmt 1 view -0
 335              		.cfi_startproc
 336              		@ args = 0, pretend = 0, frame = 16
 337              		@ frame_needed = 0, uses_anonymous_args = 0
 865:lvgl/src/widgets/lv_table.c ****     const lv_coord_t cell_pad_left = lv_obj_get_style_pad_left(obj, LV_PART_ITEMS);
 338              		.loc 1 865 1 is_stmt 0 view .LVU102
 339 0000 2DE9F04F 		push	{r4, r5, r6, r7, r8, r9, r10, fp, lr}
 340              	.LCFI3:
 341              		.cfi_def_cfa_offset 36
 342              		.cfi_offset 4, -36
 343              		.cfi_offset 5, -32
 344              		.cfi_offset 6, -28
 345              		.cfi_offset 7, -24
 346              		.cfi_offset 8, -20
 347              		.cfi_offset 9, -16
 348              		.cfi_offset 10, -12
 349              		.cfi_offset 11, -8
 350              		.cfi_offset 14, -4
 351 0004 8BB0     		sub	sp, sp, #44
 352              	.LCFI4:
 353              		.cfi_def_cfa_offset 80
 354 0006 0546     		mov	r5, r0
 355 0008 0C46     		mov	r4, r1
 866:lvgl/src/widgets/lv_table.c ****     const lv_coord_t cell_pad_right = lv_obj_get_style_pad_right(obj, LV_PART_ITEMS);
 356              		.loc 1 866 5 is_stmt 1 view .LVU103
 357              	.LVL39:
 358              	.LBB127:
 359              	.LBI127:
 360              		.file 3 "lvgl/src/widgets/../core/lv_obj_style_gen.h"
   1:lvgl/src/widgets/../core/lv_obj_style_gen.h **** static inline lv_coord_t lv_obj_get_style_width(const struct _lv_obj_t * obj, uint32_t part)
   2:lvgl/src/widgets/../core/lv_obj_style_gen.h **** {
   3:lvgl/src/widgets/../core/lv_obj_style_gen.h ****     lv_style_value_t v = lv_obj_get_style_prop(obj, part, LV_STYLE_WIDTH);
   4:lvgl/src/widgets/../core/lv_obj_style_gen.h ****     return (lv_coord_t)v.num;
   5:lvgl/src/widgets/../core/lv_obj_style_gen.h **** }
   6:lvgl/src/widgets/../core/lv_obj_style_gen.h **** 
   7:lvgl/src/widgets/../core/lv_obj_style_gen.h **** static inline lv_coord_t lv_obj_get_style_min_width(const struct _lv_obj_t * obj, uint32_t part)
   8:lvgl/src/widgets/../core/lv_obj_style_gen.h **** {
   9:lvgl/src/widgets/../core/lv_obj_style_gen.h ****     lv_style_value_t v = lv_obj_get_style_prop(obj, part, LV_STYLE_MIN_WIDTH);
  10:lvgl/src/widgets/../core/lv_obj_style_gen.h ****     return (lv_coord_t)v.num;
  11:lvgl/src/widgets/../core/lv_obj_style_gen.h **** }
  12:lvgl/src/widgets/../core/lv_obj_style_gen.h **** 
  13:lvgl/src/widgets/../core/lv_obj_style_gen.h **** static inline lv_coord_t lv_obj_get_style_max_width(const struct _lv_obj_t * obj, uint32_t part)
  14:lvgl/src/widgets/../core/lv_obj_style_gen.h **** {
  15:lvgl/src/widgets/../core/lv_obj_style_gen.h ****     lv_style_value_t v = lv_obj_get_style_prop(obj, part, LV_STYLE_MAX_WIDTH);
  16:lvgl/src/widgets/../core/lv_obj_style_gen.h ****     return (lv_coord_t)v.num;
  17:lvgl/src/widgets/../core/lv_obj_style_gen.h **** }
  18:lvgl/src/widgets/../core/lv_obj_style_gen.h **** 
  19:lvgl/src/widgets/../core/lv_obj_style_gen.h **** static inline lv_coord_t lv_obj_get_style_height(const struct _lv_obj_t * obj, uint32_t part)
  20:lvgl/src/widgets/../core/lv_obj_style_gen.h **** {
  21:lvgl/src/widgets/../core/lv_obj_style_gen.h ****     lv_style_value_t v = lv_obj_get_style_prop(obj, part, LV_STYLE_HEIGHT);
  22:lvgl/src/widgets/../core/lv_obj_style_gen.h ****     return (lv_coord_t)v.num;
  23:lvgl/src/widgets/../core/lv_obj_style_gen.h **** }
  24:lvgl/src/widgets/../core/lv_obj_style_gen.h **** 
ARM GAS  /var/folders/21/t9g5rlb91ys800n5npymflf80000gn/T//ccNiYEm1.s 			page 28


  25:lvgl/src/widgets/../core/lv_obj_style_gen.h **** static inline lv_coord_t lv_obj_get_style_min_height(const struct _lv_obj_t * obj, uint32_t part)
  26:lvgl/src/widgets/../core/lv_obj_style_gen.h **** {
  27:lvgl/src/widgets/../core/lv_obj_style_gen.h ****     lv_style_value_t v = lv_obj_get_style_prop(obj, part, LV_STYLE_MIN_HEIGHT);
  28:lvgl/src/widgets/../core/lv_obj_style_gen.h ****     return (lv_coord_t)v.num;
  29:lvgl/src/widgets/../core/lv_obj_style_gen.h **** }
  30:lvgl/src/widgets/../core/lv_obj_style_gen.h **** 
  31:lvgl/src/widgets/../core/lv_obj_style_gen.h **** static inline lv_coord_t lv_obj_get_style_max_height(const struct _lv_obj_t * obj, uint32_t part)
  32:lvgl/src/widgets/../core/lv_obj_style_gen.h **** {
  33:lvgl/src/widgets/../core/lv_obj_style_gen.h ****     lv_style_value_t v = lv_obj_get_style_prop(obj, part, LV_STYLE_MAX_HEIGHT);
  34:lvgl/src/widgets/../core/lv_obj_style_gen.h ****     return (lv_coord_t)v.num;
  35:lvgl/src/widgets/../core/lv_obj_style_gen.h **** }
  36:lvgl/src/widgets/../core/lv_obj_style_gen.h **** 
  37:lvgl/src/widgets/../core/lv_obj_style_gen.h **** static inline lv_coord_t lv_obj_get_style_x(const struct _lv_obj_t * obj, uint32_t part)
  38:lvgl/src/widgets/../core/lv_obj_style_gen.h **** {
  39:lvgl/src/widgets/../core/lv_obj_style_gen.h ****     lv_style_value_t v = lv_obj_get_style_prop(obj, part, LV_STYLE_X);
  40:lvgl/src/widgets/../core/lv_obj_style_gen.h ****     return (lv_coord_t)v.num;
  41:lvgl/src/widgets/../core/lv_obj_style_gen.h **** }
  42:lvgl/src/widgets/../core/lv_obj_style_gen.h **** 
  43:lvgl/src/widgets/../core/lv_obj_style_gen.h **** static inline lv_coord_t lv_obj_get_style_y(const struct _lv_obj_t * obj, uint32_t part)
  44:lvgl/src/widgets/../core/lv_obj_style_gen.h **** {
  45:lvgl/src/widgets/../core/lv_obj_style_gen.h ****     lv_style_value_t v = lv_obj_get_style_prop(obj, part, LV_STYLE_Y);
  46:lvgl/src/widgets/../core/lv_obj_style_gen.h ****     return (lv_coord_t)v.num;
  47:lvgl/src/widgets/../core/lv_obj_style_gen.h **** }
  48:lvgl/src/widgets/../core/lv_obj_style_gen.h **** 
  49:lvgl/src/widgets/../core/lv_obj_style_gen.h **** static inline lv_align_t lv_obj_get_style_align(const struct _lv_obj_t * obj, uint32_t part)
  50:lvgl/src/widgets/../core/lv_obj_style_gen.h **** {
  51:lvgl/src/widgets/../core/lv_obj_style_gen.h ****     lv_style_value_t v = lv_obj_get_style_prop(obj, part, LV_STYLE_ALIGN);
  52:lvgl/src/widgets/../core/lv_obj_style_gen.h ****     return (lv_align_t)v.num;
  53:lvgl/src/widgets/../core/lv_obj_style_gen.h **** }
  54:lvgl/src/widgets/../core/lv_obj_style_gen.h **** 
  55:lvgl/src/widgets/../core/lv_obj_style_gen.h **** static inline lv_coord_t lv_obj_get_style_transform_width(const struct _lv_obj_t * obj, uint32_t pa
  56:lvgl/src/widgets/../core/lv_obj_style_gen.h **** {
  57:lvgl/src/widgets/../core/lv_obj_style_gen.h ****     lv_style_value_t v = lv_obj_get_style_prop(obj, part, LV_STYLE_TRANSFORM_WIDTH);
  58:lvgl/src/widgets/../core/lv_obj_style_gen.h ****     return (lv_coord_t)v.num;
  59:lvgl/src/widgets/../core/lv_obj_style_gen.h **** }
  60:lvgl/src/widgets/../core/lv_obj_style_gen.h **** 
  61:lvgl/src/widgets/../core/lv_obj_style_gen.h **** static inline lv_coord_t lv_obj_get_style_transform_height(const struct _lv_obj_t * obj, uint32_t p
  62:lvgl/src/widgets/../core/lv_obj_style_gen.h **** {
  63:lvgl/src/widgets/../core/lv_obj_style_gen.h ****     lv_style_value_t v = lv_obj_get_style_prop(obj, part, LV_STYLE_TRANSFORM_HEIGHT);
  64:lvgl/src/widgets/../core/lv_obj_style_gen.h ****     return (lv_coord_t)v.num;
  65:lvgl/src/widgets/../core/lv_obj_style_gen.h **** }
  66:lvgl/src/widgets/../core/lv_obj_style_gen.h **** 
  67:lvgl/src/widgets/../core/lv_obj_style_gen.h **** static inline lv_coord_t lv_obj_get_style_translate_x(const struct _lv_obj_t * obj, uint32_t part)
  68:lvgl/src/widgets/../core/lv_obj_style_gen.h **** {
  69:lvgl/src/widgets/../core/lv_obj_style_gen.h ****     lv_style_value_t v = lv_obj_get_style_prop(obj, part, LV_STYLE_TRANSLATE_X);
  70:lvgl/src/widgets/../core/lv_obj_style_gen.h ****     return (lv_coord_t)v.num;
  71:lvgl/src/widgets/../core/lv_obj_style_gen.h **** }
  72:lvgl/src/widgets/../core/lv_obj_style_gen.h **** 
  73:lvgl/src/widgets/../core/lv_obj_style_gen.h **** static inline lv_coord_t lv_obj_get_style_translate_y(const struct _lv_obj_t * obj, uint32_t part)
  74:lvgl/src/widgets/../core/lv_obj_style_gen.h **** {
  75:lvgl/src/widgets/../core/lv_obj_style_gen.h ****     lv_style_value_t v = lv_obj_get_style_prop(obj, part, LV_STYLE_TRANSLATE_Y);
  76:lvgl/src/widgets/../core/lv_obj_style_gen.h ****     return (lv_coord_t)v.num;
  77:lvgl/src/widgets/../core/lv_obj_style_gen.h **** }
  78:lvgl/src/widgets/../core/lv_obj_style_gen.h **** 
  79:lvgl/src/widgets/../core/lv_obj_style_gen.h **** static inline lv_coord_t lv_obj_get_style_transform_zoom(const struct _lv_obj_t * obj, uint32_t par
  80:lvgl/src/widgets/../core/lv_obj_style_gen.h **** {
  81:lvgl/src/widgets/../core/lv_obj_style_gen.h ****     lv_style_value_t v = lv_obj_get_style_prop(obj, part, LV_STYLE_TRANSFORM_ZOOM);
ARM GAS  /var/folders/21/t9g5rlb91ys800n5npymflf80000gn/T//ccNiYEm1.s 			page 29


  82:lvgl/src/widgets/../core/lv_obj_style_gen.h ****     return (lv_coord_t)v.num;
  83:lvgl/src/widgets/../core/lv_obj_style_gen.h **** }
  84:lvgl/src/widgets/../core/lv_obj_style_gen.h **** 
  85:lvgl/src/widgets/../core/lv_obj_style_gen.h **** static inline lv_coord_t lv_obj_get_style_transform_angle(const struct _lv_obj_t * obj, uint32_t pa
  86:lvgl/src/widgets/../core/lv_obj_style_gen.h **** {
  87:lvgl/src/widgets/../core/lv_obj_style_gen.h ****     lv_style_value_t v = lv_obj_get_style_prop(obj, part, LV_STYLE_TRANSFORM_ANGLE);
  88:lvgl/src/widgets/../core/lv_obj_style_gen.h ****     return (lv_coord_t)v.num;
  89:lvgl/src/widgets/../core/lv_obj_style_gen.h **** }
  90:lvgl/src/widgets/../core/lv_obj_style_gen.h **** 
  91:lvgl/src/widgets/../core/lv_obj_style_gen.h **** static inline lv_coord_t lv_obj_get_style_transform_pivot_x(const struct _lv_obj_t * obj, uint32_t 
  92:lvgl/src/widgets/../core/lv_obj_style_gen.h **** {
  93:lvgl/src/widgets/../core/lv_obj_style_gen.h ****     lv_style_value_t v = lv_obj_get_style_prop(obj, part, LV_STYLE_TRANSFORM_PIVOT_X);
  94:lvgl/src/widgets/../core/lv_obj_style_gen.h ****     return (lv_coord_t)v.num;
  95:lvgl/src/widgets/../core/lv_obj_style_gen.h **** }
  96:lvgl/src/widgets/../core/lv_obj_style_gen.h **** 
  97:lvgl/src/widgets/../core/lv_obj_style_gen.h **** static inline lv_coord_t lv_obj_get_style_transform_pivot_y(const struct _lv_obj_t * obj, uint32_t 
  98:lvgl/src/widgets/../core/lv_obj_style_gen.h **** {
  99:lvgl/src/widgets/../core/lv_obj_style_gen.h ****     lv_style_value_t v = lv_obj_get_style_prop(obj, part, LV_STYLE_TRANSFORM_PIVOT_Y);
 100:lvgl/src/widgets/../core/lv_obj_style_gen.h ****     return (lv_coord_t)v.num;
 101:lvgl/src/widgets/../core/lv_obj_style_gen.h **** }
 102:lvgl/src/widgets/../core/lv_obj_style_gen.h **** 
 103:lvgl/src/widgets/../core/lv_obj_style_gen.h **** static inline lv_coord_t lv_obj_get_style_pad_top(const struct _lv_obj_t * obj, uint32_t part)
 104:lvgl/src/widgets/../core/lv_obj_style_gen.h **** {
 105:lvgl/src/widgets/../core/lv_obj_style_gen.h ****     lv_style_value_t v = lv_obj_get_style_prop(obj, part, LV_STYLE_PAD_TOP);
 106:lvgl/src/widgets/../core/lv_obj_style_gen.h ****     return (lv_coord_t)v.num;
 107:lvgl/src/widgets/../core/lv_obj_style_gen.h **** }
 108:lvgl/src/widgets/../core/lv_obj_style_gen.h **** 
 109:lvgl/src/widgets/../core/lv_obj_style_gen.h **** static inline lv_coord_t lv_obj_get_style_pad_bottom(const struct _lv_obj_t * obj, uint32_t part)
 110:lvgl/src/widgets/../core/lv_obj_style_gen.h **** {
 111:lvgl/src/widgets/../core/lv_obj_style_gen.h ****     lv_style_value_t v = lv_obj_get_style_prop(obj, part, LV_STYLE_PAD_BOTTOM);
 112:lvgl/src/widgets/../core/lv_obj_style_gen.h ****     return (lv_coord_t)v.num;
 113:lvgl/src/widgets/../core/lv_obj_style_gen.h **** }
 114:lvgl/src/widgets/../core/lv_obj_style_gen.h **** 
 115:lvgl/src/widgets/../core/lv_obj_style_gen.h **** static inline lv_coord_t lv_obj_get_style_pad_left(const struct _lv_obj_t * obj, uint32_t part)
 361              		.loc 3 115 26 view .LVU104
 362              	.LBB128:
 116:lvgl/src/widgets/../core/lv_obj_style_gen.h **** {
 117:lvgl/src/widgets/../core/lv_obj_style_gen.h ****     lv_style_value_t v = lv_obj_get_style_prop(obj, part, LV_STYLE_PAD_LEFT);
 363              		.loc 3 117 5 view .LVU105
 364              		.loc 3 117 26 is_stmt 0 view .LVU106
 365 000a 1222     		movs	r2, #18
 366 000c 4FF4A021 		mov	r1, #327680
 367              	.LVL40:
 368              		.loc 3 117 26 view .LVU107
 369 0010 FFF7FEFF 		bl	lv_obj_get_style_prop
 370              	.LVL41:
 118:lvgl/src/widgets/../core/lv_obj_style_gen.h ****     return (lv_coord_t)v.num;
 371              		.loc 3 118 5 is_stmt 1 view .LVU108
 372              		.loc 3 118 12 is_stmt 0 view .LVU109
 373 0014 0FFA80FB 		sxth	fp, r0
 374              	.LVL42:
 375              		.loc 3 118 12 view .LVU110
 376              	.LBE128:
 377              	.LBE127:
 867:lvgl/src/widgets/lv_table.c ****     const lv_coord_t cell_pad_top = lv_obj_get_style_pad_top(obj, LV_PART_ITEMS);
 378              		.loc 1 867 5 is_stmt 1 view .LVU111
 379              	.LBB129:
ARM GAS  /var/folders/21/t9g5rlb91ys800n5npymflf80000gn/T//ccNiYEm1.s 			page 30


 380              	.LBI129:
 119:lvgl/src/widgets/../core/lv_obj_style_gen.h **** }
 120:lvgl/src/widgets/../core/lv_obj_style_gen.h **** 
 121:lvgl/src/widgets/../core/lv_obj_style_gen.h **** static inline lv_coord_t lv_obj_get_style_pad_right(const struct _lv_obj_t * obj, uint32_t part)
 381              		.loc 3 121 26 view .LVU112
 382              	.LBB130:
 122:lvgl/src/widgets/../core/lv_obj_style_gen.h **** {
 123:lvgl/src/widgets/../core/lv_obj_style_gen.h ****     lv_style_value_t v = lv_obj_get_style_prop(obj, part, LV_STYLE_PAD_RIGHT);
 383              		.loc 3 123 5 view .LVU113
 384              		.loc 3 123 26 is_stmt 0 view .LVU114
 385 0018 1322     		movs	r2, #19
 386 001a 4FF4A021 		mov	r1, #327680
 387 001e 2846     		mov	r0, r5
 388 0020 FFF7FEFF 		bl	lv_obj_get_style_prop
 389              	.LVL43:
 124:lvgl/src/widgets/../core/lv_obj_style_gen.h ****     return (lv_coord_t)v.num;
 390              		.loc 3 124 5 is_stmt 1 view .LVU115
 391              		.loc 3 124 12 is_stmt 0 view .LVU116
 392 0024 0FFA80FA 		sxth	r10, r0
 393              	.LVL44:
 394              		.loc 3 124 12 view .LVU117
 395              	.LBE130:
 396              	.LBE129:
 868:lvgl/src/widgets/lv_table.c ****     const lv_coord_t cell_pad_bottom = lv_obj_get_style_pad_bottom(obj, LV_PART_ITEMS);
 397              		.loc 1 868 5 is_stmt 1 view .LVU118
 398              	.LBB131:
 399              	.LBI131:
 103:lvgl/src/widgets/../core/lv_obj_style_gen.h **** {
 400              		.loc 3 103 26 view .LVU119
 401              	.LBB132:
 105:lvgl/src/widgets/../core/lv_obj_style_gen.h ****     return (lv_coord_t)v.num;
 402              		.loc 3 105 5 view .LVU120
 105:lvgl/src/widgets/../core/lv_obj_style_gen.h ****     return (lv_coord_t)v.num;
 403              		.loc 3 105 26 is_stmt 0 view .LVU121
 404 0028 1022     		movs	r2, #16
 405 002a 4FF4A021 		mov	r1, #327680
 406 002e 2846     		mov	r0, r5
 407 0030 FFF7FEFF 		bl	lv_obj_get_style_prop
 408              	.LVL45:
 106:lvgl/src/widgets/../core/lv_obj_style_gen.h **** }
 409              		.loc 3 106 5 is_stmt 1 view .LVU122
 106:lvgl/src/widgets/../core/lv_obj_style_gen.h **** }
 410              		.loc 3 106 12 is_stmt 0 view .LVU123
 411 0034 0FFA80F9 		sxth	r9, r0
 412              	.LVL46:
 106:lvgl/src/widgets/../core/lv_obj_style_gen.h **** }
 413              		.loc 3 106 12 view .LVU124
 414              	.LBE132:
 415              	.LBE131:
 869:lvgl/src/widgets/lv_table.c **** 
 416              		.loc 1 869 5 is_stmt 1 view .LVU125
 417              	.LBB133:
 418              	.LBI133:
 109:lvgl/src/widgets/../core/lv_obj_style_gen.h **** {
 419              		.loc 3 109 26 view .LVU126
 420              	.LBB134:
 111:lvgl/src/widgets/../core/lv_obj_style_gen.h ****     return (lv_coord_t)v.num;
ARM GAS  /var/folders/21/t9g5rlb91ys800n5npymflf80000gn/T//ccNiYEm1.s 			page 31


 421              		.loc 3 111 5 view .LVU127
 111:lvgl/src/widgets/../core/lv_obj_style_gen.h ****     return (lv_coord_t)v.num;
 422              		.loc 3 111 26 is_stmt 0 view .LVU128
 423 0038 1122     		movs	r2, #17
 424 003a 4FF4A021 		mov	r1, #327680
 425 003e 2846     		mov	r0, r5
 426 0040 FFF7FEFF 		bl	lv_obj_get_style_prop
 427              	.LVL47:
 112:lvgl/src/widgets/../core/lv_obj_style_gen.h **** }
 428              		.loc 3 112 5 is_stmt 1 view .LVU129
 112:lvgl/src/widgets/../core/lv_obj_style_gen.h **** }
 429              		.loc 3 112 12 is_stmt 0 view .LVU130
 430 0044 03B2     		sxth	r3, r0
 431 0046 0993     		str	r3, [sp, #36]
 432              	.LVL48:
 112:lvgl/src/widgets/../core/lv_obj_style_gen.h **** }
 433              		.loc 3 112 12 view .LVU131
 434              	.LBE134:
 435              	.LBE133:
 871:lvgl/src/widgets/lv_table.c ****     lv_coord_t line_space = lv_obj_get_style_text_line_space(obj, LV_PART_ITEMS);
 436              		.loc 1 871 5 is_stmt 1 view .LVU132
 437              	.LBB135:
 438              	.LBI135:
 125:lvgl/src/widgets/../core/lv_obj_style_gen.h **** }
 126:lvgl/src/widgets/../core/lv_obj_style_gen.h **** 
 127:lvgl/src/widgets/../core/lv_obj_style_gen.h **** static inline lv_coord_t lv_obj_get_style_pad_row(const struct _lv_obj_t * obj, uint32_t part)
 128:lvgl/src/widgets/../core/lv_obj_style_gen.h **** {
 129:lvgl/src/widgets/../core/lv_obj_style_gen.h ****     lv_style_value_t v = lv_obj_get_style_prop(obj, part, LV_STYLE_PAD_ROW);
 130:lvgl/src/widgets/../core/lv_obj_style_gen.h ****     return (lv_coord_t)v.num;
 131:lvgl/src/widgets/../core/lv_obj_style_gen.h **** }
 132:lvgl/src/widgets/../core/lv_obj_style_gen.h **** 
 133:lvgl/src/widgets/../core/lv_obj_style_gen.h **** static inline lv_coord_t lv_obj_get_style_pad_column(const struct _lv_obj_t * obj, uint32_t part)
 134:lvgl/src/widgets/../core/lv_obj_style_gen.h **** {
 135:lvgl/src/widgets/../core/lv_obj_style_gen.h ****     lv_style_value_t v = lv_obj_get_style_prop(obj, part, LV_STYLE_PAD_COLUMN);
 136:lvgl/src/widgets/../core/lv_obj_style_gen.h ****     return (lv_coord_t)v.num;
 137:lvgl/src/widgets/../core/lv_obj_style_gen.h **** }
 138:lvgl/src/widgets/../core/lv_obj_style_gen.h **** 
 139:lvgl/src/widgets/../core/lv_obj_style_gen.h **** static inline lv_color_t lv_obj_get_style_bg_color(const struct _lv_obj_t * obj, uint32_t part)
 140:lvgl/src/widgets/../core/lv_obj_style_gen.h **** {
 141:lvgl/src/widgets/../core/lv_obj_style_gen.h ****     lv_style_value_t v = lv_obj_get_style_prop(obj, part, LV_STYLE_BG_COLOR);
 142:lvgl/src/widgets/../core/lv_obj_style_gen.h ****     return v.color;
 143:lvgl/src/widgets/../core/lv_obj_style_gen.h **** }
 144:lvgl/src/widgets/../core/lv_obj_style_gen.h **** 
 145:lvgl/src/widgets/../core/lv_obj_style_gen.h **** static inline lv_color_t lv_obj_get_style_bg_color_filtered(const struct _lv_obj_t * obj, uint32_t 
 146:lvgl/src/widgets/../core/lv_obj_style_gen.h **** {
 147:lvgl/src/widgets/../core/lv_obj_style_gen.h ****     lv_style_value_t v = _lv_obj_style_apply_color_filter(obj, part, lv_obj_get_style_prop(obj, par
 148:lvgl/src/widgets/../core/lv_obj_style_gen.h ****     return v.color;
 149:lvgl/src/widgets/../core/lv_obj_style_gen.h **** }
 150:lvgl/src/widgets/../core/lv_obj_style_gen.h **** 
 151:lvgl/src/widgets/../core/lv_obj_style_gen.h **** static inline lv_opa_t lv_obj_get_style_bg_opa(const struct _lv_obj_t * obj, uint32_t part)
 152:lvgl/src/widgets/../core/lv_obj_style_gen.h **** {
 153:lvgl/src/widgets/../core/lv_obj_style_gen.h ****     lv_style_value_t v = lv_obj_get_style_prop(obj, part, LV_STYLE_BG_OPA);
 154:lvgl/src/widgets/../core/lv_obj_style_gen.h ****     return (lv_opa_t)v.num;
 155:lvgl/src/widgets/../core/lv_obj_style_gen.h **** }
 156:lvgl/src/widgets/../core/lv_obj_style_gen.h **** 
 157:lvgl/src/widgets/../core/lv_obj_style_gen.h **** static inline lv_color_t lv_obj_get_style_bg_grad_color(const struct _lv_obj_t * obj, uint32_t part
 158:lvgl/src/widgets/../core/lv_obj_style_gen.h **** {
ARM GAS  /var/folders/21/t9g5rlb91ys800n5npymflf80000gn/T//ccNiYEm1.s 			page 32


 159:lvgl/src/widgets/../core/lv_obj_style_gen.h ****     lv_style_value_t v = lv_obj_get_style_prop(obj, part, LV_STYLE_BG_GRAD_COLOR);
 160:lvgl/src/widgets/../core/lv_obj_style_gen.h ****     return v.color;
 161:lvgl/src/widgets/../core/lv_obj_style_gen.h **** }
 162:lvgl/src/widgets/../core/lv_obj_style_gen.h **** 
 163:lvgl/src/widgets/../core/lv_obj_style_gen.h **** static inline lv_color_t lv_obj_get_style_bg_grad_color_filtered(const struct _lv_obj_t * obj, uint
 164:lvgl/src/widgets/../core/lv_obj_style_gen.h **** {
 165:lvgl/src/widgets/../core/lv_obj_style_gen.h ****     lv_style_value_t v = _lv_obj_style_apply_color_filter(obj, part, lv_obj_get_style_prop(obj, par
 166:lvgl/src/widgets/../core/lv_obj_style_gen.h ****     return v.color;
 167:lvgl/src/widgets/../core/lv_obj_style_gen.h **** }
 168:lvgl/src/widgets/../core/lv_obj_style_gen.h **** 
 169:lvgl/src/widgets/../core/lv_obj_style_gen.h **** static inline lv_grad_dir_t lv_obj_get_style_bg_grad_dir(const struct _lv_obj_t * obj, uint32_t par
 170:lvgl/src/widgets/../core/lv_obj_style_gen.h **** {
 171:lvgl/src/widgets/../core/lv_obj_style_gen.h ****     lv_style_value_t v = lv_obj_get_style_prop(obj, part, LV_STYLE_BG_GRAD_DIR);
 172:lvgl/src/widgets/../core/lv_obj_style_gen.h ****     return (lv_grad_dir_t)v.num;
 173:lvgl/src/widgets/../core/lv_obj_style_gen.h **** }
 174:lvgl/src/widgets/../core/lv_obj_style_gen.h **** 
 175:lvgl/src/widgets/../core/lv_obj_style_gen.h **** static inline lv_coord_t lv_obj_get_style_bg_main_stop(const struct _lv_obj_t * obj, uint32_t part)
 176:lvgl/src/widgets/../core/lv_obj_style_gen.h **** {
 177:lvgl/src/widgets/../core/lv_obj_style_gen.h ****     lv_style_value_t v = lv_obj_get_style_prop(obj, part, LV_STYLE_BG_MAIN_STOP);
 178:lvgl/src/widgets/../core/lv_obj_style_gen.h ****     return (lv_coord_t)v.num;
 179:lvgl/src/widgets/../core/lv_obj_style_gen.h **** }
 180:lvgl/src/widgets/../core/lv_obj_style_gen.h **** 
 181:lvgl/src/widgets/../core/lv_obj_style_gen.h **** static inline lv_coord_t lv_obj_get_style_bg_grad_stop(const struct _lv_obj_t * obj, uint32_t part)
 182:lvgl/src/widgets/../core/lv_obj_style_gen.h **** {
 183:lvgl/src/widgets/../core/lv_obj_style_gen.h ****     lv_style_value_t v = lv_obj_get_style_prop(obj, part, LV_STYLE_BG_GRAD_STOP);
 184:lvgl/src/widgets/../core/lv_obj_style_gen.h ****     return (lv_coord_t)v.num;
 185:lvgl/src/widgets/../core/lv_obj_style_gen.h **** }
 186:lvgl/src/widgets/../core/lv_obj_style_gen.h **** 
 187:lvgl/src/widgets/../core/lv_obj_style_gen.h **** static inline const lv_grad_dsc_t * lv_obj_get_style_bg_grad(const struct _lv_obj_t * obj, uint32_t
 188:lvgl/src/widgets/../core/lv_obj_style_gen.h **** {
 189:lvgl/src/widgets/../core/lv_obj_style_gen.h ****     lv_style_value_t v = lv_obj_get_style_prop(obj, part, LV_STYLE_BG_GRAD);
 190:lvgl/src/widgets/../core/lv_obj_style_gen.h ****     return (const lv_grad_dsc_t *)v.ptr;
 191:lvgl/src/widgets/../core/lv_obj_style_gen.h **** }
 192:lvgl/src/widgets/../core/lv_obj_style_gen.h **** 
 193:lvgl/src/widgets/../core/lv_obj_style_gen.h **** static inline lv_dither_mode_t lv_obj_get_style_bg_dither_mode(const struct _lv_obj_t * obj, uint32
 194:lvgl/src/widgets/../core/lv_obj_style_gen.h **** {
 195:lvgl/src/widgets/../core/lv_obj_style_gen.h ****     lv_style_value_t v = lv_obj_get_style_prop(obj, part, LV_STYLE_BG_DITHER_MODE);
 196:lvgl/src/widgets/../core/lv_obj_style_gen.h ****     return (lv_dither_mode_t)v.num;
 197:lvgl/src/widgets/../core/lv_obj_style_gen.h **** }
 198:lvgl/src/widgets/../core/lv_obj_style_gen.h **** 
 199:lvgl/src/widgets/../core/lv_obj_style_gen.h **** static inline const void * lv_obj_get_style_bg_img_src(const struct _lv_obj_t * obj, uint32_t part)
 200:lvgl/src/widgets/../core/lv_obj_style_gen.h **** {
 201:lvgl/src/widgets/../core/lv_obj_style_gen.h ****     lv_style_value_t v = lv_obj_get_style_prop(obj, part, LV_STYLE_BG_IMG_SRC);
 202:lvgl/src/widgets/../core/lv_obj_style_gen.h ****     return (const void *)v.ptr;
 203:lvgl/src/widgets/../core/lv_obj_style_gen.h **** }
 204:lvgl/src/widgets/../core/lv_obj_style_gen.h **** 
 205:lvgl/src/widgets/../core/lv_obj_style_gen.h **** static inline lv_opa_t lv_obj_get_style_bg_img_opa(const struct _lv_obj_t * obj, uint32_t part)
 206:lvgl/src/widgets/../core/lv_obj_style_gen.h **** {
 207:lvgl/src/widgets/../core/lv_obj_style_gen.h ****     lv_style_value_t v = lv_obj_get_style_prop(obj, part, LV_STYLE_BG_IMG_OPA);
 208:lvgl/src/widgets/../core/lv_obj_style_gen.h ****     return (lv_opa_t)v.num;
 209:lvgl/src/widgets/../core/lv_obj_style_gen.h **** }
 210:lvgl/src/widgets/../core/lv_obj_style_gen.h **** 
 211:lvgl/src/widgets/../core/lv_obj_style_gen.h **** static inline lv_color_t lv_obj_get_style_bg_img_recolor(const struct _lv_obj_t * obj, uint32_t par
 212:lvgl/src/widgets/../core/lv_obj_style_gen.h **** {
 213:lvgl/src/widgets/../core/lv_obj_style_gen.h ****     lv_style_value_t v = lv_obj_get_style_prop(obj, part, LV_STYLE_BG_IMG_RECOLOR);
 214:lvgl/src/widgets/../core/lv_obj_style_gen.h ****     return v.color;
 215:lvgl/src/widgets/../core/lv_obj_style_gen.h **** }
ARM GAS  /var/folders/21/t9g5rlb91ys800n5npymflf80000gn/T//ccNiYEm1.s 			page 33


 216:lvgl/src/widgets/../core/lv_obj_style_gen.h **** 
 217:lvgl/src/widgets/../core/lv_obj_style_gen.h **** static inline lv_color_t lv_obj_get_style_bg_img_recolor_filtered(const struct _lv_obj_t * obj, uin
 218:lvgl/src/widgets/../core/lv_obj_style_gen.h **** {
 219:lvgl/src/widgets/../core/lv_obj_style_gen.h ****     lv_style_value_t v = _lv_obj_style_apply_color_filter(obj, part, lv_obj_get_style_prop(obj, par
 220:lvgl/src/widgets/../core/lv_obj_style_gen.h ****     return v.color;
 221:lvgl/src/widgets/../core/lv_obj_style_gen.h **** }
 222:lvgl/src/widgets/../core/lv_obj_style_gen.h **** 
 223:lvgl/src/widgets/../core/lv_obj_style_gen.h **** static inline lv_opa_t lv_obj_get_style_bg_img_recolor_opa(const struct _lv_obj_t * obj, uint32_t p
 224:lvgl/src/widgets/../core/lv_obj_style_gen.h **** {
 225:lvgl/src/widgets/../core/lv_obj_style_gen.h ****     lv_style_value_t v = lv_obj_get_style_prop(obj, part, LV_STYLE_BG_IMG_RECOLOR_OPA);
 226:lvgl/src/widgets/../core/lv_obj_style_gen.h ****     return (lv_opa_t)v.num;
 227:lvgl/src/widgets/../core/lv_obj_style_gen.h **** }
 228:lvgl/src/widgets/../core/lv_obj_style_gen.h **** 
 229:lvgl/src/widgets/../core/lv_obj_style_gen.h **** static inline bool lv_obj_get_style_bg_img_tiled(const struct _lv_obj_t * obj, uint32_t part)
 230:lvgl/src/widgets/../core/lv_obj_style_gen.h **** {
 231:lvgl/src/widgets/../core/lv_obj_style_gen.h ****     lv_style_value_t v = lv_obj_get_style_prop(obj, part, LV_STYLE_BG_IMG_TILED);
 232:lvgl/src/widgets/../core/lv_obj_style_gen.h ****     return (bool)v.num;
 233:lvgl/src/widgets/../core/lv_obj_style_gen.h **** }
 234:lvgl/src/widgets/../core/lv_obj_style_gen.h **** 
 235:lvgl/src/widgets/../core/lv_obj_style_gen.h **** static inline lv_color_t lv_obj_get_style_border_color(const struct _lv_obj_t * obj, uint32_t part)
 236:lvgl/src/widgets/../core/lv_obj_style_gen.h **** {
 237:lvgl/src/widgets/../core/lv_obj_style_gen.h ****     lv_style_value_t v = lv_obj_get_style_prop(obj, part, LV_STYLE_BORDER_COLOR);
 238:lvgl/src/widgets/../core/lv_obj_style_gen.h ****     return v.color;
 239:lvgl/src/widgets/../core/lv_obj_style_gen.h **** }
 240:lvgl/src/widgets/../core/lv_obj_style_gen.h **** 
 241:lvgl/src/widgets/../core/lv_obj_style_gen.h **** static inline lv_color_t lv_obj_get_style_border_color_filtered(const struct _lv_obj_t * obj, uint3
 242:lvgl/src/widgets/../core/lv_obj_style_gen.h **** {
 243:lvgl/src/widgets/../core/lv_obj_style_gen.h ****     lv_style_value_t v = _lv_obj_style_apply_color_filter(obj, part, lv_obj_get_style_prop(obj, par
 244:lvgl/src/widgets/../core/lv_obj_style_gen.h ****     return v.color;
 245:lvgl/src/widgets/../core/lv_obj_style_gen.h **** }
 246:lvgl/src/widgets/../core/lv_obj_style_gen.h **** 
 247:lvgl/src/widgets/../core/lv_obj_style_gen.h **** static inline lv_opa_t lv_obj_get_style_border_opa(const struct _lv_obj_t * obj, uint32_t part)
 248:lvgl/src/widgets/../core/lv_obj_style_gen.h **** {
 249:lvgl/src/widgets/../core/lv_obj_style_gen.h ****     lv_style_value_t v = lv_obj_get_style_prop(obj, part, LV_STYLE_BORDER_OPA);
 250:lvgl/src/widgets/../core/lv_obj_style_gen.h ****     return (lv_opa_t)v.num;
 251:lvgl/src/widgets/../core/lv_obj_style_gen.h **** }
 252:lvgl/src/widgets/../core/lv_obj_style_gen.h **** 
 253:lvgl/src/widgets/../core/lv_obj_style_gen.h **** static inline lv_coord_t lv_obj_get_style_border_width(const struct _lv_obj_t * obj, uint32_t part)
 254:lvgl/src/widgets/../core/lv_obj_style_gen.h **** {
 255:lvgl/src/widgets/../core/lv_obj_style_gen.h ****     lv_style_value_t v = lv_obj_get_style_prop(obj, part, LV_STYLE_BORDER_WIDTH);
 256:lvgl/src/widgets/../core/lv_obj_style_gen.h ****     return (lv_coord_t)v.num;
 257:lvgl/src/widgets/../core/lv_obj_style_gen.h **** }
 258:lvgl/src/widgets/../core/lv_obj_style_gen.h **** 
 259:lvgl/src/widgets/../core/lv_obj_style_gen.h **** static inline lv_border_side_t lv_obj_get_style_border_side(const struct _lv_obj_t * obj, uint32_t 
 260:lvgl/src/widgets/../core/lv_obj_style_gen.h **** {
 261:lvgl/src/widgets/../core/lv_obj_style_gen.h ****     lv_style_value_t v = lv_obj_get_style_prop(obj, part, LV_STYLE_BORDER_SIDE);
 262:lvgl/src/widgets/../core/lv_obj_style_gen.h ****     return (lv_border_side_t)v.num;
 263:lvgl/src/widgets/../core/lv_obj_style_gen.h **** }
 264:lvgl/src/widgets/../core/lv_obj_style_gen.h **** 
 265:lvgl/src/widgets/../core/lv_obj_style_gen.h **** static inline bool lv_obj_get_style_border_post(const struct _lv_obj_t * obj, uint32_t part)
 266:lvgl/src/widgets/../core/lv_obj_style_gen.h **** {
 267:lvgl/src/widgets/../core/lv_obj_style_gen.h ****     lv_style_value_t v = lv_obj_get_style_prop(obj, part, LV_STYLE_BORDER_POST);
 268:lvgl/src/widgets/../core/lv_obj_style_gen.h ****     return (bool)v.num;
 269:lvgl/src/widgets/../core/lv_obj_style_gen.h **** }
 270:lvgl/src/widgets/../core/lv_obj_style_gen.h **** 
 271:lvgl/src/widgets/../core/lv_obj_style_gen.h **** static inline lv_coord_t lv_obj_get_style_outline_width(const struct _lv_obj_t * obj, uint32_t part
 272:lvgl/src/widgets/../core/lv_obj_style_gen.h **** {
ARM GAS  /var/folders/21/t9g5rlb91ys800n5npymflf80000gn/T//ccNiYEm1.s 			page 34


 273:lvgl/src/widgets/../core/lv_obj_style_gen.h ****     lv_style_value_t v = lv_obj_get_style_prop(obj, part, LV_STYLE_OUTLINE_WIDTH);
 274:lvgl/src/widgets/../core/lv_obj_style_gen.h ****     return (lv_coord_t)v.num;
 275:lvgl/src/widgets/../core/lv_obj_style_gen.h **** }
 276:lvgl/src/widgets/../core/lv_obj_style_gen.h **** 
 277:lvgl/src/widgets/../core/lv_obj_style_gen.h **** static inline lv_color_t lv_obj_get_style_outline_color(const struct _lv_obj_t * obj, uint32_t part
 278:lvgl/src/widgets/../core/lv_obj_style_gen.h **** {
 279:lvgl/src/widgets/../core/lv_obj_style_gen.h ****     lv_style_value_t v = lv_obj_get_style_prop(obj, part, LV_STYLE_OUTLINE_COLOR);
 280:lvgl/src/widgets/../core/lv_obj_style_gen.h ****     return v.color;
 281:lvgl/src/widgets/../core/lv_obj_style_gen.h **** }
 282:lvgl/src/widgets/../core/lv_obj_style_gen.h **** 
 283:lvgl/src/widgets/../core/lv_obj_style_gen.h **** static inline lv_color_t lv_obj_get_style_outline_color_filtered(const struct _lv_obj_t * obj, uint
 284:lvgl/src/widgets/../core/lv_obj_style_gen.h **** {
 285:lvgl/src/widgets/../core/lv_obj_style_gen.h ****     lv_style_value_t v = _lv_obj_style_apply_color_filter(obj, part, lv_obj_get_style_prop(obj, par
 286:lvgl/src/widgets/../core/lv_obj_style_gen.h ****     return v.color;
 287:lvgl/src/widgets/../core/lv_obj_style_gen.h **** }
 288:lvgl/src/widgets/../core/lv_obj_style_gen.h **** 
 289:lvgl/src/widgets/../core/lv_obj_style_gen.h **** static inline lv_opa_t lv_obj_get_style_outline_opa(const struct _lv_obj_t * obj, uint32_t part)
 290:lvgl/src/widgets/../core/lv_obj_style_gen.h **** {
 291:lvgl/src/widgets/../core/lv_obj_style_gen.h ****     lv_style_value_t v = lv_obj_get_style_prop(obj, part, LV_STYLE_OUTLINE_OPA);
 292:lvgl/src/widgets/../core/lv_obj_style_gen.h ****     return (lv_opa_t)v.num;
 293:lvgl/src/widgets/../core/lv_obj_style_gen.h **** }
 294:lvgl/src/widgets/../core/lv_obj_style_gen.h **** 
 295:lvgl/src/widgets/../core/lv_obj_style_gen.h **** static inline lv_coord_t lv_obj_get_style_outline_pad(const struct _lv_obj_t * obj, uint32_t part)
 296:lvgl/src/widgets/../core/lv_obj_style_gen.h **** {
 297:lvgl/src/widgets/../core/lv_obj_style_gen.h ****     lv_style_value_t v = lv_obj_get_style_prop(obj, part, LV_STYLE_OUTLINE_PAD);
 298:lvgl/src/widgets/../core/lv_obj_style_gen.h ****     return (lv_coord_t)v.num;
 299:lvgl/src/widgets/../core/lv_obj_style_gen.h **** }
 300:lvgl/src/widgets/../core/lv_obj_style_gen.h **** 
 301:lvgl/src/widgets/../core/lv_obj_style_gen.h **** static inline lv_coord_t lv_obj_get_style_shadow_width(const struct _lv_obj_t * obj, uint32_t part)
 302:lvgl/src/widgets/../core/lv_obj_style_gen.h **** {
 303:lvgl/src/widgets/../core/lv_obj_style_gen.h ****     lv_style_value_t v = lv_obj_get_style_prop(obj, part, LV_STYLE_SHADOW_WIDTH);
 304:lvgl/src/widgets/../core/lv_obj_style_gen.h ****     return (lv_coord_t)v.num;
 305:lvgl/src/widgets/../core/lv_obj_style_gen.h **** }
 306:lvgl/src/widgets/../core/lv_obj_style_gen.h **** 
 307:lvgl/src/widgets/../core/lv_obj_style_gen.h **** static inline lv_coord_t lv_obj_get_style_shadow_ofs_x(const struct _lv_obj_t * obj, uint32_t part)
 308:lvgl/src/widgets/../core/lv_obj_style_gen.h **** {
 309:lvgl/src/widgets/../core/lv_obj_style_gen.h ****     lv_style_value_t v = lv_obj_get_style_prop(obj, part, LV_STYLE_SHADOW_OFS_X);
 310:lvgl/src/widgets/../core/lv_obj_style_gen.h ****     return (lv_coord_t)v.num;
 311:lvgl/src/widgets/../core/lv_obj_style_gen.h **** }
 312:lvgl/src/widgets/../core/lv_obj_style_gen.h **** 
 313:lvgl/src/widgets/../core/lv_obj_style_gen.h **** static inline lv_coord_t lv_obj_get_style_shadow_ofs_y(const struct _lv_obj_t * obj, uint32_t part)
 314:lvgl/src/widgets/../core/lv_obj_style_gen.h **** {
 315:lvgl/src/widgets/../core/lv_obj_style_gen.h ****     lv_style_value_t v = lv_obj_get_style_prop(obj, part, LV_STYLE_SHADOW_OFS_Y);
 316:lvgl/src/widgets/../core/lv_obj_style_gen.h ****     return (lv_coord_t)v.num;
 317:lvgl/src/widgets/../core/lv_obj_style_gen.h **** }
 318:lvgl/src/widgets/../core/lv_obj_style_gen.h **** 
 319:lvgl/src/widgets/../core/lv_obj_style_gen.h **** static inline lv_coord_t lv_obj_get_style_shadow_spread(const struct _lv_obj_t * obj, uint32_t part
 320:lvgl/src/widgets/../core/lv_obj_style_gen.h **** {
 321:lvgl/src/widgets/../core/lv_obj_style_gen.h ****     lv_style_value_t v = lv_obj_get_style_prop(obj, part, LV_STYLE_SHADOW_SPREAD);
 322:lvgl/src/widgets/../core/lv_obj_style_gen.h ****     return (lv_coord_t)v.num;
 323:lvgl/src/widgets/../core/lv_obj_style_gen.h **** }
 324:lvgl/src/widgets/../core/lv_obj_style_gen.h **** 
 325:lvgl/src/widgets/../core/lv_obj_style_gen.h **** static inline lv_color_t lv_obj_get_style_shadow_color(const struct _lv_obj_t * obj, uint32_t part)
 326:lvgl/src/widgets/../core/lv_obj_style_gen.h **** {
 327:lvgl/src/widgets/../core/lv_obj_style_gen.h ****     lv_style_value_t v = lv_obj_get_style_prop(obj, part, LV_STYLE_SHADOW_COLOR);
 328:lvgl/src/widgets/../core/lv_obj_style_gen.h ****     return v.color;
 329:lvgl/src/widgets/../core/lv_obj_style_gen.h **** }
ARM GAS  /var/folders/21/t9g5rlb91ys800n5npymflf80000gn/T//ccNiYEm1.s 			page 35


 330:lvgl/src/widgets/../core/lv_obj_style_gen.h **** 
 331:lvgl/src/widgets/../core/lv_obj_style_gen.h **** static inline lv_color_t lv_obj_get_style_shadow_color_filtered(const struct _lv_obj_t * obj, uint3
 332:lvgl/src/widgets/../core/lv_obj_style_gen.h **** {
 333:lvgl/src/widgets/../core/lv_obj_style_gen.h ****     lv_style_value_t v = _lv_obj_style_apply_color_filter(obj, part, lv_obj_get_style_prop(obj, par
 334:lvgl/src/widgets/../core/lv_obj_style_gen.h ****     return v.color;
 335:lvgl/src/widgets/../core/lv_obj_style_gen.h **** }
 336:lvgl/src/widgets/../core/lv_obj_style_gen.h **** 
 337:lvgl/src/widgets/../core/lv_obj_style_gen.h **** static inline lv_opa_t lv_obj_get_style_shadow_opa(const struct _lv_obj_t * obj, uint32_t part)
 338:lvgl/src/widgets/../core/lv_obj_style_gen.h **** {
 339:lvgl/src/widgets/../core/lv_obj_style_gen.h ****     lv_style_value_t v = lv_obj_get_style_prop(obj, part, LV_STYLE_SHADOW_OPA);
 340:lvgl/src/widgets/../core/lv_obj_style_gen.h ****     return (lv_opa_t)v.num;
 341:lvgl/src/widgets/../core/lv_obj_style_gen.h **** }
 342:lvgl/src/widgets/../core/lv_obj_style_gen.h **** 
 343:lvgl/src/widgets/../core/lv_obj_style_gen.h **** static inline lv_opa_t lv_obj_get_style_img_opa(const struct _lv_obj_t * obj, uint32_t part)
 344:lvgl/src/widgets/../core/lv_obj_style_gen.h **** {
 345:lvgl/src/widgets/../core/lv_obj_style_gen.h ****     lv_style_value_t v = lv_obj_get_style_prop(obj, part, LV_STYLE_IMG_OPA);
 346:lvgl/src/widgets/../core/lv_obj_style_gen.h ****     return (lv_opa_t)v.num;
 347:lvgl/src/widgets/../core/lv_obj_style_gen.h **** }
 348:lvgl/src/widgets/../core/lv_obj_style_gen.h **** 
 349:lvgl/src/widgets/../core/lv_obj_style_gen.h **** static inline lv_color_t lv_obj_get_style_img_recolor(const struct _lv_obj_t * obj, uint32_t part)
 350:lvgl/src/widgets/../core/lv_obj_style_gen.h **** {
 351:lvgl/src/widgets/../core/lv_obj_style_gen.h ****     lv_style_value_t v = lv_obj_get_style_prop(obj, part, LV_STYLE_IMG_RECOLOR);
 352:lvgl/src/widgets/../core/lv_obj_style_gen.h ****     return v.color;
 353:lvgl/src/widgets/../core/lv_obj_style_gen.h **** }
 354:lvgl/src/widgets/../core/lv_obj_style_gen.h **** 
 355:lvgl/src/widgets/../core/lv_obj_style_gen.h **** static inline lv_color_t lv_obj_get_style_img_recolor_filtered(const struct _lv_obj_t * obj, uint32
 356:lvgl/src/widgets/../core/lv_obj_style_gen.h **** {
 357:lvgl/src/widgets/../core/lv_obj_style_gen.h ****     lv_style_value_t v = _lv_obj_style_apply_color_filter(obj, part, lv_obj_get_style_prop(obj, par
 358:lvgl/src/widgets/../core/lv_obj_style_gen.h ****     return v.color;
 359:lvgl/src/widgets/../core/lv_obj_style_gen.h **** }
 360:lvgl/src/widgets/../core/lv_obj_style_gen.h **** 
 361:lvgl/src/widgets/../core/lv_obj_style_gen.h **** static inline lv_opa_t lv_obj_get_style_img_recolor_opa(const struct _lv_obj_t * obj, uint32_t part
 362:lvgl/src/widgets/../core/lv_obj_style_gen.h **** {
 363:lvgl/src/widgets/../core/lv_obj_style_gen.h ****     lv_style_value_t v = lv_obj_get_style_prop(obj, part, LV_STYLE_IMG_RECOLOR_OPA);
 364:lvgl/src/widgets/../core/lv_obj_style_gen.h ****     return (lv_opa_t)v.num;
 365:lvgl/src/widgets/../core/lv_obj_style_gen.h **** }
 366:lvgl/src/widgets/../core/lv_obj_style_gen.h **** 
 367:lvgl/src/widgets/../core/lv_obj_style_gen.h **** static inline lv_coord_t lv_obj_get_style_line_width(const struct _lv_obj_t * obj, uint32_t part)
 368:lvgl/src/widgets/../core/lv_obj_style_gen.h **** {
 369:lvgl/src/widgets/../core/lv_obj_style_gen.h ****     lv_style_value_t v = lv_obj_get_style_prop(obj, part, LV_STYLE_LINE_WIDTH);
 370:lvgl/src/widgets/../core/lv_obj_style_gen.h ****     return (lv_coord_t)v.num;
 371:lvgl/src/widgets/../core/lv_obj_style_gen.h **** }
 372:lvgl/src/widgets/../core/lv_obj_style_gen.h **** 
 373:lvgl/src/widgets/../core/lv_obj_style_gen.h **** static inline lv_coord_t lv_obj_get_style_line_dash_width(const struct _lv_obj_t * obj, uint32_t pa
 374:lvgl/src/widgets/../core/lv_obj_style_gen.h **** {
 375:lvgl/src/widgets/../core/lv_obj_style_gen.h ****     lv_style_value_t v = lv_obj_get_style_prop(obj, part, LV_STYLE_LINE_DASH_WIDTH);
 376:lvgl/src/widgets/../core/lv_obj_style_gen.h ****     return (lv_coord_t)v.num;
 377:lvgl/src/widgets/../core/lv_obj_style_gen.h **** }
 378:lvgl/src/widgets/../core/lv_obj_style_gen.h **** 
 379:lvgl/src/widgets/../core/lv_obj_style_gen.h **** static inline lv_coord_t lv_obj_get_style_line_dash_gap(const struct _lv_obj_t * obj, uint32_t part
 380:lvgl/src/widgets/../core/lv_obj_style_gen.h **** {
 381:lvgl/src/widgets/../core/lv_obj_style_gen.h ****     lv_style_value_t v = lv_obj_get_style_prop(obj, part, LV_STYLE_LINE_DASH_GAP);
 382:lvgl/src/widgets/../core/lv_obj_style_gen.h ****     return (lv_coord_t)v.num;
 383:lvgl/src/widgets/../core/lv_obj_style_gen.h **** }
 384:lvgl/src/widgets/../core/lv_obj_style_gen.h **** 
 385:lvgl/src/widgets/../core/lv_obj_style_gen.h **** static inline bool lv_obj_get_style_line_rounded(const struct _lv_obj_t * obj, uint32_t part)
 386:lvgl/src/widgets/../core/lv_obj_style_gen.h **** {
ARM GAS  /var/folders/21/t9g5rlb91ys800n5npymflf80000gn/T//ccNiYEm1.s 			page 36


 387:lvgl/src/widgets/../core/lv_obj_style_gen.h ****     lv_style_value_t v = lv_obj_get_style_prop(obj, part, LV_STYLE_LINE_ROUNDED);
 388:lvgl/src/widgets/../core/lv_obj_style_gen.h ****     return (bool)v.num;
 389:lvgl/src/widgets/../core/lv_obj_style_gen.h **** }
 390:lvgl/src/widgets/../core/lv_obj_style_gen.h **** 
 391:lvgl/src/widgets/../core/lv_obj_style_gen.h **** static inline lv_color_t lv_obj_get_style_line_color(const struct _lv_obj_t * obj, uint32_t part)
 392:lvgl/src/widgets/../core/lv_obj_style_gen.h **** {
 393:lvgl/src/widgets/../core/lv_obj_style_gen.h ****     lv_style_value_t v = lv_obj_get_style_prop(obj, part, LV_STYLE_LINE_COLOR);
 394:lvgl/src/widgets/../core/lv_obj_style_gen.h ****     return v.color;
 395:lvgl/src/widgets/../core/lv_obj_style_gen.h **** }
 396:lvgl/src/widgets/../core/lv_obj_style_gen.h **** 
 397:lvgl/src/widgets/../core/lv_obj_style_gen.h **** static inline lv_color_t lv_obj_get_style_line_color_filtered(const struct _lv_obj_t * obj, uint32_
 398:lvgl/src/widgets/../core/lv_obj_style_gen.h **** {
 399:lvgl/src/widgets/../core/lv_obj_style_gen.h ****     lv_style_value_t v = _lv_obj_style_apply_color_filter(obj, part, lv_obj_get_style_prop(obj, par
 400:lvgl/src/widgets/../core/lv_obj_style_gen.h ****     return v.color;
 401:lvgl/src/widgets/../core/lv_obj_style_gen.h **** }
 402:lvgl/src/widgets/../core/lv_obj_style_gen.h **** 
 403:lvgl/src/widgets/../core/lv_obj_style_gen.h **** static inline lv_opa_t lv_obj_get_style_line_opa(const struct _lv_obj_t * obj, uint32_t part)
 404:lvgl/src/widgets/../core/lv_obj_style_gen.h **** {
 405:lvgl/src/widgets/../core/lv_obj_style_gen.h ****     lv_style_value_t v = lv_obj_get_style_prop(obj, part, LV_STYLE_LINE_OPA);
 406:lvgl/src/widgets/../core/lv_obj_style_gen.h ****     return (lv_opa_t)v.num;
 407:lvgl/src/widgets/../core/lv_obj_style_gen.h **** }
 408:lvgl/src/widgets/../core/lv_obj_style_gen.h **** 
 409:lvgl/src/widgets/../core/lv_obj_style_gen.h **** static inline lv_coord_t lv_obj_get_style_arc_width(const struct _lv_obj_t * obj, uint32_t part)
 410:lvgl/src/widgets/../core/lv_obj_style_gen.h **** {
 411:lvgl/src/widgets/../core/lv_obj_style_gen.h ****     lv_style_value_t v = lv_obj_get_style_prop(obj, part, LV_STYLE_ARC_WIDTH);
 412:lvgl/src/widgets/../core/lv_obj_style_gen.h ****     return (lv_coord_t)v.num;
 413:lvgl/src/widgets/../core/lv_obj_style_gen.h **** }
 414:lvgl/src/widgets/../core/lv_obj_style_gen.h **** 
 415:lvgl/src/widgets/../core/lv_obj_style_gen.h **** static inline bool lv_obj_get_style_arc_rounded(const struct _lv_obj_t * obj, uint32_t part)
 416:lvgl/src/widgets/../core/lv_obj_style_gen.h **** {
 417:lvgl/src/widgets/../core/lv_obj_style_gen.h ****     lv_style_value_t v = lv_obj_get_style_prop(obj, part, LV_STYLE_ARC_ROUNDED);
 418:lvgl/src/widgets/../core/lv_obj_style_gen.h ****     return (bool)v.num;
 419:lvgl/src/widgets/../core/lv_obj_style_gen.h **** }
 420:lvgl/src/widgets/../core/lv_obj_style_gen.h **** 
 421:lvgl/src/widgets/../core/lv_obj_style_gen.h **** static inline lv_color_t lv_obj_get_style_arc_color(const struct _lv_obj_t * obj, uint32_t part)
 422:lvgl/src/widgets/../core/lv_obj_style_gen.h **** {
 423:lvgl/src/widgets/../core/lv_obj_style_gen.h ****     lv_style_value_t v = lv_obj_get_style_prop(obj, part, LV_STYLE_ARC_COLOR);
 424:lvgl/src/widgets/../core/lv_obj_style_gen.h ****     return v.color;
 425:lvgl/src/widgets/../core/lv_obj_style_gen.h **** }
 426:lvgl/src/widgets/../core/lv_obj_style_gen.h **** 
 427:lvgl/src/widgets/../core/lv_obj_style_gen.h **** static inline lv_color_t lv_obj_get_style_arc_color_filtered(const struct _lv_obj_t * obj, uint32_t
 428:lvgl/src/widgets/../core/lv_obj_style_gen.h **** {
 429:lvgl/src/widgets/../core/lv_obj_style_gen.h ****     lv_style_value_t v = _lv_obj_style_apply_color_filter(obj, part, lv_obj_get_style_prop(obj, par
 430:lvgl/src/widgets/../core/lv_obj_style_gen.h ****     return v.color;
 431:lvgl/src/widgets/../core/lv_obj_style_gen.h **** }
 432:lvgl/src/widgets/../core/lv_obj_style_gen.h **** 
 433:lvgl/src/widgets/../core/lv_obj_style_gen.h **** static inline lv_opa_t lv_obj_get_style_arc_opa(const struct _lv_obj_t * obj, uint32_t part)
 434:lvgl/src/widgets/../core/lv_obj_style_gen.h **** {
 435:lvgl/src/widgets/../core/lv_obj_style_gen.h ****     lv_style_value_t v = lv_obj_get_style_prop(obj, part, LV_STYLE_ARC_OPA);
 436:lvgl/src/widgets/../core/lv_obj_style_gen.h ****     return (lv_opa_t)v.num;
 437:lvgl/src/widgets/../core/lv_obj_style_gen.h **** }
 438:lvgl/src/widgets/../core/lv_obj_style_gen.h **** 
 439:lvgl/src/widgets/../core/lv_obj_style_gen.h **** static inline const void * lv_obj_get_style_arc_img_src(const struct _lv_obj_t * obj, uint32_t part
 440:lvgl/src/widgets/../core/lv_obj_style_gen.h **** {
 441:lvgl/src/widgets/../core/lv_obj_style_gen.h ****     lv_style_value_t v = lv_obj_get_style_prop(obj, part, LV_STYLE_ARC_IMG_SRC);
 442:lvgl/src/widgets/../core/lv_obj_style_gen.h ****     return (const void *)v.ptr;
 443:lvgl/src/widgets/../core/lv_obj_style_gen.h **** }
ARM GAS  /var/folders/21/t9g5rlb91ys800n5npymflf80000gn/T//ccNiYEm1.s 			page 37


 444:lvgl/src/widgets/../core/lv_obj_style_gen.h **** 
 445:lvgl/src/widgets/../core/lv_obj_style_gen.h **** static inline lv_color_t lv_obj_get_style_text_color(const struct _lv_obj_t * obj, uint32_t part)
 446:lvgl/src/widgets/../core/lv_obj_style_gen.h **** {
 447:lvgl/src/widgets/../core/lv_obj_style_gen.h ****     lv_style_value_t v = lv_obj_get_style_prop(obj, part, LV_STYLE_TEXT_COLOR);
 448:lvgl/src/widgets/../core/lv_obj_style_gen.h ****     return v.color;
 449:lvgl/src/widgets/../core/lv_obj_style_gen.h **** }
 450:lvgl/src/widgets/../core/lv_obj_style_gen.h **** 
 451:lvgl/src/widgets/../core/lv_obj_style_gen.h **** static inline lv_color_t lv_obj_get_style_text_color_filtered(const struct _lv_obj_t * obj, uint32_
 452:lvgl/src/widgets/../core/lv_obj_style_gen.h **** {
 453:lvgl/src/widgets/../core/lv_obj_style_gen.h ****     lv_style_value_t v = _lv_obj_style_apply_color_filter(obj, part, lv_obj_get_style_prop(obj, par
 454:lvgl/src/widgets/../core/lv_obj_style_gen.h ****     return v.color;
 455:lvgl/src/widgets/../core/lv_obj_style_gen.h **** }
 456:lvgl/src/widgets/../core/lv_obj_style_gen.h **** 
 457:lvgl/src/widgets/../core/lv_obj_style_gen.h **** static inline lv_opa_t lv_obj_get_style_text_opa(const struct _lv_obj_t * obj, uint32_t part)
 458:lvgl/src/widgets/../core/lv_obj_style_gen.h **** {
 459:lvgl/src/widgets/../core/lv_obj_style_gen.h ****     lv_style_value_t v = lv_obj_get_style_prop(obj, part, LV_STYLE_TEXT_OPA);
 460:lvgl/src/widgets/../core/lv_obj_style_gen.h ****     return (lv_opa_t)v.num;
 461:lvgl/src/widgets/../core/lv_obj_style_gen.h **** }
 462:lvgl/src/widgets/../core/lv_obj_style_gen.h **** 
 463:lvgl/src/widgets/../core/lv_obj_style_gen.h **** static inline const lv_font_t * lv_obj_get_style_text_font(const struct _lv_obj_t * obj, uint32_t p
 464:lvgl/src/widgets/../core/lv_obj_style_gen.h **** {
 465:lvgl/src/widgets/../core/lv_obj_style_gen.h ****     lv_style_value_t v = lv_obj_get_style_prop(obj, part, LV_STYLE_TEXT_FONT);
 466:lvgl/src/widgets/../core/lv_obj_style_gen.h ****     return (const lv_font_t *)v.ptr;
 467:lvgl/src/widgets/../core/lv_obj_style_gen.h **** }
 468:lvgl/src/widgets/../core/lv_obj_style_gen.h **** 
 469:lvgl/src/widgets/../core/lv_obj_style_gen.h **** static inline lv_coord_t lv_obj_get_style_text_letter_space(const struct _lv_obj_t * obj, uint32_t 
 439              		.loc 3 469 26 view .LVU133
 440              	.LBB136:
 470:lvgl/src/widgets/../core/lv_obj_style_gen.h **** {
 471:lvgl/src/widgets/../core/lv_obj_style_gen.h ****     lv_style_value_t v = lv_obj_get_style_prop(obj, part, LV_STYLE_TEXT_LETTER_SPACE);
 441              		.loc 3 471 5 view .LVU134
 442              		.loc 3 471 26 is_stmt 0 view .LVU135
 443 0048 5822     		movs	r2, #88
 444 004a 4FF4A021 		mov	r1, #327680
 445 004e 2846     		mov	r0, r5
 446 0050 FFF7FEFF 		bl	lv_obj_get_style_prop
 447              	.LVL49:
 472:lvgl/src/widgets/../core/lv_obj_style_gen.h ****     return (lv_coord_t)v.num;
 448              		.loc 3 472 5 is_stmt 1 view .LVU136
 449              		.loc 3 472 12 is_stmt 0 view .LVU137
 450 0054 03B2     		sxth	r3, r0
 451 0056 0893     		str	r3, [sp, #32]
 452              	.LVL50:
 453              		.loc 3 472 12 view .LVU138
 454              	.LBE136:
 455              	.LBE135:
 872:lvgl/src/widgets/lv_table.c ****     const lv_font_t * font = lv_obj_get_style_text_font(obj, LV_PART_ITEMS);
 456              		.loc 1 872 5 is_stmt 1 view .LVU139
 457              	.LBB137:
 458              	.LBI137:
 473:lvgl/src/widgets/../core/lv_obj_style_gen.h **** }
 474:lvgl/src/widgets/../core/lv_obj_style_gen.h **** 
 475:lvgl/src/widgets/../core/lv_obj_style_gen.h **** static inline lv_coord_t lv_obj_get_style_text_line_space(const struct _lv_obj_t * obj, uint32_t pa
 459              		.loc 3 475 26 view .LVU140
 460              	.LBB138:
 476:lvgl/src/widgets/../core/lv_obj_style_gen.h **** {
 477:lvgl/src/widgets/../core/lv_obj_style_gen.h ****     lv_style_value_t v = lv_obj_get_style_prop(obj, part, LV_STYLE_TEXT_LINE_SPACE);
ARM GAS  /var/folders/21/t9g5rlb91ys800n5npymflf80000gn/T//ccNiYEm1.s 			page 38


 461              		.loc 3 477 5 view .LVU141
 462              		.loc 3 477 26 is_stmt 0 view .LVU142
 463 0058 5922     		movs	r2, #89
 464 005a 4FF4A021 		mov	r1, #327680
 465 005e 2846     		mov	r0, r5
 466 0060 FFF7FEFF 		bl	lv_obj_get_style_prop
 467              	.LVL51:
 478:lvgl/src/widgets/../core/lv_obj_style_gen.h ****     return (lv_coord_t)v.num;
 468              		.loc 3 478 5 is_stmt 1 view .LVU143
 469              		.loc 3 478 12 is_stmt 0 view .LVU144
 470 0064 07B2     		sxth	r7, r0
 471              	.LVL52:
 472              		.loc 3 478 12 view .LVU145
 473              	.LBE138:
 474              	.LBE137:
 873:lvgl/src/widgets/lv_table.c **** 
 475              		.loc 1 873 5 is_stmt 1 view .LVU146
 476              	.LBB139:
 477              	.LBI139:
 463:lvgl/src/widgets/../core/lv_obj_style_gen.h **** {
 478              		.loc 3 463 33 view .LVU147
 479              	.LBB140:
 465:lvgl/src/widgets/../core/lv_obj_style_gen.h ****     return (const lv_font_t *)v.ptr;
 480              		.loc 3 465 5 view .LVU148
 465:lvgl/src/widgets/../core/lv_obj_style_gen.h ****     return (const lv_font_t *)v.ptr;
 481              		.loc 3 465 26 is_stmt 0 view .LVU149
 482 0066 5722     		movs	r2, #87
 483 0068 4FF4A021 		mov	r1, #327680
 484 006c 2846     		mov	r0, r5
 485 006e FFF7FEFF 		bl	lv_obj_get_style_prop
 486              	.LVL53:
 487 0072 0790     		str	r0, [sp, #28]
 466:lvgl/src/widgets/../core/lv_obj_style_gen.h **** }
 488              		.loc 3 466 5 is_stmt 1 view .LVU150
 489              	.LVL54:
 466:lvgl/src/widgets/../core/lv_obj_style_gen.h **** }
 490              		.loc 3 466 5 is_stmt 0 view .LVU151
 491              	.LBE140:
 492              	.LBE139:
 875:lvgl/src/widgets/lv_table.c ****     const lv_coord_t maxh = lv_obj_get_style_max_height(obj, LV_PART_ITEMS);
 493              		.loc 1 875 5 is_stmt 1 view .LVU152
 494              	.LBB141:
 495              	.LBI141:
  25:lvgl/src/widgets/../core/lv_obj_style_gen.h **** {
 496              		.loc 3 25 26 view .LVU153
 497              	.LBB142:
  27:lvgl/src/widgets/../core/lv_obj_style_gen.h ****     return (lv_coord_t)v.num;
 498              		.loc 3 27 5 view .LVU154
  27:lvgl/src/widgets/../core/lv_obj_style_gen.h ****     return (lv_coord_t)v.num;
 499              		.loc 3 27 26 is_stmt 0 view .LVU155
 500 0074 0522     		movs	r2, #5
 501 0076 4FF4A021 		mov	r1, #327680
 502 007a 2846     		mov	r0, r5
 503              	.LVL55:
  27:lvgl/src/widgets/../core/lv_obj_style_gen.h ****     return (lv_coord_t)v.num;
 504              		.loc 3 27 26 view .LVU156
 505 007c FFF7FEFF 		bl	lv_obj_get_style_prop
ARM GAS  /var/folders/21/t9g5rlb91ys800n5npymflf80000gn/T//ccNiYEm1.s 			page 39


 506              	.LVL56:
  28:lvgl/src/widgets/../core/lv_obj_style_gen.h **** }
 507              		.loc 3 28 5 is_stmt 1 view .LVU157
  28:lvgl/src/widgets/../core/lv_obj_style_gen.h **** }
 508              		.loc 3 28 12 is_stmt 0 view .LVU158
 509 0080 0FFA80F8 		sxth	r8, r0
 510              	.LVL57:
  28:lvgl/src/widgets/../core/lv_obj_style_gen.h **** }
 511              		.loc 3 28 12 view .LVU159
 512              	.LBE142:
 513              	.LBE141:
 876:lvgl/src/widgets/lv_table.c **** 
 514              		.loc 1 876 5 is_stmt 1 view .LVU160
 515              	.LBB143:
 516              	.LBI143:
  31:lvgl/src/widgets/../core/lv_obj_style_gen.h **** {
 517              		.loc 3 31 26 view .LVU161
 518              	.LBB144:
  33:lvgl/src/widgets/../core/lv_obj_style_gen.h ****     return (lv_coord_t)v.num;
 519              		.loc 3 33 5 view .LVU162
  33:lvgl/src/widgets/../core/lv_obj_style_gen.h ****     return (lv_coord_t)v.num;
 520              		.loc 3 33 26 is_stmt 0 view .LVU163
 521 0084 0622     		movs	r2, #6
 522 0086 4FF4A021 		mov	r1, #327680
 523 008a 2846     		mov	r0, r5
 524 008c FFF7FEFF 		bl	lv_obj_get_style_prop
 525              	.LVL58:
  34:lvgl/src/widgets/../core/lv_obj_style_gen.h **** }
 526              		.loc 3 34 5 is_stmt 1 view .LVU164
  34:lvgl/src/widgets/../core/lv_obj_style_gen.h **** }
 527              		.loc 3 34 12 is_stmt 0 view .LVU165
 528 0090 06B2     		sxth	r6, r0
 529              	.LVL59:
  34:lvgl/src/widgets/../core/lv_obj_style_gen.h **** }
 530              		.loc 3 34 12 view .LVU166
 531              	.LBE144:
 532              	.LBE143:
 878:lvgl/src/widgets/lv_table.c ****     uint32_t i;
 533              		.loc 1 878 5 is_stmt 1 view .LVU167
 879:lvgl/src/widgets/lv_table.c ****     for(i = start_row; i < table->row_cnt; i++) {
 534              		.loc 1 879 5 view .LVU168
 880:lvgl/src/widgets/lv_table.c ****         lv_coord_t calculated_height = get_row_height(obj, i, font, letter_space, line_space,
 535              		.loc 1 880 5 view .LVU169
 880:lvgl/src/widgets/lv_table.c ****         lv_coord_t calculated_height = get_row_height(obj, i, font, letter_space, line_space,
 536              		.loc 1 880 5 is_stmt 0 view .LVU170
 537 0092 19E0     		b	.L12
 538              	.LVL60:
 539              	.L13:
 540              	.LBB145:
 881:lvgl/src/widgets/lv_table.c ****                                                       cell_pad_left, cell_pad_right, cell_pad_top, 
 541              		.loc 1 881 9 is_stmt 1 discriminator 3 view .LVU171
 881:lvgl/src/widgets/lv_table.c ****                                                       cell_pad_left, cell_pad_right, cell_pad_top, 
 542              		.loc 1 881 40 is_stmt 0 discriminator 3 view .LVU172
 543 0094 099B     		ldr	r3, [sp, #36]
 544 0096 0493     		str	r3, [sp, #16]
 545 0098 CDF80C90 		str	r9, [sp, #12]
 546 009c CDF808A0 		str	r10, [sp, #8]
ARM GAS  /var/folders/21/t9g5rlb91ys800n5npymflf80000gn/T//ccNiYEm1.s 			page 40


 547 00a0 CDF804B0 		str	fp, [sp, #4]
 548 00a4 0097     		str	r7, [sp]
 549 00a6 089B     		ldr	r3, [sp, #32]
 550 00a8 079A     		ldr	r2, [sp, #28]
 551 00aa A1B2     		uxth	r1, r4
 552 00ac 2846     		mov	r0, r5
 553 00ae FFF7FEFF 		bl	get_row_height
 554              	.LVL61:
 883:lvgl/src/widgets/lv_table.c ****     }
 555              		.loc 1 883 9 is_stmt 1 discriminator 3 view .LVU173
 883:lvgl/src/widgets/lv_table.c ****     }
 556              		.loc 1 883 27 is_stmt 0 discriminator 3 view .LVU174
 557 00b2 B042     		cmp	r0, r6
 558 00b4 A8BF     		it	ge
 559 00b6 3046     		movge	r0, r6
 560              	.LVL62:
 883:lvgl/src/widgets/lv_table.c ****     }
 561              		.loc 1 883 27 discriminator 3 view .LVU175
 562 00b8 00B2     		sxth	r0, r0
 883:lvgl/src/widgets/lv_table.c ****     }
 563              		.loc 1 883 14 discriminator 3 view .LVU176
 564 00ba EB6A     		ldr	r3, [r5, #44]
 883:lvgl/src/widgets/lv_table.c ****     }
 565              		.loc 1 883 27 discriminator 3 view .LVU177
 566 00bc 4045     		cmp	r0, r8
 567 00be B8BF     		it	lt
 568 00c0 4046     		movlt	r0, r8
 883:lvgl/src/widgets/lv_table.c ****     }
 569              		.loc 1 883 25 discriminator 3 view .LVU178
 570 00c2 23F81400 		strh	r0, [r3, r4, lsl #1]	@ movhi
 571              	.LBE145:
 880:lvgl/src/widgets/lv_table.c ****         lv_coord_t calculated_height = get_row_height(obj, i, font, letter_space, line_space,
 572              		.loc 1 880 45 is_stmt 1 discriminator 3 view .LVU179
 573 00c6 0134     		adds	r4, r4, #1
 574              	.LVL63:
 575              	.L12:
 880:lvgl/src/widgets/lv_table.c ****         lv_coord_t calculated_height = get_row_height(obj, i, font, letter_space, line_space,
 576              		.loc 1 880 26 discriminator 1 view .LVU180
 880:lvgl/src/widgets/lv_table.c ****         lv_coord_t calculated_height = get_row_height(obj, i, font, letter_space, line_space,
 577              		.loc 1 880 33 is_stmt 0 discriminator 1 view .LVU181
 578 00c8 EB8C     		ldrh	r3, [r5, #38]
 880:lvgl/src/widgets/lv_table.c ****         lv_coord_t calculated_height = get_row_height(obj, i, font, letter_space, line_space,
 579              		.loc 1 880 26 discriminator 1 view .LVU182
 580 00ca A342     		cmp	r3, r4
 581 00cc E2D8     		bhi	.L13
 886:lvgl/src/widgets/lv_table.c ****     lv_obj_invalidate(obj);
 582              		.loc 1 886 5 is_stmt 1 view .LVU183
 583 00ce 2846     		mov	r0, r5
 584 00d0 FFF7FEFF 		bl	lv_obj_refresh_self_size
 585              	.LVL64:
 887:lvgl/src/widgets/lv_table.c **** }
 586              		.loc 1 887 5 view .LVU184
 587 00d4 2846     		mov	r0, r5
 588 00d6 FFF7FEFF 		bl	lv_obj_invalidate
 589              	.LVL65:
 888:lvgl/src/widgets/lv_table.c **** 
 590              		.loc 1 888 1 is_stmt 0 view .LVU185
ARM GAS  /var/folders/21/t9g5rlb91ys800n5npymflf80000gn/T//ccNiYEm1.s 			page 41


 591 00da 0BB0     		add	sp, sp, #44
 592              	.LCFI5:
 593              		.cfi_def_cfa_offset 36
 594              		@ sp needed
 595 00dc BDE8F08F 		pop	{r4, r5, r6, r7, r8, r9, r10, fp, pc}
 888:lvgl/src/widgets/lv_table.c **** 
 596              		.loc 1 888 1 view .LVU186
 597              		.cfi_endproc
 598              	.LFE182:
 600              		.section	.text.get_pressed_cell,"ax",%progbits
 601              		.align	1
 602              		.syntax unified
 603              		.thumb
 604              		.thumb_func
 606              	get_pressed_cell:
 607              	.LVL66:
 608              	.LFB185:
 988:lvgl/src/widgets/lv_table.c **** 
 989:lvgl/src/widgets/lv_table.c **** static lv_res_t get_pressed_cell(lv_obj_t * obj, uint16_t * row, uint16_t * col)
 990:lvgl/src/widgets/lv_table.c **** {
 609              		.loc 1 990 1 is_stmt 1 view -0
 610              		.cfi_startproc
 611              		@ args = 0, pretend = 0, frame = 8
 612              		@ frame_needed = 0, uses_anonymous_args = 0
 613              		.loc 1 990 1 is_stmt 0 view .LVU188
 614 0000 2DE9F041 		push	{r4, r5, r6, r7, r8, lr}
 615              	.LCFI6:
 616              		.cfi_def_cfa_offset 24
 617              		.cfi_offset 4, -24
 618              		.cfi_offset 5, -20
 619              		.cfi_offset 6, -16
 620              		.cfi_offset 7, -12
 621              		.cfi_offset 8, -8
 622              		.cfi_offset 14, -4
 623 0004 82B0     		sub	sp, sp, #8
 624              	.LCFI7:
 625              		.cfi_def_cfa_offset 32
 626 0006 0446     		mov	r4, r0
 627 0008 0D46     		mov	r5, r1
 628 000a 1646     		mov	r6, r2
 991:lvgl/src/widgets/lv_table.c ****     lv_table_t * table = (lv_table_t *)obj;
 629              		.loc 1 991 5 is_stmt 1 view .LVU189
 630              	.LVL67:
 992:lvgl/src/widgets/lv_table.c **** 
 993:lvgl/src/widgets/lv_table.c ****     lv_indev_type_t type = lv_indev_get_type(lv_indev_get_act());
 631              		.loc 1 993 5 view .LVU190
 632              		.loc 1 993 46 is_stmt 0 view .LVU191
 633 000c FFF7FEFF 		bl	lv_indev_get_act
 634              	.LVL68:
 635              		.loc 1 993 28 view .LVU192
 636 0010 FFF7FEFF 		bl	lv_indev_get_type
 637              	.LVL69:
 994:lvgl/src/widgets/lv_table.c ****     if(type != LV_INDEV_TYPE_POINTER && type != LV_INDEV_TYPE_BUTTON) {
 638              		.loc 1 994 5 is_stmt 1 view .LVU193
 639              		.loc 1 994 7 is_stmt 0 view .LVU194
 640 0014 0128     		cmp	r0, #1
 641 0016 0DD0     		beq	.L16
ARM GAS  /var/folders/21/t9g5rlb91ys800n5npymflf80000gn/T//ccNiYEm1.s 			page 42


 642              		.loc 1 994 38 discriminator 1 view .LVU195
 643 0018 0328     		cmp	r0, #3
 644 001a 0BD0     		beq	.L16
 995:lvgl/src/widgets/lv_table.c ****         if(col) *col = LV_TABLE_CELL_NONE;
 645              		.loc 1 995 9 is_stmt 1 view .LVU196
 646              		.loc 1 995 11 is_stmt 0 view .LVU197
 647 001c 16B1     		cbz	r6, .L17
 648              		.loc 1 995 17 is_stmt 1 discriminator 1 view .LVU198
 649              		.loc 1 995 22 is_stmt 0 discriminator 1 view .LVU199
 650 001e 4FF6FF73 		movw	r3, #65535
 651 0022 3380     		strh	r3, [r6]	@ movhi
 652              	.L17:
 996:lvgl/src/widgets/lv_table.c ****         if(row) *row = LV_TABLE_CELL_NONE;
 653              		.loc 1 996 9 is_stmt 1 view .LVU200
 654              		.loc 1 996 11 is_stmt 0 view .LVU201
 655 0024 15B1     		cbz	r5, .L18
 656              		.loc 1 996 17 is_stmt 1 discriminator 1 view .LVU202
 657              		.loc 1 996 22 is_stmt 0 discriminator 1 view .LVU203
 658 0026 4FF6FF73 		movw	r3, #65535
 659 002a 2B80     		strh	r3, [r5]	@ movhi
 660              	.L18:
 997:lvgl/src/widgets/lv_table.c ****         return LV_RES_INV;
 661              		.loc 1 997 9 is_stmt 1 view .LVU204
 662              		.loc 1 997 16 is_stmt 0 view .LVU205
 663 002c 0020     		movs	r0, #0
 664              	.LVL70:
 665              	.L19:
 998:lvgl/src/widgets/lv_table.c ****     }
 999:lvgl/src/widgets/lv_table.c **** 
1000:lvgl/src/widgets/lv_table.c ****     lv_point_t p;
1001:lvgl/src/widgets/lv_table.c ****     lv_indev_get_point(lv_indev_get_act(), &p);
1002:lvgl/src/widgets/lv_table.c **** 
1003:lvgl/src/widgets/lv_table.c ****     lv_coord_t tmp;
1004:lvgl/src/widgets/lv_table.c ****     if(col) {
1005:lvgl/src/widgets/lv_table.c ****         lv_coord_t x = p.x + lv_obj_get_scroll_x(obj);
1006:lvgl/src/widgets/lv_table.c **** 
1007:lvgl/src/widgets/lv_table.c ****         if(lv_obj_get_style_base_dir(obj, LV_PART_MAIN) == LV_BASE_DIR_RTL) {
1008:lvgl/src/widgets/lv_table.c ****             x = obj->coords.x2 - lv_obj_get_style_pad_right(obj, LV_PART_MAIN) - x;
1009:lvgl/src/widgets/lv_table.c ****         }
1010:lvgl/src/widgets/lv_table.c ****         else {
1011:lvgl/src/widgets/lv_table.c ****             x -= obj->coords.x1;
1012:lvgl/src/widgets/lv_table.c ****             x -= lv_obj_get_style_pad_left(obj, LV_PART_MAIN);
1013:lvgl/src/widgets/lv_table.c ****         }
1014:lvgl/src/widgets/lv_table.c **** 
1015:lvgl/src/widgets/lv_table.c ****         *col = 0;
1016:lvgl/src/widgets/lv_table.c ****         tmp = 0;
1017:lvgl/src/widgets/lv_table.c ****         for(*col = 0; *col < table->col_cnt; (*col)++) {
1018:lvgl/src/widgets/lv_table.c ****             tmp += table->col_w[*col];
1019:lvgl/src/widgets/lv_table.c ****             if(x < tmp) break;
1020:lvgl/src/widgets/lv_table.c ****         }
1021:lvgl/src/widgets/lv_table.c ****     }
1022:lvgl/src/widgets/lv_table.c **** 
1023:lvgl/src/widgets/lv_table.c ****     if(row) {
1024:lvgl/src/widgets/lv_table.c ****         lv_coord_t y = p.y + lv_obj_get_scroll_y(obj);;
1025:lvgl/src/widgets/lv_table.c ****         y -= obj->coords.y1;
1026:lvgl/src/widgets/lv_table.c ****         y -= lv_obj_get_style_pad_top(obj, LV_PART_MAIN);
1027:lvgl/src/widgets/lv_table.c **** 
ARM GAS  /var/folders/21/t9g5rlb91ys800n5npymflf80000gn/T//ccNiYEm1.s 			page 43


1028:lvgl/src/widgets/lv_table.c ****         *row = 0;
1029:lvgl/src/widgets/lv_table.c ****         tmp = 0;
1030:lvgl/src/widgets/lv_table.c **** 
1031:lvgl/src/widgets/lv_table.c ****         for(*row = 0; *row < table->row_cnt; (*row)++) {
1032:lvgl/src/widgets/lv_table.c ****             tmp += table->row_h[*row];
1033:lvgl/src/widgets/lv_table.c ****             if(y < tmp) break;
1034:lvgl/src/widgets/lv_table.c ****         }
1035:lvgl/src/widgets/lv_table.c ****     }
1036:lvgl/src/widgets/lv_table.c **** 
1037:lvgl/src/widgets/lv_table.c ****     return LV_RES_OK;
1038:lvgl/src/widgets/lv_table.c **** }
 666              		.loc 1 1038 1 view .LVU206
 667 002e 02B0     		add	sp, sp, #8
 668              	.LCFI8:
 669              		.cfi_remember_state
 670              		.cfi_def_cfa_offset 24
 671              		@ sp needed
 672 0030 BDE8F081 		pop	{r4, r5, r6, r7, r8, pc}
 673              	.LVL71:
 674              	.L16:
 675              	.LCFI9:
 676              		.cfi_restore_state
1000:lvgl/src/widgets/lv_table.c ****     lv_indev_get_point(lv_indev_get_act(), &p);
 677              		.loc 1 1000 5 is_stmt 1 view .LVU207
1001:lvgl/src/widgets/lv_table.c **** 
 678              		.loc 1 1001 5 view .LVU208
1001:lvgl/src/widgets/lv_table.c **** 
 679              		.loc 1 1001 24 is_stmt 0 view .LVU209
 680 0034 FFF7FEFF 		bl	lv_indev_get_act
 681              	.LVL72:
1001:lvgl/src/widgets/lv_table.c **** 
 682              		.loc 1 1001 5 view .LVU210
 683 0038 01A9     		add	r1, sp, #4
 684 003a FFF7FEFF 		bl	lv_indev_get_point
 685              	.LVL73:
1003:lvgl/src/widgets/lv_table.c ****     if(col) {
 686              		.loc 1 1003 5 is_stmt 1 view .LVU211
1004:lvgl/src/widgets/lv_table.c ****         lv_coord_t x = p.x + lv_obj_get_scroll_x(obj);
 687              		.loc 1 1004 5 view .LVU212
1004:lvgl/src/widgets/lv_table.c ****         lv_coord_t x = p.x + lv_obj_get_scroll_x(obj);
 688              		.loc 1 1004 7 is_stmt 0 view .LVU213
 689 003e 002E     		cmp	r6, #0
 690 0040 38D0     		beq	.L20
 691              	.LBB146:
1005:lvgl/src/widgets/lv_table.c **** 
 692              		.loc 1 1005 9 is_stmt 1 view .LVU214
1005:lvgl/src/widgets/lv_table.c **** 
 693              		.loc 1 1005 25 is_stmt 0 view .LVU215
 694 0042 BDF80470 		ldrh	r7, [sp, #4]
1005:lvgl/src/widgets/lv_table.c **** 
 695              		.loc 1 1005 30 view .LVU216
 696 0046 2046     		mov	r0, r4
 697 0048 FFF7FEFF 		bl	lv_obj_get_scroll_x
 698              	.LVL74:
1005:lvgl/src/widgets/lv_table.c **** 
 699              		.loc 1 1005 28 view .LVU217
 700 004c 17FA80F7 		uxtah	r7, r7, r0
ARM GAS  /var/folders/21/t9g5rlb91ys800n5npymflf80000gn/T//ccNiYEm1.s 			page 44


 701 0050 BFB2     		uxth	r7, r7
 702              	.LVL75:
1007:lvgl/src/widgets/lv_table.c ****             x = obj->coords.x2 - lv_obj_get_style_pad_right(obj, LV_PART_MAIN) - x;
 703              		.loc 1 1007 9 is_stmt 1 view .LVU218
 704              	.LBB147:
 705              	.LBI147:
 479:lvgl/src/widgets/../core/lv_obj_style_gen.h **** }
 480:lvgl/src/widgets/../core/lv_obj_style_gen.h **** 
 481:lvgl/src/widgets/../core/lv_obj_style_gen.h **** static inline lv_text_decor_t lv_obj_get_style_text_decor(const struct _lv_obj_t * obj, uint32_t pa
 482:lvgl/src/widgets/../core/lv_obj_style_gen.h **** {
 483:lvgl/src/widgets/../core/lv_obj_style_gen.h ****     lv_style_value_t v = lv_obj_get_style_prop(obj, part, LV_STYLE_TEXT_DECOR);
 484:lvgl/src/widgets/../core/lv_obj_style_gen.h ****     return (lv_text_decor_t)v.num;
 485:lvgl/src/widgets/../core/lv_obj_style_gen.h **** }
 486:lvgl/src/widgets/../core/lv_obj_style_gen.h **** 
 487:lvgl/src/widgets/../core/lv_obj_style_gen.h **** static inline lv_text_align_t lv_obj_get_style_text_align(const struct _lv_obj_t * obj, uint32_t pa
 488:lvgl/src/widgets/../core/lv_obj_style_gen.h **** {
 489:lvgl/src/widgets/../core/lv_obj_style_gen.h ****     lv_style_value_t v = lv_obj_get_style_prop(obj, part, LV_STYLE_TEXT_ALIGN);
 490:lvgl/src/widgets/../core/lv_obj_style_gen.h ****     return (lv_text_align_t)v.num;
 491:lvgl/src/widgets/../core/lv_obj_style_gen.h **** }
 492:lvgl/src/widgets/../core/lv_obj_style_gen.h **** 
 493:lvgl/src/widgets/../core/lv_obj_style_gen.h **** static inline lv_coord_t lv_obj_get_style_radius(const struct _lv_obj_t * obj, uint32_t part)
 494:lvgl/src/widgets/../core/lv_obj_style_gen.h **** {
 495:lvgl/src/widgets/../core/lv_obj_style_gen.h ****     lv_style_value_t v = lv_obj_get_style_prop(obj, part, LV_STYLE_RADIUS);
 496:lvgl/src/widgets/../core/lv_obj_style_gen.h ****     return (lv_coord_t)v.num;
 497:lvgl/src/widgets/../core/lv_obj_style_gen.h **** }
 498:lvgl/src/widgets/../core/lv_obj_style_gen.h **** 
 499:lvgl/src/widgets/../core/lv_obj_style_gen.h **** static inline bool lv_obj_get_style_clip_corner(const struct _lv_obj_t * obj, uint32_t part)
 500:lvgl/src/widgets/../core/lv_obj_style_gen.h **** {
 501:lvgl/src/widgets/../core/lv_obj_style_gen.h ****     lv_style_value_t v = lv_obj_get_style_prop(obj, part, LV_STYLE_CLIP_CORNER);
 502:lvgl/src/widgets/../core/lv_obj_style_gen.h ****     return (bool)v.num;
 503:lvgl/src/widgets/../core/lv_obj_style_gen.h **** }
 504:lvgl/src/widgets/../core/lv_obj_style_gen.h **** 
 505:lvgl/src/widgets/../core/lv_obj_style_gen.h **** static inline lv_opa_t lv_obj_get_style_opa(const struct _lv_obj_t * obj, uint32_t part)
 506:lvgl/src/widgets/../core/lv_obj_style_gen.h **** {
 507:lvgl/src/widgets/../core/lv_obj_style_gen.h ****     lv_style_value_t v = lv_obj_get_style_prop(obj, part, LV_STYLE_OPA);
 508:lvgl/src/widgets/../core/lv_obj_style_gen.h ****     return (lv_opa_t)v.num;
 509:lvgl/src/widgets/../core/lv_obj_style_gen.h **** }
 510:lvgl/src/widgets/../core/lv_obj_style_gen.h **** 
 511:lvgl/src/widgets/../core/lv_obj_style_gen.h **** static inline lv_opa_t lv_obj_get_style_opa_layered(const struct _lv_obj_t * obj, uint32_t part)
 512:lvgl/src/widgets/../core/lv_obj_style_gen.h **** {
 513:lvgl/src/widgets/../core/lv_obj_style_gen.h ****     lv_style_value_t v = lv_obj_get_style_prop(obj, part, LV_STYLE_OPA_LAYERED);
 514:lvgl/src/widgets/../core/lv_obj_style_gen.h ****     return (lv_opa_t)v.num;
 515:lvgl/src/widgets/../core/lv_obj_style_gen.h **** }
 516:lvgl/src/widgets/../core/lv_obj_style_gen.h **** 
 517:lvgl/src/widgets/../core/lv_obj_style_gen.h **** static inline const lv_color_filter_dsc_t * lv_obj_get_style_color_filter_dsc(const struct _lv_obj_
 518:lvgl/src/widgets/../core/lv_obj_style_gen.h **** {
 519:lvgl/src/widgets/../core/lv_obj_style_gen.h ****     lv_style_value_t v = lv_obj_get_style_prop(obj, part, LV_STYLE_COLOR_FILTER_DSC);
 520:lvgl/src/widgets/../core/lv_obj_style_gen.h ****     return (const lv_color_filter_dsc_t *)v.ptr;
 521:lvgl/src/widgets/../core/lv_obj_style_gen.h **** }
 522:lvgl/src/widgets/../core/lv_obj_style_gen.h **** 
 523:lvgl/src/widgets/../core/lv_obj_style_gen.h **** static inline lv_opa_t lv_obj_get_style_color_filter_opa(const struct _lv_obj_t * obj, uint32_t par
 524:lvgl/src/widgets/../core/lv_obj_style_gen.h **** {
 525:lvgl/src/widgets/../core/lv_obj_style_gen.h ****     lv_style_value_t v = lv_obj_get_style_prop(obj, part, LV_STYLE_COLOR_FILTER_OPA);
 526:lvgl/src/widgets/../core/lv_obj_style_gen.h ****     return (lv_opa_t)v.num;
 527:lvgl/src/widgets/../core/lv_obj_style_gen.h **** }
 528:lvgl/src/widgets/../core/lv_obj_style_gen.h **** 
 529:lvgl/src/widgets/../core/lv_obj_style_gen.h **** static inline const lv_anim_t * lv_obj_get_style_anim(const struct _lv_obj_t * obj, uint32_t part)
ARM GAS  /var/folders/21/t9g5rlb91ys800n5npymflf80000gn/T//ccNiYEm1.s 			page 45


 530:lvgl/src/widgets/../core/lv_obj_style_gen.h **** {
 531:lvgl/src/widgets/../core/lv_obj_style_gen.h ****     lv_style_value_t v = lv_obj_get_style_prop(obj, part, LV_STYLE_ANIM);
 532:lvgl/src/widgets/../core/lv_obj_style_gen.h ****     return (const lv_anim_t *)v.ptr;
 533:lvgl/src/widgets/../core/lv_obj_style_gen.h **** }
 534:lvgl/src/widgets/../core/lv_obj_style_gen.h **** 
 535:lvgl/src/widgets/../core/lv_obj_style_gen.h **** static inline uint32_t lv_obj_get_style_anim_time(const struct _lv_obj_t * obj, uint32_t part)
 536:lvgl/src/widgets/../core/lv_obj_style_gen.h **** {
 537:lvgl/src/widgets/../core/lv_obj_style_gen.h ****     lv_style_value_t v = lv_obj_get_style_prop(obj, part, LV_STYLE_ANIM_TIME);
 538:lvgl/src/widgets/../core/lv_obj_style_gen.h ****     return (uint32_t)v.num;
 539:lvgl/src/widgets/../core/lv_obj_style_gen.h **** }
 540:lvgl/src/widgets/../core/lv_obj_style_gen.h **** 
 541:lvgl/src/widgets/../core/lv_obj_style_gen.h **** static inline uint32_t lv_obj_get_style_anim_speed(const struct _lv_obj_t * obj, uint32_t part)
 542:lvgl/src/widgets/../core/lv_obj_style_gen.h **** {
 543:lvgl/src/widgets/../core/lv_obj_style_gen.h ****     lv_style_value_t v = lv_obj_get_style_prop(obj, part, LV_STYLE_ANIM_SPEED);
 544:lvgl/src/widgets/../core/lv_obj_style_gen.h ****     return (uint32_t)v.num;
 545:lvgl/src/widgets/../core/lv_obj_style_gen.h **** }
 546:lvgl/src/widgets/../core/lv_obj_style_gen.h **** 
 547:lvgl/src/widgets/../core/lv_obj_style_gen.h **** static inline const lv_style_transition_dsc_t * lv_obj_get_style_transition(const struct _lv_obj_t 
 548:lvgl/src/widgets/../core/lv_obj_style_gen.h **** {
 549:lvgl/src/widgets/../core/lv_obj_style_gen.h ****     lv_style_value_t v = lv_obj_get_style_prop(obj, part, LV_STYLE_TRANSITION);
 550:lvgl/src/widgets/../core/lv_obj_style_gen.h ****     return (const lv_style_transition_dsc_t *)v.ptr;
 551:lvgl/src/widgets/../core/lv_obj_style_gen.h **** }
 552:lvgl/src/widgets/../core/lv_obj_style_gen.h **** 
 553:lvgl/src/widgets/../core/lv_obj_style_gen.h **** static inline lv_blend_mode_t lv_obj_get_style_blend_mode(const struct _lv_obj_t * obj, uint32_t pa
 554:lvgl/src/widgets/../core/lv_obj_style_gen.h **** {
 555:lvgl/src/widgets/../core/lv_obj_style_gen.h ****     lv_style_value_t v = lv_obj_get_style_prop(obj, part, LV_STYLE_BLEND_MODE);
 556:lvgl/src/widgets/../core/lv_obj_style_gen.h ****     return (lv_blend_mode_t)v.num;
 557:lvgl/src/widgets/../core/lv_obj_style_gen.h **** }
 558:lvgl/src/widgets/../core/lv_obj_style_gen.h **** 
 559:lvgl/src/widgets/../core/lv_obj_style_gen.h **** static inline uint16_t lv_obj_get_style_layout(const struct _lv_obj_t * obj, uint32_t part)
 560:lvgl/src/widgets/../core/lv_obj_style_gen.h **** {
 561:lvgl/src/widgets/../core/lv_obj_style_gen.h ****     lv_style_value_t v = lv_obj_get_style_prop(obj, part, LV_STYLE_LAYOUT);
 562:lvgl/src/widgets/../core/lv_obj_style_gen.h ****     return (uint16_t)v.num;
 563:lvgl/src/widgets/../core/lv_obj_style_gen.h **** }
 564:lvgl/src/widgets/../core/lv_obj_style_gen.h **** 
 565:lvgl/src/widgets/../core/lv_obj_style_gen.h **** static inline lv_base_dir_t lv_obj_get_style_base_dir(const struct _lv_obj_t * obj, uint32_t part)
 706              		.loc 3 565 29 view .LVU219
 707              	.LBB148:
 566:lvgl/src/widgets/../core/lv_obj_style_gen.h **** {
 567:lvgl/src/widgets/../core/lv_obj_style_gen.h ****     lv_style_value_t v = lv_obj_get_style_prop(obj, part, LV_STYLE_BASE_DIR);
 708              		.loc 3 567 5 view .LVU220
 709              		.loc 3 567 26 is_stmt 0 view .LVU221
 710 0052 1622     		movs	r2, #22
 711 0054 0021     		movs	r1, #0
 712 0056 2046     		mov	r0, r4
 713 0058 FFF7FEFF 		bl	lv_obj_get_style_prop
 714              	.LVL76:
 568:lvgl/src/widgets/../core/lv_obj_style_gen.h ****     return (lv_base_dir_t)v.num;
 715              		.loc 3 568 5 is_stmt 1 view .LVU222
 716              		.loc 3 568 12 is_stmt 0 view .LVU223
 717 005c C0B2     		uxtb	r0, r0
 718              	.LVL77:
 719              		.loc 3 568 12 view .LVU224
 720              	.LBE148:
 721              	.LBE147:
1007:lvgl/src/widgets/lv_table.c ****             x = obj->coords.x2 - lv_obj_get_style_pad_right(obj, LV_PART_MAIN) - x;
 722              		.loc 1 1007 11 view .LVU225
ARM GAS  /var/folders/21/t9g5rlb91ys800n5npymflf80000gn/T//ccNiYEm1.s 			page 46


 723 005e 0128     		cmp	r0, #1
 724 0060 1AD0     		beq	.L30
1011:lvgl/src/widgets/lv_table.c ****             x -= lv_obj_get_style_pad_left(obj, LV_PART_MAIN);
 725              		.loc 1 1011 13 is_stmt 1 view .LVU226
1011:lvgl/src/widgets/lv_table.c ****             x -= lv_obj_get_style_pad_left(obj, LV_PART_MAIN);
 726              		.loc 1 1011 29 is_stmt 0 view .LVU227
 727 0062 A38A     		ldrh	r3, [r4, #20]
1011:lvgl/src/widgets/lv_table.c ****             x -= lv_obj_get_style_pad_left(obj, LV_PART_MAIN);
 728              		.loc 1 1011 15 view .LVU228
 729 0064 FF1A     		subs	r7, r7, r3
 730              	.LVL78:
1011:lvgl/src/widgets/lv_table.c ****             x -= lv_obj_get_style_pad_left(obj, LV_PART_MAIN);
 731              		.loc 1 1011 15 view .LVU229
 732 0066 BFB2     		uxth	r7, r7
 733              	.LVL79:
1012:lvgl/src/widgets/lv_table.c ****         }
 734              		.loc 1 1012 13 is_stmt 1 view .LVU230
 735              	.LBB149:
 736              	.LBI149:
 115:lvgl/src/widgets/../core/lv_obj_style_gen.h **** {
 737              		.loc 3 115 26 view .LVU231
 738              	.LBB150:
 117:lvgl/src/widgets/../core/lv_obj_style_gen.h ****     return (lv_coord_t)v.num;
 739              		.loc 3 117 5 view .LVU232
 117:lvgl/src/widgets/../core/lv_obj_style_gen.h ****     return (lv_coord_t)v.num;
 740              		.loc 3 117 26 is_stmt 0 view .LVU233
 741 0068 1222     		movs	r2, #18
 742 006a 0021     		movs	r1, #0
 743 006c 2046     		mov	r0, r4
 744 006e FFF7FEFF 		bl	lv_obj_get_style_prop
 745              	.LVL80:
 118:lvgl/src/widgets/../core/lv_obj_style_gen.h **** }
 746              		.loc 3 118 5 is_stmt 1 view .LVU234
 118:lvgl/src/widgets/../core/lv_obj_style_gen.h **** }
 747              		.loc 3 118 5 is_stmt 0 view .LVU235
 748              	.LBE150:
 749              	.LBE149:
1012:lvgl/src/widgets/lv_table.c ****         }
 750              		.loc 1 1012 18 view .LVU236
 751 0072 80B2     		uxth	r0, r0
1012:lvgl/src/widgets/lv_table.c ****         }
 752              		.loc 1 1012 15 view .LVU237
 753 0074 381A     		subs	r0, r7, r0
 754 0076 00B2     		sxth	r0, r0
 755              	.LVL81:
 756              	.L22:
1015:lvgl/src/widgets/lv_table.c ****         tmp = 0;
 757              		.loc 1 1015 9 is_stmt 1 view .LVU238
1015:lvgl/src/widgets/lv_table.c ****         tmp = 0;
 758              		.loc 1 1015 14 is_stmt 0 view .LVU239
 759 0078 0021     		movs	r1, #0
 760 007a 3180     		strh	r1, [r6]	@ movhi
1016:lvgl/src/widgets/lv_table.c ****         for(*col = 0; *col < table->col_cnt; (*col)++) {
 761              		.loc 1 1016 9 is_stmt 1 view .LVU240
 762              	.LVL82:
1017:lvgl/src/widgets/lv_table.c ****             tmp += table->col_w[*col];
 763              		.loc 1 1017 9 view .LVU241
ARM GAS  /var/folders/21/t9g5rlb91ys800n5npymflf80000gn/T//ccNiYEm1.s 			page 47


 764              	.L23:
1017:lvgl/src/widgets/lv_table.c ****             tmp += table->col_w[*col];
 765              		.loc 1 1017 28 discriminator 1 view .LVU242
1017:lvgl/src/widgets/lv_table.c ****             tmp += table->col_w[*col];
 766              		.loc 1 1017 23 is_stmt 0 discriminator 1 view .LVU243
 767 007c 3388     		ldrh	r3, [r6]
1017:lvgl/src/widgets/lv_table.c ****             tmp += table->col_w[*col];
 768              		.loc 1 1017 35 discriminator 1 view .LVU244
 769 007e A28C     		ldrh	r2, [r4, #36]
1017:lvgl/src/widgets/lv_table.c ****             tmp += table->col_w[*col];
 770              		.loc 1 1017 28 discriminator 1 view .LVU245
 771 0080 9342     		cmp	r3, r2
 772 0082 17D2     		bcs	.L20
1018:lvgl/src/widgets/lv_table.c ****             if(x < tmp) break;
 773              		.loc 1 1018 13 is_stmt 1 view .LVU246
1018:lvgl/src/widgets/lv_table.c ****             if(x < tmp) break;
 774              		.loc 1 1018 25 is_stmt 0 view .LVU247
 775 0084 226B     		ldr	r2, [r4, #48]
1018:lvgl/src/widgets/lv_table.c ****             if(x < tmp) break;
 776              		.loc 1 1018 32 view .LVU248
 777 0086 32F81320 		ldrh	r2, [r2, r3, lsl #1]
1018:lvgl/src/widgets/lv_table.c ****             if(x < tmp) break;
 778              		.loc 1 1018 17 view .LVU249
 779 008a 1144     		add	r1, r1, r2
 780              	.LVL83:
1018:lvgl/src/widgets/lv_table.c ****             if(x < tmp) break;
 781              		.loc 1 1018 17 view .LVU250
 782 008c 09B2     		sxth	r1, r1
 783              	.LVL84:
1019:lvgl/src/widgets/lv_table.c ****         }
 784              		.loc 1 1019 13 is_stmt 1 view .LVU251
1019:lvgl/src/widgets/lv_table.c ****         }
 785              		.loc 1 1019 15 is_stmt 0 view .LVU252
 786 008e 8842     		cmp	r0, r1
 787 0090 10DB     		blt	.L20
1017:lvgl/src/widgets/lv_table.c ****             tmp += table->col_w[*col];
 788              		.loc 1 1017 52 is_stmt 1 discriminator 2 view .LVU253
 789 0092 0133     		adds	r3, r3, #1
 790 0094 3380     		strh	r3, [r6]	@ movhi
 791 0096 F1E7     		b	.L23
 792              	.LVL85:
 793              	.L30:
1008:lvgl/src/widgets/lv_table.c ****         }
 794              		.loc 1 1008 13 view .LVU254
1008:lvgl/src/widgets/lv_table.c ****         }
 795              		.loc 1 1008 28 is_stmt 0 view .LVU255
 796 0098 B4F81880 		ldrh	r8, [r4, #24]
 797              	.LVL86:
 798              	.LBB151:
 799              	.LBI151:
 121:lvgl/src/widgets/../core/lv_obj_style_gen.h **** {
 800              		.loc 3 121 26 is_stmt 1 view .LVU256
 801              	.LBB152:
 123:lvgl/src/widgets/../core/lv_obj_style_gen.h ****     return (lv_coord_t)v.num;
 802              		.loc 3 123 5 view .LVU257
 123:lvgl/src/widgets/../core/lv_obj_style_gen.h ****     return (lv_coord_t)v.num;
 803              		.loc 3 123 26 is_stmt 0 view .LVU258
ARM GAS  /var/folders/21/t9g5rlb91ys800n5npymflf80000gn/T//ccNiYEm1.s 			page 48


 804 009c 1322     		movs	r2, #19
 805 009e 0021     		movs	r1, #0
 806 00a0 2046     		mov	r0, r4
 807 00a2 FFF7FEFF 		bl	lv_obj_get_style_prop
 808              	.LVL87:
 124:lvgl/src/widgets/../core/lv_obj_style_gen.h **** }
 809              		.loc 3 124 5 is_stmt 1 view .LVU259
 124:lvgl/src/widgets/../core/lv_obj_style_gen.h **** }
 810              		.loc 3 124 5 is_stmt 0 view .LVU260
 811              	.LBE152:
 812              	.LBE151:
1008:lvgl/src/widgets/lv_table.c ****         }
 813              		.loc 1 1008 34 view .LVU261
 814 00a6 80B2     		uxth	r0, r0
1008:lvgl/src/widgets/lv_table.c ****         }
 815              		.loc 1 1008 32 view .LVU262
 816 00a8 A8EB0003 		sub	r3, r8, r0
 817 00ac 9BB2     		uxth	r3, r3
1008:lvgl/src/widgets/lv_table.c ****         }
 818              		.loc 1 1008 80 view .LVU263
 819 00ae DB1B     		subs	r3, r3, r7
1008:lvgl/src/widgets/lv_table.c ****         }
 820              		.loc 1 1008 15 view .LVU264
 821 00b0 18B2     		sxth	r0, r3
 822              	.LVL88:
1008:lvgl/src/widgets/lv_table.c ****         }
 823              		.loc 1 1008 15 view .LVU265
 824 00b2 E1E7     		b	.L22
 825              	.LVL89:
 826              	.L20:
1008:lvgl/src/widgets/lv_table.c ****         }
 827              		.loc 1 1008 15 view .LVU266
 828              	.LBE146:
1023:lvgl/src/widgets/lv_table.c ****         lv_coord_t y = p.y + lv_obj_get_scroll_y(obj);;
 829              		.loc 1 1023 5 is_stmt 1 view .LVU267
1023:lvgl/src/widgets/lv_table.c ****         lv_coord_t y = p.y + lv_obj_get_scroll_y(obj);;
 830              		.loc 1 1023 7 is_stmt 0 view .LVU268
 831 00b4 25B3     		cbz	r5, .L27
 832              	.LBB153:
1024:lvgl/src/widgets/lv_table.c ****         y -= obj->coords.y1;
 833              		.loc 1 1024 9 is_stmt 1 view .LVU269
1024:lvgl/src/widgets/lv_table.c ****         y -= obj->coords.y1;
 834              		.loc 1 1024 25 is_stmt 0 view .LVU270
 835 00b6 BDF80660 		ldrh	r6, [sp, #6]
 836              	.LVL90:
1024:lvgl/src/widgets/lv_table.c ****         y -= obj->coords.y1;
 837              		.loc 1 1024 30 view .LVU271
 838 00ba 2046     		mov	r0, r4
 839 00bc FFF7FEFF 		bl	lv_obj_get_scroll_y
 840              	.LVL91:
1024:lvgl/src/widgets/lv_table.c ****         y -= obj->coords.y1;
 841              		.loc 1 1024 28 view .LVU272
 842 00c0 16FA80F6 		uxtah	r6, r6, r0
 843 00c4 B6B2     		uxth	r6, r6
 844              	.LVL92:
1024:lvgl/src/widgets/lv_table.c ****         y -= obj->coords.y1;
 845              		.loc 1 1024 55 is_stmt 1 view .LVU273
ARM GAS  /var/folders/21/t9g5rlb91ys800n5npymflf80000gn/T//ccNiYEm1.s 			page 49


1025:lvgl/src/widgets/lv_table.c ****         y -= lv_obj_get_style_pad_top(obj, LV_PART_MAIN);
 846              		.loc 1 1025 9 view .LVU274
1025:lvgl/src/widgets/lv_table.c ****         y -= lv_obj_get_style_pad_top(obj, LV_PART_MAIN);
 847              		.loc 1 1025 25 is_stmt 0 view .LVU275
 848 00c6 E38A     		ldrh	r3, [r4, #22]
1025:lvgl/src/widgets/lv_table.c ****         y -= lv_obj_get_style_pad_top(obj, LV_PART_MAIN);
 849              		.loc 1 1025 11 view .LVU276
 850 00c8 F61A     		subs	r6, r6, r3
 851              	.LVL93:
1025:lvgl/src/widgets/lv_table.c ****         y -= lv_obj_get_style_pad_top(obj, LV_PART_MAIN);
 852              		.loc 1 1025 11 view .LVU277
 853 00ca B6B2     		uxth	r6, r6
 854              	.LVL94:
1026:lvgl/src/widgets/lv_table.c **** 
 855              		.loc 1 1026 9 is_stmt 1 view .LVU278
 856              	.LBB154:
 857              	.LBI154:
 103:lvgl/src/widgets/../core/lv_obj_style_gen.h **** {
 858              		.loc 3 103 26 view .LVU279
 859              	.LBB155:
 105:lvgl/src/widgets/../core/lv_obj_style_gen.h ****     return (lv_coord_t)v.num;
 860              		.loc 3 105 5 view .LVU280
 105:lvgl/src/widgets/../core/lv_obj_style_gen.h ****     return (lv_coord_t)v.num;
 861              		.loc 3 105 26 is_stmt 0 view .LVU281
 862 00cc 1022     		movs	r2, #16
 863 00ce 0021     		movs	r1, #0
 864 00d0 2046     		mov	r0, r4
 865 00d2 FFF7FEFF 		bl	lv_obj_get_style_prop
 866              	.LVL95:
 106:lvgl/src/widgets/../core/lv_obj_style_gen.h **** }
 867              		.loc 3 106 5 is_stmt 1 view .LVU282
 106:lvgl/src/widgets/../core/lv_obj_style_gen.h **** }
 868              		.loc 3 106 5 is_stmt 0 view .LVU283
 869              	.LBE155:
 870              	.LBE154:
1026:lvgl/src/widgets/lv_table.c **** 
 871              		.loc 1 1026 14 view .LVU284
 872 00d6 80B2     		uxth	r0, r0
1026:lvgl/src/widgets/lv_table.c **** 
 873              		.loc 1 1026 11 view .LVU285
 874 00d8 311A     		subs	r1, r6, r0
 875 00da 09B2     		sxth	r1, r1
 876              	.LVL96:
1028:lvgl/src/widgets/lv_table.c ****         tmp = 0;
 877              		.loc 1 1028 9 is_stmt 1 view .LVU286
1028:lvgl/src/widgets/lv_table.c ****         tmp = 0;
 878              		.loc 1 1028 14 is_stmt 0 view .LVU287
 879 00dc 0022     		movs	r2, #0
 880 00de 2A80     		strh	r2, [r5]	@ movhi
1029:lvgl/src/widgets/lv_table.c **** 
 881              		.loc 1 1029 9 is_stmt 1 view .LVU288
 882              	.LVL97:
1031:lvgl/src/widgets/lv_table.c ****             tmp += table->row_h[*row];
 883              		.loc 1 1031 9 view .LVU289
 884              	.L25:
1031:lvgl/src/widgets/lv_table.c ****             tmp += table->row_h[*row];
 885              		.loc 1 1031 28 discriminator 1 view .LVU290
ARM GAS  /var/folders/21/t9g5rlb91ys800n5npymflf80000gn/T//ccNiYEm1.s 			page 50


1031:lvgl/src/widgets/lv_table.c ****             tmp += table->row_h[*row];
 886              		.loc 1 1031 23 is_stmt 0 discriminator 1 view .LVU291
 887 00e0 2B88     		ldrh	r3, [r5]
1031:lvgl/src/widgets/lv_table.c ****             tmp += table->row_h[*row];
 888              		.loc 1 1031 35 discriminator 1 view .LVU292
 889 00e2 E08C     		ldrh	r0, [r4, #38]
1031:lvgl/src/widgets/lv_table.c ****             tmp += table->row_h[*row];
 890              		.loc 1 1031 28 discriminator 1 view .LVU293
 891 00e4 8342     		cmp	r3, r0
 892 00e6 09D2     		bcs	.L31
1032:lvgl/src/widgets/lv_table.c ****             if(y < tmp) break;
 893              		.loc 1 1032 13 is_stmt 1 view .LVU294
1032:lvgl/src/widgets/lv_table.c ****             if(y < tmp) break;
 894              		.loc 1 1032 25 is_stmt 0 view .LVU295
 895 00e8 E06A     		ldr	r0, [r4, #44]
1032:lvgl/src/widgets/lv_table.c ****             if(y < tmp) break;
 896              		.loc 1 1032 32 view .LVU296
 897 00ea 30F81300 		ldrh	r0, [r0, r3, lsl #1]
1032:lvgl/src/widgets/lv_table.c ****             if(y < tmp) break;
 898              		.loc 1 1032 17 view .LVU297
 899 00ee 0244     		add	r2, r2, r0
 900              	.LVL98:
1032:lvgl/src/widgets/lv_table.c ****             if(y < tmp) break;
 901              		.loc 1 1032 17 view .LVU298
 902 00f0 12B2     		sxth	r2, r2
 903              	.LVL99:
1033:lvgl/src/widgets/lv_table.c ****         }
 904              		.loc 1 1033 13 is_stmt 1 view .LVU299
1033:lvgl/src/widgets/lv_table.c ****         }
 905              		.loc 1 1033 15 is_stmt 0 view .LVU300
 906 00f2 9142     		cmp	r1, r2
 907 00f4 06DB     		blt	.L28
1031:lvgl/src/widgets/lv_table.c ****             tmp += table->row_h[*row];
 908              		.loc 1 1031 52 is_stmt 1 discriminator 2 view .LVU301
 909 00f6 0133     		adds	r3, r3, #1
 910 00f8 2B80     		strh	r3, [r5]	@ movhi
 911 00fa F1E7     		b	.L25
 912              	.L31:
1031:lvgl/src/widgets/lv_table.c ****             tmp += table->row_h[*row];
 913              		.loc 1 1031 52 is_stmt 0 discriminator 2 view .LVU302
 914              	.LBE153:
1037:lvgl/src/widgets/lv_table.c **** }
 915              		.loc 1 1037 12 view .LVU303
 916 00fc 0120     		movs	r0, #1
 917              	.LBB156:
 918 00fe 96E7     		b	.L19
 919              	.LVL100:
 920              	.L27:
1037:lvgl/src/widgets/lv_table.c **** }
 921              		.loc 1 1037 12 view .LVU304
 922              	.LBE156:
 923 0100 0120     		movs	r0, #1
 924 0102 94E7     		b	.L19
 925              	.LVL101:
 926              	.L28:
1037:lvgl/src/widgets/lv_table.c **** }
 927              		.loc 1 1037 12 view .LVU305
ARM GAS  /var/folders/21/t9g5rlb91ys800n5npymflf80000gn/T//ccNiYEm1.s 			page 51


 928 0104 0120     		movs	r0, #1
 929 0106 92E7     		b	.L19
 930              		.cfi_endproc
 931              	.LFE185:
 933              		.section	.text.get_cell_area,"ax",%progbits
 934              		.align	1
 935              		.syntax unified
 936              		.thumb
 937              		.thumb_func
 939              	get_cell_area:
 940              	.LVL102:
 941              	.LFB188:
1039:lvgl/src/widgets/lv_table.c **** 
1040:lvgl/src/widgets/lv_table.c **** /* Returns number of bytes to allocate based on chars configuration */
1041:lvgl/src/widgets/lv_table.c **** static size_t get_cell_txt_len(const char * txt)
1042:lvgl/src/widgets/lv_table.c **** {
1043:lvgl/src/widgets/lv_table.c ****     size_t retval = 0;
1044:lvgl/src/widgets/lv_table.c **** 
1045:lvgl/src/widgets/lv_table.c **** #if LV_USE_ARABIC_PERSIAN_CHARS
1046:lvgl/src/widgets/lv_table.c ****     retval = sizeof(lv_table_cell_t) + _lv_txt_ap_calc_bytes_cnt(txt) + 1;
1047:lvgl/src/widgets/lv_table.c **** #else
1048:lvgl/src/widgets/lv_table.c ****     retval = sizeof(lv_table_cell_t) + strlen(txt) + 1;
1049:lvgl/src/widgets/lv_table.c **** #endif
1050:lvgl/src/widgets/lv_table.c **** 
1051:lvgl/src/widgets/lv_table.c ****     return retval;
1052:lvgl/src/widgets/lv_table.c **** }
1053:lvgl/src/widgets/lv_table.c **** 
1054:lvgl/src/widgets/lv_table.c **** /* Copy txt into dst skipping the format byte */
1055:lvgl/src/widgets/lv_table.c **** static void copy_cell_txt(lv_table_cell_t * dst, const char * txt)
1056:lvgl/src/widgets/lv_table.c **** {
1057:lvgl/src/widgets/lv_table.c **** #if LV_USE_ARABIC_PERSIAN_CHARS
1058:lvgl/src/widgets/lv_table.c ****     _lv_txt_ap_proc(txt, dst->txt);
1059:lvgl/src/widgets/lv_table.c **** #else
1060:lvgl/src/widgets/lv_table.c ****     strcpy(dst->txt, txt);
1061:lvgl/src/widgets/lv_table.c **** #endif
1062:lvgl/src/widgets/lv_table.c **** }
1063:lvgl/src/widgets/lv_table.c **** 
1064:lvgl/src/widgets/lv_table.c **** static void get_cell_area(lv_obj_t * obj, uint16_t row, uint16_t col, lv_area_t * area)
1065:lvgl/src/widgets/lv_table.c **** {
 942              		.loc 1 1065 1 is_stmt 1 view -0
 943              		.cfi_startproc
 944              		@ args = 0, pretend = 0, frame = 0
 945              		@ frame_needed = 0, uses_anonymous_args = 0
 946              		.loc 1 1065 1 is_stmt 0 view .LVU307
 947 0000 2DE9F041 		push	{r4, r5, r6, r7, r8, lr}
 948              	.LCFI10:
 949              		.cfi_def_cfa_offset 24
 950              		.cfi_offset 4, -24
 951              		.cfi_offset 5, -20
 952              		.cfi_offset 6, -16
 953              		.cfi_offset 7, -12
 954              		.cfi_offset 8, -8
 955              		.cfi_offset 14, -4
 956 0004 0546     		mov	r5, r0
 957 0006 0E46     		mov	r6, r1
 958 0008 1746     		mov	r7, r2
 959 000a 1C46     		mov	r4, r3
ARM GAS  /var/folders/21/t9g5rlb91ys800n5npymflf80000gn/T//ccNiYEm1.s 			page 52


1066:lvgl/src/widgets/lv_table.c ****     lv_table_t * table = (lv_table_t *)obj;
 960              		.loc 1 1066 5 is_stmt 1 view .LVU308
 961              	.LVL103:
1067:lvgl/src/widgets/lv_table.c **** 
1068:lvgl/src/widgets/lv_table.c ****     uint32_t c;
 962              		.loc 1 1068 5 view .LVU309
1069:lvgl/src/widgets/lv_table.c ****     area->x1 = 0;
 963              		.loc 1 1069 5 view .LVU310
 964              		.loc 1 1069 14 is_stmt 0 view .LVU311
 965 000c 0023     		movs	r3, #0
 966              	.LVL104:
 967              		.loc 1 1069 14 view .LVU312
 968 000e 2380     		strh	r3, [r4]	@ movhi
1070:lvgl/src/widgets/lv_table.c ****     for(c = 0; c < col; c++) {
 969              		.loc 1 1070 5 is_stmt 1 view .LVU313
 970              	.LVL105:
 971              		.loc 1 1070 5 is_stmt 0 view .LVU314
 972 0010 06E0     		b	.L33
 973              	.LVL106:
 974              	.L34:
1071:lvgl/src/widgets/lv_table.c ****         area->x1 += table->col_w[c];
 975              		.loc 1 1071 9 is_stmt 1 discriminator 3 view .LVU315
 976              		.loc 1 1071 13 is_stmt 0 discriminator 3 view .LVU316
 977 0012 2188     		ldrh	r1, [r4]
 978              		.loc 1 1071 26 discriminator 3 view .LVU317
 979 0014 2A6B     		ldr	r2, [r5, #48]
 980              		.loc 1 1071 33 discriminator 3 view .LVU318
 981 0016 32F81320 		ldrh	r2, [r2, r3, lsl #1]
 982              		.loc 1 1071 18 discriminator 3 view .LVU319
 983 001a 1144     		add	r1, r1, r2
 984 001c 2180     		strh	r1, [r4]	@ movhi
1070:lvgl/src/widgets/lv_table.c ****     for(c = 0; c < col; c++) {
 985              		.loc 1 1070 26 is_stmt 1 discriminator 3 view .LVU320
 986 001e 0133     		adds	r3, r3, #1
 987              	.LVL107:
 988              	.L33:
1070:lvgl/src/widgets/lv_table.c ****     for(c = 0; c < col; c++) {
 989              		.loc 1 1070 18 discriminator 1 view .LVU321
 990 0020 9F42     		cmp	r7, r3
 991 0022 F6D8     		bhi	.L34
1072:lvgl/src/widgets/lv_table.c ****     }
1073:lvgl/src/widgets/lv_table.c **** 
1074:lvgl/src/widgets/lv_table.c ****     bool rtl = lv_obj_get_style_base_dir(obj, LV_PART_MAIN) == LV_BASE_DIR_RTL;
 992              		.loc 1 1074 5 view .LVU322
 993              	.LVL108:
 994              	.LBB157:
 995              	.LBI157:
 565:lvgl/src/widgets/../core/lv_obj_style_gen.h **** {
 996              		.loc 3 565 29 view .LVU323
 997              	.LBB158:
 567:lvgl/src/widgets/../core/lv_obj_style_gen.h ****     return (lv_base_dir_t)v.num;
 998              		.loc 3 567 5 view .LVU324
 567:lvgl/src/widgets/../core/lv_obj_style_gen.h ****     return (lv_base_dir_t)v.num;
 999              		.loc 3 567 26 is_stmt 0 view .LVU325
 1000 0024 1622     		movs	r2, #22
 1001 0026 0021     		movs	r1, #0
 1002 0028 2846     		mov	r0, r5
ARM GAS  /var/folders/21/t9g5rlb91ys800n5npymflf80000gn/T//ccNiYEm1.s 			page 53


 1003              	.LVL109:
 567:lvgl/src/widgets/../core/lv_obj_style_gen.h ****     return (lv_base_dir_t)v.num;
 1004              		.loc 3 567 26 view .LVU326
 1005 002a FFF7FEFF 		bl	lv_obj_get_style_prop
 1006              	.LVL110:
 1007              		.loc 3 568 5 is_stmt 1 view .LVU327
 1008              		.loc 3 568 12 is_stmt 0 view .LVU328
 1009 002e C0B2     		uxtb	r0, r0
 1010              	.LVL111:
 1011              		.loc 3 568 12 view .LVU329
 1012              	.LBE158:
 1013              	.LBE157:
1075:lvgl/src/widgets/lv_table.c ****     if(rtl) {
 1014              		.loc 1 1075 5 is_stmt 1 view .LVU330
 1015              		.loc 1 1075 7 is_stmt 0 view .LVU331
 1016 0030 0128     		cmp	r0, #1
 1017 0032 1AD0     		beq	.L40
1076:lvgl/src/widgets/lv_table.c ****         area->x1 += lv_obj_get_scroll_x(obj);
1077:lvgl/src/widgets/lv_table.c ****         lv_coord_t w = lv_obj_get_width(obj);
1078:lvgl/src/widgets/lv_table.c ****         area->x2 = w - area->x1 - lv_obj_get_style_pad_right(obj, 0);
1079:lvgl/src/widgets/lv_table.c ****         area->x1 = area->x2 - table->col_w[col];
1080:lvgl/src/widgets/lv_table.c ****     }
1081:lvgl/src/widgets/lv_table.c ****     else {
1082:lvgl/src/widgets/lv_table.c ****         area->x1 -= lv_obj_get_scroll_x(obj);
 1018              		.loc 1 1082 9 is_stmt 1 view .LVU332
 1019              		.loc 1 1082 21 is_stmt 0 view .LVU333
 1020 0034 2846     		mov	r0, r5
 1021              	.LVL112:
 1022              		.loc 1 1082 21 view .LVU334
 1023 0036 FFF7FEFF 		bl	lv_obj_get_scroll_x
 1024              	.LVL113:
 1025              		.loc 1 1082 13 view .LVU335
 1026 003a 2388     		ldrh	r3, [r4]
 1027              		.loc 1 1082 21 view .LVU336
 1028 003c 80B2     		uxth	r0, r0
 1029              		.loc 1 1082 18 view .LVU337
 1030 003e 1B1A     		subs	r3, r3, r0
 1031 0040 2380     		strh	r3, [r4]	@ movhi
1083:lvgl/src/widgets/lv_table.c ****         area->x1 += lv_obj_get_style_pad_left(obj, 0);
 1032              		.loc 1 1083 9 is_stmt 1 view .LVU338
 1033              	.LVL114:
 1034              	.LBB159:
 1035              	.LBI159:
 115:lvgl/src/widgets/../core/lv_obj_style_gen.h **** {
 1036              		.loc 3 115 26 view .LVU339
 1037              	.LBB160:
 117:lvgl/src/widgets/../core/lv_obj_style_gen.h ****     return (lv_coord_t)v.num;
 1038              		.loc 3 117 5 view .LVU340
 117:lvgl/src/widgets/../core/lv_obj_style_gen.h ****     return (lv_coord_t)v.num;
 1039              		.loc 3 117 26 is_stmt 0 view .LVU341
 1040 0042 1222     		movs	r2, #18
 1041 0044 0021     		movs	r1, #0
 1042 0046 2846     		mov	r0, r5
 1043 0048 FFF7FEFF 		bl	lv_obj_get_style_prop
 1044              	.LVL115:
 118:lvgl/src/widgets/../core/lv_obj_style_gen.h **** }
 1045              		.loc 3 118 5 is_stmt 1 view .LVU342
ARM GAS  /var/folders/21/t9g5rlb91ys800n5npymflf80000gn/T//ccNiYEm1.s 			page 54


 118:lvgl/src/widgets/../core/lv_obj_style_gen.h **** }
 1046              		.loc 3 118 5 is_stmt 0 view .LVU343
 1047              	.LBE160:
 1048              	.LBE159:
 1049              		.loc 1 1083 13 view .LVU344
 1050 004c 2388     		ldrh	r3, [r4]
 1051              		.loc 1 1083 18 view .LVU345
 1052 004e 13FA80F0 		uxtah	r0, r3, r0
 1053 0052 80B2     		uxth	r0, r0
 1054 0054 2080     		strh	r0, [r4]	@ movhi
1084:lvgl/src/widgets/lv_table.c ****         area->x2 = area->x1 + table->col_w[col] - 1;
 1055              		.loc 1 1084 9 is_stmt 1 view .LVU346
 1056              		.loc 1 1084 36 is_stmt 0 view .LVU347
 1057 0056 2B6B     		ldr	r3, [r5, #48]
 1058              		.loc 1 1084 43 view .LVU348
 1059 0058 33F81730 		ldrh	r3, [r3, r7, lsl #1]
 1060              		.loc 1 1084 29 view .LVU349
 1061 005c 1844     		add	r0, r0, r3
 1062 005e 80B2     		uxth	r0, r0
 1063              		.loc 1 1084 49 view .LVU350
 1064 0060 0138     		subs	r0, r0, #1
 1065              		.loc 1 1084 18 view .LVU351
 1066 0062 A080     		strh	r0, [r4, #4]	@ movhi
 1067              	.L36:
1085:lvgl/src/widgets/lv_table.c ****     }
1086:lvgl/src/widgets/lv_table.c **** 
1087:lvgl/src/widgets/lv_table.c ****     uint32_t r;
 1068              		.loc 1 1087 5 is_stmt 1 view .LVU352
1088:lvgl/src/widgets/lv_table.c ****     area->y1 = 0;
 1069              		.loc 1 1088 5 view .LVU353
 1070              		.loc 1 1088 14 is_stmt 0 view .LVU354
 1071 0064 0023     		movs	r3, #0
 1072 0066 6380     		strh	r3, [r4, #2]	@ movhi
1089:lvgl/src/widgets/lv_table.c ****     for(r = 0; r < row; r++) {
 1073              		.loc 1 1089 5 is_stmt 1 view .LVU355
 1074              	.LVL116:
 1075              		.loc 1 1089 5 is_stmt 0 view .LVU356
 1076 0068 24E0     		b	.L37
 1077              	.LVL117:
 1078              	.L40:
 1079              	.LBB161:
1076:lvgl/src/widgets/lv_table.c ****         lv_coord_t w = lv_obj_get_width(obj);
 1080              		.loc 1 1076 9 is_stmt 1 view .LVU357
1076:lvgl/src/widgets/lv_table.c ****         lv_coord_t w = lv_obj_get_width(obj);
 1081              		.loc 1 1076 21 is_stmt 0 view .LVU358
 1082 006a 2846     		mov	r0, r5
 1083              	.LVL118:
1076:lvgl/src/widgets/lv_table.c ****         lv_coord_t w = lv_obj_get_width(obj);
 1084              		.loc 1 1076 21 view .LVU359
 1085 006c FFF7FEFF 		bl	lv_obj_get_scroll_x
 1086              	.LVL119:
1076:lvgl/src/widgets/lv_table.c ****         lv_coord_t w = lv_obj_get_width(obj);
 1087              		.loc 1 1076 13 view .LVU360
 1088 0070 2388     		ldrh	r3, [r4]
1076:lvgl/src/widgets/lv_table.c ****         lv_coord_t w = lv_obj_get_width(obj);
 1089              		.loc 1 1076 18 view .LVU361
 1090 0072 13FA80F0 		uxtah	r0, r3, r0
ARM GAS  /var/folders/21/t9g5rlb91ys800n5npymflf80000gn/T//ccNiYEm1.s 			page 55


 1091 0076 2080     		strh	r0, [r4]	@ movhi
1077:lvgl/src/widgets/lv_table.c ****         area->x2 = w - area->x1 - lv_obj_get_style_pad_right(obj, 0);
 1092              		.loc 1 1077 9 is_stmt 1 view .LVU362
1077:lvgl/src/widgets/lv_table.c ****         area->x2 = w - area->x1 - lv_obj_get_style_pad_right(obj, 0);
 1093              		.loc 1 1077 24 is_stmt 0 view .LVU363
 1094 0078 2846     		mov	r0, r5
 1095 007a FFF7FEFF 		bl	lv_obj_get_width
 1096              	.LVL120:
1078:lvgl/src/widgets/lv_table.c ****         area->x1 = area->x2 - table->col_w[col];
 1097              		.loc 1 1078 9 is_stmt 1 view .LVU364
1078:lvgl/src/widgets/lv_table.c ****         area->x1 = area->x2 - table->col_w[col];
 1098              		.loc 1 1078 28 is_stmt 0 view .LVU365
 1099 007e 2388     		ldrh	r3, [r4]
1078:lvgl/src/widgets/lv_table.c ****         area->x1 = area->x2 - table->col_w[col];
 1100              		.loc 1 1078 22 view .LVU366
 1101 0080 C31A     		subs	r3, r0, r3
 1102 0082 1FFA83F8 		uxth	r8, r3
 1103              	.LVL121:
 1104              	.LBB162:
 1105              	.LBI162:
 121:lvgl/src/widgets/../core/lv_obj_style_gen.h **** {
 1106              		.loc 3 121 26 is_stmt 1 view .LVU367
 1107              	.LBB163:
 123:lvgl/src/widgets/../core/lv_obj_style_gen.h ****     return (lv_coord_t)v.num;
 1108              		.loc 3 123 5 view .LVU368
 123:lvgl/src/widgets/../core/lv_obj_style_gen.h ****     return (lv_coord_t)v.num;
 1109              		.loc 3 123 26 is_stmt 0 view .LVU369
 1110 0086 1322     		movs	r2, #19
 1111 0088 0021     		movs	r1, #0
 1112 008a 2846     		mov	r0, r5
 1113              	.LVL122:
 123:lvgl/src/widgets/../core/lv_obj_style_gen.h ****     return (lv_coord_t)v.num;
 1114              		.loc 3 123 26 view .LVU370
 1115 008c FFF7FEFF 		bl	lv_obj_get_style_prop
 1116              	.LVL123:
 124:lvgl/src/widgets/../core/lv_obj_style_gen.h **** }
 1117              		.loc 3 124 5 is_stmt 1 view .LVU371
 124:lvgl/src/widgets/../core/lv_obj_style_gen.h **** }
 1118              		.loc 3 124 5 is_stmt 0 view .LVU372
 1119              	.LBE163:
 1120              	.LBE162:
1078:lvgl/src/widgets/lv_table.c ****         area->x1 = area->x2 - table->col_w[col];
 1121              		.loc 1 1078 35 view .LVU373
 1122 0090 80B2     		uxth	r0, r0
1078:lvgl/src/widgets/lv_table.c ****         area->x1 = area->x2 - table->col_w[col];
 1123              		.loc 1 1078 33 view .LVU374
 1124 0092 A8EB0003 		sub	r3, r8, r0
 1125 0096 9AB2     		uxth	r2, r3
1078:lvgl/src/widgets/lv_table.c ****         area->x1 = area->x2 - table->col_w[col];
 1126              		.loc 1 1078 18 view .LVU375
 1127 0098 A380     		strh	r3, [r4, #4]	@ movhi
1079:lvgl/src/widgets/lv_table.c ****     }
 1128              		.loc 1 1079 9 is_stmt 1 view .LVU376
1079:lvgl/src/widgets/lv_table.c ****     }
 1129              		.loc 1 1079 36 is_stmt 0 view .LVU377
 1130 009a 2B6B     		ldr	r3, [r5, #48]
1079:lvgl/src/widgets/lv_table.c ****     }
ARM GAS  /var/folders/21/t9g5rlb91ys800n5npymflf80000gn/T//ccNiYEm1.s 			page 56


 1131              		.loc 1 1079 43 view .LVU378
 1132 009c 33F81730 		ldrh	r3, [r3, r7, lsl #1]
1079:lvgl/src/widgets/lv_table.c ****     }
 1133              		.loc 1 1079 29 view .LVU379
 1134 00a0 D31A     		subs	r3, r2, r3
1079:lvgl/src/widgets/lv_table.c ****     }
 1135              		.loc 1 1079 18 view .LVU380
 1136 00a2 2380     		strh	r3, [r4]	@ movhi
 1137              	.LBE161:
 1138 00a4 DEE7     		b	.L36
 1139              	.LVL124:
 1140              	.L38:
1090:lvgl/src/widgets/lv_table.c ****         area->y1 += table->row_h[r];
 1141              		.loc 1 1090 9 is_stmt 1 discriminator 3 view .LVU381
 1142              		.loc 1 1090 13 is_stmt 0 discriminator 3 view .LVU382
 1143 00a6 6288     		ldrh	r2, [r4, #2]
 1144              		.loc 1 1090 26 discriminator 3 view .LVU383
 1145 00a8 E96A     		ldr	r1, [r5, #44]
 1146              		.loc 1 1090 33 discriminator 3 view .LVU384
 1147 00aa 31F81310 		ldrh	r1, [r1, r3, lsl #1]
 1148              		.loc 1 1090 18 discriminator 3 view .LVU385
 1149 00ae 0A44     		add	r2, r2, r1
 1150 00b0 6280     		strh	r2, [r4, #2]	@ movhi
1089:lvgl/src/widgets/lv_table.c ****         area->y1 += table->row_h[r];
 1151              		.loc 1 1089 26 is_stmt 1 discriminator 3 view .LVU386
 1152 00b2 0133     		adds	r3, r3, #1
 1153              	.LVL125:
 1154              	.L37:
1089:lvgl/src/widgets/lv_table.c ****         area->y1 += table->row_h[r];
 1155              		.loc 1 1089 18 discriminator 1 view .LVU387
 1156 00b4 9E42     		cmp	r6, r3
 1157 00b6 F6D8     		bhi	.L38
1091:lvgl/src/widgets/lv_table.c ****     }
1092:lvgl/src/widgets/lv_table.c **** 
1093:lvgl/src/widgets/lv_table.c ****     area->y1 += lv_obj_get_style_pad_top(obj, 0);
 1158              		.loc 1 1093 5 view .LVU388
 1159              	.LVL126:
 1160              	.LBB164:
 1161              	.LBI164:
 103:lvgl/src/widgets/../core/lv_obj_style_gen.h **** {
 1162              		.loc 3 103 26 view .LVU389
 1163              	.LBB165:
 105:lvgl/src/widgets/../core/lv_obj_style_gen.h ****     return (lv_coord_t)v.num;
 1164              		.loc 3 105 5 view .LVU390
 105:lvgl/src/widgets/../core/lv_obj_style_gen.h ****     return (lv_coord_t)v.num;
 1165              		.loc 3 105 26 is_stmt 0 view .LVU391
 1166 00b8 1022     		movs	r2, #16
 1167 00ba 0021     		movs	r1, #0
 1168 00bc 2846     		mov	r0, r5
 1169 00be FFF7FEFF 		bl	lv_obj_get_style_prop
 1170              	.LVL127:
 106:lvgl/src/widgets/../core/lv_obj_style_gen.h **** }
 1171              		.loc 3 106 5 is_stmt 1 view .LVU392
 106:lvgl/src/widgets/../core/lv_obj_style_gen.h **** }
 1172              		.loc 3 106 5 is_stmt 0 view .LVU393
 1173              	.LBE165:
 1174              	.LBE164:
ARM GAS  /var/folders/21/t9g5rlb91ys800n5npymflf80000gn/T//ccNiYEm1.s 			page 57


 1175              		.loc 1 1093 9 view .LVU394
 1176 00c2 6388     		ldrh	r3, [r4, #2]
 1177              		.loc 1 1093 14 view .LVU395
 1178 00c4 13FA80F0 		uxtah	r0, r3, r0
 1179 00c8 6080     		strh	r0, [r4, #2]	@ movhi
1094:lvgl/src/widgets/lv_table.c ****     area->y1 -= lv_obj_get_scroll_y(obj);
 1180              		.loc 1 1094 5 is_stmt 1 view .LVU396
 1181              		.loc 1 1094 17 is_stmt 0 view .LVU397
 1182 00ca 2846     		mov	r0, r5
 1183 00cc FFF7FEFF 		bl	lv_obj_get_scroll_y
 1184              	.LVL128:
 1185              		.loc 1 1094 9 view .LVU398
 1186 00d0 6388     		ldrh	r3, [r4, #2]
 1187              		.loc 1 1094 17 view .LVU399
 1188 00d2 80B2     		uxth	r0, r0
 1189              		.loc 1 1094 14 view .LVU400
 1190 00d4 1B1A     		subs	r3, r3, r0
 1191 00d6 9BB2     		uxth	r3, r3
 1192 00d8 6380     		strh	r3, [r4, #2]	@ movhi
1095:lvgl/src/widgets/lv_table.c ****     area->y2 = area->y1 + table->row_h[row] - 1;
 1193              		.loc 1 1095 5 is_stmt 1 view .LVU401
 1194              		.loc 1 1095 32 is_stmt 0 view .LVU402
 1195 00da EA6A     		ldr	r2, [r5, #44]
 1196              		.loc 1 1095 39 view .LVU403
 1197 00dc 32F81620 		ldrh	r2, [r2, r6, lsl #1]
 1198              		.loc 1 1095 25 view .LVU404
 1199 00e0 1344     		add	r3, r3, r2
 1200 00e2 9BB2     		uxth	r3, r3
 1201              		.loc 1 1095 45 view .LVU405
 1202 00e4 013B     		subs	r3, r3, #1
 1203              		.loc 1 1095 14 view .LVU406
 1204 00e6 E380     		strh	r3, [r4, #6]	@ movhi
1096:lvgl/src/widgets/lv_table.c **** 
1097:lvgl/src/widgets/lv_table.c **** }
 1205              		.loc 1 1097 1 view .LVU407
 1206 00e8 BDE8F081 		pop	{r4, r5, r6, r7, r8, pc}
 1207              		.loc 1 1097 1 view .LVU408
 1208              		.cfi_endproc
 1209              	.LFE188:
 1211              		.section	.text.scroll_to_selected_cell,"ax",%progbits
 1212              		.align	1
 1213              		.syntax unified
 1214              		.thumb
 1215              		.thumb_func
 1217              	scroll_to_selected_cell:
 1218              	.LVL129:
 1219              	.LFB189:
1098:lvgl/src/widgets/lv_table.c **** 
1099:lvgl/src/widgets/lv_table.c **** static void scroll_to_selected_cell(lv_obj_t * obj)
1100:lvgl/src/widgets/lv_table.c **** {
 1220              		.loc 1 1100 1 is_stmt 1 view -0
 1221              		.cfi_startproc
 1222              		@ args = 0, pretend = 0, frame = 8
 1223              		@ frame_needed = 0, uses_anonymous_args = 0
 1224              		.loc 1 1100 1 is_stmt 0 view .LVU410
 1225 0000 30B5     		push	{r4, r5, lr}
 1226              	.LCFI11:
ARM GAS  /var/folders/21/t9g5rlb91ys800n5npymflf80000gn/T//ccNiYEm1.s 			page 58


 1227              		.cfi_def_cfa_offset 12
 1228              		.cfi_offset 4, -12
 1229              		.cfi_offset 5, -8
 1230              		.cfi_offset 14, -4
 1231 0002 83B0     		sub	sp, sp, #12
 1232              	.LCFI12:
 1233              		.cfi_def_cfa_offset 24
 1234 0004 0446     		mov	r4, r0
1101:lvgl/src/widgets/lv_table.c ****     lv_table_t * table = (lv_table_t *)obj;
 1235              		.loc 1 1101 5 is_stmt 1 view .LVU411
 1236              	.LVL130:
1102:lvgl/src/widgets/lv_table.c **** 
1103:lvgl/src/widgets/lv_table.c ****     lv_area_t a;
 1237              		.loc 1 1103 5 view .LVU412
1104:lvgl/src/widgets/lv_table.c ****     get_cell_area(obj, table->row_act, table->col_act, &a);
 1238              		.loc 1 1104 5 view .LVU413
 1239 0006 6B46     		mov	r3, sp
 1240 0008 828E     		ldrh	r2, [r0, #52]
 1241 000a C18E     		ldrh	r1, [r0, #54]
 1242 000c FFF7FEFF 		bl	get_cell_area
 1243              	.LVL131:
1105:lvgl/src/widgets/lv_table.c ****     if(a.x1 < 0) {
 1244              		.loc 1 1105 5 view .LVU414
 1245              		.loc 1 1105 9 is_stmt 0 view .LVU415
 1246 0010 BDF90010 		ldrsh	r1, [sp]
 1247              		.loc 1 1105 7 view .LVU416
 1248 0014 0029     		cmp	r1, #0
 1249 0016 14DB     		blt	.L47
1106:lvgl/src/widgets/lv_table.c ****         lv_obj_scroll_by_bounded(obj, -a.x1, 0, LV_ANIM_ON);
1107:lvgl/src/widgets/lv_table.c ****     }
1108:lvgl/src/widgets/lv_table.c ****     else if(a.x2 > lv_obj_get_width(obj)) {
 1250              		.loc 1 1108 10 is_stmt 1 view .LVU417
 1251              		.loc 1 1108 14 is_stmt 0 view .LVU418
 1252 0018 BDF90450 		ldrsh	r5, [sp, #4]
 1253              		.loc 1 1108 20 view .LVU419
 1254 001c 2046     		mov	r0, r4
 1255 001e FFF7FEFF 		bl	lv_obj_get_width
 1256              	.LVL132:
 1257              		.loc 1 1108 12 view .LVU420
 1258 0022 8542     		cmp	r5, r0
 1259 0024 15DD     		ble	.L43
1109:lvgl/src/widgets/lv_table.c ****         lv_obj_scroll_by_bounded(obj, lv_obj_get_width(obj) - a.x2, 0, LV_ANIM_ON);
 1260              		.loc 1 1109 9 is_stmt 1 view .LVU421
 1261              		.loc 1 1109 39 is_stmt 0 view .LVU422
 1262 0026 2046     		mov	r0, r4
 1263 0028 FFF7FEFF 		bl	lv_obj_get_width
 1264              	.LVL133:
 1265 002c 81B2     		uxth	r1, r0
 1266              		.loc 1 1109 64 view .LVU423
 1267 002e BDF80430 		ldrh	r3, [sp, #4]
 1268              		.loc 1 1109 61 view .LVU424
 1269 0032 C91A     		subs	r1, r1, r3
 1270              		.loc 1 1109 9 view .LVU425
 1271 0034 0123     		movs	r3, #1
 1272 0036 0022     		movs	r2, #0
 1273 0038 09B2     		sxth	r1, r1
 1274 003a 2046     		mov	r0, r4
ARM GAS  /var/folders/21/t9g5rlb91ys800n5npymflf80000gn/T//ccNiYEm1.s 			page 59


 1275 003c FFF7FEFF 		bl	lv_obj_scroll_by_bounded
 1276              	.LVL134:
 1277 0040 07E0     		b	.L43
 1278              	.L47:
1106:lvgl/src/widgets/lv_table.c ****         lv_obj_scroll_by_bounded(obj, -a.x1, 0, LV_ANIM_ON);
 1279              		.loc 1 1106 9 is_stmt 1 view .LVU426
1106:lvgl/src/widgets/lv_table.c ****         lv_obj_scroll_by_bounded(obj, -a.x1, 0, LV_ANIM_ON);
 1280              		.loc 1 1106 41 is_stmt 0 view .LVU427
 1281 0042 89B2     		uxth	r1, r1
1106:lvgl/src/widgets/lv_table.c ****         lv_obj_scroll_by_bounded(obj, -a.x1, 0, LV_ANIM_ON);
 1282              		.loc 1 1106 9 view .LVU428
 1283 0044 4942     		rsbs	r1, r1, #0
 1284 0046 0123     		movs	r3, #1
 1285 0048 0022     		movs	r2, #0
 1286 004a 09B2     		sxth	r1, r1
 1287 004c 2046     		mov	r0, r4
 1288 004e FFF7FEFF 		bl	lv_obj_scroll_by_bounded
 1289              	.LVL135:
 1290              	.L43:
1110:lvgl/src/widgets/lv_table.c ****     }
1111:lvgl/src/widgets/lv_table.c **** 
1112:lvgl/src/widgets/lv_table.c ****     if(a.y1 < 0) {
 1291              		.loc 1 1112 5 is_stmt 1 view .LVU429
 1292              		.loc 1 1112 9 is_stmt 0 view .LVU430
 1293 0052 BDF90220 		ldrsh	r2, [sp, #2]
 1294              		.loc 1 1112 7 view .LVU431
 1295 0056 002A     		cmp	r2, #0
 1296 0058 14DB     		blt	.L48
1113:lvgl/src/widgets/lv_table.c ****         lv_obj_scroll_by_bounded(obj, 0, -a.y1, LV_ANIM_ON);
1114:lvgl/src/widgets/lv_table.c ****     }
1115:lvgl/src/widgets/lv_table.c ****     else if(a.y2 > lv_obj_get_height(obj)) {
 1297              		.loc 1 1115 10 is_stmt 1 view .LVU432
 1298              		.loc 1 1115 14 is_stmt 0 view .LVU433
 1299 005a BDF90650 		ldrsh	r5, [sp, #6]
 1300              		.loc 1 1115 20 view .LVU434
 1301 005e 2046     		mov	r0, r4
 1302 0060 FFF7FEFF 		bl	lv_obj_get_height
 1303              	.LVL136:
 1304              		.loc 1 1115 12 view .LVU435
 1305 0064 8542     		cmp	r5, r0
 1306 0066 15DD     		ble	.L41
1116:lvgl/src/widgets/lv_table.c ****         lv_obj_scroll_by_bounded(obj, 0, lv_obj_get_height(obj) - a.y2, LV_ANIM_ON);
 1307              		.loc 1 1116 9 is_stmt 1 view .LVU436
 1308              		.loc 1 1116 42 is_stmt 0 view .LVU437
 1309 0068 2046     		mov	r0, r4
 1310 006a FFF7FEFF 		bl	lv_obj_get_height
 1311              	.LVL137:
 1312 006e 82B2     		uxth	r2, r0
 1313              		.loc 1 1116 68 view .LVU438
 1314 0070 BDF80630 		ldrh	r3, [sp, #6]
 1315              		.loc 1 1116 65 view .LVU439
 1316 0074 D21A     		subs	r2, r2, r3
 1317              		.loc 1 1116 9 view .LVU440
 1318 0076 0123     		movs	r3, #1
 1319 0078 12B2     		sxth	r2, r2
 1320 007a 0021     		movs	r1, #0
 1321 007c 2046     		mov	r0, r4
ARM GAS  /var/folders/21/t9g5rlb91ys800n5npymflf80000gn/T//ccNiYEm1.s 			page 60


 1322 007e FFF7FEFF 		bl	lv_obj_scroll_by_bounded
 1323              	.LVL138:
1117:lvgl/src/widgets/lv_table.c ****     }
1118:lvgl/src/widgets/lv_table.c **** 
1119:lvgl/src/widgets/lv_table.c **** }
 1324              		.loc 1 1119 1 view .LVU441
 1325 0082 07E0     		b	.L41
 1326              	.L48:
1113:lvgl/src/widgets/lv_table.c ****     }
 1327              		.loc 1 1113 9 is_stmt 1 view .LVU442
1113:lvgl/src/widgets/lv_table.c ****     }
 1328              		.loc 1 1113 44 is_stmt 0 view .LVU443
 1329 0084 92B2     		uxth	r2, r2
1113:lvgl/src/widgets/lv_table.c ****     }
 1330              		.loc 1 1113 9 view .LVU444
 1331 0086 5242     		rsbs	r2, r2, #0
 1332 0088 0123     		movs	r3, #1
 1333 008a 12B2     		sxth	r2, r2
 1334 008c 0021     		movs	r1, #0
 1335 008e 2046     		mov	r0, r4
 1336 0090 FFF7FEFF 		bl	lv_obj_scroll_by_bounded
 1337              	.LVL139:
 1338              	.L41:
 1339              		.loc 1 1119 1 view .LVU445
 1340 0094 03B0     		add	sp, sp, #12
 1341              	.LCFI13:
 1342              		.cfi_def_cfa_offset 12
 1343              		@ sp needed
 1344 0096 30BD     		pop	{r4, r5, pc}
 1345              		.loc 1 1119 1 view .LVU446
 1346              		.cfi_endproc
 1347              	.LFE189:
 1349              		.section	.text.draw_main,"ax",%progbits
 1350              		.align	1
 1351              		.syntax unified
 1352              		.thumb
 1353              		.thumb_func
 1355              	draw_main:
 1356              	.LVL140:
 1357              	.LFB181:
 669:lvgl/src/widgets/lv_table.c ****     lv_obj_t * obj = lv_event_get_target(e);
 1358              		.loc 1 669 1 is_stmt 1 view -0
 1359              		.cfi_startproc
 1360              		@ args = 0, pretend = 0, frame = 360
 1361              		@ frame_needed = 0, uses_anonymous_args = 0
 669:lvgl/src/widgets/lv_table.c ****     lv_obj_t * obj = lv_event_get_target(e);
 1362              		.loc 1 669 1 is_stmt 0 view .LVU448
 1363 0000 2DE9F04F 		push	{r4, r5, r6, r7, r8, r9, r10, fp, lr}
 1364              	.LCFI14:
 1365              		.cfi_def_cfa_offset 36
 1366              		.cfi_offset 4, -36
 1367              		.cfi_offset 5, -32
 1368              		.cfi_offset 6, -28
 1369              		.cfi_offset 7, -24
 1370              		.cfi_offset 8, -20
 1371              		.cfi_offset 9, -16
 1372              		.cfi_offset 10, -12
ARM GAS  /var/folders/21/t9g5rlb91ys800n5npymflf80000gn/T//ccNiYEm1.s 			page 61


 1373              		.cfi_offset 11, -8
 1374              		.cfi_offset 14, -4
 1375 0004 DFB0     		sub	sp, sp, #380
 1376              	.LCFI15:
 1377              		.cfi_def_cfa_offset 416
 1378 0006 0446     		mov	r4, r0
 670:lvgl/src/widgets/lv_table.c ****     lv_table_t * table = (lv_table_t *)obj;
 1379              		.loc 1 670 5 is_stmt 1 view .LVU449
 670:lvgl/src/widgets/lv_table.c ****     lv_table_t * table = (lv_table_t *)obj;
 1380              		.loc 1 670 22 is_stmt 0 view .LVU450
 1381 0008 FFF7FEFF 		bl	lv_event_get_target
 1382              	.LVL141:
 670:lvgl/src/widgets/lv_table.c ****     lv_table_t * table = (lv_table_t *)obj;
 1383              		.loc 1 670 22 view .LVU451
 1384 000c 0646     		mov	r6, r0
 1385              	.LVL142:
 671:lvgl/src/widgets/lv_table.c ****     lv_draw_ctx_t * draw_ctx = lv_event_get_draw_ctx(e);
 1386              		.loc 1 671 5 is_stmt 1 view .LVU452
 672:lvgl/src/widgets/lv_table.c ****     lv_area_t clip_area;
 1387              		.loc 1 672 5 view .LVU453
 672:lvgl/src/widgets/lv_table.c ****     lv_area_t clip_area;
 1388              		.loc 1 672 32 is_stmt 0 view .LVU454
 1389 000e 2046     		mov	r0, r4
 1390              	.LVL143:
 672:lvgl/src/widgets/lv_table.c ****     lv_area_t clip_area;
 1391              		.loc 1 672 32 view .LVU455
 1392 0010 FFF7FEFF 		bl	lv_event_get_draw_ctx
 1393              	.LVL144:
 1394 0014 0446     		mov	r4, r0
 1395              	.LVL145:
 672:lvgl/src/widgets/lv_table.c ****     lv_area_t clip_area;
 1396              		.loc 1 672 32 view .LVU456
 1397 0016 0790     		str	r0, [sp, #28]
 1398              	.LVL146:
 673:lvgl/src/widgets/lv_table.c ****     if(!_lv_area_intersect(&clip_area, &obj->coords, draw_ctx->clip_area)) return;
 1399              		.loc 1 673 5 is_stmt 1 view .LVU457
 674:lvgl/src/widgets/lv_table.c **** 
 1400              		.loc 1 674 5 view .LVU458
 674:lvgl/src/widgets/lv_table.c **** 
 1401              		.loc 1 674 9 is_stmt 0 view .LVU459
 1402 0018 8268     		ldr	r2, [r0, #8]
 1403 001a 06F11401 		add	r1, r6, #20
 1404 001e 5CA8     		add	r0, sp, #368
 1405              	.LVL147:
 674:lvgl/src/widgets/lv_table.c **** 
 1406              		.loc 1 674 9 view .LVU460
 1407 0020 FFF7FEFF 		bl	_lv_area_intersect
 1408              	.LVL148:
 674:lvgl/src/widgets/lv_table.c **** 
 1409              		.loc 1 674 7 view .LVU461
 1410 0024 10B9     		cbnz	r0, .L87
 1411              	.LVL149:
 1412              	.L49:
 861:lvgl/src/widgets/lv_table.c **** 
 1413              		.loc 1 861 1 view .LVU462
 1414 0026 5FB0     		add	sp, sp, #380
 1415              	.LCFI16:
ARM GAS  /var/folders/21/t9g5rlb91ys800n5npymflf80000gn/T//ccNiYEm1.s 			page 62


 1416              		.cfi_remember_state
 1417              		.cfi_def_cfa_offset 36
 1418              		@ sp needed
 1419 0028 BDE8F08F 		pop	{r4, r5, r6, r7, r8, r9, r10, fp, pc}
 1420              	.LVL150:
 1421              	.L87:
 1422              	.LCFI17:
 1423              		.cfi_restore_state
 676:lvgl/src/widgets/lv_table.c ****     draw_ctx->clip_area = &clip_area;
 1424              		.loc 1 676 5 is_stmt 1 view .LVU463
 676:lvgl/src/widgets/lv_table.c ****     draw_ctx->clip_area = &clip_area;
 1425              		.loc 1 676 23 is_stmt 0 view .LVU464
 1426 002c 2246     		mov	r2, r4
 1427 002e A468     		ldr	r4, [r4, #8]
 1428              	.LVL151:
 677:lvgl/src/widgets/lv_table.c **** 
 1429              		.loc 1 677 5 is_stmt 1 view .LVU465
 677:lvgl/src/widgets/lv_table.c **** 
 1430              		.loc 1 677 25 is_stmt 0 view .LVU466
 1431 0030 5CAB     		add	r3, sp, #368
 1432 0032 0792     		str	r2, [sp, #28]
 1433              	.LVL152:
 677:lvgl/src/widgets/lv_table.c **** 
 1434              		.loc 1 677 25 view .LVU467
 1435 0034 9360     		str	r3, [r2, #8]
 679:lvgl/src/widgets/lv_table.c ****     lv_area_t cell_area;
 1436              		.loc 1 679 5 is_stmt 1 view .LVU468
 680:lvgl/src/widgets/lv_table.c **** 
 1437              		.loc 1 680 5 view .LVU469
 682:lvgl/src/widgets/lv_table.c ****     lv_coord_t bg_top = lv_obj_get_style_pad_top(obj, LV_PART_MAIN);
 1438              		.loc 1 682 5 view .LVU470
 1439              	.LVL153:
 1440              	.LBB166:
 1441              	.LBI166:
 253:lvgl/src/widgets/../core/lv_obj_style_gen.h **** {
 1442              		.loc 3 253 26 view .LVU471
 1443              	.LBB167:
 255:lvgl/src/widgets/../core/lv_obj_style_gen.h ****     return (lv_coord_t)v.num;
 1444              		.loc 3 255 5 view .LVU472
 255:lvgl/src/widgets/../core/lv_obj_style_gen.h ****     return (lv_coord_t)v.num;
 1445              		.loc 3 255 26 is_stmt 0 view .LVU473
 1446 0036 3222     		movs	r2, #50
 1447              	.LVL154:
 255:lvgl/src/widgets/../core/lv_obj_style_gen.h ****     return (lv_coord_t)v.num;
 1448              		.loc 3 255 26 view .LVU474
 1449 0038 0021     		movs	r1, #0
 1450 003a 3046     		mov	r0, r6
 1451 003c FFF7FEFF 		bl	lv_obj_get_style_prop
 1452              	.LVL155:
 1453 0040 0746     		mov	r7, r0
 1454              	.LVL156:
 256:lvgl/src/widgets/../core/lv_obj_style_gen.h **** }
 1455              		.loc 3 256 5 is_stmt 1 view .LVU475
 256:lvgl/src/widgets/../core/lv_obj_style_gen.h **** }
 1456              		.loc 3 256 5 is_stmt 0 view .LVU476
 1457              	.LBE167:
 1458              	.LBE166:
ARM GAS  /var/folders/21/t9g5rlb91ys800n5npymflf80000gn/T//ccNiYEm1.s 			page 63


 683:lvgl/src/widgets/lv_table.c ****     lv_coord_t bg_bottom = lv_obj_get_style_pad_bottom(obj, LV_PART_MAIN);
 1459              		.loc 1 683 5 is_stmt 1 view .LVU477
 1460              	.LBB168:
 1461              	.LBI168:
 103:lvgl/src/widgets/../core/lv_obj_style_gen.h **** {
 1462              		.loc 3 103 26 view .LVU478
 1463              	.LBB169:
 105:lvgl/src/widgets/../core/lv_obj_style_gen.h ****     return (lv_coord_t)v.num;
 1464              		.loc 3 105 5 view .LVU479
 105:lvgl/src/widgets/../core/lv_obj_style_gen.h ****     return (lv_coord_t)v.num;
 1465              		.loc 3 105 26 is_stmt 0 view .LVU480
 1466 0042 1022     		movs	r2, #16
 1467 0044 0021     		movs	r1, #0
 1468 0046 3046     		mov	r0, r6
 1469 0048 FFF7FEFF 		bl	lv_obj_get_style_prop
 1470              	.LVL157:
 1471 004c 0546     		mov	r5, r0
 1472              	.LVL158:
 106:lvgl/src/widgets/../core/lv_obj_style_gen.h **** }
 1473              		.loc 3 106 5 is_stmt 1 view .LVU481
 106:lvgl/src/widgets/../core/lv_obj_style_gen.h **** }
 1474              		.loc 3 106 12 is_stmt 0 view .LVU482
 1475 004e 03B2     		sxth	r3, r0
 1476 0050 0C93     		str	r3, [sp, #48]
 1477              	.LVL159:
 106:lvgl/src/widgets/../core/lv_obj_style_gen.h **** }
 1478              		.loc 3 106 12 view .LVU483
 1479              	.LBE169:
 1480              	.LBE168:
 684:lvgl/src/widgets/lv_table.c ****     lv_coord_t bg_left = lv_obj_get_style_pad_left(obj, LV_PART_MAIN);
 1481              		.loc 1 684 5 is_stmt 1 view .LVU484
 1482              	.LBB170:
 1483              	.LBI170:
 109:lvgl/src/widgets/../core/lv_obj_style_gen.h **** {
 1484              		.loc 3 109 26 view .LVU485
 1485              	.LBB171:
 111:lvgl/src/widgets/../core/lv_obj_style_gen.h ****     return (lv_coord_t)v.num;
 1486              		.loc 3 111 5 view .LVU486
 111:lvgl/src/widgets/../core/lv_obj_style_gen.h ****     return (lv_coord_t)v.num;
 1487              		.loc 3 111 26 is_stmt 0 view .LVU487
 1488 0052 1122     		movs	r2, #17
 1489 0054 0021     		movs	r1, #0
 1490 0056 3046     		mov	r0, r6
 111:lvgl/src/widgets/../core/lv_obj_style_gen.h ****     return (lv_coord_t)v.num;
 1491              		.loc 3 111 26 view .LVU488
 1492 0058 FFF7FEFF 		bl	lv_obj_get_style_prop
 1493              	.LVL160:
 112:lvgl/src/widgets/../core/lv_obj_style_gen.h **** }
 1494              		.loc 3 112 5 is_stmt 1 view .LVU489
 112:lvgl/src/widgets/../core/lv_obj_style_gen.h **** }
 1495              		.loc 3 112 12 is_stmt 0 view .LVU490
 1496 005c 03B2     		sxth	r3, r0
 1497 005e 0B93     		str	r3, [sp, #44]
 1498              	.LVL161:
 112:lvgl/src/widgets/../core/lv_obj_style_gen.h **** }
 1499              		.loc 3 112 12 view .LVU491
 1500              	.LBE171:
ARM GAS  /var/folders/21/t9g5rlb91ys800n5npymflf80000gn/T//ccNiYEm1.s 			page 64


 1501              	.LBE170:
 685:lvgl/src/widgets/lv_table.c ****     lv_coord_t bg_right = lv_obj_get_style_pad_right(obj, LV_PART_MAIN);
 1502              		.loc 1 685 5 is_stmt 1 view .LVU492
 1503              	.LBB172:
 1504              	.LBI172:
 115:lvgl/src/widgets/../core/lv_obj_style_gen.h **** {
 1505              		.loc 3 115 26 view .LVU493
 1506              	.LBB173:
 117:lvgl/src/widgets/../core/lv_obj_style_gen.h ****     return (lv_coord_t)v.num;
 1507              		.loc 3 117 5 view .LVU494
 117:lvgl/src/widgets/../core/lv_obj_style_gen.h ****     return (lv_coord_t)v.num;
 1508              		.loc 3 117 26 is_stmt 0 view .LVU495
 1509 0060 1222     		movs	r2, #18
 1510 0062 0021     		movs	r1, #0
 1511 0064 3046     		mov	r0, r6
 1512 0066 FFF7FEFF 		bl	lv_obj_get_style_prop
 1513              	.LVL162:
 1514 006a 8246     		mov	r10, r0
 118:lvgl/src/widgets/../core/lv_obj_style_gen.h **** }
 1515              		.loc 3 118 5 is_stmt 1 view .LVU496
 118:lvgl/src/widgets/../core/lv_obj_style_gen.h **** }
 1516              		.loc 3 118 12 is_stmt 0 view .LVU497
 1517 006c 03B2     		sxth	r3, r0
 1518 006e 0A93     		str	r3, [sp, #40]
 1519              	.LVL163:
 118:lvgl/src/widgets/../core/lv_obj_style_gen.h **** }
 1520              		.loc 3 118 12 view .LVU498
 1521              	.LBE173:
 1522              	.LBE172:
 686:lvgl/src/widgets/lv_table.c **** 
 1523              		.loc 1 686 5 is_stmt 1 view .LVU499
 1524              	.LBB174:
 1525              	.LBI174:
 121:lvgl/src/widgets/../core/lv_obj_style_gen.h **** {
 1526              		.loc 3 121 26 view .LVU500
 1527              	.LBB175:
 123:lvgl/src/widgets/../core/lv_obj_style_gen.h ****     return (lv_coord_t)v.num;
 1528              		.loc 3 123 5 view .LVU501
 123:lvgl/src/widgets/../core/lv_obj_style_gen.h ****     return (lv_coord_t)v.num;
 1529              		.loc 3 123 26 is_stmt 0 view .LVU502
 1530 0070 1322     		movs	r2, #19
 1531 0072 0021     		movs	r1, #0
 1532 0074 3046     		mov	r0, r6
 1533 0076 FFF7FEFF 		bl	lv_obj_get_style_prop
 1534              	.LVL164:
 1535 007a 1290     		str	r0, [sp, #72]
 124:lvgl/src/widgets/../core/lv_obj_style_gen.h **** }
 1536              		.loc 3 124 5 is_stmt 1 view .LVU503
 124:lvgl/src/widgets/../core/lv_obj_style_gen.h **** }
 1537              		.loc 3 124 12 is_stmt 0 view .LVU504
 1538 007c 03B2     		sxth	r3, r0
 1539 007e 0993     		str	r3, [sp, #36]
 1540              	.LVL165:
 124:lvgl/src/widgets/../core/lv_obj_style_gen.h **** }
 1541              		.loc 3 124 12 view .LVU505
 1542              	.LBE175:
 1543              	.LBE174:
ARM GAS  /var/folders/21/t9g5rlb91ys800n5npymflf80000gn/T//ccNiYEm1.s 			page 65


 688:lvgl/src/widgets/lv_table.c ****     obj->state = LV_STATE_DEFAULT;
 1544              		.loc 1 688 5 is_stmt 1 view .LVU506
 688:lvgl/src/widgets/lv_table.c ****     obj->state = LV_STATE_DEFAULT;
 1545              		.loc 1 688 16 is_stmt 0 view .LVU507
 1546 0080 338C     		ldrh	r3, [r6, #32]
 1547 0082 1093     		str	r3, [sp, #64]
 1548              	.LVL166:
 689:lvgl/src/widgets/lv_table.c ****     obj->skip_trans = 1;
 1549              		.loc 1 689 5 is_stmt 1 view .LVU508
 689:lvgl/src/widgets/lv_table.c ****     obj->skip_trans = 1;
 1550              		.loc 1 689 16 is_stmt 0 view .LVU509
 1551 0084 4FF00009 		mov	r9, #0
 1552 0088 A6F82090 		strh	r9, [r6, #32]	@ movhi
 690:lvgl/src/widgets/lv_table.c ****     lv_draw_rect_dsc_t rect_dsc_def;
 1553              		.loc 1 690 5 is_stmt 1 view .LVU510
 690:lvgl/src/widgets/lv_table.c ****     lv_draw_rect_dsc_t rect_dsc_def;
 1554              		.loc 1 690 21 is_stmt 0 view .LVU511
 1555 008c 96F82230 		ldrb	r3, [r6, #34]	@ zero_extendqisi2
 1556 0090 43F00803 		orr	r3, r3, #8
 1557 0094 86F82230 		strb	r3, [r6, #34]
 691:lvgl/src/widgets/lv_table.c ****     lv_draw_rect_dsc_t rect_dsc_act; /*Passed to the event to modify it*/
 1558              		.loc 1 691 5 is_stmt 1 view .LVU512
 692:lvgl/src/widgets/lv_table.c ****     lv_draw_rect_dsc_init(&rect_dsc_def);
 1559              		.loc 1 692 5 view .LVU513
 693:lvgl/src/widgets/lv_table.c ****     lv_obj_init_draw_rect_dsc(obj, LV_PART_ITEMS, &rect_dsc_def);
 1560              		.loc 1 693 5 view .LVU514
 1561 0098 4BA8     		add	r0, sp, #300
 1562 009a FFF7FEFF 		bl	lv_draw_rect_dsc_init
 1563              	.LVL167:
 694:lvgl/src/widgets/lv_table.c **** 
 1564              		.loc 1 694 5 view .LVU515
 1565 009e 4BA8     		add	r0, sp, #300
 1566 00a0 0246     		mov	r2, r0
 1567 00a2 4FF4A021 		mov	r1, #327680
 1568 00a6 3046     		mov	r0, r6
 1569 00a8 FFF7FEFF 		bl	lv_obj_init_draw_rect_dsc
 1570              	.LVL168:
 696:lvgl/src/widgets/lv_table.c ****     lv_draw_label_dsc_t label_dsc_act;  /*Passed to the event to modify it*/
 1571              		.loc 1 696 5 view .LVU516
 697:lvgl/src/widgets/lv_table.c ****     lv_draw_label_dsc_init(&label_dsc_def);
 1572              		.loc 1 697 5 view .LVU517
 698:lvgl/src/widgets/lv_table.c ****     lv_obj_init_draw_label_dsc(obj, LV_PART_ITEMS, &label_dsc_def);
 1573              		.loc 1 698 5 view .LVU518
 1574 00ac 35A8     		add	r0, sp, #212
 1575 00ae FFF7FEFF 		bl	lv_draw_label_dsc_init
 1576              	.LVL169:
 699:lvgl/src/widgets/lv_table.c ****     obj->state = state_ori;
 1577              		.loc 1 699 5 view .LVU519
 1578 00b2 35A8     		add	r0, sp, #212
 1579 00b4 0246     		mov	r2, r0
 1580 00b6 4FF4A021 		mov	r1, #327680
 1581 00ba 3046     		mov	r0, r6
 1582 00bc FFF7FEFF 		bl	lv_obj_init_draw_label_dsc
 1583              	.LVL170:
 700:lvgl/src/widgets/lv_table.c ****     obj->skip_trans = 0;
 1584              		.loc 1 700 5 view .LVU520
 700:lvgl/src/widgets/lv_table.c ****     obj->skip_trans = 0;
ARM GAS  /var/folders/21/t9g5rlb91ys800n5npymflf80000gn/T//ccNiYEm1.s 			page 66


 1585              		.loc 1 700 16 is_stmt 0 view .LVU521
 1586 00c0 109B     		ldr	r3, [sp, #64]
 1587 00c2 3384     		strh	r3, [r6, #32]	@ movhi
 701:lvgl/src/widgets/lv_table.c **** 
 1588              		.loc 1 701 5 is_stmt 1 view .LVU522
 701:lvgl/src/widgets/lv_table.c **** 
 1589              		.loc 1 701 21 is_stmt 0 view .LVU523
 1590 00c4 96F82230 		ldrb	r3, [r6, #34]	@ zero_extendqisi2
 1591 00c8 69F3C303 		bfi	r3, r9, #3, #1
 1592 00cc 86F82230 		strb	r3, [r6, #34]
 703:lvgl/src/widgets/lv_table.c ****     uint16_t row;
 1593              		.loc 1 703 5 is_stmt 1 view .LVU524
 704:lvgl/src/widgets/lv_table.c ****     uint16_t cell = 0;
 1594              		.loc 1 704 5 view .LVU525
 705:lvgl/src/widgets/lv_table.c **** 
 1595              		.loc 1 705 5 view .LVU526
 1596              	.LVL171:
 707:lvgl/src/widgets/lv_table.c ****     lv_coord_t scroll_x = lv_obj_get_scroll_x(obj) ;
 1597              		.loc 1 707 5 view .LVU527
 707:lvgl/src/widgets/lv_table.c ****     lv_coord_t scroll_x = lv_obj_get_scroll_x(obj) ;
 1598              		.loc 1 707 31 is_stmt 0 view .LVU528
 1599 00d0 F38A     		ldrh	r3, [r6, #22]
 1600              	.LVL172:
 707:lvgl/src/widgets/lv_table.c ****     lv_coord_t scroll_x = lv_obj_get_scroll_x(obj) ;
 1601              		.loc 1 707 35 view .LVU529
 1602 00d2 1D44     		add	r5, r5, r3
 1603              	.LVL173:
 707:lvgl/src/widgets/lv_table.c ****     lv_coord_t scroll_x = lv_obj_get_scroll_x(obj) ;
 1604              		.loc 1 707 35 view .LVU530
 1605 00d4 ADB2     		uxth	r5, r5
 707:lvgl/src/widgets/lv_table.c ****     lv_coord_t scroll_x = lv_obj_get_scroll_x(obj) ;
 1606              		.loc 1 707 50 view .LVU531
 1607 00d6 3046     		mov	r0, r6
 1608 00d8 FFF7FEFF 		bl	lv_obj_get_scroll_y
 1609              	.LVL174:
 707:lvgl/src/widgets/lv_table.c ****     lv_coord_t scroll_x = lv_obj_get_scroll_x(obj) ;
 1610              		.loc 1 707 48 view .LVU532
 1611 00dc 2B1A     		subs	r3, r5, r0
 707:lvgl/src/widgets/lv_table.c ****     lv_coord_t scroll_x = lv_obj_get_scroll_x(obj) ;
 1612              		.loc 1 707 75 view .LVU533
 1613 00de BFB2     		uxth	r7, r7
 707:lvgl/src/widgets/lv_table.c ****     lv_coord_t scroll_x = lv_obj_get_scroll_x(obj) ;
 1614              		.loc 1 707 75 view .LVU534
 1615 00e0 17FA83F3 		uxtah	r3, r7, r3
 1616 00e4 013B     		subs	r3, r3, #1
 707:lvgl/src/widgets/lv_table.c ****     lv_coord_t scroll_x = lv_obj_get_scroll_x(obj) ;
 1617              		.loc 1 707 18 view .LVU535
 1618 00e6 ADF86A31 		strh	r3, [sp, #362]	@ movhi
 708:lvgl/src/widgets/lv_table.c ****     bool rtl = lv_obj_get_style_base_dir(obj, LV_PART_MAIN) == LV_BASE_DIR_RTL;
 1619              		.loc 1 708 5 is_stmt 1 view .LVU536
 708:lvgl/src/widgets/lv_table.c ****     bool rtl = lv_obj_get_style_base_dir(obj, LV_PART_MAIN) == LV_BASE_DIR_RTL;
 1620              		.loc 1 708 27 is_stmt 0 view .LVU537
 1621 00ea 3046     		mov	r0, r6
 1622 00ec FFF7FEFF 		bl	lv_obj_get_scroll_x
 1623              	.LVL175:
 1624 00f0 0E90     		str	r0, [sp, #56]
 1625              	.LVL176:
ARM GAS  /var/folders/21/t9g5rlb91ys800n5npymflf80000gn/T//ccNiYEm1.s 			page 67


 709:lvgl/src/widgets/lv_table.c **** 
 1626              		.loc 1 709 5 is_stmt 1 view .LVU538
 1627              	.LBB176:
 1628              	.LBI176:
 565:lvgl/src/widgets/../core/lv_obj_style_gen.h **** {
 1629              		.loc 3 565 29 view .LVU539
 1630              	.LBB177:
 567:lvgl/src/widgets/../core/lv_obj_style_gen.h ****     return (lv_base_dir_t)v.num;
 1631              		.loc 3 567 5 view .LVU540
 567:lvgl/src/widgets/../core/lv_obj_style_gen.h ****     return (lv_base_dir_t)v.num;
 1632              		.loc 3 567 26 is_stmt 0 view .LVU541
 1633 00f2 1622     		movs	r2, #22
 1634 00f4 4946     		mov	r1, r9
 1635 00f6 3046     		mov	r0, r6
 1636 00f8 FFF7FEFF 		bl	lv_obj_get_style_prop
 1637              	.LVL177:
 1638              		.loc 3 568 5 is_stmt 1 view .LVU542
 1639              		.loc 3 568 12 is_stmt 0 view .LVU543
 1640 00fc 5FFA80F8 		uxtb	r8, r0
 1641              	.LVL178:
 1642              		.loc 3 568 12 view .LVU544
 1643              	.LBE177:
 1644              	.LBE176:
 712:lvgl/src/widgets/lv_table.c ****     lv_obj_draw_dsc_init(&part_draw_dsc, draw_ctx);
 1645              		.loc 1 712 5 is_stmt 1 view .LVU545
 713:lvgl/src/widgets/lv_table.c ****     part_draw_dsc.part = LV_PART_ITEMS;
 1646              		.loc 1 713 5 view .LVU546
 1647 0100 0799     		ldr	r1, [sp, #28]
 1648 0102 1BA8     		add	r0, sp, #108
 1649 0104 FFF7FEFF 		bl	lv_obj_draw_dsc_init
 1650              	.LVL179:
 714:lvgl/src/widgets/lv_table.c ****     part_draw_dsc.class_p = MY_CLASS;
 1651              		.loc 1 714 5 view .LVU547
 714:lvgl/src/widgets/lv_table.c ****     part_draw_dsc.class_p = MY_CLASS;
 1652              		.loc 1 714 24 is_stmt 0 view .LVU548
 1653 0108 4FF4A023 		mov	r3, #327680
 1654 010c 2893     		str	r3, [sp, #160]
 715:lvgl/src/widgets/lv_table.c ****     part_draw_dsc.type = LV_TABLE_DRAW_PART_CELL;
 1655              		.loc 1 715 5 is_stmt 1 view .LVU549
 715:lvgl/src/widgets/lv_table.c ****     part_draw_dsc.type = LV_TABLE_DRAW_PART_CELL;
 1656              		.loc 1 715 27 is_stmt 0 view .LVU550
 1657 010e C24B     		ldr	r3, .L95
 1658 0110 1C93     		str	r3, [sp, #112]
 716:lvgl/src/widgets/lv_table.c ****     part_draw_dsc.rect_dsc = &rect_dsc_act;
 1659              		.loc 1 716 5 is_stmt 1 view .LVU551
 716:lvgl/src/widgets/lv_table.c ****     part_draw_dsc.rect_dsc = &rect_dsc_act;
 1660              		.loc 1 716 24 is_stmt 0 view .LVU552
 1661 0112 CDF87490 		str	r9, [sp, #116]
 717:lvgl/src/widgets/lv_table.c ****     part_draw_dsc.label_dsc = &label_dsc_act;
 1662              		.loc 1 717 5 is_stmt 1 view .LVU553
 717:lvgl/src/widgets/lv_table.c ****     part_draw_dsc.label_dsc = &label_dsc_act;
 1663              		.loc 1 717 28 is_stmt 0 view .LVU554
 1664 0116 3DAB     		add	r3, sp, #244
 1665 0118 1F93     		str	r3, [sp, #124]
 718:lvgl/src/widgets/lv_table.c **** 
 1666              		.loc 1 718 5 is_stmt 1 view .LVU555
 718:lvgl/src/widgets/lv_table.c **** 
ARM GAS  /var/folders/21/t9g5rlb91ys800n5npymflf80000gn/T//ccNiYEm1.s 			page 68


 1667              		.loc 1 718 29 is_stmt 0 view .LVU556
 1668 011a 2DAB     		add	r3, sp, #180
 1669 011c 2093     		str	r3, [sp, #128]
 720:lvgl/src/widgets/lv_table.c ****         lv_coord_t h_row = table->row_h[row];
 1670              		.loc 1 720 5 is_stmt 1 view .LVU557
 1671              	.LVL180:
 705:lvgl/src/widgets/lv_table.c **** 
 1672              		.loc 1 705 14 is_stmt 0 view .LVU558
 1673 011e CB46     		mov	fp, r9
 1674 0120 0F97     		str	r7, [sp, #60]
 1675 0122 1394     		str	r4, [sp, #76]
 1676 0124 4446     		mov	r4, r8
 1677              	.LVL181:
 705:lvgl/src/widgets/lv_table.c **** 
 1678              		.loc 1 705 14 view .LVU559
 1679 0126 C846     		mov	r8, r9
 1680              	.LVL182:
 705:lvgl/src/widgets/lv_table.c **** 
 1681              		.loc 1 705 14 view .LVU560
 1682 0128 CDF844A0 		str	r10, [sp, #68]
 720:lvgl/src/widgets/lv_table.c ****         lv_coord_t h_row = table->row_h[row];
 1683              		.loc 1 720 5 view .LVU561
 1684 012c D4E1     		b	.L52
 1685              	.LVL183:
 1686              	.L94:
 1687              	.LBB178:
 728:lvgl/src/widgets/lv_table.c ****         else cell_area.x2 = obj->coords.x1 + bg_left - 1 - scroll_x + border_width;
 1688              		.loc 1 728 17 is_stmt 1 discriminator 1 view .LVU562
 728:lvgl/src/widgets/lv_table.c ****         else cell_area.x2 = obj->coords.x1 + bg_left - 1 - scroll_x + border_width;
 1689              		.loc 1 728 43 is_stmt 0 discriminator 1 view .LVU563
 1690 012e 338B     		ldrh	r3, [r6, #24]
 728:lvgl/src/widgets/lv_table.c ****         else cell_area.x2 = obj->coords.x1 + bg_left - 1 - scroll_x + border_width;
 1691              		.loc 1 728 47 discriminator 1 view .LVU564
 1692 0130 129A     		ldr	r2, [sp, #72]
 1693 0132 9B1A     		subs	r3, r3, r2
 1694 0134 9BB2     		uxth	r3, r3
 728:lvgl/src/widgets/lv_table.c ****         else cell_area.x2 = obj->coords.x1 + bg_left - 1 - scroll_x + border_width;
 1695              		.loc 1 728 62 discriminator 1 view .LVU565
 1696 0136 0E9A     		ldr	r2, [sp, #56]
 1697 0138 9B1A     		subs	r3, r3, r2
 1698 013a 9BB2     		uxth	r3, r3
 728:lvgl/src/widgets/lv_table.c ****         else cell_area.x2 = obj->coords.x1 + bg_left - 1 - scroll_x + border_width;
 1699              		.loc 1 728 73 discriminator 1 view .LVU566
 1700 013c 0F9A     		ldr	r2, [sp, #60]
 1701 013e 9B1A     		subs	r3, r3, r2
 1702 0140 013B     		subs	r3, r3, #1
 728:lvgl/src/widgets/lv_table.c ****         else cell_area.x2 = obj->coords.x1 + bg_left - 1 - scroll_x + border_width;
 1703              		.loc 1 728 30 discriminator 1 view .LVU567
 1704 0142 ADF86431 		strh	r3, [sp, #356]	@ movhi
 1705 0146 EDE1     		b	.L55
 1706              	.LVL184:
 1707              	.L84:
 1708              	.LBB179:
 732:lvgl/src/widgets/lv_table.c ****             if(table->cell_data[cell]) ctrl = table->cell_data[cell]->ctrl;
 1709              		.loc 1 732 34 view .LVU568
 1710 0148 0023     		movs	r3, #0
 1711 014a 0693     		str	r3, [sp, #24]
ARM GAS  /var/folders/21/t9g5rlb91ys800n5npymflf80000gn/T//ccNiYEm1.s 			page 69


 1712 014c 50E1     		b	.L56
 1713              	.LVL185:
 1714              	.L93:
 736:lvgl/src/widgets/lv_table.c ****                 cell_area.x1 = cell_area.x2 - table->col_w[col] + 1;
 1715              		.loc 1 736 17 is_stmt 1 view .LVU569
 736:lvgl/src/widgets/lv_table.c ****                 cell_area.x1 = cell_area.x2 - table->col_w[col] + 1;
 1716              		.loc 1 736 41 is_stmt 0 view .LVU570
 1717 014e BDF86421 		ldrh	r2, [sp, #356]
 736:lvgl/src/widgets/lv_table.c ****                 cell_area.x1 = cell_area.x2 - table->col_w[col] + 1;
 1718              		.loc 1 736 45 view .LVU571
 1719 0152 013A     		subs	r2, r2, #1
 1720 0154 93B2     		uxth	r3, r2
 736:lvgl/src/widgets/lv_table.c ****                 cell_area.x1 = cell_area.x2 - table->col_w[col] + 1;
 1721              		.loc 1 736 30 view .LVU572
 1722 0156 ADF86821 		strh	r2, [sp, #360]	@ movhi
 737:lvgl/src/widgets/lv_table.c ****             }
 1723              		.loc 1 737 17 is_stmt 1 view .LVU573
 737:lvgl/src/widgets/lv_table.c ****             }
 1724              		.loc 1 737 52 is_stmt 0 view .LVU574
 1725 015a 326B     		ldr	r2, [r6, #48]
 737:lvgl/src/widgets/lv_table.c ****             }
 1726              		.loc 1 737 59 view .LVU575
 1727 015c 32F81520 		ldrh	r2, [r2, r5, lsl #1]
 737:lvgl/src/widgets/lv_table.c ****             }
 1728              		.loc 1 737 45 view .LVU576
 1729 0160 9B1A     		subs	r3, r3, r2
 1730 0162 9BB2     		uxth	r3, r3
 737:lvgl/src/widgets/lv_table.c ****             }
 1731              		.loc 1 737 65 view .LVU577
 1732 0164 0133     		adds	r3, r3, #1
 737:lvgl/src/widgets/lv_table.c ****             }
 1733              		.loc 1 737 30 view .LVU578
 1734 0166 ADF86431 		strh	r3, [sp, #356]	@ movhi
 1735 016a 52E1     		b	.L58
 1736              	.LVL186:
 1737              	.L88:
 1738              	.LBB180:
 1739              	.LBB181:
 754:lvgl/src/widgets/lv_table.c ****                     else cell_area.x2 += offset;
 1740              		.loc 1 754 29 is_stmt 1 discriminator 1 view .LVU579
 754:lvgl/src/widgets/lv_table.c ****                     else cell_area.x2 += offset;
 1741              		.loc 1 754 38 is_stmt 0 discriminator 1 view .LVU580
 1742 016c BDF86431 		ldrh	r3, [sp, #356]
 754:lvgl/src/widgets/lv_table.c ****                     else cell_area.x2 += offset;
 1743              		.loc 1 754 42 discriminator 1 view .LVU581
 1744 0170 9B1A     		subs	r3, r3, r2
 1745 0172 ADF86431 		strh	r3, [sp, #356]	@ movhi
 1746              	.LVL187:
 1747              	.L61:
 754:lvgl/src/widgets/lv_table.c ****                     else cell_area.x2 += offset;
 1748              		.loc 1 754 42 discriminator 1 view .LVU582
 1749              	.LBE181:
 1750              	.LBE180:
 745:lvgl/src/widgets/lv_table.c ****                 lv_table_cell_t * next_cell_data = table->cell_data[cell + col_merge];
 1751              		.loc 1 745 79 is_stmt 1 discriminator 2 view .LVU583
 1752 0176 0137     		adds	r7, r7, #1
 1753              	.LVL188:
ARM GAS  /var/folders/21/t9g5rlb91ys800n5npymflf80000gn/T//ccNiYEm1.s 			page 70


 745:lvgl/src/widgets/lv_table.c ****                 lv_table_cell_t * next_cell_data = table->cell_data[cell + col_merge];
 1754              		.loc 1 745 79 is_stmt 0 discriminator 2 view .LVU584
 1755 0178 BFB2     		uxth	r7, r7
 1756              	.LVL189:
 1757              	.L62:
 745:lvgl/src/widgets/lv_table.c ****                 lv_table_cell_t * next_cell_data = table->cell_data[cell + col_merge];
 1758              		.loc 1 745 48 is_stmt 1 discriminator 1 view .LVU585
 745:lvgl/src/widgets/lv_table.c ****                 lv_table_cell_t * next_cell_data = table->cell_data[cell + col_merge];
 1759              		.loc 1 745 42 is_stmt 0 discriminator 1 view .LVU586
 1760 017a A946     		mov	r9, r5
 1761 017c 7B19     		adds	r3, r7, r5
 745:lvgl/src/widgets/lv_table.c ****                 lv_table_cell_t * next_cell_data = table->cell_data[cell + col_merge];
 1762              		.loc 1 745 65 discriminator 1 view .LVU587
 1763 017e 4A1E     		subs	r2, r1, #1
 745:lvgl/src/widgets/lv_table.c ****                 lv_table_cell_t * next_cell_data = table->cell_data[cell + col_merge];
 1764              		.loc 1 745 48 discriminator 1 view .LVU588
 1765 0180 9342     		cmp	r3, r2
 1766 0182 14DA     		bge	.L59
 1767              	.LBB183:
 746:lvgl/src/widgets/lv_table.c **** 
 1768              		.loc 1 746 17 is_stmt 1 view .LVU589
 746:lvgl/src/widgets/lv_table.c **** 
 1769              		.loc 1 746 74 is_stmt 0 view .LVU590
 1770 0184 08EB0702 		add	r2, r8, r7
 746:lvgl/src/widgets/lv_table.c **** 
 1771              		.loc 1 746 35 view .LVU591
 1772 0188 50F82220 		ldr	r2, [r0, r2, lsl #2]
 1773              	.LVL190:
 748:lvgl/src/widgets/lv_table.c **** 
 1774              		.loc 1 748 17 is_stmt 1 view .LVU592
 748:lvgl/src/widgets/lv_table.c **** 
 1775              		.loc 1 748 19 is_stmt 0 view .LVU593
 1776 018c 7AB1     		cbz	r2, .L59
 750:lvgl/src/widgets/lv_table.c ****                 if(merge_ctrl & LV_TABLE_CELL_CTRL_MERGE_RIGHT) {
 1777              		.loc 1 750 17 is_stmt 1 view .LVU594
 750:lvgl/src/widgets/lv_table.c ****                 if(merge_ctrl & LV_TABLE_CELL_CTRL_MERGE_RIGHT) {
 1778              		.loc 1 750 38 is_stmt 0 view .LVU595
 1779 018e 1278     		ldrb	r2, [r2]	@ zero_extendqisi2
 1780              	.LVL191:
 751:lvgl/src/widgets/lv_table.c ****                     lv_coord_t offset = table->col_w[col + col_merge + 1];
 1781              		.loc 1 751 17 is_stmt 1 view .LVU596
 751:lvgl/src/widgets/lv_table.c ****                     lv_coord_t offset = table->col_w[col + col_merge + 1];
 1782              		.loc 1 751 19 is_stmt 0 view .LVU597
 1783 0190 12F0010F 		tst	r2, #1
 1784 0194 0BD0     		beq	.L59
 1785              	.LBB182:
 752:lvgl/src/widgets/lv_table.c **** 
 1786              		.loc 1 752 21 is_stmt 1 view .LVU598
 752:lvgl/src/widgets/lv_table.c **** 
 1787              		.loc 1 752 46 is_stmt 0 view .LVU599
 1788 0196 326B     		ldr	r2, [r6, #48]
 752:lvgl/src/widgets/lv_table.c **** 
 1789              		.loc 1 752 53 view .LVU600
 1790 0198 0133     		adds	r3, r3, #1
 752:lvgl/src/widgets/lv_table.c **** 
 1791              		.loc 1 752 32 view .LVU601
 1792 019a 32F91320 		ldrsh	r2, [r2, r3, lsl #1]
ARM GAS  /var/folders/21/t9g5rlb91ys800n5npymflf80000gn/T//ccNiYEm1.s 			page 71


 1793              	.LVL192:
 754:lvgl/src/widgets/lv_table.c ****                     else cell_area.x2 += offset;
 1794              		.loc 1 754 21 is_stmt 1 view .LVU602
 754:lvgl/src/widgets/lv_table.c ****                     else cell_area.x2 += offset;
 1795              		.loc 1 754 23 is_stmt 0 view .LVU603
 1796 019e 012C     		cmp	r4, #1
 1797 01a0 E4D0     		beq	.L88
 755:lvgl/src/widgets/lv_table.c ****                 }
 1798              		.loc 1 755 26 is_stmt 1 view .LVU604
 755:lvgl/src/widgets/lv_table.c ****                 }
 1799              		.loc 1 755 35 is_stmt 0 view .LVU605
 1800 01a2 BDF86831 		ldrh	r3, [sp, #360]
 755:lvgl/src/widgets/lv_table.c ****                 }
 1801              		.loc 1 755 39 view .LVU606
 1802 01a6 1344     		add	r3, r3, r2
 1803 01a8 ADF86831 		strh	r3, [sp, #360]	@ movhi
 1804              	.LVL193:
 755:lvgl/src/widgets/lv_table.c ****                 }
 1805              		.loc 1 755 39 view .LVU607
 1806 01ac E3E7     		b	.L61
 1807              	.LVL194:
 1808              	.L59:
 755:lvgl/src/widgets/lv_table.c ****                 }
 1809              		.loc 1 755 39 view .LVU608
 1810              	.LBE182:
 1811              	.LBE183:
 762:lvgl/src/widgets/lv_table.c ****                 cell += col_merge + 1;
 1812              		.loc 1 762 13 is_stmt 1 view .LVU609
 762:lvgl/src/widgets/lv_table.c ****                 cell += col_merge + 1;
 1813              		.loc 1 762 25 is_stmt 0 view .LVU610
 1814 01ae BDF96A31 		ldrsh	r3, [sp, #362]
 762:lvgl/src/widgets/lv_table.c ****                 cell += col_merge + 1;
 1815              		.loc 1 762 40 view .LVU611
 1816 01b2 BDF97221 		ldrsh	r2, [sp, #370]
 762:lvgl/src/widgets/lv_table.c ****                 cell += col_merge + 1;
 1817              		.loc 1 762 15 view .LVU612
 1818 01b6 9342     		cmp	r3, r2
 1819 01b8 C0F23081 		blt	.L89
 769:lvgl/src/widgets/lv_table.c ****             lv_area_copy(&cell_area_border, &cell_area);
 1820              		.loc 1 769 13 is_stmt 1 view .LVU613
 770:lvgl/src/widgets/lv_table.c ****             if((rect_dsc_def.border_side & LV_BORDER_SIDE_LEFT) && cell_area_border.x1 > obj->coord
 1821              		.loc 1 770 13 view .LVU614
 1822              	.LVL195:
 1823              	.LBB184:
 1824              	.LBI184:
 1825              		.file 4 "lvgl/src/widgets/../core/../misc/../font/../misc/lv_area.h"
   1:lvgl/src/widgets/../core/../misc/../font/../misc/lv_area.h **** /**
   2:lvgl/src/widgets/../core/../misc/../font/../misc/lv_area.h ****  * @file lv_area.h
   3:lvgl/src/widgets/../core/../misc/../font/../misc/lv_area.h ****  *
   4:lvgl/src/widgets/../core/../misc/../font/../misc/lv_area.h ****  */
   5:lvgl/src/widgets/../core/../misc/../font/../misc/lv_area.h **** 
   6:lvgl/src/widgets/../core/../misc/../font/../misc/lv_area.h **** #ifndef LV_AREA_H
   7:lvgl/src/widgets/../core/../misc/../font/../misc/lv_area.h **** #define LV_AREA_H
   8:lvgl/src/widgets/../core/../misc/../font/../misc/lv_area.h **** 
   9:lvgl/src/widgets/../core/../misc/../font/../misc/lv_area.h **** #ifdef __cplusplus
  10:lvgl/src/widgets/../core/../misc/../font/../misc/lv_area.h **** extern "C" {
  11:lvgl/src/widgets/../core/../misc/../font/../misc/lv_area.h **** #endif
ARM GAS  /var/folders/21/t9g5rlb91ys800n5npymflf80000gn/T//ccNiYEm1.s 			page 72


  12:lvgl/src/widgets/../core/../misc/../font/../misc/lv_area.h **** 
  13:lvgl/src/widgets/../core/../misc/../font/../misc/lv_area.h **** /*********************
  14:lvgl/src/widgets/../core/../misc/../font/../misc/lv_area.h ****  *      INCLUDES
  15:lvgl/src/widgets/../core/../misc/../font/../misc/lv_area.h ****  *********************/
  16:lvgl/src/widgets/../core/../misc/../font/../misc/lv_area.h **** #include "../lv_conf_internal.h"
  17:lvgl/src/widgets/../core/../misc/../font/../misc/lv_area.h **** #include <stdbool.h>
  18:lvgl/src/widgets/../core/../misc/../font/../misc/lv_area.h **** #include <stdint.h>
  19:lvgl/src/widgets/../core/../misc/../font/../misc/lv_area.h **** 
  20:lvgl/src/widgets/../core/../misc/../font/../misc/lv_area.h **** /*********************
  21:lvgl/src/widgets/../core/../misc/../font/../misc/lv_area.h ****  *      DEFINES
  22:lvgl/src/widgets/../core/../misc/../font/../misc/lv_area.h ****  *********************/
  23:lvgl/src/widgets/../core/../misc/../font/../misc/lv_area.h **** 
  24:lvgl/src/widgets/../core/../misc/../font/../misc/lv_area.h **** #if LV_USE_LARGE_COORD
  25:lvgl/src/widgets/../core/../misc/../font/../misc/lv_area.h **** typedef int32_t lv_coord_t;
  26:lvgl/src/widgets/../core/../misc/../font/../misc/lv_area.h **** #else
  27:lvgl/src/widgets/../core/../misc/../font/../misc/lv_area.h **** typedef int16_t lv_coord_t;
  28:lvgl/src/widgets/../core/../misc/../font/../misc/lv_area.h **** #endif
  29:lvgl/src/widgets/../core/../misc/../font/../misc/lv_area.h **** 
  30:lvgl/src/widgets/../core/../misc/../font/../misc/lv_area.h **** /**********************
  31:lvgl/src/widgets/../core/../misc/../font/../misc/lv_area.h ****  *      TYPEDEFS
  32:lvgl/src/widgets/../core/../misc/../font/../misc/lv_area.h ****  **********************/
  33:lvgl/src/widgets/../core/../misc/../font/../misc/lv_area.h **** 
  34:lvgl/src/widgets/../core/../misc/../font/../misc/lv_area.h **** /**
  35:lvgl/src/widgets/../core/../misc/../font/../misc/lv_area.h ****  * Represents a point on the screen.
  36:lvgl/src/widgets/../core/../misc/../font/../misc/lv_area.h ****  */
  37:lvgl/src/widgets/../core/../misc/../font/../misc/lv_area.h **** typedef struct {
  38:lvgl/src/widgets/../core/../misc/../font/../misc/lv_area.h ****     lv_coord_t x;
  39:lvgl/src/widgets/../core/../misc/../font/../misc/lv_area.h ****     lv_coord_t y;
  40:lvgl/src/widgets/../core/../misc/../font/../misc/lv_area.h **** } lv_point_t;
  41:lvgl/src/widgets/../core/../misc/../font/../misc/lv_area.h **** 
  42:lvgl/src/widgets/../core/../misc/../font/../misc/lv_area.h **** /** Represents an area of the screen.*/
  43:lvgl/src/widgets/../core/../misc/../font/../misc/lv_area.h **** typedef struct {
  44:lvgl/src/widgets/../core/../misc/../font/../misc/lv_area.h ****     lv_coord_t x1;
  45:lvgl/src/widgets/../core/../misc/../font/../misc/lv_area.h ****     lv_coord_t y1;
  46:lvgl/src/widgets/../core/../misc/../font/../misc/lv_area.h ****     lv_coord_t x2;
  47:lvgl/src/widgets/../core/../misc/../font/../misc/lv_area.h ****     lv_coord_t y2;
  48:lvgl/src/widgets/../core/../misc/../font/../misc/lv_area.h **** } lv_area_t;
  49:lvgl/src/widgets/../core/../misc/../font/../misc/lv_area.h **** 
  50:lvgl/src/widgets/../core/../misc/../font/../misc/lv_area.h **** /** Alignments*/
  51:lvgl/src/widgets/../core/../misc/../font/../misc/lv_area.h **** enum {
  52:lvgl/src/widgets/../core/../misc/../font/../misc/lv_area.h ****     LV_ALIGN_DEFAULT = 0,
  53:lvgl/src/widgets/../core/../misc/../font/../misc/lv_area.h ****     LV_ALIGN_TOP_LEFT,
  54:lvgl/src/widgets/../core/../misc/../font/../misc/lv_area.h ****     LV_ALIGN_TOP_MID,
  55:lvgl/src/widgets/../core/../misc/../font/../misc/lv_area.h ****     LV_ALIGN_TOP_RIGHT,
  56:lvgl/src/widgets/../core/../misc/../font/../misc/lv_area.h ****     LV_ALIGN_BOTTOM_LEFT,
  57:lvgl/src/widgets/../core/../misc/../font/../misc/lv_area.h ****     LV_ALIGN_BOTTOM_MID,
  58:lvgl/src/widgets/../core/../misc/../font/../misc/lv_area.h ****     LV_ALIGN_BOTTOM_RIGHT,
  59:lvgl/src/widgets/../core/../misc/../font/../misc/lv_area.h ****     LV_ALIGN_LEFT_MID,
  60:lvgl/src/widgets/../core/../misc/../font/../misc/lv_area.h ****     LV_ALIGN_RIGHT_MID,
  61:lvgl/src/widgets/../core/../misc/../font/../misc/lv_area.h ****     LV_ALIGN_CENTER,
  62:lvgl/src/widgets/../core/../misc/../font/../misc/lv_area.h **** 
  63:lvgl/src/widgets/../core/../misc/../font/../misc/lv_area.h ****     LV_ALIGN_OUT_TOP_LEFT,
  64:lvgl/src/widgets/../core/../misc/../font/../misc/lv_area.h ****     LV_ALIGN_OUT_TOP_MID,
  65:lvgl/src/widgets/../core/../misc/../font/../misc/lv_area.h ****     LV_ALIGN_OUT_TOP_RIGHT,
  66:lvgl/src/widgets/../core/../misc/../font/../misc/lv_area.h ****     LV_ALIGN_OUT_BOTTOM_LEFT,
  67:lvgl/src/widgets/../core/../misc/../font/../misc/lv_area.h ****     LV_ALIGN_OUT_BOTTOM_MID,
  68:lvgl/src/widgets/../core/../misc/../font/../misc/lv_area.h ****     LV_ALIGN_OUT_BOTTOM_RIGHT,
ARM GAS  /var/folders/21/t9g5rlb91ys800n5npymflf80000gn/T//ccNiYEm1.s 			page 73


  69:lvgl/src/widgets/../core/../misc/../font/../misc/lv_area.h ****     LV_ALIGN_OUT_LEFT_TOP,
  70:lvgl/src/widgets/../core/../misc/../font/../misc/lv_area.h ****     LV_ALIGN_OUT_LEFT_MID,
  71:lvgl/src/widgets/../core/../misc/../font/../misc/lv_area.h ****     LV_ALIGN_OUT_LEFT_BOTTOM,
  72:lvgl/src/widgets/../core/../misc/../font/../misc/lv_area.h ****     LV_ALIGN_OUT_RIGHT_TOP,
  73:lvgl/src/widgets/../core/../misc/../font/../misc/lv_area.h ****     LV_ALIGN_OUT_RIGHT_MID,
  74:lvgl/src/widgets/../core/../misc/../font/../misc/lv_area.h ****     LV_ALIGN_OUT_RIGHT_BOTTOM,
  75:lvgl/src/widgets/../core/../misc/../font/../misc/lv_area.h **** };
  76:lvgl/src/widgets/../core/../misc/../font/../misc/lv_area.h **** typedef uint8_t lv_align_t;
  77:lvgl/src/widgets/../core/../misc/../font/../misc/lv_area.h **** 
  78:lvgl/src/widgets/../core/../misc/../font/../misc/lv_area.h **** enum {
  79:lvgl/src/widgets/../core/../misc/../font/../misc/lv_area.h ****     LV_DIR_NONE     = 0x00,
  80:lvgl/src/widgets/../core/../misc/../font/../misc/lv_area.h ****     LV_DIR_LEFT     = (1 << 0),
  81:lvgl/src/widgets/../core/../misc/../font/../misc/lv_area.h ****     LV_DIR_RIGHT    = (1 << 1),
  82:lvgl/src/widgets/../core/../misc/../font/../misc/lv_area.h ****     LV_DIR_TOP      = (1 << 2),
  83:lvgl/src/widgets/../core/../misc/../font/../misc/lv_area.h ****     LV_DIR_BOTTOM   = (1 << 3),
  84:lvgl/src/widgets/../core/../misc/../font/../misc/lv_area.h ****     LV_DIR_HOR      = LV_DIR_LEFT | LV_DIR_RIGHT,
  85:lvgl/src/widgets/../core/../misc/../font/../misc/lv_area.h ****     LV_DIR_VER      = LV_DIR_TOP | LV_DIR_BOTTOM,
  86:lvgl/src/widgets/../core/../misc/../font/../misc/lv_area.h ****     LV_DIR_ALL      = LV_DIR_HOR | LV_DIR_VER,
  87:lvgl/src/widgets/../core/../misc/../font/../misc/lv_area.h **** };
  88:lvgl/src/widgets/../core/../misc/../font/../misc/lv_area.h **** 
  89:lvgl/src/widgets/../core/../misc/../font/../misc/lv_area.h **** typedef uint8_t lv_dir_t;
  90:lvgl/src/widgets/../core/../misc/../font/../misc/lv_area.h **** 
  91:lvgl/src/widgets/../core/../misc/../font/../misc/lv_area.h **** /**********************
  92:lvgl/src/widgets/../core/../misc/../font/../misc/lv_area.h ****  * GLOBAL PROTOTYPES
  93:lvgl/src/widgets/../core/../misc/../font/../misc/lv_area.h ****  **********************/
  94:lvgl/src/widgets/../core/../misc/../font/../misc/lv_area.h **** 
  95:lvgl/src/widgets/../core/../misc/../font/../misc/lv_area.h **** /**
  96:lvgl/src/widgets/../core/../misc/../font/../misc/lv_area.h ****  * Initialize an area
  97:lvgl/src/widgets/../core/../misc/../font/../misc/lv_area.h ****  * @param area_p pointer to an area
  98:lvgl/src/widgets/../core/../misc/../font/../misc/lv_area.h ****  * @param x1 left coordinate of the area
  99:lvgl/src/widgets/../core/../misc/../font/../misc/lv_area.h ****  * @param y1 top coordinate of the area
 100:lvgl/src/widgets/../core/../misc/../font/../misc/lv_area.h ****  * @param x2 right coordinate of the area
 101:lvgl/src/widgets/../core/../misc/../font/../misc/lv_area.h ****  * @param y2 bottom coordinate of the area
 102:lvgl/src/widgets/../core/../misc/../font/../misc/lv_area.h ****  */
 103:lvgl/src/widgets/../core/../misc/../font/../misc/lv_area.h **** void lv_area_set(lv_area_t * area_p, lv_coord_t x1, lv_coord_t y1, lv_coord_t x2, lv_coord_t y2);
 104:lvgl/src/widgets/../core/../misc/../font/../misc/lv_area.h **** 
 105:lvgl/src/widgets/../core/../misc/../font/../misc/lv_area.h **** /**
 106:lvgl/src/widgets/../core/../misc/../font/../misc/lv_area.h ****  * Copy an area
 107:lvgl/src/widgets/../core/../misc/../font/../misc/lv_area.h ****  * @param dest pointer to the destination area
 108:lvgl/src/widgets/../core/../misc/../font/../misc/lv_area.h ****  * @param src pointer to the source area
 109:lvgl/src/widgets/../core/../misc/../font/../misc/lv_area.h ****  */
 110:lvgl/src/widgets/../core/../misc/../font/../misc/lv_area.h **** inline static void lv_area_copy(lv_area_t * dest, const lv_area_t * src)
 1826              		.loc 4 110 20 view .LVU615
 1827              	.LBB185:
 111:lvgl/src/widgets/../core/../misc/../font/../misc/lv_area.h **** {
 112:lvgl/src/widgets/../core/../misc/../font/../misc/lv_area.h ****     dest->x1 = src->x1;
 1828              		.loc 4 112 5 view .LVU616
 1829              		.loc 4 112 19 is_stmt 0 view .LVU617
 1830 01bc BDF964C1 		ldrsh	ip, [sp, #356]
 1831              		.loc 4 112 14 view .LVU618
 1832 01c0 ADF854C0 		strh	ip, [sp, #84]	@ movhi
 113:lvgl/src/widgets/../core/../misc/../font/../misc/lv_area.h ****     dest->y1 = src->y1;
 1833              		.loc 4 113 5 is_stmt 1 view .LVU619
 1834              		.loc 4 113 19 is_stmt 0 view .LVU620
 1835 01c4 BDF96611 		ldrsh	r1, [sp, #358]
 1836              		.loc 4 113 14 view .LVU621
 1837 01c8 ADF85610 		strh	r1, [sp, #86]	@ movhi
ARM GAS  /var/folders/21/t9g5rlb91ys800n5npymflf80000gn/T//ccNiYEm1.s 			page 74


 114:lvgl/src/widgets/../core/../misc/../font/../misc/lv_area.h ****     dest->x2 = src->x2;
 1838              		.loc 4 114 5 is_stmt 1 view .LVU622
 1839              		.loc 4 114 19 is_stmt 0 view .LVU623
 1840 01cc BDF968A1 		ldrsh	r10, [sp, #360]
 1841              		.loc 4 114 14 view .LVU624
 1842 01d0 ADF858A0 		strh	r10, [sp, #88]	@ movhi
 115:lvgl/src/widgets/../core/../misc/../font/../misc/lv_area.h ****     dest->y2 = src->y2;
 1843              		.loc 4 115 5 is_stmt 1 view .LVU625
 1844              		.loc 4 115 14 is_stmt 0 view .LVU626
 1845 01d4 ADF85A30 		strh	r3, [sp, #90]	@ movhi
 1846              	.LVL196:
 1847              		.loc 4 115 14 view .LVU627
 1848              	.LBE185:
 1849              	.LBE184:
 771:lvgl/src/widgets/lv_table.c ****                 cell_area_border.x1 -= rect_dsc_def.border_width / 2;
 1850              		.loc 1 771 13 is_stmt 1 view .LVU628
 771:lvgl/src/widgets/lv_table.c ****                 cell_area_border.x1 -= rect_dsc_def.border_width / 2;
 1851              		.loc 1 771 29 is_stmt 0 view .LVU629
 1852 01d8 9DF84FE1 		ldrb	lr, [sp, #335]	@ zero_extendqisi2
 1853 01dc CEF34402 		ubfx	r2, lr, #1, #5
 771:lvgl/src/widgets/lv_table.c ****                 cell_area_border.x1 -= rect_dsc_def.border_width / 2;
 1854              		.loc 1 771 15 view .LVU630
 1855 01e0 1EF0080F 		tst	lr, #8
 1856 01e4 0FD0     		beq	.L66
 771:lvgl/src/widgets/lv_table.c ****                 cell_area_border.x1 -= rect_dsc_def.border_width / 2;
 1857              		.loc 1 771 101 discriminator 1 view .LVU631
 1858 01e6 B6F914E0 		ldrsh	lr, [r6, #20]
 771:lvgl/src/widgets/lv_table.c ****                 cell_area_border.x1 -= rect_dsc_def.border_width / 2;
 1859              		.loc 1 771 105 discriminator 1 view .LVU632
 1860 01ea 0A98     		ldr	r0, [sp, #40]
 1861 01ec 8644     		add	lr, lr, r0
 771:lvgl/src/widgets/lv_table.c ****                 cell_area_border.x1 -= rect_dsc_def.border_width / 2;
 1862              		.loc 1 771 65 discriminator 1 view .LVU633
 1863 01ee F445     		cmp	ip, lr
 1864 01f0 09DD     		ble	.L66
 772:lvgl/src/widgets/lv_table.c ****             }
 1865              		.loc 1 772 17 is_stmt 1 view .LVU634
 772:lvgl/src/widgets/lv_table.c ****             }
 1866              		.loc 1 772 33 is_stmt 0 view .LVU635
 1867 01f2 1FFA8CFC 		uxth	ip, ip
 772:lvgl/src/widgets/lv_table.c ****             }
 1868              		.loc 1 772 52 view .LVU636
 1869 01f6 BDF94CE1 		ldrsh	lr, [sp, #332]
 772:lvgl/src/widgets/lv_table.c ****             }
 1870              		.loc 1 772 37 view .LVU637
 1871 01fa 0EEBDE7E 		add	lr, lr, lr, lsr #31
 1872 01fe ACEB6E0C 		sub	ip, ip, lr, asr #1
 1873 0202 ADF854C0 		strh	ip, [sp, #84]	@ movhi
 1874              	.L66:
 774:lvgl/src/widgets/lv_table.c ****                 cell_area_border.y1 -= rect_dsc_def.border_width / 2;
 1875              		.loc 1 774 13 is_stmt 1 view .LVU638
 774:lvgl/src/widgets/lv_table.c ****                 cell_area_border.y1 -= rect_dsc_def.border_width / 2;
 1876              		.loc 1 774 15 is_stmt 0 view .LVU639
 1877 0206 12F0020F 		tst	r2, #2
 1878 020a 0ED0     		beq	.L67
 774:lvgl/src/widgets/lv_table.c ****                 cell_area_border.y1 -= rect_dsc_def.border_width / 2;
 1879              		.loc 1 774 100 discriminator 1 view .LVU640
ARM GAS  /var/folders/21/t9g5rlb91ys800n5npymflf80000gn/T//ccNiYEm1.s 			page 75


 1880 020c B6F916C0 		ldrsh	ip, [r6, #22]
 774:lvgl/src/widgets/lv_table.c ****                 cell_area_border.y1 -= rect_dsc_def.border_width / 2;
 1881              		.loc 1 774 104 discriminator 1 view .LVU641
 1882 0210 0C98     		ldr	r0, [sp, #48]
 1883 0212 8444     		add	ip, ip, r0
 774:lvgl/src/widgets/lv_table.c ****                 cell_area_border.y1 -= rect_dsc_def.border_width / 2;
 1884              		.loc 1 774 64 discriminator 1 view .LVU642
 1885 0214 6145     		cmp	r1, ip
 1886 0216 08DD     		ble	.L67
 775:lvgl/src/widgets/lv_table.c ****             }
 1887              		.loc 1 775 17 is_stmt 1 view .LVU643
 775:lvgl/src/widgets/lv_table.c ****             }
 1888              		.loc 1 775 33 is_stmt 0 view .LVU644
 1889 0218 89B2     		uxth	r1, r1
 775:lvgl/src/widgets/lv_table.c ****             }
 1890              		.loc 1 775 52 view .LVU645
 1891 021a BDF94CC1 		ldrsh	ip, [sp, #332]
 775:lvgl/src/widgets/lv_table.c ****             }
 1892              		.loc 1 775 37 view .LVU646
 1893 021e 0CEBDC7C 		add	ip, ip, ip, lsr #31
 1894 0222 A1EB6C01 		sub	r1, r1, ip, asr #1
 1895 0226 ADF85610 		strh	r1, [sp, #86]	@ movhi
 1896              	.L67:
 777:lvgl/src/widgets/lv_table.c ****                 cell_area_border.x2 += rect_dsc_def.border_width / 2 + (rect_dsc_def.border_width &
 1897              		.loc 1 777 13 is_stmt 1 view .LVU647
 777:lvgl/src/widgets/lv_table.c ****                 cell_area_border.x2 += rect_dsc_def.border_width / 2 + (rect_dsc_def.border_width &
 1898              		.loc 1 777 15 is_stmt 0 view .LVU648
 1899 022a 12F0080F 		tst	r2, #8
 1900 022e 13D0     		beq	.L68
 777:lvgl/src/widgets/lv_table.c ****                 cell_area_border.x2 += rect_dsc_def.border_width / 2 + (rect_dsc_def.border_width &
 1901              		.loc 1 777 102 discriminator 1 view .LVU649
 1902 0230 B6F91810 		ldrsh	r1, [r6, #24]
 777:lvgl/src/widgets/lv_table.c ****                 cell_area_border.x2 += rect_dsc_def.border_width / 2 + (rect_dsc_def.border_width &
 1903              		.loc 1 777 106 discriminator 1 view .LVU650
 1904 0234 0998     		ldr	r0, [sp, #36]
 1905 0236 091A     		subs	r1, r1, r0
 777:lvgl/src/widgets/lv_table.c ****                 cell_area_border.x2 += rect_dsc_def.border_width / 2 + (rect_dsc_def.border_width &
 1906              		.loc 1 777 117 discriminator 1 view .LVU651
 1907 0238 0139     		subs	r1, r1, #1
 777:lvgl/src/widgets/lv_table.c ****                 cell_area_border.x2 += rect_dsc_def.border_width / 2 + (rect_dsc_def.border_width &
 1908              		.loc 1 777 66 discriminator 1 view .LVU652
 1909 023a 8A45     		cmp	r10, r1
 1910 023c 0CDA     		bge	.L68
 778:lvgl/src/widgets/lv_table.c ****             }
 1911              		.loc 1 778 17 is_stmt 1 view .LVU653
 778:lvgl/src/widgets/lv_table.c ****             }
 1912              		.loc 1 778 52 is_stmt 0 view .LVU654
 1913 023e BDF94CC1 		ldrsh	ip, [sp, #332]
 778:lvgl/src/widgets/lv_table.c ****             }
 1914              		.loc 1 778 99 view .LVU655
 1915 0242 0CF00101 		and	r1, ip, #1
 778:lvgl/src/widgets/lv_table.c ****             }
 1916              		.loc 1 778 70 view .LVU656
 1917 0246 0CEBDC7C 		add	ip, ip, ip, lsr #31
 1918 024a 01EB6C01 		add	r1, r1, ip, asr #1
 1919 024e 89B2     		uxth	r1, r1
 778:lvgl/src/widgets/lv_table.c ****             }
ARM GAS  /var/folders/21/t9g5rlb91ys800n5npymflf80000gn/T//ccNiYEm1.s 			page 76


 1920              		.loc 1 778 37 view .LVU657
 1921 0250 11FA8AF0 		uxtah	r0, r1, r10
 1922 0254 ADF85800 		strh	r0, [sp, #88]	@ movhi
 1923              	.L68:
 780:lvgl/src/widgets/lv_table.c ****                cell_area_border.y2 < obj->coords.y2 - bg_bottom - 1) {
 1924              		.loc 1 780 13 is_stmt 1 view .LVU658
 780:lvgl/src/widgets/lv_table.c ****                cell_area_border.y2 < obj->coords.y2 - bg_bottom - 1) {
 1925              		.loc 1 780 15 is_stmt 0 view .LVU659
 1926 0258 12F0010F 		tst	r2, #1
 1927 025c 13D0     		beq	.L69
 781:lvgl/src/widgets/lv_table.c ****                 cell_area_border.y2 += rect_dsc_def.border_width / 2 + (rect_dsc_def.border_width &
 1928              		.loc 1 781 49 discriminator 1 view .LVU660
 1929 025e B6F91A20 		ldrsh	r2, [r6, #26]
 781:lvgl/src/widgets/lv_table.c ****                 cell_area_border.y2 += rect_dsc_def.border_width / 2 + (rect_dsc_def.border_width &
 1930              		.loc 1 781 53 discriminator 1 view .LVU661
 1931 0262 0B99     		ldr	r1, [sp, #44]
 1932 0264 521A     		subs	r2, r2, r1
 781:lvgl/src/widgets/lv_table.c ****                 cell_area_border.y2 += rect_dsc_def.border_width / 2 + (rect_dsc_def.border_width &
 1933              		.loc 1 781 65 discriminator 1 view .LVU662
 1934 0266 013A     		subs	r2, r2, #1
 780:lvgl/src/widgets/lv_table.c ****                cell_area_border.y2 < obj->coords.y2 - bg_bottom - 1) {
 1935              		.loc 1 780 67 discriminator 1 view .LVU663
 1936 0268 9342     		cmp	r3, r2
 1937 026a 0CDA     		bge	.L69
 782:lvgl/src/widgets/lv_table.c ****             }
 1938              		.loc 1 782 17 is_stmt 1 view .LVU664
 782:lvgl/src/widgets/lv_table.c ****             }
 1939              		.loc 1 782 52 is_stmt 0 view .LVU665
 1940 026c BDF94C11 		ldrsh	r1, [sp, #332]
 782:lvgl/src/widgets/lv_table.c ****             }
 1941              		.loc 1 782 99 view .LVU666
 1942 0270 01F00102 		and	r2, r1, #1
 782:lvgl/src/widgets/lv_table.c ****             }
 1943              		.loc 1 782 70 view .LVU667
 1944 0274 01EBD171 		add	r1, r1, r1, lsr #31
 1945 0278 02EB6102 		add	r2, r2, r1, asr #1
 1946 027c 92B2     		uxth	r2, r2
 782:lvgl/src/widgets/lv_table.c ****             }
 1947              		.loc 1 782 37 view .LVU668
 1948 027e 12FA83F3 		uxtah	r3, r2, r3
 1949 0282 ADF85A30 		strh	r3, [sp, #90]	@ movhi
 1950              	.L69:
 785:lvgl/src/widgets/lv_table.c ****             if(row == table->row_act && col == table->col_act) {
 1951              		.loc 1 785 13 is_stmt 1 view .LVU669
 1952              	.LVL197:
 786:lvgl/src/widgets/lv_table.c ****                 if(!(obj->state & LV_STATE_SCROLLED) && (obj->state & LV_STATE_PRESSED)) cell_state
 1953              		.loc 1 786 13 view .LVU670
 786:lvgl/src/widgets/lv_table.c ****                 if(!(obj->state & LV_STATE_SCROLLED) && (obj->state & LV_STATE_PRESSED)) cell_state
 1954              		.loc 1 786 28 is_stmt 0 view .LVU671
 1955 0286 F38E     		ldrh	r3, [r6, #54]
 786:lvgl/src/widgets/lv_table.c ****                 if(!(obj->state & LV_STATE_SCROLLED) && (obj->state & LV_STATE_PRESSED)) cell_state
 1956              		.loc 1 786 15 view .LVU672
 1957 0288 059A     		ldr	r2, [sp, #20]
 1958 028a 9342     		cmp	r3, r2
 1959 028c 03D1     		bne	.L70
 786:lvgl/src/widgets/lv_table.c ****                 if(!(obj->state & LV_STATE_SCROLLED) && (obj->state & LV_STATE_PRESSED)) cell_state
 1960              		.loc 1 786 53 discriminator 1 view .LVU673
ARM GAS  /var/folders/21/t9g5rlb91ys800n5npymflf80000gn/T//ccNiYEm1.s 			page 77


 1961 028e B38E     		ldrh	r3, [r6, #52]
 786:lvgl/src/widgets/lv_table.c ****                 if(!(obj->state & LV_STATE_SCROLLED) && (obj->state & LV_STATE_PRESSED)) cell_state
 1962              		.loc 1 786 38 discriminator 1 view .LVU674
 1963 0290 AB42     		cmp	r3, r5
 1964 0292 00F0CD80 		beq	.L90
 1965              	.LVL198:
 1966              	.L70:
 795:lvgl/src/widgets/lv_table.c ****                 lv_memcpy(&label_dsc_act, &label_dsc_def, sizeof(lv_draw_label_dsc_t));
 1967              		.loc 1 795 17 is_stmt 1 view .LVU675
 1968 0296 3822     		movs	r2, #56
 1969 0298 4BA9     		add	r1, sp, #300
 1970 029a 3DA8     		add	r0, sp, #244
 1971 029c FFF7FEFF 		bl	lv_memcpy
 1972              	.LVL199:
 796:lvgl/src/widgets/lv_table.c ****             }
 1973              		.loc 1 796 17 view .LVU676
 1974 02a0 2022     		movs	r2, #32
 1975 02a2 35A9     		add	r1, sp, #212
 1976 02a4 2DA8     		add	r0, sp, #180
 1977 02a6 FFF7FEFF 		bl	lv_memcpy
 1978              	.LVL200:
 1979              	.L76:
 810:lvgl/src/widgets/lv_table.c ****             part_draw_dsc.id = row * table->col_cnt + col;
 1980              		.loc 1 810 13 view .LVU677
 810:lvgl/src/widgets/lv_table.c ****             part_draw_dsc.id = row * table->col_cnt + col;
 1981              		.loc 1 810 37 is_stmt 0 view .LVU678
 1982 02aa 0DF1540A 		add	r10, sp, #84
 1983 02ae CDF878A0 		str	r10, [sp, #120]
 811:lvgl/src/widgets/lv_table.c ****             lv_event_send(obj, LV_EVENT_DRAW_PART_BEGIN, &part_draw_dsc);
 1984              		.loc 1 811 13 is_stmt 1 view .LVU679
 811:lvgl/src/widgets/lv_table.c ****             lv_event_send(obj, LV_EVENT_DRAW_PART_BEGIN, &part_draw_dsc);
 1985              		.loc 1 811 43 is_stmt 0 view .LVU680
 1986 02b2 B38C     		ldrh	r3, [r6, #36]
 811:lvgl/src/widgets/lv_table.c ****             lv_event_send(obj, LV_EVENT_DRAW_PART_BEGIN, &part_draw_dsc);
 1987              		.loc 1 811 53 view .LVU681
 1988 02b4 059A     		ldr	r2, [sp, #20]
 1989 02b6 03FB0293 		mla	r3, r3, r2, r9
 811:lvgl/src/widgets/lv_table.c ****             lv_event_send(obj, LV_EVENT_DRAW_PART_BEGIN, &part_draw_dsc);
 1990              		.loc 1 811 30 view .LVU682
 1991 02ba 2993     		str	r3, [sp, #164]
 812:lvgl/src/widgets/lv_table.c **** 
 1992              		.loc 1 812 13 is_stmt 1 view .LVU683
 1993 02bc 1BAA     		add	r2, sp, #108
 1994 02be 1A21     		movs	r1, #26
 1995 02c0 3046     		mov	r0, r6
 1996 02c2 FFF7FEFF 		bl	lv_event_send
 1997              	.LVL201:
 814:lvgl/src/widgets/lv_table.c **** 
 1998              		.loc 1 814 13 view .LVU684
 1999 02c6 5246     		mov	r2, r10
 2000 02c8 3DA9     		add	r1, sp, #244
 2001 02ca 0798     		ldr	r0, [sp, #28]
 2002 02cc FFF7FEFF 		bl	lv_draw_rect
 2003              	.LVL202:
 816:lvgl/src/widgets/lv_table.c ****                 const lv_coord_t cell_left = lv_obj_get_style_pad_left(obj, LV_PART_ITEMS);
 2004              		.loc 1 816 13 view .LVU685
 816:lvgl/src/widgets/lv_table.c ****                 const lv_coord_t cell_left = lv_obj_get_style_pad_left(obj, LV_PART_ITEMS);
ARM GAS  /var/folders/21/t9g5rlb91ys800n5npymflf80000gn/T//ccNiYEm1.s 			page 78


 2005              		.loc 1 816 21 is_stmt 0 view .LVU686
 2006 02d0 B36A     		ldr	r3, [r6, #40]
 816:lvgl/src/widgets/lv_table.c ****                 const lv_coord_t cell_left = lv_obj_get_style_pad_left(obj, LV_PART_ITEMS);
 2007              		.loc 1 816 32 view .LVU687
 2008 02d2 53F80B30 		ldr	r3, [r3, fp]
 816:lvgl/src/widgets/lv_table.c ****                 const lv_coord_t cell_left = lv_obj_get_style_pad_left(obj, LV_PART_ITEMS);
 2009              		.loc 1 816 15 view .LVU688
 2010 02d6 002B     		cmp	r3, #0
 2011 02d8 6DD0     		beq	.L77
 2012              	.LBB186:
 817:lvgl/src/widgets/lv_table.c ****                 const lv_coord_t cell_right = lv_obj_get_style_pad_right(obj, LV_PART_ITEMS);
 2013              		.loc 1 817 17 is_stmt 1 view .LVU689
 2014              	.LVL203:
 2015              	.LBB187:
 2016              	.LBI187:
 115:lvgl/src/widgets/../core/lv_obj_style_gen.h **** {
 2017              		.loc 3 115 26 view .LVU690
 2018              	.LBB188:
 117:lvgl/src/widgets/../core/lv_obj_style_gen.h ****     return (lv_coord_t)v.num;
 2019              		.loc 3 117 5 view .LVU691
 117:lvgl/src/widgets/../core/lv_obj_style_gen.h ****     return (lv_coord_t)v.num;
 2020              		.loc 3 117 26 is_stmt 0 view .LVU692
 2021 02da 1222     		movs	r2, #18
 2022 02dc 4FF4A021 		mov	r1, #327680
 2023 02e0 3046     		mov	r0, r6
 2024 02e2 FFF7FEFF 		bl	lv_obj_get_style_prop
 2025              	.LVL204:
 2026 02e6 0890     		str	r0, [sp, #32]
 118:lvgl/src/widgets/../core/lv_obj_style_gen.h **** }
 2027              		.loc 3 118 5 is_stmt 1 view .LVU693
 2028              	.LVL205:
 118:lvgl/src/widgets/../core/lv_obj_style_gen.h **** }
 2029              		.loc 3 118 5 is_stmt 0 view .LVU694
 2030              	.LBE188:
 2031              	.LBE187:
 818:lvgl/src/widgets/lv_table.c ****                 const lv_coord_t cell_top = lv_obj_get_style_pad_top(obj, LV_PART_ITEMS);
 2032              		.loc 1 818 17 is_stmt 1 view .LVU695
 2033              	.LBB189:
 2034              	.LBI189:
 121:lvgl/src/widgets/../core/lv_obj_style_gen.h **** {
 2035              		.loc 3 121 26 view .LVU696
 2036              	.LBB190:
 123:lvgl/src/widgets/../core/lv_obj_style_gen.h ****     return (lv_coord_t)v.num;
 2037              		.loc 3 123 5 view .LVU697
 123:lvgl/src/widgets/../core/lv_obj_style_gen.h ****     return (lv_coord_t)v.num;
 2038              		.loc 3 123 26 is_stmt 0 view .LVU698
 2039 02e8 1322     		movs	r2, #19
 2040 02ea 4FF4A021 		mov	r1, #327680
 2041 02ee 3046     		mov	r0, r6
 2042 02f0 FFF7FEFF 		bl	lv_obj_get_style_prop
 2043              	.LVL206:
 2044 02f4 8246     		mov	r10, r0
 124:lvgl/src/widgets/../core/lv_obj_style_gen.h **** }
 2045              		.loc 3 124 5 is_stmt 1 view .LVU699
 2046              	.LVL207:
 124:lvgl/src/widgets/../core/lv_obj_style_gen.h **** }
 2047              		.loc 3 124 5 is_stmt 0 view .LVU700
ARM GAS  /var/folders/21/t9g5rlb91ys800n5npymflf80000gn/T//ccNiYEm1.s 			page 79


 2048              	.LBE190:
 2049              	.LBE189:
 819:lvgl/src/widgets/lv_table.c ****                 const lv_coord_t cell_bottom = lv_obj_get_style_pad_bottom(obj, LV_PART_ITEMS);
 2050              		.loc 1 819 17 is_stmt 1 view .LVU701
 2051              	.LBB191:
 2052              	.LBI191:
 103:lvgl/src/widgets/../core/lv_obj_style_gen.h **** {
 2053              		.loc 3 103 26 view .LVU702
 2054              	.LBB192:
 105:lvgl/src/widgets/../core/lv_obj_style_gen.h ****     return (lv_coord_t)v.num;
 2055              		.loc 3 105 5 view .LVU703
 105:lvgl/src/widgets/../core/lv_obj_style_gen.h ****     return (lv_coord_t)v.num;
 2056              		.loc 3 105 26 is_stmt 0 view .LVU704
 2057 02f6 1022     		movs	r2, #16
 2058 02f8 4FF4A021 		mov	r1, #327680
 2059 02fc 3046     		mov	r0, r6
 2060 02fe FFF7FEFF 		bl	lv_obj_get_style_prop
 2061              	.LVL208:
 2062 0302 8146     		mov	r9, r0
 2063              	.LVL209:
 106:lvgl/src/widgets/../core/lv_obj_style_gen.h **** }
 2064              		.loc 3 106 5 is_stmt 1 view .LVU705
 106:lvgl/src/widgets/../core/lv_obj_style_gen.h **** }
 2065              		.loc 3 106 5 is_stmt 0 view .LVU706
 2066              	.LBE192:
 2067              	.LBE191:
 820:lvgl/src/widgets/lv_table.c ****                 lv_text_flag_t txt_flags = LV_TEXT_FLAG_NONE;
 2068              		.loc 1 820 17 is_stmt 1 view .LVU707
 2069              	.LBB193:
 2070              	.LBI193:
 109:lvgl/src/widgets/../core/lv_obj_style_gen.h **** {
 2071              		.loc 3 109 26 view .LVU708
 2072              	.LBB194:
 111:lvgl/src/widgets/../core/lv_obj_style_gen.h ****     return (lv_coord_t)v.num;
 2073              		.loc 3 111 5 view .LVU709
 111:lvgl/src/widgets/../core/lv_obj_style_gen.h ****     return (lv_coord_t)v.num;
 2074              		.loc 3 111 26 is_stmt 0 view .LVU710
 2075 0304 1122     		movs	r2, #17
 2076 0306 4FF4A021 		mov	r1, #327680
 2077 030a 3046     		mov	r0, r6
 2078 030c FFF7FEFF 		bl	lv_obj_get_style_prop
 2079              	.LVL210:
 112:lvgl/src/widgets/../core/lv_obj_style_gen.h **** }
 2080              		.loc 3 112 5 is_stmt 1 view .LVU711
 112:lvgl/src/widgets/../core/lv_obj_style_gen.h **** }
 2081              		.loc 3 112 5 is_stmt 0 view .LVU712
 2082              	.LBE194:
 2083              	.LBE193:
 821:lvgl/src/widgets/lv_table.c ****                 lv_area_t txt_area;
 2084              		.loc 1 821 17 is_stmt 1 view .LVU713
 822:lvgl/src/widgets/lv_table.c **** 
 2085              		.loc 1 822 17 view .LVU714
 824:lvgl/src/widgets/lv_table.c ****                 txt_area.x2 = cell_area.x2 - cell_right;
 2086              		.loc 1 824 17 view .LVU715
 824:lvgl/src/widgets/lv_table.c ****                 txt_area.x2 = cell_area.x2 - cell_right;
 2087              		.loc 1 824 40 is_stmt 0 view .LVU716
 2088 0310 BDF86431 		ldrh	r3, [sp, #356]
ARM GAS  /var/folders/21/t9g5rlb91ys800n5npymflf80000gn/T//ccNiYEm1.s 			page 80


 824:lvgl/src/widgets/lv_table.c ****                 txt_area.x2 = cell_area.x2 - cell_right;
 2089              		.loc 1 824 44 view .LVU717
 2090 0314 089A     		ldr	r2, [sp, #32]
 2091              	.LVL211:
 824:lvgl/src/widgets/lv_table.c ****                 txt_area.x2 = cell_area.x2 - cell_right;
 2092              		.loc 1 824 44 view .LVU718
 2093 0316 1344     		add	r3, r3, r2
 2094 0318 1FFA83FC 		uxth	ip, r3
 824:lvgl/src/widgets/lv_table.c ****                 txt_area.x2 = cell_area.x2 - cell_right;
 2095              		.loc 1 824 29 view .LVU719
 2096 031c ADF85C30 		strh	r3, [sp, #92]	@ movhi
 825:lvgl/src/widgets/lv_table.c ****                 txt_area.y1 = cell_area.y1 + cell_top;
 2097              		.loc 1 825 17 is_stmt 1 view .LVU720
 825:lvgl/src/widgets/lv_table.c ****                 txt_area.y1 = cell_area.y1 + cell_top;
 2098              		.loc 1 825 40 is_stmt 0 view .LVU721
 2099 0320 BDF86821 		ldrh	r2, [sp, #360]
 2100              	.LVL212:
 825:lvgl/src/widgets/lv_table.c ****                 txt_area.y1 = cell_area.y1 + cell_top;
 2101              		.loc 1 825 44 view .LVU722
 2102 0324 A2EB0A02 		sub	r2, r2, r10
 2103 0328 93B2     		uxth	r3, r2
 825:lvgl/src/widgets/lv_table.c ****                 txt_area.y1 = cell_area.y1 + cell_top;
 2104              		.loc 1 825 29 view .LVU723
 2105 032a ADF86020 		strh	r2, [sp, #96]	@ movhi
 826:lvgl/src/widgets/lv_table.c ****                 txt_area.y2 = cell_area.y2 - cell_bottom;
 2106              		.loc 1 826 17 is_stmt 1 view .LVU724
 826:lvgl/src/widgets/lv_table.c ****                 txt_area.y2 = cell_area.y2 - cell_bottom;
 2107              		.loc 1 826 40 is_stmt 0 view .LVU725
 2108 032e BDF86621 		ldrh	r2, [sp, #358]
 826:lvgl/src/widgets/lv_table.c ****                 txt_area.y2 = cell_area.y2 - cell_bottom;
 2109              		.loc 1 826 44 view .LVU726
 2110 0332 4A44     		add	r2, r2, r9
 826:lvgl/src/widgets/lv_table.c ****                 txt_area.y2 = cell_area.y2 - cell_bottom;
 2111              		.loc 1 826 29 view .LVU727
 2112 0334 ADF85E20 		strh	r2, [sp, #94]	@ movhi
 827:lvgl/src/widgets/lv_table.c **** 
 2113              		.loc 1 827 17 is_stmt 1 view .LVU728
 827:lvgl/src/widgets/lv_table.c **** 
 2114              		.loc 1 827 40 is_stmt 0 view .LVU729
 2115 0338 BDF86A21 		ldrh	r2, [sp, #362]
 827:lvgl/src/widgets/lv_table.c **** 
 2116              		.loc 1 827 44 view .LVU730
 2117 033c 121A     		subs	r2, r2, r0
 827:lvgl/src/widgets/lv_table.c **** 
 2118              		.loc 1 827 29 view .LVU731
 2119 033e ADF86220 		strh	r2, [sp, #98]	@ movhi
 830:lvgl/src/widgets/lv_table.c ****                 if(crop) txt_flags = LV_TEXT_FLAG_EXPAND;
 2120              		.loc 1 830 17 is_stmt 1 view .LVU732
 830:lvgl/src/widgets/lv_table.c ****                 if(crop) txt_flags = LV_TEXT_FLAG_EXPAND;
 2121              		.loc 1 830 72 is_stmt 0 view .LVU733
 2122 0342 069A     		ldr	r2, [sp, #24]
 2123 0344 C2F34009 		ubfx	r9, r2, #1, #1
 2124              	.LVL213:
 831:lvgl/src/widgets/lv_table.c **** 
 2125              		.loc 1 831 17 is_stmt 1 view .LVU734
 831:lvgl/src/widgets/lv_table.c **** 
 2126              		.loc 1 831 19 is_stmt 0 view .LVU735
ARM GAS  /var/folders/21/t9g5rlb91ys800n5npymflf80000gn/T//ccNiYEm1.s 			page 81


 2127 0348 12F0020F 		tst	r2, #2
 2128 034c 40F0AA80 		bne	.L85
 821:lvgl/src/widgets/lv_table.c ****                 lv_area_t txt_area;
 2129              		.loc 1 821 32 view .LVU736
 2130 0350 0022     		movs	r2, #0
 2131              	.L78:
 2132              	.LVL214:
 833:lvgl/src/widgets/lv_table.c ****                                 label_dsc_act.letter_space, label_dsc_act.line_space,
 2133              		.loc 1 833 17 is_stmt 1 view .LVU737
 833:lvgl/src/widgets/lv_table.c ****                                 label_dsc_act.letter_space, label_dsc_act.line_space,
 2134              		.loc 1 833 49 is_stmt 0 view .LVU738
 2135 0352 B16A     		ldr	r1, [r6, #40]
 833:lvgl/src/widgets/lv_table.c ****                                 label_dsc_act.letter_space, label_dsc_act.line_space,
 2136              		.loc 1 833 60 view .LVU739
 2137 0354 51F80B10 		ldr	r1, [r1, fp]
 2138              	.LVL215:
 2139              	.LBB195:
 2140              	.LBI195:
 116:lvgl/src/widgets/../core/../misc/../font/../misc/lv_area.h **** }
 117:lvgl/src/widgets/../core/../misc/../font/../misc/lv_area.h **** 
 118:lvgl/src/widgets/../core/../misc/../font/../misc/lv_area.h **** /**
 119:lvgl/src/widgets/../core/../misc/../font/../misc/lv_area.h ****  * Get the width of an area
 120:lvgl/src/widgets/../core/../misc/../font/../misc/lv_area.h ****  * @param area_p pointer to an area
 121:lvgl/src/widgets/../core/../misc/../font/../misc/lv_area.h ****  * @return the width of the area (if x1 == x2 -> width = 1)
 122:lvgl/src/widgets/../core/../misc/../font/../misc/lv_area.h ****  */
 123:lvgl/src/widgets/../core/../misc/../font/../misc/lv_area.h **** static inline lv_coord_t lv_area_get_width(const lv_area_t * area_p)
 2141              		.loc 4 123 26 is_stmt 1 view .LVU740
 2142              	.LBB196:
 124:lvgl/src/widgets/../core/../misc/../font/../misc/lv_area.h **** {
 125:lvgl/src/widgets/../core/../misc/../font/../misc/lv_area.h ****     return (lv_coord_t)(area_p->x2 - area_p->x1 + 1);
 2143              		.loc 4 125 5 view .LVU741
 2144              		.loc 4 125 36 is_stmt 0 view .LVU742
 2145 0358 A3EB0C03 		sub	r3, r3, ip
 2146 035c 9BB2     		uxth	r3, r3
 2147              		.loc 4 125 49 view .LVU743
 2148 035e 0133     		adds	r3, r3, #1
 2149              		.loc 4 125 12 view .LVU744
 2150 0360 1BB2     		sxth	r3, r3
 2151              	.LVL216:
 2152              		.loc 4 125 12 view .LVU745
 2153              	.LBE196:
 2154              	.LBE195:
 833:lvgl/src/widgets/lv_table.c ****                                 label_dsc_act.letter_space, label_dsc_act.line_space,
 2155              		.loc 1 833 17 view .LVU746
 2156 0362 0292     		str	r2, [sp, #8]
 2157 0364 0193     		str	r3, [sp, #4]
 2158 0366 BDF9C630 		ldrsh	r3, [sp, #198]
 2159 036a 0093     		str	r3, [sp]
 2160 036c BDF9C830 		ldrsh	r3, [sp, #200]
 2161 0370 359A     		ldr	r2, [sp, #212]
 2162              	.LVL217:
 833:lvgl/src/widgets/lv_table.c ****                                 label_dsc_act.letter_space, label_dsc_act.line_space,
 2163              		.loc 1 833 17 view .LVU747
 2164 0372 0831     		adds	r1, r1, #8
 2165 0374 5BA8     		add	r0, sp, #364
 2166              	.LVL218:
 833:lvgl/src/widgets/lv_table.c ****                                 label_dsc_act.letter_space, label_dsc_act.line_space,
ARM GAS  /var/folders/21/t9g5rlb91ys800n5npymflf80000gn/T//ccNiYEm1.s 			page 82


 2167              		.loc 1 833 17 view .LVU748
 2168 0376 FFF7FEFF 		bl	lv_txt_get_size
 2169              	.LVL219:
 838:lvgl/src/widgets/lv_table.c ****                     txt_area.y1 = cell_area.y1 + h_row / 2 - txt_size.y / 2;
 2170              		.loc 1 838 17 is_stmt 1 view .LVU749
 838:lvgl/src/widgets/lv_table.c ****                     txt_area.y1 = cell_area.y1 + h_row / 2 - txt_size.y / 2;
 2171              		.loc 1 838 19 is_stmt 0 view .LVU750
 2172 037a B9F1000F 		cmp	r9, #0
 2173 037e 13D1     		bne	.L79
 839:lvgl/src/widgets/lv_table.c ****                     txt_area.y2 = cell_area.y1 + h_row / 2 + txt_size.y / 2;
 2174              		.loc 1 839 21 is_stmt 1 view .LVU751
 839:lvgl/src/widgets/lv_table.c ****                     txt_area.y2 = cell_area.y1 + h_row / 2 + txt_size.y / 2;
 2175              		.loc 1 839 44 is_stmt 0 view .LVU752
 2176 0380 BDF86631 		ldrh	r3, [sp, #358]
 839:lvgl/src/widgets/lv_table.c ****                     txt_area.y2 = cell_area.y1 + h_row / 2 + txt_size.y / 2;
 2177              		.loc 1 839 48 view .LVU753
 2178 0384 0D9A     		ldr	r2, [sp, #52]
 2179 0386 02EBD272 		add	r2, r2, r2, lsr #31
 2180 038a 03EB6203 		add	r3, r3, r2, asr #1
 2181 038e 9BB2     		uxth	r3, r3
 839:lvgl/src/widgets/lv_table.c ****                     txt_area.y2 = cell_area.y1 + h_row / 2 + txt_size.y / 2;
 2182              		.loc 1 839 70 view .LVU754
 2183 0390 BDF96E21 		ldrsh	r2, [sp, #366]
 839:lvgl/src/widgets/lv_table.c ****                     txt_area.y2 = cell_area.y1 + h_row / 2 + txt_size.y / 2;
 2184              		.loc 1 839 60 view .LVU755
 2185 0394 02EBD272 		add	r2, r2, r2, lsr #31
 2186 0398 C2F34F02 		ubfx	r2, r2, #1, #16
 2187 039c 991A     		subs	r1, r3, r2
 839:lvgl/src/widgets/lv_table.c ****                     txt_area.y2 = cell_area.y1 + h_row / 2 + txt_size.y / 2;
 2188              		.loc 1 839 33 view .LVU756
 2189 039e ADF85E10 		strh	r1, [sp, #94]	@ movhi
 840:lvgl/src/widgets/lv_table.c ****                 }
 2190              		.loc 1 840 21 is_stmt 1 view .LVU757
 840:lvgl/src/widgets/lv_table.c ****                 }
 2191              		.loc 1 840 60 is_stmt 0 view .LVU758
 2192 03a2 1344     		add	r3, r3, r2
 840:lvgl/src/widgets/lv_table.c ****                 }
 2193              		.loc 1 840 33 view .LVU759
 2194 03a4 ADF86230 		strh	r3, [sp, #98]	@ movhi
 2195              	.L79:
 843:lvgl/src/widgets/lv_table.c ****                 bool label_mask_ok;
 2196              		.loc 1 843 17 is_stmt 1 view .LVU760
 844:lvgl/src/widgets/lv_table.c ****                 label_mask_ok = _lv_area_intersect(&label_clip_area, &clip_area, &cell_area);
 2197              		.loc 1 844 17 view .LVU761
 845:lvgl/src/widgets/lv_table.c ****                 if(label_mask_ok) {
 2198              		.loc 1 845 17 view .LVU762
 845:lvgl/src/widgets/lv_table.c ****                 if(label_mask_ok) {
 2199              		.loc 1 845 33 is_stmt 0 view .LVU763
 2200 03a8 59AA     		add	r2, sp, #356
 2201 03aa 5CA9     		add	r1, sp, #368
 2202 03ac 19A8     		add	r0, sp, #100
 2203 03ae FFF7FEFF 		bl	_lv_area_intersect
 2204              	.LVL220:
 846:lvgl/src/widgets/lv_table.c ****                     draw_ctx->clip_area = &label_clip_area;
 2205              		.loc 1 846 17 is_stmt 1 view .LVU764
 846:lvgl/src/widgets/lv_table.c ****                     draw_ctx->clip_area = &label_clip_area;
 2206              		.loc 1 846 19 is_stmt 0 view .LVU765
ARM GAS  /var/folders/21/t9g5rlb91ys800n5npymflf80000gn/T//ccNiYEm1.s 			page 83


 2207 03b2 0028     		cmp	r0, #0
 2208 03b4 78D1     		bne	.L91
 2209              	.LVL221:
 2210              	.L77:
 846:lvgl/src/widgets/lv_table.c ****                     draw_ctx->clip_area = &label_clip_area;
 2211              		.loc 1 846 19 view .LVU766
 2212              	.LBE186:
 853:lvgl/src/widgets/lv_table.c **** 
 2213              		.loc 1 853 13 is_stmt 1 discriminator 1 view .LVU767
 2214 03b6 1BAA     		add	r2, sp, #108
 2215 03b8 1B21     		movs	r1, #27
 2216 03ba 3046     		mov	r0, r6
 2217 03bc FFF7FEFF 		bl	lv_event_send
 2218              	.LVL222:
 855:lvgl/src/widgets/lv_table.c ****             col += col_merge;
 2219              		.loc 1 855 13 discriminator 1 view .LVU768
 855:lvgl/src/widgets/lv_table.c ****             col += col_merge;
 2220              		.loc 1 855 18 is_stmt 0 discriminator 1 view .LVU769
 2221 03c0 B844     		add	r8, r8, r7
 2222              	.LVL223:
 855:lvgl/src/widgets/lv_table.c ****             col += col_merge;
 2223              		.loc 1 855 18 discriminator 1 view .LVU770
 2224 03c2 1FFA88F8 		uxth	r8, r8
 2225 03c6 08F10108 		add	r8, r8, #1
 2226 03ca 1FFA88F8 		uxth	r8, r8
 2227              	.LVL224:
 856:lvgl/src/widgets/lv_table.c ****         }
 2228              		.loc 1 856 13 is_stmt 1 discriminator 1 view .LVU771
 856:lvgl/src/widgets/lv_table.c ****         }
 2229              		.loc 1 856 17 is_stmt 0 discriminator 1 view .LVU772
 2230 03ce 2F44     		add	r7, r7, r5
 2231              	.LVL225:
 856:lvgl/src/widgets/lv_table.c ****         }
 2232              		.loc 1 856 17 discriminator 1 view .LVU773
 2233 03d0 BFB2     		uxth	r7, r7
 2234              	.LVL226:
 2235              	.L65:
 856:lvgl/src/widgets/lv_table.c ****         }
 2236              		.loc 1 856 17 discriminator 1 view .LVU774
 2237              	.LBE179:
 731:lvgl/src/widgets/lv_table.c ****             lv_table_cell_ctrl_t ctrl = 0;
 2238              		.loc 1 731 47 is_stmt 1 discriminator 2 view .LVU775
 2239 03d2 0137     		adds	r7, r7, #1
 2240              	.LVL227:
 731:lvgl/src/widgets/lv_table.c ****             lv_table_cell_ctrl_t ctrl = 0;
 2241              		.loc 1 731 47 is_stmt 0 discriminator 2 view .LVU776
 2242 03d4 BDB2     		uxth	r5, r7
 2243              	.LVL228:
 2244              	.L81:
 731:lvgl/src/widgets/lv_table.c ****             lv_table_cell_ctrl_t ctrl = 0;
 2245              		.loc 1 731 26 is_stmt 1 discriminator 1 view .LVU777
 731:lvgl/src/widgets/lv_table.c ****             lv_table_cell_ctrl_t ctrl = 0;
 2246              		.loc 1 731 33 is_stmt 0 discriminator 1 view .LVU778
 2247 03d6 B18C     		ldrh	r1, [r6, #36]
 731:lvgl/src/widgets/lv_table.c ****             lv_table_cell_ctrl_t ctrl = 0;
 2248              		.loc 1 731 26 discriminator 1 view .LVU779
 2249 03d8 A942     		cmp	r1, r5
ARM GAS  /var/folders/21/t9g5rlb91ys800n5npymflf80000gn/T//ccNiYEm1.s 			page 84


 2250 03da 77D9     		bls	.L92
 2251              	.LBB199:
 732:lvgl/src/widgets/lv_table.c ****             if(table->cell_data[cell]) ctrl = table->cell_data[cell]->ctrl;
 2252              		.loc 1 732 13 is_stmt 1 view .LVU780
 2253              	.LVL229:
 733:lvgl/src/widgets/lv_table.c **** 
 2254              		.loc 1 733 13 view .LVU781
 733:lvgl/src/widgets/lv_table.c **** 
 2255              		.loc 1 733 21 is_stmt 0 view .LVU782
 2256 03dc B06A     		ldr	r0, [r6, #40]
 733:lvgl/src/widgets/lv_table.c **** 
 2257              		.loc 1 733 32 view .LVU783
 2258 03de 4FEA880B 		lsl	fp, r8, #2
 2259 03e2 50F82830 		ldr	r3, [r0, r8, lsl #2]
 733:lvgl/src/widgets/lv_table.c **** 
 2260              		.loc 1 733 15 view .LVU784
 2261 03e6 002B     		cmp	r3, #0
 2262 03e8 3FF4AEAE 		beq	.L84
 733:lvgl/src/widgets/lv_table.c **** 
 2263              		.loc 1 733 40 is_stmt 1 discriminator 1 view .LVU785
 733:lvgl/src/widgets/lv_table.c **** 
 2264              		.loc 1 733 45 is_stmt 0 discriminator 1 view .LVU786
 2265 03ec 1B78     		ldrb	r3, [r3]	@ zero_extendqisi2
 2266 03ee 0693     		str	r3, [sp, #24]
 2267              	.LVL230:
 2268              	.L56:
 735:lvgl/src/widgets/lv_table.c ****                 cell_area.x2 = cell_area.x1 - 1;
 2269              		.loc 1 735 13 is_stmt 1 view .LVU787
 735:lvgl/src/widgets/lv_table.c ****                 cell_area.x2 = cell_area.x1 - 1;
 2270              		.loc 1 735 15 is_stmt 0 view .LVU788
 2271 03f0 012C     		cmp	r4, #1
 2272 03f2 3FF4ACAE 		beq	.L93
 740:lvgl/src/widgets/lv_table.c ****                 cell_area.x2 = cell_area.x1 + table->col_w[col] - 1;
 2273              		.loc 1 740 17 is_stmt 1 view .LVU789
 740:lvgl/src/widgets/lv_table.c ****                 cell_area.x2 = cell_area.x1 + table->col_w[col] - 1;
 2274              		.loc 1 740 41 is_stmt 0 view .LVU790
 2275 03f6 BDF86831 		ldrh	r3, [sp, #360]
 740:lvgl/src/widgets/lv_table.c ****                 cell_area.x2 = cell_area.x1 + table->col_w[col] - 1;
 2276              		.loc 1 740 45 view .LVU791
 2277 03fa 0133     		adds	r3, r3, #1
 740:lvgl/src/widgets/lv_table.c ****                 cell_area.x2 = cell_area.x1 + table->col_w[col] - 1;
 2278              		.loc 1 740 30 view .LVU792
 2279 03fc ADF86431 		strh	r3, [sp, #356]	@ movhi
 741:lvgl/src/widgets/lv_table.c ****             }
 2280              		.loc 1 741 17 is_stmt 1 view .LVU793
 741:lvgl/src/widgets/lv_table.c ****             }
 2281              		.loc 1 741 52 is_stmt 0 view .LVU794
 2282 0400 326B     		ldr	r2, [r6, #48]
 741:lvgl/src/widgets/lv_table.c ****             }
 2283              		.loc 1 741 59 view .LVU795
 2284 0402 32F81520 		ldrh	r2, [r2, r5, lsl #1]
 741:lvgl/src/widgets/lv_table.c ****             }
 2285              		.loc 1 741 45 view .LVU796
 2286 0406 12FA83F3 		uxtah	r3, r2, r3
 2287 040a 9BB2     		uxth	r3, r3
 741:lvgl/src/widgets/lv_table.c ****             }
 2288              		.loc 1 741 65 view .LVU797
ARM GAS  /var/folders/21/t9g5rlb91ys800n5npymflf80000gn/T//ccNiYEm1.s 			page 85


 2289 040c 013B     		subs	r3, r3, #1
 741:lvgl/src/widgets/lv_table.c ****             }
 2290              		.loc 1 741 30 view .LVU798
 2291 040e ADF86831 		strh	r3, [sp, #360]	@ movhi
 2292              	.L58:
 732:lvgl/src/widgets/lv_table.c ****             if(table->cell_data[cell]) ctrl = table->cell_data[cell]->ctrl;
 2293              		.loc 1 732 34 discriminator 1 view .LVU799
 2294 0412 0027     		movs	r7, #0
 2295 0414 B1E6     		b	.L62
 2296              	.L96:
 2297 0416 00BF     		.align	2
 2298              	.L95:
 2299 0418 00000000 		.word	lv_table_class
 2300              	.LVL231:
 2301              	.L89:
 763:lvgl/src/widgets/lv_table.c ****                 col += col_merge;
 2302              		.loc 1 763 17 is_stmt 1 discriminator 1 view .LVU800
 763:lvgl/src/widgets/lv_table.c ****                 col += col_merge;
 2303              		.loc 1 763 22 is_stmt 0 discriminator 1 view .LVU801
 2304 041c B844     		add	r8, r8, r7
 2305              	.LVL232:
 763:lvgl/src/widgets/lv_table.c ****                 col += col_merge;
 2306              		.loc 1 763 22 discriminator 1 view .LVU802
 2307 041e 1FFA88F8 		uxth	r8, r8
 2308 0422 08F10108 		add	r8, r8, #1
 2309 0426 1FFA88F8 		uxth	r8, r8
 2310              	.LVL233:
 764:lvgl/src/widgets/lv_table.c ****                 continue;
 2311              		.loc 1 764 17 is_stmt 1 discriminator 1 view .LVU803
 764:lvgl/src/widgets/lv_table.c ****                 continue;
 2312              		.loc 1 764 21 is_stmt 0 discriminator 1 view .LVU804
 2313 042a 2F44     		add	r7, r7, r5
 2314              	.LVL234:
 764:lvgl/src/widgets/lv_table.c ****                 continue;
 2315              		.loc 1 764 21 discriminator 1 view .LVU805
 2316 042c BFB2     		uxth	r7, r7
 2317              	.LVL235:
 765:lvgl/src/widgets/lv_table.c ****             }
 2318              		.loc 1 765 17 is_stmt 1 discriminator 1 view .LVU806
 2319 042e D0E7     		b	.L65
 2320              	.LVL236:
 2321              	.L90:
 787:lvgl/src/widgets/lv_table.c ****                 if(obj->state & LV_STATE_FOCUSED) cell_state |= LV_STATE_FOCUSED;
 2322              		.loc 1 787 17 view .LVU807
 787:lvgl/src/widgets/lv_table.c ****                 if(obj->state & LV_STATE_FOCUSED) cell_state |= LV_STATE_FOCUSED;
 2323              		.loc 1 787 25 is_stmt 0 view .LVU808
 2324 0430 328C     		ldrh	r2, [r6, #32]
 2325 0432 02F06003 		and	r3, r2, #96
 787:lvgl/src/widgets/lv_table.c ****                 if(obj->state & LV_STATE_FOCUSED) cell_state |= LV_STATE_FOCUSED;
 2326              		.loc 1 787 19 view .LVU809
 2327 0436 202B     		cmp	r3, #32
 2328 0438 00D0     		beq	.L71
 785:lvgl/src/widgets/lv_table.c ****             if(row == table->row_act && col == table->col_act) {
 2329              		.loc 1 785 24 view .LVU810
 2330 043a 0023     		movs	r3, #0
 2331              	.L71:
 2332              	.LVL237:
ARM GAS  /var/folders/21/t9g5rlb91ys800n5npymflf80000gn/T//ccNiYEm1.s 			page 86


 788:lvgl/src/widgets/lv_table.c ****                 if(obj->state & LV_STATE_FOCUS_KEY) cell_state |= LV_STATE_FOCUS_KEY;
 2333              		.loc 1 788 17 is_stmt 1 view .LVU811
 788:lvgl/src/widgets/lv_table.c ****                 if(obj->state & LV_STATE_FOCUS_KEY) cell_state |= LV_STATE_FOCUS_KEY;
 2334              		.loc 1 788 19 is_stmt 0 view .LVU812
 2335 043c 12F0020F 		tst	r2, #2
 2336 0440 01D0     		beq	.L72
 788:lvgl/src/widgets/lv_table.c ****                 if(obj->state & LV_STATE_FOCUS_KEY) cell_state |= LV_STATE_FOCUS_KEY;
 2337              		.loc 1 788 51 is_stmt 1 discriminator 1 view .LVU813
 788:lvgl/src/widgets/lv_table.c ****                 if(obj->state & LV_STATE_FOCUS_KEY) cell_state |= LV_STATE_FOCUS_KEY;
 2338              		.loc 1 788 62 is_stmt 0 discriminator 1 view .LVU814
 2339 0442 43F00203 		orr	r3, r3, #2
 2340              	.LVL238:
 2341              	.L72:
 789:lvgl/src/widgets/lv_table.c ****                 if(obj->state & LV_STATE_EDITED) cell_state |= LV_STATE_EDITED;
 2342              		.loc 1 789 17 is_stmt 1 view .LVU815
 789:lvgl/src/widgets/lv_table.c ****                 if(obj->state & LV_STATE_EDITED) cell_state |= LV_STATE_EDITED;
 2343              		.loc 1 789 19 is_stmt 0 view .LVU816
 2344 0446 12F0040F 		tst	r2, #4
 2345 044a 01D0     		beq	.L73
 789:lvgl/src/widgets/lv_table.c ****                 if(obj->state & LV_STATE_EDITED) cell_state |= LV_STATE_EDITED;
 2346              		.loc 1 789 53 is_stmt 1 discriminator 1 view .LVU817
 789:lvgl/src/widgets/lv_table.c ****                 if(obj->state & LV_STATE_EDITED) cell_state |= LV_STATE_EDITED;
 2347              		.loc 1 789 64 is_stmt 0 discriminator 1 view .LVU818
 2348 044c 43F00403 		orr	r3, r3, #4
 2349              	.LVL239:
 2350              	.L73:
 790:lvgl/src/widgets/lv_table.c ****             }
 2351              		.loc 1 790 17 is_stmt 1 view .LVU819
 790:lvgl/src/widgets/lv_table.c ****             }
 2352              		.loc 1 790 19 is_stmt 0 view .LVU820
 2353 0450 12F0080F 		tst	r2, #8
 2354 0454 23D0     		beq	.L74
 790:lvgl/src/widgets/lv_table.c ****             }
 2355              		.loc 1 790 50 is_stmt 1 discriminator 1 view .LVU821
 790:lvgl/src/widgets/lv_table.c ****             }
 2356              		.loc 1 790 61 is_stmt 0 discriminator 1 view .LVU822
 2357 0456 43F00803 		orr	r3, r3, #8
 2358              	.LVL240:
 794:lvgl/src/widgets/lv_table.c ****                 lv_memcpy(&rect_dsc_act, &rect_dsc_def, sizeof(lv_draw_rect_dsc_t));
 2359              		.loc 1 794 13 is_stmt 1 discriminator 1 view .LVU823
 2360              	.L75:
 800:lvgl/src/widgets/lv_table.c ****                 obj->skip_trans = 1;
 2361              		.loc 1 800 17 view .LVU824
 800:lvgl/src/widgets/lv_table.c ****                 obj->skip_trans = 1;
 2362              		.loc 1 800 28 is_stmt 0 view .LVU825
 2363 045a 3384     		strh	r3, [r6, #32]	@ movhi
 801:lvgl/src/widgets/lv_table.c ****                 lv_draw_rect_dsc_init(&rect_dsc_act);
 2364              		.loc 1 801 17 is_stmt 1 view .LVU826
 801:lvgl/src/widgets/lv_table.c ****                 lv_draw_rect_dsc_init(&rect_dsc_act);
 2365              		.loc 1 801 33 is_stmt 0 view .LVU827
 2366 045c 96F82230 		ldrb	r3, [r6, #34]	@ zero_extendqisi2
 2367              	.LVL241:
 801:lvgl/src/widgets/lv_table.c ****                 lv_draw_rect_dsc_init(&rect_dsc_act);
 2368              		.loc 1 801 33 view .LVU828
 2369 0460 43F00803 		orr	r3, r3, #8
 2370 0464 86F82230 		strb	r3, [r6, #34]
 802:lvgl/src/widgets/lv_table.c ****                 lv_draw_label_dsc_init(&label_dsc_act);
ARM GAS  /var/folders/21/t9g5rlb91ys800n5npymflf80000gn/T//ccNiYEm1.s 			page 87


 2371              		.loc 1 802 17 is_stmt 1 view .LVU829
 2372 0468 3DA8     		add	r0, sp, #244
 2373 046a FFF7FEFF 		bl	lv_draw_rect_dsc_init
 2374              	.LVL242:
 803:lvgl/src/widgets/lv_table.c ****                 lv_obj_init_draw_rect_dsc(obj, LV_PART_ITEMS, &rect_dsc_act);
 2375              		.loc 1 803 17 view .LVU830
 2376 046e 2DA8     		add	r0, sp, #180
 2377 0470 FFF7FEFF 		bl	lv_draw_label_dsc_init
 2378              	.LVL243:
 804:lvgl/src/widgets/lv_table.c ****                 lv_obj_init_draw_label_dsc(obj, LV_PART_ITEMS, &label_dsc_act);
 2379              		.loc 1 804 17 view .LVU831
 2380 0474 3DAA     		add	r2, sp, #244
 2381 0476 4FF4A021 		mov	r1, #327680
 2382 047a 3046     		mov	r0, r6
 2383 047c FFF7FEFF 		bl	lv_obj_init_draw_rect_dsc
 2384              	.LVL244:
 805:lvgl/src/widgets/lv_table.c ****                 obj->state = state_ori;
 2385              		.loc 1 805 17 view .LVU832
 2386 0480 2DAA     		add	r2, sp, #180
 2387 0482 4FF4A021 		mov	r1, #327680
 2388 0486 3046     		mov	r0, r6
 2389 0488 FFF7FEFF 		bl	lv_obj_init_draw_label_dsc
 2390              	.LVL245:
 806:lvgl/src/widgets/lv_table.c ****                 obj->skip_trans = 0;
 2391              		.loc 1 806 17 view .LVU833
 806:lvgl/src/widgets/lv_table.c ****                 obj->skip_trans = 0;
 2392              		.loc 1 806 28 is_stmt 0 view .LVU834
 2393 048c 109B     		ldr	r3, [sp, #64]
 2394 048e 3384     		strh	r3, [r6, #32]	@ movhi
 807:lvgl/src/widgets/lv_table.c ****             }
 2395              		.loc 1 807 17 is_stmt 1 view .LVU835
 807:lvgl/src/widgets/lv_table.c ****             }
 2396              		.loc 1 807 33 is_stmt 0 view .LVU836
 2397 0490 96F82230 		ldrb	r3, [r6, #34]	@ zero_extendqisi2
 2398 0494 6FF3C303 		bfc	r3, #3, #1
 2399 0498 86F82230 		strb	r3, [r6, #34]
 2400 049c 05E7     		b	.L76
 2401              	.LVL246:
 2402              	.L74:
 794:lvgl/src/widgets/lv_table.c ****                 lv_memcpy(&rect_dsc_act, &rect_dsc_def, sizeof(lv_draw_rect_dsc_t));
 2403              		.loc 1 794 13 is_stmt 1 view .LVU837
 794:lvgl/src/widgets/lv_table.c ****                 lv_memcpy(&rect_dsc_act, &rect_dsc_def, sizeof(lv_draw_rect_dsc_t));
 2404              		.loc 1 794 15 is_stmt 0 view .LVU838
 2405 049e 002B     		cmp	r3, #0
 2406 04a0 DBD1     		bne	.L75
 2407 04a2 F8E6     		b	.L70
 2408              	.LVL247:
 2409              	.L85:
 2410              	.LBB197:
 831:lvgl/src/widgets/lv_table.c **** 
 2411              		.loc 1 831 36 view .LVU839
 2412 04a4 0222     		movs	r2, #2
 2413 04a6 54E7     		b	.L78
 2414              	.LVL248:
 2415              	.L91:
 847:lvgl/src/widgets/lv_table.c ****                     lv_draw_label(draw_ctx, &label_dsc_act, &txt_area, table->cell_data[cell]->txt,
 2416              		.loc 1 847 21 is_stmt 1 view .LVU840
ARM GAS  /var/folders/21/t9g5rlb91ys800n5npymflf80000gn/T//ccNiYEm1.s 			page 88


 847:lvgl/src/widgets/lv_table.c ****                     lv_draw_label(draw_ctx, &label_dsc_act, &txt_area, table->cell_data[cell]->txt,
 2417              		.loc 1 847 41 is_stmt 0 view .LVU841
 2418 04a8 19AB     		add	r3, sp, #100
 2419 04aa 0798     		ldr	r0, [sp, #28]
 2420              	.LVL249:
 847:lvgl/src/widgets/lv_table.c ****                     lv_draw_label(draw_ctx, &label_dsc_act, &txt_area, table->cell_data[cell]->txt,
 2421              		.loc 1 847 41 view .LVU842
 2422 04ac 8360     		str	r3, [r0, #8]
 848:lvgl/src/widgets/lv_table.c ****                     draw_ctx->clip_area = &clip_area;
 2423              		.loc 1 848 21 is_stmt 1 view .LVU843
 848:lvgl/src/widgets/lv_table.c ****                     draw_ctx->clip_area = &clip_area;
 2424              		.loc 1 848 77 is_stmt 0 view .LVU844
 2425 04ae B36A     		ldr	r3, [r6, #40]
 848:lvgl/src/widgets/lv_table.c ****                     draw_ctx->clip_area = &clip_area;
 2426              		.loc 1 848 88 view .LVU845
 2427 04b0 53F80B30 		ldr	r3, [r3, fp]
 848:lvgl/src/widgets/lv_table.c ****                     draw_ctx->clip_area = &clip_area;
 2428              		.loc 1 848 21 view .LVU846
 2429 04b4 0022     		movs	r2, #0
 2430 04b6 0092     		str	r2, [sp]
 2431 04b8 0833     		adds	r3, r3, #8
 2432 04ba 17AA     		add	r2, sp, #92
 2433 04bc 2DA9     		add	r1, sp, #180
 2434 04be 8146     		mov	r9, r0
 2435              	.LVL250:
 848:lvgl/src/widgets/lv_table.c ****                     draw_ctx->clip_area = &clip_area;
 2436              		.loc 1 848 21 view .LVU847
 2437 04c0 FFF7FEFF 		bl	lv_draw_label
 2438              	.LVL251:
 849:lvgl/src/widgets/lv_table.c ****                 }
 2439              		.loc 1 849 21 is_stmt 1 view .LVU848
 849:lvgl/src/widgets/lv_table.c ****                 }
 2440              		.loc 1 849 41 is_stmt 0 view .LVU849
 2441 04c4 5CAB     		add	r3, sp, #368
 2442 04c6 C9F80830 		str	r3, [r9, #8]
 2443 04ca 74E7     		b	.L77
 2444              	.LVL252:
 2445              	.L92:
 849:lvgl/src/widgets/lv_table.c ****                 }
 2446              		.loc 1 849 41 view .LVU850
 2447              	.LBE197:
 2448              	.LBE199:
 2449              	.LBE178:
 720:lvgl/src/widgets/lv_table.c ****         lv_coord_t h_row = table->row_h[row];
 2450              		.loc 1 720 43 discriminator 2 view .LVU851
 2451 04cc DDF814B0 		ldr	fp, [sp, #20]
 720:lvgl/src/widgets/lv_table.c ****         lv_coord_t h_row = table->row_h[row];
 2452              		.loc 1 720 43 is_stmt 1 discriminator 2 view .LVU852
 2453 04d0 0BF10103 		add	r3, fp, #1
 2454 04d4 1FFA83FB 		uxth	fp, r3
 2455              	.LVL253:
 2456              	.L52:
 720:lvgl/src/widgets/lv_table.c ****         lv_coord_t h_row = table->row_h[row];
 2457              		.loc 1 720 22 discriminator 1 view .LVU853
 720:lvgl/src/widgets/lv_table.c ****         lv_coord_t h_row = table->row_h[row];
 2458              		.loc 1 720 29 is_stmt 0 discriminator 1 view .LVU854
 2459 04d8 F38C     		ldrh	r3, [r6, #38]
ARM GAS  /var/folders/21/t9g5rlb91ys800n5npymflf80000gn/T//ccNiYEm1.s 			page 89


 720:lvgl/src/widgets/lv_table.c ****         lv_coord_t h_row = table->row_h[row];
 2460              		.loc 1 720 22 discriminator 1 view .LVU855
 2461 04da 5B45     		cmp	r3, fp
 2462 04dc 26D9     		bls	.L53
 2463              	.LBB201:
 721:lvgl/src/widgets/lv_table.c **** 
 2464              		.loc 1 721 9 is_stmt 1 view .LVU856
 721:lvgl/src/widgets/lv_table.c **** 
 2465              		.loc 1 721 33 is_stmt 0 view .LVU857
 2466 04de F36A     		ldr	r3, [r6, #44]
 721:lvgl/src/widgets/lv_table.c **** 
 2467              		.loc 1 721 20 view .LVU858
 2468 04e0 33F91B10 		ldrsh	r1, [r3, fp, lsl #1]
 2469 04e4 0D91     		str	r1, [sp, #52]
 2470              	.LVL254:
 723:lvgl/src/widgets/lv_table.c ****         cell_area.y2 = cell_area.y1 + h_row - 1;
 2471              		.loc 1 723 9 is_stmt 1 view .LVU859
 723:lvgl/src/widgets/lv_table.c ****         cell_area.y2 = cell_area.y1 + h_row - 1;
 2472              		.loc 1 723 33 is_stmt 0 view .LVU860
 2473 04e6 BDF86A31 		ldrh	r3, [sp, #362]
 723:lvgl/src/widgets/lv_table.c ****         cell_area.y2 = cell_area.y1 + h_row - 1;
 2474              		.loc 1 723 37 view .LVU861
 2475 04ea 0133     		adds	r3, r3, #1
 2476 04ec 1AB2     		sxth	r2, r3
 723:lvgl/src/widgets/lv_table.c ****         cell_area.y2 = cell_area.y1 + h_row - 1;
 2477              		.loc 1 723 22 view .LVU862
 2478 04ee ADF86621 		strh	r2, [sp, #358]	@ movhi
 724:lvgl/src/widgets/lv_table.c **** 
 2479              		.loc 1 724 9 is_stmt 1 view .LVU863
 724:lvgl/src/widgets/lv_table.c **** 
 2480              		.loc 1 724 37 is_stmt 0 view .LVU864
 2481 04f2 11FA83F3 		uxtah	r3, r1, r3
 2482 04f6 9BB2     		uxth	r3, r3
 724:lvgl/src/widgets/lv_table.c **** 
 2483              		.loc 1 724 45 view .LVU865
 2484 04f8 013B     		subs	r3, r3, #1
 724:lvgl/src/widgets/lv_table.c **** 
 2485              		.loc 1 724 22 view .LVU866
 2486 04fa ADF86A31 		strh	r3, [sp, #362]	@ movhi
 726:lvgl/src/widgets/lv_table.c **** 
 2487              		.loc 1 726 9 is_stmt 1 view .LVU867
 726:lvgl/src/widgets/lv_table.c **** 
 2488              		.loc 1 726 36 is_stmt 0 view .LVU868
 2489 04fe BDF97631 		ldrsh	r3, [sp, #374]
 726:lvgl/src/widgets/lv_table.c **** 
 2490              		.loc 1 726 11 view .LVU869
 2491 0502 9A42     		cmp	r2, r3
 2492 0504 12DC     		bgt	.L53
 728:lvgl/src/widgets/lv_table.c ****         else cell_area.x2 = obj->coords.x1 + bg_left - 1 - scroll_x + border_width;
 2493              		.loc 1 728 9 is_stmt 1 view .LVU870
 728:lvgl/src/widgets/lv_table.c ****         else cell_area.x2 = obj->coords.x1 + bg_left - 1 - scroll_x + border_width;
 2494              		.loc 1 728 11 is_stmt 0 view .LVU871
 2495 0506 012C     		cmp	r4, #1
 2496 0508 3FF411AE 		beq	.L94
 729:lvgl/src/widgets/lv_table.c **** 
 2497              		.loc 1 729 14 is_stmt 1 view .LVU872
 729:lvgl/src/widgets/lv_table.c **** 
ARM GAS  /var/folders/21/t9g5rlb91ys800n5npymflf80000gn/T//ccNiYEm1.s 			page 90


 2498              		.loc 1 729 40 is_stmt 0 view .LVU873
 2499 050c B38A     		ldrh	r3, [r6, #20]
 729:lvgl/src/widgets/lv_table.c **** 
 2500              		.loc 1 729 44 view .LVU874
 2501 050e 119A     		ldr	r2, [sp, #68]
 2502 0510 1344     		add	r3, r3, r2
 2503 0512 9BB2     		uxth	r3, r3
 729:lvgl/src/widgets/lv_table.c **** 
 2504              		.loc 1 729 58 view .LVU875
 2505 0514 0E9A     		ldr	r2, [sp, #56]
 2506 0516 9B1A     		subs	r3, r3, r2
 729:lvgl/src/widgets/lv_table.c **** 
 2507              		.loc 1 729 69 view .LVU876
 2508 0518 0F9A     		ldr	r2, [sp, #60]
 2509 051a 12FA83F3 		uxtah	r3, r2, r3
 2510 051e 013B     		subs	r3, r3, #1
 729:lvgl/src/widgets/lv_table.c **** 
 2511              		.loc 1 729 27 view .LVU877
 2512 0520 ADF86831 		strh	r3, [sp, #360]	@ movhi
 2513              	.L55:
 2514              	.LBB200:
 2515              	.LBB198:
 831:lvgl/src/widgets/lv_table.c **** 
 2516              		.loc 1 831 36 discriminator 1 view .LVU878
 2517 0524 0025     		movs	r5, #0
 2518 0526 CDF814B0 		str	fp, [sp, #20]
 2519 052a 54E7     		b	.L81
 2520              	.LVL255:
 2521              	.L53:
 831:lvgl/src/widgets/lv_table.c **** 
 2522              		.loc 1 831 36 discriminator 1 view .LVU879
 2523              	.LBE198:
 2524              	.LBE200:
 2525              	.LBE201:
 860:lvgl/src/widgets/lv_table.c **** }
 2526              		.loc 1 860 25 view .LVU880
 2527 052c 139C     		ldr	r4, [sp, #76]
 2528              	.LVL256:
 860:lvgl/src/widgets/lv_table.c **** }
 2529              		.loc 1 860 5 is_stmt 1 view .LVU881
 860:lvgl/src/widgets/lv_table.c **** }
 2530              		.loc 1 860 25 is_stmt 0 view .LVU882
 2531 052e 079B     		ldr	r3, [sp, #28]
 2532 0530 9C60     		str	r4, [r3, #8]
 2533 0532 78E5     		b	.L49
 2534              		.cfi_endproc
 2535              	.LFE181:
 2537              		.section	.text.lv_table_event,"ax",%progbits
 2538              		.align	1
 2539              		.syntax unified
 2540              		.thumb
 2541              		.thumb_func
 2543              	lv_table_event:
 2544              	.LVL257:
 2545              	.LFB180:
 548:lvgl/src/widgets/lv_table.c ****     LV_UNUSED(class_p);
 2546              		.loc 1 548 1 is_stmt 1 view -0
ARM GAS  /var/folders/21/t9g5rlb91ys800n5npymflf80000gn/T//ccNiYEm1.s 			page 91


 2547              		.cfi_startproc
 2548              		@ args = 0, pretend = 0, frame = 8
 2549              		@ frame_needed = 0, uses_anonymous_args = 0
 548:lvgl/src/widgets/lv_table.c ****     LV_UNUSED(class_p);
 2550              		.loc 1 548 1 is_stmt 0 view .LVU884
 2551 0000 70B5     		push	{r4, r5, r6, lr}
 2552              	.LCFI18:
 2553              		.cfi_def_cfa_offset 16
 2554              		.cfi_offset 4, -16
 2555              		.cfi_offset 5, -12
 2556              		.cfi_offset 6, -8
 2557              		.cfi_offset 14, -4
 2558 0002 82B0     		sub	sp, sp, #8
 2559              	.LCFI19:
 2560              		.cfi_def_cfa_offset 24
 2561 0004 0C46     		mov	r4, r1
 549:lvgl/src/widgets/lv_table.c **** 
 2562              		.loc 1 549 5 is_stmt 1 view .LVU885
 551:lvgl/src/widgets/lv_table.c **** 
 2563              		.loc 1 551 5 view .LVU886
 554:lvgl/src/widgets/lv_table.c ****     if(res != LV_RES_OK) return;
 2564              		.loc 1 554 5 view .LVU887
 554:lvgl/src/widgets/lv_table.c ****     if(res != LV_RES_OK) return;
 2565              		.loc 1 554 11 is_stmt 0 view .LVU888
 2566 0006 9E48     		ldr	r0, .L142
 2567              	.LVL258:
 554:lvgl/src/widgets/lv_table.c ****     if(res != LV_RES_OK) return;
 2568              		.loc 1 554 11 view .LVU889
 2569 0008 FFF7FEFF 		bl	lv_obj_event_base
 2570              	.LVL259:
 555:lvgl/src/widgets/lv_table.c **** 
 2571              		.loc 1 555 5 is_stmt 1 view .LVU890
 555:lvgl/src/widgets/lv_table.c **** 
 2572              		.loc 1 555 7 is_stmt 0 view .LVU891
 2573 000c 0128     		cmp	r0, #1
 2574 000e 01D0     		beq	.L135
 2575              	.LVL260:
 2576              	.L97:
 666:lvgl/src/widgets/lv_table.c **** 
 2577              		.loc 1 666 1 view .LVU892
 2578 0010 02B0     		add	sp, sp, #8
 2579              	.LCFI20:
 2580              		.cfi_remember_state
 2581              		.cfi_def_cfa_offset 16
 2582              		@ sp needed
 2583 0012 70BD     		pop	{r4, r5, r6, pc}
 2584              	.LVL261:
 2585              	.L135:
 2586              	.LCFI21:
 2587              		.cfi_restore_state
 557:lvgl/src/widgets/lv_table.c ****     lv_obj_t * obj = lv_event_get_target(e);
 2588              		.loc 1 557 5 is_stmt 1 view .LVU893
 557:lvgl/src/widgets/lv_table.c ****     lv_obj_t * obj = lv_event_get_target(e);
 2589              		.loc 1 557 28 is_stmt 0 view .LVU894
 2590 0014 2046     		mov	r0, r4
 2591              	.LVL262:
 557:lvgl/src/widgets/lv_table.c ****     lv_obj_t * obj = lv_event_get_target(e);
ARM GAS  /var/folders/21/t9g5rlb91ys800n5npymflf80000gn/T//ccNiYEm1.s 			page 92


 2592              		.loc 1 557 28 view .LVU895
 2593 0016 FFF7FEFF 		bl	lv_event_get_code
 2594              	.LVL263:
 2595 001a 0646     		mov	r6, r0
 2596              	.LVL264:
 558:lvgl/src/widgets/lv_table.c ****     lv_table_t * table = (lv_table_t *)obj;
 2597              		.loc 1 558 5 is_stmt 1 view .LVU896
 558:lvgl/src/widgets/lv_table.c ****     lv_table_t * table = (lv_table_t *)obj;
 2598              		.loc 1 558 22 is_stmt 0 view .LVU897
 2599 001c 2046     		mov	r0, r4
 2600 001e FFF7FEFF 		bl	lv_event_get_target
 2601              	.LVL265:
 2602 0022 0546     		mov	r5, r0
 2603              	.LVL266:
 559:lvgl/src/widgets/lv_table.c **** 
 2604              		.loc 1 559 5 is_stmt 1 view .LVU898
 561:lvgl/src/widgets/lv_table.c ****         refr_size_form_row(obj, 0);
 2605              		.loc 1 561 5 view .LVU899
 561:lvgl/src/widgets/lv_table.c ****         refr_size_form_row(obj, 0);
 2606              		.loc 1 561 7 is_stmt 0 view .LVU900
 2607 0024 2A2E     		cmp	r6, #42
 2608 0026 5DD0     		beq	.L136
 564:lvgl/src/widgets/lv_table.c ****         lv_point_t * p = lv_event_get_param(e);
 2609              		.loc 1 564 10 is_stmt 1 view .LVU901
 2610 0028 013E     		subs	r6, r6, #1
 2611              	.LVL267:
 564:lvgl/src/widgets/lv_table.c ****         lv_point_t * p = lv_event_get_param(e);
 2612              		.loc 1 564 10 is_stmt 0 view .LVU902
 2613 002a 2B2E     		cmp	r6, #43
 2614 002c F0D8     		bhi	.L97
 2615 002e 01A3     		adr	r3, .L101
 2616 0030 53F826F0 		ldr	pc, [r3, r6, lsl #2]
 2617              		.p2align 2
 2618              	.L101:
 2619 0034 2D010000 		.word	.L106+1
 2620 0038 2D010000 		.word	.L106+1
 2621 003c 11000000 		.word	.L97+1
 2622 0040 11000000 		.word	.L97+1
 2623 0044 11000000 		.word	.L97+1
 2624 0048 11000000 		.word	.L97+1
 2625 004c 11000000 		.word	.L97+1
 2626 0050 63010000 		.word	.L105+1
 2627 0054 11000000 		.word	.L97+1
 2628 0058 11000000 		.word	.L97+1
 2629 005c 11000000 		.word	.L97+1
 2630 0060 11000000 		.word	.L97+1
 2631 0064 B5010000 		.word	.L104+1
 2632 0068 AF010000 		.word	.L103+1
 2633 006c 11000000 		.word	.L97+1
 2634 0070 11000000 		.word	.L97+1
 2635 0074 11000000 		.word	.L97+1
 2636 0078 11000000 		.word	.L97+1
 2637 007c 11000000 		.word	.L97+1
 2638 0080 11000000 		.word	.L97+1
 2639 0084 77020000 		.word	.L102+1
 2640 0088 11000000 		.word	.L97+1
 2641 008c 11000000 		.word	.L97+1
ARM GAS  /var/folders/21/t9g5rlb91ys800n5npymflf80000gn/T//ccNiYEm1.s 			page 93


 2642 0090 11000000 		.word	.L97+1
 2643 0094 11000000 		.word	.L97+1
 2644 0098 11000000 		.word	.L97+1
 2645 009c 11000000 		.word	.L97+1
 2646 00a0 11000000 		.word	.L97+1
 2647 00a4 11000000 		.word	.L97+1
 2648 00a8 11000000 		.word	.L97+1
 2649 00ac 11000000 		.word	.L97+1
 2650 00b0 11000000 		.word	.L97+1
 2651 00b4 11000000 		.word	.L97+1
 2652 00b8 11000000 		.word	.L97+1
 2653 00bc 11000000 		.word	.L97+1
 2654 00c0 11000000 		.word	.L97+1
 2655 00c4 11000000 		.word	.L97+1
 2656 00c8 11000000 		.word	.L97+1
 2657 00cc 11000000 		.word	.L97+1
 2658 00d0 11000000 		.word	.L97+1
 2659 00d4 11000000 		.word	.L97+1
 2660 00d8 11000000 		.word	.L97+1
 2661 00dc 11000000 		.word	.L97+1
 2662 00e0 ED000000 		.word	.L100+1
 2663              	.LVL268:
 2664              		.p2align 1
 2665              	.L136:
 562:lvgl/src/widgets/lv_table.c ****     }
 2666              		.loc 1 562 9 is_stmt 1 view .LVU903
 2667 00e4 0021     		movs	r1, #0
 2668 00e6 FFF7FEFF 		bl	refr_size_form_row
 2669              	.LVL269:
 562:lvgl/src/widgets/lv_table.c ****     }
 2670              		.loc 1 562 9 is_stmt 0 view .LVU904
 2671 00ea 91E7     		b	.L97
 2672              	.LVL270:
 2673              	.L100:
 2674              	.LBB202:
 565:lvgl/src/widgets/lv_table.c ****         uint32_t i;
 2675              		.loc 1 565 9 is_stmt 1 view .LVU905
 565:lvgl/src/widgets/lv_table.c ****         uint32_t i;
 2676              		.loc 1 565 26 is_stmt 0 view .LVU906
 2677 00ec 2046     		mov	r0, r4
 2678              	.LVL271:
 565:lvgl/src/widgets/lv_table.c ****         uint32_t i;
 2679              		.loc 1 565 26 view .LVU907
 2680 00ee FFF7FEFF 		bl	lv_event_get_param
 2681              	.LVL272:
 566:lvgl/src/widgets/lv_table.c ****         lv_coord_t w = 0;
 2682              		.loc 1 566 9 is_stmt 1 view .LVU908
 567:lvgl/src/widgets/lv_table.c ****         for(i = 0; i < table->col_cnt; i++) w += table->col_w[i];
 2683              		.loc 1 567 9 view .LVU909
 568:lvgl/src/widgets/lv_table.c **** 
 2684              		.loc 1 568 9 view .LVU910
 567:lvgl/src/widgets/lv_table.c ****         for(i = 0; i < table->col_cnt; i++) w += table->col_w[i];
 2685              		.loc 1 567 20 is_stmt 0 view .LVU911
 2686 00f2 0022     		movs	r2, #0
 568:lvgl/src/widgets/lv_table.c **** 
 2687              		.loc 1 568 15 view .LVU912
 2688 00f4 1346     		mov	r3, r2
ARM GAS  /var/folders/21/t9g5rlb91ys800n5npymflf80000gn/T//ccNiYEm1.s 			page 94


 568:lvgl/src/widgets/lv_table.c **** 
 2689              		.loc 1 568 9 view .LVU913
 2690 00f6 05E0     		b	.L107
 2691              	.LVL273:
 2692              	.L108:
 568:lvgl/src/widgets/lv_table.c **** 
 2693              		.loc 1 568 45 is_stmt 1 discriminator 3 view .LVU914
 568:lvgl/src/widgets/lv_table.c **** 
 2694              		.loc 1 568 55 is_stmt 0 discriminator 3 view .LVU915
 2695 00f8 296B     		ldr	r1, [r5, #48]
 568:lvgl/src/widgets/lv_table.c **** 
 2696              		.loc 1 568 62 discriminator 3 view .LVU916
 2697 00fa 31F81310 		ldrh	r1, [r1, r3, lsl #1]
 568:lvgl/src/widgets/lv_table.c **** 
 2698              		.loc 1 568 47 discriminator 3 view .LVU917
 2699 00fe 0A44     		add	r2, r2, r1
 2700              	.LVL274:
 568:lvgl/src/widgets/lv_table.c **** 
 2701              		.loc 1 568 47 discriminator 3 view .LVU918
 2702 0100 12B2     		sxth	r2, r2
 2703              	.LVL275:
 568:lvgl/src/widgets/lv_table.c **** 
 2704              		.loc 1 568 41 is_stmt 1 discriminator 3 view .LVU919
 2705 0102 0133     		adds	r3, r3, #1
 2706              	.LVL276:
 2707              	.L107:
 568:lvgl/src/widgets/lv_table.c **** 
 2708              		.loc 1 568 22 discriminator 1 view .LVU920
 568:lvgl/src/widgets/lv_table.c **** 
 2709              		.loc 1 568 29 is_stmt 0 discriminator 1 view .LVU921
 2710 0104 A98C     		ldrh	r1, [r5, #36]
 568:lvgl/src/widgets/lv_table.c **** 
 2711              		.loc 1 568 22 discriminator 1 view .LVU922
 2712 0106 9942     		cmp	r1, r3
 2713 0108 F6D8     		bhi	.L108
 570:lvgl/src/widgets/lv_table.c ****         for(i = 0; i < table->row_cnt; i++) h += table->row_h[i];
 2714              		.loc 1 570 20 view .LVU923
 2715 010a 0023     		movs	r3, #0
 2716              	.LVL277:
 571:lvgl/src/widgets/lv_table.c **** 
 2717              		.loc 1 571 15 view .LVU924
 2718 010c 1946     		mov	r1, r3
 2719 010e 05E0     		b	.L109
 2720              	.LVL278:
 2721              	.L110:
 571:lvgl/src/widgets/lv_table.c **** 
 2722              		.loc 1 571 45 is_stmt 1 discriminator 3 view .LVU925
 571:lvgl/src/widgets/lv_table.c **** 
 2723              		.loc 1 571 55 is_stmt 0 discriminator 3 view .LVU926
 2724 0110 EC6A     		ldr	r4, [r5, #44]
 571:lvgl/src/widgets/lv_table.c **** 
 2725              		.loc 1 571 62 discriminator 3 view .LVU927
 2726 0112 34F81140 		ldrh	r4, [r4, r1, lsl #1]
 571:lvgl/src/widgets/lv_table.c **** 
 2727              		.loc 1 571 47 discriminator 3 view .LVU928
 2728 0116 2344     		add	r3, r3, r4
 2729              	.LVL279:
ARM GAS  /var/folders/21/t9g5rlb91ys800n5npymflf80000gn/T//ccNiYEm1.s 			page 95


 571:lvgl/src/widgets/lv_table.c **** 
 2730              		.loc 1 571 47 discriminator 3 view .LVU929
 2731 0118 1BB2     		sxth	r3, r3
 2732              	.LVL280:
 571:lvgl/src/widgets/lv_table.c **** 
 2733              		.loc 1 571 41 is_stmt 1 discriminator 3 view .LVU930
 2734 011a 0131     		adds	r1, r1, #1
 2735              	.LVL281:
 2736              	.L109:
 571:lvgl/src/widgets/lv_table.c **** 
 2737              		.loc 1 571 22 discriminator 1 view .LVU931
 571:lvgl/src/widgets/lv_table.c **** 
 2738              		.loc 1 571 29 is_stmt 0 discriminator 1 view .LVU932
 2739 011c EC8C     		ldrh	r4, [r5, #38]
 571:lvgl/src/widgets/lv_table.c **** 
 2740              		.loc 1 571 22 discriminator 1 view .LVU933
 2741 011e 8C42     		cmp	r4, r1
 2742 0120 F6D8     		bhi	.L110
 573:lvgl/src/widgets/lv_table.c ****         p->y = h - 1;
 2743              		.loc 1 573 9 is_stmt 1 view .LVU934
 573:lvgl/src/widgets/lv_table.c ****         p->y = h - 1;
 2744              		.loc 1 573 18 is_stmt 0 view .LVU935
 2745 0122 013A     		subs	r2, r2, #1
 2746              	.LVL282:
 573:lvgl/src/widgets/lv_table.c ****         p->y = h - 1;
 2747              		.loc 1 573 14 view .LVU936
 2748 0124 0280     		strh	r2, [r0]	@ movhi
 574:lvgl/src/widgets/lv_table.c ****     }
 2749              		.loc 1 574 9 is_stmt 1 view .LVU937
 574:lvgl/src/widgets/lv_table.c ****     }
 2750              		.loc 1 574 18 is_stmt 0 view .LVU938
 2751 0126 013B     		subs	r3, r3, #1
 2752              	.LVL283:
 574:lvgl/src/widgets/lv_table.c ****     }
 2753              		.loc 1 574 14 view .LVU939
 2754 0128 4380     		strh	r3, [r0, #2]	@ movhi
 2755              	.LBE202:
 2756 012a 71E7     		b	.L97
 2757              	.LVL284:
 2758              	.L106:
 2759              	.LBB203:
 577:lvgl/src/widgets/lv_table.c ****         uint16_t row;
 2760              		.loc 1 577 9 is_stmt 1 view .LVU940
 578:lvgl/src/widgets/lv_table.c ****         lv_res_t pr_res = get_pressed_cell(obj, &row, &col);
 2761              		.loc 1 578 9 view .LVU941
 579:lvgl/src/widgets/lv_table.c **** 
 2762              		.loc 1 579 9 view .LVU942
 579:lvgl/src/widgets/lv_table.c **** 
 2763              		.loc 1 579 27 is_stmt 0 view .LVU943
 2764 012c 01AA     		add	r2, sp, #4
 2765 012e 0DF10601 		add	r1, sp, #6
 2766 0132 FFF7FEFF 		bl	get_pressed_cell
 2767              	.LVL285:
 581:lvgl/src/widgets/lv_table.c ****             table->col_act = col;
 2768              		.loc 1 581 9 is_stmt 1 view .LVU944
 581:lvgl/src/widgets/lv_table.c ****             table->col_act = col;
 2769              		.loc 1 581 11 is_stmt 0 view .LVU945
ARM GAS  /var/folders/21/t9g5rlb91ys800n5npymflf80000gn/T//ccNiYEm1.s 			page 96


 2770 0136 0128     		cmp	r0, #1
 2771 0138 7FF46AAF 		bne	.L97
 581:lvgl/src/widgets/lv_table.c ****             table->col_act = col;
 2772              		.loc 1 581 41 discriminator 1 view .LVU946
 2773 013c AA8E     		ldrh	r2, [r5, #52]
 581:lvgl/src/widgets/lv_table.c ****             table->col_act = col;
 2774              		.loc 1 581 51 discriminator 1 view .LVU947
 2775 013e BDF80430 		ldrh	r3, [sp, #4]
 581:lvgl/src/widgets/lv_table.c ****             table->col_act = col;
 2776              		.loc 1 581 32 discriminator 1 view .LVU948
 2777 0142 9A42     		cmp	r2, r3
 2778 0144 05D1     		bne	.L112
 581:lvgl/src/widgets/lv_table.c ****             table->col_act = col;
 2779              		.loc 1 581 66 discriminator 2 view .LVU949
 2780 0146 E98E     		ldrh	r1, [r5, #54]
 581:lvgl/src/widgets/lv_table.c ****             table->col_act = col;
 2781              		.loc 1 581 76 discriminator 2 view .LVU950
 2782 0148 BDF80620 		ldrh	r2, [sp, #6]
 581:lvgl/src/widgets/lv_table.c ****             table->col_act = col;
 2783              		.loc 1 581 58 discriminator 2 view .LVU951
 2784 014c 9142     		cmp	r1, r2
 2785 014e 3FF45FAF 		beq	.L97
 2786              	.L112:
 582:lvgl/src/widgets/lv_table.c ****             table->row_act = row;
 2787              		.loc 1 582 13 is_stmt 1 view .LVU952
 582:lvgl/src/widgets/lv_table.c ****             table->row_act = row;
 2788              		.loc 1 582 28 is_stmt 0 view .LVU953
 2789 0152 AB86     		strh	r3, [r5, #52]	@ movhi
 583:lvgl/src/widgets/lv_table.c ****             lv_obj_invalidate(obj);
 2790              		.loc 1 583 13 is_stmt 1 view .LVU954
 583:lvgl/src/widgets/lv_table.c ****             lv_obj_invalidate(obj);
 2791              		.loc 1 583 28 is_stmt 0 view .LVU955
 2792 0154 BDF80630 		ldrh	r3, [sp, #6]
 2793 0158 EB86     		strh	r3, [r5, #54]	@ movhi
 584:lvgl/src/widgets/lv_table.c ****         }
 2794              		.loc 1 584 13 is_stmt 1 view .LVU956
 2795 015a 2846     		mov	r0, r5
 2796              	.LVL286:
 584:lvgl/src/widgets/lv_table.c ****         }
 2797              		.loc 1 584 13 is_stmt 0 view .LVU957
 2798 015c FFF7FEFF 		bl	lv_obj_invalidate
 2799              	.LVL287:
 2800 0160 56E7     		b	.L97
 2801              	.LVL288:
 2802              	.L105:
 584:lvgl/src/widgets/lv_table.c ****         }
 2803              		.loc 1 584 13 view .LVU958
 2804              	.LBE203:
 2805              	.LBB204:
 588:lvgl/src/widgets/lv_table.c ****         lv_indev_t * indev = lv_indev_get_act();
 2806              		.loc 1 588 9 is_stmt 1 view .LVU959
 2807 0162 FFF7FEFF 		bl	lv_obj_invalidate
 2808              	.LVL289:
 589:lvgl/src/widgets/lv_table.c ****         lv_obj_t * scroll_obj = lv_indev_get_scroll_obj(indev);
 2809              		.loc 1 589 9 view .LVU960
 589:lvgl/src/widgets/lv_table.c ****         lv_obj_t * scroll_obj = lv_indev_get_scroll_obj(indev);
 2810              		.loc 1 589 30 is_stmt 0 view .LVU961
ARM GAS  /var/folders/21/t9g5rlb91ys800n5npymflf80000gn/T//ccNiYEm1.s 			page 97


 2811 0166 FFF7FEFF 		bl	lv_indev_get_act
 2812              	.LVL290:
 590:lvgl/src/widgets/lv_table.c ****         if(table->col_act != LV_TABLE_CELL_NONE && table->row_act != LV_TABLE_CELL_NONE && scroll_o
 2813              		.loc 1 590 9 is_stmt 1 view .LVU962
 590:lvgl/src/widgets/lv_table.c ****         if(table->col_act != LV_TABLE_CELL_NONE && table->row_act != LV_TABLE_CELL_NONE && scroll_o
 2814              		.loc 1 590 33 is_stmt 0 view .LVU963
 2815 016a FFF7FEFF 		bl	lv_indev_get_scroll_obj
 2816              	.LVL291:
 591:lvgl/src/widgets/lv_table.c ****             res = lv_event_send(obj, LV_EVENT_VALUE_CHANGED, NULL);
 2817              		.loc 1 591 9 is_stmt 1 view .LVU964
 591:lvgl/src/widgets/lv_table.c ****             res = lv_event_send(obj, LV_EVENT_VALUE_CHANGED, NULL);
 2818              		.loc 1 591 17 is_stmt 0 view .LVU965
 2819 016e AA8E     		ldrh	r2, [r5, #52]
 591:lvgl/src/widgets/lv_table.c ****             res = lv_event_send(obj, LV_EVENT_VALUE_CHANGED, NULL);
 2820              		.loc 1 591 11 view .LVU966
 2821 0170 4FF6FF73 		movw	r3, #65535
 2822 0174 9A42     		cmp	r2, r3
 2823 0176 03D0     		beq	.L113
 591:lvgl/src/widgets/lv_table.c ****             res = lv_event_send(obj, LV_EVENT_VALUE_CHANGED, NULL);
 2824              		.loc 1 591 57 discriminator 1 view .LVU967
 2825 0178 EA8E     		ldrh	r2, [r5, #54]
 591:lvgl/src/widgets/lv_table.c ****             res = lv_event_send(obj, LV_EVENT_VALUE_CHANGED, NULL);
 2826              		.loc 1 591 49 discriminator 1 view .LVU968
 2827 017a 9A42     		cmp	r2, r3
 2828 017c 00D0     		beq	.L113
 591:lvgl/src/widgets/lv_table.c ****             res = lv_event_send(obj, LV_EVENT_VALUE_CHANGED, NULL);
 2829              		.loc 1 591 89 discriminator 2 view .LVU969
 2830 017e 68B1     		cbz	r0, .L137
 2831              	.LVL292:
 2832              	.L113:
 596:lvgl/src/widgets/lv_table.c ****         if(indev_type == LV_INDEV_TYPE_POINTER || indev_type == LV_INDEV_TYPE_BUTTON) {
 2833              		.loc 1 596 9 is_stmt 1 view .LVU970
 596:lvgl/src/widgets/lv_table.c ****         if(indev_type == LV_INDEV_TYPE_POINTER || indev_type == LV_INDEV_TYPE_BUTTON) {
 2834              		.loc 1 596 56 is_stmt 0 view .LVU971
 2835 0180 FFF7FEFF 		bl	lv_indev_get_act
 2836              	.LVL293:
 596:lvgl/src/widgets/lv_table.c ****         if(indev_type == LV_INDEV_TYPE_POINTER || indev_type == LV_INDEV_TYPE_BUTTON) {
 2837              		.loc 1 596 38 view .LVU972
 2838 0184 FFF7FEFF 		bl	lv_indev_get_type
 2839              	.LVL294:
 597:lvgl/src/widgets/lv_table.c ****             table->col_act = LV_TABLE_CELL_NONE;
 2840              		.loc 1 597 9 is_stmt 1 view .LVU973
 597:lvgl/src/widgets/lv_table.c ****             table->col_act = LV_TABLE_CELL_NONE;
 2841              		.loc 1 597 11 is_stmt 0 view .LVU974
 2842 0188 0128     		cmp	r0, #1
 2843 018a 02D0     		beq	.L114
 597:lvgl/src/widgets/lv_table.c ****             table->col_act = LV_TABLE_CELL_NONE;
 2844              		.loc 1 597 48 discriminator 1 view .LVU975
 2845 018c 0328     		cmp	r0, #3
 2846 018e 7FF43FAF 		bne	.L97
 2847              	.L114:
 598:lvgl/src/widgets/lv_table.c ****             table->row_act = LV_TABLE_CELL_NONE;
 2848              		.loc 1 598 13 is_stmt 1 view .LVU976
 598:lvgl/src/widgets/lv_table.c ****             table->row_act = LV_TABLE_CELL_NONE;
 2849              		.loc 1 598 28 is_stmt 0 view .LVU977
 2850 0192 4FF6FF73 		movw	r3, #65535
 2851 0196 AB86     		strh	r3, [r5, #52]	@ movhi
ARM GAS  /var/folders/21/t9g5rlb91ys800n5npymflf80000gn/T//ccNiYEm1.s 			page 98


 599:lvgl/src/widgets/lv_table.c ****         }
 2852              		.loc 1 599 13 is_stmt 1 view .LVU978
 599:lvgl/src/widgets/lv_table.c ****         }
 2853              		.loc 1 599 28 is_stmt 0 view .LVU979
 2854 0198 EB86     		strh	r3, [r5, #54]	@ movhi
 2855 019a 39E7     		b	.L97
 2856              	.LVL295:
 2857              	.L137:
 592:lvgl/src/widgets/lv_table.c ****             if(res != LV_RES_OK) return;
 2858              		.loc 1 592 13 is_stmt 1 view .LVU980
 592:lvgl/src/widgets/lv_table.c ****             if(res != LV_RES_OK) return;
 2859              		.loc 1 592 19 is_stmt 0 view .LVU981
 2860 019c 0022     		movs	r2, #0
 2861 019e 1C21     		movs	r1, #28
 2862 01a0 2846     		mov	r0, r5
 2863              	.LVL296:
 592:lvgl/src/widgets/lv_table.c ****             if(res != LV_RES_OK) return;
 2864              		.loc 1 592 19 view .LVU982
 2865 01a2 FFF7FEFF 		bl	lv_event_send
 2866              	.LVL297:
 593:lvgl/src/widgets/lv_table.c ****         }
 2867              		.loc 1 593 13 is_stmt 1 view .LVU983
 593:lvgl/src/widgets/lv_table.c ****         }
 2868              		.loc 1 593 15 is_stmt 0 view .LVU984
 2869 01a6 0128     		cmp	r0, #1
 2870 01a8 7FF432AF 		bne	.L97
 2871 01ac E8E7     		b	.L113
 2872              	.LVL298:
 2873              	.L103:
 593:lvgl/src/widgets/lv_table.c ****         }
 2874              		.loc 1 593 15 view .LVU985
 2875              	.LBE204:
 603:lvgl/src/widgets/lv_table.c ****     }
 2876              		.loc 1 603 9 is_stmt 1 view .LVU986
 2877 01ae FFF7FEFF 		bl	lv_obj_invalidate
 2878              	.LVL299:
 603:lvgl/src/widgets/lv_table.c ****     }
 2879              		.loc 1 603 9 is_stmt 0 view .LVU987
 2880 01b2 2DE7     		b	.L97
 2881              	.LVL300:
 2882              	.L104:
 2883              	.LBB205:
 606:lvgl/src/widgets/lv_table.c ****         int32_t col = table->col_act;
 2884              		.loc 1 606 9 is_stmt 1 view .LVU988
 606:lvgl/src/widgets/lv_table.c ****         int32_t col = table->col_act;
 2885              		.loc 1 606 34 is_stmt 0 view .LVU989
 2886 01b4 2046     		mov	r0, r4
 2887              	.LVL301:
 606:lvgl/src/widgets/lv_table.c ****         int32_t col = table->col_act;
 2888              		.loc 1 606 34 view .LVU990
 2889 01b6 FFF7FEFF 		bl	lv_event_get_param
 2890              	.LVL302:
 606:lvgl/src/widgets/lv_table.c ****         int32_t col = table->col_act;
 2891              		.loc 1 606 17 view .LVU991
 2892 01ba 0468     		ldr	r4, [r0]
 2893              	.LVL303:
 607:lvgl/src/widgets/lv_table.c ****         int32_t row = table->row_act;
ARM GAS  /var/folders/21/t9g5rlb91ys800n5npymflf80000gn/T//ccNiYEm1.s 			page 99


 2894              		.loc 1 607 9 is_stmt 1 view .LVU992
 607:lvgl/src/widgets/lv_table.c ****         int32_t row = table->row_act;
 2895              		.loc 1 607 28 is_stmt 0 view .LVU993
 2896 01bc A98E     		ldrh	r1, [r5, #52]
 2897              	.LVL304:
 608:lvgl/src/widgets/lv_table.c ****         if(col == LV_TABLE_CELL_NONE || row == LV_TABLE_CELL_NONE) {
 2898              		.loc 1 608 9 is_stmt 1 view .LVU994
 608:lvgl/src/widgets/lv_table.c ****         if(col == LV_TABLE_CELL_NONE || row == LV_TABLE_CELL_NONE) {
 2899              		.loc 1 608 28 is_stmt 0 view .LVU995
 2900 01be E88E     		ldrh	r0, [r5, #54]
 2901              	.LVL305:
 609:lvgl/src/widgets/lv_table.c ****             table->col_act = 0;
 2902              		.loc 1 609 9 is_stmt 1 view .LVU996
 609:lvgl/src/widgets/lv_table.c ****             table->col_act = 0;
 2903              		.loc 1 609 11 is_stmt 0 view .LVU997
 2904 01c0 4FF6FF73 		movw	r3, #65535
 2905 01c4 9942     		cmp	r1, r3
 2906 01c6 15D0     		beq	.L115
 609:lvgl/src/widgets/lv_table.c ****             table->col_act = 0;
 2907              		.loc 1 609 38 discriminator 1 view .LVU998
 2908 01c8 9842     		cmp	r0, r3
 2909 01ca 13D0     		beq	.L115
 617:lvgl/src/widgets/lv_table.c ****         if(row >= table->row_cnt) row = 0;
 2910              		.loc 1 617 9 is_stmt 1 view .LVU999
 617:lvgl/src/widgets/lv_table.c ****         if(row >= table->row_cnt) row = 0;
 2911              		.loc 1 617 24 is_stmt 0 view .LVU1000
 2912 01cc B5F824C0 		ldrh	ip, [r5, #36]
 617:lvgl/src/widgets/lv_table.c ****         if(row >= table->row_cnt) row = 0;
 2913              		.loc 1 617 11 view .LVU1001
 2914 01d0 6145     		cmp	r1, ip
 2915 01d2 19D2     		bcs	.L129
 607:lvgl/src/widgets/lv_table.c ****         int32_t row = table->row_act;
 2916              		.loc 1 607 17 view .LVU1002
 2917 01d4 0A46     		mov	r2, r1
 2918              	.L117:
 2919              	.LVL306:
 618:lvgl/src/widgets/lv_table.c **** 
 2920              		.loc 1 618 9 is_stmt 1 view .LVU1003
 618:lvgl/src/widgets/lv_table.c **** 
 2921              		.loc 1 618 24 is_stmt 0 view .LVU1004
 2922 01d6 EE8C     		ldrh	r6, [r5, #38]
 618:lvgl/src/widgets/lv_table.c **** 
 2923              		.loc 1 618 11 view .LVU1005
 2924 01d8 B042     		cmp	r0, r6
 2925 01da 17D2     		bcs	.L130
 608:lvgl/src/widgets/lv_table.c ****         if(col == LV_TABLE_CELL_NONE || row == LV_TABLE_CELL_NONE) {
 2926              		.loc 1 608 17 view .LVU1006
 2927 01dc 0346     		mov	r3, r0
 2928              	.L118:
 2929              	.LVL307:
 620:lvgl/src/widgets/lv_table.c ****         else if(c == LV_KEY_RIGHT) col++;
 2930              		.loc 1 620 9 is_stmt 1 view .LVU1007
 620:lvgl/src/widgets/lv_table.c ****         else if(c == LV_KEY_RIGHT) col++;
 2931              		.loc 1 620 11 is_stmt 0 view .LVU1008
 2932 01de 142C     		cmp	r4, #20
 2933 01e0 16D0     		beq	.L138
 621:lvgl/src/widgets/lv_table.c ****         else if(c == LV_KEY_UP) row--;
ARM GAS  /var/folders/21/t9g5rlb91ys800n5npymflf80000gn/T//ccNiYEm1.s 			page 100


 2934              		.loc 1 621 14 is_stmt 1 view .LVU1009
 621:lvgl/src/widgets/lv_table.c ****         else if(c == LV_KEY_UP) row--;
 2935              		.loc 1 621 16 is_stmt 0 view .LVU1010
 2936 01e2 132C     		cmp	r4, #19
 2937 01e4 1DD0     		beq	.L139
 622:lvgl/src/widgets/lv_table.c ****         else if(c == LV_KEY_DOWN) row++;
 2938              		.loc 1 622 14 is_stmt 1 view .LVU1011
 622:lvgl/src/widgets/lv_table.c ****         else if(c == LV_KEY_DOWN) row++;
 2939              		.loc 1 622 16 is_stmt 0 view .LVU1012
 2940 01e6 112C     		cmp	r4, #17
 2941 01e8 1DD0     		beq	.L140
 623:lvgl/src/widgets/lv_table.c ****         else return;
 2942              		.loc 1 623 14 is_stmt 1 view .LVU1013
 623:lvgl/src/widgets/lv_table.c ****         else return;
 2943              		.loc 1 623 16 is_stmt 0 view .LVU1014
 2944 01ea 122C     		cmp	r4, #18
 2945 01ec 7FF410AF 		bne	.L97
 623:lvgl/src/widgets/lv_table.c ****         else return;
 2946              		.loc 1 623 35 is_stmt 1 discriminator 1 view .LVU1015
 623:lvgl/src/widgets/lv_table.c ****         else return;
 2947              		.loc 1 623 38 is_stmt 0 discriminator 1 view .LVU1016
 2948 01f0 0133     		adds	r3, r3, #1
 2949              	.LVL308:
 623:lvgl/src/widgets/lv_table.c ****         else return;
 2950              		.loc 1 623 38 discriminator 1 view .LVU1017
 2951 01f2 0EE0     		b	.L120
 2952              	.LVL309:
 2953              	.L115:
 610:lvgl/src/widgets/lv_table.c ****             table->row_act = 0;
 2954              		.loc 1 610 13 is_stmt 1 view .LVU1018
 610:lvgl/src/widgets/lv_table.c ****             table->row_act = 0;
 2955              		.loc 1 610 28 is_stmt 0 view .LVU1019
 2956 01f4 0023     		movs	r3, #0
 2957 01f6 AB86     		strh	r3, [r5, #52]	@ movhi
 611:lvgl/src/widgets/lv_table.c ****             scroll_to_selected_cell(obj);
 2958              		.loc 1 611 13 is_stmt 1 view .LVU1020
 611:lvgl/src/widgets/lv_table.c ****             scroll_to_selected_cell(obj);
 2959              		.loc 1 611 28 is_stmt 0 view .LVU1021
 2960 01f8 EB86     		strh	r3, [r5, #54]	@ movhi
 612:lvgl/src/widgets/lv_table.c ****             lv_obj_invalidate(obj);
 2961              		.loc 1 612 13 is_stmt 1 view .LVU1022
 2962 01fa 2846     		mov	r0, r5
 2963              	.LVL310:
 612:lvgl/src/widgets/lv_table.c ****             lv_obj_invalidate(obj);
 2964              		.loc 1 612 13 is_stmt 0 view .LVU1023
 2965 01fc FFF7FEFF 		bl	scroll_to_selected_cell
 2966              	.LVL311:
 613:lvgl/src/widgets/lv_table.c ****             return;
 2967              		.loc 1 613 13 is_stmt 1 view .LVU1024
 2968 0200 2846     		mov	r0, r5
 2969 0202 FFF7FEFF 		bl	lv_obj_invalidate
 2970              	.LVL312:
 614:lvgl/src/widgets/lv_table.c ****         }
 2971              		.loc 1 614 13 view .LVU1025
 2972 0206 03E7     		b	.L97
 2973              	.LVL313:
 2974              	.L129:
ARM GAS  /var/folders/21/t9g5rlb91ys800n5npymflf80000gn/T//ccNiYEm1.s 			page 101


 617:lvgl/src/widgets/lv_table.c ****         if(row >= table->row_cnt) row = 0;
 2975              		.loc 1 617 39 is_stmt 0 view .LVU1026
 2976 0208 0022     		movs	r2, #0
 2977 020a E4E7     		b	.L117
 2978              	.LVL314:
 2979              	.L130:
 618:lvgl/src/widgets/lv_table.c **** 
 2980              		.loc 1 618 39 view .LVU1027
 2981 020c 0023     		movs	r3, #0
 2982 020e E6E7     		b	.L118
 2983              	.LVL315:
 2984              	.L138:
 620:lvgl/src/widgets/lv_table.c ****         else if(c == LV_KEY_RIGHT) col++;
 2985              		.loc 1 620 30 is_stmt 1 discriminator 1 view .LVU1028
 620:lvgl/src/widgets/lv_table.c ****         else if(c == LV_KEY_RIGHT) col++;
 2986              		.loc 1 620 33 is_stmt 0 discriminator 1 view .LVU1029
 2987 0210 013A     		subs	r2, r2, #1
 2988              	.LVL316:
 2989              	.L120:
 626:lvgl/src/widgets/lv_table.c ****             if(row < table->row_cnt - 1) {
 2990              		.loc 1 626 9 is_stmt 1 view .LVU1030
 626:lvgl/src/widgets/lv_table.c ****             if(row < table->row_cnt - 1) {
 2991              		.loc 1 626 11 is_stmt 0 view .LVU1031
 2992 0212 9445     		cmp	ip, r2
 2993 0214 0CDC     		bgt	.L123
 627:lvgl/src/widgets/lv_table.c ****                 col = 0;
 2994              		.loc 1 627 13 is_stmt 1 view .LVU1032
 627:lvgl/src/widgets/lv_table.c ****                 col = 0;
 2995              		.loc 1 627 37 is_stmt 0 view .LVU1033
 2996 0216 721E     		subs	r2, r6, #1
 2997              	.LVL317:
 627:lvgl/src/widgets/lv_table.c ****                 col = 0;
 2998              		.loc 1 627 15 view .LVU1034
 2999 0218 9A42     		cmp	r2, r3
 3000 021a 06DD     		ble	.L124
 628:lvgl/src/widgets/lv_table.c ****                 row++;
 3001              		.loc 1 628 17 is_stmt 1 view .LVU1035
 3002              	.LVL318:
 629:lvgl/src/widgets/lv_table.c ****             }
 3003              		.loc 1 629 17 view .LVU1036
 629:lvgl/src/widgets/lv_table.c ****             }
 3004              		.loc 1 629 20 is_stmt 0 view .LVU1037
 3005 021c 0133     		adds	r3, r3, #1
 3006              	.LVL319:
 628:lvgl/src/widgets/lv_table.c ****                 row++;
 3007              		.loc 1 628 21 view .LVU1038
 3008 021e 0022     		movs	r2, #0
 3009 0220 08E0     		b	.L125
 3010              	.LVL320:
 3011              	.L139:
 621:lvgl/src/widgets/lv_table.c ****         else if(c == LV_KEY_UP) row--;
 3012              		.loc 1 621 36 is_stmt 1 discriminator 1 view .LVU1039
 621:lvgl/src/widgets/lv_table.c ****         else if(c == LV_KEY_UP) row--;
 3013              		.loc 1 621 39 is_stmt 0 discriminator 1 view .LVU1040
 3014 0222 0132     		adds	r2, r2, #1
 3015              	.LVL321:
 621:lvgl/src/widgets/lv_table.c ****         else if(c == LV_KEY_UP) row--;
ARM GAS  /var/folders/21/t9g5rlb91ys800n5npymflf80000gn/T//ccNiYEm1.s 			page 102


 3016              		.loc 1 621 39 discriminator 1 view .LVU1041
 3017 0224 F5E7     		b	.L120
 3018              	.L140:
 622:lvgl/src/widgets/lv_table.c ****         else if(c == LV_KEY_DOWN) row++;
 3019              		.loc 1 622 33 is_stmt 1 discriminator 1 view .LVU1042
 622:lvgl/src/widgets/lv_table.c ****         else if(c == LV_KEY_DOWN) row++;
 3020              		.loc 1 622 36 is_stmt 0 discriminator 1 view .LVU1043
 3021 0226 013B     		subs	r3, r3, #1
 3022              	.LVL322:
 622:lvgl/src/widgets/lv_table.c ****         else if(c == LV_KEY_DOWN) row++;
 3023              		.loc 1 622 36 discriminator 1 view .LVU1044
 3024 0228 F3E7     		b	.L120
 3025              	.LVL323:
 3026              	.L124:
 632:lvgl/src/widgets/lv_table.c ****             }
 3027              		.loc 1 632 17 is_stmt 1 view .LVU1045
 632:lvgl/src/widgets/lv_table.c ****             }
 3028              		.loc 1 632 21 is_stmt 0 view .LVU1046
 3029 022a 0CF1FF32 		add	r2, ip, #-1
 3030              	.LVL324:
 632:lvgl/src/widgets/lv_table.c ****             }
 3031              		.loc 1 632 21 view .LVU1047
 3032 022e 01E0     		b	.L125
 3033              	.L123:
 635:lvgl/src/widgets/lv_table.c ****             if(row != 0) {
 3034              		.loc 1 635 14 is_stmt 1 view .LVU1048
 635:lvgl/src/widgets/lv_table.c ****             if(row != 0) {
 3035              		.loc 1 635 16 is_stmt 0 view .LVU1049
 3036 0230 002A     		cmp	r2, #0
 3037 0232 15DB     		blt	.L141
 3038              	.LVL325:
 3039              	.L125:
 645:lvgl/src/widgets/lv_table.c ****             row = table->row_cnt - 1;
 3040              		.loc 1 645 9 is_stmt 1 view .LVU1050
 645:lvgl/src/widgets/lv_table.c ****             row = table->row_cnt - 1;
 3041              		.loc 1 645 11 is_stmt 0 view .LVU1051
 3042 0234 9E42     		cmp	r6, r3
 3043 0236 1ADC     		bgt	.L126
 646:lvgl/src/widgets/lv_table.c ****         }
 3044              		.loc 1 646 13 is_stmt 1 view .LVU1052
 646:lvgl/src/widgets/lv_table.c ****         }
 3045              		.loc 1 646 17 is_stmt 0 view .LVU1053
 3046 0238 731E     		subs	r3, r6, #1
 3047              	.LVL326:
 3048              	.L127:
 652:lvgl/src/widgets/lv_table.c ****             table->col_act = col;
 3049              		.loc 1 652 9 is_stmt 1 view .LVU1054
 652:lvgl/src/widgets/lv_table.c ****             table->col_act = col;
 3050              		.loc 1 652 11 is_stmt 0 view .LVU1055
 3051 023a 8A42     		cmp	r2, r1
 3052 023c 02D1     		bne	.L128
 652:lvgl/src/widgets/lv_table.c ****             table->col_act = col;
 3053              		.loc 1 652 34 discriminator 1 view .LVU1056
 3054 023e 8342     		cmp	r3, r0
 3055 0240 3FF4E6AE 		beq	.L97
 3056              	.L128:
 653:lvgl/src/widgets/lv_table.c ****             table->row_act = row;
ARM GAS  /var/folders/21/t9g5rlb91ys800n5npymflf80000gn/T//ccNiYEm1.s 			page 103


 3057              		.loc 1 653 13 is_stmt 1 view .LVU1057
 653:lvgl/src/widgets/lv_table.c ****             table->row_act = row;
 3058              		.loc 1 653 28 is_stmt 0 view .LVU1058
 3059 0244 AA86     		strh	r2, [r5, #52]	@ movhi
 654:lvgl/src/widgets/lv_table.c ****             lv_obj_invalidate(obj);
 3060              		.loc 1 654 13 is_stmt 1 view .LVU1059
 654:lvgl/src/widgets/lv_table.c ****             lv_obj_invalidate(obj);
 3061              		.loc 1 654 28 is_stmt 0 view .LVU1060
 3062 0246 EB86     		strh	r3, [r5, #54]	@ movhi
 655:lvgl/src/widgets/lv_table.c **** 
 3063              		.loc 1 655 13 is_stmt 1 view .LVU1061
 3064 0248 2846     		mov	r0, r5
 3065 024a FFF7FEFF 		bl	lv_obj_invalidate
 3066              	.LVL327:
 657:lvgl/src/widgets/lv_table.c **** 
 3067              		.loc 1 657 13 view .LVU1062
 3068 024e 2846     		mov	r0, r5
 3069 0250 FFF7FEFF 		bl	scroll_to_selected_cell
 3070              	.LVL328:
 659:lvgl/src/widgets/lv_table.c ****             if(res != LV_RES_OK) return;
 3071              		.loc 1 659 13 view .LVU1063
 659:lvgl/src/widgets/lv_table.c ****             if(res != LV_RES_OK) return;
 3072              		.loc 1 659 19 is_stmt 0 view .LVU1064
 3073 0254 0022     		movs	r2, #0
 3074 0256 1C21     		movs	r1, #28
 3075 0258 2846     		mov	r0, r5
 3076 025a FFF7FEFF 		bl	lv_event_send
 3077              	.LVL329:
 660:lvgl/src/widgets/lv_table.c ****         }
 3078              		.loc 1 660 13 is_stmt 1 view .LVU1065
 3079 025e D7E6     		b	.L97
 3080              	.LVL330:
 3081              	.L141:
 636:lvgl/src/widgets/lv_table.c ****                 col = table->col_cnt - 1;
 3082              		.loc 1 636 13 view .LVU1066
 636:lvgl/src/widgets/lv_table.c ****                 col = table->col_cnt - 1;
 3083              		.loc 1 636 15 is_stmt 0 view .LVU1067
 3084 0260 1BB1     		cbz	r3, .L131
 637:lvgl/src/widgets/lv_table.c ****                 row--;
 3085              		.loc 1 637 17 is_stmt 1 view .LVU1068
 637:lvgl/src/widgets/lv_table.c ****                 row--;
 3086              		.loc 1 637 21 is_stmt 0 view .LVU1069
 3087 0262 0CF1FF32 		add	r2, ip, #-1
 3088              	.LVL331:
 638:lvgl/src/widgets/lv_table.c ****             }
 3089              		.loc 1 638 17 is_stmt 1 view .LVU1070
 638:lvgl/src/widgets/lv_table.c ****             }
 3090              		.loc 1 638 20 is_stmt 0 view .LVU1071
 3091 0266 013B     		subs	r3, r3, #1
 3092              	.LVL332:
 638:lvgl/src/widgets/lv_table.c ****             }
 3093              		.loc 1 638 20 view .LVU1072
 3094 0268 E4E7     		b	.L125
 3095              	.L131:
 641:lvgl/src/widgets/lv_table.c ****             }
 3096              		.loc 1 641 21 view .LVU1073
 3097 026a 1A46     		mov	r2, r3
ARM GAS  /var/folders/21/t9g5rlb91ys800n5npymflf80000gn/T//ccNiYEm1.s 			page 104


 3098              	.LVL333:
 641:lvgl/src/widgets/lv_table.c ****             }
 3099              		.loc 1 641 21 view .LVU1074
 3100 026c E2E7     		b	.L125
 3101              	.LVL334:
 3102              	.L126:
 648:lvgl/src/widgets/lv_table.c ****             row = 0;
 3103              		.loc 1 648 14 is_stmt 1 view .LVU1075
 648:lvgl/src/widgets/lv_table.c ****             row = 0;
 3104              		.loc 1 648 16 is_stmt 0 view .LVU1076
 3105 026e 002B     		cmp	r3, #0
 3106 0270 E3DA     		bge	.L127
 649:lvgl/src/widgets/lv_table.c ****         }
 3107              		.loc 1 649 17 view .LVU1077
 3108 0272 0023     		movs	r3, #0
 3109              	.LVL335:
 649:lvgl/src/widgets/lv_table.c ****         }
 3110              		.loc 1 649 17 view .LVU1078
 3111 0274 E1E7     		b	.L127
 3112              	.LVL336:
 3113              	.L102:
 649:lvgl/src/widgets/lv_table.c ****         }
 3114              		.loc 1 649 17 view .LVU1079
 3115              	.LBE205:
 664:lvgl/src/widgets/lv_table.c ****     }
 3116              		.loc 1 664 9 is_stmt 1 view .LVU1080
 3117 0276 2046     		mov	r0, r4
 3118              	.LVL337:
 664:lvgl/src/widgets/lv_table.c ****     }
 3119              		.loc 1 664 9 is_stmt 0 view .LVU1081
 3120 0278 FFF7FEFF 		bl	draw_main
 3121              	.LVL338:
 3122 027c C8E6     		b	.L97
 3123              	.L143:
 3124 027e 00BF     		.align	2
 3125              	.L142:
 3126 0280 00000000 		.word	lv_table_class
 3127              		.cfi_endproc
 3128              	.LFE180:
 3130              		.section	.text.lv_table_destructor,"ax",%progbits
 3131              		.align	1
 3132              		.syntax unified
 3133              		.thumb
 3134              		.thumb_func
 3136              	lv_table_destructor:
 3137              	.LVL339:
 3138              	.LFB179:
 524:lvgl/src/widgets/lv_table.c ****     LV_UNUSED(class_p);
 3139              		.loc 1 524 1 is_stmt 1 view -0
 3140              		.cfi_startproc
 3141              		@ args = 0, pretend = 0, frame = 0
 3142              		@ frame_needed = 0, uses_anonymous_args = 0
 524:lvgl/src/widgets/lv_table.c ****     LV_UNUSED(class_p);
 3143              		.loc 1 524 1 is_stmt 0 view .LVU1083
 3144 0000 70B5     		push	{r4, r5, r6, lr}
 3145              	.LCFI22:
 3146              		.cfi_def_cfa_offset 16
ARM GAS  /var/folders/21/t9g5rlb91ys800n5npymflf80000gn/T//ccNiYEm1.s 			page 105


 3147              		.cfi_offset 4, -16
 3148              		.cfi_offset 5, -12
 3149              		.cfi_offset 6, -8
 3150              		.cfi_offset 14, -4
 3151 0002 0E46     		mov	r6, r1
 525:lvgl/src/widgets/lv_table.c ****     lv_table_t * table = (lv_table_t *)obj;
 3152              		.loc 1 525 5 is_stmt 1 view .LVU1084
 526:lvgl/src/widgets/lv_table.c ****     /*Free the cell texts*/
 3153              		.loc 1 526 5 view .LVU1085
 3154              	.LVL340:
 528:lvgl/src/widgets/lv_table.c ****     for(i = 0; i < table->col_cnt * table->row_cnt; i++) {
 3155              		.loc 1 528 5 view .LVU1086
 529:lvgl/src/widgets/lv_table.c ****         if(table->cell_data[i]) {
 3156              		.loc 1 529 5 view .LVU1087
 529:lvgl/src/widgets/lv_table.c ****         if(table->cell_data[i]) {
 3157              		.loc 1 529 11 is_stmt 0 view .LVU1088
 3158 0004 0024     		movs	r4, #0
 529:lvgl/src/widgets/lv_table.c ****         if(table->cell_data[i]) {
 3159              		.loc 1 529 5 view .LVU1089
 3160 0006 08E0     		b	.L145
 3161              	.LVL341:
 3162              	.L147:
 537:lvgl/src/widgets/lv_table.c ****             table->cell_data[i] = NULL;
 3163              		.loc 1 537 13 is_stmt 1 view .LVU1090
 537:lvgl/src/widgets/lv_table.c ****             table->cell_data[i] = NULL;
 3164              		.loc 1 537 30 is_stmt 0 view .LVU1091
 3165 0008 B36A     		ldr	r3, [r6, #40]
 537:lvgl/src/widgets/lv_table.c ****             table->cell_data[i] = NULL;
 3166              		.loc 1 537 13 view .LVU1092
 3167 000a 5859     		ldr	r0, [r3, r5]
 3168 000c FFF7FEFF 		bl	lv_mem_free
 3169              	.LVL342:
 538:lvgl/src/widgets/lv_table.c ****         }
 3170              		.loc 1 538 13 is_stmt 1 view .LVU1093
 538:lvgl/src/widgets/lv_table.c ****         }
 3171              		.loc 1 538 18 is_stmt 0 view .LVU1094
 3172 0010 B36A     		ldr	r3, [r6, #40]
 538:lvgl/src/widgets/lv_table.c ****         }
 3173              		.loc 1 538 33 view .LVU1095
 3174 0012 0022     		movs	r2, #0
 3175 0014 5A51     		str	r2, [r3, r5]
 3176              	.L146:
 529:lvgl/src/widgets/lv_table.c ****         if(table->cell_data[i]) {
 3177              		.loc 1 529 54 is_stmt 1 discriminator 2 view .LVU1096
 3178 0016 0134     		adds	r4, r4, #1
 3179              	.LVL343:
 529:lvgl/src/widgets/lv_table.c ****         if(table->cell_data[i]) {
 3180              		.loc 1 529 54 is_stmt 0 discriminator 2 view .LVU1097
 3181 0018 A4B2     		uxth	r4, r4
 3182              	.LVL344:
 3183              	.L145:
 529:lvgl/src/widgets/lv_table.c ****         if(table->cell_data[i]) {
 3184              		.loc 1 529 18 is_stmt 1 discriminator 1 view .LVU1098
 529:lvgl/src/widgets/lv_table.c ****         if(table->cell_data[i]) {
 3185              		.loc 1 529 25 is_stmt 0 discriminator 1 view .LVU1099
 3186 001a B38C     		ldrh	r3, [r6, #36]
 529:lvgl/src/widgets/lv_table.c ****         if(table->cell_data[i]) {
ARM GAS  /var/folders/21/t9g5rlb91ys800n5npymflf80000gn/T//ccNiYEm1.s 			page 106


 3187              		.loc 1 529 42 discriminator 1 view .LVU1100
 3188 001c F28C     		ldrh	r2, [r6, #38]
 529:lvgl/src/widgets/lv_table.c ****         if(table->cell_data[i]) {
 3189              		.loc 1 529 35 discriminator 1 view .LVU1101
 3190 001e 02FB03F3 		mul	r3, r2, r3
 529:lvgl/src/widgets/lv_table.c ****         if(table->cell_data[i]) {
 3191              		.loc 1 529 18 discriminator 1 view .LVU1102
 3192 0022 9C42     		cmp	r4, r3
 3193 0024 0FDA     		bge	.L153
 530:lvgl/src/widgets/lv_table.c **** #if LV_USE_USER_DATA
 3194              		.loc 1 530 9 is_stmt 1 view .LVU1103
 530:lvgl/src/widgets/lv_table.c **** #if LV_USE_USER_DATA
 3195              		.loc 1 530 17 is_stmt 0 view .LVU1104
 3196 0026 B36A     		ldr	r3, [r6, #40]
 530:lvgl/src/widgets/lv_table.c **** #if LV_USE_USER_DATA
 3197              		.loc 1 530 28 view .LVU1105
 3198 0028 A500     		lsls	r5, r4, #2
 3199 002a 53F82430 		ldr	r3, [r3, r4, lsl #2]
 530:lvgl/src/widgets/lv_table.c **** #if LV_USE_USER_DATA
 3200              		.loc 1 530 11 view .LVU1106
 3201 002e 002B     		cmp	r3, #0
 3202 0030 F1D0     		beq	.L146
 532:lvgl/src/widgets/lv_table.c ****                 lv_mem_free(table->cell_data[i]->user_data);
 3203              		.loc 1 532 13 is_stmt 1 view .LVU1107
 532:lvgl/src/widgets/lv_table.c ****                 lv_mem_free(table->cell_data[i]->user_data);
 3204              		.loc 1 532 35 is_stmt 0 view .LVU1108
 3205 0032 5868     		ldr	r0, [r3, #4]
 532:lvgl/src/widgets/lv_table.c ****                 lv_mem_free(table->cell_data[i]->user_data);
 3206              		.loc 1 532 15 view .LVU1109
 3207 0034 0028     		cmp	r0, #0
 3208 0036 E7D0     		beq	.L147
 533:lvgl/src/widgets/lv_table.c ****                 table->cell_data[i]->user_data = NULL;
 3209              		.loc 1 533 17 is_stmt 1 view .LVU1110
 3210 0038 FFF7FEFF 		bl	lv_mem_free
 3211              	.LVL345:
 534:lvgl/src/widgets/lv_table.c ****             }
 3212              		.loc 1 534 17 view .LVU1111
 534:lvgl/src/widgets/lv_table.c ****             }
 3213              		.loc 1 534 22 is_stmt 0 view .LVU1112
 3214 003c B36A     		ldr	r3, [r6, #40]
 534:lvgl/src/widgets/lv_table.c ****             }
 3215              		.loc 1 534 33 view .LVU1113
 3216 003e 5B59     		ldr	r3, [r3, r5]
 534:lvgl/src/widgets/lv_table.c ****             }
 3217              		.loc 1 534 48 view .LVU1114
 3218 0040 0022     		movs	r2, #0
 3219 0042 5A60     		str	r2, [r3, #4]
 3220 0044 E0E7     		b	.L147
 3221              	.L153:
 542:lvgl/src/widgets/lv_table.c ****     if(table->row_h) lv_mem_free(table->row_h);
 3222              		.loc 1 542 5 is_stmt 1 view .LVU1115
 542:lvgl/src/widgets/lv_table.c ****     if(table->row_h) lv_mem_free(table->row_h);
 3223              		.loc 1 542 13 is_stmt 0 view .LVU1116
 3224 0046 B06A     		ldr	r0, [r6, #40]
 542:lvgl/src/widgets/lv_table.c ****     if(table->row_h) lv_mem_free(table->row_h);
 3225              		.loc 1 542 7 view .LVU1117
 3226 0048 08B1     		cbz	r0, .L149
ARM GAS  /var/folders/21/t9g5rlb91ys800n5npymflf80000gn/T//ccNiYEm1.s 			page 107


 542:lvgl/src/widgets/lv_table.c ****     if(table->row_h) lv_mem_free(table->row_h);
 3227              		.loc 1 542 26 is_stmt 1 discriminator 1 view .LVU1118
 3228 004a FFF7FEFF 		bl	lv_mem_free
 3229              	.LVL346:
 3230              	.L149:
 543:lvgl/src/widgets/lv_table.c ****     if(table->col_w) lv_mem_free(table->col_w);
 3231              		.loc 1 543 5 view .LVU1119
 543:lvgl/src/widgets/lv_table.c ****     if(table->col_w) lv_mem_free(table->col_w);
 3232              		.loc 1 543 13 is_stmt 0 view .LVU1120
 3233 004e F06A     		ldr	r0, [r6, #44]
 543:lvgl/src/widgets/lv_table.c ****     if(table->col_w) lv_mem_free(table->col_w);
 3234              		.loc 1 543 7 view .LVU1121
 3235 0050 08B1     		cbz	r0, .L150
 543:lvgl/src/widgets/lv_table.c ****     if(table->col_w) lv_mem_free(table->col_w);
 3236              		.loc 1 543 22 is_stmt 1 discriminator 1 view .LVU1122
 3237 0052 FFF7FEFF 		bl	lv_mem_free
 3238              	.LVL347:
 3239              	.L150:
 544:lvgl/src/widgets/lv_table.c **** }
 3240              		.loc 1 544 5 view .LVU1123
 544:lvgl/src/widgets/lv_table.c **** }
 3241              		.loc 1 544 13 is_stmt 0 view .LVU1124
 3242 0056 306B     		ldr	r0, [r6, #48]
 544:lvgl/src/widgets/lv_table.c **** }
 3243              		.loc 1 544 7 view .LVU1125
 3244 0058 08B1     		cbz	r0, .L144
 544:lvgl/src/widgets/lv_table.c **** }
 3245              		.loc 1 544 22 is_stmt 1 discriminator 1 view .LVU1126
 3246 005a FFF7FEFF 		bl	lv_mem_free
 3247              	.LVL348:
 3248              	.L144:
 545:lvgl/src/widgets/lv_table.c **** 
 3249              		.loc 1 545 1 is_stmt 0 view .LVU1127
 3250 005e 70BD     		pop	{r4, r5, r6, pc}
 545:lvgl/src/widgets/lv_table.c **** 
 3251              		.loc 1 545 1 view .LVU1128
 3252              		.cfi_endproc
 3253              	.LFE179:
 3255              		.section	.text.lv_table_constructor,"ax",%progbits
 3256              		.align	1
 3257              		.syntax unified
 3258              		.thumb
 3259              		.thumb_func
 3261              	lv_table_constructor:
 3262              	.LVL349:
 3263              	.LFB178:
 505:lvgl/src/widgets/lv_table.c ****     LV_UNUSED(class_p);
 3264              		.loc 1 505 1 is_stmt 1 view -0
 3265              		.cfi_startproc
 3266              		@ args = 0, pretend = 0, frame = 0
 3267              		@ frame_needed = 0, uses_anonymous_args = 0
 505:lvgl/src/widgets/lv_table.c ****     LV_UNUSED(class_p);
 3268              		.loc 1 505 1 is_stmt 0 view .LVU1130
 3269 0000 10B5     		push	{r4, lr}
 3270              	.LCFI23:
 3271              		.cfi_def_cfa_offset 8
 3272              		.cfi_offset 4, -8
ARM GAS  /var/folders/21/t9g5rlb91ys800n5npymflf80000gn/T//ccNiYEm1.s 			page 108


 3273              		.cfi_offset 14, -4
 3274 0002 0C46     		mov	r4, r1
 506:lvgl/src/widgets/lv_table.c ****     LV_TRACE_OBJ_CREATE("begin");
 3275              		.loc 1 506 5 is_stmt 1 view .LVU1131
 507:lvgl/src/widgets/lv_table.c **** 
 3276              		.loc 1 507 33 view .LVU1132
 509:lvgl/src/widgets/lv_table.c **** 
 3277              		.loc 1 509 5 view .LVU1133
 3278              	.LVL350:
 511:lvgl/src/widgets/lv_table.c ****     table->row_cnt = 1;
 3279              		.loc 1 511 5 view .LVU1134
 511:lvgl/src/widgets/lv_table.c ****     table->row_cnt = 1;
 3280              		.loc 1 511 20 is_stmt 0 view .LVU1135
 3281 0004 0123     		movs	r3, #1
 3282 0006 8B84     		strh	r3, [r1, #36]	@ movhi
 512:lvgl/src/widgets/lv_table.c ****     table->col_w = lv_mem_alloc(table->col_cnt * sizeof(table->col_w[0]));
 3283              		.loc 1 512 5 is_stmt 1 view .LVU1136
 512:lvgl/src/widgets/lv_table.c ****     table->col_w = lv_mem_alloc(table->col_cnt * sizeof(table->col_w[0]));
 3284              		.loc 1 512 20 is_stmt 0 view .LVU1137
 3285 0008 CB84     		strh	r3, [r1, #38]	@ movhi
 513:lvgl/src/widgets/lv_table.c ****     table->row_h = lv_mem_alloc(table->row_cnt * sizeof(table->row_h[0]));
 3286              		.loc 1 513 5 is_stmt 1 view .LVU1138
 513:lvgl/src/widgets/lv_table.c ****     table->row_h = lv_mem_alloc(table->row_cnt * sizeof(table->row_h[0]));
 3287              		.loc 1 513 20 is_stmt 0 view .LVU1139
 3288 000a 0220     		movs	r0, #2
 3289              	.LVL351:
 513:lvgl/src/widgets/lv_table.c ****     table->row_h = lv_mem_alloc(table->row_cnt * sizeof(table->row_h[0]));
 3290              		.loc 1 513 20 view .LVU1140
 3291 000c FFF7FEFF 		bl	lv_mem_alloc
 3292              	.LVL352:
 513:lvgl/src/widgets/lv_table.c ****     table->row_h = lv_mem_alloc(table->row_cnt * sizeof(table->row_h[0]));
 3293              		.loc 1 513 18 view .LVU1141
 3294 0010 2063     		str	r0, [r4, #48]
 514:lvgl/src/widgets/lv_table.c ****     table->col_w[0] = LV_DPI_DEF;
 3295              		.loc 1 514 5 is_stmt 1 view .LVU1142
 514:lvgl/src/widgets/lv_table.c ****     table->col_w[0] = LV_DPI_DEF;
 3296              		.loc 1 514 38 is_stmt 0 view .LVU1143
 3297 0012 E08C     		ldrh	r0, [r4, #38]
 514:lvgl/src/widgets/lv_table.c ****     table->col_w[0] = LV_DPI_DEF;
 3298              		.loc 1 514 20 view .LVU1144
 3299 0014 4000     		lsls	r0, r0, #1
 3300 0016 FFF7FEFF 		bl	lv_mem_alloc
 3301              	.LVL353:
 514:lvgl/src/widgets/lv_table.c ****     table->col_w[0] = LV_DPI_DEF;
 3302              		.loc 1 514 18 view .LVU1145
 3303 001a E062     		str	r0, [r4, #44]
 515:lvgl/src/widgets/lv_table.c ****     table->row_h[0] = LV_DPI_DEF;
 3304              		.loc 1 515 5 is_stmt 1 view .LVU1146
 515:lvgl/src/widgets/lv_table.c ****     table->row_h[0] = LV_DPI_DEF;
 3305              		.loc 1 515 10 is_stmt 0 view .LVU1147
 3306 001c 226B     		ldr	r2, [r4, #48]
 515:lvgl/src/widgets/lv_table.c ****     table->row_h[0] = LV_DPI_DEF;
 3307              		.loc 1 515 21 view .LVU1148
 3308 001e 8223     		movs	r3, #130
 3309 0020 1380     		strh	r3, [r2]	@ movhi
 516:lvgl/src/widgets/lv_table.c ****     table->cell_data = lv_mem_realloc(table->cell_data, table->row_cnt * table->col_cnt * sizeof(lv
 3310              		.loc 1 516 5 is_stmt 1 view .LVU1149
ARM GAS  /var/folders/21/t9g5rlb91ys800n5npymflf80000gn/T//ccNiYEm1.s 			page 109


 516:lvgl/src/widgets/lv_table.c ****     table->cell_data = lv_mem_realloc(table->cell_data, table->row_cnt * table->col_cnt * sizeof(lv
 3311              		.loc 1 516 10 is_stmt 0 view .LVU1150
 3312 0022 E26A     		ldr	r2, [r4, #44]
 516:lvgl/src/widgets/lv_table.c ****     table->cell_data = lv_mem_realloc(table->cell_data, table->row_cnt * table->col_cnt * sizeof(lv
 3313              		.loc 1 516 21 view .LVU1151
 3314 0024 1380     		strh	r3, [r2]	@ movhi
 517:lvgl/src/widgets/lv_table.c ****     table->cell_data[0] = NULL;
 3315              		.loc 1 517 5 is_stmt 1 view .LVU1152
 517:lvgl/src/widgets/lv_table.c ****     table->cell_data[0] = NULL;
 3316              		.loc 1 517 62 is_stmt 0 view .LVU1153
 3317 0026 E18C     		ldrh	r1, [r4, #38]
 517:lvgl/src/widgets/lv_table.c ****     table->cell_data[0] = NULL;
 3318              		.loc 1 517 79 view .LVU1154
 3319 0028 A38C     		ldrh	r3, [r4, #36]
 517:lvgl/src/widgets/lv_table.c ****     table->cell_data[0] = NULL;
 3320              		.loc 1 517 72 view .LVU1155
 3321 002a 03FB01F1 		mul	r1, r3, r1
 517:lvgl/src/widgets/lv_table.c ****     table->cell_data[0] = NULL;
 3322              		.loc 1 517 24 view .LVU1156
 3323 002e 8900     		lsls	r1, r1, #2
 3324 0030 A06A     		ldr	r0, [r4, #40]
 3325 0032 FFF7FEFF 		bl	lv_mem_realloc
 3326              	.LVL354:
 517:lvgl/src/widgets/lv_table.c ****     table->cell_data[0] = NULL;
 3327              		.loc 1 517 22 view .LVU1157
 3328 0036 A062     		str	r0, [r4, #40]
 518:lvgl/src/widgets/lv_table.c **** 
 3329              		.loc 1 518 5 is_stmt 1 view .LVU1158
 518:lvgl/src/widgets/lv_table.c **** 
 3330              		.loc 1 518 25 is_stmt 0 view .LVU1159
 3331 0038 0023     		movs	r3, #0
 3332 003a 0360     		str	r3, [r0]
 520:lvgl/src/widgets/lv_table.c **** }
 3333              		.loc 1 520 36 is_stmt 1 view .LVU1160
 521:lvgl/src/widgets/lv_table.c **** 
 3334              		.loc 1 521 1 is_stmt 0 view .LVU1161
 3335 003c 10BD     		pop	{r4, pc}
 521:lvgl/src/widgets/lv_table.c **** 
 3336              		.loc 1 521 1 view .LVU1162
 3337              		.cfi_endproc
 3338              	.LFE178:
 3340              		.section	.text.get_cell_txt_len,"ax",%progbits
 3341              		.align	1
 3342              		.syntax unified
 3343              		.thumb
 3344              		.thumb_func
 3346              	get_cell_txt_len:
 3347              	.LVL355:
 3348              	.LFB186:
1042:lvgl/src/widgets/lv_table.c ****     size_t retval = 0;
 3349              		.loc 1 1042 1 is_stmt 1 view -0
 3350              		.cfi_startproc
 3351              		@ args = 0, pretend = 0, frame = 0
 3352              		@ frame_needed = 0, uses_anonymous_args = 0
1042:lvgl/src/widgets/lv_table.c ****     size_t retval = 0;
 3353              		.loc 1 1042 1 is_stmt 0 view .LVU1164
 3354 0000 08B5     		push	{r3, lr}
ARM GAS  /var/folders/21/t9g5rlb91ys800n5npymflf80000gn/T//ccNiYEm1.s 			page 110


 3355              	.LCFI24:
 3356              		.cfi_def_cfa_offset 8
 3357              		.cfi_offset 3, -8
 3358              		.cfi_offset 14, -4
1043:lvgl/src/widgets/lv_table.c **** 
 3359              		.loc 1 1043 5 is_stmt 1 view .LVU1165
 3360              	.LVL356:
1048:lvgl/src/widgets/lv_table.c **** #endif
 3361              		.loc 1 1048 5 view .LVU1166
1048:lvgl/src/widgets/lv_table.c **** #endif
 3362              		.loc 1 1048 40 is_stmt 0 view .LVU1167
 3363 0002 FFF7FEFF 		bl	strlen
 3364              	.LVL357:
1051:lvgl/src/widgets/lv_table.c **** }
 3365              		.loc 1 1051 5 is_stmt 1 view .LVU1168
1052:lvgl/src/widgets/lv_table.c **** 
 3366              		.loc 1 1052 1 is_stmt 0 view .LVU1169
 3367 0006 0930     		adds	r0, r0, #9
 3368              	.LVL358:
1052:lvgl/src/widgets/lv_table.c **** 
 3369              		.loc 1 1052 1 view .LVU1170
 3370 0008 08BD     		pop	{r3, pc}
 3371              		.cfi_endproc
 3372              	.LFE186:
 3374              		.section	.text.copy_cell_txt,"ax",%progbits
 3375              		.align	1
 3376              		.syntax unified
 3377              		.thumb
 3378              		.thumb_func
 3380              	copy_cell_txt:
 3381              	.LVL359:
 3382              	.LFB187:
1056:lvgl/src/widgets/lv_table.c **** #if LV_USE_ARABIC_PERSIAN_CHARS
 3383              		.loc 1 1056 1 is_stmt 1 view -0
 3384              		.cfi_startproc
 3385              		@ args = 0, pretend = 0, frame = 0
 3386              		@ frame_needed = 0, uses_anonymous_args = 0
1056:lvgl/src/widgets/lv_table.c **** #if LV_USE_ARABIC_PERSIAN_CHARS
 3387              		.loc 1 1056 1 is_stmt 0 view .LVU1172
 3388 0000 08B5     		push	{r3, lr}
 3389              	.LCFI25:
 3390              		.cfi_def_cfa_offset 8
 3391              		.cfi_offset 3, -8
 3392              		.cfi_offset 14, -4
1060:lvgl/src/widgets/lv_table.c **** #endif
 3393              		.loc 1 1060 5 is_stmt 1 view .LVU1173
 3394 0002 0830     		adds	r0, r0, #8
 3395              	.LVL360:
1060:lvgl/src/widgets/lv_table.c **** #endif
 3396              		.loc 1 1060 5 is_stmt 0 view .LVU1174
 3397 0004 FFF7FEFF 		bl	strcpy
 3398              	.LVL361:
1062:lvgl/src/widgets/lv_table.c **** 
 3399              		.loc 1 1062 1 view .LVU1175
 3400 0008 08BD     		pop	{r3, pc}
 3401              		.cfi_endproc
 3402              	.LFE187:
ARM GAS  /var/folders/21/t9g5rlb91ys800n5npymflf80000gn/T//ccNiYEm1.s 			page 111


 3404              		.section	.text.refr_cell_size,"ax",%progbits
 3405              		.align	1
 3406              		.syntax unified
 3407              		.thumb
 3408              		.thumb_func
 3410              	refr_cell_size:
 3411              	.LVL362:
 3412              	.LFB183:
 891:lvgl/src/widgets/lv_table.c ****     const lv_coord_t cell_pad_left = lv_obj_get_style_pad_left(obj, LV_PART_ITEMS);
 3413              		.loc 1 891 1 is_stmt 1 view -0
 3414              		.cfi_startproc
 3415              		@ args = 0, pretend = 0, frame = 32
 3416              		@ frame_needed = 0, uses_anonymous_args = 0
 891:lvgl/src/widgets/lv_table.c ****     const lv_coord_t cell_pad_left = lv_obj_get_style_pad_left(obj, LV_PART_ITEMS);
 3417              		.loc 1 891 1 is_stmt 0 view .LVU1177
 3418 0000 2DE9F04F 		push	{r4, r5, r6, r7, r8, r9, r10, fp, lr}
 3419              	.LCFI26:
 3420              		.cfi_def_cfa_offset 36
 3421              		.cfi_offset 4, -36
 3422              		.cfi_offset 5, -32
 3423              		.cfi_offset 6, -28
 3424              		.cfi_offset 7, -24
 3425              		.cfi_offset 8, -20
 3426              		.cfi_offset 9, -16
 3427              		.cfi_offset 10, -12
 3428              		.cfi_offset 11, -8
 3429              		.cfi_offset 14, -4
 3430 0004 8FB0     		sub	sp, sp, #60
 3431              	.LCFI27:
 3432              		.cfi_def_cfa_offset 96
 3433 0006 0446     		mov	r4, r0
 3434 0008 0D46     		mov	r5, r1
 3435 000a 0B92     		str	r2, [sp, #44]
 892:lvgl/src/widgets/lv_table.c ****     const lv_coord_t cell_pad_right = lv_obj_get_style_pad_right(obj, LV_PART_ITEMS);
 3436              		.loc 1 892 5 is_stmt 1 view .LVU1178
 3437              	.LVL363:
 3438              	.LBB206:
 3439              	.LBI206:
 115:lvgl/src/widgets/../core/lv_obj_style_gen.h **** {
 3440              		.loc 3 115 26 view .LVU1179
 3441              	.LBB207:
 117:lvgl/src/widgets/../core/lv_obj_style_gen.h ****     return (lv_coord_t)v.num;
 3442              		.loc 3 117 5 view .LVU1180
 117:lvgl/src/widgets/../core/lv_obj_style_gen.h ****     return (lv_coord_t)v.num;
 3443              		.loc 3 117 26 is_stmt 0 view .LVU1181
 3444 000c 1222     		movs	r2, #18
 3445              	.LVL364:
 117:lvgl/src/widgets/../core/lv_obj_style_gen.h ****     return (lv_coord_t)v.num;
 3446              		.loc 3 117 26 view .LVU1182
 3447 000e 4FF4A021 		mov	r1, #327680
 3448              	.LVL365:
 117:lvgl/src/widgets/../core/lv_obj_style_gen.h ****     return (lv_coord_t)v.num;
 3449              		.loc 3 117 26 view .LVU1183
 3450 0012 FFF7FEFF 		bl	lv_obj_get_style_prop
 3451              	.LVL366:
 118:lvgl/src/widgets/../core/lv_obj_style_gen.h **** }
 3452              		.loc 3 118 5 is_stmt 1 view .LVU1184
ARM GAS  /var/folders/21/t9g5rlb91ys800n5npymflf80000gn/T//ccNiYEm1.s 			page 112


 118:lvgl/src/widgets/../core/lv_obj_style_gen.h **** }
 3453              		.loc 3 118 12 is_stmt 0 view .LVU1185
 3454 0016 03B2     		sxth	r3, r0
 3455 0018 0993     		str	r3, [sp, #36]
 3456              	.LVL367:
 118:lvgl/src/widgets/../core/lv_obj_style_gen.h **** }
 3457              		.loc 3 118 12 view .LVU1186
 3458              	.LBE207:
 3459              	.LBE206:
 893:lvgl/src/widgets/lv_table.c ****     const lv_coord_t cell_pad_top = lv_obj_get_style_pad_top(obj, LV_PART_ITEMS);
 3460              		.loc 1 893 5 is_stmt 1 view .LVU1187
 3461              	.LBB208:
 3462              	.LBI208:
 121:lvgl/src/widgets/../core/lv_obj_style_gen.h **** {
 3463              		.loc 3 121 26 view .LVU1188
 3464              	.LBB209:
 123:lvgl/src/widgets/../core/lv_obj_style_gen.h ****     return (lv_coord_t)v.num;
 3465              		.loc 3 123 5 view .LVU1189
 123:lvgl/src/widgets/../core/lv_obj_style_gen.h ****     return (lv_coord_t)v.num;
 3466              		.loc 3 123 26 is_stmt 0 view .LVU1190
 3467 001a 1322     		movs	r2, #19
 3468 001c 4FF4A021 		mov	r1, #327680
 3469 0020 2046     		mov	r0, r4
 3470 0022 FFF7FEFF 		bl	lv_obj_get_style_prop
 3471              	.LVL368:
 124:lvgl/src/widgets/../core/lv_obj_style_gen.h **** }
 3472              		.loc 3 124 5 is_stmt 1 view .LVU1191
 124:lvgl/src/widgets/../core/lv_obj_style_gen.h **** }
 3473              		.loc 3 124 12 is_stmt 0 view .LVU1192
 3474 0026 0FFA80F8 		sxth	r8, r0
 3475              	.LVL369:
 124:lvgl/src/widgets/../core/lv_obj_style_gen.h **** }
 3476              		.loc 3 124 12 view .LVU1193
 3477              	.LBE209:
 3478              	.LBE208:
 894:lvgl/src/widgets/lv_table.c ****     const lv_coord_t cell_pad_bottom = lv_obj_get_style_pad_bottom(obj, LV_PART_ITEMS);
 3479              		.loc 1 894 5 is_stmt 1 view .LVU1194
 3480              	.LBB210:
 3481              	.LBI210:
 103:lvgl/src/widgets/../core/lv_obj_style_gen.h **** {
 3482              		.loc 3 103 26 view .LVU1195
 3483              	.LBB211:
 105:lvgl/src/widgets/../core/lv_obj_style_gen.h ****     return (lv_coord_t)v.num;
 3484              		.loc 3 105 5 view .LVU1196
 105:lvgl/src/widgets/../core/lv_obj_style_gen.h ****     return (lv_coord_t)v.num;
 3485              		.loc 3 105 26 is_stmt 0 view .LVU1197
 3486 002a 1022     		movs	r2, #16
 3487 002c 4FF4A021 		mov	r1, #327680
 3488 0030 2046     		mov	r0, r4
 3489 0032 FFF7FEFF 		bl	lv_obj_get_style_prop
 3490              	.LVL370:
 106:lvgl/src/widgets/../core/lv_obj_style_gen.h **** }
 3491              		.loc 3 106 5 is_stmt 1 view .LVU1198
 106:lvgl/src/widgets/../core/lv_obj_style_gen.h **** }
 3492              		.loc 3 106 12 is_stmt 0 view .LVU1199
 3493 0036 0FFA80F9 		sxth	r9, r0
 3494              	.LVL371:
ARM GAS  /var/folders/21/t9g5rlb91ys800n5npymflf80000gn/T//ccNiYEm1.s 			page 113


 106:lvgl/src/widgets/../core/lv_obj_style_gen.h **** }
 3495              		.loc 3 106 12 view .LVU1200
 3496              	.LBE211:
 3497              	.LBE210:
 895:lvgl/src/widgets/lv_table.c **** 
 3498              		.loc 1 895 5 is_stmt 1 view .LVU1201
 3499              	.LBB212:
 3500              	.LBI212:
 109:lvgl/src/widgets/../core/lv_obj_style_gen.h **** {
 3501              		.loc 3 109 26 view .LVU1202
 3502              	.LBB213:
 111:lvgl/src/widgets/../core/lv_obj_style_gen.h ****     return (lv_coord_t)v.num;
 3503              		.loc 3 111 5 view .LVU1203
 111:lvgl/src/widgets/../core/lv_obj_style_gen.h ****     return (lv_coord_t)v.num;
 3504              		.loc 3 111 26 is_stmt 0 view .LVU1204
 3505 003a 1122     		movs	r2, #17
 3506 003c 4FF4A021 		mov	r1, #327680
 3507 0040 2046     		mov	r0, r4
 3508 0042 FFF7FEFF 		bl	lv_obj_get_style_prop
 3509              	.LVL372:
 112:lvgl/src/widgets/../core/lv_obj_style_gen.h **** }
 3510              		.loc 3 112 5 is_stmt 1 view .LVU1205
 112:lvgl/src/widgets/../core/lv_obj_style_gen.h **** }
 3511              		.loc 3 112 12 is_stmt 0 view .LVU1206
 3512 0046 0FFA80FA 		sxth	r10, r0
 3513              	.LVL373:
 112:lvgl/src/widgets/../core/lv_obj_style_gen.h **** }
 3514              		.loc 3 112 12 view .LVU1207
 3515              	.LBE213:
 3516              	.LBE212:
 897:lvgl/src/widgets/lv_table.c ****     lv_coord_t line_space = lv_obj_get_style_text_line_space(obj, LV_PART_ITEMS);
 3517              		.loc 1 897 5 is_stmt 1 view .LVU1208
 3518              	.LBB214:
 3519              	.LBI214:
 469:lvgl/src/widgets/../core/lv_obj_style_gen.h **** {
 3520              		.loc 3 469 26 view .LVU1209
 3521              	.LBB215:
 471:lvgl/src/widgets/../core/lv_obj_style_gen.h ****     return (lv_coord_t)v.num;
 3522              		.loc 3 471 5 view .LVU1210
 471:lvgl/src/widgets/../core/lv_obj_style_gen.h ****     return (lv_coord_t)v.num;
 3523              		.loc 3 471 26 is_stmt 0 view .LVU1211
 3524 004a 5822     		movs	r2, #88
 3525 004c 4FF4A021 		mov	r1, #327680
 3526 0050 2046     		mov	r0, r4
 3527 0052 FFF7FEFF 		bl	lv_obj_get_style_prop
 3528              	.LVL374:
 472:lvgl/src/widgets/../core/lv_obj_style_gen.h **** }
 3529              		.loc 3 472 5 is_stmt 1 view .LVU1212
 472:lvgl/src/widgets/../core/lv_obj_style_gen.h **** }
 3530              		.loc 3 472 12 is_stmt 0 view .LVU1213
 3531 0056 02B2     		sxth	r2, r0
 3532 0058 0892     		str	r2, [sp, #32]
 3533              	.LVL375:
 472:lvgl/src/widgets/../core/lv_obj_style_gen.h **** }
 3534              		.loc 3 472 12 view .LVU1214
 3535              	.LBE215:
 3536              	.LBE214:
ARM GAS  /var/folders/21/t9g5rlb91ys800n5npymflf80000gn/T//ccNiYEm1.s 			page 114


 898:lvgl/src/widgets/lv_table.c ****     const lv_font_t * font = lv_obj_get_style_text_font(obj, LV_PART_ITEMS);
 3537              		.loc 1 898 5 is_stmt 1 view .LVU1215
 3538              	.LBB216:
 3539              	.LBI216:
 475:lvgl/src/widgets/../core/lv_obj_style_gen.h **** {
 3540              		.loc 3 475 26 view .LVU1216
 3541              	.LBB217:
 477:lvgl/src/widgets/../core/lv_obj_style_gen.h ****     return (lv_coord_t)v.num;
 3542              		.loc 3 477 5 view .LVU1217
 477:lvgl/src/widgets/../core/lv_obj_style_gen.h ****     return (lv_coord_t)v.num;
 3543              		.loc 3 477 26 is_stmt 0 view .LVU1218
 3544 005a 5922     		movs	r2, #89
 3545 005c 4FF4A021 		mov	r1, #327680
 3546 0060 2046     		mov	r0, r4
 3547 0062 FFF7FEFF 		bl	lv_obj_get_style_prop
 3548              	.LVL376:
 478:lvgl/src/widgets/../core/lv_obj_style_gen.h **** }
 3549              		.loc 3 478 5 is_stmt 1 view .LVU1219
 478:lvgl/src/widgets/../core/lv_obj_style_gen.h **** }
 3550              		.loc 3 478 12 is_stmt 0 view .LVU1220
 3551 0066 00B2     		sxth	r0, r0
 3552 0068 0790     		str	r0, [sp, #28]
 3553              	.LVL377:
 478:lvgl/src/widgets/../core/lv_obj_style_gen.h **** }
 3554              		.loc 3 478 12 view .LVU1221
 3555              	.LBE217:
 3556              	.LBE216:
 899:lvgl/src/widgets/lv_table.c **** 
 3557              		.loc 1 899 5 is_stmt 1 view .LVU1222
 3558              	.LBB218:
 3559              	.LBI218:
 463:lvgl/src/widgets/../core/lv_obj_style_gen.h **** {
 3560              		.loc 3 463 33 view .LVU1223
 3561              	.LBB219:
 465:lvgl/src/widgets/../core/lv_obj_style_gen.h ****     return (const lv_font_t *)v.ptr;
 3562              		.loc 3 465 5 view .LVU1224
 465:lvgl/src/widgets/../core/lv_obj_style_gen.h ****     return (const lv_font_t *)v.ptr;
 3563              		.loc 3 465 26 is_stmt 0 view .LVU1225
 3564 006a 5722     		movs	r2, #87
 3565 006c 4FF4A021 		mov	r1, #327680
 3566 0070 2046     		mov	r0, r4
 3567 0072 FFF7FEFF 		bl	lv_obj_get_style_prop
 3568              	.LVL378:
 3569 0076 0A90     		str	r0, [sp, #40]
 466:lvgl/src/widgets/../core/lv_obj_style_gen.h **** }
 3570              		.loc 3 466 5 is_stmt 1 view .LVU1226
 3571              	.LVL379:
 466:lvgl/src/widgets/../core/lv_obj_style_gen.h **** }
 3572              		.loc 3 466 5 is_stmt 0 view .LVU1227
 3573              	.LBE219:
 3574              	.LBE218:
 901:lvgl/src/widgets/lv_table.c ****     const lv_coord_t maxh = lv_obj_get_style_max_height(obj, LV_PART_ITEMS);
 3575              		.loc 1 901 5 is_stmt 1 view .LVU1228
 3576              	.LBB220:
 3577              	.LBI220:
  25:lvgl/src/widgets/../core/lv_obj_style_gen.h **** {
 3578              		.loc 3 25 26 view .LVU1229
ARM GAS  /var/folders/21/t9g5rlb91ys800n5npymflf80000gn/T//ccNiYEm1.s 			page 115


 3579              	.LBB221:
  27:lvgl/src/widgets/../core/lv_obj_style_gen.h ****     return (lv_coord_t)v.num;
 3580              		.loc 3 27 5 view .LVU1230
  27:lvgl/src/widgets/../core/lv_obj_style_gen.h ****     return (lv_coord_t)v.num;
 3581              		.loc 3 27 26 is_stmt 0 view .LVU1231
 3582 0078 0522     		movs	r2, #5
 3583 007a 4FF4A021 		mov	r1, #327680
 3584 007e 2046     		mov	r0, r4
 3585              	.LVL380:
  27:lvgl/src/widgets/../core/lv_obj_style_gen.h ****     return (lv_coord_t)v.num;
 3586              		.loc 3 27 26 view .LVU1232
 3587 0080 FFF7FEFF 		bl	lv_obj_get_style_prop
 3588              	.LVL381:
  28:lvgl/src/widgets/../core/lv_obj_style_gen.h **** }
 3589              		.loc 3 28 5 is_stmt 1 view .LVU1233
  28:lvgl/src/widgets/../core/lv_obj_style_gen.h **** }
 3590              		.loc 3 28 12 is_stmt 0 view .LVU1234
 3591 0084 06B2     		sxth	r6, r0
 3592              	.LVL382:
  28:lvgl/src/widgets/../core/lv_obj_style_gen.h **** }
 3593              		.loc 3 28 12 view .LVU1235
 3594              	.LBE221:
 3595              	.LBE220:
 902:lvgl/src/widgets/lv_table.c **** 
 3596              		.loc 1 902 5 is_stmt 1 view .LVU1236
 3597              	.LBB222:
 3598              	.LBI222:
  31:lvgl/src/widgets/../core/lv_obj_style_gen.h **** {
 3599              		.loc 3 31 26 view .LVU1237
 3600              	.LBB223:
  33:lvgl/src/widgets/../core/lv_obj_style_gen.h ****     return (lv_coord_t)v.num;
 3601              		.loc 3 33 5 view .LVU1238
  33:lvgl/src/widgets/../core/lv_obj_style_gen.h ****     return (lv_coord_t)v.num;
 3602              		.loc 3 33 26 is_stmt 0 view .LVU1239
 3603 0086 0622     		movs	r2, #6
 3604 0088 4FF4A021 		mov	r1, #327680
 3605 008c 2046     		mov	r0, r4
 3606 008e FFF7FEFF 		bl	lv_obj_get_style_prop
 3607              	.LVL383:
  34:lvgl/src/widgets/../core/lv_obj_style_gen.h **** }
 3608              		.loc 3 34 5 is_stmt 1 view .LVU1240
  34:lvgl/src/widgets/../core/lv_obj_style_gen.h **** }
 3609              		.loc 3 34 12 is_stmt 0 view .LVU1241
 3610 0092 07B2     		sxth	r7, r0
 3611              	.LVL384:
  34:lvgl/src/widgets/../core/lv_obj_style_gen.h **** }
 3612              		.loc 3 34 12 view .LVU1242
 3613              	.LBE223:
 3614              	.LBE222:
 904:lvgl/src/widgets/lv_table.c ****     lv_coord_t calculated_height = get_row_height(obj, row, font, letter_space, line_space,
 3615              		.loc 1 904 5 is_stmt 1 view .LVU1243
 905:lvgl/src/widgets/lv_table.c ****                                                   cell_pad_left, cell_pad_right, cell_pad_top, cell
 3616              		.loc 1 905 5 view .LVU1244
 905:lvgl/src/widgets/lv_table.c ****                                                   cell_pad_left, cell_pad_right, cell_pad_top, cell
 3617              		.loc 1 905 36 is_stmt 0 view .LVU1245
 3618 0094 1FFA85FB 		uxth	fp, r5
 3619 0098 CDF810A0 		str	r10, [sp, #16]
ARM GAS  /var/folders/21/t9g5rlb91ys800n5npymflf80000gn/T//ccNiYEm1.s 			page 116


 3620 009c CDF80C90 		str	r9, [sp, #12]
 3621 00a0 CDF80880 		str	r8, [sp, #8]
 3622 00a4 0999     		ldr	r1, [sp, #36]
 3623 00a6 0191     		str	r1, [sp, #4]
 3624 00a8 0799     		ldr	r1, [sp, #28]
 3625 00aa 0091     		str	r1, [sp]
 3626 00ac 089B     		ldr	r3, [sp, #32]
 3627 00ae 0A9A     		ldr	r2, [sp, #40]
 3628 00b0 5946     		mov	r1, fp
 3629 00b2 2046     		mov	r0, r4
 3630 00b4 FFF7FEFF 		bl	get_row_height
 3631              	.LVL385:
 908:lvgl/src/widgets/lv_table.c ****     table->row_h[row] = LV_CLAMP(minh, calculated_height, maxh);
 3632              		.loc 1 908 5 is_stmt 1 view .LVU1246
 908:lvgl/src/widgets/lv_table.c ****     table->row_h[row] = LV_CLAMP(minh, calculated_height, maxh);
 3633              		.loc 1 908 37 is_stmt 0 view .LVU1247
 3634 00b8 E36A     		ldr	r3, [r4, #44]
 908:lvgl/src/widgets/lv_table.c ****     table->row_h[row] = LV_CLAMP(minh, calculated_height, maxh);
 3635              		.loc 1 908 16 view .LVU1248
 3636 00ba 33F91520 		ldrsh	r2, [r3, r5, lsl #1]
 3637              	.LVL386:
 909:lvgl/src/widgets/lv_table.c **** 
 3638              		.loc 1 909 5 is_stmt 1 view .LVU1249
 909:lvgl/src/widgets/lv_table.c **** 
 3639              		.loc 1 909 25 is_stmt 0 view .LVU1250
 3640 00be B842     		cmp	r0, r7
 3641 00c0 A8BF     		it	ge
 3642 00c2 3846     		movge	r0, r7
 3643              	.LVL387:
 909:lvgl/src/widgets/lv_table.c **** 
 3644              		.loc 1 909 25 view .LVU1251
 3645 00c4 00B2     		sxth	r0, r0
 3646 00c6 B042     		cmp	r0, r6
 3647 00c8 B8BF     		it	lt
 3648 00ca 3046     		movlt	r0, r6
 909:lvgl/src/widgets/lv_table.c **** 
 3649              		.loc 1 909 23 view .LVU1252
 3650 00cc 23F81500 		strh	r0, [r3, r5, lsl #1]	@ movhi
 3651              	.LVL388:
 912:lvgl/src/widgets/lv_table.c ****         lv_area_t cell_area;
 3652              		.loc 1 912 5 is_stmt 1 view .LVU1253
 912:lvgl/src/widgets/lv_table.c ****         lv_area_t cell_area;
 3653              		.loc 1 912 30 is_stmt 0 view .LVU1254
 3654 00d0 E36A     		ldr	r3, [r4, #44]
 912:lvgl/src/widgets/lv_table.c ****         lv_area_t cell_area;
 3655              		.loc 1 912 37 view .LVU1255
 3656 00d2 33F91530 		ldrsh	r3, [r3, r5, lsl #1]
 912:lvgl/src/widgets/lv_table.c ****         lv_area_t cell_area;
 3657              		.loc 1 912 7 view .LVU1256
 3658 00d6 9342     		cmp	r3, r2
 3659 00d8 08D0     		beq	.L164
 919:lvgl/src/widgets/lv_table.c ****         lv_obj_invalidate(obj);
 3660              		.loc 1 919 9 is_stmt 1 view .LVU1257
 3661 00da 2046     		mov	r0, r4
 3662 00dc FFF7FEFF 		bl	lv_obj_refresh_self_size
 3663              	.LVL389:
 920:lvgl/src/widgets/lv_table.c ****     }
ARM GAS  /var/folders/21/t9g5rlb91ys800n5npymflf80000gn/T//ccNiYEm1.s 			page 117


 3664              		.loc 1 920 9 view .LVU1258
 3665 00e0 2046     		mov	r0, r4
 3666 00e2 FFF7FEFF 		bl	lv_obj_invalidate
 3667              	.LVL390:
 3668              	.L160:
 922:lvgl/src/widgets/lv_table.c **** 
 3669              		.loc 1 922 1 is_stmt 0 view .LVU1259
 3670 00e6 0FB0     		add	sp, sp, #60
 3671              	.LCFI28:
 3672              		.cfi_remember_state
 3673              		.cfi_def_cfa_offset 36
 3674              		@ sp needed
 3675 00e8 BDE8F08F 		pop	{r4, r5, r6, r7, r8, r9, r10, fp, pc}
 3676              	.LVL391:
 3677              	.L164:
 3678              	.LCFI29:
 3679              		.cfi_restore_state
 3680              	.LBB224:
 913:lvgl/src/widgets/lv_table.c ****         get_cell_area(obj, row, col, &cell_area);
 3681              		.loc 1 913 9 is_stmt 1 view .LVU1260
 914:lvgl/src/widgets/lv_table.c ****         lv_area_move(&cell_area, obj->coords.x1, obj->coords.y1);
 3682              		.loc 1 914 9 view .LVU1261
 3683 00ec 0CAB     		add	r3, sp, #48
 3684 00ee BDF82C20 		ldrh	r2, [sp, #44]
 3685              	.LVL392:
 914:lvgl/src/widgets/lv_table.c ****         lv_area_move(&cell_area, obj->coords.x1, obj->coords.y1);
 3686              		.loc 1 914 9 is_stmt 0 view .LVU1262
 3687 00f2 5946     		mov	r1, fp
 3688 00f4 2046     		mov	r0, r4
 3689 00f6 FFF7FEFF 		bl	get_cell_area
 3690              	.LVL393:
 915:lvgl/src/widgets/lv_table.c ****         lv_obj_invalidate_area(obj, &cell_area);
 3691              		.loc 1 915 9 is_stmt 1 view .LVU1263
 3692 00fa B4F91620 		ldrsh	r2, [r4, #22]
 3693 00fe B4F91410 		ldrsh	r1, [r4, #20]
 3694 0102 0CA8     		add	r0, sp, #48
 3695 0104 FFF7FEFF 		bl	lv_area_move
 3696              	.LVL394:
 916:lvgl/src/widgets/lv_table.c ****     }
 3697              		.loc 1 916 9 view .LVU1264
 3698 0108 0CA9     		add	r1, sp, #48
 3699 010a 2046     		mov	r0, r4
 3700 010c FFF7FEFF 		bl	lv_obj_invalidate_area
 3701              	.LVL395:
 3702              	.LBE224:
 3703 0110 E9E7     		b	.L160
 3704              		.cfi_endproc
 3705              	.LFE183:
 3707              		.section	.text.lv_table_create,"ax",%progbits
 3708              		.align	1
 3709              		.global	lv_table_create
 3710              		.syntax unified
 3711              		.thumb
 3712              		.thumb_func
 3714              	lv_table_create:
 3715              	.LVL396:
 3716              	.LFB162:
ARM GAS  /var/folders/21/t9g5rlb91ys800n5npymflf80000gn/T//ccNiYEm1.s 			page 118


  75:lvgl/src/widgets/lv_table.c ****     LV_LOG_INFO("begin");
 3717              		.loc 1 75 1 view -0
 3718              		.cfi_startproc
 3719              		@ args = 0, pretend = 0, frame = 0
 3720              		@ frame_needed = 0, uses_anonymous_args = 0
  75:lvgl/src/widgets/lv_table.c ****     LV_LOG_INFO("begin");
 3721              		.loc 1 75 1 is_stmt 0 view .LVU1266
 3722 0000 10B5     		push	{r4, lr}
 3723              	.LCFI30:
 3724              		.cfi_def_cfa_offset 8
 3725              		.cfi_offset 4, -8
 3726              		.cfi_offset 14, -4
 3727 0002 0146     		mov	r1, r0
  76:lvgl/src/widgets/lv_table.c ****     lv_obj_t * obj = lv_obj_class_create_obj(MY_CLASS, parent);
 3728              		.loc 1 76 5 is_stmt 1 view .LVU1267
  76:lvgl/src/widgets/lv_table.c ****     lv_obj_t * obj = lv_obj_class_create_obj(MY_CLASS, parent);
 3729              		.loc 1 76 5 view .LVU1268
  76:lvgl/src/widgets/lv_table.c ****     lv_obj_t * obj = lv_obj_class_create_obj(MY_CLASS, parent);
 3730              		.loc 1 76 5 view .LVU1269
  77:lvgl/src/widgets/lv_table.c ****     lv_obj_class_init_obj(obj);
 3731              		.loc 1 77 5 view .LVU1270
  77:lvgl/src/widgets/lv_table.c ****     lv_obj_class_init_obj(obj);
 3732              		.loc 1 77 22 is_stmt 0 view .LVU1271
 3733 0004 0348     		ldr	r0, .L167
 3734              	.LVL397:
  77:lvgl/src/widgets/lv_table.c ****     lv_obj_class_init_obj(obj);
 3735              		.loc 1 77 22 view .LVU1272
 3736 0006 FFF7FEFF 		bl	lv_obj_class_create_obj
 3737              	.LVL398:
  77:lvgl/src/widgets/lv_table.c ****     lv_obj_class_init_obj(obj);
 3738              		.loc 1 77 22 view .LVU1273
 3739 000a 0446     		mov	r4, r0
 3740              	.LVL399:
  78:lvgl/src/widgets/lv_table.c ****     return obj;
 3741              		.loc 1 78 5 is_stmt 1 view .LVU1274
 3742 000c FFF7FEFF 		bl	lv_obj_class_init_obj
 3743              	.LVL400:
  79:lvgl/src/widgets/lv_table.c **** }
 3744              		.loc 1 79 5 view .LVU1275
  80:lvgl/src/widgets/lv_table.c **** 
 3745              		.loc 1 80 1 is_stmt 0 view .LVU1276
 3746 0010 2046     		mov	r0, r4
 3747 0012 10BD     		pop	{r4, pc}
 3748              	.LVL401:
 3749              	.L168:
  80:lvgl/src/widgets/lv_table.c **** 
 3750              		.loc 1 80 1 view .LVU1277
 3751              		.align	2
 3752              	.L167:
 3753 0014 00000000 		.word	lv_table_class
 3754              		.cfi_endproc
 3755              	.LFE162:
 3757              		.section	.text.lv_table_set_row_cnt,"ax",%progbits
 3758              		.align	1
 3759              		.global	lv_table_set_row_cnt
 3760              		.syntax unified
 3761              		.thumb
ARM GAS  /var/folders/21/t9g5rlb91ys800n5npymflf80000gn/T//ccNiYEm1.s 			page 119


 3762              		.thumb_func
 3764              	lv_table_set_row_cnt:
 3765              	.LVL402:
 3766              	.LFB165:
 207:lvgl/src/widgets/lv_table.c ****     LV_ASSERT_OBJ(obj, MY_CLASS);
 3767              		.loc 1 207 1 is_stmt 1 view -0
 3768              		.cfi_startproc
 3769              		@ args = 0, pretend = 0, frame = 0
 3770              		@ frame_needed = 0, uses_anonymous_args = 0
 207:lvgl/src/widgets/lv_table.c ****     LV_ASSERT_OBJ(obj, MY_CLASS);
 3771              		.loc 1 207 1 is_stmt 0 view .LVU1279
 3772 0000 2DE9F843 		push	{r3, r4, r5, r6, r7, r8, r9, lr}
 3773              	.LCFI31:
 3774              		.cfi_def_cfa_offset 32
 3775              		.cfi_offset 3, -32
 3776              		.cfi_offset 4, -28
 3777              		.cfi_offset 5, -24
 3778              		.cfi_offset 6, -20
 3779              		.cfi_offset 7, -16
 3780              		.cfi_offset 8, -12
 3781              		.cfi_offset 9, -8
 3782              		.cfi_offset 14, -4
 208:lvgl/src/widgets/lv_table.c **** 
 3783              		.loc 1 208 5 is_stmt 1 view .LVU1280
 208:lvgl/src/widgets/lv_table.c **** 
 3784              		.loc 1 208 5 view .LVU1281
 208:lvgl/src/widgets/lv_table.c **** 
 3785              		.loc 1 208 5 view .LVU1282
 210:lvgl/src/widgets/lv_table.c **** 
 3786              		.loc 1 210 5 view .LVU1283
 3787              	.LVL403:
 212:lvgl/src/widgets/lv_table.c **** 
 3788              		.loc 1 212 5 view .LVU1284
 212:lvgl/src/widgets/lv_table.c **** 
 3789              		.loc 1 212 13 is_stmt 0 view .LVU1285
 3790 0004 B0F82680 		ldrh	r8, [r0, #38]
 212:lvgl/src/widgets/lv_table.c **** 
 3791              		.loc 1 212 7 view .LVU1286
 3792 0008 8845     		cmp	r8, r1
 3793 000a 3AD0     		beq	.L169
 3794 000c 0446     		mov	r4, r0
 3795 000e 0E46     		mov	r6, r1
 214:lvgl/src/widgets/lv_table.c ****     table->row_cnt         = row_cnt;
 3796              		.loc 1 214 5 is_stmt 1 view .LVU1287
 3797              	.LVL404:
 215:lvgl/src/widgets/lv_table.c **** 
 3798              		.loc 1 215 5 view .LVU1288
 215:lvgl/src/widgets/lv_table.c **** 
 3799              		.loc 1 215 28 is_stmt 0 view .LVU1289
 3800 0010 C184     		strh	r1, [r0, #38]	@ movhi
 217:lvgl/src/widgets/lv_table.c ****     LV_ASSERT_MALLOC(table->row_h);
 3801              		.loc 1 217 5 is_stmt 1 view .LVU1290
 217:lvgl/src/widgets/lv_table.c ****     LV_ASSERT_MALLOC(table->row_h);
 3802              		.loc 1 217 20 is_stmt 0 view .LVU1291
 3803 0012 4900     		lsls	r1, r1, #1
 3804              	.LVL405:
 217:lvgl/src/widgets/lv_table.c ****     LV_ASSERT_MALLOC(table->row_h);
ARM GAS  /var/folders/21/t9g5rlb91ys800n5npymflf80000gn/T//ccNiYEm1.s 			page 120


 3805              		.loc 1 217 20 view .LVU1292
 3806 0014 C06A     		ldr	r0, [r0, #44]
 3807              	.LVL406:
 217:lvgl/src/widgets/lv_table.c ****     LV_ASSERT_MALLOC(table->row_h);
 3808              		.loc 1 217 20 view .LVU1293
 3809 0016 FFF7FEFF 		bl	lv_mem_realloc
 3810              	.LVL407:
 217:lvgl/src/widgets/lv_table.c ****     LV_ASSERT_MALLOC(table->row_h);
 3811              		.loc 1 217 18 view .LVU1294
 3812 001a E062     		str	r0, [r4, #44]
 218:lvgl/src/widgets/lv_table.c ****     if(table->row_h == NULL) return;
 3813              		.loc 1 218 5 is_stmt 1 view .LVU1295
 218:lvgl/src/widgets/lv_table.c ****     if(table->row_h == NULL) return;
 3814              		.loc 1 218 5 view .LVU1296
 3815 001c 50B1     		cbz	r0, .L172
 218:lvgl/src/widgets/lv_table.c ****     if(table->row_h == NULL) return;
 3816              		.loc 1 218 5 view .LVU1297
 218:lvgl/src/widgets/lv_table.c ****     if(table->row_h == NULL) return;
 3817              		.loc 1 218 35 view .LVU1298
 219:lvgl/src/widgets/lv_table.c **** 
 3818              		.loc 1 219 5 view .LVU1299
 222:lvgl/src/widgets/lv_table.c ****         uint16_t old_cell_cnt = old_row_cnt * table->col_cnt;
 3819              		.loc 1 222 5 view .LVU1300
 222:lvgl/src/widgets/lv_table.c ****         uint16_t old_cell_cnt = old_row_cnt * table->col_cnt;
 3820              		.loc 1 222 7 is_stmt 0 view .LVU1301
 3821 001e B045     		cmp	r8, r6
 3822 0020 1FD9     		bls	.L173
 3823              	.LBB225:
 223:lvgl/src/widgets/lv_table.c ****         uint32_t new_cell_cnt = table->col_cnt * table->row_cnt;
 3824              		.loc 1 223 9 is_stmt 1 view .LVU1302
 223:lvgl/src/widgets/lv_table.c ****         uint32_t new_cell_cnt = table->col_cnt * table->row_cnt;
 3825              		.loc 1 223 52 is_stmt 0 view .LVU1303
 3826 0022 A58C     		ldrh	r5, [r4, #36]
 223:lvgl/src/widgets/lv_table.c ****         uint32_t new_cell_cnt = table->col_cnt * table->row_cnt;
 3827              		.loc 1 223 18 view .LVU1304
 3828 0024 18FB05F9 		smulbb	r9, r8, r5
 3829 0028 1FFA89F9 		uxth	r9, r9
 3830              	.LVL408:
 224:lvgl/src/widgets/lv_table.c ****         uint32_t i;
 3831              		.loc 1 224 9 is_stmt 1 view .LVU1305
 224:lvgl/src/widgets/lv_table.c ****         uint32_t i;
 3832              		.loc 1 224 55 is_stmt 0 view .LVU1306
 3833 002c E38C     		ldrh	r3, [r4, #38]
 224:lvgl/src/widgets/lv_table.c ****         uint32_t i;
 3834              		.loc 1 224 48 view .LVU1307
 3835 002e 03FB05F5 		mul	r5, r3, r5
 3836              	.LVL409:
 225:lvgl/src/widgets/lv_table.c ****         for(i = new_cell_cnt; i < old_cell_cnt; i++) {
 3837              		.loc 1 225 9 is_stmt 1 view .LVU1308
 226:lvgl/src/widgets/lv_table.c **** #if LV_USE_USER_DATA
 3838              		.loc 1 226 9 view .LVU1309
 226:lvgl/src/widgets/lv_table.c **** #if LV_USE_USER_DATA
 3839              		.loc 1 226 9 is_stmt 0 view .LVU1310
 3840 0032 05E0     		b	.L174
 3841              	.LVL410:
 3842              	.L172:
 226:lvgl/src/widgets/lv_table.c **** #if LV_USE_USER_DATA
ARM GAS  /var/folders/21/t9g5rlb91ys800n5npymflf80000gn/T//ccNiYEm1.s 			page 121


 3843              		.loc 1 226 9 view .LVU1311
 3844              	.LBE225:
 218:lvgl/src/widgets/lv_table.c ****     if(table->row_h == NULL) return;
 3845              		.loc 1 218 5 is_stmt 1 discriminator 1 view .LVU1312
 218:lvgl/src/widgets/lv_table.c ****     if(table->row_h == NULL) return;
 3846              		.loc 1 218 5 discriminator 1 view .LVU1313
 218:lvgl/src/widgets/lv_table.c ****     if(table->row_h == NULL) return;
 3847              		.loc 1 218 5 discriminator 1 view .LVU1314
 218:lvgl/src/widgets/lv_table.c ****     if(table->row_h == NULL) return;
 3848              		.loc 1 218 5 discriminator 1 view .LVU1315
 218:lvgl/src/widgets/lv_table.c ****     if(table->row_h == NULL) return;
 3849              		.loc 1 218 5 discriminator 1 view .LVU1316
 3850 0034 FEE7     		b	.L172
 3851              	.LVL411:
 3852              	.L175:
 3853              	.LBB226:
 233:lvgl/src/widgets/lv_table.c ****         }
 3854              		.loc 1 233 13 discriminator 2 view .LVU1317
 233:lvgl/src/widgets/lv_table.c ****         }
 3855              		.loc 1 233 30 is_stmt 0 discriminator 2 view .LVU1318
 3856 0036 A36A     		ldr	r3, [r4, #40]
 233:lvgl/src/widgets/lv_table.c ****         }
 3857              		.loc 1 233 13 discriminator 2 view .LVU1319
 3858 0038 D859     		ldr	r0, [r3, r7]
 3859 003a FFF7FEFF 		bl	lv_mem_free
 3860              	.LVL412:
 226:lvgl/src/widgets/lv_table.c **** #if LV_USE_USER_DATA
 3861              		.loc 1 226 50 is_stmt 1 discriminator 2 view .LVU1320
 3862 003e 0135     		adds	r5, r5, #1
 3863              	.LVL413:
 3864              	.L174:
 226:lvgl/src/widgets/lv_table.c **** #if LV_USE_USER_DATA
 3865              		.loc 1 226 33 discriminator 1 view .LVU1321
 3866 0040 A945     		cmp	r9, r5
 3867 0042 0ED9     		bls	.L173
 228:lvgl/src/widgets/lv_table.c ****                 lv_mem_free(table->cell_data[i]->user_data);
 3868              		.loc 1 228 13 view .LVU1322
 228:lvgl/src/widgets/lv_table.c ****                 lv_mem_free(table->cell_data[i]->user_data);
 3869              		.loc 1 228 21 is_stmt 0 view .LVU1323
 3870 0044 A36A     		ldr	r3, [r4, #40]
 228:lvgl/src/widgets/lv_table.c ****                 lv_mem_free(table->cell_data[i]->user_data);
 3871              		.loc 1 228 32 view .LVU1324
 3872 0046 AF00     		lsls	r7, r5, #2
 3873 0048 53F82530 		ldr	r3, [r3, r5, lsl #2]
 228:lvgl/src/widgets/lv_table.c ****                 lv_mem_free(table->cell_data[i]->user_data);
 3874              		.loc 1 228 35 view .LVU1325
 3875 004c 5868     		ldr	r0, [r3, #4]
 228:lvgl/src/widgets/lv_table.c ****                 lv_mem_free(table->cell_data[i]->user_data);
 3876              		.loc 1 228 15 view .LVU1326
 3877 004e 0028     		cmp	r0, #0
 3878 0050 F1D0     		beq	.L175
 229:lvgl/src/widgets/lv_table.c ****                 table->cell_data[i]->user_data = NULL;
 3879              		.loc 1 229 17 is_stmt 1 view .LVU1327
 3880 0052 FFF7FEFF 		bl	lv_mem_free
 3881              	.LVL414:
 230:lvgl/src/widgets/lv_table.c ****             }
 3882              		.loc 1 230 17 view .LVU1328
ARM GAS  /var/folders/21/t9g5rlb91ys800n5npymflf80000gn/T//ccNiYEm1.s 			page 122


 230:lvgl/src/widgets/lv_table.c ****             }
 3883              		.loc 1 230 22 is_stmt 0 view .LVU1329
 3884 0056 A36A     		ldr	r3, [r4, #40]
 230:lvgl/src/widgets/lv_table.c ****             }
 3885              		.loc 1 230 33 view .LVU1330
 3886 0058 53F82530 		ldr	r3, [r3, r5, lsl #2]
 230:lvgl/src/widgets/lv_table.c ****             }
 3887              		.loc 1 230 48 view .LVU1331
 3888 005c 0022     		movs	r2, #0
 3889 005e 5A60     		str	r2, [r3, #4]
 3890 0060 E9E7     		b	.L175
 3891              	.LVL415:
 3892              	.L173:
 230:lvgl/src/widgets/lv_table.c ****             }
 3893              		.loc 1 230 48 view .LVU1332
 3894              	.LBE226:
 237:lvgl/src/widgets/lv_table.c ****     LV_ASSERT_MALLOC(table->cell_data);
 3895              		.loc 1 237 5 is_stmt 1 view .LVU1333
 237:lvgl/src/widgets/lv_table.c ****     LV_ASSERT_MALLOC(table->cell_data);
 3896              		.loc 1 237 62 is_stmt 0 view .LVU1334
 3897 0062 E18C     		ldrh	r1, [r4, #38]
 237:lvgl/src/widgets/lv_table.c ****     LV_ASSERT_MALLOC(table->cell_data);
 3898              		.loc 1 237 79 view .LVU1335
 3899 0064 A38C     		ldrh	r3, [r4, #36]
 237:lvgl/src/widgets/lv_table.c ****     LV_ASSERT_MALLOC(table->cell_data);
 3900              		.loc 1 237 72 view .LVU1336
 3901 0066 03FB01F1 		mul	r1, r3, r1
 237:lvgl/src/widgets/lv_table.c ****     LV_ASSERT_MALLOC(table->cell_data);
 3902              		.loc 1 237 24 view .LVU1337
 3903 006a 8900     		lsls	r1, r1, #2
 3904 006c A06A     		ldr	r0, [r4, #40]
 3905 006e FFF7FEFF 		bl	lv_mem_realloc
 3906              	.LVL416:
 237:lvgl/src/widgets/lv_table.c ****     LV_ASSERT_MALLOC(table->cell_data);
 3907              		.loc 1 237 22 view .LVU1338
 3908 0072 A062     		str	r0, [r4, #40]
 238:lvgl/src/widgets/lv_table.c ****     if(table->cell_data == NULL) return;
 3909              		.loc 1 238 5 is_stmt 1 view .LVU1339
 238:lvgl/src/widgets/lv_table.c ****     if(table->cell_data == NULL) return;
 3910              		.loc 1 238 5 view .LVU1340
 3911 0074 38B1     		cbz	r0, .L178
 238:lvgl/src/widgets/lv_table.c ****     if(table->cell_data == NULL) return;
 3912              		.loc 1 238 5 view .LVU1341
 238:lvgl/src/widgets/lv_table.c ****     if(table->cell_data == NULL) return;
 3913              		.loc 1 238 39 view .LVU1342
 239:lvgl/src/widgets/lv_table.c **** 
 3914              		.loc 1 239 5 view .LVU1343
 242:lvgl/src/widgets/lv_table.c ****         uint32_t old_cell_cnt = old_row_cnt * table->col_cnt;
 3915              		.loc 1 242 5 view .LVU1344
 242:lvgl/src/widgets/lv_table.c ****         uint32_t old_cell_cnt = old_row_cnt * table->col_cnt;
 3916              		.loc 1 242 7 is_stmt 0 view .LVU1345
 3917 0076 B045     		cmp	r8, r6
 3918 0078 06D3     		bcc	.L181
 3919              	.LVL417:
 3920              	.L179:
 248:lvgl/src/widgets/lv_table.c **** }
 3921              		.loc 1 248 5 is_stmt 1 view .LVU1346
ARM GAS  /var/folders/21/t9g5rlb91ys800n5npymflf80000gn/T//ccNiYEm1.s 			page 123


 3922 007a 0021     		movs	r1, #0
 3923 007c 2046     		mov	r0, r4
 3924 007e FFF7FEFF 		bl	refr_size_form_row
 3925              	.LVL418:
 3926              	.L169:
 249:lvgl/src/widgets/lv_table.c **** 
 3927              		.loc 1 249 1 is_stmt 0 view .LVU1347
 3928 0082 BDE8F883 		pop	{r3, r4, r5, r6, r7, r8, r9, pc}
 3929              	.LVL419:
 3930              	.L178:
 238:lvgl/src/widgets/lv_table.c ****     if(table->cell_data == NULL) return;
 3931              		.loc 1 238 5 is_stmt 1 discriminator 2 view .LVU1348
 238:lvgl/src/widgets/lv_table.c ****     if(table->cell_data == NULL) return;
 3932              		.loc 1 238 5 discriminator 2 view .LVU1349
 238:lvgl/src/widgets/lv_table.c ****     if(table->cell_data == NULL) return;
 3933              		.loc 1 238 5 discriminator 2 view .LVU1350
 238:lvgl/src/widgets/lv_table.c ****     if(table->cell_data == NULL) return;
 3934              		.loc 1 238 5 discriminator 2 view .LVU1351
 238:lvgl/src/widgets/lv_table.c ****     if(table->cell_data == NULL) return;
 3935              		.loc 1 238 5 discriminator 2 view .LVU1352
 3936 0086 FEE7     		b	.L178
 3937              	.L181:
 3938              	.LBB227:
 243:lvgl/src/widgets/lv_table.c ****         uint32_t new_cell_cnt = table->col_cnt * table->row_cnt;
 3939              		.loc 1 243 9 view .LVU1353
 243:lvgl/src/widgets/lv_table.c ****         uint32_t new_cell_cnt = table->col_cnt * table->row_cnt;
 3940              		.loc 1 243 52 is_stmt 0 view .LVU1354
 3941 0088 A38C     		ldrh	r3, [r4, #36]
 243:lvgl/src/widgets/lv_table.c ****         uint32_t new_cell_cnt = table->col_cnt * table->row_cnt;
 3942              		.loc 1 243 45 view .LVU1355
 3943 008a 03FB08F8 		mul	r8, r3, r8
 3944              	.LVL420:
 244:lvgl/src/widgets/lv_table.c ****         lv_memset_00(&table->cell_data[old_cell_cnt], (new_cell_cnt - old_cell_cnt) * sizeof(table-
 3945              		.loc 1 244 9 is_stmt 1 view .LVU1356
 244:lvgl/src/widgets/lv_table.c ****         lv_memset_00(&table->cell_data[old_cell_cnt], (new_cell_cnt - old_cell_cnt) * sizeof(table-
 3946              		.loc 1 244 55 is_stmt 0 view .LVU1357
 3947 008e E28C     		ldrh	r2, [r4, #38]
 244:lvgl/src/widgets/lv_table.c ****         lv_memset_00(&table->cell_data[old_cell_cnt], (new_cell_cnt - old_cell_cnt) * sizeof(table-
 3948              		.loc 1 244 48 view .LVU1358
 3949 0090 02FB03F3 		mul	r3, r2, r3
 3950              	.LVL421:
 245:lvgl/src/widgets/lv_table.c ****     }
 3951              		.loc 1 245 9 is_stmt 1 view .LVU1359
 245:lvgl/src/widgets/lv_table.c ****     }
 3952              		.loc 1 245 69 is_stmt 0 view .LVU1360
 3953 0094 A3EB0801 		sub	r1, r3, r8
 245:lvgl/src/widgets/lv_table.c ****     }
 3954              		.loc 1 245 9 view .LVU1361
 3955 0098 8900     		lsls	r1, r1, #2
 3956 009a 00EB8800 		add	r0, r0, r8, lsl #2
 3957 009e FFF7FEFF 		bl	lv_memset_00
 3958              	.LVL422:
 245:lvgl/src/widgets/lv_table.c ****     }
 3959              		.loc 1 245 9 view .LVU1362
 3960 00a2 EAE7     		b	.L179
 3961              	.LBE227:
 3962              		.cfi_endproc
ARM GAS  /var/folders/21/t9g5rlb91ys800n5npymflf80000gn/T//ccNiYEm1.s 			page 124


 3963              	.LFE165:
 3965              		.section	.text.lv_table_set_col_cnt,"ax",%progbits
 3966              		.align	1
 3967              		.global	lv_table_set_col_cnt
 3968              		.syntax unified
 3969              		.thumb
 3970              		.thumb_func
 3972              	lv_table_set_col_cnt:
 3973              	.LVL423:
 3974              	.LFB166:
 252:lvgl/src/widgets/lv_table.c ****     LV_ASSERT_OBJ(obj, MY_CLASS);
 3975              		.loc 1 252 1 is_stmt 1 view -0
 3976              		.cfi_startproc
 3977              		@ args = 0, pretend = 0, frame = 8
 3978              		@ frame_needed = 0, uses_anonymous_args = 0
 252:lvgl/src/widgets/lv_table.c ****     LV_ASSERT_OBJ(obj, MY_CLASS);
 3979              		.loc 1 252 1 is_stmt 0 view .LVU1364
 3980 0000 2DE9F04F 		push	{r4, r5, r6, r7, r8, r9, r10, fp, lr}
 3981              	.LCFI32:
 3982              		.cfi_def_cfa_offset 36
 3983              		.cfi_offset 4, -36
 3984              		.cfi_offset 5, -32
 3985              		.cfi_offset 6, -28
 3986              		.cfi_offset 7, -24
 3987              		.cfi_offset 8, -20
 3988              		.cfi_offset 9, -16
 3989              		.cfi_offset 10, -12
 3990              		.cfi_offset 11, -8
 3991              		.cfi_offset 14, -4
 3992 0004 83B0     		sub	sp, sp, #12
 3993              	.LCFI33:
 3994              		.cfi_def_cfa_offset 48
 253:lvgl/src/widgets/lv_table.c **** 
 3995              		.loc 1 253 5 is_stmt 1 view .LVU1365
 253:lvgl/src/widgets/lv_table.c **** 
 3996              		.loc 1 253 5 view .LVU1366
 253:lvgl/src/widgets/lv_table.c **** 
 3997              		.loc 1 253 5 view .LVU1367
 255:lvgl/src/widgets/lv_table.c **** 
 3998              		.loc 1 255 5 view .LVU1368
 3999              	.LVL424:
 257:lvgl/src/widgets/lv_table.c **** 
 4000              		.loc 1 257 5 view .LVU1369
 257:lvgl/src/widgets/lv_table.c **** 
 4001              		.loc 1 257 13 is_stmt 0 view .LVU1370
 4002 0006 878C     		ldrh	r7, [r0, #36]
 257:lvgl/src/widgets/lv_table.c **** 
 4003              		.loc 1 257 7 view .LVU1371
 4004 0008 8F42     		cmp	r7, r1
 4005 000a 6CD0     		beq	.L182
 4006 000c 0646     		mov	r6, r0
 4007 000e 8846     		mov	r8, r1
 259:lvgl/src/widgets/lv_table.c ****     table->col_cnt         = col_cnt;
 4008              		.loc 1 259 5 is_stmt 1 view .LVU1372
 4009              	.LVL425:
 260:lvgl/src/widgets/lv_table.c **** 
 4010              		.loc 1 260 5 view .LVU1373
ARM GAS  /var/folders/21/t9g5rlb91ys800n5npymflf80000gn/T//ccNiYEm1.s 			page 125


 260:lvgl/src/widgets/lv_table.c **** 
 4011              		.loc 1 260 28 is_stmt 0 view .LVU1374
 4012 0010 8184     		strh	r1, [r0, #36]	@ movhi
 262:lvgl/src/widgets/lv_table.c ****     LV_ASSERT_MALLOC(new_cell_data);
 4013              		.loc 1 262 5 is_stmt 1 view .LVU1375
 262:lvgl/src/widgets/lv_table.c ****     LV_ASSERT_MALLOC(new_cell_data);
 4014              		.loc 1 262 58 is_stmt 0 view .LVU1376
 4015 0012 C08C     		ldrh	r0, [r0, #38]
 4016              	.LVL426:
 262:lvgl/src/widgets/lv_table.c ****     LV_ASSERT_MALLOC(new_cell_data);
 4017              		.loc 1 262 68 view .LVU1377
 4018 0014 01FB00F0 		mul	r0, r1, r0
 262:lvgl/src/widgets/lv_table.c ****     LV_ASSERT_MALLOC(new_cell_data);
 4019              		.loc 1 262 40 view .LVU1378
 4020 0018 8000     		lsls	r0, r0, #2
 4021 001a FFF7FEFF 		bl	lv_mem_alloc
 4022              	.LVL427:
 263:lvgl/src/widgets/lv_table.c ****     if(new_cell_data == NULL) return;
 4023              		.loc 1 263 5 is_stmt 1 view .LVU1379
 263:lvgl/src/widgets/lv_table.c ****     if(new_cell_data == NULL) return;
 4024              		.loc 1 263 5 view .LVU1380
 4025 001e 0190     		str	r0, [sp, #4]
 4026 0020 70B1     		cbz	r0, .L185
 263:lvgl/src/widgets/lv_table.c ****     if(new_cell_data == NULL) return;
 4027              		.loc 1 263 5 view .LVU1381
 263:lvgl/src/widgets/lv_table.c ****     if(new_cell_data == NULL) return;
 4028              		.loc 1 263 36 view .LVU1382
 264:lvgl/src/widgets/lv_table.c ****     uint32_t new_cell_cnt = table->col_cnt * table->row_cnt;
 4029              		.loc 1 264 5 view .LVU1383
 265:lvgl/src/widgets/lv_table.c **** 
 4030              		.loc 1 265 5 view .LVU1384
 265:lvgl/src/widgets/lv_table.c **** 
 4031              		.loc 1 265 34 is_stmt 0 view .LVU1385
 4032 0022 B18C     		ldrh	r1, [r6, #36]
 265:lvgl/src/widgets/lv_table.c **** 
 4033              		.loc 1 265 51 view .LVU1386
 4034 0024 F38C     		ldrh	r3, [r6, #38]
 265:lvgl/src/widgets/lv_table.c **** 
 4035              		.loc 1 265 44 view .LVU1387
 4036 0026 03FB01F1 		mul	r1, r3, r1
 4037              	.LVL428:
 267:lvgl/src/widgets/lv_table.c **** 
 4038              		.loc 1 267 5 is_stmt 1 view .LVU1388
 4039 002a 8900     		lsls	r1, r1, #2
 4040              	.LVL429:
 267:lvgl/src/widgets/lv_table.c **** 
 4041              		.loc 1 267 5 is_stmt 0 view .LVU1389
 4042 002c 0198     		ldr	r0, [sp, #4]
 267:lvgl/src/widgets/lv_table.c **** 
 4043              		.loc 1 267 5 view .LVU1390
 4044 002e FFF7FEFF 		bl	lv_memset_00
 4045              	.LVL430:
 270:lvgl/src/widgets/lv_table.c ****     uint32_t new_col_start;
 4046              		.loc 1 270 5 is_stmt 1 view .LVU1391
 271:lvgl/src/widgets/lv_table.c ****     uint32_t min_col_cnt = LV_MIN(old_col_cnt, col_cnt);
 4047              		.loc 1 271 5 view .LVU1392
 272:lvgl/src/widgets/lv_table.c ****     uint32_t row;
ARM GAS  /var/folders/21/t9g5rlb91ys800n5npymflf80000gn/T//ccNiYEm1.s 			page 126


 4048              		.loc 1 272 5 view .LVU1393
 272:lvgl/src/widgets/lv_table.c ****     uint32_t row;
 4049              		.loc 1 272 28 is_stmt 0 view .LVU1394
 4050 0032 BA46     		mov	r10, r7
 4051 0034 4745     		cmp	r7, r8
 4052 0036 28BF     		it	cs
 4053 0038 C246     		movcs	r10, r8
 4054              	.LVL431:
 273:lvgl/src/widgets/lv_table.c ****     for(row = 0; row < table->row_cnt; row++) {
 4055              		.loc 1 273 5 is_stmt 1 view .LVU1395
 274:lvgl/src/widgets/lv_table.c ****         old_col_start = row * old_col_cnt;
 4056              		.loc 1 274 5 view .LVU1396
 274:lvgl/src/widgets/lv_table.c ****         old_col_start = row * old_col_cnt;
 4057              		.loc 1 274 13 is_stmt 0 view .LVU1397
 4058 003a 4FF0000B 		mov	fp, #0
 274:lvgl/src/widgets/lv_table.c ****         old_col_start = row * old_col_cnt;
 4059              		.loc 1 274 5 view .LVU1398
 4060 003e 2AE0     		b	.L186
 4061              	.LVL432:
 4062              	.L185:
 263:lvgl/src/widgets/lv_table.c ****     if(new_cell_data == NULL) return;
 4063              		.loc 1 263 5 is_stmt 1 discriminator 1 view .LVU1399
 263:lvgl/src/widgets/lv_table.c ****     if(new_cell_data == NULL) return;
 4064              		.loc 1 263 5 discriminator 1 view .LVU1400
 263:lvgl/src/widgets/lv_table.c ****     if(new_cell_data == NULL) return;
 4065              		.loc 1 263 5 discriminator 1 view .LVU1401
 263:lvgl/src/widgets/lv_table.c ****     if(new_cell_data == NULL) return;
 4066              		.loc 1 263 5 discriminator 1 view .LVU1402
 263:lvgl/src/widgets/lv_table.c ****     if(new_cell_data == NULL) return;
 4067              		.loc 1 263 5 discriminator 1 view .LVU1403
 4068 0040 FEE7     		b	.L185
 4069              	.LVL433:
 4070              	.L188:
 4071              	.LBB228:
 4072              	.LBB229:
 4073              	.LBB230:
 4074              		.file 5 "lvgl/src/widgets/../core/../misc/lv_mem.h"
   1:lvgl/src/widgets/../core/../misc/lv_mem.h **** /**
   2:lvgl/src/widgets/../core/../misc/lv_mem.h ****  * @file lv_mem.h
   3:lvgl/src/widgets/../core/../misc/lv_mem.h ****  *
   4:lvgl/src/widgets/../core/../misc/lv_mem.h ****  */
   5:lvgl/src/widgets/../core/../misc/lv_mem.h **** 
   6:lvgl/src/widgets/../core/../misc/lv_mem.h **** #ifndef LV_MEM_H
   7:lvgl/src/widgets/../core/../misc/lv_mem.h **** #define LV_MEM_H
   8:lvgl/src/widgets/../core/../misc/lv_mem.h **** 
   9:lvgl/src/widgets/../core/../misc/lv_mem.h **** #ifdef __cplusplus
  10:lvgl/src/widgets/../core/../misc/lv_mem.h **** extern "C" {
  11:lvgl/src/widgets/../core/../misc/lv_mem.h **** #endif
  12:lvgl/src/widgets/../core/../misc/lv_mem.h **** 
  13:lvgl/src/widgets/../core/../misc/lv_mem.h **** /*********************
  14:lvgl/src/widgets/../core/../misc/lv_mem.h ****  *      INCLUDES
  15:lvgl/src/widgets/../core/../misc/lv_mem.h ****  *********************/
  16:lvgl/src/widgets/../core/../misc/lv_mem.h **** #include "../lv_conf_internal.h"
  17:lvgl/src/widgets/../core/../misc/lv_mem.h **** 
  18:lvgl/src/widgets/../core/../misc/lv_mem.h **** #include <stdint.h>
  19:lvgl/src/widgets/../core/../misc/lv_mem.h **** #include <stddef.h>
  20:lvgl/src/widgets/../core/../misc/lv_mem.h **** #include <string.h>
ARM GAS  /var/folders/21/t9g5rlb91ys800n5npymflf80000gn/T//ccNiYEm1.s 			page 127


  21:lvgl/src/widgets/../core/../misc/lv_mem.h **** 
  22:lvgl/src/widgets/../core/../misc/lv_mem.h **** #include "lv_types.h"
  23:lvgl/src/widgets/../core/../misc/lv_mem.h **** 
  24:lvgl/src/widgets/../core/../misc/lv_mem.h **** /*********************
  25:lvgl/src/widgets/../core/../misc/lv_mem.h ****  *      DEFINES
  26:lvgl/src/widgets/../core/../misc/lv_mem.h ****  *********************/
  27:lvgl/src/widgets/../core/../misc/lv_mem.h **** 
  28:lvgl/src/widgets/../core/../misc/lv_mem.h **** /**********************
  29:lvgl/src/widgets/../core/../misc/lv_mem.h ****  *      TYPEDEFS
  30:lvgl/src/widgets/../core/../misc/lv_mem.h ****  **********************/
  31:lvgl/src/widgets/../core/../misc/lv_mem.h **** 
  32:lvgl/src/widgets/../core/../misc/lv_mem.h **** /**
  33:lvgl/src/widgets/../core/../misc/lv_mem.h ****  * Heap information structure.
  34:lvgl/src/widgets/../core/../misc/lv_mem.h ****  */
  35:lvgl/src/widgets/../core/../misc/lv_mem.h **** typedef struct {
  36:lvgl/src/widgets/../core/../misc/lv_mem.h ****     uint32_t total_size; /**< Total heap size*/
  37:lvgl/src/widgets/../core/../misc/lv_mem.h ****     uint32_t free_cnt;
  38:lvgl/src/widgets/../core/../misc/lv_mem.h ****     uint32_t free_size; /**< Size of available memory*/
  39:lvgl/src/widgets/../core/../misc/lv_mem.h ****     uint32_t free_biggest_size;
  40:lvgl/src/widgets/../core/../misc/lv_mem.h ****     uint32_t used_cnt;
  41:lvgl/src/widgets/../core/../misc/lv_mem.h ****     uint32_t max_used; /**< Max size of Heap memory used*/
  42:lvgl/src/widgets/../core/../misc/lv_mem.h ****     uint8_t used_pct; /**< Percentage used*/
  43:lvgl/src/widgets/../core/../misc/lv_mem.h ****     uint8_t frag_pct; /**< Amount of fragmentation*/
  44:lvgl/src/widgets/../core/../misc/lv_mem.h **** } lv_mem_monitor_t;
  45:lvgl/src/widgets/../core/../misc/lv_mem.h **** 
  46:lvgl/src/widgets/../core/../misc/lv_mem.h **** typedef struct {
  47:lvgl/src/widgets/../core/../misc/lv_mem.h ****     void * p;
  48:lvgl/src/widgets/../core/../misc/lv_mem.h ****     uint16_t size;
  49:lvgl/src/widgets/../core/../misc/lv_mem.h ****     uint8_t used : 1;
  50:lvgl/src/widgets/../core/../misc/lv_mem.h **** } lv_mem_buf_t;
  51:lvgl/src/widgets/../core/../misc/lv_mem.h **** 
  52:lvgl/src/widgets/../core/../misc/lv_mem.h **** typedef lv_mem_buf_t lv_mem_buf_arr_t[LV_MEM_BUF_MAX_NUM];
  53:lvgl/src/widgets/../core/../misc/lv_mem.h **** 
  54:lvgl/src/widgets/../core/../misc/lv_mem.h **** /**********************
  55:lvgl/src/widgets/../core/../misc/lv_mem.h ****  * GLOBAL PROTOTYPES
  56:lvgl/src/widgets/../core/../misc/lv_mem.h ****  **********************/
  57:lvgl/src/widgets/../core/../misc/lv_mem.h **** 
  58:lvgl/src/widgets/../core/../misc/lv_mem.h **** /**
  59:lvgl/src/widgets/../core/../misc/lv_mem.h ****  * Initialize the dyn_mem module (work memory and other variables)
  60:lvgl/src/widgets/../core/../misc/lv_mem.h ****  */
  61:lvgl/src/widgets/../core/../misc/lv_mem.h **** void lv_mem_init(void);
  62:lvgl/src/widgets/../core/../misc/lv_mem.h **** 
  63:lvgl/src/widgets/../core/../misc/lv_mem.h **** /**
  64:lvgl/src/widgets/../core/../misc/lv_mem.h ****  * Clean up the memory buffer which frees all the allocated memories.
  65:lvgl/src/widgets/../core/../misc/lv_mem.h ****  * @note It work only if `LV_MEM_CUSTOM == 0`
  66:lvgl/src/widgets/../core/../misc/lv_mem.h ****  */
  67:lvgl/src/widgets/../core/../misc/lv_mem.h **** void lv_mem_deinit(void);
  68:lvgl/src/widgets/../core/../misc/lv_mem.h **** 
  69:lvgl/src/widgets/../core/../misc/lv_mem.h **** /**
  70:lvgl/src/widgets/../core/../misc/lv_mem.h ****  * Allocate a memory dynamically
  71:lvgl/src/widgets/../core/../misc/lv_mem.h ****  * @param size size of the memory to allocate in bytes
  72:lvgl/src/widgets/../core/../misc/lv_mem.h ****  * @return pointer to the allocated memory
  73:lvgl/src/widgets/../core/../misc/lv_mem.h ****  */
  74:lvgl/src/widgets/../core/../misc/lv_mem.h **** void * lv_mem_alloc(size_t size);
  75:lvgl/src/widgets/../core/../misc/lv_mem.h **** 
  76:lvgl/src/widgets/../core/../misc/lv_mem.h **** /**
  77:lvgl/src/widgets/../core/../misc/lv_mem.h ****  * Free an allocated data
ARM GAS  /var/folders/21/t9g5rlb91ys800n5npymflf80000gn/T//ccNiYEm1.s 			page 128


  78:lvgl/src/widgets/../core/../misc/lv_mem.h ****  * @param data pointer to an allocated memory
  79:lvgl/src/widgets/../core/../misc/lv_mem.h ****  */
  80:lvgl/src/widgets/../core/../misc/lv_mem.h **** void lv_mem_free(void * data);
  81:lvgl/src/widgets/../core/../misc/lv_mem.h **** 
  82:lvgl/src/widgets/../core/../misc/lv_mem.h **** /**
  83:lvgl/src/widgets/../core/../misc/lv_mem.h ****  * Reallocate a memory with a new size. The old content will be kept.
  84:lvgl/src/widgets/../core/../misc/lv_mem.h ****  * @param data pointer to an allocated memory.
  85:lvgl/src/widgets/../core/../misc/lv_mem.h ****  * Its content will be copied to the new memory block and freed
  86:lvgl/src/widgets/../core/../misc/lv_mem.h ****  * @param new_size the desired new size in byte
  87:lvgl/src/widgets/../core/../misc/lv_mem.h ****  * @return pointer to the new memory, NULL on failure
  88:lvgl/src/widgets/../core/../misc/lv_mem.h ****  */
  89:lvgl/src/widgets/../core/../misc/lv_mem.h **** void * lv_mem_realloc(void * data_p, size_t new_size);
  90:lvgl/src/widgets/../core/../misc/lv_mem.h **** 
  91:lvgl/src/widgets/../core/../misc/lv_mem.h **** /**
  92:lvgl/src/widgets/../core/../misc/lv_mem.h ****  *
  93:lvgl/src/widgets/../core/../misc/lv_mem.h ****  * @return
  94:lvgl/src/widgets/../core/../misc/lv_mem.h ****  */
  95:lvgl/src/widgets/../core/../misc/lv_mem.h **** lv_res_t lv_mem_test(void);
  96:lvgl/src/widgets/../core/../misc/lv_mem.h **** 
  97:lvgl/src/widgets/../core/../misc/lv_mem.h **** /**
  98:lvgl/src/widgets/../core/../misc/lv_mem.h ****  * Give information about the work memory of dynamic allocation
  99:lvgl/src/widgets/../core/../misc/lv_mem.h ****  * @param mon_p pointer to a lv_mem_monitor_t variable,
 100:lvgl/src/widgets/../core/../misc/lv_mem.h ****  *              the result of the analysis will be stored here
 101:lvgl/src/widgets/../core/../misc/lv_mem.h ****  */
 102:lvgl/src/widgets/../core/../misc/lv_mem.h **** void lv_mem_monitor(lv_mem_monitor_t * mon_p);
 103:lvgl/src/widgets/../core/../misc/lv_mem.h **** 
 104:lvgl/src/widgets/../core/../misc/lv_mem.h **** /**
 105:lvgl/src/widgets/../core/../misc/lv_mem.h ****  * Get a temporal buffer with the given size.
 106:lvgl/src/widgets/../core/../misc/lv_mem.h ****  * @param size the required size
 107:lvgl/src/widgets/../core/../misc/lv_mem.h ****  */
 108:lvgl/src/widgets/../core/../misc/lv_mem.h **** void * lv_mem_buf_get(uint32_t size);
 109:lvgl/src/widgets/../core/../misc/lv_mem.h **** 
 110:lvgl/src/widgets/../core/../misc/lv_mem.h **** /**
 111:lvgl/src/widgets/../core/../misc/lv_mem.h ****  * Release a memory buffer
 112:lvgl/src/widgets/../core/../misc/lv_mem.h ****  * @param p buffer to release
 113:lvgl/src/widgets/../core/../misc/lv_mem.h ****  */
 114:lvgl/src/widgets/../core/../misc/lv_mem.h **** void lv_mem_buf_release(void * p);
 115:lvgl/src/widgets/../core/../misc/lv_mem.h **** 
 116:lvgl/src/widgets/../core/../misc/lv_mem.h **** /**
 117:lvgl/src/widgets/../core/../misc/lv_mem.h ****  * Free all memory buffers
 118:lvgl/src/widgets/../core/../misc/lv_mem.h ****  */
 119:lvgl/src/widgets/../core/../misc/lv_mem.h **** void lv_mem_buf_free_all(void);
 120:lvgl/src/widgets/../core/../misc/lv_mem.h **** 
 121:lvgl/src/widgets/../core/../misc/lv_mem.h **** //! @cond Doxygen_Suppress
 122:lvgl/src/widgets/../core/../misc/lv_mem.h **** 
 123:lvgl/src/widgets/../core/../misc/lv_mem.h **** #if LV_MEMCPY_MEMSET_STD
 124:lvgl/src/widgets/../core/../misc/lv_mem.h **** 
 125:lvgl/src/widgets/../core/../misc/lv_mem.h **** /**
 126:lvgl/src/widgets/../core/../misc/lv_mem.h ****  * Wrapper for the standard memcpy
 127:lvgl/src/widgets/../core/../misc/lv_mem.h ****  * @param dst pointer to the destination buffer
 128:lvgl/src/widgets/../core/../misc/lv_mem.h ****  * @param src pointer to the source buffer
 129:lvgl/src/widgets/../core/../misc/lv_mem.h ****  * @param len number of byte to copy
 130:lvgl/src/widgets/../core/../misc/lv_mem.h ****  */
 131:lvgl/src/widgets/../core/../misc/lv_mem.h **** static inline void * lv_memcpy(void * dst, const void * src, size_t len)
 132:lvgl/src/widgets/../core/../misc/lv_mem.h **** {
 133:lvgl/src/widgets/../core/../misc/lv_mem.h ****     return memcpy(dst, src, len);
 134:lvgl/src/widgets/../core/../misc/lv_mem.h **** }
ARM GAS  /var/folders/21/t9g5rlb91ys800n5npymflf80000gn/T//ccNiYEm1.s 			page 129


 135:lvgl/src/widgets/../core/../misc/lv_mem.h **** 
 136:lvgl/src/widgets/../core/../misc/lv_mem.h **** /**
 137:lvgl/src/widgets/../core/../misc/lv_mem.h ****  * Wrapper for the standard memcpy
 138:lvgl/src/widgets/../core/../misc/lv_mem.h ****  * @param dst pointer to the destination buffer
 139:lvgl/src/widgets/../core/../misc/lv_mem.h ****  * @param src pointer to the source buffer
 140:lvgl/src/widgets/../core/../misc/lv_mem.h ****  * @param len number of byte to copy
 141:lvgl/src/widgets/../core/../misc/lv_mem.h ****  */
 142:lvgl/src/widgets/../core/../misc/lv_mem.h **** static inline void * lv_memcpy_small(void * dst, const void * src, size_t len)
 143:lvgl/src/widgets/../core/../misc/lv_mem.h **** {
 144:lvgl/src/widgets/../core/../misc/lv_mem.h ****     return memcpy(dst, src, len);
 145:lvgl/src/widgets/../core/../misc/lv_mem.h **** }
 146:lvgl/src/widgets/../core/../misc/lv_mem.h **** 
 147:lvgl/src/widgets/../core/../misc/lv_mem.h **** /**
 148:lvgl/src/widgets/../core/../misc/lv_mem.h ****  * Wrapper for the standard memset
 149:lvgl/src/widgets/../core/../misc/lv_mem.h ****  * @param dst pointer to the destination buffer
 150:lvgl/src/widgets/../core/../misc/lv_mem.h ****  * @param v value to set [0..255]
 151:lvgl/src/widgets/../core/../misc/lv_mem.h ****  * @param len number of byte to set
 152:lvgl/src/widgets/../core/../misc/lv_mem.h ****  */
 153:lvgl/src/widgets/../core/../misc/lv_mem.h **** static inline void lv_memset(void * dst, uint8_t v, size_t len)
 154:lvgl/src/widgets/../core/../misc/lv_mem.h **** {
 155:lvgl/src/widgets/../core/../misc/lv_mem.h ****     memset(dst, v, len);
 156:lvgl/src/widgets/../core/../misc/lv_mem.h **** }
 157:lvgl/src/widgets/../core/../misc/lv_mem.h **** 
 158:lvgl/src/widgets/../core/../misc/lv_mem.h **** /**
 159:lvgl/src/widgets/../core/../misc/lv_mem.h ****  * Wrapper for the standard memset with fixed 0x00 value
 160:lvgl/src/widgets/../core/../misc/lv_mem.h ****  * @param dst pointer to the destination buffer
 161:lvgl/src/widgets/../core/../misc/lv_mem.h ****  * @param len number of byte to set
 162:lvgl/src/widgets/../core/../misc/lv_mem.h ****  */
 163:lvgl/src/widgets/../core/../misc/lv_mem.h **** static inline void lv_memset_00(void * dst, size_t len)
 164:lvgl/src/widgets/../core/../misc/lv_mem.h **** {
 165:lvgl/src/widgets/../core/../misc/lv_mem.h ****     memset(dst, 0x00, len);
 166:lvgl/src/widgets/../core/../misc/lv_mem.h **** }
 167:lvgl/src/widgets/../core/../misc/lv_mem.h **** 
 168:lvgl/src/widgets/../core/../misc/lv_mem.h **** /**
 169:lvgl/src/widgets/../core/../misc/lv_mem.h ****  * Wrapper for the standard memset with fixed 0xFF value
 170:lvgl/src/widgets/../core/../misc/lv_mem.h ****  * @param dst pointer to the destination buffer
 171:lvgl/src/widgets/../core/../misc/lv_mem.h ****  * @param len number of byte to set
 172:lvgl/src/widgets/../core/../misc/lv_mem.h ****  */
 173:lvgl/src/widgets/../core/../misc/lv_mem.h **** static inline void lv_memset_ff(void * dst, size_t len)
 174:lvgl/src/widgets/../core/../misc/lv_mem.h **** {
 175:lvgl/src/widgets/../core/../misc/lv_mem.h ****     memset(dst, 0xFF, len);
 176:lvgl/src/widgets/../core/../misc/lv_mem.h **** }
 177:lvgl/src/widgets/../core/../misc/lv_mem.h **** 
 178:lvgl/src/widgets/../core/../misc/lv_mem.h **** #else
 179:lvgl/src/widgets/../core/../misc/lv_mem.h **** /**
 180:lvgl/src/widgets/../core/../misc/lv_mem.h ****  * Same as `memcpy` but optimized for 4 byte operation.
 181:lvgl/src/widgets/../core/../misc/lv_mem.h ****  * @param dst pointer to the destination buffer
 182:lvgl/src/widgets/../core/../misc/lv_mem.h ****  * @param src pointer to the source buffer
 183:lvgl/src/widgets/../core/../misc/lv_mem.h ****  * @param len number of byte to copy
 184:lvgl/src/widgets/../core/../misc/lv_mem.h ****  */
 185:lvgl/src/widgets/../core/../misc/lv_mem.h **** void * /* LV_ATTRIBUTE_FAST_MEM */ lv_memcpy(void * dst, const void * src, size_t len);
 186:lvgl/src/widgets/../core/../misc/lv_mem.h **** 
 187:lvgl/src/widgets/../core/../misc/lv_mem.h **** /**
 188:lvgl/src/widgets/../core/../misc/lv_mem.h ****  * Same as `memcpy` but optimized to copy only a few bytes.
 189:lvgl/src/widgets/../core/../misc/lv_mem.h ****  * @param dst pointer to the destination buffer
 190:lvgl/src/widgets/../core/../misc/lv_mem.h ****  * @param src pointer to the source buffer
 191:lvgl/src/widgets/../core/../misc/lv_mem.h ****  * @param len number of byte to copy
ARM GAS  /var/folders/21/t9g5rlb91ys800n5npymflf80000gn/T//ccNiYEm1.s 			page 130


 192:lvgl/src/widgets/../core/../misc/lv_mem.h ****  */
 193:lvgl/src/widgets/../core/../misc/lv_mem.h **** static inline void * LV_ATTRIBUTE_FAST_MEM lv_memcpy_small(void * dst, const void * src, size_t len
 194:lvgl/src/widgets/../core/../misc/lv_mem.h **** {
 195:lvgl/src/widgets/../core/../misc/lv_mem.h ****     uint8_t * d8 = (uint8_t *)dst;
 196:lvgl/src/widgets/../core/../misc/lv_mem.h ****     const uint8_t * s8 = (const uint8_t *)src;
 197:lvgl/src/widgets/../core/../misc/lv_mem.h **** 
 198:lvgl/src/widgets/../core/../misc/lv_mem.h ****     while(len) {
 199:lvgl/src/widgets/../core/../misc/lv_mem.h ****         *d8 = *s8;
 4075              		.loc 5 199 9 view .LVU1404
 4076              		.loc 5 199 15 is_stmt 0 view .LVU1405
 4077 0042 12F8010B 		ldrb	r0, [r2], #1	@ zero_extendqisi2
 4078              	.LVL434:
 4079              		.loc 5 199 13 view .LVU1406
 4080 0046 01F8010B 		strb	r0, [r1], #1
 4081              	.LVL435:
 200:lvgl/src/widgets/../core/../misc/lv_mem.h ****         d8++;
 4082              		.loc 5 200 9 is_stmt 1 view .LVU1407
 201:lvgl/src/widgets/../core/../misc/lv_mem.h ****         s8++;
 4083              		.loc 5 201 9 view .LVU1408
 202:lvgl/src/widgets/../core/../misc/lv_mem.h ****         len--;
 4084              		.loc 5 202 9 view .LVU1409
 4085              		.loc 5 202 12 is_stmt 0 view .LVU1410
 4086 004a 013B     		subs	r3, r3, #1
 4087              	.LVL436:
 4088              	.L187:
 198:lvgl/src/widgets/../core/../misc/lv_mem.h ****         *d8 = *s8;
 4089              		.loc 5 198 11 is_stmt 1 view .LVU1411
 4090 004c 002B     		cmp	r3, #0
 4091 004e F8D1     		bne	.L188
 198:lvgl/src/widgets/../core/../misc/lv_mem.h ****         *d8 = *s8;
 4092              		.loc 5 198 11 is_stmt 0 view .LVU1412
 4093              	.LBE230:
 4094              	.LBE229:
 283:lvgl/src/widgets/lv_table.c ****             uint32_t idx = old_col_start + min_col_cnt + i;
 4095              		.loc 1 283 15 view .LVU1413
 4096 0050 0025     		movs	r5, #0
 4097 0052 09E0     		b	.L189
 4098              	.LVL437:
 4099              	.L190:
 4100              	.LBB232:
 291:lvgl/src/widgets/lv_table.c ****             table->cell_data[idx] = NULL;
 4101              		.loc 1 291 13 is_stmt 1 discriminator 2 view .LVU1414
 291:lvgl/src/widgets/lv_table.c ****             table->cell_data[idx] = NULL;
 4102              		.loc 1 291 30 is_stmt 0 discriminator 2 view .LVU1415
 4103 0054 B36A     		ldr	r3, [r6, #40]
 291:lvgl/src/widgets/lv_table.c ****             table->cell_data[idx] = NULL;
 4104              		.loc 1 291 13 discriminator 2 view .LVU1416
 4105 0056 53F82400 		ldr	r0, [r3, r4, lsl #2]
 4106 005a FFF7FEFF 		bl	lv_mem_free
 4107              	.LVL438:
 292:lvgl/src/widgets/lv_table.c ****         }
 4108              		.loc 1 292 13 is_stmt 1 discriminator 2 view .LVU1417
 292:lvgl/src/widgets/lv_table.c ****         }
 4109              		.loc 1 292 18 is_stmt 0 discriminator 2 view .LVU1418
 4110 005e B36A     		ldr	r3, [r6, #40]
 292:lvgl/src/widgets/lv_table.c ****         }
 4111              		.loc 1 292 35 discriminator 2 view .LVU1419
ARM GAS  /var/folders/21/t9g5rlb91ys800n5npymflf80000gn/T//ccNiYEm1.s 			page 131


 4112 0060 0022     		movs	r2, #0
 4113 0062 43F82420 		str	r2, [r3, r4, lsl #2]
 4114              	.LBE232:
 283:lvgl/src/widgets/lv_table.c ****             uint32_t idx = old_col_start + min_col_cnt + i;
 4115              		.loc 1 283 57 is_stmt 1 discriminator 2 view .LVU1420
 4116 0066 0135     		adds	r5, r5, #1
 4117              	.LVL439:
 4118              	.L189:
 283:lvgl/src/widgets/lv_table.c ****             uint32_t idx = old_col_start + min_col_cnt + i;
 4119              		.loc 1 283 22 discriminator 1 view .LVU1421
 283:lvgl/src/widgets/lv_table.c ****             uint32_t idx = old_col_start + min_col_cnt + i;
 4120              		.loc 1 283 45 is_stmt 0 discriminator 1 view .LVU1422
 4121 0068 A7EB0803 		sub	r3, r7, r8
 283:lvgl/src/widgets/lv_table.c ****             uint32_t idx = old_col_start + min_col_cnt + i;
 4122              		.loc 1 283 22 discriminator 1 view .LVU1423
 4123 006c AB42     		cmp	r3, r5
 4124 006e 10DD     		ble	.L198
 4125              	.LBB233:
 284:lvgl/src/widgets/lv_table.c **** #if LV_USE_USER_DATA
 4126              		.loc 1 284 13 is_stmt 1 view .LVU1424
 284:lvgl/src/widgets/lv_table.c **** #if LV_USE_USER_DATA
 4127              		.loc 1 284 42 is_stmt 0 view .LVU1425
 4128 0070 0AEB0904 		add	r4, r10, r9
 284:lvgl/src/widgets/lv_table.c **** #if LV_USE_USER_DATA
 4129              		.loc 1 284 22 view .LVU1426
 4130 0074 2C44     		add	r4, r4, r5
 4131              	.LVL440:
 286:lvgl/src/widgets/lv_table.c ****                 lv_mem_free(table->cell_data[idx]->user_data);
 4132              		.loc 1 286 13 is_stmt 1 view .LVU1427
 286:lvgl/src/widgets/lv_table.c ****                 lv_mem_free(table->cell_data[idx]->user_data);
 4133              		.loc 1 286 21 is_stmt 0 view .LVU1428
 4134 0076 B36A     		ldr	r3, [r6, #40]
 286:lvgl/src/widgets/lv_table.c ****                 lv_mem_free(table->cell_data[idx]->user_data);
 4135              		.loc 1 286 32 view .LVU1429
 4136 0078 53F82430 		ldr	r3, [r3, r4, lsl #2]
 286:lvgl/src/widgets/lv_table.c ****                 lv_mem_free(table->cell_data[idx]->user_data);
 4137              		.loc 1 286 37 view .LVU1430
 4138 007c 5868     		ldr	r0, [r3, #4]
 286:lvgl/src/widgets/lv_table.c ****                 lv_mem_free(table->cell_data[idx]->user_data);
 4139              		.loc 1 286 15 view .LVU1431
 4140 007e 0028     		cmp	r0, #0
 4141 0080 E8D0     		beq	.L190
 287:lvgl/src/widgets/lv_table.c ****                 table->cell_data[idx]->user_data = NULL;
 4142              		.loc 1 287 17 is_stmt 1 view .LVU1432
 4143 0082 FFF7FEFF 		bl	lv_mem_free
 4144              	.LVL441:
 288:lvgl/src/widgets/lv_table.c ****             }
 4145              		.loc 1 288 17 view .LVU1433
 288:lvgl/src/widgets/lv_table.c ****             }
 4146              		.loc 1 288 22 is_stmt 0 view .LVU1434
 4147 0086 B36A     		ldr	r3, [r6, #40]
 288:lvgl/src/widgets/lv_table.c ****             }
 4148              		.loc 1 288 33 view .LVU1435
 4149 0088 53F82430 		ldr	r3, [r3, r4, lsl #2]
 288:lvgl/src/widgets/lv_table.c ****             }
 4150              		.loc 1 288 50 view .LVU1436
 4151 008c 0022     		movs	r2, #0
ARM GAS  /var/folders/21/t9g5rlb91ys800n5npymflf80000gn/T//ccNiYEm1.s 			page 132


 4152 008e 5A60     		str	r2, [r3, #4]
 4153 0090 E0E7     		b	.L190
 4154              	.LVL442:
 4155              	.L198:
 288:lvgl/src/widgets/lv_table.c ****             }
 4156              		.loc 1 288 50 view .LVU1437
 4157              	.LBE233:
 4158              	.LBE228:
 274:lvgl/src/widgets/lv_table.c ****         old_col_start = row * old_col_cnt;
 4159              		.loc 1 274 43 is_stmt 1 discriminator 2 view .LVU1438
 4160 0092 0BF1010B 		add	fp, fp, #1
 4161              	.LVL443:
 4162              	.L186:
 274:lvgl/src/widgets/lv_table.c ****         old_col_start = row * old_col_cnt;
 4163              		.loc 1 274 22 discriminator 1 view .LVU1439
 274:lvgl/src/widgets/lv_table.c ****         old_col_start = row * old_col_cnt;
 4164              		.loc 1 274 29 is_stmt 0 discriminator 1 view .LVU1440
 4165 0096 F38C     		ldrh	r3, [r6, #38]
 274:lvgl/src/widgets/lv_table.c ****         old_col_start = row * old_col_cnt;
 4166              		.loc 1 274 22 discriminator 1 view .LVU1441
 4167 0098 5B45     		cmp	r3, fp
 4168 009a 0CD9     		bls	.L199
 4169              	.LBB235:
 275:lvgl/src/widgets/lv_table.c ****         new_col_start = row * col_cnt;
 4170              		.loc 1 275 9 is_stmt 1 view .LVU1442
 275:lvgl/src/widgets/lv_table.c ****         new_col_start = row * col_cnt;
 4171              		.loc 1 275 23 is_stmt 0 view .LVU1443
 4172 009c 0BFB07F9 		mul	r9, fp, r7
 4173              	.LVL444:
 276:lvgl/src/widgets/lv_table.c **** 
 4174              		.loc 1 276 9 is_stmt 1 view .LVU1444
 276:lvgl/src/widgets/lv_table.c **** 
 4175              		.loc 1 276 23 is_stmt 0 view .LVU1445
 4176 00a0 0BFB08F1 		mul	r1, fp, r8
 4177              	.LVL445:
 278:lvgl/src/widgets/lv_table.c ****                         sizeof(new_cell_data[0]) * min_col_cnt);
 4178              		.loc 1 278 9 is_stmt 1 view .LVU1446
 278:lvgl/src/widgets/lv_table.c ****                         sizeof(new_cell_data[0]) * min_col_cnt);
 4179              		.loc 1 278 25 is_stmt 0 view .LVU1447
 4180 00a4 019B     		ldr	r3, [sp, #4]
 4181 00a6 03EB8101 		add	r1, r3, r1, lsl #2
 4182              	.LVL446:
 278:lvgl/src/widgets/lv_table.c ****                         sizeof(new_cell_data[0]) * min_col_cnt);
 4183              		.loc 1 278 62 view .LVU1448
 4184 00aa B26A     		ldr	r2, [r6, #40]
 278:lvgl/src/widgets/lv_table.c ****                         sizeof(new_cell_data[0]) * min_col_cnt);
 4185              		.loc 1 278 56 view .LVU1449
 4186 00ac 02EB8902 		add	r2, r2, r9, lsl #2
 278:lvgl/src/widgets/lv_table.c ****                         sizeof(new_cell_data[0]) * min_col_cnt);
 4187              		.loc 1 278 9 view .LVU1450
 4188 00b0 4FEA8A03 		lsl	r3, r10, #2
 4189              	.LVL447:
 4190              	.LBB234:
 4191              	.LBI229:
 193:lvgl/src/widgets/../core/../misc/lv_mem.h **** {
 4192              		.loc 5 193 44 is_stmt 1 view .LVU1451
 4193              	.LBB231:
ARM GAS  /var/folders/21/t9g5rlb91ys800n5npymflf80000gn/T//ccNiYEm1.s 			page 133


 195:lvgl/src/widgets/../core/../misc/lv_mem.h ****     const uint8_t * s8 = (const uint8_t *)src;
 4194              		.loc 5 195 5 view .LVU1452
 196:lvgl/src/widgets/../core/../misc/lv_mem.h **** 
 4195              		.loc 5 196 5 view .LVU1453
 198:lvgl/src/widgets/../core/../misc/lv_mem.h ****         *d8 = *s8;
 4196              		.loc 5 198 5 view .LVU1454
 198:lvgl/src/widgets/../core/../misc/lv_mem.h ****         *d8 = *s8;
 4197              		.loc 5 198 10 is_stmt 0 view .LVU1455
 4198 00b4 CAE7     		b	.L187
 4199              	.LVL448:
 4200              	.L199:
 198:lvgl/src/widgets/../core/../misc/lv_mem.h ****         *d8 = *s8;
 4201              		.loc 5 198 10 view .LVU1456
 4202              	.LBE231:
 4203              	.LBE234:
 4204              	.LBE235:
 296:lvgl/src/widgets/lv_table.c ****     table->cell_data = new_cell_data;
 4205              		.loc 1 296 5 is_stmt 1 view .LVU1457
 4206 00b6 B06A     		ldr	r0, [r6, #40]
 4207 00b8 FFF7FEFF 		bl	lv_mem_free
 4208              	.LVL449:
 297:lvgl/src/widgets/lv_table.c **** 
 4209              		.loc 1 297 5 view .LVU1458
 297:lvgl/src/widgets/lv_table.c **** 
 4210              		.loc 1 297 22 is_stmt 0 view .LVU1459
 4211 00bc 019B     		ldr	r3, [sp, #4]
 4212 00be B362     		str	r3, [r6, #40]
 300:lvgl/src/widgets/lv_table.c ****     LV_ASSERT_MALLOC(table->col_w);
 4213              		.loc 1 300 5 is_stmt 1 view .LVU1460
 300:lvgl/src/widgets/lv_table.c ****     LV_ASSERT_MALLOC(table->col_w);
 4214              		.loc 1 300 20 is_stmt 0 view .LVU1461
 4215 00c0 4FEA4801 		lsl	r1, r8, #1
 4216 00c4 306B     		ldr	r0, [r6, #48]
 4217 00c6 FFF7FEFF 		bl	lv_mem_realloc
 4218              	.LVL450:
 300:lvgl/src/widgets/lv_table.c ****     LV_ASSERT_MALLOC(table->col_w);
 4219              		.loc 1 300 18 view .LVU1462
 4220 00ca 3063     		str	r0, [r6, #48]
 301:lvgl/src/widgets/lv_table.c ****     if(table->col_w == NULL) return;
 4221              		.loc 1 301 5 is_stmt 1 view .LVU1463
 301:lvgl/src/widgets/lv_table.c ****     if(table->col_w == NULL) return;
 4222              		.loc 1 301 5 view .LVU1464
 4223 00cc 28B9     		cbnz	r0, .L195
 4224              	.L194:
 301:lvgl/src/widgets/lv_table.c ****     if(table->col_w == NULL) return;
 4225              		.loc 1 301 5 discriminator 2 view .LVU1465
 301:lvgl/src/widgets/lv_table.c ****     if(table->col_w == NULL) return;
 4226              		.loc 1 301 5 discriminator 2 view .LVU1466
 301:lvgl/src/widgets/lv_table.c ****     if(table->col_w == NULL) return;
 4227              		.loc 1 301 5 discriminator 2 view .LVU1467
 301:lvgl/src/widgets/lv_table.c ****     if(table->col_w == NULL) return;
 4228              		.loc 1 301 5 discriminator 2 view .LVU1468
 301:lvgl/src/widgets/lv_table.c ****     if(table->col_w == NULL) return;
 4229              		.loc 1 301 5 discriminator 2 view .LVU1469
 4230 00ce FEE7     		b	.L194
 4231              	.LVL451:
 4232              	.L196:
ARM GAS  /var/folders/21/t9g5rlb91ys800n5npymflf80000gn/T//ccNiYEm1.s 			page 134


 306:lvgl/src/widgets/lv_table.c ****     }
 4233              		.loc 1 306 9 discriminator 3 view .LVU1470
 306:lvgl/src/widgets/lv_table.c ****     }
 4234              		.loc 1 306 14 is_stmt 0 discriminator 3 view .LVU1471
 4235 00d0 336B     		ldr	r3, [r6, #48]
 306:lvgl/src/widgets/lv_table.c ****     }
 4236              		.loc 1 306 27 discriminator 3 view .LVU1472
 4237 00d2 8222     		movs	r2, #130
 4238 00d4 23F81720 		strh	r2, [r3, r7, lsl #1]	@ movhi
 305:lvgl/src/widgets/lv_table.c ****         table->col_w[col] = LV_DPI_DEF;
 4239              		.loc 1 305 46 is_stmt 1 discriminator 3 view .LVU1473
 4240 00d8 0137     		adds	r7, r7, #1
 4241              	.LVL452:
 4242              	.L195:
 305:lvgl/src/widgets/lv_table.c ****         table->col_w[col] = LV_DPI_DEF;
 4243              		.loc 1 305 32 discriminator 1 view .LVU1474
 4244 00da B845     		cmp	r8, r7
 4245 00dc F8D8     		bhi	.L196
 309:lvgl/src/widgets/lv_table.c **** }
 4246              		.loc 1 309 5 view .LVU1475
 4247 00de 0021     		movs	r1, #0
 4248 00e0 3046     		mov	r0, r6
 4249 00e2 FFF7FEFF 		bl	refr_size_form_row
 4250              	.LVL453:
 4251              	.L182:
 310:lvgl/src/widgets/lv_table.c **** 
 4252              		.loc 1 310 1 is_stmt 0 view .LVU1476
 4253 00e6 03B0     		add	sp, sp, #12
 4254              	.LCFI34:
 4255              		.cfi_def_cfa_offset 36
 4256              		@ sp needed
 4257 00e8 BDE8F08F 		pop	{r4, r5, r6, r7, r8, r9, r10, fp, pc}
 4258              		.cfi_endproc
 4259              	.LFE166:
 4261              		.section	.text.lv_table_set_cell_value,"ax",%progbits
 4262              		.align	1
 4263              		.global	lv_table_set_cell_value
 4264              		.syntax unified
 4265              		.thumb
 4266              		.thumb_func
 4268              	lv_table_set_cell_value:
 4269              	.LVL454:
 4270              	.LFB163:
  87:lvgl/src/widgets/lv_table.c ****     LV_ASSERT_OBJ(obj, MY_CLASS);
 4271              		.loc 1 87 1 is_stmt 1 view -0
 4272              		.cfi_startproc
 4273              		@ args = 0, pretend = 0, frame = 8
 4274              		@ frame_needed = 0, uses_anonymous_args = 0
  88:lvgl/src/widgets/lv_table.c ****     LV_ASSERT_NULL(txt);
 4275              		.loc 1 88 5 view .LVU1478
  88:lvgl/src/widgets/lv_table.c ****     LV_ASSERT_NULL(txt);
 4276              		.loc 1 88 5 view .LVU1479
  88:lvgl/src/widgets/lv_table.c ****     LV_ASSERT_NULL(txt);
 4277              		.loc 1 88 5 view .LVU1480
  89:lvgl/src/widgets/lv_table.c **** 
 4278              		.loc 1 89 5 view .LVU1481
  89:lvgl/src/widgets/lv_table.c **** 
ARM GAS  /var/folders/21/t9g5rlb91ys800n5npymflf80000gn/T//ccNiYEm1.s 			page 135


 4279              		.loc 1 89 5 view .LVU1482
 4280 0000 002B     		cmp	r3, #0
 4281 0002 40D0     		beq	.L202
  87:lvgl/src/widgets/lv_table.c ****     LV_ASSERT_OBJ(obj, MY_CLASS);
 4282              		.loc 1 87 1 is_stmt 0 discriminator 2 view .LVU1483
 4283 0004 2DE9F04F 		push	{r4, r5, r6, r7, r8, r9, r10, fp, lr}
 4284              	.LCFI35:
 4285              		.cfi_def_cfa_offset 36
 4286              		.cfi_offset 4, -36
 4287              		.cfi_offset 5, -32
 4288              		.cfi_offset 6, -28
 4289              		.cfi_offset 7, -24
 4290              		.cfi_offset 8, -20
 4291              		.cfi_offset 9, -16
 4292              		.cfi_offset 10, -12
 4293              		.cfi_offset 11, -8
 4294              		.cfi_offset 14, -4
 4295 0008 83B0     		sub	sp, sp, #12
 4296              	.LCFI36:
 4297              		.cfi_def_cfa_offset 48
 4298 000a 0446     		mov	r4, r0
 4299 000c 0D46     		mov	r5, r1
 4300 000e 1646     		mov	r6, r2
 4301 0010 9A46     		mov	r10, r3
  89:lvgl/src/widgets/lv_table.c **** 
 4302              		.loc 1 89 5 is_stmt 1 discriminator 2 view .LVU1484
  89:lvgl/src/widgets/lv_table.c **** 
 4303              		.loc 1 89 24 discriminator 2 view .LVU1485
  91:lvgl/src/widgets/lv_table.c **** 
 4304              		.loc 1 91 5 discriminator 2 view .LVU1486
 4305              	.LVL455:
  94:lvgl/src/widgets/lv_table.c ****     if(row >= table->row_cnt) lv_table_set_row_cnt(obj, row + 1);
 4306              		.loc 1 94 5 discriminator 2 view .LVU1487
  94:lvgl/src/widgets/lv_table.c ****     if(row >= table->row_cnt) lv_table_set_row_cnt(obj, row + 1);
 4307              		.loc 1 94 20 is_stmt 0 discriminator 2 view .LVU1488
 4308 0012 838C     		ldrh	r3, [r0, #36]
 4309              	.LVL456:
  94:lvgl/src/widgets/lv_table.c ****     if(row >= table->row_cnt) lv_table_set_row_cnt(obj, row + 1);
 4310              		.loc 1 94 7 discriminator 2 view .LVU1489
 4311 0014 9342     		cmp	r3, r2
 4312 0016 37D9     		bls	.L213
 4313              	.LVL457:
 4314              	.L203:
  95:lvgl/src/widgets/lv_table.c **** 
 4315              		.loc 1 95 5 is_stmt 1 view .LVU1490
  95:lvgl/src/widgets/lv_table.c **** 
 4316              		.loc 1 95 20 is_stmt 0 view .LVU1491
 4317 0018 E38C     		ldrh	r3, [r4, #38]
  95:lvgl/src/widgets/lv_table.c **** 
 4318              		.loc 1 95 7 view .LVU1492
 4319 001a AB42     		cmp	r3, r5
 4320 001c 39D9     		bls	.L214
 4321              	.L204:
  97:lvgl/src/widgets/lv_table.c ****     lv_table_cell_ctrl_t ctrl = 0;
 4322              		.loc 1 97 5 is_stmt 1 view .LVU1493
  97:lvgl/src/widgets/lv_table.c ****     lv_table_cell_ctrl_t ctrl = 0;
 4323              		.loc 1 97 32 is_stmt 0 view .LVU1494
ARM GAS  /var/folders/21/t9g5rlb91ys800n5npymflf80000gn/T//ccNiYEm1.s 			page 136


 4324 001e A78C     		ldrh	r7, [r4, #36]
  97:lvgl/src/widgets/lv_table.c ****     lv_table_cell_ctrl_t ctrl = 0;
 4325              		.loc 1 97 42 view .LVU1495
 4326 0020 07FB0567 		mla	r7, r7, r5, r6
 4327              	.LVL458:
  98:lvgl/src/widgets/lv_table.c **** 
 4328              		.loc 1 98 5 is_stmt 1 view .LVU1496
 101:lvgl/src/widgets/lv_table.c **** 
 4329              		.loc 1 101 5 view .LVU1497
 101:lvgl/src/widgets/lv_table.c **** 
 4330              		.loc 1 101 13 is_stmt 0 view .LVU1498
 4331 0024 D4F82890 		ldr	r9, [r4, #40]
 101:lvgl/src/widgets/lv_table.c **** 
 4332              		.loc 1 101 24 view .LVU1499
 4333 0028 59F82780 		ldr	r8, [r9, r7, lsl #2]
 101:lvgl/src/widgets/lv_table.c **** 
 4334              		.loc 1 101 7 view .LVU1500
 4335 002c B8F1000F 		cmp	r8, #0
 4336 0030 35D0     		beq	.L209
 101:lvgl/src/widgets/lv_table.c **** 
 4337              		.loc 1 101 32 is_stmt 1 discriminator 1 view .LVU1501
 101:lvgl/src/widgets/lv_table.c **** 
 4338              		.loc 1 101 37 is_stmt 0 discriminator 1 view .LVU1502
 4339 0032 98F800B0 		ldrb	fp, [r8]	@ zero_extendqisi2
 4340              	.LVL459:
 4341              	.L205:
 104:lvgl/src/widgets/lv_table.c **** 
 4342              		.loc 1 104 5 is_stmt 1 view .LVU1503
 107:lvgl/src/widgets/lv_table.c **** #endif
 4343              		.loc 1 107 5 view .LVU1504
 107:lvgl/src/widgets/lv_table.c **** #endif
 4344              		.loc 1 107 7 is_stmt 0 view .LVU1505
 4345 0036 B8F1000F 		cmp	r8, #0
 4346 003a 33D0     		beq	.L210
 107:lvgl/src/widgets/lv_table.c **** #endif
 4347              		.loc 1 107 32 is_stmt 1 discriminator 1 view .LVU1506
 107:lvgl/src/widgets/lv_table.c **** #endif
 4348              		.loc 1 107 42 is_stmt 0 discriminator 1 view .LVU1507
 4349 003c D8F80430 		ldr	r3, [r8, #4]
 4350 0040 0193     		str	r3, [sp, #4]
 4351              	.LVL460:
 4352              	.L206:
 110:lvgl/src/widgets/lv_table.c **** 
 4353              		.loc 1 110 5 is_stmt 1 view .LVU1508
 110:lvgl/src/widgets/lv_table.c **** 
 4354              		.loc 1 110 26 is_stmt 0 view .LVU1509
 4355 0042 5046     		mov	r0, r10
 4356 0044 FFF7FEFF 		bl	get_cell_txt_len
 4357              	.LVL461:
 4358 0048 0146     		mov	r1, r0
 4359              	.LVL462:
 112:lvgl/src/widgets/lv_table.c ****     LV_ASSERT_MALLOC(table->cell_data[cell]);
 4360              		.loc 1 112 5 is_stmt 1 view .LVU1510
 112:lvgl/src/widgets/lv_table.c ****     LV_ASSERT_MALLOC(table->cell_data[cell]);
 4361              		.loc 1 112 30 is_stmt 0 view .LVU1511
 4362 004a 4046     		mov	r0, r8
 4363              	.LVL463:
ARM GAS  /var/folders/21/t9g5rlb91ys800n5npymflf80000gn/T//ccNiYEm1.s 			page 137


 112:lvgl/src/widgets/lv_table.c ****     LV_ASSERT_MALLOC(table->cell_data[cell]);
 4364              		.loc 1 112 30 view .LVU1512
 4365 004c FFF7FEFF 		bl	lv_mem_realloc
 4366              	.LVL464:
 112:lvgl/src/widgets/lv_table.c ****     LV_ASSERT_MALLOC(table->cell_data[cell]);
 4367              		.loc 1 112 28 view .LVU1513
 4368 0050 49F82700 		str	r0, [r9, r7, lsl #2]
 113:lvgl/src/widgets/lv_table.c ****     if(table->cell_data[cell] == NULL) return;
 4369              		.loc 1 113 5 is_stmt 1 view .LVU1514
 113:lvgl/src/widgets/lv_table.c ****     if(table->cell_data[cell] == NULL) return;
 4370              		.loc 1 113 5 view .LVU1515
 4371 0054 A36A     		ldr	r3, [r4, #40]
 4372 0056 53F82700 		ldr	r0, [r3, r7, lsl #2]
 4373 005a 30B3     		cbz	r0, .L208
 113:lvgl/src/widgets/lv_table.c ****     if(table->cell_data[cell] == NULL) return;
 4374              		.loc 1 113 5 view .LVU1516
 113:lvgl/src/widgets/lv_table.c ****     if(table->cell_data[cell] == NULL) return;
 4375              		.loc 1 113 45 view .LVU1517
 114:lvgl/src/widgets/lv_table.c **** 
 4376              		.loc 1 114 5 view .LVU1518
 116:lvgl/src/widgets/lv_table.c **** 
 4377              		.loc 1 116 5 view .LVU1519
 4378 005c 5146     		mov	r1, r10
 4379 005e FFF7FEFF 		bl	copy_cell_txt
 4380              	.LVL465:
 118:lvgl/src/widgets/lv_table.c **** #if LV_USE_USER_DATA
 4381              		.loc 1 118 5 view .LVU1520
 118:lvgl/src/widgets/lv_table.c **** #if LV_USE_USER_DATA
 4382              		.loc 1 118 10 is_stmt 0 view .LVU1521
 4383 0062 A36A     		ldr	r3, [r4, #40]
 118:lvgl/src/widgets/lv_table.c **** #if LV_USE_USER_DATA
 4384              		.loc 1 118 21 view .LVU1522
 4385 0064 53F82730 		ldr	r3, [r3, r7, lsl #2]
 118:lvgl/src/widgets/lv_table.c **** #if LV_USE_USER_DATA
 4386              		.loc 1 118 34 view .LVU1523
 4387 0068 83F800B0 		strb	fp, [r3]
 120:lvgl/src/widgets/lv_table.c **** #endif
 4388              		.loc 1 120 5 is_stmt 1 view .LVU1524
 120:lvgl/src/widgets/lv_table.c **** #endif
 4389              		.loc 1 120 10 is_stmt 0 view .LVU1525
 4390 006c A36A     		ldr	r3, [r4, #40]
 120:lvgl/src/widgets/lv_table.c **** #endif
 4391              		.loc 1 120 21 view .LVU1526
 4392 006e 53F82730 		ldr	r3, [r3, r7, lsl #2]
 120:lvgl/src/widgets/lv_table.c **** #endif
 4393              		.loc 1 120 39 view .LVU1527
 4394 0072 019A     		ldr	r2, [sp, #4]
 4395 0074 5A60     		str	r2, [r3, #4]
 122:lvgl/src/widgets/lv_table.c **** }
 4396              		.loc 1 122 5 is_stmt 1 view .LVU1528
 4397 0076 3246     		mov	r2, r6
 4398 0078 2946     		mov	r1, r5
 4399 007a 2046     		mov	r0, r4
 4400 007c FFF7FEFF 		bl	refr_cell_size
 4401              	.LVL466:
 123:lvgl/src/widgets/lv_table.c **** 
 4402              		.loc 1 123 1 is_stmt 0 view .LVU1529
ARM GAS  /var/folders/21/t9g5rlb91ys800n5npymflf80000gn/T//ccNiYEm1.s 			page 138


 4403 0080 03B0     		add	sp, sp, #12
 4404              	.LCFI37:
 4405              		.cfi_def_cfa_offset 36
 4406              		@ sp needed
 4407 0082 BDE8F08F 		pop	{r4, r5, r6, r7, r8, r9, r10, fp, pc}
 4408              	.LVL467:
 4409              	.L202:
 4410              	.LCFI38:
 4411              		.cfi_def_cfa_offset 0
 4412              		.cfi_restore 4
 4413              		.cfi_restore 5
 4414              		.cfi_restore 6
 4415              		.cfi_restore 7
 4416              		.cfi_restore 8
 4417              		.cfi_restore 9
 4418              		.cfi_restore 10
 4419              		.cfi_restore 11
 4420              		.cfi_restore 14
  89:lvgl/src/widgets/lv_table.c **** 
 4421              		.loc 1 89 5 is_stmt 1 discriminator 1 view .LVU1530
  89:lvgl/src/widgets/lv_table.c **** 
 4422              		.loc 1 89 5 discriminator 1 view .LVU1531
  89:lvgl/src/widgets/lv_table.c **** 
 4423              		.loc 1 89 5 discriminator 1 view .LVU1532
  89:lvgl/src/widgets/lv_table.c **** 
 4424              		.loc 1 89 5 discriminator 1 view .LVU1533
  89:lvgl/src/widgets/lv_table.c **** 
 4425              		.loc 1 89 5 discriminator 1 view .LVU1534
 4426 0086 FEE7     		b	.L202
 4427              	.LVL468:
 4428              	.L213:
 4429              	.LCFI39:
 4430              		.cfi_def_cfa_offset 48
 4431              		.cfi_offset 4, -36
 4432              		.cfi_offset 5, -32
 4433              		.cfi_offset 6, -28
 4434              		.cfi_offset 7, -24
 4435              		.cfi_offset 8, -20
 4436              		.cfi_offset 9, -16
 4437              		.cfi_offset 10, -12
 4438              		.cfi_offset 11, -8
 4439              		.cfi_offset 14, -4
  94:lvgl/src/widgets/lv_table.c ****     if(row >= table->row_cnt) lv_table_set_row_cnt(obj, row + 1);
 4440              		.loc 1 94 31 discriminator 1 view .LVU1535
 4441 0088 511C     		adds	r1, r2, #1
 4442              	.LVL469:
  94:lvgl/src/widgets/lv_table.c ****     if(row >= table->row_cnt) lv_table_set_row_cnt(obj, row + 1);
 4443              		.loc 1 94 31 is_stmt 0 discriminator 1 view .LVU1536
 4444 008a 89B2     		uxth	r1, r1
 4445 008c FFF7FEFF 		bl	lv_table_set_col_cnt
 4446              	.LVL470:
  94:lvgl/src/widgets/lv_table.c ****     if(row >= table->row_cnt) lv_table_set_row_cnt(obj, row + 1);
 4447              		.loc 1 94 31 discriminator 1 view .LVU1537
 4448 0090 C2E7     		b	.L203
 4449              	.L214:
  95:lvgl/src/widgets/lv_table.c **** 
 4450              		.loc 1 95 31 is_stmt 1 discriminator 1 view .LVU1538
ARM GAS  /var/folders/21/t9g5rlb91ys800n5npymflf80000gn/T//ccNiYEm1.s 			page 139


 4451 0092 691C     		adds	r1, r5, #1
 4452 0094 89B2     		uxth	r1, r1
 4453 0096 2046     		mov	r0, r4
 4454 0098 FFF7FEFF 		bl	lv_table_set_row_cnt
 4455              	.LVL471:
 4456 009c BFE7     		b	.L204
 4457              	.LVL472:
 4458              	.L209:
  98:lvgl/src/widgets/lv_table.c **** 
 4459              		.loc 1 98 26 is_stmt 0 view .LVU1539
 4460 009e 4FF0000B 		mov	fp, #0
 4461 00a2 C8E7     		b	.L205
 4462              	.LVL473:
 4463              	.L210:
 104:lvgl/src/widgets/lv_table.c **** 
 4464              		.loc 1 104 12 view .LVU1540
 4465 00a4 CDF80480 		str	r8, [sp, #4]
 4466 00a8 CBE7     		b	.L206
 4467              	.LVL474:
 4468              	.L208:
 113:lvgl/src/widgets/lv_table.c ****     if(table->cell_data[cell] == NULL) return;
 4469              		.loc 1 113 5 is_stmt 1 discriminator 2 view .LVU1541
 113:lvgl/src/widgets/lv_table.c ****     if(table->cell_data[cell] == NULL) return;
 4470              		.loc 1 113 5 discriminator 2 view .LVU1542
 113:lvgl/src/widgets/lv_table.c ****     if(table->cell_data[cell] == NULL) return;
 4471              		.loc 1 113 5 discriminator 2 view .LVU1543
 113:lvgl/src/widgets/lv_table.c ****     if(table->cell_data[cell] == NULL) return;
 4472              		.loc 1 113 5 discriminator 2 view .LVU1544
 113:lvgl/src/widgets/lv_table.c ****     if(table->cell_data[cell] == NULL) return;
 4473              		.loc 1 113 5 discriminator 2 view .LVU1545
 4474 00aa FEE7     		b	.L208
 4475              		.cfi_endproc
 4476              	.LFE163:
 4478              		.section	.text.lv_table_set_cell_value_fmt,"ax",%progbits
 4479              		.align	1
 4480              		.global	lv_table_set_cell_value_fmt
 4481              		.syntax unified
 4482              		.thumb
 4483              		.thumb_func
 4485              	lv_table_set_cell_value_fmt:
 4486              	.LVL475:
 4487              	.LFB164:
 126:lvgl/src/widgets/lv_table.c ****     LV_ASSERT_OBJ(obj, MY_CLASS);
 4488              		.loc 1 126 1 view -0
 4489              		.cfi_startproc
 4490              		@ args = 4, pretend = 4, frame = 8
 4491              		@ frame_needed = 0, uses_anonymous_args = 1
 126:lvgl/src/widgets/lv_table.c ****     LV_ASSERT_OBJ(obj, MY_CLASS);
 4492              		.loc 1 126 1 is_stmt 0 view .LVU1547
 4493 0000 08B4     		push	{r3}
 4494              	.LCFI40:
 4495              		.cfi_def_cfa_offset 4
 4496              		.cfi_offset 3, -4
 4497 0002 2DE9F04F 		push	{r4, r5, r6, r7, r8, r9, r10, fp, lr}
 4498              	.LCFI41:
 4499              		.cfi_def_cfa_offset 40
 4500              		.cfi_offset 4, -40
ARM GAS  /var/folders/21/t9g5rlb91ys800n5npymflf80000gn/T//ccNiYEm1.s 			page 140


 4501              		.cfi_offset 5, -36
 4502              		.cfi_offset 6, -32
 4503              		.cfi_offset 7, -28
 4504              		.cfi_offset 8, -24
 4505              		.cfi_offset 9, -20
 4506              		.cfi_offset 10, -16
 4507              		.cfi_offset 11, -12
 4508              		.cfi_offset 14, -8
 4509 0006 82B0     		sub	sp, sp, #8
 4510              	.LCFI42:
 4511              		.cfi_def_cfa_offset 48
 127:lvgl/src/widgets/lv_table.c ****     LV_ASSERT_NULL(fmt);
 4512              		.loc 1 127 5 is_stmt 1 view .LVU1548
 127:lvgl/src/widgets/lv_table.c ****     LV_ASSERT_NULL(fmt);
 4513              		.loc 1 127 5 view .LVU1549
 127:lvgl/src/widgets/lv_table.c ****     LV_ASSERT_NULL(fmt);
 4514              		.loc 1 127 5 view .LVU1550
 128:lvgl/src/widgets/lv_table.c **** 
 4515              		.loc 1 128 5 view .LVU1551
 128:lvgl/src/widgets/lv_table.c **** 
 4516              		.loc 1 128 5 view .LVU1552
 4517 0008 0B9B     		ldr	r3, [sp, #44]
 4518 000a 002B     		cmp	r3, #0
 4519 000c 50D0     		beq	.L217
 4520 000e 0446     		mov	r4, r0
 4521 0010 0E46     		mov	r6, r1
 4522 0012 1746     		mov	r7, r2
 128:lvgl/src/widgets/lv_table.c **** 
 4523              		.loc 1 128 5 discriminator 2 view .LVU1553
 128:lvgl/src/widgets/lv_table.c **** 
 4524              		.loc 1 128 24 discriminator 2 view .LVU1554
 130:lvgl/src/widgets/lv_table.c ****     if(col >= table->col_cnt) {
 4525              		.loc 1 130 5 discriminator 2 view .LVU1555
 4526              	.LVL476:
 131:lvgl/src/widgets/lv_table.c ****         lv_table_set_col_cnt(obj, col + 1);
 4527              		.loc 1 131 5 discriminator 2 view .LVU1556
 131:lvgl/src/widgets/lv_table.c ****         lv_table_set_col_cnt(obj, col + 1);
 4528              		.loc 1 131 20 is_stmt 0 discriminator 2 view .LVU1557
 4529 0014 838C     		ldrh	r3, [r0, #36]
 131:lvgl/src/widgets/lv_table.c ****         lv_table_set_col_cnt(obj, col + 1);
 4530              		.loc 1 131 7 discriminator 2 view .LVU1558
 4531 0016 9342     		cmp	r3, r2
 4532 0018 4BD9     		bls	.L226
 4533              	.LVL477:
 4534              	.L218:
 136:lvgl/src/widgets/lv_table.c ****         lv_table_set_row_cnt(obj, row + 1);
 4535              		.loc 1 136 5 is_stmt 1 view .LVU1559
 136:lvgl/src/widgets/lv_table.c ****         lv_table_set_row_cnt(obj, row + 1);
 4536              		.loc 1 136 20 is_stmt 0 view .LVU1560
 4537 001a E38C     		ldrh	r3, [r4, #38]
 136:lvgl/src/widgets/lv_table.c ****         lv_table_set_row_cnt(obj, row + 1);
 4538              		.loc 1 136 7 view .LVU1561
 4539 001c B342     		cmp	r3, r6
 4540 001e 4DD9     		bls	.L227
 4541              	.L219:
 140:lvgl/src/widgets/lv_table.c ****     lv_table_cell_ctrl_t ctrl = 0;
 4542              		.loc 1 140 5 is_stmt 1 view .LVU1562
ARM GAS  /var/folders/21/t9g5rlb91ys800n5npymflf80000gn/T//ccNiYEm1.s 			page 141


 140:lvgl/src/widgets/lv_table.c ****     lv_table_cell_ctrl_t ctrl = 0;
 4543              		.loc 1 140 32 is_stmt 0 view .LVU1563
 4544 0020 A58C     		ldrh	r5, [r4, #36]
 140:lvgl/src/widgets/lv_table.c ****     lv_table_cell_ctrl_t ctrl = 0;
 4545              		.loc 1 140 42 view .LVU1564
 4546 0022 05FB0675 		mla	r5, r5, r6, r7
 4547              	.LVL478:
 141:lvgl/src/widgets/lv_table.c **** 
 4548              		.loc 1 141 5 is_stmt 1 view .LVU1565
 144:lvgl/src/widgets/lv_table.c **** 
 4549              		.loc 1 144 5 view .LVU1566
 144:lvgl/src/widgets/lv_table.c **** 
 4550              		.loc 1 144 13 is_stmt 0 view .LVU1567
 4551 0026 A36A     		ldr	r3, [r4, #40]
 144:lvgl/src/widgets/lv_table.c **** 
 4552              		.loc 1 144 24 view .LVU1568
 4553 0028 53F82580 		ldr	r8, [r3, r5, lsl #2]
 144:lvgl/src/widgets/lv_table.c **** 
 4554              		.loc 1 144 7 view .LVU1569
 4555 002c B8F1000F 		cmp	r8, #0
 4556 0030 4AD0     		beq	.L224
 144:lvgl/src/widgets/lv_table.c **** 
 4557              		.loc 1 144 32 is_stmt 1 discriminator 1 view .LVU1570
 144:lvgl/src/widgets/lv_table.c **** 
 4558              		.loc 1 144 37 is_stmt 0 discriminator 1 view .LVU1571
 4559 0032 98F800B0 		ldrb	fp, [r8]	@ zero_extendqisi2
 4560              	.LVL479:
 4561              	.L220:
 147:lvgl/src/widgets/lv_table.c **** 
 4562              		.loc 1 147 5 is_stmt 1 view .LVU1572
 150:lvgl/src/widgets/lv_table.c **** #endif
 4563              		.loc 1 150 5 view .LVU1573
 150:lvgl/src/widgets/lv_table.c **** #endif
 4564              		.loc 1 150 7 is_stmt 0 view .LVU1574
 4565 0036 B8F1000F 		cmp	r8, #0
 4566 003a 01D0     		beq	.L221
 150:lvgl/src/widgets/lv_table.c **** #endif
 4567              		.loc 1 150 32 is_stmt 1 discriminator 1 view .LVU1575
 150:lvgl/src/widgets/lv_table.c **** #endif
 4568              		.loc 1 150 42 is_stmt 0 discriminator 1 view .LVU1576
 4569 003c D8F80480 		ldr	r8, [r8, #4]
 4570              	.LVL480:
 4571              	.L221:
 153:lvgl/src/widgets/lv_table.c ****     va_start(ap, fmt);
 4572              		.loc 1 153 5 is_stmt 1 view .LVU1577
 154:lvgl/src/widgets/lv_table.c ****     va_copy(ap2, ap);
 4573              		.loc 1 154 5 view .LVU1578
 4574 0040 0CAB     		add	r3, sp, #48
 4575 0042 0193     		str	r3, [sp, #4]
 155:lvgl/src/widgets/lv_table.c **** 
 4576              		.loc 1 155 5 view .LVU1579
 4577 0044 0093     		str	r3, [sp]
 158:lvgl/src/widgets/lv_table.c ****     va_end(ap);
 4578              		.loc 1 158 5 view .LVU1580
 158:lvgl/src/widgets/lv_table.c ****     va_end(ap);
 4579              		.loc 1 158 20 is_stmt 0 view .LVU1581
 4580 0046 0B9A     		ldr	r2, [sp, #44]
ARM GAS  /var/folders/21/t9g5rlb91ys800n5npymflf80000gn/T//ccNiYEm1.s 			page 142


 4581 0048 0021     		movs	r1, #0
 4582 004a 0846     		mov	r0, r1
 4583 004c FFF7FEFF 		bl	lv_vsnprintf
 4584              	.LVL481:
 4585 0050 8146     		mov	r9, r0
 4586              	.LVL482:
 159:lvgl/src/widgets/lv_table.c **** 
 4587              		.loc 1 159 5 is_stmt 1 view .LVU1582
 184:lvgl/src/widgets/lv_table.c ****                                             sizeof(lv_table_cell_t) + len + 1); /*+1: trailing '\0;
 4588              		.loc 1 184 5 view .LVU1583
 184:lvgl/src/widgets/lv_table.c ****                                             sizeof(lv_table_cell_t) + len + 1); /*+1: trailing '\0;
 4589              		.loc 1 184 50 is_stmt 0 view .LVU1584
 4590 0052 D4F828A0 		ldr	r10, [r4, #40]
 184:lvgl/src/widgets/lv_table.c ****                                             sizeof(lv_table_cell_t) + len + 1); /*+1: trailing '\0;
 4591              		.loc 1 184 30 view .LVU1585
 4592 0056 00F10901 		add	r1, r0, #9
 4593 005a 5AF82500 		ldr	r0, [r10, r5, lsl #2]
 4594              	.LVL483:
 184:lvgl/src/widgets/lv_table.c ****                                             sizeof(lv_table_cell_t) + len + 1); /*+1: trailing '\0;
 4595              		.loc 1 184 30 view .LVU1586
 4596 005e FFF7FEFF 		bl	lv_mem_realloc
 4597              	.LVL484:
 184:lvgl/src/widgets/lv_table.c ****                                             sizeof(lv_table_cell_t) + len + 1); /*+1: trailing '\0;
 4598              		.loc 1 184 28 view .LVU1587
 4599 0062 4AF82500 		str	r0, [r10, r5, lsl #2]
 186:lvgl/src/widgets/lv_table.c ****     if(table->cell_data[cell] == NULL) {
 4600              		.loc 1 186 5 is_stmt 1 view .LVU1588
 186:lvgl/src/widgets/lv_table.c ****     if(table->cell_data[cell] == NULL) {
 4601              		.loc 1 186 5 view .LVU1589
 4602 0066 A36A     		ldr	r3, [r4, #40]
 4603 0068 53F82530 		ldr	r3, [r3, r5, lsl #2]
 4604 006c 7BB3     		cbz	r3, .L223
 186:lvgl/src/widgets/lv_table.c ****     if(table->cell_data[cell] == NULL) {
 4605              		.loc 1 186 5 view .LVU1590
 186:lvgl/src/widgets/lv_table.c ****     if(table->cell_data[cell] == NULL) {
 4606              		.loc 1 186 45 view .LVU1591
 187:lvgl/src/widgets/lv_table.c ****         va_end(ap2);
 4607              		.loc 1 187 5 view .LVU1592
 192:lvgl/src/widgets/lv_table.c **** 
 4608              		.loc 1 192 5 view .LVU1593
 192:lvgl/src/widgets/lv_table.c **** 
 4609              		.loc 1 192 38 is_stmt 0 view .LVU1594
 4610 006e 4B44     		add	r3, r3, r9
 4611 0070 0022     		movs	r2, #0
 4612 0072 1A72     		strb	r2, [r3, #8]
 194:lvgl/src/widgets/lv_table.c **** #endif
 4613              		.loc 1 194 5 is_stmt 1 view .LVU1595
 194:lvgl/src/widgets/lv_table.c **** #endif
 4614              		.loc 1 194 23 is_stmt 0 view .LVU1596
 4615 0074 A36A     		ldr	r3, [r4, #40]
 194:lvgl/src/widgets/lv_table.c **** #endif
 4616              		.loc 1 194 34 view .LVU1597
 4617 0076 53F82500 		ldr	r0, [r3, r5, lsl #2]
 194:lvgl/src/widgets/lv_table.c **** #endif
 4618              		.loc 1 194 5 view .LVU1598
 4619 007a 009B     		ldr	r3, [sp]
 4620 007c 0B9A     		ldr	r2, [sp, #44]
ARM GAS  /var/folders/21/t9g5rlb91ys800n5npymflf80000gn/T//ccNiYEm1.s 			page 143


 4621 007e 09F10101 		add	r1, r9, #1
 4622 0082 0830     		adds	r0, r0, #8
 4623 0084 FFF7FEFF 		bl	lv_vsnprintf
 4624              	.LVL485:
 197:lvgl/src/widgets/lv_table.c **** 
 4625              		.loc 1 197 5 is_stmt 1 view .LVU1599
 199:lvgl/src/widgets/lv_table.c **** #if LV_USE_USER_DATA
 4626              		.loc 1 199 5 view .LVU1600
 199:lvgl/src/widgets/lv_table.c **** #if LV_USE_USER_DATA
 4627              		.loc 1 199 10 is_stmt 0 view .LVU1601
 4628 0088 A36A     		ldr	r3, [r4, #40]
 199:lvgl/src/widgets/lv_table.c **** #if LV_USE_USER_DATA
 4629              		.loc 1 199 21 view .LVU1602
 4630 008a 53F82530 		ldr	r3, [r3, r5, lsl #2]
 199:lvgl/src/widgets/lv_table.c **** #if LV_USE_USER_DATA
 4631              		.loc 1 199 34 view .LVU1603
 4632 008e 83F800B0 		strb	fp, [r3]
 201:lvgl/src/widgets/lv_table.c **** #endif
 4633              		.loc 1 201 5 is_stmt 1 view .LVU1604
 201:lvgl/src/widgets/lv_table.c **** #endif
 4634              		.loc 1 201 10 is_stmt 0 view .LVU1605
 4635 0092 A36A     		ldr	r3, [r4, #40]
 201:lvgl/src/widgets/lv_table.c **** #endif
 4636              		.loc 1 201 21 view .LVU1606
 4637 0094 53F82530 		ldr	r3, [r3, r5, lsl #2]
 201:lvgl/src/widgets/lv_table.c **** #endif
 4638              		.loc 1 201 39 view .LVU1607
 4639 0098 C3F80480 		str	r8, [r3, #4]
 203:lvgl/src/widgets/lv_table.c **** }
 4640              		.loc 1 203 5 is_stmt 1 view .LVU1608
 4641 009c 3A46     		mov	r2, r7
 4642 009e 3146     		mov	r1, r6
 4643 00a0 2046     		mov	r0, r4
 4644 00a2 FFF7FEFF 		bl	refr_cell_size
 4645              	.LVL486:
 204:lvgl/src/widgets/lv_table.c **** 
 4646              		.loc 1 204 1 is_stmt 0 view .LVU1609
 4647 00a6 02B0     		add	sp, sp, #8
 4648              	.LCFI43:
 4649              		.cfi_remember_state
 4650              		.cfi_def_cfa_offset 40
 4651              		@ sp needed
 4652 00a8 BDE8F04F 		pop	{r4, r5, r6, r7, r8, r9, r10, fp, lr}
 4653              	.LCFI44:
 4654              		.cfi_restore 14
 4655              		.cfi_restore 11
 4656              		.cfi_restore 10
 4657              		.cfi_restore 9
 4658              		.cfi_restore 8
 4659              		.cfi_restore 7
 4660              		.cfi_restore 6
 4661              		.cfi_restore 5
 4662              		.cfi_restore 4
 4663              		.cfi_def_cfa_offset 4
 4664              	.LVL487:
 204:lvgl/src/widgets/lv_table.c **** 
 4665              		.loc 1 204 1 view .LVU1610
ARM GAS  /var/folders/21/t9g5rlb91ys800n5npymflf80000gn/T//ccNiYEm1.s 			page 144


 4666 00ac 01B0     		add	sp, sp, #4
 4667              	.LCFI45:
 4668              		.cfi_restore 3
 4669              		.cfi_def_cfa_offset 0
 4670 00ae 7047     		bx	lr
 4671              	.LVL488:
 4672              	.L217:
 4673              	.LCFI46:
 4674              		.cfi_restore_state
 128:lvgl/src/widgets/lv_table.c **** 
 4675              		.loc 1 128 5 is_stmt 1 discriminator 1 view .LVU1611
 128:lvgl/src/widgets/lv_table.c **** 
 4676              		.loc 1 128 5 discriminator 1 view .LVU1612
 128:lvgl/src/widgets/lv_table.c **** 
 4677              		.loc 1 128 5 discriminator 1 view .LVU1613
 128:lvgl/src/widgets/lv_table.c **** 
 4678              		.loc 1 128 5 discriminator 1 view .LVU1614
 128:lvgl/src/widgets/lv_table.c **** 
 4679              		.loc 1 128 5 discriminator 1 view .LVU1615
 4680 00b0 FEE7     		b	.L217
 4681              	.LVL489:
 4682              	.L226:
 132:lvgl/src/widgets/lv_table.c ****     }
 4683              		.loc 1 132 9 view .LVU1616
 4684 00b2 511C     		adds	r1, r2, #1
 4685              	.LVL490:
 132:lvgl/src/widgets/lv_table.c ****     }
 4686              		.loc 1 132 9 is_stmt 0 view .LVU1617
 4687 00b4 89B2     		uxth	r1, r1
 4688 00b6 FFF7FEFF 		bl	lv_table_set_col_cnt
 4689              	.LVL491:
 132:lvgl/src/widgets/lv_table.c ****     }
 4690              		.loc 1 132 9 view .LVU1618
 4691 00ba AEE7     		b	.L218
 4692              	.L227:
 137:lvgl/src/widgets/lv_table.c ****     }
 4693              		.loc 1 137 9 is_stmt 1 view .LVU1619
 4694 00bc 711C     		adds	r1, r6, #1
 4695 00be 89B2     		uxth	r1, r1
 4696 00c0 2046     		mov	r0, r4
 4697 00c2 FFF7FEFF 		bl	lv_table_set_row_cnt
 4698              	.LVL492:
 4699 00c6 ABE7     		b	.L219
 4700              	.LVL493:
 4701              	.L224:
 141:lvgl/src/widgets/lv_table.c **** 
 4702              		.loc 1 141 26 is_stmt 0 view .LVU1620
 4703 00c8 4FF0000B 		mov	fp, #0
 4704 00cc B3E7     		b	.L220
 4705              	.LVL494:
 4706              	.L223:
 186:lvgl/src/widgets/lv_table.c ****     if(table->cell_data[cell] == NULL) {
 4707              		.loc 1 186 5 is_stmt 1 discriminator 2 view .LVU1621
 186:lvgl/src/widgets/lv_table.c ****     if(table->cell_data[cell] == NULL) {
 4708              		.loc 1 186 5 discriminator 2 view .LVU1622
 186:lvgl/src/widgets/lv_table.c ****     if(table->cell_data[cell] == NULL) {
 4709              		.loc 1 186 5 discriminator 2 view .LVU1623
ARM GAS  /var/folders/21/t9g5rlb91ys800n5npymflf80000gn/T//ccNiYEm1.s 			page 145


 186:lvgl/src/widgets/lv_table.c ****     if(table->cell_data[cell] == NULL) {
 4710              		.loc 1 186 5 discriminator 2 view .LVU1624
 186:lvgl/src/widgets/lv_table.c ****     if(table->cell_data[cell] == NULL) {
 4711              		.loc 1 186 5 discriminator 2 view .LVU1625
 4712 00ce FEE7     		b	.L223
 4713              		.cfi_endproc
 4714              	.LFE164:
 4716              		.section	.text.lv_table_set_col_width,"ax",%progbits
 4717              		.align	1
 4718              		.global	lv_table_set_col_width
 4719              		.syntax unified
 4720              		.thumb
 4721              		.thumb_func
 4723              	lv_table_set_col_width:
 4724              	.LVL495:
 4725              	.LFB167:
 313:lvgl/src/widgets/lv_table.c ****     LV_ASSERT_OBJ(obj, MY_CLASS);
 4726              		.loc 1 313 1 view -0
 4727              		.cfi_startproc
 4728              		@ args = 0, pretend = 0, frame = 0
 4729              		@ frame_needed = 0, uses_anonymous_args = 0
 313:lvgl/src/widgets/lv_table.c ****     LV_ASSERT_OBJ(obj, MY_CLASS);
 4730              		.loc 1 313 1 is_stmt 0 view .LVU1627
 4731 0000 70B5     		push	{r4, r5, r6, lr}
 4732              	.LCFI47:
 4733              		.cfi_def_cfa_offset 16
 4734              		.cfi_offset 4, -16
 4735              		.cfi_offset 5, -12
 4736              		.cfi_offset 6, -8
 4737              		.cfi_offset 14, -4
 4738 0002 0446     		mov	r4, r0
 4739 0004 0D46     		mov	r5, r1
 4740 0006 1646     		mov	r6, r2
 314:lvgl/src/widgets/lv_table.c **** 
 4741              		.loc 1 314 5 is_stmt 1 view .LVU1628
 314:lvgl/src/widgets/lv_table.c **** 
 4742              		.loc 1 314 5 view .LVU1629
 314:lvgl/src/widgets/lv_table.c **** 
 4743              		.loc 1 314 5 view .LVU1630
 316:lvgl/src/widgets/lv_table.c **** 
 4744              		.loc 1 316 5 view .LVU1631
 4745              	.LVL496:
 319:lvgl/src/widgets/lv_table.c **** 
 4746              		.loc 1 319 5 view .LVU1632
 319:lvgl/src/widgets/lv_table.c **** 
 4747              		.loc 1 319 23 is_stmt 0 view .LVU1633
 4748 0008 838C     		ldrh	r3, [r0, #36]
 319:lvgl/src/widgets/lv_table.c **** 
 4749              		.loc 1 319 7 view .LVU1634
 4750 000a 8B42     		cmp	r3, r1
 4751 000c 07D9     		bls	.L231
 4752              	.LVL497:
 4753              	.L229:
 321:lvgl/src/widgets/lv_table.c ****     refr_size_form_row(obj, 0);
 4754              		.loc 1 321 5 is_stmt 1 view .LVU1635
 321:lvgl/src/widgets/lv_table.c ****     refr_size_form_row(obj, 0);
 4755              		.loc 1 321 10 is_stmt 0 view .LVU1636
ARM GAS  /var/folders/21/t9g5rlb91ys800n5npymflf80000gn/T//ccNiYEm1.s 			page 146


 4756 000e 236B     		ldr	r3, [r4, #48]
 321:lvgl/src/widgets/lv_table.c ****     refr_size_form_row(obj, 0);
 4757              		.loc 1 321 26 view .LVU1637
 4758 0010 23F81560 		strh	r6, [r3, r5, lsl #1]	@ movhi
 322:lvgl/src/widgets/lv_table.c **** }
 4759              		.loc 1 322 5 is_stmt 1 view .LVU1638
 4760 0014 0021     		movs	r1, #0
 4761 0016 2046     		mov	r0, r4
 4762 0018 FFF7FEFF 		bl	refr_size_form_row
 4763              	.LVL498:
 323:lvgl/src/widgets/lv_table.c **** 
 4764              		.loc 1 323 1 is_stmt 0 view .LVU1639
 4765 001c 70BD     		pop	{r4, r5, r6, pc}
 4766              	.LVL499:
 4767              	.L231:
 319:lvgl/src/widgets/lv_table.c **** 
 4768              		.loc 1 319 34 is_stmt 1 discriminator 1 view .LVU1640
 4769 001e 0131     		adds	r1, r1, #1
 4770              	.LVL500:
 319:lvgl/src/widgets/lv_table.c **** 
 4771              		.loc 1 319 34 is_stmt 0 discriminator 1 view .LVU1641
 4772 0020 89B2     		uxth	r1, r1
 4773 0022 FFF7FEFF 		bl	lv_table_set_col_cnt
 4774              	.LVL501:
 319:lvgl/src/widgets/lv_table.c **** 
 4775              		.loc 1 319 34 discriminator 1 view .LVU1642
 4776 0026 F2E7     		b	.L229
 4777              		.cfi_endproc
 4778              	.LFE167:
 4780              		.section	.text.lv_table_add_cell_ctrl,"ax",%progbits
 4781              		.align	1
 4782              		.global	lv_table_add_cell_ctrl
 4783              		.syntax unified
 4784              		.thumb
 4785              		.thumb_func
 4787              	lv_table_add_cell_ctrl:
 4788              	.LVL502:
 4789              	.LFB168:
 326:lvgl/src/widgets/lv_table.c ****     LV_ASSERT_OBJ(obj, MY_CLASS);
 4790              		.loc 1 326 1 is_stmt 1 view -0
 4791              		.cfi_startproc
 4792              		@ args = 0, pretend = 0, frame = 0
 4793              		@ frame_needed = 0, uses_anonymous_args = 0
 326:lvgl/src/widgets/lv_table.c ****     LV_ASSERT_OBJ(obj, MY_CLASS);
 4794              		.loc 1 326 1 is_stmt 0 view .LVU1644
 4795 0000 2DE9F041 		push	{r4, r5, r6, r7, r8, lr}
 4796              	.LCFI48:
 4797              		.cfi_def_cfa_offset 24
 4798              		.cfi_offset 4, -24
 4799              		.cfi_offset 5, -20
 4800              		.cfi_offset 6, -16
 4801              		.cfi_offset 7, -12
 4802              		.cfi_offset 8, -8
 4803              		.cfi_offset 14, -4
 4804 0004 0446     		mov	r4, r0
 4805 0006 8846     		mov	r8, r1
 4806 0008 1646     		mov	r6, r2
ARM GAS  /var/folders/21/t9g5rlb91ys800n5npymflf80000gn/T//ccNiYEm1.s 			page 147


 4807 000a 1F46     		mov	r7, r3
 327:lvgl/src/widgets/lv_table.c **** 
 4808              		.loc 1 327 5 is_stmt 1 view .LVU1645
 327:lvgl/src/widgets/lv_table.c **** 
 4809              		.loc 1 327 5 view .LVU1646
 327:lvgl/src/widgets/lv_table.c **** 
 4810              		.loc 1 327 5 view .LVU1647
 329:lvgl/src/widgets/lv_table.c **** 
 4811              		.loc 1 329 5 view .LVU1648
 4812              	.LVL503:
 332:lvgl/src/widgets/lv_table.c ****     if(row >= table->row_cnt) lv_table_set_row_cnt(obj, row + 1);
 4813              		.loc 1 332 5 view .LVU1649
 332:lvgl/src/widgets/lv_table.c ****     if(row >= table->row_cnt) lv_table_set_row_cnt(obj, row + 1);
 4814              		.loc 1 332 20 is_stmt 0 view .LVU1650
 4815 000c 838C     		ldrh	r3, [r0, #36]
 4816              	.LVL504:
 332:lvgl/src/widgets/lv_table.c ****     if(row >= table->row_cnt) lv_table_set_row_cnt(obj, row + 1);
 4817              		.loc 1 332 7 view .LVU1651
 4818 000e 9342     		cmp	r3, r2
 4819 0010 12D9     		bls	.L239
 4820              	.LVL505:
 4821              	.L233:
 333:lvgl/src/widgets/lv_table.c **** 
 4822              		.loc 1 333 5 is_stmt 1 view .LVU1652
 333:lvgl/src/widgets/lv_table.c **** 
 4823              		.loc 1 333 20 is_stmt 0 view .LVU1653
 4824 0012 E38C     		ldrh	r3, [r4, #38]
 333:lvgl/src/widgets/lv_table.c **** 
 4825              		.loc 1 333 7 view .LVU1654
 4826 0014 4345     		cmp	r3, r8
 4827 0016 14D9     		bls	.L240
 4828              	.L234:
 335:lvgl/src/widgets/lv_table.c **** 
 4829              		.loc 1 335 5 is_stmt 1 view .LVU1655
 335:lvgl/src/widgets/lv_table.c **** 
 4830              		.loc 1 335 32 is_stmt 0 view .LVU1656
 4831 0018 A58C     		ldrh	r5, [r4, #36]
 335:lvgl/src/widgets/lv_table.c **** 
 4832              		.loc 1 335 42 view .LVU1657
 4833 001a 05FB0865 		mla	r5, r5, r8, r6
 4834              	.LVL506:
 337:lvgl/src/widgets/lv_table.c ****         table->cell_data[cell]    = lv_mem_alloc(sizeof(lv_table_cell_t) + 1); /*+1: trailing '\0 *
 4835              		.loc 1 337 5 is_stmt 1 view .LVU1658
 337:lvgl/src/widgets/lv_table.c ****         table->cell_data[cell]    = lv_mem_alloc(sizeof(lv_table_cell_t) + 1); /*+1: trailing '\0 *
 4836              		.loc 1 337 27 is_stmt 0 view .LVU1659
 4837 001e A66A     		ldr	r6, [r4, #40]
 337:lvgl/src/widgets/lv_table.c ****         table->cell_data[cell]    = lv_mem_alloc(sizeof(lv_table_cell_t) + 1); /*+1: trailing '\0 *
 4838              		.loc 1 337 8 view .LVU1660
 4839 0020 56F82520 		ldr	r2, [r6, r5, lsl #2]
 337:lvgl/src/widgets/lv_table.c ****         table->cell_data[cell]    = lv_mem_alloc(sizeof(lv_table_cell_t) + 1); /*+1: trailing '\0 *
 4840              		.loc 1 337 7 view .LVU1661
 4841 0024 A2B1     		cbz	r2, .L241
 4842              	.L235:
 349:lvgl/src/widgets/lv_table.c **** }
 4843              		.loc 1 349 5 is_stmt 1 view .LVU1662
 349:lvgl/src/widgets/lv_table.c **** }
 4844              		.loc 1 349 10 is_stmt 0 view .LVU1663
ARM GAS  /var/folders/21/t9g5rlb91ys800n5npymflf80000gn/T//ccNiYEm1.s 			page 148


 4845 0026 A36A     		ldr	r3, [r4, #40]
 349:lvgl/src/widgets/lv_table.c **** }
 4846              		.loc 1 349 21 view .LVU1664
 4847 0028 53F82510 		ldr	r1, [r3, r5, lsl #2]
 349:lvgl/src/widgets/lv_table.c **** }
 4848              		.loc 1 349 27 view .LVU1665
 4849 002c 0A78     		ldrb	r2, [r1]	@ zero_extendqisi2
 349:lvgl/src/widgets/lv_table.c **** }
 4850              		.loc 1 349 34 view .LVU1666
 4851 002e 42EA0703 		orr	r3, r2, r7
 4852 0032 0B70     		strb	r3, [r1]
 350:lvgl/src/widgets/lv_table.c **** 
 4853              		.loc 1 350 1 view .LVU1667
 4854 0034 BDE8F081 		pop	{r4, r5, r6, r7, r8, pc}
 4855              	.LVL507:
 4856              	.L239:
 332:lvgl/src/widgets/lv_table.c ****     if(row >= table->row_cnt) lv_table_set_row_cnt(obj, row + 1);
 4857              		.loc 1 332 31 is_stmt 1 discriminator 1 view .LVU1668
 4858 0038 511C     		adds	r1, r2, #1
 4859              	.LVL508:
 332:lvgl/src/widgets/lv_table.c ****     if(row >= table->row_cnt) lv_table_set_row_cnt(obj, row + 1);
 4860              		.loc 1 332 31 is_stmt 0 discriminator 1 view .LVU1669
 4861 003a 89B2     		uxth	r1, r1
 4862 003c FFF7FEFF 		bl	lv_table_set_col_cnt
 4863              	.LVL509:
 332:lvgl/src/widgets/lv_table.c ****     if(row >= table->row_cnt) lv_table_set_row_cnt(obj, row + 1);
 4864              		.loc 1 332 31 discriminator 1 view .LVU1670
 4865 0040 E7E7     		b	.L233
 4866              	.L240:
 333:lvgl/src/widgets/lv_table.c **** 
 4867              		.loc 1 333 31 is_stmt 1 discriminator 1 view .LVU1671
 4868 0042 08F10101 		add	r1, r8, #1
 4869 0046 89B2     		uxth	r1, r1
 4870 0048 2046     		mov	r0, r4
 4871 004a FFF7FEFF 		bl	lv_table_set_row_cnt
 4872              	.LVL510:
 4873 004e E3E7     		b	.L234
 4874              	.LVL511:
 4875              	.L241:
 338:lvgl/src/widgets/lv_table.c ****         LV_ASSERT_MALLOC(table->cell_data[cell]);
 4876              		.loc 1 338 9 view .LVU1672
 338:lvgl/src/widgets/lv_table.c ****         LV_ASSERT_MALLOC(table->cell_data[cell]);
 4877              		.loc 1 338 37 is_stmt 0 view .LVU1673
 4878 0050 0920     		movs	r0, #9
 4879 0052 FFF7FEFF 		bl	lv_mem_alloc
 4880              	.LVL512:
 338:lvgl/src/widgets/lv_table.c ****         LV_ASSERT_MALLOC(table->cell_data[cell]);
 4881              		.loc 1 338 35 view .LVU1674
 4882 0056 46F82500 		str	r0, [r6, r5, lsl #2]
 339:lvgl/src/widgets/lv_table.c ****         if(table->cell_data[cell] == NULL) return;
 4883              		.loc 1 339 9 is_stmt 1 view .LVU1675
 339:lvgl/src/widgets/lv_table.c ****         if(table->cell_data[cell] == NULL) return;
 4884              		.loc 1 339 9 view .LVU1676
 4885 005a A36A     		ldr	r3, [r4, #40]
 4886 005c 53F82520 		ldr	r2, [r3, r5, lsl #2]
 4887 0060 52B1     		cbz	r2, .L237
 339:lvgl/src/widgets/lv_table.c ****         if(table->cell_data[cell] == NULL) return;
ARM GAS  /var/folders/21/t9g5rlb91ys800n5npymflf80000gn/T//ccNiYEm1.s 			page 149


 4888              		.loc 1 339 9 view .LVU1677
 339:lvgl/src/widgets/lv_table.c ****         if(table->cell_data[cell] == NULL) return;
 4889              		.loc 1 339 49 view .LVU1678
 340:lvgl/src/widgets/lv_table.c **** 
 4890              		.loc 1 340 9 view .LVU1679
 342:lvgl/src/widgets/lv_table.c **** #if LV_USE_USER_DATA
 4891              		.loc 1 342 9 view .LVU1680
 342:lvgl/src/widgets/lv_table.c **** #if LV_USE_USER_DATA
 4892              		.loc 1 342 38 is_stmt 0 view .LVU1681
 4893 0062 0023     		movs	r3, #0
 4894 0064 1370     		strb	r3, [r2]
 344:lvgl/src/widgets/lv_table.c **** #endif
 4895              		.loc 1 344 9 is_stmt 1 view .LVU1682
 344:lvgl/src/widgets/lv_table.c **** #endif
 4896              		.loc 1 344 14 is_stmt 0 view .LVU1683
 4897 0066 A26A     		ldr	r2, [r4, #40]
 344:lvgl/src/widgets/lv_table.c **** #endif
 4898              		.loc 1 344 25 view .LVU1684
 4899 0068 52F82520 		ldr	r2, [r2, r5, lsl #2]
 344:lvgl/src/widgets/lv_table.c **** #endif
 4900              		.loc 1 344 43 view .LVU1685
 4901 006c 5360     		str	r3, [r2, #4]
 346:lvgl/src/widgets/lv_table.c ****     }
 4902              		.loc 1 346 9 is_stmt 1 view .LVU1686
 346:lvgl/src/widgets/lv_table.c ****     }
 4903              		.loc 1 346 14 is_stmt 0 view .LVU1687
 4904 006e A26A     		ldr	r2, [r4, #40]
 346:lvgl/src/widgets/lv_table.c ****     }
 4905              		.loc 1 346 25 view .LVU1688
 4906 0070 52F82520 		ldr	r2, [r2, r5, lsl #2]
 346:lvgl/src/widgets/lv_table.c ****     }
 4907              		.loc 1 346 40 view .LVU1689
 4908 0074 1372     		strb	r3, [r2, #8]
 4909 0076 D6E7     		b	.L235
 4910              	.L237:
 339:lvgl/src/widgets/lv_table.c ****         if(table->cell_data[cell] == NULL) return;
 4911              		.loc 1 339 9 is_stmt 1 discriminator 1 view .LVU1690
 339:lvgl/src/widgets/lv_table.c ****         if(table->cell_data[cell] == NULL) return;
 4912              		.loc 1 339 9 discriminator 1 view .LVU1691
 339:lvgl/src/widgets/lv_table.c ****         if(table->cell_data[cell] == NULL) return;
 4913              		.loc 1 339 9 discriminator 1 view .LVU1692
 339:lvgl/src/widgets/lv_table.c ****         if(table->cell_data[cell] == NULL) return;
 4914              		.loc 1 339 9 discriminator 1 view .LVU1693
 339:lvgl/src/widgets/lv_table.c ****         if(table->cell_data[cell] == NULL) return;
 4915              		.loc 1 339 9 discriminator 1 view .LVU1694
 4916 0078 FEE7     		b	.L237
 4917              		.cfi_endproc
 4918              	.LFE168:
 4920              		.section	.text.lv_table_clear_cell_ctrl,"ax",%progbits
 4921              		.align	1
 4922              		.global	lv_table_clear_cell_ctrl
 4923              		.syntax unified
 4924              		.thumb
 4925              		.thumb_func
 4927              	lv_table_clear_cell_ctrl:
 4928              	.LVL513:
 4929              	.LFB169:
ARM GAS  /var/folders/21/t9g5rlb91ys800n5npymflf80000gn/T//ccNiYEm1.s 			page 150


 353:lvgl/src/widgets/lv_table.c ****     LV_ASSERT_OBJ(obj, MY_CLASS);
 4930              		.loc 1 353 1 view -0
 4931              		.cfi_startproc
 4932              		@ args = 0, pretend = 0, frame = 0
 4933              		@ frame_needed = 0, uses_anonymous_args = 0
 353:lvgl/src/widgets/lv_table.c ****     LV_ASSERT_OBJ(obj, MY_CLASS);
 4934              		.loc 1 353 1 is_stmt 0 view .LVU1696
 4935 0000 2DE9F041 		push	{r4, r5, r6, r7, r8, lr}
 4936              	.LCFI49:
 4937              		.cfi_def_cfa_offset 24
 4938              		.cfi_offset 4, -24
 4939              		.cfi_offset 5, -20
 4940              		.cfi_offset 6, -16
 4941              		.cfi_offset 7, -12
 4942              		.cfi_offset 8, -8
 4943              		.cfi_offset 14, -4
 4944 0004 0446     		mov	r4, r0
 4945 0006 8846     		mov	r8, r1
 4946 0008 1746     		mov	r7, r2
 4947 000a 1D46     		mov	r5, r3
 354:lvgl/src/widgets/lv_table.c **** 
 4948              		.loc 1 354 5 is_stmt 1 view .LVU1697
 354:lvgl/src/widgets/lv_table.c **** 
 4949              		.loc 1 354 5 view .LVU1698
 354:lvgl/src/widgets/lv_table.c **** 
 4950              		.loc 1 354 5 view .LVU1699
 356:lvgl/src/widgets/lv_table.c **** 
 4951              		.loc 1 356 5 view .LVU1700
 4952              	.LVL514:
 359:lvgl/src/widgets/lv_table.c ****     if(row >= table->row_cnt) lv_table_set_row_cnt(obj, row + 1);
 4953              		.loc 1 359 5 view .LVU1701
 359:lvgl/src/widgets/lv_table.c ****     if(row >= table->row_cnt) lv_table_set_row_cnt(obj, row + 1);
 4954              		.loc 1 359 20 is_stmt 0 view .LVU1702
 4955 000c 838C     		ldrh	r3, [r0, #36]
 4956              	.LVL515:
 359:lvgl/src/widgets/lv_table.c ****     if(row >= table->row_cnt) lv_table_set_row_cnt(obj, row + 1);
 4957              		.loc 1 359 7 view .LVU1703
 4958 000e 9342     		cmp	r3, r2
 4959 0010 13D9     		bls	.L249
 4960              	.LVL516:
 4961              	.L243:
 360:lvgl/src/widgets/lv_table.c **** 
 4962              		.loc 1 360 5 is_stmt 1 view .LVU1704
 360:lvgl/src/widgets/lv_table.c **** 
 4963              		.loc 1 360 20 is_stmt 0 view .LVU1705
 4964 0012 E38C     		ldrh	r3, [r4, #38]
 360:lvgl/src/widgets/lv_table.c **** 
 4965              		.loc 1 360 7 view .LVU1706
 4966 0014 4345     		cmp	r3, r8
 4967 0016 15D9     		bls	.L250
 4968              	.L244:
 362:lvgl/src/widgets/lv_table.c **** 
 4969              		.loc 1 362 5 is_stmt 1 view .LVU1707
 362:lvgl/src/widgets/lv_table.c **** 
 4970              		.loc 1 362 32 is_stmt 0 view .LVU1708
 4971 0018 A68C     		ldrh	r6, [r4, #36]
 362:lvgl/src/widgets/lv_table.c **** 
ARM GAS  /var/folders/21/t9g5rlb91ys800n5npymflf80000gn/T//ccNiYEm1.s 			page 151


 4972              		.loc 1 362 42 view .LVU1709
 4973 001a 06FB0876 		mla	r6, r6, r8, r7
 4974              	.LVL517:
 364:lvgl/src/widgets/lv_table.c ****         table->cell_data[cell]    = lv_mem_alloc(sizeof(lv_table_cell_t) + 1); /*+1: trailing '\0 *
 4975              		.loc 1 364 5 is_stmt 1 view .LVU1710
 364:lvgl/src/widgets/lv_table.c ****         table->cell_data[cell]    = lv_mem_alloc(sizeof(lv_table_cell_t) + 1); /*+1: trailing '\0 *
 4976              		.loc 1 364 27 is_stmt 0 view .LVU1711
 4977 001e A76A     		ldr	r7, [r4, #40]
 364:lvgl/src/widgets/lv_table.c ****         table->cell_data[cell]    = lv_mem_alloc(sizeof(lv_table_cell_t) + 1); /*+1: trailing '\0 *
 4978              		.loc 1 364 8 view .LVU1712
 4979 0020 57F82630 		ldr	r3, [r7, r6, lsl #2]
 364:lvgl/src/widgets/lv_table.c ****         table->cell_data[cell]    = lv_mem_alloc(sizeof(lv_table_cell_t) + 1); /*+1: trailing '\0 *
 4980              		.loc 1 364 7 view .LVU1713
 4981 0024 ABB1     		cbz	r3, .L251
 4982              	.L245:
 376:lvgl/src/widgets/lv_table.c **** }
 4983              		.loc 1 376 5 is_stmt 1 view .LVU1714
 376:lvgl/src/widgets/lv_table.c **** }
 4984              		.loc 1 376 10 is_stmt 0 view .LVU1715
 4985 0026 A36A     		ldr	r3, [r4, #40]
 376:lvgl/src/widgets/lv_table.c **** }
 4986              		.loc 1 376 21 view .LVU1716
 4987 0028 53F82620 		ldr	r2, [r3, r6, lsl #2]
 376:lvgl/src/widgets/lv_table.c **** }
 4988              		.loc 1 376 27 view .LVU1717
 4989 002c 1378     		ldrb	r3, [r2]	@ zero_extendqisi2
 376:lvgl/src/widgets/lv_table.c **** }
 4990              		.loc 1 376 34 view .LVU1718
 4991 002e ED43     		mvns	r5, r5
 4992 0030 6DB2     		sxtb	r5, r5
 4993 0032 2B40     		ands	r3, r3, r5
 4994 0034 1370     		strb	r3, [r2]
 377:lvgl/src/widgets/lv_table.c **** 
 4995              		.loc 1 377 1 view .LVU1719
 4996 0036 BDE8F081 		pop	{r4, r5, r6, r7, r8, pc}
 4997              	.LVL518:
 4998              	.L249:
 359:lvgl/src/widgets/lv_table.c ****     if(row >= table->row_cnt) lv_table_set_row_cnt(obj, row + 1);
 4999              		.loc 1 359 31 is_stmt 1 discriminator 1 view .LVU1720
 5000 003a 511C     		adds	r1, r2, #1
 5001              	.LVL519:
 359:lvgl/src/widgets/lv_table.c ****     if(row >= table->row_cnt) lv_table_set_row_cnt(obj, row + 1);
 5002              		.loc 1 359 31 is_stmt 0 discriminator 1 view .LVU1721
 5003 003c 89B2     		uxth	r1, r1
 5004 003e FFF7FEFF 		bl	lv_table_set_col_cnt
 5005              	.LVL520:
 359:lvgl/src/widgets/lv_table.c ****     if(row >= table->row_cnt) lv_table_set_row_cnt(obj, row + 1);
 5006              		.loc 1 359 31 discriminator 1 view .LVU1722
 5007 0042 E6E7     		b	.L243
 5008              	.L250:
 360:lvgl/src/widgets/lv_table.c **** 
 5009              		.loc 1 360 31 is_stmt 1 discriminator 1 view .LVU1723
 5010 0044 08F10101 		add	r1, r8, #1
 5011 0048 89B2     		uxth	r1, r1
 5012 004a 2046     		mov	r0, r4
 5013 004c FFF7FEFF 		bl	lv_table_set_row_cnt
 5014              	.LVL521:
ARM GAS  /var/folders/21/t9g5rlb91ys800n5npymflf80000gn/T//ccNiYEm1.s 			page 152


 5015 0050 E2E7     		b	.L244
 5016              	.LVL522:
 5017              	.L251:
 365:lvgl/src/widgets/lv_table.c ****         LV_ASSERT_MALLOC(table->cell_data[cell]);
 5018              		.loc 1 365 9 view .LVU1724
 365:lvgl/src/widgets/lv_table.c ****         LV_ASSERT_MALLOC(table->cell_data[cell]);
 5019              		.loc 1 365 37 is_stmt 0 view .LVU1725
 5020 0052 0920     		movs	r0, #9
 5021 0054 FFF7FEFF 		bl	lv_mem_alloc
 5022              	.LVL523:
 365:lvgl/src/widgets/lv_table.c ****         LV_ASSERT_MALLOC(table->cell_data[cell]);
 5023              		.loc 1 365 35 view .LVU1726
 5024 0058 47F82600 		str	r0, [r7, r6, lsl #2]
 366:lvgl/src/widgets/lv_table.c ****         if(table->cell_data[cell] == NULL) return;
 5025              		.loc 1 366 9 is_stmt 1 view .LVU1727
 366:lvgl/src/widgets/lv_table.c ****         if(table->cell_data[cell] == NULL) return;
 5026              		.loc 1 366 9 view .LVU1728
 5027 005c A36A     		ldr	r3, [r4, #40]
 5028 005e 53F82620 		ldr	r2, [r3, r6, lsl #2]
 5029 0062 52B1     		cbz	r2, .L247
 366:lvgl/src/widgets/lv_table.c ****         if(table->cell_data[cell] == NULL) return;
 5030              		.loc 1 366 9 view .LVU1729
 366:lvgl/src/widgets/lv_table.c ****         if(table->cell_data[cell] == NULL) return;
 5031              		.loc 1 366 49 view .LVU1730
 367:lvgl/src/widgets/lv_table.c **** 
 5032              		.loc 1 367 9 view .LVU1731
 369:lvgl/src/widgets/lv_table.c **** #if LV_USE_USER_DATA
 5033              		.loc 1 369 9 view .LVU1732
 369:lvgl/src/widgets/lv_table.c **** #if LV_USE_USER_DATA
 5034              		.loc 1 369 38 is_stmt 0 view .LVU1733
 5035 0064 0023     		movs	r3, #0
 5036 0066 1370     		strb	r3, [r2]
 371:lvgl/src/widgets/lv_table.c **** #endif
 5037              		.loc 1 371 9 is_stmt 1 view .LVU1734
 371:lvgl/src/widgets/lv_table.c **** #endif
 5038              		.loc 1 371 14 is_stmt 0 view .LVU1735
 5039 0068 A26A     		ldr	r2, [r4, #40]
 371:lvgl/src/widgets/lv_table.c **** #endif
 5040              		.loc 1 371 25 view .LVU1736
 5041 006a 52F82620 		ldr	r2, [r2, r6, lsl #2]
 371:lvgl/src/widgets/lv_table.c **** #endif
 5042              		.loc 1 371 43 view .LVU1737
 5043 006e 5360     		str	r3, [r2, #4]
 373:lvgl/src/widgets/lv_table.c ****     }
 5044              		.loc 1 373 9 is_stmt 1 view .LVU1738
 373:lvgl/src/widgets/lv_table.c ****     }
 5045              		.loc 1 373 14 is_stmt 0 view .LVU1739
 5046 0070 A26A     		ldr	r2, [r4, #40]
 373:lvgl/src/widgets/lv_table.c ****     }
 5047              		.loc 1 373 25 view .LVU1740
 5048 0072 52F82620 		ldr	r2, [r2, r6, lsl #2]
 373:lvgl/src/widgets/lv_table.c ****     }
 5049              		.loc 1 373 40 view .LVU1741
 5050 0076 1372     		strb	r3, [r2, #8]
 5051 0078 D5E7     		b	.L245
 5052              	.L247:
 366:lvgl/src/widgets/lv_table.c ****         if(table->cell_data[cell] == NULL) return;
ARM GAS  /var/folders/21/t9g5rlb91ys800n5npymflf80000gn/T//ccNiYEm1.s 			page 153


 5053              		.loc 1 366 9 is_stmt 1 discriminator 1 view .LVU1742
 366:lvgl/src/widgets/lv_table.c ****         if(table->cell_data[cell] == NULL) return;
 5054              		.loc 1 366 9 discriminator 1 view .LVU1743
 366:lvgl/src/widgets/lv_table.c ****         if(table->cell_data[cell] == NULL) return;
 5055              		.loc 1 366 9 discriminator 1 view .LVU1744
 366:lvgl/src/widgets/lv_table.c ****         if(table->cell_data[cell] == NULL) return;
 5056              		.loc 1 366 9 discriminator 1 view .LVU1745
 366:lvgl/src/widgets/lv_table.c ****         if(table->cell_data[cell] == NULL) return;
 5057              		.loc 1 366 9 discriminator 1 view .LVU1746
 5058 007a FEE7     		b	.L247
 5059              		.cfi_endproc
 5060              	.LFE169:
 5062              		.section	.text.lv_table_set_cell_user_data,"ax",%progbits
 5063              		.align	1
 5064              		.global	lv_table_set_cell_user_data
 5065              		.syntax unified
 5066              		.thumb
 5067              		.thumb_func
 5069              	lv_table_set_cell_user_data:
 5070              	.LVL524:
 5071              	.LFB170:
 381:lvgl/src/widgets/lv_table.c ****     LV_ASSERT_OBJ(obj, MY_CLASS);
 5072              		.loc 1 381 1 view -0
 5073              		.cfi_startproc
 5074              		@ args = 0, pretend = 0, frame = 0
 5075              		@ frame_needed = 0, uses_anonymous_args = 0
 381:lvgl/src/widgets/lv_table.c ****     LV_ASSERT_OBJ(obj, MY_CLASS);
 5076              		.loc 1 381 1 is_stmt 0 view .LVU1748
 5077 0000 F8B5     		push	{r3, r4, r5, r6, r7, lr}
 5078              	.LCFI50:
 5079              		.cfi_def_cfa_offset 24
 5080              		.cfi_offset 3, -24
 5081              		.cfi_offset 4, -20
 5082              		.cfi_offset 5, -16
 5083              		.cfi_offset 6, -12
 5084              		.cfi_offset 7, -8
 5085              		.cfi_offset 14, -4
 5086 0002 0446     		mov	r4, r0
 5087 0004 0E46     		mov	r6, r1
 5088 0006 1546     		mov	r5, r2
 5089 0008 1F46     		mov	r7, r3
 382:lvgl/src/widgets/lv_table.c **** 
 5090              		.loc 1 382 5 is_stmt 1 view .LVU1749
 382:lvgl/src/widgets/lv_table.c **** 
 5091              		.loc 1 382 5 view .LVU1750
 382:lvgl/src/widgets/lv_table.c **** 
 5092              		.loc 1 382 5 view .LVU1751
 384:lvgl/src/widgets/lv_table.c **** 
 5093              		.loc 1 384 5 view .LVU1752
 5094              	.LVL525:
 387:lvgl/src/widgets/lv_table.c ****     if(row >= table->row_cnt) lv_table_set_row_cnt(obj, row + 1);
 5095              		.loc 1 387 5 view .LVU1753
 387:lvgl/src/widgets/lv_table.c ****     if(row >= table->row_cnt) lv_table_set_row_cnt(obj, row + 1);
 5096              		.loc 1 387 20 is_stmt 0 view .LVU1754
 5097 000a 838C     		ldrh	r3, [r0, #36]
 5098              	.LVL526:
 387:lvgl/src/widgets/lv_table.c ****     if(row >= table->row_cnt) lv_table_set_row_cnt(obj, row + 1);
ARM GAS  /var/folders/21/t9g5rlb91ys800n5npymflf80000gn/T//ccNiYEm1.s 			page 154


 5099              		.loc 1 387 7 view .LVU1755
 5100 000c 9342     		cmp	r3, r2
 5101 000e 15D9     		bls	.L260
 5102              	.LVL527:
 5103              	.L253:
 388:lvgl/src/widgets/lv_table.c **** 
 5104              		.loc 1 388 5 is_stmt 1 view .LVU1756
 388:lvgl/src/widgets/lv_table.c **** 
 5105              		.loc 1 388 20 is_stmt 0 view .LVU1757
 5106 0010 E38C     		ldrh	r3, [r4, #38]
 388:lvgl/src/widgets/lv_table.c **** 
 5107              		.loc 1 388 7 view .LVU1758
 5108 0012 B342     		cmp	r3, r6
 5109 0014 17D9     		bls	.L261
 5110              	.L254:
 390:lvgl/src/widgets/lv_table.c **** 
 5111              		.loc 1 390 5 is_stmt 1 view .LVU1759
 390:lvgl/src/widgets/lv_table.c **** 
 5112              		.loc 1 390 32 is_stmt 0 view .LVU1760
 5113 0016 A38C     		ldrh	r3, [r4, #36]
 390:lvgl/src/widgets/lv_table.c **** 
 5114              		.loc 1 390 42 view .LVU1761
 5115 0018 03FB0655 		mla	r5, r3, r6, r5
 5116              	.LVL528:
 392:lvgl/src/widgets/lv_table.c ****         table->cell_data[cell]    = lv_mem_alloc(sizeof(lv_table_cell_t) + 1); /*+1: trailing '\0 *
 5117              		.loc 1 392 5 is_stmt 1 view .LVU1762
 392:lvgl/src/widgets/lv_table.c ****         table->cell_data[cell]    = lv_mem_alloc(sizeof(lv_table_cell_t) + 1); /*+1: trailing '\0 *
 5118              		.loc 1 392 27 is_stmt 0 view .LVU1763
 5119 001c A66A     		ldr	r6, [r4, #40]
 392:lvgl/src/widgets/lv_table.c ****         table->cell_data[cell]    = lv_mem_alloc(sizeof(lv_table_cell_t) + 1); /*+1: trailing '\0 *
 5120              		.loc 1 392 8 view .LVU1764
 5121 001e 56F82530 		ldr	r3, [r6, r5, lsl #2]
 392:lvgl/src/widgets/lv_table.c ****         table->cell_data[cell]    = lv_mem_alloc(sizeof(lv_table_cell_t) + 1); /*+1: trailing '\0 *
 5122              		.loc 1 392 7 view .LVU1765
 5123 0022 B3B1     		cbz	r3, .L262
 5124              	.L255:
 402:lvgl/src/widgets/lv_table.c ****         lv_mem_free(table->cell_data[cell]->user_data);
 5125              		.loc 1 402 5 is_stmt 1 view .LVU1766
 402:lvgl/src/widgets/lv_table.c ****         lv_mem_free(table->cell_data[cell]->user_data);
 5126              		.loc 1 402 13 is_stmt 0 view .LVU1767
 5127 0024 A36A     		ldr	r3, [r4, #40]
 402:lvgl/src/widgets/lv_table.c ****         lv_mem_free(table->cell_data[cell]->user_data);
 5128              		.loc 1 402 24 view .LVU1768
 5129 0026 53F82530 		ldr	r3, [r3, r5, lsl #2]
 402:lvgl/src/widgets/lv_table.c ****         lv_mem_free(table->cell_data[cell]->user_data);
 5130              		.loc 1 402 30 view .LVU1769
 5131 002a 5868     		ldr	r0, [r3, #4]
 402:lvgl/src/widgets/lv_table.c ****         lv_mem_free(table->cell_data[cell]->user_data);
 5132              		.loc 1 402 7 view .LVU1770
 5133 002c 08B1     		cbz	r0, .L258
 403:lvgl/src/widgets/lv_table.c ****     }
 5134              		.loc 1 403 9 is_stmt 1 view .LVU1771
 5135 002e FFF7FEFF 		bl	lv_mem_free
 5136              	.LVL529:
 5137              	.L258:
 406:lvgl/src/widgets/lv_table.c **** }
 5138              		.loc 1 406 5 view .LVU1772
ARM GAS  /var/folders/21/t9g5rlb91ys800n5npymflf80000gn/T//ccNiYEm1.s 			page 155


 406:lvgl/src/widgets/lv_table.c **** }
 5139              		.loc 1 406 10 is_stmt 0 view .LVU1773
 5140 0032 A36A     		ldr	r3, [r4, #40]
 406:lvgl/src/widgets/lv_table.c **** }
 5141              		.loc 1 406 21 view .LVU1774
 5142 0034 53F82530 		ldr	r3, [r3, r5, lsl #2]
 406:lvgl/src/widgets/lv_table.c **** }
 5143              		.loc 1 406 39 view .LVU1775
 5144 0038 5F60     		str	r7, [r3, #4]
 407:lvgl/src/widgets/lv_table.c **** #endif
 5145              		.loc 1 407 1 view .LVU1776
 5146 003a F8BD     		pop	{r3, r4, r5, r6, r7, pc}
 5147              	.LVL530:
 5148              	.L260:
 387:lvgl/src/widgets/lv_table.c ****     if(row >= table->row_cnt) lv_table_set_row_cnt(obj, row + 1);
 5149              		.loc 1 387 31 is_stmt 1 discriminator 1 view .LVU1777
 5150 003c 511C     		adds	r1, r2, #1
 5151              	.LVL531:
 387:lvgl/src/widgets/lv_table.c ****     if(row >= table->row_cnt) lv_table_set_row_cnt(obj, row + 1);
 5152              		.loc 1 387 31 is_stmt 0 discriminator 1 view .LVU1778
 5153 003e 89B2     		uxth	r1, r1
 5154 0040 FFF7FEFF 		bl	lv_table_set_col_cnt
 5155              	.LVL532:
 387:lvgl/src/widgets/lv_table.c ****     if(row >= table->row_cnt) lv_table_set_row_cnt(obj, row + 1);
 5156              		.loc 1 387 31 discriminator 1 view .LVU1779
 5157 0044 E4E7     		b	.L253
 5158              	.L261:
 388:lvgl/src/widgets/lv_table.c **** 
 5159              		.loc 1 388 31 is_stmt 1 discriminator 1 view .LVU1780
 5160 0046 711C     		adds	r1, r6, #1
 5161 0048 89B2     		uxth	r1, r1
 5162 004a 2046     		mov	r0, r4
 5163 004c FFF7FEFF 		bl	lv_table_set_row_cnt
 5164              	.LVL533:
 5165 0050 E1E7     		b	.L254
 5166              	.LVL534:
 5167              	.L262:
 393:lvgl/src/widgets/lv_table.c ****         LV_ASSERT_MALLOC(table->cell_data[cell]);
 5168              		.loc 1 393 9 view .LVU1781
 393:lvgl/src/widgets/lv_table.c ****         LV_ASSERT_MALLOC(table->cell_data[cell]);
 5169              		.loc 1 393 37 is_stmt 0 view .LVU1782
 5170 0052 0920     		movs	r0, #9
 5171 0054 FFF7FEFF 		bl	lv_mem_alloc
 5172              	.LVL535:
 393:lvgl/src/widgets/lv_table.c ****         LV_ASSERT_MALLOC(table->cell_data[cell]);
 5173              		.loc 1 393 35 view .LVU1783
 5174 0058 46F82500 		str	r0, [r6, r5, lsl #2]
 394:lvgl/src/widgets/lv_table.c ****         if(table->cell_data[cell] == NULL) return;
 5175              		.loc 1 394 9 is_stmt 1 view .LVU1784
 394:lvgl/src/widgets/lv_table.c ****         if(table->cell_data[cell] == NULL) return;
 5176              		.loc 1 394 9 view .LVU1785
 5177 005c A36A     		ldr	r3, [r4, #40]
 5178 005e 53F82520 		ldr	r2, [r3, r5, lsl #2]
 5179 0062 52B1     		cbz	r2, .L257
 394:lvgl/src/widgets/lv_table.c ****         if(table->cell_data[cell] == NULL) return;
 5180              		.loc 1 394 9 view .LVU1786
 394:lvgl/src/widgets/lv_table.c ****         if(table->cell_data[cell] == NULL) return;
ARM GAS  /var/folders/21/t9g5rlb91ys800n5npymflf80000gn/T//ccNiYEm1.s 			page 156


 5181              		.loc 1 394 49 view .LVU1787
 395:lvgl/src/widgets/lv_table.c **** 
 5182              		.loc 1 395 9 view .LVU1788
 397:lvgl/src/widgets/lv_table.c ****         table->cell_data[cell]->user_data = NULL;
 5183              		.loc 1 397 9 view .LVU1789
 397:lvgl/src/widgets/lv_table.c ****         table->cell_data[cell]->user_data = NULL;
 5184              		.loc 1 397 38 is_stmt 0 view .LVU1790
 5185 0064 0023     		movs	r3, #0
 5186 0066 1370     		strb	r3, [r2]
 398:lvgl/src/widgets/lv_table.c ****         table->cell_data[cell]->txt[0] = '\0';
 5187              		.loc 1 398 9 is_stmt 1 view .LVU1791
 398:lvgl/src/widgets/lv_table.c ****         table->cell_data[cell]->txt[0] = '\0';
 5188              		.loc 1 398 14 is_stmt 0 view .LVU1792
 5189 0068 A26A     		ldr	r2, [r4, #40]
 398:lvgl/src/widgets/lv_table.c ****         table->cell_data[cell]->txt[0] = '\0';
 5190              		.loc 1 398 25 view .LVU1793
 5191 006a 52F82520 		ldr	r2, [r2, r5, lsl #2]
 398:lvgl/src/widgets/lv_table.c ****         table->cell_data[cell]->txt[0] = '\0';
 5192              		.loc 1 398 43 view .LVU1794
 5193 006e 5360     		str	r3, [r2, #4]
 399:lvgl/src/widgets/lv_table.c ****     }
 5194              		.loc 1 399 9 is_stmt 1 view .LVU1795
 399:lvgl/src/widgets/lv_table.c ****     }
 5195              		.loc 1 399 14 is_stmt 0 view .LVU1796
 5196 0070 A26A     		ldr	r2, [r4, #40]
 399:lvgl/src/widgets/lv_table.c ****     }
 5197              		.loc 1 399 25 view .LVU1797
 5198 0072 52F82520 		ldr	r2, [r2, r5, lsl #2]
 399:lvgl/src/widgets/lv_table.c ****     }
 5199              		.loc 1 399 40 view .LVU1798
 5200 0076 1372     		strb	r3, [r2, #8]
 5201 0078 D4E7     		b	.L255
 5202              	.L257:
 394:lvgl/src/widgets/lv_table.c ****         if(table->cell_data[cell] == NULL) return;
 5203              		.loc 1 394 9 is_stmt 1 discriminator 1 view .LVU1799
 394:lvgl/src/widgets/lv_table.c ****         if(table->cell_data[cell] == NULL) return;
 5204              		.loc 1 394 9 discriminator 1 view .LVU1800
 394:lvgl/src/widgets/lv_table.c ****         if(table->cell_data[cell] == NULL) return;
 5205              		.loc 1 394 9 discriminator 1 view .LVU1801
 394:lvgl/src/widgets/lv_table.c ****         if(table->cell_data[cell] == NULL) return;
 5206              		.loc 1 394 9 discriminator 1 view .LVU1802
 394:lvgl/src/widgets/lv_table.c ****         if(table->cell_data[cell] == NULL) return;
 5207              		.loc 1 394 9 discriminator 1 view .LVU1803
 5208 007a FEE7     		b	.L257
 5209              		.cfi_endproc
 5210              	.LFE170:
 5212              		.section	.rodata.lv_table_get_cell_value.str1.4,"aMS",%progbits,1
 5213              		.align	2
 5214              	.LC0:
 5215 0000 00       		.ascii	"\000"
 5216              		.section	.text.lv_table_get_cell_value,"ax",%progbits
 5217              		.align	1
 5218              		.global	lv_table_get_cell_value
 5219              		.syntax unified
 5220              		.thumb
 5221              		.thumb_func
 5223              	lv_table_get_cell_value:
ARM GAS  /var/folders/21/t9g5rlb91ys800n5npymflf80000gn/T//ccNiYEm1.s 			page 157


 5224              	.LVL536:
 5225              	.LFB171:
 415:lvgl/src/widgets/lv_table.c ****     LV_ASSERT_OBJ(obj, MY_CLASS);
 5226              		.loc 1 415 1 view -0
 5227              		.cfi_startproc
 5228              		@ args = 0, pretend = 0, frame = 0
 5229              		@ frame_needed = 0, uses_anonymous_args = 0
 5230              		@ link register save eliminated.
 416:lvgl/src/widgets/lv_table.c **** 
 5231              		.loc 1 416 5 view .LVU1805
 416:lvgl/src/widgets/lv_table.c **** 
 5232              		.loc 1 416 5 view .LVU1806
 416:lvgl/src/widgets/lv_table.c **** 
 5233              		.loc 1 416 5 view .LVU1807
 418:lvgl/src/widgets/lv_table.c ****     if(row >= table->row_cnt || col >= table->col_cnt) {
 5234              		.loc 1 418 5 view .LVU1808
 419:lvgl/src/widgets/lv_table.c ****         LV_LOG_WARN("invalid row or column");
 5235              		.loc 1 419 5 view .LVU1809
 419:lvgl/src/widgets/lv_table.c ****         LV_LOG_WARN("invalid row or column");
 5236              		.loc 1 419 20 is_stmt 0 view .LVU1810
 5237 0000 C38C     		ldrh	r3, [r0, #38]
 419:lvgl/src/widgets/lv_table.c ****         LV_LOG_WARN("invalid row or column");
 5238              		.loc 1 419 7 view .LVU1811
 5239 0002 8B42     		cmp	r3, r1
 5240 0004 0AD9     		bls	.L265
 419:lvgl/src/widgets/lv_table.c ****         LV_LOG_WARN("invalid row or column");
 5241              		.loc 1 419 45 discriminator 1 view .LVU1812
 5242 0006 838C     		ldrh	r3, [r0, #36]
 419:lvgl/src/widgets/lv_table.c ****         LV_LOG_WARN("invalid row or column");
 5243              		.loc 1 419 30 discriminator 1 view .LVU1813
 5244 0008 9342     		cmp	r3, r2
 5245 000a 09D9     		bls	.L266
 423:lvgl/src/widgets/lv_table.c **** 
 5246              		.loc 1 423 5 is_stmt 1 view .LVU1814
 423:lvgl/src/widgets/lv_table.c **** 
 5247              		.loc 1 423 42 is_stmt 0 view .LVU1815
 5248 000c 03FB0122 		mla	r2, r3, r1, r2
 5249              	.LVL537:
 425:lvgl/src/widgets/lv_table.c **** 
 5250              		.loc 1 425 5 is_stmt 1 view .LVU1816
 425:lvgl/src/widgets/lv_table.c **** 
 5251              		.loc 1 425 27 is_stmt 0 view .LVU1817
 5252 0010 836A     		ldr	r3, [r0, #40]
 425:lvgl/src/widgets/lv_table.c **** 
 5253              		.loc 1 425 8 view .LVU1818
 5254 0012 53F82200 		ldr	r0, [r3, r2, lsl #2]
 5255              	.LVL538:
 425:lvgl/src/widgets/lv_table.c **** 
 5256              		.loc 1 425 7 view .LVU1819
 5257 0016 28B1     		cbz	r0, .L267
 427:lvgl/src/widgets/lv_table.c **** }
 5258              		.loc 1 427 5 is_stmt 1 view .LVU1820
 427:lvgl/src/widgets/lv_table.c **** }
 5259              		.loc 1 427 12 is_stmt 0 view .LVU1821
 5260 0018 0830     		adds	r0, r0, #8
 5261 001a 7047     		bx	lr
 5262              	.LVL539:
ARM GAS  /var/folders/21/t9g5rlb91ys800n5npymflf80000gn/T//ccNiYEm1.s 			page 158


 5263              	.L265:
 421:lvgl/src/widgets/lv_table.c ****     }
 5264              		.loc 1 421 16 view .LVU1822
 5265 001c 0248     		ldr	r0, .L268
 5266              	.LVL540:
 421:lvgl/src/widgets/lv_table.c ****     }
 5267              		.loc 1 421 16 view .LVU1823
 5268 001e 7047     		bx	lr
 5269              	.LVL541:
 5270              	.L266:
 421:lvgl/src/widgets/lv_table.c ****     }
 5271              		.loc 1 421 16 view .LVU1824
 5272 0020 0148     		ldr	r0, .L268
 5273              	.LVL542:
 421:lvgl/src/widgets/lv_table.c ****     }
 5274              		.loc 1 421 16 view .LVU1825
 5275 0022 7047     		bx	lr
 5276              	.LVL543:
 5277              	.L267:
 425:lvgl/src/widgets/lv_table.c **** 
 5278              		.loc 1 425 54 view .LVU1826
 5279 0024 0048     		ldr	r0, .L268
 428:lvgl/src/widgets/lv_table.c **** 
 5280              		.loc 1 428 1 view .LVU1827
 5281 0026 7047     		bx	lr
 5282              	.L269:
 5283              		.align	2
 5284              	.L268:
 5285 0028 00000000 		.word	.LC0
 5286              		.cfi_endproc
 5287              	.LFE171:
 5289              		.section	.text.lv_table_get_row_cnt,"ax",%progbits
 5290              		.align	1
 5291              		.global	lv_table_get_row_cnt
 5292              		.syntax unified
 5293              		.thumb
 5294              		.thumb_func
 5296              	lv_table_get_row_cnt:
 5297              	.LVL544:
 5298              	.LFB172:
 431:lvgl/src/widgets/lv_table.c ****     LV_ASSERT_OBJ(obj, MY_CLASS);
 5299              		.loc 1 431 1 is_stmt 1 view -0
 5300              		.cfi_startproc
 5301              		@ args = 0, pretend = 0, frame = 0
 5302              		@ frame_needed = 0, uses_anonymous_args = 0
 5303              		@ link register save eliminated.
 432:lvgl/src/widgets/lv_table.c **** 
 5304              		.loc 1 432 5 view .LVU1829
 432:lvgl/src/widgets/lv_table.c **** 
 5305              		.loc 1 432 5 view .LVU1830
 432:lvgl/src/widgets/lv_table.c **** 
 5306              		.loc 1 432 5 view .LVU1831
 434:lvgl/src/widgets/lv_table.c ****     return table->row_cnt;
 5307              		.loc 1 434 5 view .LVU1832
 435:lvgl/src/widgets/lv_table.c **** }
 5308              		.loc 1 435 5 view .LVU1833
 436:lvgl/src/widgets/lv_table.c **** 
ARM GAS  /var/folders/21/t9g5rlb91ys800n5npymflf80000gn/T//ccNiYEm1.s 			page 159


 5309              		.loc 1 436 1 is_stmt 0 view .LVU1834
 5310 0000 C08C     		ldrh	r0, [r0, #38]
 5311              	.LVL545:
 436:lvgl/src/widgets/lv_table.c **** 
 5312              		.loc 1 436 1 view .LVU1835
 5313 0002 7047     		bx	lr
 5314              		.cfi_endproc
 5315              	.LFE172:
 5317              		.section	.text.lv_table_get_col_cnt,"ax",%progbits
 5318              		.align	1
 5319              		.global	lv_table_get_col_cnt
 5320              		.syntax unified
 5321              		.thumb
 5322              		.thumb_func
 5324              	lv_table_get_col_cnt:
 5325              	.LVL546:
 5326              	.LFB173:
 439:lvgl/src/widgets/lv_table.c ****     LV_ASSERT_OBJ(obj, MY_CLASS);
 5327              		.loc 1 439 1 is_stmt 1 view -0
 5328              		.cfi_startproc
 5329              		@ args = 0, pretend = 0, frame = 0
 5330              		@ frame_needed = 0, uses_anonymous_args = 0
 5331              		@ link register save eliminated.
 440:lvgl/src/widgets/lv_table.c **** 
 5332              		.loc 1 440 5 view .LVU1837
 440:lvgl/src/widgets/lv_table.c **** 
 5333              		.loc 1 440 5 view .LVU1838
 440:lvgl/src/widgets/lv_table.c **** 
 5334              		.loc 1 440 5 view .LVU1839
 442:lvgl/src/widgets/lv_table.c ****     return table->col_cnt;
 5335              		.loc 1 442 5 view .LVU1840
 443:lvgl/src/widgets/lv_table.c **** }
 5336              		.loc 1 443 5 view .LVU1841
 444:lvgl/src/widgets/lv_table.c **** 
 5337              		.loc 1 444 1 is_stmt 0 view .LVU1842
 5338 0000 808C     		ldrh	r0, [r0, #36]
 5339              	.LVL547:
 444:lvgl/src/widgets/lv_table.c **** 
 5340              		.loc 1 444 1 view .LVU1843
 5341 0002 7047     		bx	lr
 5342              		.cfi_endproc
 5343              	.LFE173:
 5345              		.section	.text.lv_table_get_col_width,"ax",%progbits
 5346              		.align	1
 5347              		.global	lv_table_get_col_width
 5348              		.syntax unified
 5349              		.thumb
 5350              		.thumb_func
 5352              	lv_table_get_col_width:
 5353              	.LVL548:
 5354              	.LFB174:
 447:lvgl/src/widgets/lv_table.c ****     LV_ASSERT_OBJ(obj, MY_CLASS);
 5355              		.loc 1 447 1 is_stmt 1 view -0
 5356              		.cfi_startproc
 5357              		@ args = 0, pretend = 0, frame = 0
 5358              		@ frame_needed = 0, uses_anonymous_args = 0
 5359              		@ link register save eliminated.
ARM GAS  /var/folders/21/t9g5rlb91ys800n5npymflf80000gn/T//ccNiYEm1.s 			page 160


 448:lvgl/src/widgets/lv_table.c **** 
 5360              		.loc 1 448 5 view .LVU1845
 448:lvgl/src/widgets/lv_table.c **** 
 5361              		.loc 1 448 5 view .LVU1846
 448:lvgl/src/widgets/lv_table.c **** 
 5362              		.loc 1 448 5 view .LVU1847
 450:lvgl/src/widgets/lv_table.c **** 
 5363              		.loc 1 450 5 view .LVU1848
 452:lvgl/src/widgets/lv_table.c ****         LV_LOG_WARN("lv_table_set_col_width: too big 'col_id'. Must be < LV_TABLE_COL_MAX.");
 5364              		.loc 1 452 5 view .LVU1849
 452:lvgl/src/widgets/lv_table.c ****         LV_LOG_WARN("lv_table_set_col_width: too big 'col_id'. Must be < LV_TABLE_COL_MAX.");
 5365              		.loc 1 452 20 is_stmt 0 view .LVU1850
 5366 0000 838C     		ldrh	r3, [r0, #36]
 452:lvgl/src/widgets/lv_table.c ****         LV_LOG_WARN("lv_table_set_col_width: too big 'col_id'. Must be < LV_TABLE_COL_MAX.");
 5367              		.loc 1 452 7 view .LVU1851
 5368 0002 8B42     		cmp	r3, r1
 5369 0004 03D9     		bls	.L274
 457:lvgl/src/widgets/lv_table.c **** }
 5370              		.loc 1 457 5 is_stmt 1 view .LVU1852
 457:lvgl/src/widgets/lv_table.c **** }
 5371              		.loc 1 457 17 is_stmt 0 view .LVU1853
 5372 0006 036B     		ldr	r3, [r0, #48]
 457:lvgl/src/widgets/lv_table.c **** }
 5373              		.loc 1 457 24 view .LVU1854
 5374 0008 33F91100 		ldrsh	r0, [r3, r1, lsl #1]
 5375              	.LVL549:
 457:lvgl/src/widgets/lv_table.c **** }
 5376              		.loc 1 457 24 view .LVU1855
 5377 000c 7047     		bx	lr
 5378              	.LVL550:
 5379              	.L274:
 454:lvgl/src/widgets/lv_table.c ****     }
 5380              		.loc 1 454 16 view .LVU1856
 5381 000e 0020     		movs	r0, #0
 5382              	.LVL551:
 458:lvgl/src/widgets/lv_table.c **** 
 5383              		.loc 1 458 1 view .LVU1857
 5384 0010 7047     		bx	lr
 5385              		.cfi_endproc
 5386              	.LFE174:
 5388              		.section	.text.lv_table_has_cell_ctrl,"ax",%progbits
 5389              		.align	1
 5390              		.global	lv_table_has_cell_ctrl
 5391              		.syntax unified
 5392              		.thumb
 5393              		.thumb_func
 5395              	lv_table_has_cell_ctrl:
 5396              	.LVL552:
 5397              	.LFB175:
 461:lvgl/src/widgets/lv_table.c ****     LV_ASSERT_OBJ(obj, MY_CLASS);
 5398              		.loc 1 461 1 is_stmt 1 view -0
 5399              		.cfi_startproc
 5400              		@ args = 0, pretend = 0, frame = 0
 5401              		@ frame_needed = 0, uses_anonymous_args = 0
 5402              		@ link register save eliminated.
 462:lvgl/src/widgets/lv_table.c **** 
 5403              		.loc 1 462 5 view .LVU1859
ARM GAS  /var/folders/21/t9g5rlb91ys800n5npymflf80000gn/T//ccNiYEm1.s 			page 161


 462:lvgl/src/widgets/lv_table.c **** 
 5404              		.loc 1 462 5 view .LVU1860
 462:lvgl/src/widgets/lv_table.c **** 
 5405              		.loc 1 462 5 view .LVU1861
 464:lvgl/src/widgets/lv_table.c ****     if(row >= table->row_cnt || col >= table->col_cnt) {
 5406              		.loc 1 464 5 view .LVU1862
 465:lvgl/src/widgets/lv_table.c ****         LV_LOG_WARN("lv_table_get_cell_crop: invalid row or column");
 5407              		.loc 1 465 5 view .LVU1863
 465:lvgl/src/widgets/lv_table.c ****         LV_LOG_WARN("lv_table_get_cell_crop: invalid row or column");
 5408              		.loc 1 465 20 is_stmt 0 view .LVU1864
 5409 0000 B0F826C0 		ldrh	ip, [r0, #38]
 465:lvgl/src/widgets/lv_table.c ****         LV_LOG_WARN("lv_table_get_cell_crop: invalid row or column");
 5410              		.loc 1 465 7 view .LVU1865
 5411 0004 8C45     		cmp	ip, r1
 5412 0006 0FD9     		bls	.L277
 465:lvgl/src/widgets/lv_table.c ****         LV_LOG_WARN("lv_table_get_cell_crop: invalid row or column");
 5413              		.loc 1 465 45 discriminator 1 view .LVU1866
 5414 0008 B0F824C0 		ldrh	ip, [r0, #36]
 465:lvgl/src/widgets/lv_table.c ****         LV_LOG_WARN("lv_table_get_cell_crop: invalid row or column");
 5415              		.loc 1 465 30 discriminator 1 view .LVU1867
 5416 000c 9445     		cmp	ip, r2
 5417 000e 0DD9     		bls	.L278
 469:lvgl/src/widgets/lv_table.c **** 
 5418              		.loc 1 469 5 is_stmt 1 view .LVU1868
 469:lvgl/src/widgets/lv_table.c **** 
 5419              		.loc 1 469 42 is_stmt 0 view .LVU1869
 5420 0010 0CFB0122 		mla	r2, ip, r1, r2
 5421              	.LVL553:
 471:lvgl/src/widgets/lv_table.c ****     else return (table->cell_data[cell]->ctrl & ctrl) == ctrl;
 5422              		.loc 1 471 5 is_stmt 1 view .LVU1870
 471:lvgl/src/widgets/lv_table.c ****     else return (table->cell_data[cell]->ctrl & ctrl) == ctrl;
 5423              		.loc 1 471 27 is_stmt 0 view .LVU1871
 5424 0014 816A     		ldr	r1, [r0, #40]
 5425              	.LVL554:
 471:lvgl/src/widgets/lv_table.c ****     else return (table->cell_data[cell]->ctrl & ctrl) == ctrl;
 5426              		.loc 1 471 8 view .LVU1872
 5427 0016 51F82220 		ldr	r2, [r1, r2, lsl #2]
 5428              	.LVL555:
 471:lvgl/src/widgets/lv_table.c ****     else return (table->cell_data[cell]->ctrl & ctrl) == ctrl;
 5429              		.loc 1 471 7 view .LVU1873
 5430 001a 4AB1     		cbz	r2, .L279
 472:lvgl/src/widgets/lv_table.c **** }
 5431              		.loc 1 472 10 is_stmt 1 view .LVU1874
 472:lvgl/src/widgets/lv_table.c **** }
 5432              		.loc 1 472 40 is_stmt 0 view .LVU1875
 5433 001c 1278     		ldrb	r2, [r2]	@ zero_extendqisi2
 472:lvgl/src/widgets/lv_table.c **** }
 5434              		.loc 1 472 55 view .LVU1876
 5435 001e 9343     		bics	r3, r3, r2
 5436              	.LVL556:
 472:lvgl/src/widgets/lv_table.c **** }
 5437              		.loc 1 472 55 view .LVU1877
 5438 0020 0CBF     		ite	eq
 5439 0022 0120     		moveq	r0, #1
 5440              	.LVL557:
 472:lvgl/src/widgets/lv_table.c **** }
 5441              		.loc 1 472 55 view .LVU1878
ARM GAS  /var/folders/21/t9g5rlb91ys800n5npymflf80000gn/T//ccNiYEm1.s 			page 162


 5442 0024 0020     		movne	r0, #0
 5443 0026 7047     		bx	lr
 5444              	.LVL558:
 5445              	.L277:
 467:lvgl/src/widgets/lv_table.c ****     }
 5446              		.loc 1 467 16 view .LVU1879
 5447 0028 0020     		movs	r0, #0
 5448              	.LVL559:
 467:lvgl/src/widgets/lv_table.c ****     }
 5449              		.loc 1 467 16 view .LVU1880
 5450 002a 7047     		bx	lr
 5451              	.LVL560:
 5452              	.L278:
 467:lvgl/src/widgets/lv_table.c ****     }
 5453              		.loc 1 467 16 view .LVU1881
 5454 002c 0020     		movs	r0, #0
 5455              	.LVL561:
 467:lvgl/src/widgets/lv_table.c ****     }
 5456              		.loc 1 467 16 view .LVU1882
 5457 002e 7047     		bx	lr
 5458              	.LVL562:
 5459              	.L279:
 471:lvgl/src/widgets/lv_table.c ****     else return (table->cell_data[cell]->ctrl & ctrl) == ctrl;
 5460              		.loc 1 471 54 view .LVU1883
 5461 0030 0020     		movs	r0, #0
 5462              	.LVL563:
 473:lvgl/src/widgets/lv_table.c **** 
 5463              		.loc 1 473 1 view .LVU1884
 5464 0032 7047     		bx	lr
 5465              		.cfi_endproc
 5466              	.LFE175:
 5468              		.section	.text.lv_table_get_selected_cell,"ax",%progbits
 5469              		.align	1
 5470              		.global	lv_table_get_selected_cell
 5471              		.syntax unified
 5472              		.thumb
 5473              		.thumb_func
 5475              	lv_table_get_selected_cell:
 5476              	.LVL564:
 5477              	.LFB176:
 476:lvgl/src/widgets/lv_table.c ****     lv_table_t * table = (lv_table_t *)obj;
 5478              		.loc 1 476 1 is_stmt 1 view -0
 5479              		.cfi_startproc
 5480              		@ args = 0, pretend = 0, frame = 0
 5481              		@ frame_needed = 0, uses_anonymous_args = 0
 5482              		@ link register save eliminated.
 477:lvgl/src/widgets/lv_table.c ****     *row = table->row_act;
 5483              		.loc 1 477 5 view .LVU1886
 478:lvgl/src/widgets/lv_table.c ****     *col = table->col_act;
 5484              		.loc 1 478 5 view .LVU1887
 478:lvgl/src/widgets/lv_table.c ****     *col = table->col_act;
 5485              		.loc 1 478 17 is_stmt 0 view .LVU1888
 5486 0000 C38E     		ldrh	r3, [r0, #54]
 478:lvgl/src/widgets/lv_table.c ****     *col = table->col_act;
 5487              		.loc 1 478 10 view .LVU1889
 5488 0002 0B80     		strh	r3, [r1]	@ movhi
 479:lvgl/src/widgets/lv_table.c **** }
ARM GAS  /var/folders/21/t9g5rlb91ys800n5npymflf80000gn/T//ccNiYEm1.s 			page 163


 5489              		.loc 1 479 5 is_stmt 1 view .LVU1890
 479:lvgl/src/widgets/lv_table.c **** }
 5490              		.loc 1 479 17 is_stmt 0 view .LVU1891
 5491 0004 838E     		ldrh	r3, [r0, #52]
 479:lvgl/src/widgets/lv_table.c **** }
 5492              		.loc 1 479 10 view .LVU1892
 5493 0006 1380     		strh	r3, [r2]	@ movhi
 480:lvgl/src/widgets/lv_table.c **** 
 5494              		.loc 1 480 1 view .LVU1893
 5495 0008 7047     		bx	lr
 5496              		.cfi_endproc
 5497              	.LFE176:
 5499              		.section	.text.lv_table_get_cell_user_data,"ax",%progbits
 5500              		.align	1
 5501              		.global	lv_table_get_cell_user_data
 5502              		.syntax unified
 5503              		.thumb
 5504              		.thumb_func
 5506              	lv_table_get_cell_user_data:
 5507              	.LVL565:
 5508              	.LFB177:
 484:lvgl/src/widgets/lv_table.c ****     LV_ASSERT_OBJ(obj, MY_CLASS);
 5509              		.loc 1 484 1 is_stmt 1 view -0
 5510              		.cfi_startproc
 5511              		@ args = 0, pretend = 0, frame = 0
 5512              		@ frame_needed = 0, uses_anonymous_args = 0
 5513              		@ link register save eliminated.
 485:lvgl/src/widgets/lv_table.c **** 
 5514              		.loc 1 485 5 view .LVU1895
 485:lvgl/src/widgets/lv_table.c **** 
 5515              		.loc 1 485 5 view .LVU1896
 485:lvgl/src/widgets/lv_table.c **** 
 5516              		.loc 1 485 5 view .LVU1897
 487:lvgl/src/widgets/lv_table.c ****     if(row >= table->row_cnt || col >= table->col_cnt) {
 5517              		.loc 1 487 5 view .LVU1898
 488:lvgl/src/widgets/lv_table.c ****         LV_LOG_WARN("invalid row or column");
 5518              		.loc 1 488 5 view .LVU1899
 488:lvgl/src/widgets/lv_table.c ****         LV_LOG_WARN("invalid row or column");
 5519              		.loc 1 488 20 is_stmt 0 view .LVU1900
 5520 0000 C38C     		ldrh	r3, [r0, #38]
 488:lvgl/src/widgets/lv_table.c ****         LV_LOG_WARN("invalid row or column");
 5521              		.loc 1 488 7 view .LVU1901
 5522 0002 8B42     		cmp	r3, r1
 5523 0004 0AD9     		bls	.L283
 488:lvgl/src/widgets/lv_table.c ****         LV_LOG_WARN("invalid row or column");
 5524              		.loc 1 488 45 discriminator 1 view .LVU1902
 5525 0006 838C     		ldrh	r3, [r0, #36]
 488:lvgl/src/widgets/lv_table.c ****         LV_LOG_WARN("invalid row or column");
 5526              		.loc 1 488 30 discriminator 1 view .LVU1903
 5527 0008 9342     		cmp	r3, r2
 5528 000a 09D9     		bls	.L284
 492:lvgl/src/widgets/lv_table.c **** 
 5529              		.loc 1 492 5 is_stmt 1 view .LVU1904
 492:lvgl/src/widgets/lv_table.c **** 
 5530              		.loc 1 492 42 is_stmt 0 view .LVU1905
 5531 000c 03FB0122 		mla	r2, r3, r1, r2
 5532              	.LVL566:
ARM GAS  /var/folders/21/t9g5rlb91ys800n5npymflf80000gn/T//ccNiYEm1.s 			page 164


 494:lvgl/src/widgets/lv_table.c **** 
 5533              		.loc 1 494 5 is_stmt 1 view .LVU1906
 494:lvgl/src/widgets/lv_table.c **** 
 5534              		.loc 1 494 27 is_stmt 0 view .LVU1907
 5535 0010 836A     		ldr	r3, [r0, #40]
 494:lvgl/src/widgets/lv_table.c **** 
 5536              		.loc 1 494 8 view .LVU1908
 5537 0012 53F82200 		ldr	r0, [r3, r2, lsl #2]
 5538              	.LVL567:
 494:lvgl/src/widgets/lv_table.c **** 
 5539              		.loc 1 494 7 view .LVU1909
 5540 0016 20B1     		cbz	r0, .L281
 496:lvgl/src/widgets/lv_table.c **** }
 5541              		.loc 1 496 5 is_stmt 1 view .LVU1910
 496:lvgl/src/widgets/lv_table.c **** }
 5542              		.loc 1 496 34 is_stmt 0 view .LVU1911
 5543 0018 4068     		ldr	r0, [r0, #4]
 5544 001a 7047     		bx	lr
 5545              	.LVL568:
 5546              	.L283:
 490:lvgl/src/widgets/lv_table.c ****     }
 5547              		.loc 1 490 16 view .LVU1912
 5548 001c 0020     		movs	r0, #0
 5549              	.LVL569:
 490:lvgl/src/widgets/lv_table.c ****     }
 5550              		.loc 1 490 16 view .LVU1913
 5551 001e 7047     		bx	lr
 5552              	.LVL570:
 5553              	.L284:
 490:lvgl/src/widgets/lv_table.c ****     }
 5554              		.loc 1 490 16 view .LVU1914
 5555 0020 0020     		movs	r0, #0
 5556              	.LVL571:
 5557              	.L281:
 497:lvgl/src/widgets/lv_table.c **** #endif
 5558              		.loc 1 497 1 view .LVU1915
 5559 0022 7047     		bx	lr
 5560              		.cfi_endproc
 5561              	.LFE177:
 5563              		.global	lv_table_class
 5564              		.section	.rodata.lv_table_class,"a"
 5565              		.align	2
 5568              	lv_table_class:
 5569 0000 00000000 		.word	lv_obj_class
 5570 0004 00000000 		.word	lv_table_constructor
 5571 0008 00000000 		.word	lv_table_destructor
 5572 000c 00000000 		.space	4
 5573 0010 00000000 		.word	lv_table_event
 5574 0014 D127     		.short	10193
 5575 0016 D127     		.short	10193
 5576 0018 85       		.byte	133
 5577 0019 03       		.byte	3
 5578 001a 00       		.byte	0
 5579 001b 00       		.space	1
 5580              		.text
 5581              	.Letext0:
 5582              		.file 6 "/usr/local/include/sys/_types/_int8_t.h"
ARM GAS  /var/folders/21/t9g5rlb91ys800n5npymflf80000gn/T//ccNiYEm1.s 			page 165


 5583              		.file 7 "/usr/local/include/sys/_types/_int16_t.h"
 5584              		.file 8 "/usr/local/include/sys/_types/_int32_t.h"
 5585              		.file 9 "/usr/local/include/_types/_uint8_t.h"
 5586              		.file 10 "/usr/local/include/_types/_uint16_t.h"
 5587              		.file 11 "/usr/local/include/_types/_uint32_t.h"
 5588              		.file 12 "/usr/local/include/arm/_types.h"
 5589              		.file 13 "/usr/local/include/sys/_types/_size_t.h"
 5590              		.file 14 "lvgl/src/widgets/../core/../misc/lv_types.h"
 5591              		.file 15 "lvgl/src/widgets/../core/../misc/lv_color.h"
 5592              		.file 16 "lvgl/src/widgets/../core/../misc/lv_anim.h"
 5593              		.file 17 "/Applications/ArmGNUToolchain/12.2.mpacbti-rel1/arm-none-eabi/lib/gcc/arm-none-eabi/12.2
 5594              		.file 18 "lvgl/src/widgets/../core/../misc/lv_txt.h"
 5595              		.file 19 "lvgl/src/widgets/../core/../misc/lv_bidi.h"
 5596              		.file 20 "lvgl/src/widgets/../core/../misc/lv_style.h"
 5597              		.file 21 "lvgl/src/widgets/../core/../hal/../draw/lv_img_buf.h"
 5598              		.file 22 "lvgl/src/widgets/../core/lv_obj.h"
 5599              		.file 23 "lvgl/src/widgets/../core/../hal/../draw/lv_draw_rect.h"
 5600              		.file 24 "lvgl/src/widgets/../core/../hal/../draw/lv_draw_label.h"
 5601              		.file 25 "lvgl/src/widgets/../core/../hal/../draw/lv_draw_img.h"
 5602              		.file 26 "lvgl/src/widgets/../core/../hal/../draw/lv_draw_line.h"
 5603              		.file 27 "lvgl/src/widgets/../core/../hal/../draw/lv_draw_arc.h"
 5604              		.file 28 "lvgl/src/widgets/../core/../hal/../draw/lv_draw_layer.h"
 5605              		.file 29 "lvgl/src/widgets/../core/../hal/../draw/lv_draw.h"
 5606              		.file 30 "lvgl/src/widgets/../core/../hal/../misc/lv_ll.h"
 5607              		.file 31 "lvgl/src/widgets/../core/../hal/../misc/lv_timer.h"
 5608              		.file 32 "lvgl/src/widgets/../core/../hal/lv_hal_disp.h"
 5609              		.file 33 "lvgl/src/widgets/../core/../hal/lv_hal_indev.h"
 5610              		.file 34 "lvgl/src/widgets/../core/lv_group.h"
 5611              		.file 35 "lvgl/src/widgets/../core/lv_obj_scroll.h"
 5612              		.file 36 "lvgl/src/widgets/../core/lv_obj_style.h"
 5613              		.file 37 "lvgl/src/widgets/../core/lv_obj_draw.h"
 5614              		.file 38 "lvgl/src/widgets/../core/lv_obj_class.h"
 5615              		.file 39 "lvgl/src/widgets/../core/lv_event.h"
 5616              		.file 40 "lvgl/src/widgets/lv_table.h"
 5617              		.file 41 "lvgl/src/widgets/../core/../hal/../draw/sw/../../core/lv_obj_pos.h"
 5618              		.file 42 "lvgl/src/widgets/../core/../misc/lv_printf.h"
 5619              		.file 43 "/usr/local/include/string.h"
 5620              		.file 44 "lvgl/src/widgets/../core/lv_indev.h"
 5621              		.file 45 "<built-in>"
ARM GAS  /var/folders/21/t9g5rlb91ys800n5npymflf80000gn/T//ccNiYEm1.s 			page 166


DEFINED SYMBOLS
                            *ABS*:00000000 lv_table.c
/var/folders/21/t9g5rlb91ys800n5npymflf80000gn/T//ccNiYEm1.s:21     .text.get_row_height:00000000 $t
/var/folders/21/t9g5rlb91ys800n5npymflf80000gn/T//ccNiYEm1.s:26     .text.get_row_height:00000000 get_row_height
/var/folders/21/t9g5rlb91ys800n5npymflf80000gn/T//ccNiYEm1.s:326    .text.refr_size_form_row:00000000 $t
/var/folders/21/t9g5rlb91ys800n5npymflf80000gn/T//ccNiYEm1.s:331    .text.refr_size_form_row:00000000 refr_size_form_row
/var/folders/21/t9g5rlb91ys800n5npymflf80000gn/T//ccNiYEm1.s:601    .text.get_pressed_cell:00000000 $t
/var/folders/21/t9g5rlb91ys800n5npymflf80000gn/T//ccNiYEm1.s:606    .text.get_pressed_cell:00000000 get_pressed_cell
/var/folders/21/t9g5rlb91ys800n5npymflf80000gn/T//ccNiYEm1.s:934    .text.get_cell_area:00000000 $t
/var/folders/21/t9g5rlb91ys800n5npymflf80000gn/T//ccNiYEm1.s:939    .text.get_cell_area:00000000 get_cell_area
/var/folders/21/t9g5rlb91ys800n5npymflf80000gn/T//ccNiYEm1.s:1212   .text.scroll_to_selected_cell:00000000 $t
/var/folders/21/t9g5rlb91ys800n5npymflf80000gn/T//ccNiYEm1.s:1217   .text.scroll_to_selected_cell:00000000 scroll_to_selected_cell
/var/folders/21/t9g5rlb91ys800n5npymflf80000gn/T//ccNiYEm1.s:1350   .text.draw_main:00000000 $t
/var/folders/21/t9g5rlb91ys800n5npymflf80000gn/T//ccNiYEm1.s:1355   .text.draw_main:00000000 draw_main
/var/folders/21/t9g5rlb91ys800n5npymflf80000gn/T//ccNiYEm1.s:2299   .text.draw_main:00000418 $d
/var/folders/21/t9g5rlb91ys800n5npymflf80000gn/T//ccNiYEm1.s:5568   .rodata.lv_table_class:00000000 lv_table_class
/var/folders/21/t9g5rlb91ys800n5npymflf80000gn/T//ccNiYEm1.s:2304   .text.draw_main:0000041c $t
/var/folders/21/t9g5rlb91ys800n5npymflf80000gn/T//ccNiYEm1.s:2538   .text.lv_table_event:00000000 $t
/var/folders/21/t9g5rlb91ys800n5npymflf80000gn/T//ccNiYEm1.s:2543   .text.lv_table_event:00000000 lv_table_event
/var/folders/21/t9g5rlb91ys800n5npymflf80000gn/T//ccNiYEm1.s:2619   .text.lv_table_event:00000034 $d
/var/folders/21/t9g5rlb91ys800n5npymflf80000gn/T//ccNiYEm1.s:2664   .text.lv_table_event:000000e4 $t
/var/folders/21/t9g5rlb91ys800n5npymflf80000gn/T//ccNiYEm1.s:3126   .text.lv_table_event:00000280 $d
/var/folders/21/t9g5rlb91ys800n5npymflf80000gn/T//ccNiYEm1.s:3131   .text.lv_table_destructor:00000000 $t
/var/folders/21/t9g5rlb91ys800n5npymflf80000gn/T//ccNiYEm1.s:3136   .text.lv_table_destructor:00000000 lv_table_destructor
/var/folders/21/t9g5rlb91ys800n5npymflf80000gn/T//ccNiYEm1.s:3256   .text.lv_table_constructor:00000000 $t
/var/folders/21/t9g5rlb91ys800n5npymflf80000gn/T//ccNiYEm1.s:3261   .text.lv_table_constructor:00000000 lv_table_constructor
/var/folders/21/t9g5rlb91ys800n5npymflf80000gn/T//ccNiYEm1.s:3341   .text.get_cell_txt_len:00000000 $t
/var/folders/21/t9g5rlb91ys800n5npymflf80000gn/T//ccNiYEm1.s:3346   .text.get_cell_txt_len:00000000 get_cell_txt_len
/var/folders/21/t9g5rlb91ys800n5npymflf80000gn/T//ccNiYEm1.s:3375   .text.copy_cell_txt:00000000 $t
/var/folders/21/t9g5rlb91ys800n5npymflf80000gn/T//ccNiYEm1.s:3380   .text.copy_cell_txt:00000000 copy_cell_txt
/var/folders/21/t9g5rlb91ys800n5npymflf80000gn/T//ccNiYEm1.s:3405   .text.refr_cell_size:00000000 $t
/var/folders/21/t9g5rlb91ys800n5npymflf80000gn/T//ccNiYEm1.s:3410   .text.refr_cell_size:00000000 refr_cell_size
/var/folders/21/t9g5rlb91ys800n5npymflf80000gn/T//ccNiYEm1.s:3708   .text.lv_table_create:00000000 $t
/var/folders/21/t9g5rlb91ys800n5npymflf80000gn/T//ccNiYEm1.s:3714   .text.lv_table_create:00000000 lv_table_create
/var/folders/21/t9g5rlb91ys800n5npymflf80000gn/T//ccNiYEm1.s:3753   .text.lv_table_create:00000014 $d
/var/folders/21/t9g5rlb91ys800n5npymflf80000gn/T//ccNiYEm1.s:3758   .text.lv_table_set_row_cnt:00000000 $t
/var/folders/21/t9g5rlb91ys800n5npymflf80000gn/T//ccNiYEm1.s:3764   .text.lv_table_set_row_cnt:00000000 lv_table_set_row_cnt
/var/folders/21/t9g5rlb91ys800n5npymflf80000gn/T//ccNiYEm1.s:3966   .text.lv_table_set_col_cnt:00000000 $t
/var/folders/21/t9g5rlb91ys800n5npymflf80000gn/T//ccNiYEm1.s:3972   .text.lv_table_set_col_cnt:00000000 lv_table_set_col_cnt
/var/folders/21/t9g5rlb91ys800n5npymflf80000gn/T//ccNiYEm1.s:4262   .text.lv_table_set_cell_value:00000000 $t
/var/folders/21/t9g5rlb91ys800n5npymflf80000gn/T//ccNiYEm1.s:4268   .text.lv_table_set_cell_value:00000000 lv_table_set_cell_value
/var/folders/21/t9g5rlb91ys800n5npymflf80000gn/T//ccNiYEm1.s:4479   .text.lv_table_set_cell_value_fmt:00000000 $t
/var/folders/21/t9g5rlb91ys800n5npymflf80000gn/T//ccNiYEm1.s:4485   .text.lv_table_set_cell_value_fmt:00000000 lv_table_set_cell_value_fmt
/var/folders/21/t9g5rlb91ys800n5npymflf80000gn/T//ccNiYEm1.s:4717   .text.lv_table_set_col_width:00000000 $t
/var/folders/21/t9g5rlb91ys800n5npymflf80000gn/T//ccNiYEm1.s:4723   .text.lv_table_set_col_width:00000000 lv_table_set_col_width
/var/folders/21/t9g5rlb91ys800n5npymflf80000gn/T//ccNiYEm1.s:4781   .text.lv_table_add_cell_ctrl:00000000 $t
/var/folders/21/t9g5rlb91ys800n5npymflf80000gn/T//ccNiYEm1.s:4787   .text.lv_table_add_cell_ctrl:00000000 lv_table_add_cell_ctrl
/var/folders/21/t9g5rlb91ys800n5npymflf80000gn/T//ccNiYEm1.s:4921   .text.lv_table_clear_cell_ctrl:00000000 $t
/var/folders/21/t9g5rlb91ys800n5npymflf80000gn/T//ccNiYEm1.s:4927   .text.lv_table_clear_cell_ctrl:00000000 lv_table_clear_cell_ctrl
/var/folders/21/t9g5rlb91ys800n5npymflf80000gn/T//ccNiYEm1.s:5063   .text.lv_table_set_cell_user_data:00000000 $t
/var/folders/21/t9g5rlb91ys800n5npymflf80000gn/T//ccNiYEm1.s:5069   .text.lv_table_set_cell_user_data:00000000 lv_table_set_cell_user_data
/var/folders/21/t9g5rlb91ys800n5npymflf80000gn/T//ccNiYEm1.s:5213   .rodata.lv_table_get_cell_value.str1.4:00000000 $d
/var/folders/21/t9g5rlb91ys800n5npymflf80000gn/T//ccNiYEm1.s:5217   .text.lv_table_get_cell_value:00000000 $t
/var/folders/21/t9g5rlb91ys800n5npymflf80000gn/T//ccNiYEm1.s:5223   .text.lv_table_get_cell_value:00000000 lv_table_get_cell_value
/var/folders/21/t9g5rlb91ys800n5npymflf80000gn/T//ccNiYEm1.s:5285   .text.lv_table_get_cell_value:00000028 $d
/var/folders/21/t9g5rlb91ys800n5npymflf80000gn/T//ccNiYEm1.s:5290   .text.lv_table_get_row_cnt:00000000 $t
/var/folders/21/t9g5rlb91ys800n5npymflf80000gn/T//ccNiYEm1.s:5296   .text.lv_table_get_row_cnt:00000000 lv_table_get_row_cnt
ARM GAS  /var/folders/21/t9g5rlb91ys800n5npymflf80000gn/T//ccNiYEm1.s 			page 167


/var/folders/21/t9g5rlb91ys800n5npymflf80000gn/T//ccNiYEm1.s:5318   .text.lv_table_get_col_cnt:00000000 $t
/var/folders/21/t9g5rlb91ys800n5npymflf80000gn/T//ccNiYEm1.s:5324   .text.lv_table_get_col_cnt:00000000 lv_table_get_col_cnt
/var/folders/21/t9g5rlb91ys800n5npymflf80000gn/T//ccNiYEm1.s:5346   .text.lv_table_get_col_width:00000000 $t
/var/folders/21/t9g5rlb91ys800n5npymflf80000gn/T//ccNiYEm1.s:5352   .text.lv_table_get_col_width:00000000 lv_table_get_col_width
/var/folders/21/t9g5rlb91ys800n5npymflf80000gn/T//ccNiYEm1.s:5389   .text.lv_table_has_cell_ctrl:00000000 $t
/var/folders/21/t9g5rlb91ys800n5npymflf80000gn/T//ccNiYEm1.s:5395   .text.lv_table_has_cell_ctrl:00000000 lv_table_has_cell_ctrl
/var/folders/21/t9g5rlb91ys800n5npymflf80000gn/T//ccNiYEm1.s:5469   .text.lv_table_get_selected_cell:00000000 $t
/var/folders/21/t9g5rlb91ys800n5npymflf80000gn/T//ccNiYEm1.s:5475   .text.lv_table_get_selected_cell:00000000 lv_table_get_selected_cell
/var/folders/21/t9g5rlb91ys800n5npymflf80000gn/T//ccNiYEm1.s:5500   .text.lv_table_get_cell_user_data:00000000 $t
/var/folders/21/t9g5rlb91ys800n5npymflf80000gn/T//ccNiYEm1.s:5506   .text.lv_table_get_cell_user_data:00000000 lv_table_get_cell_user_data
/var/folders/21/t9g5rlb91ys800n5npymflf80000gn/T//ccNiYEm1.s:5565   .rodata.lv_table_class:00000000 $d

UNDEFINED SYMBOLS
lv_txt_get_size
lv_obj_get_style_prop
lv_obj_refresh_self_size
lv_obj_invalidate
lv_indev_get_act
lv_indev_get_type
lv_indev_get_point
lv_obj_get_scroll_x
lv_obj_get_scroll_y
lv_obj_get_width
lv_obj_scroll_by_bounded
lv_obj_get_height
lv_event_get_target
lv_event_get_draw_ctx
_lv_area_intersect
lv_draw_rect_dsc_init
lv_obj_init_draw_rect_dsc
lv_draw_label_dsc_init
lv_obj_init_draw_label_dsc
lv_obj_draw_dsc_init
lv_memcpy
lv_event_send
lv_draw_rect
lv_draw_label
lv_obj_event_base
lv_event_get_code
lv_event_get_param
lv_indev_get_scroll_obj
lv_mem_free
lv_mem_alloc
lv_mem_realloc
strlen
strcpy
lv_area_move
lv_obj_invalidate_area
lv_obj_class_create_obj
lv_obj_class_init_obj
lv_memset_00
lv_vsnprintf
lv_obj_class
