ARM GAS  /var/folders/21/t9g5rlb91ys800n5npymflf80000gn/T//cckp2I4w.s 			page 1


   1              		.cpu cortex-m4
   2              		.arch armv7e-m
   3              		.fpu fpv4-sp-d16
   4              		.eabi_attribute 27, 1
   5              		.eabi_attribute 28, 1
   6              		.eabi_attribute 20, 1
   7              		.eabi_attribute 21, 1
   8              		.eabi_attribute 23, 3
   9              		.eabi_attribute 24, 1
  10              		.eabi_attribute 25, 1
  11              		.eabi_attribute 26, 1
  12              		.eabi_attribute 30, 1
  13              		.eabi_attribute 34, 1
  14              		.eabi_attribute 18, 4
  15              		.file	"lv_tabview.c"
  16              		.text
  17              	.Ltext0:
  18              		.cfi_sections	.debug_frame
  19              		.file 1 "lvgl/src/extra/widgets/tabview/lv_tabview.c"
  20              		.section	.text.lv_tabview_destructor,"ax",%progbits
  21              		.align	1
  22              		.syntax unified
  23              		.thumb
  24              		.thumb_func
  26              	lv_tabview_destructor:
  27              	.LVL0:
  28              	.LFB212:
   1:lvgl/src/extra/widgets/tabview/lv_tabview.c **** /**
   2:lvgl/src/extra/widgets/tabview/lv_tabview.c ****  * @file lv_tabview.c
   3:lvgl/src/extra/widgets/tabview/lv_tabview.c ****  *
   4:lvgl/src/extra/widgets/tabview/lv_tabview.c ****  */
   5:lvgl/src/extra/widgets/tabview/lv_tabview.c **** 
   6:lvgl/src/extra/widgets/tabview/lv_tabview.c **** /*********************
   7:lvgl/src/extra/widgets/tabview/lv_tabview.c ****  *      INCLUDES
   8:lvgl/src/extra/widgets/tabview/lv_tabview.c ****  *********************/
   9:lvgl/src/extra/widgets/tabview/lv_tabview.c **** #include "lv_tabview.h"
  10:lvgl/src/extra/widgets/tabview/lv_tabview.c **** #if LV_USE_TABVIEW
  11:lvgl/src/extra/widgets/tabview/lv_tabview.c **** 
  12:lvgl/src/extra/widgets/tabview/lv_tabview.c **** #include "../../../misc/lv_assert.h"
  13:lvgl/src/extra/widgets/tabview/lv_tabview.c **** 
  14:lvgl/src/extra/widgets/tabview/lv_tabview.c **** /*********************
  15:lvgl/src/extra/widgets/tabview/lv_tabview.c ****  *      DEFINES
  16:lvgl/src/extra/widgets/tabview/lv_tabview.c ****  *********************/
  17:lvgl/src/extra/widgets/tabview/lv_tabview.c **** #define MY_CLASS    &lv_tabview_class
  18:lvgl/src/extra/widgets/tabview/lv_tabview.c **** 
  19:lvgl/src/extra/widgets/tabview/lv_tabview.c **** /**********************
  20:lvgl/src/extra/widgets/tabview/lv_tabview.c ****  *      TYPEDEFS
  21:lvgl/src/extra/widgets/tabview/lv_tabview.c ****  **********************/
  22:lvgl/src/extra/widgets/tabview/lv_tabview.c **** 
  23:lvgl/src/extra/widgets/tabview/lv_tabview.c **** /**********************
  24:lvgl/src/extra/widgets/tabview/lv_tabview.c ****  *  STATIC PROTOTYPES
  25:lvgl/src/extra/widgets/tabview/lv_tabview.c ****  **********************/
  26:lvgl/src/extra/widgets/tabview/lv_tabview.c **** static void lv_tabview_constructor(const lv_obj_class_t * class_p, lv_obj_t * obj);
  27:lvgl/src/extra/widgets/tabview/lv_tabview.c **** static void lv_tabview_destructor(const lv_obj_class_t * class_p, lv_obj_t * obj);
  28:lvgl/src/extra/widgets/tabview/lv_tabview.c **** static void lv_tabview_event(const lv_obj_class_t * class_p, lv_event_t * e);
  29:lvgl/src/extra/widgets/tabview/lv_tabview.c **** static void btns_value_changed_event_cb(lv_event_t * e);
  30:lvgl/src/extra/widgets/tabview/lv_tabview.c **** static void cont_scroll_end_event_cb(lv_event_t * e);
ARM GAS  /var/folders/21/t9g5rlb91ys800n5npymflf80000gn/T//cckp2I4w.s 			page 2


  31:lvgl/src/extra/widgets/tabview/lv_tabview.c **** 
  32:lvgl/src/extra/widgets/tabview/lv_tabview.c **** /**********************
  33:lvgl/src/extra/widgets/tabview/lv_tabview.c ****  *  STATIC VARIABLES
  34:lvgl/src/extra/widgets/tabview/lv_tabview.c ****  **********************/
  35:lvgl/src/extra/widgets/tabview/lv_tabview.c **** const lv_obj_class_t lv_tabview_class = {
  36:lvgl/src/extra/widgets/tabview/lv_tabview.c ****     .constructor_cb = lv_tabview_constructor,
  37:lvgl/src/extra/widgets/tabview/lv_tabview.c ****     .destructor_cb = lv_tabview_destructor,
  38:lvgl/src/extra/widgets/tabview/lv_tabview.c ****     .event_cb = lv_tabview_event,
  39:lvgl/src/extra/widgets/tabview/lv_tabview.c ****     .width_def = LV_PCT(100),
  40:lvgl/src/extra/widgets/tabview/lv_tabview.c ****     .height_def = LV_PCT(100),
  41:lvgl/src/extra/widgets/tabview/lv_tabview.c ****     .base_class = &lv_obj_class,
  42:lvgl/src/extra/widgets/tabview/lv_tabview.c ****     .instance_size = sizeof(lv_tabview_t)
  43:lvgl/src/extra/widgets/tabview/lv_tabview.c **** };
  44:lvgl/src/extra/widgets/tabview/lv_tabview.c **** 
  45:lvgl/src/extra/widgets/tabview/lv_tabview.c **** static lv_dir_t tabpos_create;
  46:lvgl/src/extra/widgets/tabview/lv_tabview.c **** static lv_coord_t tabsize_create;
  47:lvgl/src/extra/widgets/tabview/lv_tabview.c **** 
  48:lvgl/src/extra/widgets/tabview/lv_tabview.c **** /**********************
  49:lvgl/src/extra/widgets/tabview/lv_tabview.c ****  *      MACROS
  50:lvgl/src/extra/widgets/tabview/lv_tabview.c ****  **********************/
  51:lvgl/src/extra/widgets/tabview/lv_tabview.c **** 
  52:lvgl/src/extra/widgets/tabview/lv_tabview.c **** /**********************
  53:lvgl/src/extra/widgets/tabview/lv_tabview.c ****  *   GLOBAL FUNCTIONS
  54:lvgl/src/extra/widgets/tabview/lv_tabview.c ****  **********************/
  55:lvgl/src/extra/widgets/tabview/lv_tabview.c **** 
  56:lvgl/src/extra/widgets/tabview/lv_tabview.c **** lv_obj_t * lv_tabview_create(lv_obj_t * parent, lv_dir_t tab_pos, lv_coord_t tab_size)
  57:lvgl/src/extra/widgets/tabview/lv_tabview.c **** {
  58:lvgl/src/extra/widgets/tabview/lv_tabview.c ****     LV_LOG_INFO("begin");
  59:lvgl/src/extra/widgets/tabview/lv_tabview.c ****     tabpos_create = tab_pos;
  60:lvgl/src/extra/widgets/tabview/lv_tabview.c ****     tabsize_create = tab_size;
  61:lvgl/src/extra/widgets/tabview/lv_tabview.c **** 
  62:lvgl/src/extra/widgets/tabview/lv_tabview.c ****     lv_obj_t * obj = lv_obj_class_create_obj(&lv_tabview_class, parent);
  63:lvgl/src/extra/widgets/tabview/lv_tabview.c ****     lv_obj_class_init_obj(obj);
  64:lvgl/src/extra/widgets/tabview/lv_tabview.c ****     return obj;
  65:lvgl/src/extra/widgets/tabview/lv_tabview.c **** }
  66:lvgl/src/extra/widgets/tabview/lv_tabview.c **** 
  67:lvgl/src/extra/widgets/tabview/lv_tabview.c **** lv_obj_t * lv_tabview_add_tab(lv_obj_t * obj, const char * name)
  68:lvgl/src/extra/widgets/tabview/lv_tabview.c **** {
  69:lvgl/src/extra/widgets/tabview/lv_tabview.c ****     LV_ASSERT_OBJ(obj, MY_CLASS);
  70:lvgl/src/extra/widgets/tabview/lv_tabview.c ****     lv_tabview_t * tabview = (lv_tabview_t *)obj;
  71:lvgl/src/extra/widgets/tabview/lv_tabview.c ****     lv_obj_t * cont = lv_tabview_get_content(obj);
  72:lvgl/src/extra/widgets/tabview/lv_tabview.c **** 
  73:lvgl/src/extra/widgets/tabview/lv_tabview.c ****     lv_obj_t * page = lv_obj_create(cont);
  74:lvgl/src/extra/widgets/tabview/lv_tabview.c ****     lv_obj_set_size(page, LV_PCT(100), LV_PCT(100));
  75:lvgl/src/extra/widgets/tabview/lv_tabview.c ****     lv_obj_clear_flag(page, LV_OBJ_FLAG_CLICK_FOCUSABLE);
  76:lvgl/src/extra/widgets/tabview/lv_tabview.c ****     uint32_t tab_id = lv_obj_get_child_cnt(cont);
  77:lvgl/src/extra/widgets/tabview/lv_tabview.c **** 
  78:lvgl/src/extra/widgets/tabview/lv_tabview.c ****     lv_obj_t * btns = lv_tabview_get_tab_btns(obj);
  79:lvgl/src/extra/widgets/tabview/lv_tabview.c **** 
  80:lvgl/src/extra/widgets/tabview/lv_tabview.c ****     const char ** old_map = (const char **)tabview->map;
  81:lvgl/src/extra/widgets/tabview/lv_tabview.c ****     const char ** new_map;
  82:lvgl/src/extra/widgets/tabview/lv_tabview.c **** 
  83:lvgl/src/extra/widgets/tabview/lv_tabview.c ****     /*top or bottom dir*/
  84:lvgl/src/extra/widgets/tabview/lv_tabview.c ****     if(tabview->tab_pos & LV_DIR_VER) {
  85:lvgl/src/extra/widgets/tabview/lv_tabview.c ****         new_map = lv_mem_alloc((tab_id + 1) * sizeof(const char *));
  86:lvgl/src/extra/widgets/tabview/lv_tabview.c ****         lv_memcpy_small(new_map, old_map, sizeof(const char *) * (tab_id - 1));
  87:lvgl/src/extra/widgets/tabview/lv_tabview.c ****         new_map[tab_id - 1] = lv_mem_alloc(strlen(name) + 1);
ARM GAS  /var/folders/21/t9g5rlb91ys800n5npymflf80000gn/T//cckp2I4w.s 			page 3


  88:lvgl/src/extra/widgets/tabview/lv_tabview.c ****         strcpy((char *)new_map[tab_id - 1], name);
  89:lvgl/src/extra/widgets/tabview/lv_tabview.c ****         new_map[tab_id] = "";
  90:lvgl/src/extra/widgets/tabview/lv_tabview.c ****     }
  91:lvgl/src/extra/widgets/tabview/lv_tabview.c ****     /*left or right dir*/
  92:lvgl/src/extra/widgets/tabview/lv_tabview.c ****     else {
  93:lvgl/src/extra/widgets/tabview/lv_tabview.c ****         new_map = lv_mem_alloc((tab_id * 2) * sizeof(const char *));
  94:lvgl/src/extra/widgets/tabview/lv_tabview.c ****         lv_memcpy_small(new_map, old_map, sizeof(const char *) * (tab_id - 1) * 2);
  95:lvgl/src/extra/widgets/tabview/lv_tabview.c ****         if(tabview->tab_cnt == 0) {
  96:lvgl/src/extra/widgets/tabview/lv_tabview.c ****             new_map[0] = lv_mem_alloc(strlen(name) + 1);
  97:lvgl/src/extra/widgets/tabview/lv_tabview.c ****             strcpy((char *)new_map[0], name);
  98:lvgl/src/extra/widgets/tabview/lv_tabview.c ****             new_map[1] = "";
  99:lvgl/src/extra/widgets/tabview/lv_tabview.c ****         }
 100:lvgl/src/extra/widgets/tabview/lv_tabview.c ****         else {
 101:lvgl/src/extra/widgets/tabview/lv_tabview.c ****             new_map[tab_id * 2 - 3] = "\n";
 102:lvgl/src/extra/widgets/tabview/lv_tabview.c ****             new_map[tab_id * 2 - 2] = lv_mem_alloc(strlen(name) + 1);
 103:lvgl/src/extra/widgets/tabview/lv_tabview.c ****             new_map[tab_id * 2 - 1] = "";
 104:lvgl/src/extra/widgets/tabview/lv_tabview.c ****             strcpy((char *)new_map[(tab_id * 2) - 2], name);
 105:lvgl/src/extra/widgets/tabview/lv_tabview.c ****         }
 106:lvgl/src/extra/widgets/tabview/lv_tabview.c ****     }
 107:lvgl/src/extra/widgets/tabview/lv_tabview.c ****     tabview->map = new_map;
 108:lvgl/src/extra/widgets/tabview/lv_tabview.c ****     lv_btnmatrix_set_map(btns, (const char **)new_map);
 109:lvgl/src/extra/widgets/tabview/lv_tabview.c ****     lv_mem_free(old_map);
 110:lvgl/src/extra/widgets/tabview/lv_tabview.c **** 
 111:lvgl/src/extra/widgets/tabview/lv_tabview.c ****     lv_btnmatrix_set_btn_ctrl_all(btns, LV_BTNMATRIX_CTRL_CHECKABLE | LV_BTNMATRIX_CTRL_CLICK_TRIG 
 112:lvgl/src/extra/widgets/tabview/lv_tabview.c ****                                   LV_BTNMATRIX_CTRL_NO_REPEAT);
 113:lvgl/src/extra/widgets/tabview/lv_tabview.c **** 
 114:lvgl/src/extra/widgets/tabview/lv_tabview.c ****     tabview->tab_cnt++;
 115:lvgl/src/extra/widgets/tabview/lv_tabview.c ****     if(tabview->tab_cnt == 1) {
 116:lvgl/src/extra/widgets/tabview/lv_tabview.c ****         lv_tabview_set_act(obj, 0, LV_ANIM_OFF);
 117:lvgl/src/extra/widgets/tabview/lv_tabview.c ****     }
 118:lvgl/src/extra/widgets/tabview/lv_tabview.c **** 
 119:lvgl/src/extra/widgets/tabview/lv_tabview.c ****     lv_btnmatrix_set_btn_ctrl(btns, tabview->tab_cur, LV_BTNMATRIX_CTRL_CHECKED);
 120:lvgl/src/extra/widgets/tabview/lv_tabview.c **** 
 121:lvgl/src/extra/widgets/tabview/lv_tabview.c ****     return page;
 122:lvgl/src/extra/widgets/tabview/lv_tabview.c **** }
 123:lvgl/src/extra/widgets/tabview/lv_tabview.c **** 
 124:lvgl/src/extra/widgets/tabview/lv_tabview.c **** void lv_tabview_rename_tab(lv_obj_t * obj, uint32_t id, const char * new_name)
 125:lvgl/src/extra/widgets/tabview/lv_tabview.c **** {
 126:lvgl/src/extra/widgets/tabview/lv_tabview.c ****     LV_ASSERT_OBJ(obj, MY_CLASS);
 127:lvgl/src/extra/widgets/tabview/lv_tabview.c ****     lv_tabview_t * tabview = (lv_tabview_t *)obj;
 128:lvgl/src/extra/widgets/tabview/lv_tabview.c **** 
 129:lvgl/src/extra/widgets/tabview/lv_tabview.c ****     if(id >= tabview->tab_cnt) return;
 130:lvgl/src/extra/widgets/tabview/lv_tabview.c ****     if(tabview->tab_pos & LV_DIR_HOR) id *= 2;
 131:lvgl/src/extra/widgets/tabview/lv_tabview.c **** 
 132:lvgl/src/extra/widgets/tabview/lv_tabview.c ****     lv_mem_free((void *)tabview->map[id]);
 133:lvgl/src/extra/widgets/tabview/lv_tabview.c ****     tabview->map[id] = lv_mem_alloc(strlen(new_name) + 1);
 134:lvgl/src/extra/widgets/tabview/lv_tabview.c ****     strcpy((void *)tabview->map[id], new_name);
 135:lvgl/src/extra/widgets/tabview/lv_tabview.c ****     lv_obj_invalidate(obj);
 136:lvgl/src/extra/widgets/tabview/lv_tabview.c **** }
 137:lvgl/src/extra/widgets/tabview/lv_tabview.c **** 
 138:lvgl/src/extra/widgets/tabview/lv_tabview.c **** void lv_tabview_set_act(lv_obj_t * obj, uint32_t id, lv_anim_enable_t anim_en)
 139:lvgl/src/extra/widgets/tabview/lv_tabview.c **** {
 140:lvgl/src/extra/widgets/tabview/lv_tabview.c ****     LV_ASSERT_OBJ(obj, MY_CLASS);
 141:lvgl/src/extra/widgets/tabview/lv_tabview.c ****     if(obj->being_deleted) return;
 142:lvgl/src/extra/widgets/tabview/lv_tabview.c **** 
 143:lvgl/src/extra/widgets/tabview/lv_tabview.c ****     lv_tabview_t * tabview = (lv_tabview_t *)obj;
 144:lvgl/src/extra/widgets/tabview/lv_tabview.c **** 
ARM GAS  /var/folders/21/t9g5rlb91ys800n5npymflf80000gn/T//cckp2I4w.s 			page 4


 145:lvgl/src/extra/widgets/tabview/lv_tabview.c ****     if(id >= tabview->tab_cnt) {
 146:lvgl/src/extra/widgets/tabview/lv_tabview.c ****         id = tabview->tab_cnt - 1;
 147:lvgl/src/extra/widgets/tabview/lv_tabview.c ****     }
 148:lvgl/src/extra/widgets/tabview/lv_tabview.c **** 
 149:lvgl/src/extra/widgets/tabview/lv_tabview.c ****     /*To be sure lv_obj_get_content_width will return valid value*/
 150:lvgl/src/extra/widgets/tabview/lv_tabview.c ****     lv_obj_update_layout(obj);
 151:lvgl/src/extra/widgets/tabview/lv_tabview.c **** 
 152:lvgl/src/extra/widgets/tabview/lv_tabview.c ****     lv_obj_t * cont = lv_tabview_get_content(obj);
 153:lvgl/src/extra/widgets/tabview/lv_tabview.c ****     if(cont == NULL) return;
 154:lvgl/src/extra/widgets/tabview/lv_tabview.c **** 
 155:lvgl/src/extra/widgets/tabview/lv_tabview.c ****     if((tabview->tab_pos & LV_DIR_VER) != 0) {
 156:lvgl/src/extra/widgets/tabview/lv_tabview.c ****         lv_coord_t gap = lv_obj_get_style_pad_column(cont, LV_PART_MAIN);
 157:lvgl/src/extra/widgets/tabview/lv_tabview.c ****         lv_coord_t w = lv_obj_get_content_width(cont);
 158:lvgl/src/extra/widgets/tabview/lv_tabview.c ****         if(lv_obj_get_style_base_dir(obj, LV_PART_MAIN) != LV_BASE_DIR_RTL) {
 159:lvgl/src/extra/widgets/tabview/lv_tabview.c ****             lv_obj_scroll_to_x(cont, id * (gap + w), anim_en);
 160:lvgl/src/extra/widgets/tabview/lv_tabview.c ****         }
 161:lvgl/src/extra/widgets/tabview/lv_tabview.c ****         else {
 162:lvgl/src/extra/widgets/tabview/lv_tabview.c ****             int32_t id_rtl = -(int32_t)id;
 163:lvgl/src/extra/widgets/tabview/lv_tabview.c ****             lv_obj_scroll_to_x(cont, (gap + w) * id_rtl, anim_en);
 164:lvgl/src/extra/widgets/tabview/lv_tabview.c ****         }
 165:lvgl/src/extra/widgets/tabview/lv_tabview.c ****     }
 166:lvgl/src/extra/widgets/tabview/lv_tabview.c ****     else {
 167:lvgl/src/extra/widgets/tabview/lv_tabview.c ****         lv_coord_t gap = lv_obj_get_style_pad_row(cont, LV_PART_MAIN);
 168:lvgl/src/extra/widgets/tabview/lv_tabview.c ****         lv_coord_t h = lv_obj_get_content_height(cont);
 169:lvgl/src/extra/widgets/tabview/lv_tabview.c ****         lv_obj_scroll_to_y(cont, id * (gap + h), anim_en);
 170:lvgl/src/extra/widgets/tabview/lv_tabview.c ****     }
 171:lvgl/src/extra/widgets/tabview/lv_tabview.c **** 
 172:lvgl/src/extra/widgets/tabview/lv_tabview.c ****     lv_obj_t * btns = lv_tabview_get_tab_btns(obj);
 173:lvgl/src/extra/widgets/tabview/lv_tabview.c ****     lv_btnmatrix_set_btn_ctrl(btns, id, LV_BTNMATRIX_CTRL_CHECKED);
 174:lvgl/src/extra/widgets/tabview/lv_tabview.c ****     tabview->tab_cur = id;
 175:lvgl/src/extra/widgets/tabview/lv_tabview.c **** }
 176:lvgl/src/extra/widgets/tabview/lv_tabview.c **** 
 177:lvgl/src/extra/widgets/tabview/lv_tabview.c **** uint16_t lv_tabview_get_tab_act(lv_obj_t * obj)
 178:lvgl/src/extra/widgets/tabview/lv_tabview.c **** {
 179:lvgl/src/extra/widgets/tabview/lv_tabview.c ****     LV_ASSERT_OBJ(obj, MY_CLASS);
 180:lvgl/src/extra/widgets/tabview/lv_tabview.c ****     lv_tabview_t * tabview = (lv_tabview_t *)obj;
 181:lvgl/src/extra/widgets/tabview/lv_tabview.c ****     return tabview->tab_cur;
 182:lvgl/src/extra/widgets/tabview/lv_tabview.c **** }
 183:lvgl/src/extra/widgets/tabview/lv_tabview.c **** 
 184:lvgl/src/extra/widgets/tabview/lv_tabview.c **** lv_obj_t * lv_tabview_get_content(lv_obj_t * tv)
 185:lvgl/src/extra/widgets/tabview/lv_tabview.c **** {
 186:lvgl/src/extra/widgets/tabview/lv_tabview.c ****     return lv_obj_get_child(tv, 1);
 187:lvgl/src/extra/widgets/tabview/lv_tabview.c **** }
 188:lvgl/src/extra/widgets/tabview/lv_tabview.c **** 
 189:lvgl/src/extra/widgets/tabview/lv_tabview.c **** lv_obj_t * lv_tabview_get_tab_btns(lv_obj_t * tv)
 190:lvgl/src/extra/widgets/tabview/lv_tabview.c **** {
 191:lvgl/src/extra/widgets/tabview/lv_tabview.c ****     return lv_obj_get_child(tv, 0);
 192:lvgl/src/extra/widgets/tabview/lv_tabview.c **** }
 193:lvgl/src/extra/widgets/tabview/lv_tabview.c **** 
 194:lvgl/src/extra/widgets/tabview/lv_tabview.c **** /**********************
 195:lvgl/src/extra/widgets/tabview/lv_tabview.c ****  *   STATIC FUNCTIONS
 196:lvgl/src/extra/widgets/tabview/lv_tabview.c ****  **********************/
 197:lvgl/src/extra/widgets/tabview/lv_tabview.c **** 
 198:lvgl/src/extra/widgets/tabview/lv_tabview.c **** static void lv_tabview_constructor(const lv_obj_class_t * class_p, lv_obj_t * obj)
 199:lvgl/src/extra/widgets/tabview/lv_tabview.c **** {
 200:lvgl/src/extra/widgets/tabview/lv_tabview.c ****     LV_UNUSED(class_p);
 201:lvgl/src/extra/widgets/tabview/lv_tabview.c ****     lv_tabview_t * tabview = (lv_tabview_t *)obj;
ARM GAS  /var/folders/21/t9g5rlb91ys800n5npymflf80000gn/T//cckp2I4w.s 			page 5


 202:lvgl/src/extra/widgets/tabview/lv_tabview.c **** 
 203:lvgl/src/extra/widgets/tabview/lv_tabview.c ****     tabview->tab_pos = tabpos_create;
 204:lvgl/src/extra/widgets/tabview/lv_tabview.c **** 
 205:lvgl/src/extra/widgets/tabview/lv_tabview.c ****     switch(tabview->tab_pos) {
 206:lvgl/src/extra/widgets/tabview/lv_tabview.c ****         case LV_DIR_TOP:
 207:lvgl/src/extra/widgets/tabview/lv_tabview.c ****             lv_obj_set_flex_flow(obj, LV_FLEX_FLOW_COLUMN);
 208:lvgl/src/extra/widgets/tabview/lv_tabview.c ****             break;
 209:lvgl/src/extra/widgets/tabview/lv_tabview.c ****         case LV_DIR_BOTTOM:
 210:lvgl/src/extra/widgets/tabview/lv_tabview.c ****             lv_obj_set_flex_flow(obj, LV_FLEX_FLOW_COLUMN_REVERSE);
 211:lvgl/src/extra/widgets/tabview/lv_tabview.c ****             break;
 212:lvgl/src/extra/widgets/tabview/lv_tabview.c ****         case LV_DIR_LEFT:
 213:lvgl/src/extra/widgets/tabview/lv_tabview.c ****             lv_obj_set_flex_flow(obj, LV_FLEX_FLOW_ROW);
 214:lvgl/src/extra/widgets/tabview/lv_tabview.c ****             break;
 215:lvgl/src/extra/widgets/tabview/lv_tabview.c ****         case LV_DIR_RIGHT:
 216:lvgl/src/extra/widgets/tabview/lv_tabview.c ****             lv_obj_set_flex_flow(obj, LV_FLEX_FLOW_ROW_REVERSE);
 217:lvgl/src/extra/widgets/tabview/lv_tabview.c ****             break;
 218:lvgl/src/extra/widgets/tabview/lv_tabview.c ****     }
 219:lvgl/src/extra/widgets/tabview/lv_tabview.c **** 
 220:lvgl/src/extra/widgets/tabview/lv_tabview.c ****     lv_obj_set_size(obj, LV_PCT(100), LV_PCT(100));
 221:lvgl/src/extra/widgets/tabview/lv_tabview.c **** 
 222:lvgl/src/extra/widgets/tabview/lv_tabview.c ****     lv_obj_t * btnm;
 223:lvgl/src/extra/widgets/tabview/lv_tabview.c ****     lv_obj_t * cont;
 224:lvgl/src/extra/widgets/tabview/lv_tabview.c **** 
 225:lvgl/src/extra/widgets/tabview/lv_tabview.c ****     btnm = lv_btnmatrix_create(obj);
 226:lvgl/src/extra/widgets/tabview/lv_tabview.c ****     cont = lv_obj_create(obj);
 227:lvgl/src/extra/widgets/tabview/lv_tabview.c **** 
 228:lvgl/src/extra/widgets/tabview/lv_tabview.c ****     lv_btnmatrix_set_one_checked(btnm, true);
 229:lvgl/src/extra/widgets/tabview/lv_tabview.c ****     tabview->map = lv_mem_alloc(sizeof(const char *));
 230:lvgl/src/extra/widgets/tabview/lv_tabview.c ****     tabview->map[0] = "";
 231:lvgl/src/extra/widgets/tabview/lv_tabview.c ****     lv_btnmatrix_set_map(btnm, (const char **)tabview->map);
 232:lvgl/src/extra/widgets/tabview/lv_tabview.c ****     lv_obj_add_event_cb(btnm, btns_value_changed_event_cb, LV_EVENT_VALUE_CHANGED, NULL);
 233:lvgl/src/extra/widgets/tabview/lv_tabview.c ****     lv_obj_add_flag(btnm, LV_OBJ_FLAG_EVENT_BUBBLE);
 234:lvgl/src/extra/widgets/tabview/lv_tabview.c **** 
 235:lvgl/src/extra/widgets/tabview/lv_tabview.c ****     lv_obj_add_event_cb(cont, cont_scroll_end_event_cb, LV_EVENT_ALL, NULL);
 236:lvgl/src/extra/widgets/tabview/lv_tabview.c ****     lv_obj_set_scrollbar_mode(cont, LV_SCROLLBAR_MODE_OFF);
 237:lvgl/src/extra/widgets/tabview/lv_tabview.c **** 
 238:lvgl/src/extra/widgets/tabview/lv_tabview.c ****     switch(tabview->tab_pos) {
 239:lvgl/src/extra/widgets/tabview/lv_tabview.c ****         case LV_DIR_TOP:
 240:lvgl/src/extra/widgets/tabview/lv_tabview.c ****         case LV_DIR_BOTTOM:
 241:lvgl/src/extra/widgets/tabview/lv_tabview.c ****             lv_obj_set_size(btnm, LV_PCT(100), tabsize_create);
 242:lvgl/src/extra/widgets/tabview/lv_tabview.c ****             lv_obj_set_width(cont, LV_PCT(100));
 243:lvgl/src/extra/widgets/tabview/lv_tabview.c ****             lv_obj_set_flex_grow(cont, 1);
 244:lvgl/src/extra/widgets/tabview/lv_tabview.c ****             break;
 245:lvgl/src/extra/widgets/tabview/lv_tabview.c ****         case LV_DIR_LEFT:
 246:lvgl/src/extra/widgets/tabview/lv_tabview.c ****         case LV_DIR_RIGHT:
 247:lvgl/src/extra/widgets/tabview/lv_tabview.c ****             lv_obj_set_size(btnm, tabsize_create, LV_PCT(100));
 248:lvgl/src/extra/widgets/tabview/lv_tabview.c ****             lv_obj_set_height(cont, LV_PCT(100));
 249:lvgl/src/extra/widgets/tabview/lv_tabview.c ****             lv_obj_set_flex_grow(cont, 1);
 250:lvgl/src/extra/widgets/tabview/lv_tabview.c ****             break;
 251:lvgl/src/extra/widgets/tabview/lv_tabview.c ****     }
 252:lvgl/src/extra/widgets/tabview/lv_tabview.c **** 
 253:lvgl/src/extra/widgets/tabview/lv_tabview.c ****     lv_group_t * g = lv_group_get_default();
 254:lvgl/src/extra/widgets/tabview/lv_tabview.c ****     if(g) lv_group_add_obj(g, btnm);
 255:lvgl/src/extra/widgets/tabview/lv_tabview.c **** 
 256:lvgl/src/extra/widgets/tabview/lv_tabview.c ****     if((tabview->tab_pos & LV_DIR_VER) != 0) {
 257:lvgl/src/extra/widgets/tabview/lv_tabview.c ****         lv_obj_set_flex_flow(cont, LV_FLEX_FLOW_ROW);
 258:lvgl/src/extra/widgets/tabview/lv_tabview.c ****         lv_obj_set_scroll_snap_x(cont, LV_SCROLL_SNAP_CENTER);
ARM GAS  /var/folders/21/t9g5rlb91ys800n5npymflf80000gn/T//cckp2I4w.s 			page 6


 259:lvgl/src/extra/widgets/tabview/lv_tabview.c ****     }
 260:lvgl/src/extra/widgets/tabview/lv_tabview.c ****     else {
 261:lvgl/src/extra/widgets/tabview/lv_tabview.c ****         lv_obj_set_flex_flow(cont, LV_FLEX_FLOW_COLUMN);
 262:lvgl/src/extra/widgets/tabview/lv_tabview.c ****         lv_obj_set_scroll_snap_y(cont, LV_SCROLL_SNAP_CENTER);
 263:lvgl/src/extra/widgets/tabview/lv_tabview.c ****     }
 264:lvgl/src/extra/widgets/tabview/lv_tabview.c ****     lv_obj_add_flag(cont, LV_OBJ_FLAG_SCROLL_ONE);
 265:lvgl/src/extra/widgets/tabview/lv_tabview.c ****     lv_obj_clear_flag(cont, LV_OBJ_FLAG_SCROLL_ON_FOCUS);
 266:lvgl/src/extra/widgets/tabview/lv_tabview.c **** }
 267:lvgl/src/extra/widgets/tabview/lv_tabview.c **** 
 268:lvgl/src/extra/widgets/tabview/lv_tabview.c **** static void lv_tabview_destructor(const lv_obj_class_t * class_p, lv_obj_t * obj)
 269:lvgl/src/extra/widgets/tabview/lv_tabview.c **** {
  29              		.loc 1 269 1 view -0
  30              		.cfi_startproc
  31              		@ args = 0, pretend = 0, frame = 0
  32              		@ frame_needed = 0, uses_anonymous_args = 0
  33              		.loc 1 269 1 is_stmt 0 view .LVU1
  34 0000 38B5     		push	{r3, r4, r5, lr}
  35              	.LCFI0:
  36              		.cfi_def_cfa_offset 16
  37              		.cfi_offset 3, -16
  38              		.cfi_offset 4, -12
  39              		.cfi_offset 5, -8
  40              		.cfi_offset 14, -4
  41 0002 0C46     		mov	r4, r1
 270:lvgl/src/extra/widgets/tabview/lv_tabview.c ****     LV_UNUSED(class_p);
  42              		.loc 1 270 5 is_stmt 1 view .LVU2
 271:lvgl/src/extra/widgets/tabview/lv_tabview.c ****     lv_tabview_t * tabview = (lv_tabview_t *)obj;
  43              		.loc 1 271 5 view .LVU3
  44              	.LVL1:
 272:lvgl/src/extra/widgets/tabview/lv_tabview.c **** 
 273:lvgl/src/extra/widgets/tabview/lv_tabview.c ****     uint32_t i;
  45              		.loc 1 273 5 view .LVU4
 274:lvgl/src/extra/widgets/tabview/lv_tabview.c ****     if(tabview->tab_pos & LV_DIR_VER) {
  46              		.loc 1 274 5 view .LVU5
  47              		.loc 1 274 15 is_stmt 0 view .LVU6
  48 0004 91F82C30 		ldrb	r3, [r1, #44]	@ zero_extendqisi2
  49              		.loc 1 274 7 view .LVU7
  50 0008 13F00C0F 		tst	r3, #12
  51 000c 18D1     		bne	.L8
  52              	.LVL2:
  53              	.L3:
 275:lvgl/src/extra/widgets/tabview/lv_tabview.c ****         for(i = 0; i < tabview->tab_cnt; i++) {
 276:lvgl/src/extra/widgets/tabview/lv_tabview.c ****             lv_mem_free((void *)tabview->map[i]);
 277:lvgl/src/extra/widgets/tabview/lv_tabview.c ****             tabview->map[i] = NULL;
 278:lvgl/src/extra/widgets/tabview/lv_tabview.c ****         }
 279:lvgl/src/extra/widgets/tabview/lv_tabview.c ****     }
 280:lvgl/src/extra/widgets/tabview/lv_tabview.c ****     if(tabview->tab_pos & LV_DIR_HOR) {
  54              		.loc 1 280 5 is_stmt 1 view .LVU8
  55              		.loc 1 280 15 is_stmt 0 view .LVU9
  56 000e 94F82C30 		ldrb	r3, [r4, #44]	@ zero_extendqisi2
  57              		.loc 1 280 7 view .LVU10
  58 0012 13F0030F 		tst	r3, #3
  59 0016 23D1     		bne	.L9
  60              	.L6:
 281:lvgl/src/extra/widgets/tabview/lv_tabview.c ****         for(i = 0; i < tabview->tab_cnt; i++) {
 282:lvgl/src/extra/widgets/tabview/lv_tabview.c ****             lv_mem_free((void *)tabview->map[i * 2]);
 283:lvgl/src/extra/widgets/tabview/lv_tabview.c ****             tabview->map[i * 2] = NULL;
ARM GAS  /var/folders/21/t9g5rlb91ys800n5npymflf80000gn/T//cckp2I4w.s 			page 7


 284:lvgl/src/extra/widgets/tabview/lv_tabview.c ****         }
 285:lvgl/src/extra/widgets/tabview/lv_tabview.c ****     }
 286:lvgl/src/extra/widgets/tabview/lv_tabview.c **** 
 287:lvgl/src/extra/widgets/tabview/lv_tabview.c ****     lv_mem_free(tabview->map);
  61              		.loc 1 287 5 is_stmt 1 view .LVU11
  62 0018 606A     		ldr	r0, [r4, #36]
  63 001a FFF7FEFF 		bl	lv_mem_free
  64              	.LVL3:
 288:lvgl/src/extra/widgets/tabview/lv_tabview.c ****     tabview->map = NULL;
  65              		.loc 1 288 5 view .LVU12
  66              		.loc 1 288 18 is_stmt 0 view .LVU13
  67 001e 0023     		movs	r3, #0
  68 0020 6362     		str	r3, [r4, #36]
 289:lvgl/src/extra/widgets/tabview/lv_tabview.c **** }
  69              		.loc 1 289 1 view .LVU14
  70 0022 38BD     		pop	{r3, r4, r5, pc}
  71              	.LVL4:
  72              	.L4:
 276:lvgl/src/extra/widgets/tabview/lv_tabview.c ****             tabview->map[i] = NULL;
  73              		.loc 1 276 13 is_stmt 1 discriminator 3 view .LVU15
 276:lvgl/src/extra/widgets/tabview/lv_tabview.c ****             tabview->map[i] = NULL;
  74              		.loc 1 276 40 is_stmt 0 discriminator 3 view .LVU16
  75 0024 636A     		ldr	r3, [r4, #36]
 276:lvgl/src/extra/widgets/tabview/lv_tabview.c ****             tabview->map[i] = NULL;
  76              		.loc 1 276 13 discriminator 3 view .LVU17
  77 0026 53F82500 		ldr	r0, [r3, r5, lsl #2]
  78 002a FFF7FEFF 		bl	lv_mem_free
  79              	.LVL5:
 277:lvgl/src/extra/widgets/tabview/lv_tabview.c ****         }
  80              		.loc 1 277 13 is_stmt 1 discriminator 3 view .LVU18
 277:lvgl/src/extra/widgets/tabview/lv_tabview.c ****         }
  81              		.loc 1 277 20 is_stmt 0 discriminator 3 view .LVU19
  82 002e 636A     		ldr	r3, [r4, #36]
 277:lvgl/src/extra/widgets/tabview/lv_tabview.c ****         }
  83              		.loc 1 277 29 discriminator 3 view .LVU20
  84 0030 0022     		movs	r2, #0
  85 0032 43F82520 		str	r2, [r3, r5, lsl #2]
 275:lvgl/src/extra/widgets/tabview/lv_tabview.c ****             lv_mem_free((void *)tabview->map[i]);
  86              		.loc 1 275 43 is_stmt 1 discriminator 3 view .LVU21
  87 0036 0135     		adds	r5, r5, #1
  88              	.LVL6:
  89              	.L2:
 275:lvgl/src/extra/widgets/tabview/lv_tabview.c ****             lv_mem_free((void *)tabview->map[i]);
  90              		.loc 1 275 22 discriminator 1 view .LVU22
 275:lvgl/src/extra/widgets/tabview/lv_tabview.c ****             lv_mem_free((void *)tabview->map[i]);
  91              		.loc 1 275 31 is_stmt 0 discriminator 1 view .LVU23
  92 0038 238D     		ldrh	r3, [r4, #40]
 275:lvgl/src/extra/widgets/tabview/lv_tabview.c ****             lv_mem_free((void *)tabview->map[i]);
  93              		.loc 1 275 22 discriminator 1 view .LVU24
  94 003a AB42     		cmp	r3, r5
  95 003c F2D8     		bhi	.L4
  96 003e E6E7     		b	.L3
  97              	.LVL7:
  98              	.L8:
 275:lvgl/src/extra/widgets/tabview/lv_tabview.c ****             lv_mem_free((void *)tabview->map[i]);
  99              		.loc 1 275 15 view .LVU25
 100 0040 0025     		movs	r5, #0
ARM GAS  /var/folders/21/t9g5rlb91ys800n5npymflf80000gn/T//cckp2I4w.s 			page 8


 101 0042 F9E7     		b	.L2
 102              	.LVL8:
 103              	.L7:
 282:lvgl/src/extra/widgets/tabview/lv_tabview.c ****             tabview->map[i * 2] = NULL;
 104              		.loc 1 282 13 is_stmt 1 discriminator 3 view .LVU26
 282:lvgl/src/extra/widgets/tabview/lv_tabview.c ****             tabview->map[i * 2] = NULL;
 105              		.loc 1 282 40 is_stmt 0 discriminator 3 view .LVU27
 106 0044 636A     		ldr	r3, [r4, #36]
 282:lvgl/src/extra/widgets/tabview/lv_tabview.c ****             tabview->map[i * 2] = NULL;
 107              		.loc 1 282 13 discriminator 3 view .LVU28
 108 0046 53F83500 		ldr	r0, [r3, r5, lsl #3]
 109 004a FFF7FEFF 		bl	lv_mem_free
 110              	.LVL9:
 283:lvgl/src/extra/widgets/tabview/lv_tabview.c ****         }
 111              		.loc 1 283 13 is_stmt 1 discriminator 3 view .LVU29
 283:lvgl/src/extra/widgets/tabview/lv_tabview.c ****         }
 112              		.loc 1 283 20 is_stmt 0 discriminator 3 view .LVU30
 113 004e 636A     		ldr	r3, [r4, #36]
 283:lvgl/src/extra/widgets/tabview/lv_tabview.c ****         }
 114              		.loc 1 283 33 discriminator 3 view .LVU31
 115 0050 0022     		movs	r2, #0
 116 0052 43F83520 		str	r2, [r3, r5, lsl #3]
 281:lvgl/src/extra/widgets/tabview/lv_tabview.c ****             lv_mem_free((void *)tabview->map[i * 2]);
 117              		.loc 1 281 43 is_stmt 1 discriminator 3 view .LVU32
 118 0056 0135     		adds	r5, r5, #1
 119              	.LVL10:
 120              	.L5:
 281:lvgl/src/extra/widgets/tabview/lv_tabview.c ****             lv_mem_free((void *)tabview->map[i * 2]);
 121              		.loc 1 281 22 discriminator 1 view .LVU33
 281:lvgl/src/extra/widgets/tabview/lv_tabview.c ****             lv_mem_free((void *)tabview->map[i * 2]);
 122              		.loc 1 281 31 is_stmt 0 discriminator 1 view .LVU34
 123 0058 238D     		ldrh	r3, [r4, #40]
 281:lvgl/src/extra/widgets/tabview/lv_tabview.c ****             lv_mem_free((void *)tabview->map[i * 2]);
 124              		.loc 1 281 22 discriminator 1 view .LVU35
 125 005a AB42     		cmp	r3, r5
 126 005c F2D8     		bhi	.L7
 127 005e DBE7     		b	.L6
 128              	.LVL11:
 129              	.L9:
 281:lvgl/src/extra/widgets/tabview/lv_tabview.c ****             lv_mem_free((void *)tabview->map[i * 2]);
 130              		.loc 1 281 15 view .LVU36
 131 0060 0025     		movs	r5, #0
 132 0062 F9E7     		b	.L5
 133              		.cfi_endproc
 134              	.LFE212:
 136              		.section	.rodata.lv_tabview_constructor.str1.4,"aMS",%progbits,1
 137              		.align	2
 138              	.LC0:
 139 0000 00       		.ascii	"\000"
 140              		.section	.text.lv_tabview_constructor,"ax",%progbits
 141              		.align	1
 142              		.syntax unified
 143              		.thumb
 144              		.thumb_func
 146              	lv_tabview_constructor:
 147              	.LVL12:
 148              	.LFB211:
ARM GAS  /var/folders/21/t9g5rlb91ys800n5npymflf80000gn/T//cckp2I4w.s 			page 9


 199:lvgl/src/extra/widgets/tabview/lv_tabview.c ****     LV_UNUSED(class_p);
 149              		.loc 1 199 1 is_stmt 1 view -0
 150              		.cfi_startproc
 151              		@ args = 0, pretend = 0, frame = 0
 152              		@ frame_needed = 0, uses_anonymous_args = 0
 199:lvgl/src/extra/widgets/tabview/lv_tabview.c ****     LV_UNUSED(class_p);
 153              		.loc 1 199 1 is_stmt 0 view .LVU38
 154 0000 70B5     		push	{r4, r5, r6, lr}
 155              	.LCFI1:
 156              		.cfi_def_cfa_offset 16
 157              		.cfi_offset 4, -16
 158              		.cfi_offset 5, -12
 159              		.cfi_offset 6, -8
 160              		.cfi_offset 14, -4
 161 0002 0C46     		mov	r4, r1
 200:lvgl/src/extra/widgets/tabview/lv_tabview.c ****     lv_tabview_t * tabview = (lv_tabview_t *)obj;
 162              		.loc 1 200 5 is_stmt 1 view .LVU39
 201:lvgl/src/extra/widgets/tabview/lv_tabview.c **** 
 163              		.loc 1 201 5 view .LVU40
 164              	.LVL13:
 203:lvgl/src/extra/widgets/tabview/lv_tabview.c **** 
 165              		.loc 1 203 5 view .LVU41
 203:lvgl/src/extra/widgets/tabview/lv_tabview.c **** 
 166              		.loc 1 203 22 is_stmt 0 view .LVU42
 167 0004 524B     		ldr	r3, .L28
 168 0006 1B78     		ldrb	r3, [r3]	@ zero_extendqisi2
 169 0008 81F82C30 		strb	r3, [r1, #44]
 205:lvgl/src/extra/widgets/tabview/lv_tabview.c ****         case LV_DIR_TOP:
 170              		.loc 1 205 5 is_stmt 1 view .LVU43
 171 000c 013B     		subs	r3, r3, #1
 172 000e 072B     		cmp	r3, #7
 173 0010 09D8     		bhi	.L12
 174 0012 DFE803F0 		tbb	[pc, r3]
 175              	.L14:
 176 0016 59       		.byte	(.L17-.L14)/2
 177 0017 5E       		.byte	(.L16-.L14)/2
 178 0018 08       		.byte	(.L12-.L14)/2
 179 0019 04       		.byte	(.L15-.L14)/2
 180 001a 08       		.byte	(.L12-.L14)/2
 181 001b 08       		.byte	(.L12-.L14)/2
 182 001c 08       		.byte	(.L12-.L14)/2
 183 001d 54       		.byte	(.L13-.L14)/2
 184              		.p2align 1
 185              	.L15:
 207:lvgl/src/extra/widgets/tabview/lv_tabview.c ****             break;
 186              		.loc 1 207 13 view .LVU44
 187 001e 0121     		movs	r1, #1
 188              	.LVL14:
 207:lvgl/src/extra/widgets/tabview/lv_tabview.c ****             break;
 189              		.loc 1 207 13 is_stmt 0 view .LVU45
 190 0020 2046     		mov	r0, r4
 191              	.LVL15:
 207:lvgl/src/extra/widgets/tabview/lv_tabview.c ****             break;
 192              		.loc 1 207 13 view .LVU46
 193 0022 FFF7FEFF 		bl	lv_obj_set_flex_flow
 194              	.LVL16:
 208:lvgl/src/extra/widgets/tabview/lv_tabview.c ****         case LV_DIR_BOTTOM:
ARM GAS  /var/folders/21/t9g5rlb91ys800n5npymflf80000gn/T//cckp2I4w.s 			page 10


 195              		.loc 1 208 13 is_stmt 1 view .LVU47
 196              	.L12:
 220:lvgl/src/extra/widgets/tabview/lv_tabview.c **** 
 197              		.loc 1 220 5 view .LVU48
 198 0026 42F26402 		movw	r2, #8292
 199 002a 1146     		mov	r1, r2
 200 002c 2046     		mov	r0, r4
 201 002e FFF7FEFF 		bl	lv_obj_set_size
 202              	.LVL17:
 222:lvgl/src/extra/widgets/tabview/lv_tabview.c ****     lv_obj_t * cont;
 203              		.loc 1 222 5 view .LVU49
 223:lvgl/src/extra/widgets/tabview/lv_tabview.c **** 
 204              		.loc 1 223 5 view .LVU50
 225:lvgl/src/extra/widgets/tabview/lv_tabview.c ****     cont = lv_obj_create(obj);
 205              		.loc 1 225 5 view .LVU51
 225:lvgl/src/extra/widgets/tabview/lv_tabview.c ****     cont = lv_obj_create(obj);
 206              		.loc 1 225 12 is_stmt 0 view .LVU52
 207 0032 2046     		mov	r0, r4
 208 0034 FFF7FEFF 		bl	lv_btnmatrix_create
 209              	.LVL18:
 210 0038 0646     		mov	r6, r0
 211              	.LVL19:
 226:lvgl/src/extra/widgets/tabview/lv_tabview.c **** 
 212              		.loc 1 226 5 is_stmt 1 view .LVU53
 226:lvgl/src/extra/widgets/tabview/lv_tabview.c **** 
 213              		.loc 1 226 12 is_stmt 0 view .LVU54
 214 003a 2046     		mov	r0, r4
 215              	.LVL20:
 226:lvgl/src/extra/widgets/tabview/lv_tabview.c **** 
 216              		.loc 1 226 12 view .LVU55
 217 003c FFF7FEFF 		bl	lv_obj_create
 218              	.LVL21:
 219 0040 0546     		mov	r5, r0
 220              	.LVL22:
 228:lvgl/src/extra/widgets/tabview/lv_tabview.c ****     tabview->map = lv_mem_alloc(sizeof(const char *));
 221              		.loc 1 228 5 is_stmt 1 view .LVU56
 222 0042 0121     		movs	r1, #1
 223 0044 3046     		mov	r0, r6
 224              	.LVL23:
 228:lvgl/src/extra/widgets/tabview/lv_tabview.c ****     tabview->map = lv_mem_alloc(sizeof(const char *));
 225              		.loc 1 228 5 is_stmt 0 view .LVU57
 226 0046 FFF7FEFF 		bl	lv_btnmatrix_set_one_checked
 227              	.LVL24:
 229:lvgl/src/extra/widgets/tabview/lv_tabview.c ****     tabview->map[0] = "";
 228              		.loc 1 229 5 is_stmt 1 view .LVU58
 229:lvgl/src/extra/widgets/tabview/lv_tabview.c ****     tabview->map[0] = "";
 229              		.loc 1 229 20 is_stmt 0 view .LVU59
 230 004a 0420     		movs	r0, #4
 231 004c FFF7FEFF 		bl	lv_mem_alloc
 232              	.LVL25:
 229:lvgl/src/extra/widgets/tabview/lv_tabview.c ****     tabview->map[0] = "";
 233              		.loc 1 229 18 view .LVU60
 234 0050 6062     		str	r0, [r4, #36]
 230:lvgl/src/extra/widgets/tabview/lv_tabview.c ****     lv_btnmatrix_set_map(btnm, (const char **)tabview->map);
 235              		.loc 1 230 5 is_stmt 1 view .LVU61
 230:lvgl/src/extra/widgets/tabview/lv_tabview.c ****     lv_btnmatrix_set_map(btnm, (const char **)tabview->map);
 236              		.loc 1 230 21 is_stmt 0 view .LVU62
ARM GAS  /var/folders/21/t9g5rlb91ys800n5npymflf80000gn/T//cckp2I4w.s 			page 11


 237 0052 404B     		ldr	r3, .L28+4
 238 0054 0360     		str	r3, [r0]
 231:lvgl/src/extra/widgets/tabview/lv_tabview.c ****     lv_obj_add_event_cb(btnm, btns_value_changed_event_cb, LV_EVENT_VALUE_CHANGED, NULL);
 239              		.loc 1 231 5 is_stmt 1 view .LVU63
 240 0056 616A     		ldr	r1, [r4, #36]
 241 0058 3046     		mov	r0, r6
 242 005a FFF7FEFF 		bl	lv_btnmatrix_set_map
 243              	.LVL26:
 232:lvgl/src/extra/widgets/tabview/lv_tabview.c ****     lv_obj_add_flag(btnm, LV_OBJ_FLAG_EVENT_BUBBLE);
 244              		.loc 1 232 5 view .LVU64
 245 005e 0023     		movs	r3, #0
 246 0060 1C22     		movs	r2, #28
 247 0062 3D49     		ldr	r1, .L28+8
 248 0064 3046     		mov	r0, r6
 249 0066 FFF7FEFF 		bl	lv_obj_add_event_cb
 250              	.LVL27:
 233:lvgl/src/extra/widgets/tabview/lv_tabview.c **** 
 251              		.loc 1 233 5 view .LVU65
 252 006a 4FF48041 		mov	r1, #16384
 253 006e 3046     		mov	r0, r6
 254 0070 FFF7FEFF 		bl	lv_obj_add_flag
 255              	.LVL28:
 235:lvgl/src/extra/widgets/tabview/lv_tabview.c ****     lv_obj_set_scrollbar_mode(cont, LV_SCROLLBAR_MODE_OFF);
 256              		.loc 1 235 5 view .LVU66
 257 0074 0023     		movs	r3, #0
 258 0076 1A46     		mov	r2, r3
 259 0078 3849     		ldr	r1, .L28+12
 260 007a 2846     		mov	r0, r5
 261 007c FFF7FEFF 		bl	lv_obj_add_event_cb
 262              	.LVL29:
 236:lvgl/src/extra/widgets/tabview/lv_tabview.c **** 
 263              		.loc 1 236 5 view .LVU67
 264 0080 0021     		movs	r1, #0
 265 0082 2846     		mov	r0, r5
 266 0084 FFF7FEFF 		bl	lv_obj_set_scrollbar_mode
 267              	.LVL30:
 238:lvgl/src/extra/widgets/tabview/lv_tabview.c ****         case LV_DIR_TOP:
 268              		.loc 1 238 5 view .LVU68
 238:lvgl/src/extra/widgets/tabview/lv_tabview.c ****         case LV_DIR_TOP:
 269              		.loc 1 238 19 is_stmt 0 view .LVU69
 270 0088 94F82C30 		ldrb	r3, [r4, #44]	@ zero_extendqisi2
 238:lvgl/src/extra/widgets/tabview/lv_tabview.c ****         case LV_DIR_TOP:
 271              		.loc 1 238 5 view .LVU70
 272 008c 042B     		cmp	r3, #4
 273 008e 27D0     		beq	.L18
 274 0090 24D8     		bhi	.L19
 275 0092 013B     		subs	r3, r3, #1
 276 0094 DBB2     		uxtb	r3, r3
 277 0096 012B     		cmp	r3, #1
 278 0098 33D8     		bhi	.L20
 247:lvgl/src/extra/widgets/tabview/lv_tabview.c ****             lv_obj_set_height(cont, LV_PCT(100));
 279              		.loc 1 247 13 is_stmt 1 view .LVU71
 280 009a 42F26402 		movw	r2, #8292
 281 009e 304B     		ldr	r3, .L28+16
 282 00a0 B3F90010 		ldrsh	r1, [r3]
 283 00a4 3046     		mov	r0, r6
 284 00a6 FFF7FEFF 		bl	lv_obj_set_size
ARM GAS  /var/folders/21/t9g5rlb91ys800n5npymflf80000gn/T//cckp2I4w.s 			page 12


 285              	.LVL31:
 248:lvgl/src/extra/widgets/tabview/lv_tabview.c ****             lv_obj_set_flex_grow(cont, 1);
 286              		.loc 1 248 13 view .LVU72
 287 00aa 42F26401 		movw	r1, #8292
 288 00ae 2846     		mov	r0, r5
 289 00b0 FFF7FEFF 		bl	lv_obj_set_height
 290              	.LVL32:
 249:lvgl/src/extra/widgets/tabview/lv_tabview.c ****             break;
 291              		.loc 1 249 13 view .LVU73
 292 00b4 0121     		movs	r1, #1
 293 00b6 2846     		mov	r0, r5
 294 00b8 FFF7FEFF 		bl	lv_obj_set_flex_grow
 295              	.LVL33:
 250:lvgl/src/extra/widgets/tabview/lv_tabview.c ****     }
 296              		.loc 1 250 13 view .LVU74
 297 00bc 21E0     		b	.L20
 298              	.LVL34:
 299              	.L13:
 210:lvgl/src/extra/widgets/tabview/lv_tabview.c ****             break;
 300              		.loc 1 210 13 view .LVU75
 301 00be 0921     		movs	r1, #9
 302              	.LVL35:
 210:lvgl/src/extra/widgets/tabview/lv_tabview.c ****             break;
 303              		.loc 1 210 13 is_stmt 0 view .LVU76
 304 00c0 2046     		mov	r0, r4
 305              	.LVL36:
 210:lvgl/src/extra/widgets/tabview/lv_tabview.c ****             break;
 306              		.loc 1 210 13 view .LVU77
 307 00c2 FFF7FEFF 		bl	lv_obj_set_flex_flow
 308              	.LVL37:
 211:lvgl/src/extra/widgets/tabview/lv_tabview.c ****         case LV_DIR_LEFT:
 309              		.loc 1 211 13 is_stmt 1 view .LVU78
 310 00c6 AEE7     		b	.L12
 311              	.LVL38:
 312              	.L17:
 213:lvgl/src/extra/widgets/tabview/lv_tabview.c ****             break;
 313              		.loc 1 213 13 view .LVU79
 314 00c8 0021     		movs	r1, #0
 315              	.LVL39:
 213:lvgl/src/extra/widgets/tabview/lv_tabview.c ****             break;
 316              		.loc 1 213 13 is_stmt 0 view .LVU80
 317 00ca 2046     		mov	r0, r4
 318              	.LVL40:
 213:lvgl/src/extra/widgets/tabview/lv_tabview.c ****             break;
 319              		.loc 1 213 13 view .LVU81
 320 00cc FFF7FEFF 		bl	lv_obj_set_flex_flow
 321              	.LVL41:
 214:lvgl/src/extra/widgets/tabview/lv_tabview.c ****         case LV_DIR_RIGHT:
 322              		.loc 1 214 13 is_stmt 1 view .LVU82
 323 00d0 A9E7     		b	.L12
 324              	.LVL42:
 325              	.L16:
 216:lvgl/src/extra/widgets/tabview/lv_tabview.c ****             break;
 326              		.loc 1 216 13 view .LVU83
 327 00d2 0821     		movs	r1, #8
 328              	.LVL43:
 216:lvgl/src/extra/widgets/tabview/lv_tabview.c ****             break;
ARM GAS  /var/folders/21/t9g5rlb91ys800n5npymflf80000gn/T//cckp2I4w.s 			page 13


 329              		.loc 1 216 13 is_stmt 0 view .LVU84
 330 00d4 2046     		mov	r0, r4
 331              	.LVL44:
 216:lvgl/src/extra/widgets/tabview/lv_tabview.c ****             break;
 332              		.loc 1 216 13 view .LVU85
 333 00d6 FFF7FEFF 		bl	lv_obj_set_flex_flow
 334              	.LVL45:
 217:lvgl/src/extra/widgets/tabview/lv_tabview.c ****     }
 335              		.loc 1 217 13 is_stmt 1 view .LVU86
 336 00da A4E7     		b	.L12
 337              	.LVL46:
 338              	.L19:
 238:lvgl/src/extra/widgets/tabview/lv_tabview.c ****         case LV_DIR_TOP:
 339              		.loc 1 238 5 is_stmt 0 view .LVU87
 340 00dc 082B     		cmp	r3, #8
 341 00de 10D1     		bne	.L20
 342              	.L18:
 241:lvgl/src/extra/widgets/tabview/lv_tabview.c ****             lv_obj_set_width(cont, LV_PCT(100));
 343              		.loc 1 241 13 is_stmt 1 view .LVU88
 344 00e0 1F4B     		ldr	r3, .L28+16
 345 00e2 B3F90020 		ldrsh	r2, [r3]
 346 00e6 42F26401 		movw	r1, #8292
 347 00ea 3046     		mov	r0, r6
 348 00ec FFF7FEFF 		bl	lv_obj_set_size
 349              	.LVL47:
 242:lvgl/src/extra/widgets/tabview/lv_tabview.c ****             lv_obj_set_flex_grow(cont, 1);
 350              		.loc 1 242 13 view .LVU89
 351 00f0 42F26401 		movw	r1, #8292
 352 00f4 2846     		mov	r0, r5
 353 00f6 FFF7FEFF 		bl	lv_obj_set_width
 354              	.LVL48:
 243:lvgl/src/extra/widgets/tabview/lv_tabview.c ****             break;
 355              		.loc 1 243 13 view .LVU90
 356 00fa 0121     		movs	r1, #1
 357 00fc 2846     		mov	r0, r5
 358 00fe FFF7FEFF 		bl	lv_obj_set_flex_grow
 359              	.LVL49:
 244:lvgl/src/extra/widgets/tabview/lv_tabview.c ****         case LV_DIR_LEFT:
 360              		.loc 1 244 13 view .LVU91
 361              	.L20:
 253:lvgl/src/extra/widgets/tabview/lv_tabview.c ****     if(g) lv_group_add_obj(g, btnm);
 362              		.loc 1 253 5 view .LVU92
 253:lvgl/src/extra/widgets/tabview/lv_tabview.c ****     if(g) lv_group_add_obj(g, btnm);
 363              		.loc 1 253 22 is_stmt 0 view .LVU93
 364 0102 FFF7FEFF 		bl	lv_group_get_default
 365              	.LVL50:
 254:lvgl/src/extra/widgets/tabview/lv_tabview.c **** 
 366              		.loc 1 254 5 is_stmt 1 view .LVU94
 254:lvgl/src/extra/widgets/tabview/lv_tabview.c **** 
 367              		.loc 1 254 7 is_stmt 0 view .LVU95
 368 0106 10B1     		cbz	r0, .L22
 254:lvgl/src/extra/widgets/tabview/lv_tabview.c **** 
 369              		.loc 1 254 11 is_stmt 1 discriminator 1 view .LVU96
 370 0108 3146     		mov	r1, r6
 371 010a FFF7FEFF 		bl	lv_group_add_obj
 372              	.LVL51:
 373              	.L22:
ARM GAS  /var/folders/21/t9g5rlb91ys800n5npymflf80000gn/T//cckp2I4w.s 			page 14


 256:lvgl/src/extra/widgets/tabview/lv_tabview.c ****         lv_obj_set_flex_flow(cont, LV_FLEX_FLOW_ROW);
 374              		.loc 1 256 5 view .LVU97
 256:lvgl/src/extra/widgets/tabview/lv_tabview.c ****         lv_obj_set_flex_flow(cont, LV_FLEX_FLOW_ROW);
 375              		.loc 1 256 16 is_stmt 0 view .LVU98
 376 010e 94F82C30 		ldrb	r3, [r4, #44]	@ zero_extendqisi2
 256:lvgl/src/extra/widgets/tabview/lv_tabview.c ****         lv_obj_set_flex_flow(cont, LV_FLEX_FLOW_ROW);
 377              		.loc 1 256 7 view .LVU99
 378 0112 13F00C0F 		tst	r3, #12
 379 0116 11D0     		beq	.L23
 257:lvgl/src/extra/widgets/tabview/lv_tabview.c ****         lv_obj_set_scroll_snap_x(cont, LV_SCROLL_SNAP_CENTER);
 380              		.loc 1 257 9 is_stmt 1 view .LVU100
 381 0118 0021     		movs	r1, #0
 382 011a 2846     		mov	r0, r5
 383 011c FFF7FEFF 		bl	lv_obj_set_flex_flow
 384              	.LVL52:
 258:lvgl/src/extra/widgets/tabview/lv_tabview.c ****     }
 385              		.loc 1 258 9 view .LVU101
 386 0120 0321     		movs	r1, #3
 387 0122 2846     		mov	r0, r5
 388 0124 FFF7FEFF 		bl	lv_obj_set_scroll_snap_x
 389              	.LVL53:
 390              	.L24:
 264:lvgl/src/extra/widgets/tabview/lv_tabview.c ****     lv_obj_clear_flag(cont, LV_OBJ_FLAG_SCROLL_ON_FOCUS);
 391              		.loc 1 264 5 view .LVU102
 392 0128 8021     		movs	r1, #128
 393 012a 2846     		mov	r0, r5
 394 012c FFF7FEFF 		bl	lv_obj_add_flag
 395              	.LVL54:
 265:lvgl/src/extra/widgets/tabview/lv_tabview.c **** }
 396              		.loc 1 265 5 view .LVU103
 397 0130 4FF48061 		mov	r1, #1024
 398 0134 2846     		mov	r0, r5
 399 0136 FFF7FEFF 		bl	lv_obj_clear_flag
 400              	.LVL55:
 266:lvgl/src/extra/widgets/tabview/lv_tabview.c **** 
 401              		.loc 1 266 1 is_stmt 0 view .LVU104
 402 013a 70BD     		pop	{r4, r5, r6, pc}
 403              	.LVL56:
 404              	.L23:
 261:lvgl/src/extra/widgets/tabview/lv_tabview.c ****         lv_obj_set_scroll_snap_y(cont, LV_SCROLL_SNAP_CENTER);
 405              		.loc 1 261 9 is_stmt 1 view .LVU105
 406 013c 0121     		movs	r1, #1
 407 013e 2846     		mov	r0, r5
 408 0140 FFF7FEFF 		bl	lv_obj_set_flex_flow
 409              	.LVL57:
 262:lvgl/src/extra/widgets/tabview/lv_tabview.c ****     }
 410              		.loc 1 262 9 view .LVU106
 411 0144 0321     		movs	r1, #3
 412 0146 2846     		mov	r0, r5
 413 0148 FFF7FEFF 		bl	lv_obj_set_scroll_snap_y
 414              	.LVL58:
 415 014c ECE7     		b	.L24
 416              	.L29:
 417 014e 00BF     		.align	2
 418              	.L28:
 419 0150 00000000 		.word	tabpos_create
 420 0154 00000000 		.word	.LC0
ARM GAS  /var/folders/21/t9g5rlb91ys800n5npymflf80000gn/T//cckp2I4w.s 			page 15


 421 0158 00000000 		.word	btns_value_changed_event_cb
 422 015c 00000000 		.word	cont_scroll_end_event_cb
 423 0160 00000000 		.word	tabsize_create
 424              		.cfi_endproc
 425              	.LFE211:
 427              		.section	.text.lv_tabview_create,"ax",%progbits
 428              		.align	1
 429              		.global	lv_tabview_create
 430              		.syntax unified
 431              		.thumb
 432              		.thumb_func
 434              	lv_tabview_create:
 435              	.LVL59:
 436              	.LFB204:
  57:lvgl/src/extra/widgets/tabview/lv_tabview.c ****     LV_LOG_INFO("begin");
 437              		.loc 1 57 1 view -0
 438              		.cfi_startproc
 439              		@ args = 0, pretend = 0, frame = 0
 440              		@ frame_needed = 0, uses_anonymous_args = 0
  57:lvgl/src/extra/widgets/tabview/lv_tabview.c ****     LV_LOG_INFO("begin");
 441              		.loc 1 57 1 is_stmt 0 view .LVU108
 442 0000 10B5     		push	{r4, lr}
 443              	.LCFI2:
 444              		.cfi_def_cfa_offset 8
 445              		.cfi_offset 4, -8
 446              		.cfi_offset 14, -4
  58:lvgl/src/extra/widgets/tabview/lv_tabview.c ****     tabpos_create = tab_pos;
 447              		.loc 1 58 5 is_stmt 1 view .LVU109
  58:lvgl/src/extra/widgets/tabview/lv_tabview.c ****     tabpos_create = tab_pos;
 448              		.loc 1 58 5 view .LVU110
  58:lvgl/src/extra/widgets/tabview/lv_tabview.c ****     tabpos_create = tab_pos;
 449              		.loc 1 58 5 view .LVU111
  59:lvgl/src/extra/widgets/tabview/lv_tabview.c ****     tabsize_create = tab_size;
 450              		.loc 1 59 5 view .LVU112
  59:lvgl/src/extra/widgets/tabview/lv_tabview.c ****     tabsize_create = tab_size;
 451              		.loc 1 59 19 is_stmt 0 view .LVU113
 452 0002 064B     		ldr	r3, .L32
 453 0004 1970     		strb	r1, [r3]
  60:lvgl/src/extra/widgets/tabview/lv_tabview.c **** 
 454              		.loc 1 60 5 is_stmt 1 view .LVU114
  60:lvgl/src/extra/widgets/tabview/lv_tabview.c **** 
 455              		.loc 1 60 20 is_stmt 0 view .LVU115
 456 0006 064B     		ldr	r3, .L32+4
 457 0008 1A80     		strh	r2, [r3]	@ movhi
  62:lvgl/src/extra/widgets/tabview/lv_tabview.c ****     lv_obj_class_init_obj(obj);
 458              		.loc 1 62 5 is_stmt 1 view .LVU116
  62:lvgl/src/extra/widgets/tabview/lv_tabview.c ****     lv_obj_class_init_obj(obj);
 459              		.loc 1 62 22 is_stmt 0 view .LVU117
 460 000a 0146     		mov	r1, r0
 461              	.LVL60:
  62:lvgl/src/extra/widgets/tabview/lv_tabview.c ****     lv_obj_class_init_obj(obj);
 462              		.loc 1 62 22 view .LVU118
 463 000c 0548     		ldr	r0, .L32+8
 464              	.LVL61:
  62:lvgl/src/extra/widgets/tabview/lv_tabview.c ****     lv_obj_class_init_obj(obj);
 465              		.loc 1 62 22 view .LVU119
 466 000e FFF7FEFF 		bl	lv_obj_class_create_obj
ARM GAS  /var/folders/21/t9g5rlb91ys800n5npymflf80000gn/T//cckp2I4w.s 			page 16


 467              	.LVL62:
  62:lvgl/src/extra/widgets/tabview/lv_tabview.c ****     lv_obj_class_init_obj(obj);
 468              		.loc 1 62 22 view .LVU120
 469 0012 0446     		mov	r4, r0
 470              	.LVL63:
  63:lvgl/src/extra/widgets/tabview/lv_tabview.c ****     return obj;
 471              		.loc 1 63 5 is_stmt 1 view .LVU121
 472 0014 FFF7FEFF 		bl	lv_obj_class_init_obj
 473              	.LVL64:
  64:lvgl/src/extra/widgets/tabview/lv_tabview.c **** }
 474              		.loc 1 64 5 view .LVU122
  65:lvgl/src/extra/widgets/tabview/lv_tabview.c **** 
 475              		.loc 1 65 1 is_stmt 0 view .LVU123
 476 0018 2046     		mov	r0, r4
 477 001a 10BD     		pop	{r4, pc}
 478              	.LVL65:
 479              	.L33:
  65:lvgl/src/extra/widgets/tabview/lv_tabview.c **** 
 480              		.loc 1 65 1 view .LVU124
 481              		.align	2
 482              	.L32:
 483 001c 00000000 		.word	tabpos_create
 484 0020 00000000 		.word	tabsize_create
 485 0024 00000000 		.word	lv_tabview_class
 486              		.cfi_endproc
 487              	.LFE204:
 489              		.section	.text.lv_tabview_rename_tab,"ax",%progbits
 490              		.align	1
 491              		.global	lv_tabview_rename_tab
 492              		.syntax unified
 493              		.thumb
 494              		.thumb_func
 496              	lv_tabview_rename_tab:
 497              	.LVL66:
 498              	.LFB206:
 125:lvgl/src/extra/widgets/tabview/lv_tabview.c ****     LV_ASSERT_OBJ(obj, MY_CLASS);
 499              		.loc 1 125 1 is_stmt 1 view -0
 500              		.cfi_startproc
 501              		@ args = 0, pretend = 0, frame = 0
 502              		@ frame_needed = 0, uses_anonymous_args = 0
 125:lvgl/src/extra/widgets/tabview/lv_tabview.c ****     LV_ASSERT_OBJ(obj, MY_CLASS);
 503              		.loc 1 125 1 is_stmt 0 view .LVU126
 504 0000 F8B5     		push	{r3, r4, r5, r6, r7, lr}
 505              	.LCFI3:
 506              		.cfi_def_cfa_offset 24
 507              		.cfi_offset 3, -24
 508              		.cfi_offset 4, -20
 509              		.cfi_offset 5, -16
 510              		.cfi_offset 6, -12
 511              		.cfi_offset 7, -8
 512              		.cfi_offset 14, -4
 126:lvgl/src/extra/widgets/tabview/lv_tabview.c ****     lv_tabview_t * tabview = (lv_tabview_t *)obj;
 513              		.loc 1 126 5 is_stmt 1 view .LVU127
 126:lvgl/src/extra/widgets/tabview/lv_tabview.c ****     lv_tabview_t * tabview = (lv_tabview_t *)obj;
 514              		.loc 1 126 5 view .LVU128
 126:lvgl/src/extra/widgets/tabview/lv_tabview.c ****     lv_tabview_t * tabview = (lv_tabview_t *)obj;
 515              		.loc 1 126 5 view .LVU129
ARM GAS  /var/folders/21/t9g5rlb91ys800n5npymflf80000gn/T//cckp2I4w.s 			page 17


 127:lvgl/src/extra/widgets/tabview/lv_tabview.c **** 
 516              		.loc 1 127 5 view .LVU130
 517              	.LVL67:
 129:lvgl/src/extra/widgets/tabview/lv_tabview.c ****     if(tabview->tab_pos & LV_DIR_HOR) id *= 2;
 518              		.loc 1 129 5 view .LVU131
 129:lvgl/src/extra/widgets/tabview/lv_tabview.c ****     if(tabview->tab_pos & LV_DIR_HOR) id *= 2;
 519              		.loc 1 129 21 is_stmt 0 view .LVU132
 520 0002 038D     		ldrh	r3, [r0, #40]
 129:lvgl/src/extra/widgets/tabview/lv_tabview.c ****     if(tabview->tab_pos & LV_DIR_HOR) id *= 2;
 521              		.loc 1 129 7 view .LVU133
 522 0004 8B42     		cmp	r3, r1
 523 0006 1FD9     		bls	.L34
 524 0008 0446     		mov	r4, r0
 525 000a 0D46     		mov	r5, r1
 526 000c 1646     		mov	r6, r2
 130:lvgl/src/extra/widgets/tabview/lv_tabview.c **** 
 527              		.loc 1 130 5 is_stmt 1 view .LVU134
 130:lvgl/src/extra/widgets/tabview/lv_tabview.c **** 
 528              		.loc 1 130 15 is_stmt 0 view .LVU135
 529 000e 90F82C30 		ldrb	r3, [r0, #44]	@ zero_extendqisi2
 130:lvgl/src/extra/widgets/tabview/lv_tabview.c **** 
 530              		.loc 1 130 7 view .LVU136
 531 0012 13F0030F 		tst	r3, #3
 532 0016 00D0     		beq	.L36
 130:lvgl/src/extra/widgets/tabview/lv_tabview.c **** 
 533              		.loc 1 130 39 is_stmt 1 discriminator 1 view .LVU137
 130:lvgl/src/extra/widgets/tabview/lv_tabview.c **** 
 534              		.loc 1 130 42 is_stmt 0 discriminator 1 view .LVU138
 535 0018 4D00     		lsls	r5, r1, #1
 536              	.LVL68:
 537              	.L36:
 132:lvgl/src/extra/widgets/tabview/lv_tabview.c ****     tabview->map[id] = lv_mem_alloc(strlen(new_name) + 1);
 538              		.loc 1 132 5 is_stmt 1 view .LVU139
 132:lvgl/src/extra/widgets/tabview/lv_tabview.c ****     tabview->map[id] = lv_mem_alloc(strlen(new_name) + 1);
 539              		.loc 1 132 32 is_stmt 0 view .LVU140
 540 001a 636A     		ldr	r3, [r4, #36]
 132:lvgl/src/extra/widgets/tabview/lv_tabview.c ****     tabview->map[id] = lv_mem_alloc(strlen(new_name) + 1);
 541              		.loc 1 132 5 view .LVU141
 542 001c 53F82500 		ldr	r0, [r3, r5, lsl #2]
 543              	.LVL69:
 132:lvgl/src/extra/widgets/tabview/lv_tabview.c ****     tabview->map[id] = lv_mem_alloc(strlen(new_name) + 1);
 544              		.loc 1 132 5 view .LVU142
 545 0020 FFF7FEFF 		bl	lv_mem_free
 546              	.LVL70:
 133:lvgl/src/extra/widgets/tabview/lv_tabview.c ****     strcpy((void *)tabview->map[id], new_name);
 547              		.loc 1 133 5 is_stmt 1 view .LVU143
 133:lvgl/src/extra/widgets/tabview/lv_tabview.c ****     strcpy((void *)tabview->map[id], new_name);
 548              		.loc 1 133 37 is_stmt 0 view .LVU144
 549 0024 3046     		mov	r0, r6
 550 0026 FFF7FEFF 		bl	strlen
 551              	.LVL71:
 133:lvgl/src/extra/widgets/tabview/lv_tabview.c ****     strcpy((void *)tabview->map[id], new_name);
 552              		.loc 1 133 12 view .LVU145
 553 002a 676A     		ldr	r7, [r4, #36]
 133:lvgl/src/extra/widgets/tabview/lv_tabview.c ****     strcpy((void *)tabview->map[id], new_name);
 554              		.loc 1 133 24 view .LVU146
 555 002c 0130     		adds	r0, r0, #1
ARM GAS  /var/folders/21/t9g5rlb91ys800n5npymflf80000gn/T//cckp2I4w.s 			page 18


 556 002e FFF7FEFF 		bl	lv_mem_alloc
 557              	.LVL72:
 133:lvgl/src/extra/widgets/tabview/lv_tabview.c ****     strcpy((void *)tabview->map[id], new_name);
 558              		.loc 1 133 22 view .LVU147
 559 0032 47F82500 		str	r0, [r7, r5, lsl #2]
 134:lvgl/src/extra/widgets/tabview/lv_tabview.c ****     lv_obj_invalidate(obj);
 560              		.loc 1 134 5 is_stmt 1 view .LVU148
 561 0036 636A     		ldr	r3, [r4, #36]
 562 0038 3146     		mov	r1, r6
 563 003a 53F82500 		ldr	r0, [r3, r5, lsl #2]
 564 003e FFF7FEFF 		bl	strcpy
 565              	.LVL73:
 135:lvgl/src/extra/widgets/tabview/lv_tabview.c **** }
 566              		.loc 1 135 5 view .LVU149
 567 0042 2046     		mov	r0, r4
 568 0044 FFF7FEFF 		bl	lv_obj_invalidate
 569              	.LVL74:
 570              	.L34:
 136:lvgl/src/extra/widgets/tabview/lv_tabview.c **** 
 571              		.loc 1 136 1 is_stmt 0 view .LVU150
 572 0048 F8BD     		pop	{r3, r4, r5, r6, r7, pc}
 573              		.cfi_endproc
 574              	.LFE206:
 576              		.section	.text.lv_tabview_get_tab_act,"ax",%progbits
 577              		.align	1
 578              		.global	lv_tabview_get_tab_act
 579              		.syntax unified
 580              		.thumb
 581              		.thumb_func
 583              	lv_tabview_get_tab_act:
 584              	.LVL75:
 585              	.LFB208:
 178:lvgl/src/extra/widgets/tabview/lv_tabview.c ****     LV_ASSERT_OBJ(obj, MY_CLASS);
 586              		.loc 1 178 1 is_stmt 1 view -0
 587              		.cfi_startproc
 588              		@ args = 0, pretend = 0, frame = 0
 589              		@ frame_needed = 0, uses_anonymous_args = 0
 590              		@ link register save eliminated.
 179:lvgl/src/extra/widgets/tabview/lv_tabview.c ****     lv_tabview_t * tabview = (lv_tabview_t *)obj;
 591              		.loc 1 179 5 view .LVU152
 179:lvgl/src/extra/widgets/tabview/lv_tabview.c ****     lv_tabview_t * tabview = (lv_tabview_t *)obj;
 592              		.loc 1 179 5 view .LVU153
 179:lvgl/src/extra/widgets/tabview/lv_tabview.c ****     lv_tabview_t * tabview = (lv_tabview_t *)obj;
 593              		.loc 1 179 5 view .LVU154
 180:lvgl/src/extra/widgets/tabview/lv_tabview.c ****     return tabview->tab_cur;
 594              		.loc 1 180 5 view .LVU155
 181:lvgl/src/extra/widgets/tabview/lv_tabview.c **** }
 595              		.loc 1 181 5 view .LVU156
 182:lvgl/src/extra/widgets/tabview/lv_tabview.c **** 
 596              		.loc 1 182 1 is_stmt 0 view .LVU157
 597 0000 408D     		ldrh	r0, [r0, #42]
 598              	.LVL76:
 182:lvgl/src/extra/widgets/tabview/lv_tabview.c **** 
 599              		.loc 1 182 1 view .LVU158
 600 0002 7047     		bx	lr
 601              		.cfi_endproc
 602              	.LFE208:
ARM GAS  /var/folders/21/t9g5rlb91ys800n5npymflf80000gn/T//cckp2I4w.s 			page 19


 604              		.section	.text.lv_tabview_get_content,"ax",%progbits
 605              		.align	1
 606              		.global	lv_tabview_get_content
 607              		.syntax unified
 608              		.thumb
 609              		.thumb_func
 611              	lv_tabview_get_content:
 612              	.LVL77:
 613              	.LFB209:
 185:lvgl/src/extra/widgets/tabview/lv_tabview.c ****     return lv_obj_get_child(tv, 1);
 614              		.loc 1 185 1 is_stmt 1 view -0
 615              		.cfi_startproc
 616              		@ args = 0, pretend = 0, frame = 0
 617              		@ frame_needed = 0, uses_anonymous_args = 0
 185:lvgl/src/extra/widgets/tabview/lv_tabview.c ****     return lv_obj_get_child(tv, 1);
 618              		.loc 1 185 1 is_stmt 0 view .LVU160
 619 0000 08B5     		push	{r3, lr}
 620              	.LCFI4:
 621              		.cfi_def_cfa_offset 8
 622              		.cfi_offset 3, -8
 623              		.cfi_offset 14, -4
 186:lvgl/src/extra/widgets/tabview/lv_tabview.c **** }
 624              		.loc 1 186 5 is_stmt 1 view .LVU161
 186:lvgl/src/extra/widgets/tabview/lv_tabview.c **** }
 625              		.loc 1 186 12 is_stmt 0 view .LVU162
 626 0002 0121     		movs	r1, #1
 627 0004 FFF7FEFF 		bl	lv_obj_get_child
 628              	.LVL78:
 187:lvgl/src/extra/widgets/tabview/lv_tabview.c **** 
 629              		.loc 1 187 1 view .LVU163
 630 0008 08BD     		pop	{r3, pc}
 631              		.cfi_endproc
 632              	.LFE209:
 634              		.section	.text.lv_tabview_get_tab_btns,"ax",%progbits
 635              		.align	1
 636              		.global	lv_tabview_get_tab_btns
 637              		.syntax unified
 638              		.thumb
 639              		.thumb_func
 641              	lv_tabview_get_tab_btns:
 642              	.LVL79:
 643              	.LFB210:
 190:lvgl/src/extra/widgets/tabview/lv_tabview.c ****     return lv_obj_get_child(tv, 0);
 644              		.loc 1 190 1 is_stmt 1 view -0
 645              		.cfi_startproc
 646              		@ args = 0, pretend = 0, frame = 0
 647              		@ frame_needed = 0, uses_anonymous_args = 0
 190:lvgl/src/extra/widgets/tabview/lv_tabview.c ****     return lv_obj_get_child(tv, 0);
 648              		.loc 1 190 1 is_stmt 0 view .LVU165
 649 0000 08B5     		push	{r3, lr}
 650              	.LCFI5:
 651              		.cfi_def_cfa_offset 8
 652              		.cfi_offset 3, -8
 653              		.cfi_offset 14, -4
 191:lvgl/src/extra/widgets/tabview/lv_tabview.c **** }
 654              		.loc 1 191 5 is_stmt 1 view .LVU166
 191:lvgl/src/extra/widgets/tabview/lv_tabview.c **** }
ARM GAS  /var/folders/21/t9g5rlb91ys800n5npymflf80000gn/T//cckp2I4w.s 			page 20


 655              		.loc 1 191 12 is_stmt 0 view .LVU167
 656 0002 0021     		movs	r1, #0
 657 0004 FFF7FEFF 		bl	lv_obj_get_child
 658              	.LVL80:
 192:lvgl/src/extra/widgets/tabview/lv_tabview.c **** 
 659              		.loc 1 192 1 view .LVU168
 660 0008 08BD     		pop	{r3, pc}
 661              		.cfi_endproc
 662              	.LFE210:
 664              		.section	.text.lv_tabview_set_act,"ax",%progbits
 665              		.align	1
 666              		.global	lv_tabview_set_act
 667              		.syntax unified
 668              		.thumb
 669              		.thumb_func
 671              	lv_tabview_set_act:
 672              	.LVL81:
 673              	.LFB207:
 139:lvgl/src/extra/widgets/tabview/lv_tabview.c ****     LV_ASSERT_OBJ(obj, MY_CLASS);
 674              		.loc 1 139 1 is_stmt 1 view -0
 675              		.cfi_startproc
 676              		@ args = 0, pretend = 0, frame = 0
 677              		@ frame_needed = 0, uses_anonymous_args = 0
 139:lvgl/src/extra/widgets/tabview/lv_tabview.c ****     LV_ASSERT_OBJ(obj, MY_CLASS);
 678              		.loc 1 139 1 is_stmt 0 view .LVU170
 679 0000 2DE9F843 		push	{r3, r4, r5, r6, r7, r8, r9, lr}
 680              	.LCFI6:
 681              		.cfi_def_cfa_offset 32
 682              		.cfi_offset 3, -32
 683              		.cfi_offset 4, -28
 684              		.cfi_offset 5, -24
 685              		.cfi_offset 6, -20
 686              		.cfi_offset 7, -16
 687              		.cfi_offset 8, -12
 688              		.cfi_offset 9, -8
 689              		.cfi_offset 14, -4
 140:lvgl/src/extra/widgets/tabview/lv_tabview.c ****     if(obj->being_deleted) return;
 690              		.loc 1 140 5 is_stmt 1 view .LVU171
 140:lvgl/src/extra/widgets/tabview/lv_tabview.c ****     if(obj->being_deleted) return;
 691              		.loc 1 140 5 view .LVU172
 140:lvgl/src/extra/widgets/tabview/lv_tabview.c ****     if(obj->being_deleted) return;
 692              		.loc 1 140 5 view .LVU173
 141:lvgl/src/extra/widgets/tabview/lv_tabview.c **** 
 693              		.loc 1 141 5 view .LVU174
 141:lvgl/src/extra/widgets/tabview/lv_tabview.c **** 
 694              		.loc 1 141 8 is_stmt 0 view .LVU175
 695 0004 90F82330 		ldrb	r3, [r0, #35]	@ zero_extendqisi2
 141:lvgl/src/extra/widgets/tabview/lv_tabview.c **** 
 696              		.loc 1 141 7 view .LVU176
 697 0008 13F0100F 		tst	r3, #16
 698 000c 57D1     		bne	.L43
 699 000e 0446     		mov	r4, r0
 700 0010 0D46     		mov	r5, r1
 701 0012 1646     		mov	r6, r2
 143:lvgl/src/extra/widgets/tabview/lv_tabview.c **** 
 702              		.loc 1 143 5 is_stmt 1 view .LVU177
 703              	.LVL82:
ARM GAS  /var/folders/21/t9g5rlb91ys800n5npymflf80000gn/T//cckp2I4w.s 			page 21


 145:lvgl/src/extra/widgets/tabview/lv_tabview.c ****         id = tabview->tab_cnt - 1;
 704              		.loc 1 145 5 view .LVU178
 145:lvgl/src/extra/widgets/tabview/lv_tabview.c ****         id = tabview->tab_cnt - 1;
 705              		.loc 1 145 21 is_stmt 0 view .LVU179
 706 0014 038D     		ldrh	r3, [r0, #40]
 145:lvgl/src/extra/widgets/tabview/lv_tabview.c ****         id = tabview->tab_cnt - 1;
 707              		.loc 1 145 7 view .LVU180
 708 0016 8B42     		cmp	r3, r1
 709 0018 00D8     		bhi	.L45
 146:lvgl/src/extra/widgets/tabview/lv_tabview.c ****     }
 710              		.loc 1 146 9 is_stmt 1 view .LVU181
 146:lvgl/src/extra/widgets/tabview/lv_tabview.c ****     }
 711              		.loc 1 146 31 is_stmt 0 view .LVU182
 712 001a 5D1E     		subs	r5, r3, #1
 713              	.LVL83:
 714              	.L45:
 150:lvgl/src/extra/widgets/tabview/lv_tabview.c **** 
 715              		.loc 1 150 5 is_stmt 1 view .LVU183
 716 001c 2046     		mov	r0, r4
 717              	.LVL84:
 150:lvgl/src/extra/widgets/tabview/lv_tabview.c **** 
 718              		.loc 1 150 5 is_stmt 0 view .LVU184
 719 001e FFF7FEFF 		bl	lv_obj_update_layout
 720              	.LVL85:
 152:lvgl/src/extra/widgets/tabview/lv_tabview.c ****     if(cont == NULL) return;
 721              		.loc 1 152 5 is_stmt 1 view .LVU185
 152:lvgl/src/extra/widgets/tabview/lv_tabview.c ****     if(cont == NULL) return;
 722              		.loc 1 152 23 is_stmt 0 view .LVU186
 723 0022 2046     		mov	r0, r4
 724 0024 FFF7FEFF 		bl	lv_tabview_get_content
 725              	.LVL86:
 153:lvgl/src/extra/widgets/tabview/lv_tabview.c **** 
 726              		.loc 1 153 5 is_stmt 1 view .LVU187
 153:lvgl/src/extra/widgets/tabview/lv_tabview.c **** 
 727              		.loc 1 153 7 is_stmt 0 view .LVU188
 728 0028 0746     		mov	r7, r0
 729 002a 0028     		cmp	r0, #0
 730 002c 47D0     		beq	.L43
 155:lvgl/src/extra/widgets/tabview/lv_tabview.c ****         lv_coord_t gap = lv_obj_get_style_pad_column(cont, LV_PART_MAIN);
 731              		.loc 1 155 5 is_stmt 1 view .LVU189
 155:lvgl/src/extra/widgets/tabview/lv_tabview.c ****         lv_coord_t gap = lv_obj_get_style_pad_column(cont, LV_PART_MAIN);
 732              		.loc 1 155 16 is_stmt 0 view .LVU190
 733 002e 94F82C30 		ldrb	r3, [r4, #44]	@ zero_extendqisi2
 155:lvgl/src/extra/widgets/tabview/lv_tabview.c ****         lv_coord_t gap = lv_obj_get_style_pad_column(cont, LV_PART_MAIN);
 734              		.loc 1 155 7 view .LVU191
 735 0032 13F00C0F 		tst	r3, #12
 736 0036 26D0     		beq	.L46
 737              	.LBB20:
 156:lvgl/src/extra/widgets/tabview/lv_tabview.c ****         lv_coord_t w = lv_obj_get_content_width(cont);
 738              		.loc 1 156 9 is_stmt 1 view .LVU192
 739              	.LVL87:
 740              	.LBB21:
 741              	.LBI21:
 742              		.file 2 "lvgl/src/extra/widgets/tabview/../../../../src/core/lv_obj_style_gen.h"
   1:lvgl/src/extra/widgets/tabview/../../../../src/core/lv_obj_style_gen.h **** static inline lv_coord_t lv_obj_get_style_width(const struct _lv_obj_t * obj, uint32_t part)
   2:lvgl/src/extra/widgets/tabview/../../../../src/core/lv_obj_style_gen.h **** {
   3:lvgl/src/extra/widgets/tabview/../../../../src/core/lv_obj_style_gen.h ****     lv_style_value_t v = lv_obj_get_style_prop(obj, part, LV_STYLE_WIDTH);
ARM GAS  /var/folders/21/t9g5rlb91ys800n5npymflf80000gn/T//cckp2I4w.s 			page 22


   4:lvgl/src/extra/widgets/tabview/../../../../src/core/lv_obj_style_gen.h ****     return (lv_coord_t)v.num;
   5:lvgl/src/extra/widgets/tabview/../../../../src/core/lv_obj_style_gen.h **** }
   6:lvgl/src/extra/widgets/tabview/../../../../src/core/lv_obj_style_gen.h **** 
   7:lvgl/src/extra/widgets/tabview/../../../../src/core/lv_obj_style_gen.h **** static inline lv_coord_t lv_obj_get_style_min_width(const struct _lv_obj_t * obj, uint32_t part)
   8:lvgl/src/extra/widgets/tabview/../../../../src/core/lv_obj_style_gen.h **** {
   9:lvgl/src/extra/widgets/tabview/../../../../src/core/lv_obj_style_gen.h ****     lv_style_value_t v = lv_obj_get_style_prop(obj, part, LV_STYLE_MIN_WIDTH);
  10:lvgl/src/extra/widgets/tabview/../../../../src/core/lv_obj_style_gen.h ****     return (lv_coord_t)v.num;
  11:lvgl/src/extra/widgets/tabview/../../../../src/core/lv_obj_style_gen.h **** }
  12:lvgl/src/extra/widgets/tabview/../../../../src/core/lv_obj_style_gen.h **** 
  13:lvgl/src/extra/widgets/tabview/../../../../src/core/lv_obj_style_gen.h **** static inline lv_coord_t lv_obj_get_style_max_width(const struct _lv_obj_t * obj, uint32_t part)
  14:lvgl/src/extra/widgets/tabview/../../../../src/core/lv_obj_style_gen.h **** {
  15:lvgl/src/extra/widgets/tabview/../../../../src/core/lv_obj_style_gen.h ****     lv_style_value_t v = lv_obj_get_style_prop(obj, part, LV_STYLE_MAX_WIDTH);
  16:lvgl/src/extra/widgets/tabview/../../../../src/core/lv_obj_style_gen.h ****     return (lv_coord_t)v.num;
  17:lvgl/src/extra/widgets/tabview/../../../../src/core/lv_obj_style_gen.h **** }
  18:lvgl/src/extra/widgets/tabview/../../../../src/core/lv_obj_style_gen.h **** 
  19:lvgl/src/extra/widgets/tabview/../../../../src/core/lv_obj_style_gen.h **** static inline lv_coord_t lv_obj_get_style_height(const struct _lv_obj_t * obj, uint32_t part)
  20:lvgl/src/extra/widgets/tabview/../../../../src/core/lv_obj_style_gen.h **** {
  21:lvgl/src/extra/widgets/tabview/../../../../src/core/lv_obj_style_gen.h ****     lv_style_value_t v = lv_obj_get_style_prop(obj, part, LV_STYLE_HEIGHT);
  22:lvgl/src/extra/widgets/tabview/../../../../src/core/lv_obj_style_gen.h ****     return (lv_coord_t)v.num;
  23:lvgl/src/extra/widgets/tabview/../../../../src/core/lv_obj_style_gen.h **** }
  24:lvgl/src/extra/widgets/tabview/../../../../src/core/lv_obj_style_gen.h **** 
  25:lvgl/src/extra/widgets/tabview/../../../../src/core/lv_obj_style_gen.h **** static inline lv_coord_t lv_obj_get_style_min_height(const struct _lv_obj_t * obj, uint32_t part)
  26:lvgl/src/extra/widgets/tabview/../../../../src/core/lv_obj_style_gen.h **** {
  27:lvgl/src/extra/widgets/tabview/../../../../src/core/lv_obj_style_gen.h ****     lv_style_value_t v = lv_obj_get_style_prop(obj, part, LV_STYLE_MIN_HEIGHT);
  28:lvgl/src/extra/widgets/tabview/../../../../src/core/lv_obj_style_gen.h ****     return (lv_coord_t)v.num;
  29:lvgl/src/extra/widgets/tabview/../../../../src/core/lv_obj_style_gen.h **** }
  30:lvgl/src/extra/widgets/tabview/../../../../src/core/lv_obj_style_gen.h **** 
  31:lvgl/src/extra/widgets/tabview/../../../../src/core/lv_obj_style_gen.h **** static inline lv_coord_t lv_obj_get_style_max_height(const struct _lv_obj_t * obj, uint32_t part)
  32:lvgl/src/extra/widgets/tabview/../../../../src/core/lv_obj_style_gen.h **** {
  33:lvgl/src/extra/widgets/tabview/../../../../src/core/lv_obj_style_gen.h ****     lv_style_value_t v = lv_obj_get_style_prop(obj, part, LV_STYLE_MAX_HEIGHT);
  34:lvgl/src/extra/widgets/tabview/../../../../src/core/lv_obj_style_gen.h ****     return (lv_coord_t)v.num;
  35:lvgl/src/extra/widgets/tabview/../../../../src/core/lv_obj_style_gen.h **** }
  36:lvgl/src/extra/widgets/tabview/../../../../src/core/lv_obj_style_gen.h **** 
  37:lvgl/src/extra/widgets/tabview/../../../../src/core/lv_obj_style_gen.h **** static inline lv_coord_t lv_obj_get_style_x(const struct _lv_obj_t * obj, uint32_t part)
  38:lvgl/src/extra/widgets/tabview/../../../../src/core/lv_obj_style_gen.h **** {
  39:lvgl/src/extra/widgets/tabview/../../../../src/core/lv_obj_style_gen.h ****     lv_style_value_t v = lv_obj_get_style_prop(obj, part, LV_STYLE_X);
  40:lvgl/src/extra/widgets/tabview/../../../../src/core/lv_obj_style_gen.h ****     return (lv_coord_t)v.num;
  41:lvgl/src/extra/widgets/tabview/../../../../src/core/lv_obj_style_gen.h **** }
  42:lvgl/src/extra/widgets/tabview/../../../../src/core/lv_obj_style_gen.h **** 
  43:lvgl/src/extra/widgets/tabview/../../../../src/core/lv_obj_style_gen.h **** static inline lv_coord_t lv_obj_get_style_y(const struct _lv_obj_t * obj, uint32_t part)
  44:lvgl/src/extra/widgets/tabview/../../../../src/core/lv_obj_style_gen.h **** {
  45:lvgl/src/extra/widgets/tabview/../../../../src/core/lv_obj_style_gen.h ****     lv_style_value_t v = lv_obj_get_style_prop(obj, part, LV_STYLE_Y);
  46:lvgl/src/extra/widgets/tabview/../../../../src/core/lv_obj_style_gen.h ****     return (lv_coord_t)v.num;
  47:lvgl/src/extra/widgets/tabview/../../../../src/core/lv_obj_style_gen.h **** }
  48:lvgl/src/extra/widgets/tabview/../../../../src/core/lv_obj_style_gen.h **** 
  49:lvgl/src/extra/widgets/tabview/../../../../src/core/lv_obj_style_gen.h **** static inline lv_align_t lv_obj_get_style_align(const struct _lv_obj_t * obj, uint32_t part)
  50:lvgl/src/extra/widgets/tabview/../../../../src/core/lv_obj_style_gen.h **** {
  51:lvgl/src/extra/widgets/tabview/../../../../src/core/lv_obj_style_gen.h ****     lv_style_value_t v = lv_obj_get_style_prop(obj, part, LV_STYLE_ALIGN);
  52:lvgl/src/extra/widgets/tabview/../../../../src/core/lv_obj_style_gen.h ****     return (lv_align_t)v.num;
  53:lvgl/src/extra/widgets/tabview/../../../../src/core/lv_obj_style_gen.h **** }
  54:lvgl/src/extra/widgets/tabview/../../../../src/core/lv_obj_style_gen.h **** 
  55:lvgl/src/extra/widgets/tabview/../../../../src/core/lv_obj_style_gen.h **** static inline lv_coord_t lv_obj_get_style_transform_width(const struct _lv_obj_t * obj, uint32_t pa
  56:lvgl/src/extra/widgets/tabview/../../../../src/core/lv_obj_style_gen.h **** {
  57:lvgl/src/extra/widgets/tabview/../../../../src/core/lv_obj_style_gen.h ****     lv_style_value_t v = lv_obj_get_style_prop(obj, part, LV_STYLE_TRANSFORM_WIDTH);
  58:lvgl/src/extra/widgets/tabview/../../../../src/core/lv_obj_style_gen.h ****     return (lv_coord_t)v.num;
  59:lvgl/src/extra/widgets/tabview/../../../../src/core/lv_obj_style_gen.h **** }
  60:lvgl/src/extra/widgets/tabview/../../../../src/core/lv_obj_style_gen.h **** 
ARM GAS  /var/folders/21/t9g5rlb91ys800n5npymflf80000gn/T//cckp2I4w.s 			page 23


  61:lvgl/src/extra/widgets/tabview/../../../../src/core/lv_obj_style_gen.h **** static inline lv_coord_t lv_obj_get_style_transform_height(const struct _lv_obj_t * obj, uint32_t p
  62:lvgl/src/extra/widgets/tabview/../../../../src/core/lv_obj_style_gen.h **** {
  63:lvgl/src/extra/widgets/tabview/../../../../src/core/lv_obj_style_gen.h ****     lv_style_value_t v = lv_obj_get_style_prop(obj, part, LV_STYLE_TRANSFORM_HEIGHT);
  64:lvgl/src/extra/widgets/tabview/../../../../src/core/lv_obj_style_gen.h ****     return (lv_coord_t)v.num;
  65:lvgl/src/extra/widgets/tabview/../../../../src/core/lv_obj_style_gen.h **** }
  66:lvgl/src/extra/widgets/tabview/../../../../src/core/lv_obj_style_gen.h **** 
  67:lvgl/src/extra/widgets/tabview/../../../../src/core/lv_obj_style_gen.h **** static inline lv_coord_t lv_obj_get_style_translate_x(const struct _lv_obj_t * obj, uint32_t part)
  68:lvgl/src/extra/widgets/tabview/../../../../src/core/lv_obj_style_gen.h **** {
  69:lvgl/src/extra/widgets/tabview/../../../../src/core/lv_obj_style_gen.h ****     lv_style_value_t v = lv_obj_get_style_prop(obj, part, LV_STYLE_TRANSLATE_X);
  70:lvgl/src/extra/widgets/tabview/../../../../src/core/lv_obj_style_gen.h ****     return (lv_coord_t)v.num;
  71:lvgl/src/extra/widgets/tabview/../../../../src/core/lv_obj_style_gen.h **** }
  72:lvgl/src/extra/widgets/tabview/../../../../src/core/lv_obj_style_gen.h **** 
  73:lvgl/src/extra/widgets/tabview/../../../../src/core/lv_obj_style_gen.h **** static inline lv_coord_t lv_obj_get_style_translate_y(const struct _lv_obj_t * obj, uint32_t part)
  74:lvgl/src/extra/widgets/tabview/../../../../src/core/lv_obj_style_gen.h **** {
  75:lvgl/src/extra/widgets/tabview/../../../../src/core/lv_obj_style_gen.h ****     lv_style_value_t v = lv_obj_get_style_prop(obj, part, LV_STYLE_TRANSLATE_Y);
  76:lvgl/src/extra/widgets/tabview/../../../../src/core/lv_obj_style_gen.h ****     return (lv_coord_t)v.num;
  77:lvgl/src/extra/widgets/tabview/../../../../src/core/lv_obj_style_gen.h **** }
  78:lvgl/src/extra/widgets/tabview/../../../../src/core/lv_obj_style_gen.h **** 
  79:lvgl/src/extra/widgets/tabview/../../../../src/core/lv_obj_style_gen.h **** static inline lv_coord_t lv_obj_get_style_transform_zoom(const struct _lv_obj_t * obj, uint32_t par
  80:lvgl/src/extra/widgets/tabview/../../../../src/core/lv_obj_style_gen.h **** {
  81:lvgl/src/extra/widgets/tabview/../../../../src/core/lv_obj_style_gen.h ****     lv_style_value_t v = lv_obj_get_style_prop(obj, part, LV_STYLE_TRANSFORM_ZOOM);
  82:lvgl/src/extra/widgets/tabview/../../../../src/core/lv_obj_style_gen.h ****     return (lv_coord_t)v.num;
  83:lvgl/src/extra/widgets/tabview/../../../../src/core/lv_obj_style_gen.h **** }
  84:lvgl/src/extra/widgets/tabview/../../../../src/core/lv_obj_style_gen.h **** 
  85:lvgl/src/extra/widgets/tabview/../../../../src/core/lv_obj_style_gen.h **** static inline lv_coord_t lv_obj_get_style_transform_angle(const struct _lv_obj_t * obj, uint32_t pa
  86:lvgl/src/extra/widgets/tabview/../../../../src/core/lv_obj_style_gen.h **** {
  87:lvgl/src/extra/widgets/tabview/../../../../src/core/lv_obj_style_gen.h ****     lv_style_value_t v = lv_obj_get_style_prop(obj, part, LV_STYLE_TRANSFORM_ANGLE);
  88:lvgl/src/extra/widgets/tabview/../../../../src/core/lv_obj_style_gen.h ****     return (lv_coord_t)v.num;
  89:lvgl/src/extra/widgets/tabview/../../../../src/core/lv_obj_style_gen.h **** }
  90:lvgl/src/extra/widgets/tabview/../../../../src/core/lv_obj_style_gen.h **** 
  91:lvgl/src/extra/widgets/tabview/../../../../src/core/lv_obj_style_gen.h **** static inline lv_coord_t lv_obj_get_style_transform_pivot_x(const struct _lv_obj_t * obj, uint32_t 
  92:lvgl/src/extra/widgets/tabview/../../../../src/core/lv_obj_style_gen.h **** {
  93:lvgl/src/extra/widgets/tabview/../../../../src/core/lv_obj_style_gen.h ****     lv_style_value_t v = lv_obj_get_style_prop(obj, part, LV_STYLE_TRANSFORM_PIVOT_X);
  94:lvgl/src/extra/widgets/tabview/../../../../src/core/lv_obj_style_gen.h ****     return (lv_coord_t)v.num;
  95:lvgl/src/extra/widgets/tabview/../../../../src/core/lv_obj_style_gen.h **** }
  96:lvgl/src/extra/widgets/tabview/../../../../src/core/lv_obj_style_gen.h **** 
  97:lvgl/src/extra/widgets/tabview/../../../../src/core/lv_obj_style_gen.h **** static inline lv_coord_t lv_obj_get_style_transform_pivot_y(const struct _lv_obj_t * obj, uint32_t 
  98:lvgl/src/extra/widgets/tabview/../../../../src/core/lv_obj_style_gen.h **** {
  99:lvgl/src/extra/widgets/tabview/../../../../src/core/lv_obj_style_gen.h ****     lv_style_value_t v = lv_obj_get_style_prop(obj, part, LV_STYLE_TRANSFORM_PIVOT_Y);
 100:lvgl/src/extra/widgets/tabview/../../../../src/core/lv_obj_style_gen.h ****     return (lv_coord_t)v.num;
 101:lvgl/src/extra/widgets/tabview/../../../../src/core/lv_obj_style_gen.h **** }
 102:lvgl/src/extra/widgets/tabview/../../../../src/core/lv_obj_style_gen.h **** 
 103:lvgl/src/extra/widgets/tabview/../../../../src/core/lv_obj_style_gen.h **** static inline lv_coord_t lv_obj_get_style_pad_top(const struct _lv_obj_t * obj, uint32_t part)
 104:lvgl/src/extra/widgets/tabview/../../../../src/core/lv_obj_style_gen.h **** {
 105:lvgl/src/extra/widgets/tabview/../../../../src/core/lv_obj_style_gen.h ****     lv_style_value_t v = lv_obj_get_style_prop(obj, part, LV_STYLE_PAD_TOP);
 106:lvgl/src/extra/widgets/tabview/../../../../src/core/lv_obj_style_gen.h ****     return (lv_coord_t)v.num;
 107:lvgl/src/extra/widgets/tabview/../../../../src/core/lv_obj_style_gen.h **** }
 108:lvgl/src/extra/widgets/tabview/../../../../src/core/lv_obj_style_gen.h **** 
 109:lvgl/src/extra/widgets/tabview/../../../../src/core/lv_obj_style_gen.h **** static inline lv_coord_t lv_obj_get_style_pad_bottom(const struct _lv_obj_t * obj, uint32_t part)
 110:lvgl/src/extra/widgets/tabview/../../../../src/core/lv_obj_style_gen.h **** {
 111:lvgl/src/extra/widgets/tabview/../../../../src/core/lv_obj_style_gen.h ****     lv_style_value_t v = lv_obj_get_style_prop(obj, part, LV_STYLE_PAD_BOTTOM);
 112:lvgl/src/extra/widgets/tabview/../../../../src/core/lv_obj_style_gen.h ****     return (lv_coord_t)v.num;
 113:lvgl/src/extra/widgets/tabview/../../../../src/core/lv_obj_style_gen.h **** }
 114:lvgl/src/extra/widgets/tabview/../../../../src/core/lv_obj_style_gen.h **** 
 115:lvgl/src/extra/widgets/tabview/../../../../src/core/lv_obj_style_gen.h **** static inline lv_coord_t lv_obj_get_style_pad_left(const struct _lv_obj_t * obj, uint32_t part)
 116:lvgl/src/extra/widgets/tabview/../../../../src/core/lv_obj_style_gen.h **** {
 117:lvgl/src/extra/widgets/tabview/../../../../src/core/lv_obj_style_gen.h ****     lv_style_value_t v = lv_obj_get_style_prop(obj, part, LV_STYLE_PAD_LEFT);
ARM GAS  /var/folders/21/t9g5rlb91ys800n5npymflf80000gn/T//cckp2I4w.s 			page 24


 118:lvgl/src/extra/widgets/tabview/../../../../src/core/lv_obj_style_gen.h ****     return (lv_coord_t)v.num;
 119:lvgl/src/extra/widgets/tabview/../../../../src/core/lv_obj_style_gen.h **** }
 120:lvgl/src/extra/widgets/tabview/../../../../src/core/lv_obj_style_gen.h **** 
 121:lvgl/src/extra/widgets/tabview/../../../../src/core/lv_obj_style_gen.h **** static inline lv_coord_t lv_obj_get_style_pad_right(const struct _lv_obj_t * obj, uint32_t part)
 122:lvgl/src/extra/widgets/tabview/../../../../src/core/lv_obj_style_gen.h **** {
 123:lvgl/src/extra/widgets/tabview/../../../../src/core/lv_obj_style_gen.h ****     lv_style_value_t v = lv_obj_get_style_prop(obj, part, LV_STYLE_PAD_RIGHT);
 124:lvgl/src/extra/widgets/tabview/../../../../src/core/lv_obj_style_gen.h ****     return (lv_coord_t)v.num;
 125:lvgl/src/extra/widgets/tabview/../../../../src/core/lv_obj_style_gen.h **** }
 126:lvgl/src/extra/widgets/tabview/../../../../src/core/lv_obj_style_gen.h **** 
 127:lvgl/src/extra/widgets/tabview/../../../../src/core/lv_obj_style_gen.h **** static inline lv_coord_t lv_obj_get_style_pad_row(const struct _lv_obj_t * obj, uint32_t part)
 128:lvgl/src/extra/widgets/tabview/../../../../src/core/lv_obj_style_gen.h **** {
 129:lvgl/src/extra/widgets/tabview/../../../../src/core/lv_obj_style_gen.h ****     lv_style_value_t v = lv_obj_get_style_prop(obj, part, LV_STYLE_PAD_ROW);
 130:lvgl/src/extra/widgets/tabview/../../../../src/core/lv_obj_style_gen.h ****     return (lv_coord_t)v.num;
 131:lvgl/src/extra/widgets/tabview/../../../../src/core/lv_obj_style_gen.h **** }
 132:lvgl/src/extra/widgets/tabview/../../../../src/core/lv_obj_style_gen.h **** 
 133:lvgl/src/extra/widgets/tabview/../../../../src/core/lv_obj_style_gen.h **** static inline lv_coord_t lv_obj_get_style_pad_column(const struct _lv_obj_t * obj, uint32_t part)
 743              		.loc 2 133 26 view .LVU193
 744              	.LBB22:
 134:lvgl/src/extra/widgets/tabview/../../../../src/core/lv_obj_style_gen.h **** {
 135:lvgl/src/extra/widgets/tabview/../../../../src/core/lv_obj_style_gen.h ****     lv_style_value_t v = lv_obj_get_style_prop(obj, part, LV_STYLE_PAD_COLUMN);
 745              		.loc 2 135 5 view .LVU194
 746              		.loc 2 135 26 is_stmt 0 view .LVU195
 747 0038 1522     		movs	r2, #21
 748 003a 0021     		movs	r1, #0
 749 003c FFF7FEFF 		bl	lv_obj_get_style_prop
 750              	.LVL88:
 136:lvgl/src/extra/widgets/tabview/../../../../src/core/lv_obj_style_gen.h ****     return (lv_coord_t)v.num;
 751              		.loc 2 136 5 is_stmt 1 view .LVU196
 752              		.loc 2 136 12 is_stmt 0 view .LVU197
 753 0040 0FFA80F8 		sxth	r8, r0
 754              	.LVL89:
 755              		.loc 2 136 12 view .LVU198
 756              	.LBE22:
 757              	.LBE21:
 157:lvgl/src/extra/widgets/tabview/lv_tabview.c ****         if(lv_obj_get_style_base_dir(obj, LV_PART_MAIN) != LV_BASE_DIR_RTL) {
 758              		.loc 1 157 9 is_stmt 1 view .LVU199
 157:lvgl/src/extra/widgets/tabview/lv_tabview.c ****         if(lv_obj_get_style_base_dir(obj, LV_PART_MAIN) != LV_BASE_DIR_RTL) {
 759              		.loc 1 157 24 is_stmt 0 view .LVU200
 760 0044 3846     		mov	r0, r7
 761 0046 FFF7FEFF 		bl	lv_obj_get_content_width
 762              	.LVL90:
 763 004a 8146     		mov	r9, r0
 764              	.LVL91:
 158:lvgl/src/extra/widgets/tabview/lv_tabview.c ****             lv_obj_scroll_to_x(cont, id * (gap + w), anim_en);
 765              		.loc 1 158 9 is_stmt 1 view .LVU201
 766              	.LBB23:
 767              	.LBI23:
 137:lvgl/src/extra/widgets/tabview/../../../../src/core/lv_obj_style_gen.h **** }
 138:lvgl/src/extra/widgets/tabview/../../../../src/core/lv_obj_style_gen.h **** 
 139:lvgl/src/extra/widgets/tabview/../../../../src/core/lv_obj_style_gen.h **** static inline lv_color_t lv_obj_get_style_bg_color(const struct _lv_obj_t * obj, uint32_t part)
 140:lvgl/src/extra/widgets/tabview/../../../../src/core/lv_obj_style_gen.h **** {
 141:lvgl/src/extra/widgets/tabview/../../../../src/core/lv_obj_style_gen.h ****     lv_style_value_t v = lv_obj_get_style_prop(obj, part, LV_STYLE_BG_COLOR);
 142:lvgl/src/extra/widgets/tabview/../../../../src/core/lv_obj_style_gen.h ****     return v.color;
 143:lvgl/src/extra/widgets/tabview/../../../../src/core/lv_obj_style_gen.h **** }
 144:lvgl/src/extra/widgets/tabview/../../../../src/core/lv_obj_style_gen.h **** 
 145:lvgl/src/extra/widgets/tabview/../../../../src/core/lv_obj_style_gen.h **** static inline lv_color_t lv_obj_get_style_bg_color_filtered(const struct _lv_obj_t * obj, uint32_t 
 146:lvgl/src/extra/widgets/tabview/../../../../src/core/lv_obj_style_gen.h **** {
ARM GAS  /var/folders/21/t9g5rlb91ys800n5npymflf80000gn/T//cckp2I4w.s 			page 25


 147:lvgl/src/extra/widgets/tabview/../../../../src/core/lv_obj_style_gen.h ****     lv_style_value_t v = _lv_obj_style_apply_color_filter(obj, part, lv_obj_get_style_prop(obj, par
 148:lvgl/src/extra/widgets/tabview/../../../../src/core/lv_obj_style_gen.h ****     return v.color;
 149:lvgl/src/extra/widgets/tabview/../../../../src/core/lv_obj_style_gen.h **** }
 150:lvgl/src/extra/widgets/tabview/../../../../src/core/lv_obj_style_gen.h **** 
 151:lvgl/src/extra/widgets/tabview/../../../../src/core/lv_obj_style_gen.h **** static inline lv_opa_t lv_obj_get_style_bg_opa(const struct _lv_obj_t * obj, uint32_t part)
 152:lvgl/src/extra/widgets/tabview/../../../../src/core/lv_obj_style_gen.h **** {
 153:lvgl/src/extra/widgets/tabview/../../../../src/core/lv_obj_style_gen.h ****     lv_style_value_t v = lv_obj_get_style_prop(obj, part, LV_STYLE_BG_OPA);
 154:lvgl/src/extra/widgets/tabview/../../../../src/core/lv_obj_style_gen.h ****     return (lv_opa_t)v.num;
 155:lvgl/src/extra/widgets/tabview/../../../../src/core/lv_obj_style_gen.h **** }
 156:lvgl/src/extra/widgets/tabview/../../../../src/core/lv_obj_style_gen.h **** 
 157:lvgl/src/extra/widgets/tabview/../../../../src/core/lv_obj_style_gen.h **** static inline lv_color_t lv_obj_get_style_bg_grad_color(const struct _lv_obj_t * obj, uint32_t part
 158:lvgl/src/extra/widgets/tabview/../../../../src/core/lv_obj_style_gen.h **** {
 159:lvgl/src/extra/widgets/tabview/../../../../src/core/lv_obj_style_gen.h ****     lv_style_value_t v = lv_obj_get_style_prop(obj, part, LV_STYLE_BG_GRAD_COLOR);
 160:lvgl/src/extra/widgets/tabview/../../../../src/core/lv_obj_style_gen.h ****     return v.color;
 161:lvgl/src/extra/widgets/tabview/../../../../src/core/lv_obj_style_gen.h **** }
 162:lvgl/src/extra/widgets/tabview/../../../../src/core/lv_obj_style_gen.h **** 
 163:lvgl/src/extra/widgets/tabview/../../../../src/core/lv_obj_style_gen.h **** static inline lv_color_t lv_obj_get_style_bg_grad_color_filtered(const struct _lv_obj_t * obj, uint
 164:lvgl/src/extra/widgets/tabview/../../../../src/core/lv_obj_style_gen.h **** {
 165:lvgl/src/extra/widgets/tabview/../../../../src/core/lv_obj_style_gen.h ****     lv_style_value_t v = _lv_obj_style_apply_color_filter(obj, part, lv_obj_get_style_prop(obj, par
 166:lvgl/src/extra/widgets/tabview/../../../../src/core/lv_obj_style_gen.h ****     return v.color;
 167:lvgl/src/extra/widgets/tabview/../../../../src/core/lv_obj_style_gen.h **** }
 168:lvgl/src/extra/widgets/tabview/../../../../src/core/lv_obj_style_gen.h **** 
 169:lvgl/src/extra/widgets/tabview/../../../../src/core/lv_obj_style_gen.h **** static inline lv_grad_dir_t lv_obj_get_style_bg_grad_dir(const struct _lv_obj_t * obj, uint32_t par
 170:lvgl/src/extra/widgets/tabview/../../../../src/core/lv_obj_style_gen.h **** {
 171:lvgl/src/extra/widgets/tabview/../../../../src/core/lv_obj_style_gen.h ****     lv_style_value_t v = lv_obj_get_style_prop(obj, part, LV_STYLE_BG_GRAD_DIR);
 172:lvgl/src/extra/widgets/tabview/../../../../src/core/lv_obj_style_gen.h ****     return (lv_grad_dir_t)v.num;
 173:lvgl/src/extra/widgets/tabview/../../../../src/core/lv_obj_style_gen.h **** }
 174:lvgl/src/extra/widgets/tabview/../../../../src/core/lv_obj_style_gen.h **** 
 175:lvgl/src/extra/widgets/tabview/../../../../src/core/lv_obj_style_gen.h **** static inline lv_coord_t lv_obj_get_style_bg_main_stop(const struct _lv_obj_t * obj, uint32_t part)
 176:lvgl/src/extra/widgets/tabview/../../../../src/core/lv_obj_style_gen.h **** {
 177:lvgl/src/extra/widgets/tabview/../../../../src/core/lv_obj_style_gen.h ****     lv_style_value_t v = lv_obj_get_style_prop(obj, part, LV_STYLE_BG_MAIN_STOP);
 178:lvgl/src/extra/widgets/tabview/../../../../src/core/lv_obj_style_gen.h ****     return (lv_coord_t)v.num;
 179:lvgl/src/extra/widgets/tabview/../../../../src/core/lv_obj_style_gen.h **** }
 180:lvgl/src/extra/widgets/tabview/../../../../src/core/lv_obj_style_gen.h **** 
 181:lvgl/src/extra/widgets/tabview/../../../../src/core/lv_obj_style_gen.h **** static inline lv_coord_t lv_obj_get_style_bg_grad_stop(const struct _lv_obj_t * obj, uint32_t part)
 182:lvgl/src/extra/widgets/tabview/../../../../src/core/lv_obj_style_gen.h **** {
 183:lvgl/src/extra/widgets/tabview/../../../../src/core/lv_obj_style_gen.h ****     lv_style_value_t v = lv_obj_get_style_prop(obj, part, LV_STYLE_BG_GRAD_STOP);
 184:lvgl/src/extra/widgets/tabview/../../../../src/core/lv_obj_style_gen.h ****     return (lv_coord_t)v.num;
 185:lvgl/src/extra/widgets/tabview/../../../../src/core/lv_obj_style_gen.h **** }
 186:lvgl/src/extra/widgets/tabview/../../../../src/core/lv_obj_style_gen.h **** 
 187:lvgl/src/extra/widgets/tabview/../../../../src/core/lv_obj_style_gen.h **** static inline const lv_grad_dsc_t * lv_obj_get_style_bg_grad(const struct _lv_obj_t * obj, uint32_t
 188:lvgl/src/extra/widgets/tabview/../../../../src/core/lv_obj_style_gen.h **** {
 189:lvgl/src/extra/widgets/tabview/../../../../src/core/lv_obj_style_gen.h ****     lv_style_value_t v = lv_obj_get_style_prop(obj, part, LV_STYLE_BG_GRAD);
 190:lvgl/src/extra/widgets/tabview/../../../../src/core/lv_obj_style_gen.h ****     return (const lv_grad_dsc_t *)v.ptr;
 191:lvgl/src/extra/widgets/tabview/../../../../src/core/lv_obj_style_gen.h **** }
 192:lvgl/src/extra/widgets/tabview/../../../../src/core/lv_obj_style_gen.h **** 
 193:lvgl/src/extra/widgets/tabview/../../../../src/core/lv_obj_style_gen.h **** static inline lv_dither_mode_t lv_obj_get_style_bg_dither_mode(const struct _lv_obj_t * obj, uint32
 194:lvgl/src/extra/widgets/tabview/../../../../src/core/lv_obj_style_gen.h **** {
 195:lvgl/src/extra/widgets/tabview/../../../../src/core/lv_obj_style_gen.h ****     lv_style_value_t v = lv_obj_get_style_prop(obj, part, LV_STYLE_BG_DITHER_MODE);
 196:lvgl/src/extra/widgets/tabview/../../../../src/core/lv_obj_style_gen.h ****     return (lv_dither_mode_t)v.num;
 197:lvgl/src/extra/widgets/tabview/../../../../src/core/lv_obj_style_gen.h **** }
 198:lvgl/src/extra/widgets/tabview/../../../../src/core/lv_obj_style_gen.h **** 
 199:lvgl/src/extra/widgets/tabview/../../../../src/core/lv_obj_style_gen.h **** static inline const void * lv_obj_get_style_bg_img_src(const struct _lv_obj_t * obj, uint32_t part)
 200:lvgl/src/extra/widgets/tabview/../../../../src/core/lv_obj_style_gen.h **** {
 201:lvgl/src/extra/widgets/tabview/../../../../src/core/lv_obj_style_gen.h ****     lv_style_value_t v = lv_obj_get_style_prop(obj, part, LV_STYLE_BG_IMG_SRC);
 202:lvgl/src/extra/widgets/tabview/../../../../src/core/lv_obj_style_gen.h ****     return (const void *)v.ptr;
 203:lvgl/src/extra/widgets/tabview/../../../../src/core/lv_obj_style_gen.h **** }
ARM GAS  /var/folders/21/t9g5rlb91ys800n5npymflf80000gn/T//cckp2I4w.s 			page 26


 204:lvgl/src/extra/widgets/tabview/../../../../src/core/lv_obj_style_gen.h **** 
 205:lvgl/src/extra/widgets/tabview/../../../../src/core/lv_obj_style_gen.h **** static inline lv_opa_t lv_obj_get_style_bg_img_opa(const struct _lv_obj_t * obj, uint32_t part)
 206:lvgl/src/extra/widgets/tabview/../../../../src/core/lv_obj_style_gen.h **** {
 207:lvgl/src/extra/widgets/tabview/../../../../src/core/lv_obj_style_gen.h ****     lv_style_value_t v = lv_obj_get_style_prop(obj, part, LV_STYLE_BG_IMG_OPA);
 208:lvgl/src/extra/widgets/tabview/../../../../src/core/lv_obj_style_gen.h ****     return (lv_opa_t)v.num;
 209:lvgl/src/extra/widgets/tabview/../../../../src/core/lv_obj_style_gen.h **** }
 210:lvgl/src/extra/widgets/tabview/../../../../src/core/lv_obj_style_gen.h **** 
 211:lvgl/src/extra/widgets/tabview/../../../../src/core/lv_obj_style_gen.h **** static inline lv_color_t lv_obj_get_style_bg_img_recolor(const struct _lv_obj_t * obj, uint32_t par
 212:lvgl/src/extra/widgets/tabview/../../../../src/core/lv_obj_style_gen.h **** {
 213:lvgl/src/extra/widgets/tabview/../../../../src/core/lv_obj_style_gen.h ****     lv_style_value_t v = lv_obj_get_style_prop(obj, part, LV_STYLE_BG_IMG_RECOLOR);
 214:lvgl/src/extra/widgets/tabview/../../../../src/core/lv_obj_style_gen.h ****     return v.color;
 215:lvgl/src/extra/widgets/tabview/../../../../src/core/lv_obj_style_gen.h **** }
 216:lvgl/src/extra/widgets/tabview/../../../../src/core/lv_obj_style_gen.h **** 
 217:lvgl/src/extra/widgets/tabview/../../../../src/core/lv_obj_style_gen.h **** static inline lv_color_t lv_obj_get_style_bg_img_recolor_filtered(const struct _lv_obj_t * obj, uin
 218:lvgl/src/extra/widgets/tabview/../../../../src/core/lv_obj_style_gen.h **** {
 219:lvgl/src/extra/widgets/tabview/../../../../src/core/lv_obj_style_gen.h ****     lv_style_value_t v = _lv_obj_style_apply_color_filter(obj, part, lv_obj_get_style_prop(obj, par
 220:lvgl/src/extra/widgets/tabview/../../../../src/core/lv_obj_style_gen.h ****     return v.color;
 221:lvgl/src/extra/widgets/tabview/../../../../src/core/lv_obj_style_gen.h **** }
 222:lvgl/src/extra/widgets/tabview/../../../../src/core/lv_obj_style_gen.h **** 
 223:lvgl/src/extra/widgets/tabview/../../../../src/core/lv_obj_style_gen.h **** static inline lv_opa_t lv_obj_get_style_bg_img_recolor_opa(const struct _lv_obj_t * obj, uint32_t p
 224:lvgl/src/extra/widgets/tabview/../../../../src/core/lv_obj_style_gen.h **** {
 225:lvgl/src/extra/widgets/tabview/../../../../src/core/lv_obj_style_gen.h ****     lv_style_value_t v = lv_obj_get_style_prop(obj, part, LV_STYLE_BG_IMG_RECOLOR_OPA);
 226:lvgl/src/extra/widgets/tabview/../../../../src/core/lv_obj_style_gen.h ****     return (lv_opa_t)v.num;
 227:lvgl/src/extra/widgets/tabview/../../../../src/core/lv_obj_style_gen.h **** }
 228:lvgl/src/extra/widgets/tabview/../../../../src/core/lv_obj_style_gen.h **** 
 229:lvgl/src/extra/widgets/tabview/../../../../src/core/lv_obj_style_gen.h **** static inline bool lv_obj_get_style_bg_img_tiled(const struct _lv_obj_t * obj, uint32_t part)
 230:lvgl/src/extra/widgets/tabview/../../../../src/core/lv_obj_style_gen.h **** {
 231:lvgl/src/extra/widgets/tabview/../../../../src/core/lv_obj_style_gen.h ****     lv_style_value_t v = lv_obj_get_style_prop(obj, part, LV_STYLE_BG_IMG_TILED);
 232:lvgl/src/extra/widgets/tabview/../../../../src/core/lv_obj_style_gen.h ****     return (bool)v.num;
 233:lvgl/src/extra/widgets/tabview/../../../../src/core/lv_obj_style_gen.h **** }
 234:lvgl/src/extra/widgets/tabview/../../../../src/core/lv_obj_style_gen.h **** 
 235:lvgl/src/extra/widgets/tabview/../../../../src/core/lv_obj_style_gen.h **** static inline lv_color_t lv_obj_get_style_border_color(const struct _lv_obj_t * obj, uint32_t part)
 236:lvgl/src/extra/widgets/tabview/../../../../src/core/lv_obj_style_gen.h **** {
 237:lvgl/src/extra/widgets/tabview/../../../../src/core/lv_obj_style_gen.h ****     lv_style_value_t v = lv_obj_get_style_prop(obj, part, LV_STYLE_BORDER_COLOR);
 238:lvgl/src/extra/widgets/tabview/../../../../src/core/lv_obj_style_gen.h ****     return v.color;
 239:lvgl/src/extra/widgets/tabview/../../../../src/core/lv_obj_style_gen.h **** }
 240:lvgl/src/extra/widgets/tabview/../../../../src/core/lv_obj_style_gen.h **** 
 241:lvgl/src/extra/widgets/tabview/../../../../src/core/lv_obj_style_gen.h **** static inline lv_color_t lv_obj_get_style_border_color_filtered(const struct _lv_obj_t * obj, uint3
 242:lvgl/src/extra/widgets/tabview/../../../../src/core/lv_obj_style_gen.h **** {
 243:lvgl/src/extra/widgets/tabview/../../../../src/core/lv_obj_style_gen.h ****     lv_style_value_t v = _lv_obj_style_apply_color_filter(obj, part, lv_obj_get_style_prop(obj, par
 244:lvgl/src/extra/widgets/tabview/../../../../src/core/lv_obj_style_gen.h ****     return v.color;
 245:lvgl/src/extra/widgets/tabview/../../../../src/core/lv_obj_style_gen.h **** }
 246:lvgl/src/extra/widgets/tabview/../../../../src/core/lv_obj_style_gen.h **** 
 247:lvgl/src/extra/widgets/tabview/../../../../src/core/lv_obj_style_gen.h **** static inline lv_opa_t lv_obj_get_style_border_opa(const struct _lv_obj_t * obj, uint32_t part)
 248:lvgl/src/extra/widgets/tabview/../../../../src/core/lv_obj_style_gen.h **** {
 249:lvgl/src/extra/widgets/tabview/../../../../src/core/lv_obj_style_gen.h ****     lv_style_value_t v = lv_obj_get_style_prop(obj, part, LV_STYLE_BORDER_OPA);
 250:lvgl/src/extra/widgets/tabview/../../../../src/core/lv_obj_style_gen.h ****     return (lv_opa_t)v.num;
 251:lvgl/src/extra/widgets/tabview/../../../../src/core/lv_obj_style_gen.h **** }
 252:lvgl/src/extra/widgets/tabview/../../../../src/core/lv_obj_style_gen.h **** 
 253:lvgl/src/extra/widgets/tabview/../../../../src/core/lv_obj_style_gen.h **** static inline lv_coord_t lv_obj_get_style_border_width(const struct _lv_obj_t * obj, uint32_t part)
 254:lvgl/src/extra/widgets/tabview/../../../../src/core/lv_obj_style_gen.h **** {
 255:lvgl/src/extra/widgets/tabview/../../../../src/core/lv_obj_style_gen.h ****     lv_style_value_t v = lv_obj_get_style_prop(obj, part, LV_STYLE_BORDER_WIDTH);
 256:lvgl/src/extra/widgets/tabview/../../../../src/core/lv_obj_style_gen.h ****     return (lv_coord_t)v.num;
 257:lvgl/src/extra/widgets/tabview/../../../../src/core/lv_obj_style_gen.h **** }
 258:lvgl/src/extra/widgets/tabview/../../../../src/core/lv_obj_style_gen.h **** 
 259:lvgl/src/extra/widgets/tabview/../../../../src/core/lv_obj_style_gen.h **** static inline lv_border_side_t lv_obj_get_style_border_side(const struct _lv_obj_t * obj, uint32_t 
 260:lvgl/src/extra/widgets/tabview/../../../../src/core/lv_obj_style_gen.h **** {
ARM GAS  /var/folders/21/t9g5rlb91ys800n5npymflf80000gn/T//cckp2I4w.s 			page 27


 261:lvgl/src/extra/widgets/tabview/../../../../src/core/lv_obj_style_gen.h ****     lv_style_value_t v = lv_obj_get_style_prop(obj, part, LV_STYLE_BORDER_SIDE);
 262:lvgl/src/extra/widgets/tabview/../../../../src/core/lv_obj_style_gen.h ****     return (lv_border_side_t)v.num;
 263:lvgl/src/extra/widgets/tabview/../../../../src/core/lv_obj_style_gen.h **** }
 264:lvgl/src/extra/widgets/tabview/../../../../src/core/lv_obj_style_gen.h **** 
 265:lvgl/src/extra/widgets/tabview/../../../../src/core/lv_obj_style_gen.h **** static inline bool lv_obj_get_style_border_post(const struct _lv_obj_t * obj, uint32_t part)
 266:lvgl/src/extra/widgets/tabview/../../../../src/core/lv_obj_style_gen.h **** {
 267:lvgl/src/extra/widgets/tabview/../../../../src/core/lv_obj_style_gen.h ****     lv_style_value_t v = lv_obj_get_style_prop(obj, part, LV_STYLE_BORDER_POST);
 268:lvgl/src/extra/widgets/tabview/../../../../src/core/lv_obj_style_gen.h ****     return (bool)v.num;
 269:lvgl/src/extra/widgets/tabview/../../../../src/core/lv_obj_style_gen.h **** }
 270:lvgl/src/extra/widgets/tabview/../../../../src/core/lv_obj_style_gen.h **** 
 271:lvgl/src/extra/widgets/tabview/../../../../src/core/lv_obj_style_gen.h **** static inline lv_coord_t lv_obj_get_style_outline_width(const struct _lv_obj_t * obj, uint32_t part
 272:lvgl/src/extra/widgets/tabview/../../../../src/core/lv_obj_style_gen.h **** {
 273:lvgl/src/extra/widgets/tabview/../../../../src/core/lv_obj_style_gen.h ****     lv_style_value_t v = lv_obj_get_style_prop(obj, part, LV_STYLE_OUTLINE_WIDTH);
 274:lvgl/src/extra/widgets/tabview/../../../../src/core/lv_obj_style_gen.h ****     return (lv_coord_t)v.num;
 275:lvgl/src/extra/widgets/tabview/../../../../src/core/lv_obj_style_gen.h **** }
 276:lvgl/src/extra/widgets/tabview/../../../../src/core/lv_obj_style_gen.h **** 
 277:lvgl/src/extra/widgets/tabview/../../../../src/core/lv_obj_style_gen.h **** static inline lv_color_t lv_obj_get_style_outline_color(const struct _lv_obj_t * obj, uint32_t part
 278:lvgl/src/extra/widgets/tabview/../../../../src/core/lv_obj_style_gen.h **** {
 279:lvgl/src/extra/widgets/tabview/../../../../src/core/lv_obj_style_gen.h ****     lv_style_value_t v = lv_obj_get_style_prop(obj, part, LV_STYLE_OUTLINE_COLOR);
 280:lvgl/src/extra/widgets/tabview/../../../../src/core/lv_obj_style_gen.h ****     return v.color;
 281:lvgl/src/extra/widgets/tabview/../../../../src/core/lv_obj_style_gen.h **** }
 282:lvgl/src/extra/widgets/tabview/../../../../src/core/lv_obj_style_gen.h **** 
 283:lvgl/src/extra/widgets/tabview/../../../../src/core/lv_obj_style_gen.h **** static inline lv_color_t lv_obj_get_style_outline_color_filtered(const struct _lv_obj_t * obj, uint
 284:lvgl/src/extra/widgets/tabview/../../../../src/core/lv_obj_style_gen.h **** {
 285:lvgl/src/extra/widgets/tabview/../../../../src/core/lv_obj_style_gen.h ****     lv_style_value_t v = _lv_obj_style_apply_color_filter(obj, part, lv_obj_get_style_prop(obj, par
 286:lvgl/src/extra/widgets/tabview/../../../../src/core/lv_obj_style_gen.h ****     return v.color;
 287:lvgl/src/extra/widgets/tabview/../../../../src/core/lv_obj_style_gen.h **** }
 288:lvgl/src/extra/widgets/tabview/../../../../src/core/lv_obj_style_gen.h **** 
 289:lvgl/src/extra/widgets/tabview/../../../../src/core/lv_obj_style_gen.h **** static inline lv_opa_t lv_obj_get_style_outline_opa(const struct _lv_obj_t * obj, uint32_t part)
 290:lvgl/src/extra/widgets/tabview/../../../../src/core/lv_obj_style_gen.h **** {
 291:lvgl/src/extra/widgets/tabview/../../../../src/core/lv_obj_style_gen.h ****     lv_style_value_t v = lv_obj_get_style_prop(obj, part, LV_STYLE_OUTLINE_OPA);
 292:lvgl/src/extra/widgets/tabview/../../../../src/core/lv_obj_style_gen.h ****     return (lv_opa_t)v.num;
 293:lvgl/src/extra/widgets/tabview/../../../../src/core/lv_obj_style_gen.h **** }
 294:lvgl/src/extra/widgets/tabview/../../../../src/core/lv_obj_style_gen.h **** 
 295:lvgl/src/extra/widgets/tabview/../../../../src/core/lv_obj_style_gen.h **** static inline lv_coord_t lv_obj_get_style_outline_pad(const struct _lv_obj_t * obj, uint32_t part)
 296:lvgl/src/extra/widgets/tabview/../../../../src/core/lv_obj_style_gen.h **** {
 297:lvgl/src/extra/widgets/tabview/../../../../src/core/lv_obj_style_gen.h ****     lv_style_value_t v = lv_obj_get_style_prop(obj, part, LV_STYLE_OUTLINE_PAD);
 298:lvgl/src/extra/widgets/tabview/../../../../src/core/lv_obj_style_gen.h ****     return (lv_coord_t)v.num;
 299:lvgl/src/extra/widgets/tabview/../../../../src/core/lv_obj_style_gen.h **** }
 300:lvgl/src/extra/widgets/tabview/../../../../src/core/lv_obj_style_gen.h **** 
 301:lvgl/src/extra/widgets/tabview/../../../../src/core/lv_obj_style_gen.h **** static inline lv_coord_t lv_obj_get_style_shadow_width(const struct _lv_obj_t * obj, uint32_t part)
 302:lvgl/src/extra/widgets/tabview/../../../../src/core/lv_obj_style_gen.h **** {
 303:lvgl/src/extra/widgets/tabview/../../../../src/core/lv_obj_style_gen.h ****     lv_style_value_t v = lv_obj_get_style_prop(obj, part, LV_STYLE_SHADOW_WIDTH);
 304:lvgl/src/extra/widgets/tabview/../../../../src/core/lv_obj_style_gen.h ****     return (lv_coord_t)v.num;
 305:lvgl/src/extra/widgets/tabview/../../../../src/core/lv_obj_style_gen.h **** }
 306:lvgl/src/extra/widgets/tabview/../../../../src/core/lv_obj_style_gen.h **** 
 307:lvgl/src/extra/widgets/tabview/../../../../src/core/lv_obj_style_gen.h **** static inline lv_coord_t lv_obj_get_style_shadow_ofs_x(const struct _lv_obj_t * obj, uint32_t part)
 308:lvgl/src/extra/widgets/tabview/../../../../src/core/lv_obj_style_gen.h **** {
 309:lvgl/src/extra/widgets/tabview/../../../../src/core/lv_obj_style_gen.h ****     lv_style_value_t v = lv_obj_get_style_prop(obj, part, LV_STYLE_SHADOW_OFS_X);
 310:lvgl/src/extra/widgets/tabview/../../../../src/core/lv_obj_style_gen.h ****     return (lv_coord_t)v.num;
 311:lvgl/src/extra/widgets/tabview/../../../../src/core/lv_obj_style_gen.h **** }
 312:lvgl/src/extra/widgets/tabview/../../../../src/core/lv_obj_style_gen.h **** 
 313:lvgl/src/extra/widgets/tabview/../../../../src/core/lv_obj_style_gen.h **** static inline lv_coord_t lv_obj_get_style_shadow_ofs_y(const struct _lv_obj_t * obj, uint32_t part)
 314:lvgl/src/extra/widgets/tabview/../../../../src/core/lv_obj_style_gen.h **** {
 315:lvgl/src/extra/widgets/tabview/../../../../src/core/lv_obj_style_gen.h ****     lv_style_value_t v = lv_obj_get_style_prop(obj, part, LV_STYLE_SHADOW_OFS_Y);
 316:lvgl/src/extra/widgets/tabview/../../../../src/core/lv_obj_style_gen.h ****     return (lv_coord_t)v.num;
 317:lvgl/src/extra/widgets/tabview/../../../../src/core/lv_obj_style_gen.h **** }
ARM GAS  /var/folders/21/t9g5rlb91ys800n5npymflf80000gn/T//cckp2I4w.s 			page 28


 318:lvgl/src/extra/widgets/tabview/../../../../src/core/lv_obj_style_gen.h **** 
 319:lvgl/src/extra/widgets/tabview/../../../../src/core/lv_obj_style_gen.h **** static inline lv_coord_t lv_obj_get_style_shadow_spread(const struct _lv_obj_t * obj, uint32_t part
 320:lvgl/src/extra/widgets/tabview/../../../../src/core/lv_obj_style_gen.h **** {
 321:lvgl/src/extra/widgets/tabview/../../../../src/core/lv_obj_style_gen.h ****     lv_style_value_t v = lv_obj_get_style_prop(obj, part, LV_STYLE_SHADOW_SPREAD);
 322:lvgl/src/extra/widgets/tabview/../../../../src/core/lv_obj_style_gen.h ****     return (lv_coord_t)v.num;
 323:lvgl/src/extra/widgets/tabview/../../../../src/core/lv_obj_style_gen.h **** }
 324:lvgl/src/extra/widgets/tabview/../../../../src/core/lv_obj_style_gen.h **** 
 325:lvgl/src/extra/widgets/tabview/../../../../src/core/lv_obj_style_gen.h **** static inline lv_color_t lv_obj_get_style_shadow_color(const struct _lv_obj_t * obj, uint32_t part)
 326:lvgl/src/extra/widgets/tabview/../../../../src/core/lv_obj_style_gen.h **** {
 327:lvgl/src/extra/widgets/tabview/../../../../src/core/lv_obj_style_gen.h ****     lv_style_value_t v = lv_obj_get_style_prop(obj, part, LV_STYLE_SHADOW_COLOR);
 328:lvgl/src/extra/widgets/tabview/../../../../src/core/lv_obj_style_gen.h ****     return v.color;
 329:lvgl/src/extra/widgets/tabview/../../../../src/core/lv_obj_style_gen.h **** }
 330:lvgl/src/extra/widgets/tabview/../../../../src/core/lv_obj_style_gen.h **** 
 331:lvgl/src/extra/widgets/tabview/../../../../src/core/lv_obj_style_gen.h **** static inline lv_color_t lv_obj_get_style_shadow_color_filtered(const struct _lv_obj_t * obj, uint3
 332:lvgl/src/extra/widgets/tabview/../../../../src/core/lv_obj_style_gen.h **** {
 333:lvgl/src/extra/widgets/tabview/../../../../src/core/lv_obj_style_gen.h ****     lv_style_value_t v = _lv_obj_style_apply_color_filter(obj, part, lv_obj_get_style_prop(obj, par
 334:lvgl/src/extra/widgets/tabview/../../../../src/core/lv_obj_style_gen.h ****     return v.color;
 335:lvgl/src/extra/widgets/tabview/../../../../src/core/lv_obj_style_gen.h **** }
 336:lvgl/src/extra/widgets/tabview/../../../../src/core/lv_obj_style_gen.h **** 
 337:lvgl/src/extra/widgets/tabview/../../../../src/core/lv_obj_style_gen.h **** static inline lv_opa_t lv_obj_get_style_shadow_opa(const struct _lv_obj_t * obj, uint32_t part)
 338:lvgl/src/extra/widgets/tabview/../../../../src/core/lv_obj_style_gen.h **** {
 339:lvgl/src/extra/widgets/tabview/../../../../src/core/lv_obj_style_gen.h ****     lv_style_value_t v = lv_obj_get_style_prop(obj, part, LV_STYLE_SHADOW_OPA);
 340:lvgl/src/extra/widgets/tabview/../../../../src/core/lv_obj_style_gen.h ****     return (lv_opa_t)v.num;
 341:lvgl/src/extra/widgets/tabview/../../../../src/core/lv_obj_style_gen.h **** }
 342:lvgl/src/extra/widgets/tabview/../../../../src/core/lv_obj_style_gen.h **** 
 343:lvgl/src/extra/widgets/tabview/../../../../src/core/lv_obj_style_gen.h **** static inline lv_opa_t lv_obj_get_style_img_opa(const struct _lv_obj_t * obj, uint32_t part)
 344:lvgl/src/extra/widgets/tabview/../../../../src/core/lv_obj_style_gen.h **** {
 345:lvgl/src/extra/widgets/tabview/../../../../src/core/lv_obj_style_gen.h ****     lv_style_value_t v = lv_obj_get_style_prop(obj, part, LV_STYLE_IMG_OPA);
 346:lvgl/src/extra/widgets/tabview/../../../../src/core/lv_obj_style_gen.h ****     return (lv_opa_t)v.num;
 347:lvgl/src/extra/widgets/tabview/../../../../src/core/lv_obj_style_gen.h **** }
 348:lvgl/src/extra/widgets/tabview/../../../../src/core/lv_obj_style_gen.h **** 
 349:lvgl/src/extra/widgets/tabview/../../../../src/core/lv_obj_style_gen.h **** static inline lv_color_t lv_obj_get_style_img_recolor(const struct _lv_obj_t * obj, uint32_t part)
 350:lvgl/src/extra/widgets/tabview/../../../../src/core/lv_obj_style_gen.h **** {
 351:lvgl/src/extra/widgets/tabview/../../../../src/core/lv_obj_style_gen.h ****     lv_style_value_t v = lv_obj_get_style_prop(obj, part, LV_STYLE_IMG_RECOLOR);
 352:lvgl/src/extra/widgets/tabview/../../../../src/core/lv_obj_style_gen.h ****     return v.color;
 353:lvgl/src/extra/widgets/tabview/../../../../src/core/lv_obj_style_gen.h **** }
 354:lvgl/src/extra/widgets/tabview/../../../../src/core/lv_obj_style_gen.h **** 
 355:lvgl/src/extra/widgets/tabview/../../../../src/core/lv_obj_style_gen.h **** static inline lv_color_t lv_obj_get_style_img_recolor_filtered(const struct _lv_obj_t * obj, uint32
 356:lvgl/src/extra/widgets/tabview/../../../../src/core/lv_obj_style_gen.h **** {
 357:lvgl/src/extra/widgets/tabview/../../../../src/core/lv_obj_style_gen.h ****     lv_style_value_t v = _lv_obj_style_apply_color_filter(obj, part, lv_obj_get_style_prop(obj, par
 358:lvgl/src/extra/widgets/tabview/../../../../src/core/lv_obj_style_gen.h ****     return v.color;
 359:lvgl/src/extra/widgets/tabview/../../../../src/core/lv_obj_style_gen.h **** }
 360:lvgl/src/extra/widgets/tabview/../../../../src/core/lv_obj_style_gen.h **** 
 361:lvgl/src/extra/widgets/tabview/../../../../src/core/lv_obj_style_gen.h **** static inline lv_opa_t lv_obj_get_style_img_recolor_opa(const struct _lv_obj_t * obj, uint32_t part
 362:lvgl/src/extra/widgets/tabview/../../../../src/core/lv_obj_style_gen.h **** {
 363:lvgl/src/extra/widgets/tabview/../../../../src/core/lv_obj_style_gen.h ****     lv_style_value_t v = lv_obj_get_style_prop(obj, part, LV_STYLE_IMG_RECOLOR_OPA);
 364:lvgl/src/extra/widgets/tabview/../../../../src/core/lv_obj_style_gen.h ****     return (lv_opa_t)v.num;
 365:lvgl/src/extra/widgets/tabview/../../../../src/core/lv_obj_style_gen.h **** }
 366:lvgl/src/extra/widgets/tabview/../../../../src/core/lv_obj_style_gen.h **** 
 367:lvgl/src/extra/widgets/tabview/../../../../src/core/lv_obj_style_gen.h **** static inline lv_coord_t lv_obj_get_style_line_width(const struct _lv_obj_t * obj, uint32_t part)
 368:lvgl/src/extra/widgets/tabview/../../../../src/core/lv_obj_style_gen.h **** {
 369:lvgl/src/extra/widgets/tabview/../../../../src/core/lv_obj_style_gen.h ****     lv_style_value_t v = lv_obj_get_style_prop(obj, part, LV_STYLE_LINE_WIDTH);
 370:lvgl/src/extra/widgets/tabview/../../../../src/core/lv_obj_style_gen.h ****     return (lv_coord_t)v.num;
 371:lvgl/src/extra/widgets/tabview/../../../../src/core/lv_obj_style_gen.h **** }
 372:lvgl/src/extra/widgets/tabview/../../../../src/core/lv_obj_style_gen.h **** 
 373:lvgl/src/extra/widgets/tabview/../../../../src/core/lv_obj_style_gen.h **** static inline lv_coord_t lv_obj_get_style_line_dash_width(const struct _lv_obj_t * obj, uint32_t pa
 374:lvgl/src/extra/widgets/tabview/../../../../src/core/lv_obj_style_gen.h **** {
ARM GAS  /var/folders/21/t9g5rlb91ys800n5npymflf80000gn/T//cckp2I4w.s 			page 29


 375:lvgl/src/extra/widgets/tabview/../../../../src/core/lv_obj_style_gen.h ****     lv_style_value_t v = lv_obj_get_style_prop(obj, part, LV_STYLE_LINE_DASH_WIDTH);
 376:lvgl/src/extra/widgets/tabview/../../../../src/core/lv_obj_style_gen.h ****     return (lv_coord_t)v.num;
 377:lvgl/src/extra/widgets/tabview/../../../../src/core/lv_obj_style_gen.h **** }
 378:lvgl/src/extra/widgets/tabview/../../../../src/core/lv_obj_style_gen.h **** 
 379:lvgl/src/extra/widgets/tabview/../../../../src/core/lv_obj_style_gen.h **** static inline lv_coord_t lv_obj_get_style_line_dash_gap(const struct _lv_obj_t * obj, uint32_t part
 380:lvgl/src/extra/widgets/tabview/../../../../src/core/lv_obj_style_gen.h **** {
 381:lvgl/src/extra/widgets/tabview/../../../../src/core/lv_obj_style_gen.h ****     lv_style_value_t v = lv_obj_get_style_prop(obj, part, LV_STYLE_LINE_DASH_GAP);
 382:lvgl/src/extra/widgets/tabview/../../../../src/core/lv_obj_style_gen.h ****     return (lv_coord_t)v.num;
 383:lvgl/src/extra/widgets/tabview/../../../../src/core/lv_obj_style_gen.h **** }
 384:lvgl/src/extra/widgets/tabview/../../../../src/core/lv_obj_style_gen.h **** 
 385:lvgl/src/extra/widgets/tabview/../../../../src/core/lv_obj_style_gen.h **** static inline bool lv_obj_get_style_line_rounded(const struct _lv_obj_t * obj, uint32_t part)
 386:lvgl/src/extra/widgets/tabview/../../../../src/core/lv_obj_style_gen.h **** {
 387:lvgl/src/extra/widgets/tabview/../../../../src/core/lv_obj_style_gen.h ****     lv_style_value_t v = lv_obj_get_style_prop(obj, part, LV_STYLE_LINE_ROUNDED);
 388:lvgl/src/extra/widgets/tabview/../../../../src/core/lv_obj_style_gen.h ****     return (bool)v.num;
 389:lvgl/src/extra/widgets/tabview/../../../../src/core/lv_obj_style_gen.h **** }
 390:lvgl/src/extra/widgets/tabview/../../../../src/core/lv_obj_style_gen.h **** 
 391:lvgl/src/extra/widgets/tabview/../../../../src/core/lv_obj_style_gen.h **** static inline lv_color_t lv_obj_get_style_line_color(const struct _lv_obj_t * obj, uint32_t part)
 392:lvgl/src/extra/widgets/tabview/../../../../src/core/lv_obj_style_gen.h **** {
 393:lvgl/src/extra/widgets/tabview/../../../../src/core/lv_obj_style_gen.h ****     lv_style_value_t v = lv_obj_get_style_prop(obj, part, LV_STYLE_LINE_COLOR);
 394:lvgl/src/extra/widgets/tabview/../../../../src/core/lv_obj_style_gen.h ****     return v.color;
 395:lvgl/src/extra/widgets/tabview/../../../../src/core/lv_obj_style_gen.h **** }
 396:lvgl/src/extra/widgets/tabview/../../../../src/core/lv_obj_style_gen.h **** 
 397:lvgl/src/extra/widgets/tabview/../../../../src/core/lv_obj_style_gen.h **** static inline lv_color_t lv_obj_get_style_line_color_filtered(const struct _lv_obj_t * obj, uint32_
 398:lvgl/src/extra/widgets/tabview/../../../../src/core/lv_obj_style_gen.h **** {
 399:lvgl/src/extra/widgets/tabview/../../../../src/core/lv_obj_style_gen.h ****     lv_style_value_t v = _lv_obj_style_apply_color_filter(obj, part, lv_obj_get_style_prop(obj, par
 400:lvgl/src/extra/widgets/tabview/../../../../src/core/lv_obj_style_gen.h ****     return v.color;
 401:lvgl/src/extra/widgets/tabview/../../../../src/core/lv_obj_style_gen.h **** }
 402:lvgl/src/extra/widgets/tabview/../../../../src/core/lv_obj_style_gen.h **** 
 403:lvgl/src/extra/widgets/tabview/../../../../src/core/lv_obj_style_gen.h **** static inline lv_opa_t lv_obj_get_style_line_opa(const struct _lv_obj_t * obj, uint32_t part)
 404:lvgl/src/extra/widgets/tabview/../../../../src/core/lv_obj_style_gen.h **** {
 405:lvgl/src/extra/widgets/tabview/../../../../src/core/lv_obj_style_gen.h ****     lv_style_value_t v = lv_obj_get_style_prop(obj, part, LV_STYLE_LINE_OPA);
 406:lvgl/src/extra/widgets/tabview/../../../../src/core/lv_obj_style_gen.h ****     return (lv_opa_t)v.num;
 407:lvgl/src/extra/widgets/tabview/../../../../src/core/lv_obj_style_gen.h **** }
 408:lvgl/src/extra/widgets/tabview/../../../../src/core/lv_obj_style_gen.h **** 
 409:lvgl/src/extra/widgets/tabview/../../../../src/core/lv_obj_style_gen.h **** static inline lv_coord_t lv_obj_get_style_arc_width(const struct _lv_obj_t * obj, uint32_t part)
 410:lvgl/src/extra/widgets/tabview/../../../../src/core/lv_obj_style_gen.h **** {
 411:lvgl/src/extra/widgets/tabview/../../../../src/core/lv_obj_style_gen.h ****     lv_style_value_t v = lv_obj_get_style_prop(obj, part, LV_STYLE_ARC_WIDTH);
 412:lvgl/src/extra/widgets/tabview/../../../../src/core/lv_obj_style_gen.h ****     return (lv_coord_t)v.num;
 413:lvgl/src/extra/widgets/tabview/../../../../src/core/lv_obj_style_gen.h **** }
 414:lvgl/src/extra/widgets/tabview/../../../../src/core/lv_obj_style_gen.h **** 
 415:lvgl/src/extra/widgets/tabview/../../../../src/core/lv_obj_style_gen.h **** static inline bool lv_obj_get_style_arc_rounded(const struct _lv_obj_t * obj, uint32_t part)
 416:lvgl/src/extra/widgets/tabview/../../../../src/core/lv_obj_style_gen.h **** {
 417:lvgl/src/extra/widgets/tabview/../../../../src/core/lv_obj_style_gen.h ****     lv_style_value_t v = lv_obj_get_style_prop(obj, part, LV_STYLE_ARC_ROUNDED);
 418:lvgl/src/extra/widgets/tabview/../../../../src/core/lv_obj_style_gen.h ****     return (bool)v.num;
 419:lvgl/src/extra/widgets/tabview/../../../../src/core/lv_obj_style_gen.h **** }
 420:lvgl/src/extra/widgets/tabview/../../../../src/core/lv_obj_style_gen.h **** 
 421:lvgl/src/extra/widgets/tabview/../../../../src/core/lv_obj_style_gen.h **** static inline lv_color_t lv_obj_get_style_arc_color(const struct _lv_obj_t * obj, uint32_t part)
 422:lvgl/src/extra/widgets/tabview/../../../../src/core/lv_obj_style_gen.h **** {
 423:lvgl/src/extra/widgets/tabview/../../../../src/core/lv_obj_style_gen.h ****     lv_style_value_t v = lv_obj_get_style_prop(obj, part, LV_STYLE_ARC_COLOR);
 424:lvgl/src/extra/widgets/tabview/../../../../src/core/lv_obj_style_gen.h ****     return v.color;
 425:lvgl/src/extra/widgets/tabview/../../../../src/core/lv_obj_style_gen.h **** }
 426:lvgl/src/extra/widgets/tabview/../../../../src/core/lv_obj_style_gen.h **** 
 427:lvgl/src/extra/widgets/tabview/../../../../src/core/lv_obj_style_gen.h **** static inline lv_color_t lv_obj_get_style_arc_color_filtered(const struct _lv_obj_t * obj, uint32_t
 428:lvgl/src/extra/widgets/tabview/../../../../src/core/lv_obj_style_gen.h **** {
 429:lvgl/src/extra/widgets/tabview/../../../../src/core/lv_obj_style_gen.h ****     lv_style_value_t v = _lv_obj_style_apply_color_filter(obj, part, lv_obj_get_style_prop(obj, par
 430:lvgl/src/extra/widgets/tabview/../../../../src/core/lv_obj_style_gen.h ****     return v.color;
 431:lvgl/src/extra/widgets/tabview/../../../../src/core/lv_obj_style_gen.h **** }
ARM GAS  /var/folders/21/t9g5rlb91ys800n5npymflf80000gn/T//cckp2I4w.s 			page 30


 432:lvgl/src/extra/widgets/tabview/../../../../src/core/lv_obj_style_gen.h **** 
 433:lvgl/src/extra/widgets/tabview/../../../../src/core/lv_obj_style_gen.h **** static inline lv_opa_t lv_obj_get_style_arc_opa(const struct _lv_obj_t * obj, uint32_t part)
 434:lvgl/src/extra/widgets/tabview/../../../../src/core/lv_obj_style_gen.h **** {
 435:lvgl/src/extra/widgets/tabview/../../../../src/core/lv_obj_style_gen.h ****     lv_style_value_t v = lv_obj_get_style_prop(obj, part, LV_STYLE_ARC_OPA);
 436:lvgl/src/extra/widgets/tabview/../../../../src/core/lv_obj_style_gen.h ****     return (lv_opa_t)v.num;
 437:lvgl/src/extra/widgets/tabview/../../../../src/core/lv_obj_style_gen.h **** }
 438:lvgl/src/extra/widgets/tabview/../../../../src/core/lv_obj_style_gen.h **** 
 439:lvgl/src/extra/widgets/tabview/../../../../src/core/lv_obj_style_gen.h **** static inline const void * lv_obj_get_style_arc_img_src(const struct _lv_obj_t * obj, uint32_t part
 440:lvgl/src/extra/widgets/tabview/../../../../src/core/lv_obj_style_gen.h **** {
 441:lvgl/src/extra/widgets/tabview/../../../../src/core/lv_obj_style_gen.h ****     lv_style_value_t v = lv_obj_get_style_prop(obj, part, LV_STYLE_ARC_IMG_SRC);
 442:lvgl/src/extra/widgets/tabview/../../../../src/core/lv_obj_style_gen.h ****     return (const void *)v.ptr;
 443:lvgl/src/extra/widgets/tabview/../../../../src/core/lv_obj_style_gen.h **** }
 444:lvgl/src/extra/widgets/tabview/../../../../src/core/lv_obj_style_gen.h **** 
 445:lvgl/src/extra/widgets/tabview/../../../../src/core/lv_obj_style_gen.h **** static inline lv_color_t lv_obj_get_style_text_color(const struct _lv_obj_t * obj, uint32_t part)
 446:lvgl/src/extra/widgets/tabview/../../../../src/core/lv_obj_style_gen.h **** {
 447:lvgl/src/extra/widgets/tabview/../../../../src/core/lv_obj_style_gen.h ****     lv_style_value_t v = lv_obj_get_style_prop(obj, part, LV_STYLE_TEXT_COLOR);
 448:lvgl/src/extra/widgets/tabview/../../../../src/core/lv_obj_style_gen.h ****     return v.color;
 449:lvgl/src/extra/widgets/tabview/../../../../src/core/lv_obj_style_gen.h **** }
 450:lvgl/src/extra/widgets/tabview/../../../../src/core/lv_obj_style_gen.h **** 
 451:lvgl/src/extra/widgets/tabview/../../../../src/core/lv_obj_style_gen.h **** static inline lv_color_t lv_obj_get_style_text_color_filtered(const struct _lv_obj_t * obj, uint32_
 452:lvgl/src/extra/widgets/tabview/../../../../src/core/lv_obj_style_gen.h **** {
 453:lvgl/src/extra/widgets/tabview/../../../../src/core/lv_obj_style_gen.h ****     lv_style_value_t v = _lv_obj_style_apply_color_filter(obj, part, lv_obj_get_style_prop(obj, par
 454:lvgl/src/extra/widgets/tabview/../../../../src/core/lv_obj_style_gen.h ****     return v.color;
 455:lvgl/src/extra/widgets/tabview/../../../../src/core/lv_obj_style_gen.h **** }
 456:lvgl/src/extra/widgets/tabview/../../../../src/core/lv_obj_style_gen.h **** 
 457:lvgl/src/extra/widgets/tabview/../../../../src/core/lv_obj_style_gen.h **** static inline lv_opa_t lv_obj_get_style_text_opa(const struct _lv_obj_t * obj, uint32_t part)
 458:lvgl/src/extra/widgets/tabview/../../../../src/core/lv_obj_style_gen.h **** {
 459:lvgl/src/extra/widgets/tabview/../../../../src/core/lv_obj_style_gen.h ****     lv_style_value_t v = lv_obj_get_style_prop(obj, part, LV_STYLE_TEXT_OPA);
 460:lvgl/src/extra/widgets/tabview/../../../../src/core/lv_obj_style_gen.h ****     return (lv_opa_t)v.num;
 461:lvgl/src/extra/widgets/tabview/../../../../src/core/lv_obj_style_gen.h **** }
 462:lvgl/src/extra/widgets/tabview/../../../../src/core/lv_obj_style_gen.h **** 
 463:lvgl/src/extra/widgets/tabview/../../../../src/core/lv_obj_style_gen.h **** static inline const lv_font_t * lv_obj_get_style_text_font(const struct _lv_obj_t * obj, uint32_t p
 464:lvgl/src/extra/widgets/tabview/../../../../src/core/lv_obj_style_gen.h **** {
 465:lvgl/src/extra/widgets/tabview/../../../../src/core/lv_obj_style_gen.h ****     lv_style_value_t v = lv_obj_get_style_prop(obj, part, LV_STYLE_TEXT_FONT);
 466:lvgl/src/extra/widgets/tabview/../../../../src/core/lv_obj_style_gen.h ****     return (const lv_font_t *)v.ptr;
 467:lvgl/src/extra/widgets/tabview/../../../../src/core/lv_obj_style_gen.h **** }
 468:lvgl/src/extra/widgets/tabview/../../../../src/core/lv_obj_style_gen.h **** 
 469:lvgl/src/extra/widgets/tabview/../../../../src/core/lv_obj_style_gen.h **** static inline lv_coord_t lv_obj_get_style_text_letter_space(const struct _lv_obj_t * obj, uint32_t 
 470:lvgl/src/extra/widgets/tabview/../../../../src/core/lv_obj_style_gen.h **** {
 471:lvgl/src/extra/widgets/tabview/../../../../src/core/lv_obj_style_gen.h ****     lv_style_value_t v = lv_obj_get_style_prop(obj, part, LV_STYLE_TEXT_LETTER_SPACE);
 472:lvgl/src/extra/widgets/tabview/../../../../src/core/lv_obj_style_gen.h ****     return (lv_coord_t)v.num;
 473:lvgl/src/extra/widgets/tabview/../../../../src/core/lv_obj_style_gen.h **** }
 474:lvgl/src/extra/widgets/tabview/../../../../src/core/lv_obj_style_gen.h **** 
 475:lvgl/src/extra/widgets/tabview/../../../../src/core/lv_obj_style_gen.h **** static inline lv_coord_t lv_obj_get_style_text_line_space(const struct _lv_obj_t * obj, uint32_t pa
 476:lvgl/src/extra/widgets/tabview/../../../../src/core/lv_obj_style_gen.h **** {
 477:lvgl/src/extra/widgets/tabview/../../../../src/core/lv_obj_style_gen.h ****     lv_style_value_t v = lv_obj_get_style_prop(obj, part, LV_STYLE_TEXT_LINE_SPACE);
 478:lvgl/src/extra/widgets/tabview/../../../../src/core/lv_obj_style_gen.h ****     return (lv_coord_t)v.num;
 479:lvgl/src/extra/widgets/tabview/../../../../src/core/lv_obj_style_gen.h **** }
 480:lvgl/src/extra/widgets/tabview/../../../../src/core/lv_obj_style_gen.h **** 
 481:lvgl/src/extra/widgets/tabview/../../../../src/core/lv_obj_style_gen.h **** static inline lv_text_decor_t lv_obj_get_style_text_decor(const struct _lv_obj_t * obj, uint32_t pa
 482:lvgl/src/extra/widgets/tabview/../../../../src/core/lv_obj_style_gen.h **** {
 483:lvgl/src/extra/widgets/tabview/../../../../src/core/lv_obj_style_gen.h ****     lv_style_value_t v = lv_obj_get_style_prop(obj, part, LV_STYLE_TEXT_DECOR);
 484:lvgl/src/extra/widgets/tabview/../../../../src/core/lv_obj_style_gen.h ****     return (lv_text_decor_t)v.num;
 485:lvgl/src/extra/widgets/tabview/../../../../src/core/lv_obj_style_gen.h **** }
 486:lvgl/src/extra/widgets/tabview/../../../../src/core/lv_obj_style_gen.h **** 
 487:lvgl/src/extra/widgets/tabview/../../../../src/core/lv_obj_style_gen.h **** static inline lv_text_align_t lv_obj_get_style_text_align(const struct _lv_obj_t * obj, uint32_t pa
 488:lvgl/src/extra/widgets/tabview/../../../../src/core/lv_obj_style_gen.h **** {
ARM GAS  /var/folders/21/t9g5rlb91ys800n5npymflf80000gn/T//cckp2I4w.s 			page 31


 489:lvgl/src/extra/widgets/tabview/../../../../src/core/lv_obj_style_gen.h ****     lv_style_value_t v = lv_obj_get_style_prop(obj, part, LV_STYLE_TEXT_ALIGN);
 490:lvgl/src/extra/widgets/tabview/../../../../src/core/lv_obj_style_gen.h ****     return (lv_text_align_t)v.num;
 491:lvgl/src/extra/widgets/tabview/../../../../src/core/lv_obj_style_gen.h **** }
 492:lvgl/src/extra/widgets/tabview/../../../../src/core/lv_obj_style_gen.h **** 
 493:lvgl/src/extra/widgets/tabview/../../../../src/core/lv_obj_style_gen.h **** static inline lv_coord_t lv_obj_get_style_radius(const struct _lv_obj_t * obj, uint32_t part)
 494:lvgl/src/extra/widgets/tabview/../../../../src/core/lv_obj_style_gen.h **** {
 495:lvgl/src/extra/widgets/tabview/../../../../src/core/lv_obj_style_gen.h ****     lv_style_value_t v = lv_obj_get_style_prop(obj, part, LV_STYLE_RADIUS);
 496:lvgl/src/extra/widgets/tabview/../../../../src/core/lv_obj_style_gen.h ****     return (lv_coord_t)v.num;
 497:lvgl/src/extra/widgets/tabview/../../../../src/core/lv_obj_style_gen.h **** }
 498:lvgl/src/extra/widgets/tabview/../../../../src/core/lv_obj_style_gen.h **** 
 499:lvgl/src/extra/widgets/tabview/../../../../src/core/lv_obj_style_gen.h **** static inline bool lv_obj_get_style_clip_corner(const struct _lv_obj_t * obj, uint32_t part)
 500:lvgl/src/extra/widgets/tabview/../../../../src/core/lv_obj_style_gen.h **** {
 501:lvgl/src/extra/widgets/tabview/../../../../src/core/lv_obj_style_gen.h ****     lv_style_value_t v = lv_obj_get_style_prop(obj, part, LV_STYLE_CLIP_CORNER);
 502:lvgl/src/extra/widgets/tabview/../../../../src/core/lv_obj_style_gen.h ****     return (bool)v.num;
 503:lvgl/src/extra/widgets/tabview/../../../../src/core/lv_obj_style_gen.h **** }
 504:lvgl/src/extra/widgets/tabview/../../../../src/core/lv_obj_style_gen.h **** 
 505:lvgl/src/extra/widgets/tabview/../../../../src/core/lv_obj_style_gen.h **** static inline lv_opa_t lv_obj_get_style_opa(const struct _lv_obj_t * obj, uint32_t part)
 506:lvgl/src/extra/widgets/tabview/../../../../src/core/lv_obj_style_gen.h **** {
 507:lvgl/src/extra/widgets/tabview/../../../../src/core/lv_obj_style_gen.h ****     lv_style_value_t v = lv_obj_get_style_prop(obj, part, LV_STYLE_OPA);
 508:lvgl/src/extra/widgets/tabview/../../../../src/core/lv_obj_style_gen.h ****     return (lv_opa_t)v.num;
 509:lvgl/src/extra/widgets/tabview/../../../../src/core/lv_obj_style_gen.h **** }
 510:lvgl/src/extra/widgets/tabview/../../../../src/core/lv_obj_style_gen.h **** 
 511:lvgl/src/extra/widgets/tabview/../../../../src/core/lv_obj_style_gen.h **** static inline lv_opa_t lv_obj_get_style_opa_layered(const struct _lv_obj_t * obj, uint32_t part)
 512:lvgl/src/extra/widgets/tabview/../../../../src/core/lv_obj_style_gen.h **** {
 513:lvgl/src/extra/widgets/tabview/../../../../src/core/lv_obj_style_gen.h ****     lv_style_value_t v = lv_obj_get_style_prop(obj, part, LV_STYLE_OPA_LAYERED);
 514:lvgl/src/extra/widgets/tabview/../../../../src/core/lv_obj_style_gen.h ****     return (lv_opa_t)v.num;
 515:lvgl/src/extra/widgets/tabview/../../../../src/core/lv_obj_style_gen.h **** }
 516:lvgl/src/extra/widgets/tabview/../../../../src/core/lv_obj_style_gen.h **** 
 517:lvgl/src/extra/widgets/tabview/../../../../src/core/lv_obj_style_gen.h **** static inline const lv_color_filter_dsc_t * lv_obj_get_style_color_filter_dsc(const struct _lv_obj_
 518:lvgl/src/extra/widgets/tabview/../../../../src/core/lv_obj_style_gen.h **** {
 519:lvgl/src/extra/widgets/tabview/../../../../src/core/lv_obj_style_gen.h ****     lv_style_value_t v = lv_obj_get_style_prop(obj, part, LV_STYLE_COLOR_FILTER_DSC);
 520:lvgl/src/extra/widgets/tabview/../../../../src/core/lv_obj_style_gen.h ****     return (const lv_color_filter_dsc_t *)v.ptr;
 521:lvgl/src/extra/widgets/tabview/../../../../src/core/lv_obj_style_gen.h **** }
 522:lvgl/src/extra/widgets/tabview/../../../../src/core/lv_obj_style_gen.h **** 
 523:lvgl/src/extra/widgets/tabview/../../../../src/core/lv_obj_style_gen.h **** static inline lv_opa_t lv_obj_get_style_color_filter_opa(const struct _lv_obj_t * obj, uint32_t par
 524:lvgl/src/extra/widgets/tabview/../../../../src/core/lv_obj_style_gen.h **** {
 525:lvgl/src/extra/widgets/tabview/../../../../src/core/lv_obj_style_gen.h ****     lv_style_value_t v = lv_obj_get_style_prop(obj, part, LV_STYLE_COLOR_FILTER_OPA);
 526:lvgl/src/extra/widgets/tabview/../../../../src/core/lv_obj_style_gen.h ****     return (lv_opa_t)v.num;
 527:lvgl/src/extra/widgets/tabview/../../../../src/core/lv_obj_style_gen.h **** }
 528:lvgl/src/extra/widgets/tabview/../../../../src/core/lv_obj_style_gen.h **** 
 529:lvgl/src/extra/widgets/tabview/../../../../src/core/lv_obj_style_gen.h **** static inline const lv_anim_t * lv_obj_get_style_anim(const struct _lv_obj_t * obj, uint32_t part)
 530:lvgl/src/extra/widgets/tabview/../../../../src/core/lv_obj_style_gen.h **** {
 531:lvgl/src/extra/widgets/tabview/../../../../src/core/lv_obj_style_gen.h ****     lv_style_value_t v = lv_obj_get_style_prop(obj, part, LV_STYLE_ANIM);
 532:lvgl/src/extra/widgets/tabview/../../../../src/core/lv_obj_style_gen.h ****     return (const lv_anim_t *)v.ptr;
 533:lvgl/src/extra/widgets/tabview/../../../../src/core/lv_obj_style_gen.h **** }
 534:lvgl/src/extra/widgets/tabview/../../../../src/core/lv_obj_style_gen.h **** 
 535:lvgl/src/extra/widgets/tabview/../../../../src/core/lv_obj_style_gen.h **** static inline uint32_t lv_obj_get_style_anim_time(const struct _lv_obj_t * obj, uint32_t part)
 536:lvgl/src/extra/widgets/tabview/../../../../src/core/lv_obj_style_gen.h **** {
 537:lvgl/src/extra/widgets/tabview/../../../../src/core/lv_obj_style_gen.h ****     lv_style_value_t v = lv_obj_get_style_prop(obj, part, LV_STYLE_ANIM_TIME);
 538:lvgl/src/extra/widgets/tabview/../../../../src/core/lv_obj_style_gen.h ****     return (uint32_t)v.num;
 539:lvgl/src/extra/widgets/tabview/../../../../src/core/lv_obj_style_gen.h **** }
 540:lvgl/src/extra/widgets/tabview/../../../../src/core/lv_obj_style_gen.h **** 
 541:lvgl/src/extra/widgets/tabview/../../../../src/core/lv_obj_style_gen.h **** static inline uint32_t lv_obj_get_style_anim_speed(const struct _lv_obj_t * obj, uint32_t part)
 542:lvgl/src/extra/widgets/tabview/../../../../src/core/lv_obj_style_gen.h **** {
 543:lvgl/src/extra/widgets/tabview/../../../../src/core/lv_obj_style_gen.h ****     lv_style_value_t v = lv_obj_get_style_prop(obj, part, LV_STYLE_ANIM_SPEED);
 544:lvgl/src/extra/widgets/tabview/../../../../src/core/lv_obj_style_gen.h ****     return (uint32_t)v.num;
 545:lvgl/src/extra/widgets/tabview/../../../../src/core/lv_obj_style_gen.h **** }
ARM GAS  /var/folders/21/t9g5rlb91ys800n5npymflf80000gn/T//cckp2I4w.s 			page 32


 546:lvgl/src/extra/widgets/tabview/../../../../src/core/lv_obj_style_gen.h **** 
 547:lvgl/src/extra/widgets/tabview/../../../../src/core/lv_obj_style_gen.h **** static inline const lv_style_transition_dsc_t * lv_obj_get_style_transition(const struct _lv_obj_t 
 548:lvgl/src/extra/widgets/tabview/../../../../src/core/lv_obj_style_gen.h **** {
 549:lvgl/src/extra/widgets/tabview/../../../../src/core/lv_obj_style_gen.h ****     lv_style_value_t v = lv_obj_get_style_prop(obj, part, LV_STYLE_TRANSITION);
 550:lvgl/src/extra/widgets/tabview/../../../../src/core/lv_obj_style_gen.h ****     return (const lv_style_transition_dsc_t *)v.ptr;
 551:lvgl/src/extra/widgets/tabview/../../../../src/core/lv_obj_style_gen.h **** }
 552:lvgl/src/extra/widgets/tabview/../../../../src/core/lv_obj_style_gen.h **** 
 553:lvgl/src/extra/widgets/tabview/../../../../src/core/lv_obj_style_gen.h **** static inline lv_blend_mode_t lv_obj_get_style_blend_mode(const struct _lv_obj_t * obj, uint32_t pa
 554:lvgl/src/extra/widgets/tabview/../../../../src/core/lv_obj_style_gen.h **** {
 555:lvgl/src/extra/widgets/tabview/../../../../src/core/lv_obj_style_gen.h ****     lv_style_value_t v = lv_obj_get_style_prop(obj, part, LV_STYLE_BLEND_MODE);
 556:lvgl/src/extra/widgets/tabview/../../../../src/core/lv_obj_style_gen.h ****     return (lv_blend_mode_t)v.num;
 557:lvgl/src/extra/widgets/tabview/../../../../src/core/lv_obj_style_gen.h **** }
 558:lvgl/src/extra/widgets/tabview/../../../../src/core/lv_obj_style_gen.h **** 
 559:lvgl/src/extra/widgets/tabview/../../../../src/core/lv_obj_style_gen.h **** static inline uint16_t lv_obj_get_style_layout(const struct _lv_obj_t * obj, uint32_t part)
 560:lvgl/src/extra/widgets/tabview/../../../../src/core/lv_obj_style_gen.h **** {
 561:lvgl/src/extra/widgets/tabview/../../../../src/core/lv_obj_style_gen.h ****     lv_style_value_t v = lv_obj_get_style_prop(obj, part, LV_STYLE_LAYOUT);
 562:lvgl/src/extra/widgets/tabview/../../../../src/core/lv_obj_style_gen.h ****     return (uint16_t)v.num;
 563:lvgl/src/extra/widgets/tabview/../../../../src/core/lv_obj_style_gen.h **** }
 564:lvgl/src/extra/widgets/tabview/../../../../src/core/lv_obj_style_gen.h **** 
 565:lvgl/src/extra/widgets/tabview/../../../../src/core/lv_obj_style_gen.h **** static inline lv_base_dir_t lv_obj_get_style_base_dir(const struct _lv_obj_t * obj, uint32_t part)
 768              		.loc 2 565 29 view .LVU202
 769              	.LBB24:
 566:lvgl/src/extra/widgets/tabview/../../../../src/core/lv_obj_style_gen.h **** {
 567:lvgl/src/extra/widgets/tabview/../../../../src/core/lv_obj_style_gen.h ****     lv_style_value_t v = lv_obj_get_style_prop(obj, part, LV_STYLE_BASE_DIR);
 770              		.loc 2 567 5 view .LVU203
 771              		.loc 2 567 26 is_stmt 0 view .LVU204
 772 004c 1622     		movs	r2, #22
 773 004e 0021     		movs	r1, #0
 774 0050 2046     		mov	r0, r4
 775 0052 FFF7FEFF 		bl	lv_obj_get_style_prop
 776              	.LVL92:
 568:lvgl/src/extra/widgets/tabview/../../../../src/core/lv_obj_style_gen.h ****     return (lv_base_dir_t)v.num;
 777              		.loc 2 568 5 is_stmt 1 view .LVU205
 778              		.loc 2 568 12 is_stmt 0 view .LVU206
 779 0056 C3B2     		uxtb	r3, r0
 780              	.LVL93:
 781              		.loc 2 568 12 view .LVU207
 782              	.LBE24:
 783              	.LBE23:
 158:lvgl/src/extra/widgets/tabview/lv_tabview.c ****             lv_obj_scroll_to_x(cont, id * (gap + w), anim_en);
 784              		.loc 1 158 11 view .LVU208
 785 0058 012B     		cmp	r3, #1
 786 005a 09D0     		beq	.L47
 159:lvgl/src/extra/widgets/tabview/lv_tabview.c ****         }
 787              		.loc 1 159 13 is_stmt 1 view .LVU209
 159:lvgl/src/extra/widgets/tabview/lv_tabview.c ****         }
 788              		.loc 1 159 48 is_stmt 0 view .LVU210
 789 005c 08EB0901 		add	r1, r8, r9
 159:lvgl/src/extra/widgets/tabview/lv_tabview.c ****         }
 790              		.loc 1 159 13 view .LVU211
 791 0060 11FB05F1 		smulbb	r1, r1, r5
 792 0064 3246     		mov	r2, r6
 793 0066 09B2     		sxth	r1, r1
 794 0068 3846     		mov	r0, r7
 795 006a FFF7FEFF 		bl	lv_obj_scroll_to_x
 796              	.LVL94:
 797 006e 1CE0     		b	.L48
ARM GAS  /var/folders/21/t9g5rlb91ys800n5npymflf80000gn/T//cckp2I4w.s 			page 33


 798              	.L47:
 799              	.LBB25:
 162:lvgl/src/extra/widgets/tabview/lv_tabview.c ****             lv_obj_scroll_to_x(cont, (gap + w) * id_rtl, anim_en);
 800              		.loc 1 162 13 is_stmt 1 view .LVU212
 162:lvgl/src/extra/widgets/tabview/lv_tabview.c ****             lv_obj_scroll_to_x(cont, (gap + w) * id_rtl, anim_en);
 801              		.loc 1 162 21 is_stmt 0 view .LVU213
 802 0070 6B42     		rsbs	r3, r5, #0
 163:lvgl/src/extra/widgets/tabview/lv_tabview.c ****         }
 803              		.loc 1 163 13 is_stmt 1 view .LVU214
 163:lvgl/src/extra/widgets/tabview/lv_tabview.c ****         }
 804              		.loc 1 163 43 is_stmt 0 view .LVU215
 805 0072 08EB0900 		add	r0, r8, r9
 163:lvgl/src/extra/widgets/tabview/lv_tabview.c ****         }
 806              		.loc 1 163 13 view .LVU216
 807 0076 10FB03F1 		smulbb	r1, r0, r3
 808 007a 3246     		mov	r2, r6
 809 007c 09B2     		sxth	r1, r1
 810 007e 3846     		mov	r0, r7
 811 0080 FFF7FEFF 		bl	lv_obj_scroll_to_x
 812              	.LVL95:
 813 0084 11E0     		b	.L48
 814              	.LVL96:
 815              	.L46:
 163:lvgl/src/extra/widgets/tabview/lv_tabview.c ****         }
 816              		.loc 1 163 13 view .LVU217
 817              	.LBE25:
 818              	.LBE20:
 819              	.LBB26:
 167:lvgl/src/extra/widgets/tabview/lv_tabview.c ****         lv_coord_t h = lv_obj_get_content_height(cont);
 820              		.loc 1 167 9 is_stmt 1 view .LVU218
 821              	.LBB27:
 822              	.LBI27:
 127:lvgl/src/extra/widgets/tabview/../../../../src/core/lv_obj_style_gen.h **** {
 823              		.loc 2 127 26 view .LVU219
 824              	.LBB28:
 129:lvgl/src/extra/widgets/tabview/../../../../src/core/lv_obj_style_gen.h ****     return (lv_coord_t)v.num;
 825              		.loc 2 129 5 view .LVU220
 129:lvgl/src/extra/widgets/tabview/../../../../src/core/lv_obj_style_gen.h ****     return (lv_coord_t)v.num;
 826              		.loc 2 129 26 is_stmt 0 view .LVU221
 827 0086 1422     		movs	r2, #20
 828 0088 0021     		movs	r1, #0
 829 008a FFF7FEFF 		bl	lv_obj_get_style_prop
 830              	.LVL97:
 130:lvgl/src/extra/widgets/tabview/../../../../src/core/lv_obj_style_gen.h **** }
 831              		.loc 2 130 5 is_stmt 1 view .LVU222
 130:lvgl/src/extra/widgets/tabview/../../../../src/core/lv_obj_style_gen.h **** }
 832              		.loc 2 130 12 is_stmt 0 view .LVU223
 833 008e 0FFA80F8 		sxth	r8, r0
 834              	.LVL98:
 130:lvgl/src/extra/widgets/tabview/../../../../src/core/lv_obj_style_gen.h **** }
 835              		.loc 2 130 12 view .LVU224
 836              	.LBE28:
 837              	.LBE27:
 168:lvgl/src/extra/widgets/tabview/lv_tabview.c ****         lv_obj_scroll_to_y(cont, id * (gap + h), anim_en);
 838              		.loc 1 168 9 is_stmt 1 view .LVU225
 168:lvgl/src/extra/widgets/tabview/lv_tabview.c ****         lv_obj_scroll_to_y(cont, id * (gap + h), anim_en);
 839              		.loc 1 168 24 is_stmt 0 view .LVU226
ARM GAS  /var/folders/21/t9g5rlb91ys800n5npymflf80000gn/T//cckp2I4w.s 			page 34


 840 0092 3846     		mov	r0, r7
 841 0094 FFF7FEFF 		bl	lv_obj_get_content_height
 842              	.LVL99:
 169:lvgl/src/extra/widgets/tabview/lv_tabview.c ****     }
 843              		.loc 1 169 9 is_stmt 1 view .LVU227
 169:lvgl/src/extra/widgets/tabview/lv_tabview.c ****     }
 844              		.loc 1 169 44 is_stmt 0 view .LVU228
 845 0098 08EB0001 		add	r1, r8, r0
 169:lvgl/src/extra/widgets/tabview/lv_tabview.c ****     }
 846              		.loc 1 169 9 view .LVU229
 847 009c 11FB05F1 		smulbb	r1, r1, r5
 848 00a0 3246     		mov	r2, r6
 849 00a2 09B2     		sxth	r1, r1
 850 00a4 3846     		mov	r0, r7
 851              	.LVL100:
 169:lvgl/src/extra/widgets/tabview/lv_tabview.c ****     }
 852              		.loc 1 169 9 view .LVU230
 853 00a6 FFF7FEFF 		bl	lv_obj_scroll_to_y
 854              	.LVL101:
 855              	.L48:
 169:lvgl/src/extra/widgets/tabview/lv_tabview.c ****     }
 856              		.loc 1 169 9 view .LVU231
 857              	.LBE26:
 172:lvgl/src/extra/widgets/tabview/lv_tabview.c ****     lv_btnmatrix_set_btn_ctrl(btns, id, LV_BTNMATRIX_CTRL_CHECKED);
 858              		.loc 1 172 5 is_stmt 1 view .LVU232
 172:lvgl/src/extra/widgets/tabview/lv_tabview.c ****     lv_btnmatrix_set_btn_ctrl(btns, id, LV_BTNMATRIX_CTRL_CHECKED);
 859              		.loc 1 172 23 is_stmt 0 view .LVU233
 860 00aa 2046     		mov	r0, r4
 861 00ac FFF7FEFF 		bl	lv_tabview_get_tab_btns
 862              	.LVL102:
 173:lvgl/src/extra/widgets/tabview/lv_tabview.c ****     tabview->tab_cur = id;
 863              		.loc 1 173 5 is_stmt 1 view .LVU234
 864 00b0 ADB2     		uxth	r5, r5
 865              	.LVL103:
 173:lvgl/src/extra/widgets/tabview/lv_tabview.c ****     tabview->tab_cur = id;
 866              		.loc 1 173 5 is_stmt 0 view .LVU235
 867 00b2 4FF48072 		mov	r2, #256
 868 00b6 2946     		mov	r1, r5
 869 00b8 FFF7FEFF 		bl	lv_btnmatrix_set_btn_ctrl
 870              	.LVL104:
 174:lvgl/src/extra/widgets/tabview/lv_tabview.c **** }
 871              		.loc 1 174 5 is_stmt 1 view .LVU236
 174:lvgl/src/extra/widgets/tabview/lv_tabview.c **** }
 872              		.loc 1 174 22 is_stmt 0 view .LVU237
 873 00bc 6585     		strh	r5, [r4, #42]	@ movhi
 874              	.LVL105:
 875              	.L43:
 175:lvgl/src/extra/widgets/tabview/lv_tabview.c **** 
 876              		.loc 1 175 1 view .LVU238
 877 00be BDE8F883 		pop	{r3, r4, r5, r6, r7, r8, r9, pc}
 878              		.cfi_endproc
 879              	.LFE207:
 881              		.section	.text.lv_tabview_event,"ax",%progbits
 882              		.align	1
 883              		.syntax unified
 884              		.thumb
 885              		.thumb_func
ARM GAS  /var/folders/21/t9g5rlb91ys800n5npymflf80000gn/T//cckp2I4w.s 			page 35


 887              	lv_tabview_event:
 888              	.LVL106:
 889              	.LFB213:
 290:lvgl/src/extra/widgets/tabview/lv_tabview.c **** 
 291:lvgl/src/extra/widgets/tabview/lv_tabview.c **** static void lv_tabview_event(const lv_obj_class_t * class_p, lv_event_t * e)
 292:lvgl/src/extra/widgets/tabview/lv_tabview.c **** {
 890              		.loc 1 292 1 is_stmt 1 view -0
 891              		.cfi_startproc
 892              		@ args = 0, pretend = 0, frame = 0
 893              		@ frame_needed = 0, uses_anonymous_args = 0
 894              		.loc 1 292 1 is_stmt 0 view .LVU240
 895 0000 38B5     		push	{r3, r4, r5, lr}
 896              	.LCFI7:
 897              		.cfi_def_cfa_offset 16
 898              		.cfi_offset 3, -16
 899              		.cfi_offset 4, -12
 900              		.cfi_offset 5, -8
 901              		.cfi_offset 14, -4
 902 0002 0C46     		mov	r4, r1
 293:lvgl/src/extra/widgets/tabview/lv_tabview.c ****     LV_UNUSED(class_p);
 903              		.loc 1 293 5 is_stmt 1 view .LVU241
 294:lvgl/src/extra/widgets/tabview/lv_tabview.c ****     lv_res_t res = lv_obj_event_base(&lv_tabview_class, e);
 904              		.loc 1 294 5 view .LVU242
 905              		.loc 1 294 20 is_stmt 0 view .LVU243
 906 0004 0B48     		ldr	r0, .L54
 907              	.LVL107:
 908              		.loc 1 294 20 view .LVU244
 909 0006 FFF7FEFF 		bl	lv_obj_event_base
 910              	.LVL108:
 295:lvgl/src/extra/widgets/tabview/lv_tabview.c ****     if(res != LV_RES_OK) return;
 911              		.loc 1 295 5 is_stmt 1 view .LVU245
 912              		.loc 1 295 7 is_stmt 0 view .LVU246
 913 000a 0128     		cmp	r0, #1
 914 000c 00D0     		beq	.L53
 915              	.LVL109:
 916              	.L50:
 296:lvgl/src/extra/widgets/tabview/lv_tabview.c **** 
 297:lvgl/src/extra/widgets/tabview/lv_tabview.c ****     lv_event_code_t code = lv_event_get_code(e);
 298:lvgl/src/extra/widgets/tabview/lv_tabview.c ****     lv_obj_t * target = lv_event_get_target(e);
 299:lvgl/src/extra/widgets/tabview/lv_tabview.c **** 
 300:lvgl/src/extra/widgets/tabview/lv_tabview.c ****     if(code == LV_EVENT_SIZE_CHANGED) {
 301:lvgl/src/extra/widgets/tabview/lv_tabview.c ****         lv_tabview_set_act(target, lv_tabview_get_tab_act(target), LV_ANIM_OFF);
 302:lvgl/src/extra/widgets/tabview/lv_tabview.c ****     }
 303:lvgl/src/extra/widgets/tabview/lv_tabview.c **** }
 917              		.loc 1 303 1 view .LVU247
 918 000e 38BD     		pop	{r3, r4, r5, pc}
 919              	.LVL110:
 920              	.L53:
 297:lvgl/src/extra/widgets/tabview/lv_tabview.c ****     lv_obj_t * target = lv_event_get_target(e);
 921              		.loc 1 297 5 is_stmt 1 view .LVU248
 297:lvgl/src/extra/widgets/tabview/lv_tabview.c ****     lv_obj_t * target = lv_event_get_target(e);
 922              		.loc 1 297 28 is_stmt 0 view .LVU249
 923 0010 2046     		mov	r0, r4
 924              	.LVL111:
 297:lvgl/src/extra/widgets/tabview/lv_tabview.c ****     lv_obj_t * target = lv_event_get_target(e);
 925              		.loc 1 297 28 view .LVU250
 926 0012 FFF7FEFF 		bl	lv_event_get_code
ARM GAS  /var/folders/21/t9g5rlb91ys800n5npymflf80000gn/T//cckp2I4w.s 			page 36


 927              	.LVL112:
 928 0016 0546     		mov	r5, r0
 929              	.LVL113:
 298:lvgl/src/extra/widgets/tabview/lv_tabview.c **** 
 930              		.loc 1 298 5 is_stmt 1 view .LVU251
 298:lvgl/src/extra/widgets/tabview/lv_tabview.c **** 
 931              		.loc 1 298 25 is_stmt 0 view .LVU252
 932 0018 2046     		mov	r0, r4
 933 001a FFF7FEFF 		bl	lv_event_get_target
 934              	.LVL114:
 935 001e 0446     		mov	r4, r0
 936              	.LVL115:
 300:lvgl/src/extra/widgets/tabview/lv_tabview.c ****         lv_tabview_set_act(target, lv_tabview_get_tab_act(target), LV_ANIM_OFF);
 937              		.loc 1 300 5 is_stmt 1 view .LVU253
 300:lvgl/src/extra/widgets/tabview/lv_tabview.c ****         lv_tabview_set_act(target, lv_tabview_get_tab_act(target), LV_ANIM_OFF);
 938              		.loc 1 300 7 is_stmt 0 view .LVU254
 939 0020 292D     		cmp	r5, #41
 940 0022 F4D1     		bne	.L50
 301:lvgl/src/extra/widgets/tabview/lv_tabview.c ****     }
 941              		.loc 1 301 9 is_stmt 1 view .LVU255
 301:lvgl/src/extra/widgets/tabview/lv_tabview.c ****     }
 942              		.loc 1 301 36 is_stmt 0 view .LVU256
 943 0024 FFF7FEFF 		bl	lv_tabview_get_tab_act
 944              	.LVL116:
 301:lvgl/src/extra/widgets/tabview/lv_tabview.c ****     }
 945              		.loc 1 301 36 view .LVU257
 946 0028 0146     		mov	r1, r0
 301:lvgl/src/extra/widgets/tabview/lv_tabview.c ****     }
 947              		.loc 1 301 9 view .LVU258
 948 002a 0022     		movs	r2, #0
 949 002c 2046     		mov	r0, r4
 950 002e FFF7FEFF 		bl	lv_tabview_set_act
 951              	.LVL117:
 952 0032 ECE7     		b	.L50
 953              	.L55:
 954              		.align	2
 955              	.L54:
 956 0034 00000000 		.word	lv_tabview_class
 957              		.cfi_endproc
 958              	.LFE213:
 960              		.section	.text.cont_scroll_end_event_cb,"ax",%progbits
 961              		.align	1
 962              		.syntax unified
 963              		.thumb
 964              		.thumb_func
 966              	cont_scroll_end_event_cb:
 967              	.LVL118:
 968              	.LFB215:
 304:lvgl/src/extra/widgets/tabview/lv_tabview.c **** 
 305:lvgl/src/extra/widgets/tabview/lv_tabview.c **** static void btns_value_changed_event_cb(lv_event_t * e)
 306:lvgl/src/extra/widgets/tabview/lv_tabview.c **** {
 307:lvgl/src/extra/widgets/tabview/lv_tabview.c ****     lv_obj_t * btns = lv_event_get_target(e);
 308:lvgl/src/extra/widgets/tabview/lv_tabview.c **** 
 309:lvgl/src/extra/widgets/tabview/lv_tabview.c ****     lv_obj_t * tv = lv_obj_get_parent(btns);
 310:lvgl/src/extra/widgets/tabview/lv_tabview.c ****     uint32_t id = lv_btnmatrix_get_selected_btn(btns);
 311:lvgl/src/extra/widgets/tabview/lv_tabview.c ****     lv_tabview_set_act(tv, id, LV_ANIM_OFF);
 312:lvgl/src/extra/widgets/tabview/lv_tabview.c **** }
ARM GAS  /var/folders/21/t9g5rlb91ys800n5npymflf80000gn/T//cckp2I4w.s 			page 37


 313:lvgl/src/extra/widgets/tabview/lv_tabview.c **** 
 314:lvgl/src/extra/widgets/tabview/lv_tabview.c **** static void cont_scroll_end_event_cb(lv_event_t * e)
 315:lvgl/src/extra/widgets/tabview/lv_tabview.c **** {
 969              		.loc 1 315 1 is_stmt 1 view -0
 970              		.cfi_startproc
 971              		@ args = 0, pretend = 0, frame = 8
 972              		@ frame_needed = 0, uses_anonymous_args = 0
 973              		.loc 1 315 1 is_stmt 0 view .LVU260
 974 0000 70B5     		push	{r4, r5, r6, lr}
 975              	.LCFI8:
 976              		.cfi_def_cfa_offset 16
 977              		.cfi_offset 4, -16
 978              		.cfi_offset 5, -12
 979              		.cfi_offset 6, -8
 980              		.cfi_offset 14, -4
 981 0002 82B0     		sub	sp, sp, #8
 982              	.LCFI9:
 983              		.cfi_def_cfa_offset 24
 984 0004 0446     		mov	r4, r0
 316:lvgl/src/extra/widgets/tabview/lv_tabview.c ****     lv_obj_t * cont = lv_event_get_target(e);
 985              		.loc 1 316 5 is_stmt 1 view .LVU261
 986              		.loc 1 316 23 is_stmt 0 view .LVU262
 987 0006 FFF7FEFF 		bl	lv_event_get_target
 988              	.LVL119:
 989              		.loc 1 316 23 view .LVU263
 990 000a 0546     		mov	r5, r0
 991              	.LVL120:
 317:lvgl/src/extra/widgets/tabview/lv_tabview.c ****     lv_event_code_t code = lv_event_get_code(e);
 992              		.loc 1 317 5 is_stmt 1 view .LVU264
 993              		.loc 1 317 28 is_stmt 0 view .LVU265
 994 000c 2046     		mov	r0, r4
 995              	.LVL121:
 996              		.loc 1 317 28 view .LVU266
 997 000e FFF7FEFF 		bl	lv_event_get_code
 998              	.LVL122:
 999 0012 0446     		mov	r4, r0
 1000              	.LVL123:
 318:lvgl/src/extra/widgets/tabview/lv_tabview.c **** 
 319:lvgl/src/extra/widgets/tabview/lv_tabview.c ****     lv_obj_t * tv = lv_obj_get_parent(cont);
 1001              		.loc 1 319 5 is_stmt 1 view .LVU267
 1002              		.loc 1 319 21 is_stmt 0 view .LVU268
 1003 0014 2846     		mov	r0, r5
 1004 0016 FFF7FEFF 		bl	lv_obj_get_parent
 1005              	.LVL124:
 1006 001a 0646     		mov	r6, r0
 1007              	.LVL125:
 320:lvgl/src/extra/widgets/tabview/lv_tabview.c ****     lv_tabview_t * tv_obj = (lv_tabview_t *)tv;
 1008              		.loc 1 320 5 is_stmt 1 view .LVU269
 321:lvgl/src/extra/widgets/tabview/lv_tabview.c ****     if(code == LV_EVENT_LAYOUT_CHANGED) {
 1009              		.loc 1 321 5 view .LVU270
 1010              		.loc 1 321 7 is_stmt 0 view .LVU271
 1011 001c 2B2C     		cmp	r4, #43
 1012 001e 03D0     		beq	.L69
 322:lvgl/src/extra/widgets/tabview/lv_tabview.c ****         lv_tabview_set_act(tv, lv_tabview_get_tab_act(tv), LV_ANIM_OFF);
 323:lvgl/src/extra/widgets/tabview/lv_tabview.c ****     }
 324:lvgl/src/extra/widgets/tabview/lv_tabview.c ****     else if(code == LV_EVENT_SCROLL_END) {
 1013              		.loc 1 324 10 is_stmt 1 view .LVU272
ARM GAS  /var/folders/21/t9g5rlb91ys800n5npymflf80000gn/T//cckp2I4w.s 			page 38


 1014              		.loc 1 324 12 is_stmt 0 view .LVU273
 1015 0020 0A2C     		cmp	r4, #10
 1016 0022 09D0     		beq	.L70
 1017              	.LVL126:
 1018              	.L56:
 325:lvgl/src/extra/widgets/tabview/lv_tabview.c ****         lv_indev_t * indev = lv_indev_get_act();
 326:lvgl/src/extra/widgets/tabview/lv_tabview.c ****         if(indev && indev->proc.state == LV_INDEV_STATE_PRESSED) {
 327:lvgl/src/extra/widgets/tabview/lv_tabview.c ****             return;
 328:lvgl/src/extra/widgets/tabview/lv_tabview.c ****         }
 329:lvgl/src/extra/widgets/tabview/lv_tabview.c **** 
 330:lvgl/src/extra/widgets/tabview/lv_tabview.c ****         lv_point_t p;
 331:lvgl/src/extra/widgets/tabview/lv_tabview.c ****         lv_obj_get_scroll_end(cont, &p);
 332:lvgl/src/extra/widgets/tabview/lv_tabview.c **** 
 333:lvgl/src/extra/widgets/tabview/lv_tabview.c ****         lv_coord_t t;
 334:lvgl/src/extra/widgets/tabview/lv_tabview.c ****         if((tv_obj->tab_pos & LV_DIR_VER) != 0) {
 335:lvgl/src/extra/widgets/tabview/lv_tabview.c ****             lv_coord_t w = lv_obj_get_content_width(cont);
 336:lvgl/src/extra/widgets/tabview/lv_tabview.c ****             if(lv_obj_get_style_base_dir(tv, LV_PART_MAIN) == LV_BASE_DIR_RTL)  t = -(p.x - w / 2) 
 337:lvgl/src/extra/widgets/tabview/lv_tabview.c ****             else t = (p.x + w / 2) / w;
 338:lvgl/src/extra/widgets/tabview/lv_tabview.c ****         }
 339:lvgl/src/extra/widgets/tabview/lv_tabview.c ****         else {
 340:lvgl/src/extra/widgets/tabview/lv_tabview.c ****             lv_coord_t h = lv_obj_get_content_height(cont);
 341:lvgl/src/extra/widgets/tabview/lv_tabview.c ****             t = (p.y + h / 2) / h;
 342:lvgl/src/extra/widgets/tabview/lv_tabview.c ****         }
 343:lvgl/src/extra/widgets/tabview/lv_tabview.c **** 
 344:lvgl/src/extra/widgets/tabview/lv_tabview.c ****         if(t < 0) t = 0;
 345:lvgl/src/extra/widgets/tabview/lv_tabview.c ****         bool new_tab = false;
 346:lvgl/src/extra/widgets/tabview/lv_tabview.c ****         if(t != lv_tabview_get_tab_act(tv)) new_tab = true;
 347:lvgl/src/extra/widgets/tabview/lv_tabview.c ****         lv_tabview_set_act(tv, t, LV_ANIM_ON);
 348:lvgl/src/extra/widgets/tabview/lv_tabview.c **** 
 349:lvgl/src/extra/widgets/tabview/lv_tabview.c ****         if(new_tab) lv_event_send(tv, LV_EVENT_VALUE_CHANGED, NULL);
 350:lvgl/src/extra/widgets/tabview/lv_tabview.c ****     }
 351:lvgl/src/extra/widgets/tabview/lv_tabview.c **** }
 1019              		.loc 1 351 1 view .LVU274
 1020 0024 02B0     		add	sp, sp, #8
 1021              	.LCFI10:
 1022              		.cfi_remember_state
 1023              		.cfi_def_cfa_offset 16
 1024              		@ sp needed
 1025 0026 70BD     		pop	{r4, r5, r6, pc}
 1026              	.LVL127:
 1027              	.L69:
 1028              	.LCFI11:
 1029              		.cfi_restore_state
 322:lvgl/src/extra/widgets/tabview/lv_tabview.c ****         lv_tabview_set_act(tv, lv_tabview_get_tab_act(tv), LV_ANIM_OFF);
 1030              		.loc 1 322 9 is_stmt 1 view .LVU275
 322:lvgl/src/extra/widgets/tabview/lv_tabview.c ****         lv_tabview_set_act(tv, lv_tabview_get_tab_act(tv), LV_ANIM_OFF);
 1031              		.loc 1 322 32 is_stmt 0 view .LVU276
 1032 0028 FFF7FEFF 		bl	lv_tabview_get_tab_act
 1033              	.LVL128:
 322:lvgl/src/extra/widgets/tabview/lv_tabview.c ****         lv_tabview_set_act(tv, lv_tabview_get_tab_act(tv), LV_ANIM_OFF);
 1034              		.loc 1 322 32 view .LVU277
 1035 002c 0146     		mov	r1, r0
 322:lvgl/src/extra/widgets/tabview/lv_tabview.c ****         lv_tabview_set_act(tv, lv_tabview_get_tab_act(tv), LV_ANIM_OFF);
 1036              		.loc 1 322 9 view .LVU278
 1037 002e 0022     		movs	r2, #0
 1038 0030 3046     		mov	r0, r6
 1039 0032 FFF7FEFF 		bl	lv_tabview_set_act
ARM GAS  /var/folders/21/t9g5rlb91ys800n5npymflf80000gn/T//cckp2I4w.s 			page 39


 1040              	.LVL129:
 1041 0036 F5E7     		b	.L56
 1042              	.LVL130:
 1043              	.L70:
 1044              	.LBB29:
 325:lvgl/src/extra/widgets/tabview/lv_tabview.c ****         lv_indev_t * indev = lv_indev_get_act();
 1045              		.loc 1 325 9 is_stmt 1 view .LVU279
 325:lvgl/src/extra/widgets/tabview/lv_tabview.c ****         lv_indev_t * indev = lv_indev_get_act();
 1046              		.loc 1 325 30 is_stmt 0 view .LVU280
 1047 0038 FFF7FEFF 		bl	lv_indev_get_act
 1048              	.LVL131:
 326:lvgl/src/extra/widgets/tabview/lv_tabview.c ****             return;
 1049              		.loc 1 326 9 is_stmt 1 view .LVU281
 326:lvgl/src/extra/widgets/tabview/lv_tabview.c ****             return;
 1050              		.loc 1 326 11 is_stmt 0 view .LVU282
 1051 003c 10B1     		cbz	r0, .L59
 326:lvgl/src/extra/widgets/tabview/lv_tabview.c ****             return;
 1052              		.loc 1 326 32 discriminator 1 view .LVU283
 1053 003e 0379     		ldrb	r3, [r0, #4]	@ zero_extendqisi2
 326:lvgl/src/extra/widgets/tabview/lv_tabview.c ****             return;
 1054              		.loc 1 326 18 discriminator 1 view .LVU284
 1055 0040 012B     		cmp	r3, #1
 1056 0042 EFD0     		beq	.L56
 1057              	.L59:
 330:lvgl/src/extra/widgets/tabview/lv_tabview.c ****         lv_obj_get_scroll_end(cont, &p);
 1058              		.loc 1 330 9 is_stmt 1 view .LVU285
 331:lvgl/src/extra/widgets/tabview/lv_tabview.c **** 
 1059              		.loc 1 331 9 view .LVU286
 1060 0044 01A9     		add	r1, sp, #4
 1061 0046 2846     		mov	r0, r5
 1062              	.LVL132:
 331:lvgl/src/extra/widgets/tabview/lv_tabview.c **** 
 1063              		.loc 1 331 9 is_stmt 0 view .LVU287
 1064 0048 FFF7FEFF 		bl	lv_obj_get_scroll_end
 1065              	.LVL133:
 333:lvgl/src/extra/widgets/tabview/lv_tabview.c ****         if((tv_obj->tab_pos & LV_DIR_VER) != 0) {
 1066              		.loc 1 333 9 is_stmt 1 view .LVU288
 334:lvgl/src/extra/widgets/tabview/lv_tabview.c ****             lv_coord_t w = lv_obj_get_content_width(cont);
 1067              		.loc 1 334 9 view .LVU289
 334:lvgl/src/extra/widgets/tabview/lv_tabview.c ****             lv_coord_t w = lv_obj_get_content_width(cont);
 1068              		.loc 1 334 19 is_stmt 0 view .LVU290
 1069 004c 96F82C30 		ldrb	r3, [r6, #44]	@ zero_extendqisi2
 334:lvgl/src/extra/widgets/tabview/lv_tabview.c ****             lv_coord_t w = lv_obj_get_content_width(cont);
 1070              		.loc 1 334 11 view .LVU291
 1071 0050 13F00C0F 		tst	r3, #12
 1072 0054 21D0     		beq	.L60
 1073              	.LBB30:
 335:lvgl/src/extra/widgets/tabview/lv_tabview.c ****             if(lv_obj_get_style_base_dir(tv, LV_PART_MAIN) == LV_BASE_DIR_RTL)  t = -(p.x - w / 2) 
 1074              		.loc 1 335 13 is_stmt 1 view .LVU292
 335:lvgl/src/extra/widgets/tabview/lv_tabview.c ****             if(lv_obj_get_style_base_dir(tv, LV_PART_MAIN) == LV_BASE_DIR_RTL)  t = -(p.x - w / 2) 
 1075              		.loc 1 335 28 is_stmt 0 view .LVU293
 1076 0056 2846     		mov	r0, r5
 1077 0058 FFF7FEFF 		bl	lv_obj_get_content_width
 1078              	.LVL134:
 1079 005c 0546     		mov	r5, r0
 1080              	.LVL135:
 336:lvgl/src/extra/widgets/tabview/lv_tabview.c ****             else t = (p.x + w / 2) / w;
ARM GAS  /var/folders/21/t9g5rlb91ys800n5npymflf80000gn/T//cckp2I4w.s 			page 40


 1081              		.loc 1 336 13 is_stmt 1 view .LVU294
 1082              	.LBB31:
 1083              	.LBI31:
 565:lvgl/src/extra/widgets/tabview/../../../../src/core/lv_obj_style_gen.h **** {
 1084              		.loc 2 565 29 view .LVU295
 1085              	.LBB32:
 567:lvgl/src/extra/widgets/tabview/../../../../src/core/lv_obj_style_gen.h ****     return (lv_base_dir_t)v.num;
 1086              		.loc 2 567 5 view .LVU296
 567:lvgl/src/extra/widgets/tabview/../../../../src/core/lv_obj_style_gen.h ****     return (lv_base_dir_t)v.num;
 1087              		.loc 2 567 26 is_stmt 0 view .LVU297
 1088 005e 1622     		movs	r2, #22
 1089 0060 0021     		movs	r1, #0
 1090 0062 3046     		mov	r0, r6
 1091 0064 FFF7FEFF 		bl	lv_obj_get_style_prop
 1092              	.LVL136:
 1093              		.loc 2 568 5 is_stmt 1 view .LVU298
 1094              		.loc 2 568 12 is_stmt 0 view .LVU299
 1095 0068 C0B2     		uxtb	r0, r0
 1096              	.LVL137:
 1097              		.loc 2 568 12 view .LVU300
 1098              	.LBE32:
 1099              	.LBE31:
 336:lvgl/src/extra/widgets/tabview/lv_tabview.c ****             else t = (p.x + w / 2) / w;
 1100              		.loc 1 336 15 view .LVU301
 1101 006a 0128     		cmp	r0, #1
 1102 006c 0AD0     		beq	.L71
 337:lvgl/src/extra/widgets/tabview/lv_tabview.c ****         }
 1103              		.loc 1 337 18 is_stmt 1 view .LVU302
 337:lvgl/src/extra/widgets/tabview/lv_tabview.c ****         }
 1104              		.loc 1 337 24 is_stmt 0 view .LVU303
 1105 006e BDF90440 		ldrsh	r4, [sp, #4]
 1106              	.LVL138:
 337:lvgl/src/extra/widgets/tabview/lv_tabview.c ****         }
 1107              		.loc 1 337 31 view .LVU304
 1108 0072 05EBD573 		add	r3, r5, r5, lsr #31
 1109 0076 43F34F03 		sbfx	r3, r3, #1, #16
 337:lvgl/src/extra/widgets/tabview/lv_tabview.c ****         }
 1110              		.loc 1 337 27 view .LVU305
 1111 007a 1C44     		add	r4, r4, r3
 337:lvgl/src/extra/widgets/tabview/lv_tabview.c ****         }
 1112              		.loc 1 337 36 view .LVU306
 1113 007c 94FBF5F4 		sdiv	r4, r4, r5
 337:lvgl/src/extra/widgets/tabview/lv_tabview.c ****         }
 1114              		.loc 1 337 20 view .LVU307
 1115 0080 24B2     		sxth	r4, r4
 1116              	.LVL139:
 337:lvgl/src/extra/widgets/tabview/lv_tabview.c ****         }
 1117              		.loc 1 337 20 view .LVU308
 1118 0082 17E0     		b	.L62
 1119              	.LVL140:
 1120              	.L71:
 336:lvgl/src/extra/widgets/tabview/lv_tabview.c ****             else t = (p.x + w / 2) / w;
 1121              		.loc 1 336 81 is_stmt 1 discriminator 1 view .LVU309
 336:lvgl/src/extra/widgets/tabview/lv_tabview.c ****             else t = (p.x + w / 2) / w;
 1122              		.loc 1 336 95 is_stmt 0 discriminator 1 view .LVU310
 1123 0084 05EBD574 		add	r4, r5, r5, lsr #31
 1124              	.LVL141:
ARM GAS  /var/folders/21/t9g5rlb91ys800n5npymflf80000gn/T//cckp2I4w.s 			page 41


 336:lvgl/src/extra/widgets/tabview/lv_tabview.c ****             else t = (p.x + w / 2) / w;
 1125              		.loc 1 336 95 discriminator 1 view .LVU311
 1126 0088 44F34F04 		sbfx	r4, r4, #1, #16
 336:lvgl/src/extra/widgets/tabview/lv_tabview.c ****             else t = (p.x + w / 2) / w;
 1127              		.loc 1 336 88 discriminator 1 view .LVU312
 1128 008c BDF90430 		ldrsh	r3, [sp, #4]
 336:lvgl/src/extra/widgets/tabview/lv_tabview.c ****             else t = (p.x + w / 2) / w;
 1129              		.loc 1 336 85 discriminator 1 view .LVU313
 1130 0090 E41A     		subs	r4, r4, r3
 336:lvgl/src/extra/widgets/tabview/lv_tabview.c ****             else t = (p.x + w / 2) / w;
 1131              		.loc 1 336 100 discriminator 1 view .LVU314
 1132 0092 94FBF5F0 		sdiv	r0, r4, r5
 336:lvgl/src/extra/widgets/tabview/lv_tabview.c ****             else t = (p.x + w / 2) / w;
 1133              		.loc 1 336 83 discriminator 1 view .LVU315
 1134 0096 04B2     		sxth	r4, r0
 1135              	.LVL142:
 336:lvgl/src/extra/widgets/tabview/lv_tabview.c ****             else t = (p.x + w / 2) / w;
 1136              		.loc 1 336 83 discriminator 1 view .LVU316
 1137 0098 0CE0     		b	.L62
 1138              	.LVL143:
 1139              	.L60:
 336:lvgl/src/extra/widgets/tabview/lv_tabview.c ****             else t = (p.x + w / 2) / w;
 1140              		.loc 1 336 83 discriminator 1 view .LVU317
 1141              	.LBE30:
 1142              	.LBB33:
 340:lvgl/src/extra/widgets/tabview/lv_tabview.c ****             t = (p.y + h / 2) / h;
 1143              		.loc 1 340 13 is_stmt 1 view .LVU318
 340:lvgl/src/extra/widgets/tabview/lv_tabview.c ****             t = (p.y + h / 2) / h;
 1144              		.loc 1 340 28 is_stmt 0 view .LVU319
 1145 009a 2846     		mov	r0, r5
 1146 009c FFF7FEFF 		bl	lv_obj_get_content_height
 1147              	.LVL144:
 341:lvgl/src/extra/widgets/tabview/lv_tabview.c ****         }
 1148              		.loc 1 341 13 is_stmt 1 view .LVU320
 341:lvgl/src/extra/widgets/tabview/lv_tabview.c ****         }
 1149              		.loc 1 341 19 is_stmt 0 view .LVU321
 1150 00a0 BDF90640 		ldrsh	r4, [sp, #6]
 1151              	.LVL145:
 341:lvgl/src/extra/widgets/tabview/lv_tabview.c ****         }
 1152              		.loc 1 341 26 view .LVU322
 1153 00a4 00EBD073 		add	r3, r0, r0, lsr #31
 1154 00a8 43F34F03 		sbfx	r3, r3, #1, #16
 341:lvgl/src/extra/widgets/tabview/lv_tabview.c ****         }
 1155              		.loc 1 341 22 view .LVU323
 1156 00ac 1C44     		add	r4, r4, r3
 341:lvgl/src/extra/widgets/tabview/lv_tabview.c ****         }
 1157              		.loc 1 341 31 view .LVU324
 1158 00ae 94FBF0F4 		sdiv	r4, r4, r0
 341:lvgl/src/extra/widgets/tabview/lv_tabview.c ****         }
 1159              		.loc 1 341 15 view .LVU325
 1160 00b2 24B2     		sxth	r4, r4
 1161              	.LVL146:
 1162              	.L62:
 341:lvgl/src/extra/widgets/tabview/lv_tabview.c ****         }
 1163              		.loc 1 341 15 view .LVU326
 1164              	.LBE33:
 344:lvgl/src/extra/widgets/tabview/lv_tabview.c ****         bool new_tab = false;
ARM GAS  /var/folders/21/t9g5rlb91ys800n5npymflf80000gn/T//cckp2I4w.s 			page 42


 1165              		.loc 1 344 9 is_stmt 1 view .LVU327
 344:lvgl/src/extra/widgets/tabview/lv_tabview.c ****         bool new_tab = false;
 1166              		.loc 1 344 11 is_stmt 0 view .LVU328
 1167 00b4 002C     		cmp	r4, #0
 1168 00b6 12DB     		blt	.L72
 1169              	.LVL147:
 1170              	.L63:
 345:lvgl/src/extra/widgets/tabview/lv_tabview.c ****         if(t != lv_tabview_get_tab_act(tv)) new_tab = true;
 1171              		.loc 1 345 9 is_stmt 1 view .LVU329
 346:lvgl/src/extra/widgets/tabview/lv_tabview.c ****         lv_tabview_set_act(tv, t, LV_ANIM_ON);
 1172              		.loc 1 346 9 view .LVU330
 346:lvgl/src/extra/widgets/tabview/lv_tabview.c ****         lv_tabview_set_act(tv, t, LV_ANIM_ON);
 1173              		.loc 1 346 17 is_stmt 0 view .LVU331
 1174 00b8 3046     		mov	r0, r6
 1175 00ba FFF7FEFF 		bl	lv_tabview_get_tab_act
 1176              	.LVL148:
 346:lvgl/src/extra/widgets/tabview/lv_tabview.c ****         lv_tabview_set_act(tv, t, LV_ANIM_ON);
 1177              		.loc 1 346 11 view .LVU332
 1178 00be 8442     		cmp	r4, r0
 1179 00c0 0FD0     		beq	.L73
 346:lvgl/src/extra/widgets/tabview/lv_tabview.c ****         lv_tabview_set_act(tv, t, LV_ANIM_ON);
 1180              		.loc 1 346 53 view .LVU333
 1181 00c2 0125     		movs	r5, #1
 1182              	.L64:
 1183              	.LVL149:
 347:lvgl/src/extra/widgets/tabview/lv_tabview.c **** 
 1184              		.loc 1 347 9 is_stmt 1 view .LVU334
 1185 00c4 0122     		movs	r2, #1
 1186 00c6 2146     		mov	r1, r4
 1187 00c8 3046     		mov	r0, r6
 1188 00ca FFF7FEFF 		bl	lv_tabview_set_act
 1189              	.LVL150:
 349:lvgl/src/extra/widgets/tabview/lv_tabview.c ****     }
 1190              		.loc 1 349 9 view .LVU335
 349:lvgl/src/extra/widgets/tabview/lv_tabview.c ****     }
 1191              		.loc 1 349 11 is_stmt 0 view .LVU336
 1192 00ce 002D     		cmp	r5, #0
 1193 00d0 A8D0     		beq	.L56
 349:lvgl/src/extra/widgets/tabview/lv_tabview.c ****     }
 1194              		.loc 1 349 21 is_stmt 1 discriminator 1 view .LVU337
 1195 00d2 0022     		movs	r2, #0
 1196 00d4 1C21     		movs	r1, #28
 1197 00d6 3046     		mov	r0, r6
 1198 00d8 FFF7FEFF 		bl	lv_event_send
 1199              	.LVL151:
 1200 00dc A2E7     		b	.L56
 1201              	.LVL152:
 1202              	.L72:
 344:lvgl/src/extra/widgets/tabview/lv_tabview.c ****         bool new_tab = false;
 1203              		.loc 1 344 21 is_stmt 0 view .LVU338
 1204 00de 0024     		movs	r4, #0
 1205              	.LVL153:
 344:lvgl/src/extra/widgets/tabview/lv_tabview.c ****         bool new_tab = false;
 1206              		.loc 1 344 21 view .LVU339
 1207 00e0 EAE7     		b	.L63
 1208              	.LVL154:
 1209              	.L73:
ARM GAS  /var/folders/21/t9g5rlb91ys800n5npymflf80000gn/T//cckp2I4w.s 			page 43


 345:lvgl/src/extra/widgets/tabview/lv_tabview.c ****         if(t != lv_tabview_get_tab_act(tv)) new_tab = true;
 1210              		.loc 1 345 14 view .LVU340
 1211 00e2 0025     		movs	r5, #0
 1212 00e4 EEE7     		b	.L64
 1213              	.LBE29:
 1214              		.cfi_endproc
 1215              	.LFE215:
 1217              		.section	.text.btns_value_changed_event_cb,"ax",%progbits
 1218              		.align	1
 1219              		.syntax unified
 1220              		.thumb
 1221              		.thumb_func
 1223              	btns_value_changed_event_cb:
 1224              	.LVL155:
 1225              	.LFB214:
 306:lvgl/src/extra/widgets/tabview/lv_tabview.c ****     lv_obj_t * btns = lv_event_get_target(e);
 1226              		.loc 1 306 1 is_stmt 1 view -0
 1227              		.cfi_startproc
 1228              		@ args = 0, pretend = 0, frame = 0
 1229              		@ frame_needed = 0, uses_anonymous_args = 0
 306:lvgl/src/extra/widgets/tabview/lv_tabview.c ****     lv_obj_t * btns = lv_event_get_target(e);
 1230              		.loc 1 306 1 is_stmt 0 view .LVU342
 1231 0000 38B5     		push	{r3, r4, r5, lr}
 1232              	.LCFI12:
 1233              		.cfi_def_cfa_offset 16
 1234              		.cfi_offset 3, -16
 1235              		.cfi_offset 4, -12
 1236              		.cfi_offset 5, -8
 1237              		.cfi_offset 14, -4
 307:lvgl/src/extra/widgets/tabview/lv_tabview.c **** 
 1238              		.loc 1 307 5 is_stmt 1 view .LVU343
 307:lvgl/src/extra/widgets/tabview/lv_tabview.c **** 
 1239              		.loc 1 307 23 is_stmt 0 view .LVU344
 1240 0002 FFF7FEFF 		bl	lv_event_get_target
 1241              	.LVL156:
 307:lvgl/src/extra/widgets/tabview/lv_tabview.c **** 
 1242              		.loc 1 307 23 view .LVU345
 1243 0006 0546     		mov	r5, r0
 1244              	.LVL157:
 309:lvgl/src/extra/widgets/tabview/lv_tabview.c ****     uint32_t id = lv_btnmatrix_get_selected_btn(btns);
 1245              		.loc 1 309 5 is_stmt 1 view .LVU346
 309:lvgl/src/extra/widgets/tabview/lv_tabview.c ****     uint32_t id = lv_btnmatrix_get_selected_btn(btns);
 1246              		.loc 1 309 21 is_stmt 0 view .LVU347
 1247 0008 FFF7FEFF 		bl	lv_obj_get_parent
 1248              	.LVL158:
 309:lvgl/src/extra/widgets/tabview/lv_tabview.c ****     uint32_t id = lv_btnmatrix_get_selected_btn(btns);
 1249              		.loc 1 309 21 view .LVU348
 1250 000c 0446     		mov	r4, r0
 1251              	.LVL159:
 310:lvgl/src/extra/widgets/tabview/lv_tabview.c ****     lv_tabview_set_act(tv, id, LV_ANIM_OFF);
 1252              		.loc 1 310 5 is_stmt 1 view .LVU349
 310:lvgl/src/extra/widgets/tabview/lv_tabview.c ****     lv_tabview_set_act(tv, id, LV_ANIM_OFF);
 1253              		.loc 1 310 19 is_stmt 0 view .LVU350
 1254 000e 2846     		mov	r0, r5
 1255              	.LVL160:
 310:lvgl/src/extra/widgets/tabview/lv_tabview.c ****     lv_tabview_set_act(tv, id, LV_ANIM_OFF);
 1256              		.loc 1 310 19 view .LVU351
ARM GAS  /var/folders/21/t9g5rlb91ys800n5npymflf80000gn/T//cckp2I4w.s 			page 44


 1257 0010 FFF7FEFF 		bl	lv_btnmatrix_get_selected_btn
 1258              	.LVL161:
 1259 0014 0146     		mov	r1, r0
 1260              	.LVL162:
 311:lvgl/src/extra/widgets/tabview/lv_tabview.c **** }
 1261              		.loc 1 311 5 is_stmt 1 view .LVU352
 1262 0016 0022     		movs	r2, #0
 1263 0018 2046     		mov	r0, r4
 1264              	.LVL163:
 311:lvgl/src/extra/widgets/tabview/lv_tabview.c **** }
 1265              		.loc 1 311 5 is_stmt 0 view .LVU353
 1266 001a FFF7FEFF 		bl	lv_tabview_set_act
 1267              	.LVL164:
 312:lvgl/src/extra/widgets/tabview/lv_tabview.c **** 
 1268              		.loc 1 312 1 view .LVU354
 1269 001e 38BD     		pop	{r3, r4, r5, pc}
 312:lvgl/src/extra/widgets/tabview/lv_tabview.c **** 
 1270              		.loc 1 312 1 view .LVU355
 1271              		.cfi_endproc
 1272              	.LFE214:
 1274              		.section	.rodata.lv_tabview_add_tab.str1.4,"aMS",%progbits,1
 1275              		.align	2
 1276              	.LC1:
 1277 0000 0A00     		.ascii	"\012\000"
 1278              		.section	.text.lv_tabview_add_tab,"ax",%progbits
 1279              		.align	1
 1280              		.global	lv_tabview_add_tab
 1281              		.syntax unified
 1282              		.thumb
 1283              		.thumb_func
 1285              	lv_tabview_add_tab:
 1286              	.LVL165:
 1287              	.LFB205:
  68:lvgl/src/extra/widgets/tabview/lv_tabview.c ****     LV_ASSERT_OBJ(obj, MY_CLASS);
 1288              		.loc 1 68 1 is_stmt 1 view -0
 1289              		.cfi_startproc
 1290              		@ args = 0, pretend = 0, frame = 0
 1291              		@ frame_needed = 0, uses_anonymous_args = 0
  68:lvgl/src/extra/widgets/tabview/lv_tabview.c ****     LV_ASSERT_OBJ(obj, MY_CLASS);
 1292              		.loc 1 68 1 is_stmt 0 view .LVU357
 1293 0000 2DE9F84F 		push	{r3, r4, r5, r6, r7, r8, r9, r10, fp, lr}
 1294              	.LCFI13:
 1295              		.cfi_def_cfa_offset 40
 1296              		.cfi_offset 3, -40
 1297              		.cfi_offset 4, -36
 1298              		.cfi_offset 5, -32
 1299              		.cfi_offset 6, -28
 1300              		.cfi_offset 7, -24
 1301              		.cfi_offset 8, -20
 1302              		.cfi_offset 9, -16
 1303              		.cfi_offset 10, -12
 1304              		.cfi_offset 11, -8
 1305              		.cfi_offset 14, -4
 1306 0004 0446     		mov	r4, r0
 1307 0006 8946     		mov	r9, r1
  69:lvgl/src/extra/widgets/tabview/lv_tabview.c ****     lv_tabview_t * tabview = (lv_tabview_t *)obj;
 1308              		.loc 1 69 5 is_stmt 1 view .LVU358
ARM GAS  /var/folders/21/t9g5rlb91ys800n5npymflf80000gn/T//cckp2I4w.s 			page 45


  69:lvgl/src/extra/widgets/tabview/lv_tabview.c ****     lv_tabview_t * tabview = (lv_tabview_t *)obj;
 1309              		.loc 1 69 5 view .LVU359
  69:lvgl/src/extra/widgets/tabview/lv_tabview.c ****     lv_tabview_t * tabview = (lv_tabview_t *)obj;
 1310              		.loc 1 69 5 view .LVU360
  70:lvgl/src/extra/widgets/tabview/lv_tabview.c ****     lv_obj_t * cont = lv_tabview_get_content(obj);
 1311              		.loc 1 70 5 view .LVU361
 1312              	.LVL166:
  71:lvgl/src/extra/widgets/tabview/lv_tabview.c **** 
 1313              		.loc 1 71 5 view .LVU362
  71:lvgl/src/extra/widgets/tabview/lv_tabview.c **** 
 1314              		.loc 1 71 23 is_stmt 0 view .LVU363
 1315 0008 FFF7FEFF 		bl	lv_tabview_get_content
 1316              	.LVL167:
  71:lvgl/src/extra/widgets/tabview/lv_tabview.c **** 
 1317              		.loc 1 71 23 view .LVU364
 1318 000c 0546     		mov	r5, r0
 1319              	.LVL168:
  73:lvgl/src/extra/widgets/tabview/lv_tabview.c ****     lv_obj_set_size(page, LV_PCT(100), LV_PCT(100));
 1320              		.loc 1 73 5 is_stmt 1 view .LVU365
  73:lvgl/src/extra/widgets/tabview/lv_tabview.c ****     lv_obj_set_size(page, LV_PCT(100), LV_PCT(100));
 1321              		.loc 1 73 23 is_stmt 0 view .LVU366
 1322 000e FFF7FEFF 		bl	lv_obj_create
 1323              	.LVL169:
  73:lvgl/src/extra/widgets/tabview/lv_tabview.c ****     lv_obj_set_size(page, LV_PCT(100), LV_PCT(100));
 1324              		.loc 1 73 23 view .LVU367
 1325 0012 8046     		mov	r8, r0
 1326              	.LVL170:
  74:lvgl/src/extra/widgets/tabview/lv_tabview.c ****     lv_obj_clear_flag(page, LV_OBJ_FLAG_CLICK_FOCUSABLE);
 1327              		.loc 1 74 5 is_stmt 1 view .LVU368
 1328 0014 42F26402 		movw	r2, #8292
 1329 0018 1146     		mov	r1, r2
 1330 001a FFF7FEFF 		bl	lv_obj_set_size
 1331              	.LVL171:
  75:lvgl/src/extra/widgets/tabview/lv_tabview.c ****     uint32_t tab_id = lv_obj_get_child_cnt(cont);
 1332              		.loc 1 75 5 view .LVU369
 1333 001e 0421     		movs	r1, #4
 1334 0020 4046     		mov	r0, r8
 1335 0022 FFF7FEFF 		bl	lv_obj_clear_flag
 1336              	.LVL172:
  76:lvgl/src/extra/widgets/tabview/lv_tabview.c **** 
 1337              		.loc 1 76 5 view .LVU370
  76:lvgl/src/extra/widgets/tabview/lv_tabview.c **** 
 1338              		.loc 1 76 23 is_stmt 0 view .LVU371
 1339 0026 2846     		mov	r0, r5
 1340 0028 FFF7FEFF 		bl	lv_obj_get_child_cnt
 1341              	.LVL173:
 1342 002c 0646     		mov	r6, r0
 1343              	.LVL174:
  78:lvgl/src/extra/widgets/tabview/lv_tabview.c **** 
 1344              		.loc 1 78 5 is_stmt 1 view .LVU372
  78:lvgl/src/extra/widgets/tabview/lv_tabview.c **** 
 1345              		.loc 1 78 23 is_stmt 0 view .LVU373
 1346 002e 2046     		mov	r0, r4
 1347              	.LVL175:
  78:lvgl/src/extra/widgets/tabview/lv_tabview.c **** 
 1348              		.loc 1 78 23 view .LVU374
 1349 0030 FFF7FEFF 		bl	lv_tabview_get_tab_btns
ARM GAS  /var/folders/21/t9g5rlb91ys800n5npymflf80000gn/T//cckp2I4w.s 			page 46


 1350              	.LVL176:
 1351 0034 0746     		mov	r7, r0
 1352              	.LVL177:
  80:lvgl/src/extra/widgets/tabview/lv_tabview.c ****     const char ** new_map;
 1353              		.loc 1 80 5 is_stmt 1 view .LVU375
  80:lvgl/src/extra/widgets/tabview/lv_tabview.c ****     const char ** new_map;
 1354              		.loc 1 80 19 is_stmt 0 view .LVU376
 1355 0036 D4F824A0 		ldr	r10, [r4, #36]
 1356              	.LVL178:
  81:lvgl/src/extra/widgets/tabview/lv_tabview.c **** 
 1357              		.loc 1 81 5 is_stmt 1 view .LVU377
  84:lvgl/src/extra/widgets/tabview/lv_tabview.c ****         new_map = lv_mem_alloc((tab_id + 1) * sizeof(const char *));
 1358              		.loc 1 84 5 view .LVU378
  84:lvgl/src/extra/widgets/tabview/lv_tabview.c ****         new_map = lv_mem_alloc((tab_id + 1) * sizeof(const char *));
 1359              		.loc 1 84 15 is_stmt 0 view .LVU379
 1360 003a 94F82C30 		ldrb	r3, [r4, #44]	@ zero_extendqisi2
  84:lvgl/src/extra/widgets/tabview/lv_tabview.c ****         new_map = lv_mem_alloc((tab_id + 1) * sizeof(const char *));
 1361              		.loc 1 84 7 view .LVU380
 1362 003e 13F00C0F 		tst	r3, #12
 1363 0042 3ED0     		beq	.L77
  85:lvgl/src/extra/widgets/tabview/lv_tabview.c ****         lv_memcpy_small(new_map, old_map, sizeof(const char *) * (tab_id - 1));
 1364              		.loc 1 85 9 is_stmt 1 view .LVU381
  85:lvgl/src/extra/widgets/tabview/lv_tabview.c ****         lv_memcpy_small(new_map, old_map, sizeof(const char *) * (tab_id - 1));
 1365              		.loc 1 85 40 is_stmt 0 view .LVU382
 1366 0044 701C     		adds	r0, r6, #1
 1367              	.LVL179:
  85:lvgl/src/extra/widgets/tabview/lv_tabview.c ****         lv_memcpy_small(new_map, old_map, sizeof(const char *) * (tab_id - 1));
 1368              		.loc 1 85 19 view .LVU383
 1369 0046 8000     		lsls	r0, r0, #2
 1370 0048 FFF7FEFF 		bl	lv_mem_alloc
 1371              	.LVL180:
 1372 004c 0546     		mov	r5, r0
 1373              	.LVL181:
  86:lvgl/src/extra/widgets/tabview/lv_tabview.c ****         new_map[tab_id - 1] = lv_mem_alloc(strlen(name) + 1);
 1374              		.loc 1 86 9 is_stmt 1 view .LVU384
  86:lvgl/src/extra/widgets/tabview/lv_tabview.c ****         new_map[tab_id - 1] = lv_mem_alloc(strlen(name) + 1);
 1375              		.loc 1 86 74 is_stmt 0 view .LVU385
 1376 004e 731E     		subs	r3, r6, #1
  86:lvgl/src/extra/widgets/tabview/lv_tabview.c ****         new_map[tab_id - 1] = lv_mem_alloc(strlen(name) + 1);
 1377              		.loc 1 86 9 view .LVU386
 1378 0050 9B00     		lsls	r3, r3, #2
 1379              	.LVL182:
 1380              	.LBB34:
 1381              	.LBI34:
 1382              		.file 3 "lvgl/src/extra/widgets/tabview/../../../../src/misc/lv_mem.h"
   1:lvgl/src/extra/widgets/tabview/../../../../src/misc/lv_mem.h **** /**
   2:lvgl/src/extra/widgets/tabview/../../../../src/misc/lv_mem.h ****  * @file lv_mem.h
   3:lvgl/src/extra/widgets/tabview/../../../../src/misc/lv_mem.h ****  *
   4:lvgl/src/extra/widgets/tabview/../../../../src/misc/lv_mem.h ****  */
   5:lvgl/src/extra/widgets/tabview/../../../../src/misc/lv_mem.h **** 
   6:lvgl/src/extra/widgets/tabview/../../../../src/misc/lv_mem.h **** #ifndef LV_MEM_H
   7:lvgl/src/extra/widgets/tabview/../../../../src/misc/lv_mem.h **** #define LV_MEM_H
   8:lvgl/src/extra/widgets/tabview/../../../../src/misc/lv_mem.h **** 
   9:lvgl/src/extra/widgets/tabview/../../../../src/misc/lv_mem.h **** #ifdef __cplusplus
  10:lvgl/src/extra/widgets/tabview/../../../../src/misc/lv_mem.h **** extern "C" {
  11:lvgl/src/extra/widgets/tabview/../../../../src/misc/lv_mem.h **** #endif
  12:lvgl/src/extra/widgets/tabview/../../../../src/misc/lv_mem.h **** 
ARM GAS  /var/folders/21/t9g5rlb91ys800n5npymflf80000gn/T//cckp2I4w.s 			page 47


  13:lvgl/src/extra/widgets/tabview/../../../../src/misc/lv_mem.h **** /*********************
  14:lvgl/src/extra/widgets/tabview/../../../../src/misc/lv_mem.h ****  *      INCLUDES
  15:lvgl/src/extra/widgets/tabview/../../../../src/misc/lv_mem.h ****  *********************/
  16:lvgl/src/extra/widgets/tabview/../../../../src/misc/lv_mem.h **** #include "../lv_conf_internal.h"
  17:lvgl/src/extra/widgets/tabview/../../../../src/misc/lv_mem.h **** 
  18:lvgl/src/extra/widgets/tabview/../../../../src/misc/lv_mem.h **** #include <stdint.h>
  19:lvgl/src/extra/widgets/tabview/../../../../src/misc/lv_mem.h **** #include <stddef.h>
  20:lvgl/src/extra/widgets/tabview/../../../../src/misc/lv_mem.h **** #include <string.h>
  21:lvgl/src/extra/widgets/tabview/../../../../src/misc/lv_mem.h **** 
  22:lvgl/src/extra/widgets/tabview/../../../../src/misc/lv_mem.h **** #include "lv_types.h"
  23:lvgl/src/extra/widgets/tabview/../../../../src/misc/lv_mem.h **** 
  24:lvgl/src/extra/widgets/tabview/../../../../src/misc/lv_mem.h **** /*********************
  25:lvgl/src/extra/widgets/tabview/../../../../src/misc/lv_mem.h ****  *      DEFINES
  26:lvgl/src/extra/widgets/tabview/../../../../src/misc/lv_mem.h ****  *********************/
  27:lvgl/src/extra/widgets/tabview/../../../../src/misc/lv_mem.h **** 
  28:lvgl/src/extra/widgets/tabview/../../../../src/misc/lv_mem.h **** /**********************
  29:lvgl/src/extra/widgets/tabview/../../../../src/misc/lv_mem.h ****  *      TYPEDEFS
  30:lvgl/src/extra/widgets/tabview/../../../../src/misc/lv_mem.h ****  **********************/
  31:lvgl/src/extra/widgets/tabview/../../../../src/misc/lv_mem.h **** 
  32:lvgl/src/extra/widgets/tabview/../../../../src/misc/lv_mem.h **** /**
  33:lvgl/src/extra/widgets/tabview/../../../../src/misc/lv_mem.h ****  * Heap information structure.
  34:lvgl/src/extra/widgets/tabview/../../../../src/misc/lv_mem.h ****  */
  35:lvgl/src/extra/widgets/tabview/../../../../src/misc/lv_mem.h **** typedef struct {
  36:lvgl/src/extra/widgets/tabview/../../../../src/misc/lv_mem.h ****     uint32_t total_size; /**< Total heap size*/
  37:lvgl/src/extra/widgets/tabview/../../../../src/misc/lv_mem.h ****     uint32_t free_cnt;
  38:lvgl/src/extra/widgets/tabview/../../../../src/misc/lv_mem.h ****     uint32_t free_size; /**< Size of available memory*/
  39:lvgl/src/extra/widgets/tabview/../../../../src/misc/lv_mem.h ****     uint32_t free_biggest_size;
  40:lvgl/src/extra/widgets/tabview/../../../../src/misc/lv_mem.h ****     uint32_t used_cnt;
  41:lvgl/src/extra/widgets/tabview/../../../../src/misc/lv_mem.h ****     uint32_t max_used; /**< Max size of Heap memory used*/
  42:lvgl/src/extra/widgets/tabview/../../../../src/misc/lv_mem.h ****     uint8_t used_pct; /**< Percentage used*/
  43:lvgl/src/extra/widgets/tabview/../../../../src/misc/lv_mem.h ****     uint8_t frag_pct; /**< Amount of fragmentation*/
  44:lvgl/src/extra/widgets/tabview/../../../../src/misc/lv_mem.h **** } lv_mem_monitor_t;
  45:lvgl/src/extra/widgets/tabview/../../../../src/misc/lv_mem.h **** 
  46:lvgl/src/extra/widgets/tabview/../../../../src/misc/lv_mem.h **** typedef struct {
  47:lvgl/src/extra/widgets/tabview/../../../../src/misc/lv_mem.h ****     void * p;
  48:lvgl/src/extra/widgets/tabview/../../../../src/misc/lv_mem.h ****     uint16_t size;
  49:lvgl/src/extra/widgets/tabview/../../../../src/misc/lv_mem.h ****     uint8_t used : 1;
  50:lvgl/src/extra/widgets/tabview/../../../../src/misc/lv_mem.h **** } lv_mem_buf_t;
  51:lvgl/src/extra/widgets/tabview/../../../../src/misc/lv_mem.h **** 
  52:lvgl/src/extra/widgets/tabview/../../../../src/misc/lv_mem.h **** typedef lv_mem_buf_t lv_mem_buf_arr_t[LV_MEM_BUF_MAX_NUM];
  53:lvgl/src/extra/widgets/tabview/../../../../src/misc/lv_mem.h **** 
  54:lvgl/src/extra/widgets/tabview/../../../../src/misc/lv_mem.h **** /**********************
  55:lvgl/src/extra/widgets/tabview/../../../../src/misc/lv_mem.h ****  * GLOBAL PROTOTYPES
  56:lvgl/src/extra/widgets/tabview/../../../../src/misc/lv_mem.h ****  **********************/
  57:lvgl/src/extra/widgets/tabview/../../../../src/misc/lv_mem.h **** 
  58:lvgl/src/extra/widgets/tabview/../../../../src/misc/lv_mem.h **** /**
  59:lvgl/src/extra/widgets/tabview/../../../../src/misc/lv_mem.h ****  * Initialize the dyn_mem module (work memory and other variables)
  60:lvgl/src/extra/widgets/tabview/../../../../src/misc/lv_mem.h ****  */
  61:lvgl/src/extra/widgets/tabview/../../../../src/misc/lv_mem.h **** void lv_mem_init(void);
  62:lvgl/src/extra/widgets/tabview/../../../../src/misc/lv_mem.h **** 
  63:lvgl/src/extra/widgets/tabview/../../../../src/misc/lv_mem.h **** /**
  64:lvgl/src/extra/widgets/tabview/../../../../src/misc/lv_mem.h ****  * Clean up the memory buffer which frees all the allocated memories.
  65:lvgl/src/extra/widgets/tabview/../../../../src/misc/lv_mem.h ****  * @note It work only if `LV_MEM_CUSTOM == 0`
  66:lvgl/src/extra/widgets/tabview/../../../../src/misc/lv_mem.h ****  */
  67:lvgl/src/extra/widgets/tabview/../../../../src/misc/lv_mem.h **** void lv_mem_deinit(void);
  68:lvgl/src/extra/widgets/tabview/../../../../src/misc/lv_mem.h **** 
  69:lvgl/src/extra/widgets/tabview/../../../../src/misc/lv_mem.h **** /**
ARM GAS  /var/folders/21/t9g5rlb91ys800n5npymflf80000gn/T//cckp2I4w.s 			page 48


  70:lvgl/src/extra/widgets/tabview/../../../../src/misc/lv_mem.h ****  * Allocate a memory dynamically
  71:lvgl/src/extra/widgets/tabview/../../../../src/misc/lv_mem.h ****  * @param size size of the memory to allocate in bytes
  72:lvgl/src/extra/widgets/tabview/../../../../src/misc/lv_mem.h ****  * @return pointer to the allocated memory
  73:lvgl/src/extra/widgets/tabview/../../../../src/misc/lv_mem.h ****  */
  74:lvgl/src/extra/widgets/tabview/../../../../src/misc/lv_mem.h **** void * lv_mem_alloc(size_t size);
  75:lvgl/src/extra/widgets/tabview/../../../../src/misc/lv_mem.h **** 
  76:lvgl/src/extra/widgets/tabview/../../../../src/misc/lv_mem.h **** /**
  77:lvgl/src/extra/widgets/tabview/../../../../src/misc/lv_mem.h ****  * Free an allocated data
  78:lvgl/src/extra/widgets/tabview/../../../../src/misc/lv_mem.h ****  * @param data pointer to an allocated memory
  79:lvgl/src/extra/widgets/tabview/../../../../src/misc/lv_mem.h ****  */
  80:lvgl/src/extra/widgets/tabview/../../../../src/misc/lv_mem.h **** void lv_mem_free(void * data);
  81:lvgl/src/extra/widgets/tabview/../../../../src/misc/lv_mem.h **** 
  82:lvgl/src/extra/widgets/tabview/../../../../src/misc/lv_mem.h **** /**
  83:lvgl/src/extra/widgets/tabview/../../../../src/misc/lv_mem.h ****  * Reallocate a memory with a new size. The old content will be kept.
  84:lvgl/src/extra/widgets/tabview/../../../../src/misc/lv_mem.h ****  * @param data pointer to an allocated memory.
  85:lvgl/src/extra/widgets/tabview/../../../../src/misc/lv_mem.h ****  * Its content will be copied to the new memory block and freed
  86:lvgl/src/extra/widgets/tabview/../../../../src/misc/lv_mem.h ****  * @param new_size the desired new size in byte
  87:lvgl/src/extra/widgets/tabview/../../../../src/misc/lv_mem.h ****  * @return pointer to the new memory, NULL on failure
  88:lvgl/src/extra/widgets/tabview/../../../../src/misc/lv_mem.h ****  */
  89:lvgl/src/extra/widgets/tabview/../../../../src/misc/lv_mem.h **** void * lv_mem_realloc(void * data_p, size_t new_size);
  90:lvgl/src/extra/widgets/tabview/../../../../src/misc/lv_mem.h **** 
  91:lvgl/src/extra/widgets/tabview/../../../../src/misc/lv_mem.h **** /**
  92:lvgl/src/extra/widgets/tabview/../../../../src/misc/lv_mem.h ****  *
  93:lvgl/src/extra/widgets/tabview/../../../../src/misc/lv_mem.h ****  * @return
  94:lvgl/src/extra/widgets/tabview/../../../../src/misc/lv_mem.h ****  */
  95:lvgl/src/extra/widgets/tabview/../../../../src/misc/lv_mem.h **** lv_res_t lv_mem_test(void);
  96:lvgl/src/extra/widgets/tabview/../../../../src/misc/lv_mem.h **** 
  97:lvgl/src/extra/widgets/tabview/../../../../src/misc/lv_mem.h **** /**
  98:lvgl/src/extra/widgets/tabview/../../../../src/misc/lv_mem.h ****  * Give information about the work memory of dynamic allocation
  99:lvgl/src/extra/widgets/tabview/../../../../src/misc/lv_mem.h ****  * @param mon_p pointer to a lv_mem_monitor_t variable,
 100:lvgl/src/extra/widgets/tabview/../../../../src/misc/lv_mem.h ****  *              the result of the analysis will be stored here
 101:lvgl/src/extra/widgets/tabview/../../../../src/misc/lv_mem.h ****  */
 102:lvgl/src/extra/widgets/tabview/../../../../src/misc/lv_mem.h **** void lv_mem_monitor(lv_mem_monitor_t * mon_p);
 103:lvgl/src/extra/widgets/tabview/../../../../src/misc/lv_mem.h **** 
 104:lvgl/src/extra/widgets/tabview/../../../../src/misc/lv_mem.h **** /**
 105:lvgl/src/extra/widgets/tabview/../../../../src/misc/lv_mem.h ****  * Get a temporal buffer with the given size.
 106:lvgl/src/extra/widgets/tabview/../../../../src/misc/lv_mem.h ****  * @param size the required size
 107:lvgl/src/extra/widgets/tabview/../../../../src/misc/lv_mem.h ****  */
 108:lvgl/src/extra/widgets/tabview/../../../../src/misc/lv_mem.h **** void * lv_mem_buf_get(uint32_t size);
 109:lvgl/src/extra/widgets/tabview/../../../../src/misc/lv_mem.h **** 
 110:lvgl/src/extra/widgets/tabview/../../../../src/misc/lv_mem.h **** /**
 111:lvgl/src/extra/widgets/tabview/../../../../src/misc/lv_mem.h ****  * Release a memory buffer
 112:lvgl/src/extra/widgets/tabview/../../../../src/misc/lv_mem.h ****  * @param p buffer to release
 113:lvgl/src/extra/widgets/tabview/../../../../src/misc/lv_mem.h ****  */
 114:lvgl/src/extra/widgets/tabview/../../../../src/misc/lv_mem.h **** void lv_mem_buf_release(void * p);
 115:lvgl/src/extra/widgets/tabview/../../../../src/misc/lv_mem.h **** 
 116:lvgl/src/extra/widgets/tabview/../../../../src/misc/lv_mem.h **** /**
 117:lvgl/src/extra/widgets/tabview/../../../../src/misc/lv_mem.h ****  * Free all memory buffers
 118:lvgl/src/extra/widgets/tabview/../../../../src/misc/lv_mem.h ****  */
 119:lvgl/src/extra/widgets/tabview/../../../../src/misc/lv_mem.h **** void lv_mem_buf_free_all(void);
 120:lvgl/src/extra/widgets/tabview/../../../../src/misc/lv_mem.h **** 
 121:lvgl/src/extra/widgets/tabview/../../../../src/misc/lv_mem.h **** //! @cond Doxygen_Suppress
 122:lvgl/src/extra/widgets/tabview/../../../../src/misc/lv_mem.h **** 
 123:lvgl/src/extra/widgets/tabview/../../../../src/misc/lv_mem.h **** #if LV_MEMCPY_MEMSET_STD
 124:lvgl/src/extra/widgets/tabview/../../../../src/misc/lv_mem.h **** 
 125:lvgl/src/extra/widgets/tabview/../../../../src/misc/lv_mem.h **** /**
 126:lvgl/src/extra/widgets/tabview/../../../../src/misc/lv_mem.h ****  * Wrapper for the standard memcpy
ARM GAS  /var/folders/21/t9g5rlb91ys800n5npymflf80000gn/T//cckp2I4w.s 			page 49


 127:lvgl/src/extra/widgets/tabview/../../../../src/misc/lv_mem.h ****  * @param dst pointer to the destination buffer
 128:lvgl/src/extra/widgets/tabview/../../../../src/misc/lv_mem.h ****  * @param src pointer to the source buffer
 129:lvgl/src/extra/widgets/tabview/../../../../src/misc/lv_mem.h ****  * @param len number of byte to copy
 130:lvgl/src/extra/widgets/tabview/../../../../src/misc/lv_mem.h ****  */
 131:lvgl/src/extra/widgets/tabview/../../../../src/misc/lv_mem.h **** static inline void * lv_memcpy(void * dst, const void * src, size_t len)
 132:lvgl/src/extra/widgets/tabview/../../../../src/misc/lv_mem.h **** {
 133:lvgl/src/extra/widgets/tabview/../../../../src/misc/lv_mem.h ****     return memcpy(dst, src, len);
 134:lvgl/src/extra/widgets/tabview/../../../../src/misc/lv_mem.h **** }
 135:lvgl/src/extra/widgets/tabview/../../../../src/misc/lv_mem.h **** 
 136:lvgl/src/extra/widgets/tabview/../../../../src/misc/lv_mem.h **** /**
 137:lvgl/src/extra/widgets/tabview/../../../../src/misc/lv_mem.h ****  * Wrapper for the standard memcpy
 138:lvgl/src/extra/widgets/tabview/../../../../src/misc/lv_mem.h ****  * @param dst pointer to the destination buffer
 139:lvgl/src/extra/widgets/tabview/../../../../src/misc/lv_mem.h ****  * @param src pointer to the source buffer
 140:lvgl/src/extra/widgets/tabview/../../../../src/misc/lv_mem.h ****  * @param len number of byte to copy
 141:lvgl/src/extra/widgets/tabview/../../../../src/misc/lv_mem.h ****  */
 142:lvgl/src/extra/widgets/tabview/../../../../src/misc/lv_mem.h **** static inline void * lv_memcpy_small(void * dst, const void * src, size_t len)
 143:lvgl/src/extra/widgets/tabview/../../../../src/misc/lv_mem.h **** {
 144:lvgl/src/extra/widgets/tabview/../../../../src/misc/lv_mem.h ****     return memcpy(dst, src, len);
 145:lvgl/src/extra/widgets/tabview/../../../../src/misc/lv_mem.h **** }
 146:lvgl/src/extra/widgets/tabview/../../../../src/misc/lv_mem.h **** 
 147:lvgl/src/extra/widgets/tabview/../../../../src/misc/lv_mem.h **** /**
 148:lvgl/src/extra/widgets/tabview/../../../../src/misc/lv_mem.h ****  * Wrapper for the standard memset
 149:lvgl/src/extra/widgets/tabview/../../../../src/misc/lv_mem.h ****  * @param dst pointer to the destination buffer
 150:lvgl/src/extra/widgets/tabview/../../../../src/misc/lv_mem.h ****  * @param v value to set [0..255]
 151:lvgl/src/extra/widgets/tabview/../../../../src/misc/lv_mem.h ****  * @param len number of byte to set
 152:lvgl/src/extra/widgets/tabview/../../../../src/misc/lv_mem.h ****  */
 153:lvgl/src/extra/widgets/tabview/../../../../src/misc/lv_mem.h **** static inline void lv_memset(void * dst, uint8_t v, size_t len)
 154:lvgl/src/extra/widgets/tabview/../../../../src/misc/lv_mem.h **** {
 155:lvgl/src/extra/widgets/tabview/../../../../src/misc/lv_mem.h ****     memset(dst, v, len);
 156:lvgl/src/extra/widgets/tabview/../../../../src/misc/lv_mem.h **** }
 157:lvgl/src/extra/widgets/tabview/../../../../src/misc/lv_mem.h **** 
 158:lvgl/src/extra/widgets/tabview/../../../../src/misc/lv_mem.h **** /**
 159:lvgl/src/extra/widgets/tabview/../../../../src/misc/lv_mem.h ****  * Wrapper for the standard memset with fixed 0x00 value
 160:lvgl/src/extra/widgets/tabview/../../../../src/misc/lv_mem.h ****  * @param dst pointer to the destination buffer
 161:lvgl/src/extra/widgets/tabview/../../../../src/misc/lv_mem.h ****  * @param len number of byte to set
 162:lvgl/src/extra/widgets/tabview/../../../../src/misc/lv_mem.h ****  */
 163:lvgl/src/extra/widgets/tabview/../../../../src/misc/lv_mem.h **** static inline void lv_memset_00(void * dst, size_t len)
 164:lvgl/src/extra/widgets/tabview/../../../../src/misc/lv_mem.h **** {
 165:lvgl/src/extra/widgets/tabview/../../../../src/misc/lv_mem.h ****     memset(dst, 0x00, len);
 166:lvgl/src/extra/widgets/tabview/../../../../src/misc/lv_mem.h **** }
 167:lvgl/src/extra/widgets/tabview/../../../../src/misc/lv_mem.h **** 
 168:lvgl/src/extra/widgets/tabview/../../../../src/misc/lv_mem.h **** /**
 169:lvgl/src/extra/widgets/tabview/../../../../src/misc/lv_mem.h ****  * Wrapper for the standard memset with fixed 0xFF value
 170:lvgl/src/extra/widgets/tabview/../../../../src/misc/lv_mem.h ****  * @param dst pointer to the destination buffer
 171:lvgl/src/extra/widgets/tabview/../../../../src/misc/lv_mem.h ****  * @param len number of byte to set
 172:lvgl/src/extra/widgets/tabview/../../../../src/misc/lv_mem.h ****  */
 173:lvgl/src/extra/widgets/tabview/../../../../src/misc/lv_mem.h **** static inline void lv_memset_ff(void * dst, size_t len)
 174:lvgl/src/extra/widgets/tabview/../../../../src/misc/lv_mem.h **** {
 175:lvgl/src/extra/widgets/tabview/../../../../src/misc/lv_mem.h ****     memset(dst, 0xFF, len);
 176:lvgl/src/extra/widgets/tabview/../../../../src/misc/lv_mem.h **** }
 177:lvgl/src/extra/widgets/tabview/../../../../src/misc/lv_mem.h **** 
 178:lvgl/src/extra/widgets/tabview/../../../../src/misc/lv_mem.h **** #else
 179:lvgl/src/extra/widgets/tabview/../../../../src/misc/lv_mem.h **** /**
 180:lvgl/src/extra/widgets/tabview/../../../../src/misc/lv_mem.h ****  * Same as `memcpy` but optimized for 4 byte operation.
 181:lvgl/src/extra/widgets/tabview/../../../../src/misc/lv_mem.h ****  * @param dst pointer to the destination buffer
 182:lvgl/src/extra/widgets/tabview/../../../../src/misc/lv_mem.h ****  * @param src pointer to the source buffer
 183:lvgl/src/extra/widgets/tabview/../../../../src/misc/lv_mem.h ****  * @param len number of byte to copy
ARM GAS  /var/folders/21/t9g5rlb91ys800n5npymflf80000gn/T//cckp2I4w.s 			page 50


 184:lvgl/src/extra/widgets/tabview/../../../../src/misc/lv_mem.h ****  */
 185:lvgl/src/extra/widgets/tabview/../../../../src/misc/lv_mem.h **** void * /* LV_ATTRIBUTE_FAST_MEM */ lv_memcpy(void * dst, const void * src, size_t len);
 186:lvgl/src/extra/widgets/tabview/../../../../src/misc/lv_mem.h **** 
 187:lvgl/src/extra/widgets/tabview/../../../../src/misc/lv_mem.h **** /**
 188:lvgl/src/extra/widgets/tabview/../../../../src/misc/lv_mem.h ****  * Same as `memcpy` but optimized to copy only a few bytes.
 189:lvgl/src/extra/widgets/tabview/../../../../src/misc/lv_mem.h ****  * @param dst pointer to the destination buffer
 190:lvgl/src/extra/widgets/tabview/../../../../src/misc/lv_mem.h ****  * @param src pointer to the source buffer
 191:lvgl/src/extra/widgets/tabview/../../../../src/misc/lv_mem.h ****  * @param len number of byte to copy
 192:lvgl/src/extra/widgets/tabview/../../../../src/misc/lv_mem.h ****  */
 193:lvgl/src/extra/widgets/tabview/../../../../src/misc/lv_mem.h **** static inline void * LV_ATTRIBUTE_FAST_MEM lv_memcpy_small(void * dst, const void * src, size_t len
 1383              		.loc 3 193 44 is_stmt 1 view .LVU387
 1384              	.LBB35:
 194:lvgl/src/extra/widgets/tabview/../../../../src/misc/lv_mem.h **** {
 195:lvgl/src/extra/widgets/tabview/../../../../src/misc/lv_mem.h ****     uint8_t * d8 = (uint8_t *)dst;
 1385              		.loc 3 195 5 view .LVU388
 196:lvgl/src/extra/widgets/tabview/../../../../src/misc/lv_mem.h ****     const uint8_t * s8 = (const uint8_t *)src;
 1386              		.loc 3 196 5 view .LVU389
 197:lvgl/src/extra/widgets/tabview/../../../../src/misc/lv_mem.h **** 
 198:lvgl/src/extra/widgets/tabview/../../../../src/misc/lv_mem.h ****     while(len) {
 1387              		.loc 3 198 5 view .LVU390
 196:lvgl/src/extra/widgets/tabview/../../../../src/misc/lv_mem.h ****     const uint8_t * s8 = (const uint8_t *)src;
 1388              		.loc 3 196 21 is_stmt 0 view .LVU391
 1389 0052 5146     		mov	r1, r10
 195:lvgl/src/extra/widgets/tabview/../../../../src/misc/lv_mem.h ****     const uint8_t * s8 = (const uint8_t *)src;
 1390              		.loc 3 195 15 view .LVU392
 1391 0054 0246     		mov	r2, r0
 1392              		.loc 3 198 10 view .LVU393
 1393 0056 04E0     		b	.L78
 1394              	.LVL183:
 1395              	.L79:
 199:lvgl/src/extra/widgets/tabview/../../../../src/misc/lv_mem.h ****         *d8 = *s8;
 1396              		.loc 3 199 9 is_stmt 1 view .LVU394
 1397              		.loc 3 199 15 is_stmt 0 view .LVU395
 1398 0058 11F8010B 		ldrb	r0, [r1], #1	@ zero_extendqisi2
 1399              	.LVL184:
 1400              		.loc 3 199 13 view .LVU396
 1401 005c 02F8010B 		strb	r0, [r2], #1
 1402              	.LVL185:
 200:lvgl/src/extra/widgets/tabview/../../../../src/misc/lv_mem.h ****         d8++;
 1403              		.loc 3 200 9 is_stmt 1 view .LVU397
 201:lvgl/src/extra/widgets/tabview/../../../../src/misc/lv_mem.h ****         s8++;
 1404              		.loc 3 201 9 view .LVU398
 202:lvgl/src/extra/widgets/tabview/../../../../src/misc/lv_mem.h ****         len--;
 1405              		.loc 3 202 9 view .LVU399
 1406              		.loc 3 202 12 is_stmt 0 view .LVU400
 1407 0060 013B     		subs	r3, r3, #1
 1408              	.LVL186:
 1409              	.L78:
 198:lvgl/src/extra/widgets/tabview/../../../../src/misc/lv_mem.h ****         *d8 = *s8;
 1410              		.loc 3 198 11 is_stmt 1 view .LVU401
 1411 0062 002B     		cmp	r3, #0
 1412 0064 F8D1     		bne	.L79
 203:lvgl/src/extra/widgets/tabview/../../../../src/misc/lv_mem.h ****     }
 204:lvgl/src/extra/widgets/tabview/../../../../src/misc/lv_mem.h **** 
 205:lvgl/src/extra/widgets/tabview/../../../../src/misc/lv_mem.h ****     return dst;
 1413              		.loc 3 205 5 view .LVU402
 1414              	.LVL187:
ARM GAS  /var/folders/21/t9g5rlb91ys800n5npymflf80000gn/T//cckp2I4w.s 			page 51


 1415              		.loc 3 205 5 is_stmt 0 view .LVU403
 1416              	.LBE35:
 1417              	.LBE34:
  87:lvgl/src/extra/widgets/tabview/lv_tabview.c ****         strcpy((char *)new_map[tab_id - 1], name);
 1418              		.loc 1 87 9 is_stmt 1 view .LVU404
  87:lvgl/src/extra/widgets/tabview/lv_tabview.c ****         strcpy((char *)new_map[tab_id - 1], name);
 1419              		.loc 1 87 44 is_stmt 0 view .LVU405
 1420 0066 4846     		mov	r0, r9
 1421 0068 FFF7FEFF 		bl	strlen
 1422              	.LVL188:
  87:lvgl/src/extra/widgets/tabview/lv_tabview.c ****         strcpy((char *)new_map[tab_id - 1], name);
 1423              		.loc 1 87 16 view .LVU406
 1424 006c 06F1804B 		add	fp, r6, #1073741824
 1425 0070 0BF1FF3B 		add	fp, fp, #-1
  87:lvgl/src/extra/widgets/tabview/lv_tabview.c ****         strcpy((char *)new_map[tab_id - 1], name);
 1426              		.loc 1 87 31 view .LVU407
 1427 0074 0130     		adds	r0, r0, #1
 1428 0076 FFF7FEFF 		bl	lv_mem_alloc
 1429              	.LVL189:
  87:lvgl/src/extra/widgets/tabview/lv_tabview.c ****         strcpy((char *)new_map[tab_id - 1], name);
 1430              		.loc 1 87 29 view .LVU408
 1431 007a 45F82B00 		str	r0, [r5, fp, lsl #2]
  88:lvgl/src/extra/widgets/tabview/lv_tabview.c ****         new_map[tab_id] = "";
 1432              		.loc 1 88 9 is_stmt 1 view .LVU409
 1433 007e 4946     		mov	r1, r9
 1434 0080 FFF7FEFF 		bl	strcpy
 1435              	.LVL190:
  89:lvgl/src/extra/widgets/tabview/lv_tabview.c ****     }
 1436              		.loc 1 89 9 view .LVU410
  89:lvgl/src/extra/widgets/tabview/lv_tabview.c ****     }
 1437              		.loc 1 89 25 is_stmt 0 view .LVU411
 1438 0084 2F4B     		ldr	r3, .L87
 1439 0086 45F82630 		str	r3, [r5, r6, lsl #2]
 1440              	.LVL191:
 1441              	.L80:
 107:lvgl/src/extra/widgets/tabview/lv_tabview.c ****     lv_btnmatrix_set_map(btns, (const char **)new_map);
 1442              		.loc 1 107 5 is_stmt 1 view .LVU412
 107:lvgl/src/extra/widgets/tabview/lv_tabview.c ****     lv_btnmatrix_set_map(btns, (const char **)new_map);
 1443              		.loc 1 107 18 is_stmt 0 view .LVU413
 1444 008a 6562     		str	r5, [r4, #36]
 108:lvgl/src/extra/widgets/tabview/lv_tabview.c ****     lv_mem_free(old_map);
 1445              		.loc 1 108 5 is_stmt 1 view .LVU414
 1446 008c 2946     		mov	r1, r5
 1447 008e 3846     		mov	r0, r7
 1448 0090 FFF7FEFF 		bl	lv_btnmatrix_set_map
 1449              	.LVL192:
 109:lvgl/src/extra/widgets/tabview/lv_tabview.c **** 
 1450              		.loc 1 109 5 view .LVU415
 1451 0094 5046     		mov	r0, r10
 1452 0096 FFF7FEFF 		bl	lv_mem_free
 1453              	.LVL193:
 111:lvgl/src/extra/widgets/tabview/lv_tabview.c ****                                   LV_BTNMATRIX_CTRL_NO_REPEAT);
 1454              		.loc 1 111 5 view .LVU416
 1455 009a 4FF42871 		mov	r1, #672
 1456 009e 3846     		mov	r0, r7
 1457 00a0 FFF7FEFF 		bl	lv_btnmatrix_set_btn_ctrl_all
 1458              	.LVL194:
ARM GAS  /var/folders/21/t9g5rlb91ys800n5npymflf80000gn/T//cckp2I4w.s 			page 52


 114:lvgl/src/extra/widgets/tabview/lv_tabview.c ****     if(tabview->tab_cnt == 1) {
 1459              		.loc 1 114 5 view .LVU417
 114:lvgl/src/extra/widgets/tabview/lv_tabview.c ****     if(tabview->tab_cnt == 1) {
 1460              		.loc 1 114 12 is_stmt 0 view .LVU418
 1461 00a4 238D     		ldrh	r3, [r4, #40]
 114:lvgl/src/extra/widgets/tabview/lv_tabview.c ****     if(tabview->tab_cnt == 1) {
 1462              		.loc 1 114 21 view .LVU419
 1463 00a6 0133     		adds	r3, r3, #1
 1464 00a8 9BB2     		uxth	r3, r3
 1465 00aa 2385     		strh	r3, [r4, #40]	@ movhi
 115:lvgl/src/extra/widgets/tabview/lv_tabview.c ****         lv_tabview_set_act(obj, 0, LV_ANIM_OFF);
 1466              		.loc 1 115 5 is_stmt 1 view .LVU420
 115:lvgl/src/extra/widgets/tabview/lv_tabview.c ****         lv_tabview_set_act(obj, 0, LV_ANIM_OFF);
 1467              		.loc 1 115 7 is_stmt 0 view .LVU421
 1468 00ac 012B     		cmp	r3, #1
 1469 00ae 43D0     		beq	.L86
 1470              	.L84:
 119:lvgl/src/extra/widgets/tabview/lv_tabview.c **** 
 1471              		.loc 1 119 5 is_stmt 1 view .LVU422
 1472 00b0 4FF48072 		mov	r2, #256
 1473 00b4 618D     		ldrh	r1, [r4, #42]
 1474 00b6 3846     		mov	r0, r7
 1475 00b8 FFF7FEFF 		bl	lv_btnmatrix_set_btn_ctrl
 1476              	.LVL195:
 121:lvgl/src/extra/widgets/tabview/lv_tabview.c **** }
 1477              		.loc 1 121 5 view .LVU423
 122:lvgl/src/extra/widgets/tabview/lv_tabview.c **** 
 1478              		.loc 1 122 1 is_stmt 0 view .LVU424
 1479 00bc 4046     		mov	r0, r8
 1480 00be BDE8F88F 		pop	{r3, r4, r5, r6, r7, r8, r9, r10, fp, pc}
 1481              	.LVL196:
 1482              	.L77:
  93:lvgl/src/extra/widgets/tabview/lv_tabview.c ****         lv_memcpy_small(new_map, old_map, sizeof(const char *) * (tab_id - 1) * 2);
 1483              		.loc 1 93 9 is_stmt 1 view .LVU425
  93:lvgl/src/extra/widgets/tabview/lv_tabview.c ****         lv_memcpy_small(new_map, old_map, sizeof(const char *) * (tab_id - 1) * 2);
 1484              		.loc 1 93 19 is_stmt 0 view .LVU426
 1485 00c2 4FEAC60B 		lsl	fp, r6, #3
 1486 00c6 5846     		mov	r0, fp
 1487              	.LVL197:
  93:lvgl/src/extra/widgets/tabview/lv_tabview.c ****         lv_memcpy_small(new_map, old_map, sizeof(const char *) * (tab_id - 1) * 2);
 1488              		.loc 1 93 19 view .LVU427
 1489 00c8 FFF7FEFF 		bl	lv_mem_alloc
 1490              	.LVL198:
 1491 00cc 0546     		mov	r5, r0
 1492              	.LVL199:
  94:lvgl/src/extra/widgets/tabview/lv_tabview.c ****         if(tabview->tab_cnt == 0) {
 1493              		.loc 1 94 9 is_stmt 1 view .LVU428
  94:lvgl/src/extra/widgets/tabview/lv_tabview.c ****         if(tabview->tab_cnt == 0) {
 1494              		.loc 1 94 74 is_stmt 0 view .LVU429
 1495 00ce 731E     		subs	r3, r6, #1
  94:lvgl/src/extra/widgets/tabview/lv_tabview.c ****         if(tabview->tab_cnt == 0) {
 1496              		.loc 1 94 9 view .LVU430
 1497 00d0 DB00     		lsls	r3, r3, #3
 1498              	.LVL200:
 1499              	.LBB36:
 1500              	.LBI36:
 193:lvgl/src/extra/widgets/tabview/../../../../src/misc/lv_mem.h **** {
ARM GAS  /var/folders/21/t9g5rlb91ys800n5npymflf80000gn/T//cckp2I4w.s 			page 53


 1501              		.loc 3 193 44 is_stmt 1 view .LVU431
 1502              	.LBB37:
 195:lvgl/src/extra/widgets/tabview/../../../../src/misc/lv_mem.h ****     const uint8_t * s8 = (const uint8_t *)src;
 1503              		.loc 3 195 5 view .LVU432
 196:lvgl/src/extra/widgets/tabview/../../../../src/misc/lv_mem.h **** 
 1504              		.loc 3 196 5 view .LVU433
 198:lvgl/src/extra/widgets/tabview/../../../../src/misc/lv_mem.h ****         *d8 = *s8;
 1505              		.loc 3 198 5 view .LVU434
 196:lvgl/src/extra/widgets/tabview/../../../../src/misc/lv_mem.h **** 
 1506              		.loc 3 196 21 is_stmt 0 view .LVU435
 1507 00d2 5146     		mov	r1, r10
 195:lvgl/src/extra/widgets/tabview/../../../../src/misc/lv_mem.h ****     const uint8_t * s8 = (const uint8_t *)src;
 1508              		.loc 3 195 15 view .LVU436
 1509 00d4 0246     		mov	r2, r0
 198:lvgl/src/extra/widgets/tabview/../../../../src/misc/lv_mem.h ****         *d8 = *s8;
 1510              		.loc 3 198 10 view .LVU437
 1511 00d6 04E0     		b	.L81
 1512              	.LVL201:
 1513              	.L82:
 199:lvgl/src/extra/widgets/tabview/../../../../src/misc/lv_mem.h ****         d8++;
 1514              		.loc 3 199 9 is_stmt 1 view .LVU438
 199:lvgl/src/extra/widgets/tabview/../../../../src/misc/lv_mem.h ****         d8++;
 1515              		.loc 3 199 15 is_stmt 0 view .LVU439
 1516 00d8 11F8010B 		ldrb	r0, [r1], #1	@ zero_extendqisi2
 1517              	.LVL202:
 199:lvgl/src/extra/widgets/tabview/../../../../src/misc/lv_mem.h ****         d8++;
 1518              		.loc 3 199 13 view .LVU440
 1519 00dc 02F8010B 		strb	r0, [r2], #1
 1520              	.LVL203:
 200:lvgl/src/extra/widgets/tabview/../../../../src/misc/lv_mem.h ****         s8++;
 1521              		.loc 3 200 9 is_stmt 1 view .LVU441
 201:lvgl/src/extra/widgets/tabview/../../../../src/misc/lv_mem.h ****         len--;
 1522              		.loc 3 201 9 view .LVU442
 202:lvgl/src/extra/widgets/tabview/../../../../src/misc/lv_mem.h ****     }
 1523              		.loc 3 202 9 view .LVU443
 202:lvgl/src/extra/widgets/tabview/../../../../src/misc/lv_mem.h ****     }
 1524              		.loc 3 202 12 is_stmt 0 view .LVU444
 1525 00e0 013B     		subs	r3, r3, #1
 1526              	.LVL204:
 1527              	.L81:
 198:lvgl/src/extra/widgets/tabview/../../../../src/misc/lv_mem.h ****         *d8 = *s8;
 1528              		.loc 3 198 11 is_stmt 1 view .LVU445
 1529 00e2 002B     		cmp	r3, #0
 1530 00e4 F8D1     		bne	.L82
 1531              		.loc 3 205 5 view .LVU446
 1532              	.LVL205:
 1533              		.loc 3 205 5 is_stmt 0 view .LVU447
 1534              	.LBE37:
 1535              	.LBE36:
  95:lvgl/src/extra/widgets/tabview/lv_tabview.c ****             new_map[0] = lv_mem_alloc(strlen(name) + 1);
 1536              		.loc 1 95 9 is_stmt 1 view .LVU448
  95:lvgl/src/extra/widgets/tabview/lv_tabview.c ****             new_map[0] = lv_mem_alloc(strlen(name) + 1);
 1537              		.loc 1 95 19 is_stmt 0 view .LVU449
 1538 00e6 238D     		ldrh	r3, [r4, #40]
  95:lvgl/src/extra/widgets/tabview/lv_tabview.c ****             new_map[0] = lv_mem_alloc(strlen(name) + 1);
 1539              		.loc 1 95 11 view .LVU450
 1540 00e8 63B9     		cbnz	r3, .L83
ARM GAS  /var/folders/21/t9g5rlb91ys800n5npymflf80000gn/T//cckp2I4w.s 			page 54


  96:lvgl/src/extra/widgets/tabview/lv_tabview.c ****             strcpy((char *)new_map[0], name);
 1541              		.loc 1 96 13 is_stmt 1 view .LVU451
  96:lvgl/src/extra/widgets/tabview/lv_tabview.c ****             strcpy((char *)new_map[0], name);
 1542              		.loc 1 96 39 is_stmt 0 view .LVU452
 1543 00ea 4846     		mov	r0, r9
 1544 00ec FFF7FEFF 		bl	strlen
 1545              	.LVL206:
  96:lvgl/src/extra/widgets/tabview/lv_tabview.c ****             strcpy((char *)new_map[0], name);
 1546              		.loc 1 96 26 view .LVU453
 1547 00f0 0130     		adds	r0, r0, #1
 1548 00f2 FFF7FEFF 		bl	lv_mem_alloc
 1549              	.LVL207:
  96:lvgl/src/extra/widgets/tabview/lv_tabview.c ****             strcpy((char *)new_map[0], name);
 1550              		.loc 1 96 24 view .LVU454
 1551 00f6 2860     		str	r0, [r5]
  97:lvgl/src/extra/widgets/tabview/lv_tabview.c ****             new_map[1] = "";
 1552              		.loc 1 97 13 is_stmt 1 view .LVU455
 1553 00f8 4946     		mov	r1, r9
 1554 00fa FFF7FEFF 		bl	strcpy
 1555              	.LVL208:
  98:lvgl/src/extra/widgets/tabview/lv_tabview.c ****         }
 1556              		.loc 1 98 13 view .LVU456
  98:lvgl/src/extra/widgets/tabview/lv_tabview.c ****         }
 1557              		.loc 1 98 24 is_stmt 0 view .LVU457
 1558 00fe 114B     		ldr	r3, .L87
 1559 0100 6B60     		str	r3, [r5, #4]
 1560 0102 C2E7     		b	.L80
 1561              	.L83:
 101:lvgl/src/extra/widgets/tabview/lv_tabview.c ****             new_map[tab_id * 2 - 2] = lv_mem_alloc(strlen(name) + 1);
 1562              		.loc 1 101 13 is_stmt 1 view .LVU458
 101:lvgl/src/extra/widgets/tabview/lv_tabview.c ****             new_map[tab_id * 2 - 2] = lv_mem_alloc(strlen(name) + 1);
 1563              		.loc 1 101 20 is_stmt 0 view .LVU459
 1564 0104 ABF10C03 		sub	r3, fp, #12
 101:lvgl/src/extra/widgets/tabview/lv_tabview.c ****             new_map[tab_id * 2 - 2] = lv_mem_alloc(strlen(name) + 1);
 1565              		.loc 1 101 37 view .LVU460
 1566 0108 0F4A     		ldr	r2, .L87+4
 1567 010a EA50     		str	r2, [r5, r3]
 102:lvgl/src/extra/widgets/tabview/lv_tabview.c ****             new_map[tab_id * 2 - 1] = "";
 1568              		.loc 1 102 13 is_stmt 1 view .LVU461
 102:lvgl/src/extra/widgets/tabview/lv_tabview.c ****             new_map[tab_id * 2 - 1] = "";
 1569              		.loc 1 102 52 is_stmt 0 view .LVU462
 1570 010c 4846     		mov	r0, r9
 1571 010e FFF7FEFF 		bl	strlen
 1572              	.LVL209:
 102:lvgl/src/extra/widgets/tabview/lv_tabview.c ****             new_map[tab_id * 2 - 1] = "";
 1573              		.loc 1 102 20 view .LVU463
 1574 0112 06F10056 		add	r6, r6, #536870912
 1575              	.LVL210:
 102:lvgl/src/extra/widgets/tabview/lv_tabview.c ****             new_map[tab_id * 2 - 1] = "";
 1576              		.loc 1 102 20 view .LVU464
 1577 0116 013E     		subs	r6, r6, #1
 1578              	.LVL211:
 102:lvgl/src/extra/widgets/tabview/lv_tabview.c ****             new_map[tab_id * 2 - 1] = "";
 1579              		.loc 1 102 39 view .LVU465
 1580 0118 0130     		adds	r0, r0, #1
 1581 011a FFF7FEFF 		bl	lv_mem_alloc
 1582              	.LVL212:
ARM GAS  /var/folders/21/t9g5rlb91ys800n5npymflf80000gn/T//cckp2I4w.s 			page 55


 102:lvgl/src/extra/widgets/tabview/lv_tabview.c ****             new_map[tab_id * 2 - 1] = "";
 1583              		.loc 1 102 37 view .LVU466
 1584 011e 45F83600 		str	r0, [r5, r6, lsl #3]
 103:lvgl/src/extra/widgets/tabview/lv_tabview.c ****             strcpy((char *)new_map[(tab_id * 2) - 2], name);
 1585              		.loc 1 103 13 is_stmt 1 view .LVU467
 103:lvgl/src/extra/widgets/tabview/lv_tabview.c ****             strcpy((char *)new_map[(tab_id * 2) - 2], name);
 1586              		.loc 1 103 20 is_stmt 0 view .LVU468
 1587 0122 ABF1040B 		sub	fp, fp, #4
 103:lvgl/src/extra/widgets/tabview/lv_tabview.c ****             strcpy((char *)new_map[(tab_id * 2) - 2], name);
 1588              		.loc 1 103 37 view .LVU469
 1589 0126 074B     		ldr	r3, .L87
 1590 0128 45F80B30 		str	r3, [r5, fp]
 104:lvgl/src/extra/widgets/tabview/lv_tabview.c ****         }
 1591              		.loc 1 104 13 is_stmt 1 view .LVU470
 1592 012c 4946     		mov	r1, r9
 1593 012e 55F83600 		ldr	r0, [r5, r6, lsl #3]
 1594 0132 FFF7FEFF 		bl	strcpy
 1595              	.LVL213:
 1596 0136 A8E7     		b	.L80
 1597              	.LVL214:
 1598              	.L86:
 116:lvgl/src/extra/widgets/tabview/lv_tabview.c ****     }
 1599              		.loc 1 116 9 view .LVU471
 1600 0138 0022     		movs	r2, #0
 1601 013a 1146     		mov	r1, r2
 1602 013c 2046     		mov	r0, r4
 1603 013e FFF7FEFF 		bl	lv_tabview_set_act
 1604              	.LVL215:
 1605 0142 B5E7     		b	.L84
 1606              	.L88:
 1607              		.align	2
 1608              	.L87:
 1609 0144 00000000 		.word	.LC0
 1610 0148 00000000 		.word	.LC1
 1611              		.cfi_endproc
 1612              	.LFE205:
 1614              		.section	.bss.tabsize_create,"aw",%nobits
 1615              		.align	1
 1618              	tabsize_create:
 1619 0000 0000     		.space	2
 1620              		.section	.bss.tabpos_create,"aw",%nobits
 1623              	tabpos_create:
 1624 0000 00       		.space	1
 1625              		.global	lv_tabview_class
 1626              		.section	.rodata.lv_tabview_class,"a"
 1627              		.align	2
 1630              	lv_tabview_class:
 1631 0000 00000000 		.word	lv_obj_class
 1632 0004 00000000 		.word	lv_tabview_constructor
 1633 0008 00000000 		.word	lv_tabview_destructor
 1634 000c 00000000 		.space	4
 1635 0010 00000000 		.word	lv_tabview_event
 1636 0014 6420     		.short	8292
 1637 0016 6420     		.short	8292
 1638 0018 00       		.byte	0
 1639 0019 03       		.byte	3
 1640 001a 00       		.byte	0
ARM GAS  /var/folders/21/t9g5rlb91ys800n5npymflf80000gn/T//cckp2I4w.s 			page 56


 1641 001b 00       		.space	1
 1642              		.text
 1643              	.Letext0:
 1644              		.file 4 "/usr/local/include/sys/_types/_int8_t.h"
 1645              		.file 5 "/usr/local/include/sys/_types/_int16_t.h"
 1646              		.file 6 "/usr/local/include/sys/_types/_int32_t.h"
 1647              		.file 7 "/usr/local/include/_types/_uint8_t.h"
 1648              		.file 8 "/usr/local/include/_types/_uint16_t.h"
 1649              		.file 9 "/usr/local/include/_types/_uint32_t.h"
 1650              		.file 10 "/usr/local/include/arm/_types.h"
 1651              		.file 11 "lvgl/src/extra/widgets/tabview/../../../../src/misc/lv_types.h"
 1652              		.file 12 "lvgl/src/extra/widgets/tabview/../../../../src/misc/lv_timer.h"
 1653              		.file 13 "/usr/local/include/sys/_types/_size_t.h"
 1654              		.file 14 "lvgl/src/extra/widgets/tabview/../../../../src/misc/lv_anim.h"
 1655              		.file 15 "lvgl/src/extra/widgets/tabview/../../../../src/hal/../draw/../misc/../font/../misc/lv_ar
 1656              		.file 16 "lvgl/src/extra/widgets/tabview/../../../../src/hal/../draw/../misc/../font/lv_font.h"
 1657              		.file 17 "lvgl/src/extra/widgets/tabview/../../../../src/hal/../draw/../misc/lv_color.h"
 1658              		.file 18 "lvgl/src/extra/widgets/tabview/../../../../src/hal/../draw/../misc/lv_txt.h"
 1659              		.file 19 "lvgl/src/extra/widgets/tabview/../../../../src/hal/../draw/../misc/lv_bidi.h"
 1660              		.file 20 "lvgl/src/extra/widgets/tabview/../../../../src/hal/../draw/../misc/lv_style.h"
 1661              		.file 21 "lvgl/src/extra/widgets/tabview/../../../../src/hal/../draw/lv_img_buf.h"
 1662              		.file 22 "lvgl/src/extra/widgets/tabview/../../../../src/core/lv_obj.h"
 1663              		.file 23 "lvgl/src/extra/widgets/tabview/../../../../src/hal/../draw/lv_draw_rect.h"
 1664              		.file 24 "lvgl/src/extra/widgets/tabview/../../../../src/hal/../draw/lv_draw_label.h"
 1665              		.file 25 "lvgl/src/extra/widgets/tabview/../../../../src/hal/../draw/lv_draw_img.h"
 1666              		.file 26 "lvgl/src/extra/widgets/tabview/../../../../src/hal/../draw/lv_draw_line.h"
 1667              		.file 27 "lvgl/src/extra/widgets/tabview/../../../../src/hal/../draw/lv_draw_arc.h"
 1668              		.file 28 "lvgl/src/extra/widgets/tabview/../../../../src/hal/../draw/lv_draw_layer.h"
 1669              		.file 29 "lvgl/src/extra/widgets/tabview/../../../../src/hal/../draw/lv_draw.h"
 1670              		.file 30 "lvgl/src/extra/widgets/tabview/../../../../src/hal/../misc/lv_ll.h"
 1671              		.file 31 "lvgl/src/extra/widgets/tabview/../../../../src/hal/lv_hal_disp.h"
 1672              		.file 32 "lvgl/src/extra/widgets/tabview/../../../../src/core/lv_theme.h"
 1673              		.file 33 "lvgl/src/extra/widgets/tabview/../../../../src/hal/lv_hal_indev.h"
 1674              		.file 34 "lvgl/src/extra/widgets/tabview/../../../../src/core/lv_group.h"
 1675              		.file 35 "lvgl/src/extra/widgets/tabview/../../../../src/core/lv_obj_scroll.h"
 1676              		.file 36 "lvgl/src/extra/widgets/tabview/../../../../src/core/lv_obj_style.h"
 1677              		.file 37 "lvgl/src/extra/widgets/tabview/../../../../src/core/lv_obj_class.h"
 1678              		.file 38 "lvgl/src/extra/widgets/tabview/../../../../src/core/lv_event.h"
 1679              		.file 39 "lvgl/src/extra/widgets/tabview/../../../../src/widgets/lv_bar.h"
 1680              		.file 40 "lvgl/src/extra/widgets/tabview/../../../../src/widgets/lv_btnmatrix.h"
 1681              		.file 41 "lvgl/src/extra/widgets/tabview/../../../../src/extra/layouts/flex/lv_flex.h"
 1682              		.file 42 "lvgl/src/extra/widgets/tabview/../../../../src/extra/widgets/imgbtn/lv_imgbtn.h"
 1683              		.file 43 "lvgl/src/extra/widgets/tabview/lv_tabview.h"
 1684              		.file 44 "lvgl/src/extra/widgets/tabview/../../../../src/hal/../draw/sw/../../core/lv_obj_pos.h"
 1685              		.file 45 "lvgl/src/extra/widgets/tabview/../../../../src/core/lv_obj_tree.h"
 1686              		.file 46 "/usr/local/include/string.h"
 1687              		.file 47 "lvgl/src/extra/widgets/tabview/../../../../src/core/lv_indev.h"
 1688              		.file 48 "<built-in>"
ARM GAS  /var/folders/21/t9g5rlb91ys800n5npymflf80000gn/T//cckp2I4w.s 			page 57

