ARM GAS  /var/folders/21/t9g5rlb91ys800n5npymflf80000gn/T//ccvPn2HT.s 			page 1


   1              		.cpu cortex-m4
   2              		.arch armv7e-m
   3              		.fpu fpv4-sp-d16
   4              		.eabi_attribute 27, 1
   5              		.eabi_attribute 28, 1
   6              		.eabi_attribute 20, 1
   7              		.eabi_attribute 21, 1
   8              		.eabi_attribute 23, 3
   9              		.eabi_attribute 24, 1
  10              		.eabi_attribute 25, 1
  11              		.eabi_attribute 26, 1
  12              		.eabi_attribute 30, 1
  13              		.eabi_attribute 34, 1
  14              		.eabi_attribute 18, 4
  15              		.file	"lv_txt.c"
  16              		.text
  17              	.Ltext0:
  18              		.cfi_sections	.debug_frame
  19              		.file 1 "lvgl/src/misc/lv_txt.c"
  20              		.section	.text.lv_txt_utf8_size,"ax",%progbits
  21              		.align	1
  22              		.syntax unified
  23              		.thumb
  24              		.thumb_func
  26              	lv_txt_utf8_size:
  27              	.LVL0:
  28              	.LFB64:
   1:lvgl/src/misc/lv_txt.c **** /**
   2:lvgl/src/misc/lv_txt.c ****  * @file lv_txt.c
   3:lvgl/src/misc/lv_txt.c ****  *
   4:lvgl/src/misc/lv_txt.c ****  */
   5:lvgl/src/misc/lv_txt.c **** 
   6:lvgl/src/misc/lv_txt.c **** /*********************
   7:lvgl/src/misc/lv_txt.c ****  *      INCLUDES
   8:lvgl/src/misc/lv_txt.c ****  *********************/
   9:lvgl/src/misc/lv_txt.c **** #include <stdarg.h>
  10:lvgl/src/misc/lv_txt.c **** #include "lv_txt.h"
  11:lvgl/src/misc/lv_txt.c **** #include "lv_txt_ap.h"
  12:lvgl/src/misc/lv_txt.c **** #include "lv_math.h"
  13:lvgl/src/misc/lv_txt.c **** #include "lv_log.h"
  14:lvgl/src/misc/lv_txt.c **** #include "lv_mem.h"
  15:lvgl/src/misc/lv_txt.c **** #include "lv_assert.h"
  16:lvgl/src/misc/lv_txt.c **** 
  17:lvgl/src/misc/lv_txt.c **** /*********************
  18:lvgl/src/misc/lv_txt.c ****  *      DEFINES
  19:lvgl/src/misc/lv_txt.c ****  *********************/
  20:lvgl/src/misc/lv_txt.c **** #define NO_BREAK_FOUND UINT32_MAX
  21:lvgl/src/misc/lv_txt.c **** 
  22:lvgl/src/misc/lv_txt.c **** /**********************
  23:lvgl/src/misc/lv_txt.c ****  *      TYPEDEFS
  24:lvgl/src/misc/lv_txt.c ****  **********************/
  25:lvgl/src/misc/lv_txt.c **** 
  26:lvgl/src/misc/lv_txt.c **** /**********************
  27:lvgl/src/misc/lv_txt.c ****  *  STATIC PROTOTYPES
  28:lvgl/src/misc/lv_txt.c ****  **********************/
  29:lvgl/src/misc/lv_txt.c **** 
  30:lvgl/src/misc/lv_txt.c **** #if LV_TXT_ENC == LV_TXT_ENC_UTF8
ARM GAS  /var/folders/21/t9g5rlb91ys800n5npymflf80000gn/T//ccvPn2HT.s 			page 2


  31:lvgl/src/misc/lv_txt.c ****     static uint8_t lv_txt_utf8_size(const char * str);
  32:lvgl/src/misc/lv_txt.c ****     static uint32_t lv_txt_unicode_to_utf8(uint32_t letter_uni);
  33:lvgl/src/misc/lv_txt.c ****     static uint32_t lv_txt_utf8_conv_wc(uint32_t c);
  34:lvgl/src/misc/lv_txt.c ****     static uint32_t lv_txt_utf8_next(const char * txt, uint32_t * i);
  35:lvgl/src/misc/lv_txt.c ****     static uint32_t lv_txt_utf8_prev(const char * txt, uint32_t * i_start);
  36:lvgl/src/misc/lv_txt.c ****     static uint32_t lv_txt_utf8_get_byte_id(const char * txt, uint32_t utf8_id);
  37:lvgl/src/misc/lv_txt.c ****     static uint32_t lv_txt_utf8_get_char_id(const char * txt, uint32_t byte_id);
  38:lvgl/src/misc/lv_txt.c ****     static uint32_t lv_txt_utf8_get_length(const char * txt);
  39:lvgl/src/misc/lv_txt.c **** #elif LV_TXT_ENC == LV_TXT_ENC_ASCII
  40:lvgl/src/misc/lv_txt.c ****     static uint8_t lv_txt_iso8859_1_size(const char * str);
  41:lvgl/src/misc/lv_txt.c ****     static uint32_t lv_txt_unicode_to_iso8859_1(uint32_t letter_uni);
  42:lvgl/src/misc/lv_txt.c ****     static uint32_t lv_txt_iso8859_1_conv_wc(uint32_t c);
  43:lvgl/src/misc/lv_txt.c ****     static uint32_t lv_txt_iso8859_1_next(const char * txt, uint32_t * i);
  44:lvgl/src/misc/lv_txt.c ****     static uint32_t lv_txt_iso8859_1_prev(const char * txt, uint32_t * i_start);
  45:lvgl/src/misc/lv_txt.c ****     static uint32_t lv_txt_iso8859_1_get_byte_id(const char * txt, uint32_t utf8_id);
  46:lvgl/src/misc/lv_txt.c ****     static uint32_t lv_txt_iso8859_1_get_char_id(const char * txt, uint32_t byte_id);
  47:lvgl/src/misc/lv_txt.c ****     static uint32_t lv_txt_iso8859_1_get_length(const char * txt);
  48:lvgl/src/misc/lv_txt.c **** #endif
  49:lvgl/src/misc/lv_txt.c **** /**********************
  50:lvgl/src/misc/lv_txt.c ****  *  STATIC VARIABLES
  51:lvgl/src/misc/lv_txt.c ****  **********************/
  52:lvgl/src/misc/lv_txt.c **** 
  53:lvgl/src/misc/lv_txt.c **** /**********************
  54:lvgl/src/misc/lv_txt.c ****  *  GLOBAL VARIABLES
  55:lvgl/src/misc/lv_txt.c ****  **********************/
  56:lvgl/src/misc/lv_txt.c **** #if LV_TXT_ENC == LV_TXT_ENC_UTF8
  57:lvgl/src/misc/lv_txt.c ****     uint8_t (*_lv_txt_encoded_size)(const char *)                   = lv_txt_utf8_size;
  58:lvgl/src/misc/lv_txt.c ****     uint32_t (*_lv_txt_unicode_to_encoded)(uint32_t)                = lv_txt_unicode_to_utf8;
  59:lvgl/src/misc/lv_txt.c ****     uint32_t (*_lv_txt_encoded_conv_wc)(uint32_t)                   = lv_txt_utf8_conv_wc;
  60:lvgl/src/misc/lv_txt.c ****     uint32_t (*_lv_txt_encoded_next)(const char *, uint32_t *)      = lv_txt_utf8_next;
  61:lvgl/src/misc/lv_txt.c ****     uint32_t (*_lv_txt_encoded_prev)(const char *, uint32_t *)      = lv_txt_utf8_prev;
  62:lvgl/src/misc/lv_txt.c ****     uint32_t (*_lv_txt_encoded_get_byte_id)(const char *, uint32_t) = lv_txt_utf8_get_byte_id;
  63:lvgl/src/misc/lv_txt.c ****     uint32_t (*_lv_txt_encoded_get_char_id)(const char *, uint32_t) = lv_txt_utf8_get_char_id;
  64:lvgl/src/misc/lv_txt.c ****     uint32_t (*_lv_txt_get_encoded_length)(const char *)            = lv_txt_utf8_get_length;
  65:lvgl/src/misc/lv_txt.c **** #elif LV_TXT_ENC == LV_TXT_ENC_ASCII
  66:lvgl/src/misc/lv_txt.c ****     uint8_t (*_lv_txt_encoded_size)(const char *)                   = lv_txt_iso8859_1_size;
  67:lvgl/src/misc/lv_txt.c ****     uint32_t (*_lv_txt_unicode_to_encoded)(uint32_t)                = lv_txt_unicode_to_iso8859_1;
  68:lvgl/src/misc/lv_txt.c ****     uint32_t (*_lv_txt_encoded_conv_wc)(uint32_t)                   = lv_txt_iso8859_1_conv_wc;
  69:lvgl/src/misc/lv_txt.c ****     uint32_t (*_lv_txt_encoded_next)(const char *, uint32_t *)      = lv_txt_iso8859_1_next;
  70:lvgl/src/misc/lv_txt.c ****     uint32_t (*_lv_txt_encoded_prev)(const char *, uint32_t *)      = lv_txt_iso8859_1_prev;
  71:lvgl/src/misc/lv_txt.c ****     uint32_t (*_lv_txt_encoded_get_byte_id)(const char *, uint32_t) = lv_txt_iso8859_1_get_byte_id;
  72:lvgl/src/misc/lv_txt.c ****     uint32_t (*_lv_txt_encoded_get_char_id)(const char *, uint32_t)     = lv_txt_iso8859_1_get_char
  73:lvgl/src/misc/lv_txt.c ****     uint32_t (*_lv_txt_get_encoded_length)(const char *)            = lv_txt_iso8859_1_get_length;
  74:lvgl/src/misc/lv_txt.c **** 
  75:lvgl/src/misc/lv_txt.c **** #endif
  76:lvgl/src/misc/lv_txt.c **** 
  77:lvgl/src/misc/lv_txt.c **** /**********************
  78:lvgl/src/misc/lv_txt.c ****  *      MACROS
  79:lvgl/src/misc/lv_txt.c ****  **********************/
  80:lvgl/src/misc/lv_txt.c **** 
  81:lvgl/src/misc/lv_txt.c **** #define LV_IS_ASCII(value)              ((value & 0x80U) == 0x00U)
  82:lvgl/src/misc/lv_txt.c **** #define LV_IS_2BYTES_UTF8_CODE(value)   ((value & 0xE0U) == 0xC0U)
  83:lvgl/src/misc/lv_txt.c **** #define LV_IS_3BYTES_UTF8_CODE(value)   ((value & 0xF0U) == 0xE0U)
  84:lvgl/src/misc/lv_txt.c **** #define LV_IS_4BYTES_UTF8_CODE(value)   ((value & 0xF8U) == 0xF0U)
  85:lvgl/src/misc/lv_txt.c **** #define LV_IS_INVALID_UTF8_CODE(value)  ((value & 0xC0U) != 0x80U)
  86:lvgl/src/misc/lv_txt.c **** 
  87:lvgl/src/misc/lv_txt.c **** /**********************
ARM GAS  /var/folders/21/t9g5rlb91ys800n5npymflf80000gn/T//ccvPn2HT.s 			page 3


  88:lvgl/src/misc/lv_txt.c ****  *   GLOBAL FUNCTIONS
  89:lvgl/src/misc/lv_txt.c ****  **********************/
  90:lvgl/src/misc/lv_txt.c **** 
  91:lvgl/src/misc/lv_txt.c **** void lv_txt_get_size(lv_point_t * size_res, const char * text, const lv_font_t * font, lv_coord_t l
  92:lvgl/src/misc/lv_txt.c ****                      lv_coord_t line_space, lv_coord_t max_width, lv_text_flag_t flag)
  93:lvgl/src/misc/lv_txt.c **** {
  94:lvgl/src/misc/lv_txt.c ****     size_res->x = 0;
  95:lvgl/src/misc/lv_txt.c ****     size_res->y = 0;
  96:lvgl/src/misc/lv_txt.c **** 
  97:lvgl/src/misc/lv_txt.c ****     if(text == NULL) return;
  98:lvgl/src/misc/lv_txt.c ****     if(font == NULL) return;
  99:lvgl/src/misc/lv_txt.c **** 
 100:lvgl/src/misc/lv_txt.c ****     if(flag & LV_TEXT_FLAG_EXPAND) max_width = LV_COORD_MAX;
 101:lvgl/src/misc/lv_txt.c **** 
 102:lvgl/src/misc/lv_txt.c ****     uint32_t line_start     = 0;
 103:lvgl/src/misc/lv_txt.c ****     uint32_t new_line_start = 0;
 104:lvgl/src/misc/lv_txt.c ****     uint16_t letter_height = lv_font_get_line_height(font);
 105:lvgl/src/misc/lv_txt.c **** 
 106:lvgl/src/misc/lv_txt.c ****     /*Calc. the height and longest line*/
 107:lvgl/src/misc/lv_txt.c ****     while(text[line_start] != '\0') {
 108:lvgl/src/misc/lv_txt.c ****         new_line_start += _lv_txt_get_next_line(&text[line_start], font, letter_space, max_width, N
 109:lvgl/src/misc/lv_txt.c **** 
 110:lvgl/src/misc/lv_txt.c ****         if((unsigned long)size_res->y + (unsigned long)letter_height + (unsigned long)line_space > 
 111:lvgl/src/misc/lv_txt.c ****             LV_LOG_WARN("lv_txt_get_size: integer overflow while calculating text height");
 112:lvgl/src/misc/lv_txt.c ****             return;
 113:lvgl/src/misc/lv_txt.c ****         }
 114:lvgl/src/misc/lv_txt.c ****         else {
 115:lvgl/src/misc/lv_txt.c ****             size_res->y += letter_height;
 116:lvgl/src/misc/lv_txt.c ****             size_res->y += line_space;
 117:lvgl/src/misc/lv_txt.c ****         }
 118:lvgl/src/misc/lv_txt.c **** 
 119:lvgl/src/misc/lv_txt.c ****         /*Calculate the longest line*/
 120:lvgl/src/misc/lv_txt.c ****         lv_coord_t act_line_length = lv_txt_get_width(&text[line_start], new_line_start - line_star
 121:lvgl/src/misc/lv_txt.c ****                                                       flag);
 122:lvgl/src/misc/lv_txt.c **** 
 123:lvgl/src/misc/lv_txt.c ****         size_res->x = LV_MAX(act_line_length, size_res->x);
 124:lvgl/src/misc/lv_txt.c ****         line_start  = new_line_start;
 125:lvgl/src/misc/lv_txt.c ****     }
 126:lvgl/src/misc/lv_txt.c **** 
 127:lvgl/src/misc/lv_txt.c ****     /*Make the text one line taller if the last character is '\n' or '\r'*/
 128:lvgl/src/misc/lv_txt.c ****     if((line_start != 0) && (text[line_start - 1] == '\n' || text[line_start - 1] == '\r')) {
 129:lvgl/src/misc/lv_txt.c ****         size_res->y += letter_height + line_space;
 130:lvgl/src/misc/lv_txt.c ****     }
 131:lvgl/src/misc/lv_txt.c **** 
 132:lvgl/src/misc/lv_txt.c ****     /*Correction with the last line space or set the height manually if the text is empty*/
 133:lvgl/src/misc/lv_txt.c ****     if(size_res->y == 0)
 134:lvgl/src/misc/lv_txt.c ****         size_res->y = letter_height;
 135:lvgl/src/misc/lv_txt.c ****     else
 136:lvgl/src/misc/lv_txt.c ****         size_res->y -= line_space;
 137:lvgl/src/misc/lv_txt.c **** }
 138:lvgl/src/misc/lv_txt.c **** 
 139:lvgl/src/misc/lv_txt.c **** /**
 140:lvgl/src/misc/lv_txt.c ****  * Get the next word of text. A word is delimited by break characters.
 141:lvgl/src/misc/lv_txt.c ****  *
 142:lvgl/src/misc/lv_txt.c ****  * If the word cannot fit in the max_width space, obey LV_TXT_LINE_BREAK_LONG_* rules.
 143:lvgl/src/misc/lv_txt.c ****  *
 144:lvgl/src/misc/lv_txt.c ****  * If the next word cannot fit anything, return 0.
ARM GAS  /var/folders/21/t9g5rlb91ys800n5npymflf80000gn/T//ccvPn2HT.s 			page 4


 145:lvgl/src/misc/lv_txt.c ****  *
 146:lvgl/src/misc/lv_txt.c ****  * If the first character is a break character, returns the next index.
 147:lvgl/src/misc/lv_txt.c ****  *
 148:lvgl/src/misc/lv_txt.c ****  * Example calls from lv_txt_get_next_line() assuming sufficient max_width and
 149:lvgl/src/misc/lv_txt.c ****  * txt = "Test text\n"
 150:lvgl/src/misc/lv_txt.c ****  *        0123456789
 151:lvgl/src/misc/lv_txt.c ****  *
 152:lvgl/src/misc/lv_txt.c ****  * Calls would be as follows:
 153:lvgl/src/misc/lv_txt.c ****  *     1. Return i=4, pointing at breakchar ' ', for the string "Test"
 154:lvgl/src/misc/lv_txt.c ****  *     2. Return i=5, since i=4 was a breakchar.
 155:lvgl/src/misc/lv_txt.c ****  *     3. Return i=9, pointing at breakchar '\n'
 156:lvgl/src/misc/lv_txt.c ****  *     4. Parenting lv_txt_get_next_line() would detect subsequent '\0'
 157:lvgl/src/misc/lv_txt.c ****  *
 158:lvgl/src/misc/lv_txt.c ****  * TODO: Returned word_w_ptr may overestimate the returned word's width when
 159:lvgl/src/misc/lv_txt.c ****  * max_width is reached. In current usage, this has no impact.
 160:lvgl/src/misc/lv_txt.c ****  *
 161:lvgl/src/misc/lv_txt.c ****  * @param txt a '\0' terminated string
 162:lvgl/src/misc/lv_txt.c ****  * @param font pointer to a font
 163:lvgl/src/misc/lv_txt.c ****  * @param letter_space letter space
 164:lvgl/src/misc/lv_txt.c ****  * @param max_width max width of the text (break the lines to fit this size). Set COORD_MAX to avoi
 165:lvgl/src/misc/lv_txt.c ****  * @param flags settings for the text from 'txt_flag_type' enum
 166:lvgl/src/misc/lv_txt.c ****  * @param[out] word_w_ptr width (in pixels) of the parsed word. May be NULL.
 167:lvgl/src/misc/lv_txt.c ****  * @param cmd_state pointer to a txt_cmd_state_t variable which stores the current state of command
 168:lvgl/src/misc/lv_txt.c ****  * @param force Force return the fraction of the word that can fit in the provided space.
 169:lvgl/src/misc/lv_txt.c ****  * @return the index of the first char of the next word (in byte index not letter index. With UTF-8
 170:lvgl/src/misc/lv_txt.c ****  */
 171:lvgl/src/misc/lv_txt.c **** static uint32_t lv_txt_get_next_word(const char * txt, const lv_font_t * font,
 172:lvgl/src/misc/lv_txt.c ****                                      lv_coord_t letter_space, lv_coord_t max_width,
 173:lvgl/src/misc/lv_txt.c ****                                      lv_text_flag_t flag, uint32_t * word_w_ptr, lv_text_cmd_state_
 174:lvgl/src/misc/lv_txt.c **** {
 175:lvgl/src/misc/lv_txt.c ****     if(txt == NULL || txt[0] == '\0') return 0;
 176:lvgl/src/misc/lv_txt.c ****     if(font == NULL) return 0;
 177:lvgl/src/misc/lv_txt.c **** 
 178:lvgl/src/misc/lv_txt.c ****     if(flag & LV_TEXT_FLAG_EXPAND) max_width = LV_COORD_MAX;
 179:lvgl/src/misc/lv_txt.c **** 
 180:lvgl/src/misc/lv_txt.c ****     uint32_t i = 0, i_next = 0, i_next_next = 0;  /*Iterating index into txt*/
 181:lvgl/src/misc/lv_txt.c ****     uint32_t letter = 0;      /*Letter at i*/
 182:lvgl/src/misc/lv_txt.c ****     uint32_t letter_next = 0; /*Letter at i_next*/
 183:lvgl/src/misc/lv_txt.c ****     lv_coord_t letter_w;
 184:lvgl/src/misc/lv_txt.c ****     lv_coord_t cur_w = 0;  /*Pixel Width of transversed string*/
 185:lvgl/src/misc/lv_txt.c ****     uint32_t word_len = 0;   /*Number of characters in the transversed word*/
 186:lvgl/src/misc/lv_txt.c ****     uint32_t break_index = NO_BREAK_FOUND; /*only used for "long" words*/
 187:lvgl/src/misc/lv_txt.c ****     uint32_t break_letter_count = 0; /*Number of characters up to the long word break point*/
 188:lvgl/src/misc/lv_txt.c **** 
 189:lvgl/src/misc/lv_txt.c ****     letter = _lv_txt_encoded_next(txt, &i_next);
 190:lvgl/src/misc/lv_txt.c ****     i_next_next = i_next;
 191:lvgl/src/misc/lv_txt.c **** 
 192:lvgl/src/misc/lv_txt.c ****     /*Obtain the full word, regardless if it fits or not in max_width*/
 193:lvgl/src/misc/lv_txt.c ****     while(txt[i] != '\0') {
 194:lvgl/src/misc/lv_txt.c ****         letter_next = _lv_txt_encoded_next(txt, &i_next_next);
 195:lvgl/src/misc/lv_txt.c ****         word_len++;
 196:lvgl/src/misc/lv_txt.c **** 
 197:lvgl/src/misc/lv_txt.c ****         /*Handle the recolor command*/
 198:lvgl/src/misc/lv_txt.c ****         if((flag & LV_TEXT_FLAG_RECOLOR) != 0) {
 199:lvgl/src/misc/lv_txt.c ****             if(_lv_txt_is_cmd(cmd_state, letter) != false) {
 200:lvgl/src/misc/lv_txt.c ****                 i = i_next;
 201:lvgl/src/misc/lv_txt.c ****                 i_next = i_next_next;
ARM GAS  /var/folders/21/t9g5rlb91ys800n5npymflf80000gn/T//ccvPn2HT.s 			page 5


 202:lvgl/src/misc/lv_txt.c ****                 letter = letter_next;
 203:lvgl/src/misc/lv_txt.c ****                 continue;   /*Skip the letter if it is part of a command*/
 204:lvgl/src/misc/lv_txt.c ****             }
 205:lvgl/src/misc/lv_txt.c ****         }
 206:lvgl/src/misc/lv_txt.c **** 
 207:lvgl/src/misc/lv_txt.c ****         letter_w = lv_font_get_glyph_width(font, letter, letter_next);
 208:lvgl/src/misc/lv_txt.c ****         cur_w += letter_w;
 209:lvgl/src/misc/lv_txt.c **** 
 210:lvgl/src/misc/lv_txt.c ****         if(letter_w > 0) {
 211:lvgl/src/misc/lv_txt.c ****             cur_w += letter_space;
 212:lvgl/src/misc/lv_txt.c ****         }
 213:lvgl/src/misc/lv_txt.c **** 
 214:lvgl/src/misc/lv_txt.c ****         /*Test if this character fits within max_width*/
 215:lvgl/src/misc/lv_txt.c ****         if(break_index == NO_BREAK_FOUND && (cur_w - letter_space) > max_width) {
 216:lvgl/src/misc/lv_txt.c ****             break_index = i;
 217:lvgl/src/misc/lv_txt.c ****             break_letter_count = word_len - 1;
 218:lvgl/src/misc/lv_txt.c ****             /*break_index is now pointing at the character that doesn't fit*/
 219:lvgl/src/misc/lv_txt.c ****         }
 220:lvgl/src/misc/lv_txt.c **** 
 221:lvgl/src/misc/lv_txt.c ****         /*Check for new line chars and breakchars*/
 222:lvgl/src/misc/lv_txt.c ****         if(letter == '\n' || letter == '\r' || _lv_txt_is_break_char(letter)) {
 223:lvgl/src/misc/lv_txt.c ****             /*Update the output width on the first character if it fits.
 224:lvgl/src/misc/lv_txt.c ****              *Must do this here in case first letter is a break character.*/
 225:lvgl/src/misc/lv_txt.c ****             if(i == 0 && break_index == NO_BREAK_FOUND && word_w_ptr != NULL) *word_w_ptr = cur_w;
 226:lvgl/src/misc/lv_txt.c ****             word_len--;
 227:lvgl/src/misc/lv_txt.c ****             break;
 228:lvgl/src/misc/lv_txt.c ****         }
 229:lvgl/src/misc/lv_txt.c **** 
 230:lvgl/src/misc/lv_txt.c ****         /*Update the output width*/
 231:lvgl/src/misc/lv_txt.c ****         if(word_w_ptr != NULL && break_index == NO_BREAK_FOUND) *word_w_ptr = cur_w;
 232:lvgl/src/misc/lv_txt.c **** 
 233:lvgl/src/misc/lv_txt.c ****         i = i_next;
 234:lvgl/src/misc/lv_txt.c ****         i_next = i_next_next;
 235:lvgl/src/misc/lv_txt.c ****         letter = letter_next;
 236:lvgl/src/misc/lv_txt.c ****     }
 237:lvgl/src/misc/lv_txt.c **** 
 238:lvgl/src/misc/lv_txt.c ****     /*Entire Word fits in the provided space*/
 239:lvgl/src/misc/lv_txt.c ****     if(break_index == NO_BREAK_FOUND) {
 240:lvgl/src/misc/lv_txt.c ****         if(word_len == 0 || (letter == '\r' && letter_next == '\n')) i = i_next;
 241:lvgl/src/misc/lv_txt.c ****         return i;
 242:lvgl/src/misc/lv_txt.c ****     }
 243:lvgl/src/misc/lv_txt.c **** 
 244:lvgl/src/misc/lv_txt.c **** #if LV_TXT_LINE_BREAK_LONG_LEN > 0
 245:lvgl/src/misc/lv_txt.c ****     /*Word doesn't fit in provided space, but isn't "long"*/
 246:lvgl/src/misc/lv_txt.c ****     if(word_len < LV_TXT_LINE_BREAK_LONG_LEN) {
 247:lvgl/src/misc/lv_txt.c ****         if(force) return break_index;
 248:lvgl/src/misc/lv_txt.c ****         if(word_w_ptr != NULL) *word_w_ptr = 0; /*Return no word*/
 249:lvgl/src/misc/lv_txt.c ****         return 0;
 250:lvgl/src/misc/lv_txt.c ****     }
 251:lvgl/src/misc/lv_txt.c **** 
 252:lvgl/src/misc/lv_txt.c ****     /*Word is "long," but insufficient amounts can fit in provided space*/
 253:lvgl/src/misc/lv_txt.c ****     if(break_letter_count < LV_TXT_LINE_BREAK_LONG_PRE_MIN_LEN) {
 254:lvgl/src/misc/lv_txt.c ****         if(force) return break_index;
 255:lvgl/src/misc/lv_txt.c ****         if(word_w_ptr != NULL) *word_w_ptr = 0;
 256:lvgl/src/misc/lv_txt.c ****         return 0;
 257:lvgl/src/misc/lv_txt.c ****     }
 258:lvgl/src/misc/lv_txt.c **** 
ARM GAS  /var/folders/21/t9g5rlb91ys800n5npymflf80000gn/T//ccvPn2HT.s 			page 6


 259:lvgl/src/misc/lv_txt.c ****     /*Word is a "long", but letters may need to be better distributed*/
 260:lvgl/src/misc/lv_txt.c ****     {
 261:lvgl/src/misc/lv_txt.c ****         i = break_index;
 262:lvgl/src/misc/lv_txt.c ****         int32_t n_move = LV_TXT_LINE_BREAK_LONG_POST_MIN_LEN - (word_len - break_letter_count);
 263:lvgl/src/misc/lv_txt.c ****         /*Move pointer "i" backwards*/
 264:lvgl/src/misc/lv_txt.c ****         for(; n_move > 0; n_move--) {
 265:lvgl/src/misc/lv_txt.c ****             _lv_txt_encoded_prev(txt, &i);
 266:lvgl/src/misc/lv_txt.c ****             // TODO: it would be appropriate to update the returned word width here
 267:lvgl/src/misc/lv_txt.c ****             // However, in current usage, this doesn't impact anything.
 268:lvgl/src/misc/lv_txt.c ****         }
 269:lvgl/src/misc/lv_txt.c ****     }
 270:lvgl/src/misc/lv_txt.c ****     return i;
 271:lvgl/src/misc/lv_txt.c **** #else
 272:lvgl/src/misc/lv_txt.c ****     if(force) return break_index;
 273:lvgl/src/misc/lv_txt.c ****     if(word_w_ptr != NULL) *word_w_ptr = 0; /*Return no word*/
 274:lvgl/src/misc/lv_txt.c ****     (void) break_letter_count;
 275:lvgl/src/misc/lv_txt.c ****     return 0;
 276:lvgl/src/misc/lv_txt.c **** #endif
 277:lvgl/src/misc/lv_txt.c **** }
 278:lvgl/src/misc/lv_txt.c **** 
 279:lvgl/src/misc/lv_txt.c **** uint32_t _lv_txt_get_next_line(const char * txt, const lv_font_t * font,
 280:lvgl/src/misc/lv_txt.c ****                                lv_coord_t letter_space, lv_coord_t max_width,
 281:lvgl/src/misc/lv_txt.c ****                                lv_coord_t * used_width, lv_text_flag_t flag)
 282:lvgl/src/misc/lv_txt.c **** {
 283:lvgl/src/misc/lv_txt.c ****     if(used_width) *used_width = 0;
 284:lvgl/src/misc/lv_txt.c **** 
 285:lvgl/src/misc/lv_txt.c ****     if(txt == NULL) return 0;
 286:lvgl/src/misc/lv_txt.c ****     if(txt[0] == '\0') return 0;
 287:lvgl/src/misc/lv_txt.c ****     if(font == NULL) return 0;
 288:lvgl/src/misc/lv_txt.c **** 
 289:lvgl/src/misc/lv_txt.c ****     lv_coord_t line_w = 0;
 290:lvgl/src/misc/lv_txt.c **** 
 291:lvgl/src/misc/lv_txt.c ****     /*If max_width doesn't mater simply find the new line character
 292:lvgl/src/misc/lv_txt.c ****      *without thinking about word wrapping*/
 293:lvgl/src/misc/lv_txt.c ****     if((flag & LV_TEXT_FLAG_EXPAND) || (flag & LV_TEXT_FLAG_FIT)) {
 294:lvgl/src/misc/lv_txt.c ****         uint32_t i;
 295:lvgl/src/misc/lv_txt.c ****         for(i = 0; txt[i] != '\n' && txt[i] != '\r' && txt[i] != '\0'; i++) {
 296:lvgl/src/misc/lv_txt.c ****             /*Just find the new line chars or string ends by incrementing `i`*/
 297:lvgl/src/misc/lv_txt.c ****         }
 298:lvgl/src/misc/lv_txt.c ****         if(txt[i] != '\0') i++;    /*To go beyond `\n`*/
 299:lvgl/src/misc/lv_txt.c ****         if(used_width) *used_width = -1;
 300:lvgl/src/misc/lv_txt.c ****         return i;
 301:lvgl/src/misc/lv_txt.c ****     }
 302:lvgl/src/misc/lv_txt.c **** 
 303:lvgl/src/misc/lv_txt.c ****     if(flag & LV_TEXT_FLAG_EXPAND) max_width = LV_COORD_MAX;
 304:lvgl/src/misc/lv_txt.c ****     lv_text_cmd_state_t cmd_state = LV_TEXT_CMD_STATE_WAIT;
 305:lvgl/src/misc/lv_txt.c ****     uint32_t i = 0;                                        /*Iterating index into txt*/
 306:lvgl/src/misc/lv_txt.c **** 
 307:lvgl/src/misc/lv_txt.c ****     while(txt[i] != '\0' && max_width > 0) {
 308:lvgl/src/misc/lv_txt.c ****         uint32_t word_w = 0;
 309:lvgl/src/misc/lv_txt.c ****         uint32_t advance = lv_txt_get_next_word(&txt[i], font, letter_space, max_width, flag, &word
 310:lvgl/src/misc/lv_txt.c ****         max_width -= word_w;
 311:lvgl/src/misc/lv_txt.c ****         line_w += word_w;
 312:lvgl/src/misc/lv_txt.c **** 
 313:lvgl/src/misc/lv_txt.c ****         if(advance == 0) {
 314:lvgl/src/misc/lv_txt.c ****             break;
 315:lvgl/src/misc/lv_txt.c ****         }
ARM GAS  /var/folders/21/t9g5rlb91ys800n5npymflf80000gn/T//ccvPn2HT.s 			page 7


 316:lvgl/src/misc/lv_txt.c **** 
 317:lvgl/src/misc/lv_txt.c ****         i += advance;
 318:lvgl/src/misc/lv_txt.c **** 
 319:lvgl/src/misc/lv_txt.c ****         if(txt[0] == '\n' || txt[0] == '\r') break;
 320:lvgl/src/misc/lv_txt.c **** 
 321:lvgl/src/misc/lv_txt.c ****         if(txt[i] == '\n' || txt[i] == '\r') {
 322:lvgl/src/misc/lv_txt.c ****             i++;  /*Include the following newline in the current line*/
 323:lvgl/src/misc/lv_txt.c ****             break;
 324:lvgl/src/misc/lv_txt.c ****         }
 325:lvgl/src/misc/lv_txt.c **** 
 326:lvgl/src/misc/lv_txt.c ****     }
 327:lvgl/src/misc/lv_txt.c **** 
 328:lvgl/src/misc/lv_txt.c ****     /*Always step at least one to avoid infinite loops*/
 329:lvgl/src/misc/lv_txt.c ****     if(i == 0) {
 330:lvgl/src/misc/lv_txt.c ****         uint32_t letter = _lv_txt_encoded_next(txt, &i);
 331:lvgl/src/misc/lv_txt.c ****         if(used_width != NULL) {
 332:lvgl/src/misc/lv_txt.c ****             line_w = lv_font_get_glyph_width(font, letter, '\0');
 333:lvgl/src/misc/lv_txt.c ****         }
 334:lvgl/src/misc/lv_txt.c ****     }
 335:lvgl/src/misc/lv_txt.c **** 
 336:lvgl/src/misc/lv_txt.c ****     if(used_width != NULL) {
 337:lvgl/src/misc/lv_txt.c ****         *used_width = line_w;
 338:lvgl/src/misc/lv_txt.c ****     }
 339:lvgl/src/misc/lv_txt.c **** 
 340:lvgl/src/misc/lv_txt.c ****     return i;
 341:lvgl/src/misc/lv_txt.c **** }
 342:lvgl/src/misc/lv_txt.c **** 
 343:lvgl/src/misc/lv_txt.c **** lv_coord_t lv_txt_get_width(const char * txt, uint32_t length, const lv_font_t * font, lv_coord_t l
 344:lvgl/src/misc/lv_txt.c ****                             lv_text_flag_t flag)
 345:lvgl/src/misc/lv_txt.c **** {
 346:lvgl/src/misc/lv_txt.c ****     if(txt == NULL) return 0;
 347:lvgl/src/misc/lv_txt.c ****     if(font == NULL) return 0;
 348:lvgl/src/misc/lv_txt.c ****     if(txt[0] == '\0') return 0;
 349:lvgl/src/misc/lv_txt.c **** 
 350:lvgl/src/misc/lv_txt.c ****     uint32_t i                   = 0;
 351:lvgl/src/misc/lv_txt.c ****     lv_coord_t width             = 0;
 352:lvgl/src/misc/lv_txt.c ****     lv_text_cmd_state_t cmd_state = LV_TEXT_CMD_STATE_WAIT;
 353:lvgl/src/misc/lv_txt.c **** 
 354:lvgl/src/misc/lv_txt.c ****     if(length != 0) {
 355:lvgl/src/misc/lv_txt.c ****         while(i < length) {
 356:lvgl/src/misc/lv_txt.c ****             uint32_t letter;
 357:lvgl/src/misc/lv_txt.c ****             uint32_t letter_next;
 358:lvgl/src/misc/lv_txt.c ****             _lv_txt_encoded_letter_next_2(txt, &letter, &letter_next, &i);
 359:lvgl/src/misc/lv_txt.c **** 
 360:lvgl/src/misc/lv_txt.c ****             if((flag & LV_TEXT_FLAG_RECOLOR) != 0) {
 361:lvgl/src/misc/lv_txt.c ****                 if(_lv_txt_is_cmd(&cmd_state, letter) != false) {
 362:lvgl/src/misc/lv_txt.c ****                     continue;
 363:lvgl/src/misc/lv_txt.c ****                 }
 364:lvgl/src/misc/lv_txt.c ****             }
 365:lvgl/src/misc/lv_txt.c **** 
 366:lvgl/src/misc/lv_txt.c ****             lv_coord_t char_width = lv_font_get_glyph_width(font, letter, letter_next);
 367:lvgl/src/misc/lv_txt.c ****             if(char_width > 0) {
 368:lvgl/src/misc/lv_txt.c ****                 width += char_width;
 369:lvgl/src/misc/lv_txt.c ****                 width += letter_space;
 370:lvgl/src/misc/lv_txt.c ****             }
 371:lvgl/src/misc/lv_txt.c ****         }
 372:lvgl/src/misc/lv_txt.c **** 
ARM GAS  /var/folders/21/t9g5rlb91ys800n5npymflf80000gn/T//ccvPn2HT.s 			page 8


 373:lvgl/src/misc/lv_txt.c ****         if(width > 0) {
 374:lvgl/src/misc/lv_txt.c ****             width -= letter_space; /*Trim the last letter space. Important if the text is center
 375:lvgl/src/misc/lv_txt.c ****                                       aligned*/
 376:lvgl/src/misc/lv_txt.c ****         }
 377:lvgl/src/misc/lv_txt.c ****     }
 378:lvgl/src/misc/lv_txt.c **** 
 379:lvgl/src/misc/lv_txt.c ****     return width;
 380:lvgl/src/misc/lv_txt.c **** }
 381:lvgl/src/misc/lv_txt.c **** 
 382:lvgl/src/misc/lv_txt.c **** bool _lv_txt_is_cmd(lv_text_cmd_state_t * state, uint32_t c)
 383:lvgl/src/misc/lv_txt.c **** {
 384:lvgl/src/misc/lv_txt.c ****     bool ret = false;
 385:lvgl/src/misc/lv_txt.c **** 
 386:lvgl/src/misc/lv_txt.c ****     if(c == (uint32_t)LV_TXT_COLOR_CMD[0]) {
 387:lvgl/src/misc/lv_txt.c ****         if(*state == LV_TEXT_CMD_STATE_WAIT) { /*Start char*/
 388:lvgl/src/misc/lv_txt.c ****             *state = LV_TEXT_CMD_STATE_PAR;
 389:lvgl/src/misc/lv_txt.c ****             ret    = true;
 390:lvgl/src/misc/lv_txt.c ****         }
 391:lvgl/src/misc/lv_txt.c ****         /*Other start char in parameter is escaped cmd. char*/
 392:lvgl/src/misc/lv_txt.c ****         else if(*state == LV_TEXT_CMD_STATE_PAR) {
 393:lvgl/src/misc/lv_txt.c ****             *state = LV_TEXT_CMD_STATE_WAIT;
 394:lvgl/src/misc/lv_txt.c ****         }
 395:lvgl/src/misc/lv_txt.c ****         /*Command end*/
 396:lvgl/src/misc/lv_txt.c ****         else if(*state == LV_TEXT_CMD_STATE_IN) {
 397:lvgl/src/misc/lv_txt.c ****             *state = LV_TEXT_CMD_STATE_WAIT;
 398:lvgl/src/misc/lv_txt.c ****             ret    = true;
 399:lvgl/src/misc/lv_txt.c ****         }
 400:lvgl/src/misc/lv_txt.c ****     }
 401:lvgl/src/misc/lv_txt.c **** 
 402:lvgl/src/misc/lv_txt.c ****     /*Skip the color parameter and wait the space after it*/
 403:lvgl/src/misc/lv_txt.c ****     if(*state == LV_TEXT_CMD_STATE_PAR) {
 404:lvgl/src/misc/lv_txt.c ****         if(c == ' ') {
 405:lvgl/src/misc/lv_txt.c ****             *state = LV_TEXT_CMD_STATE_IN; /*After the parameter the text is in the command*/
 406:lvgl/src/misc/lv_txt.c ****         }
 407:lvgl/src/misc/lv_txt.c ****         ret = true;
 408:lvgl/src/misc/lv_txt.c ****     }
 409:lvgl/src/misc/lv_txt.c **** 
 410:lvgl/src/misc/lv_txt.c ****     return ret;
 411:lvgl/src/misc/lv_txt.c **** }
 412:lvgl/src/misc/lv_txt.c **** 
 413:lvgl/src/misc/lv_txt.c **** void _lv_txt_ins(char * txt_buf, uint32_t pos, const char * ins_txt)
 414:lvgl/src/misc/lv_txt.c **** {
 415:lvgl/src/misc/lv_txt.c ****     if(txt_buf == NULL || ins_txt == NULL) return;
 416:lvgl/src/misc/lv_txt.c **** 
 417:lvgl/src/misc/lv_txt.c ****     size_t old_len = strlen(txt_buf);
 418:lvgl/src/misc/lv_txt.c ****     size_t ins_len = strlen(ins_txt);
 419:lvgl/src/misc/lv_txt.c ****     if(ins_len == 0) return;
 420:lvgl/src/misc/lv_txt.c **** 
 421:lvgl/src/misc/lv_txt.c ****     size_t new_len = ins_len + old_len;
 422:lvgl/src/misc/lv_txt.c ****     pos              = _lv_txt_encoded_get_byte_id(txt_buf, pos); /*Convert to byte index instead o
 423:lvgl/src/misc/lv_txt.c **** 
 424:lvgl/src/misc/lv_txt.c ****     /*Copy the second part into the end to make place to text to insert*/
 425:lvgl/src/misc/lv_txt.c ****     size_t i;
 426:lvgl/src/misc/lv_txt.c ****     for(i = new_len; i >= pos + ins_len; i--) {
 427:lvgl/src/misc/lv_txt.c ****         txt_buf[i] = txt_buf[i - ins_len];
 428:lvgl/src/misc/lv_txt.c ****     }
 429:lvgl/src/misc/lv_txt.c **** 
ARM GAS  /var/folders/21/t9g5rlb91ys800n5npymflf80000gn/T//ccvPn2HT.s 			page 9


 430:lvgl/src/misc/lv_txt.c ****     /*Copy the text into the new space*/
 431:lvgl/src/misc/lv_txt.c ****     lv_memcpy_small(txt_buf + pos, ins_txt, ins_len);
 432:lvgl/src/misc/lv_txt.c **** }
 433:lvgl/src/misc/lv_txt.c **** 
 434:lvgl/src/misc/lv_txt.c **** void _lv_txt_cut(char * txt, uint32_t pos, uint32_t len)
 435:lvgl/src/misc/lv_txt.c **** {
 436:lvgl/src/misc/lv_txt.c ****     if(txt == NULL) return;
 437:lvgl/src/misc/lv_txt.c **** 
 438:lvgl/src/misc/lv_txt.c ****     size_t old_len = strlen(txt);
 439:lvgl/src/misc/lv_txt.c **** 
 440:lvgl/src/misc/lv_txt.c ****     pos = _lv_txt_encoded_get_byte_id(txt, pos); /*Convert to byte index instead of letter index*/
 441:lvgl/src/misc/lv_txt.c ****     len = _lv_txt_encoded_get_byte_id(&txt[pos], len);
 442:lvgl/src/misc/lv_txt.c **** 
 443:lvgl/src/misc/lv_txt.c ****     /*Copy the second part into the end to make place to text to insert*/
 444:lvgl/src/misc/lv_txt.c ****     uint32_t i;
 445:lvgl/src/misc/lv_txt.c ****     for(i = pos; i <= old_len - len; i++) {
 446:lvgl/src/misc/lv_txt.c ****         txt[i] = txt[i + len];
 447:lvgl/src/misc/lv_txt.c ****     }
 448:lvgl/src/misc/lv_txt.c **** }
 449:lvgl/src/misc/lv_txt.c **** 
 450:lvgl/src/misc/lv_txt.c **** char * _lv_txt_set_text_vfmt(const char * fmt, va_list ap)
 451:lvgl/src/misc/lv_txt.c **** {
 452:lvgl/src/misc/lv_txt.c ****     /*Allocate space for the new text by using trick from C99 standard section 7.19.6.12*/
 453:lvgl/src/misc/lv_txt.c ****     va_list ap_copy;
 454:lvgl/src/misc/lv_txt.c ****     va_copy(ap_copy, ap);
 455:lvgl/src/misc/lv_txt.c ****     uint32_t len = lv_vsnprintf(NULL, 0, fmt, ap_copy);
 456:lvgl/src/misc/lv_txt.c ****     va_end(ap_copy);
 457:lvgl/src/misc/lv_txt.c **** 
 458:lvgl/src/misc/lv_txt.c ****     char * text = 0;
 459:lvgl/src/misc/lv_txt.c **** #if LV_USE_ARABIC_PERSIAN_CHARS
 460:lvgl/src/misc/lv_txt.c ****     /*Put together the text according to the format string*/
 461:lvgl/src/misc/lv_txt.c ****     char * raw_txt = lv_mem_buf_get(len + 1);
 462:lvgl/src/misc/lv_txt.c ****     LV_ASSERT_MALLOC(raw_txt);
 463:lvgl/src/misc/lv_txt.c ****     if(raw_txt == NULL) {
 464:lvgl/src/misc/lv_txt.c ****         return NULL;
 465:lvgl/src/misc/lv_txt.c ****     }
 466:lvgl/src/misc/lv_txt.c **** 
 467:lvgl/src/misc/lv_txt.c ****     lv_vsnprintf(raw_txt, len + 1, fmt, ap);
 468:lvgl/src/misc/lv_txt.c **** 
 469:lvgl/src/misc/lv_txt.c ****     /*Get the size of the Arabic text and process it*/
 470:lvgl/src/misc/lv_txt.c ****     size_t len_ap = _lv_txt_ap_calc_bytes_cnt(raw_txt);
 471:lvgl/src/misc/lv_txt.c ****     text = lv_mem_alloc(len_ap + 1);
 472:lvgl/src/misc/lv_txt.c ****     LV_ASSERT_MALLOC(text);
 473:lvgl/src/misc/lv_txt.c ****     if(text == NULL) {
 474:lvgl/src/misc/lv_txt.c ****         return NULL;
 475:lvgl/src/misc/lv_txt.c ****     }
 476:lvgl/src/misc/lv_txt.c ****     _lv_txt_ap_proc(raw_txt, text);
 477:lvgl/src/misc/lv_txt.c **** 
 478:lvgl/src/misc/lv_txt.c ****     lv_mem_buf_release(raw_txt);
 479:lvgl/src/misc/lv_txt.c **** #else
 480:lvgl/src/misc/lv_txt.c ****     text = lv_mem_alloc(len + 1);
 481:lvgl/src/misc/lv_txt.c ****     LV_ASSERT_MALLOC(text);
 482:lvgl/src/misc/lv_txt.c ****     if(text == NULL) {
 483:lvgl/src/misc/lv_txt.c ****         return NULL;
 484:lvgl/src/misc/lv_txt.c ****     }
 485:lvgl/src/misc/lv_txt.c ****     text[len] = 0; /*Ensure NULL termination*/
 486:lvgl/src/misc/lv_txt.c **** 
ARM GAS  /var/folders/21/t9g5rlb91ys800n5npymflf80000gn/T//ccvPn2HT.s 			page 10


 487:lvgl/src/misc/lv_txt.c ****     lv_vsnprintf(text, len + 1, fmt, ap);
 488:lvgl/src/misc/lv_txt.c **** #endif
 489:lvgl/src/misc/lv_txt.c **** 
 490:lvgl/src/misc/lv_txt.c ****     return text;
 491:lvgl/src/misc/lv_txt.c **** }
 492:lvgl/src/misc/lv_txt.c **** 
 493:lvgl/src/misc/lv_txt.c **** void _lv_txt_encoded_letter_next_2(const char * txt, uint32_t * letter, uint32_t * letter_next, uin
 494:lvgl/src/misc/lv_txt.c **** {
 495:lvgl/src/misc/lv_txt.c ****     *letter = _lv_txt_encoded_next(txt, ofs);
 496:lvgl/src/misc/lv_txt.c ****     *letter_next = *letter != '\0' ? _lv_txt_encoded_next(&txt[*ofs], NULL) : 0;
 497:lvgl/src/misc/lv_txt.c **** }
 498:lvgl/src/misc/lv_txt.c **** 
 499:lvgl/src/misc/lv_txt.c **** #if LV_TXT_ENC == LV_TXT_ENC_UTF8
 500:lvgl/src/misc/lv_txt.c **** /*******************************
 501:lvgl/src/misc/lv_txt.c ****  *   UTF-8 ENCODER/DECODER
 502:lvgl/src/misc/lv_txt.c ****  ******************************/
 503:lvgl/src/misc/lv_txt.c **** 
 504:lvgl/src/misc/lv_txt.c **** /**
 505:lvgl/src/misc/lv_txt.c ****  * Give the size of an UTF-8 coded character
 506:lvgl/src/misc/lv_txt.c ****  * @param str pointer to a character in a string
 507:lvgl/src/misc/lv_txt.c ****  * @return length of the UTF-8 character (1,2,3 or 4), 0 on invalid code.
 508:lvgl/src/misc/lv_txt.c ****  */
 509:lvgl/src/misc/lv_txt.c **** static uint8_t lv_txt_utf8_size(const char * str)
 510:lvgl/src/misc/lv_txt.c **** {
  29              		.loc 1 510 1 view -0
  30              		.cfi_startproc
  31              		@ args = 0, pretend = 0, frame = 0
  32              		@ frame_needed = 0, uses_anonymous_args = 0
  33              		@ link register save eliminated.
 511:lvgl/src/misc/lv_txt.c ****     if(LV_IS_ASCII(str[0]))
  34              		.loc 1 511 5 view .LVU1
  35              		.loc 1 511 8 is_stmt 0 view .LVU2
  36 0000 0378     		ldrb	r3, [r0]	@ zero_extendqisi2
  37 0002 90F90020 		ldrsb	r2, [r0]
  38              		.loc 1 511 7 view .LVU3
  39 0006 002A     		cmp	r2, #0
  40 0008 0DDA     		bge	.L3
 512:lvgl/src/misc/lv_txt.c ****         return 1;
 513:lvgl/src/misc/lv_txt.c ****     else if(LV_IS_2BYTES_UTF8_CODE(str[0]))
  41              		.loc 1 513 10 is_stmt 1 view .LVU4
  42              		.loc 1 513 12 is_stmt 0 view .LVU5
  43 000a 03F0E002 		and	r2, r3, #224
  44 000e C02A     		cmp	r2, #192
  45 0010 0BD0     		beq	.L4
 514:lvgl/src/misc/lv_txt.c ****         return 2;
 515:lvgl/src/misc/lv_txt.c ****     else if(LV_IS_3BYTES_UTF8_CODE(str[0]))
  46              		.loc 1 515 10 is_stmt 1 view .LVU6
  47              		.loc 1 515 12 is_stmt 0 view .LVU7
  48 0012 03F0F002 		and	r2, r3, #240
  49 0016 E02A     		cmp	r2, #224
  50 0018 09D0     		beq	.L5
 516:lvgl/src/misc/lv_txt.c ****         return 3;
 517:lvgl/src/misc/lv_txt.c ****     else if(LV_IS_4BYTES_UTF8_CODE(str[0]))
  51              		.loc 1 517 10 is_stmt 1 view .LVU8
  52              		.loc 1 517 12 is_stmt 0 view .LVU9
  53 001a 03F0F803 		and	r3, r3, #248
  54 001e F02B     		cmp	r3, #240
ARM GAS  /var/folders/21/t9g5rlb91ys800n5npymflf80000gn/T//ccvPn2HT.s 			page 11


  55 0020 07D0     		beq	.L6
 518:lvgl/src/misc/lv_txt.c ****         return 4;
 519:lvgl/src/misc/lv_txt.c ****     return 0;
  56              		.loc 1 519 12 view .LVU10
  57 0022 0020     		movs	r0, #0
  58              	.LVL1:
  59              		.loc 1 519 12 view .LVU11
  60 0024 7047     		bx	lr
  61              	.LVL2:
  62              	.L3:
 512:lvgl/src/misc/lv_txt.c ****     else if(LV_IS_2BYTES_UTF8_CODE(str[0]))
  63              		.loc 1 512 16 view .LVU12
  64 0026 0120     		movs	r0, #1
  65              	.LVL3:
 512:lvgl/src/misc/lv_txt.c ****     else if(LV_IS_2BYTES_UTF8_CODE(str[0]))
  66              		.loc 1 512 16 view .LVU13
  67 0028 7047     		bx	lr
  68              	.LVL4:
  69              	.L4:
 514:lvgl/src/misc/lv_txt.c ****     else if(LV_IS_3BYTES_UTF8_CODE(str[0]))
  70              		.loc 1 514 16 view .LVU14
  71 002a 0220     		movs	r0, #2
  72              	.LVL5:
 514:lvgl/src/misc/lv_txt.c ****     else if(LV_IS_3BYTES_UTF8_CODE(str[0]))
  73              		.loc 1 514 16 view .LVU15
  74 002c 7047     		bx	lr
  75              	.LVL6:
  76              	.L5:
 516:lvgl/src/misc/lv_txt.c ****     else if(LV_IS_4BYTES_UTF8_CODE(str[0]))
  77              		.loc 1 516 16 view .LVU16
  78 002e 0320     		movs	r0, #3
  79              	.LVL7:
 516:lvgl/src/misc/lv_txt.c ****     else if(LV_IS_4BYTES_UTF8_CODE(str[0]))
  80              		.loc 1 516 16 view .LVU17
  81 0030 7047     		bx	lr
  82              	.LVL8:
  83              	.L6:
 518:lvgl/src/misc/lv_txt.c ****     return 0;
  84              		.loc 1 518 16 view .LVU18
  85 0032 0420     		movs	r0, #4
  86              	.LVL9:
 520:lvgl/src/misc/lv_txt.c **** }
  87              		.loc 1 520 1 view .LVU19
  88 0034 7047     		bx	lr
  89              		.cfi_endproc
  90              	.LFE64:
  92              		.section	.text.lv_txt_unicode_to_utf8,"ax",%progbits
  93              		.align	1
  94              		.syntax unified
  95              		.thumb
  96              		.thumb_func
  98              	lv_txt_unicode_to_utf8:
  99              	.LVL10:
 100              	.LFB65:
 521:lvgl/src/misc/lv_txt.c **** 
 522:lvgl/src/misc/lv_txt.c **** /**
 523:lvgl/src/misc/lv_txt.c ****  * Convert a Unicode letter to UTF-8.
ARM GAS  /var/folders/21/t9g5rlb91ys800n5npymflf80000gn/T//ccvPn2HT.s 			page 12


 524:lvgl/src/misc/lv_txt.c ****  * @param letter_uni a Unicode letter
 525:lvgl/src/misc/lv_txt.c ****  * @return UTF-8 coded character in Little Endian to be compatible with C chars (e.g. 'Á', 'Ű')
 526:lvgl/src/misc/lv_txt.c ****  */
 527:lvgl/src/misc/lv_txt.c **** static uint32_t lv_txt_unicode_to_utf8(uint32_t letter_uni)
 528:lvgl/src/misc/lv_txt.c **** {
 101              		.loc 1 528 1 is_stmt 1 view -0
 102              		.cfi_startproc
 103              		@ args = 0, pretend = 0, frame = 8
 104              		@ frame_needed = 0, uses_anonymous_args = 0
 105              		@ link register save eliminated.
 529:lvgl/src/misc/lv_txt.c ****     if(letter_uni < 128) return letter_uni;
 106              		.loc 1 529 5 view .LVU21
 107              		.loc 1 529 7 is_stmt 0 view .LVU22
 108 0000 7F28     		cmp	r0, #127
 109 0002 4ED9     		bls	.L15
 528:lvgl/src/misc/lv_txt.c ****     if(letter_uni < 128) return letter_uni;
 110              		.loc 1 528 1 view .LVU23
 111 0004 82B0     		sub	sp, sp, #8
 112              	.LCFI0:
 113              		.cfi_def_cfa_offset 8
 530:lvgl/src/misc/lv_txt.c ****     uint8_t bytes[4];
 114              		.loc 1 530 5 is_stmt 1 view .LVU24
 531:lvgl/src/misc/lv_txt.c **** 
 532:lvgl/src/misc/lv_txt.c ****     if(letter_uni < 0x0800) {
 115              		.loc 1 532 5 view .LVU25
 116              		.loc 1 532 7 is_stmt 0 view .LVU26
 117 0006 B0F5006F 		cmp	r0, #2048
 118 000a 13D2     		bcs	.L9
 533:lvgl/src/misc/lv_txt.c ****         bytes[0] = ((letter_uni >> 6) & 0x1F) | 0xC0;
 119              		.loc 1 533 9 is_stmt 1 view .LVU27
 120              		.loc 1 533 39 is_stmt 0 view .LVU28
 121 000c C0F38413 		ubfx	r3, r0, #6, #5
 122              		.loc 1 533 47 view .LVU29
 123 0010 43F0C003 		orr	r3, r3, #192
 124              		.loc 1 533 18 view .LVU30
 125 0014 8DF80430 		strb	r3, [sp, #4]
 534:lvgl/src/misc/lv_txt.c ****         bytes[1] = ((letter_uni >> 0) & 0x3F) | 0x80;
 126              		.loc 1 534 9 is_stmt 1 view .LVU31
 127              		.loc 1 534 39 is_stmt 0 view .LVU32
 128 0018 00F03F00 		and	r0, r0, #63
 129              	.LVL11:
 130              		.loc 1 534 47 view .LVU33
 131 001c 40F08000 		orr	r0, r0, #128
 132              		.loc 1 534 18 view .LVU34
 133 0020 8DF80500 		strb	r0, [sp, #5]
 535:lvgl/src/misc/lv_txt.c ****         bytes[2] = 0;
 134              		.loc 1 535 9 is_stmt 1 view .LVU35
 135              		.loc 1 535 18 is_stmt 0 view .LVU36
 136 0024 0023     		movs	r3, #0
 137 0026 8DF80630 		strb	r3, [sp, #6]
 536:lvgl/src/misc/lv_txt.c ****         bytes[3] = 0;
 138              		.loc 1 536 9 is_stmt 1 view .LVU37
 139              		.loc 1 536 18 is_stmt 0 view .LVU38
 140 002a 8DF80730 		strb	r3, [sp, #7]
 141              	.L10:
 537:lvgl/src/misc/lv_txt.c ****     }
 538:lvgl/src/misc/lv_txt.c ****     else if(letter_uni < 0x010000) {
ARM GAS  /var/folders/21/t9g5rlb91ys800n5npymflf80000gn/T//ccvPn2HT.s 			page 13


 539:lvgl/src/misc/lv_txt.c ****         bytes[0] = ((letter_uni >> 12) & 0x0F) | 0xE0;
 540:lvgl/src/misc/lv_txt.c ****         bytes[1] = ((letter_uni >> 6) & 0x3F) | 0x80;
 541:lvgl/src/misc/lv_txt.c ****         bytes[2] = ((letter_uni >> 0) & 0x3F) | 0x80;
 542:lvgl/src/misc/lv_txt.c ****         bytes[3] = 0;
 543:lvgl/src/misc/lv_txt.c ****     }
 544:lvgl/src/misc/lv_txt.c ****     else if(letter_uni < 0x110000) {
 545:lvgl/src/misc/lv_txt.c ****         bytes[0] = ((letter_uni >> 18) & 0x07) | 0xF0;
 546:lvgl/src/misc/lv_txt.c ****         bytes[1] = ((letter_uni >> 12) & 0x3F) | 0x80;
 547:lvgl/src/misc/lv_txt.c ****         bytes[2] = ((letter_uni >> 6) & 0x3F) | 0x80;
 548:lvgl/src/misc/lv_txt.c ****         bytes[3] = ((letter_uni >> 0) & 0x3F) | 0x80;
 549:lvgl/src/misc/lv_txt.c ****     }
 550:lvgl/src/misc/lv_txt.c ****     else {
 551:lvgl/src/misc/lv_txt.c ****         return 0;
 552:lvgl/src/misc/lv_txt.c ****     }
 553:lvgl/src/misc/lv_txt.c **** 
 554:lvgl/src/misc/lv_txt.c ****     uint32_t * res_p = (uint32_t *)bytes;
 142              		.loc 1 554 5 is_stmt 1 view .LVU39
 143              	.LVL12:
 555:lvgl/src/misc/lv_txt.c ****     return *res_p;
 144              		.loc 1 555 5 view .LVU40
 145              		.loc 1 555 12 is_stmt 0 view .LVU41
 146 002e 0198     		ldr	r0, [sp, #4]
 147              	.LVL13:
 148              	.L7:
 556:lvgl/src/misc/lv_txt.c **** }
 149              		.loc 1 556 1 view .LVU42
 150 0030 02B0     		add	sp, sp, #8
 151              	.LCFI1:
 152              		.cfi_remember_state
 153              		.cfi_def_cfa_offset 0
 154              		@ sp needed
 155 0032 7047     		bx	lr
 156              	.LVL14:
 157              	.L9:
 158              	.LCFI2:
 159              		.cfi_restore_state
 538:lvgl/src/misc/lv_txt.c ****         bytes[0] = ((letter_uni >> 12) & 0x0F) | 0xE0;
 160              		.loc 1 538 10 is_stmt 1 view .LVU43
 538:lvgl/src/misc/lv_txt.c ****         bytes[0] = ((letter_uni >> 12) & 0x0F) | 0xE0;
 161              		.loc 1 538 12 is_stmt 0 view .LVU44
 162 0034 B0F5803F 		cmp	r0, #65536
 163 0038 15D2     		bcs	.L11
 539:lvgl/src/misc/lv_txt.c ****         bytes[1] = ((letter_uni >> 6) & 0x3F) | 0x80;
 164              		.loc 1 539 9 is_stmt 1 view .LVU45
 539:lvgl/src/misc/lv_txt.c ****         bytes[1] = ((letter_uni >> 6) & 0x3F) | 0x80;
 165              		.loc 1 539 40 is_stmt 0 view .LVU46
 166 003a C0F30333 		ubfx	r3, r0, #12, #4
 539:lvgl/src/misc/lv_txt.c ****         bytes[1] = ((letter_uni >> 6) & 0x3F) | 0x80;
 167              		.loc 1 539 48 view .LVU47
 168 003e 43F0E003 		orr	r3, r3, #224
 539:lvgl/src/misc/lv_txt.c ****         bytes[1] = ((letter_uni >> 6) & 0x3F) | 0x80;
 169              		.loc 1 539 18 view .LVU48
 170 0042 8DF80430 		strb	r3, [sp, #4]
 540:lvgl/src/misc/lv_txt.c ****         bytes[2] = ((letter_uni >> 0) & 0x3F) | 0x80;
 171              		.loc 1 540 9 is_stmt 1 view .LVU49
 540:lvgl/src/misc/lv_txt.c ****         bytes[2] = ((letter_uni >> 0) & 0x3F) | 0x80;
 172              		.loc 1 540 39 is_stmt 0 view .LVU50
ARM GAS  /var/folders/21/t9g5rlb91ys800n5npymflf80000gn/T//ccvPn2HT.s 			page 14


 173 0046 C0F38513 		ubfx	r3, r0, #6, #6
 540:lvgl/src/misc/lv_txt.c ****         bytes[2] = ((letter_uni >> 0) & 0x3F) | 0x80;
 174              		.loc 1 540 47 view .LVU51
 175 004a 43F08003 		orr	r3, r3, #128
 540:lvgl/src/misc/lv_txt.c ****         bytes[2] = ((letter_uni >> 0) & 0x3F) | 0x80;
 176              		.loc 1 540 18 view .LVU52
 177 004e 8DF80530 		strb	r3, [sp, #5]
 541:lvgl/src/misc/lv_txt.c ****         bytes[3] = 0;
 178              		.loc 1 541 9 is_stmt 1 view .LVU53
 541:lvgl/src/misc/lv_txt.c ****         bytes[3] = 0;
 179              		.loc 1 541 39 is_stmt 0 view .LVU54
 180 0052 00F03F00 		and	r0, r0, #63
 181              	.LVL15:
 541:lvgl/src/misc/lv_txt.c ****         bytes[3] = 0;
 182              		.loc 1 541 47 view .LVU55
 183 0056 40F08000 		orr	r0, r0, #128
 541:lvgl/src/misc/lv_txt.c ****         bytes[3] = 0;
 184              		.loc 1 541 18 view .LVU56
 185 005a 8DF80600 		strb	r0, [sp, #6]
 542:lvgl/src/misc/lv_txt.c ****     }
 186              		.loc 1 542 9 is_stmt 1 view .LVU57
 542:lvgl/src/misc/lv_txt.c ****     }
 187              		.loc 1 542 18 is_stmt 0 view .LVU58
 188 005e 0023     		movs	r3, #0
 189 0060 8DF80730 		strb	r3, [sp, #7]
 190 0064 E3E7     		b	.L10
 191              	.LVL16:
 192              	.L11:
 544:lvgl/src/misc/lv_txt.c ****         bytes[0] = ((letter_uni >> 18) & 0x07) | 0xF0;
 193              		.loc 1 544 10 is_stmt 1 view .LVU59
 544:lvgl/src/misc/lv_txt.c ****         bytes[0] = ((letter_uni >> 18) & 0x07) | 0xF0;
 194              		.loc 1 544 12 is_stmt 0 view .LVU60
 195 0066 B0F5881F 		cmp	r0, #1114112
 196 006a 18D2     		bcs	.L13
 545:lvgl/src/misc/lv_txt.c ****         bytes[1] = ((letter_uni >> 12) & 0x3F) | 0x80;
 197              		.loc 1 545 9 is_stmt 1 view .LVU61
 545:lvgl/src/misc/lv_txt.c ****         bytes[1] = ((letter_uni >> 12) & 0x3F) | 0x80;
 198              		.loc 1 545 40 is_stmt 0 view .LVU62
 199 006c C0F38243 		ubfx	r3, r0, #18, #3
 545:lvgl/src/misc/lv_txt.c ****         bytes[1] = ((letter_uni >> 12) & 0x3F) | 0x80;
 200              		.loc 1 545 48 view .LVU63
 201 0070 43F0F003 		orr	r3, r3, #240
 545:lvgl/src/misc/lv_txt.c ****         bytes[1] = ((letter_uni >> 12) & 0x3F) | 0x80;
 202              		.loc 1 545 18 view .LVU64
 203 0074 8DF80430 		strb	r3, [sp, #4]
 546:lvgl/src/misc/lv_txt.c ****         bytes[2] = ((letter_uni >> 6) & 0x3F) | 0x80;
 204              		.loc 1 546 9 is_stmt 1 view .LVU65
 546:lvgl/src/misc/lv_txt.c ****         bytes[2] = ((letter_uni >> 6) & 0x3F) | 0x80;
 205              		.loc 1 546 40 is_stmt 0 view .LVU66
 206 0078 C0F30533 		ubfx	r3, r0, #12, #6
 546:lvgl/src/misc/lv_txt.c ****         bytes[2] = ((letter_uni >> 6) & 0x3F) | 0x80;
 207              		.loc 1 546 48 view .LVU67
 208 007c 43F08003 		orr	r3, r3, #128
 546:lvgl/src/misc/lv_txt.c ****         bytes[2] = ((letter_uni >> 6) & 0x3F) | 0x80;
 209              		.loc 1 546 18 view .LVU68
 210 0080 8DF80530 		strb	r3, [sp, #5]
 547:lvgl/src/misc/lv_txt.c ****         bytes[3] = ((letter_uni >> 0) & 0x3F) | 0x80;
ARM GAS  /var/folders/21/t9g5rlb91ys800n5npymflf80000gn/T//ccvPn2HT.s 			page 15


 211              		.loc 1 547 9 is_stmt 1 view .LVU69
 547:lvgl/src/misc/lv_txt.c ****         bytes[3] = ((letter_uni >> 0) & 0x3F) | 0x80;
 212              		.loc 1 547 39 is_stmt 0 view .LVU70
 213 0084 C0F38513 		ubfx	r3, r0, #6, #6
 547:lvgl/src/misc/lv_txt.c ****         bytes[3] = ((letter_uni >> 0) & 0x3F) | 0x80;
 214              		.loc 1 547 47 view .LVU71
 215 0088 43F08003 		orr	r3, r3, #128
 547:lvgl/src/misc/lv_txt.c ****         bytes[3] = ((letter_uni >> 0) & 0x3F) | 0x80;
 216              		.loc 1 547 18 view .LVU72
 217 008c 8DF80630 		strb	r3, [sp, #6]
 548:lvgl/src/misc/lv_txt.c ****     }
 218              		.loc 1 548 9 is_stmt 1 view .LVU73
 548:lvgl/src/misc/lv_txt.c ****     }
 219              		.loc 1 548 39 is_stmt 0 view .LVU74
 220 0090 00F03F00 		and	r0, r0, #63
 221              	.LVL17:
 548:lvgl/src/misc/lv_txt.c ****     }
 222              		.loc 1 548 47 view .LVU75
 223 0094 40F08000 		orr	r0, r0, #128
 548:lvgl/src/misc/lv_txt.c ****     }
 224              		.loc 1 548 18 view .LVU76
 225 0098 8DF80700 		strb	r0, [sp, #7]
 226 009c C7E7     		b	.L10
 227              	.LVL18:
 228              	.L13:
 551:lvgl/src/misc/lv_txt.c ****     }
 229              		.loc 1 551 16 view .LVU77
 230 009e 0020     		movs	r0, #0
 231              	.LVL19:
 551:lvgl/src/misc/lv_txt.c ****     }
 232              		.loc 1 551 16 view .LVU78
 233 00a0 C6E7     		b	.L7
 234              	.LVL20:
 235              	.L15:
 236              	.LCFI3:
 237              		.cfi_def_cfa_offset 0
 238              		.loc 1 556 1 view .LVU79
 239 00a2 7047     		bx	lr
 240              		.cfi_endproc
 241              	.LFE65:
 243              		.section	.text.lv_txt_utf8_conv_wc,"ax",%progbits
 244              		.align	1
 245              		.syntax unified
 246              		.thumb
 247              		.thumb_func
 249              	lv_txt_utf8_conv_wc:
 250              	.LVL21:
 251              	.LFB66:
 557:lvgl/src/misc/lv_txt.c **** 
 558:lvgl/src/misc/lv_txt.c **** /**
 559:lvgl/src/misc/lv_txt.c ****  * Convert a wide character, e.g. 'Á' little endian to be UTF-8 compatible
 560:lvgl/src/misc/lv_txt.c ****  * @param c a wide character or a  Little endian number
 561:lvgl/src/misc/lv_txt.c ****  * @return `c` in big endian
 562:lvgl/src/misc/lv_txt.c ****  */
 563:lvgl/src/misc/lv_txt.c **** static uint32_t lv_txt_utf8_conv_wc(uint32_t c)
 564:lvgl/src/misc/lv_txt.c **** {
 252              		.loc 1 564 1 is_stmt 1 view -0
ARM GAS  /var/folders/21/t9g5rlb91ys800n5npymflf80000gn/T//ccvPn2HT.s 			page 16


 253              		.cfi_startproc
 254              		@ args = 0, pretend = 0, frame = 16
 255              		@ frame_needed = 0, uses_anonymous_args = 0
 256              		@ link register save eliminated.
 257              		.loc 1 564 1 is_stmt 0 view .LVU81
 258 0000 84B0     		sub	sp, sp, #16
 259              	.LCFI4:
 260              		.cfi_def_cfa_offset 16
 261 0002 0190     		str	r0, [sp, #4]
 565:lvgl/src/misc/lv_txt.c **** #if LV_BIG_ENDIAN_SYSTEM == 0
 566:lvgl/src/misc/lv_txt.c ****     /*Swap the bytes (UTF-8 is big endian, but the MCUs are little endian)*/
 567:lvgl/src/misc/lv_txt.c ****     if((c & 0x80) != 0) {
 262              		.loc 1 567 5 is_stmt 1 view .LVU82
 263              		.loc 1 567 7 is_stmt 0 view .LVU83
 264 0004 10F0800F 		tst	r0, #128
 265 0008 19D1     		bne	.L25
 266              	.LVL22:
 267              	.L20:
 568:lvgl/src/misc/lv_txt.c ****         uint32_t swapped;
 569:lvgl/src/misc/lv_txt.c ****         uint8_t c8[4];
 570:lvgl/src/misc/lv_txt.c ****         lv_memcpy_small(c8, &c, 4);
 571:lvgl/src/misc/lv_txt.c ****         swapped = (c8[0] << 24) + (c8[1] << 16) + (c8[2] << 8) + (c8[3]);
 572:lvgl/src/misc/lv_txt.c ****         uint8_t i;
 573:lvgl/src/misc/lv_txt.c ****         for(i = 0; i < 4; i++) {
 574:lvgl/src/misc/lv_txt.c ****             if((swapped & 0xFF) == 0)
 575:lvgl/src/misc/lv_txt.c ****                 swapped = (swapped >> 8); /*Ignore leading zeros (they were in the end originally)*
 576:lvgl/src/misc/lv_txt.c ****         }
 577:lvgl/src/misc/lv_txt.c ****         c = swapped;
 578:lvgl/src/misc/lv_txt.c ****     }
 579:lvgl/src/misc/lv_txt.c **** #endif
 580:lvgl/src/misc/lv_txt.c ****     return c;
 268              		.loc 1 580 5 is_stmt 1 view .LVU84
 581:lvgl/src/misc/lv_txt.c **** }
 269              		.loc 1 581 1 is_stmt 0 view .LVU85
 270 000a 0198     		ldr	r0, [sp, #4]
 271 000c 04B0     		add	sp, sp, #16
 272              	.LCFI5:
 273              		.cfi_remember_state
 274              		.cfi_def_cfa_offset 0
 275              		@ sp needed
 276 000e 7047     		bx	lr
 277              	.LVL23:
 278              	.L21:
 279              	.LCFI6:
 280              		.cfi_restore_state
 281              	.LBB12:
 282              	.LBB13:
 283              	.LBB14:
 284              		.file 2 "lvgl/src/misc/../draw/../misc/lv_mem.h"
   1:lvgl/src/misc/../draw/../misc/lv_mem.h **** /**
   2:lvgl/src/misc/../draw/../misc/lv_mem.h ****  * @file lv_mem.h
   3:lvgl/src/misc/../draw/../misc/lv_mem.h ****  *
   4:lvgl/src/misc/../draw/../misc/lv_mem.h ****  */
   5:lvgl/src/misc/../draw/../misc/lv_mem.h **** 
   6:lvgl/src/misc/../draw/../misc/lv_mem.h **** #ifndef LV_MEM_H
   7:lvgl/src/misc/../draw/../misc/lv_mem.h **** #define LV_MEM_H
   8:lvgl/src/misc/../draw/../misc/lv_mem.h **** 
ARM GAS  /var/folders/21/t9g5rlb91ys800n5npymflf80000gn/T//ccvPn2HT.s 			page 17


   9:lvgl/src/misc/../draw/../misc/lv_mem.h **** #ifdef __cplusplus
  10:lvgl/src/misc/../draw/../misc/lv_mem.h **** extern "C" {
  11:lvgl/src/misc/../draw/../misc/lv_mem.h **** #endif
  12:lvgl/src/misc/../draw/../misc/lv_mem.h **** 
  13:lvgl/src/misc/../draw/../misc/lv_mem.h **** /*********************
  14:lvgl/src/misc/../draw/../misc/lv_mem.h ****  *      INCLUDES
  15:lvgl/src/misc/../draw/../misc/lv_mem.h ****  *********************/
  16:lvgl/src/misc/../draw/../misc/lv_mem.h **** #include "../lv_conf_internal.h"
  17:lvgl/src/misc/../draw/../misc/lv_mem.h **** 
  18:lvgl/src/misc/../draw/../misc/lv_mem.h **** #include <stdint.h>
  19:lvgl/src/misc/../draw/../misc/lv_mem.h **** #include <stddef.h>
  20:lvgl/src/misc/../draw/../misc/lv_mem.h **** #include <string.h>
  21:lvgl/src/misc/../draw/../misc/lv_mem.h **** 
  22:lvgl/src/misc/../draw/../misc/lv_mem.h **** #include "lv_types.h"
  23:lvgl/src/misc/../draw/../misc/lv_mem.h **** 
  24:lvgl/src/misc/../draw/../misc/lv_mem.h **** /*********************
  25:lvgl/src/misc/../draw/../misc/lv_mem.h ****  *      DEFINES
  26:lvgl/src/misc/../draw/../misc/lv_mem.h ****  *********************/
  27:lvgl/src/misc/../draw/../misc/lv_mem.h **** 
  28:lvgl/src/misc/../draw/../misc/lv_mem.h **** /**********************
  29:lvgl/src/misc/../draw/../misc/lv_mem.h ****  *      TYPEDEFS
  30:lvgl/src/misc/../draw/../misc/lv_mem.h ****  **********************/
  31:lvgl/src/misc/../draw/../misc/lv_mem.h **** 
  32:lvgl/src/misc/../draw/../misc/lv_mem.h **** /**
  33:lvgl/src/misc/../draw/../misc/lv_mem.h ****  * Heap information structure.
  34:lvgl/src/misc/../draw/../misc/lv_mem.h ****  */
  35:lvgl/src/misc/../draw/../misc/lv_mem.h **** typedef struct {
  36:lvgl/src/misc/../draw/../misc/lv_mem.h ****     uint32_t total_size; /**< Total heap size*/
  37:lvgl/src/misc/../draw/../misc/lv_mem.h ****     uint32_t free_cnt;
  38:lvgl/src/misc/../draw/../misc/lv_mem.h ****     uint32_t free_size; /**< Size of available memory*/
  39:lvgl/src/misc/../draw/../misc/lv_mem.h ****     uint32_t free_biggest_size;
  40:lvgl/src/misc/../draw/../misc/lv_mem.h ****     uint32_t used_cnt;
  41:lvgl/src/misc/../draw/../misc/lv_mem.h ****     uint32_t max_used; /**< Max size of Heap memory used*/
  42:lvgl/src/misc/../draw/../misc/lv_mem.h ****     uint8_t used_pct; /**< Percentage used*/
  43:lvgl/src/misc/../draw/../misc/lv_mem.h ****     uint8_t frag_pct; /**< Amount of fragmentation*/
  44:lvgl/src/misc/../draw/../misc/lv_mem.h **** } lv_mem_monitor_t;
  45:lvgl/src/misc/../draw/../misc/lv_mem.h **** 
  46:lvgl/src/misc/../draw/../misc/lv_mem.h **** typedef struct {
  47:lvgl/src/misc/../draw/../misc/lv_mem.h ****     void * p;
  48:lvgl/src/misc/../draw/../misc/lv_mem.h ****     uint16_t size;
  49:lvgl/src/misc/../draw/../misc/lv_mem.h ****     uint8_t used : 1;
  50:lvgl/src/misc/../draw/../misc/lv_mem.h **** } lv_mem_buf_t;
  51:lvgl/src/misc/../draw/../misc/lv_mem.h **** 
  52:lvgl/src/misc/../draw/../misc/lv_mem.h **** typedef lv_mem_buf_t lv_mem_buf_arr_t[LV_MEM_BUF_MAX_NUM];
  53:lvgl/src/misc/../draw/../misc/lv_mem.h **** 
  54:lvgl/src/misc/../draw/../misc/lv_mem.h **** /**********************
  55:lvgl/src/misc/../draw/../misc/lv_mem.h ****  * GLOBAL PROTOTYPES
  56:lvgl/src/misc/../draw/../misc/lv_mem.h ****  **********************/
  57:lvgl/src/misc/../draw/../misc/lv_mem.h **** 
  58:lvgl/src/misc/../draw/../misc/lv_mem.h **** /**
  59:lvgl/src/misc/../draw/../misc/lv_mem.h ****  * Initialize the dyn_mem module (work memory and other variables)
  60:lvgl/src/misc/../draw/../misc/lv_mem.h ****  */
  61:lvgl/src/misc/../draw/../misc/lv_mem.h **** void lv_mem_init(void);
  62:lvgl/src/misc/../draw/../misc/lv_mem.h **** 
  63:lvgl/src/misc/../draw/../misc/lv_mem.h **** /**
  64:lvgl/src/misc/../draw/../misc/lv_mem.h ****  * Clean up the memory buffer which frees all the allocated memories.
  65:lvgl/src/misc/../draw/../misc/lv_mem.h ****  * @note It work only if `LV_MEM_CUSTOM == 0`
ARM GAS  /var/folders/21/t9g5rlb91ys800n5npymflf80000gn/T//ccvPn2HT.s 			page 18


  66:lvgl/src/misc/../draw/../misc/lv_mem.h ****  */
  67:lvgl/src/misc/../draw/../misc/lv_mem.h **** void lv_mem_deinit(void);
  68:lvgl/src/misc/../draw/../misc/lv_mem.h **** 
  69:lvgl/src/misc/../draw/../misc/lv_mem.h **** /**
  70:lvgl/src/misc/../draw/../misc/lv_mem.h ****  * Allocate a memory dynamically
  71:lvgl/src/misc/../draw/../misc/lv_mem.h ****  * @param size size of the memory to allocate in bytes
  72:lvgl/src/misc/../draw/../misc/lv_mem.h ****  * @return pointer to the allocated memory
  73:lvgl/src/misc/../draw/../misc/lv_mem.h ****  */
  74:lvgl/src/misc/../draw/../misc/lv_mem.h **** void * lv_mem_alloc(size_t size);
  75:lvgl/src/misc/../draw/../misc/lv_mem.h **** 
  76:lvgl/src/misc/../draw/../misc/lv_mem.h **** /**
  77:lvgl/src/misc/../draw/../misc/lv_mem.h ****  * Free an allocated data
  78:lvgl/src/misc/../draw/../misc/lv_mem.h ****  * @param data pointer to an allocated memory
  79:lvgl/src/misc/../draw/../misc/lv_mem.h ****  */
  80:lvgl/src/misc/../draw/../misc/lv_mem.h **** void lv_mem_free(void * data);
  81:lvgl/src/misc/../draw/../misc/lv_mem.h **** 
  82:lvgl/src/misc/../draw/../misc/lv_mem.h **** /**
  83:lvgl/src/misc/../draw/../misc/lv_mem.h ****  * Reallocate a memory with a new size. The old content will be kept.
  84:lvgl/src/misc/../draw/../misc/lv_mem.h ****  * @param data pointer to an allocated memory.
  85:lvgl/src/misc/../draw/../misc/lv_mem.h ****  * Its content will be copied to the new memory block and freed
  86:lvgl/src/misc/../draw/../misc/lv_mem.h ****  * @param new_size the desired new size in byte
  87:lvgl/src/misc/../draw/../misc/lv_mem.h ****  * @return pointer to the new memory, NULL on failure
  88:lvgl/src/misc/../draw/../misc/lv_mem.h ****  */
  89:lvgl/src/misc/../draw/../misc/lv_mem.h **** void * lv_mem_realloc(void * data_p, size_t new_size);
  90:lvgl/src/misc/../draw/../misc/lv_mem.h **** 
  91:lvgl/src/misc/../draw/../misc/lv_mem.h **** /**
  92:lvgl/src/misc/../draw/../misc/lv_mem.h ****  *
  93:lvgl/src/misc/../draw/../misc/lv_mem.h ****  * @return
  94:lvgl/src/misc/../draw/../misc/lv_mem.h ****  */
  95:lvgl/src/misc/../draw/../misc/lv_mem.h **** lv_res_t lv_mem_test(void);
  96:lvgl/src/misc/../draw/../misc/lv_mem.h **** 
  97:lvgl/src/misc/../draw/../misc/lv_mem.h **** /**
  98:lvgl/src/misc/../draw/../misc/lv_mem.h ****  * Give information about the work memory of dynamic allocation
  99:lvgl/src/misc/../draw/../misc/lv_mem.h ****  * @param mon_p pointer to a lv_mem_monitor_t variable,
 100:lvgl/src/misc/../draw/../misc/lv_mem.h ****  *              the result of the analysis will be stored here
 101:lvgl/src/misc/../draw/../misc/lv_mem.h ****  */
 102:lvgl/src/misc/../draw/../misc/lv_mem.h **** void lv_mem_monitor(lv_mem_monitor_t * mon_p);
 103:lvgl/src/misc/../draw/../misc/lv_mem.h **** 
 104:lvgl/src/misc/../draw/../misc/lv_mem.h **** /**
 105:lvgl/src/misc/../draw/../misc/lv_mem.h ****  * Get a temporal buffer with the given size.
 106:lvgl/src/misc/../draw/../misc/lv_mem.h ****  * @param size the required size
 107:lvgl/src/misc/../draw/../misc/lv_mem.h ****  */
 108:lvgl/src/misc/../draw/../misc/lv_mem.h **** void * lv_mem_buf_get(uint32_t size);
 109:lvgl/src/misc/../draw/../misc/lv_mem.h **** 
 110:lvgl/src/misc/../draw/../misc/lv_mem.h **** /**
 111:lvgl/src/misc/../draw/../misc/lv_mem.h ****  * Release a memory buffer
 112:lvgl/src/misc/../draw/../misc/lv_mem.h ****  * @param p buffer to release
 113:lvgl/src/misc/../draw/../misc/lv_mem.h ****  */
 114:lvgl/src/misc/../draw/../misc/lv_mem.h **** void lv_mem_buf_release(void * p);
 115:lvgl/src/misc/../draw/../misc/lv_mem.h **** 
 116:lvgl/src/misc/../draw/../misc/lv_mem.h **** /**
 117:lvgl/src/misc/../draw/../misc/lv_mem.h ****  * Free all memory buffers
 118:lvgl/src/misc/../draw/../misc/lv_mem.h ****  */
 119:lvgl/src/misc/../draw/../misc/lv_mem.h **** void lv_mem_buf_free_all(void);
 120:lvgl/src/misc/../draw/../misc/lv_mem.h **** 
 121:lvgl/src/misc/../draw/../misc/lv_mem.h **** //! @cond Doxygen_Suppress
 122:lvgl/src/misc/../draw/../misc/lv_mem.h **** 
ARM GAS  /var/folders/21/t9g5rlb91ys800n5npymflf80000gn/T//ccvPn2HT.s 			page 19


 123:lvgl/src/misc/../draw/../misc/lv_mem.h **** #if LV_MEMCPY_MEMSET_STD
 124:lvgl/src/misc/../draw/../misc/lv_mem.h **** 
 125:lvgl/src/misc/../draw/../misc/lv_mem.h **** /**
 126:lvgl/src/misc/../draw/../misc/lv_mem.h ****  * Wrapper for the standard memcpy
 127:lvgl/src/misc/../draw/../misc/lv_mem.h ****  * @param dst pointer to the destination buffer
 128:lvgl/src/misc/../draw/../misc/lv_mem.h ****  * @param src pointer to the source buffer
 129:lvgl/src/misc/../draw/../misc/lv_mem.h ****  * @param len number of byte to copy
 130:lvgl/src/misc/../draw/../misc/lv_mem.h ****  */
 131:lvgl/src/misc/../draw/../misc/lv_mem.h **** static inline void * lv_memcpy(void * dst, const void * src, size_t len)
 132:lvgl/src/misc/../draw/../misc/lv_mem.h **** {
 133:lvgl/src/misc/../draw/../misc/lv_mem.h ****     return memcpy(dst, src, len);
 134:lvgl/src/misc/../draw/../misc/lv_mem.h **** }
 135:lvgl/src/misc/../draw/../misc/lv_mem.h **** 
 136:lvgl/src/misc/../draw/../misc/lv_mem.h **** /**
 137:lvgl/src/misc/../draw/../misc/lv_mem.h ****  * Wrapper for the standard memcpy
 138:lvgl/src/misc/../draw/../misc/lv_mem.h ****  * @param dst pointer to the destination buffer
 139:lvgl/src/misc/../draw/../misc/lv_mem.h ****  * @param src pointer to the source buffer
 140:lvgl/src/misc/../draw/../misc/lv_mem.h ****  * @param len number of byte to copy
 141:lvgl/src/misc/../draw/../misc/lv_mem.h ****  */
 142:lvgl/src/misc/../draw/../misc/lv_mem.h **** static inline void * lv_memcpy_small(void * dst, const void * src, size_t len)
 143:lvgl/src/misc/../draw/../misc/lv_mem.h **** {
 144:lvgl/src/misc/../draw/../misc/lv_mem.h ****     return memcpy(dst, src, len);
 145:lvgl/src/misc/../draw/../misc/lv_mem.h **** }
 146:lvgl/src/misc/../draw/../misc/lv_mem.h **** 
 147:lvgl/src/misc/../draw/../misc/lv_mem.h **** /**
 148:lvgl/src/misc/../draw/../misc/lv_mem.h ****  * Wrapper for the standard memset
 149:lvgl/src/misc/../draw/../misc/lv_mem.h ****  * @param dst pointer to the destination buffer
 150:lvgl/src/misc/../draw/../misc/lv_mem.h ****  * @param v value to set [0..255]
 151:lvgl/src/misc/../draw/../misc/lv_mem.h ****  * @param len number of byte to set
 152:lvgl/src/misc/../draw/../misc/lv_mem.h ****  */
 153:lvgl/src/misc/../draw/../misc/lv_mem.h **** static inline void lv_memset(void * dst, uint8_t v, size_t len)
 154:lvgl/src/misc/../draw/../misc/lv_mem.h **** {
 155:lvgl/src/misc/../draw/../misc/lv_mem.h ****     memset(dst, v, len);
 156:lvgl/src/misc/../draw/../misc/lv_mem.h **** }
 157:lvgl/src/misc/../draw/../misc/lv_mem.h **** 
 158:lvgl/src/misc/../draw/../misc/lv_mem.h **** /**
 159:lvgl/src/misc/../draw/../misc/lv_mem.h ****  * Wrapper for the standard memset with fixed 0x00 value
 160:lvgl/src/misc/../draw/../misc/lv_mem.h ****  * @param dst pointer to the destination buffer
 161:lvgl/src/misc/../draw/../misc/lv_mem.h ****  * @param len number of byte to set
 162:lvgl/src/misc/../draw/../misc/lv_mem.h ****  */
 163:lvgl/src/misc/../draw/../misc/lv_mem.h **** static inline void lv_memset_00(void * dst, size_t len)
 164:lvgl/src/misc/../draw/../misc/lv_mem.h **** {
 165:lvgl/src/misc/../draw/../misc/lv_mem.h ****     memset(dst, 0x00, len);
 166:lvgl/src/misc/../draw/../misc/lv_mem.h **** }
 167:lvgl/src/misc/../draw/../misc/lv_mem.h **** 
 168:lvgl/src/misc/../draw/../misc/lv_mem.h **** /**
 169:lvgl/src/misc/../draw/../misc/lv_mem.h ****  * Wrapper for the standard memset with fixed 0xFF value
 170:lvgl/src/misc/../draw/../misc/lv_mem.h ****  * @param dst pointer to the destination buffer
 171:lvgl/src/misc/../draw/../misc/lv_mem.h ****  * @param len number of byte to set
 172:lvgl/src/misc/../draw/../misc/lv_mem.h ****  */
 173:lvgl/src/misc/../draw/../misc/lv_mem.h **** static inline void lv_memset_ff(void * dst, size_t len)
 174:lvgl/src/misc/../draw/../misc/lv_mem.h **** {
 175:lvgl/src/misc/../draw/../misc/lv_mem.h ****     memset(dst, 0xFF, len);
 176:lvgl/src/misc/../draw/../misc/lv_mem.h **** }
 177:lvgl/src/misc/../draw/../misc/lv_mem.h **** 
 178:lvgl/src/misc/../draw/../misc/lv_mem.h **** #else
 179:lvgl/src/misc/../draw/../misc/lv_mem.h **** /**
ARM GAS  /var/folders/21/t9g5rlb91ys800n5npymflf80000gn/T//ccvPn2HT.s 			page 20


 180:lvgl/src/misc/../draw/../misc/lv_mem.h ****  * Same as `memcpy` but optimized for 4 byte operation.
 181:lvgl/src/misc/../draw/../misc/lv_mem.h ****  * @param dst pointer to the destination buffer
 182:lvgl/src/misc/../draw/../misc/lv_mem.h ****  * @param src pointer to the source buffer
 183:lvgl/src/misc/../draw/../misc/lv_mem.h ****  * @param len number of byte to copy
 184:lvgl/src/misc/../draw/../misc/lv_mem.h ****  */
 185:lvgl/src/misc/../draw/../misc/lv_mem.h **** void * /* LV_ATTRIBUTE_FAST_MEM */ lv_memcpy(void * dst, const void * src, size_t len);
 186:lvgl/src/misc/../draw/../misc/lv_mem.h **** 
 187:lvgl/src/misc/../draw/../misc/lv_mem.h **** /**
 188:lvgl/src/misc/../draw/../misc/lv_mem.h ****  * Same as `memcpy` but optimized to copy only a few bytes.
 189:lvgl/src/misc/../draw/../misc/lv_mem.h ****  * @param dst pointer to the destination buffer
 190:lvgl/src/misc/../draw/../misc/lv_mem.h ****  * @param src pointer to the source buffer
 191:lvgl/src/misc/../draw/../misc/lv_mem.h ****  * @param len number of byte to copy
 192:lvgl/src/misc/../draw/../misc/lv_mem.h ****  */
 193:lvgl/src/misc/../draw/../misc/lv_mem.h **** static inline void * LV_ATTRIBUTE_FAST_MEM lv_memcpy_small(void * dst, const void * src, size_t len
 194:lvgl/src/misc/../draw/../misc/lv_mem.h **** {
 195:lvgl/src/misc/../draw/../misc/lv_mem.h ****     uint8_t * d8 = (uint8_t *)dst;
 196:lvgl/src/misc/../draw/../misc/lv_mem.h ****     const uint8_t * s8 = (const uint8_t *)src;
 197:lvgl/src/misc/../draw/../misc/lv_mem.h **** 
 198:lvgl/src/misc/../draw/../misc/lv_mem.h ****     while(len) {
 199:lvgl/src/misc/../draw/../misc/lv_mem.h ****         *d8 = *s8;
 285              		.loc 2 199 9 is_stmt 1 view .LVU86
 286              		.loc 2 199 15 is_stmt 0 view .LVU87
 287 0010 11F8010B 		ldrb	r0, [r1], #1	@ zero_extendqisi2
 288              	.LVL24:
 289              		.loc 2 199 13 view .LVU88
 290 0014 02F8010B 		strb	r0, [r2], #1
 291              	.LVL25:
 200:lvgl/src/misc/../draw/../misc/lv_mem.h ****         d8++;
 292              		.loc 2 200 9 is_stmt 1 view .LVU89
 201:lvgl/src/misc/../draw/../misc/lv_mem.h ****         s8++;
 293              		.loc 2 201 9 view .LVU90
 202:lvgl/src/misc/../draw/../misc/lv_mem.h ****         len--;
 294              		.loc 2 202 9 view .LVU91
 295              		.loc 2 202 12 is_stmt 0 view .LVU92
 296 0018 013B     		subs	r3, r3, #1
 297              	.LVL26:
 298              	.L19:
 198:lvgl/src/misc/../draw/../misc/lv_mem.h ****         *d8 = *s8;
 299              		.loc 2 198 11 is_stmt 1 view .LVU93
 300 001a 002B     		cmp	r3, #0
 301 001c F8D1     		bne	.L21
 203:lvgl/src/misc/../draw/../misc/lv_mem.h ****     }
 204:lvgl/src/misc/../draw/../misc/lv_mem.h **** 
 205:lvgl/src/misc/../draw/../misc/lv_mem.h ****     return dst;
 302              		.loc 2 205 5 view .LVU94
 303              	.LVL27:
 304              		.loc 2 205 5 is_stmt 0 view .LVU95
 305              	.LBE14:
 306              	.LBE13:
 571:lvgl/src/misc/lv_txt.c ****         uint8_t i;
 307              		.loc 1 571 9 is_stmt 1 view .LVU96
 571:lvgl/src/misc/lv_txt.c ****         uint8_t i;
 308              		.loc 1 571 22 is_stmt 0 view .LVU97
 309 001e 9DF80C30 		ldrb	r3, [sp, #12]	@ zero_extendqisi2
 571:lvgl/src/misc/lv_txt.c ****         uint8_t i;
 310              		.loc 1 571 38 view .LVU98
 311 0022 9DF80D20 		ldrb	r2, [sp, #13]	@ zero_extendqisi2
ARM GAS  /var/folders/21/t9g5rlb91ys800n5npymflf80000gn/T//ccvPn2HT.s 			page 21


 571:lvgl/src/misc/lv_txt.c ****         uint8_t i;
 312              		.loc 1 571 42 view .LVU99
 313 0026 1204     		lsls	r2, r2, #16
 571:lvgl/src/misc/lv_txt.c ****         uint8_t i;
 314              		.loc 1 571 33 view .LVU100
 315 0028 02EB0362 		add	r2, r2, r3, lsl #24
 571:lvgl/src/misc/lv_txt.c ****         uint8_t i;
 316              		.loc 1 571 54 view .LVU101
 317 002c 9DF80E30 		ldrb	r3, [sp, #14]	@ zero_extendqisi2
 571:lvgl/src/misc/lv_txt.c ****         uint8_t i;
 318              		.loc 1 571 49 view .LVU102
 319 0030 02EB0322 		add	r2, r2, r3, lsl #8
 571:lvgl/src/misc/lv_txt.c ****         uint8_t i;
 320              		.loc 1 571 69 view .LVU103
 321 0034 9DF80F30 		ldrb	r3, [sp, #15]	@ zero_extendqisi2
 571:lvgl/src/misc/lv_txt.c ****         uint8_t i;
 322              		.loc 1 571 64 view .LVU104
 323 0038 1A44     		add	r2, r2, r3
 324              	.LVL28:
 572:lvgl/src/misc/lv_txt.c ****         for(i = 0; i < 4; i++) {
 325              		.loc 1 572 9 is_stmt 1 view .LVU105
 573:lvgl/src/misc/lv_txt.c ****             if((swapped & 0xFF) == 0)
 326              		.loc 1 573 9 view .LVU106
 573:lvgl/src/misc/lv_txt.c ****             if((swapped & 0xFF) == 0)
 327              		.loc 1 573 15 is_stmt 0 view .LVU107
 328 003a 0023     		movs	r3, #0
 573:lvgl/src/misc/lv_txt.c ****             if((swapped & 0xFF) == 0)
 329              		.loc 1 573 9 view .LVU108
 330 003c 05E0     		b	.L22
 331              	.LVL29:
 332              	.L25:
 333              	.LBB16:
 334              	.LBB15:
 196:lvgl/src/misc/../draw/../misc/lv_mem.h **** 
 335              		.loc 2 196 21 view .LVU109
 336 003e 01A9     		add	r1, sp, #4
 195:lvgl/src/misc/../draw/../misc/lv_mem.h ****     const uint8_t * s8 = (const uint8_t *)src;
 337              		.loc 2 195 15 view .LVU110
 338 0040 03AA     		add	r2, sp, #12
 339              	.LBE15:
 340              	.LBE16:
 341              	.LBE12:
 342 0042 0423     		movs	r3, #4
 343 0044 E9E7     		b	.L19
 344              	.LVL30:
 345              	.L23:
 346              	.LBB17:
 573:lvgl/src/misc/lv_txt.c ****             if((swapped & 0xFF) == 0)
 347              		.loc 1 573 28 is_stmt 1 discriminator 2 view .LVU111
 348 0046 0133     		adds	r3, r3, #1
 349              	.LVL31:
 573:lvgl/src/misc/lv_txt.c ****             if((swapped & 0xFF) == 0)
 350              		.loc 1 573 28 is_stmt 0 discriminator 2 view .LVU112
 351 0048 DBB2     		uxtb	r3, r3
 352              	.LVL32:
 353              	.L22:
 573:lvgl/src/misc/lv_txt.c ****             if((swapped & 0xFF) == 0)
ARM GAS  /var/folders/21/t9g5rlb91ys800n5npymflf80000gn/T//ccvPn2HT.s 			page 22


 354              		.loc 1 573 22 is_stmt 1 discriminator 1 view .LVU113
 355 004a 032B     		cmp	r3, #3
 356 004c 04D8     		bhi	.L27
 574:lvgl/src/misc/lv_txt.c ****                 swapped = (swapped >> 8); /*Ignore leading zeros (they were in the end originally)*
 357              		.loc 1 574 13 view .LVU114
 574:lvgl/src/misc/lv_txt.c ****                 swapped = (swapped >> 8); /*Ignore leading zeros (they were in the end originally)*
 358              		.loc 1 574 15 is_stmt 0 view .LVU115
 359 004e 12F0FF0F 		tst	r2, #255
 360 0052 F8D1     		bne	.L23
 575:lvgl/src/misc/lv_txt.c ****         }
 361              		.loc 1 575 17 is_stmt 1 view .LVU116
 575:lvgl/src/misc/lv_txt.c ****         }
 362              		.loc 1 575 25 is_stmt 0 view .LVU117
 363 0054 120A     		lsrs	r2, r2, #8
 364              	.LVL33:
 575:lvgl/src/misc/lv_txt.c ****         }
 365              		.loc 1 575 25 view .LVU118
 366 0056 F6E7     		b	.L23
 367              	.L27:
 577:lvgl/src/misc/lv_txt.c ****     }
 368              		.loc 1 577 9 is_stmt 1 view .LVU119
 577:lvgl/src/misc/lv_txt.c ****     }
 369              		.loc 1 577 11 is_stmt 0 view .LVU120
 370 0058 0192     		str	r2, [sp, #4]
 371 005a D6E7     		b	.L20
 372              	.LBE17:
 373              		.cfi_endproc
 374              	.LFE66:
 376              		.section	.text.lv_txt_utf8_next,"ax",%progbits
 377              		.align	1
 378              		.syntax unified
 379              		.thumb
 380              		.thumb_func
 382              	lv_txt_utf8_next:
 383              	.LVL34:
 384              	.LFB67:
 582:lvgl/src/misc/lv_txt.c **** 
 583:lvgl/src/misc/lv_txt.c **** /**
 584:lvgl/src/misc/lv_txt.c ****  * Decode an UTF-8 character from a string.
 585:lvgl/src/misc/lv_txt.c ****  * @param txt pointer to '\0' terminated string
 586:lvgl/src/misc/lv_txt.c ****  * @param i start byte index in 'txt' where to start.
 587:lvgl/src/misc/lv_txt.c ****  *          After call it will point to the next UTF-8 char in 'txt'.
 588:lvgl/src/misc/lv_txt.c ****  *          NULL to use txt[0] as index
 589:lvgl/src/misc/lv_txt.c ****  * @return the decoded Unicode character or 0 on invalid UTF-8 code
 590:lvgl/src/misc/lv_txt.c ****  */
 591:lvgl/src/misc/lv_txt.c **** static uint32_t lv_txt_utf8_next(const char * txt, uint32_t * i)
 592:lvgl/src/misc/lv_txt.c **** {
 385              		.loc 1 592 1 is_stmt 1 view -0
 386              		.cfi_startproc
 387              		@ args = 0, pretend = 0, frame = 8
 388              		@ frame_needed = 0, uses_anonymous_args = 0
 389              		.loc 1 592 1 is_stmt 0 view .LVU122
 390 0000 00B5     		push	{lr}
 391              	.LCFI7:
 392              		.cfi_def_cfa_offset 4
 393              		.cfi_offset 14, -4
 394 0002 83B0     		sub	sp, sp, #12
ARM GAS  /var/folders/21/t9g5rlb91ys800n5npymflf80000gn/T//ccvPn2HT.s 			page 23


 395              	.LCFI8:
 396              		.cfi_def_cfa_offset 16
 397 0004 8646     		mov	lr, r0
 593:lvgl/src/misc/lv_txt.c ****     /**
 594:lvgl/src/misc/lv_txt.c ****      * Unicode to UTF-8
 595:lvgl/src/misc/lv_txt.c ****      * 00000000 00000000 00000000 0xxxxxxx -> 0xxxxxxx
 596:lvgl/src/misc/lv_txt.c ****      * 00000000 00000000 00000yyy yyxxxxxx -> 110yyyyy 10xxxxxx
 597:lvgl/src/misc/lv_txt.c ****      * 00000000 00000000 zzzzyyyy yyxxxxxx -> 1110zzzz 10yyyyyy 10xxxxxx
 598:lvgl/src/misc/lv_txt.c ****      * 00000000 000wwwzz zzzzyyyy yyxxxxxx -> 11110www 10zzzzzz 10yyyyyy 10xxxxxx
 599:lvgl/src/misc/lv_txt.c ****      */
 600:lvgl/src/misc/lv_txt.c **** 
 601:lvgl/src/misc/lv_txt.c ****     uint32_t result = 0;
 398              		.loc 1 601 5 is_stmt 1 view .LVU123
 399              	.LVL35:
 602:lvgl/src/misc/lv_txt.c **** 
 603:lvgl/src/misc/lv_txt.c ****     /*Dummy 'i' pointer is required*/
 604:lvgl/src/misc/lv_txt.c ****     uint32_t i_tmp = 0;
 400              		.loc 1 604 5 view .LVU124
 401              		.loc 1 604 14 is_stmt 0 view .LVU125
 402 0006 0023     		movs	r3, #0
 403 0008 0193     		str	r3, [sp, #4]
 605:lvgl/src/misc/lv_txt.c ****     if(i == NULL) i = &i_tmp;
 404              		.loc 1 605 5 is_stmt 1 view .LVU126
 405              		.loc 1 605 7 is_stmt 0 view .LVU127
 406 000a 8C46     		mov	ip, r1
 407 000c 69B1     		cbz	r1, .L43
 408              	.L29:
 409              	.LVL36:
 606:lvgl/src/misc/lv_txt.c **** 
 607:lvgl/src/misc/lv_txt.c ****     /*Normal ASCII*/
 608:lvgl/src/misc/lv_txt.c ****     if(LV_IS_ASCII(txt[*i])) {
 410              		.loc 1 608 5 is_stmt 1 view .LVU128
 411              		.loc 1 608 8 is_stmt 0 view .LVU129
 412 000e DCF80020 		ldr	r2, [ip]
 413 0012 1EF80200 		ldrb	r0, [lr, r2]	@ zero_extendqisi2
 414              	.LVL37:
 415              		.loc 1 608 8 view .LVU130
 416 0016 1EF90230 		ldrsb	r3, [lr, r2]
 417              		.loc 1 608 7 view .LVU131
 418 001a 002B     		cmp	r3, #0
 419 001c 08DB     		blt	.L30
 609:lvgl/src/misc/lv_txt.c ****         result = txt[*i];
 420              		.loc 1 609 9 is_stmt 1 view .LVU132
 421              	.LVL38:
 610:lvgl/src/misc/lv_txt.c ****         (*i)++;
 422              		.loc 1 610 9 view .LVU133
 423              		.loc 1 610 13 is_stmt 0 view .LVU134
 424 001e 0132     		adds	r2, r2, #1
 425 0020 CCF80020 		str	r2, [ip]
 426              	.LVL39:
 427              	.L28:
 611:lvgl/src/misc/lv_txt.c ****     }
 612:lvgl/src/misc/lv_txt.c ****     /*Real UTF-8 decode*/
 613:lvgl/src/misc/lv_txt.c ****     else {
 614:lvgl/src/misc/lv_txt.c ****         /*2 bytes UTF-8 code*/
 615:lvgl/src/misc/lv_txt.c ****         if(LV_IS_2BYTES_UTF8_CODE(txt[*i])) {
 616:lvgl/src/misc/lv_txt.c ****             result = (uint32_t)(txt[*i] & 0x1F) << 6;
ARM GAS  /var/folders/21/t9g5rlb91ys800n5npymflf80000gn/T//ccvPn2HT.s 			page 24


 617:lvgl/src/misc/lv_txt.c ****             (*i)++;
 618:lvgl/src/misc/lv_txt.c ****             if(LV_IS_INVALID_UTF8_CODE(txt[*i])) return 0;
 619:lvgl/src/misc/lv_txt.c ****             result += (txt[*i] & 0x3F);
 620:lvgl/src/misc/lv_txt.c ****             (*i)++;
 621:lvgl/src/misc/lv_txt.c ****         }
 622:lvgl/src/misc/lv_txt.c ****         /*3 bytes UTF-8 code*/
 623:lvgl/src/misc/lv_txt.c ****         else if(LV_IS_3BYTES_UTF8_CODE(txt[*i])) {
 624:lvgl/src/misc/lv_txt.c ****             result = (uint32_t)(txt[*i] & 0x0F) << 12;
 625:lvgl/src/misc/lv_txt.c ****             (*i)++;
 626:lvgl/src/misc/lv_txt.c **** 
 627:lvgl/src/misc/lv_txt.c ****             if(LV_IS_INVALID_UTF8_CODE(txt[*i])) return 0;
 628:lvgl/src/misc/lv_txt.c ****             result += (uint32_t)(txt[*i] & 0x3F) << 6;
 629:lvgl/src/misc/lv_txt.c ****             (*i)++;
 630:lvgl/src/misc/lv_txt.c **** 
 631:lvgl/src/misc/lv_txt.c ****             if(LV_IS_INVALID_UTF8_CODE(txt[*i])) return 0;
 632:lvgl/src/misc/lv_txt.c ****             result += (txt[*i] & 0x3F);
 633:lvgl/src/misc/lv_txt.c ****             (*i)++;
 634:lvgl/src/misc/lv_txt.c ****         }
 635:lvgl/src/misc/lv_txt.c ****         /*4 bytes UTF-8 code*/
 636:lvgl/src/misc/lv_txt.c ****         else if(LV_IS_4BYTES_UTF8_CODE(txt[*i])) {
 637:lvgl/src/misc/lv_txt.c ****             result = (uint32_t)(txt[*i] & 0x07) << 18;
 638:lvgl/src/misc/lv_txt.c ****             (*i)++;
 639:lvgl/src/misc/lv_txt.c **** 
 640:lvgl/src/misc/lv_txt.c ****             if(LV_IS_INVALID_UTF8_CODE(txt[*i])) return 0;
 641:lvgl/src/misc/lv_txt.c ****             result += (uint32_t)(txt[*i] & 0x3F) << 12;
 642:lvgl/src/misc/lv_txt.c ****             (*i)++;
 643:lvgl/src/misc/lv_txt.c **** 
 644:lvgl/src/misc/lv_txt.c ****             if(LV_IS_INVALID_UTF8_CODE(txt[*i])) return 0;
 645:lvgl/src/misc/lv_txt.c ****             result += (uint32_t)(txt[*i] & 0x3F) << 6;
 646:lvgl/src/misc/lv_txt.c ****             (*i)++;
 647:lvgl/src/misc/lv_txt.c **** 
 648:lvgl/src/misc/lv_txt.c ****             if(LV_IS_INVALID_UTF8_CODE(txt[*i])) return 0;
 649:lvgl/src/misc/lv_txt.c ****             result += txt[*i] & 0x3F;
 650:lvgl/src/misc/lv_txt.c ****             (*i)++;
 651:lvgl/src/misc/lv_txt.c ****         }
 652:lvgl/src/misc/lv_txt.c ****         else {
 653:lvgl/src/misc/lv_txt.c ****             (*i)++; /*Not UTF-8 char. Go the next.*/
 654:lvgl/src/misc/lv_txt.c ****         }
 655:lvgl/src/misc/lv_txt.c ****     }
 656:lvgl/src/misc/lv_txt.c ****     return result;
 657:lvgl/src/misc/lv_txt.c **** }
 428              		.loc 1 657 1 view .LVU135
 429 0024 03B0     		add	sp, sp, #12
 430              	.LCFI9:
 431              		.cfi_remember_state
 432              		.cfi_def_cfa_offset 4
 433              		@ sp needed
 434 0026 5DF804FB 		ldr	pc, [sp], #4
 435              	.LVL40:
 436              	.L43:
 437              	.LCFI10:
 438              		.cfi_restore_state
 605:lvgl/src/misc/lv_txt.c **** 
 439              		.loc 1 605 21 view .LVU136
 440 002a 0DF1040C 		add	ip, sp, #4
 441 002e EEE7     		b	.L29
 442              	.LVL41:
ARM GAS  /var/folders/21/t9g5rlb91ys800n5npymflf80000gn/T//ccvPn2HT.s 			page 25


 443              	.L30:
 615:lvgl/src/misc/lv_txt.c ****             result = (uint32_t)(txt[*i] & 0x1F) << 6;
 444              		.loc 1 615 9 is_stmt 1 view .LVU137
 615:lvgl/src/misc/lv_txt.c ****             result = (uint32_t)(txt[*i] & 0x1F) << 6;
 445              		.loc 1 615 11 is_stmt 0 view .LVU138
 446 0030 00F0E003 		and	r3, r0, #224
 447 0034 C02B     		cmp	r3, #192
 448 0036 0CD0     		beq	.L44
 623:lvgl/src/misc/lv_txt.c ****             result = (uint32_t)(txt[*i] & 0x0F) << 12;
 449              		.loc 1 623 14 is_stmt 1 view .LVU139
 623:lvgl/src/misc/lv_txt.c ****             result = (uint32_t)(txt[*i] & 0x0F) << 12;
 450              		.loc 1 623 16 is_stmt 0 view .LVU140
 451 0038 00F0F003 		and	r3, r0, #240
 452 003c E02B     		cmp	r3, #224
 453 003e 1BD0     		beq	.L45
 636:lvgl/src/misc/lv_txt.c ****             result = (uint32_t)(txt[*i] & 0x07) << 18;
 454              		.loc 1 636 14 is_stmt 1 view .LVU141
 636:lvgl/src/misc/lv_txt.c ****             result = (uint32_t)(txt[*i] & 0x07) << 18;
 455              		.loc 1 636 16 is_stmt 0 view .LVU142
 456 0040 00F0F803 		and	r3, r0, #248
 457 0044 F02B     		cmp	r3, #240
 458 0046 36D0     		beq	.L46
 653:lvgl/src/misc/lv_txt.c ****         }
 459              		.loc 1 653 13 is_stmt 1 view .LVU143
 653:lvgl/src/misc/lv_txt.c ****         }
 460              		.loc 1 653 17 is_stmt 0 view .LVU144
 461 0048 0132     		adds	r2, r2, #1
 462 004a CCF80020 		str	r2, [ip]
 601:lvgl/src/misc/lv_txt.c **** 
 463              		.loc 1 601 14 view .LVU145
 464 004e 0020     		movs	r0, #0
 465 0050 E8E7     		b	.L28
 466              	.L44:
 616:lvgl/src/misc/lv_txt.c ****             (*i)++;
 467              		.loc 1 616 13 is_stmt 1 view .LVU146
 616:lvgl/src/misc/lv_txt.c ****             (*i)++;
 468              		.loc 1 616 49 is_stmt 0 view .LVU147
 469 0052 8301     		lsls	r3, r0, #6
 616:lvgl/src/misc/lv_txt.c ****             (*i)++;
 470              		.loc 1 616 20 view .LVU148
 471 0054 03F4F863 		and	r3, r3, #1984
 472              	.LVL42:
 617:lvgl/src/misc/lv_txt.c ****             if(LV_IS_INVALID_UTF8_CODE(txt[*i])) return 0;
 473              		.loc 1 617 13 is_stmt 1 view .LVU149
 617:lvgl/src/misc/lv_txt.c ****             if(LV_IS_INVALID_UTF8_CODE(txt[*i])) return 0;
 474              		.loc 1 617 17 is_stmt 0 view .LVU150
 475 0058 511C     		adds	r1, r2, #1
 476 005a CCF80010 		str	r1, [ip]
 618:lvgl/src/misc/lv_txt.c ****             result += (txt[*i] & 0x3F);
 477              		.loc 1 618 13 is_stmt 1 view .LVU151
 618:lvgl/src/misc/lv_txt.c ****             result += (txt[*i] & 0x3F);
 478              		.loc 1 618 16 is_stmt 0 view .LVU152
 479 005e 1EF80110 		ldrb	r1, [lr, r1]	@ zero_extendqisi2
 618:lvgl/src/misc/lv_txt.c ****             result += (txt[*i] & 0x3F);
 480              		.loc 1 618 15 view .LVU153
 481 0062 01F0C000 		and	r0, r1, #192
 482 0066 8028     		cmp	r0, #128
ARM GAS  /var/folders/21/t9g5rlb91ys800n5npymflf80000gn/T//ccvPn2HT.s 			page 26


 483 0068 52D1     		bne	.L36
 619:lvgl/src/misc/lv_txt.c ****             (*i)++;
 484              		.loc 1 619 13 is_stmt 1 view .LVU154
 619:lvgl/src/misc/lv_txt.c ****             (*i)++;
 485              		.loc 1 619 32 is_stmt 0 view .LVU155
 486 006a 01F03F01 		and	r1, r1, #63
 619:lvgl/src/misc/lv_txt.c ****             (*i)++;
 487              		.loc 1 619 20 view .LVU156
 488 006e C818     		adds	r0, r1, r3
 489              	.LVL43:
 620:lvgl/src/misc/lv_txt.c ****         }
 490              		.loc 1 620 13 is_stmt 1 view .LVU157
 620:lvgl/src/misc/lv_txt.c ****         }
 491              		.loc 1 620 17 is_stmt 0 view .LVU158
 492 0070 0232     		adds	r2, r2, #2
 493 0072 CCF80020 		str	r2, [ip]
 494 0076 D5E7     		b	.L28
 495              	.LVL44:
 496              	.L45:
 624:lvgl/src/misc/lv_txt.c ****             (*i)++;
 497              		.loc 1 624 13 is_stmt 1 view .LVU159
 624:lvgl/src/misc/lv_txt.c ****             (*i)++;
 498              		.loc 1 624 49 is_stmt 0 view .LVU160
 499 0078 0303     		lsls	r3, r0, #12
 624:lvgl/src/misc/lv_txt.c ****             (*i)++;
 500              		.loc 1 624 20 view .LVU161
 501 007a 9BB2     		uxth	r3, r3
 502              	.LVL45:
 625:lvgl/src/misc/lv_txt.c **** 
 503              		.loc 1 625 13 is_stmt 1 view .LVU162
 625:lvgl/src/misc/lv_txt.c **** 
 504              		.loc 1 625 17 is_stmt 0 view .LVU163
 505 007c 511C     		adds	r1, r2, #1
 506 007e CCF80010 		str	r1, [ip]
 627:lvgl/src/misc/lv_txt.c ****             result += (uint32_t)(txt[*i] & 0x3F) << 6;
 507              		.loc 1 627 13 is_stmt 1 view .LVU164
 627:lvgl/src/misc/lv_txt.c ****             result += (uint32_t)(txt[*i] & 0x3F) << 6;
 508              		.loc 1 627 16 is_stmt 0 view .LVU165
 509 0082 1EF80110 		ldrb	r1, [lr, r1]	@ zero_extendqisi2
 627:lvgl/src/misc/lv_txt.c ****             result += (uint32_t)(txt[*i] & 0x3F) << 6;
 510              		.loc 1 627 15 view .LVU166
 511 0086 01F0C000 		and	r0, r1, #192
 512 008a 8028     		cmp	r0, #128
 513 008c 42D1     		bne	.L37
 628:lvgl/src/misc/lv_txt.c ****             (*i)++;
 514              		.loc 1 628 13 is_stmt 1 view .LVU167
 628:lvgl/src/misc/lv_txt.c ****             (*i)++;
 515              		.loc 1 628 50 is_stmt 0 view .LVU168
 516 008e 8901     		lsls	r1, r1, #6
 517 0090 01F47C61 		and	r1, r1, #4032
 628:lvgl/src/misc/lv_txt.c ****             (*i)++;
 518              		.loc 1 628 20 view .LVU169
 519 0094 1944     		add	r1, r1, r3
 520              	.LVL46:
 629:lvgl/src/misc/lv_txt.c **** 
 521              		.loc 1 629 13 is_stmt 1 view .LVU170
 629:lvgl/src/misc/lv_txt.c **** 
ARM GAS  /var/folders/21/t9g5rlb91ys800n5npymflf80000gn/T//ccvPn2HT.s 			page 27


 522              		.loc 1 629 17 is_stmt 0 view .LVU171
 523 0096 931C     		adds	r3, r2, #2
 524 0098 CCF80030 		str	r3, [ip]
 631:lvgl/src/misc/lv_txt.c ****             result += (txt[*i] & 0x3F);
 525              		.loc 1 631 13 is_stmt 1 view .LVU172
 631:lvgl/src/misc/lv_txt.c ****             result += (txt[*i] & 0x3F);
 526              		.loc 1 631 16 is_stmt 0 view .LVU173
 527 009c 1EF80300 		ldrb	r0, [lr, r3]	@ zero_extendqisi2
 631:lvgl/src/misc/lv_txt.c ****             result += (txt[*i] & 0x3F);
 528              		.loc 1 631 15 view .LVU174
 529 00a0 00F0C003 		and	r3, r0, #192
 530 00a4 802B     		cmp	r3, #128
 531 00a6 37D1     		bne	.L38
 632:lvgl/src/misc/lv_txt.c ****             (*i)++;
 532              		.loc 1 632 13 is_stmt 1 view .LVU175
 632:lvgl/src/misc/lv_txt.c ****             (*i)++;
 533              		.loc 1 632 32 is_stmt 0 view .LVU176
 534 00a8 00F03F00 		and	r0, r0, #63
 632:lvgl/src/misc/lv_txt.c ****             (*i)++;
 535              		.loc 1 632 20 view .LVU177
 536 00ac 0844     		add	r0, r0, r1
 537              	.LVL47:
 633:lvgl/src/misc/lv_txt.c ****         }
 538              		.loc 1 633 13 is_stmt 1 view .LVU178
 633:lvgl/src/misc/lv_txt.c ****         }
 539              		.loc 1 633 17 is_stmt 0 view .LVU179
 540 00ae 0332     		adds	r2, r2, #3
 541 00b0 CCF80020 		str	r2, [ip]
 542 00b4 B6E7     		b	.L28
 543              	.LVL48:
 544              	.L46:
 637:lvgl/src/misc/lv_txt.c ****             (*i)++;
 545              		.loc 1 637 13 is_stmt 1 view .LVU180
 637:lvgl/src/misc/lv_txt.c ****             (*i)++;
 546              		.loc 1 637 49 is_stmt 0 view .LVU181
 547 00b6 8304     		lsls	r3, r0, #18
 637:lvgl/src/misc/lv_txt.c ****             (*i)++;
 548              		.loc 1 637 20 view .LVU182
 549 00b8 03F4E013 		and	r3, r3, #1835008
 550              	.LVL49:
 638:lvgl/src/misc/lv_txt.c **** 
 551              		.loc 1 638 13 is_stmt 1 view .LVU183
 638:lvgl/src/misc/lv_txt.c **** 
 552              		.loc 1 638 17 is_stmt 0 view .LVU184
 553 00bc 511C     		adds	r1, r2, #1
 554 00be CCF80010 		str	r1, [ip]
 640:lvgl/src/misc/lv_txt.c ****             result += (uint32_t)(txt[*i] & 0x3F) << 12;
 555              		.loc 1 640 13 is_stmt 1 view .LVU185
 640:lvgl/src/misc/lv_txt.c ****             result += (uint32_t)(txt[*i] & 0x3F) << 12;
 556              		.loc 1 640 16 is_stmt 0 view .LVU186
 557 00c2 1EF80110 		ldrb	r1, [lr, r1]	@ zero_extendqisi2
 640:lvgl/src/misc/lv_txt.c ****             result += (uint32_t)(txt[*i] & 0x3F) << 12;
 558              		.loc 1 640 15 view .LVU187
 559 00c6 01F0C000 		and	r0, r1, #192
 560 00ca 8028     		cmp	r0, #128
 561 00cc 26D1     		bne	.L39
 641:lvgl/src/misc/lv_txt.c ****             (*i)++;
ARM GAS  /var/folders/21/t9g5rlb91ys800n5npymflf80000gn/T//ccvPn2HT.s 			page 28


 562              		.loc 1 641 13 is_stmt 1 view .LVU188
 641:lvgl/src/misc/lv_txt.c ****             (*i)++;
 563              		.loc 1 641 50 is_stmt 0 view .LVU189
 564 00ce 0903     		lsls	r1, r1, #12
 565 00d0 01F47C31 		and	r1, r1, #258048
 641:lvgl/src/misc/lv_txt.c ****             (*i)++;
 566              		.loc 1 641 20 view .LVU190
 567 00d4 1943     		orrs	r1, r1, r3
 568              	.LVL50:
 642:lvgl/src/misc/lv_txt.c **** 
 569              		.loc 1 642 13 is_stmt 1 view .LVU191
 642:lvgl/src/misc/lv_txt.c **** 
 570              		.loc 1 642 17 is_stmt 0 view .LVU192
 571 00d6 931C     		adds	r3, r2, #2
 572 00d8 CCF80030 		str	r3, [ip]
 644:lvgl/src/misc/lv_txt.c ****             result += (uint32_t)(txt[*i] & 0x3F) << 6;
 573              		.loc 1 644 13 is_stmt 1 view .LVU193
 644:lvgl/src/misc/lv_txt.c ****             result += (uint32_t)(txt[*i] & 0x3F) << 6;
 574              		.loc 1 644 16 is_stmt 0 view .LVU194
 575 00dc 1EF80330 		ldrb	r3, [lr, r3]	@ zero_extendqisi2
 644:lvgl/src/misc/lv_txt.c ****             result += (uint32_t)(txt[*i] & 0x3F) << 6;
 576              		.loc 1 644 15 view .LVU195
 577 00e0 03F0C000 		and	r0, r3, #192
 578 00e4 8028     		cmp	r0, #128
 579 00e6 1BD1     		bne	.L40
 645:lvgl/src/misc/lv_txt.c ****             (*i)++;
 580              		.loc 1 645 13 is_stmt 1 view .LVU196
 645:lvgl/src/misc/lv_txt.c ****             (*i)++;
 581              		.loc 1 645 50 is_stmt 0 view .LVU197
 582 00e8 9B01     		lsls	r3, r3, #6
 583 00ea 03F47C63 		and	r3, r3, #4032
 645:lvgl/src/misc/lv_txt.c ****             (*i)++;
 584              		.loc 1 645 20 view .LVU198
 585 00ee 1944     		add	r1, r1, r3
 586              	.LVL51:
 646:lvgl/src/misc/lv_txt.c **** 
 587              		.loc 1 646 13 is_stmt 1 view .LVU199
 646:lvgl/src/misc/lv_txt.c **** 
 588              		.loc 1 646 17 is_stmt 0 view .LVU200
 589 00f0 D31C     		adds	r3, r2, #3
 590 00f2 CCF80030 		str	r3, [ip]
 648:lvgl/src/misc/lv_txt.c ****             result += txt[*i] & 0x3F;
 591              		.loc 1 648 13 is_stmt 1 view .LVU201
 648:lvgl/src/misc/lv_txt.c ****             result += txt[*i] & 0x3F;
 592              		.loc 1 648 16 is_stmt 0 view .LVU202
 593 00f6 1EF80330 		ldrb	r3, [lr, r3]	@ zero_extendqisi2
 648:lvgl/src/misc/lv_txt.c ****             result += txt[*i] & 0x3F;
 594              		.loc 1 648 15 view .LVU203
 595 00fa 03F0C000 		and	r0, r3, #192
 596 00fe 8028     		cmp	r0, #128
 597 0100 10D1     		bne	.L41
 649:lvgl/src/misc/lv_txt.c ****             (*i)++;
 598              		.loc 1 649 13 is_stmt 1 view .LVU204
 649:lvgl/src/misc/lv_txt.c ****             (*i)++;
 599              		.loc 1 649 31 is_stmt 0 view .LVU205
 600 0102 03F03F00 		and	r0, r3, #63
 649:lvgl/src/misc/lv_txt.c ****             (*i)++;
ARM GAS  /var/folders/21/t9g5rlb91ys800n5npymflf80000gn/T//ccvPn2HT.s 			page 29


 601              		.loc 1 649 20 view .LVU206
 602 0106 0844     		add	r0, r0, r1
 603              	.LVL52:
 650:lvgl/src/misc/lv_txt.c ****         }
 604              		.loc 1 650 13 is_stmt 1 view .LVU207
 650:lvgl/src/misc/lv_txt.c ****         }
 605              		.loc 1 650 17 is_stmt 0 view .LVU208
 606 0108 0432     		adds	r2, r2, #4
 607 010a CCF80020 		str	r2, [ip]
 608 010e 89E7     		b	.L28
 609              	.LVL53:
 610              	.L36:
 618:lvgl/src/misc/lv_txt.c ****             result += (txt[*i] & 0x3F);
 611              		.loc 1 618 57 view .LVU209
 612 0110 0020     		movs	r0, #0
 613 0112 87E7     		b	.L28
 614              	.L37:
 627:lvgl/src/misc/lv_txt.c ****             result += (uint32_t)(txt[*i] & 0x3F) << 6;
 615              		.loc 1 627 57 view .LVU210
 616 0114 0020     		movs	r0, #0
 617 0116 85E7     		b	.L28
 618              	.LVL54:
 619              	.L38:
 631:lvgl/src/misc/lv_txt.c ****             result += (txt[*i] & 0x3F);
 620              		.loc 1 631 57 view .LVU211
 621 0118 0020     		movs	r0, #0
 622 011a 83E7     		b	.L28
 623              	.LVL55:
 624              	.L39:
 640:lvgl/src/misc/lv_txt.c ****             result += (uint32_t)(txt[*i] & 0x3F) << 12;
 625              		.loc 1 640 57 view .LVU212
 626 011c 0020     		movs	r0, #0
 627 011e 81E7     		b	.L28
 628              	.LVL56:
 629              	.L40:
 644:lvgl/src/misc/lv_txt.c ****             result += (uint32_t)(txt[*i] & 0x3F) << 6;
 630              		.loc 1 644 57 view .LVU213
 631 0120 0020     		movs	r0, #0
 632 0122 7FE7     		b	.L28
 633              	.L41:
 648:lvgl/src/misc/lv_txt.c ****             result += txt[*i] & 0x3F;
 634              		.loc 1 648 57 view .LVU214
 635 0124 0020     		movs	r0, #0
 636              	.LVL57:
 648:lvgl/src/misc/lv_txt.c ****             result += txt[*i] & 0x3F;
 637              		.loc 1 648 57 view .LVU215
 638 0126 7DE7     		b	.L28
 639              		.cfi_endproc
 640              	.LFE67:
 642              		.section	.text.lv_txt_utf8_prev,"ax",%progbits
 643              		.align	1
 644              		.syntax unified
 645              		.thumb
 646              		.thumb_func
 648              	lv_txt_utf8_prev:
 649              	.LVL58:
 650              	.LFB68:
ARM GAS  /var/folders/21/t9g5rlb91ys800n5npymflf80000gn/T//ccvPn2HT.s 			page 30


 658:lvgl/src/misc/lv_txt.c **** 
 659:lvgl/src/misc/lv_txt.c **** /**
 660:lvgl/src/misc/lv_txt.c ****  * Get previous UTF-8 character form a string.
 661:lvgl/src/misc/lv_txt.c ****  * @param txt pointer to '\0' terminated string
 662:lvgl/src/misc/lv_txt.c ****  * @param i start byte index in 'txt' where to start. After the call it will point to the previous
 663:lvgl/src/misc/lv_txt.c ****  * UTF-8 char in 'txt'.
 664:lvgl/src/misc/lv_txt.c ****  * @return the decoded Unicode character or 0 on invalid UTF-8 code
 665:lvgl/src/misc/lv_txt.c ****  */
 666:lvgl/src/misc/lv_txt.c **** static uint32_t lv_txt_utf8_prev(const char * txt, uint32_t * i)
 667:lvgl/src/misc/lv_txt.c **** {
 651              		.loc 1 667 1 is_stmt 1 view -0
 652              		.cfi_startproc
 653              		@ args = 0, pretend = 0, frame = 8
 654              		@ frame_needed = 0, uses_anonymous_args = 0
 655              		.loc 1 667 1 is_stmt 0 view .LVU217
 656 0000 70B5     		push	{r4, r5, r6, lr}
 657              	.LCFI11:
 658              		.cfi_def_cfa_offset 16
 659              		.cfi_offset 4, -16
 660              		.cfi_offset 5, -12
 661              		.cfi_offset 6, -8
 662              		.cfi_offset 14, -4
 663 0002 82B0     		sub	sp, sp, #8
 664              	.LCFI12:
 665              		.cfi_def_cfa_offset 24
 666 0004 0646     		mov	r6, r0
 667 0006 0D46     		mov	r5, r1
 668:lvgl/src/misc/lv_txt.c ****     uint8_t c_size;
 668              		.loc 1 668 5 is_stmt 1 view .LVU218
 669:lvgl/src/misc/lv_txt.c ****     uint8_t cnt = 0;
 669              		.loc 1 669 5 view .LVU219
 670              	.LVL59:
 670:lvgl/src/misc/lv_txt.c **** 
 671:lvgl/src/misc/lv_txt.c ****     /*Try to find a !0 long UTF-8 char by stepping one character back*/
 672:lvgl/src/misc/lv_txt.c ****     (*i)--;
 671              		.loc 1 672 5 view .LVU220
 672              		.loc 1 672 6 is_stmt 0 view .LVU221
 673 0008 0B68     		ldr	r3, [r1]
 674              		.loc 1 672 9 view .LVU222
 675 000a 013B     		subs	r3, r3, #1
 676 000c 0B60     		str	r3, [r1]
 669:lvgl/src/misc/lv_txt.c ****     uint8_t cnt = 0;
 677              		.loc 1 669 13 view .LVU223
 678 000e 0024     		movs	r4, #0
 679 0010 04E0     		b	.L50
 680              	.LVL60:
 681              	.L54:
 673:lvgl/src/misc/lv_txt.c ****     do {
 674:lvgl/src/misc/lv_txt.c ****         if(cnt >= 4) return 0; /*No UTF-8 char found before the initial*/
 675:lvgl/src/misc/lv_txt.c **** 
 676:lvgl/src/misc/lv_txt.c ****         c_size = _lv_txt_encoded_size(&txt[*i]);
 677:lvgl/src/misc/lv_txt.c ****         if(c_size == 0) {
 678:lvgl/src/misc/lv_txt.c ****             if(*i != 0)
 679:lvgl/src/misc/lv_txt.c ****                 (*i)--;
 682              		.loc 1 679 17 is_stmt 1 view .LVU224
 683              		.loc 1 679 21 is_stmt 0 view .LVU225
 684 0012 0138     		subs	r0, r0, #1
ARM GAS  /var/folders/21/t9g5rlb91ys800n5npymflf80000gn/T//ccvPn2HT.s 			page 31


 685 0014 2860     		str	r0, [r5]
 686              	.L49:
 680:lvgl/src/misc/lv_txt.c ****             else
 681:lvgl/src/misc/lv_txt.c ****                 return 0;
 682:lvgl/src/misc/lv_txt.c ****         }
 683:lvgl/src/misc/lv_txt.c ****         cnt++;
 687              		.loc 1 683 9 is_stmt 1 view .LVU226
 688              		.loc 1 683 12 is_stmt 0 view .LVU227
 689 0016 0134     		adds	r4, r4, #1
 690              	.LVL61:
 691              		.loc 1 683 12 view .LVU228
 692 0018 E4B2     		uxtb	r4, r4
 693              	.LVL62:
 684:lvgl/src/misc/lv_txt.c ****     } while(c_size == 0);
 694              		.loc 1 684 20 is_stmt 1 view .LVU229
 695 001a 6BB9     		cbnz	r3, .L53
 696              	.LVL63:
 697              	.L50:
 673:lvgl/src/misc/lv_txt.c ****     do {
 698              		.loc 1 673 5 view .LVU230
 674:lvgl/src/misc/lv_txt.c **** 
 699              		.loc 1 674 9 view .LVU231
 674:lvgl/src/misc/lv_txt.c **** 
 700              		.loc 1 674 11 is_stmt 0 view .LVU232
 701 001c 032C     		cmp	r4, #3
 702 001e 13D8     		bhi	.L51
 676:lvgl/src/misc/lv_txt.c ****         if(c_size == 0) {
 703              		.loc 1 676 9 is_stmt 1 view .LVU233
 676:lvgl/src/misc/lv_txt.c ****         if(c_size == 0) {
 704              		.loc 1 676 44 is_stmt 0 view .LVU234
 705 0020 2868     		ldr	r0, [r5]
 676:lvgl/src/misc/lv_txt.c ****         if(c_size == 0) {
 706              		.loc 1 676 18 view .LVU235
 707 0022 0B4B     		ldr	r3, .L55
 708 0024 1B68     		ldr	r3, [r3]
 709 0026 3044     		add	r0, r0, r6
 710 0028 9847     		blx	r3
 711              	.LVL64:
 677:lvgl/src/misc/lv_txt.c ****             if(*i != 0)
 712              		.loc 1 677 9 is_stmt 1 view .LVU236
 677:lvgl/src/misc/lv_txt.c ****             if(*i != 0)
 713              		.loc 1 677 11 is_stmt 0 view .LVU237
 714 002a 0346     		mov	r3, r0
 715 002c 0028     		cmp	r0, #0
 716 002e F2D1     		bne	.L49
 678:lvgl/src/misc/lv_txt.c ****                 (*i)--;
 717              		.loc 1 678 13 is_stmt 1 view .LVU238
 678:lvgl/src/misc/lv_txt.c ****                 (*i)--;
 718              		.loc 1 678 16 is_stmt 0 view .LVU239
 719 0030 2868     		ldr	r0, [r5]
 720              	.LVL65:
 678:lvgl/src/misc/lv_txt.c ****                 (*i)--;
 721              		.loc 1 678 15 view .LVU240
 722 0032 0028     		cmp	r0, #0
 723 0034 EDD1     		bne	.L54
 724 0036 08E0     		b	.L47
 725              	.L53:
ARM GAS  /var/folders/21/t9g5rlb91ys800n5npymflf80000gn/T//ccvPn2HT.s 			page 32


 685:lvgl/src/misc/lv_txt.c **** 
 686:lvgl/src/misc/lv_txt.c ****     uint32_t i_tmp  = *i;
 726              		.loc 1 686 5 is_stmt 1 view .LVU241
 727              		.loc 1 686 23 is_stmt 0 view .LVU242
 728 0038 2B68     		ldr	r3, [r5]
 729              		.loc 1 686 14 view .LVU243
 730 003a 0193     		str	r3, [sp, #4]
 687:lvgl/src/misc/lv_txt.c ****     uint32_t letter = _lv_txt_encoded_next(txt, &i_tmp); /*Character found, get it*/
 731              		.loc 1 687 5 is_stmt 1 view .LVU244
 732              		.loc 1 687 23 is_stmt 0 view .LVU245
 733 003c 054B     		ldr	r3, .L55+4
 734 003e 1B68     		ldr	r3, [r3]
 735 0040 01A9     		add	r1, sp, #4
 736 0042 3046     		mov	r0, r6
 737 0044 9847     		blx	r3
 738              	.LVL66:
 688:lvgl/src/misc/lv_txt.c **** 
 689:lvgl/src/misc/lv_txt.c ****     return letter;
 739              		.loc 1 689 5 is_stmt 1 view .LVU246
 740              		.loc 1 689 12 is_stmt 0 view .LVU247
 741 0046 00E0     		b	.L47
 742              	.LVL67:
 743              	.L51:
 674:lvgl/src/misc/lv_txt.c **** 
 744              		.loc 1 674 29 view .LVU248
 745 0048 0020     		movs	r0, #0
 746              	.L47:
 690:lvgl/src/misc/lv_txt.c **** }
 747              		.loc 1 690 1 view .LVU249
 748 004a 02B0     		add	sp, sp, #8
 749              	.LCFI13:
 750              		.cfi_def_cfa_offset 16
 751              		@ sp needed
 752 004c 70BD     		pop	{r4, r5, r6, pc}
 753              	.LVL68:
 754              	.L56:
 755              		.loc 1 690 1 view .LVU250
 756 004e 00BF     		.align	2
 757              	.L55:
 758 0050 00000000 		.word	_lv_txt_encoded_size
 759 0054 00000000 		.word	_lv_txt_encoded_next
 760              		.cfi_endproc
 761              	.LFE68:
 763              		.section	.text.lv_txt_utf8_get_byte_id,"ax",%progbits
 764              		.align	1
 765              		.syntax unified
 766              		.thumb
 767              		.thumb_func
 769              	lv_txt_utf8_get_byte_id:
 770              	.LVL69:
 771              	.LFB69:
 691:lvgl/src/misc/lv_txt.c **** 
 692:lvgl/src/misc/lv_txt.c **** /**
 693:lvgl/src/misc/lv_txt.c ****  * Convert a character index (in an UTF-8 text) to byte index.
 694:lvgl/src/misc/lv_txt.c ****  * E.g. in "AÁRT" index of 'R' is 2th char but start at byte 3 because 'Á' is 2 bytes long
 695:lvgl/src/misc/lv_txt.c ****  * @param txt a '\0' terminated UTF-8 string
 696:lvgl/src/misc/lv_txt.c ****  * @param utf8_id character index
ARM GAS  /var/folders/21/t9g5rlb91ys800n5npymflf80000gn/T//ccvPn2HT.s 			page 33


 697:lvgl/src/misc/lv_txt.c ****  * @return byte index of the 'utf8_id'th letter
 698:lvgl/src/misc/lv_txt.c ****  */
 699:lvgl/src/misc/lv_txt.c **** static uint32_t lv_txt_utf8_get_byte_id(const char * txt, uint32_t utf8_id)
 700:lvgl/src/misc/lv_txt.c **** {
 772              		.loc 1 700 1 is_stmt 1 view -0
 773              		.cfi_startproc
 774              		@ args = 0, pretend = 0, frame = 0
 775              		@ frame_needed = 0, uses_anonymous_args = 0
 776              		.loc 1 700 1 is_stmt 0 view .LVU252
 777 0000 F8B5     		push	{r3, r4, r5, r6, r7, lr}
 778              	.LCFI14:
 779              		.cfi_def_cfa_offset 24
 780              		.cfi_offset 3, -24
 781              		.cfi_offset 4, -20
 782              		.cfi_offset 5, -16
 783              		.cfi_offset 6, -12
 784              		.cfi_offset 7, -8
 785              		.cfi_offset 14, -4
 786 0002 0646     		mov	r6, r0
 787 0004 0F46     		mov	r7, r1
 701:lvgl/src/misc/lv_txt.c ****     uint32_t i;
 788              		.loc 1 701 5 is_stmt 1 view .LVU253
 702:lvgl/src/misc/lv_txt.c ****     uint32_t byte_cnt = 0;
 789              		.loc 1 702 5 view .LVU254
 790              	.LVL70:
 703:lvgl/src/misc/lv_txt.c ****     for(i = 0; i < utf8_id && txt[byte_cnt] != '\0'; i++) {
 791              		.loc 1 703 5 view .LVU255
 702:lvgl/src/misc/lv_txt.c ****     uint32_t byte_cnt = 0;
 792              		.loc 1 702 14 is_stmt 0 view .LVU256
 793 0006 0024     		movs	r4, #0
 794              		.loc 1 703 11 view .LVU257
 795 0008 2546     		mov	r5, r4
 796              		.loc 1 703 5 view .LVU258
 797 000a 01E0     		b	.L58
 798              	.LVL71:
 799              	.L59:
 800              	.LBB18:
 704:lvgl/src/misc/lv_txt.c ****         uint8_t c_size = _lv_txt_encoded_size(&txt[byte_cnt]);
 705:lvgl/src/misc/lv_txt.c ****         /* If the char was invalid tell it's 1 byte long*/
 706:lvgl/src/misc/lv_txt.c ****         byte_cnt += c_size ? c_size : 1;
 801              		.loc 1 706 18 discriminator 4 view .LVU259
 802 000c 1C44     		add	r4, r4, r3
 803              	.LVL72:
 804              		.loc 1 706 18 discriminator 4 view .LVU260
 805              	.LBE18:
 703:lvgl/src/misc/lv_txt.c ****     for(i = 0; i < utf8_id && txt[byte_cnt] != '\0'; i++) {
 806              		.loc 1 703 55 is_stmt 1 discriminator 4 view .LVU261
 807 000e 0135     		adds	r5, r5, #1
 808              	.LVL73:
 809              	.L58:
 703:lvgl/src/misc/lv_txt.c ****     for(i = 0; i < utf8_id && txt[byte_cnt] != '\0'; i++) {
 810              		.loc 1 703 28 discriminator 2 view .LVU262
 811 0010 BD42     		cmp	r5, r7
 812 0012 0AD2     		bcs	.L57
 703:lvgl/src/misc/lv_txt.c ****     for(i = 0; i < utf8_id && txt[byte_cnt] != '\0'; i++) {
 813              		.loc 1 703 34 is_stmt 0 discriminator 3 view .LVU263
 814 0014 3019     		adds	r0, r6, r4
ARM GAS  /var/folders/21/t9g5rlb91ys800n5npymflf80000gn/T//ccvPn2HT.s 			page 34


 815 0016 335D     		ldrb	r3, [r6, r4]	@ zero_extendqisi2
 703:lvgl/src/misc/lv_txt.c ****     for(i = 0; i < utf8_id && txt[byte_cnt] != '\0'; i++) {
 816              		.loc 1 703 28 discriminator 3 view .LVU264
 817 0018 3BB1     		cbz	r3, .L57
 818              	.LBB19:
 704:lvgl/src/misc/lv_txt.c ****         uint8_t c_size = _lv_txt_encoded_size(&txt[byte_cnt]);
 819              		.loc 1 704 9 is_stmt 1 view .LVU265
 704:lvgl/src/misc/lv_txt.c ****         uint8_t c_size = _lv_txt_encoded_size(&txt[byte_cnt]);
 820              		.loc 1 704 26 is_stmt 0 view .LVU266
 821 001a 054B     		ldr	r3, .L64
 822 001c 1B68     		ldr	r3, [r3]
 823 001e 9847     		blx	r3
 824              	.LVL74:
 825              		.loc 1 706 9 is_stmt 1 view .LVU267
 826              		.loc 1 706 37 is_stmt 0 view .LVU268
 827 0020 0346     		mov	r3, r0
 828 0022 0028     		cmp	r0, #0
 829 0024 F2D1     		bne	.L59
 830 0026 0123     		movs	r3, #1
 831 0028 F0E7     		b	.L59
 832              	.LVL75:
 833              	.L57:
 834              		.loc 1 706 37 view .LVU269
 835              	.LBE19:
 707:lvgl/src/misc/lv_txt.c ****     }
 708:lvgl/src/misc/lv_txt.c **** 
 709:lvgl/src/misc/lv_txt.c ****     return byte_cnt;
 710:lvgl/src/misc/lv_txt.c **** }
 836              		.loc 1 710 1 view .LVU270
 837 002a 2046     		mov	r0, r4
 838 002c F8BD     		pop	{r3, r4, r5, r6, r7, pc}
 839              	.LVL76:
 840              	.L65:
 841              		.loc 1 710 1 view .LVU271
 842 002e 00BF     		.align	2
 843              	.L64:
 844 0030 00000000 		.word	_lv_txt_encoded_size
 845              		.cfi_endproc
 846              	.LFE69:
 848              		.section	.text.lv_txt_utf8_get_char_id,"ax",%progbits
 849              		.align	1
 850              		.syntax unified
 851              		.thumb
 852              		.thumb_func
 854              	lv_txt_utf8_get_char_id:
 855              	.LVL77:
 856              	.LFB70:
 711:lvgl/src/misc/lv_txt.c **** 
 712:lvgl/src/misc/lv_txt.c **** /**
 713:lvgl/src/misc/lv_txt.c ****  * Convert a byte index (in an UTF-8 text) to character index.
 714:lvgl/src/misc/lv_txt.c ****  * E.g. in "AÁRT" index of 'R' is 2th char but start at byte 3 because 'Á' is 2 bytes long
 715:lvgl/src/misc/lv_txt.c ****  * @param txt a '\0' terminated UTF-8 string
 716:lvgl/src/misc/lv_txt.c ****  * @param byte_id byte index
 717:lvgl/src/misc/lv_txt.c ****  * @return character index of the letter at 'byte_id'th position
 718:lvgl/src/misc/lv_txt.c ****  */
 719:lvgl/src/misc/lv_txt.c **** static uint32_t lv_txt_utf8_get_char_id(const char * txt, uint32_t byte_id)
 720:lvgl/src/misc/lv_txt.c **** {
ARM GAS  /var/folders/21/t9g5rlb91ys800n5npymflf80000gn/T//ccvPn2HT.s 			page 35


 857              		.loc 1 720 1 is_stmt 1 view -0
 858              		.cfi_startproc
 859              		@ args = 0, pretend = 0, frame = 8
 860              		@ frame_needed = 0, uses_anonymous_args = 0
 861              		.loc 1 720 1 is_stmt 0 view .LVU273
 862 0000 70B5     		push	{r4, r5, r6, lr}
 863              	.LCFI15:
 864              		.cfi_def_cfa_offset 16
 865              		.cfi_offset 4, -16
 866              		.cfi_offset 5, -12
 867              		.cfi_offset 6, -8
 868              		.cfi_offset 14, -4
 869 0002 82B0     		sub	sp, sp, #8
 870              	.LCFI16:
 871              		.cfi_def_cfa_offset 24
 872 0004 0646     		mov	r6, r0
 873 0006 0D46     		mov	r5, r1
 721:lvgl/src/misc/lv_txt.c ****     uint32_t i        = 0;
 874              		.loc 1 721 5 is_stmt 1 view .LVU274
 875              		.loc 1 721 14 is_stmt 0 view .LVU275
 876 0008 0024     		movs	r4, #0
 877 000a 0194     		str	r4, [sp, #4]
 722:lvgl/src/misc/lv_txt.c ****     uint32_t char_cnt = 0;
 878              		.loc 1 722 5 is_stmt 1 view .LVU276
 879              	.LVL78:
 723:lvgl/src/misc/lv_txt.c **** 
 724:lvgl/src/misc/lv_txt.c ****     while(i < byte_id) {
 880              		.loc 1 724 5 view .LVU277
 881              		.loc 1 724 10 is_stmt 0 view .LVU278
 882 000c 05E0     		b	.L67
 883              	.LVL79:
 884              	.L68:
 725:lvgl/src/misc/lv_txt.c ****         _lv_txt_encoded_next(txt, &i); /*'i' points to the next letter so use the prev. value*/
 885              		.loc 1 725 9 is_stmt 1 view .LVU279
 886 000e 064B     		ldr	r3, .L70
 887 0010 1B68     		ldr	r3, [r3]
 888 0012 01A9     		add	r1, sp, #4
 889 0014 3046     		mov	r0, r6
 890 0016 9847     		blx	r3
 891              	.LVL80:
 726:lvgl/src/misc/lv_txt.c ****         char_cnt++;
 892              		.loc 1 726 9 view .LVU280
 893              		.loc 1 726 17 is_stmt 0 view .LVU281
 894 0018 0134     		adds	r4, r4, #1
 895              	.LVL81:
 896              	.L67:
 724:lvgl/src/misc/lv_txt.c ****         _lv_txt_encoded_next(txt, &i); /*'i' points to the next letter so use the prev. value*/
 897              		.loc 1 724 13 is_stmt 1 view .LVU282
 898 001a 019B     		ldr	r3, [sp, #4]
 899 001c AB42     		cmp	r3, r5
 900 001e F6D3     		bcc	.L68
 727:lvgl/src/misc/lv_txt.c ****     }
 728:lvgl/src/misc/lv_txt.c **** 
 729:lvgl/src/misc/lv_txt.c ****     return char_cnt;
 901              		.loc 1 729 5 view .LVU283
 730:lvgl/src/misc/lv_txt.c **** }
 902              		.loc 1 730 1 is_stmt 0 view .LVU284
ARM GAS  /var/folders/21/t9g5rlb91ys800n5npymflf80000gn/T//ccvPn2HT.s 			page 36


 903 0020 2046     		mov	r0, r4
 904 0022 02B0     		add	sp, sp, #8
 905              	.LCFI17:
 906              		.cfi_def_cfa_offset 16
 907              		@ sp needed
 908 0024 70BD     		pop	{r4, r5, r6, pc}
 909              	.LVL82:
 910              	.L71:
 911              		.loc 1 730 1 view .LVU285
 912 0026 00BF     		.align	2
 913              	.L70:
 914 0028 00000000 		.word	_lv_txt_encoded_next
 915              		.cfi_endproc
 916              	.LFE70:
 918              		.section	.text.lv_txt_utf8_get_length,"ax",%progbits
 919              		.align	1
 920              		.syntax unified
 921              		.thumb
 922              		.thumb_func
 924              	lv_txt_utf8_get_length:
 925              	.LVL83:
 926              	.LFB71:
 731:lvgl/src/misc/lv_txt.c **** 
 732:lvgl/src/misc/lv_txt.c **** /**
 733:lvgl/src/misc/lv_txt.c ****  * Get the number of characters (and NOT bytes) in a string. Decode it with UTF-8 if enabled.
 734:lvgl/src/misc/lv_txt.c ****  * E.g.: "ÁBC" is 3 characters (but 4 bytes)
 735:lvgl/src/misc/lv_txt.c ****  * @param txt a '\0' terminated char string
 736:lvgl/src/misc/lv_txt.c ****  * @return number of characters
 737:lvgl/src/misc/lv_txt.c ****  */
 738:lvgl/src/misc/lv_txt.c **** static uint32_t lv_txt_utf8_get_length(const char * txt)
 739:lvgl/src/misc/lv_txt.c **** {
 927              		.loc 1 739 1 is_stmt 1 view -0
 928              		.cfi_startproc
 929              		@ args = 0, pretend = 0, frame = 8
 930              		@ frame_needed = 0, uses_anonymous_args = 0
 931              		.loc 1 739 1 is_stmt 0 view .LVU287
 932 0000 30B5     		push	{r4, r5, lr}
 933              	.LCFI18:
 934              		.cfi_def_cfa_offset 12
 935              		.cfi_offset 4, -12
 936              		.cfi_offset 5, -8
 937              		.cfi_offset 14, -4
 938 0002 83B0     		sub	sp, sp, #12
 939              	.LCFI19:
 940              		.cfi_def_cfa_offset 24
 941 0004 0546     		mov	r5, r0
 740:lvgl/src/misc/lv_txt.c ****     uint32_t len = 0;
 942              		.loc 1 740 5 is_stmt 1 view .LVU288
 943              	.LVL84:
 741:lvgl/src/misc/lv_txt.c ****     uint32_t i   = 0;
 944              		.loc 1 741 5 view .LVU289
 945              		.loc 1 741 14 is_stmt 0 view .LVU290
 946 0006 0024     		movs	r4, #0
 947 0008 0194     		str	r4, [sp, #4]
 742:lvgl/src/misc/lv_txt.c **** 
 743:lvgl/src/misc/lv_txt.c ****     while(txt[i] != '\0') {
 948              		.loc 1 743 5 is_stmt 1 view .LVU291
ARM GAS  /var/folders/21/t9g5rlb91ys800n5npymflf80000gn/T//ccvPn2HT.s 			page 37


 949              		.loc 1 743 10 is_stmt 0 view .LVU292
 950 000a 05E0     		b	.L73
 951              	.LVL85:
 952              	.L74:
 744:lvgl/src/misc/lv_txt.c ****         _lv_txt_encoded_next(txt, &i);
 953              		.loc 1 744 9 is_stmt 1 view .LVU293
 954 000c 064B     		ldr	r3, .L76
 955 000e 1B68     		ldr	r3, [r3]
 956 0010 01A9     		add	r1, sp, #4
 957 0012 2846     		mov	r0, r5
 958 0014 9847     		blx	r3
 959              	.LVL86:
 745:lvgl/src/misc/lv_txt.c ****         len++;
 960              		.loc 1 745 9 view .LVU294
 961              		.loc 1 745 12 is_stmt 0 view .LVU295
 962 0016 0134     		adds	r4, r4, #1
 963              	.LVL87:
 964              	.L73:
 743:lvgl/src/misc/lv_txt.c ****         _lv_txt_encoded_next(txt, &i);
 965              		.loc 1 743 18 is_stmt 1 view .LVU296
 743:lvgl/src/misc/lv_txt.c ****         _lv_txt_encoded_next(txt, &i);
 966              		.loc 1 743 14 is_stmt 0 view .LVU297
 967 0018 019B     		ldr	r3, [sp, #4]
 968 001a EB5C     		ldrb	r3, [r5, r3]	@ zero_extendqisi2
 743:lvgl/src/misc/lv_txt.c ****         _lv_txt_encoded_next(txt, &i);
 969              		.loc 1 743 18 view .LVU298
 970 001c 002B     		cmp	r3, #0
 971 001e F5D1     		bne	.L74
 746:lvgl/src/misc/lv_txt.c ****     }
 747:lvgl/src/misc/lv_txt.c **** 
 748:lvgl/src/misc/lv_txt.c ****     return len;
 972              		.loc 1 748 5 is_stmt 1 view .LVU299
 749:lvgl/src/misc/lv_txt.c **** }
 973              		.loc 1 749 1 is_stmt 0 view .LVU300
 974 0020 2046     		mov	r0, r4
 975 0022 03B0     		add	sp, sp, #12
 976              	.LCFI20:
 977              		.cfi_def_cfa_offset 12
 978              		@ sp needed
 979 0024 30BD     		pop	{r4, r5, pc}
 980              	.LVL88:
 981              	.L77:
 982              		.loc 1 749 1 view .LVU301
 983 0026 00BF     		.align	2
 984              	.L76:
 985 0028 00000000 		.word	_lv_txt_encoded_next
 986              		.cfi_endproc
 987              	.LFE71:
 989              		.section	.text._lv_txt_is_cmd,"ax",%progbits
 990              		.align	1
 991              		.global	_lv_txt_is_cmd
 992              		.syntax unified
 993              		.thumb
 994              		.thumb_func
 996              	_lv_txt_is_cmd:
 997              	.LVL89:
 998              	.LFB59:
ARM GAS  /var/folders/21/t9g5rlb91ys800n5npymflf80000gn/T//ccvPn2HT.s 			page 38


 383:lvgl/src/misc/lv_txt.c ****     bool ret = false;
 999              		.loc 1 383 1 is_stmt 1 view -0
 1000              		.cfi_startproc
 1001              		@ args = 0, pretend = 0, frame = 0
 1002              		@ frame_needed = 0, uses_anonymous_args = 0
 1003              		@ link register save eliminated.
 383:lvgl/src/misc/lv_txt.c ****     bool ret = false;
 1004              		.loc 1 383 1 is_stmt 0 view .LVU303
 1005 0000 0346     		mov	r3, r0
 384:lvgl/src/misc/lv_txt.c **** 
 1006              		.loc 1 384 5 is_stmt 1 view .LVU304
 1007              	.LVL90:
 386:lvgl/src/misc/lv_txt.c ****         if(*state == LV_TEXT_CMD_STATE_WAIT) { /*Start char*/
 1008              		.loc 1 386 5 view .LVU305
 386:lvgl/src/misc/lv_txt.c ****         if(*state == LV_TEXT_CMD_STATE_WAIT) { /*Start char*/
 1009              		.loc 1 386 7 is_stmt 0 view .LVU306
 1010 0002 2329     		cmp	r1, #35
 1011 0004 04D0     		beq	.L86
 384:lvgl/src/misc/lv_txt.c **** 
 1012              		.loc 1 384 10 view .LVU307
 1013 0006 0020     		movs	r0, #0
 1014              	.LVL91:
 1015              	.L79:
 403:lvgl/src/misc/lv_txt.c ****         if(c == ' ') {
 1016              		.loc 1 403 5 is_stmt 1 view .LVU308
 403:lvgl/src/misc/lv_txt.c ****         if(c == ' ') {
 1017              		.loc 1 403 8 is_stmt 0 view .LVU309
 1018 0008 1A78     		ldrb	r2, [r3]	@ zero_extendqisi2
 403:lvgl/src/misc/lv_txt.c ****         if(c == ' ') {
 1019              		.loc 1 403 7 view .LVU310
 1020 000a 012A     		cmp	r2, #1
 1021 000c 12D0     		beq	.L87
 1022              	.LVL92:
 1023              	.L82:
 410:lvgl/src/misc/lv_txt.c **** }
 1024              		.loc 1 410 5 is_stmt 1 view .LVU311
 411:lvgl/src/misc/lv_txt.c **** 
 1025              		.loc 1 411 1 is_stmt 0 view .LVU312
 1026 000e 7047     		bx	lr
 1027              	.LVL93:
 1028              	.L86:
 387:lvgl/src/misc/lv_txt.c ****             *state = LV_TEXT_CMD_STATE_PAR;
 1029              		.loc 1 387 9 is_stmt 1 view .LVU313
 387:lvgl/src/misc/lv_txt.c ****             *state = LV_TEXT_CMD_STATE_PAR;
 1030              		.loc 1 387 12 is_stmt 0 view .LVU314
 1031 0010 0278     		ldrb	r2, [r0]	@ zero_extendqisi2
 387:lvgl/src/misc/lv_txt.c ****             *state = LV_TEXT_CMD_STATE_PAR;
 1032              		.loc 1 387 11 view .LVU315
 1033 0012 12B9     		cbnz	r2, .L80
 388:lvgl/src/misc/lv_txt.c ****             ret    = true;
 1034              		.loc 1 388 13 is_stmt 1 view .LVU316
 388:lvgl/src/misc/lv_txt.c ****             ret    = true;
 1035              		.loc 1 388 20 is_stmt 0 view .LVU317
 1036 0014 0120     		movs	r0, #1
 1037              	.LVL94:
 388:lvgl/src/misc/lv_txt.c ****             ret    = true;
 1038              		.loc 1 388 20 view .LVU318
ARM GAS  /var/folders/21/t9g5rlb91ys800n5npymflf80000gn/T//ccvPn2HT.s 			page 39


 1039 0016 1870     		strb	r0, [r3]
 389:lvgl/src/misc/lv_txt.c ****         }
 1040              		.loc 1 389 13 is_stmt 1 view .LVU319
 1041              	.LVL95:
 389:lvgl/src/misc/lv_txt.c ****         }
 1042              		.loc 1 389 13 is_stmt 0 view .LVU320
 1043 0018 F6E7     		b	.L79
 1044              	.LVL96:
 1045              	.L80:
 392:lvgl/src/misc/lv_txt.c ****             *state = LV_TEXT_CMD_STATE_WAIT;
 1046              		.loc 1 392 14 is_stmt 1 view .LVU321
 392:lvgl/src/misc/lv_txt.c ****             *state = LV_TEXT_CMD_STATE_WAIT;
 1047              		.loc 1 392 16 is_stmt 0 view .LVU322
 1048 001a 012A     		cmp	r2, #1
 1049 001c 03D0     		beq	.L88
 396:lvgl/src/misc/lv_txt.c ****             *state = LV_TEXT_CMD_STATE_WAIT;
 1050              		.loc 1 396 14 is_stmt 1 view .LVU323
 396:lvgl/src/misc/lv_txt.c ****             *state = LV_TEXT_CMD_STATE_WAIT;
 1051              		.loc 1 396 16 is_stmt 0 view .LVU324
 1052 001e 022A     		cmp	r2, #2
 1053 0020 04D0     		beq	.L89
 384:lvgl/src/misc/lv_txt.c **** 
 1054              		.loc 1 384 10 view .LVU325
 1055 0022 0020     		movs	r0, #0
 1056              	.LVL97:
 384:lvgl/src/misc/lv_txt.c **** 
 1057              		.loc 1 384 10 view .LVU326
 1058 0024 F0E7     		b	.L79
 1059              	.LVL98:
 1060              	.L88:
 393:lvgl/src/misc/lv_txt.c ****         }
 1061              		.loc 1 393 13 is_stmt 1 view .LVU327
 393:lvgl/src/misc/lv_txt.c ****         }
 1062              		.loc 1 393 20 is_stmt 0 view .LVU328
 1063 0026 0020     		movs	r0, #0
 1064              	.LVL99:
 393:lvgl/src/misc/lv_txt.c ****         }
 1065              		.loc 1 393 20 view .LVU329
 1066 0028 1870     		strb	r0, [r3]
 1067 002a EDE7     		b	.L79
 1068              	.LVL100:
 1069              	.L89:
 397:lvgl/src/misc/lv_txt.c ****             ret    = true;
 1070              		.loc 1 397 13 is_stmt 1 view .LVU330
 397:lvgl/src/misc/lv_txt.c ****             ret    = true;
 1071              		.loc 1 397 20 is_stmt 0 view .LVU331
 1072 002c 0022     		movs	r2, #0
 1073 002e 0270     		strb	r2, [r0]
 398:lvgl/src/misc/lv_txt.c ****         }
 1074              		.loc 1 398 13 is_stmt 1 view .LVU332
 1075              	.LVL101:
 398:lvgl/src/misc/lv_txt.c ****         }
 1076              		.loc 1 398 20 is_stmt 0 view .LVU333
 1077 0030 0120     		movs	r0, #1
 1078              	.LVL102:
 398:lvgl/src/misc/lv_txt.c ****         }
 1079              		.loc 1 398 20 view .LVU334
ARM GAS  /var/folders/21/t9g5rlb91ys800n5npymflf80000gn/T//ccvPn2HT.s 			page 40


 1080 0032 E9E7     		b	.L79
 1081              	.LVL103:
 1082              	.L87:
 404:lvgl/src/misc/lv_txt.c ****             *state = LV_TEXT_CMD_STATE_IN; /*After the parameter the text is in the command*/
 1083              		.loc 1 404 9 is_stmt 1 view .LVU335
 404:lvgl/src/misc/lv_txt.c ****             *state = LV_TEXT_CMD_STATE_IN; /*After the parameter the text is in the command*/
 1084              		.loc 1 404 11 is_stmt 0 view .LVU336
 1085 0034 2029     		cmp	r1, #32
 1086 0036 01D0     		beq	.L90
 407:lvgl/src/misc/lv_txt.c ****     }
 1087              		.loc 1 407 13 view .LVU337
 1088 0038 0120     		movs	r0, #1
 1089              	.LVL104:
 407:lvgl/src/misc/lv_txt.c ****     }
 1090              		.loc 1 407 13 view .LVU338
 1091 003a E8E7     		b	.L82
 1092              	.LVL105:
 1093              	.L90:
 405:lvgl/src/misc/lv_txt.c ****         }
 1094              		.loc 1 405 13 is_stmt 1 view .LVU339
 405:lvgl/src/misc/lv_txt.c ****         }
 1095              		.loc 1 405 20 is_stmt 0 view .LVU340
 1096 003c 0222     		movs	r2, #2
 1097 003e 1A70     		strb	r2, [r3]
 407:lvgl/src/misc/lv_txt.c ****     }
 1098              		.loc 1 407 13 view .LVU341
 1099 0040 0120     		movs	r0, #1
 1100              	.LVL106:
 407:lvgl/src/misc/lv_txt.c ****     }
 1101              		.loc 1 407 13 view .LVU342
 1102 0042 7047     		bx	lr
 1103              		.cfi_endproc
 1104              	.LFE59:
 1106              		.section	.rodata.lv_txt_get_next_word.str1.4,"aMS",%progbits,1
 1107              		.align	2
 1108              	.LC0:
 1109 0000 202C2E3B 		.ascii	" ,.;:-_\000"
 1109      3A2D5F00 
 1110              		.section	.text.lv_txt_get_next_word,"ax",%progbits
 1111              		.align	1
 1112              		.syntax unified
 1113              		.thumb
 1114              		.thumb_func
 1116              	lv_txt_get_next_word:
 1117              	.LVL107:
 1118              	.LFB56:
 174:lvgl/src/misc/lv_txt.c ****     if(txt == NULL || txt[0] == '\0') return 0;
 1119              		.loc 1 174 1 is_stmt 1 view -0
 1120              		.cfi_startproc
 1121              		@ args = 16, pretend = 0, frame = 32
 1122              		@ frame_needed = 0, uses_anonymous_args = 0
 174:lvgl/src/misc/lv_txt.c ****     if(txt == NULL || txt[0] == '\0') return 0;
 1123              		.loc 1 174 1 is_stmt 0 view .LVU344
 1124 0000 2DE9F04F 		push	{r4, r5, r6, r7, r8, r9, r10, fp, lr}
 1125              	.LCFI21:
 1126              		.cfi_def_cfa_offset 36
 1127              		.cfi_offset 4, -36
ARM GAS  /var/folders/21/t9g5rlb91ys800n5npymflf80000gn/T//ccvPn2HT.s 			page 41


 1128              		.cfi_offset 5, -32
 1129              		.cfi_offset 6, -28
 1130              		.cfi_offset 7, -24
 1131              		.cfi_offset 8, -20
 1132              		.cfi_offset 9, -16
 1133              		.cfi_offset 10, -12
 1134              		.cfi_offset 11, -8
 1135              		.cfi_offset 14, -4
 1136 0004 89B0     		sub	sp, sp, #36
 1137              	.LCFI22:
 1138              		.cfi_def_cfa_offset 72
 1139 0006 0291     		str	r1, [sp, #8]
 1140 0008 0392     		str	r2, [sp, #12]
 1141 000a 0493     		str	r3, [sp, #16]
 1142 000c 9DF848A0 		ldrb	r10, [sp, #72]	@ zero_extendqisi2
 1143 0010 9DF854B0 		ldrb	fp, [sp, #84]	@ zero_extendqisi2
 175:lvgl/src/misc/lv_txt.c ****     if(font == NULL) return 0;
 1144              		.loc 1 175 5 is_stmt 1 view .LVU345
 175:lvgl/src/misc/lv_txt.c ****     if(font == NULL) return 0;
 1145              		.loc 1 175 7 is_stmt 0 view .LVU346
 1146 0014 0028     		cmp	r0, #0
 1147 0016 00F09A80 		beq	.L110
 1148 001a 0746     		mov	r7, r0
 175:lvgl/src/misc/lv_txt.c ****     if(font == NULL) return 0;
 1149              		.loc 1 175 26 discriminator 2 view .LVU347
 1150 001c 0378     		ldrb	r3, [r0]	@ zero_extendqisi2
 1151              	.LVL108:
 175:lvgl/src/misc/lv_txt.c ****     if(font == NULL) return 0;
 1152              		.loc 1 175 20 discriminator 2 view .LVU348
 1153 001e 002B     		cmp	r3, #0
 1154 0020 00F09880 		beq	.L111
 176:lvgl/src/misc/lv_txt.c **** 
 1155              		.loc 1 176 5 is_stmt 1 view .LVU349
 176:lvgl/src/misc/lv_txt.c **** 
 1156              		.loc 1 176 7 is_stmt 0 view .LVU350
 1157 0024 0029     		cmp	r1, #0
 1158 0026 00F09B80 		beq	.L112
 178:lvgl/src/misc/lv_txt.c **** 
 1159              		.loc 1 178 5 is_stmt 1 view .LVU351
 178:lvgl/src/misc/lv_txt.c **** 
 1160              		.loc 1 178 7 is_stmt 0 view .LVU352
 1161 002a 1AF0020F 		tst	r10, #2
 1162 002e 02D0     		beq	.L93
 178:lvgl/src/misc/lv_txt.c **** 
 1163              		.loc 1 178 46 view .LVU353
 1164 0030 41F6FF73 		movw	r3, #8191
 1165 0034 0493     		str	r3, [sp, #16]
 1166              	.L93:
 1167              	.LVL109:
 180:lvgl/src/misc/lv_txt.c ****     uint32_t letter = 0;      /*Letter at i*/
 1168              		.loc 1 180 5 is_stmt 1 view .LVU354
 180:lvgl/src/misc/lv_txt.c ****     uint32_t letter = 0;      /*Letter at i*/
 1169              		.loc 1 180 21 is_stmt 0 view .LVU355
 1170 0036 0026     		movs	r6, #0
 1171 0038 0796     		str	r6, [sp, #28]
 180:lvgl/src/misc/lv_txt.c ****     uint32_t letter = 0;      /*Letter at i*/
 1172              		.loc 1 180 33 view .LVU356
ARM GAS  /var/folders/21/t9g5rlb91ys800n5npymflf80000gn/T//ccvPn2HT.s 			page 42


 1173 003a 0696     		str	r6, [sp, #24]
 181:lvgl/src/misc/lv_txt.c ****     uint32_t letter_next = 0; /*Letter at i_next*/
 1174              		.loc 1 181 5 is_stmt 1 view .LVU357
 1175              	.LVL110:
 182:lvgl/src/misc/lv_txt.c ****     lv_coord_t letter_w;
 1176              		.loc 1 182 5 view .LVU358
 183:lvgl/src/misc/lv_txt.c ****     lv_coord_t cur_w = 0;  /*Pixel Width of transversed string*/
 1177              		.loc 1 183 5 view .LVU359
 184:lvgl/src/misc/lv_txt.c ****     uint32_t word_len = 0;   /*Number of characters in the transversed word*/
 1178              		.loc 1 184 5 view .LVU360
 185:lvgl/src/misc/lv_txt.c ****     uint32_t break_index = NO_BREAK_FOUND; /*only used for "long" words*/
 1179              		.loc 1 185 5 view .LVU361
 186:lvgl/src/misc/lv_txt.c ****     uint32_t break_letter_count = 0; /*Number of characters up to the long word break point*/
 1180              		.loc 1 186 5 view .LVU362
 187:lvgl/src/misc/lv_txt.c **** 
 1181              		.loc 1 187 5 view .LVU363
 189:lvgl/src/misc/lv_txt.c ****     i_next_next = i_next;
 1182              		.loc 1 189 5 view .LVU364
 189:lvgl/src/misc/lv_txt.c ****     i_next_next = i_next;
 1183              		.loc 1 189 14 is_stmt 0 view .LVU365
 1184 003c 4B4B     		ldr	r3, .L126
 1185 003e 1B68     		ldr	r3, [r3]
 1186 0040 07A9     		add	r1, sp, #28
 1187              	.LVL111:
 189:lvgl/src/misc/lv_txt.c ****     i_next_next = i_next;
 1188              		.loc 1 189 14 view .LVU366
 1189 0042 3846     		mov	r0, r7
 1190              	.LVL112:
 189:lvgl/src/misc/lv_txt.c ****     i_next_next = i_next;
 1191              		.loc 1 189 14 view .LVU367
 1192 0044 9847     		blx	r3
 1193              	.LVL113:
 189:lvgl/src/misc/lv_txt.c ****     i_next_next = i_next;
 1194              		.loc 1 189 14 view .LVU368
 1195 0046 0446     		mov	r4, r0
 1196              	.LVL114:
 190:lvgl/src/misc/lv_txt.c **** 
 1197              		.loc 1 190 5 is_stmt 1 view .LVU369
 190:lvgl/src/misc/lv_txt.c **** 
 1198              		.loc 1 190 17 is_stmt 0 view .LVU370
 1199 0048 079B     		ldr	r3, [sp, #28]
 1200 004a 0693     		str	r3, [sp, #24]
 193:lvgl/src/misc/lv_txt.c ****         letter_next = _lv_txt_encoded_next(txt, &i_next_next);
 1201              		.loc 1 193 5 is_stmt 1 view .LVU371
 186:lvgl/src/misc/lv_txt.c ****     uint32_t break_letter_count = 0; /*Number of characters up to the long word break point*/
 1202              		.loc 1 186 14 is_stmt 0 view .LVU372
 1203 004c 4FF0FF38 		mov	r8, #-1
 185:lvgl/src/misc/lv_txt.c ****     uint32_t break_index = NO_BREAK_FOUND; /*only used for "long" words*/
 1204              		.loc 1 185 14 view .LVU373
 1205 0050 B146     		mov	r9, r6
 184:lvgl/src/misc/lv_txt.c ****     uint32_t word_len = 0;   /*Number of characters in the transversed word*/
 1206              		.loc 1 184 16 view .LVU374
 1207 0052 3546     		mov	r5, r6
 182:lvgl/src/misc/lv_txt.c ****     lv_coord_t letter_w;
 1208              		.loc 1 182 14 view .LVU375
 1209 0054 0196     		str	r6, [sp, #4]
 1210 0056 CDF814B0 		str	fp, [sp, #20]
ARM GAS  /var/folders/21/t9g5rlb91ys800n5npymflf80000gn/T//ccvPn2HT.s 			page 43


 193:lvgl/src/misc/lv_txt.c ****         letter_next = _lv_txt_encoded_next(txt, &i_next_next);
 1211              		.loc 1 193 10 view .LVU376
 1212 005a 36E0     		b	.L94
 1213              	.LVL115:
 1214              	.L95:
 207:lvgl/src/misc/lv_txt.c ****         cur_w += letter_w;
 1215              		.loc 1 207 9 is_stmt 1 view .LVU377
 207:lvgl/src/misc/lv_txt.c ****         cur_w += letter_w;
 1216              		.loc 1 207 20 is_stmt 0 view .LVU378
 1217 005c 019A     		ldr	r2, [sp, #4]
 1218 005e 2146     		mov	r1, r4
 1219 0060 0298     		ldr	r0, [sp, #8]
 1220 0062 FFF7FEFF 		bl	lv_font_get_glyph_width
 1221              	.LVL116:
 207:lvgl/src/misc/lv_txt.c ****         cur_w += letter_w;
 1222              		.loc 1 207 18 view .LVU379
 1223 0066 02B2     		sxth	r2, r0
 1224              	.LVL117:
 208:lvgl/src/misc/lv_txt.c **** 
 1225              		.loc 1 208 9 is_stmt 1 view .LVU380
 208:lvgl/src/misc/lv_txt.c **** 
 1226              		.loc 1 208 15 is_stmt 0 view .LVU381
 1227 0068 2844     		add	r0, r0, r5
 1228 006a 83B2     		uxth	r3, r0
 1229 006c 05B2     		sxth	r5, r0
 1230              	.LVL118:
 210:lvgl/src/misc/lv_txt.c ****             cur_w += letter_space;
 1231              		.loc 1 210 9 is_stmt 1 view .LVU382
 210:lvgl/src/misc/lv_txt.c ****             cur_w += letter_space;
 1232              		.loc 1 210 11 is_stmt 0 view .LVU383
 1233 006e 002A     		cmp	r2, #0
 1234 0070 02DD     		ble	.L97
 211:lvgl/src/misc/lv_txt.c ****         }
 1235              		.loc 1 211 13 is_stmt 1 view .LVU384
 211:lvgl/src/misc/lv_txt.c ****         }
 1236              		.loc 1 211 19 is_stmt 0 view .LVU385
 1237 0072 039A     		ldr	r2, [sp, #12]
 1238              	.LVL119:
 211:lvgl/src/misc/lv_txt.c ****         }
 1239              		.loc 1 211 19 view .LVU386
 1240 0074 1344     		add	r3, r3, r2
 1241 0076 1DB2     		sxth	r5, r3
 1242              	.LVL120:
 1243              	.L97:
 215:lvgl/src/misc/lv_txt.c ****             break_index = i;
 1244              		.loc 1 215 9 is_stmt 1 view .LVU387
 215:lvgl/src/misc/lv_txt.c ****             break_index = i;
 1245              		.loc 1 215 11 is_stmt 0 view .LVU388
 1246 0078 B8F1FF3F 		cmp	r8, #-1
 1247 007c 12D0     		beq	.L120
 1248              	.LVL121:
 1249              	.L98:
 222:lvgl/src/misc/lv_txt.c ****             /*Update the output width on the first character if it fits.
 1250              		.loc 1 222 9 is_stmt 1 view .LVU389
 222:lvgl/src/misc/lv_txt.c ****             /*Update the output width on the first character if it fits.
 1251              		.loc 1 222 11 is_stmt 0 view .LVU390
 1252 007e 0A2C     		cmp	r4, #10
ARM GAS  /var/folders/21/t9g5rlb91ys800n5npymflf80000gn/T//ccvPn2HT.s 			page 44


 1253 0080 3CD0     		beq	.L99
 222:lvgl/src/misc/lv_txt.c ****             /*Update the output width on the first character if it fits.
 1254              		.loc 1 222 27 discriminator 1 view .LVU391
 1255 0082 0D2C     		cmp	r4, #13
 1256 0084 3AD0     		beq	.L99
 1257              	.LVL122:
 1258              	.LBB20:
 1259              	.LBI20:
 1260              		.file 3 "lvgl/src/misc/lv_txt.h"
   1:lvgl/src/misc/lv_txt.h **** /**
   2:lvgl/src/misc/lv_txt.h ****  * @file lv_txt.h
   3:lvgl/src/misc/lv_txt.h ****  *
   4:lvgl/src/misc/lv_txt.h ****  */
   5:lvgl/src/misc/lv_txt.h **** 
   6:lvgl/src/misc/lv_txt.h **** #ifndef LV_TXT_H
   7:lvgl/src/misc/lv_txt.h **** #define LV_TXT_H
   8:lvgl/src/misc/lv_txt.h **** 
   9:lvgl/src/misc/lv_txt.h **** #ifdef __cplusplus
  10:lvgl/src/misc/lv_txt.h **** extern "C" {
  11:lvgl/src/misc/lv_txt.h **** #endif
  12:lvgl/src/misc/lv_txt.h **** 
  13:lvgl/src/misc/lv_txt.h **** /*********************
  14:lvgl/src/misc/lv_txt.h ****  *      INCLUDES
  15:lvgl/src/misc/lv_txt.h ****  *********************/
  16:lvgl/src/misc/lv_txt.h **** #include "../lv_conf_internal.h"
  17:lvgl/src/misc/lv_txt.h **** 
  18:lvgl/src/misc/lv_txt.h **** #include <stdbool.h>
  19:lvgl/src/misc/lv_txt.h **** #include <stdarg.h>
  20:lvgl/src/misc/lv_txt.h **** #include "lv_area.h"
  21:lvgl/src/misc/lv_txt.h **** #include "../font/lv_font.h"
  22:lvgl/src/misc/lv_txt.h **** #include "lv_printf.h"
  23:lvgl/src/misc/lv_txt.h **** #include "lv_types.h"
  24:lvgl/src/misc/lv_txt.h **** 
  25:lvgl/src/misc/lv_txt.h **** /*********************
  26:lvgl/src/misc/lv_txt.h ****  *      DEFINES
  27:lvgl/src/misc/lv_txt.h ****  *********************/
  28:lvgl/src/misc/lv_txt.h **** #ifndef LV_TXT_COLOR_CMD
  29:lvgl/src/misc/lv_txt.h **** #define LV_TXT_COLOR_CMD "#"
  30:lvgl/src/misc/lv_txt.h **** #endif
  31:lvgl/src/misc/lv_txt.h **** 
  32:lvgl/src/misc/lv_txt.h **** #define LV_TXT_ENC_UTF8 1
  33:lvgl/src/misc/lv_txt.h **** #define LV_TXT_ENC_ASCII 2
  34:lvgl/src/misc/lv_txt.h **** 
  35:lvgl/src/misc/lv_txt.h **** /**********************
  36:lvgl/src/misc/lv_txt.h ****  *      TYPEDEFS
  37:lvgl/src/misc/lv_txt.h ****  **********************/
  38:lvgl/src/misc/lv_txt.h **** 
  39:lvgl/src/misc/lv_txt.h **** /**
  40:lvgl/src/misc/lv_txt.h ****  * Options for text rendering.
  41:lvgl/src/misc/lv_txt.h ****  */
  42:lvgl/src/misc/lv_txt.h **** enum {
  43:lvgl/src/misc/lv_txt.h ****     LV_TEXT_FLAG_NONE    = 0x00,
  44:lvgl/src/misc/lv_txt.h ****     LV_TEXT_FLAG_RECOLOR = 0x01, /**< Enable parsing of recolor command*/
  45:lvgl/src/misc/lv_txt.h ****     LV_TEXT_FLAG_EXPAND  = 0x02, /**< Ignore max-width to avoid automatic word wrapping*/
  46:lvgl/src/misc/lv_txt.h ****     LV_TEXT_FLAG_FIT     = 0x04, /**< Max-width is already equal to the longest line. (Used to skip
  47:lvgl/src/misc/lv_txt.h **** };
  48:lvgl/src/misc/lv_txt.h **** typedef uint8_t lv_text_flag_t;
ARM GAS  /var/folders/21/t9g5rlb91ys800n5npymflf80000gn/T//ccvPn2HT.s 			page 45


  49:lvgl/src/misc/lv_txt.h **** 
  50:lvgl/src/misc/lv_txt.h **** /**
  51:lvgl/src/misc/lv_txt.h ****  * State machine for text renderer.*/
  52:lvgl/src/misc/lv_txt.h **** enum {
  53:lvgl/src/misc/lv_txt.h ****     LV_TEXT_CMD_STATE_WAIT, /**< Waiting for command*/
  54:lvgl/src/misc/lv_txt.h ****     LV_TEXT_CMD_STATE_PAR,  /**< Processing the parameter*/
  55:lvgl/src/misc/lv_txt.h ****     LV_TEXT_CMD_STATE_IN,   /**< Processing the command*/
  56:lvgl/src/misc/lv_txt.h **** };
  57:lvgl/src/misc/lv_txt.h **** typedef uint8_t lv_text_cmd_state_t;
  58:lvgl/src/misc/lv_txt.h **** 
  59:lvgl/src/misc/lv_txt.h **** /** Label align policy*/
  60:lvgl/src/misc/lv_txt.h **** enum {
  61:lvgl/src/misc/lv_txt.h ****     LV_TEXT_ALIGN_AUTO, /**< Align text auto*/
  62:lvgl/src/misc/lv_txt.h ****     LV_TEXT_ALIGN_LEFT, /**< Align text to left*/
  63:lvgl/src/misc/lv_txt.h ****     LV_TEXT_ALIGN_CENTER, /**< Align text to center*/
  64:lvgl/src/misc/lv_txt.h ****     LV_TEXT_ALIGN_RIGHT, /**< Align text to right*/
  65:lvgl/src/misc/lv_txt.h **** };
  66:lvgl/src/misc/lv_txt.h **** typedef uint8_t lv_text_align_t;
  67:lvgl/src/misc/lv_txt.h **** 
  68:lvgl/src/misc/lv_txt.h **** /**********************
  69:lvgl/src/misc/lv_txt.h ****  * GLOBAL PROTOTYPES
  70:lvgl/src/misc/lv_txt.h ****  **********************/
  71:lvgl/src/misc/lv_txt.h **** 
  72:lvgl/src/misc/lv_txt.h **** /**
  73:lvgl/src/misc/lv_txt.h ****  * Get size of a text
  74:lvgl/src/misc/lv_txt.h ****  * @param size_res pointer to a 'point_t' variable to store the result
  75:lvgl/src/misc/lv_txt.h ****  * @param text pointer to a text
  76:lvgl/src/misc/lv_txt.h ****  * @param font pointer to font of the text
  77:lvgl/src/misc/lv_txt.h ****  * @param letter_space letter space of the text
  78:lvgl/src/misc/lv_txt.h ****  * @param line_space line space of the text
  79:lvgl/src/misc/lv_txt.h ****  * @param flags settings for the text from ::lv_text_flag_t
  80:lvgl/src/misc/lv_txt.h ****  * @param max_width max width of the text (break the lines to fit this size). Set COORD_MAX to avoi
  81:lvgl/src/misc/lv_txt.h ****  * line breaks
  82:lvgl/src/misc/lv_txt.h ****  */
  83:lvgl/src/misc/lv_txt.h **** void lv_txt_get_size(lv_point_t * size_res, const char * text, const lv_font_t * font, lv_coord_t l
  84:lvgl/src/misc/lv_txt.h ****                      lv_coord_t line_space, lv_coord_t max_width, lv_text_flag_t flag);
  85:lvgl/src/misc/lv_txt.h **** 
  86:lvgl/src/misc/lv_txt.h **** /**
  87:lvgl/src/misc/lv_txt.h ****  * Get the next line of text. Check line length and break chars too.
  88:lvgl/src/misc/lv_txt.h ****  * @param txt a '\0' terminated string
  89:lvgl/src/misc/lv_txt.h ****  * @param font pointer to a font
  90:lvgl/src/misc/lv_txt.h ****  * @param letter_space letter space
  91:lvgl/src/misc/lv_txt.h ****  * @param max_width max width of the text (break the lines to fit this size). Set COORD_MAX to avoi
  92:lvgl/src/misc/lv_txt.h ****  * line breaks
  93:lvgl/src/misc/lv_txt.h ****  * @param used_width When used_width != NULL, save the width of this line if
  94:lvgl/src/misc/lv_txt.h ****  * flag == LV_TEXT_FLAG_NONE, otherwise save -1.
  95:lvgl/src/misc/lv_txt.h ****  * @param flags settings for the text from 'txt_flag_type' enum
  96:lvgl/src/misc/lv_txt.h ****  * @return the index of the first char of the new line (in byte index not letter index. With UTF-8
  97:lvgl/src/misc/lv_txt.h ****  * they are different)
  98:lvgl/src/misc/lv_txt.h ****  */
  99:lvgl/src/misc/lv_txt.h **** uint32_t _lv_txt_get_next_line(const char * txt, const lv_font_t * font, lv_coord_t letter_space,
 100:lvgl/src/misc/lv_txt.h ****                                lv_coord_t max_width, lv_coord_t * used_width, lv_text_flag_t flag);
 101:lvgl/src/misc/lv_txt.h **** 
 102:lvgl/src/misc/lv_txt.h **** /**
 103:lvgl/src/misc/lv_txt.h ****  * Give the length of a text with a given font
 104:lvgl/src/misc/lv_txt.h ****  * @param txt a '\0' terminate string
 105:lvgl/src/misc/lv_txt.h ****  * @param length length of 'txt' in byte count and not characters (Á is 1 character but 2 bytes in
ARM GAS  /var/folders/21/t9g5rlb91ys800n5npymflf80000gn/T//ccvPn2HT.s 			page 46


 106:lvgl/src/misc/lv_txt.h ****  * UTF-8)
 107:lvgl/src/misc/lv_txt.h ****  * @param font pointer to a font
 108:lvgl/src/misc/lv_txt.h ****  * @param letter_space letter space
 109:lvgl/src/misc/lv_txt.h ****  * @param flags settings for the text from 'txt_flag_t' enum
 110:lvgl/src/misc/lv_txt.h ****  * @return length of a char_num long text
 111:lvgl/src/misc/lv_txt.h ****  */
 112:lvgl/src/misc/lv_txt.h **** lv_coord_t lv_txt_get_width(const char * txt, uint32_t length, const lv_font_t * font, lv_coord_t l
 113:lvgl/src/misc/lv_txt.h ****                             lv_text_flag_t flag);
 114:lvgl/src/misc/lv_txt.h **** 
 115:lvgl/src/misc/lv_txt.h **** /**
 116:lvgl/src/misc/lv_txt.h ****  * Check next character in a string and decide if the character is part of the command or not
 117:lvgl/src/misc/lv_txt.h ****  * @param state pointer to a txt_cmd_state_t variable which stores the current state of command
 118:lvgl/src/misc/lv_txt.h ****  * processing
 119:lvgl/src/misc/lv_txt.h ****  * @param c the current character
 120:lvgl/src/misc/lv_txt.h ****  * @return true: the character is part of a command and should not be written,
 121:lvgl/src/misc/lv_txt.h ****  *         false: the character should be written
 122:lvgl/src/misc/lv_txt.h ****  */
 123:lvgl/src/misc/lv_txt.h **** bool _lv_txt_is_cmd(lv_text_cmd_state_t * state, uint32_t c);
 124:lvgl/src/misc/lv_txt.h **** 
 125:lvgl/src/misc/lv_txt.h **** /**
 126:lvgl/src/misc/lv_txt.h ****  * Insert a string into an other
 127:lvgl/src/misc/lv_txt.h ****  * @param txt_buf the original text (must be big enough for the result text and NULL terminated)
 128:lvgl/src/misc/lv_txt.h ****  * @param pos position to insert (0: before the original text, 1: after the first char etc.)
 129:lvgl/src/misc/lv_txt.h ****  * @param ins_txt text to insert, must be '\0' terminated
 130:lvgl/src/misc/lv_txt.h ****  */
 131:lvgl/src/misc/lv_txt.h **** void _lv_txt_ins(char * txt_buf, uint32_t pos, const char * ins_txt);
 132:lvgl/src/misc/lv_txt.h **** 
 133:lvgl/src/misc/lv_txt.h **** /**
 134:lvgl/src/misc/lv_txt.h ****  * Delete a part of a string
 135:lvgl/src/misc/lv_txt.h ****  * @param txt string to modify, must be '\0' terminated and should point to a heap or stack frame, 
 136:lvgl/src/misc/lv_txt.h ****  * @param pos position where to start the deleting (0: before the first char, 1: after the first
 137:lvgl/src/misc/lv_txt.h ****  * char etc.)
 138:lvgl/src/misc/lv_txt.h ****  * @param len number of characters to delete
 139:lvgl/src/misc/lv_txt.h ****  */
 140:lvgl/src/misc/lv_txt.h **** void _lv_txt_cut(char * txt, uint32_t pos, uint32_t len);
 141:lvgl/src/misc/lv_txt.h **** 
 142:lvgl/src/misc/lv_txt.h **** /**
 143:lvgl/src/misc/lv_txt.h ****  * return a new formatted text. Memory will be allocated to store the text.
 144:lvgl/src/misc/lv_txt.h ****  * @param fmt `printf`-like format
 145:lvgl/src/misc/lv_txt.h ****  * @return pointer to the allocated text string.
 146:lvgl/src/misc/lv_txt.h ****  */
 147:lvgl/src/misc/lv_txt.h **** char * _lv_txt_set_text_vfmt(const char * fmt, va_list ap) LV_FORMAT_ATTRIBUTE(1, 0);
 148:lvgl/src/misc/lv_txt.h **** 
 149:lvgl/src/misc/lv_txt.h **** /**
 150:lvgl/src/misc/lv_txt.h ****  * Decode two encoded character from a string.
 151:lvgl/src/misc/lv_txt.h ****  * @param txt pointer to '\0' terminated string
 152:lvgl/src/misc/lv_txt.h ****  * @param letter the first decoded Unicode character or 0 on invalid data code
 153:lvgl/src/misc/lv_txt.h ****  * @param letter_next the second decoded Unicode character or 0 on invalid data code
 154:lvgl/src/misc/lv_txt.h ****  * @param ofs start index in 'txt' where to start.
 155:lvgl/src/misc/lv_txt.h ****  *                After the call it will point to the next encoded char in 'txt'.
 156:lvgl/src/misc/lv_txt.h ****  *                NULL to use txt[0] as index
 157:lvgl/src/misc/lv_txt.h ****  */
 158:lvgl/src/misc/lv_txt.h **** void _lv_txt_encoded_letter_next_2(const char * txt, uint32_t * letter, uint32_t * letter_next, uin
 159:lvgl/src/misc/lv_txt.h **** 
 160:lvgl/src/misc/lv_txt.h **** /**
 161:lvgl/src/misc/lv_txt.h ****  * Test if char is break char or not (a text can broken here or not)
 162:lvgl/src/misc/lv_txt.h ****  * @param letter a letter
ARM GAS  /var/folders/21/t9g5rlb91ys800n5npymflf80000gn/T//ccvPn2HT.s 			page 47


 163:lvgl/src/misc/lv_txt.h ****  * @return false: 'letter' is not break char
 164:lvgl/src/misc/lv_txt.h ****  */
 165:lvgl/src/misc/lv_txt.h **** static inline bool _lv_txt_is_break_char(uint32_t letter)
 1261              		.loc 3 165 20 is_stmt 1 view .LVU392
 1262              	.LBB21:
 166:lvgl/src/misc/lv_txt.h **** {
 167:lvgl/src/misc/lv_txt.h ****     uint8_t i;
 1263              		.loc 3 167 5 view .LVU393
 168:lvgl/src/misc/lv_txt.h ****     bool ret = false;
 1264              		.loc 3 168 5 view .LVU394
 169:lvgl/src/misc/lv_txt.h **** 
 170:lvgl/src/misc/lv_txt.h ****     /* each chinese character can be break */
 171:lvgl/src/misc/lv_txt.h ****     if(letter >= 0x4E00 && letter <= 0x9FA5) {
 1265              		.loc 3 171 5 view .LVU395
 1266              		.loc 3 171 25 is_stmt 0 view .LVU396
 1267 0086 A4F59C42 		sub	r2, r4, #19968
 1268              		.loc 3 171 7 view .LVU397
 1269 008a 45F2A513 		movw	r3, #20901
 1270 008e 9A42     		cmp	r2, r3
 1271 0090 34D9     		bls	.L99
 172:lvgl/src/misc/lv_txt.h ****         return true;
 173:lvgl/src/misc/lv_txt.h ****     }
 174:lvgl/src/misc/lv_txt.h **** 
 175:lvgl/src/misc/lv_txt.h ****     /*Compare the letter to TXT_BREAK_CHARS*/
 176:lvgl/src/misc/lv_txt.h ****     for(i = 0; LV_TXT_BREAK_CHARS[i] != '\0'; i++) {
 1272              		.loc 3 176 11 view .LVU398
 1273 0092 0023     		movs	r3, #0
 1274              	.L100:
 1275              	.LVL123:
 1276              		.loc 3 176 38 is_stmt 1 view .LVU399
 1277              		.loc 3 176 34 is_stmt 0 view .LVU400
 1278 0094 364A     		ldr	r2, .L126+4
 1279 0096 D25C     		ldrb	r2, [r2, r3]	@ zero_extendqisi2
 1280              		.loc 3 176 38 view .LVU401
 1281 0098 5AB1     		cbz	r2, .L121
 177:lvgl/src/misc/lv_txt.h ****         if(letter == (uint32_t)LV_TXT_BREAK_CHARS[i]) {
 1282              		.loc 3 177 9 is_stmt 1 view .LVU402
 1283              		.loc 3 177 11 is_stmt 0 view .LVU403
 1284 009a 9442     		cmp	r4, r2
 1285 009c 2CD0     		beq	.L115
 176:lvgl/src/misc/lv_txt.h ****         if(letter == (uint32_t)LV_TXT_BREAK_CHARS[i]) {
 1286              		.loc 3 176 48 is_stmt 1 view .LVU404
 1287 009e 0133     		adds	r3, r3, #1
 1288              	.LVL124:
 176:lvgl/src/misc/lv_txt.h ****         if(letter == (uint32_t)LV_TXT_BREAK_CHARS[i]) {
 1289              		.loc 3 176 48 is_stmt 0 view .LVU405
 1290 00a0 DBB2     		uxtb	r3, r3
 1291              	.LVL125:
 176:lvgl/src/misc/lv_txt.h ****         if(letter == (uint32_t)LV_TXT_BREAK_CHARS[i]) {
 1292              		.loc 3 176 48 view .LVU406
 1293 00a2 F7E7     		b	.L100
 1294              	.LVL126:
 1295              	.L120:
 176:lvgl/src/misc/lv_txt.h ****         if(letter == (uint32_t)LV_TXT_BREAK_CHARS[i]) {
 1296              		.loc 3 176 48 view .LVU407
 1297              	.LBE21:
 1298              	.LBE20:
ARM GAS  /var/folders/21/t9g5rlb91ys800n5npymflf80000gn/T//ccvPn2HT.s 			page 48


 215:lvgl/src/misc/lv_txt.c ****             break_index = i;
 1299              		.loc 1 215 52 discriminator 1 view .LVU408
 1300 00a4 039B     		ldr	r3, [sp, #12]
 1301 00a6 EB1A     		subs	r3, r5, r3
 215:lvgl/src/misc/lv_txt.c ****             break_index = i;
 1302              		.loc 1 215 42 discriminator 1 view .LVU409
 1303 00a8 049A     		ldr	r2, [sp, #16]
 1304 00aa 9342     		cmp	r3, r2
 1305 00ac E7DD     		ble	.L98
 216:lvgl/src/misc/lv_txt.c ****             break_letter_count = word_len - 1;
 1306              		.loc 1 216 25 view .LVU410
 1307 00ae B046     		mov	r8, r6
 1308              	.LVL127:
 216:lvgl/src/misc/lv_txt.c ****             break_letter_count = word_len - 1;
 1309              		.loc 1 216 25 view .LVU411
 1310 00b0 E5E7     		b	.L98
 1311              	.LVL128:
 1312              	.L121:
 1313              	.LBB25:
 1314              	.LBB22:
 168:lvgl/src/misc/lv_txt.h **** 
 1315              		.loc 3 168 10 view .LVU412
 1316 00b2 0023     		movs	r3, #0
 1317              	.LVL129:
 1318              	.L101:
 168:lvgl/src/misc/lv_txt.h **** 
 1319              		.loc 3 168 10 view .LVU413
 1320              	.LBE22:
 1321              	.LBE25:
 222:lvgl/src/misc/lv_txt.c ****             /*Update the output width on the first character if it fits.
 1322              		.loc 1 222 45 view .LVU414
 1323 00b4 13BB     		cbnz	r3, .L99
 231:lvgl/src/misc/lv_txt.c **** 
 1324              		.loc 1 231 9 is_stmt 1 view .LVU415
 231:lvgl/src/misc/lv_txt.c **** 
 1325              		.loc 1 231 11 is_stmt 0 view .LVU416
 1326 00b6 139B     		ldr	r3, [sp, #76]
 1327 00b8 13B1     		cbz	r3, .L106
 231:lvgl/src/misc/lv_txt.c **** 
 1328              		.loc 1 231 31 discriminator 1 view .LVU417
 1329 00ba B8F1FF3F 		cmp	r8, #-1
 1330 00be 32D0     		beq	.L122
 1331              	.L106:
 233:lvgl/src/misc/lv_txt.c ****         i_next = i_next_next;
 1332              		.loc 1 233 9 is_stmt 1 view .LVU418
 233:lvgl/src/misc/lv_txt.c ****         i_next = i_next_next;
 1333              		.loc 1 233 11 is_stmt 0 view .LVU419
 1334 00c0 079E     		ldr	r6, [sp, #28]
 1335              	.LVL130:
 234:lvgl/src/misc/lv_txt.c ****         letter = letter_next;
 1336              		.loc 1 234 9 is_stmt 1 view .LVU420
 234:lvgl/src/misc/lv_txt.c ****         letter = letter_next;
 1337              		.loc 1 234 16 is_stmt 0 view .LVU421
 1338 00c2 069B     		ldr	r3, [sp, #24]
 1339 00c4 0793     		str	r3, [sp, #28]
 235:lvgl/src/misc/lv_txt.c ****     }
 1340              		.loc 1 235 9 is_stmt 1 view .LVU422
ARM GAS  /var/folders/21/t9g5rlb91ys800n5npymflf80000gn/T//ccvPn2HT.s 			page 49


 1341              	.LVL131:
 1342              	.L96:
 1343              	.LBB26:
 1344              	.LBB23:
 178:lvgl/src/misc/lv_txt.h ****             ret = true; /*If match then it is break char*/
 1345              		.loc 3 178 17 is_stmt 0 view .LVU423
 1346 00c6 D946     		mov	r9, fp
 1347 00c8 019C     		ldr	r4, [sp, #4]
 1348              	.LVL132:
 1349              	.L94:
 1350              		.loc 3 178 17 view .LVU424
 1351              	.LBE23:
 1352              	.LBE26:
 193:lvgl/src/misc/lv_txt.c ****         letter_next = _lv_txt_encoded_next(txt, &i_next_next);
 1353              		.loc 1 193 18 is_stmt 1 view .LVU425
 193:lvgl/src/misc/lv_txt.c ****         letter_next = _lv_txt_encoded_next(txt, &i_next_next);
 1354              		.loc 1 193 14 is_stmt 0 view .LVU426
 1355 00ca BB5D     		ldrb	r3, [r7, r6]	@ zero_extendqisi2
 193:lvgl/src/misc/lv_txt.c ****         letter_next = _lv_txt_encoded_next(txt, &i_next_next);
 1356              		.loc 1 193 18 view .LVU427
 1357 00cc 6BB3     		cbz	r3, .L123
 194:lvgl/src/misc/lv_txt.c ****         word_len++;
 1358              		.loc 1 194 9 is_stmt 1 view .LVU428
 194:lvgl/src/misc/lv_txt.c ****         word_len++;
 1359              		.loc 1 194 23 is_stmt 0 view .LVU429
 1360 00ce 274B     		ldr	r3, .L126
 1361 00d0 1B68     		ldr	r3, [r3]
 1362 00d2 06A9     		add	r1, sp, #24
 1363 00d4 3846     		mov	r0, r7
 1364 00d6 9847     		blx	r3
 1365              	.LVL133:
 1366 00d8 0190     		str	r0, [sp, #4]
 1367              	.LVL134:
 195:lvgl/src/misc/lv_txt.c **** 
 1368              		.loc 1 195 9 is_stmt 1 view .LVU430
 195:lvgl/src/misc/lv_txt.c **** 
 1369              		.loc 1 195 17 is_stmt 0 view .LVU431
 1370 00da 09F1010B 		add	fp, r9, #1
 1371              	.LVL135:
 198:lvgl/src/misc/lv_txt.c ****             if(_lv_txt_is_cmd(cmd_state, letter) != false) {
 1372              		.loc 1 198 9 is_stmt 1 view .LVU432
 198:lvgl/src/misc/lv_txt.c ****             if(_lv_txt_is_cmd(cmd_state, letter) != false) {
 1373              		.loc 1 198 11 is_stmt 0 view .LVU433
 1374 00de 1AF0010F 		tst	r10, #1
 1375 00e2 BBD0     		beq	.L95
 199:lvgl/src/misc/lv_txt.c ****                 i = i_next;
 1376              		.loc 1 199 13 is_stmt 1 view .LVU434
 199:lvgl/src/misc/lv_txt.c ****                 i = i_next;
 1377              		.loc 1 199 16 is_stmt 0 view .LVU435
 1378 00e4 2146     		mov	r1, r4
 1379 00e6 1498     		ldr	r0, [sp, #80]
 1380              	.LVL136:
 199:lvgl/src/misc/lv_txt.c ****                 i = i_next;
 1381              		.loc 1 199 16 view .LVU436
 1382 00e8 FFF7FEFF 		bl	_lv_txt_is_cmd
 1383              	.LVL137:
 199:lvgl/src/misc/lv_txt.c ****                 i = i_next;
ARM GAS  /var/folders/21/t9g5rlb91ys800n5npymflf80000gn/T//ccvPn2HT.s 			page 50


 1384              		.loc 1 199 15 view .LVU437
 1385 00ec 0028     		cmp	r0, #0
 1386 00ee B5D0     		beq	.L95
 200:lvgl/src/misc/lv_txt.c ****                 i_next = i_next_next;
 1387              		.loc 1 200 17 is_stmt 1 discriminator 1 view .LVU438
 200:lvgl/src/misc/lv_txt.c ****                 i_next = i_next_next;
 1388              		.loc 1 200 19 is_stmt 0 discriminator 1 view .LVU439
 1389 00f0 079E     		ldr	r6, [sp, #28]
 1390              	.LVL138:
 201:lvgl/src/misc/lv_txt.c ****                 letter = letter_next;
 1391              		.loc 1 201 17 is_stmt 1 discriminator 1 view .LVU440
 201:lvgl/src/misc/lv_txt.c ****                 letter = letter_next;
 1392              		.loc 1 201 24 is_stmt 0 discriminator 1 view .LVU441
 1393 00f2 069B     		ldr	r3, [sp, #24]
 1394 00f4 0793     		str	r3, [sp, #28]
 202:lvgl/src/misc/lv_txt.c ****                 continue;   /*Skip the letter if it is part of a command*/
 1395              		.loc 1 202 17 is_stmt 1 discriminator 1 view .LVU442
 1396              	.LVL139:
 203:lvgl/src/misc/lv_txt.c ****             }
 1397              		.loc 1 203 17 discriminator 1 view .LVU443
 1398 00f6 E6E7     		b	.L96
 1399              	.LVL140:
 1400              	.L115:
 1401              	.LBB27:
 1402              	.LBB24:
 1403              		.loc 3 178 17 is_stmt 0 view .LVU444
 1404 00f8 0123     		movs	r3, #1
 1405              	.LVL141:
 1406              		.loc 3 178 17 view .LVU445
 1407 00fa DBE7     		b	.L101
 1408              	.LVL142:
 1409              	.L99:
 1410              		.loc 3 178 17 view .LVU446
 1411              	.LBE24:
 1412              	.LBE27:
 225:lvgl/src/misc/lv_txt.c ****             word_len--;
 1413              		.loc 1 225 15 view .LVU447
 1414 00fc DDF814B0 		ldr	fp, [sp, #20]
 1415              	.LVL143:
 225:lvgl/src/misc/lv_txt.c ****             word_len--;
 1416              		.loc 1 225 13 is_stmt 1 view .LVU448
 225:lvgl/src/misc/lv_txt.c ****             word_len--;
 1417              		.loc 1 225 15 is_stmt 0 view .LVU449
 1418 0100 2EB9     		cbnz	r6, .L104
 225:lvgl/src/misc/lv_txt.c ****             word_len--;
 1419              		.loc 1 225 23 discriminator 1 view .LVU450
 1420 0102 B8F1FF3F 		cmp	r8, #-1
 1421 0106 05D1     		bne	.L105
 225:lvgl/src/misc/lv_txt.c ****             word_len--;
 1422              		.loc 1 225 56 discriminator 2 view .LVU451
 1423 0108 139B     		ldr	r3, [sp, #76]
 1424 010a 03B1     		cbz	r3, .L104
 225:lvgl/src/misc/lv_txt.c ****             word_len--;
 1425              		.loc 1 225 79 is_stmt 1 discriminator 3 view .LVU452
 225:lvgl/src/misc/lv_txt.c ****             word_len--;
 1426              		.loc 1 225 91 is_stmt 0 discriminator 3 view .LVU453
 1427 010c 1D60     		str	r5, [r3]
ARM GAS  /var/folders/21/t9g5rlb91ys800n5npymflf80000gn/T//ccvPn2HT.s 			page 51


 1428              	.LVL144:
 1429              	.L104:
 239:lvgl/src/misc/lv_txt.c ****         if(word_len == 0 || (letter == '\r' && letter_next == '\n')) i = i_next;
 1430              		.loc 1 239 5 is_stmt 1 view .LVU454
 239:lvgl/src/misc/lv_txt.c ****         if(word_len == 0 || (letter == '\r' && letter_next == '\n')) i = i_next;
 1431              		.loc 1 239 7 is_stmt 0 view .LVU455
 1432 010e B8F1FF3F 		cmp	r8, #-1
 1433 0112 0DD0     		beq	.L124
 1434              	.LVL145:
 1435              	.L105:
 272:lvgl/src/misc/lv_txt.c ****     if(word_w_ptr != NULL) *word_w_ptr = 0; /*Return no word*/
 1436              		.loc 1 272 5 is_stmt 1 view .LVU456
 272:lvgl/src/misc/lv_txt.c ****     if(word_w_ptr != NULL) *word_w_ptr = 0; /*Return no word*/
 1437              		.loc 1 272 7 is_stmt 0 view .LVU457
 1438 0114 BBF1000F 		cmp	fp, #0
 1439 0118 1ED1     		bne	.L91
 273:lvgl/src/misc/lv_txt.c ****     (void) break_letter_count;
 1440              		.loc 1 273 5 is_stmt 1 view .LVU458
 273:lvgl/src/misc/lv_txt.c ****     (void) break_letter_count;
 1441              		.loc 1 273 7 is_stmt 0 view .LVU459
 1442 011a 139B     		ldr	r3, [sp, #76]
 1443 011c 1BB3     		cbz	r3, .L118
 273:lvgl/src/misc/lv_txt.c ****     (void) break_letter_count;
 1444              		.loc 1 273 28 is_stmt 1 discriminator 1 view .LVU460
 273:lvgl/src/misc/lv_txt.c ****     (void) break_letter_count;
 1445              		.loc 1 273 40 is_stmt 0 discriminator 1 view .LVU461
 1446 011e 0021     		movs	r1, #0
 1447 0120 1960     		str	r1, [r3]
 275:lvgl/src/misc/lv_txt.c **** #endif
 1448              		.loc 1 275 12 discriminator 1 view .LVU462
 1449 0122 8846     		mov	r8, r1
 1450 0124 18E0     		b	.L91
 1451              	.LVL146:
 1452              	.L122:
 231:lvgl/src/misc/lv_txt.c **** 
 1453              		.loc 1 231 65 is_stmt 1 discriminator 2 view .LVU463
 231:lvgl/src/misc/lv_txt.c **** 
 1454              		.loc 1 231 77 is_stmt 0 discriminator 2 view .LVU464
 1455 0126 1D60     		str	r5, [r3]
 1456 0128 CAE7     		b	.L106
 1457              	.LVL147:
 1458              	.L123:
 231:lvgl/src/misc/lv_txt.c **** 
 1459              		.loc 1 231 77 discriminator 2 view .LVU465
 1460 012a DDF814B0 		ldr	fp, [sp, #20]
 1461 012e EEE7     		b	.L104
 1462              	.L124:
 240:lvgl/src/misc/lv_txt.c ****         return i;
 1463              		.loc 1 240 9 is_stmt 1 view .LVU466
 240:lvgl/src/misc/lv_txt.c ****         return i;
 1464              		.loc 1 240 11 is_stmt 0 view .LVU467
 1465 0130 B9F1000F 		cmp	r9, #0
 1466 0134 08D0     		beq	.L108
 240:lvgl/src/misc/lv_txt.c ****         return i;
 1467              		.loc 1 240 26 discriminator 2 view .LVU468
 1468 0136 0D2C     		cmp	r4, #13
 1469 0138 01D0     		beq	.L125
ARM GAS  /var/folders/21/t9g5rlb91ys800n5npymflf80000gn/T//ccvPn2HT.s 			page 52


 1470 013a B046     		mov	r8, r6
 1471              	.LVL148:
 240:lvgl/src/misc/lv_txt.c ****         return i;
 1472              		.loc 1 240 26 discriminator 2 view .LVU469
 1473 013c 0CE0     		b	.L91
 1474              	.LVL149:
 1475              	.L125:
 240:lvgl/src/misc/lv_txt.c ****         return i;
 1476              		.loc 1 240 45 discriminator 3 view .LVU470
 1477 013e 019B     		ldr	r3, [sp, #4]
 1478 0140 0A2B     		cmp	r3, #10
 1479 0142 01D0     		beq	.L108
 1480 0144 B046     		mov	r8, r6
 1481              	.LVL150:
 241:lvgl/src/misc/lv_txt.c ****     }
 1482              		.loc 1 241 9 is_stmt 1 view .LVU471
 241:lvgl/src/misc/lv_txt.c ****     }
 1483              		.loc 1 241 16 is_stmt 0 view .LVU472
 1484 0146 07E0     		b	.L91
 1485              	.LVL151:
 1486              	.L108:
 240:lvgl/src/misc/lv_txt.c ****         return i;
 1487              		.loc 1 240 70 is_stmt 1 discriminator 4 view .LVU473
 240:lvgl/src/misc/lv_txt.c ****         return i;
 1488              		.loc 1 240 72 is_stmt 0 discriminator 4 view .LVU474
 1489 0148 DDF81C80 		ldr	r8, [sp, #28]
 1490              	.LVL152:
 240:lvgl/src/misc/lv_txt.c ****         return i;
 1491              		.loc 1 240 72 discriminator 4 view .LVU475
 1492 014c 04E0     		b	.L91
 1493              	.LVL153:
 1494              	.L110:
 175:lvgl/src/misc/lv_txt.c ****     if(font == NULL) return 0;
 1495              		.loc 1 175 46 view .LVU476
 1496 014e 4FF00008 		mov	r8, #0
 1497 0152 01E0     		b	.L91
 1498              	.LVL154:
 1499              	.L111:
 175:lvgl/src/misc/lv_txt.c ****     if(font == NULL) return 0;
 1500              		.loc 1 175 46 view .LVU477
 1501 0154 4FF00008 		mov	r8, #0
 1502              	.LVL155:
 1503              	.L91:
 277:lvgl/src/misc/lv_txt.c **** 
 1504              		.loc 1 277 1 view .LVU478
 1505 0158 4046     		mov	r0, r8
 1506 015a 09B0     		add	sp, sp, #36
 1507              	.LCFI23:
 1508              		.cfi_remember_state
 1509              		.cfi_def_cfa_offset 36
 1510              		@ sp needed
 1511 015c BDE8F08F 		pop	{r4, r5, r6, r7, r8, r9, r10, fp, pc}
 1512              	.LVL156:
 1513              	.L112:
 1514              	.LCFI24:
 1515              		.cfi_restore_state
 176:lvgl/src/misc/lv_txt.c **** 
ARM GAS  /var/folders/21/t9g5rlb91ys800n5npymflf80000gn/T//ccvPn2HT.s 			page 53


 1516              		.loc 1 176 29 view .LVU479
 1517 0160 4FF00008 		mov	r8, #0
 1518 0164 F8E7     		b	.L91
 1519              	.LVL157:
 1520              	.L118:
 275:lvgl/src/misc/lv_txt.c **** #endif
 1521              		.loc 1 275 12 view .LVU480
 1522 0166 4FF00008 		mov	r8, #0
 1523 016a F5E7     		b	.L91
 1524              	.L127:
 1525              		.align	2
 1526              	.L126:
 1527 016c 00000000 		.word	_lv_txt_encoded_next
 1528 0170 00000000 		.word	.LC0
 1529              		.cfi_endproc
 1530              	.LFE56:
 1532              		.section	.text._lv_txt_get_next_line,"ax",%progbits
 1533              		.align	1
 1534              		.global	_lv_txt_get_next_line
 1535              		.syntax unified
 1536              		.thumb
 1537              		.thumb_func
 1539              	_lv_txt_get_next_line:
 1540              	.LVL158:
 1541              	.LFB57:
 282:lvgl/src/misc/lv_txt.c ****     if(used_width) *used_width = 0;
 1542              		.loc 1 282 1 is_stmt 1 view -0
 1543              		.cfi_startproc
 1544              		@ args = 8, pretend = 0, frame = 16
 1545              		@ frame_needed = 0, uses_anonymous_args = 0
 282:lvgl/src/misc/lv_txt.c ****     if(used_width) *used_width = 0;
 1546              		.loc 1 282 1 is_stmt 0 view .LVU482
 1547 0000 2DE9F04F 		push	{r4, r5, r6, r7, r8, r9, r10, fp, lr}
 1548              	.LCFI25:
 1549              		.cfi_def_cfa_offset 36
 1550              		.cfi_offset 4, -36
 1551              		.cfi_offset 5, -32
 1552              		.cfi_offset 6, -28
 1553              		.cfi_offset 7, -24
 1554              		.cfi_offset 8, -20
 1555              		.cfi_offset 9, -16
 1556              		.cfi_offset 10, -12
 1557              		.cfi_offset 11, -8
 1558              		.cfi_offset 14, -4
 1559 0004 89B0     		sub	sp, sp, #36
 1560              	.LCFI26:
 1561              		.cfi_def_cfa_offset 72
 1562 0006 0646     		mov	r6, r0
 1563 0008 8846     		mov	r8, r1
 1564 000a 9146     		mov	r9, r2
 1565 000c 1D46     		mov	r5, r3
 1566 000e DDF848B0 		ldr	fp, [sp, #72]
 1567 0012 9DF84CA0 		ldrb	r10, [sp, #76]	@ zero_extendqisi2
 283:lvgl/src/misc/lv_txt.c **** 
 1568              		.loc 1 283 5 is_stmt 1 view .LVU483
 283:lvgl/src/misc/lv_txt.c **** 
 1569              		.loc 1 283 7 is_stmt 0 view .LVU484
ARM GAS  /var/folders/21/t9g5rlb91ys800n5npymflf80000gn/T//ccvPn2HT.s 			page 54


 1570 0016 BBF1000F 		cmp	fp, #0
 1571 001a 02D0     		beq	.L129
 283:lvgl/src/misc/lv_txt.c **** 
 1572              		.loc 1 283 20 is_stmt 1 discriminator 1 view .LVU485
 283:lvgl/src/misc/lv_txt.c **** 
 1573              		.loc 1 283 32 is_stmt 0 discriminator 1 view .LVU486
 1574 001c 0023     		movs	r3, #0
 1575              	.LVL159:
 283:lvgl/src/misc/lv_txt.c **** 
 1576              		.loc 1 283 32 discriminator 1 view .LVU487
 1577 001e ABF80030 		strh	r3, [fp]	@ movhi
 1578              	.L129:
 285:lvgl/src/misc/lv_txt.c ****     if(txt[0] == '\0') return 0;
 1579              		.loc 1 285 5 is_stmt 1 view .LVU488
 285:lvgl/src/misc/lv_txt.c ****     if(txt[0] == '\0') return 0;
 1580              		.loc 1 285 7 is_stmt 0 view .LVU489
 1581 0022 002E     		cmp	r6, #0
 1582 0024 6DD0     		beq	.L146
 286:lvgl/src/misc/lv_txt.c ****     if(font == NULL) return 0;
 1583              		.loc 1 286 5 is_stmt 1 view .LVU490
 286:lvgl/src/misc/lv_txt.c ****     if(font == NULL) return 0;
 1584              		.loc 1 286 11 is_stmt 0 view .LVU491
 1585 0026 3378     		ldrb	r3, [r6]	@ zero_extendqisi2
 286:lvgl/src/misc/lv_txt.c ****     if(font == NULL) return 0;
 1586              		.loc 1 286 7 view .LVU492
 1587 0028 002B     		cmp	r3, #0
 1588 002a 6CD0     		beq	.L147
 287:lvgl/src/misc/lv_txt.c **** 
 1589              		.loc 1 287 5 is_stmt 1 view .LVU493
 287:lvgl/src/misc/lv_txt.c **** 
 1590              		.loc 1 287 7 is_stmt 0 view .LVU494
 1591 002c B8F1000F 		cmp	r8, #0
 1592 0030 6BD0     		beq	.L148
 289:lvgl/src/misc/lv_txt.c **** 
 1593              		.loc 1 289 5 is_stmt 1 view .LVU495
 1594              	.LVL160:
 293:lvgl/src/misc/lv_txt.c ****         uint32_t i;
 1595              		.loc 1 293 5 view .LVU496
 293:lvgl/src/misc/lv_txt.c ****         uint32_t i;
 1596              		.loc 1 293 7 is_stmt 0 view .LVU497
 1597 0032 1AF0060F 		tst	r10, #6
 1598 0036 62D1     		bne	.L153
 303:lvgl/src/misc/lv_txt.c ****     lv_text_cmd_state_t cmd_state = LV_TEXT_CMD_STATE_WAIT;
 1599              		.loc 1 303 5 is_stmt 1 view .LVU498
 303:lvgl/src/misc/lv_txt.c ****     lv_text_cmd_state_t cmd_state = LV_TEXT_CMD_STATE_WAIT;
 1600              		.loc 1 303 7 is_stmt 0 view .LVU499
 1601 0038 1AF0020F 		tst	r10, #2
 1602 003c 01D0     		beq	.L137
 303:lvgl/src/misc/lv_txt.c ****     lv_text_cmd_state_t cmd_state = LV_TEXT_CMD_STATE_WAIT;
 1603              		.loc 1 303 46 view .LVU500
 1604 003e 41F6FF75 		movw	r5, #8191
 1605              	.L137:
 1606              	.LVL161:
 304:lvgl/src/misc/lv_txt.c ****     uint32_t i = 0;                                        /*Iterating index into txt*/
 1607              		.loc 1 304 5 is_stmt 1 view .LVU501
 304:lvgl/src/misc/lv_txt.c ****     uint32_t i = 0;                                        /*Iterating index into txt*/
 1608              		.loc 1 304 25 is_stmt 0 view .LVU502
ARM GAS  /var/folders/21/t9g5rlb91ys800n5npymflf80000gn/T//ccvPn2HT.s 			page 55


 1609 0042 0027     		movs	r7, #0
 1610 0044 8DF81F70 		strb	r7, [sp, #31]
 305:lvgl/src/misc/lv_txt.c **** 
 1611              		.loc 1 305 5 is_stmt 1 view .LVU503
 305:lvgl/src/misc/lv_txt.c **** 
 1612              		.loc 1 305 14 is_stmt 0 view .LVU504
 1613 0048 0697     		str	r7, [sp, #24]
 307:lvgl/src/misc/lv_txt.c ****         uint32_t word_w = 0;
 1614              		.loc 1 307 5 is_stmt 1 view .LVU505
 1615              	.LVL162:
 1616              	.L138:
 307:lvgl/src/misc/lv_txt.c ****         uint32_t word_w = 0;
 1617              		.loc 1 307 26 view .LVU506
 307:lvgl/src/misc/lv_txt.c ****         uint32_t word_w = 0;
 1618              		.loc 1 307 14 is_stmt 0 view .LVU507
 1619 004a 069C     		ldr	r4, [sp, #24]
 1620 004c 3019     		adds	r0, r6, r4
 1621 004e 335D     		ldrb	r3, [r6, r4]	@ zero_extendqisi2
 307:lvgl/src/misc/lv_txt.c ****         uint32_t word_w = 0;
 1622              		.loc 1 307 26 view .LVU508
 1623 0050 53B3     		cbz	r3, .L142
 307:lvgl/src/misc/lv_txt.c ****         uint32_t word_w = 0;
 1624              		.loc 1 307 26 discriminator 1 view .LVU509
 1625 0052 002D     		cmp	r5, #0
 1626 0054 28DD     		ble	.L142
 1627              	.LBB28:
 308:lvgl/src/misc/lv_txt.c ****         uint32_t advance = lv_txt_get_next_word(&txt[i], font, letter_space, max_width, flag, &word
 1628              		.loc 1 308 9 is_stmt 1 view .LVU510
 308:lvgl/src/misc/lv_txt.c ****         uint32_t advance = lv_txt_get_next_word(&txt[i], font, letter_space, max_width, flag, &word
 1629              		.loc 1 308 18 is_stmt 0 view .LVU511
 1630 0056 0023     		movs	r3, #0
 1631 0058 0593     		str	r3, [sp, #20]
 309:lvgl/src/misc/lv_txt.c ****         max_width -= word_w;
 1632              		.loc 1 309 9 is_stmt 1 view .LVU512
 309:lvgl/src/misc/lv_txt.c ****         max_width -= word_w;
 1633              		.loc 1 309 28 is_stmt 0 view .LVU513
 1634 005a B4FA84F4 		clz	r4, r4
 1635 005e 6409     		lsrs	r4, r4, #5
 1636 0060 0394     		str	r4, [sp, #12]
 1637 0062 0DF11F03 		add	r3, sp, #31
 1638 0066 0293     		str	r3, [sp, #8]
 1639 0068 05AB     		add	r3, sp, #20
 1640 006a 0193     		str	r3, [sp, #4]
 1641 006c CDF800A0 		str	r10, [sp]
 1642 0070 2B46     		mov	r3, r5
 1643 0072 4A46     		mov	r2, r9
 1644 0074 4146     		mov	r1, r8
 1645 0076 FFF7FEFF 		bl	lv_txt_get_next_word
 1646              	.LVL163:
 310:lvgl/src/misc/lv_txt.c ****         line_w += word_w;
 1647              		.loc 1 310 9 is_stmt 1 view .LVU514
 310:lvgl/src/misc/lv_txt.c ****         line_w += word_w;
 1648              		.loc 1 310 19 is_stmt 0 view .LVU515
 1649 007a BDF81430 		ldrh	r3, [sp, #20]
 1650 007e ED1A     		subs	r5, r5, r3
 1651              	.LVL164:
 310:lvgl/src/misc/lv_txt.c ****         line_w += word_w;
ARM GAS  /var/folders/21/t9g5rlb91ys800n5npymflf80000gn/T//ccvPn2HT.s 			page 56


 1652              		.loc 1 310 19 view .LVU516
 1653 0080 2DB2     		sxth	r5, r5
 1654              	.LVL165:
 311:lvgl/src/misc/lv_txt.c **** 
 1655              		.loc 1 311 9 is_stmt 1 view .LVU517
 311:lvgl/src/misc/lv_txt.c **** 
 1656              		.loc 1 311 16 is_stmt 0 view .LVU518
 1657 0082 3B44     		add	r3, r3, r7
 1658 0084 1FB2     		sxth	r7, r3
 1659              	.LVL166:
 313:lvgl/src/misc/lv_txt.c ****             break;
 1660              		.loc 1 313 9 is_stmt 1 view .LVU519
 313:lvgl/src/misc/lv_txt.c ****             break;
 1661              		.loc 1 313 11 is_stmt 0 view .LVU520
 1662 0086 0346     		mov	r3, r0
 1663 0088 70B1     		cbz	r0, .L142
 317:lvgl/src/misc/lv_txt.c **** 
 1664              		.loc 1 317 9 is_stmt 1 view .LVU521
 317:lvgl/src/misc/lv_txt.c **** 
 1665              		.loc 1 317 11 is_stmt 0 view .LVU522
 1666 008a 069A     		ldr	r2, [sp, #24]
 1667 008c 1344     		add	r3, r3, r2
 1668 008e 0693     		str	r3, [sp, #24]
 319:lvgl/src/misc/lv_txt.c **** 
 1669              		.loc 1 319 9 is_stmt 1 view .LVU523
 319:lvgl/src/misc/lv_txt.c **** 
 1670              		.loc 1 319 15 is_stmt 0 view .LVU524
 1671 0090 3278     		ldrb	r2, [r6]	@ zero_extendqisi2
 319:lvgl/src/misc/lv_txt.c **** 
 1672              		.loc 1 319 11 view .LVU525
 1673 0092 0A2A     		cmp	r2, #10
 1674 0094 08D0     		beq	.L142
 319:lvgl/src/misc/lv_txt.c **** 
 1675              		.loc 1 319 27 discriminator 1 view .LVU526
 1676 0096 0D2A     		cmp	r2, #13
 1677 0098 06D0     		beq	.L142
 321:lvgl/src/misc/lv_txt.c ****             i++;  /*Include the following newline in the current line*/
 1678              		.loc 1 321 9 is_stmt 1 view .LVU527
 321:lvgl/src/misc/lv_txt.c ****             i++;  /*Include the following newline in the current line*/
 1679              		.loc 1 321 15 is_stmt 0 view .LVU528
 1680 009a F25C     		ldrb	r2, [r6, r3]	@ zero_extendqisi2
 321:lvgl/src/misc/lv_txt.c ****             i++;  /*Include the following newline in the current line*/
 1681              		.loc 1 321 11 view .LVU529
 1682 009c 0A2A     		cmp	r2, #10
 1683 009e 01D0     		beq	.L140
 321:lvgl/src/misc/lv_txt.c ****             i++;  /*Include the following newline in the current line*/
 1684              		.loc 1 321 27 discriminator 1 view .LVU530
 1685 00a0 0D2A     		cmp	r2, #13
 1686 00a2 D2D1     		bne	.L138
 1687              	.L140:
 322:lvgl/src/misc/lv_txt.c ****             break;
 1688              		.loc 1 322 13 is_stmt 1 view .LVU531
 322:lvgl/src/misc/lv_txt.c ****             break;
 1689              		.loc 1 322 14 is_stmt 0 view .LVU532
 1690 00a4 0133     		adds	r3, r3, #1
 1691 00a6 0693     		str	r3, [sp, #24]
 323:lvgl/src/misc/lv_txt.c ****         }
ARM GAS  /var/folders/21/t9g5rlb91ys800n5npymflf80000gn/T//ccvPn2HT.s 			page 57


 1692              		.loc 1 323 13 is_stmt 1 view .LVU533
 1693              	.LVL167:
 1694              	.L142:
 323:lvgl/src/misc/lv_txt.c ****         }
 1695              		.loc 1 323 13 is_stmt 0 view .LVU534
 1696              	.LBE28:
 329:lvgl/src/misc/lv_txt.c ****         uint32_t letter = _lv_txt_encoded_next(txt, &i);
 1697              		.loc 1 329 5 is_stmt 1 view .LVU535
 329:lvgl/src/misc/lv_txt.c ****         uint32_t letter = _lv_txt_encoded_next(txt, &i);
 1698              		.loc 1 329 10 is_stmt 0 view .LVU536
 1699 00a8 069B     		ldr	r3, [sp, #24]
 329:lvgl/src/misc/lv_txt.c ****         uint32_t letter = _lv_txt_encoded_next(txt, &i);
 1700              		.loc 1 329 7 view .LVU537
 1701 00aa 6BB9     		cbnz	r3, .L144
 1702              	.LBB29:
 330:lvgl/src/misc/lv_txt.c ****         if(used_width != NULL) {
 1703              		.loc 1 330 9 is_stmt 1 view .LVU538
 330:lvgl/src/misc/lv_txt.c ****         if(used_width != NULL) {
 1704              		.loc 1 330 27 is_stmt 0 view .LVU539
 1705 00ac 184B     		ldr	r3, .L154
 1706 00ae 1B68     		ldr	r3, [r3]
 1707 00b0 06A9     		add	r1, sp, #24
 1708 00b2 3046     		mov	r0, r6
 1709 00b4 9847     		blx	r3
 1710              	.LVL168:
 1711 00b6 0146     		mov	r1, r0
 1712              	.LVL169:
 331:lvgl/src/misc/lv_txt.c ****             line_w = lv_font_get_glyph_width(font, letter, '\0');
 1713              		.loc 1 331 9 is_stmt 1 view .LVU540
 331:lvgl/src/misc/lv_txt.c ****             line_w = lv_font_get_glyph_width(font, letter, '\0');
 1714              		.loc 1 331 11 is_stmt 0 view .LVU541
 1715 00b8 BBF1000F 		cmp	fp, #0
 1716 00bc 09D0     		beq	.L145
 332:lvgl/src/misc/lv_txt.c ****         }
 1717              		.loc 1 332 13 is_stmt 1 view .LVU542
 332:lvgl/src/misc/lv_txt.c ****         }
 1718              		.loc 1 332 22 is_stmt 0 view .LVU543
 1719 00be 0022     		movs	r2, #0
 1720 00c0 4046     		mov	r0, r8
 1721              	.LVL170:
 332:lvgl/src/misc/lv_txt.c ****         }
 1722              		.loc 1 332 22 view .LVU544
 1723 00c2 FFF7FEFF 		bl	lv_font_get_glyph_width
 1724              	.LVL171:
 332:lvgl/src/misc/lv_txt.c ****         }
 1725              		.loc 1 332 20 view .LVU545
 1726 00c6 07B2     		sxth	r7, r0
 1727              	.LVL172:
 1728              	.L144:
 332:lvgl/src/misc/lv_txt.c ****         }
 1729              		.loc 1 332 20 view .LVU546
 1730              	.LBE29:
 336:lvgl/src/misc/lv_txt.c ****         *used_width = line_w;
 1731              		.loc 1 336 5 is_stmt 1 view .LVU547
 336:lvgl/src/misc/lv_txt.c ****         *used_width = line_w;
 1732              		.loc 1 336 7 is_stmt 0 view .LVU548
 1733 00c8 BBF1000F 		cmp	fp, #0
ARM GAS  /var/folders/21/t9g5rlb91ys800n5npymflf80000gn/T//ccvPn2HT.s 			page 58


 1734 00cc 01D0     		beq	.L145
 337:lvgl/src/misc/lv_txt.c ****     }
 1735              		.loc 1 337 9 is_stmt 1 view .LVU549
 337:lvgl/src/misc/lv_txt.c ****     }
 1736              		.loc 1 337 21 is_stmt 0 view .LVU550
 1737 00ce ABF80070 		strh	r7, [fp]	@ movhi
 1738              	.L145:
 1739              	.LVL173:
 340:lvgl/src/misc/lv_txt.c **** }
 1740              		.loc 1 340 5 is_stmt 1 view .LVU551
 340:lvgl/src/misc/lv_txt.c **** }
 1741              		.loc 1 340 12 is_stmt 0 view .LVU552
 1742 00d2 0698     		ldr	r0, [sp, #24]
 1743              	.LVL174:
 1744              	.L128:
 341:lvgl/src/misc/lv_txt.c **** 
 1745              		.loc 1 341 1 view .LVU553
 1746 00d4 09B0     		add	sp, sp, #36
 1747              	.LCFI27:
 1748              		.cfi_remember_state
 1749              		.cfi_def_cfa_offset 36
 1750              		@ sp needed
 1751 00d6 BDE8F08F 		pop	{r4, r5, r6, r7, r8, r9, r10, fp, pc}
 1752              	.LVL175:
 1753              	.L134:
 1754              	.LCFI28:
 1755              		.cfi_restore_state
 1756              	.LBB30:
 297:lvgl/src/misc/lv_txt.c ****         if(txt[i] != '\0') i++;    /*To go beyond `\n`*/
 1757              		.loc 1 297 9 is_stmt 1 discriminator 5 view .LVU554
 295:lvgl/src/misc/lv_txt.c ****             /*Just find the new line chars or string ends by incrementing `i`*/
 1758              		.loc 1 295 73 discriminator 5 view .LVU555
 1759 00da 0130     		adds	r0, r0, #1
 1760              	.LVL176:
 1761              	.L131:
 295:lvgl/src/misc/lv_txt.c ****             /*Just find the new line chars or string ends by incrementing `i`*/
 1762              		.loc 1 295 53 discriminator 1 view .LVU556
 295:lvgl/src/misc/lv_txt.c ****             /*Just find the new line chars or string ends by incrementing `i`*/
 1763              		.loc 1 295 23 is_stmt 0 discriminator 1 view .LVU557
 1764 00dc 335C     		ldrb	r3, [r6, r0]	@ zero_extendqisi2
 295:lvgl/src/misc/lv_txt.c ****             /*Just find the new line chars or string ends by incrementing `i`*/
 1765              		.loc 1 295 53 discriminator 1 view .LVU558
 1766 00de 0A2B     		cmp	r3, #10
 1767 00e0 03D0     		beq	.L133
 295:lvgl/src/misc/lv_txt.c ****             /*Just find the new line chars or string ends by incrementing `i`*/
 1768              		.loc 1 295 35 discriminator 3 view .LVU559
 1769 00e2 0D2B     		cmp	r3, #13
 1770 00e4 01D0     		beq	.L133
 295:lvgl/src/misc/lv_txt.c ****             /*Just find the new line chars or string ends by incrementing `i`*/
 1771              		.loc 1 295 53 discriminator 4 view .LVU560
 1772 00e6 002B     		cmp	r3, #0
 1773 00e8 F7D1     		bne	.L134
 1774              	.L133:
 298:lvgl/src/misc/lv_txt.c ****         if(used_width) *used_width = -1;
 1775              		.loc 1 298 9 is_stmt 1 view .LVU561
 298:lvgl/src/misc/lv_txt.c ****         if(used_width) *used_width = -1;
 1776              		.loc 1 298 11 is_stmt 0 view .LVU562
ARM GAS  /var/folders/21/t9g5rlb91ys800n5npymflf80000gn/T//ccvPn2HT.s 			page 59


 1777 00ea 03B1     		cbz	r3, .L135
 298:lvgl/src/misc/lv_txt.c ****         if(used_width) *used_width = -1;
 1778              		.loc 1 298 28 is_stmt 1 discriminator 1 view .LVU563
 298:lvgl/src/misc/lv_txt.c ****         if(used_width) *used_width = -1;
 1779              		.loc 1 298 29 is_stmt 0 discriminator 1 view .LVU564
 1780 00ec 0130     		adds	r0, r0, #1
 1781              	.LVL177:
 1782              	.L135:
 299:lvgl/src/misc/lv_txt.c ****         return i;
 1783              		.loc 1 299 9 is_stmt 1 view .LVU565
 299:lvgl/src/misc/lv_txt.c ****         return i;
 1784              		.loc 1 299 11 is_stmt 0 view .LVU566
 1785 00ee BBF1000F 		cmp	fp, #0
 1786 00f2 EFD0     		beq	.L128
 299:lvgl/src/misc/lv_txt.c ****         return i;
 1787              		.loc 1 299 24 is_stmt 1 discriminator 1 view .LVU567
 299:lvgl/src/misc/lv_txt.c ****         return i;
 1788              		.loc 1 299 36 is_stmt 0 discriminator 1 view .LVU568
 1789 00f4 4FF6FF73 		movw	r3, #65535
 1790 00f8 ABF80030 		strh	r3, [fp]	@ movhi
 300:lvgl/src/misc/lv_txt.c ****     }
 1791              		.loc 1 300 9 is_stmt 1 discriminator 1 view .LVU569
 300:lvgl/src/misc/lv_txt.c ****     }
 1792              		.loc 1 300 16 is_stmt 0 discriminator 1 view .LVU570
 1793 00fc EAE7     		b	.L128
 1794              	.LVL178:
 1795              	.L153:
 295:lvgl/src/misc/lv_txt.c ****             /*Just find the new line chars or string ends by incrementing `i`*/
 1796              		.loc 1 295 15 view .LVU571
 1797 00fe 0020     		movs	r0, #0
 1798              	.LVL179:
 295:lvgl/src/misc/lv_txt.c ****             /*Just find the new line chars or string ends by incrementing `i`*/
 1799              		.loc 1 295 15 view .LVU572
 1800 0100 ECE7     		b	.L131
 1801              	.LVL180:
 1802              	.L146:
 295:lvgl/src/misc/lv_txt.c ****             /*Just find the new line chars or string ends by incrementing `i`*/
 1803              		.loc 1 295 15 view .LVU573
 1804              	.LBE30:
 285:lvgl/src/misc/lv_txt.c ****     if(txt[0] == '\0') return 0;
 1805              		.loc 1 285 28 view .LVU574
 1806 0102 0020     		movs	r0, #0
 1807              	.LVL181:
 285:lvgl/src/misc/lv_txt.c ****     if(txt[0] == '\0') return 0;
 1808              		.loc 1 285 28 view .LVU575
 1809 0104 E6E7     		b	.L128
 1810              	.LVL182:
 1811              	.L147:
 286:lvgl/src/misc/lv_txt.c ****     if(font == NULL) return 0;
 1812              		.loc 1 286 31 view .LVU576
 1813 0106 0020     		movs	r0, #0
 1814              	.LVL183:
 286:lvgl/src/misc/lv_txt.c ****     if(font == NULL) return 0;
 1815              		.loc 1 286 31 view .LVU577
 1816 0108 E4E7     		b	.L128
 1817              	.LVL184:
 1818              	.L148:
ARM GAS  /var/folders/21/t9g5rlb91ys800n5npymflf80000gn/T//ccvPn2HT.s 			page 60


 287:lvgl/src/misc/lv_txt.c **** 
 1819              		.loc 1 287 29 view .LVU578
 1820 010a 0020     		movs	r0, #0
 1821              	.LVL185:
 287:lvgl/src/misc/lv_txt.c **** 
 1822              		.loc 1 287 29 view .LVU579
 1823 010c E2E7     		b	.L128
 1824              	.L155:
 1825 010e 00BF     		.align	2
 1826              	.L154:
 1827 0110 00000000 		.word	_lv_txt_encoded_next
 1828              		.cfi_endproc
 1829              	.LFE57:
 1831              		.section	.text._lv_txt_ins,"ax",%progbits
 1832              		.align	1
 1833              		.global	_lv_txt_ins
 1834              		.syntax unified
 1835              		.thumb
 1836              		.thumb_func
 1838              	_lv_txt_ins:
 1839              	.LVL186:
 1840              	.LFB60:
 414:lvgl/src/misc/lv_txt.c ****     if(txt_buf == NULL || ins_txt == NULL) return;
 1841              		.loc 1 414 1 is_stmt 1 view -0
 1842              		.cfi_startproc
 1843              		@ args = 0, pretend = 0, frame = 0
 1844              		@ frame_needed = 0, uses_anonymous_args = 0
 415:lvgl/src/misc/lv_txt.c **** 
 1845              		.loc 1 415 5 view .LVU581
 415:lvgl/src/misc/lv_txt.c **** 
 1846              		.loc 1 415 7 is_stmt 0 view .LVU582
 1847 0000 30B3     		cbz	r0, .L163
 414:lvgl/src/misc/lv_txt.c ****     if(txt_buf == NULL || ins_txt == NULL) return;
 1848              		.loc 1 414 1 discriminator 2 view .LVU583
 1849 0002 2DE9F041 		push	{r4, r5, r6, r7, r8, lr}
 1850              	.LCFI29:
 1851              		.cfi_def_cfa_offset 24
 1852              		.cfi_offset 4, -24
 1853              		.cfi_offset 5, -20
 1854              		.cfi_offset 6, -16
 1855              		.cfi_offset 7, -12
 1856              		.cfi_offset 8, -8
 1857              		.cfi_offset 14, -4
 1858 0006 8846     		mov	r8, r1
 1859 0008 1746     		mov	r7, r2
 1860 000a 0646     		mov	r6, r0
 415:lvgl/src/misc/lv_txt.c **** 
 1861              		.loc 1 415 24 discriminator 2 view .LVU584
 1862 000c F2B1     		cbz	r2, .L156
 417:lvgl/src/misc/lv_txt.c ****     size_t ins_len = strlen(ins_txt);
 1863              		.loc 1 417 5 is_stmt 1 view .LVU585
 417:lvgl/src/misc/lv_txt.c ****     size_t ins_len = strlen(ins_txt);
 1864              		.loc 1 417 22 is_stmt 0 view .LVU586
 1865 000e FFF7FEFF 		bl	strlen
 1866              	.LVL187:
 417:lvgl/src/misc/lv_txt.c ****     size_t ins_len = strlen(ins_txt);
 1867              		.loc 1 417 22 view .LVU587
ARM GAS  /var/folders/21/t9g5rlb91ys800n5npymflf80000gn/T//ccvPn2HT.s 			page 61


 1868 0012 0446     		mov	r4, r0
 1869              	.LVL188:
 418:lvgl/src/misc/lv_txt.c ****     if(ins_len == 0) return;
 1870              		.loc 1 418 5 is_stmt 1 view .LVU588
 418:lvgl/src/misc/lv_txt.c ****     if(ins_len == 0) return;
 1871              		.loc 1 418 22 is_stmt 0 view .LVU589
 1872 0014 3846     		mov	r0, r7
 1873              	.LVL189:
 418:lvgl/src/misc/lv_txt.c ****     if(ins_len == 0) return;
 1874              		.loc 1 418 22 view .LVU590
 1875 0016 FFF7FEFF 		bl	strlen
 1876              	.LVL190:
 419:lvgl/src/misc/lv_txt.c **** 
 1877              		.loc 1 419 5 is_stmt 1 view .LVU591
 419:lvgl/src/misc/lv_txt.c **** 
 1878              		.loc 1 419 7 is_stmt 0 view .LVU592
 1879 001a 0546     		mov	r5, r0
 1880 001c B0B1     		cbz	r0, .L156
 421:lvgl/src/misc/lv_txt.c ****     pos              = _lv_txt_encoded_get_byte_id(txt_buf, pos); /*Convert to byte index instead o
 1881              		.loc 1 421 5 is_stmt 1 view .LVU593
 421:lvgl/src/misc/lv_txt.c ****     pos              = _lv_txt_encoded_get_byte_id(txt_buf, pos); /*Convert to byte index instead o
 1882              		.loc 1 421 12 is_stmt 0 view .LVU594
 1883 001e 0444     		add	r4, r4, r0
 1884              	.LVL191:
 422:lvgl/src/misc/lv_txt.c **** 
 1885              		.loc 1 422 5 is_stmt 1 view .LVU595
 422:lvgl/src/misc/lv_txt.c **** 
 1886              		.loc 1 422 24 is_stmt 0 view .LVU596
 1887 0020 0C4B     		ldr	r3, .L166
 1888 0022 1B68     		ldr	r3, [r3]
 1889 0024 4146     		mov	r1, r8
 1890 0026 3046     		mov	r0, r6
 1891              	.LVL192:
 422:lvgl/src/misc/lv_txt.c **** 
 1892              		.loc 1 422 24 view .LVU597
 1893 0028 9847     		blx	r3
 1894              	.LVL193:
 425:lvgl/src/misc/lv_txt.c ****     for(i = new_len; i >= pos + ins_len; i--) {
 1895              		.loc 1 425 5 is_stmt 1 view .LVU598
 426:lvgl/src/misc/lv_txt.c ****         txt_buf[i] = txt_buf[i - ins_len];
 1896              		.loc 1 426 5 view .LVU599
 426:lvgl/src/misc/lv_txt.c ****         txt_buf[i] = txt_buf[i - ins_len];
 1897              		.loc 1 426 5 is_stmt 0 view .LVU600
 1898 002a 03E0     		b	.L158
 1899              	.LVL194:
 1900              	.L159:
 427:lvgl/src/misc/lv_txt.c ****     }
 1901              		.loc 1 427 9 is_stmt 1 discriminator 3 view .LVU601
 427:lvgl/src/misc/lv_txt.c ****     }
 1902              		.loc 1 427 32 is_stmt 0 discriminator 3 view .LVU602
 1903 002c 631B     		subs	r3, r4, r5
 427:lvgl/src/misc/lv_txt.c ****     }
 1904              		.loc 1 427 29 discriminator 3 view .LVU603
 1905 002e F35C     		ldrb	r3, [r6, r3]	@ zero_extendqisi2
 427:lvgl/src/misc/lv_txt.c ****     }
 1906              		.loc 1 427 20 discriminator 3 view .LVU604
 1907 0030 3355     		strb	r3, [r6, r4]
ARM GAS  /var/folders/21/t9g5rlb91ys800n5npymflf80000gn/T//ccvPn2HT.s 			page 62


 426:lvgl/src/misc/lv_txt.c ****         txt_buf[i] = txt_buf[i - ins_len];
 1908              		.loc 1 426 43 is_stmt 1 discriminator 3 view .LVU605
 1909 0032 013C     		subs	r4, r4, #1
 1910              	.LVL195:
 1911              	.L158:
 426:lvgl/src/misc/lv_txt.c ****         txt_buf[i] = txt_buf[i - ins_len];
 1912              		.loc 1 426 24 discriminator 1 view .LVU606
 426:lvgl/src/misc/lv_txt.c ****         txt_buf[i] = txt_buf[i - ins_len];
 1913              		.loc 1 426 31 is_stmt 0 discriminator 1 view .LVU607
 1914 0034 2B18     		adds	r3, r5, r0
 426:lvgl/src/misc/lv_txt.c ****         txt_buf[i] = txt_buf[i - ins_len];
 1915              		.loc 1 426 24 discriminator 1 view .LVU608
 1916 0036 A342     		cmp	r3, r4
 1917 0038 F8D9     		bls	.L159
 431:lvgl/src/misc/lv_txt.c **** }
 1918              		.loc 1 431 5 is_stmt 1 view .LVU609
 431:lvgl/src/misc/lv_txt.c **** }
 1919              		.loc 1 431 29 is_stmt 0 view .LVU610
 1920 003a 0644     		add	r6, r6, r0
 1921              	.LVL196:
 1922              	.LBB31:
 1923              	.LBI31:
 193:lvgl/src/misc/../draw/../misc/lv_mem.h **** {
 1924              		.loc 2 193 44 is_stmt 1 view .LVU611
 1925              	.LBB32:
 195:lvgl/src/misc/../draw/../misc/lv_mem.h ****     const uint8_t * s8 = (const uint8_t *)src;
 1926              		.loc 2 195 5 view .LVU612
 196:lvgl/src/misc/../draw/../misc/lv_mem.h **** 
 1927              		.loc 2 196 5 view .LVU613
 198:lvgl/src/misc/../draw/../misc/lv_mem.h ****         *d8 = *s8;
 1928              		.loc 2 198 5 view .LVU614
 198:lvgl/src/misc/../draw/../misc/lv_mem.h ****         *d8 = *s8;
 1929              		.loc 2 198 10 is_stmt 0 view .LVU615
 1930 003c 04E0     		b	.L160
 1931              	.LVL197:
 1932              	.L161:
 199:lvgl/src/misc/../draw/../misc/lv_mem.h ****         d8++;
 1933              		.loc 2 199 9 is_stmt 1 view .LVU616
 199:lvgl/src/misc/../draw/../misc/lv_mem.h ****         d8++;
 1934              		.loc 2 199 15 is_stmt 0 view .LVU617
 1935 003e 17F8013B 		ldrb	r3, [r7], #1	@ zero_extendqisi2
 1936              	.LVL198:
 199:lvgl/src/misc/../draw/../misc/lv_mem.h ****         d8++;
 1937              		.loc 2 199 13 view .LVU618
 1938 0042 06F8013B 		strb	r3, [r6], #1
 1939              	.LVL199:
 200:lvgl/src/misc/../draw/../misc/lv_mem.h ****         s8++;
 1940              		.loc 2 200 9 is_stmt 1 view .LVU619
 201:lvgl/src/misc/../draw/../misc/lv_mem.h ****         len--;
 1941              		.loc 2 201 9 view .LVU620
 202:lvgl/src/misc/../draw/../misc/lv_mem.h ****     }
 1942              		.loc 2 202 9 view .LVU621
 202:lvgl/src/misc/../draw/../misc/lv_mem.h ****     }
 1943              		.loc 2 202 12 is_stmt 0 view .LVU622
 1944 0046 013D     		subs	r5, r5, #1
 1945              	.LVL200:
 1946              	.L160:
ARM GAS  /var/folders/21/t9g5rlb91ys800n5npymflf80000gn/T//ccvPn2HT.s 			page 63


 198:lvgl/src/misc/../draw/../misc/lv_mem.h ****         *d8 = *s8;
 1947              		.loc 2 198 11 is_stmt 1 view .LVU623
 1948 0048 002D     		cmp	r5, #0
 1949 004a F8D1     		bne	.L161
 1950              	.LVL201:
 1951              	.L156:
 198:lvgl/src/misc/../draw/../misc/lv_mem.h ****         *d8 = *s8;
 1952              		.loc 2 198 11 is_stmt 0 view .LVU624
 1953              	.LBE32:
 1954              	.LBE31:
 432:lvgl/src/misc/lv_txt.c **** 
 1955              		.loc 1 432 1 view .LVU625
 1956 004c BDE8F081 		pop	{r4, r5, r6, r7, r8, pc}
 1957              	.LVL202:
 1958              	.L163:
 1959              	.LCFI30:
 1960              		.cfi_def_cfa_offset 0
 1961              		.cfi_restore 4
 1962              		.cfi_restore 5
 1963              		.cfi_restore 6
 1964              		.cfi_restore 7
 1965              		.cfi_restore 8
 1966              		.cfi_restore 14
 432:lvgl/src/misc/lv_txt.c **** 
 1967              		.loc 1 432 1 view .LVU626
 1968 0050 7047     		bx	lr
 1969              	.L167:
 1970 0052 00BF     		.align	2
 1971              	.L166:
 1972 0054 00000000 		.word	_lv_txt_encoded_get_byte_id
 1973              		.cfi_endproc
 1974              	.LFE60:
 1976              		.section	.text._lv_txt_cut,"ax",%progbits
 1977              		.align	1
 1978              		.global	_lv_txt_cut
 1979              		.syntax unified
 1980              		.thumb
 1981              		.thumb_func
 1983              	_lv_txt_cut:
 1984              	.LVL203:
 1985              	.LFB61:
 435:lvgl/src/misc/lv_txt.c ****     if(txt == NULL) return;
 1986              		.loc 1 435 1 is_stmt 1 view -0
 1987              		.cfi_startproc
 1988              		@ args = 0, pretend = 0, frame = 0
 1989              		@ frame_needed = 0, uses_anonymous_args = 0
 436:lvgl/src/misc/lv_txt.c **** 
 1990              		.loc 1 436 5 view .LVU628
 436:lvgl/src/misc/lv_txt.c **** 
 1991              		.loc 1 436 7 is_stmt 0 view .LVU629
 1992 0000 D8B1     		cbz	r0, .L173
 435:lvgl/src/misc/lv_txt.c ****     if(txt == NULL) return;
 1993              		.loc 1 435 1 view .LVU630
 1994 0002 2DE9F041 		push	{r4, r5, r6, r7, r8, lr}
 1995              	.LCFI31:
 1996              		.cfi_def_cfa_offset 24
 1997              		.cfi_offset 4, -24
ARM GAS  /var/folders/21/t9g5rlb91ys800n5npymflf80000gn/T//ccvPn2HT.s 			page 64


 1998              		.cfi_offset 5, -20
 1999              		.cfi_offset 6, -16
 2000              		.cfi_offset 7, -12
 2001              		.cfi_offset 8, -8
 2002              		.cfi_offset 14, -4
 2003 0006 0C46     		mov	r4, r1
 2004 0008 9046     		mov	r8, r2
 2005 000a 0546     		mov	r5, r0
 438:lvgl/src/misc/lv_txt.c **** 
 2006              		.loc 1 438 5 is_stmt 1 view .LVU631
 438:lvgl/src/misc/lv_txt.c **** 
 2007              		.loc 1 438 22 is_stmt 0 view .LVU632
 2008 000c FFF7FEFF 		bl	strlen
 2009              	.LVL204:
 438:lvgl/src/misc/lv_txt.c **** 
 2010              		.loc 1 438 22 view .LVU633
 2011 0010 0646     		mov	r6, r0
 2012              	.LVL205:
 440:lvgl/src/misc/lv_txt.c ****     len = _lv_txt_encoded_get_byte_id(&txt[pos], len);
 2013              		.loc 1 440 5 is_stmt 1 view .LVU634
 440:lvgl/src/misc/lv_txt.c ****     len = _lv_txt_encoded_get_byte_id(&txt[pos], len);
 2014              		.loc 1 440 11 is_stmt 0 view .LVU635
 2015 0012 0A4F     		ldr	r7, .L176
 2016 0014 3B68     		ldr	r3, [r7]
 2017 0016 2146     		mov	r1, r4
 2018 0018 2846     		mov	r0, r5
 2019              	.LVL206:
 440:lvgl/src/misc/lv_txt.c ****     len = _lv_txt_encoded_get_byte_id(&txt[pos], len);
 2020              		.loc 1 440 11 view .LVU636
 2021 001a 9847     		blx	r3
 2022              	.LVL207:
 2023 001c 0446     		mov	r4, r0
 2024              	.LVL208:
 441:lvgl/src/misc/lv_txt.c **** 
 2025              		.loc 1 441 5 is_stmt 1 view .LVU637
 441:lvgl/src/misc/lv_txt.c **** 
 2026              		.loc 1 441 11 is_stmt 0 view .LVU638
 2027 001e 3B68     		ldr	r3, [r7]
 2028 0020 4146     		mov	r1, r8
 2029 0022 2818     		adds	r0, r5, r0
 2030              	.LVL209:
 441:lvgl/src/misc/lv_txt.c **** 
 2031              		.loc 1 441 11 view .LVU639
 2032 0024 9847     		blx	r3
 2033              	.LVL210:
 444:lvgl/src/misc/lv_txt.c ****     for(i = pos; i <= old_len - len; i++) {
 2034              		.loc 1 444 5 is_stmt 1 view .LVU640
 445:lvgl/src/misc/lv_txt.c ****         txt[i] = txt[i + len];
 2035              		.loc 1 445 5 view .LVU641
 445:lvgl/src/misc/lv_txt.c ****         txt[i] = txt[i + len];
 2036              		.loc 1 445 5 is_stmt 0 view .LVU642
 2037 0026 03E0     		b	.L170
 2038              	.LVL211:
 2039              	.L171:
 446:lvgl/src/misc/lv_txt.c ****     }
 2040              		.loc 1 446 9 is_stmt 1 discriminator 3 view .LVU643
 446:lvgl/src/misc/lv_txt.c ****     }
ARM GAS  /var/folders/21/t9g5rlb91ys800n5npymflf80000gn/T//ccvPn2HT.s 			page 65


 2041              		.loc 1 446 24 is_stmt 0 discriminator 3 view .LVU644
 2042 0028 2318     		adds	r3, r4, r0
 446:lvgl/src/misc/lv_txt.c ****     }
 2043              		.loc 1 446 21 discriminator 3 view .LVU645
 2044 002a EB5C     		ldrb	r3, [r5, r3]	@ zero_extendqisi2
 446:lvgl/src/misc/lv_txt.c ****     }
 2045              		.loc 1 446 16 discriminator 3 view .LVU646
 2046 002c 2B55     		strb	r3, [r5, r4]
 445:lvgl/src/misc/lv_txt.c ****         txt[i] = txt[i + len];
 2047              		.loc 1 445 39 is_stmt 1 discriminator 3 view .LVU647
 2048 002e 0134     		adds	r4, r4, #1
 2049              	.LVL212:
 2050              	.L170:
 445:lvgl/src/misc/lv_txt.c ****         txt[i] = txt[i + len];
 2051              		.loc 1 445 20 discriminator 1 view .LVU648
 445:lvgl/src/misc/lv_txt.c ****         txt[i] = txt[i + len];
 2052              		.loc 1 445 31 is_stmt 0 discriminator 1 view .LVU649
 2053 0030 331A     		subs	r3, r6, r0
 445:lvgl/src/misc/lv_txt.c ****         txt[i] = txt[i + len];
 2054              		.loc 1 445 20 discriminator 1 view .LVU650
 2055 0032 A342     		cmp	r3, r4
 2056 0034 F8D2     		bcs	.L171
 448:lvgl/src/misc/lv_txt.c **** 
 2057              		.loc 1 448 1 view .LVU651
 2058 0036 BDE8F081 		pop	{r4, r5, r6, r7, r8, pc}
 2059              	.LVL213:
 2060              	.L173:
 2061              	.LCFI32:
 2062              		.cfi_def_cfa_offset 0
 2063              		.cfi_restore 4
 2064              		.cfi_restore 5
 2065              		.cfi_restore 6
 2066              		.cfi_restore 7
 2067              		.cfi_restore 8
 2068              		.cfi_restore 14
 448:lvgl/src/misc/lv_txt.c **** 
 2069              		.loc 1 448 1 view .LVU652
 2070 003a 7047     		bx	lr
 2071              	.L177:
 2072              		.align	2
 2073              	.L176:
 2074 003c 00000000 		.word	_lv_txt_encoded_get_byte_id
 2075              		.cfi_endproc
 2076              	.LFE61:
 2078              		.section	.text._lv_txt_set_text_vfmt,"ax",%progbits
 2079              		.align	1
 2080              		.global	_lv_txt_set_text_vfmt
 2081              		.syntax unified
 2082              		.thumb
 2083              		.thumb_func
 2085              	_lv_txt_set_text_vfmt:
 2086              	.LVL214:
 2087              	.LFB62:
 451:lvgl/src/misc/lv_txt.c ****     /*Allocate space for the new text by using trick from C99 standard section 7.19.6.12*/
 2088              		.loc 1 451 1 is_stmt 1 view -0
 2089              		.cfi_startproc
 2090              		@ args = 0, pretend = 0, frame = 8
ARM GAS  /var/folders/21/t9g5rlb91ys800n5npymflf80000gn/T//ccvPn2HT.s 			page 66


 2091              		@ frame_needed = 0, uses_anonymous_args = 0
 451:lvgl/src/misc/lv_txt.c ****     /*Allocate space for the new text by using trick from C99 standard section 7.19.6.12*/
 2092              		.loc 1 451 1 is_stmt 0 view .LVU654
 2093 0000 2DE9F041 		push	{r4, r5, r6, r7, r8, lr}
 2094              	.LCFI33:
 2095              		.cfi_def_cfa_offset 24
 2096              		.cfi_offset 4, -24
 2097              		.cfi_offset 5, -20
 2098              		.cfi_offset 6, -16
 2099              		.cfi_offset 7, -12
 2100              		.cfi_offset 8, -8
 2101              		.cfi_offset 14, -4
 2102 0004 82B0     		sub	sp, sp, #8
 2103              	.LCFI34:
 2104              		.cfi_def_cfa_offset 32
 2105 0006 0546     		mov	r5, r0
 2106 0008 0C46     		mov	r4, r1
 2107              	.LVL215:
 453:lvgl/src/misc/lv_txt.c ****     va_copy(ap_copy, ap);
 2108              		.loc 1 453 5 is_stmt 1 view .LVU655
 454:lvgl/src/misc/lv_txt.c ****     uint32_t len = lv_vsnprintf(NULL, 0, fmt, ap_copy);
 2109              		.loc 1 454 5 view .LVU656
 454:lvgl/src/misc/lv_txt.c ****     uint32_t len = lv_vsnprintf(NULL, 0, fmt, ap_copy);
 2110              		.loc 1 454 5 is_stmt 0 view .LVU657
 2111 000a 0191     		str	r1, [sp, #4]
 455:lvgl/src/misc/lv_txt.c ****     va_end(ap_copy);
 2112              		.loc 1 455 5 is_stmt 1 view .LVU658
 455:lvgl/src/misc/lv_txt.c ****     va_end(ap_copy);
 2113              		.loc 1 455 20 is_stmt 0 view .LVU659
 2114 000c 0B46     		mov	r3, r1
 2115 000e 0246     		mov	r2, r0
 2116 0010 0021     		movs	r1, #0
 2117              	.LVL216:
 455:lvgl/src/misc/lv_txt.c ****     va_end(ap_copy);
 2118              		.loc 1 455 20 view .LVU660
 2119 0012 0846     		mov	r0, r1
 2120              	.LVL217:
 455:lvgl/src/misc/lv_txt.c ****     va_end(ap_copy);
 2121              		.loc 1 455 20 view .LVU661
 2122 0014 FFF7FEFF 		bl	lv_vsnprintf
 2123              	.LVL218:
 455:lvgl/src/misc/lv_txt.c ****     va_end(ap_copy);
 2124              		.loc 1 455 20 view .LVU662
 2125 0018 0646     		mov	r6, r0
 2126              	.LVL219:
 456:lvgl/src/misc/lv_txt.c **** 
 2127              		.loc 1 456 5 is_stmt 1 view .LVU663
 458:lvgl/src/misc/lv_txt.c **** #if LV_USE_ARABIC_PERSIAN_CHARS
 2128              		.loc 1 458 5 view .LVU664
 480:lvgl/src/misc/lv_txt.c ****     LV_ASSERT_MALLOC(text);
 2129              		.loc 1 480 5 view .LVU665
 480:lvgl/src/misc/lv_txt.c ****     LV_ASSERT_MALLOC(text);
 2130              		.loc 1 480 12 is_stmt 0 view .LVU666
 2131 001a 00F10108 		add	r8, r0, #1
 2132 001e 4046     		mov	r0, r8
 2133              	.LVL220:
 480:lvgl/src/misc/lv_txt.c ****     LV_ASSERT_MALLOC(text);
ARM GAS  /var/folders/21/t9g5rlb91ys800n5npymflf80000gn/T//ccvPn2HT.s 			page 67


 2134              		.loc 1 480 12 view .LVU667
 2135 0020 FFF7FEFF 		bl	lv_mem_alloc
 2136              	.LVL221:
 481:lvgl/src/misc/lv_txt.c ****     if(text == NULL) {
 2137              		.loc 1 481 5 is_stmt 1 view .LVU668
 481:lvgl/src/misc/lv_txt.c ****     if(text == NULL) {
 2138              		.loc 1 481 5 view .LVU669
 2139 0024 58B1     		cbz	r0, .L180
 2140 0026 0746     		mov	r7, r0
 481:lvgl/src/misc/lv_txt.c ****     if(text == NULL) {
 2141              		.loc 1 481 5 view .LVU670
 481:lvgl/src/misc/lv_txt.c ****     if(text == NULL) {
 2142              		.loc 1 481 27 view .LVU671
 482:lvgl/src/misc/lv_txt.c ****         return NULL;
 2143              		.loc 1 482 5 view .LVU672
 485:lvgl/src/misc/lv_txt.c **** 
 2144              		.loc 1 485 5 view .LVU673
 485:lvgl/src/misc/lv_txt.c **** 
 2145              		.loc 1 485 15 is_stmt 0 view .LVU674
 2146 0028 0023     		movs	r3, #0
 2147 002a 8355     		strb	r3, [r0, r6]
 487:lvgl/src/misc/lv_txt.c **** #endif
 2148              		.loc 1 487 5 is_stmt 1 view .LVU675
 2149              	.LVL222:
 487:lvgl/src/misc/lv_txt.c **** #endif
 2150              		.loc 1 487 5 is_stmt 0 view .LVU676
 2151 002c 2346     		mov	r3, r4
 2152 002e 2A46     		mov	r2, r5
 2153 0030 4146     		mov	r1, r8
 2154 0032 FFF7FEFF 		bl	lv_vsnprintf
 2155              	.LVL223:
 490:lvgl/src/misc/lv_txt.c **** }
 2156              		.loc 1 490 5 is_stmt 1 view .LVU677
 491:lvgl/src/misc/lv_txt.c **** 
 2157              		.loc 1 491 1 is_stmt 0 view .LVU678
 2158 0036 3846     		mov	r0, r7
 2159 0038 02B0     		add	sp, sp, #8
 2160              	.LCFI35:
 2161              		.cfi_remember_state
 2162              		.cfi_def_cfa_offset 24
 2163              		@ sp needed
 2164 003a BDE8F081 		pop	{r4, r5, r6, r7, r8, pc}
 2165              	.LVL224:
 2166              	.L180:
 2167              	.LCFI36:
 2168              		.cfi_restore_state
 481:lvgl/src/misc/lv_txt.c ****     if(text == NULL) {
 2169              		.loc 1 481 5 is_stmt 1 discriminator 1 view .LVU679
 481:lvgl/src/misc/lv_txt.c ****     if(text == NULL) {
 2170              		.loc 1 481 5 discriminator 1 view .LVU680
 481:lvgl/src/misc/lv_txt.c ****     if(text == NULL) {
 2171              		.loc 1 481 5 discriminator 1 view .LVU681
 481:lvgl/src/misc/lv_txt.c ****     if(text == NULL) {
 2172              		.loc 1 481 5 discriminator 1 view .LVU682
 481:lvgl/src/misc/lv_txt.c ****     if(text == NULL) {
 2173              		.loc 1 481 5 discriminator 1 view .LVU683
 2174 003e FEE7     		b	.L180
ARM GAS  /var/folders/21/t9g5rlb91ys800n5npymflf80000gn/T//ccvPn2HT.s 			page 68


 2175              		.cfi_endproc
 2176              	.LFE62:
 2178              		.section	.text._lv_txt_encoded_letter_next_2,"ax",%progbits
 2179              		.align	1
 2180              		.global	_lv_txt_encoded_letter_next_2
 2181              		.syntax unified
 2182              		.thumb
 2183              		.thumb_func
 2185              	_lv_txt_encoded_letter_next_2:
 2186              	.LVL225:
 2187              	.LFB63:
 494:lvgl/src/misc/lv_txt.c ****     *letter = _lv_txt_encoded_next(txt, ofs);
 2188              		.loc 1 494 1 view -0
 2189              		.cfi_startproc
 2190              		@ args = 0, pretend = 0, frame = 0
 2191              		@ frame_needed = 0, uses_anonymous_args = 0
 494:lvgl/src/misc/lv_txt.c ****     *letter = _lv_txt_encoded_next(txt, ofs);
 2192              		.loc 1 494 1 is_stmt 0 view .LVU685
 2193 0000 F8B5     		push	{r3, r4, r5, r6, r7, lr}
 2194              	.LCFI37:
 2195              		.cfi_def_cfa_offset 24
 2196              		.cfi_offset 3, -24
 2197              		.cfi_offset 4, -20
 2198              		.cfi_offset 5, -16
 2199              		.cfi_offset 6, -12
 2200              		.cfi_offset 7, -8
 2201              		.cfi_offset 14, -4
 2202 0002 0746     		mov	r7, r0
 2203 0004 0E46     		mov	r6, r1
 2204 0006 1546     		mov	r5, r2
 2205 0008 1C46     		mov	r4, r3
 495:lvgl/src/misc/lv_txt.c ****     *letter_next = *letter != '\0' ? _lv_txt_encoded_next(&txt[*ofs], NULL) : 0;
 2206              		.loc 1 495 5 is_stmt 1 view .LVU686
 495:lvgl/src/misc/lv_txt.c ****     *letter_next = *letter != '\0' ? _lv_txt_encoded_next(&txt[*ofs], NULL) : 0;
 2207              		.loc 1 495 15 is_stmt 0 view .LVU687
 2208 000a 074B     		ldr	r3, .L185
 2209              	.LVL226:
 495:lvgl/src/misc/lv_txt.c ****     *letter_next = *letter != '\0' ? _lv_txt_encoded_next(&txt[*ofs], NULL) : 0;
 2210              		.loc 1 495 15 view .LVU688
 2211 000c 1B68     		ldr	r3, [r3]
 2212 000e 2146     		mov	r1, r4
 2213              	.LVL227:
 495:lvgl/src/misc/lv_txt.c ****     *letter_next = *letter != '\0' ? _lv_txt_encoded_next(&txt[*ofs], NULL) : 0;
 2214              		.loc 1 495 15 view .LVU689
 2215 0010 9847     		blx	r3
 2216              	.LVL228:
 495:lvgl/src/misc/lv_txt.c ****     *letter_next = *letter != '\0' ? _lv_txt_encoded_next(&txt[*ofs], NULL) : 0;
 2217              		.loc 1 495 13 view .LVU690
 2218 0012 3060     		str	r0, [r6]
 496:lvgl/src/misc/lv_txt.c **** }
 2219              		.loc 1 496 5 is_stmt 1 view .LVU691
 496:lvgl/src/misc/lv_txt.c **** }
 2220              		.loc 1 496 77 is_stmt 0 view .LVU692
 2221 0014 28B1     		cbz	r0, .L183
 496:lvgl/src/misc/lv_txt.c **** }
 2222              		.loc 1 496 64 discriminator 1 view .LVU693
 2223 0016 2068     		ldr	r0, [r4]
ARM GAS  /var/folders/21/t9g5rlb91ys800n5npymflf80000gn/T//ccvPn2HT.s 			page 69


 496:lvgl/src/misc/lv_txt.c **** }
 2224              		.loc 1 496 38 discriminator 1 view .LVU694
 2225 0018 034B     		ldr	r3, .L185
 2226 001a 1B68     		ldr	r3, [r3]
 2227 001c 0021     		movs	r1, #0
 2228 001e 3844     		add	r0, r0, r7
 2229 0020 9847     		blx	r3
 2230              	.LVL229:
 2231              	.L183:
 496:lvgl/src/misc/lv_txt.c **** }
 2232              		.loc 1 496 18 discriminator 4 view .LVU695
 2233 0022 2860     		str	r0, [r5]
 497:lvgl/src/misc/lv_txt.c **** 
 2234              		.loc 1 497 1 discriminator 4 view .LVU696
 2235 0024 F8BD     		pop	{r3, r4, r5, r6, r7, pc}
 2236              	.LVL230:
 2237              	.L186:
 497:lvgl/src/misc/lv_txt.c **** 
 2238              		.loc 1 497 1 discriminator 4 view .LVU697
 2239 0026 00BF     		.align	2
 2240              	.L185:
 2241 0028 00000000 		.word	_lv_txt_encoded_next
 2242              		.cfi_endproc
 2243              	.LFE63:
 2245              		.section	.text.lv_txt_get_width,"ax",%progbits
 2246              		.align	1
 2247              		.global	lv_txt_get_width
 2248              		.syntax unified
 2249              		.thumb
 2250              		.thumb_func
 2252              	lv_txt_get_width:
 2253              	.LVL231:
 2254              	.LFB58:
 345:lvgl/src/misc/lv_txt.c ****     if(txt == NULL) return 0;
 2255              		.loc 1 345 1 is_stmt 1 view -0
 2256              		.cfi_startproc
 2257              		@ args = 4, pretend = 0, frame = 16
 2258              		@ frame_needed = 0, uses_anonymous_args = 0
 345:lvgl/src/misc/lv_txt.c ****     if(txt == NULL) return 0;
 2259              		.loc 1 345 1 is_stmt 0 view .LVU699
 2260 0000 2DE9F043 		push	{r4, r5, r6, r7, r8, r9, lr}
 2261              	.LCFI38:
 2262              		.cfi_def_cfa_offset 28
 2263              		.cfi_offset 4, -28
 2264              		.cfi_offset 5, -24
 2265              		.cfi_offset 6, -20
 2266              		.cfi_offset 7, -16
 2267              		.cfi_offset 8, -12
 2268              		.cfi_offset 9, -8
 2269              		.cfi_offset 14, -4
 2270 0004 85B0     		sub	sp, sp, #20
 2271              	.LCFI39:
 2272              		.cfi_def_cfa_offset 48
 2273 0006 9DF83080 		ldrb	r8, [sp, #48]	@ zero_extendqisi2
 346:lvgl/src/misc/lv_txt.c ****     if(font == NULL) return 0;
 2274              		.loc 1 346 5 is_stmt 1 view .LVU700
 346:lvgl/src/misc/lv_txt.c ****     if(font == NULL) return 0;
ARM GAS  /var/folders/21/t9g5rlb91ys800n5npymflf80000gn/T//ccvPn2HT.s 			page 70


 2275              		.loc 1 346 7 is_stmt 0 view .LVU701
 2276 000a 0028     		cmp	r0, #0
 2277 000c 3BD0     		beq	.L194
 2278 000e 0C46     		mov	r4, r1
 2279 0010 1546     		mov	r5, r2
 2280 0012 1E46     		mov	r6, r3
 2281 0014 0746     		mov	r7, r0
 347:lvgl/src/misc/lv_txt.c ****     if(txt[0] == '\0') return 0;
 2282              		.loc 1 347 5 is_stmt 1 view .LVU702
 347:lvgl/src/misc/lv_txt.c ****     if(txt[0] == '\0') return 0;
 2283              		.loc 1 347 7 is_stmt 0 view .LVU703
 2284 0016 002A     		cmp	r2, #0
 2285 0018 38D0     		beq	.L195
 348:lvgl/src/misc/lv_txt.c **** 
 2286              		.loc 1 348 5 is_stmt 1 view .LVU704
 348:lvgl/src/misc/lv_txt.c **** 
 2287              		.loc 1 348 11 is_stmt 0 view .LVU705
 2288 001a 0378     		ldrb	r3, [r0]	@ zero_extendqisi2
 2289              	.LVL232:
 348:lvgl/src/misc/lv_txt.c **** 
 2290              		.loc 1 348 7 view .LVU706
 2291 001c 002B     		cmp	r3, #0
 2292 001e 38D0     		beq	.L196
 350:lvgl/src/misc/lv_txt.c ****     lv_coord_t width             = 0;
 2293              		.loc 1 350 5 is_stmt 1 view .LVU707
 350:lvgl/src/misc/lv_txt.c ****     lv_coord_t width             = 0;
 2294              		.loc 1 350 14 is_stmt 0 view .LVU708
 2295 0020 0023     		movs	r3, #0
 2296 0022 0393     		str	r3, [sp, #12]
 351:lvgl/src/misc/lv_txt.c ****     lv_text_cmd_state_t cmd_state = LV_TEXT_CMD_STATE_WAIT;
 2297              		.loc 1 351 5 is_stmt 1 view .LVU709
 2298              	.LVL233:
 352:lvgl/src/misc/lv_txt.c **** 
 2299              		.loc 1 352 5 view .LVU710
 352:lvgl/src/misc/lv_txt.c **** 
 2300              		.loc 1 352 25 is_stmt 0 view .LVU711
 2301 0024 8DF80B30 		strb	r3, [sp, #11]
 354:lvgl/src/misc/lv_txt.c ****         while(i < length) {
 2302              		.loc 1 354 5 is_stmt 1 view .LVU712
 354:lvgl/src/misc/lv_txt.c ****         while(i < length) {
 2303              		.loc 1 354 7 is_stmt 0 view .LVU713
 2304 0028 11BB     		cbnz	r1, .L197
 351:lvgl/src/misc/lv_txt.c ****     lv_text_cmd_state_t cmd_state = LV_TEXT_CMD_STATE_WAIT;
 2305              		.loc 1 351 16 view .LVU714
 2306 002a 9946     		mov	r9, r3
 2307 002c 33E0     		b	.L188
 2308              	.LVL234:
 2309              	.L190:
 2310              	.LBB33:
 366:lvgl/src/misc/lv_txt.c ****             if(char_width > 0) {
 2311              		.loc 1 366 13 is_stmt 1 view .LVU715
 366:lvgl/src/misc/lv_txt.c ****             if(char_width > 0) {
 2312              		.loc 1 366 37 is_stmt 0 view .LVU716
 2313 002e 019A     		ldr	r2, [sp, #4]
 2314 0030 0099     		ldr	r1, [sp]
 2315 0032 2846     		mov	r0, r5
 2316 0034 FFF7FEFF 		bl	lv_font_get_glyph_width
ARM GAS  /var/folders/21/t9g5rlb91ys800n5npymflf80000gn/T//ccvPn2HT.s 			page 71


 2317              	.LVL235:
 366:lvgl/src/misc/lv_txt.c ****             if(char_width > 0) {
 2318              		.loc 1 366 24 view .LVU717
 2319 0038 03B2     		sxth	r3, r0
 2320              	.LVL236:
 367:lvgl/src/misc/lv_txt.c ****                 width += char_width;
 2321              		.loc 1 367 13 is_stmt 1 view .LVU718
 367:lvgl/src/misc/lv_txt.c ****                 width += char_width;
 2322              		.loc 1 367 15 is_stmt 0 view .LVU719
 2323 003a 002B     		cmp	r3, #0
 2324 003c 04DD     		ble	.L189
 368:lvgl/src/misc/lv_txt.c ****                 width += letter_space;
 2325              		.loc 1 368 17 is_stmt 1 view .LVU720
 368:lvgl/src/misc/lv_txt.c ****                 width += letter_space;
 2326              		.loc 1 368 23 is_stmt 0 view .LVU721
 2327 003e 4844     		add	r0, r0, r9
 2328              	.LVL237:
 369:lvgl/src/misc/lv_txt.c ****             }
 2329              		.loc 1 369 17 is_stmt 1 view .LVU722
 369:lvgl/src/misc/lv_txt.c ****             }
 2330              		.loc 1 369 23 is_stmt 0 view .LVU723
 2331 0040 16FA80F0 		uxtah	r0, r6, r0
 2332              	.LVL238:
 369:lvgl/src/misc/lv_txt.c ****             }
 2333              		.loc 1 369 23 view .LVU724
 2334 0044 0FFA80F9 		sxth	r9, r0
 2335              	.LVL239:
 2336              	.L189:
 369:lvgl/src/misc/lv_txt.c ****             }
 2337              		.loc 1 369 23 view .LVU725
 2338              	.LBE33:
 355:lvgl/src/misc/lv_txt.c ****             uint32_t letter;
 2339              		.loc 1 355 17 is_stmt 1 view .LVU726
 2340 0048 039B     		ldr	r3, [sp, #12]
 2341 004a A342     		cmp	r3, r4
 2342 004c 13D2     		bcs	.L199
 2343              	.LBB34:
 356:lvgl/src/misc/lv_txt.c ****             uint32_t letter_next;
 2344              		.loc 1 356 13 view .LVU727
 357:lvgl/src/misc/lv_txt.c ****             _lv_txt_encoded_letter_next_2(txt, &letter, &letter_next, &i);
 2345              		.loc 1 357 13 view .LVU728
 358:lvgl/src/misc/lv_txt.c **** 
 2346              		.loc 1 358 13 view .LVU729
 2347 004e 03AB     		add	r3, sp, #12
 2348 0050 01AA     		add	r2, sp, #4
 2349 0052 6946     		mov	r1, sp
 2350 0054 3846     		mov	r0, r7
 2351 0056 FFF7FEFF 		bl	_lv_txt_encoded_letter_next_2
 2352              	.LVL240:
 360:lvgl/src/misc/lv_txt.c ****                 if(_lv_txt_is_cmd(&cmd_state, letter) != false) {
 2353              		.loc 1 360 13 view .LVU730
 360:lvgl/src/misc/lv_txt.c ****                 if(_lv_txt_is_cmd(&cmd_state, letter) != false) {
 2354              		.loc 1 360 15 is_stmt 0 view .LVU731
 2355 005a 18F0010F 		tst	r8, #1
 2356 005e E6D0     		beq	.L190
 361:lvgl/src/misc/lv_txt.c ****                     continue;
 2357              		.loc 1 361 17 is_stmt 1 view .LVU732
ARM GAS  /var/folders/21/t9g5rlb91ys800n5npymflf80000gn/T//ccvPn2HT.s 			page 72


 361:lvgl/src/misc/lv_txt.c ****                     continue;
 2358              		.loc 1 361 20 is_stmt 0 view .LVU733
 2359 0060 0099     		ldr	r1, [sp]
 2360 0062 0DF10B00 		add	r0, sp, #11
 2361 0066 FFF7FEFF 		bl	_lv_txt_is_cmd
 2362              	.LVL241:
 361:lvgl/src/misc/lv_txt.c ****                     continue;
 2363              		.loc 1 361 19 view .LVU734
 2364 006a 0028     		cmp	r0, #0
 2365 006c DFD0     		beq	.L190
 2366 006e EBE7     		b	.L189
 2367              	.LVL242:
 2368              	.L197:
 361:lvgl/src/misc/lv_txt.c ****                     continue;
 2369              		.loc 1 361 19 view .LVU735
 2370              	.LBE34:
 351:lvgl/src/misc/lv_txt.c ****     lv_text_cmd_state_t cmd_state = LV_TEXT_CMD_STATE_WAIT;
 2371              		.loc 1 351 16 view .LVU736
 2372 0070 4FF00009 		mov	r9, #0
 2373 0074 E8E7     		b	.L189
 2374              	.LVL243:
 2375              	.L199:
 373:lvgl/src/misc/lv_txt.c ****             width -= letter_space; /*Trim the last letter space. Important if the text is center
 2376              		.loc 1 373 9 is_stmt 1 view .LVU737
 373:lvgl/src/misc/lv_txt.c ****             width -= letter_space; /*Trim the last letter space. Important if the text is center
 2377              		.loc 1 373 11 is_stmt 0 view .LVU738
 2378 0076 B9F1000F 		cmp	r9, #0
 2379 007a 0CDD     		ble	.L188
 374:lvgl/src/misc/lv_txt.c ****                                       aligned*/
 2380              		.loc 1 374 13 is_stmt 1 view .LVU739
 374:lvgl/src/misc/lv_txt.c ****                                       aligned*/
 2381              		.loc 1 374 19 is_stmt 0 view .LVU740
 2382 007c A9EB0606 		sub	r6, r9, r6
 2383 0080 0FFA86F9 		sxth	r9, r6
 2384              	.LVL244:
 374:lvgl/src/misc/lv_txt.c ****                                       aligned*/
 2385              		.loc 1 374 19 view .LVU741
 2386 0084 07E0     		b	.L188
 2387              	.LVL245:
 2388              	.L194:
 346:lvgl/src/misc/lv_txt.c ****     if(font == NULL) return 0;
 2389              		.loc 1 346 28 view .LVU742
 2390 0086 4FF00009 		mov	r9, #0
 2391 008a 04E0     		b	.L188
 2392              	.L195:
 347:lvgl/src/misc/lv_txt.c ****     if(txt[0] == '\0') return 0;
 2393              		.loc 1 347 29 view .LVU743
 2394 008c 4FF00009 		mov	r9, #0
 2395 0090 01E0     		b	.L188
 2396              	.LVL246:
 2397              	.L196:
 348:lvgl/src/misc/lv_txt.c **** 
 2398              		.loc 1 348 31 view .LVU744
 2399 0092 4FF00009 		mov	r9, #0
 2400              	.LVL247:
 2401              	.L188:
 380:lvgl/src/misc/lv_txt.c **** 
ARM GAS  /var/folders/21/t9g5rlb91ys800n5npymflf80000gn/T//ccvPn2HT.s 			page 73


 2402              		.loc 1 380 1 view .LVU745
 2403 0096 4846     		mov	r0, r9
 2404 0098 05B0     		add	sp, sp, #20
 2405              	.LCFI40:
 2406              		.cfi_def_cfa_offset 28
 2407              		@ sp needed
 2408 009a BDE8F083 		pop	{r4, r5, r6, r7, r8, r9, pc}
 380:lvgl/src/misc/lv_txt.c **** 
 2409              		.loc 1 380 1 view .LVU746
 2410              		.cfi_endproc
 2411              	.LFE58:
 2413              		.section	.text.lv_txt_get_size,"ax",%progbits
 2414              		.align	1
 2415              		.global	lv_txt_get_size
 2416              		.syntax unified
 2417              		.thumb
 2418              		.thumb_func
 2420              	lv_txt_get_size:
 2421              	.LVL248:
 2422              	.LFB55:
  93:lvgl/src/misc/lv_txt.c ****     size_res->x = 0;
 2423              		.loc 1 93 1 is_stmt 1 view -0
 2424              		.cfi_startproc
 2425              		@ args = 12, pretend = 0, frame = 16
 2426              		@ frame_needed = 0, uses_anonymous_args = 0
  93:lvgl/src/misc/lv_txt.c ****     size_res->x = 0;
 2427              		.loc 1 93 1 is_stmt 0 view .LVU748
 2428 0000 2DE9F04F 		push	{r4, r5, r6, r7, r8, r9, r10, fp, lr}
 2429              	.LCFI41:
 2430              		.cfi_def_cfa_offset 36
 2431              		.cfi_offset 4, -36
 2432              		.cfi_offset 5, -32
 2433              		.cfi_offset 6, -28
 2434              		.cfi_offset 7, -24
 2435              		.cfi_offset 8, -20
 2436              		.cfi_offset 9, -16
 2437              		.cfi_offset 10, -12
 2438              		.cfi_offset 11, -8
 2439              		.cfi_offset 14, -4
 2440 0004 87B0     		sub	sp, sp, #28
 2441              	.LCFI42:
 2442              		.cfi_def_cfa_offset 64
 2443 0006 0446     		mov	r4, r0
 2444 0008 0393     		str	r3, [sp, #12]
 2445 000a BDF940A0 		ldrsh	r10, [sp, #64]
 2446 000e BDF94430 		ldrsh	r3, [sp, #68]
 2447              	.LVL249:
  93:lvgl/src/misc/lv_txt.c ****     size_res->x = 0;
 2448              		.loc 1 93 1 view .LVU749
 2449 0012 9DF84860 		ldrb	r6, [sp, #72]	@ zero_extendqisi2
  94:lvgl/src/misc/lv_txt.c ****     size_res->y = 0;
 2450              		.loc 1 94 5 is_stmt 1 view .LVU750
  94:lvgl/src/misc/lv_txt.c ****     size_res->y = 0;
 2451              		.loc 1 94 17 is_stmt 0 view .LVU751
 2452 0016 0020     		movs	r0, #0
 2453              	.LVL250:
  94:lvgl/src/misc/lv_txt.c ****     size_res->y = 0;
ARM GAS  /var/folders/21/t9g5rlb91ys800n5npymflf80000gn/T//ccvPn2HT.s 			page 74


 2454              		.loc 1 94 17 view .LVU752
 2455 0018 2080     		strh	r0, [r4]	@ movhi
  95:lvgl/src/misc/lv_txt.c **** 
 2456              		.loc 1 95 5 is_stmt 1 view .LVU753
  95:lvgl/src/misc/lv_txt.c **** 
 2457              		.loc 1 95 17 is_stmt 0 view .LVU754
 2458 001a 6080     		strh	r0, [r4, #2]	@ movhi
  97:lvgl/src/misc/lv_txt.c ****     if(font == NULL) return;
 2459              		.loc 1 97 5 is_stmt 1 view .LVU755
  97:lvgl/src/misc/lv_txt.c ****     if(font == NULL) return;
 2460              		.loc 1 97 7 is_stmt 0 view .LVU756
 2461 001c 0029     		cmp	r1, #0
 2462 001e 4DD0     		beq	.L200
 2463 0020 9346     		mov	fp, r2
 2464 0022 8846     		mov	r8, r1
  98:lvgl/src/misc/lv_txt.c **** 
 2465              		.loc 1 98 5 is_stmt 1 view .LVU757
  98:lvgl/src/misc/lv_txt.c **** 
 2466              		.loc 1 98 7 is_stmt 0 view .LVU758
 2467 0024 002A     		cmp	r2, #0
 2468 0026 49D0     		beq	.L200
 100:lvgl/src/misc/lv_txt.c **** 
 2469              		.loc 1 100 5 is_stmt 1 view .LVU759
 100:lvgl/src/misc/lv_txt.c **** 
 2470              		.loc 1 100 7 is_stmt 0 view .LVU760
 2471 0028 16F0020F 		tst	r6, #2
 2472 002c 01D0     		beq	.L202
 100:lvgl/src/misc/lv_txt.c **** 
 2473              		.loc 1 100 46 view .LVU761
 2474 002e 41F6FF73 		movw	r3, #8191
 2475              	.L202:
 2476              	.LVL251:
 102:lvgl/src/misc/lv_txt.c ****     uint32_t new_line_start = 0;
 2477              		.loc 1 102 5 is_stmt 1 view .LVU762
 103:lvgl/src/misc/lv_txt.c ****     uint16_t letter_height = lv_font_get_line_height(font);
 2478              		.loc 1 103 5 view .LVU763
 104:lvgl/src/misc/lv_txt.c **** 
 2479              		.loc 1 104 5 view .LVU764
 2480              	.LBB35:
 2481              	.LBI35:
 2482              		.file 4 "lvgl/src/misc/../font/lv_font.h"
   1:lvgl/src/misc/../font/lv_font.h **** /**
   2:lvgl/src/misc/../font/lv_font.h ****  * @file lv_font.h
   3:lvgl/src/misc/../font/lv_font.h ****  *
   4:lvgl/src/misc/../font/lv_font.h ****  */
   5:lvgl/src/misc/../font/lv_font.h **** 
   6:lvgl/src/misc/../font/lv_font.h **** #ifndef LV_FONT_H
   7:lvgl/src/misc/../font/lv_font.h **** #define LV_FONT_H
   8:lvgl/src/misc/../font/lv_font.h **** 
   9:lvgl/src/misc/../font/lv_font.h **** #ifdef __cplusplus
  10:lvgl/src/misc/../font/lv_font.h **** extern "C" {
  11:lvgl/src/misc/../font/lv_font.h **** #endif
  12:lvgl/src/misc/../font/lv_font.h **** 
  13:lvgl/src/misc/../font/lv_font.h **** /*********************
  14:lvgl/src/misc/../font/lv_font.h ****  *      INCLUDES
  15:lvgl/src/misc/../font/lv_font.h ****  *********************/
  16:lvgl/src/misc/../font/lv_font.h **** #include "../lv_conf_internal.h"
ARM GAS  /var/folders/21/t9g5rlb91ys800n5npymflf80000gn/T//ccvPn2HT.s 			page 75


  17:lvgl/src/misc/../font/lv_font.h **** #include <stdint.h>
  18:lvgl/src/misc/../font/lv_font.h **** #include <stddef.h>
  19:lvgl/src/misc/../font/lv_font.h **** #include <stdbool.h>
  20:lvgl/src/misc/../font/lv_font.h **** 
  21:lvgl/src/misc/../font/lv_font.h **** #include "lv_symbol_def.h"
  22:lvgl/src/misc/../font/lv_font.h **** #include "../misc/lv_area.h"
  23:lvgl/src/misc/../font/lv_font.h **** 
  24:lvgl/src/misc/../font/lv_font.h **** /*********************
  25:lvgl/src/misc/../font/lv_font.h ****  *      DEFINES
  26:lvgl/src/misc/../font/lv_font.h ****  *********************/
  27:lvgl/src/misc/../font/lv_font.h **** 
  28:lvgl/src/misc/../font/lv_font.h **** /* imgfont identifier */
  29:lvgl/src/misc/../font/lv_font.h **** #define LV_IMGFONT_BPP 9
  30:lvgl/src/misc/../font/lv_font.h **** 
  31:lvgl/src/misc/../font/lv_font.h **** /**********************
  32:lvgl/src/misc/../font/lv_font.h ****  *      TYPEDEFS
  33:lvgl/src/misc/../font/lv_font.h ****  **********************/
  34:lvgl/src/misc/../font/lv_font.h **** 
  35:lvgl/src/misc/../font/lv_font.h **** /*------------------
  36:lvgl/src/misc/../font/lv_font.h ****  * General types
  37:lvgl/src/misc/../font/lv_font.h ****  *-----------------*/
  38:lvgl/src/misc/../font/lv_font.h **** 
  39:lvgl/src/misc/../font/lv_font.h **** struct _lv_font_t;
  40:lvgl/src/misc/../font/lv_font.h **** /** Describes the properties of a glyph.*/
  41:lvgl/src/misc/../font/lv_font.h **** typedef struct {
  42:lvgl/src/misc/../font/lv_font.h ****     const struct _lv_font_t *
  43:lvgl/src/misc/../font/lv_font.h ****         resolved_font; /**< Pointer to a font where the glyph was actually found after handling fal
  44:lvgl/src/misc/../font/lv_font.h ****     uint16_t adv_w; /**< The glyph needs this space. Draw the next glyph after this width.*/
  45:lvgl/src/misc/../font/lv_font.h ****     uint16_t box_w; /**< Width of the glyph's bounding box*/
  46:lvgl/src/misc/../font/lv_font.h ****     uint16_t box_h; /**< Height of the glyph's bounding box*/
  47:lvgl/src/misc/../font/lv_font.h ****     int16_t ofs_x;  /**< x offset of the bounding box*/
  48:lvgl/src/misc/../font/lv_font.h ****     int16_t ofs_y;  /**< y offset of the bounding box*/
  49:lvgl/src/misc/../font/lv_font.h ****     uint8_t bpp: 4;  /**< Bit-per-pixel: 1, 2, 4, 8*/
  50:lvgl/src/misc/../font/lv_font.h ****     uint8_t is_placeholder: 1; /** Glyph is missing. But placeholder will still be displayed */
  51:lvgl/src/misc/../font/lv_font.h **** } lv_font_glyph_dsc_t;
  52:lvgl/src/misc/../font/lv_font.h **** 
  53:lvgl/src/misc/../font/lv_font.h **** /** The bitmaps might be upscaled by 3 to achieve subpixel rendering.*/
  54:lvgl/src/misc/../font/lv_font.h **** enum {
  55:lvgl/src/misc/../font/lv_font.h ****     LV_FONT_SUBPX_NONE,
  56:lvgl/src/misc/../font/lv_font.h ****     LV_FONT_SUBPX_HOR,
  57:lvgl/src/misc/../font/lv_font.h ****     LV_FONT_SUBPX_VER,
  58:lvgl/src/misc/../font/lv_font.h ****     LV_FONT_SUBPX_BOTH,
  59:lvgl/src/misc/../font/lv_font.h **** };
  60:lvgl/src/misc/../font/lv_font.h **** 
  61:lvgl/src/misc/../font/lv_font.h **** typedef uint8_t lv_font_subpx_t;
  62:lvgl/src/misc/../font/lv_font.h **** 
  63:lvgl/src/misc/../font/lv_font.h **** /** Describe the properties of a font*/
  64:lvgl/src/misc/../font/lv_font.h **** typedef struct _lv_font_t {
  65:lvgl/src/misc/../font/lv_font.h ****     /** Get a glyph's descriptor from a font*/
  66:lvgl/src/misc/../font/lv_font.h ****     bool (*get_glyph_dsc)(const struct _lv_font_t *, lv_font_glyph_dsc_t *, uint32_t letter, uint32
  67:lvgl/src/misc/../font/lv_font.h **** 
  68:lvgl/src/misc/../font/lv_font.h ****     /** Get a glyph's bitmap from a font*/
  69:lvgl/src/misc/../font/lv_font.h ****     const uint8_t * (*get_glyph_bitmap)(const struct _lv_font_t *, uint32_t);
  70:lvgl/src/misc/../font/lv_font.h **** 
  71:lvgl/src/misc/../font/lv_font.h ****     /*Pointer to the font in a font pack (must have the same line height)*/
  72:lvgl/src/misc/../font/lv_font.h ****     lv_coord_t line_height;         /**< The real line height where any text fits*/
  73:lvgl/src/misc/../font/lv_font.h ****     lv_coord_t base_line;           /**< Base line measured from the top of the line_height*/
ARM GAS  /var/folders/21/t9g5rlb91ys800n5npymflf80000gn/T//ccvPn2HT.s 			page 76


  74:lvgl/src/misc/../font/lv_font.h ****     uint8_t subpx  : 2;             /**< An element of `lv_font_subpx_t`*/
  75:lvgl/src/misc/../font/lv_font.h **** 
  76:lvgl/src/misc/../font/lv_font.h ****     int8_t underline_position;      /**< Distance between the top of the underline and base line (<
  77:lvgl/src/misc/../font/lv_font.h ****     int8_t underline_thickness;     /**< Thickness of the underline*/
  78:lvgl/src/misc/../font/lv_font.h **** 
  79:lvgl/src/misc/../font/lv_font.h ****     const void * dsc;               /**< Store implementation specific or run_time data or caching 
  80:lvgl/src/misc/../font/lv_font.h ****     const struct _lv_font_t * fallback;   /**< Fallback font for missing glyph. Resolved recursivel
  81:lvgl/src/misc/../font/lv_font.h **** #if LV_USE_USER_DATA
  82:lvgl/src/misc/../font/lv_font.h ****     void * user_data;               /**< Custom user data for font.*/
  83:lvgl/src/misc/../font/lv_font.h **** #endif
  84:lvgl/src/misc/../font/lv_font.h **** } lv_font_t;
  85:lvgl/src/misc/../font/lv_font.h **** 
  86:lvgl/src/misc/../font/lv_font.h **** /**********************
  87:lvgl/src/misc/../font/lv_font.h ****  * GLOBAL PROTOTYPES
  88:lvgl/src/misc/../font/lv_font.h ****  **********************/
  89:lvgl/src/misc/../font/lv_font.h **** 
  90:lvgl/src/misc/../font/lv_font.h **** /**
  91:lvgl/src/misc/../font/lv_font.h ****  * Return with the bitmap of a font.
  92:lvgl/src/misc/../font/lv_font.h ****  * @param font_p pointer to a font
  93:lvgl/src/misc/../font/lv_font.h ****  * @param letter a UNICODE character code
  94:lvgl/src/misc/../font/lv_font.h ****  * @return pointer to the bitmap of the letter
  95:lvgl/src/misc/../font/lv_font.h ****  */
  96:lvgl/src/misc/../font/lv_font.h **** const uint8_t * lv_font_get_glyph_bitmap(const lv_font_t * font_p, uint32_t letter);
  97:lvgl/src/misc/../font/lv_font.h **** 
  98:lvgl/src/misc/../font/lv_font.h **** /**
  99:lvgl/src/misc/../font/lv_font.h ****  * Get the descriptor of a glyph
 100:lvgl/src/misc/../font/lv_font.h ****  * @param font_p pointer to font
 101:lvgl/src/misc/../font/lv_font.h ****  * @param dsc_out store the result descriptor here
 102:lvgl/src/misc/../font/lv_font.h ****  * @param letter a UNICODE letter code
 103:lvgl/src/misc/../font/lv_font.h ****  * @param letter_next the next letter after `letter`. Used for kerning
 104:lvgl/src/misc/../font/lv_font.h ****  * @return true: descriptor is successfully loaded into `dsc_out`.
 105:lvgl/src/misc/../font/lv_font.h ****  *         false: the letter was not found, no data is loaded to `dsc_out`
 106:lvgl/src/misc/../font/lv_font.h ****  */
 107:lvgl/src/misc/../font/lv_font.h **** bool lv_font_get_glyph_dsc(const lv_font_t * font_p, lv_font_glyph_dsc_t * dsc_out, uint32_t letter
 108:lvgl/src/misc/../font/lv_font.h ****                            uint32_t letter_next);
 109:lvgl/src/misc/../font/lv_font.h **** 
 110:lvgl/src/misc/../font/lv_font.h **** /**
 111:lvgl/src/misc/../font/lv_font.h ****  * Get the width of a glyph with kerning
 112:lvgl/src/misc/../font/lv_font.h ****  * @param font pointer to a font
 113:lvgl/src/misc/../font/lv_font.h ****  * @param letter a UNICODE letter
 114:lvgl/src/misc/../font/lv_font.h ****  * @param letter_next the next letter after `letter`. Used for kerning
 115:lvgl/src/misc/../font/lv_font.h ****  * @return the width of the glyph
 116:lvgl/src/misc/../font/lv_font.h ****  */
 117:lvgl/src/misc/../font/lv_font.h **** uint16_t lv_font_get_glyph_width(const lv_font_t * font, uint32_t letter, uint32_t letter_next);
 118:lvgl/src/misc/../font/lv_font.h **** 
 119:lvgl/src/misc/../font/lv_font.h **** /**
 120:lvgl/src/misc/../font/lv_font.h ****  * Get the line height of a font. All characters fit into this height
 121:lvgl/src/misc/../font/lv_font.h ****  * @param font_p pointer to a font
 122:lvgl/src/misc/../font/lv_font.h ****  * @return the height of a font
 123:lvgl/src/misc/../font/lv_font.h ****  */
 124:lvgl/src/misc/../font/lv_font.h **** static inline lv_coord_t lv_font_get_line_height(const lv_font_t * font_p)
 2483              		.loc 4 124 26 view .LVU765
 2484              	.LBB36:
 125:lvgl/src/misc/../font/lv_font.h **** {
 126:lvgl/src/misc/../font/lv_font.h ****     return font_p->line_height;
 2485              		.loc 4 126 5 view .LVU766
 2486              		.loc 4 126 18 is_stmt 0 view .LVU767
ARM GAS  /var/folders/21/t9g5rlb91ys800n5npymflf80000gn/T//ccvPn2HT.s 			page 77


 2487 0032 BBF90870 		ldrsh	r7, [fp, #8]
 2488              	.LVL252:
 2489              		.loc 4 126 18 view .LVU768
 2490              	.LBE36:
 2491              	.LBE35:
 104:lvgl/src/misc/lv_txt.c **** 
 2492              		.loc 1 104 14 view .LVU769
 2493 0036 1FFA87F9 		uxth	r9, r7
 2494              	.LVL253:
 107:lvgl/src/misc/lv_txt.c ****         new_line_start += _lv_txt_get_next_line(&text[line_start], font, letter_space, max_width, N
 2495              		.loc 1 107 5 is_stmt 1 view .LVU770
 102:lvgl/src/misc/lv_txt.c ****     uint32_t new_line_start = 0;
 2496              		.loc 1 102 14 is_stmt 0 view .LVU771
 2497 003a 0025     		movs	r5, #0
 2498 003c 0597     		str	r7, [sp, #20]
 2499 003e 0493     		str	r3, [sp, #16]
 2500              	.LVL254:
 2501              	.L203:
 107:lvgl/src/misc/lv_txt.c ****         new_line_start += _lv_txt_get_next_line(&text[line_start], font, letter_space, max_width, N
 2502              		.loc 1 107 28 is_stmt 1 view .LVU772
 107:lvgl/src/misc/lv_txt.c ****         new_line_start += _lv_txt_get_next_line(&text[line_start], font, letter_space, max_width, N
 2503              		.loc 1 107 15 is_stmt 0 view .LVU773
 2504 0040 08EB0507 		add	r7, r8, r5
 2505 0044 18F80530 		ldrb	r3, [r8, r5]	@ zero_extendqisi2
 107:lvgl/src/misc/lv_txt.c ****         new_line_start += _lv_txt_get_next_line(&text[line_start], font, letter_space, max_width, N
 2506              		.loc 1 107 28 view .LVU774
 2507 0048 2BB3     		cbz	r3, .L210
 2508              	.LBB37:
 108:lvgl/src/misc/lv_txt.c **** 
 2509              		.loc 1 108 9 is_stmt 1 view .LVU775
 108:lvgl/src/misc/lv_txt.c **** 
 2510              		.loc 1 108 27 is_stmt 0 view .LVU776
 2511 004a 0196     		str	r6, [sp, #4]
 2512 004c 0023     		movs	r3, #0
 2513 004e 0093     		str	r3, [sp]
 2514 0050 049B     		ldr	r3, [sp, #16]
 2515 0052 039A     		ldr	r2, [sp, #12]
 2516 0054 5946     		mov	r1, fp
 2517 0056 3846     		mov	r0, r7
 2518 0058 FFF7FEFF 		bl	_lv_txt_get_next_line
 2519              	.LVL255:
 2520 005c 0146     		mov	r1, r0
 108:lvgl/src/misc/lv_txt.c **** 
 2521              		.loc 1 108 24 view .LVU777
 2522 005e 0544     		add	r5, r5, r0
 2523              	.LVL256:
 110:lvgl/src/misc/lv_txt.c ****             LV_LOG_WARN("lv_txt_get_size: integer overflow while calculating text height");
 2524              		.loc 1 110 9 is_stmt 1 view .LVU778
 110:lvgl/src/misc/lv_txt.c ****             LV_LOG_WARN("lv_txt_get_size: integer overflow while calculating text height");
 2525              		.loc 1 110 35 is_stmt 0 view .LVU779
 2526 0060 B4F90230 		ldrsh	r3, [r4, #2]
 110:lvgl/src/misc/lv_txt.c ****             LV_LOG_WARN("lv_txt_get_size: integer overflow while calculating text height");
 2527              		.loc 1 110 39 view .LVU780
 2528 0064 03EB0902 		add	r2, r3, r9
 110:lvgl/src/misc/lv_txt.c ****             LV_LOG_WARN("lv_txt_get_size: integer overflow while calculating text height");
 2529              		.loc 1 110 70 view .LVU781
 2530 0068 5244     		add	r2, r2, r10
ARM GAS  /var/folders/21/t9g5rlb91ys800n5npymflf80000gn/T//ccvPn2HT.s 			page 78


 110:lvgl/src/misc/lv_txt.c ****             LV_LOG_WARN("lv_txt_get_size: integer overflow while calculating text height");
 2531              		.loc 1 110 11 view .LVU782
 2532 006a B2F5004F 		cmp	r2, #32768
 2533 006e 25D2     		bcs	.L200
 115:lvgl/src/misc/lv_txt.c ****             size_res->y += line_space;
 2534              		.loc 1 115 13 is_stmt 1 view .LVU783
 115:lvgl/src/misc/lv_txt.c ****             size_res->y += line_space;
 2535              		.loc 1 115 25 is_stmt 0 view .LVU784
 2536 0070 19FA83F3 		uxtah	r3, r9, r3
 2537 0074 9BB2     		uxth	r3, r3
 2538 0076 6380     		strh	r3, [r4, #2]	@ movhi
 116:lvgl/src/misc/lv_txt.c ****         }
 2539              		.loc 1 116 13 is_stmt 1 view .LVU785
 116:lvgl/src/misc/lv_txt.c ****         }
 2540              		.loc 1 116 25 is_stmt 0 view .LVU786
 2541 0078 5344     		add	r3, r3, r10
 2542 007a 6380     		strh	r3, [r4, #2]	@ movhi
 120:lvgl/src/misc/lv_txt.c ****                                                       flag);
 2543              		.loc 1 120 9 is_stmt 1 view .LVU787
 120:lvgl/src/misc/lv_txt.c ****                                                       flag);
 2544              		.loc 1 120 38 is_stmt 0 view .LVU788
 2545 007c 0096     		str	r6, [sp]
 2546 007e 039B     		ldr	r3, [sp, #12]
 2547 0080 5A46     		mov	r2, fp
 2548 0082 3846     		mov	r0, r7
 2549 0084 FFF7FEFF 		bl	lv_txt_get_width
 2550              	.LVL257:
 123:lvgl/src/misc/lv_txt.c ****         line_start  = new_line_start;
 2551              		.loc 1 123 9 is_stmt 1 view .LVU789
 123:lvgl/src/misc/lv_txt.c ****         line_start  = new_line_start;
 2552              		.loc 1 123 23 is_stmt 0 view .LVU790
 2553 0088 B4F90030 		ldrsh	r3, [r4]
 2554 008c 8342     		cmp	r3, r0
 2555 008e B8BF     		it	lt
 2556 0090 0346     		movlt	r3, r0
 123:lvgl/src/misc/lv_txt.c ****         line_start  = new_line_start;
 2557              		.loc 1 123 21 view .LVU791
 2558 0092 2380     		strh	r3, [r4]	@ movhi
 124:lvgl/src/misc/lv_txt.c ****     }
 2559              		.loc 1 124 9 is_stmt 1 view .LVU792
 2560              	.LVL258:
 124:lvgl/src/misc/lv_txt.c ****     }
 2561              		.loc 1 124 9 is_stmt 0 view .LVU793
 2562 0094 D4E7     		b	.L203
 2563              	.LVL259:
 2564              	.L210:
 124:lvgl/src/misc/lv_txt.c ****     }
 2565              		.loc 1 124 9 view .LVU794
 2566              	.LBE37:
 128:lvgl/src/misc/lv_txt.c ****         size_res->y += letter_height + line_space;
 2567              		.loc 1 128 7 view .LVU795
 2568 0096 059F     		ldr	r7, [sp, #20]
 128:lvgl/src/misc/lv_txt.c ****         size_res->y += letter_height + line_space;
 2569              		.loc 1 128 5 is_stmt 1 view .LVU796
 128:lvgl/src/misc/lv_txt.c ****         size_res->y += letter_height + line_space;
 2570              		.loc 1 128 7 is_stmt 0 view .LVU797
 2571 0098 65B1     		cbz	r5, .L205
ARM GAS  /var/folders/21/t9g5rlb91ys800n5npymflf80000gn/T//ccvPn2HT.s 			page 79


 128:lvgl/src/misc/lv_txt.c ****         size_res->y += letter_height + line_space;
 2572              		.loc 1 128 34 discriminator 1 view .LVU798
 2573 009a A844     		add	r8, r8, r5
 2574              	.LVL260:
 128:lvgl/src/misc/lv_txt.c ****         size_res->y += letter_height + line_space;
 2575              		.loc 1 128 34 discriminator 1 view .LVU799
 2576 009c 18F8013C 		ldrb	r3, [r8, #-1]	@ zero_extendqisi2
 128:lvgl/src/misc/lv_txt.c ****         size_res->y += letter_height + line_space;
 2577              		.loc 1 128 26 discriminator 1 view .LVU800
 2578 00a0 0A2B     		cmp	r3, #10
 2579 00a2 01D0     		beq	.L206
 128:lvgl/src/misc/lv_txt.c ****         size_res->y += letter_height + line_space;
 2580              		.loc 1 128 59 discriminator 2 view .LVU801
 2581 00a4 0D2B     		cmp	r3, #13
 2582 00a6 05D1     		bne	.L205
 2583              	.L206:
 129:lvgl/src/misc/lv_txt.c ****     }
 2584              		.loc 1 129 9 is_stmt 1 view .LVU802
 129:lvgl/src/misc/lv_txt.c ****     }
 2585              		.loc 1 129 17 is_stmt 0 view .LVU803
 2586 00a8 6288     		ldrh	r2, [r4, #2]
 129:lvgl/src/misc/lv_txt.c ****     }
 2587              		.loc 1 129 38 view .LVU804
 2588 00aa 09EB0A03 		add	r3, r9, r10
 129:lvgl/src/misc/lv_txt.c ****     }
 2589              		.loc 1 129 21 view .LVU805
 2590 00ae 12FA83F3 		uxtah	r3, r2, r3
 2591 00b2 6380     		strh	r3, [r4, #2]	@ movhi
 2592              	.L205:
 133:lvgl/src/misc/lv_txt.c ****         size_res->y = letter_height;
 2593              		.loc 1 133 5 is_stmt 1 view .LVU806
 133:lvgl/src/misc/lv_txt.c ****         size_res->y = letter_height;
 2594              		.loc 1 133 16 is_stmt 0 view .LVU807
 2595 00b4 B4F90230 		ldrsh	r3, [r4, #2]
 133:lvgl/src/misc/lv_txt.c ****         size_res->y = letter_height;
 2596              		.loc 1 133 7 view .LVU808
 2597 00b8 1BB9     		cbnz	r3, .L207
 134:lvgl/src/misc/lv_txt.c ****     else
 2598              		.loc 1 134 9 is_stmt 1 view .LVU809
 134:lvgl/src/misc/lv_txt.c ****     else
 2599              		.loc 1 134 21 is_stmt 0 view .LVU810
 2600 00ba 6780     		strh	r7, [r4, #2]	@ movhi
 2601              	.LVL261:
 2602              	.L200:
 137:lvgl/src/misc/lv_txt.c **** 
 2603              		.loc 1 137 1 view .LVU811
 2604 00bc 07B0     		add	sp, sp, #28
 2605              	.LCFI43:
 2606              		.cfi_remember_state
 2607              		.cfi_def_cfa_offset 36
 2608              		@ sp needed
 2609 00be BDE8F08F 		pop	{r4, r5, r6, r7, r8, r9, r10, fp, pc}
 2610              	.LVL262:
 2611              	.L207:
 2612              	.LCFI44:
 2613              		.cfi_restore_state
 136:lvgl/src/misc/lv_txt.c **** }
ARM GAS  /var/folders/21/t9g5rlb91ys800n5npymflf80000gn/T//ccvPn2HT.s 			page 80


 2614              		.loc 1 136 9 is_stmt 1 view .LVU812
 136:lvgl/src/misc/lv_txt.c **** }
 2615              		.loc 1 136 17 is_stmt 0 view .LVU813
 2616 00c2 9BB2     		uxth	r3, r3
 136:lvgl/src/misc/lv_txt.c **** }
 2617              		.loc 1 136 21 view .LVU814
 2618 00c4 A3EB0A03 		sub	r3, r3, r10
 2619 00c8 6380     		strh	r3, [r4, #2]	@ movhi
 2620 00ca F7E7     		b	.L200
 2621              		.cfi_endproc
 2622              	.LFE55:
 2624              		.global	_lv_txt_get_encoded_length
 2625              		.section	.data._lv_txt_get_encoded_length,"aw"
 2626              		.align	2
 2629              	_lv_txt_get_encoded_length:
 2630 0000 00000000 		.word	lv_txt_utf8_get_length
 2631              		.global	_lv_txt_encoded_get_char_id
 2632              		.section	.data._lv_txt_encoded_get_char_id,"aw"
 2633              		.align	2
 2636              	_lv_txt_encoded_get_char_id:
 2637 0000 00000000 		.word	lv_txt_utf8_get_char_id
 2638              		.global	_lv_txt_encoded_get_byte_id
 2639              		.section	.data._lv_txt_encoded_get_byte_id,"aw"
 2640              		.align	2
 2643              	_lv_txt_encoded_get_byte_id:
 2644 0000 00000000 		.word	lv_txt_utf8_get_byte_id
 2645              		.global	_lv_txt_encoded_prev
 2646              		.section	.data._lv_txt_encoded_prev,"aw"
 2647              		.align	2
 2650              	_lv_txt_encoded_prev:
 2651 0000 00000000 		.word	lv_txt_utf8_prev
 2652              		.global	_lv_txt_encoded_next
 2653              		.section	.data._lv_txt_encoded_next,"aw"
 2654              		.align	2
 2657              	_lv_txt_encoded_next:
 2658 0000 00000000 		.word	lv_txt_utf8_next
 2659              		.global	_lv_txt_encoded_conv_wc
 2660              		.section	.data._lv_txt_encoded_conv_wc,"aw"
 2661              		.align	2
 2664              	_lv_txt_encoded_conv_wc:
 2665 0000 00000000 		.word	lv_txt_utf8_conv_wc
 2666              		.global	_lv_txt_unicode_to_encoded
 2667              		.section	.data._lv_txt_unicode_to_encoded,"aw"
 2668              		.align	2
 2671              	_lv_txt_unicode_to_encoded:
 2672 0000 00000000 		.word	lv_txt_unicode_to_utf8
 2673              		.global	_lv_txt_encoded_size
 2674              		.section	.data._lv_txt_encoded_size,"aw"
 2675              		.align	2
 2678              	_lv_txt_encoded_size:
 2679 0000 00000000 		.word	lv_txt_utf8_size
 2680              		.text
 2681              	.Letext0:
 2682              		.file 5 "/Applications/ArmGNUToolchain/12.2.mpacbti-rel1/arm-none-eabi/lib/gcc/arm-none-eabi/12.2.
 2683              		.file 6 "/usr/local/include/sys/_types/_int8_t.h"
 2684              		.file 7 "/usr/local/include/sys/_types/_int16_t.h"
 2685              		.file 8 "/usr/local/include/_types/_uint8_t.h"
ARM GAS  /var/folders/21/t9g5rlb91ys800n5npymflf80000gn/T//ccvPn2HT.s 			page 81


 2686              		.file 9 "/usr/local/include/_types/_uint16_t.h"
 2687              		.file 10 "/usr/local/include/_types/_uint32_t.h"
 2688              		.file 11 "/usr/local/include/arm/_types.h"
 2689              		.file 12 "lvgl/src/misc/lv_area.h"
 2690              		.file 13 "/usr/local/include/sys/_types/_size_t.h"
 2691              		.file 14 "lvgl/src/misc/lv_printf.h"
 2692              		.file 15 "/usr/local/include/string.h"
 2693              		.file 16 "<built-in>"
ARM GAS  /var/folders/21/t9g5rlb91ys800n5npymflf80000gn/T//ccvPn2HT.s 			page 82

