ARM GAS  /var/folders/21/t9g5rlb91ys800n5npymflf80000gn/T//ccDybqAE.s 			page 1


   1              		.cpu cortex-m4
   2              		.arch armv7e-m
   3              		.fpu fpv4-sp-d16
   4              		.eabi_attribute 27, 1
   5              		.eabi_attribute 28, 1
   6              		.eabi_attribute 20, 1
   7              		.eabi_attribute 21, 1
   8              		.eabi_attribute 23, 3
   9              		.eabi_attribute 24, 1
  10              		.eabi_attribute 25, 1
  11              		.eabi_attribute 26, 1
  12              		.eabi_attribute 30, 1
  13              		.eabi_attribute 34, 1
  14              		.eabi_attribute 18, 4
  15              		.file	"lv_win.c"
  16              		.text
  17              	.Ltext0:
  18              		.cfi_sections	.debug_frame
  19              		.file 1 "lvgl/src/extra/widgets/win/lv_win.c"
  20              		.section	.text.lv_win_constructor,"ax",%progbits
  21              		.align	1
  22              		.syntax unified
  23              		.thumb
  24              		.thumb_func
  26              	lv_win_constructor:
  27              	.LVL0:
  28              	.LFB209:
   1:lvgl/src/extra/widgets/win/lv_win.c **** /**
   2:lvgl/src/extra/widgets/win/lv_win.c ****  * @file lv_win.c
   3:lvgl/src/extra/widgets/win/lv_win.c ****  *
   4:lvgl/src/extra/widgets/win/lv_win.c ****  */
   5:lvgl/src/extra/widgets/win/lv_win.c **** 
   6:lvgl/src/extra/widgets/win/lv_win.c **** /*********************
   7:lvgl/src/extra/widgets/win/lv_win.c ****  *      INCLUDES
   8:lvgl/src/extra/widgets/win/lv_win.c ****  *********************/
   9:lvgl/src/extra/widgets/win/lv_win.c **** #include "lv_win.h"
  10:lvgl/src/extra/widgets/win/lv_win.c **** #if LV_USE_WIN
  11:lvgl/src/extra/widgets/win/lv_win.c **** 
  12:lvgl/src/extra/widgets/win/lv_win.c **** /*********************
  13:lvgl/src/extra/widgets/win/lv_win.c ****  *      DEFINES
  14:lvgl/src/extra/widgets/win/lv_win.c ****  *********************/
  15:lvgl/src/extra/widgets/win/lv_win.c **** 
  16:lvgl/src/extra/widgets/win/lv_win.c **** /**********************
  17:lvgl/src/extra/widgets/win/lv_win.c ****  *      TYPEDEFS
  18:lvgl/src/extra/widgets/win/lv_win.c ****  **********************/
  19:lvgl/src/extra/widgets/win/lv_win.c **** 
  20:lvgl/src/extra/widgets/win/lv_win.c **** /**********************
  21:lvgl/src/extra/widgets/win/lv_win.c ****  *  STATIC PROTOTYPES
  22:lvgl/src/extra/widgets/win/lv_win.c ****  **********************/
  23:lvgl/src/extra/widgets/win/lv_win.c **** static void lv_win_constructor(const lv_obj_class_t * class_p, lv_obj_t * obj);
  24:lvgl/src/extra/widgets/win/lv_win.c **** 
  25:lvgl/src/extra/widgets/win/lv_win.c **** /**********************
  26:lvgl/src/extra/widgets/win/lv_win.c ****  *  STATIC VARIABLES
  27:lvgl/src/extra/widgets/win/lv_win.c ****  **********************/
  28:lvgl/src/extra/widgets/win/lv_win.c **** const lv_obj_class_t lv_win_class = {
  29:lvgl/src/extra/widgets/win/lv_win.c ****     .constructor_cb = lv_win_constructor,
  30:lvgl/src/extra/widgets/win/lv_win.c ****     .width_def = LV_PCT(100),
ARM GAS  /var/folders/21/t9g5rlb91ys800n5npymflf80000gn/T//ccDybqAE.s 			page 2


  31:lvgl/src/extra/widgets/win/lv_win.c ****     .height_def = LV_PCT(100),
  32:lvgl/src/extra/widgets/win/lv_win.c ****     .base_class = &lv_obj_class,
  33:lvgl/src/extra/widgets/win/lv_win.c ****     .instance_size = sizeof(lv_win_t)
  34:lvgl/src/extra/widgets/win/lv_win.c **** };
  35:lvgl/src/extra/widgets/win/lv_win.c **** static lv_coord_t create_header_height;
  36:lvgl/src/extra/widgets/win/lv_win.c **** /**********************
  37:lvgl/src/extra/widgets/win/lv_win.c ****  *      MACROS
  38:lvgl/src/extra/widgets/win/lv_win.c ****  **********************/
  39:lvgl/src/extra/widgets/win/lv_win.c **** 
  40:lvgl/src/extra/widgets/win/lv_win.c **** /**********************
  41:lvgl/src/extra/widgets/win/lv_win.c ****  *   GLOBAL FUNCTIONS
  42:lvgl/src/extra/widgets/win/lv_win.c ****  **********************/
  43:lvgl/src/extra/widgets/win/lv_win.c **** 
  44:lvgl/src/extra/widgets/win/lv_win.c **** lv_obj_t * lv_win_create(lv_obj_t * parent, lv_coord_t header_height)
  45:lvgl/src/extra/widgets/win/lv_win.c **** {
  46:lvgl/src/extra/widgets/win/lv_win.c ****     LV_LOG_INFO("begin");
  47:lvgl/src/extra/widgets/win/lv_win.c ****     create_header_height = header_height;
  48:lvgl/src/extra/widgets/win/lv_win.c **** 
  49:lvgl/src/extra/widgets/win/lv_win.c ****     lv_obj_t * obj = lv_obj_class_create_obj(&lv_win_class, parent);
  50:lvgl/src/extra/widgets/win/lv_win.c ****     lv_obj_class_init_obj(obj);
  51:lvgl/src/extra/widgets/win/lv_win.c ****     return obj;
  52:lvgl/src/extra/widgets/win/lv_win.c **** }
  53:lvgl/src/extra/widgets/win/lv_win.c **** 
  54:lvgl/src/extra/widgets/win/lv_win.c **** lv_obj_t * lv_win_add_title(lv_obj_t * win, const char * txt)
  55:lvgl/src/extra/widgets/win/lv_win.c **** {
  56:lvgl/src/extra/widgets/win/lv_win.c ****     lv_obj_t * header = lv_win_get_header(win);
  57:lvgl/src/extra/widgets/win/lv_win.c ****     lv_obj_t * title = lv_label_create(header);
  58:lvgl/src/extra/widgets/win/lv_win.c ****     lv_label_set_long_mode(title, LV_LABEL_LONG_DOT);
  59:lvgl/src/extra/widgets/win/lv_win.c ****     lv_label_set_text(title, txt);
  60:lvgl/src/extra/widgets/win/lv_win.c ****     lv_obj_set_flex_grow(title, 1);
  61:lvgl/src/extra/widgets/win/lv_win.c ****     return title;
  62:lvgl/src/extra/widgets/win/lv_win.c **** }
  63:lvgl/src/extra/widgets/win/lv_win.c **** 
  64:lvgl/src/extra/widgets/win/lv_win.c **** lv_obj_t * lv_win_add_btn(lv_obj_t * win, const void * icon, lv_coord_t btn_w)
  65:lvgl/src/extra/widgets/win/lv_win.c **** {
  66:lvgl/src/extra/widgets/win/lv_win.c ****     lv_obj_t * header = lv_win_get_header(win);
  67:lvgl/src/extra/widgets/win/lv_win.c ****     lv_obj_t * btn = lv_btn_create(header);
  68:lvgl/src/extra/widgets/win/lv_win.c ****     lv_obj_set_size(btn, btn_w, LV_PCT(100));
  69:lvgl/src/extra/widgets/win/lv_win.c **** 
  70:lvgl/src/extra/widgets/win/lv_win.c ****     lv_obj_t * img = lv_img_create(btn);
  71:lvgl/src/extra/widgets/win/lv_win.c ****     lv_img_set_src(img, icon);
  72:lvgl/src/extra/widgets/win/lv_win.c ****     lv_obj_align(img, LV_ALIGN_CENTER, 0, 0);
  73:lvgl/src/extra/widgets/win/lv_win.c **** 
  74:lvgl/src/extra/widgets/win/lv_win.c ****     return btn;
  75:lvgl/src/extra/widgets/win/lv_win.c **** }
  76:lvgl/src/extra/widgets/win/lv_win.c **** 
  77:lvgl/src/extra/widgets/win/lv_win.c **** lv_obj_t * lv_win_get_header(lv_obj_t * win)
  78:lvgl/src/extra/widgets/win/lv_win.c **** {
  79:lvgl/src/extra/widgets/win/lv_win.c ****     return lv_obj_get_child(win, 0);
  80:lvgl/src/extra/widgets/win/lv_win.c **** }
  81:lvgl/src/extra/widgets/win/lv_win.c **** 
  82:lvgl/src/extra/widgets/win/lv_win.c **** lv_obj_t * lv_win_get_content(lv_obj_t * win)
  83:lvgl/src/extra/widgets/win/lv_win.c **** {
  84:lvgl/src/extra/widgets/win/lv_win.c ****     return lv_obj_get_child(win, 1);
  85:lvgl/src/extra/widgets/win/lv_win.c **** }
  86:lvgl/src/extra/widgets/win/lv_win.c **** 
  87:lvgl/src/extra/widgets/win/lv_win.c **** /**********************
ARM GAS  /var/folders/21/t9g5rlb91ys800n5npymflf80000gn/T//ccDybqAE.s 			page 3


  88:lvgl/src/extra/widgets/win/lv_win.c ****  *   STATIC FUNCTIONS
  89:lvgl/src/extra/widgets/win/lv_win.c ****  **********************/
  90:lvgl/src/extra/widgets/win/lv_win.c **** 
  91:lvgl/src/extra/widgets/win/lv_win.c **** static void lv_win_constructor(const lv_obj_class_t * class_p, lv_obj_t * obj)
  92:lvgl/src/extra/widgets/win/lv_win.c **** {
  29              		.loc 1 92 1 view -0
  30              		.cfi_startproc
  31              		@ args = 0, pretend = 0, frame = 0
  32              		@ frame_needed = 0, uses_anonymous_args = 0
  33              		.loc 1 92 1 is_stmt 0 view .LVU1
  34 0000 70B5     		push	{r4, r5, r6, lr}
  35              	.LCFI0:
  36              		.cfi_def_cfa_offset 16
  37              		.cfi_offset 4, -16
  38              		.cfi_offset 5, -12
  39              		.cfi_offset 6, -8
  40              		.cfi_offset 14, -4
  41 0002 0C46     		mov	r4, r1
  93:lvgl/src/extra/widgets/win/lv_win.c ****     LV_UNUSED(class_p);
  42              		.loc 1 93 5 is_stmt 1 view .LVU2
  94:lvgl/src/extra/widgets/win/lv_win.c ****     lv_obj_t * parent = lv_obj_get_parent(obj);
  43              		.loc 1 94 5 view .LVU3
  44              		.loc 1 94 25 is_stmt 0 view .LVU4
  45 0004 0846     		mov	r0, r1
  46              	.LVL1:
  47              		.loc 1 94 25 view .LVU5
  48 0006 FFF7FEFF 		bl	lv_obj_get_parent
  49              	.LVL2:
  50              		.loc 1 94 25 view .LVU6
  51 000a 0646     		mov	r6, r0
  52              	.LVL3:
  95:lvgl/src/extra/widgets/win/lv_win.c ****     lv_obj_set_size(obj, lv_obj_get_width(parent), lv_obj_get_height(parent));
  53              		.loc 1 95 5 is_stmt 1 view .LVU7
  54 000c FFF7FEFF 		bl	lv_obj_get_width
  55              	.LVL4:
  56              		.loc 1 95 5 is_stmt 0 view .LVU8
  57 0010 0546     		mov	r5, r0
  58 0012 3046     		mov	r0, r6
  59 0014 FFF7FEFF 		bl	lv_obj_get_height
  60              	.LVL5:
  61 0018 0246     		mov	r2, r0
  62 001a 2946     		mov	r1, r5
  63 001c 2046     		mov	r0, r4
  64 001e FFF7FEFF 		bl	lv_obj_set_size
  65              	.LVL6:
  96:lvgl/src/extra/widgets/win/lv_win.c ****     lv_obj_set_flex_flow(obj, LV_FLEX_FLOW_COLUMN);
  66              		.loc 1 96 5 is_stmt 1 view .LVU9
  67 0022 0121     		movs	r1, #1
  68 0024 2046     		mov	r0, r4
  69 0026 FFF7FEFF 		bl	lv_obj_set_flex_flow
  70              	.LVL7:
  97:lvgl/src/extra/widgets/win/lv_win.c **** 
  98:lvgl/src/extra/widgets/win/lv_win.c ****     lv_obj_t * header = lv_obj_create(obj);
  71              		.loc 1 98 5 view .LVU10
  72              		.loc 1 98 25 is_stmt 0 view .LVU11
  73 002a 2046     		mov	r0, r4
  74 002c FFF7FEFF 		bl	lv_obj_create
ARM GAS  /var/folders/21/t9g5rlb91ys800n5npymflf80000gn/T//ccDybqAE.s 			page 4


  75              	.LVL8:
  76 0030 0546     		mov	r5, r0
  77              	.LVL9:
  99:lvgl/src/extra/widgets/win/lv_win.c ****     lv_obj_set_size(header, LV_PCT(100), create_header_height);
  78              		.loc 1 99 5 is_stmt 1 view .LVU12
  79 0032 0F4B     		ldr	r3, .L3
  80 0034 B3F90020 		ldrsh	r2, [r3]
  81 0038 42F26401 		movw	r1, #8292
  82 003c FFF7FEFF 		bl	lv_obj_set_size
  83              	.LVL10:
 100:lvgl/src/extra/widgets/win/lv_win.c ****     lv_obj_set_flex_flow(header, LV_FLEX_FLOW_ROW);
  84              		.loc 1 100 5 view .LVU13
  85 0040 0021     		movs	r1, #0
  86 0042 2846     		mov	r0, r5
  87 0044 FFF7FEFF 		bl	lv_obj_set_flex_flow
  88              	.LVL11:
 101:lvgl/src/extra/widgets/win/lv_win.c ****     lv_obj_set_flex_align(header, LV_FLEX_ALIGN_START, LV_FLEX_ALIGN_CENTER, LV_FLEX_ALIGN_CENTER);
  89              		.loc 1 101 5 view .LVU14
  90 0048 0223     		movs	r3, #2
  91 004a 1A46     		mov	r2, r3
  92 004c 0021     		movs	r1, #0
  93 004e 2846     		mov	r0, r5
  94 0050 FFF7FEFF 		bl	lv_obj_set_flex_align
  95              	.LVL12:
 102:lvgl/src/extra/widgets/win/lv_win.c **** 
 103:lvgl/src/extra/widgets/win/lv_win.c ****     lv_obj_t * cont = lv_obj_create(obj);
  96              		.loc 1 103 5 view .LVU15
  97              		.loc 1 103 23 is_stmt 0 view .LVU16
  98 0054 2046     		mov	r0, r4
  99 0056 FFF7FEFF 		bl	lv_obj_create
 100              	.LVL13:
 101 005a 0446     		mov	r4, r0
 102              	.LVL14:
 104:lvgl/src/extra/widgets/win/lv_win.c ****     lv_obj_set_flex_grow(cont, 1);
 103              		.loc 1 104 5 is_stmt 1 view .LVU17
 104 005c 0121     		movs	r1, #1
 105 005e FFF7FEFF 		bl	lv_obj_set_flex_grow
 106              	.LVL15:
 105:lvgl/src/extra/widgets/win/lv_win.c ****     lv_obj_set_width(cont, LV_PCT(100));
 107              		.loc 1 105 5 view .LVU18
 108 0062 42F26401 		movw	r1, #8292
 109 0066 2046     		mov	r0, r4
 110 0068 FFF7FEFF 		bl	lv_obj_set_width
 111              	.LVL16:
 106:lvgl/src/extra/widgets/win/lv_win.c **** }
 112              		.loc 1 106 1 is_stmt 0 view .LVU19
 113 006c 70BD     		pop	{r4, r5, r6, pc}
 114              	.LVL17:
 115              	.L4:
 116              		.loc 1 106 1 view .LVU20
 117 006e 00BF     		.align	2
 118              	.L3:
 119 0070 00000000 		.word	create_header_height
 120              		.cfi_endproc
 121              	.LFE209:
 123              		.section	.text.lv_win_create,"ax",%progbits
 124              		.align	1
ARM GAS  /var/folders/21/t9g5rlb91ys800n5npymflf80000gn/T//ccDybqAE.s 			page 5


 125              		.global	lv_win_create
 126              		.syntax unified
 127              		.thumb
 128              		.thumb_func
 130              	lv_win_create:
 131              	.LVL18:
 132              	.LFB204:
  45:lvgl/src/extra/widgets/win/lv_win.c ****     LV_LOG_INFO("begin");
 133              		.loc 1 45 1 is_stmt 1 view -0
 134              		.cfi_startproc
 135              		@ args = 0, pretend = 0, frame = 0
 136              		@ frame_needed = 0, uses_anonymous_args = 0
  45:lvgl/src/extra/widgets/win/lv_win.c ****     LV_LOG_INFO("begin");
 137              		.loc 1 45 1 is_stmt 0 view .LVU22
 138 0000 10B5     		push	{r4, lr}
 139              	.LCFI1:
 140              		.cfi_def_cfa_offset 8
 141              		.cfi_offset 4, -8
 142              		.cfi_offset 14, -4
  46:lvgl/src/extra/widgets/win/lv_win.c ****     create_header_height = header_height;
 143              		.loc 1 46 5 is_stmt 1 view .LVU23
  46:lvgl/src/extra/widgets/win/lv_win.c ****     create_header_height = header_height;
 144              		.loc 1 46 5 view .LVU24
  46:lvgl/src/extra/widgets/win/lv_win.c ****     create_header_height = header_height;
 145              		.loc 1 46 5 view .LVU25
  47:lvgl/src/extra/widgets/win/lv_win.c **** 
 146              		.loc 1 47 5 view .LVU26
  47:lvgl/src/extra/widgets/win/lv_win.c **** 
 147              		.loc 1 47 26 is_stmt 0 view .LVU27
 148 0002 054B     		ldr	r3, .L7
 149 0004 1980     		strh	r1, [r3]	@ movhi
  49:lvgl/src/extra/widgets/win/lv_win.c ****     lv_obj_class_init_obj(obj);
 150              		.loc 1 49 5 is_stmt 1 view .LVU28
  49:lvgl/src/extra/widgets/win/lv_win.c ****     lv_obj_class_init_obj(obj);
 151              		.loc 1 49 22 is_stmt 0 view .LVU29
 152 0006 0146     		mov	r1, r0
 153              	.LVL19:
  49:lvgl/src/extra/widgets/win/lv_win.c ****     lv_obj_class_init_obj(obj);
 154              		.loc 1 49 22 view .LVU30
 155 0008 0448     		ldr	r0, .L7+4
 156              	.LVL20:
  49:lvgl/src/extra/widgets/win/lv_win.c ****     lv_obj_class_init_obj(obj);
 157              		.loc 1 49 22 view .LVU31
 158 000a FFF7FEFF 		bl	lv_obj_class_create_obj
 159              	.LVL21:
  49:lvgl/src/extra/widgets/win/lv_win.c ****     lv_obj_class_init_obj(obj);
 160              		.loc 1 49 22 view .LVU32
 161 000e 0446     		mov	r4, r0
 162              	.LVL22:
  50:lvgl/src/extra/widgets/win/lv_win.c ****     return obj;
 163              		.loc 1 50 5 is_stmt 1 view .LVU33
 164 0010 FFF7FEFF 		bl	lv_obj_class_init_obj
 165              	.LVL23:
  51:lvgl/src/extra/widgets/win/lv_win.c **** }
 166              		.loc 1 51 5 view .LVU34
  52:lvgl/src/extra/widgets/win/lv_win.c **** 
 167              		.loc 1 52 1 is_stmt 0 view .LVU35
ARM GAS  /var/folders/21/t9g5rlb91ys800n5npymflf80000gn/T//ccDybqAE.s 			page 6


 168 0014 2046     		mov	r0, r4
 169 0016 10BD     		pop	{r4, pc}
 170              	.LVL24:
 171              	.L8:
  52:lvgl/src/extra/widgets/win/lv_win.c **** 
 172              		.loc 1 52 1 view .LVU36
 173              		.align	2
 174              	.L7:
 175 0018 00000000 		.word	create_header_height
 176 001c 00000000 		.word	lv_win_class
 177              		.cfi_endproc
 178              	.LFE204:
 180              		.section	.text.lv_win_get_header,"ax",%progbits
 181              		.align	1
 182              		.global	lv_win_get_header
 183              		.syntax unified
 184              		.thumb
 185              		.thumb_func
 187              	lv_win_get_header:
 188              	.LVL25:
 189              	.LFB207:
  78:lvgl/src/extra/widgets/win/lv_win.c ****     return lv_obj_get_child(win, 0);
 190              		.loc 1 78 1 is_stmt 1 view -0
 191              		.cfi_startproc
 192              		@ args = 0, pretend = 0, frame = 0
 193              		@ frame_needed = 0, uses_anonymous_args = 0
  78:lvgl/src/extra/widgets/win/lv_win.c ****     return lv_obj_get_child(win, 0);
 194              		.loc 1 78 1 is_stmt 0 view .LVU38
 195 0000 08B5     		push	{r3, lr}
 196              	.LCFI2:
 197              		.cfi_def_cfa_offset 8
 198              		.cfi_offset 3, -8
 199              		.cfi_offset 14, -4
  79:lvgl/src/extra/widgets/win/lv_win.c **** }
 200              		.loc 1 79 5 is_stmt 1 view .LVU39
  79:lvgl/src/extra/widgets/win/lv_win.c **** }
 201              		.loc 1 79 12 is_stmt 0 view .LVU40
 202 0002 0021     		movs	r1, #0
 203 0004 FFF7FEFF 		bl	lv_obj_get_child
 204              	.LVL26:
  80:lvgl/src/extra/widgets/win/lv_win.c **** 
 205              		.loc 1 80 1 view .LVU41
 206 0008 08BD     		pop	{r3, pc}
 207              		.cfi_endproc
 208              	.LFE207:
 210              		.section	.text.lv_win_add_title,"ax",%progbits
 211              		.align	1
 212              		.global	lv_win_add_title
 213              		.syntax unified
 214              		.thumb
 215              		.thumb_func
 217              	lv_win_add_title:
 218              	.LVL27:
 219              	.LFB205:
  55:lvgl/src/extra/widgets/win/lv_win.c ****     lv_obj_t * header = lv_win_get_header(win);
 220              		.loc 1 55 1 is_stmt 1 view -0
 221              		.cfi_startproc
ARM GAS  /var/folders/21/t9g5rlb91ys800n5npymflf80000gn/T//ccDybqAE.s 			page 7


 222              		@ args = 0, pretend = 0, frame = 0
 223              		@ frame_needed = 0, uses_anonymous_args = 0
  55:lvgl/src/extra/widgets/win/lv_win.c ****     lv_obj_t * header = lv_win_get_header(win);
 224              		.loc 1 55 1 is_stmt 0 view .LVU43
 225 0000 38B5     		push	{r3, r4, r5, lr}
 226              	.LCFI3:
 227              		.cfi_def_cfa_offset 16
 228              		.cfi_offset 3, -16
 229              		.cfi_offset 4, -12
 230              		.cfi_offset 5, -8
 231              		.cfi_offset 14, -4
 232 0002 0D46     		mov	r5, r1
  56:lvgl/src/extra/widgets/win/lv_win.c ****     lv_obj_t * title = lv_label_create(header);
 233              		.loc 1 56 5 is_stmt 1 view .LVU44
  56:lvgl/src/extra/widgets/win/lv_win.c ****     lv_obj_t * title = lv_label_create(header);
 234              		.loc 1 56 25 is_stmt 0 view .LVU45
 235 0004 FFF7FEFF 		bl	lv_win_get_header
 236              	.LVL28:
  57:lvgl/src/extra/widgets/win/lv_win.c ****     lv_label_set_long_mode(title, LV_LABEL_LONG_DOT);
 237              		.loc 1 57 5 is_stmt 1 view .LVU46
  57:lvgl/src/extra/widgets/win/lv_win.c ****     lv_label_set_long_mode(title, LV_LABEL_LONG_DOT);
 238              		.loc 1 57 24 is_stmt 0 view .LVU47
 239 0008 FFF7FEFF 		bl	lv_label_create
 240              	.LVL29:
  57:lvgl/src/extra/widgets/win/lv_win.c ****     lv_label_set_long_mode(title, LV_LABEL_LONG_DOT);
 241              		.loc 1 57 24 view .LVU48
 242 000c 0446     		mov	r4, r0
 243              	.LVL30:
  58:lvgl/src/extra/widgets/win/lv_win.c ****     lv_label_set_text(title, txt);
 244              		.loc 1 58 5 is_stmt 1 view .LVU49
 245 000e 0121     		movs	r1, #1
 246 0010 FFF7FEFF 		bl	lv_label_set_long_mode
 247              	.LVL31:
  59:lvgl/src/extra/widgets/win/lv_win.c ****     lv_obj_set_flex_grow(title, 1);
 248              		.loc 1 59 5 view .LVU50
 249 0014 2946     		mov	r1, r5
 250 0016 2046     		mov	r0, r4
 251 0018 FFF7FEFF 		bl	lv_label_set_text
 252              	.LVL32:
  60:lvgl/src/extra/widgets/win/lv_win.c ****     return title;
 253              		.loc 1 60 5 view .LVU51
 254 001c 0121     		movs	r1, #1
 255 001e 2046     		mov	r0, r4
 256 0020 FFF7FEFF 		bl	lv_obj_set_flex_grow
 257              	.LVL33:
  61:lvgl/src/extra/widgets/win/lv_win.c **** }
 258              		.loc 1 61 5 view .LVU52
  62:lvgl/src/extra/widgets/win/lv_win.c **** 
 259              		.loc 1 62 1 is_stmt 0 view .LVU53
 260 0024 2046     		mov	r0, r4
 261 0026 38BD     		pop	{r3, r4, r5, pc}
  62:lvgl/src/extra/widgets/win/lv_win.c **** 
 262              		.loc 1 62 1 view .LVU54
 263              		.cfi_endproc
 264              	.LFE205:
 266              		.section	.text.lv_win_add_btn,"ax",%progbits
 267              		.align	1
ARM GAS  /var/folders/21/t9g5rlb91ys800n5npymflf80000gn/T//ccDybqAE.s 			page 8


 268              		.global	lv_win_add_btn
 269              		.syntax unified
 270              		.thumb
 271              		.thumb_func
 273              	lv_win_add_btn:
 274              	.LVL34:
 275              	.LFB206:
  65:lvgl/src/extra/widgets/win/lv_win.c ****     lv_obj_t * header = lv_win_get_header(win);
 276              		.loc 1 65 1 is_stmt 1 view -0
 277              		.cfi_startproc
 278              		@ args = 0, pretend = 0, frame = 0
 279              		@ frame_needed = 0, uses_anonymous_args = 0
  65:lvgl/src/extra/widgets/win/lv_win.c ****     lv_obj_t * header = lv_win_get_header(win);
 280              		.loc 1 65 1 is_stmt 0 view .LVU56
 281 0000 70B5     		push	{r4, r5, r6, lr}
 282              	.LCFI4:
 283              		.cfi_def_cfa_offset 16
 284              		.cfi_offset 4, -16
 285              		.cfi_offset 5, -12
 286              		.cfi_offset 6, -8
 287              		.cfi_offset 14, -4
 288 0002 0E46     		mov	r6, r1
 289 0004 1546     		mov	r5, r2
  66:lvgl/src/extra/widgets/win/lv_win.c ****     lv_obj_t * btn = lv_btn_create(header);
 290              		.loc 1 66 5 is_stmt 1 view .LVU57
  66:lvgl/src/extra/widgets/win/lv_win.c ****     lv_obj_t * btn = lv_btn_create(header);
 291              		.loc 1 66 25 is_stmt 0 view .LVU58
 292 0006 FFF7FEFF 		bl	lv_win_get_header
 293              	.LVL35:
  67:lvgl/src/extra/widgets/win/lv_win.c ****     lv_obj_set_size(btn, btn_w, LV_PCT(100));
 294              		.loc 1 67 5 is_stmt 1 view .LVU59
  67:lvgl/src/extra/widgets/win/lv_win.c ****     lv_obj_set_size(btn, btn_w, LV_PCT(100));
 295              		.loc 1 67 22 is_stmt 0 view .LVU60
 296 000a FFF7FEFF 		bl	lv_btn_create
 297              	.LVL36:
  67:lvgl/src/extra/widgets/win/lv_win.c ****     lv_obj_set_size(btn, btn_w, LV_PCT(100));
 298              		.loc 1 67 22 view .LVU61
 299 000e 0446     		mov	r4, r0
 300              	.LVL37:
  68:lvgl/src/extra/widgets/win/lv_win.c **** 
 301              		.loc 1 68 5 is_stmt 1 view .LVU62
 302 0010 42F26402 		movw	r2, #8292
 303 0014 2946     		mov	r1, r5
 304 0016 FFF7FEFF 		bl	lv_obj_set_size
 305              	.LVL38:
  70:lvgl/src/extra/widgets/win/lv_win.c ****     lv_img_set_src(img, icon);
 306              		.loc 1 70 5 view .LVU63
  70:lvgl/src/extra/widgets/win/lv_win.c ****     lv_img_set_src(img, icon);
 307              		.loc 1 70 22 is_stmt 0 view .LVU64
 308 001a 2046     		mov	r0, r4
 309 001c FFF7FEFF 		bl	lv_img_create
 310              	.LVL39:
 311 0020 0546     		mov	r5, r0
 312              	.LVL40:
  71:lvgl/src/extra/widgets/win/lv_win.c ****     lv_obj_align(img, LV_ALIGN_CENTER, 0, 0);
 313              		.loc 1 71 5 is_stmt 1 view .LVU65
 314 0022 3146     		mov	r1, r6
ARM GAS  /var/folders/21/t9g5rlb91ys800n5npymflf80000gn/T//ccDybqAE.s 			page 9


 315 0024 FFF7FEFF 		bl	lv_img_set_src
 316              	.LVL41:
  72:lvgl/src/extra/widgets/win/lv_win.c **** 
 317              		.loc 1 72 5 view .LVU66
 318 0028 0023     		movs	r3, #0
 319 002a 1A46     		mov	r2, r3
 320 002c 0921     		movs	r1, #9
 321 002e 2846     		mov	r0, r5
 322 0030 FFF7FEFF 		bl	lv_obj_align
 323              	.LVL42:
  74:lvgl/src/extra/widgets/win/lv_win.c **** }
 324              		.loc 1 74 5 view .LVU67
  75:lvgl/src/extra/widgets/win/lv_win.c **** 
 325              		.loc 1 75 1 is_stmt 0 view .LVU68
 326 0034 2046     		mov	r0, r4
 327 0036 70BD     		pop	{r4, r5, r6, pc}
  75:lvgl/src/extra/widgets/win/lv_win.c **** 
 328              		.loc 1 75 1 view .LVU69
 329              		.cfi_endproc
 330              	.LFE206:
 332              		.section	.text.lv_win_get_content,"ax",%progbits
 333              		.align	1
 334              		.global	lv_win_get_content
 335              		.syntax unified
 336              		.thumb
 337              		.thumb_func
 339              	lv_win_get_content:
 340              	.LVL43:
 341              	.LFB208:
  83:lvgl/src/extra/widgets/win/lv_win.c ****     return lv_obj_get_child(win, 1);
 342              		.loc 1 83 1 is_stmt 1 view -0
 343              		.cfi_startproc
 344              		@ args = 0, pretend = 0, frame = 0
 345              		@ frame_needed = 0, uses_anonymous_args = 0
  83:lvgl/src/extra/widgets/win/lv_win.c ****     return lv_obj_get_child(win, 1);
 346              		.loc 1 83 1 is_stmt 0 view .LVU71
 347 0000 08B5     		push	{r3, lr}
 348              	.LCFI5:
 349              		.cfi_def_cfa_offset 8
 350              		.cfi_offset 3, -8
 351              		.cfi_offset 14, -4
  84:lvgl/src/extra/widgets/win/lv_win.c **** }
 352              		.loc 1 84 5 is_stmt 1 view .LVU72
  84:lvgl/src/extra/widgets/win/lv_win.c **** }
 353              		.loc 1 84 12 is_stmt 0 view .LVU73
 354 0002 0121     		movs	r1, #1
 355 0004 FFF7FEFF 		bl	lv_obj_get_child
 356              	.LVL44:
  85:lvgl/src/extra/widgets/win/lv_win.c **** 
 357              		.loc 1 85 1 view .LVU74
 358 0008 08BD     		pop	{r3, pc}
 359              		.cfi_endproc
 360              	.LFE208:
 362              		.section	.bss.create_header_height,"aw",%nobits
 363              		.align	1
 366              	create_header_height:
 367 0000 0000     		.space	2
ARM GAS  /var/folders/21/t9g5rlb91ys800n5npymflf80000gn/T//ccDybqAE.s 			page 10


 368              		.global	lv_win_class
 369              		.section	.rodata.lv_win_class,"a"
 370              		.align	2
 373              	lv_win_class:
 374 0000 00000000 		.word	lv_obj_class
 375 0004 00000000 		.word	lv_win_constructor
 376 0008 00000000 		.space	12
 376      00000000 
 376      00000000 
 377 0014 6420     		.short	8292
 378 0016 6420     		.short	8292
 379 0018 40       		.byte	64
 380 0019 02       		.byte	2
 381 001a 00       		.byte	0
 382 001b 00       		.space	1
 383              		.text
 384              	.Letext0:
 385              		.file 2 "/usr/local/include/sys/_types/_int16_t.h"
 386              		.file 3 "/usr/local/include/sys/_types/_int32_t.h"
 387              		.file 4 "/usr/local/include/_types/_uint8_t.h"
 388              		.file 5 "/usr/local/include/_types/_uint16_t.h"
 389              		.file 6 "/usr/local/include/_types/_uint32_t.h"
 390              		.file 7 "lvgl/src/extra/widgets/win/../../../../src/hal/../draw/../misc/../font/../misc/lv_area.h"
 391              		.file 8 "lvgl/src/extra/widgets/win/../../../../src/hal/../draw/../misc/lv_color.h"
 392              		.file 9 "lvgl/src/extra/widgets/win/../../../../src/hal/../draw/../misc/lv_style.h"
 393              		.file 10 "lvgl/src/extra/widgets/win/../../../../src/core/lv_obj.h"
 394              		.file 11 "lvgl/src/extra/widgets/win/../../../../src/hal/../misc/lv_ll.h"
 395              		.file 12 "lvgl/src/extra/widgets/win/../../../../src/core/lv_group.h"
 396              		.file 13 "lvgl/src/extra/widgets/win/../../../../src/core/lv_obj_scroll.h"
 397              		.file 14 "lvgl/src/extra/widgets/win/../../../../src/core/lv_obj_style.h"
 398              		.file 15 "lvgl/src/extra/widgets/win/../../../../src/core/lv_obj_class.h"
 399              		.file 16 "lvgl/src/extra/widgets/win/../../../../src/core/lv_event.h"
 400              		.file 17 "lvgl/src/extra/widgets/win/../../../../src/widgets/lv_label.h"
 401              		.file 18 "lvgl/src/extra/widgets/win/../../../../src/widgets/lv_bar.h"
 402              		.file 19 "lvgl/src/extra/widgets/win/../../../../src/extra/layouts/flex/lv_flex.h"
 403              		.file 20 "lvgl/src/extra/widgets/win/../../../../src/extra/widgets/imgbtn/lv_imgbtn.h"
 404              		.file 21 "lvgl/src/extra/widgets/win/lv_win.h"
 405              		.file 22 "lvgl/src/extra/widgets/win/../../../../src/hal/../draw/sw/../../core/lv_obj_pos.h"
 406              		.file 23 "lvgl/src/extra/widgets/win/../../../../src/widgets/lv_img.h"
 407              		.file 24 "lvgl/src/extra/widgets/win/../../../../src/core/lv_obj_tree.h"
 408              		.file 25 "lvgl/src/extra/widgets/win/../../../../src/widgets/lv_btn.h"
ARM GAS  /var/folders/21/t9g5rlb91ys800n5npymflf80000gn/T//ccDybqAE.s 			page 11

