ARM GAS  /var/folders/21/t9g5rlb91ys800n5npymflf80000gn/T//cckvmPND.s 			page 1


   1              		.cpu cortex-m4
   2              		.arch armv7e-m
   3              		.fpu fpv4-sp-d16
   4              		.eabi_attribute 27, 1
   5              		.eabi_attribute 28, 1
   6              		.eabi_attribute 20, 1
   7              		.eabi_attribute 21, 1
   8              		.eabi_attribute 23, 3
   9              		.eabi_attribute 24, 1
  10              		.eabi_attribute 25, 1
  11              		.eabi_attribute 26, 1
  12              		.eabi_attribute 30, 1
  13              		.eabi_attribute 34, 1
  14              		.eabi_attribute 18, 4
  15              		.file	"message_layer.c"
  16              		.text
  17              	.Ltext0:
  18              		.cfi_sections	.debug_frame
  19              		.file 1 "user/drivers/DMP/mllite/message_layer.c"
  20              		.section	.text.inv_set_message,"ax",%progbits
  21              		.align	1
  22              		.global	inv_set_message
  23              		.syntax unified
  24              		.thumb
  25              		.thumb_func
  27              	inv_set_message:
  28              	.LVL0:
  29              	.LFB10:
   1:user/drivers/DMP/mllite/message_layer.c **** /*
   2:user/drivers/DMP/mllite/message_layer.c ****  $License:
   3:user/drivers/DMP/mllite/message_layer.c ****     Copyright (C) 2011-2012 InvenSense Corporation, All Rights Reserved.
   4:user/drivers/DMP/mllite/message_layer.c ****     See included License.txt for License information.
   5:user/drivers/DMP/mllite/message_layer.c ****  $
   6:user/drivers/DMP/mllite/message_layer.c ****  */
   7:user/drivers/DMP/mllite/message_layer.c **** /**
   8:user/drivers/DMP/mllite/message_layer.c ****  *   @defgroup  Message_Layer message_layer
   9:user/drivers/DMP/mllite/message_layer.c ****  *   @brief     Motion Library - Message Layer
  10:user/drivers/DMP/mllite/message_layer.c ****  *              Holds Low Occurance messages
  11:user/drivers/DMP/mllite/message_layer.c ****  *
  12:user/drivers/DMP/mllite/message_layer.c ****  *   @{
  13:user/drivers/DMP/mllite/message_layer.c ****  *       @file message_layer.c
  14:user/drivers/DMP/mllite/message_layer.c ****  *       @brief Holds Low Occurance Messages.
  15:user/drivers/DMP/mllite/message_layer.c ****  */
  16:user/drivers/DMP/mllite/message_layer.c **** #include "message_layer.h"
  17:user/drivers/DMP/mllite/message_layer.c **** #include "log.h"
  18:user/drivers/DMP/mllite/message_layer.c **** 
  19:user/drivers/DMP/mllite/message_layer.c **** struct message_holder_t {
  20:user/drivers/DMP/mllite/message_layer.c ****     long message;
  21:user/drivers/DMP/mllite/message_layer.c **** };
  22:user/drivers/DMP/mllite/message_layer.c **** 
  23:user/drivers/DMP/mllite/message_layer.c **** static struct message_holder_t mh;
  24:user/drivers/DMP/mllite/message_layer.c **** 
  25:user/drivers/DMP/mllite/message_layer.c **** /** Sets a message.
  26:user/drivers/DMP/mllite/message_layer.c **** * @param[in] set The flags to set.
  27:user/drivers/DMP/mllite/message_layer.c **** * @param[in] clear Before setting anything this will clear these messages,
  28:user/drivers/DMP/mllite/message_layer.c **** *                  which is useful for mutually exclusive messages such
  29:user/drivers/DMP/mllite/message_layer.c **** *                  a motion or no motion message.
ARM GAS  /var/folders/21/t9g5rlb91ys800n5npymflf80000gn/T//cckvmPND.s 			page 2


  30:user/drivers/DMP/mllite/message_layer.c **** * @param[in] level Level of the messages. It starts at 0, and may increase
  31:user/drivers/DMP/mllite/message_layer.c **** *            in the future to allow more messages if the bit storage runs out.
  32:user/drivers/DMP/mllite/message_layer.c **** */
  33:user/drivers/DMP/mllite/message_layer.c **** void inv_set_message(long set, long clear, int level)
  34:user/drivers/DMP/mllite/message_layer.c **** {
  30              		.loc 1 34 1 view -0
  31              		.cfi_startproc
  32              		@ args = 0, pretend = 0, frame = 0
  33              		@ frame_needed = 0, uses_anonymous_args = 0
  34              		@ link register save eliminated.
  35:user/drivers/DMP/mllite/message_layer.c ****     if (level == 0) {
  35              		.loc 1 35 5 view .LVU1
  36              		.loc 1 35 8 is_stmt 0 view .LVU2
  37 0000 32B9     		cbnz	r2, .L1
  36:user/drivers/DMP/mllite/message_layer.c ****         mh.message &= ~clear;
  38              		.loc 1 36 9 is_stmt 1 view .LVU3
  39              		.loc 1 36 11 is_stmt 0 view .LVU4
  40 0002 044A     		ldr	r2, .L3
  41              	.LVL1:
  42              		.loc 1 36 11 view .LVU5
  43 0004 1368     		ldr	r3, [r2]
  44              		.loc 1 36 20 view .LVU6
  45 0006 23EA0101 		bic	r1, r3, r1
  46              	.LVL2:
  47              		.loc 1 36 20 view .LVU7
  48 000a 1160     		str	r1, [r2]
  37:user/drivers/DMP/mllite/message_layer.c ****         mh.message |= set;
  49              		.loc 1 37 9 is_stmt 1 view .LVU8
  50              		.loc 1 37 20 is_stmt 0 view .LVU9
  51 000c 0843     		orrs	r0, r0, r1
  52              	.LVL3:
  53              		.loc 1 37 20 view .LVU10
  54 000e 1060     		str	r0, [r2]
  55              	.L1:
  38:user/drivers/DMP/mllite/message_layer.c ****     }
  39:user/drivers/DMP/mllite/message_layer.c **** }
  56              		.loc 1 39 1 view .LVU11
  57 0010 7047     		bx	lr
  58              	.L4:
  59 0012 00BF     		.align	2
  60              	.L3:
  61 0014 00000000 		.word	mh
  62              		.cfi_endproc
  63              	.LFE10:
  65              		.section	.text.inv_get_message_level_0,"ax",%progbits
  66              		.align	1
  67              		.global	inv_get_message_level_0
  68              		.syntax unified
  69              		.thumb
  70              		.thumb_func
  72              	inv_get_message_level_0:
  73              	.LVL4:
  74              	.LFB11:
  40:user/drivers/DMP/mllite/message_layer.c **** 
  41:user/drivers/DMP/mllite/message_layer.c **** /** Returns Message Flags for Level 0 Messages.
  42:user/drivers/DMP/mllite/message_layer.c **** * Levels are to allow expansion of more messages in the future.
  43:user/drivers/DMP/mllite/message_layer.c **** * @param[in] clear If set, will clear the message. Typically this will be set
ARM GAS  /var/folders/21/t9g5rlb91ys800n5npymflf80000gn/T//cckvmPND.s 			page 3


  44:user/drivers/DMP/mllite/message_layer.c **** *  for one reader, so that you don't get the same message over and over.
  45:user/drivers/DMP/mllite/message_layer.c **** * @return bit field to corresponding message.
  46:user/drivers/DMP/mllite/message_layer.c **** */
  47:user/drivers/DMP/mllite/message_layer.c **** long inv_get_message_level_0(int clear)
  48:user/drivers/DMP/mllite/message_layer.c **** {
  75              		.loc 1 48 1 is_stmt 1 view -0
  76              		.cfi_startproc
  77              		@ args = 0, pretend = 0, frame = 0
  78              		@ frame_needed = 0, uses_anonymous_args = 0
  79              		@ link register save eliminated.
  49:user/drivers/DMP/mllite/message_layer.c ****     long msg;
  80              		.loc 1 49 5 view .LVU13
  50:user/drivers/DMP/mllite/message_layer.c ****     msg = mh.message;
  81              		.loc 1 50 5 view .LVU14
  82              		.loc 1 50 9 is_stmt 0 view .LVU15
  83 0000 034B     		ldr	r3, .L7
  84 0002 1B68     		ldr	r3, [r3]
  85              	.LVL5:
  51:user/drivers/DMP/mllite/message_layer.c ****     if (clear) {
  86              		.loc 1 51 5 is_stmt 1 view .LVU16
  87              		.loc 1 51 8 is_stmt 0 view .LVU17
  88 0004 10B1     		cbz	r0, .L5
  52:user/drivers/DMP/mllite/message_layer.c ****         mh.message = 0;
  89              		.loc 1 52 9 is_stmt 1 view .LVU18
  90              		.loc 1 52 20 is_stmt 0 view .LVU19
  91 0006 024A     		ldr	r2, .L7
  92 0008 0021     		movs	r1, #0
  93 000a 1160     		str	r1, [r2]
  53:user/drivers/DMP/mllite/message_layer.c ****     }
  54:user/drivers/DMP/mllite/message_layer.c ****     return msg;
  94              		.loc 1 54 5 is_stmt 1 view .LVU20
  95              	.L5:
  55:user/drivers/DMP/mllite/message_layer.c **** }
  96              		.loc 1 55 1 is_stmt 0 view .LVU21
  97 000c 1846     		mov	r0, r3
  98              	.LVL6:
  99              		.loc 1 55 1 view .LVU22
 100 000e 7047     		bx	lr
 101              	.L8:
 102              		.align	2
 103              	.L7:
 104 0010 00000000 		.word	mh
 105              		.cfi_endproc
 106              	.LFE11:
 108              		.section	.bss.mh,"aw",%nobits
 109              		.align	2
 112              	mh:
 113 0000 00000000 		.space	4
 114              		.text
 115              	.Letext0:
ARM GAS  /var/folders/21/t9g5rlb91ys800n5npymflf80000gn/T//cckvmPND.s 			page 4


DEFINED SYMBOLS
                            *ABS*:00000000 message_layer.c
/var/folders/21/t9g5rlb91ys800n5npymflf80000gn/T//cckvmPND.s:21     .text.inv_set_message:00000000 $t
/var/folders/21/t9g5rlb91ys800n5npymflf80000gn/T//cckvmPND.s:27     .text.inv_set_message:00000000 inv_set_message
/var/folders/21/t9g5rlb91ys800n5npymflf80000gn/T//cckvmPND.s:61     .text.inv_set_message:00000014 $d
/var/folders/21/t9g5rlb91ys800n5npymflf80000gn/T//cckvmPND.s:112    .bss.mh:00000000 mh
/var/folders/21/t9g5rlb91ys800n5npymflf80000gn/T//cckvmPND.s:66     .text.inv_get_message_level_0:00000000 $t
/var/folders/21/t9g5rlb91ys800n5npymflf80000gn/T//cckvmPND.s:72     .text.inv_get_message_level_0:00000000 inv_get_message_level_0
/var/folders/21/t9g5rlb91ys800n5npymflf80000gn/T//cckvmPND.s:104    .text.inv_get_message_level_0:00000010 $d
/var/folders/21/t9g5rlb91ys800n5npymflf80000gn/T//cckvmPND.s:109    .bss.mh:00000000 $d

NO UNDEFINED SYMBOLS
