ARM GAS  /var/folders/21/t9g5rlb91ys800n5npymflf80000gn/T//cc5g3ium.s 			page 1


   1              		.cpu cortex-m4
   2              		.arch armv7e-m
   3              		.fpu fpv4-sp-d16
   4              		.eabi_attribute 27, 1
   5              		.eabi_attribute 28, 1
   6              		.eabi_attribute 20, 1
   7              		.eabi_attribute 21, 1
   8              		.eabi_attribute 23, 3
   9              		.eabi_attribute 24, 1
  10              		.eabi_attribute 25, 1
  11              		.eabi_attribute 26, 1
  12              		.eabi_attribute 30, 1
  13              		.eabi_attribute 34, 1
  14              		.eabi_attribute 18, 4
  15              		.file	"ml_math_func.c"
  16              		.text
  17              	.Ltext0:
  18              		.cfi_sections	.debug_frame
  19              		.file 1 "DMP/mllite/ml_math_func.c"
  20              		.section	.text.inv_row_2_scale,"ax",%progbits
  21              		.align	1
  22              		.syntax unified
  23              		.thumb
  24              		.thumb_func
  26              	inv_row_2_scale:
  27              	.LVL0:
  28              	.LFB58:
   1:DMP/mllite/ml_math_func.c **** /*
   2:DMP/mllite/ml_math_func.c ****  $License:
   3:DMP/mllite/ml_math_func.c ****     Copyright (C) 2011-2012 InvenSense Corporation, All Rights Reserved.
   4:DMP/mllite/ml_math_func.c ****     See included License.txt for License information.
   5:DMP/mllite/ml_math_func.c ****  $
   6:DMP/mllite/ml_math_func.c ****  */
   7:DMP/mllite/ml_math_func.c **** 
   8:DMP/mllite/ml_math_func.c **** /*******************************************************************************
   9:DMP/mllite/ml_math_func.c ****  *
  10:DMP/mllite/ml_math_func.c ****  * $Id:$
  11:DMP/mllite/ml_math_func.c ****  *
  12:DMP/mllite/ml_math_func.c ****  ******************************************************************************/
  13:DMP/mllite/ml_math_func.c **** 
  14:DMP/mllite/ml_math_func.c **** /**
  15:DMP/mllite/ml_math_func.c ****  *   @defgroup  ML_MATH_FUNC ml_math_func
  16:DMP/mllite/ml_math_func.c ****  *   @brief     Motion Library - Math Functions
  17:DMP/mllite/ml_math_func.c ****  *              Common math functions the Motion Library
  18:DMP/mllite/ml_math_func.c ****  *
  19:DMP/mllite/ml_math_func.c ****  *   @{
  20:DMP/mllite/ml_math_func.c ****  *       @file ml_math_func.c
  21:DMP/mllite/ml_math_func.c ****  *       @brief Math Functions.
  22:DMP/mllite/ml_math_func.c ****  */
  23:DMP/mllite/ml_math_func.c **** 
  24:DMP/mllite/ml_math_func.c **** #include "mlmath.h"
  25:DMP/mllite/ml_math_func.c **** #include "ml_math_func.h"
  26:DMP/mllite/ml_math_func.c **** #include "mlinclude.h"
  27:DMP/mllite/ml_math_func.c **** #include <string.h>
  28:DMP/mllite/ml_math_func.c **** 
  29:DMP/mllite/ml_math_func.c **** #ifdef EMPL
  30:DMP/mllite/ml_math_func.c **** #define TABLE_SIZE (256)
ARM GAS  /var/folders/21/t9g5rlb91ys800n5npymflf80000gn/T//cc5g3ium.s 			page 2


  31:DMP/mllite/ml_math_func.c **** 
  32:DMP/mllite/ml_math_func.c **** /* TODO: If memory becomes a big issue, we can just store the data for a single
  33:DMP/mllite/ml_math_func.c ****  * quadrant and transform the inputs and outputs of the lookup functions.
  34:DMP/mllite/ml_math_func.c ****  */
  35:DMP/mllite/ml_math_func.c **** const float sin_lookup[TABLE_SIZE] = {
  36:DMP/mllite/ml_math_func.c ****     0.000000f, 0.024541f, 0.049068f, 0.073565f, 0.098017f, 0.122411f, 0.146730f, 0.170962f,
  37:DMP/mllite/ml_math_func.c ****     0.195090f, 0.219101f, 0.242980f, 0.266713f, 0.290285f, 0.313682f, 0.336890f, 0.359895f,
  38:DMP/mllite/ml_math_func.c ****     0.382683f, 0.405241f, 0.427555f, 0.449611f, 0.471397f, 0.492898f, 0.514103f, 0.534998f,
  39:DMP/mllite/ml_math_func.c ****     0.555570f, 0.575808f, 0.595699f, 0.615232f, 0.634393f, 0.653173f, 0.671559f, 0.689541f,
  40:DMP/mllite/ml_math_func.c ****     0.707107f, 0.724247f, 0.740951f, 0.757209f, 0.773010f, 0.788346f, 0.803208f, 0.817585f,
  41:DMP/mllite/ml_math_func.c ****     0.831470f, 0.844854f, 0.857729f, 0.870087f, 0.881921f, 0.893224f, 0.903989f, 0.914210f,
  42:DMP/mllite/ml_math_func.c ****     0.923880f, 0.932993f, 0.941544f, 0.949528f, 0.956940f, 0.963776f, 0.970031f, 0.975702f,
  43:DMP/mllite/ml_math_func.c ****     0.980785f, 0.985278f, 0.989177f, 0.992480f, 0.995185f, 0.997290f, 0.998795f, 0.999699f,
  44:DMP/mllite/ml_math_func.c ****     1.000000f, 0.999699f, 0.998795f, 0.997290f, 0.995185f, 0.992480f, 0.989177f, 0.985278f,
  45:DMP/mllite/ml_math_func.c ****     0.980785f, 0.975702f, 0.970031f, 0.963776f, 0.956940f, 0.949528f, 0.941544f, 0.932993f,
  46:DMP/mllite/ml_math_func.c ****     0.923880f, 0.914210f, 0.903989f, 0.893224f, 0.881921f, 0.870087f, 0.857729f, 0.844854f,
  47:DMP/mllite/ml_math_func.c ****     0.831470f, 0.817585f, 0.803208f, 0.788346f, 0.773010f, 0.757209f, 0.740951f, 0.724247f,
  48:DMP/mllite/ml_math_func.c ****     0.707107f, 0.689541f, 0.671559f, 0.653173f, 0.634393f, 0.615232f, 0.595699f, 0.575808f,
  49:DMP/mllite/ml_math_func.c ****     0.555570f, 0.534998f, 0.514103f, 0.492898f, 0.471397f, 0.449611f, 0.427555f, 0.405241f,
  50:DMP/mllite/ml_math_func.c ****     0.382683f, 0.359895f, 0.336890f, 0.313682f, 0.290285f, 0.266713f, 0.242980f, 0.219101f,
  51:DMP/mllite/ml_math_func.c ****     0.195091f, 0.170962f, 0.146731f, 0.122411f, 0.098017f, 0.073565f, 0.049068f, 0.024541f,
  52:DMP/mllite/ml_math_func.c ****     0.000000f, -0.024541f, -0.049067f, -0.073564f, -0.098017f, -0.122411f, -0.146730f, -0.170962f,
  53:DMP/mllite/ml_math_func.c ****     -0.195090f, -0.219101f, -0.242980f, -0.266713f, -0.290284f, -0.313682f, -0.336890f, -0.359895f,
  54:DMP/mllite/ml_math_func.c ****     -0.382683f, -0.405241f, -0.427555f, -0.449611f, -0.471397f, -0.492898f, -0.514103f, -0.534997f,
  55:DMP/mllite/ml_math_func.c ****     -0.555570f, -0.575808f, -0.595699f, -0.615231f, -0.634393f, -0.653173f, -0.671559f, -0.689540f,
  56:DMP/mllite/ml_math_func.c ****     -0.707107f, -0.724247f, -0.740951f, -0.757209f, -0.773010f, -0.788346f, -0.803207f, -0.817585f,
  57:DMP/mllite/ml_math_func.c ****     -0.831469f, -0.844853f, -0.857729f, -0.870087f, -0.881921f, -0.893224f, -0.903989f, -0.914210f,
  58:DMP/mllite/ml_math_func.c ****     -0.923880f, -0.932993f, -0.941544f, -0.949528f, -0.956940f, -0.963776f, -0.970031f, -0.975702f,
  59:DMP/mllite/ml_math_func.c ****     -0.980785f, -0.985278f, -0.989176f, -0.992480f, -0.995185f, -0.997290f, -0.998795f, -0.999699f,
  60:DMP/mllite/ml_math_func.c ****     -1.000000f, -0.999699f, -0.998795f, -0.997290f, -0.995185f, -0.992480f, -0.989177f, -0.985278f,
  61:DMP/mllite/ml_math_func.c ****     -0.980785f, -0.975702f, -0.970031f, -0.963776f, -0.956940f, -0.949528f, -0.941544f, -0.932993f,
  62:DMP/mllite/ml_math_func.c ****     -0.923880f, -0.914210f, -0.903989f, -0.893224f, -0.881921f, -0.870087f, -0.857729f, -0.844854f,
  63:DMP/mllite/ml_math_func.c ****     -0.831470f, -0.817585f, -0.803208f, -0.788347f, -0.773011f, -0.757209f, -0.740951f, -0.724247f,
  64:DMP/mllite/ml_math_func.c ****     -0.707107f, -0.689541f, -0.671559f, -0.653173f, -0.634394f, -0.615232f, -0.595699f, -0.575808f,
  65:DMP/mllite/ml_math_func.c ****     -0.555570f, -0.534998f, -0.514103f, -0.492898f, -0.471397f, -0.449612f, -0.427555f, -0.405241f,
  66:DMP/mllite/ml_math_func.c ****     -0.382684f, -0.359895f, -0.336890f, -0.313682f, -0.290285f, -0.266713f, -0.242981f, -0.219102f,
  67:DMP/mllite/ml_math_func.c ****     -0.195091f, -0.170962f, -0.146731f, -0.122411f, -0.098017f, -0.073565f, -0.049068f, -0.024542f
  68:DMP/mllite/ml_math_func.c **** };
  69:DMP/mllite/ml_math_func.c **** 
  70:DMP/mllite/ml_math_func.c **** float inv_sinf(float x)
  71:DMP/mllite/ml_math_func.c **** {
  72:DMP/mllite/ml_math_func.c ****     int index = (unsigned int)((x * (TABLE_SIZE>>1)) / 3.14159f) % TABLE_SIZE;
  73:DMP/mllite/ml_math_func.c ****     return sin_lookup[index];
  74:DMP/mllite/ml_math_func.c **** }
  75:DMP/mllite/ml_math_func.c **** 
  76:DMP/mllite/ml_math_func.c **** float inv_cosf(float x)
  77:DMP/mllite/ml_math_func.c **** {
  78:DMP/mllite/ml_math_func.c ****     int index = ((unsigned int)((x * (TABLE_SIZE>>1)) / 3.14159f) + (TABLE_SIZE>>2)) % TABLE_SIZE;
  79:DMP/mllite/ml_math_func.c ****     return sin_lookup[index];
  80:DMP/mllite/ml_math_func.c **** }
  81:DMP/mllite/ml_math_func.c **** #endif
  82:DMP/mllite/ml_math_func.c **** 
  83:DMP/mllite/ml_math_func.c **** /** @internal
  84:DMP/mllite/ml_math_func.c ****  * Does the cross product of compass by gravity, then converts that
  85:DMP/mllite/ml_math_func.c ****  * to the world frame using the quaternion, then computes the angle that
  86:DMP/mllite/ml_math_func.c ****  * is made.
  87:DMP/mllite/ml_math_func.c ****  *
ARM GAS  /var/folders/21/t9g5rlb91ys800n5npymflf80000gn/T//cc5g3ium.s 			page 3


  88:DMP/mllite/ml_math_func.c ****  * @param[in] compass Compass Vector (Body Frame), length 3
  89:DMP/mllite/ml_math_func.c ****  * @param[in] grav Gravity Vector (Body Frame), length 3
  90:DMP/mllite/ml_math_func.c ****  * @param[in] quat Quaternion, Length 4
  91:DMP/mllite/ml_math_func.c ****  * @return Angle Cross Product makes after quaternion rotation.
  92:DMP/mllite/ml_math_func.c ****  */
  93:DMP/mllite/ml_math_func.c **** float inv_compass_angle(const long *compass, const long *grav, const long *quat)
  94:DMP/mllite/ml_math_func.c **** {
  95:DMP/mllite/ml_math_func.c ****     long cgcross[4], q1[4], q2[4], qi[4];
  96:DMP/mllite/ml_math_func.c ****     float angW;
  97:DMP/mllite/ml_math_func.c **** 
  98:DMP/mllite/ml_math_func.c ****     // Compass cross Gravity
  99:DMP/mllite/ml_math_func.c ****     cgcross[0] = 0L;
 100:DMP/mllite/ml_math_func.c ****     cgcross[1] = inv_q30_mult(compass[1], grav[2]) - inv_q30_mult(compass[2], grav[1]);
 101:DMP/mllite/ml_math_func.c ****     cgcross[2] = inv_q30_mult(compass[2], grav[0]) - inv_q30_mult(compass[0], grav[2]);
 102:DMP/mllite/ml_math_func.c ****     cgcross[3] = inv_q30_mult(compass[0], grav[1]) - inv_q30_mult(compass[1], grav[0]);
 103:DMP/mllite/ml_math_func.c **** 
 104:DMP/mllite/ml_math_func.c ****     // Now convert cross product into world frame
 105:DMP/mllite/ml_math_func.c ****     inv_q_mult(quat, cgcross, q1);
 106:DMP/mllite/ml_math_func.c ****     inv_q_invert(quat, qi);
 107:DMP/mllite/ml_math_func.c ****     inv_q_mult(q1, qi, q2);
 108:DMP/mllite/ml_math_func.c **** 
 109:DMP/mllite/ml_math_func.c ****     // Protect against atan2 of 0,0
 110:DMP/mllite/ml_math_func.c ****     if ((q2[2] == 0L) && (q2[1] == 0L))
 111:DMP/mllite/ml_math_func.c ****         return 0.f;
 112:DMP/mllite/ml_math_func.c **** 
 113:DMP/mllite/ml_math_func.c ****     // This is the unfiltered heading correction
 114:DMP/mllite/ml_math_func.c ****     angW = -atan2f(inv_q30_to_float(q2[2]), inv_q30_to_float(q2[1]));
 115:DMP/mllite/ml_math_func.c ****     return angW;
 116:DMP/mllite/ml_math_func.c **** }
 117:DMP/mllite/ml_math_func.c **** 
 118:DMP/mllite/ml_math_func.c **** /**
 119:DMP/mllite/ml_math_func.c ****  *  @brief  The gyro data magnitude squared :
 120:DMP/mllite/ml_math_func.c ****  *          (1 degree per second)^2 = 2^6 = 2^GYRO_MAG_SQR_SHIFT.
 121:DMP/mllite/ml_math_func.c ****  * @param[in] gyro Gyro data scaled with 1 dps = 2^16
 122:DMP/mllite/ml_math_func.c ****  *  @return the computed magnitude squared output of the gyroscope.
 123:DMP/mllite/ml_math_func.c ****  */
 124:DMP/mllite/ml_math_func.c **** unsigned long inv_get_gyro_sum_of_sqr(const long *gyro)
 125:DMP/mllite/ml_math_func.c **** {
 126:DMP/mllite/ml_math_func.c ****     unsigned long gmag = 0;
 127:DMP/mllite/ml_math_func.c ****     long temp;
 128:DMP/mllite/ml_math_func.c ****     int kk;
 129:DMP/mllite/ml_math_func.c **** 
 130:DMP/mllite/ml_math_func.c ****     for (kk = 0; kk < 3; ++kk) {
 131:DMP/mllite/ml_math_func.c ****         temp = gyro[kk] >> (16 - (GYRO_MAG_SQR_SHIFT / 2));
 132:DMP/mllite/ml_math_func.c ****         gmag += temp * temp;
 133:DMP/mllite/ml_math_func.c ****     }
 134:DMP/mllite/ml_math_func.c **** 
 135:DMP/mllite/ml_math_func.c ****     return gmag;
 136:DMP/mllite/ml_math_func.c **** }
 137:DMP/mllite/ml_math_func.c **** 
 138:DMP/mllite/ml_math_func.c **** /** Performs a multiply and shift by 29. These are good functions to write in assembly on
 139:DMP/mllite/ml_math_func.c ****  * with devices with small memory where you want to get rid of the long long which some
 140:DMP/mllite/ml_math_func.c ****  * assemblers don't handle well
 141:DMP/mllite/ml_math_func.c ****  * @param[in] a
 142:DMP/mllite/ml_math_func.c ****  * @param[in] b
 143:DMP/mllite/ml_math_func.c ****  * @return ((long long)a*b)>>29
 144:DMP/mllite/ml_math_func.c **** */
ARM GAS  /var/folders/21/t9g5rlb91ys800n5npymflf80000gn/T//cc5g3ium.s 			page 4


 145:DMP/mllite/ml_math_func.c **** long inv_q29_mult(long a, long b)
 146:DMP/mllite/ml_math_func.c **** {
 147:DMP/mllite/ml_math_func.c **** #ifdef EMPL_NO_64BIT
 148:DMP/mllite/ml_math_func.c ****     long result;
 149:DMP/mllite/ml_math_func.c ****     result = (long)((float)a * b / (1L << 29));
 150:DMP/mllite/ml_math_func.c ****     return result;
 151:DMP/mllite/ml_math_func.c **** #else
 152:DMP/mllite/ml_math_func.c ****     long long temp;
 153:DMP/mllite/ml_math_func.c ****     long result;
 154:DMP/mllite/ml_math_func.c ****     temp = (long long)a * b;
 155:DMP/mllite/ml_math_func.c ****     result = (long)(temp >> 29);
 156:DMP/mllite/ml_math_func.c ****     return result;
 157:DMP/mllite/ml_math_func.c **** #endif
 158:DMP/mllite/ml_math_func.c **** }
 159:DMP/mllite/ml_math_func.c **** 
 160:DMP/mllite/ml_math_func.c **** /** Performs a multiply and shift by 30. These are good functions to write in assembly on
 161:DMP/mllite/ml_math_func.c ****  * with devices with small memory where you want to get rid of the long long which some
 162:DMP/mllite/ml_math_func.c ****  * assemblers don't handle well
 163:DMP/mllite/ml_math_func.c ****  * @param[in] a
 164:DMP/mllite/ml_math_func.c ****  * @param[in] b
 165:DMP/mllite/ml_math_func.c ****  * @return ((long long)a*b)>>30
 166:DMP/mllite/ml_math_func.c **** */
 167:DMP/mllite/ml_math_func.c **** long inv_q30_mult(long a, long b)
 168:DMP/mllite/ml_math_func.c **** {
 169:DMP/mllite/ml_math_func.c **** #ifdef EMPL_NO_64BIT
 170:DMP/mllite/ml_math_func.c ****     long result;
 171:DMP/mllite/ml_math_func.c ****     result = (long)((float)a * b / (1L << 30));
 172:DMP/mllite/ml_math_func.c ****     return result;
 173:DMP/mllite/ml_math_func.c **** #else
 174:DMP/mllite/ml_math_func.c ****     long long temp;
 175:DMP/mllite/ml_math_func.c ****     long result;
 176:DMP/mllite/ml_math_func.c ****     temp = (long long)a * b;
 177:DMP/mllite/ml_math_func.c ****     result = (long)(temp >> 30);
 178:DMP/mllite/ml_math_func.c ****     return result;
 179:DMP/mllite/ml_math_func.c **** #endif
 180:DMP/mllite/ml_math_func.c **** }
 181:DMP/mllite/ml_math_func.c **** 
 182:DMP/mllite/ml_math_func.c **** #ifndef EMPL_NO_64BIT
 183:DMP/mllite/ml_math_func.c **** long inv_q30_div(long a, long b)
 184:DMP/mllite/ml_math_func.c **** {
 185:DMP/mllite/ml_math_func.c ****     long long temp;
 186:DMP/mllite/ml_math_func.c ****     long result;
 187:DMP/mllite/ml_math_func.c ****     temp = (((long long)a) << 30) / b;
 188:DMP/mllite/ml_math_func.c ****     result = (long)temp;
 189:DMP/mllite/ml_math_func.c ****     return result;
 190:DMP/mllite/ml_math_func.c **** }
 191:DMP/mllite/ml_math_func.c **** #endif
 192:DMP/mllite/ml_math_func.c **** 
 193:DMP/mllite/ml_math_func.c **** /** Performs a multiply and shift by shift. These are good functions to write
 194:DMP/mllite/ml_math_func.c ****  * in assembly on with devices with small memory where you want to get rid of
 195:DMP/mllite/ml_math_func.c ****  * the long long which some assemblers don't handle well
 196:DMP/mllite/ml_math_func.c ****  * @param[in] a First multicand
 197:DMP/mllite/ml_math_func.c ****  * @param[in] b Second multicand
 198:DMP/mllite/ml_math_func.c ****  * @param[in] shift Shift amount after multiplying
 199:DMP/mllite/ml_math_func.c ****  * @return ((long long)a*b)<<shift
 200:DMP/mllite/ml_math_func.c **** */
 201:DMP/mllite/ml_math_func.c **** #ifndef EMPL_NO_64BIT
ARM GAS  /var/folders/21/t9g5rlb91ys800n5npymflf80000gn/T//cc5g3ium.s 			page 5


 202:DMP/mllite/ml_math_func.c **** long inv_q_shift_mult(long a, long b, int shift)
 203:DMP/mllite/ml_math_func.c **** {
 204:DMP/mllite/ml_math_func.c ****     long result;
 205:DMP/mllite/ml_math_func.c ****     result = (long)(((long long)a * b) >> shift);
 206:DMP/mllite/ml_math_func.c ****     return result;
 207:DMP/mllite/ml_math_func.c **** }
 208:DMP/mllite/ml_math_func.c **** #endif
 209:DMP/mllite/ml_math_func.c **** 
 210:DMP/mllite/ml_math_func.c **** /** Performs a fixed point quaternion multiply.
 211:DMP/mllite/ml_math_func.c **** * @param[in] q1 First Quaternion Multicand, length 4. 1.0 scaled
 212:DMP/mllite/ml_math_func.c **** *            to 2^30
 213:DMP/mllite/ml_math_func.c **** * @param[in] q2 Second Quaternion Multicand, length 4. 1.0 scaled
 214:DMP/mllite/ml_math_func.c **** *            to 2^30
 215:DMP/mllite/ml_math_func.c **** * @param[out] qProd Product after quaternion multiply. Length 4.
 216:DMP/mllite/ml_math_func.c **** *             1.0 scaled to 2^30.
 217:DMP/mllite/ml_math_func.c **** */
 218:DMP/mllite/ml_math_func.c **** void inv_q_mult(const long *q1, const long *q2, long *qProd)
 219:DMP/mllite/ml_math_func.c **** {
 220:DMP/mllite/ml_math_func.c ****     INVENSENSE_FUNC_START;
 221:DMP/mllite/ml_math_func.c ****     qProd[0] = inv_q30_mult(q1[0], q2[0]) - inv_q30_mult(q1[1], q2[1]) -
 222:DMP/mllite/ml_math_func.c ****                inv_q30_mult(q1[2], q2[2]) - inv_q30_mult(q1[3], q2[3]);
 223:DMP/mllite/ml_math_func.c **** 
 224:DMP/mllite/ml_math_func.c ****     qProd[1] = inv_q30_mult(q1[0], q2[1]) + inv_q30_mult(q1[1], q2[0]) +
 225:DMP/mllite/ml_math_func.c ****                inv_q30_mult(q1[2], q2[3]) - inv_q30_mult(q1[3], q2[2]);
 226:DMP/mllite/ml_math_func.c **** 
 227:DMP/mllite/ml_math_func.c ****     qProd[2] = inv_q30_mult(q1[0], q2[2]) - inv_q30_mult(q1[1], q2[3]) +
 228:DMP/mllite/ml_math_func.c ****                inv_q30_mult(q1[2], q2[0]) + inv_q30_mult(q1[3], q2[1]);
 229:DMP/mllite/ml_math_func.c **** 
 230:DMP/mllite/ml_math_func.c ****     qProd[3] = inv_q30_mult(q1[0], q2[3]) + inv_q30_mult(q1[1], q2[2]) -
 231:DMP/mllite/ml_math_func.c ****                inv_q30_mult(q1[2], q2[1]) + inv_q30_mult(q1[3], q2[0]);
 232:DMP/mllite/ml_math_func.c **** }
 233:DMP/mllite/ml_math_func.c **** 
 234:DMP/mllite/ml_math_func.c **** /** Performs a fixed point quaternion addition.
 235:DMP/mllite/ml_math_func.c **** * @param[in] q1 First Quaternion term, length 4. 1.0 scaled
 236:DMP/mllite/ml_math_func.c **** *            to 2^30
 237:DMP/mllite/ml_math_func.c **** * @param[in] q2 Second Quaternion term, length 4. 1.0 scaled
 238:DMP/mllite/ml_math_func.c **** *            to 2^30
 239:DMP/mllite/ml_math_func.c **** * @param[out] qSum Sum after quaternion summation. Length 4.
 240:DMP/mllite/ml_math_func.c **** *             1.0 scaled to 2^30.
 241:DMP/mllite/ml_math_func.c **** */
 242:DMP/mllite/ml_math_func.c **** void inv_q_add(long *q1, long *q2, long *qSum)
 243:DMP/mllite/ml_math_func.c **** {
 244:DMP/mllite/ml_math_func.c ****     INVENSENSE_FUNC_START;
 245:DMP/mllite/ml_math_func.c ****     qSum[0] = q1[0] + q2[0];
 246:DMP/mllite/ml_math_func.c ****     qSum[1] = q1[1] + q2[1];
 247:DMP/mllite/ml_math_func.c ****     qSum[2] = q1[2] + q2[2];
 248:DMP/mllite/ml_math_func.c ****     qSum[3] = q1[3] + q2[3];
 249:DMP/mllite/ml_math_func.c **** }
 250:DMP/mllite/ml_math_func.c **** 
 251:DMP/mllite/ml_math_func.c **** void inv_vector_normalize(long *vec, int length)
 252:DMP/mllite/ml_math_func.c **** {
 253:DMP/mllite/ml_math_func.c ****     INVENSENSE_FUNC_START;
 254:DMP/mllite/ml_math_func.c ****     double normSF = 0;
 255:DMP/mllite/ml_math_func.c ****     int ii;
 256:DMP/mllite/ml_math_func.c ****     for (ii = 0; ii < length; ii++) {
 257:DMP/mllite/ml_math_func.c ****         normSF +=
 258:DMP/mllite/ml_math_func.c ****             inv_q30_to_double(vec[ii]) * inv_q30_to_double(vec[ii]);
ARM GAS  /var/folders/21/t9g5rlb91ys800n5npymflf80000gn/T//cc5g3ium.s 			page 6


 259:DMP/mllite/ml_math_func.c ****     }
 260:DMP/mllite/ml_math_func.c ****     if (normSF > 0) {
 261:DMP/mllite/ml_math_func.c ****         normSF = 1 / sqrt(normSF);
 262:DMP/mllite/ml_math_func.c ****         for (ii = 0; ii < length; ii++) {
 263:DMP/mllite/ml_math_func.c ****             vec[ii] = (int)((double)vec[ii] * normSF);
 264:DMP/mllite/ml_math_func.c ****         }
 265:DMP/mllite/ml_math_func.c ****     } else {
 266:DMP/mllite/ml_math_func.c ****         vec[0] = 1073741824L;
 267:DMP/mllite/ml_math_func.c ****         for (ii = 1; ii < length; ii++) {
 268:DMP/mllite/ml_math_func.c ****             vec[ii] = 0;
 269:DMP/mllite/ml_math_func.c ****         }
 270:DMP/mllite/ml_math_func.c ****     }
 271:DMP/mllite/ml_math_func.c **** }
 272:DMP/mllite/ml_math_func.c **** 
 273:DMP/mllite/ml_math_func.c **** void inv_q_normalize(long *q)
 274:DMP/mllite/ml_math_func.c **** {
 275:DMP/mllite/ml_math_func.c ****     INVENSENSE_FUNC_START;
 276:DMP/mllite/ml_math_func.c ****     inv_vector_normalize(q, 4);
 277:DMP/mllite/ml_math_func.c **** }
 278:DMP/mllite/ml_math_func.c **** 
 279:DMP/mllite/ml_math_func.c **** void inv_q_invert(const long *q, long *qInverted)
 280:DMP/mllite/ml_math_func.c **** {
 281:DMP/mllite/ml_math_func.c ****     INVENSENSE_FUNC_START;
 282:DMP/mllite/ml_math_func.c ****     qInverted[0] = q[0];
 283:DMP/mllite/ml_math_func.c ****     qInverted[1] = -q[1];
 284:DMP/mllite/ml_math_func.c ****     qInverted[2] = -q[2];
 285:DMP/mllite/ml_math_func.c ****     qInverted[3] = -q[3];
 286:DMP/mllite/ml_math_func.c **** }
 287:DMP/mllite/ml_math_func.c **** 
 288:DMP/mllite/ml_math_func.c **** double quaternion_to_rotation_angle(const long *quat) {
 289:DMP/mllite/ml_math_func.c ****     double quat0 = (double )quat[0] / 1073741824;
 290:DMP/mllite/ml_math_func.c ****     if (quat0 > 1.0f) {
 291:DMP/mllite/ml_math_func.c ****         quat0 = 1.0;
 292:DMP/mllite/ml_math_func.c ****     } else if (quat0 < -1.0f) {
 293:DMP/mllite/ml_math_func.c ****         quat0 = -1.0;
 294:DMP/mllite/ml_math_func.c ****     }
 295:DMP/mllite/ml_math_func.c **** 
 296:DMP/mllite/ml_math_func.c ****     return acos(quat0)*2*180/M_PI;
 297:DMP/mllite/ml_math_func.c **** }
 298:DMP/mllite/ml_math_func.c **** 
 299:DMP/mllite/ml_math_func.c **** /** Rotates a 3-element vector by Rotation defined by Q
 300:DMP/mllite/ml_math_func.c **** */
 301:DMP/mllite/ml_math_func.c **** void inv_q_rotate(const long *q, const long *in, long *out)
 302:DMP/mllite/ml_math_func.c **** {
 303:DMP/mllite/ml_math_func.c ****     long q_temp1[4], q_temp2[4];
 304:DMP/mllite/ml_math_func.c ****     long in4[4], out4[4];
 305:DMP/mllite/ml_math_func.c **** 
 306:DMP/mllite/ml_math_func.c ****     // Fixme optimize
 307:DMP/mllite/ml_math_func.c ****     in4[0] = 0;
 308:DMP/mllite/ml_math_func.c ****     memcpy(&in4[1], in, 3 * sizeof(long));
 309:DMP/mllite/ml_math_func.c ****     inv_q_mult(q, in4, q_temp1);
 310:DMP/mllite/ml_math_func.c ****     inv_q_invert(q, q_temp2);
 311:DMP/mllite/ml_math_func.c ****     inv_q_mult(q_temp1, q_temp2, out4);
 312:DMP/mllite/ml_math_func.c ****     memcpy(out, &out4[1], 3 * sizeof(long));
 313:DMP/mllite/ml_math_func.c **** }
 314:DMP/mllite/ml_math_func.c **** 
 315:DMP/mllite/ml_math_func.c **** void inv_q_multf(const float *q1, const float *q2, float *qProd)
ARM GAS  /var/folders/21/t9g5rlb91ys800n5npymflf80000gn/T//cc5g3ium.s 			page 7


 316:DMP/mllite/ml_math_func.c **** {
 317:DMP/mllite/ml_math_func.c ****     INVENSENSE_FUNC_START;
 318:DMP/mllite/ml_math_func.c ****     qProd[0] =
 319:DMP/mllite/ml_math_func.c ****         (q1[0] * q2[0] - q1[1] * q2[1] - q1[2] * q2[2] - q1[3] * q2[3]);
 320:DMP/mllite/ml_math_func.c ****     qProd[1] =
 321:DMP/mllite/ml_math_func.c ****         (q1[0] * q2[1] + q1[1] * q2[0] + q1[2] * q2[3] - q1[3] * q2[2]);
 322:DMP/mllite/ml_math_func.c ****     qProd[2] =
 323:DMP/mllite/ml_math_func.c ****         (q1[0] * q2[2] - q1[1] * q2[3] + q1[2] * q2[0] + q1[3] * q2[1]);
 324:DMP/mllite/ml_math_func.c ****     qProd[3] =
 325:DMP/mllite/ml_math_func.c ****         (q1[0] * q2[3] + q1[1] * q2[2] - q1[2] * q2[1] + q1[3] * q2[0]);
 326:DMP/mllite/ml_math_func.c **** }
 327:DMP/mllite/ml_math_func.c **** 
 328:DMP/mllite/ml_math_func.c **** void inv_q_addf(const float *q1, const float *q2, float *qSum)
 329:DMP/mllite/ml_math_func.c **** {
 330:DMP/mllite/ml_math_func.c ****     INVENSENSE_FUNC_START;
 331:DMP/mllite/ml_math_func.c ****     qSum[0] = q1[0] + q2[0];
 332:DMP/mllite/ml_math_func.c ****     qSum[1] = q1[1] + q2[1];
 333:DMP/mllite/ml_math_func.c ****     qSum[2] = q1[2] + q2[2];
 334:DMP/mllite/ml_math_func.c ****     qSum[3] = q1[3] + q2[3];
 335:DMP/mllite/ml_math_func.c **** }
 336:DMP/mllite/ml_math_func.c **** 
 337:DMP/mllite/ml_math_func.c **** void inv_q_normalizef(float *q)
 338:DMP/mllite/ml_math_func.c **** {
 339:DMP/mllite/ml_math_func.c ****     INVENSENSE_FUNC_START;
 340:DMP/mllite/ml_math_func.c ****     float normSF = 0;
 341:DMP/mllite/ml_math_func.c ****     float xHalf = 0;
 342:DMP/mllite/ml_math_func.c ****     normSF = (q[0] * q[0] + q[1] * q[1] + q[2] * q[2] + q[3] * q[3]);
 343:DMP/mllite/ml_math_func.c ****     if (normSF < 2) {
 344:DMP/mllite/ml_math_func.c ****         xHalf = 0.5f * normSF;
 345:DMP/mllite/ml_math_func.c ****         normSF = normSF * (1.5f - xHalf * normSF * normSF);
 346:DMP/mllite/ml_math_func.c ****         normSF = normSF * (1.5f - xHalf * normSF * normSF);
 347:DMP/mllite/ml_math_func.c ****         normSF = normSF * (1.5f - xHalf * normSF * normSF);
 348:DMP/mllite/ml_math_func.c ****         normSF = normSF * (1.5f - xHalf * normSF * normSF);
 349:DMP/mllite/ml_math_func.c ****         q[0] *= normSF;
 350:DMP/mllite/ml_math_func.c ****         q[1] *= normSF;
 351:DMP/mllite/ml_math_func.c ****         q[2] *= normSF;
 352:DMP/mllite/ml_math_func.c ****         q[3] *= normSF;
 353:DMP/mllite/ml_math_func.c ****     } else {
 354:DMP/mllite/ml_math_func.c ****         q[0] = 1.0;
 355:DMP/mllite/ml_math_func.c ****         q[1] = 0.0;
 356:DMP/mllite/ml_math_func.c ****         q[2] = 0.0;
 357:DMP/mllite/ml_math_func.c ****         q[3] = 0.0;
 358:DMP/mllite/ml_math_func.c ****     }
 359:DMP/mllite/ml_math_func.c ****     normSF = (q[0] * q[0] + q[1] * q[1] + q[2] * q[2] + q[3] * q[3]);
 360:DMP/mllite/ml_math_func.c **** }
 361:DMP/mllite/ml_math_func.c **** 
 362:DMP/mllite/ml_math_func.c **** /** Performs a length 4 vector normalization with a square root.
 363:DMP/mllite/ml_math_func.c **** * @param[in,out] q vector to normalize. Returns [1,0,0,0] is magnitude is zero.
 364:DMP/mllite/ml_math_func.c **** */
 365:DMP/mllite/ml_math_func.c **** void inv_q_norm4(float *q)
 366:DMP/mllite/ml_math_func.c **** {
 367:DMP/mllite/ml_math_func.c ****     float mag;
 368:DMP/mllite/ml_math_func.c ****     mag = sqrtf(q[0] * q[0] + q[1] * q[1] + q[2] * q[2] + q[3] * q[3]);
 369:DMP/mllite/ml_math_func.c ****     if (mag) {
 370:DMP/mllite/ml_math_func.c ****         q[0] /= mag;
 371:DMP/mllite/ml_math_func.c ****         q[1] /= mag;
 372:DMP/mllite/ml_math_func.c ****         q[2] /= mag;
ARM GAS  /var/folders/21/t9g5rlb91ys800n5npymflf80000gn/T//cc5g3ium.s 			page 8


 373:DMP/mllite/ml_math_func.c ****         q[3] /= mag;
 374:DMP/mllite/ml_math_func.c ****     } else {
 375:DMP/mllite/ml_math_func.c ****         q[0] = 1.f;
 376:DMP/mllite/ml_math_func.c ****         q[1] = 0.f;
 377:DMP/mllite/ml_math_func.c ****         q[2] = 0.f;
 378:DMP/mllite/ml_math_func.c ****         q[3] = 0.f;
 379:DMP/mllite/ml_math_func.c ****     }
 380:DMP/mllite/ml_math_func.c **** }
 381:DMP/mllite/ml_math_func.c **** 
 382:DMP/mllite/ml_math_func.c **** void inv_q_invertf(const float *q, float *qInverted)
 383:DMP/mllite/ml_math_func.c **** {
 384:DMP/mllite/ml_math_func.c ****     INVENSENSE_FUNC_START;
 385:DMP/mllite/ml_math_func.c ****     qInverted[0] = q[0];
 386:DMP/mllite/ml_math_func.c ****     qInverted[1] = -q[1];
 387:DMP/mllite/ml_math_func.c ****     qInverted[2] = -q[2];
 388:DMP/mllite/ml_math_func.c ****     qInverted[3] = -q[3];
 389:DMP/mllite/ml_math_func.c **** }
 390:DMP/mllite/ml_math_func.c **** 
 391:DMP/mllite/ml_math_func.c **** /**
 392:DMP/mllite/ml_math_func.c ****  * Converts a quaternion to a rotation matrix.
 393:DMP/mllite/ml_math_func.c ****  * @param[in] quat 4-element quaternion in fixed point. One is 2^30.
 394:DMP/mllite/ml_math_func.c ****  * @param[out] rot Rotation matrix in fixed point. One is 2^30. The
 395:DMP/mllite/ml_math_func.c ****  *             First 3 elements of the rotation matrix, represent
 396:DMP/mllite/ml_math_func.c ****  *             the first row of the matrix. Rotation matrix multiplied
 397:DMP/mllite/ml_math_func.c ****  *             by a 3 element column vector transform a vector from Body
 398:DMP/mllite/ml_math_func.c ****  *             to World.
 399:DMP/mllite/ml_math_func.c ****  */
 400:DMP/mllite/ml_math_func.c **** void inv_quaternion_to_rotation(const long *quat, long *rot)
 401:DMP/mllite/ml_math_func.c **** {
 402:DMP/mllite/ml_math_func.c ****     rot[0] =
 403:DMP/mllite/ml_math_func.c ****         inv_q29_mult(quat[1], quat[1]) + inv_q29_mult(quat[0],
 404:DMP/mllite/ml_math_func.c ****                 quat[0]) -
 405:DMP/mllite/ml_math_func.c ****         1073741824L;
 406:DMP/mllite/ml_math_func.c ****     rot[1] =
 407:DMP/mllite/ml_math_func.c ****         inv_q29_mult(quat[1], quat[2]) - inv_q29_mult(quat[3], quat[0]);
 408:DMP/mllite/ml_math_func.c ****     rot[2] =
 409:DMP/mllite/ml_math_func.c ****         inv_q29_mult(quat[1], quat[3]) + inv_q29_mult(quat[2], quat[0]);
 410:DMP/mllite/ml_math_func.c ****     rot[3] =
 411:DMP/mllite/ml_math_func.c ****         inv_q29_mult(quat[1], quat[2]) + inv_q29_mult(quat[3], quat[0]);
 412:DMP/mllite/ml_math_func.c ****     rot[4] =
 413:DMP/mllite/ml_math_func.c ****         inv_q29_mult(quat[2], quat[2]) + inv_q29_mult(quat[0],
 414:DMP/mllite/ml_math_func.c ****                 quat[0]) -
 415:DMP/mllite/ml_math_func.c ****         1073741824L;
 416:DMP/mllite/ml_math_func.c ****     rot[5] =
 417:DMP/mllite/ml_math_func.c ****         inv_q29_mult(quat[2], quat[3]) - inv_q29_mult(quat[1], quat[0]);
 418:DMP/mllite/ml_math_func.c ****     rot[6] =
 419:DMP/mllite/ml_math_func.c ****         inv_q29_mult(quat[1], quat[3]) - inv_q29_mult(quat[2], quat[0]);
 420:DMP/mllite/ml_math_func.c ****     rot[7] =
 421:DMP/mllite/ml_math_func.c ****         inv_q29_mult(quat[2], quat[3]) + inv_q29_mult(quat[1], quat[0]);
 422:DMP/mllite/ml_math_func.c ****     rot[8] =
 423:DMP/mllite/ml_math_func.c ****         inv_q29_mult(quat[3], quat[3]) + inv_q29_mult(quat[0],
 424:DMP/mllite/ml_math_func.c ****                 quat[0]) -
 425:DMP/mllite/ml_math_func.c ****         1073741824L;
 426:DMP/mllite/ml_math_func.c **** }
 427:DMP/mllite/ml_math_func.c **** 
 428:DMP/mllite/ml_math_func.c **** /**
 429:DMP/mllite/ml_math_func.c ****  * Converts a quaternion to a rotation vector. A rotation vector is
ARM GAS  /var/folders/21/t9g5rlb91ys800n5npymflf80000gn/T//cc5g3ium.s 			page 9


 430:DMP/mllite/ml_math_func.c ****  * a method to represent a 4-element quaternion vector in 3-elements.
 431:DMP/mllite/ml_math_func.c ****  * To get the quaternion from the 3-elements, The last 3-elements of
 432:DMP/mllite/ml_math_func.c ****  * the quaternion will be the given rotation vector. The first element
 433:DMP/mllite/ml_math_func.c ****  * of the quaternion will be the positive value that will be required
 434:DMP/mllite/ml_math_func.c ****  * to make the magnitude of the quaternion 1.0 or 2^30 in fixed point units.
 435:DMP/mllite/ml_math_func.c ****  * @param[in] quat 4-element quaternion in fixed point. One is 2^30.
 436:DMP/mllite/ml_math_func.c ****  * @param[out] rot Rotation vector in fixed point. One is 2^30.
 437:DMP/mllite/ml_math_func.c ****  */
 438:DMP/mllite/ml_math_func.c **** void inv_quaternion_to_rotation_vector(const long *quat, long *rot)
 439:DMP/mllite/ml_math_func.c **** {
 440:DMP/mllite/ml_math_func.c ****     rot[0] = quat[1];
 441:DMP/mllite/ml_math_func.c ****     rot[1] = quat[2];
 442:DMP/mllite/ml_math_func.c ****     rot[2] = quat[3];
 443:DMP/mllite/ml_math_func.c **** 
 444:DMP/mllite/ml_math_func.c ****     if (quat[0] < 0.0) {
 445:DMP/mllite/ml_math_func.c ****         rot[0] = -rot[0];
 446:DMP/mllite/ml_math_func.c ****         rot[1] = -rot[1];
 447:DMP/mllite/ml_math_func.c ****         rot[2] = -rot[2];
 448:DMP/mllite/ml_math_func.c ****     }
 449:DMP/mllite/ml_math_func.c **** }
 450:DMP/mllite/ml_math_func.c **** 
 451:DMP/mllite/ml_math_func.c **** /** Converts a 32-bit long to a big endian byte stream */
 452:DMP/mllite/ml_math_func.c **** unsigned char *inv_int32_to_big8(long x, unsigned char *big8)
 453:DMP/mllite/ml_math_func.c **** {
 454:DMP/mllite/ml_math_func.c ****     big8[0] = (unsigned char)((x >> 24) & 0xff);
 455:DMP/mllite/ml_math_func.c ****     big8[1] = (unsigned char)((x >> 16) & 0xff);
 456:DMP/mllite/ml_math_func.c ****     big8[2] = (unsigned char)((x >> 8) & 0xff);
 457:DMP/mllite/ml_math_func.c ****     big8[3] = (unsigned char)(x & 0xff);
 458:DMP/mllite/ml_math_func.c ****     return big8;
 459:DMP/mllite/ml_math_func.c **** }
 460:DMP/mllite/ml_math_func.c **** 
 461:DMP/mllite/ml_math_func.c **** /** Converts a big endian byte stream into a 32-bit long */
 462:DMP/mllite/ml_math_func.c **** long inv_big8_to_int32(const unsigned char *big8)
 463:DMP/mllite/ml_math_func.c **** {
 464:DMP/mllite/ml_math_func.c ****     long x;
 465:DMP/mllite/ml_math_func.c ****     x = ((long)big8[0] << 24) | ((long)big8[1] << 16) | ((long)big8[2] << 8)
 466:DMP/mllite/ml_math_func.c ****         | ((long)big8[3]);
 467:DMP/mllite/ml_math_func.c ****     return x;
 468:DMP/mllite/ml_math_func.c **** }
 469:DMP/mllite/ml_math_func.c **** 
 470:DMP/mllite/ml_math_func.c **** /** Converts a big endian byte stream into a 16-bit integer (short) */
 471:DMP/mllite/ml_math_func.c **** short inv_big8_to_int16(const unsigned char *big8)
 472:DMP/mllite/ml_math_func.c **** {
 473:DMP/mllite/ml_math_func.c ****     short x;
 474:DMP/mllite/ml_math_func.c ****     x = ((short)big8[0] << 8) | ((short)big8[1]);
 475:DMP/mllite/ml_math_func.c ****     return x;
 476:DMP/mllite/ml_math_func.c **** }
 477:DMP/mllite/ml_math_func.c **** 
 478:DMP/mllite/ml_math_func.c **** /** Converts a little endian byte stream into a 16-bit integer (short) */
 479:DMP/mllite/ml_math_func.c **** short inv_little8_to_int16(const unsigned char *little8)
 480:DMP/mllite/ml_math_func.c **** {
 481:DMP/mllite/ml_math_func.c ****     short x;
 482:DMP/mllite/ml_math_func.c ****     x = ((short)little8[1] << 8) | ((short)little8[0]);
 483:DMP/mllite/ml_math_func.c ****     return x;
 484:DMP/mllite/ml_math_func.c **** }
 485:DMP/mllite/ml_math_func.c **** 
 486:DMP/mllite/ml_math_func.c **** /** Converts a 16-bit short to a big endian byte stream */
ARM GAS  /var/folders/21/t9g5rlb91ys800n5npymflf80000gn/T//cc5g3ium.s 			page 10


 487:DMP/mllite/ml_math_func.c **** unsigned char *inv_int16_to_big8(short x, unsigned char *big8)
 488:DMP/mllite/ml_math_func.c **** {
 489:DMP/mllite/ml_math_func.c ****     big8[0] = (unsigned char)((x >> 8) & 0xff);
 490:DMP/mllite/ml_math_func.c ****     big8[1] = (unsigned char)(x & 0xff);
 491:DMP/mllite/ml_math_func.c ****     return big8;
 492:DMP/mllite/ml_math_func.c **** }
 493:DMP/mllite/ml_math_func.c **** 
 494:DMP/mllite/ml_math_func.c **** void inv_matrix_det_inc(float *a, float *b, int *n, int x, int y)
 495:DMP/mllite/ml_math_func.c **** {
 496:DMP/mllite/ml_math_func.c ****     int k, l, i, j;
 497:DMP/mllite/ml_math_func.c ****     for (i = 0, k = 0; i < *n; i++, k++) {
 498:DMP/mllite/ml_math_func.c ****         for (j = 0, l = 0; j < *n; j++, l++) {
 499:DMP/mllite/ml_math_func.c ****             if (i == x)
 500:DMP/mllite/ml_math_func.c ****                 i++;
 501:DMP/mllite/ml_math_func.c ****             if (j == y)
 502:DMP/mllite/ml_math_func.c ****                 j++;
 503:DMP/mllite/ml_math_func.c ****             *(b + 6 * k + l) = *(a + 6 * i + j);
 504:DMP/mllite/ml_math_func.c ****         }
 505:DMP/mllite/ml_math_func.c ****     }
 506:DMP/mllite/ml_math_func.c ****     *n = *n - 1;
 507:DMP/mllite/ml_math_func.c **** }
 508:DMP/mllite/ml_math_func.c **** 
 509:DMP/mllite/ml_math_func.c **** void inv_matrix_det_incd(double *a, double *b, int *n, int x, int y)
 510:DMP/mllite/ml_math_func.c **** {
 511:DMP/mllite/ml_math_func.c ****     int k, l, i, j;
 512:DMP/mllite/ml_math_func.c ****     for (i = 0, k = 0; i < *n; i++, k++) {
 513:DMP/mllite/ml_math_func.c ****         for (j = 0, l = 0; j < *n; j++, l++) {
 514:DMP/mllite/ml_math_func.c ****             if (i == x)
 515:DMP/mllite/ml_math_func.c ****                 i++;
 516:DMP/mllite/ml_math_func.c ****             if (j == y)
 517:DMP/mllite/ml_math_func.c ****                 j++;
 518:DMP/mllite/ml_math_func.c ****             *(b + 6 * k + l) = *(a + 6 * i + j);
 519:DMP/mllite/ml_math_func.c ****         }
 520:DMP/mllite/ml_math_func.c ****     }
 521:DMP/mllite/ml_math_func.c ****     *n = *n - 1;
 522:DMP/mllite/ml_math_func.c **** }
 523:DMP/mllite/ml_math_func.c **** 
 524:DMP/mllite/ml_math_func.c **** float inv_matrix_det(float *p, int *n)
 525:DMP/mllite/ml_math_func.c **** {
 526:DMP/mllite/ml_math_func.c ****     float d[6][6], sum = 0;
 527:DMP/mllite/ml_math_func.c ****     int i, j, m;
 528:DMP/mllite/ml_math_func.c ****     m = *n;
 529:DMP/mllite/ml_math_func.c ****     if (*n == 2)
 530:DMP/mllite/ml_math_func.c ****         return (*p ** (p + 7) - *(p + 1) ** (p + 6));
 531:DMP/mllite/ml_math_func.c ****     for (i = 0, j = 0; j < m; j++) {
 532:DMP/mllite/ml_math_func.c ****         *n = m;
 533:DMP/mllite/ml_math_func.c ****         inv_matrix_det_inc(p, &d[0][0], n, i, j);
 534:DMP/mllite/ml_math_func.c ****         sum =
 535:DMP/mllite/ml_math_func.c ****             sum + *(p + 6 * i + j) * SIGNM(i +
 536:DMP/mllite/ml_math_func.c ****                                             j) *
 537:DMP/mllite/ml_math_func.c ****             inv_matrix_det(&d[0][0], n);
 538:DMP/mllite/ml_math_func.c ****     }
 539:DMP/mllite/ml_math_func.c **** 
 540:DMP/mllite/ml_math_func.c ****     return (sum);
 541:DMP/mllite/ml_math_func.c **** }
 542:DMP/mllite/ml_math_func.c **** 
 543:DMP/mllite/ml_math_func.c **** double inv_matrix_detd(double *p, int *n)
ARM GAS  /var/folders/21/t9g5rlb91ys800n5npymflf80000gn/T//cc5g3ium.s 			page 11


 544:DMP/mllite/ml_math_func.c **** {
 545:DMP/mllite/ml_math_func.c ****     double d[6][6], sum = 0;
 546:DMP/mllite/ml_math_func.c ****     int i, j, m;
 547:DMP/mllite/ml_math_func.c ****     m = *n;
 548:DMP/mllite/ml_math_func.c ****     if (*n == 2)
 549:DMP/mllite/ml_math_func.c ****         return (*p ** (p + 7) - *(p + 1) ** (p + 6));
 550:DMP/mllite/ml_math_func.c ****     for (i = 0, j = 0; j < m; j++) {
 551:DMP/mllite/ml_math_func.c ****         *n = m;
 552:DMP/mllite/ml_math_func.c ****         inv_matrix_det_incd(p, &d[0][0], n, i, j);
 553:DMP/mllite/ml_math_func.c ****         sum =
 554:DMP/mllite/ml_math_func.c ****             sum + *(p + 6 * i + j) * SIGNM(i +
 555:DMP/mllite/ml_math_func.c ****                                             j) *
 556:DMP/mllite/ml_math_func.c ****             inv_matrix_detd(&d[0][0], n);
 557:DMP/mllite/ml_math_func.c ****     }
 558:DMP/mllite/ml_math_func.c **** 
 559:DMP/mllite/ml_math_func.c ****     return (sum);
 560:DMP/mllite/ml_math_func.c **** }
 561:DMP/mllite/ml_math_func.c **** 
 562:DMP/mllite/ml_math_func.c **** /** Wraps angle from (-M_PI,M_PI]
 563:DMP/mllite/ml_math_func.c ****  * @param[in] ang Angle in radians to wrap
 564:DMP/mllite/ml_math_func.c ****  * @return Wrapped angle from (-M_PI,M_PI]
 565:DMP/mllite/ml_math_func.c ****  */
 566:DMP/mllite/ml_math_func.c **** float inv_wrap_angle(float ang)
 567:DMP/mllite/ml_math_func.c **** {
 568:DMP/mllite/ml_math_func.c ****     if (ang > M_PI)
 569:DMP/mllite/ml_math_func.c ****         return ang - 2 * (float)M_PI;
 570:DMP/mllite/ml_math_func.c ****     else if (ang <= -(float)M_PI)
 571:DMP/mllite/ml_math_func.c ****         return ang + 2 * (float)M_PI;
 572:DMP/mllite/ml_math_func.c ****     else
 573:DMP/mllite/ml_math_func.c ****         return ang;
 574:DMP/mllite/ml_math_func.c **** }
 575:DMP/mllite/ml_math_func.c **** 
 576:DMP/mllite/ml_math_func.c **** /** Finds the minimum angle difference ang1-ang2 such that difference
 577:DMP/mllite/ml_math_func.c ****  * is between [-M_PI,M_PI]
 578:DMP/mllite/ml_math_func.c ****  * @param[in] ang1
 579:DMP/mllite/ml_math_func.c ****  * @param[in] ang2
 580:DMP/mllite/ml_math_func.c ****  * @return angle difference ang1-ang2
 581:DMP/mllite/ml_math_func.c ****  */
 582:DMP/mllite/ml_math_func.c **** float inv_angle_diff(float ang1, float ang2)
 583:DMP/mllite/ml_math_func.c **** {
 584:DMP/mllite/ml_math_func.c ****     float d;
 585:DMP/mllite/ml_math_func.c ****     ang1 = inv_wrap_angle(ang1);
 586:DMP/mllite/ml_math_func.c ****     ang2 = inv_wrap_angle(ang2);
 587:DMP/mllite/ml_math_func.c ****     d = ang1 - ang2;
 588:DMP/mllite/ml_math_func.c ****     if (d > M_PI)
 589:DMP/mllite/ml_math_func.c ****         d -= 2 * (float)M_PI;
 590:DMP/mllite/ml_math_func.c ****     else if (d < -(float)M_PI)
 591:DMP/mllite/ml_math_func.c ****         d += 2 * (float)M_PI;
 592:DMP/mllite/ml_math_func.c ****     return d;
 593:DMP/mllite/ml_math_func.c **** }
 594:DMP/mllite/ml_math_func.c **** 
 595:DMP/mllite/ml_math_func.c **** /** bernstein hash, derived from public domain source */
 596:DMP/mllite/ml_math_func.c **** uint32_t inv_checksum(const unsigned char *str, int len)
 597:DMP/mllite/ml_math_func.c **** {
 598:DMP/mllite/ml_math_func.c ****     uint32_t hash = 5381;
 599:DMP/mllite/ml_math_func.c ****     int i, c;
 600:DMP/mllite/ml_math_func.c **** 
ARM GAS  /var/folders/21/t9g5rlb91ys800n5npymflf80000gn/T//cc5g3ium.s 			page 12


 601:DMP/mllite/ml_math_func.c ****     for (i = 0; i < len; i++) {
 602:DMP/mllite/ml_math_func.c ****         c = *(str + i);
 603:DMP/mllite/ml_math_func.c ****         hash = ((hash << 5) + hash) + c;	/* hash * 33 + c */
 604:DMP/mllite/ml_math_func.c ****     }
 605:DMP/mllite/ml_math_func.c **** 
 606:DMP/mllite/ml_math_func.c ****     return hash;
 607:DMP/mllite/ml_math_func.c **** }
 608:DMP/mllite/ml_math_func.c **** 
 609:DMP/mllite/ml_math_func.c **** static unsigned short inv_row_2_scale(const signed char *row)
 610:DMP/mllite/ml_math_func.c **** {
  29              		.loc 1 610 1 view -0
  30              		.cfi_startproc
  31              		@ args = 0, pretend = 0, frame = 0
  32              		@ frame_needed = 0, uses_anonymous_args = 0
  33              		@ link register save eliminated.
 611:DMP/mllite/ml_math_func.c ****     unsigned short b;
  34              		.loc 1 611 5 view .LVU1
 612:DMP/mllite/ml_math_func.c **** 
 613:DMP/mllite/ml_math_func.c ****     if (row[0] > 0)
  35              		.loc 1 613 5 view .LVU2
  36              		.loc 1 613 12 is_stmt 0 view .LVU3
  37 0000 90F90030 		ldrsb	r3, [r0]
  38              		.loc 1 613 8 view .LVU4
  39 0004 002B     		cmp	r3, #0
  40 0006 01DD     		ble	.L9
 614:DMP/mllite/ml_math_func.c ****         b = 0;
  41              		.loc 1 614 11 view .LVU5
  42 0008 0020     		movs	r0, #0
  43              	.LVL1:
  44              		.loc 1 614 11 view .LVU6
  45 000a 7047     		bx	lr
  46              	.LVL2:
  47              	.L9:
 615:DMP/mllite/ml_math_func.c ****     else if (row[0] < 0)
  48              		.loc 1 615 10 is_stmt 1 view .LVU7
  49              		.loc 1 615 13 is_stmt 0 view .LVU8
  50 000c 0FDB     		blt	.L4
 616:DMP/mllite/ml_math_func.c ****         b = 4;
 617:DMP/mllite/ml_math_func.c ****     else if (row[1] > 0)
  51              		.loc 1 617 10 is_stmt 1 view .LVU9
  52              		.loc 1 617 17 is_stmt 0 view .LVU10
  53 000e 90F90130 		ldrsb	r3, [r0, #1]
  54              		.loc 1 617 13 view .LVU11
  55 0012 002B     		cmp	r3, #0
  56 0014 01DD     		ble	.L10
 618:DMP/mllite/ml_math_func.c ****         b = 1;
  57              		.loc 1 618 11 view .LVU12
  58 0016 0120     		movs	r0, #1
  59              	.LVL3:
  60              		.loc 1 618 11 view .LVU13
  61 0018 7047     		bx	lr
  62              	.LVL4:
  63              	.L10:
 619:DMP/mllite/ml_math_func.c ****     else if (row[1] < 0)
  64              		.loc 1 619 10 is_stmt 1 view .LVU14
  65              		.loc 1 619 13 is_stmt 0 view .LVU15
  66 001a 0ADB     		blt	.L6
ARM GAS  /var/folders/21/t9g5rlb91ys800n5npymflf80000gn/T//cc5g3ium.s 			page 13


 620:DMP/mllite/ml_math_func.c ****         b = 5;
 621:DMP/mllite/ml_math_func.c ****     else if (row[2] > 0)
  67              		.loc 1 621 10 is_stmt 1 view .LVU16
  68              		.loc 1 621 17 is_stmt 0 view .LVU17
  69 001c 90F90230 		ldrsb	r3, [r0, #2]
  70              		.loc 1 621 13 view .LVU18
  71 0020 002B     		cmp	r3, #0
  72 0022 08DC     		bgt	.L7
 622:DMP/mllite/ml_math_func.c ****         b = 2;
 623:DMP/mllite/ml_math_func.c ****     else if (row[2] < 0)
  73              		.loc 1 623 10 is_stmt 1 view .LVU19
  74              		.loc 1 623 13 is_stmt 0 view .LVU20
  75 0024 01DB     		blt	.L11
 624:DMP/mllite/ml_math_func.c ****         b = 6;
 625:DMP/mllite/ml_math_func.c ****     else
 626:DMP/mllite/ml_math_func.c ****         b = 7;		// error
  76              		.loc 1 626 11 view .LVU21
  77 0026 0720     		movs	r0, #7
  78              	.LVL5:
 627:DMP/mllite/ml_math_func.c ****     return b;
  79              		.loc 1 627 5 is_stmt 1 view .LVU22
 628:DMP/mllite/ml_math_func.c **** }
  80              		.loc 1 628 1 is_stmt 0 view .LVU23
  81 0028 7047     		bx	lr
  82              	.LVL6:
  83              	.L11:
 624:DMP/mllite/ml_math_func.c ****         b = 6;
  84              		.loc 1 624 11 view .LVU24
  85 002a 0620     		movs	r0, #6
  86              	.LVL7:
 624:DMP/mllite/ml_math_func.c ****         b = 6;
  87              		.loc 1 624 11 view .LVU25
  88 002c 7047     		bx	lr
  89              	.LVL8:
  90              	.L4:
 616:DMP/mllite/ml_math_func.c ****     else if (row[1] > 0)
  91              		.loc 1 616 11 view .LVU26
  92 002e 0420     		movs	r0, #4
  93              	.LVL9:
 616:DMP/mllite/ml_math_func.c ****     else if (row[1] > 0)
  94              		.loc 1 616 11 view .LVU27
  95 0030 7047     		bx	lr
  96              	.LVL10:
  97              	.L6:
 620:DMP/mllite/ml_math_func.c ****     else if (row[2] > 0)
  98              		.loc 1 620 11 view .LVU28
  99 0032 0520     		movs	r0, #5
 100              	.LVL11:
 620:DMP/mllite/ml_math_func.c ****     else if (row[2] > 0)
 101              		.loc 1 620 11 view .LVU29
 102 0034 7047     		bx	lr
 103              	.LVL12:
 104              	.L7:
 622:DMP/mllite/ml_math_func.c ****     else if (row[2] < 0)
 105              		.loc 1 622 11 view .LVU30
 106 0036 0220     		movs	r0, #2
 107              	.LVL13:
ARM GAS  /var/folders/21/t9g5rlb91ys800n5npymflf80000gn/T//cc5g3ium.s 			page 14


 622:DMP/mllite/ml_math_func.c ****     else if (row[2] < 0)
 108              		.loc 1 622 11 view .LVU31
 109 0038 7047     		bx	lr
 110              		.cfi_endproc
 111              	.LFE58:
 113              		.section	.text.inv_sinf,"ax",%progbits
 114              		.align	1
 115              		.global	inv_sinf
 116              		.syntax unified
 117              		.thumb
 118              		.thumb_func
 120              	inv_sinf:
 121              	.LVL14:
 122              	.LFB24:
  71:DMP/mllite/ml_math_func.c ****     int index = (unsigned int)((x * (TABLE_SIZE>>1)) / 3.14159f) % TABLE_SIZE;
 123              		.loc 1 71 1 is_stmt 1 view -0
 124              		.cfi_startproc
 125              		@ args = 0, pretend = 0, frame = 8
 126              		@ frame_needed = 0, uses_anonymous_args = 0
 127              		@ link register save eliminated.
  71:DMP/mllite/ml_math_func.c ****     int index = (unsigned int)((x * (TABLE_SIZE>>1)) / 3.14159f) % TABLE_SIZE;
 128              		.loc 1 71 1 is_stmt 0 view .LVU33
 129 0000 82B0     		sub	sp, sp, #8
 130              	.LCFI0:
 131              		.cfi_def_cfa_offset 8
  72:DMP/mllite/ml_math_func.c ****     return sin_lookup[index];
 132              		.loc 1 72 5 is_stmt 1 view .LVU34
  72:DMP/mllite/ml_math_func.c ****     return sin_lookup[index];
 133              		.loc 1 72 35 is_stmt 0 view .LVU35
 134 0002 DFED0A7A 		vldr.32	s15, .L14
 135 0006 20EE270A 		vmul.f32	s0, s0, s15
 136              	.LVL15:
  72:DMP/mllite/ml_math_func.c ****     return sin_lookup[index];
 137              		.loc 1 72 54 view .LVU36
 138 000a 9FED097A 		vldr.32	s14, .L14+4
 139 000e C0EE077A 		vdiv.f32	s15, s0, s14
  72:DMP/mllite/ml_math_func.c ****     return sin_lookup[index];
 140              		.loc 1 72 17 view .LVU37
 141 0012 FCEEE77A 		vcvt.u32.f32	s15, s15
 142 0016 CDED017A 		vstr.32	s15, [sp, #4]	@ int
  72:DMP/mllite/ml_math_func.c ****     return sin_lookup[index];
 143              		.loc 1 72 9 view .LVU38
 144 001a 9DF80420 		ldrb	r2, [sp, #4]	@ zero_extendqisi2
 145              	.LVL16:
  73:DMP/mllite/ml_math_func.c **** }
 146              		.loc 1 73 5 is_stmt 1 view .LVU39
  73:DMP/mllite/ml_math_func.c **** }
 147              		.loc 1 73 22 is_stmt 0 view .LVU40
 148 001e 054B     		ldr	r3, .L14+8
 149 0020 03EB8203 		add	r3, r3, r2, lsl #2
  74:DMP/mllite/ml_math_func.c **** 
 150              		.loc 1 74 1 view .LVU41
 151 0024 93ED000A 		vldr.32	s0, [r3]
 152 0028 02B0     		add	sp, sp, #8
 153              	.LCFI1:
 154              		.cfi_def_cfa_offset 0
 155              		@ sp needed
ARM GAS  /var/folders/21/t9g5rlb91ys800n5npymflf80000gn/T//cc5g3ium.s 			page 15


 156 002a 7047     		bx	lr
 157              	.L15:
 158              		.align	2
 159              	.L14:
 160 002c 00000043 		.word	1124073472
 161 0030 D00F4940 		.word	1078530000
 162 0034 00000000 		.word	sin_lookup
 163              		.cfi_endproc
 164              	.LFE24:
 166              		.section	.text.inv_cosf,"ax",%progbits
 167              		.align	1
 168              		.global	inv_cosf
 169              		.syntax unified
 170              		.thumb
 171              		.thumb_func
 173              	inv_cosf:
 174              	.LVL17:
 175              	.LFB25:
  77:DMP/mllite/ml_math_func.c ****     int index = ((unsigned int)((x * (TABLE_SIZE>>1)) / 3.14159f) + (TABLE_SIZE>>2)) % TABLE_SIZE;
 176              		.loc 1 77 1 is_stmt 1 view -0
 177              		.cfi_startproc
 178              		@ args = 0, pretend = 0, frame = 0
 179              		@ frame_needed = 0, uses_anonymous_args = 0
 180              		@ link register save eliminated.
  78:DMP/mllite/ml_math_func.c ****     return sin_lookup[index];
 181              		.loc 1 78 5 view .LVU43
  78:DMP/mllite/ml_math_func.c ****     return sin_lookup[index];
 182              		.loc 1 78 36 is_stmt 0 view .LVU44
 183 0000 DFED097A 		vldr.32	s15, .L17
 184 0004 20EE270A 		vmul.f32	s0, s0, s15
 185              	.LVL18:
  78:DMP/mllite/ml_math_func.c ****     return sin_lookup[index];
 186              		.loc 1 78 55 view .LVU45
 187 0008 9FED087A 		vldr.32	s14, .L17+4
 188 000c C0EE077A 		vdiv.f32	s15, s0, s14
  78:DMP/mllite/ml_math_func.c ****     return sin_lookup[index];
 189              		.loc 1 78 18 view .LVU46
 190 0010 FCEEE77A 		vcvt.u32.f32	s15, s15
 191 0014 17EE903A 		vmov	r3, s15	@ int
  78:DMP/mllite/ml_math_func.c ****     return sin_lookup[index];
 192              		.loc 1 78 67 view .LVU47
 193 0018 4033     		adds	r3, r3, #64
  78:DMP/mllite/ml_math_func.c ****     return sin_lookup[index];
 194              		.loc 1 78 9 view .LVU48
 195 001a DBB2     		uxtb	r3, r3
 196              	.LVL19:
  79:DMP/mllite/ml_math_func.c **** }
 197              		.loc 1 79 5 is_stmt 1 view .LVU49
  79:DMP/mllite/ml_math_func.c **** }
 198              		.loc 1 79 22 is_stmt 0 view .LVU50
 199 001c 044A     		ldr	r2, .L17+8
 200 001e 02EB8303 		add	r3, r2, r3, lsl #2
 201              	.LVL20:
  80:DMP/mllite/ml_math_func.c **** #endif
 202              		.loc 1 80 1 view .LVU51
 203 0022 93ED000A 		vldr.32	s0, [r3]
 204 0026 7047     		bx	lr
ARM GAS  /var/folders/21/t9g5rlb91ys800n5npymflf80000gn/T//cc5g3ium.s 			page 16


 205              	.L18:
 206              		.align	2
 207              	.L17:
 208 0028 00000043 		.word	1124073472
 209 002c D00F4940 		.word	1078530000
 210 0030 00000000 		.word	sin_lookup
 211              		.cfi_endproc
 212              	.LFE25:
 214              		.section	.text.inv_get_gyro_sum_of_sqr,"ax",%progbits
 215              		.align	1
 216              		.global	inv_get_gyro_sum_of_sqr
 217              		.syntax unified
 218              		.thumb
 219              		.thumb_func
 221              	inv_get_gyro_sum_of_sqr:
 222              	.LVL21:
 223              	.LFB27:
 125:DMP/mllite/ml_math_func.c ****     unsigned long gmag = 0;
 224              		.loc 1 125 1 is_stmt 1 view -0
 225              		.cfi_startproc
 226              		@ args = 0, pretend = 0, frame = 0
 227              		@ frame_needed = 0, uses_anonymous_args = 0
 228              		@ link register save eliminated.
 125:DMP/mllite/ml_math_func.c ****     unsigned long gmag = 0;
 229              		.loc 1 125 1 is_stmt 0 view .LVU53
 230 0000 0146     		mov	r1, r0
 126:DMP/mllite/ml_math_func.c ****     long temp;
 231              		.loc 1 126 5 is_stmt 1 view .LVU54
 232              	.LVL22:
 127:DMP/mllite/ml_math_func.c ****     int kk;
 233              		.loc 1 127 5 view .LVU55
 128:DMP/mllite/ml_math_func.c **** 
 234              		.loc 1 128 5 view .LVU56
 130:DMP/mllite/ml_math_func.c ****         temp = gyro[kk] >> (16 - (GYRO_MAG_SQR_SHIFT / 2));
 235              		.loc 1 130 5 view .LVU57
 130:DMP/mllite/ml_math_func.c ****         temp = gyro[kk] >> (16 - (GYRO_MAG_SQR_SHIFT / 2));
 236              		.loc 1 130 13 is_stmt 0 view .LVU58
 237 0002 0023     		movs	r3, #0
 126:DMP/mllite/ml_math_func.c ****     long temp;
 238              		.loc 1 126 19 view .LVU59
 239 0004 1846     		mov	r0, r3
 240              	.LVL23:
 130:DMP/mllite/ml_math_func.c ****         temp = gyro[kk] >> (16 - (GYRO_MAG_SQR_SHIFT / 2));
 241              		.loc 1 130 5 view .LVU60
 242 0006 05E0     		b	.L20
 243              	.LVL24:
 244              	.L21:
 131:DMP/mllite/ml_math_func.c ****         gmag += temp * temp;
 245              		.loc 1 131 9 is_stmt 1 discriminator 3 view .LVU61
 131:DMP/mllite/ml_math_func.c ****         gmag += temp * temp;
 246              		.loc 1 131 20 is_stmt 0 discriminator 3 view .LVU62
 247 0008 51F82320 		ldr	r2, [r1, r3, lsl #2]
 131:DMP/mllite/ml_math_func.c ****         gmag += temp * temp;
 248              		.loc 1 131 14 discriminator 3 view .LVU63
 249 000c 5213     		asrs	r2, r2, #13
 250              	.LVL25:
 132:DMP/mllite/ml_math_func.c ****     }
ARM GAS  /var/folders/21/t9g5rlb91ys800n5npymflf80000gn/T//cc5g3ium.s 			page 17


 251              		.loc 1 132 9 is_stmt 1 discriminator 3 view .LVU64
 132:DMP/mllite/ml_math_func.c ****     }
 252              		.loc 1 132 14 is_stmt 0 discriminator 3 view .LVU65
 253 000e 02FB0200 		mla	r0, r2, r2, r0
 254              	.LVL26:
 130:DMP/mllite/ml_math_func.c ****         temp = gyro[kk] >> (16 - (GYRO_MAG_SQR_SHIFT / 2));
 255              		.loc 1 130 26 is_stmt 1 discriminator 3 view .LVU66
 256 0012 0133     		adds	r3, r3, #1
 257              	.LVL27:
 258              	.L20:
 130:DMP/mllite/ml_math_func.c ****         temp = gyro[kk] >> (16 - (GYRO_MAG_SQR_SHIFT / 2));
 259              		.loc 1 130 21 discriminator 1 view .LVU67
 260 0014 022B     		cmp	r3, #2
 261 0016 F7DD     		ble	.L21
 135:DMP/mllite/ml_math_func.c **** }
 262              		.loc 1 135 5 view .LVU68
 136:DMP/mllite/ml_math_func.c **** 
 263              		.loc 1 136 1 is_stmt 0 view .LVU69
 264 0018 7047     		bx	lr
 265              		.cfi_endproc
 266              	.LFE27:
 268              		.section	.text.inv_q29_mult,"ax",%progbits
 269              		.align	1
 270              		.global	inv_q29_mult
 271              		.syntax unified
 272              		.thumb
 273              		.thumb_func
 275              	inv_q29_mult:
 276              	.LVL28:
 277              	.LFB28:
 146:DMP/mllite/ml_math_func.c **** #ifdef EMPL_NO_64BIT
 278              		.loc 1 146 1 is_stmt 1 view -0
 279              		.cfi_startproc
 280              		@ args = 0, pretend = 0, frame = 0
 281              		@ frame_needed = 0, uses_anonymous_args = 0
 282              		@ link register save eliminated.
 152:DMP/mllite/ml_math_func.c ****     long result;
 283              		.loc 1 152 5 view .LVU71
 153:DMP/mllite/ml_math_func.c ****     temp = (long long)a * b;
 284              		.loc 1 153 5 view .LVU72
 154:DMP/mllite/ml_math_func.c ****     result = (long)(temp >> 29);
 285              		.loc 1 154 5 view .LVU73
 154:DMP/mllite/ml_math_func.c ****     result = (long)(temp >> 29);
 286              		.loc 1 154 12 is_stmt 0 view .LVU74
 287 0000 C217     		asrs	r2, r0, #31
 154:DMP/mllite/ml_math_func.c ****     result = (long)(temp >> 29);
 288              		.loc 1 154 25 view .LVU75
 289 0002 CB17     		asrs	r3, r1, #31
 154:DMP/mllite/ml_math_func.c ****     result = (long)(temp >> 29);
 290              		.loc 1 154 10 view .LVU76
 291 0004 00FB03F3 		mul	r3, r0, r3
 292 0008 01FB0233 		mla	r3, r1, r2, r3
 293 000c A0FB0101 		umull	r0, r1, r0, r1
 294              	.LVL29:
 154:DMP/mllite/ml_math_func.c ****     result = (long)(temp >> 29);
 295              		.loc 1 154 10 view .LVU77
 296 0010 0B44     		add	r3, r3, r1
ARM GAS  /var/folders/21/t9g5rlb91ys800n5npymflf80000gn/T//cc5g3ium.s 			page 18


 297              	.LVL30:
 155:DMP/mllite/ml_math_func.c ****     return result;
 298              		.loc 1 155 5 is_stmt 1 view .LVU78
 155:DMP/mllite/ml_math_func.c ****     return result;
 299              		.loc 1 155 26 is_stmt 0 view .LVU79
 300 0012 400F     		lsrs	r0, r0, #29
 301              	.LVL31:
 156:DMP/mllite/ml_math_func.c **** #endif
 302              		.loc 1 156 5 is_stmt 1 view .LVU80
 158:DMP/mllite/ml_math_func.c **** 
 303              		.loc 1 158 1 is_stmt 0 view .LVU81
 304 0014 40EAC300 		orr	r0, r0, r3, lsl #3
 305              	.LVL32:
 158:DMP/mllite/ml_math_func.c **** 
 306              		.loc 1 158 1 view .LVU82
 307 0018 7047     		bx	lr
 308              		.cfi_endproc
 309              	.LFE28:
 311              		.section	.text.inv_q30_mult,"ax",%progbits
 312              		.align	1
 313              		.global	inv_q30_mult
 314              		.syntax unified
 315              		.thumb
 316              		.thumb_func
 318              	inv_q30_mult:
 319              	.LVL33:
 320              	.LFB29:
 168:DMP/mllite/ml_math_func.c **** #ifdef EMPL_NO_64BIT
 321              		.loc 1 168 1 is_stmt 1 view -0
 322              		.cfi_startproc
 323              		@ args = 0, pretend = 0, frame = 0
 324              		@ frame_needed = 0, uses_anonymous_args = 0
 325              		@ link register save eliminated.
 174:DMP/mllite/ml_math_func.c ****     long result;
 326              		.loc 1 174 5 view .LVU84
 175:DMP/mllite/ml_math_func.c ****     temp = (long long)a * b;
 327              		.loc 1 175 5 view .LVU85
 176:DMP/mllite/ml_math_func.c ****     result = (long)(temp >> 30);
 328              		.loc 1 176 5 view .LVU86
 176:DMP/mllite/ml_math_func.c ****     result = (long)(temp >> 30);
 329              		.loc 1 176 12 is_stmt 0 view .LVU87
 330 0000 C217     		asrs	r2, r0, #31
 176:DMP/mllite/ml_math_func.c ****     result = (long)(temp >> 30);
 331              		.loc 1 176 25 view .LVU88
 332 0002 CB17     		asrs	r3, r1, #31
 176:DMP/mllite/ml_math_func.c ****     result = (long)(temp >> 30);
 333              		.loc 1 176 10 view .LVU89
 334 0004 00FB03F3 		mul	r3, r0, r3
 335 0008 01FB0233 		mla	r3, r1, r2, r3
 336 000c A0FB0101 		umull	r0, r1, r0, r1
 337              	.LVL34:
 176:DMP/mllite/ml_math_func.c ****     result = (long)(temp >> 30);
 338              		.loc 1 176 10 view .LVU90
 339 0010 0B44     		add	r3, r3, r1
 340              	.LVL35:
 177:DMP/mllite/ml_math_func.c ****     return result;
 341              		.loc 1 177 5 is_stmt 1 view .LVU91
ARM GAS  /var/folders/21/t9g5rlb91ys800n5npymflf80000gn/T//cc5g3ium.s 			page 19


 177:DMP/mllite/ml_math_func.c ****     return result;
 342              		.loc 1 177 26 is_stmt 0 view .LVU92
 343 0012 800F     		lsrs	r0, r0, #30
 344              	.LVL36:
 178:DMP/mllite/ml_math_func.c **** #endif
 345              		.loc 1 178 5 is_stmt 1 view .LVU93
 180:DMP/mllite/ml_math_func.c **** 
 346              		.loc 1 180 1 is_stmt 0 view .LVU94
 347 0014 40EA8300 		orr	r0, r0, r3, lsl #2
 348              	.LVL37:
 180:DMP/mllite/ml_math_func.c **** 
 349              		.loc 1 180 1 view .LVU95
 350 0018 7047     		bx	lr
 351              		.cfi_endproc
 352              	.LFE29:
 354              		.global	__aeabi_ldivmod
 355              		.section	.text.inv_q30_div,"ax",%progbits
 356              		.align	1
 357              		.global	inv_q30_div
 358              		.syntax unified
 359              		.thumb
 360              		.thumb_func
 362              	inv_q30_div:
 363              	.LVL38:
 364              	.LFB30:
 184:DMP/mllite/ml_math_func.c ****     long long temp;
 365              		.loc 1 184 1 is_stmt 1 view -0
 366              		.cfi_startproc
 367              		@ args = 0, pretend = 0, frame = 0
 368              		@ frame_needed = 0, uses_anonymous_args = 0
 184:DMP/mllite/ml_math_func.c ****     long long temp;
 369              		.loc 1 184 1 is_stmt 0 view .LVU97
 370 0000 08B5     		push	{r3, lr}
 371              	.LCFI2:
 372              		.cfi_def_cfa_offset 8
 373              		.cfi_offset 3, -8
 374              		.cfi_offset 14, -4
 375 0002 8446     		mov	ip, r0
 376 0004 0A46     		mov	r2, r1
 185:DMP/mllite/ml_math_func.c ****     long result;
 377              		.loc 1 185 5 is_stmt 1 view .LVU98
 186:DMP/mllite/ml_math_func.c ****     temp = (((long long)a) << 30) / b;
 378              		.loc 1 186 5 view .LVU99
 187:DMP/mllite/ml_math_func.c ****     result = (long)temp;
 379              		.loc 1 187 5 view .LVU100
 187:DMP/mllite/ml_math_func.c ****     result = (long)temp;
 380              		.loc 1 187 10 is_stmt 0 view .LVU101
 381 0006 CB17     		asrs	r3, r1, #31
 382 0008 8007     		lsls	r0, r0, #30
 383              	.LVL39:
 187:DMP/mllite/ml_math_func.c ****     result = (long)temp;
 384              		.loc 1 187 10 view .LVU102
 385 000a 4FEAAC01 		asr	r1, ip, #2
 386              	.LVL40:
 187:DMP/mllite/ml_math_func.c ****     result = (long)temp;
 387              		.loc 1 187 10 view .LVU103
 388 000e FFF7FEFF 		bl	__aeabi_ldivmod
ARM GAS  /var/folders/21/t9g5rlb91ys800n5npymflf80000gn/T//cc5g3ium.s 			page 20


 389              	.LVL41:
 188:DMP/mllite/ml_math_func.c ****     return result;
 390              		.loc 1 188 5 is_stmt 1 view .LVU104
 189:DMP/mllite/ml_math_func.c **** }
 391              		.loc 1 189 5 view .LVU105
 190:DMP/mllite/ml_math_func.c **** #endif
 392              		.loc 1 190 1 is_stmt 0 view .LVU106
 393 0012 08BD     		pop	{r3, pc}
 394              		.cfi_endproc
 395              	.LFE30:
 397              		.section	.text.inv_q_shift_mult,"ax",%progbits
 398              		.align	1
 399              		.global	inv_q_shift_mult
 400              		.syntax unified
 401              		.thumb
 402              		.thumb_func
 404              	inv_q_shift_mult:
 405              	.LVL42:
 406              	.LFB31:
 203:DMP/mllite/ml_math_func.c ****     long result;
 407              		.loc 1 203 1 is_stmt 1 view -0
 408              		.cfi_startproc
 409              		@ args = 0, pretend = 0, frame = 0
 410              		@ frame_needed = 0, uses_anonymous_args = 0
 411              		@ link register save eliminated.
 204:DMP/mllite/ml_math_func.c ****     result = (long)(((long long)a * b) >> shift);
 412              		.loc 1 204 5 view .LVU108
 205:DMP/mllite/ml_math_func.c ****     return result;
 413              		.loc 1 205 5 view .LVU109
 205:DMP/mllite/ml_math_func.c ****     return result;
 414              		.loc 1 205 22 is_stmt 0 view .LVU110
 415 0000 4FEAE07C 		asr	ip, r0, #31
 205:DMP/mllite/ml_math_func.c ****     return result;
 416              		.loc 1 205 35 view .LVU111
 417 0004 CB17     		asrs	r3, r1, #31
 418 0006 01FB0CFC 		mul	ip, r1, ip
 419 000a 00FB03CC 		mla	ip, r0, r3, ip
 420 000e A1FB0003 		umull	r0, r3, r1, r0
 421              	.LVL43:
 205:DMP/mllite/ml_math_func.c ****     return result;
 422              		.loc 1 205 35 view .LVU112
 423 0012 6344     		add	r3, r3, ip
 205:DMP/mllite/ml_math_func.c ****     return result;
 424              		.loc 1 205 40 view .LVU113
 425 0014 C2F12001 		rsb	r1, r2, #32
 426              	.LVL44:
 205:DMP/mllite/ml_math_func.c ****     return result;
 427              		.loc 1 205 40 view .LVU114
 428 0018 B2F1200C 		subs	ip, r2, #32
 429 001c 20FA02F0 		lsr	r0, r0, r2
 430 0020 03FA01F1 		lsl	r1, r3, r1
 431 0024 40EA0100 		orr	r0, r0, r1
 432 0028 03D4     		bmi	.L27
 433 002a 43FA0CFC 		asr	ip, r3, ip
 434 002e 40EA0C00 		orr	r0, r0, ip
 435              	.L27:
 436              	.LVL45:
ARM GAS  /var/folders/21/t9g5rlb91ys800n5npymflf80000gn/T//cc5g3ium.s 			page 21


 206:DMP/mllite/ml_math_func.c **** }
 437              		.loc 1 206 5 is_stmt 1 view .LVU115
 207:DMP/mllite/ml_math_func.c **** #endif
 438              		.loc 1 207 1 is_stmt 0 view .LVU116
 439 0032 7047     		bx	lr
 440              		.cfi_endproc
 441              	.LFE31:
 443              		.section	.text.inv_q_mult,"ax",%progbits
 444              		.align	1
 445              		.global	inv_q_mult
 446              		.syntax unified
 447              		.thumb
 448              		.thumb_func
 450              	inv_q_mult:
 451              	.LVL46:
 452              	.LFB32:
 219:DMP/mllite/ml_math_func.c ****     INVENSENSE_FUNC_START;
 453              		.loc 1 219 1 is_stmt 1 view -0
 454              		.cfi_startproc
 455              		@ args = 0, pretend = 0, frame = 0
 456              		@ frame_needed = 0, uses_anonymous_args = 0
 219:DMP/mllite/ml_math_func.c ****     INVENSENSE_FUNC_START;
 457              		.loc 1 219 1 is_stmt 0 view .LVU118
 458 0000 F8B5     		push	{r3, r4, r5, r6, r7, lr}
 459              	.LCFI3:
 460              		.cfi_def_cfa_offset 24
 461              		.cfi_offset 3, -24
 462              		.cfi_offset 4, -20
 463              		.cfi_offset 5, -16
 464              		.cfi_offset 6, -12
 465              		.cfi_offset 7, -8
 466              		.cfi_offset 14, -4
 467 0002 0446     		mov	r4, r0
 468 0004 0D46     		mov	r5, r1
 469 0006 1746     		mov	r7, r2
 220:DMP/mllite/ml_math_func.c ****     qProd[0] = inv_q30_mult(q1[0], q2[0]) - inv_q30_mult(q1[1], q2[1]) -
 470              		.loc 1 220 5 is_stmt 1 view .LVU119
 221:DMP/mllite/ml_math_func.c ****                inv_q30_mult(q1[2], q2[2]) - inv_q30_mult(q1[3], q2[3]);
 471              		.loc 1 221 5 view .LVU120
 221:DMP/mllite/ml_math_func.c ****                inv_q30_mult(q1[2], q2[2]) - inv_q30_mult(q1[3], q2[3]);
 472              		.loc 1 221 16 is_stmt 0 view .LVU121
 473 0008 0968     		ldr	r1, [r1]
 474              	.LVL47:
 221:DMP/mllite/ml_math_func.c ****                inv_q30_mult(q1[2], q2[2]) - inv_q30_mult(q1[3], q2[3]);
 475              		.loc 1 221 16 view .LVU122
 476 000a 0068     		ldr	r0, [r0]
 477              	.LVL48:
 221:DMP/mllite/ml_math_func.c ****                inv_q30_mult(q1[2], q2[2]) - inv_q30_mult(q1[3], q2[3]);
 478              		.loc 1 221 16 view .LVU123
 479 000c FFF7FEFF 		bl	inv_q30_mult
 480              	.LVL49:
 221:DMP/mllite/ml_math_func.c ****                inv_q30_mult(q1[2], q2[2]) - inv_q30_mult(q1[3], q2[3]);
 481              		.loc 1 221 16 view .LVU124
 482 0010 0646     		mov	r6, r0
 221:DMP/mllite/ml_math_func.c ****                inv_q30_mult(q1[2], q2[2]) - inv_q30_mult(q1[3], q2[3]);
 483              		.loc 1 221 45 view .LVU125
 484 0012 6968     		ldr	r1, [r5, #4]
ARM GAS  /var/folders/21/t9g5rlb91ys800n5npymflf80000gn/T//cc5g3ium.s 			page 22


 485 0014 6068     		ldr	r0, [r4, #4]
 486 0016 FFF7FEFF 		bl	inv_q30_mult
 487              	.LVL50:
 221:DMP/mllite/ml_math_func.c ****                inv_q30_mult(q1[2], q2[2]) - inv_q30_mult(q1[3], q2[3]);
 488              		.loc 1 221 43 view .LVU126
 489 001a 361A     		subs	r6, r6, r0
 222:DMP/mllite/ml_math_func.c **** 
 490              		.loc 1 222 16 view .LVU127
 491 001c A968     		ldr	r1, [r5, #8]
 492 001e A068     		ldr	r0, [r4, #8]
 493 0020 FFF7FEFF 		bl	inv_q30_mult
 494              	.LVL51:
 221:DMP/mllite/ml_math_func.c ****                inv_q30_mult(q1[2], q2[2]) - inv_q30_mult(q1[3], q2[3]);
 495              		.loc 1 221 72 view .LVU128
 496 0024 361A     		subs	r6, r6, r0
 222:DMP/mllite/ml_math_func.c **** 
 497              		.loc 1 222 45 view .LVU129
 498 0026 E968     		ldr	r1, [r5, #12]
 499 0028 E068     		ldr	r0, [r4, #12]
 500 002a FFF7FEFF 		bl	inv_q30_mult
 501              	.LVL52:
 222:DMP/mllite/ml_math_func.c **** 
 502              		.loc 1 222 43 view .LVU130
 503 002e 361A     		subs	r6, r6, r0
 221:DMP/mllite/ml_math_func.c ****                inv_q30_mult(q1[2], q2[2]) - inv_q30_mult(q1[3], q2[3]);
 504              		.loc 1 221 14 view .LVU131
 505 0030 3E60     		str	r6, [r7]
 224:DMP/mllite/ml_math_func.c ****                inv_q30_mult(q1[2], q2[3]) - inv_q30_mult(q1[3], q2[2]);
 506              		.loc 1 224 5 is_stmt 1 view .LVU132
 224:DMP/mllite/ml_math_func.c ****                inv_q30_mult(q1[2], q2[3]) - inv_q30_mult(q1[3], q2[2]);
 507              		.loc 1 224 16 is_stmt 0 view .LVU133
 508 0032 6968     		ldr	r1, [r5, #4]
 509 0034 2068     		ldr	r0, [r4]
 510 0036 FFF7FEFF 		bl	inv_q30_mult
 511              	.LVL53:
 512 003a 0646     		mov	r6, r0
 224:DMP/mllite/ml_math_func.c ****                inv_q30_mult(q1[2], q2[3]) - inv_q30_mult(q1[3], q2[2]);
 513              		.loc 1 224 45 view .LVU134
 514 003c 2968     		ldr	r1, [r5]
 515 003e 6068     		ldr	r0, [r4, #4]
 516 0040 FFF7FEFF 		bl	inv_q30_mult
 517              	.LVL54:
 224:DMP/mllite/ml_math_func.c ****                inv_q30_mult(q1[2], q2[3]) - inv_q30_mult(q1[3], q2[2]);
 518              		.loc 1 224 43 view .LVU135
 519 0044 0644     		add	r6, r6, r0
 225:DMP/mllite/ml_math_func.c **** 
 520              		.loc 1 225 16 view .LVU136
 521 0046 E968     		ldr	r1, [r5, #12]
 522 0048 A068     		ldr	r0, [r4, #8]
 523 004a FFF7FEFF 		bl	inv_q30_mult
 524              	.LVL55:
 224:DMP/mllite/ml_math_func.c ****                inv_q30_mult(q1[2], q2[3]) - inv_q30_mult(q1[3], q2[2]);
 525              		.loc 1 224 72 view .LVU137
 526 004e 0644     		add	r6, r6, r0
 225:DMP/mllite/ml_math_func.c **** 
 527              		.loc 1 225 45 view .LVU138
 528 0050 A968     		ldr	r1, [r5, #8]
ARM GAS  /var/folders/21/t9g5rlb91ys800n5npymflf80000gn/T//cc5g3ium.s 			page 23


 529 0052 E068     		ldr	r0, [r4, #12]
 530 0054 FFF7FEFF 		bl	inv_q30_mult
 531              	.LVL56:
 225:DMP/mllite/ml_math_func.c **** 
 532              		.loc 1 225 43 view .LVU139
 533 0058 361A     		subs	r6, r6, r0
 224:DMP/mllite/ml_math_func.c ****                inv_q30_mult(q1[2], q2[3]) - inv_q30_mult(q1[3], q2[2]);
 534              		.loc 1 224 14 view .LVU140
 535 005a 7E60     		str	r6, [r7, #4]
 227:DMP/mllite/ml_math_func.c ****                inv_q30_mult(q1[2], q2[0]) + inv_q30_mult(q1[3], q2[1]);
 536              		.loc 1 227 5 is_stmt 1 view .LVU141
 227:DMP/mllite/ml_math_func.c ****                inv_q30_mult(q1[2], q2[0]) + inv_q30_mult(q1[3], q2[1]);
 537              		.loc 1 227 16 is_stmt 0 view .LVU142
 538 005c A968     		ldr	r1, [r5, #8]
 539 005e 2068     		ldr	r0, [r4]
 540 0060 FFF7FEFF 		bl	inv_q30_mult
 541              	.LVL57:
 542 0064 0646     		mov	r6, r0
 227:DMP/mllite/ml_math_func.c ****                inv_q30_mult(q1[2], q2[0]) + inv_q30_mult(q1[3], q2[1]);
 543              		.loc 1 227 45 view .LVU143
 544 0066 E968     		ldr	r1, [r5, #12]
 545 0068 6068     		ldr	r0, [r4, #4]
 546 006a FFF7FEFF 		bl	inv_q30_mult
 547              	.LVL58:
 227:DMP/mllite/ml_math_func.c ****                inv_q30_mult(q1[2], q2[0]) + inv_q30_mult(q1[3], q2[1]);
 548              		.loc 1 227 43 view .LVU144
 549 006e 361A     		subs	r6, r6, r0
 228:DMP/mllite/ml_math_func.c **** 
 550              		.loc 1 228 16 view .LVU145
 551 0070 2968     		ldr	r1, [r5]
 552 0072 A068     		ldr	r0, [r4, #8]
 553 0074 FFF7FEFF 		bl	inv_q30_mult
 554              	.LVL59:
 227:DMP/mllite/ml_math_func.c ****                inv_q30_mult(q1[2], q2[0]) + inv_q30_mult(q1[3], q2[1]);
 555              		.loc 1 227 72 view .LVU146
 556 0078 0644     		add	r6, r6, r0
 228:DMP/mllite/ml_math_func.c **** 
 557              		.loc 1 228 45 view .LVU147
 558 007a 6968     		ldr	r1, [r5, #4]
 559 007c E068     		ldr	r0, [r4, #12]
 560 007e FFF7FEFF 		bl	inv_q30_mult
 561              	.LVL60:
 228:DMP/mllite/ml_math_func.c **** 
 562              		.loc 1 228 43 view .LVU148
 563 0082 0644     		add	r6, r6, r0
 227:DMP/mllite/ml_math_func.c ****                inv_q30_mult(q1[2], q2[0]) + inv_q30_mult(q1[3], q2[1]);
 564              		.loc 1 227 14 view .LVU149
 565 0084 BE60     		str	r6, [r7, #8]
 230:DMP/mllite/ml_math_func.c ****                inv_q30_mult(q1[2], q2[1]) + inv_q30_mult(q1[3], q2[0]);
 566              		.loc 1 230 5 is_stmt 1 view .LVU150
 230:DMP/mllite/ml_math_func.c ****                inv_q30_mult(q1[2], q2[1]) + inv_q30_mult(q1[3], q2[0]);
 567              		.loc 1 230 16 is_stmt 0 view .LVU151
 568 0086 E968     		ldr	r1, [r5, #12]
 569 0088 2068     		ldr	r0, [r4]
 570 008a FFF7FEFF 		bl	inv_q30_mult
 571              	.LVL61:
 572 008e 0646     		mov	r6, r0
ARM GAS  /var/folders/21/t9g5rlb91ys800n5npymflf80000gn/T//cc5g3ium.s 			page 24


 230:DMP/mllite/ml_math_func.c ****                inv_q30_mult(q1[2], q2[1]) + inv_q30_mult(q1[3], q2[0]);
 573              		.loc 1 230 45 view .LVU152
 574 0090 A968     		ldr	r1, [r5, #8]
 575 0092 6068     		ldr	r0, [r4, #4]
 576 0094 FFF7FEFF 		bl	inv_q30_mult
 577              	.LVL62:
 230:DMP/mllite/ml_math_func.c ****                inv_q30_mult(q1[2], q2[1]) + inv_q30_mult(q1[3], q2[0]);
 578              		.loc 1 230 43 view .LVU153
 579 0098 0644     		add	r6, r6, r0
 231:DMP/mllite/ml_math_func.c **** }
 580              		.loc 1 231 16 view .LVU154
 581 009a 6968     		ldr	r1, [r5, #4]
 582 009c A068     		ldr	r0, [r4, #8]
 583 009e FFF7FEFF 		bl	inv_q30_mult
 584              	.LVL63:
 230:DMP/mllite/ml_math_func.c ****                inv_q30_mult(q1[2], q2[1]) + inv_q30_mult(q1[3], q2[0]);
 585              		.loc 1 230 72 view .LVU155
 586 00a2 361A     		subs	r6, r6, r0
 231:DMP/mllite/ml_math_func.c **** }
 587              		.loc 1 231 45 view .LVU156
 588 00a4 2968     		ldr	r1, [r5]
 589 00a6 E068     		ldr	r0, [r4, #12]
 590 00a8 FFF7FEFF 		bl	inv_q30_mult
 591              	.LVL64:
 231:DMP/mllite/ml_math_func.c **** }
 592              		.loc 1 231 43 view .LVU157
 593 00ac 0644     		add	r6, r6, r0
 230:DMP/mllite/ml_math_func.c ****                inv_q30_mult(q1[2], q2[1]) + inv_q30_mult(q1[3], q2[0]);
 594              		.loc 1 230 14 view .LVU158
 595 00ae FE60     		str	r6, [r7, #12]
 232:DMP/mllite/ml_math_func.c **** 
 596              		.loc 1 232 1 view .LVU159
 597 00b0 F8BD     		pop	{r3, r4, r5, r6, r7, pc}
 232:DMP/mllite/ml_math_func.c **** 
 598              		.loc 1 232 1 view .LVU160
 599              		.cfi_endproc
 600              	.LFE32:
 602              		.section	.text.inv_q_add,"ax",%progbits
 603              		.align	1
 604              		.global	inv_q_add
 605              		.syntax unified
 606              		.thumb
 607              		.thumb_func
 609              	inv_q_add:
 610              	.LVL65:
 611              	.LFB33:
 243:DMP/mllite/ml_math_func.c ****     INVENSENSE_FUNC_START;
 612              		.loc 1 243 1 is_stmt 1 view -0
 613              		.cfi_startproc
 614              		@ args = 0, pretend = 0, frame = 0
 615              		@ frame_needed = 0, uses_anonymous_args = 0
 616              		@ link register save eliminated.
 243:DMP/mllite/ml_math_func.c ****     INVENSENSE_FUNC_START;
 617              		.loc 1 243 1 is_stmt 0 view .LVU162
 618 0000 10B4     		push	{r4}
 619              	.LCFI4:
 620              		.cfi_def_cfa_offset 4
ARM GAS  /var/folders/21/t9g5rlb91ys800n5npymflf80000gn/T//cc5g3ium.s 			page 25


 621              		.cfi_offset 4, -4
 244:DMP/mllite/ml_math_func.c ****     qSum[0] = q1[0] + q2[0];
 622              		.loc 1 244 5 is_stmt 1 view .LVU163
 245:DMP/mllite/ml_math_func.c ****     qSum[1] = q1[1] + q2[1];
 623              		.loc 1 245 5 view .LVU164
 245:DMP/mllite/ml_math_func.c ****     qSum[1] = q1[1] + q2[1];
 624              		.loc 1 245 17 is_stmt 0 view .LVU165
 625 0002 0368     		ldr	r3, [r0]
 245:DMP/mllite/ml_math_func.c ****     qSum[1] = q1[1] + q2[1];
 626              		.loc 1 245 21 view .LVU166
 627 0004 0C68     		ldr	r4, [r1]
 628 0006 2344     		add	r3, r3, r4
 245:DMP/mllite/ml_math_func.c ****     qSum[1] = q1[1] + q2[1];
 629              		.loc 1 245 13 view .LVU167
 630 0008 1360     		str	r3, [r2]
 246:DMP/mllite/ml_math_func.c ****     qSum[2] = q1[2] + q2[2];
 631              		.loc 1 246 5 is_stmt 1 view .LVU168
 246:DMP/mllite/ml_math_func.c ****     qSum[2] = q1[2] + q2[2];
 632              		.loc 1 246 17 is_stmt 0 view .LVU169
 633 000a 4368     		ldr	r3, [r0, #4]
 246:DMP/mllite/ml_math_func.c ****     qSum[2] = q1[2] + q2[2];
 634              		.loc 1 246 21 view .LVU170
 635 000c 4C68     		ldr	r4, [r1, #4]
 636 000e 2344     		add	r3, r3, r4
 246:DMP/mllite/ml_math_func.c ****     qSum[2] = q1[2] + q2[2];
 637              		.loc 1 246 13 view .LVU171
 638 0010 5360     		str	r3, [r2, #4]
 247:DMP/mllite/ml_math_func.c ****     qSum[3] = q1[3] + q2[3];
 639              		.loc 1 247 5 is_stmt 1 view .LVU172
 247:DMP/mllite/ml_math_func.c ****     qSum[3] = q1[3] + q2[3];
 640              		.loc 1 247 17 is_stmt 0 view .LVU173
 641 0012 8368     		ldr	r3, [r0, #8]
 247:DMP/mllite/ml_math_func.c ****     qSum[3] = q1[3] + q2[3];
 642              		.loc 1 247 21 view .LVU174
 643 0014 8C68     		ldr	r4, [r1, #8]
 644 0016 2344     		add	r3, r3, r4
 247:DMP/mllite/ml_math_func.c ****     qSum[3] = q1[3] + q2[3];
 645              		.loc 1 247 13 view .LVU175
 646 0018 9360     		str	r3, [r2, #8]
 248:DMP/mllite/ml_math_func.c **** }
 647              		.loc 1 248 5 is_stmt 1 view .LVU176
 248:DMP/mllite/ml_math_func.c **** }
 648              		.loc 1 248 17 is_stmt 0 view .LVU177
 649 001a C368     		ldr	r3, [r0, #12]
 248:DMP/mllite/ml_math_func.c **** }
 650              		.loc 1 248 25 view .LVU178
 651 001c C968     		ldr	r1, [r1, #12]
 652              	.LVL66:
 248:DMP/mllite/ml_math_func.c **** }
 653              		.loc 1 248 21 view .LVU179
 654 001e 0B44     		add	r3, r3, r1
 248:DMP/mllite/ml_math_func.c **** }
 655              		.loc 1 248 13 view .LVU180
 656 0020 D360     		str	r3, [r2, #12]
 249:DMP/mllite/ml_math_func.c **** 
 657              		.loc 1 249 1 view .LVU181
 658 0022 5DF8044B 		ldr	r4, [sp], #4
ARM GAS  /var/folders/21/t9g5rlb91ys800n5npymflf80000gn/T//cc5g3ium.s 			page 26


 659              	.LCFI5:
 660              		.cfi_restore 4
 661              		.cfi_def_cfa_offset 0
 662 0026 7047     		bx	lr
 663              		.cfi_endproc
 664              	.LFE33:
 666              		.global	__aeabi_i2d
 667              		.global	__aeabi_dmul
 668              		.global	__aeabi_dadd
 669              		.global	__aeabi_dcmpgt
 670              		.global	__aeabi_ddiv
 671              		.global	__aeabi_d2iz
 672              		.section	.text.inv_vector_normalize,"ax",%progbits
 673              		.align	1
 674              		.global	inv_vector_normalize
 675              		.syntax unified
 676              		.thumb
 677              		.thumb_func
 679              	inv_vector_normalize:
 680              	.LVL67:
 681              	.LFB34:
 252:DMP/mllite/ml_math_func.c ****     INVENSENSE_FUNC_START;
 682              		.loc 1 252 1 is_stmt 1 view -0
 683              		.cfi_startproc
 684              		@ args = 0, pretend = 0, frame = 0
 685              		@ frame_needed = 0, uses_anonymous_args = 0
 252:DMP/mllite/ml_math_func.c ****     INVENSENSE_FUNC_START;
 686              		.loc 1 252 1 is_stmt 0 view .LVU183
 687 0000 2DE9F04D 		push	{r4, r5, r6, r7, r8, r10, fp, lr}
 688              	.LCFI6:
 689              		.cfi_def_cfa_offset 32
 690              		.cfi_offset 4, -32
 691              		.cfi_offset 5, -28
 692              		.cfi_offset 6, -24
 693              		.cfi_offset 7, -20
 694              		.cfi_offset 8, -16
 695              		.cfi_offset 10, -12
 696              		.cfi_offset 11, -8
 697              		.cfi_offset 14, -4
 698 0004 0746     		mov	r7, r0
 699 0006 8846     		mov	r8, r1
 253:DMP/mllite/ml_math_func.c ****     double normSF = 0;
 700              		.loc 1 253 5 is_stmt 1 view .LVU184
 254:DMP/mllite/ml_math_func.c ****     int ii;
 701              		.loc 1 254 5 view .LVU185
 702              	.LVL68:
 255:DMP/mllite/ml_math_func.c ****     for (ii = 0; ii < length; ii++) {
 703              		.loc 1 255 5 view .LVU186
 256:DMP/mllite/ml_math_func.c ****         normSF +=
 704              		.loc 1 256 5 view .LVU187
 256:DMP/mllite/ml_math_func.c ****         normSF +=
 705              		.loc 1 256 13 is_stmt 0 view .LVU188
 706 0008 0026     		movs	r6, #0
 254:DMP/mllite/ml_math_func.c ****     int ii;
 707              		.loc 1 254 12 view .LVU189
 708 000a 0024     		movs	r4, #0
 709 000c 0025     		movs	r5, #0
ARM GAS  /var/folders/21/t9g5rlb91ys800n5npymflf80000gn/T//cc5g3ium.s 			page 27


 256:DMP/mllite/ml_math_func.c ****         normSF +=
 710              		.loc 1 256 5 view .LVU190
 711 000e 14E0     		b	.L33
 712              	.LVL69:
 713              	.L34:
 257:DMP/mllite/ml_math_func.c ****             inv_q30_to_double(vec[ii]) * inv_q30_to_double(vec[ii]);
 714              		.loc 1 257 9 is_stmt 1 discriminator 3 view .LVU191
 715              	.LBB10:
 716              	.LBI10:
 717              		.file 2 "DMP/mllite/ml_math_func.h"
   1:DMP/mllite/ml_math_func.h **** /*
   2:DMP/mllite/ml_math_func.h ****  $License:
   3:DMP/mllite/ml_math_func.h ****     Copyright (C) 2011-2012 InvenSense Corporation, All Rights Reserved.
   4:DMP/mllite/ml_math_func.h ****     See included License.txt for License information.
   5:DMP/mllite/ml_math_func.h ****  $
   6:DMP/mllite/ml_math_func.h ****  */
   7:DMP/mllite/ml_math_func.h **** #ifndef INVENSENSE_INV_MATH_FUNC_H__
   8:DMP/mllite/ml_math_func.h **** #define INVENSENSE_INV_MATH_FUNC_H__
   9:DMP/mllite/ml_math_func.h **** 
  10:DMP/mllite/ml_math_func.h **** #include "mltypes.h"
  11:DMP/mllite/ml_math_func.h **** 
  12:DMP/mllite/ml_math_func.h **** #define GYRO_MAG_SQR_SHIFT 6
  13:DMP/mllite/ml_math_func.h **** #define NUM_ROTATION_MATRIX_ELEMENTS (9)
  14:DMP/mllite/ml_math_func.h **** #define ROT_MATRIX_SCALE_LONG  (1073741824L)
  15:DMP/mllite/ml_math_func.h **** #define ROT_MATRIX_SCALE_FLOAT (1073741824.0f)
  16:DMP/mllite/ml_math_func.h **** #define ROT_MATRIX_LONG_TO_FLOAT( longval ) \
  17:DMP/mllite/ml_math_func.h ****     ((float) ((longval) / ROT_MATRIX_SCALE_FLOAT ))
  18:DMP/mllite/ml_math_func.h **** #define SIGNM(k)((int)(k)&1?-1:1)
  19:DMP/mllite/ml_math_func.h **** #define SIGNSET(x) ((x) ? -1 : +1)
  20:DMP/mllite/ml_math_func.h **** 
  21:DMP/mllite/ml_math_func.h **** #define INV_TWO_POWER_NEG_30 9.313225746154785e-010f
  22:DMP/mllite/ml_math_func.h **** 
  23:DMP/mllite/ml_math_func.h **** #ifdef __cplusplus
  24:DMP/mllite/ml_math_func.h **** extern "C" {
  25:DMP/mllite/ml_math_func.h **** #endif
  26:DMP/mllite/ml_math_func.h **** 
  27:DMP/mllite/ml_math_func.h ****      typedef struct {
  28:DMP/mllite/ml_math_func.h ****         float state[4];
  29:DMP/mllite/ml_math_func.h ****         float c[5];
  30:DMP/mllite/ml_math_func.h ****         float input;
  31:DMP/mllite/ml_math_func.h ****         float output;
  32:DMP/mllite/ml_math_func.h ****     }   inv_biquad_filter_t;
  33:DMP/mllite/ml_math_func.h **** 
  34:DMP/mllite/ml_math_func.h ****     static inline float inv_q30_to_float(long q30)
  35:DMP/mllite/ml_math_func.h ****     {
  36:DMP/mllite/ml_math_func.h ****         return (float) q30 / ((float)(1L << 30));
  37:DMP/mllite/ml_math_func.h ****     }
  38:DMP/mllite/ml_math_func.h **** 
  39:DMP/mllite/ml_math_func.h ****     static inline double inv_q30_to_double(long q30)
 718              		.loc 2 39 26 discriminator 3 view .LVU192
 719              	.LBB11:
  40:DMP/mllite/ml_math_func.h ****     {
  41:DMP/mllite/ml_math_func.h ****         return (double) q30 / ((double)(1L << 30));
 720              		.loc 2 41 9 discriminator 3 view .LVU193
 721              		.loc 2 41 16 is_stmt 0 discriminator 3 view .LVU194
 722 0010 57F82600 		ldr	r0, [r7, r6, lsl #2]
 723 0014 FFF7FEFF 		bl	__aeabi_i2d
ARM GAS  /var/folders/21/t9g5rlb91ys800n5npymflf80000gn/T//cc5g3ium.s 			page 28


 724              	.LVL70:
 725              		.loc 2 41 29 discriminator 3 view .LVU195
 726 0018 0022     		movs	r2, #0
 727 001a 224B     		ldr	r3, .L46
 728 001c FFF7FEFF 		bl	__aeabi_dmul
 729              	.LVL71:
 730 0020 0246     		mov	r2, r0
 731 0022 0B46     		mov	r3, r1
 732              	.LVL72:
 733              		.loc 2 41 29 discriminator 3 view .LVU196
 734              	.LBE11:
 735              	.LBE10:
 258:DMP/mllite/ml_math_func.c ****     }
 736              		.loc 1 258 40 discriminator 3 view .LVU197
 737 0024 FFF7FEFF 		bl	__aeabi_dmul
 738              	.LVL73:
 739 0028 0246     		mov	r2, r0
 740 002a 0B46     		mov	r3, r1
 257:DMP/mllite/ml_math_func.c ****             inv_q30_to_double(vec[ii]) * inv_q30_to_double(vec[ii]);
 741              		.loc 1 257 16 discriminator 3 view .LVU198
 742 002c 2046     		mov	r0, r4
 743 002e 2946     		mov	r1, r5
 744 0030 FFF7FEFF 		bl	__aeabi_dadd
 745              	.LVL74:
 746 0034 0446     		mov	r4, r0
 747              	.LVL75:
 257:DMP/mllite/ml_math_func.c ****             inv_q30_to_double(vec[ii]) * inv_q30_to_double(vec[ii]);
 748              		.loc 1 257 16 discriminator 3 view .LVU199
 749 0036 0D46     		mov	r5, r1
 750              	.LVL76:
 256:DMP/mllite/ml_math_func.c ****         normSF +=
 751              		.loc 1 256 33 is_stmt 1 discriminator 3 view .LVU200
 752 0038 0136     		adds	r6, r6, #1
 753              	.LVL77:
 754              	.L33:
 256:DMP/mllite/ml_math_func.c ****         normSF +=
 755              		.loc 1 256 21 discriminator 1 view .LVU201
 756 003a 4645     		cmp	r6, r8
 757 003c E8DB     		blt	.L34
 260:DMP/mllite/ml_math_func.c ****         normSF = 1 / sqrt(normSF);
 758              		.loc 1 260 5 view .LVU202
 260:DMP/mllite/ml_math_func.c ****         normSF = 1 / sqrt(normSF);
 759              		.loc 1 260 8 is_stmt 0 view .LVU203
 760 003e 0022     		movs	r2, #0
 761 0040 0023     		movs	r3, #0
 762 0042 2046     		mov	r0, r4
 763 0044 2946     		mov	r1, r5
 764 0046 FFF7FEFF 		bl	__aeabi_dcmpgt
 765              	.LVL78:
 766 004a 20B9     		cbnz	r0, .L45
 266:DMP/mllite/ml_math_func.c ****         for (ii = 1; ii < length; ii++) {
 767              		.loc 1 266 9 is_stmt 1 view .LVU204
 266:DMP/mllite/ml_math_func.c ****         for (ii = 1; ii < length; ii++) {
 768              		.loc 1 266 16 is_stmt 0 view .LVU205
 769 004c 4FF08043 		mov	r3, #1073741824
 770 0050 3B60     		str	r3, [r7]
 267:DMP/mllite/ml_math_func.c ****             vec[ii] = 0;
ARM GAS  /var/folders/21/t9g5rlb91ys800n5npymflf80000gn/T//cc5g3ium.s 			page 29


 771              		.loc 1 267 9 is_stmt 1 view .LVU206
 772              	.LVL79:
 267:DMP/mllite/ml_math_func.c ****             vec[ii] = 0;
 773              		.loc 1 267 17 is_stmt 0 view .LVU207
 774 0052 0123     		movs	r3, #1
 267:DMP/mllite/ml_math_func.c ****             vec[ii] = 0;
 775              		.loc 1 267 9 view .LVU208
 776 0054 21E0     		b	.L40
 777              	.LVL80:
 778              	.L45:
 261:DMP/mllite/ml_math_func.c ****         for (ii = 0; ii < length; ii++) {
 779              		.loc 1 261 9 is_stmt 1 view .LVU209
 261:DMP/mllite/ml_math_func.c ****         for (ii = 0; ii < length; ii++) {
 780              		.loc 1 261 22 is_stmt 0 view .LVU210
 781 0056 45EC104B 		vmov	d0, r4, r5
 782 005a FFF7FEFF 		bl	sqrt
 783              	.LVL81:
 784 005e 53EC102B 		vmov	r2, r3, d0
 261:DMP/mllite/ml_math_func.c ****         for (ii = 0; ii < length; ii++) {
 785              		.loc 1 261 16 view .LVU211
 786 0062 0020     		movs	r0, #0
 787 0064 1049     		ldr	r1, .L46+4
 788 0066 FFF7FEFF 		bl	__aeabi_ddiv
 789              	.LVL82:
 790 006a 8246     		mov	r10, r0
 791 006c 8B46     		mov	fp, r1
 792              	.LVL83:
 262:DMP/mllite/ml_math_func.c ****             vec[ii] = (int)((double)vec[ii] * normSF);
 793              		.loc 1 262 9 is_stmt 1 view .LVU212
 262:DMP/mllite/ml_math_func.c ****             vec[ii] = (int)((double)vec[ii] * normSF);
 794              		.loc 1 262 17 is_stmt 0 view .LVU213
 795 006e 0024     		movs	r4, #0
 262:DMP/mllite/ml_math_func.c ****             vec[ii] = (int)((double)vec[ii] * normSF);
 796              		.loc 1 262 9 view .LVU214
 797 0070 0CE0     		b	.L37
 798              	.LVL84:
 799              	.L38:
 263:DMP/mllite/ml_math_func.c ****         }
 800              		.loc 1 263 13 is_stmt 1 discriminator 3 view .LVU215
 263:DMP/mllite/ml_math_func.c ****         }
 801              		.loc 1 263 29 is_stmt 0 discriminator 3 view .LVU216
 802 0072 57F82400 		ldr	r0, [r7, r4, lsl #2]
 803 0076 FFF7FEFF 		bl	__aeabi_i2d
 804              	.LVL85:
 263:DMP/mllite/ml_math_func.c ****         }
 805              		.loc 1 263 45 discriminator 3 view .LVU217
 806 007a 5246     		mov	r2, r10
 807 007c 5B46     		mov	r3, fp
 808 007e FFF7FEFF 		bl	__aeabi_dmul
 809              	.LVL86:
 263:DMP/mllite/ml_math_func.c ****         }
 810              		.loc 1 263 23 discriminator 3 view .LVU218
 811 0082 FFF7FEFF 		bl	__aeabi_d2iz
 812              	.LVL87:
 263:DMP/mllite/ml_math_func.c ****         }
 813              		.loc 1 263 21 discriminator 3 view .LVU219
 814 0086 47F82400 		str	r0, [r7, r4, lsl #2]
ARM GAS  /var/folders/21/t9g5rlb91ys800n5npymflf80000gn/T//cc5g3ium.s 			page 30


 262:DMP/mllite/ml_math_func.c ****             vec[ii] = (int)((double)vec[ii] * normSF);
 815              		.loc 1 262 37 is_stmt 1 discriminator 3 view .LVU220
 816 008a 0134     		adds	r4, r4, #1
 817              	.LVL88:
 818              	.L37:
 262:DMP/mllite/ml_math_func.c ****             vec[ii] = (int)((double)vec[ii] * normSF);
 819              		.loc 1 262 25 discriminator 1 view .LVU221
 820 008c 4445     		cmp	r4, r8
 821 008e F0DB     		blt	.L38
 822 0090 05E0     		b	.L32
 823              	.LVL89:
 824              	.L41:
 268:DMP/mllite/ml_math_func.c ****         }
 825              		.loc 1 268 13 discriminator 3 view .LVU222
 268:DMP/mllite/ml_math_func.c ****         }
 826              		.loc 1 268 21 is_stmt 0 discriminator 3 view .LVU223
 827 0092 0022     		movs	r2, #0
 828 0094 47F82320 		str	r2, [r7, r3, lsl #2]
 267:DMP/mllite/ml_math_func.c ****             vec[ii] = 0;
 829              		.loc 1 267 37 is_stmt 1 discriminator 3 view .LVU224
 830 0098 0133     		adds	r3, r3, #1
 831              	.LVL90:
 832              	.L40:
 267:DMP/mllite/ml_math_func.c ****             vec[ii] = 0;
 833              		.loc 1 267 25 discriminator 1 view .LVU225
 834 009a 4345     		cmp	r3, r8
 835 009c F9DB     		blt	.L41
 836              	.LVL91:
 837              	.L32:
 271:DMP/mllite/ml_math_func.c **** 
 838              		.loc 1 271 1 is_stmt 0 view .LVU226
 839 009e BDE8F08D 		pop	{r4, r5, r6, r7, r8, r10, fp, pc}
 840              	.LVL92:
 841              	.L47:
 271:DMP/mllite/ml_math_func.c **** 
 842              		.loc 1 271 1 view .LVU227
 843 00a2 00BF     		.align	2
 844              	.L46:
 845 00a4 0000103E 		.word	1041235968
 846 00a8 0000F03F 		.word	1072693248
 847              		.cfi_endproc
 848              	.LFE34:
 850              		.section	.text.inv_q_normalize,"ax",%progbits
 851              		.align	1
 852              		.global	inv_q_normalize
 853              		.syntax unified
 854              		.thumb
 855              		.thumb_func
 857              	inv_q_normalize:
 858              	.LVL93:
 859              	.LFB35:
 274:DMP/mllite/ml_math_func.c ****     INVENSENSE_FUNC_START;
 860              		.loc 1 274 1 is_stmt 1 view -0
 861              		.cfi_startproc
 862              		@ args = 0, pretend = 0, frame = 0
 863              		@ frame_needed = 0, uses_anonymous_args = 0
 274:DMP/mllite/ml_math_func.c ****     INVENSENSE_FUNC_START;
ARM GAS  /var/folders/21/t9g5rlb91ys800n5npymflf80000gn/T//cc5g3ium.s 			page 31


 864              		.loc 1 274 1 is_stmt 0 view .LVU229
 865 0000 08B5     		push	{r3, lr}
 866              	.LCFI7:
 867              		.cfi_def_cfa_offset 8
 868              		.cfi_offset 3, -8
 869              		.cfi_offset 14, -4
 275:DMP/mllite/ml_math_func.c ****     inv_vector_normalize(q, 4);
 870              		.loc 1 275 5 is_stmt 1 view .LVU230
 276:DMP/mllite/ml_math_func.c **** }
 871              		.loc 1 276 5 view .LVU231
 872 0002 0421     		movs	r1, #4
 873 0004 FFF7FEFF 		bl	inv_vector_normalize
 874              	.LVL94:
 277:DMP/mllite/ml_math_func.c **** 
 875              		.loc 1 277 1 is_stmt 0 view .LVU232
 876 0008 08BD     		pop	{r3, pc}
 877              		.cfi_endproc
 878              	.LFE35:
 880              		.section	.text.inv_q_invert,"ax",%progbits
 881              		.align	1
 882              		.global	inv_q_invert
 883              		.syntax unified
 884              		.thumb
 885              		.thumb_func
 887              	inv_q_invert:
 888              	.LVL95:
 889              	.LFB36:
 280:DMP/mllite/ml_math_func.c ****     INVENSENSE_FUNC_START;
 890              		.loc 1 280 1 is_stmt 1 view -0
 891              		.cfi_startproc
 892              		@ args = 0, pretend = 0, frame = 0
 893              		@ frame_needed = 0, uses_anonymous_args = 0
 894              		@ link register save eliminated.
 281:DMP/mllite/ml_math_func.c ****     qInverted[0] = q[0];
 895              		.loc 1 281 5 view .LVU234
 282:DMP/mllite/ml_math_func.c ****     qInverted[1] = -q[1];
 896              		.loc 1 282 5 view .LVU235
 282:DMP/mllite/ml_math_func.c ****     qInverted[1] = -q[1];
 897              		.loc 1 282 21 is_stmt 0 view .LVU236
 898 0000 0368     		ldr	r3, [r0]
 282:DMP/mllite/ml_math_func.c ****     qInverted[1] = -q[1];
 899              		.loc 1 282 18 view .LVU237
 900 0002 0B60     		str	r3, [r1]
 283:DMP/mllite/ml_math_func.c ****     qInverted[2] = -q[2];
 901              		.loc 1 283 5 is_stmt 1 view .LVU238
 283:DMP/mllite/ml_math_func.c ****     qInverted[2] = -q[2];
 902              		.loc 1 283 22 is_stmt 0 view .LVU239
 903 0004 4368     		ldr	r3, [r0, #4]
 283:DMP/mllite/ml_math_func.c ****     qInverted[2] = -q[2];
 904              		.loc 1 283 20 view .LVU240
 905 0006 5B42     		rsbs	r3, r3, #0
 283:DMP/mllite/ml_math_func.c ****     qInverted[2] = -q[2];
 906              		.loc 1 283 18 view .LVU241
 907 0008 4B60     		str	r3, [r1, #4]
 284:DMP/mllite/ml_math_func.c ****     qInverted[3] = -q[3];
 908              		.loc 1 284 5 is_stmt 1 view .LVU242
 284:DMP/mllite/ml_math_func.c ****     qInverted[3] = -q[3];
ARM GAS  /var/folders/21/t9g5rlb91ys800n5npymflf80000gn/T//cc5g3ium.s 			page 32


 909              		.loc 1 284 22 is_stmt 0 view .LVU243
 910 000a 8368     		ldr	r3, [r0, #8]
 284:DMP/mllite/ml_math_func.c ****     qInverted[3] = -q[3];
 911              		.loc 1 284 20 view .LVU244
 912 000c 5B42     		rsbs	r3, r3, #0
 284:DMP/mllite/ml_math_func.c ****     qInverted[3] = -q[3];
 913              		.loc 1 284 18 view .LVU245
 914 000e 8B60     		str	r3, [r1, #8]
 285:DMP/mllite/ml_math_func.c **** }
 915              		.loc 1 285 5 is_stmt 1 view .LVU246
 285:DMP/mllite/ml_math_func.c **** }
 916              		.loc 1 285 22 is_stmt 0 view .LVU247
 917 0010 C368     		ldr	r3, [r0, #12]
 285:DMP/mllite/ml_math_func.c **** }
 918              		.loc 1 285 20 view .LVU248
 919 0012 5B42     		rsbs	r3, r3, #0
 285:DMP/mllite/ml_math_func.c **** }
 920              		.loc 1 285 18 view .LVU249
 921 0014 CB60     		str	r3, [r1, #12]
 286:DMP/mllite/ml_math_func.c **** 
 922              		.loc 1 286 1 view .LVU250
 923 0016 7047     		bx	lr
 924              		.cfi_endproc
 925              	.LFE36:
 927              		.section	.text.inv_compass_angle,"ax",%progbits
 928              		.align	1
 929              		.global	inv_compass_angle
 930              		.syntax unified
 931              		.thumb
 932              		.thumb_func
 934              	inv_compass_angle:
 935              	.LVL96:
 936              	.LFB26:
  94:DMP/mllite/ml_math_func.c ****     long cgcross[4], q1[4], q2[4], qi[4];
 937              		.loc 1 94 1 is_stmt 1 view -0
 938              		.cfi_startproc
 939              		@ args = 0, pretend = 0, frame = 64
 940              		@ frame_needed = 0, uses_anonymous_args = 0
  94:DMP/mllite/ml_math_func.c ****     long cgcross[4], q1[4], q2[4], qi[4];
 941              		.loc 1 94 1 is_stmt 0 view .LVU252
 942 0000 2DE9F04F 		push	{r4, r5, r6, r7, r8, r9, r10, fp, lr}
 943              	.LCFI8:
 944              		.cfi_def_cfa_offset 36
 945              		.cfi_offset 4, -36
 946              		.cfi_offset 5, -32
 947              		.cfi_offset 6, -28
 948              		.cfi_offset 7, -24
 949              		.cfi_offset 8, -20
 950              		.cfi_offset 9, -16
 951              		.cfi_offset 10, -12
 952              		.cfi_offset 11, -8
 953              		.cfi_offset 14, -4
 954 0004 91B0     		sub	sp, sp, #68
 955              	.LCFI9:
 956              		.cfi_def_cfa_offset 104
 957 0006 0546     		mov	r5, r0
 958 0008 8846     		mov	r8, r1
ARM GAS  /var/folders/21/t9g5rlb91ys800n5npymflf80000gn/T//cc5g3ium.s 			page 33


 959 000a 1646     		mov	r6, r2
  95:DMP/mllite/ml_math_func.c ****     float angW;
 960              		.loc 1 95 5 is_stmt 1 view .LVU253
  96:DMP/mllite/ml_math_func.c **** 
 961              		.loc 1 96 5 view .LVU254
  99:DMP/mllite/ml_math_func.c ****     cgcross[1] = inv_q30_mult(compass[1], grav[2]) - inv_q30_mult(compass[2], grav[1]);
 962              		.loc 1 99 5 view .LVU255
  99:DMP/mllite/ml_math_func.c ****     cgcross[1] = inv_q30_mult(compass[1], grav[2]) - inv_q30_mult(compass[2], grav[1]);
 963              		.loc 1 99 16 is_stmt 0 view .LVU256
 964 000c 0023     		movs	r3, #0
 965 000e 0C93     		str	r3, [sp, #48]
 100:DMP/mllite/ml_math_func.c ****     cgcross[2] = inv_q30_mult(compass[2], grav[0]) - inv_q30_mult(compass[0], grav[2]);
 966              		.loc 1 100 5 is_stmt 1 view .LVU257
 100:DMP/mllite/ml_math_func.c ****     cgcross[2] = inv_q30_mult(compass[2], grav[0]) - inv_q30_mult(compass[0], grav[2]);
 967              		.loc 1 100 18 is_stmt 0 view .LVU258
 968 0010 D1F808A0 		ldr	r10, [r1, #8]
 969 0014 4768     		ldr	r7, [r0, #4]
 970 0016 5146     		mov	r1, r10
 971              	.LVL97:
 100:DMP/mllite/ml_math_func.c ****     cgcross[2] = inv_q30_mult(compass[2], grav[0]) - inv_q30_mult(compass[0], grav[2]);
 972              		.loc 1 100 18 view .LVU259
 973 0018 3846     		mov	r0, r7
 974              	.LVL98:
 100:DMP/mllite/ml_math_func.c ****     cgcross[2] = inv_q30_mult(compass[2], grav[0]) - inv_q30_mult(compass[0], grav[2]);
 975              		.loc 1 100 18 view .LVU260
 976 001a FFF7FEFF 		bl	inv_q30_mult
 977              	.LVL99:
 100:DMP/mllite/ml_math_func.c ****     cgcross[2] = inv_q30_mult(compass[2], grav[0]) - inv_q30_mult(compass[0], grav[2]);
 978              		.loc 1 100 18 view .LVU261
 979 001e 0446     		mov	r4, r0
 100:DMP/mllite/ml_math_func.c ****     cgcross[2] = inv_q30_mult(compass[2], grav[0]) - inv_q30_mult(compass[0], grav[2]);
 980              		.loc 1 100 54 view .LVU262
 981 0020 D5F808B0 		ldr	fp, [r5, #8]
 982 0024 D8F80490 		ldr	r9, [r8, #4]
 983 0028 4946     		mov	r1, r9
 984 002a 5846     		mov	r0, fp
 985 002c FFF7FEFF 		bl	inv_q30_mult
 986              	.LVL100:
 100:DMP/mllite/ml_math_func.c ****     cgcross[2] = inv_q30_mult(compass[2], grav[0]) - inv_q30_mult(compass[0], grav[2]);
 987              		.loc 1 100 52 view .LVU263
 988 0030 241A     		subs	r4, r4, r0
 100:DMP/mllite/ml_math_func.c ****     cgcross[2] = inv_q30_mult(compass[2], grav[0]) - inv_q30_mult(compass[0], grav[2]);
 989              		.loc 1 100 16 view .LVU264
 990 0032 0D94     		str	r4, [sp, #52]
 101:DMP/mllite/ml_math_func.c ****     cgcross[3] = inv_q30_mult(compass[0], grav[1]) - inv_q30_mult(compass[1], grav[0]);
 991              		.loc 1 101 5 is_stmt 1 view .LVU265
 101:DMP/mllite/ml_math_func.c ****     cgcross[3] = inv_q30_mult(compass[0], grav[1]) - inv_q30_mult(compass[1], grav[0]);
 992              		.loc 1 101 18 is_stmt 0 view .LVU266
 993 0034 D8F80080 		ldr	r8, [r8]
 994              	.LVL101:
 101:DMP/mllite/ml_math_func.c ****     cgcross[3] = inv_q30_mult(compass[0], grav[1]) - inv_q30_mult(compass[1], grav[0]);
 995              		.loc 1 101 18 view .LVU267
 996 0038 4146     		mov	r1, r8
 997 003a 5846     		mov	r0, fp
 998 003c FFF7FEFF 		bl	inv_q30_mult
 999              	.LVL102:
 1000 0040 0446     		mov	r4, r0
ARM GAS  /var/folders/21/t9g5rlb91ys800n5npymflf80000gn/T//cc5g3ium.s 			page 34


 101:DMP/mllite/ml_math_func.c ****     cgcross[3] = inv_q30_mult(compass[0], grav[1]) - inv_q30_mult(compass[1], grav[0]);
 1001              		.loc 1 101 54 view .LVU268
 1002 0042 2D68     		ldr	r5, [r5]
 1003              	.LVL103:
 101:DMP/mllite/ml_math_func.c ****     cgcross[3] = inv_q30_mult(compass[0], grav[1]) - inv_q30_mult(compass[1], grav[0]);
 1004              		.loc 1 101 54 view .LVU269
 1005 0044 5146     		mov	r1, r10
 1006 0046 2846     		mov	r0, r5
 1007 0048 FFF7FEFF 		bl	inv_q30_mult
 1008              	.LVL104:
 101:DMP/mllite/ml_math_func.c ****     cgcross[3] = inv_q30_mult(compass[0], grav[1]) - inv_q30_mult(compass[1], grav[0]);
 1009              		.loc 1 101 52 view .LVU270
 1010 004c 241A     		subs	r4, r4, r0
 101:DMP/mllite/ml_math_func.c ****     cgcross[3] = inv_q30_mult(compass[0], grav[1]) - inv_q30_mult(compass[1], grav[0]);
 1011              		.loc 1 101 16 view .LVU271
 1012 004e 0E94     		str	r4, [sp, #56]
 102:DMP/mllite/ml_math_func.c **** 
 1013              		.loc 1 102 5 is_stmt 1 view .LVU272
 102:DMP/mllite/ml_math_func.c **** 
 1014              		.loc 1 102 18 is_stmt 0 view .LVU273
 1015 0050 4946     		mov	r1, r9
 1016 0052 2846     		mov	r0, r5
 1017 0054 FFF7FEFF 		bl	inv_q30_mult
 1018              	.LVL105:
 1019 0058 0446     		mov	r4, r0
 102:DMP/mllite/ml_math_func.c **** 
 1020              		.loc 1 102 54 view .LVU274
 1021 005a 4146     		mov	r1, r8
 1022 005c 3846     		mov	r0, r7
 1023 005e FFF7FEFF 		bl	inv_q30_mult
 1024              	.LVL106:
 102:DMP/mllite/ml_math_func.c **** 
 1025              		.loc 1 102 52 view .LVU275
 1026 0062 241A     		subs	r4, r4, r0
 102:DMP/mllite/ml_math_func.c **** 
 1027              		.loc 1 102 16 view .LVU276
 1028 0064 0F94     		str	r4, [sp, #60]
 105:DMP/mllite/ml_math_func.c ****     inv_q_invert(quat, qi);
 1029              		.loc 1 105 5 is_stmt 1 view .LVU277
 1030 0066 08AA     		add	r2, sp, #32
 1031 0068 0CA9     		add	r1, sp, #48
 1032 006a 3046     		mov	r0, r6
 1033 006c FFF7FEFF 		bl	inv_q_mult
 1034              	.LVL107:
 106:DMP/mllite/ml_math_func.c ****     inv_q_mult(q1, qi, q2);
 1035              		.loc 1 106 5 view .LVU278
 1036 0070 6946     		mov	r1, sp
 1037 0072 3046     		mov	r0, r6
 1038 0074 FFF7FEFF 		bl	inv_q_invert
 1039              	.LVL108:
 107:DMP/mllite/ml_math_func.c **** 
 1040              		.loc 1 107 5 view .LVU279
 1041 0078 04AA     		add	r2, sp, #16
 1042 007a 6946     		mov	r1, sp
 1043 007c 08A8     		add	r0, sp, #32
 1044 007e FFF7FEFF 		bl	inv_q_mult
 1045              	.LVL109:
ARM GAS  /var/folders/21/t9g5rlb91ys800n5npymflf80000gn/T//cc5g3ium.s 			page 35


 110:DMP/mllite/ml_math_func.c ****         return 0.f;
 1046              		.loc 1 110 5 view .LVU280
 110:DMP/mllite/ml_math_func.c ****         return 0.f;
 1047              		.loc 1 110 12 is_stmt 0 view .LVU281
 1048 0082 069B     		ldr	r3, [sp, #24]
 110:DMP/mllite/ml_math_func.c ****         return 0.f;
 1049              		.loc 1 110 8 view .LVU282
 1050 0084 0BB9     		cbnz	r3, .L52
 110:DMP/mllite/ml_math_func.c ****         return 0.f;
 1051              		.loc 1 110 29 discriminator 1 view .LVU283
 1052 0086 059A     		ldr	r2, [sp, #20]
 110:DMP/mllite/ml_math_func.c ****         return 0.f;
 1053              		.loc 1 110 23 discriminator 1 view .LVU284
 1054 0088 A2B1     		cbz	r2, .L54
 1055              	.L52:
 114:DMP/mllite/ml_math_func.c ****     return angW;
 1056              		.loc 1 114 5 is_stmt 1 view .LVU285
 1057              	.LVL110:
 1058              	.LBB12:
 1059              	.LBI12:
  34:DMP/mllite/ml_math_func.h ****     {
 1060              		.loc 2 34 25 view .LVU286
 1061              	.LBB13:
  36:DMP/mllite/ml_math_func.h ****     }
 1062              		.loc 2 36 9 view .LVU287
  36:DMP/mllite/ml_math_func.h ****     }
 1063              		.loc 2 36 16 is_stmt 0 view .LVU288
 1064 008a 07EE903A 		vmov	s15, r3	@ int
 1065 008e F8EEE77A 		vcvt.f32.s32	s15, s15
  36:DMP/mllite/ml_math_func.h ****     }
 1066              		.loc 2 36 28 view .LVU289
 1067 0092 9FED0A0A 		vldr.32	s0, .L56
 1068              	.LVL111:
  36:DMP/mllite/ml_math_func.h ****     }
 1069              		.loc 2 36 28 view .LVU290
 1070              	.LBE13:
 1071              	.LBE12:
 1072              	.LBB14:
 1073              	.LBI14:
  34:DMP/mllite/ml_math_func.h ****     {
 1074              		.loc 2 34 25 is_stmt 1 view .LVU291
 1075              	.LBB15:
  36:DMP/mllite/ml_math_func.h ****     }
 1076              		.loc 2 36 9 view .LVU292
  36:DMP/mllite/ml_math_func.h ****     }
 1077              		.loc 2 36 16 is_stmt 0 view .LVU293
 1078 0096 9DED057A 		vldr.32	s14, [sp, #20]	@ int
 1079 009a F8EEC70A 		vcvt.f32.s32	s1, s14
 1080              	.LVL112:
  36:DMP/mllite/ml_math_func.h ****     }
 1081              		.loc 2 36 16 view .LVU294
 1082              	.LBE15:
 1083              	.LBE14:
 114:DMP/mllite/ml_math_func.c ****     return angW;
 1084              		.loc 1 114 13 view .LVU295
 1085 009e 60EE800A 		vmul.f32	s1, s1, s0
 1086 00a2 27EE800A 		vmul.f32	s0, s15, s0
ARM GAS  /var/folders/21/t9g5rlb91ys800n5npymflf80000gn/T//cc5g3ium.s 			page 36


 1087 00a6 FFF7FEFF 		bl	atan2f
 1088              	.LVL113:
 114:DMP/mllite/ml_math_func.c ****     return angW;
 1089              		.loc 1 114 10 view .LVU296
 1090 00aa B1EE400A 		vneg.f32	s0, s0
 1091              	.LVL114:
 115:DMP/mllite/ml_math_func.c **** }
 1092              		.loc 1 115 5 is_stmt 1 view .LVU297
 1093              	.L51:
 116:DMP/mllite/ml_math_func.c **** 
 1094              		.loc 1 116 1 is_stmt 0 view .LVU298
 1095 00ae 11B0     		add	sp, sp, #68
 1096              	.LCFI10:
 1097              		.cfi_remember_state
 1098              		.cfi_def_cfa_offset 36
 1099              		@ sp needed
 1100 00b0 BDE8F08F 		pop	{r4, r5, r6, r7, r8, r9, r10, fp, pc}
 1101              	.LVL115:
 1102              	.L54:
 1103              	.LCFI11:
 1104              		.cfi_restore_state
 111:DMP/mllite/ml_math_func.c **** 
 1105              		.loc 1 111 16 view .LVU299
 1106 00b4 9FED020A 		vldr.32	s0, .L56+4
 1107 00b8 F9E7     		b	.L51
 1108              	.L57:
 1109 00ba 00BF     		.align	2
 1110              	.L56:
 1111 00bc 00008030 		.word	813694976
 1112 00c0 00000000 		.word	0
 1113              		.cfi_endproc
 1114              	.LFE26:
 1116              		.global	__aeabi_dcmplt
 1117              		.section	.text.quaternion_to_rotation_angle,"ax",%progbits
 1118              		.align	1
 1119              		.global	quaternion_to_rotation_angle
 1120              		.syntax unified
 1121              		.thumb
 1122              		.thumb_func
 1124              	quaternion_to_rotation_angle:
 1125              	.LVL116:
 1126              	.LFB37:
 288:DMP/mllite/ml_math_func.c ****     double quat0 = (double )quat[0] / 1073741824;
 1127              		.loc 1 288 55 is_stmt 1 view -0
 1128              		.cfi_startproc
 1129              		@ args = 0, pretend = 0, frame = 0
 1130              		@ frame_needed = 0, uses_anonymous_args = 0
 288:DMP/mllite/ml_math_func.c ****     double quat0 = (double )quat[0] / 1073741824;
 1131              		.loc 1 288 55 is_stmt 0 view .LVU301
 1132 0000 08B5     		push	{r3, lr}
 1133              	.LCFI12:
 1134              		.cfi_def_cfa_offset 8
 1135              		.cfi_offset 3, -8
 1136              		.cfi_offset 14, -4
 1137 0002 2DED028B 		vpush.64	{d8}
 1138              	.LCFI13:
 1139              		.cfi_def_cfa_offset 16
ARM GAS  /var/folders/21/t9g5rlb91ys800n5npymflf80000gn/T//cc5g3ium.s 			page 37


 1140              		.cfi_offset 80, -16
 1141              		.cfi_offset 81, -12
 289:DMP/mllite/ml_math_func.c ****     if (quat0 > 1.0f) {
 1142              		.loc 1 289 5 is_stmt 1 view .LVU302
 289:DMP/mllite/ml_math_func.c ****     if (quat0 > 1.0f) {
 1143              		.loc 1 289 20 is_stmt 0 view .LVU303
 1144 0006 0068     		ldr	r0, [r0]
 1145              	.LVL117:
 289:DMP/mllite/ml_math_func.c ****     if (quat0 > 1.0f) {
 1146              		.loc 1 289 20 view .LVU304
 1147 0008 FFF7FEFF 		bl	__aeabi_i2d
 1148              	.LVL118:
 289:DMP/mllite/ml_math_func.c ****     if (quat0 > 1.0f) {
 1149              		.loc 1 289 12 view .LVU305
 1150 000c 0022     		movs	r2, #0
 1151 000e 204B     		ldr	r3, .L64+24
 1152 0010 FFF7FEFF 		bl	__aeabi_dmul
 1153              	.LVL119:
 1154 0014 0246     		mov	r2, r0
 1155 0016 0B46     		mov	r3, r1
 1156 0018 43EC182B 		vmov	d8, r2, r3
 1157              	.LVL120:
 290:DMP/mllite/ml_math_func.c ****         quat0 = 1.0;
 1158              		.loc 1 290 5 is_stmt 1 view .LVU306
 290:DMP/mllite/ml_math_func.c ****         quat0 = 1.0;
 1159              		.loc 1 290 8 is_stmt 0 view .LVU307
 1160 001c 0022     		movs	r2, #0
 1161              	.LVL121:
 290:DMP/mllite/ml_math_func.c ****         quat0 = 1.0;
 1162              		.loc 1 290 8 view .LVU308
 1163 001e 1D4B     		ldr	r3, .L64+28
 1164 0020 FFF7FEFF 		bl	__aeabi_dcmpgt
 1165              	.LVL122:
 1166 0024 D8B1     		cbz	r0, .L63
 291:DMP/mllite/ml_math_func.c ****     } else if (quat0 < -1.0f) {
 1167              		.loc 1 291 15 view .LVU309
 1168 0026 9FED148B 		vldr.64	d8, .L64
 1169              	.LVL123:
 1170              	.L59:
 296:DMP/mllite/ml_math_func.c **** }
 1171              		.loc 1 296 5 is_stmt 1 view .LVU310
 296:DMP/mllite/ml_math_func.c **** }
 1172              		.loc 1 296 12 is_stmt 0 view .LVU311
 1173 002a B0EE480A 		vmov.f32	s0, s16
 1174 002e F0EE680A 		vmov.f32	s1, s17
 1175 0032 FFF7FEFF 		bl	acos
 1176              	.LVL124:
 1177 0036 51EC100B 		vmov	r0, r1, d0
 296:DMP/mllite/ml_math_func.c **** }
 1178              		.loc 1 296 23 view .LVU312
 1179 003a 0246     		mov	r2, r0
 1180 003c 0B46     		mov	r3, r1
 1181 003e FFF7FEFF 		bl	__aeabi_dadd
 1182              	.LVL125:
 296:DMP/mllite/ml_math_func.c **** }
 1183              		.loc 1 296 25 view .LVU313
 1184 0042 0022     		movs	r2, #0
ARM GAS  /var/folders/21/t9g5rlb91ys800n5npymflf80000gn/T//cc5g3ium.s 			page 38


 1185 0044 144B     		ldr	r3, .L64+32
 1186 0046 FFF7FEFF 		bl	__aeabi_dmul
 1187              	.LVL126:
 296:DMP/mllite/ml_math_func.c **** }
 1188              		.loc 1 296 29 view .LVU314
 1189 004a 0DA3     		adr	r3, .L64+8
 1190 004c D3E90023 		ldrd	r2, [r3]
 1191 0050 FFF7FEFF 		bl	__aeabi_ddiv
 1192              	.LVL127:
 297:DMP/mllite/ml_math_func.c **** 
 1193              		.loc 1 297 1 view .LVU315
 1194 0054 41EC100B 		vmov	d0, r0, r1
 1195 0058 BDEC028B 		vldm	sp!, {d8}
 1196              	.LCFI14:
 1197              		.cfi_remember_state
 1198              		.cfi_restore 80
 1199              		.cfi_restore 81
 1200              		.cfi_def_cfa_offset 8
 1201              	.LVL128:
 297:DMP/mllite/ml_math_func.c **** 
 1202              		.loc 1 297 1 view .LVU316
 1203 005c 08BD     		pop	{r3, pc}
 1204              	.LVL129:
 1205              	.L63:
 1206              	.LCFI15:
 1207              		.cfi_restore_state
 292:DMP/mllite/ml_math_func.c ****         quat0 = -1.0;
 1208              		.loc 1 292 12 is_stmt 1 view .LVU317
 292:DMP/mllite/ml_math_func.c ****         quat0 = -1.0;
 1209              		.loc 1 292 15 is_stmt 0 view .LVU318
 1210 005e 0022     		movs	r2, #0
 1211 0060 0E4B     		ldr	r3, .L64+36
 1212 0062 51EC180B 		vmov	r0, r1, d8
 1213 0066 FFF7FEFF 		bl	__aeabi_dcmplt
 1214              	.LVL130:
 1215 006a 0028     		cmp	r0, #0
 1216 006c DDD0     		beq	.L59
 293:DMP/mllite/ml_math_func.c ****     }
 1217              		.loc 1 293 15 view .LVU319
 1218 006e 9FED068B 		vldr.64	d8, .L64+16
 1219              	.LVL131:
 293:DMP/mllite/ml_math_func.c ****     }
 1220              		.loc 1 293 15 view .LVU320
 1221 0072 DAE7     		b	.L59
 1222              	.L65:
 1223 0074 AFF30080 		.align	3
 1224              	.L64:
 1225 0078 00000000 		.word	0
 1226 007c 0000F03F 		.word	1072693248
 1227 0080 182D4454 		.word	1413754136
 1228 0084 FB210940 		.word	1074340347
 1229 0088 00000000 		.word	0
 1230 008c 0000F0BF 		.word	-1074790400
 1231 0090 0000103E 		.word	1041235968
 1232 0094 0000F03F 		.word	1072693248
 1233 0098 00806640 		.word	1080459264
 1234 009c 0000F0BF 		.word	-1074790400
ARM GAS  /var/folders/21/t9g5rlb91ys800n5npymflf80000gn/T//cc5g3ium.s 			page 39


 1235              		.cfi_endproc
 1236              	.LFE37:
 1238              		.section	.text.inv_q_rotate,"ax",%progbits
 1239              		.align	1
 1240              		.global	inv_q_rotate
 1241              		.syntax unified
 1242              		.thumb
 1243              		.thumb_func
 1245              	inv_q_rotate:
 1246              	.LVL132:
 1247              	.LFB38:
 302:DMP/mllite/ml_math_func.c ****     long q_temp1[4], q_temp2[4];
 1248              		.loc 1 302 1 is_stmt 1 view -0
 1249              		.cfi_startproc
 1250              		@ args = 0, pretend = 0, frame = 64
 1251              		@ frame_needed = 0, uses_anonymous_args = 0
 302:DMP/mllite/ml_math_func.c ****     long q_temp1[4], q_temp2[4];
 1252              		.loc 1 302 1 is_stmt 0 view .LVU322
 1253 0000 30B5     		push	{r4, r5, lr}
 1254              	.LCFI16:
 1255              		.cfi_def_cfa_offset 12
 1256              		.cfi_offset 4, -12
 1257              		.cfi_offset 5, -8
 1258              		.cfi_offset 14, -4
 1259 0002 91B0     		sub	sp, sp, #68
 1260              	.LCFI17:
 1261              		.cfi_def_cfa_offset 80
 1262 0004 0546     		mov	r5, r0
 1263 0006 8C46     		mov	ip, r1
 1264 0008 1446     		mov	r4, r2
 303:DMP/mllite/ml_math_func.c ****     long in4[4], out4[4];
 1265              		.loc 1 303 5 is_stmt 1 view .LVU323
 304:DMP/mllite/ml_math_func.c **** 
 1266              		.loc 1 304 5 view .LVU324
 307:DMP/mllite/ml_math_func.c ****     memcpy(&in4[1], in, 3 * sizeof(long));
 1267              		.loc 1 307 5 view .LVU325
 307:DMP/mllite/ml_math_func.c ****     memcpy(&in4[1], in, 3 * sizeof(long));
 1268              		.loc 1 307 12 is_stmt 0 view .LVU326
 1269 000a 0023     		movs	r3, #0
 1270 000c 0493     		str	r3, [sp, #16]
 308:DMP/mllite/ml_math_func.c ****     inv_q_mult(q, in4, q_temp1);
 1271              		.loc 1 308 5 is_stmt 1 view .LVU327
 1272 000e 05AB     		add	r3, sp, #20
 1273 0010 0868     		ldr	r0, [r1]	@ unaligned
 1274              	.LVL133:
 308:DMP/mllite/ml_math_func.c ****     inv_q_mult(q, in4, q_temp1);
 1275              		.loc 1 308 5 is_stmt 0 view .LVU328
 1276 0012 4968     		ldr	r1, [r1, #4]	@ unaligned
 1277              	.LVL134:
 308:DMP/mllite/ml_math_func.c ****     inv_q_mult(q, in4, q_temp1);
 1278              		.loc 1 308 5 view .LVU329
 1279 0014 DCF80820 		ldr	r2, [ip, #8]	@ unaligned
 1280              	.LVL135:
 308:DMP/mllite/ml_math_func.c ****     inv_q_mult(q, in4, q_temp1);
 1281              		.loc 1 308 5 view .LVU330
 1282 0018 07C3     		stmia	r3!, {r0, r1, r2}
 309:DMP/mllite/ml_math_func.c ****     inv_q_invert(q, q_temp2);
ARM GAS  /var/folders/21/t9g5rlb91ys800n5npymflf80000gn/T//cc5g3ium.s 			page 40


 1283              		.loc 1 309 5 is_stmt 1 view .LVU331
 1284 001a 0CAA     		add	r2, sp, #48
 1285 001c 04A9     		add	r1, sp, #16
 1286 001e 2846     		mov	r0, r5
 1287 0020 FFF7FEFF 		bl	inv_q_mult
 1288              	.LVL136:
 310:DMP/mllite/ml_math_func.c ****     inv_q_mult(q_temp1, q_temp2, out4);
 1289              		.loc 1 310 5 view .LVU332
 1290 0024 08A9     		add	r1, sp, #32
 1291 0026 2846     		mov	r0, r5
 1292 0028 FFF7FEFF 		bl	inv_q_invert
 1293              	.LVL137:
 311:DMP/mllite/ml_math_func.c ****     memcpy(out, &out4[1], 3 * sizeof(long));
 1294              		.loc 1 311 5 view .LVU333
 1295 002c 6A46     		mov	r2, sp
 1296 002e 08A9     		add	r1, sp, #32
 1297 0030 0CA8     		add	r0, sp, #48
 1298 0032 FFF7FEFF 		bl	inv_q_mult
 1299              	.LVL138:
 312:DMP/mllite/ml_math_func.c **** }
 1300              		.loc 1 312 5 view .LVU334
 1301 0036 01AB     		add	r3, sp, #4
 1302 0038 07CB     		ldmia	r3!, {r0, r1, r2}
 1303 003a 2060     		str	r0, [r4]	@ unaligned
 1304 003c 6160     		str	r1, [r4, #4]	@ unaligned
 1305 003e A260     		str	r2, [r4, #8]	@ unaligned
 313:DMP/mllite/ml_math_func.c **** 
 1306              		.loc 1 313 1 is_stmt 0 view .LVU335
 1307 0040 11B0     		add	sp, sp, #68
 1308              	.LCFI18:
 1309              		.cfi_def_cfa_offset 12
 1310              		@ sp needed
 1311 0042 30BD     		pop	{r4, r5, pc}
 313:DMP/mllite/ml_math_func.c **** 
 1312              		.loc 1 313 1 view .LVU336
 1313              		.cfi_endproc
 1314              	.LFE38:
 1316              		.section	.text.inv_q_multf,"ax",%progbits
 1317              		.align	1
 1318              		.global	inv_q_multf
 1319              		.syntax unified
 1320              		.thumb
 1321              		.thumb_func
 1323              	inv_q_multf:
 1324              	.LVL139:
 1325              	.LFB39:
 316:DMP/mllite/ml_math_func.c ****     INVENSENSE_FUNC_START;
 1326              		.loc 1 316 1 is_stmt 1 view -0
 1327              		.cfi_startproc
 1328              		@ args = 0, pretend = 0, frame = 0
 1329              		@ frame_needed = 0, uses_anonymous_args = 0
 1330              		@ link register save eliminated.
 317:DMP/mllite/ml_math_func.c ****     qProd[0] =
 1331              		.loc 1 317 5 view .LVU338
 318:DMP/mllite/ml_math_func.c ****         (q1[0] * q2[0] - q1[1] * q2[1] - q1[2] * q2[2] - q1[3] * q2[3]);
 1332              		.loc 1 318 5 view .LVU339
 319:DMP/mllite/ml_math_func.c ****     qProd[1] =
ARM GAS  /var/folders/21/t9g5rlb91ys800n5npymflf80000gn/T//cc5g3ium.s 			page 41


 1333              		.loc 1 319 12 is_stmt 0 view .LVU340
 1334 0000 D0ED007A 		vldr.32	s15, [r0]
 319:DMP/mllite/ml_math_func.c ****     qProd[1] =
 1335              		.loc 1 319 20 view .LVU341
 1336 0004 91ED007A 		vldr.32	s14, [r1]
 319:DMP/mllite/ml_math_func.c ****     qProd[1] =
 1337              		.loc 1 319 16 view .LVU342
 1338 0008 67EE877A 		vmul.f32	s15, s15, s14
 319:DMP/mllite/ml_math_func.c ****     qProd[1] =
 1339              		.loc 1 319 28 view .LVU343
 1340 000c 90ED017A 		vldr.32	s14, [r0, #4]
 319:DMP/mllite/ml_math_func.c ****     qProd[1] =
 1341              		.loc 1 319 36 view .LVU344
 1342 0010 D1ED016A 		vldr.32	s13, [r1, #4]
 319:DMP/mllite/ml_math_func.c ****     qProd[1] =
 1343              		.loc 1 319 32 view .LVU345
 1344 0014 27EE267A 		vmul.f32	s14, s14, s13
 319:DMP/mllite/ml_math_func.c ****     qProd[1] =
 1345              		.loc 1 319 24 view .LVU346
 1346 0018 77EEC77A 		vsub.f32	s15, s15, s14
 319:DMP/mllite/ml_math_func.c ****     qProd[1] =
 1347              		.loc 1 319 44 view .LVU347
 1348 001c 90ED027A 		vldr.32	s14, [r0, #8]
 319:DMP/mllite/ml_math_func.c ****     qProd[1] =
 1349              		.loc 1 319 52 view .LVU348
 1350 0020 D1ED026A 		vldr.32	s13, [r1, #8]
 319:DMP/mllite/ml_math_func.c ****     qProd[1] =
 1351              		.loc 1 319 48 view .LVU349
 1352 0024 27EE267A 		vmul.f32	s14, s14, s13
 319:DMP/mllite/ml_math_func.c ****     qProd[1] =
 1353              		.loc 1 319 40 view .LVU350
 1354 0028 77EEC77A 		vsub.f32	s15, s15, s14
 319:DMP/mllite/ml_math_func.c ****     qProd[1] =
 1355              		.loc 1 319 60 view .LVU351
 1356 002c 90ED037A 		vldr.32	s14, [r0, #12]
 319:DMP/mllite/ml_math_func.c ****     qProd[1] =
 1357              		.loc 1 319 68 view .LVU352
 1358 0030 D1ED036A 		vldr.32	s13, [r1, #12]
 319:DMP/mllite/ml_math_func.c ****     qProd[1] =
 1359              		.loc 1 319 64 view .LVU353
 1360 0034 27EE267A 		vmul.f32	s14, s14, s13
 319:DMP/mllite/ml_math_func.c ****     qProd[1] =
 1361              		.loc 1 319 56 view .LVU354
 1362 0038 77EEC77A 		vsub.f32	s15, s15, s14
 318:DMP/mllite/ml_math_func.c ****         (q1[0] * q2[0] - q1[1] * q2[1] - q1[2] * q2[2] - q1[3] * q2[3]);
 1363              		.loc 1 318 14 view .LVU355
 1364 003c C2ED007A 		vstr.32	s15, [r2]
 320:DMP/mllite/ml_math_func.c ****         (q1[0] * q2[1] + q1[1] * q2[0] + q1[2] * q2[3] - q1[3] * q2[2]);
 1365              		.loc 1 320 5 is_stmt 1 view .LVU356
 321:DMP/mllite/ml_math_func.c ****     qProd[2] =
 1366              		.loc 1 321 12 is_stmt 0 view .LVU357
 1367 0040 D0ED007A 		vldr.32	s15, [r0]
 321:DMP/mllite/ml_math_func.c ****     qProd[2] =
 1368              		.loc 1 321 20 view .LVU358
 1369 0044 91ED017A 		vldr.32	s14, [r1, #4]
 321:DMP/mllite/ml_math_func.c ****     qProd[2] =
 1370              		.loc 1 321 16 view .LVU359
ARM GAS  /var/folders/21/t9g5rlb91ys800n5npymflf80000gn/T//cc5g3ium.s 			page 42


 1371 0048 67EE877A 		vmul.f32	s15, s15, s14
 321:DMP/mllite/ml_math_func.c ****     qProd[2] =
 1372              		.loc 1 321 28 view .LVU360
 1373 004c 90ED017A 		vldr.32	s14, [r0, #4]
 321:DMP/mllite/ml_math_func.c ****     qProd[2] =
 1374              		.loc 1 321 36 view .LVU361
 1375 0050 D1ED006A 		vldr.32	s13, [r1]
 321:DMP/mllite/ml_math_func.c ****     qProd[2] =
 1376              		.loc 1 321 32 view .LVU362
 1377 0054 27EE267A 		vmul.f32	s14, s14, s13
 321:DMP/mllite/ml_math_func.c ****     qProd[2] =
 1378              		.loc 1 321 24 view .LVU363
 1379 0058 77EE877A 		vadd.f32	s15, s15, s14
 321:DMP/mllite/ml_math_func.c ****     qProd[2] =
 1380              		.loc 1 321 44 view .LVU364
 1381 005c 90ED027A 		vldr.32	s14, [r0, #8]
 321:DMP/mllite/ml_math_func.c ****     qProd[2] =
 1382              		.loc 1 321 52 view .LVU365
 1383 0060 D1ED036A 		vldr.32	s13, [r1, #12]
 321:DMP/mllite/ml_math_func.c ****     qProd[2] =
 1384              		.loc 1 321 48 view .LVU366
 1385 0064 27EE267A 		vmul.f32	s14, s14, s13
 321:DMP/mllite/ml_math_func.c ****     qProd[2] =
 1386              		.loc 1 321 40 view .LVU367
 1387 0068 77EE877A 		vadd.f32	s15, s15, s14
 321:DMP/mllite/ml_math_func.c ****     qProd[2] =
 1388              		.loc 1 321 60 view .LVU368
 1389 006c 90ED037A 		vldr.32	s14, [r0, #12]
 321:DMP/mllite/ml_math_func.c ****     qProd[2] =
 1390              		.loc 1 321 68 view .LVU369
 1391 0070 D1ED026A 		vldr.32	s13, [r1, #8]
 321:DMP/mllite/ml_math_func.c ****     qProd[2] =
 1392              		.loc 1 321 64 view .LVU370
 1393 0074 27EE267A 		vmul.f32	s14, s14, s13
 321:DMP/mllite/ml_math_func.c ****     qProd[2] =
 1394              		.loc 1 321 56 view .LVU371
 1395 0078 77EEC77A 		vsub.f32	s15, s15, s14
 320:DMP/mllite/ml_math_func.c ****         (q1[0] * q2[1] + q1[1] * q2[0] + q1[2] * q2[3] - q1[3] * q2[2]);
 1396              		.loc 1 320 14 view .LVU372
 1397 007c C2ED017A 		vstr.32	s15, [r2, #4]
 322:DMP/mllite/ml_math_func.c ****         (q1[0] * q2[2] - q1[1] * q2[3] + q1[2] * q2[0] + q1[3] * q2[1]);
 1398              		.loc 1 322 5 is_stmt 1 view .LVU373
 323:DMP/mllite/ml_math_func.c ****     qProd[3] =
 1399              		.loc 1 323 12 is_stmt 0 view .LVU374
 1400 0080 D0ED007A 		vldr.32	s15, [r0]
 323:DMP/mllite/ml_math_func.c ****     qProd[3] =
 1401              		.loc 1 323 20 view .LVU375
 1402 0084 91ED027A 		vldr.32	s14, [r1, #8]
 323:DMP/mllite/ml_math_func.c ****     qProd[3] =
 1403              		.loc 1 323 16 view .LVU376
 1404 0088 67EE877A 		vmul.f32	s15, s15, s14
 323:DMP/mllite/ml_math_func.c ****     qProd[3] =
 1405              		.loc 1 323 28 view .LVU377
 1406 008c 90ED017A 		vldr.32	s14, [r0, #4]
 323:DMP/mllite/ml_math_func.c ****     qProd[3] =
 1407              		.loc 1 323 36 view .LVU378
 1408 0090 D1ED036A 		vldr.32	s13, [r1, #12]
ARM GAS  /var/folders/21/t9g5rlb91ys800n5npymflf80000gn/T//cc5g3ium.s 			page 43


 323:DMP/mllite/ml_math_func.c ****     qProd[3] =
 1409              		.loc 1 323 32 view .LVU379
 1410 0094 27EE267A 		vmul.f32	s14, s14, s13
 323:DMP/mllite/ml_math_func.c ****     qProd[3] =
 1411              		.loc 1 323 24 view .LVU380
 1412 0098 77EEC77A 		vsub.f32	s15, s15, s14
 323:DMP/mllite/ml_math_func.c ****     qProd[3] =
 1413              		.loc 1 323 44 view .LVU381
 1414 009c 90ED027A 		vldr.32	s14, [r0, #8]
 323:DMP/mllite/ml_math_func.c ****     qProd[3] =
 1415              		.loc 1 323 52 view .LVU382
 1416 00a0 D1ED006A 		vldr.32	s13, [r1]
 323:DMP/mllite/ml_math_func.c ****     qProd[3] =
 1417              		.loc 1 323 48 view .LVU383
 1418 00a4 27EE267A 		vmul.f32	s14, s14, s13
 323:DMP/mllite/ml_math_func.c ****     qProd[3] =
 1419              		.loc 1 323 40 view .LVU384
 1420 00a8 77EE877A 		vadd.f32	s15, s15, s14
 323:DMP/mllite/ml_math_func.c ****     qProd[3] =
 1421              		.loc 1 323 60 view .LVU385
 1422 00ac 90ED037A 		vldr.32	s14, [r0, #12]
 323:DMP/mllite/ml_math_func.c ****     qProd[3] =
 1423              		.loc 1 323 68 view .LVU386
 1424 00b0 D1ED016A 		vldr.32	s13, [r1, #4]
 323:DMP/mllite/ml_math_func.c ****     qProd[3] =
 1425              		.loc 1 323 64 view .LVU387
 1426 00b4 27EE267A 		vmul.f32	s14, s14, s13
 323:DMP/mllite/ml_math_func.c ****     qProd[3] =
 1427              		.loc 1 323 56 view .LVU388
 1428 00b8 77EE877A 		vadd.f32	s15, s15, s14
 322:DMP/mllite/ml_math_func.c ****         (q1[0] * q2[2] - q1[1] * q2[3] + q1[2] * q2[0] + q1[3] * q2[1]);
 1429              		.loc 1 322 14 view .LVU389
 1430 00bc C2ED027A 		vstr.32	s15, [r2, #8]
 324:DMP/mllite/ml_math_func.c ****         (q1[0] * q2[3] + q1[1] * q2[2] - q1[2] * q2[1] + q1[3] * q2[0]);
 1431              		.loc 1 324 5 is_stmt 1 view .LVU390
 325:DMP/mllite/ml_math_func.c **** }
 1432              		.loc 1 325 12 is_stmt 0 view .LVU391
 1433 00c0 D0ED007A 		vldr.32	s15, [r0]
 325:DMP/mllite/ml_math_func.c **** }
 1434              		.loc 1 325 20 view .LVU392
 1435 00c4 91ED037A 		vldr.32	s14, [r1, #12]
 325:DMP/mllite/ml_math_func.c **** }
 1436              		.loc 1 325 16 view .LVU393
 1437 00c8 67EE877A 		vmul.f32	s15, s15, s14
 325:DMP/mllite/ml_math_func.c **** }
 1438              		.loc 1 325 28 view .LVU394
 1439 00cc 90ED017A 		vldr.32	s14, [r0, #4]
 325:DMP/mllite/ml_math_func.c **** }
 1440              		.loc 1 325 36 view .LVU395
 1441 00d0 D1ED026A 		vldr.32	s13, [r1, #8]
 325:DMP/mllite/ml_math_func.c **** }
 1442              		.loc 1 325 32 view .LVU396
 1443 00d4 27EE267A 		vmul.f32	s14, s14, s13
 325:DMP/mllite/ml_math_func.c **** }
 1444              		.loc 1 325 24 view .LVU397
 1445 00d8 77EE877A 		vadd.f32	s15, s15, s14
 325:DMP/mllite/ml_math_func.c **** }
ARM GAS  /var/folders/21/t9g5rlb91ys800n5npymflf80000gn/T//cc5g3ium.s 			page 44


 1446              		.loc 1 325 44 view .LVU398
 1447 00dc 90ED027A 		vldr.32	s14, [r0, #8]
 325:DMP/mllite/ml_math_func.c **** }
 1448              		.loc 1 325 52 view .LVU399
 1449 00e0 D1ED016A 		vldr.32	s13, [r1, #4]
 325:DMP/mllite/ml_math_func.c **** }
 1450              		.loc 1 325 48 view .LVU400
 1451 00e4 27EE267A 		vmul.f32	s14, s14, s13
 325:DMP/mllite/ml_math_func.c **** }
 1452              		.loc 1 325 40 view .LVU401
 1453 00e8 77EEC77A 		vsub.f32	s15, s15, s14
 325:DMP/mllite/ml_math_func.c **** }
 1454              		.loc 1 325 60 view .LVU402
 1455 00ec 90ED037A 		vldr.32	s14, [r0, #12]
 325:DMP/mllite/ml_math_func.c **** }
 1456              		.loc 1 325 68 view .LVU403
 1457 00f0 D1ED006A 		vldr.32	s13, [r1]
 325:DMP/mllite/ml_math_func.c **** }
 1458              		.loc 1 325 64 view .LVU404
 1459 00f4 27EE267A 		vmul.f32	s14, s14, s13
 325:DMP/mllite/ml_math_func.c **** }
 1460              		.loc 1 325 56 view .LVU405
 1461 00f8 77EE877A 		vadd.f32	s15, s15, s14
 324:DMP/mllite/ml_math_func.c ****         (q1[0] * q2[3] + q1[1] * q2[2] - q1[2] * q2[1] + q1[3] * q2[0]);
 1462              		.loc 1 324 14 view .LVU406
 1463 00fc C2ED037A 		vstr.32	s15, [r2, #12]
 326:DMP/mllite/ml_math_func.c **** 
 1464              		.loc 1 326 1 view .LVU407
 1465 0100 7047     		bx	lr
 1466              		.cfi_endproc
 1467              	.LFE39:
 1469              		.section	.text.inv_q_addf,"ax",%progbits
 1470              		.align	1
 1471              		.global	inv_q_addf
 1472              		.syntax unified
 1473              		.thumb
 1474              		.thumb_func
 1476              	inv_q_addf:
 1477              	.LVL140:
 1478              	.LFB40:
 329:DMP/mllite/ml_math_func.c ****     INVENSENSE_FUNC_START;
 1479              		.loc 1 329 1 is_stmt 1 view -0
 1480              		.cfi_startproc
 1481              		@ args = 0, pretend = 0, frame = 0
 1482              		@ frame_needed = 0, uses_anonymous_args = 0
 1483              		@ link register save eliminated.
 330:DMP/mllite/ml_math_func.c ****     qSum[0] = q1[0] + q2[0];
 1484              		.loc 1 330 5 view .LVU409
 331:DMP/mllite/ml_math_func.c ****     qSum[1] = q1[1] + q2[1];
 1485              		.loc 1 331 5 view .LVU410
 331:DMP/mllite/ml_math_func.c ****     qSum[1] = q1[1] + q2[1];
 1486              		.loc 1 331 17 is_stmt 0 view .LVU411
 1487 0000 D0ED007A 		vldr.32	s15, [r0]
 331:DMP/mllite/ml_math_func.c ****     qSum[1] = q1[1] + q2[1];
 1488              		.loc 1 331 25 view .LVU412
 1489 0004 91ED007A 		vldr.32	s14, [r1]
 331:DMP/mllite/ml_math_func.c ****     qSum[1] = q1[1] + q2[1];
ARM GAS  /var/folders/21/t9g5rlb91ys800n5npymflf80000gn/T//cc5g3ium.s 			page 45


 1490              		.loc 1 331 21 view .LVU413
 1491 0008 77EE877A 		vadd.f32	s15, s15, s14
 331:DMP/mllite/ml_math_func.c ****     qSum[1] = q1[1] + q2[1];
 1492              		.loc 1 331 13 view .LVU414
 1493 000c C2ED007A 		vstr.32	s15, [r2]
 332:DMP/mllite/ml_math_func.c ****     qSum[2] = q1[2] + q2[2];
 1494              		.loc 1 332 5 is_stmt 1 view .LVU415
 332:DMP/mllite/ml_math_func.c ****     qSum[2] = q1[2] + q2[2];
 1495              		.loc 1 332 17 is_stmt 0 view .LVU416
 1496 0010 D0ED017A 		vldr.32	s15, [r0, #4]
 332:DMP/mllite/ml_math_func.c ****     qSum[2] = q1[2] + q2[2];
 1497              		.loc 1 332 25 view .LVU417
 1498 0014 91ED017A 		vldr.32	s14, [r1, #4]
 332:DMP/mllite/ml_math_func.c ****     qSum[2] = q1[2] + q2[2];
 1499              		.loc 1 332 21 view .LVU418
 1500 0018 77EE877A 		vadd.f32	s15, s15, s14
 332:DMP/mllite/ml_math_func.c ****     qSum[2] = q1[2] + q2[2];
 1501              		.loc 1 332 13 view .LVU419
 1502 001c C2ED017A 		vstr.32	s15, [r2, #4]
 333:DMP/mllite/ml_math_func.c ****     qSum[3] = q1[3] + q2[3];
 1503              		.loc 1 333 5 is_stmt 1 view .LVU420
 333:DMP/mllite/ml_math_func.c ****     qSum[3] = q1[3] + q2[3];
 1504              		.loc 1 333 17 is_stmt 0 view .LVU421
 1505 0020 D0ED027A 		vldr.32	s15, [r0, #8]
 333:DMP/mllite/ml_math_func.c ****     qSum[3] = q1[3] + q2[3];
 1506              		.loc 1 333 25 view .LVU422
 1507 0024 91ED027A 		vldr.32	s14, [r1, #8]
 333:DMP/mllite/ml_math_func.c ****     qSum[3] = q1[3] + q2[3];
 1508              		.loc 1 333 21 view .LVU423
 1509 0028 77EE877A 		vadd.f32	s15, s15, s14
 333:DMP/mllite/ml_math_func.c ****     qSum[3] = q1[3] + q2[3];
 1510              		.loc 1 333 13 view .LVU424
 1511 002c C2ED027A 		vstr.32	s15, [r2, #8]
 334:DMP/mllite/ml_math_func.c **** }
 1512              		.loc 1 334 5 is_stmt 1 view .LVU425
 334:DMP/mllite/ml_math_func.c **** }
 1513              		.loc 1 334 17 is_stmt 0 view .LVU426
 1514 0030 D0ED037A 		vldr.32	s15, [r0, #12]
 334:DMP/mllite/ml_math_func.c **** }
 1515              		.loc 1 334 25 view .LVU427
 1516 0034 91ED037A 		vldr.32	s14, [r1, #12]
 334:DMP/mllite/ml_math_func.c **** }
 1517              		.loc 1 334 21 view .LVU428
 1518 0038 77EE877A 		vadd.f32	s15, s15, s14
 334:DMP/mllite/ml_math_func.c **** }
 1519              		.loc 1 334 13 view .LVU429
 1520 003c C2ED037A 		vstr.32	s15, [r2, #12]
 335:DMP/mllite/ml_math_func.c **** 
 1521              		.loc 1 335 1 view .LVU430
 1522 0040 7047     		bx	lr
 1523              		.cfi_endproc
 1524              	.LFE40:
 1526              		.section	.text.inv_q_normalizef,"ax",%progbits
 1527              		.align	1
 1528              		.global	inv_q_normalizef
 1529              		.syntax unified
 1530              		.thumb
ARM GAS  /var/folders/21/t9g5rlb91ys800n5npymflf80000gn/T//cc5g3ium.s 			page 46


 1531              		.thumb_func
 1533              	inv_q_normalizef:
 1534              	.LVL141:
 1535              	.LFB41:
 338:DMP/mllite/ml_math_func.c ****     INVENSENSE_FUNC_START;
 1536              		.loc 1 338 1 is_stmt 1 view -0
 1537              		.cfi_startproc
 1538              		@ args = 0, pretend = 0, frame = 0
 1539              		@ frame_needed = 0, uses_anonymous_args = 0
 1540              		@ link register save eliminated.
 339:DMP/mllite/ml_math_func.c ****     float normSF = 0;
 1541              		.loc 1 339 5 view .LVU432
 340:DMP/mllite/ml_math_func.c ****     float xHalf = 0;
 1542              		.loc 1 340 5 view .LVU433
 341:DMP/mllite/ml_math_func.c ****     normSF = (q[0] * q[0] + q[1] * q[1] + q[2] * q[2] + q[3] * q[3]);
 1543              		.loc 1 341 5 view .LVU434
 342:DMP/mllite/ml_math_func.c ****     if (normSF < 2) {
 1544              		.loc 1 342 5 view .LVU435
 342:DMP/mllite/ml_math_func.c ****     if (normSF < 2) {
 1545              		.loc 1 342 16 is_stmt 0 view .LVU436
 1546 0000 90ED004A 		vldr.32	s8, [r0]
 342:DMP/mllite/ml_math_func.c ****     if (normSF < 2) {
 1547              		.loc 1 342 20 view .LVU437
 1548 0004 64EE047A 		vmul.f32	s15, s8, s8
 342:DMP/mllite/ml_math_func.c ****     if (normSF < 2) {
 1549              		.loc 1 342 30 view .LVU438
 1550 0008 D0ED014A 		vldr.32	s9, [r0, #4]
 342:DMP/mllite/ml_math_func.c ****     if (normSF < 2) {
 1551              		.loc 1 342 34 view .LVU439
 1552 000c 24EEA47A 		vmul.f32	s14, s9, s9
 342:DMP/mllite/ml_math_func.c ****     if (normSF < 2) {
 1553              		.loc 1 342 27 view .LVU440
 1554 0010 77EE877A 		vadd.f32	s15, s15, s14
 342:DMP/mllite/ml_math_func.c ****     if (normSF < 2) {
 1555              		.loc 1 342 44 view .LVU441
 1556 0014 90ED025A 		vldr.32	s10, [r0, #8]
 342:DMP/mllite/ml_math_func.c ****     if (normSF < 2) {
 1557              		.loc 1 342 48 view .LVU442
 1558 0018 25EE057A 		vmul.f32	s14, s10, s10
 342:DMP/mllite/ml_math_func.c ****     if (normSF < 2) {
 1559              		.loc 1 342 41 view .LVU443
 1560 001c 77EE877A 		vadd.f32	s15, s15, s14
 342:DMP/mllite/ml_math_func.c ****     if (normSF < 2) {
 1561              		.loc 1 342 58 view .LVU444
 1562 0020 D0ED035A 		vldr.32	s11, [r0, #12]
 342:DMP/mllite/ml_math_func.c ****     if (normSF < 2) {
 1563              		.loc 1 342 62 view .LVU445
 1564 0024 25EEA57A 		vmul.f32	s14, s11, s11
 342:DMP/mllite/ml_math_func.c ****     if (normSF < 2) {
 1565              		.loc 1 342 12 view .LVU446
 1566 0028 77EE877A 		vadd.f32	s15, s15, s14
 1567              	.LVL142:
 343:DMP/mllite/ml_math_func.c ****         xHalf = 0.5f * normSF;
 1568              		.loc 1 343 5 is_stmt 1 view .LVU447
 343:DMP/mllite/ml_math_func.c ****         xHalf = 0.5f * normSF;
 1569              		.loc 1 343 8 is_stmt 0 view .LVU448
 1570 002c B0EE007A 		vmov.f32	s14, #2.0e+0
ARM GAS  /var/folders/21/t9g5rlb91ys800n5npymflf80000gn/T//cc5g3ium.s 			page 47


 1571 0030 F4EEC77A 		vcmpe.f32	s15, s14
 1572 0034 F1EE10FA 		vmrs	APSR_nzcv, FPSCR
 1573 0038 36D5     		bpl	.L75
 344:DMP/mllite/ml_math_func.c ****         normSF = normSF * (1.5f - xHalf * normSF * normSF);
 1574              		.loc 1 344 9 is_stmt 1 view .LVU449
 344:DMP/mllite/ml_math_func.c ****         normSF = normSF * (1.5f - xHalf * normSF * normSF);
 1575              		.loc 1 344 15 is_stmt 0 view .LVU450
 1576 003a F6EE006A 		vmov.f32	s13, #5.0e-1
 1577 003e 67EEA66A 		vmul.f32	s13, s15, s13
 1578              	.LVL143:
 345:DMP/mllite/ml_math_func.c ****         normSF = normSF * (1.5f - xHalf * normSF * normSF);
 1579              		.loc 1 345 9 is_stmt 1 view .LVU451
 345:DMP/mllite/ml_math_func.c ****         normSF = normSF * (1.5f - xHalf * normSF * normSF);
 1580              		.loc 1 345 41 is_stmt 0 view .LVU452
 1581 0042 27EEA66A 		vmul.f32	s12, s15, s13
 345:DMP/mllite/ml_math_func.c ****         normSF = normSF * (1.5f - xHalf * normSF * normSF);
 1582              		.loc 1 345 50 view .LVU453
 1583 0046 26EE276A 		vmul.f32	s12, s12, s15
 345:DMP/mllite/ml_math_func.c ****         normSF = normSF * (1.5f - xHalf * normSF * normSF);
 1584              		.loc 1 345 33 view .LVU454
 1585 004a B7EE087A 		vmov.f32	s14, #1.5e+0
 1586 004e 37EE466A 		vsub.f32	s12, s14, s12
 345:DMP/mllite/ml_math_func.c ****         normSF = normSF * (1.5f - xHalf * normSF * normSF);
 1587              		.loc 1 345 16 view .LVU455
 1588 0052 26EE276A 		vmul.f32	s12, s12, s15
 1589              	.LVL144:
 346:DMP/mllite/ml_math_func.c ****         normSF = normSF * (1.5f - xHalf * normSF * normSF);
 1590              		.loc 1 346 9 is_stmt 1 view .LVU456
 346:DMP/mllite/ml_math_func.c ****         normSF = normSF * (1.5f - xHalf * normSF * normSF);
 1591              		.loc 1 346 41 is_stmt 0 view .LVU457
 1592 0056 66EE867A 		vmul.f32	s15, s13, s12
 346:DMP/mllite/ml_math_func.c ****         normSF = normSF * (1.5f - xHalf * normSF * normSF);
 1593              		.loc 1 346 50 view .LVU458
 1594 005a 67EE867A 		vmul.f32	s15, s15, s12
 346:DMP/mllite/ml_math_func.c ****         normSF = normSF * (1.5f - xHalf * normSF * normSF);
 1595              		.loc 1 346 33 view .LVU459
 1596 005e 77EE677A 		vsub.f32	s15, s14, s15
 346:DMP/mllite/ml_math_func.c ****         normSF = normSF * (1.5f - xHalf * normSF * normSF);
 1597              		.loc 1 346 16 view .LVU460
 1598 0062 67EE867A 		vmul.f32	s15, s15, s12
 1599              	.LVL145:
 347:DMP/mllite/ml_math_func.c ****         normSF = normSF * (1.5f - xHalf * normSF * normSF);
 1600              		.loc 1 347 9 is_stmt 1 view .LVU461
 347:DMP/mllite/ml_math_func.c ****         normSF = normSF * (1.5f - xHalf * normSF * normSF);
 1601              		.loc 1 347 41 is_stmt 0 view .LVU462
 1602 0066 26EEA76A 		vmul.f32	s12, s13, s15
 347:DMP/mllite/ml_math_func.c ****         normSF = normSF * (1.5f - xHalf * normSF * normSF);
 1603              		.loc 1 347 50 view .LVU463
 1604 006a 26EE276A 		vmul.f32	s12, s12, s15
 347:DMP/mllite/ml_math_func.c ****         normSF = normSF * (1.5f - xHalf * normSF * normSF);
 1605              		.loc 1 347 33 view .LVU464
 1606 006e 37EE466A 		vsub.f32	s12, s14, s12
 347:DMP/mllite/ml_math_func.c ****         normSF = normSF * (1.5f - xHalf * normSF * normSF);
 1607              		.loc 1 347 16 view .LVU465
 1608 0072 26EE276A 		vmul.f32	s12, s12, s15
 1609              	.LVL146:
 348:DMP/mllite/ml_math_func.c ****         q[0] *= normSF;
ARM GAS  /var/folders/21/t9g5rlb91ys800n5npymflf80000gn/T//cc5g3ium.s 			page 48


 1610              		.loc 1 348 9 is_stmt 1 view .LVU466
 348:DMP/mllite/ml_math_func.c ****         q[0] *= normSF;
 1611              		.loc 1 348 41 is_stmt 0 view .LVU467
 1612 0076 66EE866A 		vmul.f32	s13, s13, s12
 1613              	.LVL147:
 348:DMP/mllite/ml_math_func.c ****         q[0] *= normSF;
 1614              		.loc 1 348 50 view .LVU468
 1615 007a 66EE866A 		vmul.f32	s13, s13, s12
 348:DMP/mllite/ml_math_func.c ****         q[0] *= normSF;
 1616              		.loc 1 348 33 view .LVU469
 1617 007e 77EE667A 		vsub.f32	s15, s14, s13
 348:DMP/mllite/ml_math_func.c ****         q[0] *= normSF;
 1618              		.loc 1 348 16 view .LVU470
 1619 0082 67EE867A 		vmul.f32	s15, s15, s12
 1620              	.LVL148:
 349:DMP/mllite/ml_math_func.c ****         q[1] *= normSF;
 1621              		.loc 1 349 9 is_stmt 1 view .LVU471
 349:DMP/mllite/ml_math_func.c ****         q[1] *= normSF;
 1622              		.loc 1 349 14 is_stmt 0 view .LVU472
 1623 0086 24EE274A 		vmul.f32	s8, s8, s15
 1624              	.LVL149:
 349:DMP/mllite/ml_math_func.c ****         q[1] *= normSF;
 1625              		.loc 1 349 14 view .LVU473
 1626 008a 80ED004A 		vstr.32	s8, [r0]
 1627              	.LVL150:
 350:DMP/mllite/ml_math_func.c ****         q[2] *= normSF;
 1628              		.loc 1 350 9 is_stmt 1 view .LVU474
 350:DMP/mllite/ml_math_func.c ****         q[2] *= normSF;
 1629              		.loc 1 350 14 is_stmt 0 view .LVU475
 1630 008e 64EEA74A 		vmul.f32	s9, s9, s15
 1631 0092 C0ED014A 		vstr.32	s9, [r0, #4]
 351:DMP/mllite/ml_math_func.c ****         q[3] *= normSF;
 1632              		.loc 1 351 9 is_stmt 1 view .LVU476
 351:DMP/mllite/ml_math_func.c ****         q[3] *= normSF;
 1633              		.loc 1 351 14 is_stmt 0 view .LVU477
 1634 0096 25EE275A 		vmul.f32	s10, s10, s15
 1635 009a 80ED025A 		vstr.32	s10, [r0, #8]
 352:DMP/mllite/ml_math_func.c ****     } else {
 1636              		.loc 1 352 9 is_stmt 1 view .LVU478
 352:DMP/mllite/ml_math_func.c ****     } else {
 1637              		.loc 1 352 14 is_stmt 0 view .LVU479
 1638 009e 65EEA75A 		vmul.f32	s11, s11, s15
 1639 00a2 C0ED035A 		vstr.32	s11, [r0, #12]
 1640 00a6 7047     		bx	lr
 1641              	.LVL151:
 1642              	.L75:
 354:DMP/mllite/ml_math_func.c ****         q[1] = 0.0;
 1643              		.loc 1 354 9 is_stmt 1 view .LVU480
 354:DMP/mllite/ml_math_func.c ****         q[1] = 0.0;
 1644              		.loc 1 354 14 is_stmt 0 view .LVU481
 1645 00a8 4FF07E53 		mov	r3, #1065353216
 1646 00ac 0360     		str	r3, [r0]	@ float
 355:DMP/mllite/ml_math_func.c ****         q[2] = 0.0;
 1647              		.loc 1 355 9 is_stmt 1 view .LVU482
 355:DMP/mllite/ml_math_func.c ****         q[2] = 0.0;
 1648              		.loc 1 355 14 is_stmt 0 view .LVU483
 1649 00ae 0023     		movs	r3, #0
ARM GAS  /var/folders/21/t9g5rlb91ys800n5npymflf80000gn/T//cc5g3ium.s 			page 49


 1650 00b0 4360     		str	r3, [r0, #4]	@ float
 356:DMP/mllite/ml_math_func.c ****         q[3] = 0.0;
 1651              		.loc 1 356 9 is_stmt 1 view .LVU484
 356:DMP/mllite/ml_math_func.c ****         q[3] = 0.0;
 1652              		.loc 1 356 14 is_stmt 0 view .LVU485
 1653 00b2 8360     		str	r3, [r0, #8]	@ float
 357:DMP/mllite/ml_math_func.c ****     }
 1654              		.loc 1 357 9 is_stmt 1 view .LVU486
 357:DMP/mllite/ml_math_func.c ****     }
 1655              		.loc 1 357 14 is_stmt 0 view .LVU487
 1656 00b4 C360     		str	r3, [r0, #12]	@ float
 359:DMP/mllite/ml_math_func.c **** }
 1657              		.loc 1 359 5 is_stmt 1 view .LVU488
 1658              	.LVL152:
 360:DMP/mllite/ml_math_func.c **** 
 1659              		.loc 1 360 1 is_stmt 0 view .LVU489
 1660 00b6 7047     		bx	lr
 1661              		.cfi_endproc
 1662              	.LFE41:
 1664              		.section	.text.inv_q_norm4,"ax",%progbits
 1665              		.align	1
 1666              		.global	inv_q_norm4
 1667              		.syntax unified
 1668              		.thumb
 1669              		.thumb_func
 1671              	inv_q_norm4:
 1672              	.LVL153:
 1673              	.LFB42:
 366:DMP/mllite/ml_math_func.c ****     float mag;
 1674              		.loc 1 366 1 is_stmt 1 view -0
 1675              		.cfi_startproc
 1676              		@ args = 0, pretend = 0, frame = 0
 1677              		@ frame_needed = 0, uses_anonymous_args = 0
 366:DMP/mllite/ml_math_func.c ****     float mag;
 1678              		.loc 1 366 1 is_stmt 0 view .LVU491
 1679 0000 10B5     		push	{r4, lr}
 1680              	.LCFI19:
 1681              		.cfi_def_cfa_offset 8
 1682              		.cfi_offset 4, -8
 1683              		.cfi_offset 14, -4
 1684 0002 2DED048B 		vpush.64	{d8, d9}
 1685              	.LCFI20:
 1686              		.cfi_def_cfa_offset 24
 1687              		.cfi_offset 80, -24
 1688              		.cfi_offset 81, -20
 1689              		.cfi_offset 82, -16
 1690              		.cfi_offset 83, -12
 1691 0006 0446     		mov	r4, r0
 367:DMP/mllite/ml_math_func.c ****     mag = sqrtf(q[0] * q[0] + q[1] * q[1] + q[2] * q[2] + q[3] * q[3]);
 1692              		.loc 1 367 5 is_stmt 1 view .LVU492
 368:DMP/mllite/ml_math_func.c ****     if (mag) {
 1693              		.loc 1 368 5 view .LVU493
 368:DMP/mllite/ml_math_func.c ****     if (mag) {
 1694              		.loc 1 368 18 is_stmt 0 view .LVU494
 1695 0008 D0ED009A 		vldr.32	s19, [r0]
 368:DMP/mllite/ml_math_func.c ****     if (mag) {
 1696              		.loc 1 368 22 view .LVU495
ARM GAS  /var/folders/21/t9g5rlb91ys800n5npymflf80000gn/T//cc5g3ium.s 			page 50


 1697 000c 69EEA97A 		vmul.f32	s15, s19, s19
 368:DMP/mllite/ml_math_func.c ****     if (mag) {
 1698              		.loc 1 368 32 view .LVU496
 1699 0010 90ED019A 		vldr.32	s18, [r0, #4]
 368:DMP/mllite/ml_math_func.c ****     if (mag) {
 1700              		.loc 1 368 36 view .LVU497
 1701 0014 29EE097A 		vmul.f32	s14, s18, s18
 368:DMP/mllite/ml_math_func.c ****     if (mag) {
 1702              		.loc 1 368 29 view .LVU498
 1703 0018 77EE877A 		vadd.f32	s15, s15, s14
 368:DMP/mllite/ml_math_func.c ****     if (mag) {
 1704              		.loc 1 368 46 view .LVU499
 1705 001c D0ED028A 		vldr.32	s17, [r0, #8]
 368:DMP/mllite/ml_math_func.c ****     if (mag) {
 1706              		.loc 1 368 50 view .LVU500
 1707 0020 28EEA87A 		vmul.f32	s14, s17, s17
 368:DMP/mllite/ml_math_func.c ****     if (mag) {
 1708              		.loc 1 368 43 view .LVU501
 1709 0024 77EE877A 		vadd.f32	s15, s15, s14
 368:DMP/mllite/ml_math_func.c ****     if (mag) {
 1710              		.loc 1 368 60 view .LVU502
 1711 0028 90ED038A 		vldr.32	s16, [r0, #12]
 368:DMP/mllite/ml_math_func.c ****     if (mag) {
 1712              		.loc 1 368 64 view .LVU503
 1713 002c 28EE080A 		vmul.f32	s0, s16, s16
 368:DMP/mllite/ml_math_func.c ****     if (mag) {
 1714              		.loc 1 368 11 view .LVU504
 1715 0030 37EE800A 		vadd.f32	s0, s15, s0
 1716 0034 FFF7FEFF 		bl	sqrtf
 1717              	.LVL154:
 369:DMP/mllite/ml_math_func.c ****         q[0] /= mag;
 1718              		.loc 1 369 5 is_stmt 1 view .LVU505
 369:DMP/mllite/ml_math_func.c ****         q[0] /= mag;
 1719              		.loc 1 369 8 is_stmt 0 view .LVU506
 1720 0038 B5EE400A 		vcmp.f32	s0, #0
 1721 003c F1EE10FA 		vmrs	APSR_nzcv, FPSCR
 1722 0040 12D0     		beq	.L77
 370:DMP/mllite/ml_math_func.c ****         q[1] /= mag;
 1723              		.loc 1 370 9 is_stmt 1 view .LVU507
 370:DMP/mllite/ml_math_func.c ****         q[1] /= mag;
 1724              		.loc 1 370 14 is_stmt 0 view .LVU508
 1725 0042 C9EE807A 		vdiv.f32	s15, s19, s0
 1726 0046 C4ED007A 		vstr.32	s15, [r4]
 371:DMP/mllite/ml_math_func.c ****         q[2] /= mag;
 1727              		.loc 1 371 9 is_stmt 1 view .LVU509
 371:DMP/mllite/ml_math_func.c ****         q[2] /= mag;
 1728              		.loc 1 371 14 is_stmt 0 view .LVU510
 1729 004a C9EE007A 		vdiv.f32	s15, s18, s0
 1730 004e C4ED017A 		vstr.32	s15, [r4, #4]
 372:DMP/mllite/ml_math_func.c ****         q[3] /= mag;
 1731              		.loc 1 372 9 is_stmt 1 view .LVU511
 372:DMP/mllite/ml_math_func.c ****         q[3] /= mag;
 1732              		.loc 1 372 14 is_stmt 0 view .LVU512
 1733 0052 C8EE807A 		vdiv.f32	s15, s17, s0
 1734 0056 C4ED027A 		vstr.32	s15, [r4, #8]
 373:DMP/mllite/ml_math_func.c ****     } else {
 1735              		.loc 1 373 9 is_stmt 1 view .LVU513
ARM GAS  /var/folders/21/t9g5rlb91ys800n5npymflf80000gn/T//cc5g3ium.s 			page 51


 373:DMP/mllite/ml_math_func.c ****     } else {
 1736              		.loc 1 373 14 is_stmt 0 view .LVU514
 1737 005a C8EE007A 		vdiv.f32	s15, s16, s0
 1738 005e C4ED037A 		vstr.32	s15, [r4, #12]
 1739              	.L76:
 380:DMP/mllite/ml_math_func.c **** 
 1740              		.loc 1 380 1 view .LVU515
 1741 0062 BDEC048B 		vldm	sp!, {d8-d9}
 1742              	.LCFI21:
 1743              		.cfi_remember_state
 1744              		.cfi_restore 82
 1745              		.cfi_restore 83
 1746              		.cfi_restore 80
 1747              		.cfi_restore 81
 1748              		.cfi_def_cfa_offset 8
 1749 0066 10BD     		pop	{r4, pc}
 1750              	.LVL155:
 1751              	.L77:
 1752              	.LCFI22:
 1753              		.cfi_restore_state
 375:DMP/mllite/ml_math_func.c ****         q[1] = 0.f;
 1754              		.loc 1 375 9 is_stmt 1 view .LVU516
 375:DMP/mllite/ml_math_func.c ****         q[1] = 0.f;
 1755              		.loc 1 375 14 is_stmt 0 view .LVU517
 1756 0068 4FF07E53 		mov	r3, #1065353216
 1757 006c 2360     		str	r3, [r4]	@ float
 376:DMP/mllite/ml_math_func.c ****         q[2] = 0.f;
 1758              		.loc 1 376 9 is_stmt 1 view .LVU518
 376:DMP/mllite/ml_math_func.c ****         q[2] = 0.f;
 1759              		.loc 1 376 14 is_stmt 0 view .LVU519
 1760 006e 0023     		movs	r3, #0
 1761 0070 6360     		str	r3, [r4, #4]	@ float
 377:DMP/mllite/ml_math_func.c ****         q[3] = 0.f;
 1762              		.loc 1 377 9 is_stmt 1 view .LVU520
 377:DMP/mllite/ml_math_func.c ****         q[3] = 0.f;
 1763              		.loc 1 377 14 is_stmt 0 view .LVU521
 1764 0072 A360     		str	r3, [r4, #8]	@ float
 378:DMP/mllite/ml_math_func.c ****     }
 1765              		.loc 1 378 9 is_stmt 1 view .LVU522
 378:DMP/mllite/ml_math_func.c ****     }
 1766              		.loc 1 378 14 is_stmt 0 view .LVU523
 1767 0074 E360     		str	r3, [r4, #12]	@ float
 380:DMP/mllite/ml_math_func.c **** 
 1768              		.loc 1 380 1 view .LVU524
 1769 0076 F4E7     		b	.L76
 1770              		.cfi_endproc
 1771              	.LFE42:
 1773              		.section	.text.inv_q_invertf,"ax",%progbits
 1774              		.align	1
 1775              		.global	inv_q_invertf
 1776              		.syntax unified
 1777              		.thumb
 1778              		.thumb_func
 1780              	inv_q_invertf:
 1781              	.LVL156:
 1782              	.LFB43:
 383:DMP/mllite/ml_math_func.c ****     INVENSENSE_FUNC_START;
ARM GAS  /var/folders/21/t9g5rlb91ys800n5npymflf80000gn/T//cc5g3ium.s 			page 52


 1783              		.loc 1 383 1 is_stmt 1 view -0
 1784              		.cfi_startproc
 1785              		@ args = 0, pretend = 0, frame = 0
 1786              		@ frame_needed = 0, uses_anonymous_args = 0
 1787              		@ link register save eliminated.
 384:DMP/mllite/ml_math_func.c ****     qInverted[0] = q[0];
 1788              		.loc 1 384 5 view .LVU526
 385:DMP/mllite/ml_math_func.c ****     qInverted[1] = -q[1];
 1789              		.loc 1 385 5 view .LVU527
 385:DMP/mllite/ml_math_func.c ****     qInverted[1] = -q[1];
 1790              		.loc 1 385 21 is_stmt 0 view .LVU528
 1791 0000 0368     		ldr	r3, [r0]	@ float
 385:DMP/mllite/ml_math_func.c ****     qInverted[1] = -q[1];
 1792              		.loc 1 385 18 view .LVU529
 1793 0002 0B60     		str	r3, [r1]	@ float
 386:DMP/mllite/ml_math_func.c ****     qInverted[2] = -q[2];
 1794              		.loc 1 386 5 is_stmt 1 view .LVU530
 386:DMP/mllite/ml_math_func.c ****     qInverted[2] = -q[2];
 1795              		.loc 1 386 22 is_stmt 0 view .LVU531
 1796 0004 D0ED017A 		vldr.32	s15, [r0, #4]
 386:DMP/mllite/ml_math_func.c ****     qInverted[2] = -q[2];
 1797              		.loc 1 386 20 view .LVU532
 1798 0008 F1EE677A 		vneg.f32	s15, s15
 386:DMP/mllite/ml_math_func.c ****     qInverted[2] = -q[2];
 1799              		.loc 1 386 18 view .LVU533
 1800 000c C1ED017A 		vstr.32	s15, [r1, #4]
 387:DMP/mllite/ml_math_func.c ****     qInverted[3] = -q[3];
 1801              		.loc 1 387 5 is_stmt 1 view .LVU534
 387:DMP/mllite/ml_math_func.c ****     qInverted[3] = -q[3];
 1802              		.loc 1 387 22 is_stmt 0 view .LVU535
 1803 0010 D0ED027A 		vldr.32	s15, [r0, #8]
 387:DMP/mllite/ml_math_func.c ****     qInverted[3] = -q[3];
 1804              		.loc 1 387 20 view .LVU536
 1805 0014 F1EE677A 		vneg.f32	s15, s15
 387:DMP/mllite/ml_math_func.c ****     qInverted[3] = -q[3];
 1806              		.loc 1 387 18 view .LVU537
 1807 0018 C1ED027A 		vstr.32	s15, [r1, #8]
 388:DMP/mllite/ml_math_func.c **** }
 1808              		.loc 1 388 5 is_stmt 1 view .LVU538
 388:DMP/mllite/ml_math_func.c **** }
 1809              		.loc 1 388 22 is_stmt 0 view .LVU539
 1810 001c D0ED037A 		vldr.32	s15, [r0, #12]
 388:DMP/mllite/ml_math_func.c **** }
 1811              		.loc 1 388 20 view .LVU540
 1812 0020 F1EE677A 		vneg.f32	s15, s15
 388:DMP/mllite/ml_math_func.c **** }
 1813              		.loc 1 388 18 view .LVU541
 1814 0024 C1ED037A 		vstr.32	s15, [r1, #12]
 389:DMP/mllite/ml_math_func.c **** 
 1815              		.loc 1 389 1 view .LVU542
 1816 0028 7047     		bx	lr
 1817              		.cfi_endproc
 1818              	.LFE43:
 1820              		.section	.text.inv_quaternion_to_rotation,"ax",%progbits
 1821              		.align	1
 1822              		.global	inv_quaternion_to_rotation
 1823              		.syntax unified
ARM GAS  /var/folders/21/t9g5rlb91ys800n5npymflf80000gn/T//cc5g3ium.s 			page 53


 1824              		.thumb
 1825              		.thumb_func
 1827              	inv_quaternion_to_rotation:
 1828              	.LVL157:
 1829              	.LFB44:
 401:DMP/mllite/ml_math_func.c ****     rot[0] =
 1830              		.loc 1 401 1 is_stmt 1 view -0
 1831              		.cfi_startproc
 1832              		@ args = 0, pretend = 0, frame = 0
 1833              		@ frame_needed = 0, uses_anonymous_args = 0
 401:DMP/mllite/ml_math_func.c ****     rot[0] =
 1834              		.loc 1 401 1 is_stmt 0 view .LVU544
 1835 0000 70B5     		push	{r4, r5, r6, lr}
 1836              	.LCFI23:
 1837              		.cfi_def_cfa_offset 16
 1838              		.cfi_offset 4, -16
 1839              		.cfi_offset 5, -12
 1840              		.cfi_offset 6, -8
 1841              		.cfi_offset 14, -4
 1842 0002 0446     		mov	r4, r0
 1843 0004 0D46     		mov	r5, r1
 402:DMP/mllite/ml_math_func.c ****         inv_q29_mult(quat[1], quat[1]) + inv_q29_mult(quat[0],
 1844              		.loc 1 402 5 is_stmt 1 view .LVU545
 403:DMP/mllite/ml_math_func.c ****                 quat[0]) -
 1845              		.loc 1 403 9 is_stmt 0 view .LVU546
 1846 0006 4068     		ldr	r0, [r0, #4]
 1847              	.LVL158:
 403:DMP/mllite/ml_math_func.c ****                 quat[0]) -
 1848              		.loc 1 403 9 view .LVU547
 1849 0008 0146     		mov	r1, r0
 1850              	.LVL159:
 403:DMP/mllite/ml_math_func.c ****                 quat[0]) -
 1851              		.loc 1 403 9 view .LVU548
 1852 000a FFF7FEFF 		bl	inv_q29_mult
 1853              	.LVL160:
 1854 000e 0646     		mov	r6, r0
 403:DMP/mllite/ml_math_func.c ****                 quat[0]) -
 1855              		.loc 1 403 42 view .LVU549
 1856 0010 2068     		ldr	r0, [r4]
 1857 0012 0146     		mov	r1, r0
 1858 0014 FFF7FEFF 		bl	inv_q29_mult
 1859              	.LVL161:
 403:DMP/mllite/ml_math_func.c ****                 quat[0]) -
 1860              		.loc 1 403 40 view .LVU550
 1861 0018 0644     		add	r6, r6, r0
 404:DMP/mllite/ml_math_func.c ****         1073741824L;
 1862              		.loc 1 404 26 view .LVU551
 1863 001a 06F14046 		add	r6, r6, #-1073741824
 402:DMP/mllite/ml_math_func.c ****         inv_q29_mult(quat[1], quat[1]) + inv_q29_mult(quat[0],
 1864              		.loc 1 402 12 view .LVU552
 1865 001e 2E60     		str	r6, [r5]
 406:DMP/mllite/ml_math_func.c ****         inv_q29_mult(quat[1], quat[2]) - inv_q29_mult(quat[3], quat[0]);
 1866              		.loc 1 406 5 is_stmt 1 view .LVU553
 407:DMP/mllite/ml_math_func.c ****     rot[2] =
 1867              		.loc 1 407 9 is_stmt 0 view .LVU554
 1868 0020 A168     		ldr	r1, [r4, #8]
 1869 0022 6068     		ldr	r0, [r4, #4]
ARM GAS  /var/folders/21/t9g5rlb91ys800n5npymflf80000gn/T//cc5g3ium.s 			page 54


 1870 0024 FFF7FEFF 		bl	inv_q29_mult
 1871              	.LVL162:
 1872 0028 0646     		mov	r6, r0
 407:DMP/mllite/ml_math_func.c ****     rot[2] =
 1873              		.loc 1 407 42 view .LVU555
 1874 002a 2168     		ldr	r1, [r4]
 1875 002c E068     		ldr	r0, [r4, #12]
 1876 002e FFF7FEFF 		bl	inv_q29_mult
 1877              	.LVL163:
 407:DMP/mllite/ml_math_func.c ****     rot[2] =
 1878              		.loc 1 407 40 view .LVU556
 1879 0032 361A     		subs	r6, r6, r0
 406:DMP/mllite/ml_math_func.c ****         inv_q29_mult(quat[1], quat[2]) - inv_q29_mult(quat[3], quat[0]);
 1880              		.loc 1 406 12 view .LVU557
 1881 0034 6E60     		str	r6, [r5, #4]
 408:DMP/mllite/ml_math_func.c ****         inv_q29_mult(quat[1], quat[3]) + inv_q29_mult(quat[2], quat[0]);
 1882              		.loc 1 408 5 is_stmt 1 view .LVU558
 409:DMP/mllite/ml_math_func.c ****     rot[3] =
 1883              		.loc 1 409 9 is_stmt 0 view .LVU559
 1884 0036 E168     		ldr	r1, [r4, #12]
 1885 0038 6068     		ldr	r0, [r4, #4]
 1886 003a FFF7FEFF 		bl	inv_q29_mult
 1887              	.LVL164:
 1888 003e 0646     		mov	r6, r0
 409:DMP/mllite/ml_math_func.c ****     rot[3] =
 1889              		.loc 1 409 42 view .LVU560
 1890 0040 2168     		ldr	r1, [r4]
 1891 0042 A068     		ldr	r0, [r4, #8]
 1892 0044 FFF7FEFF 		bl	inv_q29_mult
 1893              	.LVL165:
 409:DMP/mllite/ml_math_func.c ****     rot[3] =
 1894              		.loc 1 409 40 view .LVU561
 1895 0048 0644     		add	r6, r6, r0
 408:DMP/mllite/ml_math_func.c ****         inv_q29_mult(quat[1], quat[3]) + inv_q29_mult(quat[2], quat[0]);
 1896              		.loc 1 408 12 view .LVU562
 1897 004a AE60     		str	r6, [r5, #8]
 410:DMP/mllite/ml_math_func.c ****         inv_q29_mult(quat[1], quat[2]) + inv_q29_mult(quat[3], quat[0]);
 1898              		.loc 1 410 5 is_stmt 1 view .LVU563
 411:DMP/mllite/ml_math_func.c ****     rot[4] =
 1899              		.loc 1 411 9 is_stmt 0 view .LVU564
 1900 004c A168     		ldr	r1, [r4, #8]
 1901 004e 6068     		ldr	r0, [r4, #4]
 1902 0050 FFF7FEFF 		bl	inv_q29_mult
 1903              	.LVL166:
 1904 0054 0646     		mov	r6, r0
 411:DMP/mllite/ml_math_func.c ****     rot[4] =
 1905              		.loc 1 411 42 view .LVU565
 1906 0056 2168     		ldr	r1, [r4]
 1907 0058 E068     		ldr	r0, [r4, #12]
 1908 005a FFF7FEFF 		bl	inv_q29_mult
 1909              	.LVL167:
 411:DMP/mllite/ml_math_func.c ****     rot[4] =
 1910              		.loc 1 411 40 view .LVU566
 1911 005e 0644     		add	r6, r6, r0
 410:DMP/mllite/ml_math_func.c ****         inv_q29_mult(quat[1], quat[2]) + inv_q29_mult(quat[3], quat[0]);
 1912              		.loc 1 410 12 view .LVU567
 1913 0060 EE60     		str	r6, [r5, #12]
ARM GAS  /var/folders/21/t9g5rlb91ys800n5npymflf80000gn/T//cc5g3ium.s 			page 55


 412:DMP/mllite/ml_math_func.c ****         inv_q29_mult(quat[2], quat[2]) + inv_q29_mult(quat[0],
 1914              		.loc 1 412 5 is_stmt 1 view .LVU568
 413:DMP/mllite/ml_math_func.c ****                 quat[0]) -
 1915              		.loc 1 413 9 is_stmt 0 view .LVU569
 1916 0062 A068     		ldr	r0, [r4, #8]
 1917 0064 0146     		mov	r1, r0
 1918 0066 FFF7FEFF 		bl	inv_q29_mult
 1919              	.LVL168:
 1920 006a 0646     		mov	r6, r0
 413:DMP/mllite/ml_math_func.c ****                 quat[0]) -
 1921              		.loc 1 413 42 view .LVU570
 1922 006c 2068     		ldr	r0, [r4]
 1923 006e 0146     		mov	r1, r0
 1924 0070 FFF7FEFF 		bl	inv_q29_mult
 1925              	.LVL169:
 413:DMP/mllite/ml_math_func.c ****                 quat[0]) -
 1926              		.loc 1 413 40 view .LVU571
 1927 0074 0644     		add	r6, r6, r0
 414:DMP/mllite/ml_math_func.c ****         1073741824L;
 1928              		.loc 1 414 26 view .LVU572
 1929 0076 06F14046 		add	r6, r6, #-1073741824
 412:DMP/mllite/ml_math_func.c ****         inv_q29_mult(quat[2], quat[2]) + inv_q29_mult(quat[0],
 1930              		.loc 1 412 12 view .LVU573
 1931 007a 2E61     		str	r6, [r5, #16]
 416:DMP/mllite/ml_math_func.c ****         inv_q29_mult(quat[2], quat[3]) - inv_q29_mult(quat[1], quat[0]);
 1932              		.loc 1 416 5 is_stmt 1 view .LVU574
 417:DMP/mllite/ml_math_func.c ****     rot[6] =
 1933              		.loc 1 417 9 is_stmt 0 view .LVU575
 1934 007c E168     		ldr	r1, [r4, #12]
 1935 007e A068     		ldr	r0, [r4, #8]
 1936 0080 FFF7FEFF 		bl	inv_q29_mult
 1937              	.LVL170:
 1938 0084 0646     		mov	r6, r0
 417:DMP/mllite/ml_math_func.c ****     rot[6] =
 1939              		.loc 1 417 42 view .LVU576
 1940 0086 2168     		ldr	r1, [r4]
 1941 0088 6068     		ldr	r0, [r4, #4]
 1942 008a FFF7FEFF 		bl	inv_q29_mult
 1943              	.LVL171:
 417:DMP/mllite/ml_math_func.c ****     rot[6] =
 1944              		.loc 1 417 40 view .LVU577
 1945 008e 361A     		subs	r6, r6, r0
 416:DMP/mllite/ml_math_func.c ****         inv_q29_mult(quat[2], quat[3]) - inv_q29_mult(quat[1], quat[0]);
 1946              		.loc 1 416 12 view .LVU578
 1947 0090 6E61     		str	r6, [r5, #20]
 418:DMP/mllite/ml_math_func.c ****         inv_q29_mult(quat[1], quat[3]) - inv_q29_mult(quat[2], quat[0]);
 1948              		.loc 1 418 5 is_stmt 1 view .LVU579
 419:DMP/mllite/ml_math_func.c ****     rot[7] =
 1949              		.loc 1 419 9 is_stmt 0 view .LVU580
 1950 0092 E168     		ldr	r1, [r4, #12]
 1951 0094 6068     		ldr	r0, [r4, #4]
 1952 0096 FFF7FEFF 		bl	inv_q29_mult
 1953              	.LVL172:
 1954 009a 0646     		mov	r6, r0
 419:DMP/mllite/ml_math_func.c ****     rot[7] =
 1955              		.loc 1 419 42 view .LVU581
 1956 009c 2168     		ldr	r1, [r4]
ARM GAS  /var/folders/21/t9g5rlb91ys800n5npymflf80000gn/T//cc5g3ium.s 			page 56


 1957 009e A068     		ldr	r0, [r4, #8]
 1958 00a0 FFF7FEFF 		bl	inv_q29_mult
 1959              	.LVL173:
 419:DMP/mllite/ml_math_func.c ****     rot[7] =
 1960              		.loc 1 419 40 view .LVU582
 1961 00a4 361A     		subs	r6, r6, r0
 418:DMP/mllite/ml_math_func.c ****         inv_q29_mult(quat[1], quat[3]) - inv_q29_mult(quat[2], quat[0]);
 1962              		.loc 1 418 12 view .LVU583
 1963 00a6 AE61     		str	r6, [r5, #24]
 420:DMP/mllite/ml_math_func.c ****         inv_q29_mult(quat[2], quat[3]) + inv_q29_mult(quat[1], quat[0]);
 1964              		.loc 1 420 5 is_stmt 1 view .LVU584
 421:DMP/mllite/ml_math_func.c ****     rot[8] =
 1965              		.loc 1 421 9 is_stmt 0 view .LVU585
 1966 00a8 E168     		ldr	r1, [r4, #12]
 1967 00aa A068     		ldr	r0, [r4, #8]
 1968 00ac FFF7FEFF 		bl	inv_q29_mult
 1969              	.LVL174:
 1970 00b0 0646     		mov	r6, r0
 421:DMP/mllite/ml_math_func.c ****     rot[8] =
 1971              		.loc 1 421 42 view .LVU586
 1972 00b2 2168     		ldr	r1, [r4]
 1973 00b4 6068     		ldr	r0, [r4, #4]
 1974 00b6 FFF7FEFF 		bl	inv_q29_mult
 1975              	.LVL175:
 421:DMP/mllite/ml_math_func.c ****     rot[8] =
 1976              		.loc 1 421 40 view .LVU587
 1977 00ba 0644     		add	r6, r6, r0
 420:DMP/mllite/ml_math_func.c ****         inv_q29_mult(quat[2], quat[3]) + inv_q29_mult(quat[1], quat[0]);
 1978              		.loc 1 420 12 view .LVU588
 1979 00bc EE61     		str	r6, [r5, #28]
 422:DMP/mllite/ml_math_func.c ****         inv_q29_mult(quat[3], quat[3]) + inv_q29_mult(quat[0],
 1980              		.loc 1 422 5 is_stmt 1 view .LVU589
 423:DMP/mllite/ml_math_func.c ****                 quat[0]) -
 1981              		.loc 1 423 9 is_stmt 0 view .LVU590
 1982 00be E068     		ldr	r0, [r4, #12]
 1983 00c0 0146     		mov	r1, r0
 1984 00c2 FFF7FEFF 		bl	inv_q29_mult
 1985              	.LVL176:
 1986 00c6 0646     		mov	r6, r0
 423:DMP/mllite/ml_math_func.c ****                 quat[0]) -
 1987              		.loc 1 423 42 view .LVU591
 1988 00c8 2068     		ldr	r0, [r4]
 1989 00ca 0146     		mov	r1, r0
 1990 00cc FFF7FEFF 		bl	inv_q29_mult
 1991              	.LVL177:
 423:DMP/mllite/ml_math_func.c ****                 quat[0]) -
 1992              		.loc 1 423 40 view .LVU592
 1993 00d0 0644     		add	r6, r6, r0
 424:DMP/mllite/ml_math_func.c ****         1073741824L;
 1994              		.loc 1 424 26 view .LVU593
 1995 00d2 06F14046 		add	r6, r6, #-1073741824
 422:DMP/mllite/ml_math_func.c ****         inv_q29_mult(quat[3], quat[3]) + inv_q29_mult(quat[0],
 1996              		.loc 1 422 12 view .LVU594
 1997 00d6 2E62     		str	r6, [r5, #32]
 426:DMP/mllite/ml_math_func.c **** 
 1998              		.loc 1 426 1 view .LVU595
 1999 00d8 70BD     		pop	{r4, r5, r6, pc}
ARM GAS  /var/folders/21/t9g5rlb91ys800n5npymflf80000gn/T//cc5g3ium.s 			page 57


 426:DMP/mllite/ml_math_func.c **** 
 2000              		.loc 1 426 1 view .LVU596
 2001              		.cfi_endproc
 2002              	.LFE44:
 2004              		.section	.text.inv_quaternion_to_rotation_vector,"ax",%progbits
 2005              		.align	1
 2006              		.global	inv_quaternion_to_rotation_vector
 2007              		.syntax unified
 2008              		.thumb
 2009              		.thumb_func
 2011              	inv_quaternion_to_rotation_vector:
 2012              	.LVL178:
 2013              	.LFB45:
 439:DMP/mllite/ml_math_func.c ****     rot[0] = quat[1];
 2014              		.loc 1 439 1 is_stmt 1 view -0
 2015              		.cfi_startproc
 2016              		@ args = 0, pretend = 0, frame = 0
 2017              		@ frame_needed = 0, uses_anonymous_args = 0
 2018              		@ link register save eliminated.
 439:DMP/mllite/ml_math_func.c ****     rot[0] = quat[1];
 2019              		.loc 1 439 1 is_stmt 0 view .LVU598
 2020 0000 10B4     		push	{r4}
 2021              	.LCFI24:
 2022              		.cfi_def_cfa_offset 4
 2023              		.cfi_offset 4, -4
 440:DMP/mllite/ml_math_func.c ****     rot[1] = quat[2];
 2024              		.loc 1 440 5 is_stmt 1 view .LVU599
 440:DMP/mllite/ml_math_func.c ****     rot[1] = quat[2];
 2025              		.loc 1 440 18 is_stmt 0 view .LVU600
 2026 0002 4468     		ldr	r4, [r0, #4]
 440:DMP/mllite/ml_math_func.c ****     rot[1] = quat[2];
 2027              		.loc 1 440 12 view .LVU601
 2028 0004 0C60     		str	r4, [r1]
 441:DMP/mllite/ml_math_func.c ****     rot[2] = quat[3];
 2029              		.loc 1 441 5 is_stmt 1 view .LVU602
 441:DMP/mllite/ml_math_func.c ****     rot[2] = quat[3];
 2030              		.loc 1 441 18 is_stmt 0 view .LVU603
 2031 0006 8268     		ldr	r2, [r0, #8]
 441:DMP/mllite/ml_math_func.c ****     rot[2] = quat[3];
 2032              		.loc 1 441 12 view .LVU604
 2033 0008 4A60     		str	r2, [r1, #4]
 442:DMP/mllite/ml_math_func.c **** 
 2034              		.loc 1 442 5 is_stmt 1 view .LVU605
 442:DMP/mllite/ml_math_func.c **** 
 2035              		.loc 1 442 18 is_stmt 0 view .LVU606
 2036 000a C368     		ldr	r3, [r0, #12]
 442:DMP/mllite/ml_math_func.c **** 
 2037              		.loc 1 442 12 view .LVU607
 2038 000c 8B60     		str	r3, [r1, #8]
 444:DMP/mllite/ml_math_func.c ****         rot[0] = -rot[0];
 2039              		.loc 1 444 5 is_stmt 1 view .LVU608
 444:DMP/mllite/ml_math_func.c ****         rot[0] = -rot[0];
 2040              		.loc 1 444 13 is_stmt 0 view .LVU609
 2041 000e 0068     		ldr	r0, [r0]
 2042              	.LVL179:
 444:DMP/mllite/ml_math_func.c ****         rot[0] = -rot[0];
 2043              		.loc 1 444 8 view .LVU610
ARM GAS  /var/folders/21/t9g5rlb91ys800n5npymflf80000gn/T//cc5g3ium.s 			page 58


 2044 0010 0028     		cmp	r0, #0
 2045 0012 02DB     		blt	.L86
 2046              	.L83:
 449:DMP/mllite/ml_math_func.c **** 
 2047              		.loc 1 449 1 view .LVU611
 2048 0014 5DF8044B 		ldr	r4, [sp], #4
 2049              	.LCFI25:
 2050              		.cfi_remember_state
 2051              		.cfi_restore 4
 2052              		.cfi_def_cfa_offset 0
 2053 0018 7047     		bx	lr
 2054              	.L86:
 2055              	.LCFI26:
 2056              		.cfi_restore_state
 445:DMP/mllite/ml_math_func.c ****         rot[1] = -rot[1];
 2057              		.loc 1 445 9 is_stmt 1 view .LVU612
 445:DMP/mllite/ml_math_func.c ****         rot[1] = -rot[1];
 2058              		.loc 1 445 18 is_stmt 0 view .LVU613
 2059 001a 6442     		rsbs	r4, r4, #0
 445:DMP/mllite/ml_math_func.c ****         rot[1] = -rot[1];
 2060              		.loc 1 445 16 view .LVU614
 2061 001c 0C60     		str	r4, [r1]
 446:DMP/mllite/ml_math_func.c ****         rot[2] = -rot[2];
 2062              		.loc 1 446 9 is_stmt 1 view .LVU615
 446:DMP/mllite/ml_math_func.c ****         rot[2] = -rot[2];
 2063              		.loc 1 446 18 is_stmt 0 view .LVU616
 2064 001e 5242     		rsbs	r2, r2, #0
 446:DMP/mllite/ml_math_func.c ****         rot[2] = -rot[2];
 2065              		.loc 1 446 16 view .LVU617
 2066 0020 4A60     		str	r2, [r1, #4]
 447:DMP/mllite/ml_math_func.c ****     }
 2067              		.loc 1 447 9 is_stmt 1 view .LVU618
 447:DMP/mllite/ml_math_func.c ****     }
 2068              		.loc 1 447 18 is_stmt 0 view .LVU619
 2069 0022 5B42     		rsbs	r3, r3, #0
 447:DMP/mllite/ml_math_func.c ****     }
 2070              		.loc 1 447 16 view .LVU620
 2071 0024 8B60     		str	r3, [r1, #8]
 449:DMP/mllite/ml_math_func.c **** 
 2072              		.loc 1 449 1 view .LVU621
 2073 0026 F5E7     		b	.L83
 2074              		.cfi_endproc
 2075              	.LFE45:
 2077              		.section	.text.inv_int32_to_big8,"ax",%progbits
 2078              		.align	1
 2079              		.global	inv_int32_to_big8
 2080              		.syntax unified
 2081              		.thumb
 2082              		.thumb_func
 2084              	inv_int32_to_big8:
 2085              	.LVL180:
 2086              	.LFB46:
 453:DMP/mllite/ml_math_func.c ****     big8[0] = (unsigned char)((x >> 24) & 0xff);
 2087              		.loc 1 453 1 is_stmt 1 view -0
 2088              		.cfi_startproc
 2089              		@ args = 0, pretend = 0, frame = 0
 2090              		@ frame_needed = 0, uses_anonymous_args = 0
ARM GAS  /var/folders/21/t9g5rlb91ys800n5npymflf80000gn/T//cc5g3ium.s 			page 59


 2091              		@ link register save eliminated.
 453:DMP/mllite/ml_math_func.c ****     big8[0] = (unsigned char)((x >> 24) & 0xff);
 2092              		.loc 1 453 1 is_stmt 0 view .LVU623
 2093 0000 0346     		mov	r3, r0
 2094 0002 0846     		mov	r0, r1
 2095              	.LVL181:
 454:DMP/mllite/ml_math_func.c ****     big8[1] = (unsigned char)((x >> 16) & 0xff);
 2096              		.loc 1 454 5 is_stmt 1 view .LVU624
 454:DMP/mllite/ml_math_func.c ****     big8[1] = (unsigned char)((x >> 16) & 0xff);
 2097              		.loc 1 454 15 is_stmt 0 view .LVU625
 2098 0004 1A0E     		lsrs	r2, r3, #24
 454:DMP/mllite/ml_math_func.c ****     big8[1] = (unsigned char)((x >> 16) & 0xff);
 2099              		.loc 1 454 13 view .LVU626
 2100 0006 0A70     		strb	r2, [r1]
 455:DMP/mllite/ml_math_func.c ****     big8[2] = (unsigned char)((x >> 8) & 0xff);
 2101              		.loc 1 455 5 is_stmt 1 view .LVU627
 455:DMP/mllite/ml_math_func.c ****     big8[2] = (unsigned char)((x >> 8) & 0xff);
 2102              		.loc 1 455 15 is_stmt 0 view .LVU628
 2103 0008 C3F30742 		ubfx	r2, r3, #16, #8
 455:DMP/mllite/ml_math_func.c ****     big8[2] = (unsigned char)((x >> 8) & 0xff);
 2104              		.loc 1 455 13 view .LVU629
 2105 000c 4A70     		strb	r2, [r1, #1]
 456:DMP/mllite/ml_math_func.c ****     big8[3] = (unsigned char)(x & 0xff);
 2106              		.loc 1 456 5 is_stmt 1 view .LVU630
 456:DMP/mllite/ml_math_func.c ****     big8[3] = (unsigned char)(x & 0xff);
 2107              		.loc 1 456 15 is_stmt 0 view .LVU631
 2108 000e C3F30722 		ubfx	r2, r3, #8, #8
 456:DMP/mllite/ml_math_func.c ****     big8[3] = (unsigned char)(x & 0xff);
 2109              		.loc 1 456 13 view .LVU632
 2110 0012 8A70     		strb	r2, [r1, #2]
 457:DMP/mllite/ml_math_func.c ****     return big8;
 2111              		.loc 1 457 5 is_stmt 1 view .LVU633
 457:DMP/mllite/ml_math_func.c ****     return big8;
 2112              		.loc 1 457 13 is_stmt 0 view .LVU634
 2113 0014 CB70     		strb	r3, [r1, #3]
 458:DMP/mllite/ml_math_func.c **** }
 2114              		.loc 1 458 5 is_stmt 1 view .LVU635
 459:DMP/mllite/ml_math_func.c **** 
 2115              		.loc 1 459 1 is_stmt 0 view .LVU636
 2116 0016 7047     		bx	lr
 2117              		.cfi_endproc
 2118              	.LFE46:
 2120              		.section	.text.inv_big8_to_int32,"ax",%progbits
 2121              		.align	1
 2122              		.global	inv_big8_to_int32
 2123              		.syntax unified
 2124              		.thumb
 2125              		.thumb_func
 2127              	inv_big8_to_int32:
 2128              	.LVL182:
 2129              	.LFB47:
 463:DMP/mllite/ml_math_func.c ****     long x;
 2130              		.loc 1 463 1 is_stmt 1 view -0
 2131              		.cfi_startproc
 2132              		@ args = 0, pretend = 0, frame = 0
 2133              		@ frame_needed = 0, uses_anonymous_args = 0
 2134              		@ link register save eliminated.
ARM GAS  /var/folders/21/t9g5rlb91ys800n5npymflf80000gn/T//cc5g3ium.s 			page 60


 464:DMP/mllite/ml_math_func.c ****     x = ((long)big8[0] << 24) | ((long)big8[1] << 16) | ((long)big8[2] << 8)
 2135              		.loc 1 464 5 view .LVU638
 465:DMP/mllite/ml_math_func.c ****         | ((long)big8[3]);
 2136              		.loc 1 465 5 view .LVU639
 465:DMP/mllite/ml_math_func.c ****         | ((long)big8[3]);
 2137              		.loc 1 465 20 is_stmt 0 view .LVU640
 2138 0000 0278     		ldrb	r2, [r0]	@ zero_extendqisi2
 465:DMP/mllite/ml_math_func.c ****         | ((long)big8[3]);
 2139              		.loc 1 465 44 view .LVU641
 2140 0002 4378     		ldrb	r3, [r0, #1]	@ zero_extendqisi2
 465:DMP/mllite/ml_math_func.c ****         | ((long)big8[3]);
 2141              		.loc 1 465 48 view .LVU642
 2142 0004 1B04     		lsls	r3, r3, #16
 465:DMP/mllite/ml_math_func.c ****         | ((long)big8[3]);
 2143              		.loc 1 465 31 view .LVU643
 2144 0006 43EA0263 		orr	r3, r3, r2, lsl #24
 465:DMP/mllite/ml_math_func.c ****         | ((long)big8[3]);
 2145              		.loc 1 465 68 view .LVU644
 2146 000a 8278     		ldrb	r2, [r0, #2]	@ zero_extendqisi2
 465:DMP/mllite/ml_math_func.c ****         | ((long)big8[3]);
 2147              		.loc 1 465 55 view .LVU645
 2148 000c 43EA0223 		orr	r3, r3, r2, lsl #8
 466:DMP/mllite/ml_math_func.c ****     return x;
 2149              		.loc 1 466 22 view .LVU646
 2150 0010 C078     		ldrb	r0, [r0, #3]	@ zero_extendqisi2
 2151              	.LVL183:
 467:DMP/mllite/ml_math_func.c **** }
 2152              		.loc 1 467 5 is_stmt 1 view .LVU647
 468:DMP/mllite/ml_math_func.c **** 
 2153              		.loc 1 468 1 is_stmt 0 view .LVU648
 2154 0012 1843     		orrs	r0, r0, r3
 2155              	.LVL184:
 468:DMP/mllite/ml_math_func.c **** 
 2156              		.loc 1 468 1 view .LVU649
 2157 0014 7047     		bx	lr
 2158              		.cfi_endproc
 2159              	.LFE47:
 2161              		.section	.text.inv_big8_to_int16,"ax",%progbits
 2162              		.align	1
 2163              		.global	inv_big8_to_int16
 2164              		.syntax unified
 2165              		.thumb
 2166              		.thumb_func
 2168              	inv_big8_to_int16:
 2169              	.LVL185:
 2170              	.LFB48:
 472:DMP/mllite/ml_math_func.c ****     short x;
 2171              		.loc 1 472 1 is_stmt 1 view -0
 2172              		.cfi_startproc
 2173              		@ args = 0, pretend = 0, frame = 0
 2174              		@ frame_needed = 0, uses_anonymous_args = 0
 2175              		@ link register save eliminated.
 473:DMP/mllite/ml_math_func.c ****     x = ((short)big8[0] << 8) | ((short)big8[1]);
 2176              		.loc 1 473 5 view .LVU651
 474:DMP/mllite/ml_math_func.c ****     return x;
 2177              		.loc 1 474 5 view .LVU652
 474:DMP/mllite/ml_math_func.c ****     return x;
ARM GAS  /var/folders/21/t9g5rlb91ys800n5npymflf80000gn/T//cc5g3ium.s 			page 61


 2178              		.loc 1 474 21 is_stmt 0 view .LVU653
 2179 0000 0378     		ldrb	r3, [r0]	@ zero_extendqisi2
 474:DMP/mllite/ml_math_func.c ****     return x;
 2180              		.loc 1 474 25 view .LVU654
 2181 0002 1B02     		lsls	r3, r3, #8
 474:DMP/mllite/ml_math_func.c ****     return x;
 2182              		.loc 1 474 31 view .LVU655
 2183 0004 1BB2     		sxth	r3, r3
 474:DMP/mllite/ml_math_func.c ****     return x;
 2184              		.loc 1 474 45 view .LVU656
 2185 0006 4078     		ldrb	r0, [r0, #1]	@ zero_extendqisi2
 2186              	.LVL186:
 475:DMP/mllite/ml_math_func.c **** }
 2187              		.loc 1 475 5 is_stmt 1 view .LVU657
 476:DMP/mllite/ml_math_func.c **** 
 2188              		.loc 1 476 1 is_stmt 0 view .LVU658
 2189 0008 1843     		orrs	r0, r0, r3
 2190              	.LVL187:
 476:DMP/mllite/ml_math_func.c **** 
 2191              		.loc 1 476 1 view .LVU659
 2192 000a 7047     		bx	lr
 2193              		.cfi_endproc
 2194              	.LFE48:
 2196              		.section	.text.inv_little8_to_int16,"ax",%progbits
 2197              		.align	1
 2198              		.global	inv_little8_to_int16
 2199              		.syntax unified
 2200              		.thumb
 2201              		.thumb_func
 2203              	inv_little8_to_int16:
 2204              	.LVL188:
 2205              	.LFB49:
 480:DMP/mllite/ml_math_func.c ****     short x;
 2206              		.loc 1 480 1 is_stmt 1 view -0
 2207              		.cfi_startproc
 2208              		@ args = 0, pretend = 0, frame = 0
 2209              		@ frame_needed = 0, uses_anonymous_args = 0
 2210              		@ link register save eliminated.
 481:DMP/mllite/ml_math_func.c ****     x = ((short)little8[1] << 8) | ((short)little8[0]);
 2211              		.loc 1 481 5 view .LVU661
 482:DMP/mllite/ml_math_func.c ****     return x;
 2212              		.loc 1 482 5 view .LVU662
 482:DMP/mllite/ml_math_func.c ****     return x;
 2213              		.loc 1 482 24 is_stmt 0 view .LVU663
 2214 0000 4378     		ldrb	r3, [r0, #1]	@ zero_extendqisi2
 482:DMP/mllite/ml_math_func.c ****     return x;
 2215              		.loc 1 482 28 view .LVU664
 2216 0002 1B02     		lsls	r3, r3, #8
 482:DMP/mllite/ml_math_func.c ****     return x;
 2217              		.loc 1 482 34 view .LVU665
 2218 0004 1BB2     		sxth	r3, r3
 482:DMP/mllite/ml_math_func.c ****     return x;
 2219              		.loc 1 482 51 view .LVU666
 2220 0006 0078     		ldrb	r0, [r0]	@ zero_extendqisi2
 2221              	.LVL189:
 483:DMP/mllite/ml_math_func.c **** }
 2222              		.loc 1 483 5 is_stmt 1 view .LVU667
ARM GAS  /var/folders/21/t9g5rlb91ys800n5npymflf80000gn/T//cc5g3ium.s 			page 62


 484:DMP/mllite/ml_math_func.c **** 
 2223              		.loc 1 484 1 is_stmt 0 view .LVU668
 2224 0008 1843     		orrs	r0, r0, r3
 2225              	.LVL190:
 484:DMP/mllite/ml_math_func.c **** 
 2226              		.loc 1 484 1 view .LVU669
 2227 000a 7047     		bx	lr
 2228              		.cfi_endproc
 2229              	.LFE49:
 2231              		.section	.text.inv_int16_to_big8,"ax",%progbits
 2232              		.align	1
 2233              		.global	inv_int16_to_big8
 2234              		.syntax unified
 2235              		.thumb
 2236              		.thumb_func
 2238              	inv_int16_to_big8:
 2239              	.LVL191:
 2240              	.LFB50:
 488:DMP/mllite/ml_math_func.c ****     big8[0] = (unsigned char)((x >> 8) & 0xff);
 2241              		.loc 1 488 1 is_stmt 1 view -0
 2242              		.cfi_startproc
 2243              		@ args = 0, pretend = 0, frame = 0
 2244              		@ frame_needed = 0, uses_anonymous_args = 0
 2245              		@ link register save eliminated.
 488:DMP/mllite/ml_math_func.c ****     big8[0] = (unsigned char)((x >> 8) & 0xff);
 2246              		.loc 1 488 1 is_stmt 0 view .LVU671
 2247 0000 0346     		mov	r3, r0
 2248 0002 0846     		mov	r0, r1
 2249              	.LVL192:
 489:DMP/mllite/ml_math_func.c ****     big8[1] = (unsigned char)(x & 0xff);
 2250              		.loc 1 489 5 is_stmt 1 view .LVU672
 489:DMP/mllite/ml_math_func.c ****     big8[1] = (unsigned char)(x & 0xff);
 2251              		.loc 1 489 15 is_stmt 0 view .LVU673
 2252 0004 C3F30722 		ubfx	r2, r3, #8, #8
 489:DMP/mllite/ml_math_func.c ****     big8[1] = (unsigned char)(x & 0xff);
 2253              		.loc 1 489 13 view .LVU674
 2254 0008 0A70     		strb	r2, [r1]
 490:DMP/mllite/ml_math_func.c ****     return big8;
 2255              		.loc 1 490 5 is_stmt 1 view .LVU675
 490:DMP/mllite/ml_math_func.c ****     return big8;
 2256              		.loc 1 490 13 is_stmt 0 view .LVU676
 2257 000a 4B70     		strb	r3, [r1, #1]
 491:DMP/mllite/ml_math_func.c **** }
 2258              		.loc 1 491 5 is_stmt 1 view .LVU677
 492:DMP/mllite/ml_math_func.c **** 
 2259              		.loc 1 492 1 is_stmt 0 view .LVU678
 2260 000c 7047     		bx	lr
 2261              		.cfi_endproc
 2262              	.LFE50:
 2264              		.section	.text.inv_matrix_det_inc,"ax",%progbits
 2265              		.align	1
 2266              		.global	inv_matrix_det_inc
 2267              		.syntax unified
 2268              		.thumb
 2269              		.thumb_func
 2271              	inv_matrix_det_inc:
 2272              	.LVL193:
ARM GAS  /var/folders/21/t9g5rlb91ys800n5npymflf80000gn/T//cc5g3ium.s 			page 63


 2273              	.LFB51:
 495:DMP/mllite/ml_math_func.c ****     int k, l, i, j;
 2274              		.loc 1 495 1 is_stmt 1 view -0
 2275              		.cfi_startproc
 2276              		@ args = 4, pretend = 0, frame = 0
 2277              		@ frame_needed = 0, uses_anonymous_args = 0
 495:DMP/mllite/ml_math_func.c ****     int k, l, i, j;
 2278              		.loc 1 495 1 is_stmt 0 view .LVU680
 2279 0000 2DE9F041 		push	{r4, r5, r6, r7, r8, lr}
 2280              	.LCFI27:
 2281              		.cfi_def_cfa_offset 24
 2282              		.cfi_offset 4, -24
 2283              		.cfi_offset 5, -20
 2284              		.cfi_offset 6, -16
 2285              		.cfi_offset 7, -12
 2286              		.cfi_offset 8, -8
 2287              		.cfi_offset 14, -4
 2288 0004 0546     		mov	r5, r0
 2289 0006 0E46     		mov	r6, r1
 2290 0008 1446     		mov	r4, r2
 2291 000a 1F46     		mov	r7, r3
 2292 000c DDF81880 		ldr	r8, [sp, #24]
 496:DMP/mllite/ml_math_func.c ****     for (i = 0, k = 0; i < *n; i++, k++) {
 2293              		.loc 1 496 5 is_stmt 1 view .LVU681
 497:DMP/mllite/ml_math_func.c ****         for (j = 0, l = 0; j < *n; j++, l++) {
 2294              		.loc 1 497 5 view .LVU682
 2295              	.LVL194:
 497:DMP/mllite/ml_math_func.c ****         for (j = 0, l = 0; j < *n; j++, l++) {
 2296              		.loc 1 497 12 is_stmt 0 view .LVU683
 2297 0010 0022     		movs	r2, #0
 2298              	.LVL195:
 497:DMP/mllite/ml_math_func.c ****         for (j = 0, l = 0; j < *n; j++, l++) {
 2299              		.loc 1 497 19 view .LVU684
 2300 0012 1046     		mov	r0, r2
 2301              	.LVL196:
 497:DMP/mllite/ml_math_func.c ****         for (j = 0, l = 0; j < *n; j++, l++) {
 2302              		.loc 1 497 5 view .LVU685
 2303 0014 1FE0     		b	.L93
 2304              	.LVL197:
 2305              	.L94:
 501:DMP/mllite/ml_math_func.c ****                 j++;
 2306              		.loc 1 501 13 is_stmt 1 view .LVU686
 501:DMP/mllite/ml_math_func.c ****                 j++;
 2307              		.loc 1 501 16 is_stmt 0 view .LVU687
 2308 0016 C445     		cmp	ip, r8
 2309 0018 18D0     		beq	.L100
 2310              	.L95:
 503:DMP/mllite/ml_math_func.c ****         }
 2311              		.loc 1 503 13 is_stmt 1 discriminator 2 view .LVU688
 503:DMP/mllite/ml_math_func.c ****         }
 2312              		.loc 1 503 44 is_stmt 0 discriminator 2 view .LVU689
 2313 001a 02EB4203 		add	r3, r2, r2, lsl #1
 2314 001e 0CEB4303 		add	r3, ip, r3, lsl #1
 2315 0022 05EB8303 		add	r3, r5, r3, lsl #2
 503:DMP/mllite/ml_math_func.c ****         }
 2316              		.loc 1 503 25 discriminator 2 view .LVU690
 2317 0026 00EB400E 		add	lr, r0, r0, lsl #1
ARM GAS  /var/folders/21/t9g5rlb91ys800n5npymflf80000gn/T//cc5g3ium.s 			page 64


 2318 002a 01EB4E0E 		add	lr, r1, lr, lsl #1
 2319 002e 06EB8E0E 		add	lr, r6, lr, lsl #2
 503:DMP/mllite/ml_math_func.c ****         }
 2320              		.loc 1 503 32 discriminator 2 view .LVU691
 2321 0032 1B68     		ldr	r3, [r3]	@ float
 503:DMP/mllite/ml_math_func.c ****         }
 2322              		.loc 1 503 30 discriminator 2 view .LVU692
 2323 0034 CEF80030 		str	r3, [lr]	@ float
 498:DMP/mllite/ml_math_func.c ****             if (i == x)
 2324              		.loc 1 498 39 is_stmt 1 discriminator 2 view .LVU693
 498:DMP/mllite/ml_math_func.c ****             if (i == x)
 2325              		.loc 1 498 37 is_stmt 0 discriminator 2 view .LVU694
 2326 0038 0CF1010C 		add	ip, ip, #1
 2327              	.LVL198:
 498:DMP/mllite/ml_math_func.c ****             if (i == x)
 2328              		.loc 1 498 42 discriminator 2 view .LVU695
 2329 003c 0131     		adds	r1, r1, #1
 2330              	.LVL199:
 2331              	.L97:
 498:DMP/mllite/ml_math_func.c ****             if (i == x)
 2332              		.loc 1 498 30 is_stmt 1 discriminator 1 view .LVU696
 2333 003e 2368     		ldr	r3, [r4]
 2334 0040 6345     		cmp	r3, ip
 2335 0042 06DD     		ble	.L101
 499:DMP/mllite/ml_math_func.c ****                 i++;
 2336              		.loc 1 499 13 view .LVU697
 499:DMP/mllite/ml_math_func.c ****                 i++;
 2337              		.loc 1 499 16 is_stmt 0 view .LVU698
 2338 0044 BA42     		cmp	r2, r7
 2339 0046 E6D1     		bne	.L94
 500:DMP/mllite/ml_math_func.c ****             if (j == y)
 2340              		.loc 1 500 17 is_stmt 1 view .LVU699
 500:DMP/mllite/ml_math_func.c ****             if (j == y)
 2341              		.loc 1 500 18 is_stmt 0 view .LVU700
 2342 0048 0132     		adds	r2, r2, #1
 2343              	.LVL200:
 500:DMP/mllite/ml_math_func.c ****             if (j == y)
 2344              		.loc 1 500 18 view .LVU701
 2345 004a E4E7     		b	.L94
 2346              	.L100:
 502:DMP/mllite/ml_math_func.c ****             *(b + 6 * k + l) = *(a + 6 * i + j);
 2347              		.loc 1 502 17 is_stmt 1 view .LVU702
 502:DMP/mllite/ml_math_func.c ****             *(b + 6 * k + l) = *(a + 6 * i + j);
 2348              		.loc 1 502 18 is_stmt 0 view .LVU703
 2349 004c 0CF1010C 		add	ip, ip, #1
 2350              	.LVL201:
 502:DMP/mllite/ml_math_func.c ****             *(b + 6 * k + l) = *(a + 6 * i + j);
 2351              		.loc 1 502 18 view .LVU704
 2352 0050 E3E7     		b	.L95
 2353              	.L101:
 497:DMP/mllite/ml_math_func.c ****         for (j = 0, l = 0; j < *n; j++, l++) {
 2354              		.loc 1 497 35 is_stmt 1 discriminator 2 view .LVU705
 497:DMP/mllite/ml_math_func.c ****         for (j = 0, l = 0; j < *n; j++, l++) {
 2355              		.loc 1 497 33 is_stmt 0 discriminator 2 view .LVU706
 2356 0052 0132     		adds	r2, r2, #1
 2357              	.LVL202:
 497:DMP/mllite/ml_math_func.c ****         for (j = 0, l = 0; j < *n; j++, l++) {
ARM GAS  /var/folders/21/t9g5rlb91ys800n5npymflf80000gn/T//cc5g3ium.s 			page 65


 2358              		.loc 1 497 38 discriminator 2 view .LVU707
 2359 0054 0130     		adds	r0, r0, #1
 2360              	.LVL203:
 2361              	.L93:
 497:DMP/mllite/ml_math_func.c ****         for (j = 0, l = 0; j < *n; j++, l++) {
 2362              		.loc 1 497 26 is_stmt 1 discriminator 1 view .LVU708
 497:DMP/mllite/ml_math_func.c ****         for (j = 0, l = 0; j < *n; j++, l++) {
 2363              		.loc 1 497 28 is_stmt 0 discriminator 1 view .LVU709
 2364 0056 2368     		ldr	r3, [r4]
 497:DMP/mllite/ml_math_func.c ****         for (j = 0, l = 0; j < *n; j++, l++) {
 2365              		.loc 1 497 26 discriminator 1 view .LVU710
 2366 0058 9342     		cmp	r3, r2
 2367 005a 03DD     		ble	.L102
 498:DMP/mllite/ml_math_func.c ****             if (i == x)
 2368              		.loc 1 498 16 view .LVU711
 2369 005c 4FF0000C 		mov	ip, #0
 498:DMP/mllite/ml_math_func.c ****             if (i == x)
 2370              		.loc 1 498 23 view .LVU712
 2371 0060 6146     		mov	r1, ip
 2372 0062 ECE7     		b	.L97
 2373              	.L102:
 506:DMP/mllite/ml_math_func.c **** }
 2374              		.loc 1 506 5 is_stmt 1 view .LVU713
 506:DMP/mllite/ml_math_func.c **** }
 2375              		.loc 1 506 13 is_stmt 0 view .LVU714
 2376 0064 013B     		subs	r3, r3, #1
 506:DMP/mllite/ml_math_func.c **** }
 2377              		.loc 1 506 8 view .LVU715
 2378 0066 2360     		str	r3, [r4]
 507:DMP/mllite/ml_math_func.c **** 
 2379              		.loc 1 507 1 view .LVU716
 2380 0068 BDE8F081 		pop	{r4, r5, r6, r7, r8, pc}
 507:DMP/mllite/ml_math_func.c **** 
 2381              		.loc 1 507 1 view .LVU717
 2382              		.cfi_endproc
 2383              	.LFE51:
 2385              		.section	.text.inv_matrix_det_incd,"ax",%progbits
 2386              		.align	1
 2387              		.global	inv_matrix_det_incd
 2388              		.syntax unified
 2389              		.thumb
 2390              		.thumb_func
 2392              	inv_matrix_det_incd:
 2393              	.LVL204:
 2394              	.LFB52:
 510:DMP/mllite/ml_math_func.c ****     int k, l, i, j;
 2395              		.loc 1 510 1 is_stmt 1 view -0
 2396              		.cfi_startproc
 2397              		@ args = 4, pretend = 0, frame = 0
 2398              		@ frame_needed = 0, uses_anonymous_args = 0
 510:DMP/mllite/ml_math_func.c ****     int k, l, i, j;
 2399              		.loc 1 510 1 is_stmt 0 view .LVU719
 2400 0000 2DE9F041 		push	{r4, r5, r6, r7, r8, lr}
 2401              	.LCFI28:
 2402              		.cfi_def_cfa_offset 24
 2403              		.cfi_offset 4, -24
 2404              		.cfi_offset 5, -20
ARM GAS  /var/folders/21/t9g5rlb91ys800n5npymflf80000gn/T//cc5g3ium.s 			page 66


 2405              		.cfi_offset 6, -16
 2406              		.cfi_offset 7, -12
 2407              		.cfi_offset 8, -8
 2408              		.cfi_offset 14, -4
 2409 0004 0546     		mov	r5, r0
 2410 0006 0E46     		mov	r6, r1
 2411 0008 1446     		mov	r4, r2
 2412 000a 1F46     		mov	r7, r3
 2413 000c DDF81880 		ldr	r8, [sp, #24]
 511:DMP/mllite/ml_math_func.c ****     for (i = 0, k = 0; i < *n; i++, k++) {
 2414              		.loc 1 511 5 is_stmt 1 view .LVU720
 512:DMP/mllite/ml_math_func.c ****         for (j = 0, l = 0; j < *n; j++, l++) {
 2415              		.loc 1 512 5 view .LVU721
 2416              	.LVL205:
 512:DMP/mllite/ml_math_func.c ****         for (j = 0, l = 0; j < *n; j++, l++) {
 2417              		.loc 1 512 12 is_stmt 0 view .LVU722
 2418 0010 0022     		movs	r2, #0
 2419              	.LVL206:
 512:DMP/mllite/ml_math_func.c ****         for (j = 0, l = 0; j < *n; j++, l++) {
 2420              		.loc 1 512 19 view .LVU723
 2421 0012 1046     		mov	r0, r2
 2422              	.LVL207:
 512:DMP/mllite/ml_math_func.c ****         for (j = 0, l = 0; j < *n; j++, l++) {
 2423              		.loc 1 512 5 view .LVU724
 2424 0014 20E0     		b	.L104
 2425              	.LVL208:
 2426              	.L105:
 516:DMP/mllite/ml_math_func.c ****                 j++;
 2427              		.loc 1 516 13 is_stmt 1 view .LVU725
 516:DMP/mllite/ml_math_func.c ****                 j++;
 2428              		.loc 1 516 16 is_stmt 0 view .LVU726
 2429 0016 C445     		cmp	ip, r8
 2430 0018 19D0     		beq	.L111
 2431              	.L106:
 518:DMP/mllite/ml_math_func.c ****         }
 2432              		.loc 1 518 13 is_stmt 1 discriminator 2 view .LVU727
 518:DMP/mllite/ml_math_func.c ****         }
 2433              		.loc 1 518 44 is_stmt 0 discriminator 2 view .LVU728
 2434 001a 02EB4203 		add	r3, r2, r2, lsl #1
 2435 001e 0CEB4303 		add	r3, ip, r3, lsl #1
 2436 0022 05EBC303 		add	r3, r5, r3, lsl #3
 518:DMP/mllite/ml_math_func.c ****         }
 2437              		.loc 1 518 25 discriminator 2 view .LVU729
 2438 0026 00EB400E 		add	lr, r0, r0, lsl #1
 2439 002a 01EB4E0E 		add	lr, r1, lr, lsl #1
 2440 002e 06EBCE0E 		add	lr, r6, lr, lsl #3
 518:DMP/mllite/ml_math_func.c ****         }
 2441              		.loc 1 518 32 discriminator 2 view .LVU730
 2442 0032 93ED007B 		vldr.64	d7, [r3]
 518:DMP/mllite/ml_math_func.c ****         }
 2443              		.loc 1 518 30 discriminator 2 view .LVU731
 2444 0036 8EED007B 		vstr.64	d7, [lr]
 513:DMP/mllite/ml_math_func.c ****             if (i == x)
 2445              		.loc 1 513 39 is_stmt 1 discriminator 2 view .LVU732
 513:DMP/mllite/ml_math_func.c ****             if (i == x)
 2446              		.loc 1 513 37 is_stmt 0 discriminator 2 view .LVU733
 2447 003a 0CF1010C 		add	ip, ip, #1
ARM GAS  /var/folders/21/t9g5rlb91ys800n5npymflf80000gn/T//cc5g3ium.s 			page 67


 2448              	.LVL209:
 513:DMP/mllite/ml_math_func.c ****             if (i == x)
 2449              		.loc 1 513 42 discriminator 2 view .LVU734
 2450 003e 0131     		adds	r1, r1, #1
 2451              	.LVL210:
 2452              	.L108:
 513:DMP/mllite/ml_math_func.c ****             if (i == x)
 2453              		.loc 1 513 30 is_stmt 1 discriminator 1 view .LVU735
 2454 0040 2368     		ldr	r3, [r4]
 2455 0042 6345     		cmp	r3, ip
 2456 0044 06DD     		ble	.L112
 514:DMP/mllite/ml_math_func.c ****                 i++;
 2457              		.loc 1 514 13 view .LVU736
 514:DMP/mllite/ml_math_func.c ****                 i++;
 2458              		.loc 1 514 16 is_stmt 0 view .LVU737
 2459 0046 BA42     		cmp	r2, r7
 2460 0048 E5D1     		bne	.L105
 515:DMP/mllite/ml_math_func.c ****             if (j == y)
 2461              		.loc 1 515 17 is_stmt 1 view .LVU738
 515:DMP/mllite/ml_math_func.c ****             if (j == y)
 2462              		.loc 1 515 18 is_stmt 0 view .LVU739
 2463 004a 0132     		adds	r2, r2, #1
 2464              	.LVL211:
 515:DMP/mllite/ml_math_func.c ****             if (j == y)
 2465              		.loc 1 515 18 view .LVU740
 2466 004c E3E7     		b	.L105
 2467              	.L111:
 517:DMP/mllite/ml_math_func.c ****             *(b + 6 * k + l) = *(a + 6 * i + j);
 2468              		.loc 1 517 17 is_stmt 1 view .LVU741
 517:DMP/mllite/ml_math_func.c ****             *(b + 6 * k + l) = *(a + 6 * i + j);
 2469              		.loc 1 517 18 is_stmt 0 view .LVU742
 2470 004e 0CF1010C 		add	ip, ip, #1
 2471              	.LVL212:
 517:DMP/mllite/ml_math_func.c ****             *(b + 6 * k + l) = *(a + 6 * i + j);
 2472              		.loc 1 517 18 view .LVU743
 2473 0052 E2E7     		b	.L106
 2474              	.L112:
 512:DMP/mllite/ml_math_func.c ****         for (j = 0, l = 0; j < *n; j++, l++) {
 2475              		.loc 1 512 35 is_stmt 1 discriminator 2 view .LVU744
 512:DMP/mllite/ml_math_func.c ****         for (j = 0, l = 0; j < *n; j++, l++) {
 2476              		.loc 1 512 33 is_stmt 0 discriminator 2 view .LVU745
 2477 0054 0132     		adds	r2, r2, #1
 2478              	.LVL213:
 512:DMP/mllite/ml_math_func.c ****         for (j = 0, l = 0; j < *n; j++, l++) {
 2479              		.loc 1 512 38 discriminator 2 view .LVU746
 2480 0056 0130     		adds	r0, r0, #1
 2481              	.LVL214:
 2482              	.L104:
 512:DMP/mllite/ml_math_func.c ****         for (j = 0, l = 0; j < *n; j++, l++) {
 2483              		.loc 1 512 26 is_stmt 1 discriminator 1 view .LVU747
 512:DMP/mllite/ml_math_func.c ****         for (j = 0, l = 0; j < *n; j++, l++) {
 2484              		.loc 1 512 28 is_stmt 0 discriminator 1 view .LVU748
 2485 0058 2368     		ldr	r3, [r4]
 512:DMP/mllite/ml_math_func.c ****         for (j = 0, l = 0; j < *n; j++, l++) {
 2486              		.loc 1 512 26 discriminator 1 view .LVU749
 2487 005a 9342     		cmp	r3, r2
 2488 005c 03DD     		ble	.L113
ARM GAS  /var/folders/21/t9g5rlb91ys800n5npymflf80000gn/T//cc5g3ium.s 			page 68


 513:DMP/mllite/ml_math_func.c ****             if (i == x)
 2489              		.loc 1 513 16 view .LVU750
 2490 005e 4FF0000C 		mov	ip, #0
 513:DMP/mllite/ml_math_func.c ****             if (i == x)
 2491              		.loc 1 513 23 view .LVU751
 2492 0062 6146     		mov	r1, ip
 2493 0064 ECE7     		b	.L108
 2494              	.L113:
 521:DMP/mllite/ml_math_func.c **** }
 2495              		.loc 1 521 5 is_stmt 1 view .LVU752
 521:DMP/mllite/ml_math_func.c **** }
 2496              		.loc 1 521 13 is_stmt 0 view .LVU753
 2497 0066 013B     		subs	r3, r3, #1
 521:DMP/mllite/ml_math_func.c **** }
 2498              		.loc 1 521 8 view .LVU754
 2499 0068 2360     		str	r3, [r4]
 522:DMP/mllite/ml_math_func.c **** 
 2500              		.loc 1 522 1 view .LVU755
 2501 006a BDE8F081 		pop	{r4, r5, r6, r7, r8, pc}
 522:DMP/mllite/ml_math_func.c **** 
 2502              		.loc 1 522 1 view .LVU756
 2503              		.cfi_endproc
 2504              	.LFE52:
 2506              		.section	.text.inv_matrix_det,"ax",%progbits
 2507              		.align	1
 2508              		.global	inv_matrix_det
 2509              		.syntax unified
 2510              		.thumb
 2511              		.thumb_func
 2513              	inv_matrix_det:
 2514              	.LVL215:
 2515              	.LFB53:
 525:DMP/mllite/ml_math_func.c ****     float d[6][6], sum = 0;
 2516              		.loc 1 525 1 is_stmt 1 view -0
 2517              		.cfi_startproc
 2518              		@ args = 0, pretend = 0, frame = 144
 2519              		@ frame_needed = 0, uses_anonymous_args = 0
 525:DMP/mllite/ml_math_func.c ****     float d[6][6], sum = 0;
 2520              		.loc 1 525 1 is_stmt 0 view .LVU758
 2521 0000 F0B5     		push	{r4, r5, r6, r7, lr}
 2522              	.LCFI29:
 2523              		.cfi_def_cfa_offset 20
 2524              		.cfi_offset 4, -20
 2525              		.cfi_offset 5, -16
 2526              		.cfi_offset 6, -12
 2527              		.cfi_offset 7, -8
 2528              		.cfi_offset 14, -4
 2529 0002 2DED028B 		vpush.64	{d8}
 2530              	.LCFI30:
 2531              		.cfi_def_cfa_offset 28
 2532              		.cfi_offset 80, -28
 2533              		.cfi_offset 81, -24
 2534 0006 A7B0     		sub	sp, sp, #156
 2535              	.LCFI31:
 2536              		.cfi_def_cfa_offset 184
 2537 0008 0646     		mov	r6, r0
 526:DMP/mllite/ml_math_func.c ****     int i, j, m;
ARM GAS  /var/folders/21/t9g5rlb91ys800n5npymflf80000gn/T//cc5g3ium.s 			page 69


 2538              		.loc 1 526 5 is_stmt 1 view .LVU759
 2539              	.LVL216:
 527:DMP/mllite/ml_math_func.c ****     m = *n;
 2540              		.loc 1 527 5 view .LVU760
 528:DMP/mllite/ml_math_func.c ****     if (*n == 2)
 2541              		.loc 1 528 5 view .LVU761
 528:DMP/mllite/ml_math_func.c ****     if (*n == 2)
 2542              		.loc 1 528 7 is_stmt 0 view .LVU762
 2543 000a 0F68     		ldr	r7, [r1]
 2544              	.LVL217:
 529:DMP/mllite/ml_math_func.c ****         return (*p ** (p + 7) - *(p + 1) ** (p + 6));
 2545              		.loc 1 529 5 is_stmt 1 view .LVU763
 529:DMP/mllite/ml_math_func.c ****         return (*p ** (p + 7) - *(p + 1) ** (p + 6));
 2546              		.loc 1 529 8 is_stmt 0 view .LVU764
 2547 000c 022F     		cmp	r7, #2
 2548 000e 22D0     		beq	.L122
 2549 0010 0D46     		mov	r5, r1
 531:DMP/mllite/ml_math_func.c ****         *n = m;
 2550              		.loc 1 531 19 view .LVU765
 2551 0012 0024     		movs	r4, #0
 526:DMP/mllite/ml_math_func.c ****     int i, j, m;
 2552              		.loc 1 526 20 view .LVU766
 2553 0014 DFED1B8A 		vldr.32	s17, .L123
 2554              	.LVL218:
 2555              	.L115:
 531:DMP/mllite/ml_math_func.c ****         *n = m;
 2556              		.loc 1 531 26 is_stmt 1 discriminator 2 view .LVU767
 2557 0018 BC42     		cmp	r4, r7
 2558 001a 2ADA     		bge	.L114
 532:DMP/mllite/ml_math_func.c ****         inv_matrix_det_inc(p, &d[0][0], n, i, j);
 2559              		.loc 1 532 9 view .LVU768
 532:DMP/mllite/ml_math_func.c ****         inv_matrix_det_inc(p, &d[0][0], n, i, j);
 2560              		.loc 1 532 12 is_stmt 0 view .LVU769
 2561 001c 2F60     		str	r7, [r5]
 533:DMP/mllite/ml_math_func.c ****         sum =
 2562              		.loc 1 533 9 is_stmt 1 view .LVU770
 2563 001e 0094     		str	r4, [sp]
 2564 0020 0023     		movs	r3, #0
 2565 0022 2A46     		mov	r2, r5
 2566 0024 02A9     		add	r1, sp, #8
 2567 0026 3046     		mov	r0, r6
 2568 0028 FFF7FEFF 		bl	inv_matrix_det_inc
 2569              	.LVL219:
 534:DMP/mllite/ml_math_func.c ****             sum + *(p + 6 * i + j) * SIGNM(i +
 2570              		.loc 1 534 9 view .LVU771
 535:DMP/mllite/ml_math_func.c ****                                             j) *
 2571              		.loc 1 535 31 is_stmt 0 view .LVU772
 2572 002c 06EB8403 		add	r3, r6, r4, lsl #2
 535:DMP/mllite/ml_math_func.c ****                                             j) *
 2573              		.loc 1 535 19 view .LVU773
 2574 0030 D3ED007A 		vldr.32	s15, [r3]
 535:DMP/mllite/ml_math_func.c ****                                             j) *
 2575              		.loc 1 535 36 view .LVU774
 2576 0034 14F0010F 		tst	r4, #1
 2577 0038 21D0     		beq	.L120
 2578 003a BFEE007A 		vmov.f32	s14, #-1.0e+0
 2579              	.L117:
ARM GAS  /var/folders/21/t9g5rlb91ys800n5npymflf80000gn/T//cc5g3ium.s 			page 70


 535:DMP/mllite/ml_math_func.c ****                                             j) *
 2580              		.loc 1 535 36 discriminator 4 view .LVU775
 2581 003e 27EE878A 		vmul.f32	s16, s15, s14
 537:DMP/mllite/ml_math_func.c ****     }
 2582              		.loc 1 537 13 discriminator 4 view .LVU776
 2583 0042 2946     		mov	r1, r5
 2584 0044 02A8     		add	r0, sp, #8
 2585 0046 FFF7FEFF 		bl	inv_matrix_det
 2586              	.LVL220:
 536:DMP/mllite/ml_math_func.c ****             inv_matrix_det(&d[0][0], n);
 2587              		.loc 1 536 48 discriminator 4 view .LVU777
 2588 004a 68EE007A 		vmul.f32	s15, s16, s0
 534:DMP/mllite/ml_math_func.c ****             sum + *(p + 6 * i + j) * SIGNM(i +
 2589              		.loc 1 534 13 discriminator 4 view .LVU778
 2590 004e 78EEA78A 		vadd.f32	s17, s17, s15
 2591              	.LVL221:
 531:DMP/mllite/ml_math_func.c ****         *n = m;
 2592              		.loc 1 531 32 is_stmt 1 discriminator 4 view .LVU779
 2593 0052 0134     		adds	r4, r4, #1
 2594              	.LVL222:
 531:DMP/mllite/ml_math_func.c ****         *n = m;
 2595              		.loc 1 531 32 is_stmt 0 discriminator 4 view .LVU780
 2596 0054 E0E7     		b	.L115
 2597              	.LVL223:
 2598              	.L122:
 530:DMP/mllite/ml_math_func.c ****     for (i = 0, j = 0; j < m; j++) {
 2599              		.loc 1 530 9 is_stmt 1 view .LVU781
 530:DMP/mllite/ml_math_func.c ****     for (i = 0, j = 0; j < m; j++) {
 2600              		.loc 1 530 17 is_stmt 0 view .LVU782
 2601 0056 D0ED008A 		vldr.32	s17, [r0]
 530:DMP/mllite/ml_math_func.c ****     for (i = 0, j = 0; j < m; j++) {
 2602              		.loc 1 530 21 view .LVU783
 2603 005a D0ED077A 		vldr.32	s15, [r0, #28]
 530:DMP/mllite/ml_math_func.c ****     for (i = 0, j = 0; j < m; j++) {
 2604              		.loc 1 530 20 view .LVU784
 2605 005e 68EEA78A 		vmul.f32	s17, s17, s15
 530:DMP/mllite/ml_math_func.c ****     for (i = 0, j = 0; j < m; j++) {
 2606              		.loc 1 530 33 view .LVU785
 2607 0062 D0ED017A 		vldr.32	s15, [r0, #4]
 530:DMP/mllite/ml_math_func.c ****     for (i = 0, j = 0; j < m; j++) {
 2608              		.loc 1 530 43 view .LVU786
 2609 0066 90ED067A 		vldr.32	s14, [r0, #24]
 530:DMP/mllite/ml_math_func.c ****     for (i = 0, j = 0; j < m; j++) {
 2610              		.loc 1 530 42 view .LVU787
 2611 006a 67EE877A 		vmul.f32	s15, s15, s14
 530:DMP/mllite/ml_math_func.c ****     for (i = 0, j = 0; j < m; j++) {
 2612              		.loc 1 530 31 view .LVU788
 2613 006e 78EEE78A 		vsub.f32	s17, s17, s15
 2614              	.LVL224:
 2615              	.L114:
 541:DMP/mllite/ml_math_func.c **** 
 2616              		.loc 1 541 1 view .LVU789
 2617 0072 B0EE680A 		vmov.f32	s0, s17
 2618 0076 27B0     		add	sp, sp, #156
 2619              	.LCFI32:
 2620              		.cfi_remember_state
 2621              		.cfi_def_cfa_offset 28
ARM GAS  /var/folders/21/t9g5rlb91ys800n5npymflf80000gn/T//cc5g3ium.s 			page 71


 2622              		@ sp needed
 2623 0078 BDEC028B 		vldm	sp!, {d8}
 2624              	.LCFI33:
 2625              		.cfi_restore 80
 2626              		.cfi_restore 81
 2627              		.cfi_def_cfa_offset 20
 2628 007c F0BD     		pop	{r4, r5, r6, r7, pc}
 2629              	.LVL225:
 2630              	.L120:
 2631              	.LCFI34:
 2632              		.cfi_restore_state
 535:DMP/mllite/ml_math_func.c ****                                             j) *
 2633              		.loc 1 535 36 view .LVU790
 2634 007e B7EE007A 		vmov.f32	s14, #1.0e+0
 2635 0082 DCE7     		b	.L117
 2636              	.L124:
 2637              		.align	2
 2638              	.L123:
 2639 0084 00000000 		.word	0
 2640              		.cfi_endproc
 2641              	.LFE53:
 2643              		.global	__aeabi_dsub
 2644              		.section	.text.inv_matrix_detd,"ax",%progbits
 2645              		.align	1
 2646              		.global	inv_matrix_detd
 2647              		.syntax unified
 2648              		.thumb
 2649              		.thumb_func
 2651              	inv_matrix_detd:
 2652              	.LVL226:
 2653              	.LFB54:
 544:DMP/mllite/ml_math_func.c ****     double d[6][6], sum = 0;
 2654              		.loc 1 544 1 is_stmt 1 view -0
 2655              		.cfi_startproc
 2656              		@ args = 0, pretend = 0, frame = 288
 2657              		@ frame_needed = 0, uses_anonymous_args = 0
 544:DMP/mllite/ml_math_func.c ****     double d[6][6], sum = 0;
 2658              		.loc 1 544 1 is_stmt 0 view .LVU792
 2659 0000 2DE9F043 		push	{r4, r5, r6, r7, r8, r9, lr}
 2660              	.LCFI35:
 2661              		.cfi_def_cfa_offset 28
 2662              		.cfi_offset 4, -28
 2663              		.cfi_offset 5, -24
 2664              		.cfi_offset 6, -20
 2665              		.cfi_offset 7, -16
 2666              		.cfi_offset 8, -12
 2667              		.cfi_offset 9, -8
 2668              		.cfi_offset 14, -4
 2669 0004 2DED028B 		vpush.64	{d8}
 2670              	.LCFI36:
 2671              		.cfi_def_cfa_offset 36
 2672              		.cfi_offset 80, -36
 2673              		.cfi_offset 81, -32
 2674 0008 CBB0     		sub	sp, sp, #300
 2675              	.LCFI37:
 2676              		.cfi_def_cfa_offset 336
 2677 000a 0646     		mov	r6, r0
ARM GAS  /var/folders/21/t9g5rlb91ys800n5npymflf80000gn/T//cc5g3ium.s 			page 72


 545:DMP/mllite/ml_math_func.c ****     int i, j, m;
 2678              		.loc 1 545 5 is_stmt 1 view .LVU793
 2679              	.LVL227:
 546:DMP/mllite/ml_math_func.c ****     m = *n;
 2680              		.loc 1 546 5 view .LVU794
 547:DMP/mllite/ml_math_func.c ****     if (*n == 2)
 2681              		.loc 1 547 5 view .LVU795
 547:DMP/mllite/ml_math_func.c ****     if (*n == 2)
 2682              		.loc 1 547 7 is_stmt 0 view .LVU796
 2683 000c 0F68     		ldr	r7, [r1]
 2684              	.LVL228:
 548:DMP/mllite/ml_math_func.c ****         return (*p ** (p + 7) - *(p + 1) ** (p + 6));
 2685              		.loc 1 548 5 is_stmt 1 view .LVU797
 548:DMP/mllite/ml_math_func.c ****         return (*p ** (p + 7) - *(p + 1) ** (p + 6));
 2686              		.loc 1 548 8 is_stmt 0 view .LVU798
 2687 000e 022F     		cmp	r7, #2
 2688 0010 2ED0     		beq	.L133
 2689 0012 0D46     		mov	r5, r1
 550:DMP/mllite/ml_math_func.c ****         *n = m;
 2690              		.loc 1 550 19 view .LVU799
 2691 0014 0024     		movs	r4, #0
 545:DMP/mllite/ml_math_func.c ****     int i, j, m;
 2692              		.loc 1 545 21 view .LVU800
 2693 0016 9FED288B 		vldr.64	d8, .L134
 2694              	.LVL229:
 2695              	.L126:
 550:DMP/mllite/ml_math_func.c ****         *n = m;
 2696              		.loc 1 550 26 is_stmt 1 discriminator 2 view .LVU801
 2697 001a BC42     		cmp	r4, r7
 2698 001c 3EDA     		bge	.L125
 551:DMP/mllite/ml_math_func.c ****         inv_matrix_det_incd(p, &d[0][0], n, i, j);
 2699              		.loc 1 551 9 view .LVU802
 551:DMP/mllite/ml_math_func.c ****         inv_matrix_det_incd(p, &d[0][0], n, i, j);
 2700              		.loc 1 551 12 is_stmt 0 view .LVU803
 2701 001e 2F60     		str	r7, [r5]
 552:DMP/mllite/ml_math_func.c ****         sum =
 2702              		.loc 1 552 9 is_stmt 1 view .LVU804
 2703 0020 0094     		str	r4, [sp]
 2704 0022 0023     		movs	r3, #0
 2705 0024 2A46     		mov	r2, r5
 2706 0026 02A9     		add	r1, sp, #8
 2707 0028 3046     		mov	r0, r6
 2708 002a FFF7FEFF 		bl	inv_matrix_det_incd
 2709              	.LVL230:
 553:DMP/mllite/ml_math_func.c ****             sum + *(p + 6 * i + j) * SIGNM(i +
 2710              		.loc 1 553 9 view .LVU805
 554:DMP/mllite/ml_math_func.c ****                                             j) *
 2711              		.loc 1 554 31 is_stmt 0 view .LVU806
 2712 002e 06EBC403 		add	r3, r6, r4, lsl #3
 554:DMP/mllite/ml_math_func.c ****                                             j) *
 2713              		.loc 1 554 19 view .LVU807
 2714 0032 D3E90001 		ldrd	r0, [r3]
 554:DMP/mllite/ml_math_func.c ****                                             j) *
 2715              		.loc 1 554 36 view .LVU808
 2716 0036 14F0010F 		tst	r4, #1
 2717 003a 38D0     		beq	.L131
 2718 003c 0022     		movs	r2, #0
ARM GAS  /var/folders/21/t9g5rlb91ys800n5npymflf80000gn/T//cc5g3ium.s 			page 73


 2719 003e 204B     		ldr	r3, .L134+8
 2720              	.L128:
 554:DMP/mllite/ml_math_func.c ****                                             j) *
 2721              		.loc 1 554 36 discriminator 4 view .LVU809
 2722 0040 FFF7FEFF 		bl	__aeabi_dmul
 2723              	.LVL231:
 2724 0044 8046     		mov	r8, r0
 2725 0046 8946     		mov	r9, r1
 556:DMP/mllite/ml_math_func.c ****     }
 2726              		.loc 1 556 13 discriminator 4 view .LVU810
 2727 0048 2946     		mov	r1, r5
 2728 004a 02A8     		add	r0, sp, #8
 2729 004c FFF7FEFF 		bl	inv_matrix_detd
 2730              	.LVL232:
 2731 0050 53EC102B 		vmov	r2, r3, d0
 555:DMP/mllite/ml_math_func.c ****             inv_matrix_detd(&d[0][0], n);
 2732              		.loc 1 555 48 discriminator 4 view .LVU811
 2733 0054 4046     		mov	r0, r8
 2734 0056 4946     		mov	r1, r9
 2735 0058 FFF7FEFF 		bl	__aeabi_dmul
 2736              	.LVL233:
 2737 005c 0246     		mov	r2, r0
 2738 005e 0B46     		mov	r3, r1
 553:DMP/mllite/ml_math_func.c ****             sum + *(p + 6 * i + j) * SIGNM(i +
 2739              		.loc 1 553 13 discriminator 4 view .LVU812
 2740 0060 51EC180B 		vmov	r0, r1, d8
 2741 0064 FFF7FEFF 		bl	__aeabi_dadd
 2742              	.LVL234:
 2743 0068 41EC180B 		vmov	d8, r0, r1
 2744              	.LVL235:
 550:DMP/mllite/ml_math_func.c ****         *n = m;
 2745              		.loc 1 550 32 is_stmt 1 discriminator 4 view .LVU813
 2746 006c 0134     		adds	r4, r4, #1
 2747              	.LVL236:
 550:DMP/mllite/ml_math_func.c ****         *n = m;
 2748              		.loc 1 550 32 is_stmt 0 discriminator 4 view .LVU814
 2749 006e D4E7     		b	.L126
 2750              	.LVL237:
 2751              	.L133:
 549:DMP/mllite/ml_math_func.c ****     for (i = 0, j = 0; j < m; j++) {
 2752              		.loc 1 549 9 is_stmt 1 view .LVU815
 549:DMP/mllite/ml_math_func.c ****     for (i = 0, j = 0; j < m; j++) {
 2753              		.loc 1 549 20 is_stmt 0 view .LVU816
 2754 0070 D0E90E23 		ldrd	r2, [r0, #56]
 2755 0074 D0E90001 		ldrd	r0, [r0]
 2756              	.LVL238:
 549:DMP/mllite/ml_math_func.c ****     for (i = 0, j = 0; j < m; j++) {
 2757              		.loc 1 549 20 view .LVU817
 2758 0078 FFF7FEFF 		bl	__aeabi_dmul
 2759              	.LVL239:
 549:DMP/mllite/ml_math_func.c ****     for (i = 0, j = 0; j < m; j++) {
 2760              		.loc 1 549 20 view .LVU818
 2761 007c 0446     		mov	r4, r0
 2762 007e 0D46     		mov	r5, r1
 549:DMP/mllite/ml_math_func.c ****     for (i = 0, j = 0; j < m; j++) {
 2763              		.loc 1 549 42 view .LVU819
 2764 0080 D6E90C23 		ldrd	r2, [r6, #48]
ARM GAS  /var/folders/21/t9g5rlb91ys800n5npymflf80000gn/T//cc5g3ium.s 			page 74


 2765 0084 D6E90201 		ldrd	r0, [r6, #8]
 2766 0088 FFF7FEFF 		bl	__aeabi_dmul
 2767              	.LVL240:
 2768 008c 0246     		mov	r2, r0
 2769 008e 0B46     		mov	r3, r1
 549:DMP/mllite/ml_math_func.c ****     for (i = 0, j = 0; j < m; j++) {
 2770              		.loc 1 549 31 view .LVU820
 2771 0090 2046     		mov	r0, r4
 2772 0092 2946     		mov	r1, r5
 2773 0094 FFF7FEFF 		bl	__aeabi_dsub
 2774              	.LVL241:
 2775 0098 41EC180B 		vmov	d8, r0, r1
 2776              	.LVL242:
 2777              	.L125:
 560:DMP/mllite/ml_math_func.c **** 
 2778              		.loc 1 560 1 view .LVU821
 2779 009c B0EE480A 		vmov.f32	s0, s16
 2780 00a0 F0EE680A 		vmov.f32	s1, s17
 2781 00a4 4BB0     		add	sp, sp, #300
 2782              	.LCFI38:
 2783              		.cfi_remember_state
 2784              		.cfi_def_cfa_offset 36
 2785              		@ sp needed
 2786 00a6 BDEC028B 		vldm	sp!, {d8}
 2787              	.LCFI39:
 2788              		.cfi_restore 80
 2789              		.cfi_restore 81
 2790              		.cfi_def_cfa_offset 28
 2791 00aa BDE8F083 		pop	{r4, r5, r6, r7, r8, r9, pc}
 2792              	.LVL243:
 2793              	.L131:
 2794              	.LCFI40:
 2795              		.cfi_restore_state
 554:DMP/mllite/ml_math_func.c ****                                             j) *
 2796              		.loc 1 554 36 view .LVU822
 2797 00ae 0022     		movs	r2, #0
 2798 00b0 044B     		ldr	r3, .L134+12
 2799 00b2 C5E7     		b	.L128
 2800              	.L135:
 2801 00b4 AFF30080 		.align	3
 2802              	.L134:
 2803 00b8 00000000 		.word	0
 2804 00bc 00000000 		.word	0
 2805 00c0 0000F0BF 		.word	-1074790400
 2806 00c4 0000F03F 		.word	1072693248
 2807              		.cfi_endproc
 2808              	.LFE54:
 2810              		.global	__aeabi_f2d
 2811              		.section	.text.inv_wrap_angle,"ax",%progbits
 2812              		.align	1
 2813              		.global	inv_wrap_angle
 2814              		.syntax unified
 2815              		.thumb
 2816              		.thumb_func
 2818              	inv_wrap_angle:
 2819              	.LVL244:
 2820              	.LFB55:
ARM GAS  /var/folders/21/t9g5rlb91ys800n5npymflf80000gn/T//cc5g3ium.s 			page 75


 567:DMP/mllite/ml_math_func.c ****     if (ang > M_PI)
 2821              		.loc 1 567 1 is_stmt 1 view -0
 2822              		.cfi_startproc
 2823              		@ args = 0, pretend = 0, frame = 0
 2824              		@ frame_needed = 0, uses_anonymous_args = 0
 567:DMP/mllite/ml_math_func.c ****     if (ang > M_PI)
 2825              		.loc 1 567 1 is_stmt 0 view .LVU824
 2826 0000 08B5     		push	{r3, lr}
 2827              	.LCFI41:
 2828              		.cfi_def_cfa_offset 8
 2829              		.cfi_offset 3, -8
 2830              		.cfi_offset 14, -4
 2831 0002 2DED028B 		vpush.64	{d8}
 2832              	.LCFI42:
 2833              		.cfi_def_cfa_offset 16
 2834              		.cfi_offset 80, -16
 2835              		.cfi_offset 81, -12
 2836 0006 B0EE408A 		vmov.f32	s16, s0
 568:DMP/mllite/ml_math_func.c ****         return ang - 2 * (float)M_PI;
 2837              		.loc 1 568 5 is_stmt 1 view .LVU825
 568:DMP/mllite/ml_math_func.c ****         return ang - 2 * (float)M_PI;
 2838              		.loc 1 568 13 is_stmt 0 view .LVU826
 2839 000a 10EE100A 		vmov	r0, s0
 2840 000e FFF7FEFF 		bl	__aeabi_f2d
 2841              	.LVL245:
 568:DMP/mllite/ml_math_func.c ****         return ang - 2 * (float)M_PI;
 2842              		.loc 1 568 8 view .LVU827
 2843 0012 11A3     		adr	r3, .L148+8
 2844 0014 D3E90023 		ldrd	r2, [r3]
 2845 0018 FFF7FEFF 		bl	__aeabi_dcmpgt
 2846              	.LVL246:
 2847 001c 58B9     		cbnz	r0, .L147
 570:DMP/mllite/ml_math_func.c ****         return ang + 2 * (float)M_PI;
 2848              		.loc 1 570 10 is_stmt 1 view .LVU828
 570:DMP/mllite/ml_math_func.c ****         return ang + 2 * (float)M_PI;
 2849              		.loc 1 570 13 is_stmt 0 view .LVU829
 2850 001e DFED0C7A 		vldr.32	s15, .L148
 2851 0022 B4EEE78A 		vcmpe.f32	s16, s15
 2852 0026 F1EE10FA 		vmrs	APSR_nzcv, FPSCR
 2853 002a 0BD8     		bhi	.L145
 571:DMP/mllite/ml_math_func.c ****     else
 2854              		.loc 1 571 9 is_stmt 1 view .LVU830
 571:DMP/mllite/ml_math_func.c ****     else
 2855              		.loc 1 571 20 is_stmt 0 view .LVU831
 2856 002c DFED097A 		vldr.32	s15, .L148+4
 2857 0030 38EE270A 		vadd.f32	s0, s16, s15
 2858 0034 03E0     		b	.L136
 2859              	.L147:
 569:DMP/mllite/ml_math_func.c ****     else if (ang <= -(float)M_PI)
 2860              		.loc 1 569 9 is_stmt 1 view .LVU832
 569:DMP/mllite/ml_math_func.c ****     else if (ang <= -(float)M_PI)
 2861              		.loc 1 569 20 is_stmt 0 view .LVU833
 2862 0036 DFED077A 		vldr.32	s15, .L148+4
 2863 003a 38EE670A 		vsub.f32	s0, s16, s15
 2864              	.L136:
 574:DMP/mllite/ml_math_func.c **** 
 2865              		.loc 1 574 1 view .LVU834
ARM GAS  /var/folders/21/t9g5rlb91ys800n5npymflf80000gn/T//cc5g3ium.s 			page 76


 2866 003e BDEC028B 		vldm	sp!, {d8}
 2867              	.LCFI43:
 2868              		.cfi_remember_state
 2869              		.cfi_restore 80
 2870              		.cfi_restore 81
 2871              		.cfi_def_cfa_offset 8
 2872              	.LVL247:
 574:DMP/mllite/ml_math_func.c **** 
 2873              		.loc 1 574 1 view .LVU835
 2874 0042 08BD     		pop	{r3, pc}
 2875              	.LVL248:
 2876              	.L145:
 2877              	.LCFI44:
 2878              		.cfi_restore_state
 573:DMP/mllite/ml_math_func.c **** }
 2879              		.loc 1 573 16 view .LVU836
 2880 0044 B0EE480A 		vmov.f32	s0, s16
 2881 0048 F9E7     		b	.L136
 2882              	.L149:
 2883 004a 00BFAFF3 		.align	3
 2883      0080
 2884              	.L148:
 2885 0050 DB0F49C0 		.word	-1068953637
 2886 0054 DB0FC940 		.word	1086918619
 2887 0058 182D4454 		.word	1413754136
 2888 005c FB210940 		.word	1074340347
 2889              		.cfi_endproc
 2890              	.LFE55:
 2892              		.section	.text.inv_angle_diff,"ax",%progbits
 2893              		.align	1
 2894              		.global	inv_angle_diff
 2895              		.syntax unified
 2896              		.thumb
 2897              		.thumb_func
 2899              	inv_angle_diff:
 2900              	.LVL249:
 2901              	.LFB56:
 583:DMP/mllite/ml_math_func.c ****     float d;
 2902              		.loc 1 583 1 is_stmt 1 view -0
 2903              		.cfi_startproc
 2904              		@ args = 0, pretend = 0, frame = 0
 2905              		@ frame_needed = 0, uses_anonymous_args = 0
 583:DMP/mllite/ml_math_func.c ****     float d;
 2906              		.loc 1 583 1 is_stmt 0 view .LVU838
 2907 0000 08B5     		push	{r3, lr}
 2908              	.LCFI45:
 2909              		.cfi_def_cfa_offset 8
 2910              		.cfi_offset 3, -8
 2911              		.cfi_offset 14, -4
 2912 0002 2DED028B 		vpush.64	{d8}
 2913              	.LCFI46:
 2914              		.cfi_def_cfa_offset 16
 2915              		.cfi_offset 80, -16
 2916              		.cfi_offset 81, -12
 2917 0006 F0EE608A 		vmov.f32	s17, s1
 584:DMP/mllite/ml_math_func.c ****     ang1 = inv_wrap_angle(ang1);
 2918              		.loc 1 584 5 is_stmt 1 view .LVU839
ARM GAS  /var/folders/21/t9g5rlb91ys800n5npymflf80000gn/T//cc5g3ium.s 			page 77


 585:DMP/mllite/ml_math_func.c ****     ang2 = inv_wrap_angle(ang2);
 2919              		.loc 1 585 5 view .LVU840
 585:DMP/mllite/ml_math_func.c ****     ang2 = inv_wrap_angle(ang2);
 2920              		.loc 1 585 12 is_stmt 0 view .LVU841
 2921 000a FFF7FEFF 		bl	inv_wrap_angle
 2922              	.LVL250:
 585:DMP/mllite/ml_math_func.c ****     ang2 = inv_wrap_angle(ang2);
 2923              		.loc 1 585 12 view .LVU842
 2924 000e B0EE408A 		vmov.f32	s16, s0
 2925              	.LVL251:
 586:DMP/mllite/ml_math_func.c ****     d = ang1 - ang2;
 2926              		.loc 1 586 5 is_stmt 1 view .LVU843
 586:DMP/mllite/ml_math_func.c ****     d = ang1 - ang2;
 2927              		.loc 1 586 12 is_stmt 0 view .LVU844
 2928 0012 B0EE680A 		vmov.f32	s0, s17
 2929              	.LVL252:
 586:DMP/mllite/ml_math_func.c ****     d = ang1 - ang2;
 2930              		.loc 1 586 12 view .LVU845
 2931 0016 FFF7FEFF 		bl	inv_wrap_angle
 2932              	.LVL253:
 587:DMP/mllite/ml_math_func.c ****     if (d > M_PI)
 2933              		.loc 1 587 5 is_stmt 1 view .LVU846
 587:DMP/mllite/ml_math_func.c ****     if (d > M_PI)
 2934              		.loc 1 587 7 is_stmt 0 view .LVU847
 2935 001a 38EE408A 		vsub.f32	s16, s16, s0
 2936              	.LVL254:
 588:DMP/mllite/ml_math_func.c ****         d -= 2 * (float)M_PI;
 2937              		.loc 1 588 5 is_stmt 1 view .LVU848
 588:DMP/mllite/ml_math_func.c ****         d -= 2 * (float)M_PI;
 2938              		.loc 1 588 11 is_stmt 0 view .LVU849
 2939 001e 18EE100A 		vmov	r0, s16
 2940 0022 FFF7FEFF 		bl	__aeabi_f2d
 2941              	.LVL255:
 588:DMP/mllite/ml_math_func.c ****         d -= 2 * (float)M_PI;
 2942              		.loc 1 588 8 view .LVU850
 2943 0026 10A3     		adr	r3, .L159+8
 2944 0028 D3E90023 		ldrd	r2, [r3]
 2945 002c FFF7FEFF 		bl	__aeabi_dcmpgt
 2946              	.LVL256:
 2947 0030 40B1     		cbz	r0, .L157
 589:DMP/mllite/ml_math_func.c ****     else if (d < -(float)M_PI)
 2948              		.loc 1 589 9 is_stmt 1 view .LVU851
 589:DMP/mllite/ml_math_func.c ****     else if (d < -(float)M_PI)
 2949              		.loc 1 589 11 is_stmt 0 view .LVU852
 2950 0032 DFED0B7A 		vldr.32	s15, .L159
 2951 0036 38EE678A 		vsub.f32	s16, s16, s15
 2952              	.LVL257:
 2953              	.L150:
 593:DMP/mllite/ml_math_func.c **** 
 2954              		.loc 1 593 1 view .LVU853
 2955 003a B0EE480A 		vmov.f32	s0, s16
 2956 003e BDEC028B 		vldm	sp!, {d8}
 2957              	.LCFI47:
 2958              		.cfi_remember_state
 2959              		.cfi_restore 80
 2960              		.cfi_restore 81
 2961              		.cfi_def_cfa_offset 8
ARM GAS  /var/folders/21/t9g5rlb91ys800n5npymflf80000gn/T//cc5g3ium.s 			page 78


 2962              	.LVL258:
 593:DMP/mllite/ml_math_func.c **** 
 2963              		.loc 1 593 1 view .LVU854
 2964 0042 08BD     		pop	{r3, pc}
 2965              	.LVL259:
 2966              	.L157:
 2967              	.LCFI48:
 2968              		.cfi_restore_state
 590:DMP/mllite/ml_math_func.c ****         d += 2 * (float)M_PI;
 2969              		.loc 1 590 10 is_stmt 1 view .LVU855
 590:DMP/mllite/ml_math_func.c ****         d += 2 * (float)M_PI;
 2970              		.loc 1 590 13 is_stmt 0 view .LVU856
 2971 0044 DFED077A 		vldr.32	s15, .L159+4
 2972 0048 B4EEE78A 		vcmpe.f32	s16, s15
 2973 004c F1EE10FA 		vmrs	APSR_nzcv, FPSCR
 2974 0050 F3D5     		bpl	.L150
 591:DMP/mllite/ml_math_func.c ****     return d;
 2975              		.loc 1 591 9 is_stmt 1 view .LVU857
 591:DMP/mllite/ml_math_func.c ****     return d;
 2976              		.loc 1 591 11 is_stmt 0 view .LVU858
 2977 0052 DFED037A 		vldr.32	s15, .L159
 2978 0056 38EE278A 		vadd.f32	s16, s16, s15
 2979              	.LVL260:
 592:DMP/mllite/ml_math_func.c **** }
 2980              		.loc 1 592 5 is_stmt 1 view .LVU859
 592:DMP/mllite/ml_math_func.c **** }
 2981              		.loc 1 592 12 is_stmt 0 view .LVU860
 2982 005a EEE7     		b	.L150
 2983              	.L160:
 2984 005c AFF30080 		.align	3
 2985              	.L159:
 2986 0060 DB0FC940 		.word	1086918619
 2987 0064 DB0F49C0 		.word	-1068953637
 2988 0068 182D4454 		.word	1413754136
 2989 006c FB210940 		.word	1074340347
 2990              		.cfi_endproc
 2991              	.LFE56:
 2993              		.section	.text.inv_checksum,"ax",%progbits
 2994              		.align	1
 2995              		.global	inv_checksum
 2996              		.syntax unified
 2997              		.thumb
 2998              		.thumb_func
 3000              	inv_checksum:
 3001              	.LVL261:
 3002              	.LFB57:
 597:DMP/mllite/ml_math_func.c ****     uint32_t hash = 5381;
 3003              		.loc 1 597 1 is_stmt 1 view -0
 3004              		.cfi_startproc
 3005              		@ args = 0, pretend = 0, frame = 0
 3006              		@ frame_needed = 0, uses_anonymous_args = 0
 3007              		@ link register save eliminated.
 597:DMP/mllite/ml_math_func.c ****     uint32_t hash = 5381;
 3008              		.loc 1 597 1 is_stmt 0 view .LVU862
 3009 0000 8446     		mov	ip, r0
 598:DMP/mllite/ml_math_func.c ****     int i, c;
 3010              		.loc 1 598 5 is_stmt 1 view .LVU863
ARM GAS  /var/folders/21/t9g5rlb91ys800n5npymflf80000gn/T//cc5g3ium.s 			page 79


 3011              	.LVL262:
 599:DMP/mllite/ml_math_func.c **** 
 3012              		.loc 1 599 5 view .LVU864
 601:DMP/mllite/ml_math_func.c ****         c = *(str + i);
 3013              		.loc 1 601 5 view .LVU865
 601:DMP/mllite/ml_math_func.c ****         c = *(str + i);
 3014              		.loc 1 601 12 is_stmt 0 view .LVU866
 3015 0002 0023     		movs	r3, #0
 598:DMP/mllite/ml_math_func.c ****     int i, c;
 3016              		.loc 1 598 14 view .LVU867
 3017 0004 41F20550 		movw	r0, #5381
 3018              	.LVL263:
 601:DMP/mllite/ml_math_func.c ****         c = *(str + i);
 3019              		.loc 1 601 5 view .LVU868
 3020 0008 05E0     		b	.L162
 3021              	.LVL264:
 3022              	.L163:
 602:DMP/mllite/ml_math_func.c ****         hash = ((hash << 5) + hash) + c;	/* hash * 33 + c */
 3023              		.loc 1 602 9 is_stmt 1 discriminator 3 view .LVU869
 602:DMP/mllite/ml_math_func.c ****         hash = ((hash << 5) + hash) + c;	/* hash * 33 + c */
 3024              		.loc 1 602 13 is_stmt 0 discriminator 3 view .LVU870
 3025 000a 1CF80320 		ldrb	r2, [ip, r3]	@ zero_extendqisi2
 3026              	.LVL265:
 603:DMP/mllite/ml_math_func.c ****     }
 3027              		.loc 1 603 9 is_stmt 1 discriminator 3 view .LVU871
 3028 000e 00EB4010 		add	r0, r0, r0, lsl #5
 3029              	.LVL266:
 603:DMP/mllite/ml_math_func.c ****     }
 3030              		.loc 1 603 14 is_stmt 0 discriminator 3 view .LVU872
 3031 0012 1044     		add	r0, r0, r2
 3032              	.LVL267:
 601:DMP/mllite/ml_math_func.c ****         c = *(str + i);
 3033              		.loc 1 601 27 is_stmt 1 discriminator 3 view .LVU873
 3034 0014 0133     		adds	r3, r3, #1
 3035              	.LVL268:
 3036              	.L162:
 601:DMP/mllite/ml_math_func.c ****         c = *(str + i);
 3037              		.loc 1 601 19 discriminator 1 view .LVU874
 3038 0016 8B42     		cmp	r3, r1
 3039 0018 F7DB     		blt	.L163
 606:DMP/mllite/ml_math_func.c **** }
 3040              		.loc 1 606 5 view .LVU875
 607:DMP/mllite/ml_math_func.c **** 
 3041              		.loc 1 607 1 is_stmt 0 view .LVU876
 3042 001a 7047     		bx	lr
 3043              		.cfi_endproc
 3044              	.LFE57:
 3046              		.section	.text.inv_orientation_matrix_to_scalar,"ax",%progbits
 3047              		.align	1
 3048              		.global	inv_orientation_matrix_to_scalar
 3049              		.syntax unified
 3050              		.thumb
 3051              		.thumb_func
 3053              	inv_orientation_matrix_to_scalar:
 3054              	.LVL269:
 3055              	.LFB59:
 629:DMP/mllite/ml_math_func.c **** 
ARM GAS  /var/folders/21/t9g5rlb91ys800n5npymflf80000gn/T//cc5g3ium.s 			page 80


 630:DMP/mllite/ml_math_func.c **** 
 631:DMP/mllite/ml_math_func.c **** /** Converts an orientation matrix made up of 0,+1,and -1 to a scalar representation.
 632:DMP/mllite/ml_math_func.c **** * @param[in] mtx Orientation matrix to convert to a scalar.
 633:DMP/mllite/ml_math_func.c **** * @return Description of orientation matrix. The lowest 2 bits (0 and 1) represent the column the o
 634:DMP/mllite/ml_math_func.c **** * first row, with the bit number 2 being the sign. The next 2 bits (3 and 4) represent
 635:DMP/mllite/ml_math_func.c **** * the column the one is on for the second row with bit number 5 being the sign.
 636:DMP/mllite/ml_math_func.c **** * The next 2 bits (6 and 7) represent the column the one is on for the third row with
 637:DMP/mllite/ml_math_func.c **** * bit number 8 being the sign. In binary the identity matrix would therefor be:
 638:DMP/mllite/ml_math_func.c **** * 010_001_000 or 0x88 in hex.
 639:DMP/mllite/ml_math_func.c **** */
 640:DMP/mllite/ml_math_func.c **** unsigned short inv_orientation_matrix_to_scalar(const signed char *mtx)
 641:DMP/mllite/ml_math_func.c **** {
 3056              		.loc 1 641 1 is_stmt 1 view -0
 3057              		.cfi_startproc
 3058              		@ args = 0, pretend = 0, frame = 0
 3059              		@ frame_needed = 0, uses_anonymous_args = 0
 3060              		.loc 1 641 1 is_stmt 0 view .LVU878
 3061 0000 38B5     		push	{r3, r4, r5, lr}
 3062              	.LCFI49:
 3063              		.cfi_def_cfa_offset 16
 3064              		.cfi_offset 3, -16
 3065              		.cfi_offset 4, -12
 3066              		.cfi_offset 5, -8
 3067              		.cfi_offset 14, -4
 3068 0002 0546     		mov	r5, r0
 642:DMP/mllite/ml_math_func.c **** 
 643:DMP/mllite/ml_math_func.c ****     unsigned short scalar;
 3069              		.loc 1 643 5 is_stmt 1 view .LVU879
 644:DMP/mllite/ml_math_func.c **** 
 645:DMP/mllite/ml_math_func.c ****     /*
 646:DMP/mllite/ml_math_func.c ****        XYZ  010_001_000 Identity Matrix
 647:DMP/mllite/ml_math_func.c ****        XZY  001_010_000
 648:DMP/mllite/ml_math_func.c ****        YXZ  010_000_001
 649:DMP/mllite/ml_math_func.c ****        YZX  000_010_001
 650:DMP/mllite/ml_math_func.c ****        ZXY  001_000_010
 651:DMP/mllite/ml_math_func.c ****        ZYX  000_001_010
 652:DMP/mllite/ml_math_func.c ****      */
 653:DMP/mllite/ml_math_func.c **** 
 654:DMP/mllite/ml_math_func.c ****     scalar = inv_row_2_scale(mtx);
 3070              		.loc 1 654 5 view .LVU880
 3071              		.loc 1 654 14 is_stmt 0 view .LVU881
 3072 0004 FFF7FEFF 		bl	inv_row_2_scale
 3073              	.LVL270:
 3074              		.loc 1 654 14 view .LVU882
 3075 0008 0446     		mov	r4, r0
 3076              	.LVL271:
 655:DMP/mllite/ml_math_func.c ****     scalar |= inv_row_2_scale(mtx + 3) << 3;
 3077              		.loc 1 655 5 is_stmt 1 view .LVU883
 3078              		.loc 1 655 15 is_stmt 0 view .LVU884
 3079 000a E81C     		adds	r0, r5, #3
 3080 000c FFF7FEFF 		bl	inv_row_2_scale
 3081              	.LVL272:
 3082              		.loc 1 655 12 view .LVU885
 3083 0010 44EAC004 		orr	r4, r4, r0, lsl #3
 3084              	.LVL273:
 3085              		.loc 1 655 12 view .LVU886
 3086 0014 24B2     		sxth	r4, r4
ARM GAS  /var/folders/21/t9g5rlb91ys800n5npymflf80000gn/T//cc5g3ium.s 			page 81


 3087              	.LVL274:
 656:DMP/mllite/ml_math_func.c ****     scalar |= inv_row_2_scale(mtx + 6) << 6;
 3088              		.loc 1 656 5 is_stmt 1 view .LVU887
 3089              		.loc 1 656 15 is_stmt 0 view .LVU888
 3090 0016 A81D     		adds	r0, r5, #6
 3091 0018 FFF7FEFF 		bl	inv_row_2_scale
 3092              	.LVL275:
 3093              		.loc 1 656 12 view .LVU889
 3094 001c 44EA8010 		orr	r0, r4, r0, lsl #6
 3095              	.LVL276:
 657:DMP/mllite/ml_math_func.c **** 
 658:DMP/mllite/ml_math_func.c **** 
 659:DMP/mllite/ml_math_func.c ****     return scalar;
 3096              		.loc 1 659 5 is_stmt 1 view .LVU890
 660:DMP/mllite/ml_math_func.c **** }
 3097              		.loc 1 660 1 is_stmt 0 view .LVU891
 3098 0020 80B2     		uxth	r0, r0
 3099              		.loc 1 660 1 view .LVU892
 3100 0022 38BD     		pop	{r3, r4, r5, pc}
 3101              		.loc 1 660 1 view .LVU893
 3102              		.cfi_endproc
 3103              	.LFE59:
 3105              		.section	.text.inv_convert_to_body,"ax",%progbits
 3106              		.align	1
 3107              		.global	inv_convert_to_body
 3108              		.syntax unified
 3109              		.thumb
 3110              		.thumb_func
 3112              	inv_convert_to_body:
 3113              	.LVL277:
 3114              	.LFB60:
 661:DMP/mllite/ml_math_func.c **** 
 662:DMP/mllite/ml_math_func.c **** /** Uses the scalar orientation value to convert from chip frame to body frame
 663:DMP/mllite/ml_math_func.c **** * @param[in] orientation A scalar that represent how to go from chip to body frame
 664:DMP/mllite/ml_math_func.c **** * @param[in] input Input vector, length 3
 665:DMP/mllite/ml_math_func.c **** * @param[out] output Output vector, length 3
 666:DMP/mllite/ml_math_func.c **** */
 667:DMP/mllite/ml_math_func.c **** void inv_convert_to_body(unsigned short orientation, const long *input, long *output)
 668:DMP/mllite/ml_math_func.c **** {
 3115              		.loc 1 668 1 is_stmt 1 view -0
 3116              		.cfi_startproc
 3117              		@ args = 0, pretend = 0, frame = 0
 3118              		@ frame_needed = 0, uses_anonymous_args = 0
 3119              		@ link register save eliminated.
 669:DMP/mllite/ml_math_func.c ****     output[0] = input[orientation      & 0x03] * SIGNSET(orientation & 0x004);
 3120              		.loc 1 669 5 view .LVU895
 3121              		.loc 1 669 40 is_stmt 0 view .LVU896
 3122 0000 00F00303 		and	r3, r0, #3
 3123              		.loc 1 669 22 view .LVU897
 3124 0004 51F82330 		ldr	r3, [r1, r3, lsl #2]
 3125              		.loc 1 669 50 view .LVU898
 3126 0008 10F0040F 		tst	r0, #4
 3127 000c 1DD0     		beq	.L170
 3128 000e 4FF0FF3C 		mov	ip, #-1
 3129              	.L167:
 3130              		.loc 1 669 48 discriminator 4 view .LVU899
 3131 0012 0CFB03F3 		mul	r3, ip, r3
ARM GAS  /var/folders/21/t9g5rlb91ys800n5npymflf80000gn/T//cc5g3ium.s 			page 82


 3132              		.loc 1 669 15 discriminator 4 view .LVU900
 3133 0016 1360     		str	r3, [r2]
 670:DMP/mllite/ml_math_func.c ****     output[1] = input[(orientation>>3) & 0x03] * SIGNSET(orientation & 0x020);
 3134              		.loc 1 670 5 is_stmt 1 discriminator 4 view .LVU901
 3135              		.loc 1 670 40 is_stmt 0 discriminator 4 view .LVU902
 3136 0018 C0F3C103 		ubfx	r3, r0, #3, #2
 3137              		.loc 1 670 22 discriminator 4 view .LVU903
 3138 001c 51F82330 		ldr	r3, [r1, r3, lsl #2]
 3139              		.loc 1 670 50 discriminator 4 view .LVU904
 3140 0020 10F0200F 		tst	r0, #32
 3141 0024 14D0     		beq	.L171
 3142              		.loc 1 670 50 view .LVU905
 3143 0026 4FF0FF3C 		mov	ip, #-1
 3144              	.L168:
 3145              		.loc 1 670 48 discriminator 4 view .LVU906
 3146 002a 0CFB03F3 		mul	r3, ip, r3
 3147              		.loc 1 670 15 discriminator 4 view .LVU907
 3148 002e 5360     		str	r3, [r2, #4]
 671:DMP/mllite/ml_math_func.c ****     output[2] = input[(orientation>>6) & 0x03] * SIGNSET(orientation & 0x100);
 3149              		.loc 1 671 5 is_stmt 1 discriminator 4 view .LVU908
 3150              		.loc 1 671 40 is_stmt 0 discriminator 4 view .LVU909
 3151 0030 C0F38113 		ubfx	r3, r0, #6, #2
 3152              		.loc 1 671 22 discriminator 4 view .LVU910
 3153 0034 51F82330 		ldr	r3, [r1, r3, lsl #2]
 3154              		.loc 1 671 50 discriminator 4 view .LVU911
 3155 0038 10F4807F 		tst	r0, #256
 3156 003c 0BD0     		beq	.L172
 3157              		.loc 1 671 50 view .LVU912
 3158 003e 4FF0FF31 		mov	r1, #-1
 3159              	.LVL278:
 3160              	.L169:
 3161              		.loc 1 671 48 discriminator 4 view .LVU913
 3162 0042 01FB03F3 		mul	r3, r1, r3
 3163              		.loc 1 671 15 discriminator 4 view .LVU914
 3164 0046 9360     		str	r3, [r2, #8]
 672:DMP/mllite/ml_math_func.c **** }
 3165              		.loc 1 672 1 discriminator 4 view .LVU915
 3166 0048 7047     		bx	lr
 3167              	.LVL279:
 3168              	.L170:
 669:DMP/mllite/ml_math_func.c ****     output[1] = input[(orientation>>3) & 0x03] * SIGNSET(orientation & 0x020);
 3169              		.loc 1 669 50 view .LVU916
 3170 004a 4FF0010C 		mov	ip, #1
 3171 004e E0E7     		b	.L167
 3172              	.L171:
 670:DMP/mllite/ml_math_func.c ****     output[2] = input[(orientation>>6) & 0x03] * SIGNSET(orientation & 0x100);
 3173              		.loc 1 670 50 view .LVU917
 3174 0050 4FF0010C 		mov	ip, #1
 3175 0054 E9E7     		b	.L168
 3176              	.L172:
 671:DMP/mllite/ml_math_func.c **** }
 3177              		.loc 1 671 50 view .LVU918
 3178 0056 0121     		movs	r1, #1
 3179              	.LVL280:
 671:DMP/mllite/ml_math_func.c **** }
 3180              		.loc 1 671 50 view .LVU919
 3181 0058 F3E7     		b	.L169
ARM GAS  /var/folders/21/t9g5rlb91ys800n5npymflf80000gn/T//cc5g3ium.s 			page 83


 3182              		.cfi_endproc
 3183              	.LFE60:
 3185              		.section	.text.inv_convert_to_chip,"ax",%progbits
 3186              		.align	1
 3187              		.global	inv_convert_to_chip
 3188              		.syntax unified
 3189              		.thumb
 3190              		.thumb_func
 3192              	inv_convert_to_chip:
 3193              	.LVL281:
 3194              	.LFB61:
 673:DMP/mllite/ml_math_func.c **** 
 674:DMP/mllite/ml_math_func.c **** /** Uses the scalar orientation value to convert from body frame to chip frame
 675:DMP/mllite/ml_math_func.c **** * @param[in] orientation A scalar that represent how to go from chip to body frame
 676:DMP/mllite/ml_math_func.c **** * @param[in] input Input vector, length 3
 677:DMP/mllite/ml_math_func.c **** * @param[out] output Output vector, length 3
 678:DMP/mllite/ml_math_func.c **** */
 679:DMP/mllite/ml_math_func.c **** void inv_convert_to_chip(unsigned short orientation, const long *input, long *output)
 680:DMP/mllite/ml_math_func.c **** {
 3195              		.loc 1 680 1 is_stmt 1 view -0
 3196              		.cfi_startproc
 3197              		@ args = 0, pretend = 0, frame = 0
 3198              		@ frame_needed = 0, uses_anonymous_args = 0
 3199              		.loc 1 680 1 is_stmt 0 view .LVU921
 3200 0000 00B5     		push	{lr}
 3201              	.LCFI50:
 3202              		.cfi_def_cfa_offset 4
 3203              		.cfi_offset 14, -4
 681:DMP/mllite/ml_math_func.c ****     output[orientation & 0x03]      = input[0] * SIGNSET(orientation & 0x004);
 3204              		.loc 1 681 5 is_stmt 1 view .LVU922
 3205              		.loc 1 681 44 is_stmt 0 view .LVU923
 3206 0002 0B68     		ldr	r3, [r1]
 3207              		.loc 1 681 50 view .LVU924
 3208 0004 10F0040F 		tst	r0, #4
 3209 0008 21D0     		beq	.L177
 3210 000a 4FF0FF3E 		mov	lr, #-1
 3211              	.L174:
 3212              		.loc 1 681 24 discriminator 4 view .LVU925
 3213 000e 00F0030C 		and	ip, r0, #3
 3214              		.loc 1 681 48 discriminator 4 view .LVU926
 3215 0012 0EFB03F3 		mul	r3, lr, r3
 3216              		.loc 1 681 37 discriminator 4 view .LVU927
 3217 0016 42F82C30 		str	r3, [r2, ip, lsl #2]
 682:DMP/mllite/ml_math_func.c ****     output[(orientation>>3) & 0x03] = input[1] * SIGNSET(orientation & 0x020);
 3218              		.loc 1 682 5 is_stmt 1 discriminator 4 view .LVU928
 3219              		.loc 1 682 44 is_stmt 0 discriminator 4 view .LVU929
 3220 001a 4B68     		ldr	r3, [r1, #4]
 3221              		.loc 1 682 50 discriminator 4 view .LVU930
 3222 001c 10F0200F 		tst	r0, #32
 3223 0020 18D0     		beq	.L178
 3224              		.loc 1 682 50 view .LVU931
 3225 0022 4FF0FF3E 		mov	lr, #-1
 3226              	.L175:
 3227              		.loc 1 682 29 discriminator 4 view .LVU932
 3228 0026 C0F3C10C 		ubfx	ip, r0, #3, #2
 3229              		.loc 1 682 48 discriminator 4 view .LVU933
 3230 002a 0EFB03F3 		mul	r3, lr, r3
ARM GAS  /var/folders/21/t9g5rlb91ys800n5npymflf80000gn/T//cc5g3ium.s 			page 84


 3231              		.loc 1 682 37 discriminator 4 view .LVU934
 3232 002e 42F82C30 		str	r3, [r2, ip, lsl #2]
 683:DMP/mllite/ml_math_func.c ****     output[(orientation>>6) & 0x03] = input[2] * SIGNSET(orientation & 0x100);
 3233              		.loc 1 683 5 is_stmt 1 discriminator 4 view .LVU935
 3234              		.loc 1 683 44 is_stmt 0 discriminator 4 view .LVU936
 3235 0032 8B68     		ldr	r3, [r1, #8]
 3236              		.loc 1 683 50 discriminator 4 view .LVU937
 3237 0034 10F4807F 		tst	r0, #256
 3238 0038 0FD0     		beq	.L179
 3239              		.loc 1 683 50 view .LVU938
 3240 003a 4FF0FF31 		mov	r1, #-1
 3241              	.LVL282:
 3242              	.L176:
 3243              		.loc 1 683 29 discriminator 4 view .LVU939
 3244 003e C0F38110 		ubfx	r0, r0, #6, #2
 3245              	.LVL283:
 3246              		.loc 1 683 48 discriminator 4 view .LVU940
 3247 0042 01FB03F3 		mul	r3, r1, r3
 3248              		.loc 1 683 37 discriminator 4 view .LVU941
 3249 0046 42F82030 		str	r3, [r2, r0, lsl #2]
 684:DMP/mllite/ml_math_func.c **** }
 3250              		.loc 1 684 1 discriminator 4 view .LVU942
 3251 004a 5DF804FB 		ldr	pc, [sp], #4
 3252              	.LVL284:
 3253              	.L177:
 681:DMP/mllite/ml_math_func.c ****     output[(orientation>>3) & 0x03] = input[1] * SIGNSET(orientation & 0x020);
 3254              		.loc 1 681 50 view .LVU943
 3255 004e 4FF0010E 		mov	lr, #1
 3256 0052 DCE7     		b	.L174
 3257              	.L178:
 682:DMP/mllite/ml_math_func.c ****     output[(orientation>>6) & 0x03] = input[2] * SIGNSET(orientation & 0x100);
 3258              		.loc 1 682 50 view .LVU944
 3259 0054 4FF0010E 		mov	lr, #1
 3260 0058 E5E7     		b	.L175
 3261              	.L179:
 683:DMP/mllite/ml_math_func.c **** }
 3262              		.loc 1 683 50 view .LVU945
 3263 005a 0121     		movs	r1, #1
 3264              	.LVL285:
 683:DMP/mllite/ml_math_func.c **** }
 3265              		.loc 1 683 50 view .LVU946
 3266 005c EFE7     		b	.L176
 3267              		.cfi_endproc
 3268              	.LFE61:
 3270              		.section	.text.inv_convert_to_body_with_scale,"ax",%progbits
 3271              		.align	1
 3272              		.global	inv_convert_to_body_with_scale
 3273              		.syntax unified
 3274              		.thumb
 3275              		.thumb_func
 3277              	inv_convert_to_body_with_scale:
 3278              	.LVL286:
 3279              	.LFB62:
 685:DMP/mllite/ml_math_func.c **** 
 686:DMP/mllite/ml_math_func.c **** 
 687:DMP/mllite/ml_math_func.c **** /** Uses the scalar orientation value to convert from chip frame to body frame and
 688:DMP/mllite/ml_math_func.c **** * apply appropriate scaling.
ARM GAS  /var/folders/21/t9g5rlb91ys800n5npymflf80000gn/T//cc5g3ium.s 			page 85


 689:DMP/mllite/ml_math_func.c **** * @param[in] orientation A scalar that represent how to go from chip to body frame
 690:DMP/mllite/ml_math_func.c **** * @param[in] sensitivity Sensitivity scale
 691:DMP/mllite/ml_math_func.c **** * @param[in] input Input vector, length 3
 692:DMP/mllite/ml_math_func.c **** * @param[out] output Output vector, length 3
 693:DMP/mllite/ml_math_func.c **** */
 694:DMP/mllite/ml_math_func.c **** void inv_convert_to_body_with_scale(unsigned short orientation, long sensitivity, const long *input
 695:DMP/mllite/ml_math_func.c **** {
 3280              		.loc 1 695 1 is_stmt 1 view -0
 3281              		.cfi_startproc
 3282              		@ args = 0, pretend = 0, frame = 0
 3283              		@ frame_needed = 0, uses_anonymous_args = 0
 3284              		.loc 1 695 1 is_stmt 0 view .LVU948
 3285 0000 F8B5     		push	{r3, r4, r5, r6, r7, lr}
 3286              	.LCFI51:
 3287              		.cfi_def_cfa_offset 24
 3288              		.cfi_offset 3, -24
 3289              		.cfi_offset 4, -20
 3290              		.cfi_offset 5, -16
 3291              		.cfi_offset 6, -12
 3292              		.cfi_offset 7, -8
 3293              		.cfi_offset 14, -4
 3294 0002 0446     		mov	r4, r0
 3295 0004 0E46     		mov	r6, r1
 3296 0006 1746     		mov	r7, r2
 3297 0008 1D46     		mov	r5, r3
 696:DMP/mllite/ml_math_func.c ****     output[0] = inv_q30_mult(input[orientation & 0x03] *
 3298              		.loc 1 696 5 is_stmt 1 view .LVU949
 3299              		.loc 1 696 48 is_stmt 0 view .LVU950
 3300 000a 00F00303 		and	r3, r0, #3
 3301              	.LVL287:
 3302              		.loc 1 696 35 view .LVU951
 3303 000e 52F82330 		ldr	r3, [r2, r3, lsl #2]
 697:DMP/mllite/ml_math_func.c ****                              SIGNSET(orientation & 0x004), sensitivity);
 3304              		.loc 1 697 30 view .LVU952
 3305 0012 10F0040F 		tst	r0, #4
 3306 0016 26D0     		beq	.L185
 3307 0018 4FF0FF30 		mov	r0, #-1
 3308              	.LVL288:
 3309              	.L182:
 696:DMP/mllite/ml_math_func.c ****     output[0] = inv_q30_mult(input[orientation & 0x03] *
 3310              		.loc 1 696 17 view .LVU953
 3311 001c 3146     		mov	r1, r6
 3312              	.LVL289:
 696:DMP/mllite/ml_math_func.c ****     output[0] = inv_q30_mult(input[orientation & 0x03] *
 3313              		.loc 1 696 17 view .LVU954
 3314 001e 03FB00F0 		mul	r0, r3, r0
 3315 0022 FFF7FEFF 		bl	inv_q30_mult
 3316              	.LVL290:
 696:DMP/mllite/ml_math_func.c ****     output[0] = inv_q30_mult(input[orientation & 0x03] *
 3317              		.loc 1 696 15 view .LVU955
 3318 0026 2860     		str	r0, [r5]
 698:DMP/mllite/ml_math_func.c ****     output[1] = inv_q30_mult(input[(orientation>>3) & 0x03] *
 3319              		.loc 1 698 5 is_stmt 1 view .LVU956
 3320              		.loc 1 698 53 is_stmt 0 view .LVU957
 3321 0028 C4F3C103 		ubfx	r3, r4, #3, #2
 3322              		.loc 1 698 35 view .LVU958
 3323 002c 57F82330 		ldr	r3, [r7, r3, lsl #2]
ARM GAS  /var/folders/21/t9g5rlb91ys800n5npymflf80000gn/T//cc5g3ium.s 			page 86


 699:DMP/mllite/ml_math_func.c ****                              SIGNSET(orientation & 0x020), sensitivity);
 3324              		.loc 1 699 30 view .LVU959
 3325 0030 14F0200F 		tst	r4, #32
 3326 0034 19D0     		beq	.L186
 3327 0036 4FF0FF30 		mov	r0, #-1
 3328              	.L183:
 698:DMP/mllite/ml_math_func.c ****     output[1] = inv_q30_mult(input[(orientation>>3) & 0x03] *
 3329              		.loc 1 698 17 view .LVU960
 3330 003a 3146     		mov	r1, r6
 3331 003c 03FB00F0 		mul	r0, r3, r0
 3332 0040 FFF7FEFF 		bl	inv_q30_mult
 3333              	.LVL291:
 698:DMP/mllite/ml_math_func.c ****     output[1] = inv_q30_mult(input[(orientation>>3) & 0x03] *
 3334              		.loc 1 698 15 view .LVU961
 3335 0044 6860     		str	r0, [r5, #4]
 700:DMP/mllite/ml_math_func.c ****     output[2] = inv_q30_mult(input[(orientation>>6) & 0x03] *
 3336              		.loc 1 700 5 is_stmt 1 view .LVU962
 3337              		.loc 1 700 53 is_stmt 0 view .LVU963
 3338 0046 C4F38113 		ubfx	r3, r4, #6, #2
 3339              		.loc 1 700 35 view .LVU964
 3340 004a 57F82330 		ldr	r3, [r7, r3, lsl #2]
 701:DMP/mllite/ml_math_func.c ****                              SIGNSET(orientation & 0x100), sensitivity);
 3341              		.loc 1 701 30 view .LVU965
 3342 004e 14F4807F 		tst	r4, #256
 3343 0052 0CD0     		beq	.L187
 3344 0054 4FF0FF30 		mov	r0, #-1
 3345              	.L184:
 700:DMP/mllite/ml_math_func.c ****     output[2] = inv_q30_mult(input[(orientation>>6) & 0x03] *
 3346              		.loc 1 700 17 view .LVU966
 3347 0058 3146     		mov	r1, r6
 3348 005a 03FB00F0 		mul	r0, r3, r0
 3349 005e FFF7FEFF 		bl	inv_q30_mult
 3350              	.LVL292:
 700:DMP/mllite/ml_math_func.c ****     output[2] = inv_q30_mult(input[(orientation>>6) & 0x03] *
 3351              		.loc 1 700 15 view .LVU967
 3352 0062 A860     		str	r0, [r5, #8]
 702:DMP/mllite/ml_math_func.c **** }
 3353              		.loc 1 702 1 view .LVU968
 3354 0064 F8BD     		pop	{r3, r4, r5, r6, r7, pc}
 3355              	.LVL293:
 3356              	.L185:
 697:DMP/mllite/ml_math_func.c ****     output[1] = inv_q30_mult(input[(orientation>>3) & 0x03] *
 3357              		.loc 1 697 30 view .LVU969
 3358 0066 0120     		movs	r0, #1
 3359              	.LVL294:
 697:DMP/mllite/ml_math_func.c ****     output[1] = inv_q30_mult(input[(orientation>>3) & 0x03] *
 3360              		.loc 1 697 30 view .LVU970
 3361 0068 D8E7     		b	.L182
 3362              	.LVL295:
 3363              	.L186:
 699:DMP/mllite/ml_math_func.c ****     output[2] = inv_q30_mult(input[(orientation>>6) & 0x03] *
 3364              		.loc 1 699 30 view .LVU971
 3365 006a 0120     		movs	r0, #1
 3366 006c E5E7     		b	.L183
 3367              	.L187:
 701:DMP/mllite/ml_math_func.c **** }
 3368              		.loc 1 701 30 view .LVU972
ARM GAS  /var/folders/21/t9g5rlb91ys800n5npymflf80000gn/T//cc5g3ium.s 			page 87


 3369 006e 0120     		movs	r0, #1
 3370 0070 F2E7     		b	.L184
 3371              		.cfi_endproc
 3372              	.LFE62:
 3374              		.section	.text.inv_vector_norm,"ax",%progbits
 3375              		.align	1
 3376              		.global	inv_vector_norm
