ARM GAS  /var/folders/21/t9g5rlb91ys800n5npymflf80000gn/T//ccMBg0dO.s 			page 1


   1              		.cpu cortex-m4
   2              		.arch armv7e-m
   3              		.fpu fpv4-sp-d16
   4              		.eabi_attribute 27, 1
   5              		.eabi_attribute 28, 1
   6              		.eabi_attribute 20, 1
   7              		.eabi_attribute 21, 1
   8              		.eabi_attribute 23, 3
   9              		.eabi_attribute 24, 1
  10              		.eabi_attribute 25, 1
  11              		.eabi_attribute 26, 1
  12              		.eabi_attribute 30, 1
  13              		.eabi_attribute 34, 1
  14              		.eabi_attribute 18, 4
  15              		.file	"mpu.c"
  16              		.text
  17              	.Ltext0:
  18              		.cfi_sections	.debug_frame
  19              		.file 1 "user/Src/mpu.c"
  20              		.section	.text.MPU_ReadMulBytes,"ax",%progbits
  21              		.align	1
  22              		.global	MPU_ReadMulBytes
  23              		.syntax unified
  24              		.thumb
  25              		.thumb_func
  27              	MPU_ReadMulBytes:
  28              	.LVL0:
  29              	.LFB132:
   1:user/Src/mpu.c **** #include "mpu.h"
   2:user/Src/mpu.c **** #include "i2c.h"
   3:user/Src/mpu.c **** #include <stdint.h>
   4:user/Src/mpu.c **** 
   5:user/Src/mpu.c **** uint8_t MPU_readbuf[128];
   6:user/Src/mpu.c **** MPU_data gryo_data;
   7:user/Src/mpu.c **** MPU_data acc_data;
   8:user/Src/mpu.c **** uint8_t ak_id;
   9:user/Src/mpu.c **** 
  10:user/Src/mpu.c **** void MPU_ReadMulBytes(uint8_t reg, uint8_t length, uint8_t *buf) {
  30              		.loc 1 10 66 view -0
  31              		.cfi_startproc
  32              		@ args = 0, pretend = 0, frame = 0
  33              		@ frame_needed = 0, uses_anonymous_args = 0
  34              		.loc 1 10 66 is_stmt 0 view .LVU1
  35 0000 10B5     		push	{r4, lr}
  36              	.LCFI0:
  37              		.cfi_def_cfa_offset 8
  38              		.cfi_offset 4, -8
  39              		.cfi_offset 14, -4
  40 0002 84B0     		sub	sp, sp, #16
  41              	.LCFI1:
  42              		.cfi_def_cfa_offset 24
  43 0004 1446     		mov	r4, r2
  11:user/Src/mpu.c ****   switch (reg) {
  44              		.loc 1 11 3 is_stmt 1 view .LVU2
  45 0006 3B28     		cmp	r0, #59
  46 0008 20D0     		beq	.L2
  47 000a 4328     		cmp	r0, #67
ARM GAS  /var/folders/21/t9g5rlb91ys800n5npymflf80000gn/T//ccMBg0dO.s 			page 2


  48 000c 03D0     		beq	.L3
  49 000e 0028     		cmp	r0, #0
  50 0010 37D0     		beq	.L7
  51              	.LVL1:
  52              	.L1:
  12:user/Src/mpu.c ****   case MPU_RA_GYRO_XOUT_H: {
  13:user/Src/mpu.c ****     HAL_I2C_Mem_Read(&hi2c1, 0x68, reg, I2C_MEMADD_SIZE_8BIT, buf, length, 200);
  14:user/Src/mpu.c ****     gryo_data.x = (int16_t)((buf[0] << 8) | buf[1]);
  15:user/Src/mpu.c ****     gryo_data.y = (int16_t)((buf[2] << 8) | buf[3]);
  16:user/Src/mpu.c ****     gryo_data.z = (int16_t)((buf[4] << 8) | buf[5]);
  17:user/Src/mpu.c ****   } break;
  18:user/Src/mpu.c ****   case MPU_RA_ACCEL_XOUT_H: {
  19:user/Src/mpu.c ****     HAL_I2C_Mem_Read(&hi2c1, 0x68, reg, I2C_MEMADD_SIZE_8BIT, buf, length, 200);
  20:user/Src/mpu.c ****     acc_data.x = (int16_t)((buf[0] << 8) | buf[1]);
  21:user/Src/mpu.c ****     acc_data.y = (int16_t)((buf[2] << 8) | buf[3]);
  22:user/Src/mpu.c ****     acc_data.z = (int16_t)((buf[4] << 8) | buf[5]);
  23:user/Src/mpu.c ****   } break;
  24:user/Src/mpu.c ****   case MPU_RA_MAG: {
  25:user/Src/mpu.c ****     HAL_I2C_Mem_Read(&hi2c1, 0x0C, reg, I2C_MEMADD_SIZE_8BIT, buf, length, 200);
  26:user/Src/mpu.c ****     ak_id = buf[0];
  27:user/Src/mpu.c ****   } break;
  28:user/Src/mpu.c ****   }
  29:user/Src/mpu.c **** }
  53              		.loc 1 29 1 is_stmt 0 view .LVU3
  54 0012 04B0     		add	sp, sp, #16
  55              	.LCFI2:
  56              		.cfi_remember_state
  57              		.cfi_def_cfa_offset 8
  58              		@ sp needed
  59 0014 10BD     		pop	{r4, pc}
  60              	.LVL2:
  61              	.L3:
  62              	.LCFI3:
  63              		.cfi_restore_state
  13:user/Src/mpu.c ****     gryo_data.x = (int16_t)((buf[0] << 8) | buf[1]);
  64              		.loc 1 13 5 is_stmt 1 view .LVU4
  65 0016 C823     		movs	r3, #200
  66 0018 0293     		str	r3, [sp, #8]
  67 001a 0191     		str	r1, [sp, #4]
  68 001c 0092     		str	r2, [sp]
  69 001e 0123     		movs	r3, #1
  70 0020 0246     		mov	r2, r0
  71              	.LVL3:
  13:user/Src/mpu.c ****     gryo_data.x = (int16_t)((buf[0] << 8) | buf[1]);
  72              		.loc 1 13 5 is_stmt 0 view .LVU5
  73 0022 6821     		movs	r1, #104
  74              	.LVL4:
  13:user/Src/mpu.c ****     gryo_data.x = (int16_t)((buf[0] << 8) | buf[1]);
  75              		.loc 1 13 5 view .LVU6
  76 0024 1E48     		ldr	r0, .L8
  77              	.LVL5:
  13:user/Src/mpu.c ****     gryo_data.x = (int16_t)((buf[0] << 8) | buf[1]);
  78              		.loc 1 13 5 view .LVU7
  79 0026 FFF7FEFF 		bl	HAL_I2C_Mem_Read
  80              	.LVL6:
  14:user/Src/mpu.c ****     gryo_data.y = (int16_t)((buf[2] << 8) | buf[3]);
  81              		.loc 1 14 5 is_stmt 1 view .LVU8
ARM GAS  /var/folders/21/t9g5rlb91ys800n5npymflf80000gn/T//ccMBg0dO.s 			page 3


  14:user/Src/mpu.c ****     gryo_data.y = (int16_t)((buf[2] << 8) | buf[3]);
  82              		.loc 1 14 33 is_stmt 0 view .LVU9
  83 002a 2378     		ldrb	r3, [r4]	@ zero_extendqisi2
  14:user/Src/mpu.c ****     gryo_data.y = (int16_t)((buf[2] << 8) | buf[3]);
  84              		.loc 1 14 48 view .LVU10
  85 002c 6278     		ldrb	r2, [r4, #1]	@ zero_extendqisi2
  14:user/Src/mpu.c ****     gryo_data.y = (int16_t)((buf[2] << 8) | buf[3]);
  86              		.loc 1 14 19 view .LVU11
  87 002e 42EA0322 		orr	r2, r2, r3, lsl #8
  14:user/Src/mpu.c ****     gryo_data.y = (int16_t)((buf[2] << 8) | buf[3]);
  88              		.loc 1 14 17 view .LVU12
  89 0032 1C4B     		ldr	r3, .L8+4
  90 0034 1A80     		strh	r2, [r3]	@ movhi
  15:user/Src/mpu.c ****     gryo_data.z = (int16_t)((buf[4] << 8) | buf[5]);
  91              		.loc 1 15 5 is_stmt 1 view .LVU13
  15:user/Src/mpu.c ****     gryo_data.z = (int16_t)((buf[4] << 8) | buf[5]);
  92              		.loc 1 15 33 is_stmt 0 view .LVU14
  93 0036 A178     		ldrb	r1, [r4, #2]	@ zero_extendqisi2
  15:user/Src/mpu.c ****     gryo_data.z = (int16_t)((buf[4] << 8) | buf[5]);
  94              		.loc 1 15 48 view .LVU15
  95 0038 E278     		ldrb	r2, [r4, #3]	@ zero_extendqisi2
  15:user/Src/mpu.c ****     gryo_data.z = (int16_t)((buf[4] << 8) | buf[5]);
  96              		.loc 1 15 19 view .LVU16
  97 003a 42EA0122 		orr	r2, r2, r1, lsl #8
  15:user/Src/mpu.c ****     gryo_data.z = (int16_t)((buf[4] << 8) | buf[5]);
  98              		.loc 1 15 17 view .LVU17
  99 003e 5A80     		strh	r2, [r3, #2]	@ movhi
  16:user/Src/mpu.c ****   } break;
 100              		.loc 1 16 5 is_stmt 1 view .LVU18
  16:user/Src/mpu.c ****   } break;
 101              		.loc 1 16 33 is_stmt 0 view .LVU19
 102 0040 2179     		ldrb	r1, [r4, #4]	@ zero_extendqisi2
  16:user/Src/mpu.c ****   } break;
 103              		.loc 1 16 48 view .LVU20
 104 0042 6279     		ldrb	r2, [r4, #5]	@ zero_extendqisi2
  16:user/Src/mpu.c ****   } break;
 105              		.loc 1 16 19 view .LVU21
 106 0044 42EA0122 		orr	r2, r2, r1, lsl #8
  16:user/Src/mpu.c ****   } break;
 107              		.loc 1 16 17 view .LVU22
 108 0048 9A80     		strh	r2, [r3, #4]	@ movhi
  17:user/Src/mpu.c ****   case MPU_RA_ACCEL_XOUT_H: {
 109              		.loc 1 17 5 is_stmt 1 view .LVU23
 110 004a E2E7     		b	.L1
 111              	.LVL7:
 112              	.L2:
  19:user/Src/mpu.c ****     acc_data.x = (int16_t)((buf[0] << 8) | buf[1]);
 113              		.loc 1 19 5 view .LVU24
 114 004c C823     		movs	r3, #200
 115 004e 0293     		str	r3, [sp, #8]
 116 0050 0191     		str	r1, [sp, #4]
 117 0052 0092     		str	r2, [sp]
 118 0054 0123     		movs	r3, #1
 119 0056 0246     		mov	r2, r0
 120              	.LVL8:
  19:user/Src/mpu.c ****     acc_data.x = (int16_t)((buf[0] << 8) | buf[1]);
 121              		.loc 1 19 5 is_stmt 0 view .LVU25
ARM GAS  /var/folders/21/t9g5rlb91ys800n5npymflf80000gn/T//ccMBg0dO.s 			page 4


 122 0058 6821     		movs	r1, #104
 123              	.LVL9:
  19:user/Src/mpu.c ****     acc_data.x = (int16_t)((buf[0] << 8) | buf[1]);
 124              		.loc 1 19 5 view .LVU26
 125 005a 1148     		ldr	r0, .L8
 126              	.LVL10:
  19:user/Src/mpu.c ****     acc_data.x = (int16_t)((buf[0] << 8) | buf[1]);
 127              		.loc 1 19 5 view .LVU27
 128 005c FFF7FEFF 		bl	HAL_I2C_Mem_Read
 129              	.LVL11:
  20:user/Src/mpu.c ****     acc_data.y = (int16_t)((buf[2] << 8) | buf[3]);
 130              		.loc 1 20 5 is_stmt 1 view .LVU28
  20:user/Src/mpu.c ****     acc_data.y = (int16_t)((buf[2] << 8) | buf[3]);
 131              		.loc 1 20 32 is_stmt 0 view .LVU29
 132 0060 2378     		ldrb	r3, [r4]	@ zero_extendqisi2
  20:user/Src/mpu.c ****     acc_data.y = (int16_t)((buf[2] << 8) | buf[3]);
 133              		.loc 1 20 47 view .LVU30
 134 0062 6278     		ldrb	r2, [r4, #1]	@ zero_extendqisi2
  20:user/Src/mpu.c ****     acc_data.y = (int16_t)((buf[2] << 8) | buf[3]);
 135              		.loc 1 20 18 view .LVU31
 136 0064 42EA0322 		orr	r2, r2, r3, lsl #8
  20:user/Src/mpu.c ****     acc_data.y = (int16_t)((buf[2] << 8) | buf[3]);
 137              		.loc 1 20 16 view .LVU32
 138 0068 0F4B     		ldr	r3, .L8+8
 139 006a 1A80     		strh	r2, [r3]	@ movhi
  21:user/Src/mpu.c ****     acc_data.z = (int16_t)((buf[4] << 8) | buf[5]);
 140              		.loc 1 21 5 is_stmt 1 view .LVU33
  21:user/Src/mpu.c ****     acc_data.z = (int16_t)((buf[4] << 8) | buf[5]);
 141              		.loc 1 21 32 is_stmt 0 view .LVU34
 142 006c A178     		ldrb	r1, [r4, #2]	@ zero_extendqisi2
  21:user/Src/mpu.c ****     acc_data.z = (int16_t)((buf[4] << 8) | buf[5]);
 143              		.loc 1 21 47 view .LVU35
 144 006e E278     		ldrb	r2, [r4, #3]	@ zero_extendqisi2
  21:user/Src/mpu.c ****     acc_data.z = (int16_t)((buf[4] << 8) | buf[5]);
 145              		.loc 1 21 18 view .LVU36
 146 0070 42EA0122 		orr	r2, r2, r1, lsl #8
  21:user/Src/mpu.c ****     acc_data.z = (int16_t)((buf[4] << 8) | buf[5]);
 147              		.loc 1 21 16 view .LVU37
 148 0074 5A80     		strh	r2, [r3, #2]	@ movhi
  22:user/Src/mpu.c ****   } break;
 149              		.loc 1 22 5 is_stmt 1 view .LVU38
  22:user/Src/mpu.c ****   } break;
 150              		.loc 1 22 32 is_stmt 0 view .LVU39
 151 0076 2179     		ldrb	r1, [r4, #4]	@ zero_extendqisi2
  22:user/Src/mpu.c ****   } break;
 152              		.loc 1 22 47 view .LVU40
 153 0078 6279     		ldrb	r2, [r4, #5]	@ zero_extendqisi2
  22:user/Src/mpu.c ****   } break;
 154              		.loc 1 22 18 view .LVU41
 155 007a 42EA0122 		orr	r2, r2, r1, lsl #8
  22:user/Src/mpu.c ****   } break;
 156              		.loc 1 22 16 view .LVU42
 157 007e 9A80     		strh	r2, [r3, #4]	@ movhi
  23:user/Src/mpu.c ****   case MPU_RA_MAG: {
 158              		.loc 1 23 5 is_stmt 1 view .LVU43
 159 0080 C7E7     		b	.L1
 160              	.LVL12:
ARM GAS  /var/folders/21/t9g5rlb91ys800n5npymflf80000gn/T//ccMBg0dO.s 			page 5


 161              	.L7:
  25:user/Src/mpu.c ****     ak_id = buf[0];
 162              		.loc 1 25 5 view .LVU44
 163 0082 C823     		movs	r3, #200
 164 0084 0293     		str	r3, [sp, #8]
 165 0086 0191     		str	r1, [sp, #4]
 166 0088 0092     		str	r2, [sp]
 167 008a 0123     		movs	r3, #1
 168 008c 0246     		mov	r2, r0
 169              	.LVL13:
  25:user/Src/mpu.c ****     ak_id = buf[0];
 170              		.loc 1 25 5 is_stmt 0 view .LVU45
 171 008e 0C21     		movs	r1, #12
 172              	.LVL14:
  25:user/Src/mpu.c ****     ak_id = buf[0];
 173              		.loc 1 25 5 view .LVU46
 174 0090 0348     		ldr	r0, .L8
 175              	.LVL15:
  25:user/Src/mpu.c ****     ak_id = buf[0];
 176              		.loc 1 25 5 view .LVU47
 177 0092 FFF7FEFF 		bl	HAL_I2C_Mem_Read
 178              	.LVL16:
  26:user/Src/mpu.c ****   } break;
 179              		.loc 1 26 5 is_stmt 1 view .LVU48
  26:user/Src/mpu.c ****   } break;
 180              		.loc 1 26 16 is_stmt 0 view .LVU49
 181 0096 2278     		ldrb	r2, [r4]	@ zero_extendqisi2
  26:user/Src/mpu.c ****   } break;
 182              		.loc 1 26 11 view .LVU50
 183 0098 044B     		ldr	r3, .L8+12
 184 009a 1A70     		strb	r2, [r3]
  27:user/Src/mpu.c ****   }
 185              		.loc 1 27 5 is_stmt 1 view .LVU51
 186              		.loc 1 29 1 is_stmt 0 view .LVU52
 187 009c B9E7     		b	.L1
 188              	.L9:
 189 009e 00BF     		.align	2
 190              	.L8:
 191 00a0 00000000 		.word	hi2c1
 192 00a4 00000000 		.word	gryo_data
 193 00a8 00000000 		.word	acc_data
 194 00ac 00000000 		.word	ak_id
 195              		.cfi_endproc
 196              	.LFE132:
 198              		.section	.text.Cal_Angle,"ax",%progbits
 199              		.align	1
 200              		.global	Cal_Angle
 201              		.syntax unified
 202              		.thumb
 203              		.thumb_func
 205              	Cal_Angle:
 206              	.LFB133:
  30:user/Src/mpu.c **** 
  31:user/Src/mpu.c **** float Cal_Angle(){
 207              		.loc 1 31 18 is_stmt 1 view -0
 208              		.cfi_startproc
 209              		@ args = 0, pretend = 0, frame = 0
ARM GAS  /var/folders/21/t9g5rlb91ys800n5npymflf80000gn/T//ccMBg0dO.s 			page 6


 210              		@ frame_needed = 0, uses_anonymous_args = 0
 211              		@ link register save eliminated.
  32:user/Src/mpu.c **** }
 212              		.loc 1 32 1 view .LVU54
 213 0000 7047     		bx	lr
 214              		.cfi_endproc
 215              	.LFE133:
 217              		.section	.text.Angle_Get,"ax",%progbits
 218              		.align	1
 219              		.global	Angle_Get
 220              		.syntax unified
 221              		.thumb
 222              		.thumb_func
 224              	Angle_Get:
 225              	.LFB134:
  33:user/Src/mpu.c **** 
  34:user/Src/mpu.c **** float Angle_Get() {
 226              		.loc 1 34 19 view -0
 227              		.cfi_startproc
 228              		@ args = 0, pretend = 0, frame = 40
 229              		@ frame_needed = 0, uses_anonymous_args = 0
 230 0000 10B5     		push	{r4, lr}
 231              	.LCFI4:
 232              		.cfi_def_cfa_offset 8
 233              		.cfi_offset 4, -8
 234              		.cfi_offset 14, -4
 235 0002 2DED028B 		vpush.64	{d8}
 236              	.LCFI5:
 237              		.cfi_def_cfa_offset 16
 238              		.cfi_offset 80, -16
 239              		.cfi_offset 81, -12
 240 0006 8AB0     		sub	sp, sp, #40
 241              	.LCFI6:
 242              		.cfi_def_cfa_offset 56
  35:user/Src/mpu.c ****   float roll;
 243              		.loc 1 35 3 view .LVU56
  36:user/Src/mpu.c ****   float yaw;
 244              		.loc 1 36 3 view .LVU57
  37:user/Src/mpu.c ****   float pitch;
 245              		.loc 1 37 3 view .LVU58
  38:user/Src/mpu.c ****   float angle_list[WINDOW_SIZE];
 246              		.loc 1 38 3 view .LVU59
  39:user/Src/mpu.c ****   float sum = 0;
 247              		.loc 1 39 3 view .LVU60
 248              	.LVL17:
  40:user/Src/mpu.c ****   for(int i = 0; i < WINDOW_SIZE; i++){
 249              		.loc 1 40 3 view .LVU61
 250              	.LBB2:
 251              		.loc 1 40 7 view .LVU62
 252              		.loc 1 40 11 is_stmt 0 view .LVU63
 253 0008 0024     		movs	r4, #0
 254              	.LBE2:
  39:user/Src/mpu.c ****   float sum = 0;
 255              		.loc 1 39 9 view .LVU64
 256 000a 9FED0E8A 		vldr.32	s16, .L15
 257              	.LBB3:
 258              		.loc 1 40 3 view .LVU65
ARM GAS  /var/folders/21/t9g5rlb91ys800n5npymflf80000gn/T//ccMBg0dO.s 			page 7


 259 000e 0EE0     		b	.L12
 260              	.LVL18:
 261              	.L13:
  41:user/Src/mpu.c ****     mpu_dmp_get_data(&pitch, &roll, &yaw);
 262              		.loc 1 41 5 is_stmt 1 discriminator 3 view .LVU66
 263 0010 08AA     		add	r2, sp, #32
 264 0012 09A9     		add	r1, sp, #36
 265 0014 07A8     		add	r0, sp, #28
 266 0016 FFF7FEFF 		bl	mpu_dmp_get_data
 267              	.LVL19:
  42:user/Src/mpu.c ****     angle_list[i] = pitch;
 268              		.loc 1 42 5 discriminator 3 view .LVU67
 269              		.loc 1 42 19 is_stmt 0 discriminator 3 view .LVU68
 270 001a DDED077A 		vldr.32	s15, [sp, #28]
 271 001e 0AAB     		add	r3, sp, #40
 272 0020 03EB8403 		add	r3, r3, r4, lsl #2
 273 0024 43ED097A 		vstr.32	s15, [r3, #-36]
  43:user/Src/mpu.c ****     sum += angle_list[i];
 274              		.loc 1 43 5 is_stmt 1 discriminator 3 view .LVU69
 275              		.loc 1 43 9 is_stmt 0 discriminator 3 view .LVU70
 276 0028 38EE278A 		vadd.f32	s16, s16, s15
 277              	.LVL20:
  40:user/Src/mpu.c ****     mpu_dmp_get_data(&pitch, &roll, &yaw);
 278              		.loc 1 40 36 is_stmt 1 discriminator 3 view .LVU71
 279 002c 0134     		adds	r4, r4, #1
 280              	.LVL21:
 281              	.L12:
  40:user/Src/mpu.c ****     mpu_dmp_get_data(&pitch, &roll, &yaw);
 282              		.loc 1 40 20 discriminator 1 view .LVU72
 283 002e 052C     		cmp	r4, #5
 284 0030 EEDD     		ble	.L13
 285              	.LBE3:
  44:user/Src/mpu.c ****   }
  45:user/Src/mpu.c ****   float aver_angle = sum / WINDOW_SIZE;
 286              		.loc 1 45 3 view .LVU73
 287              	.LVL22:
  46:user/Src/mpu.c ****   return aver_angle;
 288              		.loc 1 46 3 view .LVU74
  47:user/Src/mpu.c **** }
 289              		.loc 1 47 1 is_stmt 0 view .LVU75
 290 0032 B1EE080A 		vmov.f32	s0, #6.0e+0
 291 0036 88EE000A 		vdiv.f32	s0, s16, s0
 292              	.LVL23:
 293              		.loc 1 47 1 view .LVU76
 294 003a 0AB0     		add	sp, sp, #40
 295              	.LCFI7:
 296              		.cfi_def_cfa_offset 16
 297              		@ sp needed
 298 003c BDEC028B 		vldm	sp!, {d8}
 299              	.LCFI8:
 300              		.cfi_restore 80
 301              		.cfi_restore 81
 302              		.cfi_def_cfa_offset 8
 303              	.LVL24:
 304              		.loc 1 47 1 view .LVU77
 305 0040 10BD     		pop	{r4, pc}
 306              	.LVL25:
ARM GAS  /var/folders/21/t9g5rlb91ys800n5npymflf80000gn/T//ccMBg0dO.s 			page 8


 307              	.L16:
 308              		.loc 1 47 1 view .LVU78
 309 0042 00BF     		.align	2
 310              	.L15:
 311 0044 00000000 		.word	0
 312              		.cfi_endproc
 313              	.LFE134:
 315              		.global	ak_id
 316              		.section	.bss.ak_id,"aw",%nobits
 319              	ak_id:
 320 0000 00       		.space	1
 321              		.global	acc_data
 322              		.section	.bss.acc_data,"aw",%nobits
 323              		.align	2
 326              	acc_data:
 327 0000 00000000 		.space	6
 327      0000
 328              		.global	gryo_data
 329              		.section	.bss.gryo_data,"aw",%nobits
 330              		.align	2
 333              	gryo_data:
 334 0000 00000000 		.space	6
 334      0000
 335              		.global	MPU_readbuf
 336              		.section	.bss.MPU_readbuf,"aw",%nobits
 337              		.align	2
 340              	MPU_readbuf:
 341 0000 00000000 		.space	128
 341      00000000 
 341      00000000 
 341      00000000 
 341      00000000 
 342              		.text
 343              	.Letext0:
 344              		.file 2 "/usr/local/include/sys/_types/_int16_t.h"
 345              		.file 3 "/usr/local/include/_types/_uint8_t.h"
 346              		.file 4 "/usr/local/include/_types/_uint16_t.h"
 347              		.file 5 "/usr/local/include/_types/_uint32_t.h"
 348              		.file 6 "Drivers/CMSIS/Device/ST/STM32G4xx/Include/stm32g474xx.h"
 349              		.file 7 "Drivers/STM32G4xx_HAL_Driver/Inc/stm32g4xx_hal_def.h"
 350              		.file 8 "Drivers/STM32G4xx_HAL_Driver/Inc/stm32g4xx_hal_dma.h"
 351              		.file 9 "Drivers/STM32G4xx_HAL_Driver/Inc/stm32g4xx_hal_i2c.h"
 352              		.file 10 "user/Inc/mpu.h"
 353              		.file 11 "Core/Inc/i2c.h"
 354              		.file 12 "user/drivers/DMP/driver/eMPL/inv_mpu.h"
ARM GAS  /var/folders/21/t9g5rlb91ys800n5npymflf80000gn/T//ccMBg0dO.s 			page 9


DEFINED SYMBOLS
                            *ABS*:00000000 mpu.c
/var/folders/21/t9g5rlb91ys800n5npymflf80000gn/T//ccMBg0dO.s:21     .text.MPU_ReadMulBytes:00000000 $t
/var/folders/21/t9g5rlb91ys800n5npymflf80000gn/T//ccMBg0dO.s:27     .text.MPU_ReadMulBytes:00000000 MPU_ReadMulBytes
/var/folders/21/t9g5rlb91ys800n5npymflf80000gn/T//ccMBg0dO.s:191    .text.MPU_ReadMulBytes:000000a0 $d
/var/folders/21/t9g5rlb91ys800n5npymflf80000gn/T//ccMBg0dO.s:333    .bss.gryo_data:00000000 gryo_data
/var/folders/21/t9g5rlb91ys800n5npymflf80000gn/T//ccMBg0dO.s:326    .bss.acc_data:00000000 acc_data
/var/folders/21/t9g5rlb91ys800n5npymflf80000gn/T//ccMBg0dO.s:319    .bss.ak_id:00000000 ak_id
/var/folders/21/t9g5rlb91ys800n5npymflf80000gn/T//ccMBg0dO.s:199    .text.Cal_Angle:00000000 $t
/var/folders/21/t9g5rlb91ys800n5npymflf80000gn/T//ccMBg0dO.s:205    .text.Cal_Angle:00000000 Cal_Angle
/var/folders/21/t9g5rlb91ys800n5npymflf80000gn/T//ccMBg0dO.s:218    .text.Angle_Get:00000000 $t
/var/folders/21/t9g5rlb91ys800n5npymflf80000gn/T//ccMBg0dO.s:224    .text.Angle_Get:00000000 Angle_Get
/var/folders/21/t9g5rlb91ys800n5npymflf80000gn/T//ccMBg0dO.s:311    .text.Angle_Get:00000044 $d
/var/folders/21/t9g5rlb91ys800n5npymflf80000gn/T//ccMBg0dO.s:320    .bss.ak_id:00000000 $d
/var/folders/21/t9g5rlb91ys800n5npymflf80000gn/T//ccMBg0dO.s:323    .bss.acc_data:00000000 $d
/var/folders/21/t9g5rlb91ys800n5npymflf80000gn/T//ccMBg0dO.s:330    .bss.gryo_data:00000000 $d
/var/folders/21/t9g5rlb91ys800n5npymflf80000gn/T//ccMBg0dO.s:340    .bss.MPU_readbuf:00000000 MPU_readbuf
/var/folders/21/t9g5rlb91ys800n5npymflf80000gn/T//ccMBg0dO.s:337    .bss.MPU_readbuf:00000000 $d

UNDEFINED SYMBOLS
HAL_I2C_Mem_Read
hi2c1
mpu_dmp_get_data
