ARM GAS  /var/folders/21/t9g5rlb91ys800n5npymflf80000gn/T//ccT2Ngli.s 			page 1


   1              		.cpu cortex-m4
   2              		.arch armv7e-m
   3              		.fpu fpv4-sp-d16
   4              		.eabi_attribute 27, 1
   5              		.eabi_attribute 28, 1
   6              		.eabi_attribute 20, 1
   7              		.eabi_attribute 21, 1
   8              		.eabi_attribute 23, 3
   9              		.eabi_attribute 24, 1
  10              		.eabi_attribute 25, 1
  11              		.eabi_attribute 26, 1
  12              		.eabi_attribute 30, 1
  13              		.eabi_attribute 34, 1
  14              		.eabi_attribute 18, 4
  15              		.file	"u8g2_font.c"
  16              		.text
  17              	.Ltext0:
  18              		.cfi_sections	.debug_frame
  19              		.file 1 "user/drivers/u8g2/u8g2_font.c"
  20              		.section	.text.u8g2_font_get_byte,"ax",%progbits
  21              		.align	1
  22              		.syntax unified
  23              		.thumb
  24              		.thumb_func
  26              	u8g2_font_get_byte:
  27              	.LVL0:
  28              	.LFB0:
   1:user/drivers/u8g2/u8g2_font.c **** /*
   2:user/drivers/u8g2/u8g2_font.c **** 
   3:user/drivers/u8g2/u8g2_font.c ****   u8g2_font.c
   4:user/drivers/u8g2/u8g2_font.c **** 
   5:user/drivers/u8g2/u8g2_font.c ****   Universal 8bit Graphics Library (https://github.com/olikraus/u8g2/)
   6:user/drivers/u8g2/u8g2_font.c **** 
   7:user/drivers/u8g2/u8g2_font.c ****   Copyright (c) 2016, olikraus@gmail.com
   8:user/drivers/u8g2/u8g2_font.c ****   All rights reserved.
   9:user/drivers/u8g2/u8g2_font.c **** 
  10:user/drivers/u8g2/u8g2_font.c ****   Redistribution and use in source and binary forms, with or without modification, 
  11:user/drivers/u8g2/u8g2_font.c ****   are permitted provided that the following conditions are met:
  12:user/drivers/u8g2/u8g2_font.c **** 
  13:user/drivers/u8g2/u8g2_font.c ****   * Redistributions of source code must retain the above copyright notice, this list 
  14:user/drivers/u8g2/u8g2_font.c ****     of conditions and the following disclaimer.
  15:user/drivers/u8g2/u8g2_font.c ****     
  16:user/drivers/u8g2/u8g2_font.c ****   * Redistributions in binary form must reproduce the above copyright notice, this 
  17:user/drivers/u8g2/u8g2_font.c ****     list of conditions and the following disclaimer in the documentation and/or other 
  18:user/drivers/u8g2/u8g2_font.c ****     materials provided with the distribution.
  19:user/drivers/u8g2/u8g2_font.c **** 
  20:user/drivers/u8g2/u8g2_font.c ****   THIS SOFTWARE IS PROVIDED BY THE COPYRIGHT HOLDERS AND 
  21:user/drivers/u8g2/u8g2_font.c ****   CONTRIBUTORS "AS IS" AND ANY EXPRESS OR IMPLIED WARRANTIES, 
  22:user/drivers/u8g2/u8g2_font.c ****   INCLUDING, BUT NOT LIMITED TO, THE IMPLIED WARRANTIES OF 
  23:user/drivers/u8g2/u8g2_font.c ****   MERCHANTABILITY AND FITNESS FOR A PARTICULAR PURPOSE ARE 
  24:user/drivers/u8g2/u8g2_font.c ****   DISCLAIMED. IN NO EVENT SHALL THE COPYRIGHT HOLDER OR 
  25:user/drivers/u8g2/u8g2_font.c ****   CONTRIBUTORS BE LIABLE FOR ANY DIRECT, INDIRECT, INCIDENTAL, 
  26:user/drivers/u8g2/u8g2_font.c ****   SPECIAL, EXEMPLARY, OR CONSEQUENTIAL DAMAGES (INCLUDING, BUT 
  27:user/drivers/u8g2/u8g2_font.c ****   NOT LIMITED TO, PROCUREMENT OF SUBSTITUTE GOODS OR SERVICES; 
  28:user/drivers/u8g2/u8g2_font.c ****   LOSS OF USE, DATA, OR PROFITS; OR BUSINESS INTERRUPTION) HOWEVER 
  29:user/drivers/u8g2/u8g2_font.c ****   CAUSED AND ON ANY THEORY OF LIABILITY, WHETHER IN CONTRACT, 
  30:user/drivers/u8g2/u8g2_font.c ****   STRICT LIABILITY, OR TORT (INCLUDING NEGLIGENCE OR OTHERWISE) 
ARM GAS  /var/folders/21/t9g5rlb91ys800n5npymflf80000gn/T//ccT2Ngli.s 			page 2


  31:user/drivers/u8g2/u8g2_font.c ****   ARISING IN ANY WAY OUT OF THE USE OF THIS SOFTWARE, EVEN IF 
  32:user/drivers/u8g2/u8g2_font.c ****   ADVISED OF THE POSSIBILITY OF SUCH DAMAGE.  
  33:user/drivers/u8g2/u8g2_font.c **** 
  34:user/drivers/u8g2/u8g2_font.c **** */
  35:user/drivers/u8g2/u8g2_font.c **** 
  36:user/drivers/u8g2/u8g2_font.c **** #include "u8g2.h"
  37:user/drivers/u8g2/u8g2_font.c **** 
  38:user/drivers/u8g2/u8g2_font.c **** /* size of the font data structure, there is no struct or class... */
  39:user/drivers/u8g2/u8g2_font.c **** /* this is the size for the new font format */
  40:user/drivers/u8g2/u8g2_font.c **** #define U8G2_FONT_DATA_STRUCT_SIZE 23
  41:user/drivers/u8g2/u8g2_font.c **** 
  42:user/drivers/u8g2/u8g2_font.c **** /*
  43:user/drivers/u8g2/u8g2_font.c ****   font data:
  44:user/drivers/u8g2/u8g2_font.c **** 
  45:user/drivers/u8g2/u8g2_font.c ****   offset	bytes	description
  46:user/drivers/u8g2/u8g2_font.c ****   0		1		glyph_cnt		number of glyphs
  47:user/drivers/u8g2/u8g2_font.c ****   1		1		bbx_mode	0: proportional, 1: common height, 2: monospace, 3: multiple of 8
  48:user/drivers/u8g2/u8g2_font.c ****   2		1		bits_per_0	glyph rle parameter
  49:user/drivers/u8g2/u8g2_font.c ****   3		1		bits_per_1	glyph rle parameter
  50:user/drivers/u8g2/u8g2_font.c **** 
  51:user/drivers/u8g2/u8g2_font.c ****   4		1		bits_per_char_width		glyph rle parameter
  52:user/drivers/u8g2/u8g2_font.c ****   5		1		bits_per_char_height	glyph rle parameter
  53:user/drivers/u8g2/u8g2_font.c ****   6		1		bits_per_char_x		glyph rle parameter
  54:user/drivers/u8g2/u8g2_font.c ****   7		1		bits_per_char_y		glyph rle parameter
  55:user/drivers/u8g2/u8g2_font.c ****   8		1		bits_per_delta_x		glyph rle parameter
  56:user/drivers/u8g2/u8g2_font.c **** 
  57:user/drivers/u8g2/u8g2_font.c ****   9		1		max_char_width
  58:user/drivers/u8g2/u8g2_font.c ****   10		1		max_char_height
  59:user/drivers/u8g2/u8g2_font.c ****   11		1		x offset
  60:user/drivers/u8g2/u8g2_font.c ****   12		1		y offset (descent)
  61:user/drivers/u8g2/u8g2_font.c ****   
  62:user/drivers/u8g2/u8g2_font.c ****   13		1		ascent (capital A)
  63:user/drivers/u8g2/u8g2_font.c ****   14		1		descent (lower g)
  64:user/drivers/u8g2/u8g2_font.c ****   15		1		ascent '('
  65:user/drivers/u8g2/u8g2_font.c ****   16		1		descent ')'
  66:user/drivers/u8g2/u8g2_font.c ****   
  67:user/drivers/u8g2/u8g2_font.c ****   17		1		start pos 'A' high byte
  68:user/drivers/u8g2/u8g2_font.c ****   18		1		start pos 'A' low byte
  69:user/drivers/u8g2/u8g2_font.c **** 
  70:user/drivers/u8g2/u8g2_font.c ****   19		1		start pos 'a' high byte
  71:user/drivers/u8g2/u8g2_font.c ****   20		1		start pos 'a' low byte
  72:user/drivers/u8g2/u8g2_font.c **** 
  73:user/drivers/u8g2/u8g2_font.c ****   21		1		start pos unicode high byte
  74:user/drivers/u8g2/u8g2_font.c ****   22		1		start pos unicode low byte
  75:user/drivers/u8g2/u8g2_font.c **** 
  76:user/drivers/u8g2/u8g2_font.c ****   Font build mode, 0: proportional, 1: common height, 2: monospace, 3: multiple of 8
  77:user/drivers/u8g2/u8g2_font.c **** 
  78:user/drivers/u8g2/u8g2_font.c ****   Font build mode 0:		
  79:user/drivers/u8g2/u8g2_font.c ****     - "t"
  80:user/drivers/u8g2/u8g2_font.c ****     - Ref height mode: U8G2_FONT_HEIGHT_MODE_TEXT, U8G2_FONT_HEIGHT_MODE_XTEXT or U8G2_FONT_HEIGHT_
  81:user/drivers/u8g2/u8g2_font.c ****     - use in transparent mode only (does not look good in solid mode)
  82:user/drivers/u8g2/u8g2_font.c ****     - most compact format
  83:user/drivers/u8g2/u8g2_font.c ****     - different font heights possible
  84:user/drivers/u8g2/u8g2_font.c ****     
  85:user/drivers/u8g2/u8g2_font.c ****   Font build mode 1:		
  86:user/drivers/u8g2/u8g2_font.c ****     - "h"
  87:user/drivers/u8g2/u8g2_font.c ****     - Ref height mode: U8G2_FONT_HEIGHT_MODE_ALL
ARM GAS  /var/folders/21/t9g5rlb91ys800n5npymflf80000gn/T//ccT2Ngli.s 			page 3


  88:user/drivers/u8g2/u8g2_font.c ****     - transparent or solid mode
  89:user/drivers/u8g2/u8g2_font.c ****     - The height of the glyphs depend on the largest glyph in the font. This means font height depe
  90:user/drivers/u8g2/u8g2_font.c **** 
  91:user/drivers/u8g2/u8g2_font.c **** */
  92:user/drivers/u8g2/u8g2_font.c **** 
  93:user/drivers/u8g2/u8g2_font.c **** /* use case: What is the width and the height of the minimal box into which string s fints? */
  94:user/drivers/u8g2/u8g2_font.c **** void u8g2_font_GetStrSize(const void *font, const char *s, u8g2_uint_t *width, u8g2_uint_t *height)
  95:user/drivers/u8g2/u8g2_font.c **** void u8g2_font_GetStrSizeP(const void *font, const char *s, u8g2_uint_t *width, u8g2_uint_t *height
  96:user/drivers/u8g2/u8g2_font.c **** 
  97:user/drivers/u8g2/u8g2_font.c **** /* use case: lower left edge of a minimal box is known, what is the correct x, y position for the s
  98:user/drivers/u8g2/u8g2_font.c **** void u8g2_font_AdjustXYToDraw(const void *font, const char *s, u8g2_uint_t *x, u8g2_uint_t *y);
  99:user/drivers/u8g2/u8g2_font.c **** void u8g2_font_AdjustXYToDrawP(const void *font, const char *s, u8g2_uint_t *x, u8g2_uint_t *y);
 100:user/drivers/u8g2/u8g2_font.c **** 
 101:user/drivers/u8g2/u8g2_font.c **** /* use case: Baseline origin known, return minimal box */
 102:user/drivers/u8g2/u8g2_font.c **** void u8g2_font_GetStrMinBox(u8g2_t *u8g2, const void *font, const char *s, u8g2_uint_t *x, u8g2_uin
 103:user/drivers/u8g2/u8g2_font.c **** 
 104:user/drivers/u8g2/u8g2_font.c **** /* procedures */
 105:user/drivers/u8g2/u8g2_font.c **** 
 106:user/drivers/u8g2/u8g2_font.c **** /*========================================================================*/
 107:user/drivers/u8g2/u8g2_font.c **** /* low level byte and word access */
 108:user/drivers/u8g2/u8g2_font.c **** 
 109:user/drivers/u8g2/u8g2_font.c **** /* removed NOINLINE, because it leads to smaller code, might also be faster */
 110:user/drivers/u8g2/u8g2_font.c **** //static uint8_t u8g2_font_get_byte(const uint8_t *font, uint8_t offset) U8G2_NOINLINE;
 111:user/drivers/u8g2/u8g2_font.c **** static uint8_t u8g2_font_get_byte(const uint8_t *font, uint8_t offset)
 112:user/drivers/u8g2/u8g2_font.c **** {
  29              		.loc 1 112 1 view -0
  30              		.cfi_startproc
  31              		@ args = 0, pretend = 0, frame = 0
  32              		@ frame_needed = 0, uses_anonymous_args = 0
  33              		@ link register save eliminated.
 113:user/drivers/u8g2/u8g2_font.c ****   font += offset;
  34              		.loc 1 113 3 view .LVU1
 114:user/drivers/u8g2/u8g2_font.c ****   return u8x8_pgm_read( font );  
  35              		.loc 1 114 3 view .LVU2
 115:user/drivers/u8g2/u8g2_font.c **** }
  36              		.loc 1 115 1 is_stmt 0 view .LVU3
  37 0000 405C     		ldrb	r0, [r0, r1]	@ zero_extendqisi2
  38              	.LVL1:
  39              		.loc 1 115 1 view .LVU4
  40 0002 7047     		bx	lr
  41              		.cfi_endproc
  42              	.LFE0:
  44              		.section	.text.u8g2_font_get_word,"ax",%progbits
  45              		.align	1
  46              		.syntax unified
  47              		.thumb
  48              		.thumb_func
  50              	u8g2_font_get_word:
  51              	.LVL2:
  52              	.LFB1:
 116:user/drivers/u8g2/u8g2_font.c **** 
 117:user/drivers/u8g2/u8g2_font.c **** static uint16_t u8g2_font_get_word(const uint8_t *font, uint8_t offset) U8G2_NOINLINE; 
 118:user/drivers/u8g2/u8g2_font.c **** static uint16_t u8g2_font_get_word(const uint8_t *font, uint8_t offset)
 119:user/drivers/u8g2/u8g2_font.c **** {
  53              		.loc 1 119 1 is_stmt 1 view -0
  54              		.cfi_startproc
  55              		@ args = 0, pretend = 0, frame = 0
ARM GAS  /var/folders/21/t9g5rlb91ys800n5npymflf80000gn/T//ccT2Ngli.s 			page 4


  56              		@ frame_needed = 0, uses_anonymous_args = 0
  57              		@ link register save eliminated.
 120:user/drivers/u8g2/u8g2_font.c ****     uint16_t pos;
  58              		.loc 1 120 5 view .LVU6
 121:user/drivers/u8g2/u8g2_font.c ****     font += offset;
  59              		.loc 1 121 5 view .LVU7
  60              		.loc 1 121 10 is_stmt 0 view .LVU8
  61 0000 4218     		adds	r2, r0, r1
  62              	.LVL3:
 122:user/drivers/u8g2/u8g2_font.c ****     pos = u8x8_pgm_read( font );
  63              		.loc 1 122 5 is_stmt 1 view .LVU9
  64              		.loc 1 122 11 is_stmt 0 view .LVU10
  65 0002 435C     		ldrb	r3, [r0, r1]	@ zero_extendqisi2
  66              	.LVL4:
 123:user/drivers/u8g2/u8g2_font.c ****     font++;
  67              		.loc 1 123 5 is_stmt 1 view .LVU11
 124:user/drivers/u8g2/u8g2_font.c ****     pos <<= 8;
  68              		.loc 1 124 5 view .LVU12
 125:user/drivers/u8g2/u8g2_font.c ****     pos += u8x8_pgm_read( font);
  69              		.loc 1 125 5 view .LVU13
  70              		.loc 1 125 12 is_stmt 0 view .LVU14
  71 0004 5078     		ldrb	r0, [r2, #1]	@ zero_extendqisi2
  72              		.loc 1 125 9 view .LVU15
  73 0006 00EB0320 		add	r0, r0, r3, lsl #8
  74              	.LVL5:
 126:user/drivers/u8g2/u8g2_font.c ****     return pos;
  75              		.loc 1 126 5 is_stmt 1 view .LVU16
 127:user/drivers/u8g2/u8g2_font.c **** }
  76              		.loc 1 127 1 is_stmt 0 view .LVU17
  77 000a 80B2     		uxth	r0, r0
  78              		.loc 1 127 1 view .LVU18
  79 000c 7047     		bx	lr
  80              		.cfi_endproc
  81              	.LFE1:
  83              		.section	.text.u8g2_font_calc_vref_font,"ax",%progbits
  84              		.align	1
  85              		.global	u8g2_font_calc_vref_font
  86              		.syntax unified
  87              		.thumb
  88              		.thumb_func
  90              	u8g2_font_calc_vref_font:
  91              	.LVL6:
  92              	.LFB38:
 128:user/drivers/u8g2/u8g2_font.c **** 
 129:user/drivers/u8g2/u8g2_font.c **** /*========================================================================*/
 130:user/drivers/u8g2/u8g2_font.c **** /* new font format */
 131:user/drivers/u8g2/u8g2_font.c **** void u8g2_read_font_info(u8g2_font_info_t *font_info, const uint8_t *font)
 132:user/drivers/u8g2/u8g2_font.c **** {
 133:user/drivers/u8g2/u8g2_font.c ****   /* offset 0 */
 134:user/drivers/u8g2/u8g2_font.c ****   font_info->glyph_cnt = u8g2_font_get_byte(font, 0);
 135:user/drivers/u8g2/u8g2_font.c ****   font_info->bbx_mode = u8g2_font_get_byte(font, 1);
 136:user/drivers/u8g2/u8g2_font.c ****   font_info->bits_per_0 = u8g2_font_get_byte(font, 2);
 137:user/drivers/u8g2/u8g2_font.c ****   font_info->bits_per_1 = u8g2_font_get_byte(font, 3);
 138:user/drivers/u8g2/u8g2_font.c ****   
 139:user/drivers/u8g2/u8g2_font.c ****   /* offset 4 */
 140:user/drivers/u8g2/u8g2_font.c ****   font_info->bits_per_char_width = u8g2_font_get_byte(font, 4);
 141:user/drivers/u8g2/u8g2_font.c ****   font_info->bits_per_char_height = u8g2_font_get_byte(font, 5);
ARM GAS  /var/folders/21/t9g5rlb91ys800n5npymflf80000gn/T//ccT2Ngli.s 			page 5


 142:user/drivers/u8g2/u8g2_font.c ****   font_info->bits_per_char_x = u8g2_font_get_byte(font, 6);
 143:user/drivers/u8g2/u8g2_font.c ****   font_info->bits_per_char_y = u8g2_font_get_byte(font, 7);
 144:user/drivers/u8g2/u8g2_font.c ****   font_info->bits_per_delta_x = u8g2_font_get_byte(font, 8);
 145:user/drivers/u8g2/u8g2_font.c ****   
 146:user/drivers/u8g2/u8g2_font.c ****   /* offset 9 */
 147:user/drivers/u8g2/u8g2_font.c ****   font_info->max_char_width = u8g2_font_get_byte(font, 9);
 148:user/drivers/u8g2/u8g2_font.c ****   font_info->max_char_height = u8g2_font_get_byte(font, 10);
 149:user/drivers/u8g2/u8g2_font.c ****   font_info->x_offset = u8g2_font_get_byte(font, 11);
 150:user/drivers/u8g2/u8g2_font.c ****   font_info->y_offset = u8g2_font_get_byte(font, 12);
 151:user/drivers/u8g2/u8g2_font.c ****   
 152:user/drivers/u8g2/u8g2_font.c ****   /* offset 13 */
 153:user/drivers/u8g2/u8g2_font.c ****   font_info->ascent_A = u8g2_font_get_byte(font, 13);
 154:user/drivers/u8g2/u8g2_font.c ****   font_info->descent_g = u8g2_font_get_byte(font, 14);
 155:user/drivers/u8g2/u8g2_font.c ****   font_info->ascent_para = u8g2_font_get_byte(font, 15);
 156:user/drivers/u8g2/u8g2_font.c ****   font_info->descent_para = u8g2_font_get_byte(font, 16);
 157:user/drivers/u8g2/u8g2_font.c ****   
 158:user/drivers/u8g2/u8g2_font.c ****   /* offset 17 */
 159:user/drivers/u8g2/u8g2_font.c ****   font_info->start_pos_upper_A = u8g2_font_get_word(font, 17);
 160:user/drivers/u8g2/u8g2_font.c ****   font_info->start_pos_lower_a = u8g2_font_get_word(font, 19); 
 161:user/drivers/u8g2/u8g2_font.c ****   
 162:user/drivers/u8g2/u8g2_font.c ****   /* offset 21 */
 163:user/drivers/u8g2/u8g2_font.c **** #ifdef U8G2_WITH_UNICODE
 164:user/drivers/u8g2/u8g2_font.c ****   font_info->start_pos_unicode = u8g2_font_get_word(font, 21); 
 165:user/drivers/u8g2/u8g2_font.c **** #endif
 166:user/drivers/u8g2/u8g2_font.c **** }
 167:user/drivers/u8g2/u8g2_font.c **** 
 168:user/drivers/u8g2/u8g2_font.c **** 
 169:user/drivers/u8g2/u8g2_font.c **** /* calculate the overall length of the font, only used to create the picture for the google wiki */
 170:user/drivers/u8g2/u8g2_font.c **** size_t u8g2_GetFontSize(const uint8_t *font_arg)
 171:user/drivers/u8g2/u8g2_font.c **** {
 172:user/drivers/u8g2/u8g2_font.c ****   uint16_t e;
 173:user/drivers/u8g2/u8g2_font.c ****   const uint8_t *font = font_arg;
 174:user/drivers/u8g2/u8g2_font.c ****   font += U8G2_FONT_DATA_STRUCT_SIZE;
 175:user/drivers/u8g2/u8g2_font.c ****   
 176:user/drivers/u8g2/u8g2_font.c ****   for(;;)
 177:user/drivers/u8g2/u8g2_font.c ****   {
 178:user/drivers/u8g2/u8g2_font.c ****     if ( u8x8_pgm_read( font + 1 ) == 0 )
 179:user/drivers/u8g2/u8g2_font.c ****       break;
 180:user/drivers/u8g2/u8g2_font.c ****     font += u8x8_pgm_read( font + 1 );
 181:user/drivers/u8g2/u8g2_font.c ****   }
 182:user/drivers/u8g2/u8g2_font.c ****   
 183:user/drivers/u8g2/u8g2_font.c ****   /* continue with unicode section */
 184:user/drivers/u8g2/u8g2_font.c ****   font += 2;
 185:user/drivers/u8g2/u8g2_font.c **** 
 186:user/drivers/u8g2/u8g2_font.c ****   /* skip unicode lookup table */
 187:user/drivers/u8g2/u8g2_font.c ****   font += u8g2_font_get_word(font, 0);
 188:user/drivers/u8g2/u8g2_font.c ****   
 189:user/drivers/u8g2/u8g2_font.c ****   for(;;)
 190:user/drivers/u8g2/u8g2_font.c ****   {
 191:user/drivers/u8g2/u8g2_font.c ****     e = u8x8_pgm_read( font );
 192:user/drivers/u8g2/u8g2_font.c ****     e <<= 8;
 193:user/drivers/u8g2/u8g2_font.c ****     e |= u8x8_pgm_read( font + 1 );
 194:user/drivers/u8g2/u8g2_font.c ****     if ( e == 0 )
 195:user/drivers/u8g2/u8g2_font.c ****       break;
 196:user/drivers/u8g2/u8g2_font.c ****     font += u8x8_pgm_read( font + 2 );    
 197:user/drivers/u8g2/u8g2_font.c ****   }
 198:user/drivers/u8g2/u8g2_font.c ****   
ARM GAS  /var/folders/21/t9g5rlb91ys800n5npymflf80000gn/T//ccT2Ngli.s 			page 6


 199:user/drivers/u8g2/u8g2_font.c ****   return (font - font_arg) + 2;
 200:user/drivers/u8g2/u8g2_font.c **** }
 201:user/drivers/u8g2/u8g2_font.c **** 
 202:user/drivers/u8g2/u8g2_font.c **** /*========================================================================*/
 203:user/drivers/u8g2/u8g2_font.c **** /* u8g2 interface, font access */
 204:user/drivers/u8g2/u8g2_font.c **** 
 205:user/drivers/u8g2/u8g2_font.c **** uint8_t u8g2_GetFontBBXWidth(u8g2_t *u8g2)
 206:user/drivers/u8g2/u8g2_font.c **** {
 207:user/drivers/u8g2/u8g2_font.c ****   return u8g2->font_info.max_char_width;		/* new font info structure */
 208:user/drivers/u8g2/u8g2_font.c **** }
 209:user/drivers/u8g2/u8g2_font.c **** 
 210:user/drivers/u8g2/u8g2_font.c **** uint8_t u8g2_GetFontBBXHeight(u8g2_t *u8g2)
 211:user/drivers/u8g2/u8g2_font.c **** {
 212:user/drivers/u8g2/u8g2_font.c ****   return u8g2->font_info.max_char_height;		/* new font info structure */
 213:user/drivers/u8g2/u8g2_font.c **** }
 214:user/drivers/u8g2/u8g2_font.c **** 
 215:user/drivers/u8g2/u8g2_font.c **** int8_t u8g2_GetFontBBXOffX(u8g2_t *u8g2) U8G2_NOINLINE;
 216:user/drivers/u8g2/u8g2_font.c **** int8_t u8g2_GetFontBBXOffX(u8g2_t *u8g2)
 217:user/drivers/u8g2/u8g2_font.c **** {
 218:user/drivers/u8g2/u8g2_font.c ****   return u8g2->font_info.x_offset;		/* new font info structure */
 219:user/drivers/u8g2/u8g2_font.c **** }
 220:user/drivers/u8g2/u8g2_font.c **** 
 221:user/drivers/u8g2/u8g2_font.c **** int8_t u8g2_GetFontBBXOffY(u8g2_t *u8g2) U8G2_NOINLINE;
 222:user/drivers/u8g2/u8g2_font.c **** int8_t u8g2_GetFontBBXOffY(u8g2_t *u8g2)
 223:user/drivers/u8g2/u8g2_font.c **** {
 224:user/drivers/u8g2/u8g2_font.c ****   return u8g2->font_info.y_offset;		/* new font info structure */
 225:user/drivers/u8g2/u8g2_font.c **** }
 226:user/drivers/u8g2/u8g2_font.c **** 
 227:user/drivers/u8g2/u8g2_font.c **** uint8_t u8g2_GetFontCapitalAHeight(u8g2_t *u8g2) U8G2_NOINLINE; 
 228:user/drivers/u8g2/u8g2_font.c **** uint8_t u8g2_GetFontCapitalAHeight(u8g2_t *u8g2)
 229:user/drivers/u8g2/u8g2_font.c **** {
 230:user/drivers/u8g2/u8g2_font.c ****   return u8g2->font_info.ascent_A;		/* new font info structure */
 231:user/drivers/u8g2/u8g2_font.c **** }
 232:user/drivers/u8g2/u8g2_font.c **** 
 233:user/drivers/u8g2/u8g2_font.c **** /*========================================================================*/
 234:user/drivers/u8g2/u8g2_font.c **** /* glyph handling */
 235:user/drivers/u8g2/u8g2_font.c **** 
 236:user/drivers/u8g2/u8g2_font.c **** /* optimized */
 237:user/drivers/u8g2/u8g2_font.c **** uint8_t u8g2_font_decode_get_unsigned_bits(u8g2_font_decode_t *f, uint8_t cnt) 
 238:user/drivers/u8g2/u8g2_font.c **** {
 239:user/drivers/u8g2/u8g2_font.c ****   uint8_t val;
 240:user/drivers/u8g2/u8g2_font.c ****   uint8_t bit_pos = f->decode_bit_pos;
 241:user/drivers/u8g2/u8g2_font.c ****   uint8_t bit_pos_plus_cnt;
 242:user/drivers/u8g2/u8g2_font.c ****   
 243:user/drivers/u8g2/u8g2_font.c ****   //val = *(f->decode_ptr);
 244:user/drivers/u8g2/u8g2_font.c ****   val = u8x8_pgm_read( f->decode_ptr );  
 245:user/drivers/u8g2/u8g2_font.c ****   
 246:user/drivers/u8g2/u8g2_font.c ****   val >>= bit_pos;
 247:user/drivers/u8g2/u8g2_font.c ****   bit_pos_plus_cnt = bit_pos;
 248:user/drivers/u8g2/u8g2_font.c ****   bit_pos_plus_cnt += cnt;
 249:user/drivers/u8g2/u8g2_font.c ****   if ( bit_pos_plus_cnt >= 8 )
 250:user/drivers/u8g2/u8g2_font.c ****   {
 251:user/drivers/u8g2/u8g2_font.c ****     uint8_t s = 8;
 252:user/drivers/u8g2/u8g2_font.c ****     s -= bit_pos;
 253:user/drivers/u8g2/u8g2_font.c ****     f->decode_ptr++;
 254:user/drivers/u8g2/u8g2_font.c ****     //val |= *(f->decode_ptr) << (8-bit_pos);
 255:user/drivers/u8g2/u8g2_font.c ****     val |= u8x8_pgm_read( f->decode_ptr ) << (s);
ARM GAS  /var/folders/21/t9g5rlb91ys800n5npymflf80000gn/T//ccT2Ngli.s 			page 7


 256:user/drivers/u8g2/u8g2_font.c ****     //bit_pos -= 8;
 257:user/drivers/u8g2/u8g2_font.c ****     bit_pos_plus_cnt -= 8;
 258:user/drivers/u8g2/u8g2_font.c ****   }
 259:user/drivers/u8g2/u8g2_font.c ****   val &= (1U<<cnt)-1;
 260:user/drivers/u8g2/u8g2_font.c ****   //bit_pos += cnt;
 261:user/drivers/u8g2/u8g2_font.c ****   
 262:user/drivers/u8g2/u8g2_font.c ****   f->decode_bit_pos = bit_pos_plus_cnt;
 263:user/drivers/u8g2/u8g2_font.c ****   return val;
 264:user/drivers/u8g2/u8g2_font.c **** }
 265:user/drivers/u8g2/u8g2_font.c **** 
 266:user/drivers/u8g2/u8g2_font.c **** 
 267:user/drivers/u8g2/u8g2_font.c **** /*
 268:user/drivers/u8g2/u8g2_font.c ****     2 bit --> cnt = 2
 269:user/drivers/u8g2/u8g2_font.c ****       -2,-1,0. 1
 270:user/drivers/u8g2/u8g2_font.c **** 
 271:user/drivers/u8g2/u8g2_font.c ****     3 bit --> cnt = 3
 272:user/drivers/u8g2/u8g2_font.c ****       -2,-1,0. 1
 273:user/drivers/u8g2/u8g2_font.c ****       -4,-3,-2,-1,0,1,2,3
 274:user/drivers/u8g2/u8g2_font.c **** 
 275:user/drivers/u8g2/u8g2_font.c ****       if ( x < 0 )
 276:user/drivers/u8g2/u8g2_font.c **** 	r = bits(x-1)+1;
 277:user/drivers/u8g2/u8g2_font.c ****     else
 278:user/drivers/u8g2/u8g2_font.c **** 	r = bits(x)+1;
 279:user/drivers/u8g2/u8g2_font.c **** 
 280:user/drivers/u8g2/u8g2_font.c **** */
 281:user/drivers/u8g2/u8g2_font.c **** /* optimized */
 282:user/drivers/u8g2/u8g2_font.c **** int8_t u8g2_font_decode_get_signed_bits(u8g2_font_decode_t *f, uint8_t cnt)
 283:user/drivers/u8g2/u8g2_font.c **** {
 284:user/drivers/u8g2/u8g2_font.c ****   int8_t v, d;
 285:user/drivers/u8g2/u8g2_font.c ****   v = (int8_t)u8g2_font_decode_get_unsigned_bits(f, cnt);
 286:user/drivers/u8g2/u8g2_font.c ****   d = 1;
 287:user/drivers/u8g2/u8g2_font.c ****   cnt--;
 288:user/drivers/u8g2/u8g2_font.c ****   d <<= cnt;
 289:user/drivers/u8g2/u8g2_font.c ****   v -= d;
 290:user/drivers/u8g2/u8g2_font.c ****   return v;
 291:user/drivers/u8g2/u8g2_font.c ****   //return (int8_t)u8g2_font_decode_get_unsigned_bits(f, cnt) - ((1<<cnt)>>1);
 292:user/drivers/u8g2/u8g2_font.c **** }
 293:user/drivers/u8g2/u8g2_font.c **** 
 294:user/drivers/u8g2/u8g2_font.c **** 
 295:user/drivers/u8g2/u8g2_font.c **** #ifdef U8G2_WITH_FONT_ROTATION
 296:user/drivers/u8g2/u8g2_font.c **** u8g2_uint_t u8g2_add_vector_y(u8g2_uint_t dy, int8_t x, int8_t y, uint8_t dir)
 297:user/drivers/u8g2/u8g2_font.c **** {
 298:user/drivers/u8g2/u8g2_font.c ****   switch(dir)
 299:user/drivers/u8g2/u8g2_font.c ****   {
 300:user/drivers/u8g2/u8g2_font.c ****     case 0:
 301:user/drivers/u8g2/u8g2_font.c ****       dy += y;
 302:user/drivers/u8g2/u8g2_font.c ****       break;
 303:user/drivers/u8g2/u8g2_font.c ****     case 1:
 304:user/drivers/u8g2/u8g2_font.c ****       dy += x;
 305:user/drivers/u8g2/u8g2_font.c ****       break;
 306:user/drivers/u8g2/u8g2_font.c ****     case 2:
 307:user/drivers/u8g2/u8g2_font.c ****       dy -= y;
 308:user/drivers/u8g2/u8g2_font.c ****       break;
 309:user/drivers/u8g2/u8g2_font.c ****     default:
 310:user/drivers/u8g2/u8g2_font.c ****       dy -= x;
 311:user/drivers/u8g2/u8g2_font.c ****       break;      
 312:user/drivers/u8g2/u8g2_font.c ****   }
ARM GAS  /var/folders/21/t9g5rlb91ys800n5npymflf80000gn/T//ccT2Ngli.s 			page 8


 313:user/drivers/u8g2/u8g2_font.c ****   return dy;
 314:user/drivers/u8g2/u8g2_font.c **** }
 315:user/drivers/u8g2/u8g2_font.c **** 
 316:user/drivers/u8g2/u8g2_font.c **** u8g2_uint_t u8g2_add_vector_x(u8g2_uint_t dx, int8_t x, int8_t y, uint8_t dir)
 317:user/drivers/u8g2/u8g2_font.c **** {
 318:user/drivers/u8g2/u8g2_font.c ****   switch(dir)
 319:user/drivers/u8g2/u8g2_font.c ****   {
 320:user/drivers/u8g2/u8g2_font.c ****     case 0:
 321:user/drivers/u8g2/u8g2_font.c ****       dx += x;
 322:user/drivers/u8g2/u8g2_font.c ****       break;
 323:user/drivers/u8g2/u8g2_font.c ****     case 1:
 324:user/drivers/u8g2/u8g2_font.c ****       dx -= y;
 325:user/drivers/u8g2/u8g2_font.c ****       break;
 326:user/drivers/u8g2/u8g2_font.c ****     case 2:
 327:user/drivers/u8g2/u8g2_font.c ****       dx -= x;
 328:user/drivers/u8g2/u8g2_font.c ****       break;
 329:user/drivers/u8g2/u8g2_font.c ****     default:
 330:user/drivers/u8g2/u8g2_font.c ****       dx += y;
 331:user/drivers/u8g2/u8g2_font.c ****       break;      
 332:user/drivers/u8g2/u8g2_font.c ****   }
 333:user/drivers/u8g2/u8g2_font.c ****   return dx;
 334:user/drivers/u8g2/u8g2_font.c **** }
 335:user/drivers/u8g2/u8g2_font.c **** 
 336:user/drivers/u8g2/u8g2_font.c **** /*
 337:user/drivers/u8g2/u8g2_font.c **** // does not make sense, 50 bytes more required on avr
 338:user/drivers/u8g2/u8g2_font.c **** void u8g2_add_vector(u8g2_uint_t *xp, u8g2_uint_t *yp, int8_t x, int8_t y, uint8_t dir)
 339:user/drivers/u8g2/u8g2_font.c **** {
 340:user/drivers/u8g2/u8g2_font.c ****   u8g2_uint_t x_ = *xp;
 341:user/drivers/u8g2/u8g2_font.c ****   u8g2_uint_t y_ = *yp;
 342:user/drivers/u8g2/u8g2_font.c ****   switch(dir)
 343:user/drivers/u8g2/u8g2_font.c ****   {
 344:user/drivers/u8g2/u8g2_font.c ****     case 0:
 345:user/drivers/u8g2/u8g2_font.c ****       y_ += y;
 346:user/drivers/u8g2/u8g2_font.c ****       x_ += x;
 347:user/drivers/u8g2/u8g2_font.c ****       break;
 348:user/drivers/u8g2/u8g2_font.c ****     case 1:
 349:user/drivers/u8g2/u8g2_font.c ****       y_ += x;
 350:user/drivers/u8g2/u8g2_font.c ****       x_ -= y;
 351:user/drivers/u8g2/u8g2_font.c ****       break;
 352:user/drivers/u8g2/u8g2_font.c ****     case 2:
 353:user/drivers/u8g2/u8g2_font.c ****       y_ -= y;
 354:user/drivers/u8g2/u8g2_font.c ****       x_ -= x;
 355:user/drivers/u8g2/u8g2_font.c ****       break;
 356:user/drivers/u8g2/u8g2_font.c ****     default:
 357:user/drivers/u8g2/u8g2_font.c ****       y_ -= x;
 358:user/drivers/u8g2/u8g2_font.c ****       x_ += y;
 359:user/drivers/u8g2/u8g2_font.c ****       break;      
 360:user/drivers/u8g2/u8g2_font.c ****   }
 361:user/drivers/u8g2/u8g2_font.c ****   *xp = x_;
 362:user/drivers/u8g2/u8g2_font.c ****   *yp = y_;
 363:user/drivers/u8g2/u8g2_font.c **** }
 364:user/drivers/u8g2/u8g2_font.c **** */
 365:user/drivers/u8g2/u8g2_font.c **** #endif
 366:user/drivers/u8g2/u8g2_font.c **** 
 367:user/drivers/u8g2/u8g2_font.c **** 
 368:user/drivers/u8g2/u8g2_font.c **** 
 369:user/drivers/u8g2/u8g2_font.c **** /*
ARM GAS  /var/folders/21/t9g5rlb91ys800n5npymflf80000gn/T//ccT2Ngli.s 			page 9


 370:user/drivers/u8g2/u8g2_font.c ****   Description:
 371:user/drivers/u8g2/u8g2_font.c ****     Draw a run-length area of the glyph. "len" can have any size and the line
 372:user/drivers/u8g2/u8g2_font.c ****     length has to be wrapped at the glyph border.
 373:user/drivers/u8g2/u8g2_font.c ****   Args:
 374:user/drivers/u8g2/u8g2_font.c ****     len: 					Length of the line
 375:user/drivers/u8g2/u8g2_font.c ****     is_foreground			foreground/background?
 376:user/drivers/u8g2/u8g2_font.c ****     u8g2->font_decode.target_x		X position
 377:user/drivers/u8g2/u8g2_font.c ****     u8g2->font_decode.target_y		Y position
 378:user/drivers/u8g2/u8g2_font.c ****     u8g2->font_decode.is_transparent	Transparent mode
 379:user/drivers/u8g2/u8g2_font.c ****   Return:
 380:user/drivers/u8g2/u8g2_font.c ****     -
 381:user/drivers/u8g2/u8g2_font.c ****   Calls:
 382:user/drivers/u8g2/u8g2_font.c ****     u8g2_Draw90Line()
 383:user/drivers/u8g2/u8g2_font.c ****   Called by:
 384:user/drivers/u8g2/u8g2_font.c ****     u8g2_font_decode_glyph()
 385:user/drivers/u8g2/u8g2_font.c **** */
 386:user/drivers/u8g2/u8g2_font.c **** /* optimized */
 387:user/drivers/u8g2/u8g2_font.c **** void u8g2_font_decode_len(u8g2_t *u8g2, uint8_t len, uint8_t is_foreground)
 388:user/drivers/u8g2/u8g2_font.c **** {
 389:user/drivers/u8g2/u8g2_font.c ****   uint8_t cnt;	/* total number of remaining pixels, which have to be drawn */
 390:user/drivers/u8g2/u8g2_font.c ****   uint8_t rem; 	/* remaining pixel to the right edge of the glyph */
 391:user/drivers/u8g2/u8g2_font.c ****   uint8_t current;	/* number of pixels, which need to be drawn for the draw procedure */
 392:user/drivers/u8g2/u8g2_font.c ****     /* current is either equal to cnt or equal to rem */
 393:user/drivers/u8g2/u8g2_font.c ****   
 394:user/drivers/u8g2/u8g2_font.c ****   /* local coordinates of the glyph */
 395:user/drivers/u8g2/u8g2_font.c ****   uint8_t lx,ly;
 396:user/drivers/u8g2/u8g2_font.c ****   
 397:user/drivers/u8g2/u8g2_font.c ****   /* target position on the screen */
 398:user/drivers/u8g2/u8g2_font.c ****   u8g2_uint_t x, y;
 399:user/drivers/u8g2/u8g2_font.c ****   
 400:user/drivers/u8g2/u8g2_font.c ****   u8g2_font_decode_t *decode = &(u8g2->font_decode);
 401:user/drivers/u8g2/u8g2_font.c ****   
 402:user/drivers/u8g2/u8g2_font.c ****   cnt = len;
 403:user/drivers/u8g2/u8g2_font.c ****   
 404:user/drivers/u8g2/u8g2_font.c ****   /* get the local position */
 405:user/drivers/u8g2/u8g2_font.c ****   lx = decode->x;
 406:user/drivers/u8g2/u8g2_font.c ****   ly = decode->y;
 407:user/drivers/u8g2/u8g2_font.c ****   
 408:user/drivers/u8g2/u8g2_font.c ****   for(;;)
 409:user/drivers/u8g2/u8g2_font.c ****   {
 410:user/drivers/u8g2/u8g2_font.c ****     /* calculate the number of pixel to the right edge of the glyph */
 411:user/drivers/u8g2/u8g2_font.c ****     rem = decode->glyph_width;
 412:user/drivers/u8g2/u8g2_font.c ****     rem -= lx;
 413:user/drivers/u8g2/u8g2_font.c ****     
 414:user/drivers/u8g2/u8g2_font.c ****     /* calculate how many pixel to draw. This is either to the right edge */
 415:user/drivers/u8g2/u8g2_font.c ****     /* or lesser, if not enough pixel are left */
 416:user/drivers/u8g2/u8g2_font.c ****     current = rem;
 417:user/drivers/u8g2/u8g2_font.c ****     if ( cnt < rem )
 418:user/drivers/u8g2/u8g2_font.c ****       current = cnt;
 419:user/drivers/u8g2/u8g2_font.c ****     
 420:user/drivers/u8g2/u8g2_font.c ****     
 421:user/drivers/u8g2/u8g2_font.c ****     /* now draw the line, but apply the rotation around the glyph target position */
 422:user/drivers/u8g2/u8g2_font.c ****     //u8g2_font_decode_draw_pixel(u8g2, lx,ly,current, is_foreground);
 423:user/drivers/u8g2/u8g2_font.c **** 
 424:user/drivers/u8g2/u8g2_font.c ****     /* get target position */
 425:user/drivers/u8g2/u8g2_font.c ****     x = decode->target_x;
 426:user/drivers/u8g2/u8g2_font.c ****     y = decode->target_y;
ARM GAS  /var/folders/21/t9g5rlb91ys800n5npymflf80000gn/T//ccT2Ngli.s 			page 10


 427:user/drivers/u8g2/u8g2_font.c **** 
 428:user/drivers/u8g2/u8g2_font.c ****     /* apply rotation */
 429:user/drivers/u8g2/u8g2_font.c **** #ifdef U8G2_WITH_FONT_ROTATION
 430:user/drivers/u8g2/u8g2_font.c ****     
 431:user/drivers/u8g2/u8g2_font.c ****     x = u8g2_add_vector_x(x, lx, ly, decode->dir);
 432:user/drivers/u8g2/u8g2_font.c ****     y = u8g2_add_vector_y(y, lx, ly, decode->dir);
 433:user/drivers/u8g2/u8g2_font.c ****     
 434:user/drivers/u8g2/u8g2_font.c ****     //u8g2_add_vector(&x, &y, lx, ly, decode->dir);
 435:user/drivers/u8g2/u8g2_font.c ****     
 436:user/drivers/u8g2/u8g2_font.c **** #else
 437:user/drivers/u8g2/u8g2_font.c ****     x += lx;
 438:user/drivers/u8g2/u8g2_font.c ****     y += ly;
 439:user/drivers/u8g2/u8g2_font.c **** #endif
 440:user/drivers/u8g2/u8g2_font.c ****     
 441:user/drivers/u8g2/u8g2_font.c ****     /* draw foreground and background (if required) */
 442:user/drivers/u8g2/u8g2_font.c ****     if ( is_foreground )
 443:user/drivers/u8g2/u8g2_font.c ****     {
 444:user/drivers/u8g2/u8g2_font.c ****       u8g2->draw_color = decode->fg_color;			/* draw_color will be restored later */
 445:user/drivers/u8g2/u8g2_font.c ****       u8g2_DrawHVLine(u8g2, 
 446:user/drivers/u8g2/u8g2_font.c **** 	x, 
 447:user/drivers/u8g2/u8g2_font.c **** 	y, 
 448:user/drivers/u8g2/u8g2_font.c **** 	current, 
 449:user/drivers/u8g2/u8g2_font.c **** #ifdef U8G2_WITH_FONT_ROTATION
 450:user/drivers/u8g2/u8g2_font.c **** 	/* dir */ decode->dir
 451:user/drivers/u8g2/u8g2_font.c **** #else
 452:user/drivers/u8g2/u8g2_font.c **** 	0
 453:user/drivers/u8g2/u8g2_font.c **** #endif
 454:user/drivers/u8g2/u8g2_font.c ****       );
 455:user/drivers/u8g2/u8g2_font.c ****     }
 456:user/drivers/u8g2/u8g2_font.c ****     else if ( decode->is_transparent == 0 )    
 457:user/drivers/u8g2/u8g2_font.c ****     {
 458:user/drivers/u8g2/u8g2_font.c ****       u8g2->draw_color = decode->bg_color;			/* draw_color will be restored later */
 459:user/drivers/u8g2/u8g2_font.c ****       u8g2_DrawHVLine(u8g2, 
 460:user/drivers/u8g2/u8g2_font.c **** 	x, 
 461:user/drivers/u8g2/u8g2_font.c **** 	y, 
 462:user/drivers/u8g2/u8g2_font.c **** 	current, 
 463:user/drivers/u8g2/u8g2_font.c **** #ifdef U8G2_WITH_FONT_ROTATION
 464:user/drivers/u8g2/u8g2_font.c **** 	/* dir */ decode->dir
 465:user/drivers/u8g2/u8g2_font.c **** #else
 466:user/drivers/u8g2/u8g2_font.c **** 	0
 467:user/drivers/u8g2/u8g2_font.c **** #endif
 468:user/drivers/u8g2/u8g2_font.c ****       );   
 469:user/drivers/u8g2/u8g2_font.c ****     }
 470:user/drivers/u8g2/u8g2_font.c ****     
 471:user/drivers/u8g2/u8g2_font.c ****     /* check, whether the end of the run length code has been reached */
 472:user/drivers/u8g2/u8g2_font.c ****     if ( cnt < rem )
 473:user/drivers/u8g2/u8g2_font.c ****       break;
 474:user/drivers/u8g2/u8g2_font.c ****     cnt -= rem;
 475:user/drivers/u8g2/u8g2_font.c ****     lx = 0;
 476:user/drivers/u8g2/u8g2_font.c ****     ly++;
 477:user/drivers/u8g2/u8g2_font.c ****   }
 478:user/drivers/u8g2/u8g2_font.c ****   lx += cnt;
 479:user/drivers/u8g2/u8g2_font.c ****   
 480:user/drivers/u8g2/u8g2_font.c ****   decode->x = lx;
 481:user/drivers/u8g2/u8g2_font.c ****   decode->y = ly;  
 482:user/drivers/u8g2/u8g2_font.c **** }
 483:user/drivers/u8g2/u8g2_font.c **** 
ARM GAS  /var/folders/21/t9g5rlb91ys800n5npymflf80000gn/T//ccT2Ngli.s 			page 11


 484:user/drivers/u8g2/u8g2_font.c **** 
 485:user/drivers/u8g2/u8g2_font.c **** void u8g2_font_2x_decode_len(u8g2_t *u8g2, uint8_t len, uint8_t is_foreground)
 486:user/drivers/u8g2/u8g2_font.c **** {
 487:user/drivers/u8g2/u8g2_font.c ****   uint8_t cnt;	/* total number of remaining pixels, which have to be drawn */
 488:user/drivers/u8g2/u8g2_font.c ****   uint8_t rem; 	/* remaining pixel to the right edge of the glyph */
 489:user/drivers/u8g2/u8g2_font.c ****   uint8_t current;	/* number of pixels, which need to be drawn for the draw procedure */
 490:user/drivers/u8g2/u8g2_font.c ****     /* current is either equal to cnt or equal to rem */
 491:user/drivers/u8g2/u8g2_font.c ****   
 492:user/drivers/u8g2/u8g2_font.c ****   /* local coordinates of the glyph */
 493:user/drivers/u8g2/u8g2_font.c ****   uint8_t lx,ly;
 494:user/drivers/u8g2/u8g2_font.c ****   
 495:user/drivers/u8g2/u8g2_font.c ****   /* target position on the screen */
 496:user/drivers/u8g2/u8g2_font.c ****   u8g2_uint_t x, y;
 497:user/drivers/u8g2/u8g2_font.c ****   
 498:user/drivers/u8g2/u8g2_font.c ****   u8g2_font_decode_t *decode = &(u8g2->font_decode);
 499:user/drivers/u8g2/u8g2_font.c ****   
 500:user/drivers/u8g2/u8g2_font.c ****   cnt = len;
 501:user/drivers/u8g2/u8g2_font.c ****   
 502:user/drivers/u8g2/u8g2_font.c ****   /* get the local position */
 503:user/drivers/u8g2/u8g2_font.c ****   lx = decode->x;
 504:user/drivers/u8g2/u8g2_font.c ****   ly = decode->y;
 505:user/drivers/u8g2/u8g2_font.c ****   
 506:user/drivers/u8g2/u8g2_font.c ****   for(;;)
 507:user/drivers/u8g2/u8g2_font.c ****   {
 508:user/drivers/u8g2/u8g2_font.c ****     /* calculate the number of pixel to the right edge of the glyph */
 509:user/drivers/u8g2/u8g2_font.c ****     rem = decode->glyph_width;
 510:user/drivers/u8g2/u8g2_font.c ****     rem -= lx;
 511:user/drivers/u8g2/u8g2_font.c ****     
 512:user/drivers/u8g2/u8g2_font.c ****     /* calculate how many pixel to draw. This is either to the right edge */
 513:user/drivers/u8g2/u8g2_font.c ****     /* or lesser, if not enough pixel are left */
 514:user/drivers/u8g2/u8g2_font.c ****     current = rem;
 515:user/drivers/u8g2/u8g2_font.c ****     if ( cnt < rem )
 516:user/drivers/u8g2/u8g2_font.c ****       current = cnt;
 517:user/drivers/u8g2/u8g2_font.c ****     
 518:user/drivers/u8g2/u8g2_font.c ****     
 519:user/drivers/u8g2/u8g2_font.c ****     /* now draw the line, but apply the rotation around the glyph target position */
 520:user/drivers/u8g2/u8g2_font.c ****     //u8g2_font_decode_draw_pixel(u8g2, lx,ly,current, is_foreground);
 521:user/drivers/u8g2/u8g2_font.c **** 
 522:user/drivers/u8g2/u8g2_font.c ****     /* get target position */
 523:user/drivers/u8g2/u8g2_font.c ****     x = decode->target_x;
 524:user/drivers/u8g2/u8g2_font.c ****     y = decode->target_y;
 525:user/drivers/u8g2/u8g2_font.c **** 
 526:user/drivers/u8g2/u8g2_font.c ****     x += lx*2;
 527:user/drivers/u8g2/u8g2_font.c ****     y += ly*2;
 528:user/drivers/u8g2/u8g2_font.c ****     
 529:user/drivers/u8g2/u8g2_font.c ****     /* draw foreground and background (if required) */
 530:user/drivers/u8g2/u8g2_font.c ****     if ( is_foreground )
 531:user/drivers/u8g2/u8g2_font.c ****     {
 532:user/drivers/u8g2/u8g2_font.c ****       u8g2->draw_color = decode->fg_color;			/* draw_color will be restored later */
 533:user/drivers/u8g2/u8g2_font.c ****       u8g2_DrawHVLine(u8g2, 
 534:user/drivers/u8g2/u8g2_font.c **** 	x, 
 535:user/drivers/u8g2/u8g2_font.c **** 	y, 
 536:user/drivers/u8g2/u8g2_font.c **** 	current*2, 
 537:user/drivers/u8g2/u8g2_font.c **** 	0
 538:user/drivers/u8g2/u8g2_font.c ****       );
 539:user/drivers/u8g2/u8g2_font.c ****       u8g2_DrawHVLine(u8g2, 
 540:user/drivers/u8g2/u8g2_font.c **** 	x, 
ARM GAS  /var/folders/21/t9g5rlb91ys800n5npymflf80000gn/T//ccT2Ngli.s 			page 12


 541:user/drivers/u8g2/u8g2_font.c **** 	y+1, 
 542:user/drivers/u8g2/u8g2_font.c **** 	current*2, 
 543:user/drivers/u8g2/u8g2_font.c **** 	0
 544:user/drivers/u8g2/u8g2_font.c ****       );
 545:user/drivers/u8g2/u8g2_font.c ****     }
 546:user/drivers/u8g2/u8g2_font.c ****     else if ( decode->is_transparent == 0 )    
 547:user/drivers/u8g2/u8g2_font.c ****     {
 548:user/drivers/u8g2/u8g2_font.c ****       u8g2->draw_color = decode->bg_color;			/* draw_color will be restored later */
 549:user/drivers/u8g2/u8g2_font.c ****       u8g2_DrawHVLine(u8g2, 
 550:user/drivers/u8g2/u8g2_font.c **** 	x, 
 551:user/drivers/u8g2/u8g2_font.c **** 	y, 
 552:user/drivers/u8g2/u8g2_font.c **** 	current*2, 
 553:user/drivers/u8g2/u8g2_font.c **** 	0
 554:user/drivers/u8g2/u8g2_font.c ****       );   
 555:user/drivers/u8g2/u8g2_font.c ****       u8g2_DrawHVLine(u8g2, 
 556:user/drivers/u8g2/u8g2_font.c **** 	x, 
 557:user/drivers/u8g2/u8g2_font.c **** 	y+1, 
 558:user/drivers/u8g2/u8g2_font.c **** 	current*2, 
 559:user/drivers/u8g2/u8g2_font.c **** 	0
 560:user/drivers/u8g2/u8g2_font.c ****       );   
 561:user/drivers/u8g2/u8g2_font.c ****     }
 562:user/drivers/u8g2/u8g2_font.c ****     
 563:user/drivers/u8g2/u8g2_font.c ****     /* check, whether the end of the run length code has been reached */
 564:user/drivers/u8g2/u8g2_font.c ****     if ( cnt < rem )
 565:user/drivers/u8g2/u8g2_font.c ****       break;
 566:user/drivers/u8g2/u8g2_font.c ****     cnt -= rem;
 567:user/drivers/u8g2/u8g2_font.c ****     lx = 0;
 568:user/drivers/u8g2/u8g2_font.c ****     ly++;
 569:user/drivers/u8g2/u8g2_font.c ****   }
 570:user/drivers/u8g2/u8g2_font.c ****   lx += cnt;
 571:user/drivers/u8g2/u8g2_font.c ****   
 572:user/drivers/u8g2/u8g2_font.c ****   decode->x = lx;
 573:user/drivers/u8g2/u8g2_font.c ****   decode->y = ly;
 574:user/drivers/u8g2/u8g2_font.c ****   
 575:user/drivers/u8g2/u8g2_font.c **** }
 576:user/drivers/u8g2/u8g2_font.c **** 
 577:user/drivers/u8g2/u8g2_font.c **** 
 578:user/drivers/u8g2/u8g2_font.c **** static void u8g2_font_setup_decode(u8g2_t *u8g2, const uint8_t *glyph_data)
 579:user/drivers/u8g2/u8g2_font.c **** {
 580:user/drivers/u8g2/u8g2_font.c ****   u8g2_font_decode_t *decode = &(u8g2->font_decode);
 581:user/drivers/u8g2/u8g2_font.c ****   decode->decode_ptr = glyph_data;
 582:user/drivers/u8g2/u8g2_font.c ****   decode->decode_bit_pos = 0;
 583:user/drivers/u8g2/u8g2_font.c ****   
 584:user/drivers/u8g2/u8g2_font.c ****   /* 8 Nov 2015, this is already done in the glyph data search procedure */
 585:user/drivers/u8g2/u8g2_font.c ****   /*
 586:user/drivers/u8g2/u8g2_font.c ****   decode->decode_ptr += 1;
 587:user/drivers/u8g2/u8g2_font.c ****   decode->decode_ptr += 1;
 588:user/drivers/u8g2/u8g2_font.c ****   */
 589:user/drivers/u8g2/u8g2_font.c ****   
 590:user/drivers/u8g2/u8g2_font.c ****   decode->glyph_width = u8g2_font_decode_get_unsigned_bits(decode, u8g2->font_info.bits_per_char_wi
 591:user/drivers/u8g2/u8g2_font.c ****   decode->glyph_height = u8g2_font_decode_get_unsigned_bits(decode,u8g2->font_info.bits_per_char_he
 592:user/drivers/u8g2/u8g2_font.c ****   
 593:user/drivers/u8g2/u8g2_font.c ****   decode->fg_color = u8g2->draw_color;
 594:user/drivers/u8g2/u8g2_font.c ****   decode->bg_color = (decode->fg_color == 0 ? 1 : 0);
 595:user/drivers/u8g2/u8g2_font.c **** }
 596:user/drivers/u8g2/u8g2_font.c **** 
 597:user/drivers/u8g2/u8g2_font.c **** 
ARM GAS  /var/folders/21/t9g5rlb91ys800n5npymflf80000gn/T//ccT2Ngli.s 			page 13


 598:user/drivers/u8g2/u8g2_font.c **** /*
 599:user/drivers/u8g2/u8g2_font.c ****   Description:
 600:user/drivers/u8g2/u8g2_font.c ****     Decode and draw a glyph.
 601:user/drivers/u8g2/u8g2_font.c ****   Args:
 602:user/drivers/u8g2/u8g2_font.c ****     glyph_data: 					Pointer to the compressed glyph data of the font
 603:user/drivers/u8g2/u8g2_font.c ****     u8g2->font_decode.target_x		X position
 604:user/drivers/u8g2/u8g2_font.c ****     u8g2->font_decode.target_y		Y position
 605:user/drivers/u8g2/u8g2_font.c ****     u8g2->font_decode.is_transparent	Transparent mode
 606:user/drivers/u8g2/u8g2_font.c ****   Return:
 607:user/drivers/u8g2/u8g2_font.c ****     Width (delta x advance) of the glyph.
 608:user/drivers/u8g2/u8g2_font.c ****   Calls:
 609:user/drivers/u8g2/u8g2_font.c ****     u8g2_font_decode_len()
 610:user/drivers/u8g2/u8g2_font.c **** */
 611:user/drivers/u8g2/u8g2_font.c **** /* optimized */
 612:user/drivers/u8g2/u8g2_font.c **** int8_t u8g2_font_decode_glyph(u8g2_t *u8g2, const uint8_t *glyph_data)
 613:user/drivers/u8g2/u8g2_font.c **** {
 614:user/drivers/u8g2/u8g2_font.c ****   uint8_t a, b;
 615:user/drivers/u8g2/u8g2_font.c ****   int8_t x, y;
 616:user/drivers/u8g2/u8g2_font.c ****   int8_t d;
 617:user/drivers/u8g2/u8g2_font.c ****   int8_t h;
 618:user/drivers/u8g2/u8g2_font.c ****   u8g2_font_decode_t *decode = &(u8g2->font_decode);
 619:user/drivers/u8g2/u8g2_font.c ****     
 620:user/drivers/u8g2/u8g2_font.c ****   u8g2_font_setup_decode(u8g2, glyph_data);     /* set values in u8g2->font_decode data structure *
 621:user/drivers/u8g2/u8g2_font.c ****   h = u8g2->font_decode.glyph_height;
 622:user/drivers/u8g2/u8g2_font.c ****   
 623:user/drivers/u8g2/u8g2_font.c ****   x = u8g2_font_decode_get_signed_bits(decode, u8g2->font_info.bits_per_char_x);
 624:user/drivers/u8g2/u8g2_font.c ****   y = u8g2_font_decode_get_signed_bits(decode, u8g2->font_info.bits_per_char_y);
 625:user/drivers/u8g2/u8g2_font.c ****   d = u8g2_font_decode_get_signed_bits(decode, u8g2->font_info.bits_per_delta_x);
 626:user/drivers/u8g2/u8g2_font.c ****   
 627:user/drivers/u8g2/u8g2_font.c ****   if ( decode->glyph_width > 0 )
 628:user/drivers/u8g2/u8g2_font.c ****   {
 629:user/drivers/u8g2/u8g2_font.c **** #ifdef U8G2_WITH_FONT_ROTATION
 630:user/drivers/u8g2/u8g2_font.c ****     decode->target_x = u8g2_add_vector_x(decode->target_x, x, -(h+y), decode->dir);
 631:user/drivers/u8g2/u8g2_font.c ****     decode->target_y = u8g2_add_vector_y(decode->target_y, x, -(h+y), decode->dir);
 632:user/drivers/u8g2/u8g2_font.c ****     
 633:user/drivers/u8g2/u8g2_font.c ****     //u8g2_add_vector(&(decode->target_x), &(decode->target_y), x, -(h+y), decode->dir);
 634:user/drivers/u8g2/u8g2_font.c **** 
 635:user/drivers/u8g2/u8g2_font.c **** #else
 636:user/drivers/u8g2/u8g2_font.c ****     decode->target_x += x;
 637:user/drivers/u8g2/u8g2_font.c ****     decode->target_y -= h+y;
 638:user/drivers/u8g2/u8g2_font.c **** #endif
 639:user/drivers/u8g2/u8g2_font.c ****     //u8g2_add_vector(&(decode->target_x), &(decode->target_y), x, -(h+y), decode->dir);
 640:user/drivers/u8g2/u8g2_font.c **** 
 641:user/drivers/u8g2/u8g2_font.c **** #ifdef U8G2_WITH_INTERSECTION
 642:user/drivers/u8g2/u8g2_font.c ****     {
 643:user/drivers/u8g2/u8g2_font.c ****       u8g2_uint_t x0, x1, y0, y1;
 644:user/drivers/u8g2/u8g2_font.c ****       x0 = decode->target_x;
 645:user/drivers/u8g2/u8g2_font.c ****       y0 = decode->target_y;
 646:user/drivers/u8g2/u8g2_font.c ****       x1 = x0;
 647:user/drivers/u8g2/u8g2_font.c ****       y1 = y0;
 648:user/drivers/u8g2/u8g2_font.c ****       
 649:user/drivers/u8g2/u8g2_font.c **** #ifdef U8G2_WITH_FONT_ROTATION
 650:user/drivers/u8g2/u8g2_font.c ****       switch(decode->dir)
 651:user/drivers/u8g2/u8g2_font.c ****       {
 652:user/drivers/u8g2/u8g2_font.c **** 	case 0:
 653:user/drivers/u8g2/u8g2_font.c **** 	    x1 += decode->glyph_width;
 654:user/drivers/u8g2/u8g2_font.c **** 	    y1 += h;
ARM GAS  /var/folders/21/t9g5rlb91ys800n5npymflf80000gn/T//ccT2Ngli.s 			page 14


 655:user/drivers/u8g2/u8g2_font.c **** 	    break;
 656:user/drivers/u8g2/u8g2_font.c **** 	case 1:
 657:user/drivers/u8g2/u8g2_font.c **** 	    x0 -= h;
 658:user/drivers/u8g2/u8g2_font.c **** 	    x0++;	/* shift down, because of assymetric boundaries for the interseciton test */
 659:user/drivers/u8g2/u8g2_font.c **** 	    x1++;
 660:user/drivers/u8g2/u8g2_font.c **** 	    y1 += decode->glyph_width;
 661:user/drivers/u8g2/u8g2_font.c **** 	    break;
 662:user/drivers/u8g2/u8g2_font.c **** 	case 2:
 663:user/drivers/u8g2/u8g2_font.c **** 	    x0 -= decode->glyph_width;
 664:user/drivers/u8g2/u8g2_font.c **** 	    x0++;	/* shift down, because of assymetric boundaries for the interseciton test */
 665:user/drivers/u8g2/u8g2_font.c **** 	    x1++;
 666:user/drivers/u8g2/u8g2_font.c **** 	    y0 -= h;
 667:user/drivers/u8g2/u8g2_font.c **** 	    y0++;	/* shift down, because of assymetric boundaries for the interseciton test */
 668:user/drivers/u8g2/u8g2_font.c **** 	    y1++;
 669:user/drivers/u8g2/u8g2_font.c **** 	    break;	  
 670:user/drivers/u8g2/u8g2_font.c **** 	case 3:
 671:user/drivers/u8g2/u8g2_font.c **** 	    x1 += h;
 672:user/drivers/u8g2/u8g2_font.c **** 	    y0 -= decode->glyph_width;
 673:user/drivers/u8g2/u8g2_font.c **** 	    y0++;	/* shift down, because of assymetric boundaries for the interseciton test */
 674:user/drivers/u8g2/u8g2_font.c **** 	    y1++;
 675:user/drivers/u8g2/u8g2_font.c **** 	    break;	  
 676:user/drivers/u8g2/u8g2_font.c ****       }
 677:user/drivers/u8g2/u8g2_font.c **** #else /* U8G2_WITH_FONT_ROTATION */
 678:user/drivers/u8g2/u8g2_font.c ****       x1 += decode->glyph_width;
 679:user/drivers/u8g2/u8g2_font.c ****       y1 += h;      
 680:user/drivers/u8g2/u8g2_font.c **** #endif
 681:user/drivers/u8g2/u8g2_font.c ****       
 682:user/drivers/u8g2/u8g2_font.c ****       if ( u8g2_IsIntersection(u8g2, x0, y0, x1, y1) == 0 ) 
 683:user/drivers/u8g2/u8g2_font.c **** 	return d;
 684:user/drivers/u8g2/u8g2_font.c ****     }
 685:user/drivers/u8g2/u8g2_font.c **** #endif /* U8G2_WITH_INTERSECTION */
 686:user/drivers/u8g2/u8g2_font.c ****    
 687:user/drivers/u8g2/u8g2_font.c ****     /* reset local x/y position */
 688:user/drivers/u8g2/u8g2_font.c ****     decode->x = 0;
 689:user/drivers/u8g2/u8g2_font.c ****     decode->y = 0;
 690:user/drivers/u8g2/u8g2_font.c ****     
 691:user/drivers/u8g2/u8g2_font.c ****     /* decode glyph */
 692:user/drivers/u8g2/u8g2_font.c ****     for(;;)
 693:user/drivers/u8g2/u8g2_font.c ****     {
 694:user/drivers/u8g2/u8g2_font.c ****       a = u8g2_font_decode_get_unsigned_bits(decode, u8g2->font_info.bits_per_0);
 695:user/drivers/u8g2/u8g2_font.c ****       b = u8g2_font_decode_get_unsigned_bits(decode, u8g2->font_info.bits_per_1);
 696:user/drivers/u8g2/u8g2_font.c ****       do
 697:user/drivers/u8g2/u8g2_font.c ****       {
 698:user/drivers/u8g2/u8g2_font.c **** 	u8g2_font_decode_len(u8g2, a, 0);
 699:user/drivers/u8g2/u8g2_font.c **** 	u8g2_font_decode_len(u8g2, b, 1);
 700:user/drivers/u8g2/u8g2_font.c ****       } while( u8g2_font_decode_get_unsigned_bits(decode, 1) != 0 );
 701:user/drivers/u8g2/u8g2_font.c **** 
 702:user/drivers/u8g2/u8g2_font.c ****       if ( decode->y >= h )
 703:user/drivers/u8g2/u8g2_font.c **** 	break;
 704:user/drivers/u8g2/u8g2_font.c ****     }
 705:user/drivers/u8g2/u8g2_font.c ****     
 706:user/drivers/u8g2/u8g2_font.c ****     /* restore the u8g2 draw color, because this is modified by the decode algo */
 707:user/drivers/u8g2/u8g2_font.c ****     u8g2->draw_color = decode->fg_color;
 708:user/drivers/u8g2/u8g2_font.c ****   }
 709:user/drivers/u8g2/u8g2_font.c ****   return d;
 710:user/drivers/u8g2/u8g2_font.c **** }
 711:user/drivers/u8g2/u8g2_font.c **** 
ARM GAS  /var/folders/21/t9g5rlb91ys800n5npymflf80000gn/T//ccT2Ngli.s 			page 15


 712:user/drivers/u8g2/u8g2_font.c **** 
 713:user/drivers/u8g2/u8g2_font.c **** int8_t u8g2_font_2x_decode_glyph(u8g2_t *u8g2, const uint8_t *glyph_data)
 714:user/drivers/u8g2/u8g2_font.c **** {
 715:user/drivers/u8g2/u8g2_font.c ****   uint8_t a, b;
 716:user/drivers/u8g2/u8g2_font.c ****   int8_t x, y;
 717:user/drivers/u8g2/u8g2_font.c ****   int8_t d;
 718:user/drivers/u8g2/u8g2_font.c ****   int8_t h;
 719:user/drivers/u8g2/u8g2_font.c ****   u8g2_font_decode_t *decode = &(u8g2->font_decode);
 720:user/drivers/u8g2/u8g2_font.c ****     
 721:user/drivers/u8g2/u8g2_font.c ****   u8g2_font_setup_decode(u8g2, glyph_data);     /* set values in u8g2->font_decode data structure *
 722:user/drivers/u8g2/u8g2_font.c ****   h = u8g2->font_decode.glyph_height;
 723:user/drivers/u8g2/u8g2_font.c ****   
 724:user/drivers/u8g2/u8g2_font.c ****   x = u8g2_font_decode_get_signed_bits(decode, u8g2->font_info.bits_per_char_x);
 725:user/drivers/u8g2/u8g2_font.c ****   y = u8g2_font_decode_get_signed_bits(decode, u8g2->font_info.bits_per_char_y);
 726:user/drivers/u8g2/u8g2_font.c ****   d = u8g2_font_decode_get_signed_bits(decode, u8g2->font_info.bits_per_delta_x);
 727:user/drivers/u8g2/u8g2_font.c ****   
 728:user/drivers/u8g2/u8g2_font.c ****   if ( decode->glyph_width > 0 )
 729:user/drivers/u8g2/u8g2_font.c ****   {
 730:user/drivers/u8g2/u8g2_font.c ****     decode->target_x += x;
 731:user/drivers/u8g2/u8g2_font.c ****     decode->target_y -= 2*h+y;
 732:user/drivers/u8g2/u8g2_font.c **** 
 733:user/drivers/u8g2/u8g2_font.c **** #ifdef U8G2_WITH_INTERSECTION
 734:user/drivers/u8g2/u8g2_font.c ****     {
 735:user/drivers/u8g2/u8g2_font.c ****       u8g2_uint_t x0, x1, y0, y1;
 736:user/drivers/u8g2/u8g2_font.c ****       x0 = decode->target_x;
 737:user/drivers/u8g2/u8g2_font.c ****       y0 = decode->target_y;
 738:user/drivers/u8g2/u8g2_font.c ****       x1 = x0;
 739:user/drivers/u8g2/u8g2_font.c ****       y1 = y0;
 740:user/drivers/u8g2/u8g2_font.c ****       
 741:user/drivers/u8g2/u8g2_font.c ****       x1 += 2*decode->glyph_width;
 742:user/drivers/u8g2/u8g2_font.c ****       y1 += 2*h;      
 743:user/drivers/u8g2/u8g2_font.c ****       
 744:user/drivers/u8g2/u8g2_font.c ****       if ( u8g2_IsIntersection(u8g2, x0, y0, x1, y1) == 0 ) 
 745:user/drivers/u8g2/u8g2_font.c **** 	return 2*d;
 746:user/drivers/u8g2/u8g2_font.c ****     }
 747:user/drivers/u8g2/u8g2_font.c **** #endif /* U8G2_WITH_INTERSECTION */
 748:user/drivers/u8g2/u8g2_font.c ****    
 749:user/drivers/u8g2/u8g2_font.c ****     /* reset local x/y position */
 750:user/drivers/u8g2/u8g2_font.c ****     decode->x = 0;
 751:user/drivers/u8g2/u8g2_font.c ****     decode->y = 0;
 752:user/drivers/u8g2/u8g2_font.c ****     
 753:user/drivers/u8g2/u8g2_font.c ****     /* decode glyph */
 754:user/drivers/u8g2/u8g2_font.c ****     for(;;)
 755:user/drivers/u8g2/u8g2_font.c ****     {
 756:user/drivers/u8g2/u8g2_font.c ****       a = u8g2_font_decode_get_unsigned_bits(decode, u8g2->font_info.bits_per_0);
 757:user/drivers/u8g2/u8g2_font.c ****       b = u8g2_font_decode_get_unsigned_bits(decode, u8g2->font_info.bits_per_1);
 758:user/drivers/u8g2/u8g2_font.c ****       do
 759:user/drivers/u8g2/u8g2_font.c ****       {
 760:user/drivers/u8g2/u8g2_font.c **** 	u8g2_font_2x_decode_len(u8g2, a, 0);
 761:user/drivers/u8g2/u8g2_font.c **** 	u8g2_font_2x_decode_len(u8g2, b, 1);
 762:user/drivers/u8g2/u8g2_font.c ****       } while( u8g2_font_decode_get_unsigned_bits(decode, 1) != 0 );
 763:user/drivers/u8g2/u8g2_font.c **** 
 764:user/drivers/u8g2/u8g2_font.c ****       if ( decode->y >= h )
 765:user/drivers/u8g2/u8g2_font.c **** 	break;
 766:user/drivers/u8g2/u8g2_font.c ****     }
 767:user/drivers/u8g2/u8g2_font.c ****     
 768:user/drivers/u8g2/u8g2_font.c ****     /* restore the u8g2 draw color, because this is modified by the decode algo */
ARM GAS  /var/folders/21/t9g5rlb91ys800n5npymflf80000gn/T//ccT2Ngli.s 			page 16


 769:user/drivers/u8g2/u8g2_font.c ****     u8g2->draw_color = decode->fg_color;
 770:user/drivers/u8g2/u8g2_font.c ****   }
 771:user/drivers/u8g2/u8g2_font.c ****   return d*2;
 772:user/drivers/u8g2/u8g2_font.c **** }
 773:user/drivers/u8g2/u8g2_font.c **** 
 774:user/drivers/u8g2/u8g2_font.c **** /*
 775:user/drivers/u8g2/u8g2_font.c ****   Description:
 776:user/drivers/u8g2/u8g2_font.c ****     Find the starting point of the glyph data.
 777:user/drivers/u8g2/u8g2_font.c ****   Args:
 778:user/drivers/u8g2/u8g2_font.c ****     encoding: Encoding (ASCII or Unicode) of the glyph
 779:user/drivers/u8g2/u8g2_font.c ****   Return:
 780:user/drivers/u8g2/u8g2_font.c ****     Address of the glyph data or NULL, if the encoding is not avialable in the font.
 781:user/drivers/u8g2/u8g2_font.c **** */
 782:user/drivers/u8g2/u8g2_font.c **** const uint8_t *u8g2_font_get_glyph_data(u8g2_t *u8g2, uint16_t encoding)
 783:user/drivers/u8g2/u8g2_font.c **** {
 784:user/drivers/u8g2/u8g2_font.c ****   const uint8_t *font = u8g2->font;
 785:user/drivers/u8g2/u8g2_font.c ****   font += U8G2_FONT_DATA_STRUCT_SIZE;
 786:user/drivers/u8g2/u8g2_font.c **** 
 787:user/drivers/u8g2/u8g2_font.c ****   
 788:user/drivers/u8g2/u8g2_font.c ****   if ( encoding <= 255 )
 789:user/drivers/u8g2/u8g2_font.c ****   {
 790:user/drivers/u8g2/u8g2_font.c ****     if ( encoding >= 'a' )
 791:user/drivers/u8g2/u8g2_font.c ****     {
 792:user/drivers/u8g2/u8g2_font.c ****       font += u8g2->font_info.start_pos_lower_a;
 793:user/drivers/u8g2/u8g2_font.c ****     }
 794:user/drivers/u8g2/u8g2_font.c ****     else if ( encoding >= 'A' )
 795:user/drivers/u8g2/u8g2_font.c ****     {
 796:user/drivers/u8g2/u8g2_font.c ****       font += u8g2->font_info.start_pos_upper_A;
 797:user/drivers/u8g2/u8g2_font.c ****     }
 798:user/drivers/u8g2/u8g2_font.c ****     
 799:user/drivers/u8g2/u8g2_font.c ****     for(;;)
 800:user/drivers/u8g2/u8g2_font.c ****     {
 801:user/drivers/u8g2/u8g2_font.c ****       if ( u8x8_pgm_read( font + 1 ) == 0 )
 802:user/drivers/u8g2/u8g2_font.c **** 	break;
 803:user/drivers/u8g2/u8g2_font.c ****       if ( u8x8_pgm_read( font ) == encoding )
 804:user/drivers/u8g2/u8g2_font.c ****       {
 805:user/drivers/u8g2/u8g2_font.c **** 	return font+2;	/* skip encoding and glyph size */
 806:user/drivers/u8g2/u8g2_font.c ****       }
 807:user/drivers/u8g2/u8g2_font.c ****       font += u8x8_pgm_read( font + 1 );
 808:user/drivers/u8g2/u8g2_font.c ****     }
 809:user/drivers/u8g2/u8g2_font.c ****   }
 810:user/drivers/u8g2/u8g2_font.c **** #ifdef U8G2_WITH_UNICODE
 811:user/drivers/u8g2/u8g2_font.c ****   else
 812:user/drivers/u8g2/u8g2_font.c ****   {
 813:user/drivers/u8g2/u8g2_font.c ****     uint16_t e;
 814:user/drivers/u8g2/u8g2_font.c ****     const uint8_t *unicode_lookup_table;
 815:user/drivers/u8g2/u8g2_font.c ****     
 816:user/drivers/u8g2/u8g2_font.c **** // removed, there is now the new index table
 817:user/drivers/u8g2/u8g2_font.c **** //#ifdef  __unix__
 818:user/drivers/u8g2/u8g2_font.c **** //    if ( u8g2->last_font_data != NULL && encoding >= u8g2->last_unicode )
 819:user/drivers/u8g2/u8g2_font.c **** //    {
 820:user/drivers/u8g2/u8g2_font.c **** //	font = u8g2->last_font_data;
 821:user/drivers/u8g2/u8g2_font.c **** //    }
 822:user/drivers/u8g2/u8g2_font.c **** //    else
 823:user/drivers/u8g2/u8g2_font.c **** //#endif 
 824:user/drivers/u8g2/u8g2_font.c **** 
 825:user/drivers/u8g2/u8g2_font.c ****     font += u8g2->font_info.start_pos_unicode;
ARM GAS  /var/folders/21/t9g5rlb91ys800n5npymflf80000gn/T//ccT2Ngli.s 			page 17


 826:user/drivers/u8g2/u8g2_font.c ****     unicode_lookup_table = font; 
 827:user/drivers/u8g2/u8g2_font.c ****   
 828:user/drivers/u8g2/u8g2_font.c ****     /* issue 596: search for the glyph start in the unicode lookup table */
 829:user/drivers/u8g2/u8g2_font.c ****     do
 830:user/drivers/u8g2/u8g2_font.c ****     {
 831:user/drivers/u8g2/u8g2_font.c ****       font += u8g2_font_get_word(unicode_lookup_table, 0);
 832:user/drivers/u8g2/u8g2_font.c ****       e = u8g2_font_get_word(unicode_lookup_table, 2);
 833:user/drivers/u8g2/u8g2_font.c ****       unicode_lookup_table+=4;
 834:user/drivers/u8g2/u8g2_font.c ****     } while( e < encoding );
 835:user/drivers/u8g2/u8g2_font.c ****     
 836:user/drivers/u8g2/u8g2_font.c ****   
 837:user/drivers/u8g2/u8g2_font.c ****     for(;;)
 838:user/drivers/u8g2/u8g2_font.c ****     {
 839:user/drivers/u8g2/u8g2_font.c ****       e = u8x8_pgm_read( font );
 840:user/drivers/u8g2/u8g2_font.c ****       e <<= 8;
 841:user/drivers/u8g2/u8g2_font.c ****       e |= u8x8_pgm_read( font + 1 );
 842:user/drivers/u8g2/u8g2_font.c ****   
 843:user/drivers/u8g2/u8g2_font.c **** // removed, there is now the new index table  
 844:user/drivers/u8g2/u8g2_font.c **** //#ifdef  __unix__
 845:user/drivers/u8g2/u8g2_font.c **** //      if ( encoding < e )
 846:user/drivers/u8g2/u8g2_font.c **** //        break;
 847:user/drivers/u8g2/u8g2_font.c **** //#endif 
 848:user/drivers/u8g2/u8g2_font.c **** 
 849:user/drivers/u8g2/u8g2_font.c ****       if ( e == 0 )
 850:user/drivers/u8g2/u8g2_font.c **** 	break;
 851:user/drivers/u8g2/u8g2_font.c ****   
 852:user/drivers/u8g2/u8g2_font.c ****       if ( e == encoding )
 853:user/drivers/u8g2/u8g2_font.c ****       {
 854:user/drivers/u8g2/u8g2_font.c **** // removed, there is now the new index table
 855:user/drivers/u8g2/u8g2_font.c **** //#ifdef  __unix__
 856:user/drivers/u8g2/u8g2_font.c **** //	u8g2->last_font_data = font;
 857:user/drivers/u8g2/u8g2_font.c **** //	u8g2->last_unicode = encoding;
 858:user/drivers/u8g2/u8g2_font.c **** //#endif 
 859:user/drivers/u8g2/u8g2_font.c **** 	return font+3;	/* skip encoding and glyph size */
 860:user/drivers/u8g2/u8g2_font.c ****       }
 861:user/drivers/u8g2/u8g2_font.c ****       font += u8x8_pgm_read( font + 2 );
 862:user/drivers/u8g2/u8g2_font.c ****     }  
 863:user/drivers/u8g2/u8g2_font.c ****   }
 864:user/drivers/u8g2/u8g2_font.c **** #endif
 865:user/drivers/u8g2/u8g2_font.c ****   
 866:user/drivers/u8g2/u8g2_font.c ****   return NULL;
 867:user/drivers/u8g2/u8g2_font.c **** }
 868:user/drivers/u8g2/u8g2_font.c **** 
 869:user/drivers/u8g2/u8g2_font.c **** static u8g2_uint_t u8g2_font_draw_glyph(u8g2_t *u8g2, u8g2_uint_t x, u8g2_uint_t y, uint16_t encodi
 870:user/drivers/u8g2/u8g2_font.c **** {
 871:user/drivers/u8g2/u8g2_font.c ****   u8g2_uint_t dx = 0;
 872:user/drivers/u8g2/u8g2_font.c ****   u8g2->font_decode.target_x = x;
 873:user/drivers/u8g2/u8g2_font.c ****   u8g2->font_decode.target_y = y;
 874:user/drivers/u8g2/u8g2_font.c ****   //u8g2->font_decode.is_transparent = is_transparent; this is already set
 875:user/drivers/u8g2/u8g2_font.c ****   //u8g2->font_decode.dir = dir;
 876:user/drivers/u8g2/u8g2_font.c ****   const uint8_t *glyph_data = u8g2_font_get_glyph_data(u8g2, encoding);
 877:user/drivers/u8g2/u8g2_font.c ****   if ( glyph_data != NULL )
 878:user/drivers/u8g2/u8g2_font.c ****   {
 879:user/drivers/u8g2/u8g2_font.c ****     dx = u8g2_font_decode_glyph(u8g2, glyph_data);
 880:user/drivers/u8g2/u8g2_font.c ****   }
 881:user/drivers/u8g2/u8g2_font.c ****   return dx;
 882:user/drivers/u8g2/u8g2_font.c **** }
ARM GAS  /var/folders/21/t9g5rlb91ys800n5npymflf80000gn/T//ccT2Ngli.s 			page 18


 883:user/drivers/u8g2/u8g2_font.c **** 
 884:user/drivers/u8g2/u8g2_font.c **** static u8g2_uint_t u8g2_font_2x_draw_glyph(u8g2_t *u8g2, u8g2_uint_t x, u8g2_uint_t y, uint16_t enc
 885:user/drivers/u8g2/u8g2_font.c **** {
 886:user/drivers/u8g2/u8g2_font.c ****   u8g2_uint_t dx = 0;
 887:user/drivers/u8g2/u8g2_font.c ****   u8g2->font_decode.target_x = x;
 888:user/drivers/u8g2/u8g2_font.c ****   u8g2->font_decode.target_y = y;
 889:user/drivers/u8g2/u8g2_font.c ****   const uint8_t *glyph_data = u8g2_font_get_glyph_data(u8g2, encoding);
 890:user/drivers/u8g2/u8g2_font.c ****   if ( glyph_data != NULL )
 891:user/drivers/u8g2/u8g2_font.c ****   {
 892:user/drivers/u8g2/u8g2_font.c ****     dx = u8g2_font_2x_decode_glyph(u8g2, glyph_data);
 893:user/drivers/u8g2/u8g2_font.c ****   }
 894:user/drivers/u8g2/u8g2_font.c ****   return dx;
 895:user/drivers/u8g2/u8g2_font.c **** }
 896:user/drivers/u8g2/u8g2_font.c **** 
 897:user/drivers/u8g2/u8g2_font.c **** 
 898:user/drivers/u8g2/u8g2_font.c **** 
 899:user/drivers/u8g2/u8g2_font.c **** uint8_t u8g2_IsGlyph(u8g2_t *u8g2, uint16_t requested_encoding)
 900:user/drivers/u8g2/u8g2_font.c **** {
 901:user/drivers/u8g2/u8g2_font.c ****   /* updated to new code */
 902:user/drivers/u8g2/u8g2_font.c ****   if ( u8g2_font_get_glyph_data(u8g2, requested_encoding) != NULL )
 903:user/drivers/u8g2/u8g2_font.c ****     return 1;
 904:user/drivers/u8g2/u8g2_font.c ****   return 0;
 905:user/drivers/u8g2/u8g2_font.c **** }
 906:user/drivers/u8g2/u8g2_font.c **** 
 907:user/drivers/u8g2/u8g2_font.c **** /* side effect: updates u8g2->font_decode and u8g2->glyph_x_offset */
 908:user/drivers/u8g2/u8g2_font.c **** int8_t u8g2_GetGlyphWidth(u8g2_t *u8g2, uint16_t requested_encoding)
 909:user/drivers/u8g2/u8g2_font.c **** {
 910:user/drivers/u8g2/u8g2_font.c ****   const uint8_t *glyph_data = u8g2_font_get_glyph_data(u8g2, requested_encoding);
 911:user/drivers/u8g2/u8g2_font.c ****   if ( glyph_data == NULL )
 912:user/drivers/u8g2/u8g2_font.c ****     return 0; 
 913:user/drivers/u8g2/u8g2_font.c ****   
 914:user/drivers/u8g2/u8g2_font.c ****   u8g2_font_setup_decode(u8g2, glyph_data);
 915:user/drivers/u8g2/u8g2_font.c ****   u8g2->glyph_x_offset = u8g2_font_decode_get_signed_bits(&(u8g2->font_decode), u8g2->font_info.bit
 916:user/drivers/u8g2/u8g2_font.c ****   u8g2_font_decode_get_signed_bits(&(u8g2->font_decode), u8g2->font_info.bits_per_char_y);
 917:user/drivers/u8g2/u8g2_font.c ****   
 918:user/drivers/u8g2/u8g2_font.c ****   /* glyph width is here: u8g2->font_decode.glyph_width */
 919:user/drivers/u8g2/u8g2_font.c **** 
 920:user/drivers/u8g2/u8g2_font.c ****   return u8g2_font_decode_get_signed_bits(&(u8g2->font_decode), u8g2->font_info.bits_per_delta_x);
 921:user/drivers/u8g2/u8g2_font.c **** }
 922:user/drivers/u8g2/u8g2_font.c **** 
 923:user/drivers/u8g2/u8g2_font.c **** 
 924:user/drivers/u8g2/u8g2_font.c **** /*
 925:user/drivers/u8g2/u8g2_font.c ****   set one of:
 926:user/drivers/u8g2/u8g2_font.c ****     U8G2_FONT_MODE_TRANSPARENT
 927:user/drivers/u8g2/u8g2_font.c ****     U8G2_FONT_MODE_SOLID
 928:user/drivers/u8g2/u8g2_font.c ****     U8G2_FONT_MODE_NONE
 929:user/drivers/u8g2/u8g2_font.c ****   This has been changed for the new font procedures  
 930:user/drivers/u8g2/u8g2_font.c **** */
 931:user/drivers/u8g2/u8g2_font.c **** void u8g2_SetFontMode(u8g2_t *u8g2, uint8_t is_transparent)
 932:user/drivers/u8g2/u8g2_font.c **** {
 933:user/drivers/u8g2/u8g2_font.c ****   u8g2->font_decode.is_transparent = is_transparent;		// new font procedures
 934:user/drivers/u8g2/u8g2_font.c **** }
 935:user/drivers/u8g2/u8g2_font.c **** 
 936:user/drivers/u8g2/u8g2_font.c **** u8g2_uint_t u8g2_DrawGlyph(u8g2_t *u8g2, u8g2_uint_t x, u8g2_uint_t y, uint16_t encoding)
 937:user/drivers/u8g2/u8g2_font.c **** {
 938:user/drivers/u8g2/u8g2_font.c **** #ifdef U8G2_WITH_FONT_ROTATION
 939:user/drivers/u8g2/u8g2_font.c ****   switch(u8g2->font_decode.dir)
ARM GAS  /var/folders/21/t9g5rlb91ys800n5npymflf80000gn/T//ccT2Ngli.s 			page 19


 940:user/drivers/u8g2/u8g2_font.c ****   {
 941:user/drivers/u8g2/u8g2_font.c ****     case 0:
 942:user/drivers/u8g2/u8g2_font.c ****       y += u8g2->font_calc_vref(u8g2);
 943:user/drivers/u8g2/u8g2_font.c ****       break;
 944:user/drivers/u8g2/u8g2_font.c ****     case 1:
 945:user/drivers/u8g2/u8g2_font.c ****       x -= u8g2->font_calc_vref(u8g2);
 946:user/drivers/u8g2/u8g2_font.c ****       break;
 947:user/drivers/u8g2/u8g2_font.c ****     case 2:
 948:user/drivers/u8g2/u8g2_font.c ****       y -= u8g2->font_calc_vref(u8g2);
 949:user/drivers/u8g2/u8g2_font.c ****       break;
 950:user/drivers/u8g2/u8g2_font.c ****     case 3:
 951:user/drivers/u8g2/u8g2_font.c ****       x += u8g2->font_calc_vref(u8g2);
 952:user/drivers/u8g2/u8g2_font.c ****       break;
 953:user/drivers/u8g2/u8g2_font.c ****   }
 954:user/drivers/u8g2/u8g2_font.c **** #else
 955:user/drivers/u8g2/u8g2_font.c ****   y += u8g2->font_calc_vref(u8g2);
 956:user/drivers/u8g2/u8g2_font.c **** #endif
 957:user/drivers/u8g2/u8g2_font.c ****   return u8g2_font_draw_glyph(u8g2, x, y, encoding);
 958:user/drivers/u8g2/u8g2_font.c **** }
 959:user/drivers/u8g2/u8g2_font.c **** 
 960:user/drivers/u8g2/u8g2_font.c **** u8g2_uint_t u8g2_DrawGlyphX2(u8g2_t *u8g2, u8g2_uint_t x, u8g2_uint_t y, uint16_t encoding)
 961:user/drivers/u8g2/u8g2_font.c **** {
 962:user/drivers/u8g2/u8g2_font.c ****   y += 2*u8g2->font_calc_vref(u8g2);
 963:user/drivers/u8g2/u8g2_font.c ****   return u8g2_font_2x_draw_glyph(u8g2, x, y, encoding);
 964:user/drivers/u8g2/u8g2_font.c **** }
 965:user/drivers/u8g2/u8g2_font.c **** 
 966:user/drivers/u8g2/u8g2_font.c **** static u8g2_uint_t u8g2_draw_string(u8g2_t *u8g2, u8g2_uint_t x, u8g2_uint_t y, const char *str) U8
 967:user/drivers/u8g2/u8g2_font.c **** static u8g2_uint_t u8g2_draw_string(u8g2_t *u8g2, u8g2_uint_t x, u8g2_uint_t y, const char *str)
 968:user/drivers/u8g2/u8g2_font.c **** {
 969:user/drivers/u8g2/u8g2_font.c ****   uint16_t e;
 970:user/drivers/u8g2/u8g2_font.c ****   u8g2_uint_t delta, sum;
 971:user/drivers/u8g2/u8g2_font.c ****   u8x8_utf8_init(u8g2_GetU8x8(u8g2));
 972:user/drivers/u8g2/u8g2_font.c ****   sum = 0;
 973:user/drivers/u8g2/u8g2_font.c ****   for(;;)
 974:user/drivers/u8g2/u8g2_font.c ****   {
 975:user/drivers/u8g2/u8g2_font.c ****     e = u8g2->u8x8.next_cb(u8g2_GetU8x8(u8g2), (uint8_t)*str);
 976:user/drivers/u8g2/u8g2_font.c ****     if ( e == 0x0ffff )
 977:user/drivers/u8g2/u8g2_font.c ****       break;
 978:user/drivers/u8g2/u8g2_font.c ****     str++;
 979:user/drivers/u8g2/u8g2_font.c ****     if ( e != 0x0fffe )
 980:user/drivers/u8g2/u8g2_font.c ****     {
 981:user/drivers/u8g2/u8g2_font.c ****       delta = u8g2_DrawGlyph(u8g2, x, y, e);
 982:user/drivers/u8g2/u8g2_font.c ****     
 983:user/drivers/u8g2/u8g2_font.c **** #ifdef U8G2_WITH_FONT_ROTATION
 984:user/drivers/u8g2/u8g2_font.c ****       switch(u8g2->font_decode.dir)
 985:user/drivers/u8g2/u8g2_font.c ****       {
 986:user/drivers/u8g2/u8g2_font.c **** 	case 0:
 987:user/drivers/u8g2/u8g2_font.c **** 	  x += delta;
 988:user/drivers/u8g2/u8g2_font.c **** 	  break;
 989:user/drivers/u8g2/u8g2_font.c **** 	case 1:
 990:user/drivers/u8g2/u8g2_font.c **** 	  y += delta;
 991:user/drivers/u8g2/u8g2_font.c **** 	  break;
 992:user/drivers/u8g2/u8g2_font.c **** 	case 2:
 993:user/drivers/u8g2/u8g2_font.c **** 	  x -= delta;
 994:user/drivers/u8g2/u8g2_font.c **** 	  break;
 995:user/drivers/u8g2/u8g2_font.c **** 	case 3:
 996:user/drivers/u8g2/u8g2_font.c **** 	  y -= delta;
ARM GAS  /var/folders/21/t9g5rlb91ys800n5npymflf80000gn/T//ccT2Ngli.s 			page 20


 997:user/drivers/u8g2/u8g2_font.c **** 	  break;
 998:user/drivers/u8g2/u8g2_font.c ****       }
 999:user/drivers/u8g2/u8g2_font.c ****       
1000:user/drivers/u8g2/u8g2_font.c ****       /*
1001:user/drivers/u8g2/u8g2_font.c ****       // requires 10 bytes more on avr
1002:user/drivers/u8g2/u8g2_font.c ****       x = u8g2_add_vector_x(x, delta, 0, u8g2->font_decode.dir);
1003:user/drivers/u8g2/u8g2_font.c ****       y = u8g2_add_vector_y(y, delta, 0, u8g2->font_decode.dir);
1004:user/drivers/u8g2/u8g2_font.c ****       */
1005:user/drivers/u8g2/u8g2_font.c **** 
1006:user/drivers/u8g2/u8g2_font.c **** #else
1007:user/drivers/u8g2/u8g2_font.c ****       x += delta;
1008:user/drivers/u8g2/u8g2_font.c **** #endif
1009:user/drivers/u8g2/u8g2_font.c **** 
1010:user/drivers/u8g2/u8g2_font.c ****       sum += delta;    
1011:user/drivers/u8g2/u8g2_font.c ****     }
1012:user/drivers/u8g2/u8g2_font.c ****   }
1013:user/drivers/u8g2/u8g2_font.c ****   return sum;
1014:user/drivers/u8g2/u8g2_font.c **** }
1015:user/drivers/u8g2/u8g2_font.c **** 
1016:user/drivers/u8g2/u8g2_font.c **** static u8g2_uint_t u8g2_draw_string_2x(u8g2_t *u8g2, u8g2_uint_t x, u8g2_uint_t y, const char *str)
1017:user/drivers/u8g2/u8g2_font.c **** static u8g2_uint_t u8g2_draw_string_2x(u8g2_t *u8g2, u8g2_uint_t x, u8g2_uint_t y, const char *str)
1018:user/drivers/u8g2/u8g2_font.c **** {
1019:user/drivers/u8g2/u8g2_font.c ****   uint16_t e;
1020:user/drivers/u8g2/u8g2_font.c ****   u8g2_uint_t delta, sum;
1021:user/drivers/u8g2/u8g2_font.c ****   u8x8_utf8_init(u8g2_GetU8x8(u8g2));
1022:user/drivers/u8g2/u8g2_font.c ****   sum = 0;
1023:user/drivers/u8g2/u8g2_font.c ****   for(;;)
1024:user/drivers/u8g2/u8g2_font.c ****   {
1025:user/drivers/u8g2/u8g2_font.c ****     e = u8g2->u8x8.next_cb(u8g2_GetU8x8(u8g2), (uint8_t)*str);
1026:user/drivers/u8g2/u8g2_font.c ****     if ( e == 0x0ffff )
1027:user/drivers/u8g2/u8g2_font.c ****       break;
1028:user/drivers/u8g2/u8g2_font.c ****     str++;
1029:user/drivers/u8g2/u8g2_font.c ****     if ( e != 0x0fffe )
1030:user/drivers/u8g2/u8g2_font.c ****     {
1031:user/drivers/u8g2/u8g2_font.c ****       delta = u8g2_DrawGlyphX2(u8g2, x, y, e);
1032:user/drivers/u8g2/u8g2_font.c ****       x += delta;
1033:user/drivers/u8g2/u8g2_font.c ****       sum += delta;    
1034:user/drivers/u8g2/u8g2_font.c ****     }
1035:user/drivers/u8g2/u8g2_font.c ****   }
1036:user/drivers/u8g2/u8g2_font.c ****   return sum;
1037:user/drivers/u8g2/u8g2_font.c **** }
1038:user/drivers/u8g2/u8g2_font.c **** 
1039:user/drivers/u8g2/u8g2_font.c **** u8g2_uint_t u8g2_DrawStr(u8g2_t *u8g2, u8g2_uint_t x, u8g2_uint_t y, const char *str)
1040:user/drivers/u8g2/u8g2_font.c **** {
1041:user/drivers/u8g2/u8g2_font.c ****   u8g2->u8x8.next_cb = u8x8_ascii_next;
1042:user/drivers/u8g2/u8g2_font.c ****   return u8g2_draw_string(u8g2, x, y, str);
1043:user/drivers/u8g2/u8g2_font.c **** }
1044:user/drivers/u8g2/u8g2_font.c **** 
1045:user/drivers/u8g2/u8g2_font.c **** u8g2_uint_t u8g2_DrawStrX2(u8g2_t *u8g2, u8g2_uint_t x, u8g2_uint_t y, const char *str)
1046:user/drivers/u8g2/u8g2_font.c **** {
1047:user/drivers/u8g2/u8g2_font.c ****   u8g2->u8x8.next_cb = u8x8_ascii_next;
1048:user/drivers/u8g2/u8g2_font.c ****   return u8g2_draw_string_2x(u8g2, x, y, str);
1049:user/drivers/u8g2/u8g2_font.c **** }
1050:user/drivers/u8g2/u8g2_font.c **** 
1051:user/drivers/u8g2/u8g2_font.c **** /*
1052:user/drivers/u8g2/u8g2_font.c **** source: https://en.wikipedia.org/wiki/UTF-8
1053:user/drivers/u8g2/u8g2_font.c **** Bits	from 		to			bytes	Byte 1 		Byte 2 		Byte 3 		Byte 4 		Byte 5 		Byte 6
ARM GAS  /var/folders/21/t9g5rlb91ys800n5npymflf80000gn/T//ccT2Ngli.s 			page 21


1054:user/drivers/u8g2/u8g2_font.c ****   7 	U+0000 		U+007F 		1 		0xxxxxxx
1055:user/drivers/u8g2/u8g2_font.c **** 11 	U+0080 		U+07FF 		2 		110xxxxx 	10xxxxxx
1056:user/drivers/u8g2/u8g2_font.c **** 16 	U+0800 		U+FFFF 		3 		1110xxxx 	10xxxxxx 	10xxxxxx
1057:user/drivers/u8g2/u8g2_font.c **** 21 	U+10000 	U+1FFFFF 	4 		11110xxx 	10xxxxxx 	10xxxxxx 	10xxxxxx
1058:user/drivers/u8g2/u8g2_font.c **** 26 	U+200000 	U+3FFFFFF 	5 		111110xx 	10xxxxxx 	10xxxxxx 	10xxxxxx 	10xxxxxx
1059:user/drivers/u8g2/u8g2_font.c **** 31 	U+4000000 	U+7FFFFFFF 	6 		1111110x 	10xxxxxx 	10xxxxxx 	10xxxxxx 	10xxxxxx 	10xxxxxx  
1060:user/drivers/u8g2/u8g2_font.c **** */
1061:user/drivers/u8g2/u8g2_font.c **** u8g2_uint_t u8g2_DrawUTF8(u8g2_t *u8g2, u8g2_uint_t x, u8g2_uint_t y, const char *str)
1062:user/drivers/u8g2/u8g2_font.c **** {
1063:user/drivers/u8g2/u8g2_font.c ****   u8g2->u8x8.next_cb = u8x8_utf8_next;
1064:user/drivers/u8g2/u8g2_font.c ****   return u8g2_draw_string(u8g2, x, y, str);
1065:user/drivers/u8g2/u8g2_font.c **** }
1066:user/drivers/u8g2/u8g2_font.c **** 
1067:user/drivers/u8g2/u8g2_font.c **** u8g2_uint_t u8g2_DrawUTF8X2(u8g2_t *u8g2, u8g2_uint_t x, u8g2_uint_t y, const char *str)
1068:user/drivers/u8g2/u8g2_font.c **** {
1069:user/drivers/u8g2/u8g2_font.c ****   u8g2->u8x8.next_cb = u8x8_utf8_next;
1070:user/drivers/u8g2/u8g2_font.c ****   return u8g2_draw_string_2x(u8g2, x, y, str);
1071:user/drivers/u8g2/u8g2_font.c **** }
1072:user/drivers/u8g2/u8g2_font.c **** 
1073:user/drivers/u8g2/u8g2_font.c **** 
1074:user/drivers/u8g2/u8g2_font.c **** u8g2_uint_t u8g2_DrawExtendedUTF8(u8g2_t *u8g2, u8g2_uint_t x, u8g2_uint_t y, uint8_t to_left, u8g2
1075:user/drivers/u8g2/u8g2_font.c **** {
1076:user/drivers/u8g2/u8g2_font.c ****   u8g2->u8x8.next_cb = u8x8_utf8_next;
1077:user/drivers/u8g2/u8g2_font.c ****   uint16_t e_prev = 0x0ffff;
1078:user/drivers/u8g2/u8g2_font.c ****   uint16_t e;
1079:user/drivers/u8g2/u8g2_font.c ****   u8g2_uint_t delta, sum, k;
1080:user/drivers/u8g2/u8g2_font.c ****   u8x8_utf8_init(u8g2_GetU8x8(u8g2));
1081:user/drivers/u8g2/u8g2_font.c ****   sum = 0;
1082:user/drivers/u8g2/u8g2_font.c ****   for(;;)
1083:user/drivers/u8g2/u8g2_font.c ****   {
1084:user/drivers/u8g2/u8g2_font.c ****     e = u8g2->u8x8.next_cb(u8g2_GetU8x8(u8g2), (uint8_t)*str);
1085:user/drivers/u8g2/u8g2_font.c ****     if ( e == 0x0ffff )
1086:user/drivers/u8g2/u8g2_font.c ****       break;
1087:user/drivers/u8g2/u8g2_font.c ****     str++;
1088:user/drivers/u8g2/u8g2_font.c ****     if ( e != 0x0fffe )
1089:user/drivers/u8g2/u8g2_font.c ****     {
1090:user/drivers/u8g2/u8g2_font.c ****       delta = u8g2_GetGlyphWidth(u8g2, e);
1091:user/drivers/u8g2/u8g2_font.c **** 	    
1092:user/drivers/u8g2/u8g2_font.c ****       if ( to_left )
1093:user/drivers/u8g2/u8g2_font.c ****       {
1094:user/drivers/u8g2/u8g2_font.c ****         k = u8g2_GetKerning(u8g2, kerning, e, e_prev);
1095:user/drivers/u8g2/u8g2_font.c **** 	delta -= k;
1096:user/drivers/u8g2/u8g2_font.c **** 	x -= delta;
1097:user/drivers/u8g2/u8g2_font.c ****       }
1098:user/drivers/u8g2/u8g2_font.c ****       else
1099:user/drivers/u8g2/u8g2_font.c ****       {
1100:user/drivers/u8g2/u8g2_font.c ****         k = u8g2_GetKerning(u8g2, kerning, e_prev, e);
1101:user/drivers/u8g2/u8g2_font.c **** 	delta -= k;
1102:user/drivers/u8g2/u8g2_font.c ****       }
1103:user/drivers/u8g2/u8g2_font.c ****       e_prev = e;
1104:user/drivers/u8g2/u8g2_font.c **** 
1105:user/drivers/u8g2/u8g2_font.c ****       u8g2_DrawGlyph(u8g2, x, y, e);
1106:user/drivers/u8g2/u8g2_font.c ****       if ( to_left )
1107:user/drivers/u8g2/u8g2_font.c ****       {
1108:user/drivers/u8g2/u8g2_font.c ****       }
1109:user/drivers/u8g2/u8g2_font.c ****       else
1110:user/drivers/u8g2/u8g2_font.c ****       {
ARM GAS  /var/folders/21/t9g5rlb91ys800n5npymflf80000gn/T//ccT2Ngli.s 			page 22


1111:user/drivers/u8g2/u8g2_font.c **** 	x += delta;
1112:user/drivers/u8g2/u8g2_font.c **** 	x -= k;
1113:user/drivers/u8g2/u8g2_font.c ****       }
1114:user/drivers/u8g2/u8g2_font.c ****       
1115:user/drivers/u8g2/u8g2_font.c ****       sum += delta;    
1116:user/drivers/u8g2/u8g2_font.c ****     }
1117:user/drivers/u8g2/u8g2_font.c ****   }
1118:user/drivers/u8g2/u8g2_font.c ****   return sum;
1119:user/drivers/u8g2/u8g2_font.c **** }
1120:user/drivers/u8g2/u8g2_font.c **** 
1121:user/drivers/u8g2/u8g2_font.c **** u8g2_uint_t u8g2_DrawExtUTF8(u8g2_t *u8g2, u8g2_uint_t x, u8g2_uint_t y, uint8_t to_left, const uin
1122:user/drivers/u8g2/u8g2_font.c **** {
1123:user/drivers/u8g2/u8g2_font.c ****   u8g2->u8x8.next_cb = u8x8_utf8_next;
1124:user/drivers/u8g2/u8g2_font.c ****   uint16_t e_prev = 0x0ffff;
1125:user/drivers/u8g2/u8g2_font.c ****   uint16_t e;
1126:user/drivers/u8g2/u8g2_font.c ****   u8g2_uint_t delta, sum, k;
1127:user/drivers/u8g2/u8g2_font.c ****   u8x8_utf8_init(u8g2_GetU8x8(u8g2));
1128:user/drivers/u8g2/u8g2_font.c ****   sum = 0;
1129:user/drivers/u8g2/u8g2_font.c ****   for(;;)
1130:user/drivers/u8g2/u8g2_font.c ****   {
1131:user/drivers/u8g2/u8g2_font.c ****     e = u8g2->u8x8.next_cb(u8g2_GetU8x8(u8g2), (uint8_t)*str);
1132:user/drivers/u8g2/u8g2_font.c ****     if ( e == 0x0ffff )
1133:user/drivers/u8g2/u8g2_font.c ****       break;
1134:user/drivers/u8g2/u8g2_font.c ****     str++;
1135:user/drivers/u8g2/u8g2_font.c ****     if ( e != 0x0fffe )
1136:user/drivers/u8g2/u8g2_font.c ****     {
1137:user/drivers/u8g2/u8g2_font.c ****       delta = u8g2_GetGlyphWidth(u8g2, e);
1138:user/drivers/u8g2/u8g2_font.c **** 	    
1139:user/drivers/u8g2/u8g2_font.c ****       if ( to_left )
1140:user/drivers/u8g2/u8g2_font.c ****       {
1141:user/drivers/u8g2/u8g2_font.c ****         k = u8g2_GetKerningByTable(u8g2, kerning_table, e, e_prev);
1142:user/drivers/u8g2/u8g2_font.c **** 	delta -= k;
1143:user/drivers/u8g2/u8g2_font.c **** 	x -= delta;
1144:user/drivers/u8g2/u8g2_font.c ****       }
1145:user/drivers/u8g2/u8g2_font.c ****       else
1146:user/drivers/u8g2/u8g2_font.c ****       {
1147:user/drivers/u8g2/u8g2_font.c ****         k = u8g2_GetKerningByTable(u8g2, kerning_table, e_prev, e);
1148:user/drivers/u8g2/u8g2_font.c **** 	delta -= k;
1149:user/drivers/u8g2/u8g2_font.c ****       }
1150:user/drivers/u8g2/u8g2_font.c ****       e_prev = e;
1151:user/drivers/u8g2/u8g2_font.c **** 
1152:user/drivers/u8g2/u8g2_font.c ****       if ( to_left )
1153:user/drivers/u8g2/u8g2_font.c ****       {
1154:user/drivers/u8g2/u8g2_font.c ****       }
1155:user/drivers/u8g2/u8g2_font.c ****       else
1156:user/drivers/u8g2/u8g2_font.c ****       {
1157:user/drivers/u8g2/u8g2_font.c **** 	x += delta;
1158:user/drivers/u8g2/u8g2_font.c ****       }
1159:user/drivers/u8g2/u8g2_font.c ****       u8g2_DrawGlyph(u8g2, x, y, e);
1160:user/drivers/u8g2/u8g2_font.c ****       if ( to_left )
1161:user/drivers/u8g2/u8g2_font.c ****       {
1162:user/drivers/u8g2/u8g2_font.c ****       }
1163:user/drivers/u8g2/u8g2_font.c ****       else
1164:user/drivers/u8g2/u8g2_font.c ****       {
1165:user/drivers/u8g2/u8g2_font.c **** 	//x += delta;
1166:user/drivers/u8g2/u8g2_font.c **** 	//x -= k;
1167:user/drivers/u8g2/u8g2_font.c ****       }
ARM GAS  /var/folders/21/t9g5rlb91ys800n5npymflf80000gn/T//ccT2Ngli.s 			page 23


1168:user/drivers/u8g2/u8g2_font.c ****       
1169:user/drivers/u8g2/u8g2_font.c ****       sum += delta;    
1170:user/drivers/u8g2/u8g2_font.c ****     }
1171:user/drivers/u8g2/u8g2_font.c ****   }
1172:user/drivers/u8g2/u8g2_font.c ****   return sum;
1173:user/drivers/u8g2/u8g2_font.c **** }
1174:user/drivers/u8g2/u8g2_font.c **** 
1175:user/drivers/u8g2/u8g2_font.c **** 
1176:user/drivers/u8g2/u8g2_font.c **** 
1177:user/drivers/u8g2/u8g2_font.c **** /*===============================================*/
1178:user/drivers/u8g2/u8g2_font.c **** 
1179:user/drivers/u8g2/u8g2_font.c **** /* set ascent/descent for reference point calculation */
1180:user/drivers/u8g2/u8g2_font.c **** 
1181:user/drivers/u8g2/u8g2_font.c **** void u8g2_UpdateRefHeight(u8g2_t *u8g2)
1182:user/drivers/u8g2/u8g2_font.c **** {
1183:user/drivers/u8g2/u8g2_font.c ****   if ( u8g2->font == NULL )
1184:user/drivers/u8g2/u8g2_font.c ****     return;
1185:user/drivers/u8g2/u8g2_font.c ****   u8g2->font_ref_ascent = u8g2->font_info.ascent_A;
1186:user/drivers/u8g2/u8g2_font.c ****   u8g2->font_ref_descent = u8g2->font_info.descent_g;
1187:user/drivers/u8g2/u8g2_font.c ****   if ( u8g2->font_height_mode == U8G2_FONT_HEIGHT_MODE_TEXT )
1188:user/drivers/u8g2/u8g2_font.c ****   {
1189:user/drivers/u8g2/u8g2_font.c ****   }
1190:user/drivers/u8g2/u8g2_font.c ****   else if ( u8g2->font_height_mode == U8G2_FONT_HEIGHT_MODE_XTEXT )
1191:user/drivers/u8g2/u8g2_font.c ****   {
1192:user/drivers/u8g2/u8g2_font.c ****     if ( u8g2->font_ref_ascent < u8g2->font_info.ascent_para )
1193:user/drivers/u8g2/u8g2_font.c ****       u8g2->font_ref_ascent = u8g2->font_info.ascent_para;
1194:user/drivers/u8g2/u8g2_font.c ****     if ( u8g2->font_ref_descent > u8g2->font_info.descent_para )
1195:user/drivers/u8g2/u8g2_font.c ****       u8g2->font_ref_descent = u8g2->font_info.descent_para;
1196:user/drivers/u8g2/u8g2_font.c ****   }
1197:user/drivers/u8g2/u8g2_font.c ****   else
1198:user/drivers/u8g2/u8g2_font.c ****   {
1199:user/drivers/u8g2/u8g2_font.c ****     if ( u8g2->font_ref_ascent < u8g2->font_info.max_char_height+u8g2->font_info.y_offset )
1200:user/drivers/u8g2/u8g2_font.c ****       u8g2->font_ref_ascent = u8g2->font_info.max_char_height+u8g2->font_info.y_offset;
1201:user/drivers/u8g2/u8g2_font.c ****     if ( u8g2->font_ref_descent > u8g2->font_info.y_offset )
1202:user/drivers/u8g2/u8g2_font.c ****       u8g2->font_ref_descent = u8g2->font_info.y_offset;
1203:user/drivers/u8g2/u8g2_font.c ****   }  
1204:user/drivers/u8g2/u8g2_font.c **** }
1205:user/drivers/u8g2/u8g2_font.c **** 
1206:user/drivers/u8g2/u8g2_font.c **** void u8g2_SetFontRefHeightText(u8g2_t *u8g2)
1207:user/drivers/u8g2/u8g2_font.c **** {
1208:user/drivers/u8g2/u8g2_font.c ****   u8g2->font_height_mode = U8G2_FONT_HEIGHT_MODE_TEXT;
1209:user/drivers/u8g2/u8g2_font.c ****   u8g2_UpdateRefHeight(u8g2);
1210:user/drivers/u8g2/u8g2_font.c **** }
1211:user/drivers/u8g2/u8g2_font.c **** 
1212:user/drivers/u8g2/u8g2_font.c **** void u8g2_SetFontRefHeightExtendedText(u8g2_t *u8g2)
1213:user/drivers/u8g2/u8g2_font.c **** {
1214:user/drivers/u8g2/u8g2_font.c ****   u8g2->font_height_mode = U8G2_FONT_HEIGHT_MODE_XTEXT;
1215:user/drivers/u8g2/u8g2_font.c ****   u8g2_UpdateRefHeight(u8g2);
1216:user/drivers/u8g2/u8g2_font.c **** }
1217:user/drivers/u8g2/u8g2_font.c **** 
1218:user/drivers/u8g2/u8g2_font.c **** void u8g2_SetFontRefHeightAll(u8g2_t *u8g2)
1219:user/drivers/u8g2/u8g2_font.c **** {
1220:user/drivers/u8g2/u8g2_font.c ****   u8g2->font_height_mode = U8G2_FONT_HEIGHT_MODE_ALL;
1221:user/drivers/u8g2/u8g2_font.c ****   u8g2_UpdateRefHeight(u8g2);
1222:user/drivers/u8g2/u8g2_font.c **** }
1223:user/drivers/u8g2/u8g2_font.c **** 
1224:user/drivers/u8g2/u8g2_font.c **** /*===============================================*/
ARM GAS  /var/folders/21/t9g5rlb91ys800n5npymflf80000gn/T//ccT2Ngli.s 			page 24


1225:user/drivers/u8g2/u8g2_font.c **** /* callback procedures to correct the y position */
1226:user/drivers/u8g2/u8g2_font.c **** 
1227:user/drivers/u8g2/u8g2_font.c **** u8g2_uint_t u8g2_font_calc_vref_font(U8X8_UNUSED u8g2_t *u8g2)
1228:user/drivers/u8g2/u8g2_font.c **** {
  93              		.loc 1 1228 1 is_stmt 1 view -0
  94              		.cfi_startproc
  95              		@ args = 0, pretend = 0, frame = 0
  96              		@ frame_needed = 0, uses_anonymous_args = 0
  97              		@ link register save eliminated.
1229:user/drivers/u8g2/u8g2_font.c ****   return 0;
  98              		.loc 1 1229 3 view .LVU20
1230:user/drivers/u8g2/u8g2_font.c **** }
  99              		.loc 1 1230 1 is_stmt 0 view .LVU21
 100 0000 0020     		movs	r0, #0
 101              	.LVL7:
 102              		.loc 1 1230 1 view .LVU22
 103 0002 7047     		bx	lr
 104              		.cfi_endproc
 105              	.LFE38:
 107              		.section	.text.u8g2_font_calc_vref_bottom,"ax",%progbits
 108              		.align	1
 109              		.global	u8g2_font_calc_vref_bottom
 110              		.syntax unified
 111              		.thumb
 112              		.thumb_func
 114              	u8g2_font_calc_vref_bottom:
 115              	.LVL8:
 116              	.LFB40:
1231:user/drivers/u8g2/u8g2_font.c **** 
1232:user/drivers/u8g2/u8g2_font.c **** void u8g2_SetFontPosBaseline(u8g2_t *u8g2)
1233:user/drivers/u8g2/u8g2_font.c **** {
1234:user/drivers/u8g2/u8g2_font.c ****   u8g2->font_calc_vref = u8g2_font_calc_vref_font;
1235:user/drivers/u8g2/u8g2_font.c **** }
1236:user/drivers/u8g2/u8g2_font.c **** 
1237:user/drivers/u8g2/u8g2_font.c **** 
1238:user/drivers/u8g2/u8g2_font.c **** u8g2_uint_t u8g2_font_calc_vref_bottom(u8g2_t *u8g2)
1239:user/drivers/u8g2/u8g2_font.c **** {
 117              		.loc 1 1239 1 is_stmt 1 view -0
 118              		.cfi_startproc
 119              		@ args = 0, pretend = 0, frame = 0
 120              		@ frame_needed = 0, uses_anonymous_args = 0
 121              		@ link register save eliminated.
1240:user/drivers/u8g2/u8g2_font.c ****   return (u8g2_uint_t)(u8g2->font_ref_descent);
 122              		.loc 1 1240 3 view .LVU24
 123              		.loc 1 1240 28 is_stmt 0 view .LVU25
 124 0000 90F98F00 		ldrsb	r0, [r0, #143]
 125              	.LVL9:
1241:user/drivers/u8g2/u8g2_font.c **** }
 126              		.loc 1 1241 1 view .LVU26
 127 0004 80B2     		uxth	r0, r0
 128 0006 7047     		bx	lr
 129              		.cfi_endproc
 130              	.LFE40:
 132              		.section	.text.u8g2_font_calc_vref_top,"ax",%progbits
 133              		.align	1
 134              		.global	u8g2_font_calc_vref_top
 135              		.syntax unified
ARM GAS  /var/folders/21/t9g5rlb91ys800n5npymflf80000gn/T//ccT2Ngli.s 			page 25


 136              		.thumb
 137              		.thumb_func
 139              	u8g2_font_calc_vref_top:
 140              	.LVL10:
 141              	.LFB42:
1242:user/drivers/u8g2/u8g2_font.c **** 
1243:user/drivers/u8g2/u8g2_font.c **** void u8g2_SetFontPosBottom(u8g2_t *u8g2)
1244:user/drivers/u8g2/u8g2_font.c **** {
1245:user/drivers/u8g2/u8g2_font.c ****   u8g2->font_calc_vref = u8g2_font_calc_vref_bottom;
1246:user/drivers/u8g2/u8g2_font.c **** }
1247:user/drivers/u8g2/u8g2_font.c **** 
1248:user/drivers/u8g2/u8g2_font.c **** u8g2_uint_t u8g2_font_calc_vref_top(u8g2_t *u8g2)
1249:user/drivers/u8g2/u8g2_font.c **** {
 142              		.loc 1 1249 1 is_stmt 1 view -0
 143              		.cfi_startproc
 144              		@ args = 0, pretend = 0, frame = 0
 145              		@ frame_needed = 0, uses_anonymous_args = 0
 146              		@ link register save eliminated.
1250:user/drivers/u8g2/u8g2_font.c ****   u8g2_uint_t tmp;
 147              		.loc 1 1250 3 view .LVU28
1251:user/drivers/u8g2/u8g2_font.c ****   /* reference pos is one pixel above the upper edge of the reference glyph */
1252:user/drivers/u8g2/u8g2_font.c ****   tmp = (u8g2_uint_t)(u8g2->font_ref_ascent);
 148              		.loc 1 1252 3 view .LVU29
 149              		.loc 1 1252 27 is_stmt 0 view .LVU30
 150 0000 90F98E00 		ldrsb	r0, [r0, #142]
 151              	.LVL11:
 152              		.loc 1 1252 7 view .LVU31
 153 0004 80B2     		uxth	r0, r0
 154              	.LVL12:
1253:user/drivers/u8g2/u8g2_font.c ****   tmp++;
 155              		.loc 1 1253 3 is_stmt 1 view .LVU32
 156              		.loc 1 1253 6 is_stmt 0 view .LVU33
 157 0006 0130     		adds	r0, r0, #1
 158              	.LVL13:
1254:user/drivers/u8g2/u8g2_font.c ****   return tmp;
 159              		.loc 1 1254 3 is_stmt 1 view .LVU34
1255:user/drivers/u8g2/u8g2_font.c **** }
 160              		.loc 1 1255 1 is_stmt 0 view .LVU35
 161 0008 80B2     		uxth	r0, r0
 162              		.loc 1 1255 1 view .LVU36
 163 000a 7047     		bx	lr
 164              		.cfi_endproc
 165              	.LFE42:
 167              		.section	.text.u8g2_font_calc_vref_center,"ax",%progbits
 168              		.align	1
 169              		.global	u8g2_font_calc_vref_center
 170              		.syntax unified
 171              		.thumb
 172              		.thumb_func
 174              	u8g2_font_calc_vref_center:
 175              	.LVL14:
 176              	.LFB44:
1256:user/drivers/u8g2/u8g2_font.c **** 
1257:user/drivers/u8g2/u8g2_font.c **** void u8g2_SetFontPosTop(u8g2_t *u8g2)
1258:user/drivers/u8g2/u8g2_font.c **** {
1259:user/drivers/u8g2/u8g2_font.c ****   u8g2->font_calc_vref = u8g2_font_calc_vref_top;
1260:user/drivers/u8g2/u8g2_font.c **** }
ARM GAS  /var/folders/21/t9g5rlb91ys800n5npymflf80000gn/T//ccT2Ngli.s 			page 26


1261:user/drivers/u8g2/u8g2_font.c **** 
1262:user/drivers/u8g2/u8g2_font.c **** u8g2_uint_t u8g2_font_calc_vref_center(u8g2_t *u8g2)
1263:user/drivers/u8g2/u8g2_font.c **** {
 177              		.loc 1 1263 1 is_stmt 1 view -0
 178              		.cfi_startproc
 179              		@ args = 0, pretend = 0, frame = 0
 180              		@ frame_needed = 0, uses_anonymous_args = 0
 181              		@ link register save eliminated.
1264:user/drivers/u8g2/u8g2_font.c ****   int8_t tmp;
 182              		.loc 1 1264 3 view .LVU38
1265:user/drivers/u8g2/u8g2_font.c ****   tmp = u8g2->font_ref_ascent;
 183              		.loc 1 1265 3 view .LVU39
 184              		.loc 1 1265 7 is_stmt 0 view .LVU40
 185 0000 90F98E30 		ldrsb	r3, [r0, #142]
 186              	.LVL15:
1266:user/drivers/u8g2/u8g2_font.c ****   tmp -= u8g2->font_ref_descent;
 187              		.loc 1 1266 3 is_stmt 1 view .LVU41
 188              		.loc 1 1266 14 is_stmt 0 view .LVU42
 189 0004 90F88F00 		ldrb	r0, [r0, #143]	@ zero_extendqisi2
 190              	.LVL16:
 191              		.loc 1 1266 7 view .LVU43
 192 0008 1B1A     		subs	r3, r3, r0
 193              	.LVL17:
1267:user/drivers/u8g2/u8g2_font.c ****   tmp /= 2;
 194              		.loc 1 1267 3 is_stmt 1 view .LVU44
 195              		.loc 1 1267 7 is_stmt 0 view .LVU45
 196 000a C3F3C012 		ubfx	r2, r3, #7, #1
 197 000e 42FA83F3 		sxtab	r3, r2, r3
 198              	.LVL18:
1268:user/drivers/u8g2/u8g2_font.c ****   tmp += u8g2->font_ref_descent;  
 199              		.loc 1 1268 3 is_stmt 1 view .LVU46
 200              		.loc 1 1268 7 is_stmt 0 view .LVU47
 201 0012 00EB6300 		add	r0, r0, r3, asr #1
 202 0016 40B2     		sxtb	r0, r0
 203              	.LVL19:
1269:user/drivers/u8g2/u8g2_font.c ****   return tmp;
 204              		.loc 1 1269 3 is_stmt 1 view .LVU48
1270:user/drivers/u8g2/u8g2_font.c **** }
 205              		.loc 1 1270 1 is_stmt 0 view .LVU49
 206 0018 80B2     		uxth	r0, r0
 207              	.LVL20:
 208              		.loc 1 1270 1 view .LVU50
 209 001a 7047     		bx	lr
 210              		.cfi_endproc
 211              	.LFE44:
 213              		.section	.text.u8g2_read_font_info,"ax",%progbits
 214              		.align	1
 215              		.global	u8g2_read_font_info
 216              		.syntax unified
 217              		.thumb
 218              		.thumb_func
 220              	u8g2_read_font_info:
 221              	.LVL21:
 222              	.LFB2:
 132:user/drivers/u8g2/u8g2_font.c ****   /* offset 0 */
 223              		.loc 1 132 1 is_stmt 1 view -0
 224              		.cfi_startproc
ARM GAS  /var/folders/21/t9g5rlb91ys800n5npymflf80000gn/T//ccT2Ngli.s 			page 27


 225              		@ args = 0, pretend = 0, frame = 0
 226              		@ frame_needed = 0, uses_anonymous_args = 0
 132:user/drivers/u8g2/u8g2_font.c ****   /* offset 0 */
 227              		.loc 1 132 1 is_stmt 0 view .LVU52
 228 0000 38B5     		push	{r3, r4, r5, lr}
 229              	.LCFI0:
 230              		.cfi_def_cfa_offset 16
 231              		.cfi_offset 3, -16
 232              		.cfi_offset 4, -12
 233              		.cfi_offset 5, -8
 234              		.cfi_offset 14, -4
 235 0002 0446     		mov	r4, r0
 236 0004 0D46     		mov	r5, r1
 134:user/drivers/u8g2/u8g2_font.c ****   font_info->bbx_mode = u8g2_font_get_byte(font, 1);
 237              		.loc 1 134 3 is_stmt 1 view .LVU53
 134:user/drivers/u8g2/u8g2_font.c ****   font_info->bbx_mode = u8g2_font_get_byte(font, 1);
 238              		.loc 1 134 26 is_stmt 0 view .LVU54
 239 0006 0021     		movs	r1, #0
 240              	.LVL22:
 134:user/drivers/u8g2/u8g2_font.c ****   font_info->bbx_mode = u8g2_font_get_byte(font, 1);
 241              		.loc 1 134 26 view .LVU55
 242 0008 2846     		mov	r0, r5
 243              	.LVL23:
 134:user/drivers/u8g2/u8g2_font.c ****   font_info->bbx_mode = u8g2_font_get_byte(font, 1);
 244              		.loc 1 134 26 view .LVU56
 245 000a FFF7FEFF 		bl	u8g2_font_get_byte
 246              	.LVL24:
 134:user/drivers/u8g2/u8g2_font.c ****   font_info->bbx_mode = u8g2_font_get_byte(font, 1);
 247              		.loc 1 134 24 view .LVU57
 248 000e 2070     		strb	r0, [r4]
 135:user/drivers/u8g2/u8g2_font.c ****   font_info->bits_per_0 = u8g2_font_get_byte(font, 2);
 249              		.loc 1 135 3 is_stmt 1 view .LVU58
 135:user/drivers/u8g2/u8g2_font.c ****   font_info->bits_per_0 = u8g2_font_get_byte(font, 2);
 250              		.loc 1 135 25 is_stmt 0 view .LVU59
 251 0010 0121     		movs	r1, #1
 252 0012 2846     		mov	r0, r5
 253 0014 FFF7FEFF 		bl	u8g2_font_get_byte
 254              	.LVL25:
 135:user/drivers/u8g2/u8g2_font.c ****   font_info->bits_per_0 = u8g2_font_get_byte(font, 2);
 255              		.loc 1 135 23 view .LVU60
 256 0018 6070     		strb	r0, [r4, #1]
 136:user/drivers/u8g2/u8g2_font.c ****   font_info->bits_per_1 = u8g2_font_get_byte(font, 3);
 257              		.loc 1 136 3 is_stmt 1 view .LVU61
 136:user/drivers/u8g2/u8g2_font.c ****   font_info->bits_per_1 = u8g2_font_get_byte(font, 3);
 258              		.loc 1 136 27 is_stmt 0 view .LVU62
 259 001a 0221     		movs	r1, #2
 260 001c 2846     		mov	r0, r5
 261 001e FFF7FEFF 		bl	u8g2_font_get_byte
 262              	.LVL26:
 136:user/drivers/u8g2/u8g2_font.c ****   font_info->bits_per_1 = u8g2_font_get_byte(font, 3);
 263              		.loc 1 136 25 view .LVU63
 264 0022 A070     		strb	r0, [r4, #2]
 137:user/drivers/u8g2/u8g2_font.c ****   
 265              		.loc 1 137 3 is_stmt 1 view .LVU64
 137:user/drivers/u8g2/u8g2_font.c ****   
 266              		.loc 1 137 27 is_stmt 0 view .LVU65
 267 0024 0321     		movs	r1, #3
ARM GAS  /var/folders/21/t9g5rlb91ys800n5npymflf80000gn/T//ccT2Ngli.s 			page 28


 268 0026 2846     		mov	r0, r5
 269 0028 FFF7FEFF 		bl	u8g2_font_get_byte
 270              	.LVL27:
 137:user/drivers/u8g2/u8g2_font.c ****   
 271              		.loc 1 137 25 view .LVU66
 272 002c E070     		strb	r0, [r4, #3]
 140:user/drivers/u8g2/u8g2_font.c ****   font_info->bits_per_char_height = u8g2_font_get_byte(font, 5);
 273              		.loc 1 140 3 is_stmt 1 view .LVU67
 140:user/drivers/u8g2/u8g2_font.c ****   font_info->bits_per_char_height = u8g2_font_get_byte(font, 5);
 274              		.loc 1 140 36 is_stmt 0 view .LVU68
 275 002e 0421     		movs	r1, #4
 276 0030 2846     		mov	r0, r5
 277 0032 FFF7FEFF 		bl	u8g2_font_get_byte
 278              	.LVL28:
 140:user/drivers/u8g2/u8g2_font.c ****   font_info->bits_per_char_height = u8g2_font_get_byte(font, 5);
 279              		.loc 1 140 34 view .LVU69
 280 0036 2071     		strb	r0, [r4, #4]
 141:user/drivers/u8g2/u8g2_font.c ****   font_info->bits_per_char_x = u8g2_font_get_byte(font, 6);
 281              		.loc 1 141 3 is_stmt 1 view .LVU70
 141:user/drivers/u8g2/u8g2_font.c ****   font_info->bits_per_char_x = u8g2_font_get_byte(font, 6);
 282              		.loc 1 141 37 is_stmt 0 view .LVU71
 283 0038 0521     		movs	r1, #5
 284 003a 2846     		mov	r0, r5
 285 003c FFF7FEFF 		bl	u8g2_font_get_byte
 286              	.LVL29:
 141:user/drivers/u8g2/u8g2_font.c ****   font_info->bits_per_char_x = u8g2_font_get_byte(font, 6);
 287              		.loc 1 141 35 view .LVU72
 288 0040 6071     		strb	r0, [r4, #5]
 142:user/drivers/u8g2/u8g2_font.c ****   font_info->bits_per_char_y = u8g2_font_get_byte(font, 7);
 289              		.loc 1 142 3 is_stmt 1 view .LVU73
 142:user/drivers/u8g2/u8g2_font.c ****   font_info->bits_per_char_y = u8g2_font_get_byte(font, 7);
 290              		.loc 1 142 32 is_stmt 0 view .LVU74
 291 0042 0621     		movs	r1, #6
 292 0044 2846     		mov	r0, r5
 293 0046 FFF7FEFF 		bl	u8g2_font_get_byte
 294              	.LVL30:
 142:user/drivers/u8g2/u8g2_font.c ****   font_info->bits_per_char_y = u8g2_font_get_byte(font, 7);
 295              		.loc 1 142 30 view .LVU75
 296 004a A071     		strb	r0, [r4, #6]
 143:user/drivers/u8g2/u8g2_font.c ****   font_info->bits_per_delta_x = u8g2_font_get_byte(font, 8);
 297              		.loc 1 143 3 is_stmt 1 view .LVU76
 143:user/drivers/u8g2/u8g2_font.c ****   font_info->bits_per_delta_x = u8g2_font_get_byte(font, 8);
 298              		.loc 1 143 32 is_stmt 0 view .LVU77
 299 004c 0721     		movs	r1, #7
 300 004e 2846     		mov	r0, r5
 301 0050 FFF7FEFF 		bl	u8g2_font_get_byte
 302              	.LVL31:
 143:user/drivers/u8g2/u8g2_font.c ****   font_info->bits_per_delta_x = u8g2_font_get_byte(font, 8);
 303              		.loc 1 143 30 view .LVU78
 304 0054 E071     		strb	r0, [r4, #7]
 144:user/drivers/u8g2/u8g2_font.c ****   
 305              		.loc 1 144 3 is_stmt 1 view .LVU79
 144:user/drivers/u8g2/u8g2_font.c ****   
 306              		.loc 1 144 33 is_stmt 0 view .LVU80
 307 0056 0821     		movs	r1, #8
 308 0058 2846     		mov	r0, r5
 309 005a FFF7FEFF 		bl	u8g2_font_get_byte
ARM GAS  /var/folders/21/t9g5rlb91ys800n5npymflf80000gn/T//ccT2Ngli.s 			page 29


 310              	.LVL32:
 144:user/drivers/u8g2/u8g2_font.c ****   
 311              		.loc 1 144 31 view .LVU81
 312 005e 2072     		strb	r0, [r4, #8]
 147:user/drivers/u8g2/u8g2_font.c ****   font_info->max_char_height = u8g2_font_get_byte(font, 10);
 313              		.loc 1 147 3 is_stmt 1 view .LVU82
 147:user/drivers/u8g2/u8g2_font.c ****   font_info->max_char_height = u8g2_font_get_byte(font, 10);
 314              		.loc 1 147 31 is_stmt 0 view .LVU83
 315 0060 0921     		movs	r1, #9
 316 0062 2846     		mov	r0, r5
 317 0064 FFF7FEFF 		bl	u8g2_font_get_byte
 318              	.LVL33:
 147:user/drivers/u8g2/u8g2_font.c ****   font_info->max_char_height = u8g2_font_get_byte(font, 10);
 319              		.loc 1 147 29 view .LVU84
 320 0068 6072     		strb	r0, [r4, #9]
 148:user/drivers/u8g2/u8g2_font.c ****   font_info->x_offset = u8g2_font_get_byte(font, 11);
 321              		.loc 1 148 3 is_stmt 1 view .LVU85
 148:user/drivers/u8g2/u8g2_font.c ****   font_info->x_offset = u8g2_font_get_byte(font, 11);
 322              		.loc 1 148 32 is_stmt 0 view .LVU86
 323 006a 0A21     		movs	r1, #10
 324 006c 2846     		mov	r0, r5
 325 006e FFF7FEFF 		bl	u8g2_font_get_byte
 326              	.LVL34:
 148:user/drivers/u8g2/u8g2_font.c ****   font_info->x_offset = u8g2_font_get_byte(font, 11);
 327              		.loc 1 148 30 view .LVU87
 328 0072 A072     		strb	r0, [r4, #10]
 149:user/drivers/u8g2/u8g2_font.c ****   font_info->y_offset = u8g2_font_get_byte(font, 12);
 329              		.loc 1 149 3 is_stmt 1 view .LVU88
 149:user/drivers/u8g2/u8g2_font.c ****   font_info->y_offset = u8g2_font_get_byte(font, 12);
 330              		.loc 1 149 25 is_stmt 0 view .LVU89
 331 0074 0B21     		movs	r1, #11
 332 0076 2846     		mov	r0, r5
 333 0078 FFF7FEFF 		bl	u8g2_font_get_byte
 334              	.LVL35:
 149:user/drivers/u8g2/u8g2_font.c ****   font_info->y_offset = u8g2_font_get_byte(font, 12);
 335              		.loc 1 149 23 view .LVU90
 336 007c E072     		strb	r0, [r4, #11]
 150:user/drivers/u8g2/u8g2_font.c ****   
 337              		.loc 1 150 3 is_stmt 1 view .LVU91
 150:user/drivers/u8g2/u8g2_font.c ****   
 338              		.loc 1 150 25 is_stmt 0 view .LVU92
 339 007e 0C21     		movs	r1, #12
 340 0080 2846     		mov	r0, r5
 341 0082 FFF7FEFF 		bl	u8g2_font_get_byte
 342              	.LVL36:
 150:user/drivers/u8g2/u8g2_font.c ****   
 343              		.loc 1 150 23 view .LVU93
 344 0086 2073     		strb	r0, [r4, #12]
 153:user/drivers/u8g2/u8g2_font.c ****   font_info->descent_g = u8g2_font_get_byte(font, 14);
 345              		.loc 1 153 3 is_stmt 1 view .LVU94
 153:user/drivers/u8g2/u8g2_font.c ****   font_info->descent_g = u8g2_font_get_byte(font, 14);
 346              		.loc 1 153 25 is_stmt 0 view .LVU95
 347 0088 0D21     		movs	r1, #13
 348 008a 2846     		mov	r0, r5
 349 008c FFF7FEFF 		bl	u8g2_font_get_byte
 350              	.LVL37:
 153:user/drivers/u8g2/u8g2_font.c ****   font_info->descent_g = u8g2_font_get_byte(font, 14);
ARM GAS  /var/folders/21/t9g5rlb91ys800n5npymflf80000gn/T//ccT2Ngli.s 			page 30


 351              		.loc 1 153 23 view .LVU96
 352 0090 6073     		strb	r0, [r4, #13]
 154:user/drivers/u8g2/u8g2_font.c ****   font_info->ascent_para = u8g2_font_get_byte(font, 15);
 353              		.loc 1 154 3 is_stmt 1 view .LVU97
 154:user/drivers/u8g2/u8g2_font.c ****   font_info->ascent_para = u8g2_font_get_byte(font, 15);
 354              		.loc 1 154 26 is_stmt 0 view .LVU98
 355 0092 0E21     		movs	r1, #14
 356 0094 2846     		mov	r0, r5
 357 0096 FFF7FEFF 		bl	u8g2_font_get_byte
 358              	.LVL38:
 154:user/drivers/u8g2/u8g2_font.c ****   font_info->ascent_para = u8g2_font_get_byte(font, 15);
 359              		.loc 1 154 24 view .LVU99
 360 009a A073     		strb	r0, [r4, #14]
 155:user/drivers/u8g2/u8g2_font.c ****   font_info->descent_para = u8g2_font_get_byte(font, 16);
 361              		.loc 1 155 3 is_stmt 1 view .LVU100
 155:user/drivers/u8g2/u8g2_font.c ****   font_info->descent_para = u8g2_font_get_byte(font, 16);
 362              		.loc 1 155 28 is_stmt 0 view .LVU101
 363 009c 0F21     		movs	r1, #15
 364 009e 2846     		mov	r0, r5
 365 00a0 FFF7FEFF 		bl	u8g2_font_get_byte
 366              	.LVL39:
 155:user/drivers/u8g2/u8g2_font.c ****   font_info->descent_para = u8g2_font_get_byte(font, 16);
 367              		.loc 1 155 26 view .LVU102
 368 00a4 E073     		strb	r0, [r4, #15]
 156:user/drivers/u8g2/u8g2_font.c ****   
 369              		.loc 1 156 3 is_stmt 1 view .LVU103
 156:user/drivers/u8g2/u8g2_font.c ****   
 370              		.loc 1 156 29 is_stmt 0 view .LVU104
 371 00a6 1021     		movs	r1, #16
 372 00a8 2846     		mov	r0, r5
 373 00aa FFF7FEFF 		bl	u8g2_font_get_byte
 374              	.LVL40:
 156:user/drivers/u8g2/u8g2_font.c ****   
 375              		.loc 1 156 27 view .LVU105
 376 00ae 2074     		strb	r0, [r4, #16]
 159:user/drivers/u8g2/u8g2_font.c ****   font_info->start_pos_lower_a = u8g2_font_get_word(font, 19); 
 377              		.loc 1 159 3 is_stmt 1 view .LVU106
 159:user/drivers/u8g2/u8g2_font.c ****   font_info->start_pos_lower_a = u8g2_font_get_word(font, 19); 
 378              		.loc 1 159 34 is_stmt 0 view .LVU107
 379 00b0 1121     		movs	r1, #17
 380 00b2 2846     		mov	r0, r5
 381 00b4 FFF7FEFF 		bl	u8g2_font_get_word
 382              	.LVL41:
 159:user/drivers/u8g2/u8g2_font.c ****   font_info->start_pos_lower_a = u8g2_font_get_word(font, 19); 
 383              		.loc 1 159 32 view .LVU108
 384 00b8 6082     		strh	r0, [r4, #18]	@ movhi
 160:user/drivers/u8g2/u8g2_font.c ****   
 385              		.loc 1 160 3 is_stmt 1 view .LVU109
 160:user/drivers/u8g2/u8g2_font.c ****   
 386              		.loc 1 160 34 is_stmt 0 view .LVU110
 387 00ba 1321     		movs	r1, #19
 388 00bc 2846     		mov	r0, r5
 389 00be FFF7FEFF 		bl	u8g2_font_get_word
 390              	.LVL42:
 160:user/drivers/u8g2/u8g2_font.c ****   
 391              		.loc 1 160 32 view .LVU111
 392 00c2 A082     		strh	r0, [r4, #20]	@ movhi
ARM GAS  /var/folders/21/t9g5rlb91ys800n5npymflf80000gn/T//ccT2Ngli.s 			page 31


 164:user/drivers/u8g2/u8g2_font.c **** #endif
 393              		.loc 1 164 3 is_stmt 1 view .LVU112
 164:user/drivers/u8g2/u8g2_font.c **** #endif
 394              		.loc 1 164 34 is_stmt 0 view .LVU113
 395 00c4 1521     		movs	r1, #21
 396 00c6 2846     		mov	r0, r5
 397 00c8 FFF7FEFF 		bl	u8g2_font_get_word
 398              	.LVL43:
 164:user/drivers/u8g2/u8g2_font.c **** #endif
 399              		.loc 1 164 32 view .LVU114
 400 00cc E082     		strh	r0, [r4, #22]	@ movhi
 166:user/drivers/u8g2/u8g2_font.c **** 
 401              		.loc 1 166 1 view .LVU115
 402 00ce 38BD     		pop	{r3, r4, r5, pc}
 166:user/drivers/u8g2/u8g2_font.c **** 
 403              		.loc 1 166 1 view .LVU116
 404              		.cfi_endproc
 405              	.LFE2:
 407              		.section	.text.u8g2_GetFontSize,"ax",%progbits
 408              		.align	1
 409              		.global	u8g2_GetFontSize
 410              		.syntax unified
 411              		.thumb
 412              		.thumb_func
 414              	u8g2_GetFontSize:
 415              	.LVL44:
 416              	.LFB3:
 171:user/drivers/u8g2/u8g2_font.c ****   uint16_t e;
 417              		.loc 1 171 1 is_stmt 1 view -0
 418              		.cfi_startproc
 419              		@ args = 0, pretend = 0, frame = 0
 420              		@ frame_needed = 0, uses_anonymous_args = 0
 171:user/drivers/u8g2/u8g2_font.c ****   uint16_t e;
 421              		.loc 1 171 1 is_stmt 0 view .LVU118
 422 0000 38B5     		push	{r3, r4, r5, lr}
 423              	.LCFI1:
 424              		.cfi_def_cfa_offset 16
 425              		.cfi_offset 3, -16
 426              		.cfi_offset 4, -12
 427              		.cfi_offset 5, -8
 428              		.cfi_offset 14, -4
 429 0002 0546     		mov	r5, r0
 172:user/drivers/u8g2/u8g2_font.c ****   const uint8_t *font = font_arg;
 430              		.loc 1 172 3 is_stmt 1 view .LVU119
 173:user/drivers/u8g2/u8g2_font.c ****   font += U8G2_FONT_DATA_STRUCT_SIZE;
 431              		.loc 1 173 3 view .LVU120
 432              	.LVL45:
 174:user/drivers/u8g2/u8g2_font.c ****   
 433              		.loc 1 174 3 view .LVU121
 174:user/drivers/u8g2/u8g2_font.c ****   
 434              		.loc 1 174 8 is_stmt 0 view .LVU122
 435 0004 00F11703 		add	r3, r0, #23
 436              	.LVL46:
 174:user/drivers/u8g2/u8g2_font.c ****   
 437              		.loc 1 174 8 view .LVU123
 438 0008 00E0     		b	.L11
 439              	.L15:
ARM GAS  /var/folders/21/t9g5rlb91ys800n5npymflf80000gn/T//ccT2Ngli.s 			page 32


 180:user/drivers/u8g2/u8g2_font.c ****   }
 440              		.loc 1 180 5 is_stmt 1 view .LVU124
 180:user/drivers/u8g2/u8g2_font.c ****   }
 441              		.loc 1 180 10 is_stmt 0 view .LVU125
 442 000a 1344     		add	r3, r3, r2
 443              	.LVL47:
 176:user/drivers/u8g2/u8g2_font.c ****   {
 444              		.loc 1 176 3 is_stmt 1 view .LVU126
 445              	.L11:
 176:user/drivers/u8g2/u8g2_font.c ****   {
 446              		.loc 1 176 3 view .LVU127
 178:user/drivers/u8g2/u8g2_font.c ****       break;
 447              		.loc 1 178 5 view .LVU128
 178:user/drivers/u8g2/u8g2_font.c ****       break;
 448              		.loc 1 178 10 is_stmt 0 view .LVU129
 449 000c 5A78     		ldrb	r2, [r3, #1]	@ zero_extendqisi2
 178:user/drivers/u8g2/u8g2_font.c ****       break;
 450              		.loc 1 178 8 view .LVU130
 451 000e 002A     		cmp	r2, #0
 452 0010 FBD1     		bne	.L15
 184:user/drivers/u8g2/u8g2_font.c **** 
 453              		.loc 1 184 3 is_stmt 1 view .LVU131
 184:user/drivers/u8g2/u8g2_font.c **** 
 454              		.loc 1 184 8 is_stmt 0 view .LVU132
 455 0012 9C1C     		adds	r4, r3, #2
 456              	.LVL48:
 187:user/drivers/u8g2/u8g2_font.c ****   
 457              		.loc 1 187 3 is_stmt 1 view .LVU133
 187:user/drivers/u8g2/u8g2_font.c ****   
 458              		.loc 1 187 11 is_stmt 0 view .LVU134
 459 0014 0021     		movs	r1, #0
 460 0016 2046     		mov	r0, r4
 461              	.LVL49:
 187:user/drivers/u8g2/u8g2_font.c ****   
 462              		.loc 1 187 11 view .LVU135
 463 0018 FFF7FEFF 		bl	u8g2_font_get_word
 464              	.LVL50:
 187:user/drivers/u8g2/u8g2_font.c ****   
 465              		.loc 1 187 8 view .LVU136
 466 001c 2318     		adds	r3, r4, r0
 467              	.LVL51:
 187:user/drivers/u8g2/u8g2_font.c ****   
 468              		.loc 1 187 8 view .LVU137
 469 001e 01E0     		b	.L13
 470              	.LVL52:
 471              	.L16:
 196:user/drivers/u8g2/u8g2_font.c ****   }
 472              		.loc 1 196 5 is_stmt 1 view .LVU138
 196:user/drivers/u8g2/u8g2_font.c ****   }
 473              		.loc 1 196 13 is_stmt 0 view .LVU139
 474 0020 9A78     		ldrb	r2, [r3, #2]	@ zero_extendqisi2
 196:user/drivers/u8g2/u8g2_font.c ****   }
 475              		.loc 1 196 10 view .LVU140
 476 0022 1344     		add	r3, r3, r2
 477              	.LVL53:
 189:user/drivers/u8g2/u8g2_font.c ****   {
 478              		.loc 1 189 3 is_stmt 1 view .LVU141
ARM GAS  /var/folders/21/t9g5rlb91ys800n5npymflf80000gn/T//ccT2Ngli.s 			page 33


 479              	.L13:
 189:user/drivers/u8g2/u8g2_font.c ****   {
 480              		.loc 1 189 3 view .LVU142
 191:user/drivers/u8g2/u8g2_font.c ****     e <<= 8;
 481              		.loc 1 191 5 view .LVU143
 191:user/drivers/u8g2/u8g2_font.c ****     e <<= 8;
 482              		.loc 1 191 9 is_stmt 0 view .LVU144
 483 0024 1978     		ldrb	r1, [r3]	@ zero_extendqisi2
 484              	.LVL54:
 192:user/drivers/u8g2/u8g2_font.c ****     e |= u8x8_pgm_read( font + 1 );
 485              		.loc 1 192 5 is_stmt 1 view .LVU145
 193:user/drivers/u8g2/u8g2_font.c ****     if ( e == 0 )
 486              		.loc 1 193 5 view .LVU146
 193:user/drivers/u8g2/u8g2_font.c ****     if ( e == 0 )
 487              		.loc 1 193 10 is_stmt 0 view .LVU147
 488 0026 5A78     		ldrb	r2, [r3, #1]	@ zero_extendqisi2
 489              	.LVL55:
 194:user/drivers/u8g2/u8g2_font.c ****       break;
 490              		.loc 1 194 5 is_stmt 1 view .LVU148
 194:user/drivers/u8g2/u8g2_font.c ****       break;
 491              		.loc 1 194 8 is_stmt 0 view .LVU149
 492 0028 52EA0122 		orrs	r2, r2, r1, lsl #8
 493              	.LVL56:
 194:user/drivers/u8g2/u8g2_font.c ****       break;
 494              		.loc 1 194 8 view .LVU150
 495 002c F8D1     		bne	.L16
 199:user/drivers/u8g2/u8g2_font.c **** }
 496              		.loc 1 199 3 is_stmt 1 view .LVU151
 199:user/drivers/u8g2/u8g2_font.c **** }
 497              		.loc 1 199 16 is_stmt 0 view .LVU152
 498 002e 581B     		subs	r0, r3, r5
 200:user/drivers/u8g2/u8g2_font.c **** 
 499              		.loc 1 200 1 view .LVU153
 500 0030 0230     		adds	r0, r0, #2
 501 0032 38BD     		pop	{r3, r4, r5, pc}
 200:user/drivers/u8g2/u8g2_font.c **** 
 502              		.loc 1 200 1 view .LVU154
 503              		.cfi_endproc
 504              	.LFE3:
 506              		.section	.text.u8g2_GetFontBBXWidth,"ax",%progbits
 507              		.align	1
 508              		.global	u8g2_GetFontBBXWidth
 509              		.syntax unified
 510              		.thumb
 511              		.thumb_func
 513              	u8g2_GetFontBBXWidth:
 514              	.LVL57:
 515              	.LFB4:
 206:user/drivers/u8g2/u8g2_font.c ****   return u8g2->font_info.max_char_width;		/* new font info structure */
 516              		.loc 1 206 1 is_stmt 1 view -0
 517              		.cfi_startproc
 518              		@ args = 0, pretend = 0, frame = 0
 519              		@ frame_needed = 0, uses_anonymous_args = 0
 520              		@ link register save eliminated.
 207:user/drivers/u8g2/u8g2_font.c **** }
 521              		.loc 1 207 3 view .LVU156
 208:user/drivers/u8g2/u8g2_font.c **** 
ARM GAS  /var/folders/21/t9g5rlb91ys800n5npymflf80000gn/T//ccT2Ngli.s 			page 34


 522              		.loc 1 208 1 is_stmt 0 view .LVU157
 523 0000 90F87D00 		ldrb	r0, [r0, #125]	@ zero_extendqisi2
 524              	.LVL58:
 208:user/drivers/u8g2/u8g2_font.c **** 
 525              		.loc 1 208 1 view .LVU158
 526 0004 7047     		bx	lr
 527              		.cfi_endproc
 528              	.LFE4:
 530              		.section	.text.u8g2_GetFontBBXHeight,"ax",%progbits
 531              		.align	1
 532              		.global	u8g2_GetFontBBXHeight
 533              		.syntax unified
 534              		.thumb
 535              		.thumb_func
 537              	u8g2_GetFontBBXHeight:
 538              	.LVL59:
 539              	.LFB5:
 211:user/drivers/u8g2/u8g2_font.c ****   return u8g2->font_info.max_char_height;		/* new font info structure */
 540              		.loc 1 211 1 is_stmt 1 view -0
 541              		.cfi_startproc
 542              		@ args = 0, pretend = 0, frame = 0
 543              		@ frame_needed = 0, uses_anonymous_args = 0
 544              		@ link register save eliminated.
 212:user/drivers/u8g2/u8g2_font.c **** }
 545              		.loc 1 212 3 view .LVU160
 213:user/drivers/u8g2/u8g2_font.c **** 
 546              		.loc 1 213 1 is_stmt 0 view .LVU161
 547 0000 90F87E00 		ldrb	r0, [r0, #126]	@ zero_extendqisi2
 548              	.LVL60:
 213:user/drivers/u8g2/u8g2_font.c **** 
 549              		.loc 1 213 1 view .LVU162
 550 0004 7047     		bx	lr
 551              		.cfi_endproc
 552              	.LFE5:
 554              		.section	.text.u8g2_GetFontBBXOffX,"ax",%progbits
 555              		.align	1
 556              		.global	u8g2_GetFontBBXOffX
 557              		.syntax unified
 558              		.thumb
 559              		.thumb_func
 561              	u8g2_GetFontBBXOffX:
 562              	.LVL61:
 563              	.LFB6:
 217:user/drivers/u8g2/u8g2_font.c ****   return u8g2->font_info.x_offset;		/* new font info structure */
 564              		.loc 1 217 1 is_stmt 1 view -0
 565              		.cfi_startproc
 566              		@ args = 0, pretend = 0, frame = 0
 567              		@ frame_needed = 0, uses_anonymous_args = 0
 568              		@ link register save eliminated.
 218:user/drivers/u8g2/u8g2_font.c **** }
 569              		.loc 1 218 3 view .LVU164
 219:user/drivers/u8g2/u8g2_font.c **** 
 570              		.loc 1 219 1 is_stmt 0 view .LVU165
 571 0000 90F97F00 		ldrsb	r0, [r0, #127]
 572              	.LVL62:
 219:user/drivers/u8g2/u8g2_font.c **** 
 573              		.loc 1 219 1 view .LVU166
ARM GAS  /var/folders/21/t9g5rlb91ys800n5npymflf80000gn/T//ccT2Ngli.s 			page 35


 574 0004 7047     		bx	lr
 575              		.cfi_endproc
 576              	.LFE6:
 578              		.section	.text.u8g2_GetFontBBXOffY,"ax",%progbits
 579              		.align	1
 580              		.global	u8g2_GetFontBBXOffY
 581              		.syntax unified
 582              		.thumb
 583              		.thumb_func
 585              	u8g2_GetFontBBXOffY:
 586              	.LVL63:
 587              	.LFB7:
 223:user/drivers/u8g2/u8g2_font.c ****   return u8g2->font_info.y_offset;		/* new font info structure */
 588              		.loc 1 223 1 is_stmt 1 view -0
 589              		.cfi_startproc
 590              		@ args = 0, pretend = 0, frame = 0
 591              		@ frame_needed = 0, uses_anonymous_args = 0
 592              		@ link register save eliminated.
 224:user/drivers/u8g2/u8g2_font.c **** }
 593              		.loc 1 224 3 view .LVU168
 225:user/drivers/u8g2/u8g2_font.c **** 
 594              		.loc 1 225 1 is_stmt 0 view .LVU169
 595 0000 90F98000 		ldrsb	r0, [r0, #128]
 596              	.LVL64:
 225:user/drivers/u8g2/u8g2_font.c **** 
 597              		.loc 1 225 1 view .LVU170
 598 0004 7047     		bx	lr
 599              		.cfi_endproc
 600              	.LFE7:
 602              		.section	.text.u8g2_GetFontCapitalAHeight,"ax",%progbits
 603              		.align	1
 604              		.global	u8g2_GetFontCapitalAHeight
 605              		.syntax unified
 606              		.thumb
 607              		.thumb_func
 609              	u8g2_GetFontCapitalAHeight:
 610              	.LVL65:
 611              	.LFB8:
 229:user/drivers/u8g2/u8g2_font.c ****   return u8g2->font_info.ascent_A;		/* new font info structure */
 612              		.loc 1 229 1 is_stmt 1 view -0
 613              		.cfi_startproc
 614              		@ args = 0, pretend = 0, frame = 0
 615              		@ frame_needed = 0, uses_anonymous_args = 0
 616              		@ link register save eliminated.
 230:user/drivers/u8g2/u8g2_font.c **** }
 617              		.loc 1 230 3 view .LVU172
 231:user/drivers/u8g2/u8g2_font.c **** 
 618              		.loc 1 231 1 is_stmt 0 view .LVU173
 619 0000 90F88100 		ldrb	r0, [r0, #129]	@ zero_extendqisi2
 620              	.LVL66:
 231:user/drivers/u8g2/u8g2_font.c **** 
 621              		.loc 1 231 1 view .LVU174
 622 0004 7047     		bx	lr
 623              		.cfi_endproc
 624              	.LFE8:
 626              		.section	.text.u8g2_font_decode_get_unsigned_bits,"ax",%progbits
 627              		.align	1
ARM GAS  /var/folders/21/t9g5rlb91ys800n5npymflf80000gn/T//ccT2Ngli.s 			page 36


 628              		.global	u8g2_font_decode_get_unsigned_bits
 629              		.syntax unified
 630              		.thumb
 631              		.thumb_func
 633              	u8g2_font_decode_get_unsigned_bits:
 634              	.LVL67:
 635              	.LFB9:
 238:user/drivers/u8g2/u8g2_font.c ****   uint8_t val;
 636              		.loc 1 238 1 is_stmt 1 view -0
 637              		.cfi_startproc
 638              		@ args = 0, pretend = 0, frame = 0
 639              		@ frame_needed = 0, uses_anonymous_args = 0
 238:user/drivers/u8g2/u8g2_font.c ****   uint8_t val;
 640              		.loc 1 238 1 is_stmt 0 view .LVU176
 641 0000 30B5     		push	{r4, r5, lr}
 642              	.LCFI2:
 643              		.cfi_def_cfa_offset 12
 644              		.cfi_offset 4, -12
 645              		.cfi_offset 5, -8
 646              		.cfi_offset 14, -4
 647 0002 0246     		mov	r2, r0
 239:user/drivers/u8g2/u8g2_font.c ****   uint8_t bit_pos = f->decode_bit_pos;
 648              		.loc 1 239 3 is_stmt 1 view .LVU177
 240:user/drivers/u8g2/u8g2_font.c ****   uint8_t bit_pos_plus_cnt;
 649              		.loc 1 240 3 view .LVU178
 240:user/drivers/u8g2/u8g2_font.c ****   uint8_t bit_pos_plus_cnt;
 650              		.loc 1 240 11 is_stmt 0 view .LVU179
 651 0004 90F80CE0 		ldrb	lr, [r0, #12]	@ zero_extendqisi2
 652              	.LVL68:
 241:user/drivers/u8g2/u8g2_font.c ****   
 653              		.loc 1 241 3 is_stmt 1 view .LVU180
 244:user/drivers/u8g2/u8g2_font.c ****   
 654              		.loc 1 244 3 view .LVU181
 244:user/drivers/u8g2/u8g2_font.c ****   
 655              		.loc 1 244 9 is_stmt 0 view .LVU182
 656 0008 0468     		ldr	r4, [r0]
 244:user/drivers/u8g2/u8g2_font.c ****   
 657              		.loc 1 244 7 view .LVU183
 658 000a 2078     		ldrb	r0, [r4]	@ zero_extendqisi2
 659              	.LVL69:
 246:user/drivers/u8g2/u8g2_font.c ****   bit_pos_plus_cnt = bit_pos;
 660              		.loc 1 246 3 is_stmt 1 view .LVU184
 246:user/drivers/u8g2/u8g2_font.c ****   bit_pos_plus_cnt = bit_pos;
 661              		.loc 1 246 7 is_stmt 0 view .LVU185
 662 000c 40FA0EF0 		asr	r0, r0, lr
 663 0010 5FFA80FC 		uxtb	ip, r0
 664              	.LVL70:
 247:user/drivers/u8g2/u8g2_font.c ****   bit_pos_plus_cnt += cnt;
 665              		.loc 1 247 3 is_stmt 1 view .LVU186
 248:user/drivers/u8g2/u8g2_font.c ****   if ( bit_pos_plus_cnt >= 8 )
 666              		.loc 1 248 3 view .LVU187
 248:user/drivers/u8g2/u8g2_font.c ****   if ( bit_pos_plus_cnt >= 8 )
 667              		.loc 1 248 20 is_stmt 0 view .LVU188
 668 0014 0EEB0103 		add	r3, lr, r1
 669 0018 DBB2     		uxtb	r3, r3
 670              	.LVL71:
 249:user/drivers/u8g2/u8g2_font.c ****   {
ARM GAS  /var/folders/21/t9g5rlb91ys800n5npymflf80000gn/T//ccT2Ngli.s 			page 37


 671              		.loc 1 249 3 is_stmt 1 view .LVU189
 249:user/drivers/u8g2/u8g2_font.c ****   {
 672              		.loc 1 249 6 is_stmt 0 view .LVU190
 673 001a 072B     		cmp	r3, #7
 674 001c 0FD9     		bls	.L23
 675              	.LBB2:
 251:user/drivers/u8g2/u8g2_font.c ****     s -= bit_pos;
 676              		.loc 1 251 5 is_stmt 1 view .LVU191
 677              	.LVL72:
 252:user/drivers/u8g2/u8g2_font.c ****     f->decode_ptr++;
 678              		.loc 1 252 5 view .LVU192
 252:user/drivers/u8g2/u8g2_font.c ****     f->decode_ptr++;
 679              		.loc 1 252 7 is_stmt 0 view .LVU193
 680 001e CEF1080E 		rsb	lr, lr, #8
 681              	.LVL73:
 252:user/drivers/u8g2/u8g2_font.c ****     f->decode_ptr++;
 682              		.loc 1 252 7 view .LVU194
 683 0022 5FFA8EFE 		uxtb	lr, lr
 684              	.LVL74:
 253:user/drivers/u8g2/u8g2_font.c ****     //val |= *(f->decode_ptr) << (8-bit_pos);
 685              		.loc 1 253 5 is_stmt 1 view .LVU195
 253:user/drivers/u8g2/u8g2_font.c ****     //val |= *(f->decode_ptr) << (8-bit_pos);
 686              		.loc 1 253 18 is_stmt 0 view .LVU196
 687 0026 651C     		adds	r5, r4, #1
 688 0028 1560     		str	r5, [r2]
 255:user/drivers/u8g2/u8g2_font.c ****     //bit_pos -= 8;
 689              		.loc 1 255 5 is_stmt 1 view .LVU197
 255:user/drivers/u8g2/u8g2_font.c ****     //bit_pos -= 8;
 690              		.loc 1 255 12 is_stmt 0 view .LVU198
 691 002a 94F801C0 		ldrb	ip, [r4, #1]	@ zero_extendqisi2
 692              	.LVL75:
 255:user/drivers/u8g2/u8g2_font.c ****     //bit_pos -= 8;
 693              		.loc 1 255 43 view .LVU199
 694 002e 0CFA0EFC 		lsl	ip, ip, lr
 255:user/drivers/u8g2/u8g2_font.c ****     //bit_pos -= 8;
 695              		.loc 1 255 9 view .LVU200
 696 0032 4CEA000C 		orr	ip, ip, r0
 697 0036 5FFA8CFC 		uxtb	ip, ip
 698              	.LVL76:
 257:user/drivers/u8g2/u8g2_font.c ****   }
 699              		.loc 1 257 5 is_stmt 1 view .LVU201
 257:user/drivers/u8g2/u8g2_font.c ****   }
 700              		.loc 1 257 22 is_stmt 0 view .LVU202
 701 003a 083B     		subs	r3, r3, #8
 702              	.LVL77:
 257:user/drivers/u8g2/u8g2_font.c ****   }
 703              		.loc 1 257 22 view .LVU203
 704 003c DBB2     		uxtb	r3, r3
 705              	.LVL78:
 706              	.L23:
 257:user/drivers/u8g2/u8g2_font.c ****   }
 707              		.loc 1 257 22 view .LVU204
 708              	.LBE2:
 259:user/drivers/u8g2/u8g2_font.c ****   //bit_pos += cnt;
 709              		.loc 1 259 3 is_stmt 1 view .LVU205
 259:user/drivers/u8g2/u8g2_font.c ****   //bit_pos += cnt;
 710              		.loc 1 259 7 is_stmt 0 view .LVU206
ARM GAS  /var/folders/21/t9g5rlb91ys800n5npymflf80000gn/T//ccT2Ngli.s 			page 38


 711 003e 4FF0FF30 		mov	r0, #-1
 712 0042 8840     		lsls	r0, r0, r1
 713              	.LVL79:
 262:user/drivers/u8g2/u8g2_font.c ****   return val;
 714              		.loc 1 262 3 is_stmt 1 view .LVU207
 262:user/drivers/u8g2/u8g2_font.c ****   return val;
 715              		.loc 1 262 21 is_stmt 0 view .LVU208
 716 0044 1373     		strb	r3, [r2, #12]
 717              	.LVL80:
 263:user/drivers/u8g2/u8g2_font.c **** }
 718              		.loc 1 263 3 is_stmt 1 view .LVU209
 264:user/drivers/u8g2/u8g2_font.c **** 
 719              		.loc 1 264 1 is_stmt 0 view .LVU210
 720 0046 2CEA0000 		bic	r0, ip, r0
 721              	.LVL81:
 264:user/drivers/u8g2/u8g2_font.c **** 
 722              		.loc 1 264 1 view .LVU211
 723 004a 30BD     		pop	{r4, r5, pc}
 724              		.cfi_endproc
 725              	.LFE9:
 727              		.section	.text.u8g2_font_setup_decode,"ax",%progbits
 728              		.align	1
 729              		.syntax unified
 730              		.thumb
 731              		.thumb_func
 733              	u8g2_font_setup_decode:
 734              	.LVL82:
 735              	.LFB15:
 579:user/drivers/u8g2/u8g2_font.c ****   u8g2_font_decode_t *decode = &(u8g2->font_decode);
 736              		.loc 1 579 1 is_stmt 1 view -0
 737              		.cfi_startproc
 738              		@ args = 0, pretend = 0, frame = 0
 739              		@ frame_needed = 0, uses_anonymous_args = 0
 579:user/drivers/u8g2/u8g2_font.c ****   u8g2_font_decode_t *decode = &(u8g2->font_decode);
 740              		.loc 1 579 1 is_stmt 0 view .LVU213
 741 0000 38B5     		push	{r3, r4, r5, lr}
 742              	.LCFI3:
 743              		.cfi_def_cfa_offset 16
 744              		.cfi_offset 3, -16
 745              		.cfi_offset 4, -12
 746              		.cfi_offset 5, -8
 747              		.cfi_offset 14, -4
 748 0002 0446     		mov	r4, r0
 580:user/drivers/u8g2/u8g2_font.c ****   decode->decode_ptr = glyph_data;
 749              		.loc 1 580 3 is_stmt 1 view .LVU214
 580:user/drivers/u8g2/u8g2_font.c ****   decode->decode_ptr = glyph_data;
 750              		.loc 1 580 23 is_stmt 0 view .LVU215
 751 0004 00F16005 		add	r5, r0, #96
 752              	.LVL83:
 581:user/drivers/u8g2/u8g2_font.c ****   decode->decode_bit_pos = 0;
 753              		.loc 1 581 3 is_stmt 1 view .LVU216
 581:user/drivers/u8g2/u8g2_font.c ****   decode->decode_bit_pos = 0;
 754              		.loc 1 581 22 is_stmt 0 view .LVU217
 755 0008 0166     		str	r1, [r0, #96]
 582:user/drivers/u8g2/u8g2_font.c ****   
 756              		.loc 1 582 3 is_stmt 1 view .LVU218
 582:user/drivers/u8g2/u8g2_font.c ****   
ARM GAS  /var/folders/21/t9g5rlb91ys800n5npymflf80000gn/T//ccT2Ngli.s 			page 39


 757              		.loc 1 582 26 is_stmt 0 view .LVU219
 758 000a 0023     		movs	r3, #0
 759 000c 80F86C30 		strb	r3, [r0, #108]
 590:user/drivers/u8g2/u8g2_font.c ****   decode->glyph_height = u8g2_font_decode_get_unsigned_bits(decode,u8g2->font_info.bits_per_char_he
 760              		.loc 1 590 3 is_stmt 1 view .LVU220
 590:user/drivers/u8g2/u8g2_font.c ****   decode->glyph_height = u8g2_font_decode_get_unsigned_bits(decode,u8g2->font_info.bits_per_char_he
 761              		.loc 1 590 25 is_stmt 0 view .LVU221
 762 0010 90F87810 		ldrb	r1, [r0, #120]	@ zero_extendqisi2
 763              	.LVL84:
 590:user/drivers/u8g2/u8g2_font.c ****   decode->glyph_height = u8g2_font_decode_get_unsigned_bits(decode,u8g2->font_info.bits_per_char_he
 764              		.loc 1 590 25 view .LVU222
 765 0014 2846     		mov	r0, r5
 766              	.LVL85:
 590:user/drivers/u8g2/u8g2_font.c ****   decode->glyph_height = u8g2_font_decode_get_unsigned_bits(decode,u8g2->font_info.bits_per_char_he
 767              		.loc 1 590 25 view .LVU223
 768 0016 FFF7FEFF 		bl	u8g2_font_decode_get_unsigned_bits
 769              	.LVL86:
 590:user/drivers/u8g2/u8g2_font.c ****   decode->glyph_height = u8g2_font_decode_get_unsigned_bits(decode,u8g2->font_info.bits_per_char_he
 770              		.loc 1 590 23 view .LVU224
 771 001a 84F86A00 		strb	r0, [r4, #106]
 591:user/drivers/u8g2/u8g2_font.c ****   
 772              		.loc 1 591 3 is_stmt 1 view .LVU225
 591:user/drivers/u8g2/u8g2_font.c ****   
 773              		.loc 1 591 26 is_stmt 0 view .LVU226
 774 001e 94F87910 		ldrb	r1, [r4, #121]	@ zero_extendqisi2
 775 0022 2846     		mov	r0, r5
 776 0024 FFF7FEFF 		bl	u8g2_font_decode_get_unsigned_bits
 777              	.LVL87:
 591:user/drivers/u8g2/u8g2_font.c ****   
 778              		.loc 1 591 24 view .LVU227
 779 0028 84F86B00 		strb	r0, [r4, #107]
 593:user/drivers/u8g2/u8g2_font.c ****   decode->bg_color = (decode->fg_color == 0 ? 1 : 0);
 780              		.loc 1 593 3 is_stmt 1 view .LVU228
 593:user/drivers/u8g2/u8g2_font.c ****   decode->bg_color = (decode->fg_color == 0 ? 1 : 0);
 781              		.loc 1 593 26 is_stmt 0 view .LVU229
 782 002c 94F89230 		ldrb	r3, [r4, #146]	@ zero_extendqisi2
 593:user/drivers/u8g2/u8g2_font.c ****   decode->bg_color = (decode->fg_color == 0 ? 1 : 0);
 783              		.loc 1 593 20 view .LVU230
 784 0030 84F86E30 		strb	r3, [r4, #110]
 594:user/drivers/u8g2/u8g2_font.c **** }
 785              		.loc 1 594 3 is_stmt 1 view .LVU231
 594:user/drivers/u8g2/u8g2_font.c **** }
 786              		.loc 1 594 49 is_stmt 0 view .LVU232
 787 0034 B3FA83F3 		clz	r3, r3
 788 0038 5B09     		lsrs	r3, r3, #5
 594:user/drivers/u8g2/u8g2_font.c **** }
 789              		.loc 1 594 20 view .LVU233
 790 003a 84F86F30 		strb	r3, [r4, #111]
 595:user/drivers/u8g2/u8g2_font.c **** 
 791              		.loc 1 595 1 view .LVU234
 792 003e 38BD     		pop	{r3, r4, r5, pc}
 595:user/drivers/u8g2/u8g2_font.c **** 
 793              		.loc 1 595 1 view .LVU235
 794              		.cfi_endproc
 795              	.LFE15:
 797              		.section	.text.u8g2_font_decode_get_signed_bits,"ax",%progbits
 798              		.align	1
ARM GAS  /var/folders/21/t9g5rlb91ys800n5npymflf80000gn/T//ccT2Ngli.s 			page 40


 799              		.global	u8g2_font_decode_get_signed_bits
 800              		.syntax unified
 801              		.thumb
 802              		.thumb_func
 804              	u8g2_font_decode_get_signed_bits:
 805              	.LVL88:
 806              	.LFB10:
 283:user/drivers/u8g2/u8g2_font.c ****   int8_t v, d;
 807              		.loc 1 283 1 is_stmt 1 view -0
 808              		.cfi_startproc
 809              		@ args = 0, pretend = 0, frame = 0
 810              		@ frame_needed = 0, uses_anonymous_args = 0
 283:user/drivers/u8g2/u8g2_font.c ****   int8_t v, d;
 811              		.loc 1 283 1 is_stmt 0 view .LVU237
 812 0000 10B5     		push	{r4, lr}
 813              	.LCFI4:
 814              		.cfi_def_cfa_offset 8
 815              		.cfi_offset 4, -8
 816              		.cfi_offset 14, -4
 817 0002 0C46     		mov	r4, r1
 284:user/drivers/u8g2/u8g2_font.c ****   v = (int8_t)u8g2_font_decode_get_unsigned_bits(f, cnt);
 818              		.loc 1 284 3 is_stmt 1 view .LVU238
 285:user/drivers/u8g2/u8g2_font.c ****   d = 1;
 819              		.loc 1 285 3 view .LVU239
 285:user/drivers/u8g2/u8g2_font.c ****   d = 1;
 820              		.loc 1 285 15 is_stmt 0 view .LVU240
 821 0004 FFF7FEFF 		bl	u8g2_font_decode_get_unsigned_bits
 822              	.LVL89:
 286:user/drivers/u8g2/u8g2_font.c ****   cnt--;
 823              		.loc 1 286 3 is_stmt 1 view .LVU241
 287:user/drivers/u8g2/u8g2_font.c ****   d <<= cnt;
 824              		.loc 1 287 3 view .LVU242
 287:user/drivers/u8g2/u8g2_font.c ****   d <<= cnt;
 825              		.loc 1 287 6 is_stmt 0 view .LVU243
 826 0008 013C     		subs	r4, r4, #1
 827 000a E4B2     		uxtb	r4, r4
 828              	.LVL90:
 288:user/drivers/u8g2/u8g2_font.c ****   v -= d;
 829              		.loc 1 288 3 is_stmt 1 view .LVU244
 288:user/drivers/u8g2/u8g2_font.c ****   v -= d;
 830              		.loc 1 288 5 is_stmt 0 view .LVU245
 831 000c 0123     		movs	r3, #1
 832 000e A340     		lsls	r3, r3, r4
 833              	.LVL91:
 289:user/drivers/u8g2/u8g2_font.c ****   return v;
 834              		.loc 1 289 3 is_stmt 1 view .LVU246
 289:user/drivers/u8g2/u8g2_font.c ****   return v;
 835              		.loc 1 289 5 is_stmt 0 view .LVU247
 836 0010 C01A     		subs	r0, r0, r3
 837              	.LVL92:
 290:user/drivers/u8g2/u8g2_font.c ****   //return (int8_t)u8g2_font_decode_get_unsigned_bits(f, cnt) - ((1<<cnt)>>1);
 838              		.loc 1 290 3 is_stmt 1 view .LVU248
 292:user/drivers/u8g2/u8g2_font.c **** 
 839              		.loc 1 292 1 is_stmt 0 view .LVU249
 840 0012 40B2     		sxtb	r0, r0
 292:user/drivers/u8g2/u8g2_font.c **** 
 841              		.loc 1 292 1 view .LVU250
ARM GAS  /var/folders/21/t9g5rlb91ys800n5npymflf80000gn/T//ccT2Ngli.s 			page 41


 842 0014 10BD     		pop	{r4, pc}
 292:user/drivers/u8g2/u8g2_font.c **** 
 843              		.loc 1 292 1 view .LVU251
 844              		.cfi_endproc
 845              	.LFE10:
 847              		.section	.text.u8g2_add_vector_y,"ax",%progbits
 848              		.align	1
 849              		.global	u8g2_add_vector_y
 850              		.syntax unified
 851              		.thumb
 852              		.thumb_func
 854              	u8g2_add_vector_y:
 855              	.LVL93:
 856              	.LFB11:
 297:user/drivers/u8g2/u8g2_font.c ****   switch(dir)
 857              		.loc 1 297 1 is_stmt 1 view -0
 858              		.cfi_startproc
 859              		@ args = 0, pretend = 0, frame = 0
 860              		@ frame_needed = 0, uses_anonymous_args = 0
 861              		@ link register save eliminated.
 298:user/drivers/u8g2/u8g2_font.c ****   {
 862              		.loc 1 298 3 view .LVU253
 863 0000 012B     		cmp	r3, #1
 864 0002 08D0     		beq	.L30
 865 0004 022B     		cmp	r3, #2
 866 0006 09D0     		beq	.L31
 867 0008 13B1     		cbz	r3, .L34
 310:user/drivers/u8g2/u8g2_font.c ****       break;      
 868              		.loc 1 310 7 view .LVU254
 310:user/drivers/u8g2/u8g2_font.c ****       break;      
 869              		.loc 1 310 10 is_stmt 0 view .LVU255
 870 000a 401A     		subs	r0, r0, r1
 871              	.LVL94:
 310:user/drivers/u8g2/u8g2_font.c ****       break;      
 872              		.loc 1 310 10 view .LVU256
 873 000c 80B2     		uxth	r0, r0
 874              	.LVL95:
 311:user/drivers/u8g2/u8g2_font.c ****   }
 875              		.loc 1 311 7 is_stmt 1 view .LVU257
 313:user/drivers/u8g2/u8g2_font.c **** }
 876              		.loc 1 313 3 view .LVU258
 314:user/drivers/u8g2/u8g2_font.c **** 
 877              		.loc 1 314 1 is_stmt 0 view .LVU259
 878 000e 7047     		bx	lr
 879              	.L34:
 301:user/drivers/u8g2/u8g2_font.c ****       break;
 880              		.loc 1 301 7 is_stmt 1 view .LVU260
 301:user/drivers/u8g2/u8g2_font.c ****       break;
 881              		.loc 1 301 10 is_stmt 0 view .LVU261
 882 0010 1044     		add	r0, r0, r2
 883              	.LVL96:
 301:user/drivers/u8g2/u8g2_font.c ****       break;
 884              		.loc 1 301 10 view .LVU262
 885 0012 80B2     		uxth	r0, r0
 886              	.LVL97:
 302:user/drivers/u8g2/u8g2_font.c ****     case 1:
 887              		.loc 1 302 7 is_stmt 1 view .LVU263
ARM GAS  /var/folders/21/t9g5rlb91ys800n5npymflf80000gn/T//ccT2Ngli.s 			page 42


 888 0014 7047     		bx	lr
 889              	.L30:
 304:user/drivers/u8g2/u8g2_font.c ****       break;
 890              		.loc 1 304 7 view .LVU264
 304:user/drivers/u8g2/u8g2_font.c ****       break;
 891              		.loc 1 304 10 is_stmt 0 view .LVU265
 892 0016 0844     		add	r0, r0, r1
 893              	.LVL98:
 304:user/drivers/u8g2/u8g2_font.c ****       break;
 894              		.loc 1 304 10 view .LVU266
 895 0018 80B2     		uxth	r0, r0
 896              	.LVL99:
 305:user/drivers/u8g2/u8g2_font.c ****     case 2:
 897              		.loc 1 305 7 is_stmt 1 view .LVU267
 898 001a 7047     		bx	lr
 899              	.L31:
 307:user/drivers/u8g2/u8g2_font.c ****       break;
 900              		.loc 1 307 7 view .LVU268
 307:user/drivers/u8g2/u8g2_font.c ****       break;
 901              		.loc 1 307 10 is_stmt 0 view .LVU269
 902 001c 801A     		subs	r0, r0, r2
 903              	.LVL100:
 307:user/drivers/u8g2/u8g2_font.c ****       break;
 904              		.loc 1 307 10 view .LVU270
 905 001e 80B2     		uxth	r0, r0
 906              	.LVL101:
 308:user/drivers/u8g2/u8g2_font.c ****     default:
 907              		.loc 1 308 7 is_stmt 1 view .LVU271
 908 0020 7047     		bx	lr
 909              		.cfi_endproc
 910              	.LFE11:
 912              		.section	.text.u8g2_add_vector_x,"ax",%progbits
 913              		.align	1
 914              		.global	u8g2_add_vector_x
 915              		.syntax unified
 916              		.thumb
 917              		.thumb_func
 919              	u8g2_add_vector_x:
 920              	.LVL102:
 921              	.LFB12:
 317:user/drivers/u8g2/u8g2_font.c ****   switch(dir)
 922              		.loc 1 317 1 view -0
 923              		.cfi_startproc
 924              		@ args = 0, pretend = 0, frame = 0
 925              		@ frame_needed = 0, uses_anonymous_args = 0
 926              		@ link register save eliminated.
 318:user/drivers/u8g2/u8g2_font.c ****   {
 927              		.loc 1 318 3 view .LVU273
 928 0000 012B     		cmp	r3, #1
 929 0002 08D0     		beq	.L36
 930 0004 022B     		cmp	r3, #2
 931 0006 09D0     		beq	.L37
 932 0008 13B1     		cbz	r3, .L40
 330:user/drivers/u8g2/u8g2_font.c ****       break;      
 933              		.loc 1 330 7 view .LVU274
 330:user/drivers/u8g2/u8g2_font.c ****       break;      
 934              		.loc 1 330 10 is_stmt 0 view .LVU275
ARM GAS  /var/folders/21/t9g5rlb91ys800n5npymflf80000gn/T//ccT2Ngli.s 			page 43


 935 000a 1044     		add	r0, r0, r2
 936              	.LVL103:
 330:user/drivers/u8g2/u8g2_font.c ****       break;      
 937              		.loc 1 330 10 view .LVU276
 938 000c 80B2     		uxth	r0, r0
 939              	.LVL104:
 331:user/drivers/u8g2/u8g2_font.c ****   }
 940              		.loc 1 331 7 is_stmt 1 view .LVU277
 333:user/drivers/u8g2/u8g2_font.c **** }
 941              		.loc 1 333 3 view .LVU278
 334:user/drivers/u8g2/u8g2_font.c **** 
 942              		.loc 1 334 1 is_stmt 0 view .LVU279
 943 000e 7047     		bx	lr
 944              	.L40:
 321:user/drivers/u8g2/u8g2_font.c ****       break;
 945              		.loc 1 321 7 is_stmt 1 view .LVU280
 321:user/drivers/u8g2/u8g2_font.c ****       break;
 946              		.loc 1 321 10 is_stmt 0 view .LVU281
 947 0010 0844     		add	r0, r0, r1
 948              	.LVL105:
 321:user/drivers/u8g2/u8g2_font.c ****       break;
 949              		.loc 1 321 10 view .LVU282
 950 0012 80B2     		uxth	r0, r0
 951              	.LVL106:
 322:user/drivers/u8g2/u8g2_font.c ****     case 1:
 952              		.loc 1 322 7 is_stmt 1 view .LVU283
 953 0014 7047     		bx	lr
 954              	.L36:
 324:user/drivers/u8g2/u8g2_font.c ****       break;
 955              		.loc 1 324 7 view .LVU284
 324:user/drivers/u8g2/u8g2_font.c ****       break;
 956              		.loc 1 324 10 is_stmt 0 view .LVU285
 957 0016 801A     		subs	r0, r0, r2
 958              	.LVL107:
 324:user/drivers/u8g2/u8g2_font.c ****       break;
 959              		.loc 1 324 10 view .LVU286
 960 0018 80B2     		uxth	r0, r0
 961              	.LVL108:
 325:user/drivers/u8g2/u8g2_font.c ****     case 2:
 962              		.loc 1 325 7 is_stmt 1 view .LVU287
 963 001a 7047     		bx	lr
 964              	.L37:
 327:user/drivers/u8g2/u8g2_font.c ****       break;
 965              		.loc 1 327 7 view .LVU288
 327:user/drivers/u8g2/u8g2_font.c ****       break;
 966              		.loc 1 327 10 is_stmt 0 view .LVU289
 967 001c 401A     		subs	r0, r0, r1
 968              	.LVL109:
 327:user/drivers/u8g2/u8g2_font.c ****       break;
 969              		.loc 1 327 10 view .LVU290
 970 001e 80B2     		uxth	r0, r0
 971              	.LVL110:
 328:user/drivers/u8g2/u8g2_font.c ****     default:
 972              		.loc 1 328 7 is_stmt 1 view .LVU291
 973 0020 7047     		bx	lr
 974              		.cfi_endproc
 975              	.LFE12:
ARM GAS  /var/folders/21/t9g5rlb91ys800n5npymflf80000gn/T//ccT2Ngli.s 			page 44


 977              		.section	.text.u8g2_font_decode_len,"ax",%progbits
 978              		.align	1
 979              		.global	u8g2_font_decode_len
 980              		.syntax unified
 981              		.thumb
 982              		.thumb_func
 984              	u8g2_font_decode_len:
 985              	.LVL111:
 986              	.LFB13:
 388:user/drivers/u8g2/u8g2_font.c ****   uint8_t cnt;	/* total number of remaining pixels, which have to be drawn */
 987              		.loc 1 388 1 view -0
 988              		.cfi_startproc
 989              		@ args = 0, pretend = 0, frame = 24
 990              		@ frame_needed = 0, uses_anonymous_args = 0
 388:user/drivers/u8g2/u8g2_font.c ****   uint8_t cnt;	/* total number of remaining pixels, which have to be drawn */
 991              		.loc 1 388 1 is_stmt 0 view .LVU293
 992 0000 2DE9F04F 		push	{r4, r5, r6, r7, r8, r9, r10, fp, lr}
 993              	.LCFI5:
 994              		.cfi_def_cfa_offset 36
 995              		.cfi_offset 4, -36
 996              		.cfi_offset 5, -32
 997              		.cfi_offset 6, -28
 998              		.cfi_offset 7, -24
 999              		.cfi_offset 8, -20
 1000              		.cfi_offset 9, -16
 1001              		.cfi_offset 10, -12
 1002              		.cfi_offset 11, -8
 1003              		.cfi_offset 14, -4
 1004 0004 89B0     		sub	sp, sp, #36
 1005              	.LCFI6:
 1006              		.cfi_def_cfa_offset 72
 1007 0006 0546     		mov	r5, r0
 1008 0008 8A46     		mov	r10, r1
 1009 000a 0792     		str	r2, [sp, #28]
 389:user/drivers/u8g2/u8g2_font.c ****   uint8_t rem; 	/* remaining pixel to the right edge of the glyph */
 1010              		.loc 1 389 3 is_stmt 1 view .LVU294
 390:user/drivers/u8g2/u8g2_font.c ****   uint8_t current;	/* number of pixels, which need to be drawn for the draw procedure */
 1011              		.loc 1 390 3 view .LVU295
 391:user/drivers/u8g2/u8g2_font.c ****     /* current is either equal to cnt or equal to rem */
 1012              		.loc 1 391 3 view .LVU296
 395:user/drivers/u8g2/u8g2_font.c ****   
 1013              		.loc 1 395 3 view .LVU297
 398:user/drivers/u8g2/u8g2_font.c ****   
 1014              		.loc 1 398 3 view .LVU298
 400:user/drivers/u8g2/u8g2_font.c ****   
 1015              		.loc 1 400 3 view .LVU299
 1016              	.LVL112:
 402:user/drivers/u8g2/u8g2_font.c ****   
 1017              		.loc 1 402 3 view .LVU300
 405:user/drivers/u8g2/u8g2_font.c ****   ly = decode->y;
 1018              		.loc 1 405 3 view .LVU301
 405:user/drivers/u8g2/u8g2_font.c ****   ly = decode->y;
 1019              		.loc 1 405 14 is_stmt 0 view .LVU302
 1020 000c 90F96830 		ldrsb	r3, [r0, #104]
 405:user/drivers/u8g2/u8g2_font.c ****   ly = decode->y;
 1021              		.loc 1 405 6 view .LVU303
 1022 0010 5FFA83FB 		uxtb	fp, r3
ARM GAS  /var/folders/21/t9g5rlb91ys800n5npymflf80000gn/T//ccT2Ngli.s 			page 45


 1023              	.LVL113:
 406:user/drivers/u8g2/u8g2_font.c ****   
 1024              		.loc 1 406 3 is_stmt 1 view .LVU304
 406:user/drivers/u8g2/u8g2_font.c ****   
 1025              		.loc 1 406 14 is_stmt 0 view .LVU305
 1026 0014 90F96920 		ldrsb	r2, [r0, #105]
 1027              	.LVL114:
 406:user/drivers/u8g2/u8g2_font.c ****   
 1028              		.loc 1 406 6 view .LVU306
 1029 0018 D3B2     		uxtb	r3, r2
 1030 001a 0393     		str	r3, [sp, #12]
 1031              	.LVL115:
 406:user/drivers/u8g2/u8g2_font.c ****   
 1032              		.loc 1 406 6 view .LVU307
 1033 001c 19E0     		b	.L46
 1034              	.LVL116:
 1035              	.L47:
 418:user/drivers/u8g2/u8g2_font.c ****     
 1036              		.loc 1 418 15 view .LVU308
 1037 001e CDF814A0 		str	r10, [sp, #20]
 1038 0022 1FE0     		b	.L42
 1039              	.LVL117:
 1040              	.L49:
 444:user/drivers/u8g2/u8g2_font.c ****       u8g2_DrawHVLine(u8g2, 
 1041              		.loc 1 444 7 is_stmt 1 view .LVU309
 444:user/drivers/u8g2/u8g2_font.c ****       u8g2_DrawHVLine(u8g2, 
 1042              		.loc 1 444 32 is_stmt 0 view .LVU310
 1043 0024 95F86E30 		ldrb	r3, [r5, #110]	@ zero_extendqisi2
 444:user/drivers/u8g2/u8g2_font.c ****       u8g2_DrawHVLine(u8g2, 
 1044              		.loc 1 444 24 view .LVU311
 1045 0028 85F89230 		strb	r3, [r5, #146]
 445:user/drivers/u8g2/u8g2_font.c **** 	x, 
 1046              		.loc 1 445 7 is_stmt 1 view .LVU312
 1047 002c 0097     		str	r7, [sp]
 1048 002e 059B     		ldr	r3, [sp, #20]
 1049 0030 0699     		ldr	r1, [sp, #24]
 1050 0032 2846     		mov	r0, r5
 1051 0034 FFF7FEFF 		bl	u8g2_DrawHVLine
 1052              	.LVL118:
 1053              	.L44:
 472:user/drivers/u8g2/u8g2_font.c ****       break;
 1054              		.loc 1 472 5 view .LVU313
 472:user/drivers/u8g2/u8g2_font.c ****       break;
 1055              		.loc 1 472 8 is_stmt 0 view .LVU314
 1056 0038 B245     		cmp	r10, r6
 1057 003a 3CD3     		bcc	.L45
 474:user/drivers/u8g2/u8g2_font.c ****     lx = 0;
 1058              		.loc 1 474 5 is_stmt 1 view .LVU315
 474:user/drivers/u8g2/u8g2_font.c ****     lx = 0;
 1059              		.loc 1 474 9 is_stmt 0 view .LVU316
 1060 003c ABEB0404 		sub	r4, fp, r4
 1061 0040 5444     		add	r4, r4, r10
 1062 0042 5FFA84FA 		uxtb	r10, r4
 1063              	.LVL119:
 475:user/drivers/u8g2/u8g2_font.c ****     ly++;
 1064              		.loc 1 475 5 is_stmt 1 view .LVU317
 476:user/drivers/u8g2/u8g2_font.c ****   }
ARM GAS  /var/folders/21/t9g5rlb91ys800n5npymflf80000gn/T//ccT2Ngli.s 			page 46


 1065              		.loc 1 476 5 view .LVU318
 476:user/drivers/u8g2/u8g2_font.c ****   }
 1066              		.loc 1 476 7 is_stmt 0 view .LVU319
 1067 0046 039B     		ldr	r3, [sp, #12]
 1068 0048 0133     		adds	r3, r3, #1
 1069 004a DBB2     		uxtb	r3, r3
 1070 004c 0393     		str	r3, [sp, #12]
 1071              	.LVL120:
 408:user/drivers/u8g2/u8g2_font.c ****   {
 1072              		.loc 1 408 3 is_stmt 1 view .LVU320
 475:user/drivers/u8g2/u8g2_font.c ****     ly++;
 1073              		.loc 1 475 8 is_stmt 0 view .LVU321
 1074 004e 4FF0000B 		mov	fp, #0
 1075              	.LVL121:
 1076              	.L46:
 408:user/drivers/u8g2/u8g2_font.c ****   {
 1077              		.loc 1 408 3 is_stmt 1 view .LVU322
 411:user/drivers/u8g2/u8g2_font.c ****     rem -= lx;
 1078              		.loc 1 411 5 view .LVU323
 411:user/drivers/u8g2/u8g2_font.c ****     rem -= lx;
 1079              		.loc 1 411 17 is_stmt 0 view .LVU324
 1080 0052 95F96A40 		ldrsb	r4, [r5, #106]
 411:user/drivers/u8g2/u8g2_font.c ****     rem -= lx;
 1081              		.loc 1 411 9 view .LVU325
 1082 0056 E4B2     		uxtb	r4, r4
 1083              	.LVL122:
 412:user/drivers/u8g2/u8g2_font.c ****     
 1084              		.loc 1 412 5 is_stmt 1 view .LVU326
 412:user/drivers/u8g2/u8g2_font.c ****     
 1085              		.loc 1 412 9 is_stmt 0 view .LVU327
 1086 0058 A4EB0B06 		sub	r6, r4, fp
 1087 005c F6B2     		uxtb	r6, r6
 1088              	.LVL123:
 416:user/drivers/u8g2/u8g2_font.c ****     if ( cnt < rem )
 1089              		.loc 1 416 5 is_stmt 1 view .LVU328
 417:user/drivers/u8g2/u8g2_font.c ****       current = cnt;
 1090              		.loc 1 417 5 view .LVU329
 417:user/drivers/u8g2/u8g2_font.c ****       current = cnt;
 1091              		.loc 1 417 8 is_stmt 0 view .LVU330
 1092 005e B245     		cmp	r10, r6
 1093 0060 DDD3     		bcc	.L47
 416:user/drivers/u8g2/u8g2_font.c ****     if ( cnt < rem )
 1094              		.loc 1 416 13 view .LVU331
 1095 0062 0596     		str	r6, [sp, #20]
 1096              	.L42:
 1097              	.LVL124:
 425:user/drivers/u8g2/u8g2_font.c ****     y = decode->target_y;
 1098              		.loc 1 425 5 is_stmt 1 view .LVU332
 426:user/drivers/u8g2/u8g2_font.c **** 
 1099              		.loc 1 426 5 view .LVU333
 426:user/drivers/u8g2/u8g2_font.c **** 
 1100              		.loc 1 426 7 is_stmt 0 view .LVU334
 1101 0064 B5F86690 		ldrh	r9, [r5, #102]
 1102              	.LVL125:
 431:user/drivers/u8g2/u8g2_font.c ****     y = u8g2_add_vector_y(y, lx, ly, decode->dir);
 1103              		.loc 1 431 5 is_stmt 1 view .LVU335
 431:user/drivers/u8g2/u8g2_font.c ****     y = u8g2_add_vector_y(y, lx, ly, decode->dir);
ARM GAS  /var/folders/21/t9g5rlb91ys800n5npymflf80000gn/T//ccT2Ngli.s 			page 47


 1104              		.loc 1 431 9 is_stmt 0 view .LVU336
 1105 0068 4FFA8BF1 		sxtb	r1, fp
 1106 006c 9DF90C80 		ldrsb	r8, [sp, #12]
 1107 0070 95F87070 		ldrb	r7, [r5, #112]	@ zero_extendqisi2
 1108 0074 3B46     		mov	r3, r7
 1109 0076 4246     		mov	r2, r8
 1110 0078 0491     		str	r1, [sp, #16]
 1111 007a B5F86400 		ldrh	r0, [r5, #100]
 1112 007e FFF7FEFF 		bl	u8g2_add_vector_x
 1113              	.LVL126:
 431:user/drivers/u8g2/u8g2_font.c ****     y = u8g2_add_vector_y(y, lx, ly, decode->dir);
 1114              		.loc 1 431 9 view .LVU337
 1115 0082 0690     		str	r0, [sp, #24]
 1116              	.LVL127:
 432:user/drivers/u8g2/u8g2_font.c ****     
 1117              		.loc 1 432 5 is_stmt 1 view .LVU338
 432:user/drivers/u8g2/u8g2_font.c ****     
 1118              		.loc 1 432 9 is_stmt 0 view .LVU339
 1119 0084 3B46     		mov	r3, r7
 1120 0086 4246     		mov	r2, r8
 1121 0088 0499     		ldr	r1, [sp, #16]
 1122 008a 4846     		mov	r0, r9
 1123 008c FFF7FEFF 		bl	u8g2_add_vector_y
 1124              	.LVL128:
 1125 0090 0246     		mov	r2, r0
 1126              	.LVL129:
 442:user/drivers/u8g2/u8g2_font.c ****     {
 1127              		.loc 1 442 5 is_stmt 1 view .LVU340
 442:user/drivers/u8g2/u8g2_font.c ****     {
 1128              		.loc 1 442 8 is_stmt 0 view .LVU341
 1129 0092 079B     		ldr	r3, [sp, #28]
 1130 0094 002B     		cmp	r3, #0
 1131 0096 C5D1     		bne	.L49
 456:user/drivers/u8g2/u8g2_font.c ****     {
 1132              		.loc 1 456 10 is_stmt 1 view .LVU342
 456:user/drivers/u8g2/u8g2_font.c ****     {
 1133              		.loc 1 456 21 is_stmt 0 view .LVU343
 1134 0098 95F86D30 		ldrb	r3, [r5, #109]	@ zero_extendqisi2
 456:user/drivers/u8g2/u8g2_font.c ****     {
 1135              		.loc 1 456 13 view .LVU344
 1136 009c 002B     		cmp	r3, #0
 1137 009e CBD1     		bne	.L44
 458:user/drivers/u8g2/u8g2_font.c ****       u8g2_DrawHVLine(u8g2, 
 1138              		.loc 1 458 7 is_stmt 1 view .LVU345
 458:user/drivers/u8g2/u8g2_font.c ****       u8g2_DrawHVLine(u8g2, 
 1139              		.loc 1 458 32 is_stmt 0 view .LVU346
 1140 00a0 95F86F30 		ldrb	r3, [r5, #111]	@ zero_extendqisi2
 458:user/drivers/u8g2/u8g2_font.c ****       u8g2_DrawHVLine(u8g2, 
 1141              		.loc 1 458 24 view .LVU347
 1142 00a4 85F89230 		strb	r3, [r5, #146]
 459:user/drivers/u8g2/u8g2_font.c **** 	x, 
 1143              		.loc 1 459 7 is_stmt 1 view .LVU348
 1144 00a8 0097     		str	r7, [sp]
 1145 00aa 059B     		ldr	r3, [sp, #20]
 1146 00ac 0699     		ldr	r1, [sp, #24]
 1147 00ae 2846     		mov	r0, r5
 1148 00b0 FFF7FEFF 		bl	u8g2_DrawHVLine
ARM GAS  /var/folders/21/t9g5rlb91ys800n5npymflf80000gn/T//ccT2Ngli.s 			page 48


 1149              	.LVL130:
 459:user/drivers/u8g2/u8g2_font.c **** 	x, 
 1150              		.loc 1 459 7 is_stmt 0 view .LVU349
 1151 00b4 C0E7     		b	.L44
 1152              	.L45:
 478:user/drivers/u8g2/u8g2_font.c ****   
 1153              		.loc 1 478 3 is_stmt 1 view .LVU350
 478:user/drivers/u8g2/u8g2_font.c ****   
 1154              		.loc 1 478 6 is_stmt 0 view .LVU351
 1155 00b6 0AEB0B03 		add	r3, r10, fp
 1156              	.LVL131:
 480:user/drivers/u8g2/u8g2_font.c ****   decode->y = ly;  
 1157              		.loc 1 480 3 is_stmt 1 view .LVU352
 480:user/drivers/u8g2/u8g2_font.c ****   decode->y = ly;  
 1158              		.loc 1 480 13 is_stmt 0 view .LVU353
 1159 00ba 85F86830 		strb	r3, [r5, #104]
 481:user/drivers/u8g2/u8g2_font.c **** }
 1160              		.loc 1 481 3 is_stmt 1 view .LVU354
 481:user/drivers/u8g2/u8g2_font.c **** }
 1161              		.loc 1 481 13 is_stmt 0 view .LVU355
 1162 00be 85F86980 		strb	r8, [r5, #105]
 482:user/drivers/u8g2/u8g2_font.c **** 
 1163              		.loc 1 482 1 view .LVU356
 1164 00c2 09B0     		add	sp, sp, #36
 1165              	.LCFI7:
 1166              		.cfi_def_cfa_offset 36
 1167              		@ sp needed
 1168 00c4 BDE8F08F 		pop	{r4, r5, r6, r7, r8, r9, r10, fp, pc}
 482:user/drivers/u8g2/u8g2_font.c **** 
 1169              		.loc 1 482 1 view .LVU357
 1170              		.cfi_endproc
 1171              	.LFE13:
 1173              		.section	.text.u8g2_font_2x_decode_len,"ax",%progbits
 1174              		.align	1
 1175              		.global	u8g2_font_2x_decode_len
 1176              		.syntax unified
 1177              		.thumb
 1178              		.thumb_func
 1180              	u8g2_font_2x_decode_len:
 1181              	.LVL132:
 1182              	.LFB14:
 486:user/drivers/u8g2/u8g2_font.c ****   uint8_t cnt;	/* total number of remaining pixels, which have to be drawn */
 1183              		.loc 1 486 1 is_stmt 1 view -0
 1184              		.cfi_startproc
 1185              		@ args = 0, pretend = 0, frame = 8
 1186              		@ frame_needed = 0, uses_anonymous_args = 0
 486:user/drivers/u8g2/u8g2_font.c ****   uint8_t cnt;	/* total number of remaining pixels, which have to be drawn */
 1187              		.loc 1 486 1 is_stmt 0 view .LVU359
 1188 0000 2DE9F04F 		push	{r4, r5, r6, r7, r8, r9, r10, fp, lr}
 1189              	.LCFI8:
 1190              		.cfi_def_cfa_offset 36
 1191              		.cfi_offset 4, -36
 1192              		.cfi_offset 5, -32
 1193              		.cfi_offset 6, -28
 1194              		.cfi_offset 7, -24
 1195              		.cfi_offset 8, -20
 1196              		.cfi_offset 9, -16
ARM GAS  /var/folders/21/t9g5rlb91ys800n5npymflf80000gn/T//ccT2Ngli.s 			page 49


 1197              		.cfi_offset 10, -12
 1198              		.cfi_offset 11, -8
 1199              		.cfi_offset 14, -4
 1200 0004 85B0     		sub	sp, sp, #20
 1201              	.LCFI9:
 1202              		.cfi_def_cfa_offset 56
 1203 0006 0746     		mov	r7, r0
 1204 0008 0C46     		mov	r4, r1
 1205 000a 0292     		str	r2, [sp, #8]
 487:user/drivers/u8g2/u8g2_font.c ****   uint8_t rem; 	/* remaining pixel to the right edge of the glyph */
 1206              		.loc 1 487 3 is_stmt 1 view .LVU360
 488:user/drivers/u8g2/u8g2_font.c ****   uint8_t current;	/* number of pixels, which need to be drawn for the draw procedure */
 1207              		.loc 1 488 3 view .LVU361
 489:user/drivers/u8g2/u8g2_font.c ****     /* current is either equal to cnt or equal to rem */
 1208              		.loc 1 489 3 view .LVU362
 493:user/drivers/u8g2/u8g2_font.c ****   
 1209              		.loc 1 493 3 view .LVU363
 496:user/drivers/u8g2/u8g2_font.c ****   
 1210              		.loc 1 496 3 view .LVU364
 498:user/drivers/u8g2/u8g2_font.c ****   
 1211              		.loc 1 498 3 view .LVU365
 1212              	.LVL133:
 500:user/drivers/u8g2/u8g2_font.c ****   
 1213              		.loc 1 500 3 view .LVU366
 503:user/drivers/u8g2/u8g2_font.c ****   ly = decode->y;
 1214              		.loc 1 503 3 view .LVU367
 503:user/drivers/u8g2/u8g2_font.c ****   ly = decode->y;
 1215              		.loc 1 503 14 is_stmt 0 view .LVU368
 1216 000c 90F96830 		ldrsb	r3, [r0, #104]
 503:user/drivers/u8g2/u8g2_font.c ****   ly = decode->y;
 1217              		.loc 1 503 6 view .LVU369
 1218 0010 5FFA83FA 		uxtb	r10, r3
 1219              	.LVL134:
 504:user/drivers/u8g2/u8g2_font.c ****   
 1220              		.loc 1 504 3 is_stmt 1 view .LVU370
 504:user/drivers/u8g2/u8g2_font.c ****   
 1221              		.loc 1 504 14 is_stmt 0 view .LVU371
 1222 0014 90F96930 		ldrsb	r3, [r0, #105]
 504:user/drivers/u8g2/u8g2_font.c ****   
 1223              		.loc 1 504 6 view .LVU372
 1224 0018 5FFA83FB 		uxtb	fp, r3
 1225              	.LVL135:
 504:user/drivers/u8g2/u8g2_font.c ****   
 1226              		.loc 1 504 6 view .LVU373
 1227 001c 24E0     		b	.L55
 1228              	.LVL136:
 1229              	.L56:
 516:user/drivers/u8g2/u8g2_font.c ****     
 1230              		.loc 1 516 15 view .LVU374
 1231 001e 2346     		mov	r3, r4
 1232 0020 2CE0     		b	.L51
 1233              	.LVL137:
 1234              	.L58:
 532:user/drivers/u8g2/u8g2_font.c ****       u8g2_DrawHVLine(u8g2, 
 1235              		.loc 1 532 7 is_stmt 1 view .LVU375
 532:user/drivers/u8g2/u8g2_font.c ****       u8g2_DrawHVLine(u8g2, 
 1236              		.loc 1 532 32 is_stmt 0 view .LVU376
ARM GAS  /var/folders/21/t9g5rlb91ys800n5npymflf80000gn/T//ccT2Ngli.s 			page 50


 1237 0022 97F86E20 		ldrb	r2, [r7, #110]	@ zero_extendqisi2
 532:user/drivers/u8g2/u8g2_font.c ****       u8g2_DrawHVLine(u8g2, 
 1238              		.loc 1 532 24 view .LVU377
 1239 0026 87F89220 		strb	r2, [r7, #146]
 533:user/drivers/u8g2/u8g2_font.c **** 	x, 
 1240              		.loc 1 533 7 is_stmt 1 view .LVU378
 1241 002a 5B00     		lsls	r3, r3, #1
 1242              	.LVL138:
 533:user/drivers/u8g2/u8g2_font.c **** 	x, 
 1243              		.loc 1 533 7 is_stmt 0 view .LVU379
 1244 002c 9BB2     		uxth	r3, r3
 1245 002e 0022     		movs	r2, #0
 1246 0030 0092     		str	r2, [sp]
 1247 0032 0393     		str	r3, [sp, #12]
 1248 0034 3246     		mov	r2, r6
 1249 0036 4146     		mov	r1, r8
 1250 0038 3846     		mov	r0, r7
 1251 003a FFF7FEFF 		bl	u8g2_DrawHVLine
 1252              	.LVL139:
 539:user/drivers/u8g2/u8g2_font.c **** 	x, 
 1253              		.loc 1 539 7 is_stmt 1 view .LVU380
 1254 003e 721C     		adds	r2, r6, #1
 1255 0040 0021     		movs	r1, #0
 1256 0042 0091     		str	r1, [sp]
 1257 0044 039B     		ldr	r3, [sp, #12]
 1258 0046 92B2     		uxth	r2, r2
 1259 0048 4146     		mov	r1, r8
 1260 004a 3846     		mov	r0, r7
 1261 004c FFF7FEFF 		bl	u8g2_DrawHVLine
 1262              	.LVL140:
 1263              	.L53:
 564:user/drivers/u8g2/u8g2_font.c ****       break;
 1264              		.loc 1 564 5 view .LVU381
 564:user/drivers/u8g2/u8g2_font.c ****       break;
 1265              		.loc 1 564 8 is_stmt 0 view .LVU382
 1266 0050 4C45     		cmp	r4, r9
 1267 0052 3DD3     		bcc	.L54
 566:user/drivers/u8g2/u8g2_font.c ****     lx = 0;
 1268              		.loc 1 566 5 is_stmt 1 view .LVU383
 566:user/drivers/u8g2/u8g2_font.c ****     lx = 0;
 1269              		.loc 1 566 9 is_stmt 0 view .LVU384
 1270 0054 AAEB0505 		sub	r5, r10, r5
 1271 0058 2544     		add	r5, r5, r4
 1272 005a ECB2     		uxtb	r4, r5
 1273              	.LVL141:
 567:user/drivers/u8g2/u8g2_font.c ****     ly++;
 1274              		.loc 1 567 5 is_stmt 1 view .LVU385
 568:user/drivers/u8g2/u8g2_font.c ****   }
 1275              		.loc 1 568 5 view .LVU386
 568:user/drivers/u8g2/u8g2_font.c ****   }
 1276              		.loc 1 568 7 is_stmt 0 view .LVU387
 1277 005c 0BF1010B 		add	fp, fp, #1
 1278              	.LVL142:
 568:user/drivers/u8g2/u8g2_font.c ****   }
 1279              		.loc 1 568 7 view .LVU388
 1280 0060 5FFA8BFB 		uxtb	fp, fp
 1281              	.LVL143:
ARM GAS  /var/folders/21/t9g5rlb91ys800n5npymflf80000gn/T//ccT2Ngli.s 			page 51


 506:user/drivers/u8g2/u8g2_font.c ****   {
 1282              		.loc 1 506 3 is_stmt 1 view .LVU389
 567:user/drivers/u8g2/u8g2_font.c ****     ly++;
 1283              		.loc 1 567 8 is_stmt 0 view .LVU390
 1284 0064 4FF0000A 		mov	r10, #0
 1285              	.LVL144:
 1286              	.L55:
 506:user/drivers/u8g2/u8g2_font.c ****   {
 1287              		.loc 1 506 3 is_stmt 1 view .LVU391
 509:user/drivers/u8g2/u8g2_font.c ****     rem -= lx;
 1288              		.loc 1 509 5 view .LVU392
 509:user/drivers/u8g2/u8g2_font.c ****     rem -= lx;
 1289              		.loc 1 509 17 is_stmt 0 view .LVU393
 1290 0068 97F96A50 		ldrsb	r5, [r7, #106]
 509:user/drivers/u8g2/u8g2_font.c ****     rem -= lx;
 1291              		.loc 1 509 9 view .LVU394
 1292 006c EDB2     		uxtb	r5, r5
 1293              	.LVL145:
 510:user/drivers/u8g2/u8g2_font.c ****     
 1294              		.loc 1 510 5 is_stmt 1 view .LVU395
 510:user/drivers/u8g2/u8g2_font.c ****     
 1295              		.loc 1 510 9 is_stmt 0 view .LVU396
 1296 006e A5EB0A09 		sub	r9, r5, r10
 1297 0072 5FFA89F9 		uxtb	r9, r9
 1298              	.LVL146:
 514:user/drivers/u8g2/u8g2_font.c ****     if ( cnt < rem )
 1299              		.loc 1 514 5 is_stmt 1 view .LVU397
 515:user/drivers/u8g2/u8g2_font.c ****       current = cnt;
 1300              		.loc 1 515 5 view .LVU398
 515:user/drivers/u8g2/u8g2_font.c ****       current = cnt;
 1301              		.loc 1 515 8 is_stmt 0 view .LVU399
 1302 0076 4C45     		cmp	r4, r9
 1303 0078 D1D3     		bcc	.L56
 514:user/drivers/u8g2/u8g2_font.c ****     if ( cnt < rem )
 1304              		.loc 1 514 13 view .LVU400
 1305 007a 4B46     		mov	r3, r9
 1306              	.L51:
 1307              	.LVL147:
 523:user/drivers/u8g2/u8g2_font.c ****     y = decode->target_y;
 1308              		.loc 1 523 5 is_stmt 1 view .LVU401
 523:user/drivers/u8g2/u8g2_font.c ****     y = decode->target_y;
 1309              		.loc 1 523 7 is_stmt 0 view .LVU402
 1310 007c B7F86480 		ldrh	r8, [r7, #100]
 1311              	.LVL148:
 524:user/drivers/u8g2/u8g2_font.c **** 
 1312              		.loc 1 524 5 is_stmt 1 view .LVU403
 524:user/drivers/u8g2/u8g2_font.c **** 
 1313              		.loc 1 524 7 is_stmt 0 view .LVU404
 1314 0080 B7F86660 		ldrh	r6, [r7, #102]
 1315              	.LVL149:
 526:user/drivers/u8g2/u8g2_font.c ****     y += ly*2;
 1316              		.loc 1 526 5 is_stmt 1 view .LVU405
 526:user/drivers/u8g2/u8g2_font.c ****     y += ly*2;
 1317              		.loc 1 526 7 is_stmt 0 view .LVU406
 1318 0084 08EB4A08 		add	r8, r8, r10, lsl #1
 1319 0088 1FFA88F8 		uxth	r8, r8
 1320              	.LVL150:
ARM GAS  /var/folders/21/t9g5rlb91ys800n5npymflf80000gn/T//ccT2Ngli.s 			page 52


 527:user/drivers/u8g2/u8g2_font.c ****     
 1321              		.loc 1 527 5 is_stmt 1 view .LVU407
 527:user/drivers/u8g2/u8g2_font.c ****     
 1322              		.loc 1 527 7 is_stmt 0 view .LVU408
 1323 008c 06EB4B06 		add	r6, r6, fp, lsl #1
 1324 0090 B6B2     		uxth	r6, r6
 1325              	.LVL151:
 530:user/drivers/u8g2/u8g2_font.c ****     {
 1326              		.loc 1 530 5 is_stmt 1 view .LVU409
 530:user/drivers/u8g2/u8g2_font.c ****     {
 1327              		.loc 1 530 8 is_stmt 0 view .LVU410
 1328 0092 029A     		ldr	r2, [sp, #8]
 1329 0094 002A     		cmp	r2, #0
 1330 0096 C4D1     		bne	.L58
 546:user/drivers/u8g2/u8g2_font.c ****     {
 1331              		.loc 1 546 10 is_stmt 1 view .LVU411
 546:user/drivers/u8g2/u8g2_font.c ****     {
 1332              		.loc 1 546 21 is_stmt 0 view .LVU412
 1333 0098 97F86D20 		ldrb	r2, [r7, #109]	@ zero_extendqisi2
 546:user/drivers/u8g2/u8g2_font.c ****     {
 1334              		.loc 1 546 13 view .LVU413
 1335 009c 002A     		cmp	r2, #0
 1336 009e D7D1     		bne	.L53
 548:user/drivers/u8g2/u8g2_font.c ****       u8g2_DrawHVLine(u8g2, 
 1337              		.loc 1 548 7 is_stmt 1 view .LVU414
 548:user/drivers/u8g2/u8g2_font.c ****       u8g2_DrawHVLine(u8g2, 
 1338              		.loc 1 548 32 is_stmt 0 view .LVU415
 1339 00a0 97F86F20 		ldrb	r2, [r7, #111]	@ zero_extendqisi2
 548:user/drivers/u8g2/u8g2_font.c ****       u8g2_DrawHVLine(u8g2, 
 1340              		.loc 1 548 24 view .LVU416
 1341 00a4 87F89220 		strb	r2, [r7, #146]
 549:user/drivers/u8g2/u8g2_font.c **** 	x, 
 1342              		.loc 1 549 7 is_stmt 1 view .LVU417
 1343 00a8 5B00     		lsls	r3, r3, #1
 1344              	.LVL152:
 549:user/drivers/u8g2/u8g2_font.c **** 	x, 
 1345              		.loc 1 549 7 is_stmt 0 view .LVU418
 1346 00aa 9BB2     		uxth	r3, r3
 1347 00ac 0022     		movs	r2, #0
 1348 00ae 0092     		str	r2, [sp]
 1349 00b0 0393     		str	r3, [sp, #12]
 1350 00b2 3246     		mov	r2, r6
 1351 00b4 4146     		mov	r1, r8
 1352 00b6 3846     		mov	r0, r7
 1353 00b8 FFF7FEFF 		bl	u8g2_DrawHVLine
 1354              	.LVL153:
 555:user/drivers/u8g2/u8g2_font.c **** 	x, 
 1355              		.loc 1 555 7 is_stmt 1 view .LVU419
 1356 00bc 721C     		adds	r2, r6, #1
 1357 00be 0021     		movs	r1, #0
 1358 00c0 0091     		str	r1, [sp]
 1359 00c2 039B     		ldr	r3, [sp, #12]
 1360 00c4 92B2     		uxth	r2, r2
 1361 00c6 4146     		mov	r1, r8
 1362 00c8 3846     		mov	r0, r7
 1363 00ca FFF7FEFF 		bl	u8g2_DrawHVLine
 1364              	.LVL154:
ARM GAS  /var/folders/21/t9g5rlb91ys800n5npymflf80000gn/T//ccT2Ngli.s 			page 53


 1365 00ce BFE7     		b	.L53
 1366              	.L54:
 570:user/drivers/u8g2/u8g2_font.c ****   
 1367              		.loc 1 570 3 view .LVU420
 570:user/drivers/u8g2/u8g2_font.c ****   
 1368              		.loc 1 570 6 is_stmt 0 view .LVU421
 1369 00d0 5444     		add	r4, r4, r10
 1370              	.LVL155:
 572:user/drivers/u8g2/u8g2_font.c ****   decode->y = ly;
 1371              		.loc 1 572 3 is_stmt 1 view .LVU422
 572:user/drivers/u8g2/u8g2_font.c ****   decode->y = ly;
 1372              		.loc 1 572 13 is_stmt 0 view .LVU423
 1373 00d2 87F86840 		strb	r4, [r7, #104]
 573:user/drivers/u8g2/u8g2_font.c ****   
 1374              		.loc 1 573 3 is_stmt 1 view .LVU424
 573:user/drivers/u8g2/u8g2_font.c ****   
 1375              		.loc 1 573 13 is_stmt 0 view .LVU425
 1376 00d6 87F869B0 		strb	fp, [r7, #105]
 575:user/drivers/u8g2/u8g2_font.c **** 
 1377              		.loc 1 575 1 view .LVU426
 1378 00da 05B0     		add	sp, sp, #20
 1379              	.LCFI10:
 1380              		.cfi_def_cfa_offset 36
 1381              		@ sp needed
 1382 00dc BDE8F08F 		pop	{r4, r5, r6, r7, r8, r9, r10, fp, pc}
 575:user/drivers/u8g2/u8g2_font.c **** 
 1383              		.loc 1 575 1 view .LVU427
 1384              		.cfi_endproc
 1385              	.LFE14:
 1387              		.section	.text.u8g2_font_decode_glyph,"ax",%progbits
 1388              		.align	1
 1389              		.global	u8g2_font_decode_glyph
 1390              		.syntax unified
 1391              		.thumb
 1392              		.thumb_func
 1394              	u8g2_font_decode_glyph:
 1395              	.LVL156:
 1396              	.LFB16:
 613:user/drivers/u8g2/u8g2_font.c ****   uint8_t a, b;
 1397              		.loc 1 613 1 is_stmt 1 view -0
 1398              		.cfi_startproc
 1399              		@ args = 0, pretend = 0, frame = 8
 1400              		@ frame_needed = 0, uses_anonymous_args = 0
 613:user/drivers/u8g2/u8g2_font.c ****   uint8_t a, b;
 1401              		.loc 1 613 1 is_stmt 0 view .LVU429
 1402 0000 2DE9F04F 		push	{r4, r5, r6, r7, r8, r9, r10, fp, lr}
 1403              	.LCFI11:
 1404              		.cfi_def_cfa_offset 36
 1405              		.cfi_offset 4, -36
 1406              		.cfi_offset 5, -32
 1407              		.cfi_offset 6, -28
 1408              		.cfi_offset 7, -24
 1409              		.cfi_offset 8, -20
 1410              		.cfi_offset 9, -16
 1411              		.cfi_offset 10, -12
 1412              		.cfi_offset 11, -8
 1413              		.cfi_offset 14, -4
ARM GAS  /var/folders/21/t9g5rlb91ys800n5npymflf80000gn/T//ccT2Ngli.s 			page 54


 1414 0004 85B0     		sub	sp, sp, #20
 1415              	.LCFI12:
 1416              		.cfi_def_cfa_offset 56
 1417 0006 0446     		mov	r4, r0
 614:user/drivers/u8g2/u8g2_font.c ****   int8_t x, y;
 1418              		.loc 1 614 3 is_stmt 1 view .LVU430
 615:user/drivers/u8g2/u8g2_font.c ****   int8_t d;
 1419              		.loc 1 615 3 view .LVU431
 616:user/drivers/u8g2/u8g2_font.c ****   int8_t h;
 1420              		.loc 1 616 3 view .LVU432
 617:user/drivers/u8g2/u8g2_font.c ****   u8g2_font_decode_t *decode = &(u8g2->font_decode);
 1421              		.loc 1 617 3 view .LVU433
 618:user/drivers/u8g2/u8g2_font.c ****     
 1422              		.loc 1 618 3 view .LVU434
 618:user/drivers/u8g2/u8g2_font.c ****     
 1423              		.loc 1 618 23 is_stmt 0 view .LVU435
 1424 0008 00F16005 		add	r5, r0, #96
 1425              	.LVL157:
 620:user/drivers/u8g2/u8g2_font.c ****   h = u8g2->font_decode.glyph_height;
 1426              		.loc 1 620 3 is_stmt 1 view .LVU436
 1427 000c FFF7FEFF 		bl	u8g2_font_setup_decode
 1428              	.LVL158:
 621:user/drivers/u8g2/u8g2_font.c ****   
 1429              		.loc 1 621 3 view .LVU437
 621:user/drivers/u8g2/u8g2_font.c ****   
 1430              		.loc 1 621 5 is_stmt 0 view .LVU438
 1431 0010 94F96B70 		ldrsb	r7, [r4, #107]
 1432              	.LVL159:
 623:user/drivers/u8g2/u8g2_font.c ****   y = u8g2_font_decode_get_signed_bits(decode, u8g2->font_info.bits_per_char_y);
 1433              		.loc 1 623 3 is_stmt 1 view .LVU439
 623:user/drivers/u8g2/u8g2_font.c ****   y = u8g2_font_decode_get_signed_bits(decode, u8g2->font_info.bits_per_char_y);
 1434              		.loc 1 623 7 is_stmt 0 view .LVU440
 1435 0014 94F87A10 		ldrb	r1, [r4, #122]	@ zero_extendqisi2
 1436 0018 2846     		mov	r0, r5
 1437 001a FFF7FEFF 		bl	u8g2_font_decode_get_signed_bits
 1438              	.LVL160:
 1439 001e 8046     		mov	r8, r0
 1440              	.LVL161:
 624:user/drivers/u8g2/u8g2_font.c ****   d = u8g2_font_decode_get_signed_bits(decode, u8g2->font_info.bits_per_delta_x);
 1441              		.loc 1 624 3 is_stmt 1 view .LVU441
 624:user/drivers/u8g2/u8g2_font.c ****   d = u8g2_font_decode_get_signed_bits(decode, u8g2->font_info.bits_per_delta_x);
 1442              		.loc 1 624 7 is_stmt 0 view .LVU442
 1443 0020 94F87B10 		ldrb	r1, [r4, #123]	@ zero_extendqisi2
 1444 0024 2846     		mov	r0, r5
 1445 0026 FFF7FEFF 		bl	u8g2_font_decode_get_signed_bits
 1446              	.LVL162:
 1447 002a 0646     		mov	r6, r0
 1448              	.LVL163:
 625:user/drivers/u8g2/u8g2_font.c ****   
 1449              		.loc 1 625 3 is_stmt 1 view .LVU443
 625:user/drivers/u8g2/u8g2_font.c ****   
 1450              		.loc 1 625 7 is_stmt 0 view .LVU444
 1451 002c 94F87C10 		ldrb	r1, [r4, #124]	@ zero_extendqisi2
 1452 0030 2846     		mov	r0, r5
 1453 0032 FFF7FEFF 		bl	u8g2_font_decode_get_signed_bits
 1454              	.LVL164:
 1455 0036 0390     		str	r0, [sp, #12]
ARM GAS  /var/folders/21/t9g5rlb91ys800n5npymflf80000gn/T//ccT2Ngli.s 			page 55


 1456              	.LVL165:
 627:user/drivers/u8g2/u8g2_font.c ****   {
 1457              		.loc 1 627 3 is_stmt 1 view .LVU445
 627:user/drivers/u8g2/u8g2_font.c ****   {
 1458              		.loc 1 627 14 is_stmt 0 view .LVU446
 1459 0038 94F96A90 		ldrsb	r9, [r4, #106]
 627:user/drivers/u8g2/u8g2_font.c ****   {
 1460              		.loc 1 627 6 view .LVU447
 1461 003c B9F1000F 		cmp	r9, #0
 1462 0040 54DD     		ble	.L60
 630:user/drivers/u8g2/u8g2_font.c ****     decode->target_y = u8g2_add_vector_y(decode->target_y, x, -(h+y), decode->dir);
 1463              		.loc 1 630 5 is_stmt 1 view .LVU448
 630:user/drivers/u8g2/u8g2_font.c ****     decode->target_y = u8g2_add_vector_y(decode->target_y, x, -(h+y), decode->dir);
 1464              		.loc 1 630 66 is_stmt 0 view .LVU449
 1465 0042 3E44     		add	r6, r6, r7
 1466              	.LVL166:
 630:user/drivers/u8g2/u8g2_font.c ****     decode->target_y = u8g2_add_vector_y(decode->target_y, x, -(h+y), decode->dir);
 1467              		.loc 1 630 66 view .LVU450
 1468 0044 F6B2     		uxtb	r6, r6
 630:user/drivers/u8g2/u8g2_font.c ****     decode->target_y = u8g2_add_vector_y(decode->target_y, x, -(h+y), decode->dir);
 1469              		.loc 1 630 24 view .LVU451
 1470 0046 7642     		rsbs	r6, r6, #0
 1471 0048 76B2     		sxtb	r6, r6
 1472 004a 94F870B0 		ldrb	fp, [r4, #112]	@ zero_extendqisi2
 1473 004e 5B46     		mov	r3, fp
 1474 0050 3246     		mov	r2, r6
 1475 0052 4146     		mov	r1, r8
 1476 0054 B4F86400 		ldrh	r0, [r4, #100]
 1477 0058 FFF7FEFF 		bl	u8g2_add_vector_x
 1478              	.LVL167:
 1479 005c 8246     		mov	r10, r0
 630:user/drivers/u8g2/u8g2_font.c ****     decode->target_y = u8g2_add_vector_y(decode->target_y, x, -(h+y), decode->dir);
 1480              		.loc 1 630 22 view .LVU452
 1481 005e A4F86400 		strh	r0, [r4, #100]	@ movhi
 631:user/drivers/u8g2/u8g2_font.c ****     
 1482              		.loc 1 631 5 is_stmt 1 view .LVU453
 631:user/drivers/u8g2/u8g2_font.c ****     
 1483              		.loc 1 631 24 is_stmt 0 view .LVU454
 1484 0062 5B46     		mov	r3, fp
 1485 0064 3246     		mov	r2, r6
 1486 0066 4146     		mov	r1, r8
 1487 0068 B4F86600 		ldrh	r0, [r4, #102]
 1488 006c FFF7FEFF 		bl	u8g2_add_vector_y
 1489              	.LVL168:
 1490 0070 0246     		mov	r2, r0
 631:user/drivers/u8g2/u8g2_font.c ****     
 1491              		.loc 1 631 22 view .LVU455
 1492 0072 A4F86600 		strh	r0, [r4, #102]	@ movhi
 1493              	.LBB3:
 643:user/drivers/u8g2/u8g2_font.c ****       x0 = decode->target_x;
 1494              		.loc 1 643 7 is_stmt 1 view .LVU456
 644:user/drivers/u8g2/u8g2_font.c ****       y0 = decode->target_y;
 1495              		.loc 1 644 7 view .LVU457
 1496              	.LVL169:
 645:user/drivers/u8g2/u8g2_font.c ****       x1 = x0;
 1497              		.loc 1 645 7 view .LVU458
 646:user/drivers/u8g2/u8g2_font.c ****       y1 = y0;
ARM GAS  /var/folders/21/t9g5rlb91ys800n5npymflf80000gn/T//ccT2Ngli.s 			page 56


 1498              		.loc 1 646 7 view .LVU459
 647:user/drivers/u8g2/u8g2_font.c ****       
 1499              		.loc 1 647 7 view .LVU460
 650:user/drivers/u8g2/u8g2_font.c ****       {
 1500              		.loc 1 650 7 view .LVU461
 1501 0076 BBF1030F 		cmp	fp, #3
 1502 007a 66D8     		bhi	.L69
 1503 007c DFE80BF0 		tbb	[pc, fp]
 1504              	.L63:
 1505 0080 02       		.byte	(.L66-.L63)/2
 1506 0081 3A       		.byte	(.L65-.L63)/2
 1507 0082 47       		.byte	(.L64-.L63)/2
 1508 0083 59       		.byte	(.L62-.L63)/2
 1509              		.p2align 1
 1510              	.L66:
 653:user/drivers/u8g2/u8g2_font.c **** 	    y1 += h;
 1511              		.loc 1 653 6 view .LVU462
 653:user/drivers/u8g2/u8g2_font.c **** 	    y1 += h;
 1512              		.loc 1 653 9 is_stmt 0 view .LVU463
 1513 0084 1AFA89F3 		uxtah	r3, r10, r9
 1514 0088 9BB2     		uxth	r3, r3
 1515              	.LVL170:
 654:user/drivers/u8g2/u8g2_font.c **** 	    break;
 1516              		.loc 1 654 6 is_stmt 1 view .LVU464
 654:user/drivers/u8g2/u8g2_font.c **** 	    break;
 1517              		.loc 1 654 9 is_stmt 0 view .LVU465
 1518 008a 3844     		add	r0, r0, r7
 1519              	.LVL171:
 654:user/drivers/u8g2/u8g2_font.c **** 	    break;
 1520              		.loc 1 654 9 view .LVU466
 1521 008c 80B2     		uxth	r0, r0
 1522              	.LVL172:
 655:user/drivers/u8g2/u8g2_font.c **** 	case 1:
 1523              		.loc 1 655 6 is_stmt 1 view .LVU467
 1524              	.L61:
 682:user/drivers/u8g2/u8g2_font.c **** 	return d;
 1525              		.loc 1 682 7 view .LVU468
 682:user/drivers/u8g2/u8g2_font.c **** 	return d;
 1526              		.loc 1 682 12 is_stmt 0 view .LVU469
 1527 008e 0090     		str	r0, [sp]
 1528 0090 5146     		mov	r1, r10
 1529 0092 2046     		mov	r0, r4
 1530              	.LVL173:
 682:user/drivers/u8g2/u8g2_font.c **** 	return d;
 1531              		.loc 1 682 12 view .LVU470
 1532 0094 FFF7FEFF 		bl	u8g2_IsIntersection
 1533              	.LVL174:
 682:user/drivers/u8g2/u8g2_font.c **** 	return d;
 1534              		.loc 1 682 10 view .LVU471
 1535 0098 40B3     		cbz	r0, .L60
 1536              	.LBE3:
 688:user/drivers/u8g2/u8g2_font.c ****     decode->y = 0;
 1537              		.loc 1 688 5 is_stmt 1 view .LVU472
 688:user/drivers/u8g2/u8g2_font.c ****     decode->y = 0;
 1538              		.loc 1 688 15 is_stmt 0 view .LVU473
 1539 009a 0023     		movs	r3, #0
 1540 009c 84F86830 		strb	r3, [r4, #104]
ARM GAS  /var/folders/21/t9g5rlb91ys800n5npymflf80000gn/T//ccT2Ngli.s 			page 57


 689:user/drivers/u8g2/u8g2_font.c ****     
 1541              		.loc 1 689 5 is_stmt 1 view .LVU474
 689:user/drivers/u8g2/u8g2_font.c ****     
 1542              		.loc 1 689 15 is_stmt 0 view .LVU475
 1543 00a0 84F86930 		strb	r3, [r4, #105]
 1544              	.LVL175:
 1545              	.L68:
 692:user/drivers/u8g2/u8g2_font.c ****     {
 1546              		.loc 1 692 5 is_stmt 1 view .LVU476
 694:user/drivers/u8g2/u8g2_font.c ****       b = u8g2_font_decode_get_unsigned_bits(decode, u8g2->font_info.bits_per_1);
 1547              		.loc 1 694 7 view .LVU477
 694:user/drivers/u8g2/u8g2_font.c ****       b = u8g2_font_decode_get_unsigned_bits(decode, u8g2->font_info.bits_per_1);
 1548              		.loc 1 694 11 is_stmt 0 view .LVU478
 1549 00a4 94F87610 		ldrb	r1, [r4, #118]	@ zero_extendqisi2
 1550 00a8 2846     		mov	r0, r5
 1551 00aa FFF7FEFF 		bl	u8g2_font_decode_get_unsigned_bits
 1552              	.LVL176:
 1553 00ae 8046     		mov	r8, r0
 1554              	.LVL177:
 695:user/drivers/u8g2/u8g2_font.c ****       do
 1555              		.loc 1 695 7 is_stmt 1 view .LVU479
 695:user/drivers/u8g2/u8g2_font.c ****       do
 1556              		.loc 1 695 11 is_stmt 0 view .LVU480
 1557 00b0 94F87710 		ldrb	r1, [r4, #119]	@ zero_extendqisi2
 1558 00b4 2846     		mov	r0, r5
 1559 00b6 FFF7FEFF 		bl	u8g2_font_decode_get_unsigned_bits
 1560              	.LVL178:
 1561 00ba 0646     		mov	r6, r0
 1562              	.LVL179:
 1563              	.L67:
 696:user/drivers/u8g2/u8g2_font.c ****       {
 1564              		.loc 1 696 7 is_stmt 1 discriminator 1 view .LVU481
 698:user/drivers/u8g2/u8g2_font.c **** 	u8g2_font_decode_len(u8g2, b, 1);
 1565              		.loc 1 698 2 discriminator 1 view .LVU482
 1566 00bc 0022     		movs	r2, #0
 1567 00be 4146     		mov	r1, r8
 1568 00c0 2046     		mov	r0, r4
 1569 00c2 FFF7FEFF 		bl	u8g2_font_decode_len
 1570              	.LVL180:
 699:user/drivers/u8g2/u8g2_font.c ****       } while( u8g2_font_decode_get_unsigned_bits(decode, 1) != 0 );
 1571              		.loc 1 699 2 discriminator 1 view .LVU483
 1572 00c6 0122     		movs	r2, #1
 1573 00c8 3146     		mov	r1, r6
 1574 00ca 2046     		mov	r0, r4
 1575 00cc FFF7FEFF 		bl	u8g2_font_decode_len
 1576              	.LVL181:
 700:user/drivers/u8g2/u8g2_font.c **** 
 1577              		.loc 1 700 62 discriminator 1 view .LVU484
 700:user/drivers/u8g2/u8g2_font.c **** 
 1578              		.loc 1 700 16 is_stmt 0 discriminator 1 view .LVU485
 1579 00d0 0121     		movs	r1, #1
 1580 00d2 2846     		mov	r0, r5
 1581 00d4 FFF7FEFF 		bl	u8g2_font_decode_get_unsigned_bits
 1582              	.LVL182:
 700:user/drivers/u8g2/u8g2_font.c **** 
 1583              		.loc 1 700 62 discriminator 1 view .LVU486
 1584 00d8 0028     		cmp	r0, #0
ARM GAS  /var/folders/21/t9g5rlb91ys800n5npymflf80000gn/T//ccT2Ngli.s 			page 58


 1585 00da EFD1     		bne	.L67
 702:user/drivers/u8g2/u8g2_font.c **** 	break;
 1586              		.loc 1 702 7 is_stmt 1 view .LVU487
 702:user/drivers/u8g2/u8g2_font.c **** 	break;
 1587              		.loc 1 702 18 is_stmt 0 view .LVU488
 1588 00dc 94F96930 		ldrsb	r3, [r4, #105]
 702:user/drivers/u8g2/u8g2_font.c **** 	break;
 1589              		.loc 1 702 10 view .LVU489
 1590 00e0 BB42     		cmp	r3, r7
 1591 00e2 DFDB     		blt	.L68
 707:user/drivers/u8g2/u8g2_font.c ****   }
 1592              		.loc 1 707 5 is_stmt 1 view .LVU490
 707:user/drivers/u8g2/u8g2_font.c ****   }
 1593              		.loc 1 707 30 is_stmt 0 view .LVU491
 1594 00e4 94F86E30 		ldrb	r3, [r4, #110]	@ zero_extendqisi2
 707:user/drivers/u8g2/u8g2_font.c ****   }
 1595              		.loc 1 707 22 view .LVU492
 1596 00e8 84F89230 		strb	r3, [r4, #146]
 1597              	.LVL183:
 1598              	.L60:
 710:user/drivers/u8g2/u8g2_font.c **** 
 1599              		.loc 1 710 1 view .LVU493
 1600 00ec 0398     		ldr	r0, [sp, #12]
 1601 00ee 05B0     		add	sp, sp, #20
 1602              	.LCFI13:
 1603              		.cfi_remember_state
 1604              		.cfi_def_cfa_offset 36
 1605              		@ sp needed
 1606 00f0 BDE8F08F 		pop	{r4, r5, r6, r7, r8, r9, r10, fp, pc}
 1607              	.LVL184:
 1608              	.L65:
 1609              	.LCFI14:
 1610              		.cfi_restore_state
 1611              	.LBB4:
 657:user/drivers/u8g2/u8g2_font.c **** 	    x0++;	/* shift down, because of assymetric boundaries for the interseciton test */
 1612              		.loc 1 657 6 is_stmt 1 view .LVU494
 657:user/drivers/u8g2/u8g2_font.c **** 	    x0++;	/* shift down, because of assymetric boundaries for the interseciton test */
 1613              		.loc 1 657 9 is_stmt 0 view .LVU495
 1614 00f4 AAEB0701 		sub	r1, r10, r7
 1615 00f8 89B2     		uxth	r1, r1
 1616              	.LVL185:
 658:user/drivers/u8g2/u8g2_font.c **** 	    x1++;
 1617              		.loc 1 658 6 is_stmt 1 view .LVU496
 658:user/drivers/u8g2/u8g2_font.c **** 	    x1++;
 1618              		.loc 1 658 8 is_stmt 0 view .LVU497
 1619 00fa 0131     		adds	r1, r1, #1
 1620              	.LVL186:
 659:user/drivers/u8g2/u8g2_font.c **** 	    y1 += decode->glyph_width;
 1621              		.loc 1 659 6 is_stmt 1 view .LVU498
 659:user/drivers/u8g2/u8g2_font.c **** 	    y1 += decode->glyph_width;
 1622              		.loc 1 659 8 is_stmt 0 view .LVU499
 1623 00fc 0AF10103 		add	r3, r10, #1
 1624 0100 9BB2     		uxth	r3, r3
 1625              	.LVL187:
 660:user/drivers/u8g2/u8g2_font.c **** 	    break;
 1626              		.loc 1 660 6 is_stmt 1 view .LVU500
 660:user/drivers/u8g2/u8g2_font.c **** 	    break;
ARM GAS  /var/folders/21/t9g5rlb91ys800n5npymflf80000gn/T//ccT2Ngli.s 			page 59


 1627              		.loc 1 660 9 is_stmt 0 view .LVU501
 1628 0102 10FA89F0 		uxtah	r0, r0, r9
 1629              	.LVL188:
 660:user/drivers/u8g2/u8g2_font.c **** 	    break;
 1630              		.loc 1 660 9 view .LVU502
 1631 0106 80B2     		uxth	r0, r0
 1632              	.LVL189:
 661:user/drivers/u8g2/u8g2_font.c **** 	case 2:
 1633              		.loc 1 661 6 is_stmt 1 view .LVU503
 658:user/drivers/u8g2/u8g2_font.c **** 	    x1++;
 1634              		.loc 1 658 8 is_stmt 0 view .LVU504
 1635 0108 1FFA81FA 		uxth	r10, r1
 661:user/drivers/u8g2/u8g2_font.c **** 	case 2:
 1636              		.loc 1 661 6 view .LVU505
 1637 010c BFE7     		b	.L61
 1638              	.LVL190:
 1639              	.L64:
 663:user/drivers/u8g2/u8g2_font.c **** 	    x0++;	/* shift down, because of assymetric boundaries for the interseciton test */
 1640              		.loc 1 663 6 is_stmt 1 view .LVU506
 663:user/drivers/u8g2/u8g2_font.c **** 	    x0++;	/* shift down, because of assymetric boundaries for the interseciton test */
 1641              		.loc 1 663 18 is_stmt 0 view .LVU507
 1642 010e 1FFA89F1 		uxth	r1, r9
 663:user/drivers/u8g2/u8g2_font.c **** 	    x0++;	/* shift down, because of assymetric boundaries for the interseciton test */
 1643              		.loc 1 663 9 view .LVU508
 1644 0112 AAEB0101 		sub	r1, r10, r1
 1645 0116 89B2     		uxth	r1, r1
 1646              	.LVL191:
 664:user/drivers/u8g2/u8g2_font.c **** 	    x1++;
 1647              		.loc 1 664 6 is_stmt 1 view .LVU509
 664:user/drivers/u8g2/u8g2_font.c **** 	    x1++;
 1648              		.loc 1 664 8 is_stmt 0 view .LVU510
 1649 0118 0131     		adds	r1, r1, #1
 1650              	.LVL192:
 665:user/drivers/u8g2/u8g2_font.c **** 	    y0 -= h;
 1651              		.loc 1 665 6 is_stmt 1 view .LVU511
 665:user/drivers/u8g2/u8g2_font.c **** 	    y0 -= h;
 1652              		.loc 1 665 8 is_stmt 0 view .LVU512
 1653 011a 0AF10103 		add	r3, r10, #1
 1654 011e 9BB2     		uxth	r3, r3
 1655              	.LVL193:
 666:user/drivers/u8g2/u8g2_font.c **** 	    y0++;	/* shift down, because of assymetric boundaries for the interseciton test */
 1656              		.loc 1 666 6 is_stmt 1 view .LVU513
 666:user/drivers/u8g2/u8g2_font.c **** 	    y0++;	/* shift down, because of assymetric boundaries for the interseciton test */
 1657              		.loc 1 666 9 is_stmt 0 view .LVU514
 1658 0120 C61B     		subs	r6, r0, r7
 1659 0122 B6B2     		uxth	r6, r6
 1660              	.LVL194:
 667:user/drivers/u8g2/u8g2_font.c **** 	    y1++;
 1661              		.loc 1 667 6 is_stmt 1 view .LVU515
 667:user/drivers/u8g2/u8g2_font.c **** 	    y1++;
 1662              		.loc 1 667 8 is_stmt 0 view .LVU516
 1663 0124 0136     		adds	r6, r6, #1
 1664              	.LVL195:
 668:user/drivers/u8g2/u8g2_font.c **** 	    break;	  
 1665              		.loc 1 668 6 is_stmt 1 view .LVU517
 668:user/drivers/u8g2/u8g2_font.c **** 	    break;	  
 1666              		.loc 1 668 8 is_stmt 0 view .LVU518
ARM GAS  /var/folders/21/t9g5rlb91ys800n5npymflf80000gn/T//ccT2Ngli.s 			page 60


 1667 0126 0130     		adds	r0, r0, #1
 1668              	.LVL196:
 668:user/drivers/u8g2/u8g2_font.c **** 	    break;	  
 1669              		.loc 1 668 8 view .LVU519
 1670 0128 80B2     		uxth	r0, r0
 1671              	.LVL197:
 669:user/drivers/u8g2/u8g2_font.c **** 	case 3:
 1672              		.loc 1 669 6 is_stmt 1 view .LVU520
 667:user/drivers/u8g2/u8g2_font.c **** 	    y1++;
 1673              		.loc 1 667 8 is_stmt 0 view .LVU521
 1674 012a B2B2     		uxth	r2, r6
 664:user/drivers/u8g2/u8g2_font.c **** 	    x1++;
 1675              		.loc 1 664 8 view .LVU522
 1676 012c 1FFA81FA 		uxth	r10, r1
 669:user/drivers/u8g2/u8g2_font.c **** 	case 3:
 1677              		.loc 1 669 6 view .LVU523
 1678 0130 ADE7     		b	.L61
 1679              	.LVL198:
 1680              	.L62:
 671:user/drivers/u8g2/u8g2_font.c **** 	    y0 -= decode->glyph_width;
 1681              		.loc 1 671 6 is_stmt 1 view .LVU524
 671:user/drivers/u8g2/u8g2_font.c **** 	    y0 -= decode->glyph_width;
 1682              		.loc 1 671 9 is_stmt 0 view .LVU525
 1683 0132 0AEB0703 		add	r3, r10, r7
 1684 0136 9BB2     		uxth	r3, r3
 1685              	.LVL199:
 672:user/drivers/u8g2/u8g2_font.c **** 	    y0++;	/* shift down, because of assymetric boundaries for the interseciton test */
 1686              		.loc 1 672 6 is_stmt 1 view .LVU526
 672:user/drivers/u8g2/u8g2_font.c **** 	    y0++;	/* shift down, because of assymetric boundaries for the interseciton test */
 1687              		.loc 1 672 18 is_stmt 0 view .LVU527
 1688 0138 1FFA89F1 		uxth	r1, r9
 672:user/drivers/u8g2/u8g2_font.c **** 	    y0++;	/* shift down, because of assymetric boundaries for the interseciton test */
 1689              		.loc 1 672 9 view .LVU528
 1690 013c 411A     		subs	r1, r0, r1
 1691 013e 89B2     		uxth	r1, r1
 1692              	.LVL200:
 673:user/drivers/u8g2/u8g2_font.c **** 	    y1++;
 1693              		.loc 1 673 6 is_stmt 1 view .LVU529
 673:user/drivers/u8g2/u8g2_font.c **** 	    y1++;
 1694              		.loc 1 673 8 is_stmt 0 view .LVU530
 1695 0140 0131     		adds	r1, r1, #1
 1696              	.LVL201:
 674:user/drivers/u8g2/u8g2_font.c **** 	    break;	  
 1697              		.loc 1 674 6 is_stmt 1 view .LVU531
 674:user/drivers/u8g2/u8g2_font.c **** 	    break;	  
 1698              		.loc 1 674 8 is_stmt 0 view .LVU532
 1699 0142 0130     		adds	r0, r0, #1
 1700              	.LVL202:
 674:user/drivers/u8g2/u8g2_font.c **** 	    break;	  
 1701              		.loc 1 674 8 view .LVU533
 1702 0144 80B2     		uxth	r0, r0
 1703              	.LVL203:
 675:user/drivers/u8g2/u8g2_font.c ****       }
 1704              		.loc 1 675 6 is_stmt 1 view .LVU534
 673:user/drivers/u8g2/u8g2_font.c **** 	    y1++;
 1705              		.loc 1 673 8 is_stmt 0 view .LVU535
 1706 0146 8AB2     		uxth	r2, r1
ARM GAS  /var/folders/21/t9g5rlb91ys800n5npymflf80000gn/T//ccT2Ngli.s 			page 61


 675:user/drivers/u8g2/u8g2_font.c ****       }
 1707              		.loc 1 675 6 view .LVU536
 1708 0148 A1E7     		b	.L61
 1709              	.LVL204:
 1710              	.L69:
 650:user/drivers/u8g2/u8g2_font.c ****       {
 1711              		.loc 1 650 7 view .LVU537
 1712 014a 5346     		mov	r3, r10
 1713 014c 9FE7     		b	.L61
 1714              	.LBE4:
 1715              		.cfi_endproc
 1716              	.LFE16:
 1718              		.section	.text.u8g2_font_2x_decode_glyph,"ax",%progbits
 1719              		.align	1
 1720              		.global	u8g2_font_2x_decode_glyph
 1721              		.syntax unified
 1722              		.thumb
 1723              		.thumb_func
 1725              	u8g2_font_2x_decode_glyph:
 1726              	.LVL205:
 1727              	.LFB17:
 714:user/drivers/u8g2/u8g2_font.c ****   uint8_t a, b;
 1728              		.loc 1 714 1 is_stmt 1 view -0
 1729              		.cfi_startproc
 1730              		@ args = 0, pretend = 0, frame = 0
 1731              		@ frame_needed = 0, uses_anonymous_args = 0
 714:user/drivers/u8g2/u8g2_font.c ****   uint8_t a, b;
 1732              		.loc 1 714 1 is_stmt 0 view .LVU539
 1733 0000 2DE9F043 		push	{r4, r5, r6, r7, r8, r9, lr}
 1734              	.LCFI15:
 1735              		.cfi_def_cfa_offset 28
 1736              		.cfi_offset 4, -28
 1737              		.cfi_offset 5, -24
 1738              		.cfi_offset 6, -20
 1739              		.cfi_offset 7, -16
 1740              		.cfi_offset 8, -12
 1741              		.cfi_offset 9, -8
 1742              		.cfi_offset 14, -4
 1743 0004 83B0     		sub	sp, sp, #12
 1744              	.LCFI16:
 1745              		.cfi_def_cfa_offset 40
 1746 0006 0446     		mov	r4, r0
 715:user/drivers/u8g2/u8g2_font.c ****   int8_t x, y;
 1747              		.loc 1 715 3 is_stmt 1 view .LVU540
 716:user/drivers/u8g2/u8g2_font.c ****   int8_t d;
 1748              		.loc 1 716 3 view .LVU541
 717:user/drivers/u8g2/u8g2_font.c ****   int8_t h;
 1749              		.loc 1 717 3 view .LVU542
 718:user/drivers/u8g2/u8g2_font.c ****   u8g2_font_decode_t *decode = &(u8g2->font_decode);
 1750              		.loc 1 718 3 view .LVU543
 719:user/drivers/u8g2/u8g2_font.c ****     
 1751              		.loc 1 719 3 view .LVU544
 719:user/drivers/u8g2/u8g2_font.c ****     
 1752              		.loc 1 719 23 is_stmt 0 view .LVU545
 1753 0008 00F16005 		add	r5, r0, #96
 1754              	.LVL206:
 721:user/drivers/u8g2/u8g2_font.c ****   h = u8g2->font_decode.glyph_height;
ARM GAS  /var/folders/21/t9g5rlb91ys800n5npymflf80000gn/T//ccT2Ngli.s 			page 62


 1755              		.loc 1 721 3 is_stmt 1 view .LVU546
 1756 000c FFF7FEFF 		bl	u8g2_font_setup_decode
 1757              	.LVL207:
 722:user/drivers/u8g2/u8g2_font.c ****   
 1758              		.loc 1 722 3 view .LVU547
 722:user/drivers/u8g2/u8g2_font.c ****   
 1759              		.loc 1 722 5 is_stmt 0 view .LVU548
 1760 0010 94F96B90 		ldrsb	r9, [r4, #107]
 1761              	.LVL208:
 724:user/drivers/u8g2/u8g2_font.c ****   y = u8g2_font_decode_get_signed_bits(decode, u8g2->font_info.bits_per_char_y);
 1762              		.loc 1 724 3 is_stmt 1 view .LVU549
 724:user/drivers/u8g2/u8g2_font.c ****   y = u8g2_font_decode_get_signed_bits(decode, u8g2->font_info.bits_per_char_y);
 1763              		.loc 1 724 7 is_stmt 0 view .LVU550
 1764 0014 94F87A10 		ldrb	r1, [r4, #122]	@ zero_extendqisi2
 1765 0018 2846     		mov	r0, r5
 1766 001a FFF7FEFF 		bl	u8g2_font_decode_get_signed_bits
 1767              	.LVL209:
 1768 001e 0746     		mov	r7, r0
 1769              	.LVL210:
 725:user/drivers/u8g2/u8g2_font.c ****   d = u8g2_font_decode_get_signed_bits(decode, u8g2->font_info.bits_per_delta_x);
 1770              		.loc 1 725 3 is_stmt 1 view .LVU551
 725:user/drivers/u8g2/u8g2_font.c ****   d = u8g2_font_decode_get_signed_bits(decode, u8g2->font_info.bits_per_delta_x);
 1771              		.loc 1 725 7 is_stmt 0 view .LVU552
 1772 0020 94F87B10 		ldrb	r1, [r4, #123]	@ zero_extendqisi2
 1773 0024 2846     		mov	r0, r5
 1774 0026 FFF7FEFF 		bl	u8g2_font_decode_get_signed_bits
 1775              	.LVL211:
 1776 002a 0646     		mov	r6, r0
 1777              	.LVL212:
 726:user/drivers/u8g2/u8g2_font.c ****   
 1778              		.loc 1 726 3 is_stmt 1 view .LVU553
 726:user/drivers/u8g2/u8g2_font.c ****   
 1779              		.loc 1 726 7 is_stmt 0 view .LVU554
 1780 002c 94F87C10 		ldrb	r1, [r4, #124]	@ zero_extendqisi2
 1781 0030 2846     		mov	r0, r5
 1782 0032 FFF7FEFF 		bl	u8g2_font_decode_get_signed_bits
 1783              	.LVL213:
 1784 0036 8046     		mov	r8, r0
 1785              	.LVL214:
 728:user/drivers/u8g2/u8g2_font.c ****   {
 1786              		.loc 1 728 3 is_stmt 1 view .LVU555
 728:user/drivers/u8g2/u8g2_font.c ****   {
 1787              		.loc 1 728 14 is_stmt 0 view .LVU556
 1788 0038 94F96A30 		ldrsb	r3, [r4, #106]
 728:user/drivers/u8g2/u8g2_font.c ****   {
 1789              		.loc 1 728 6 view .LVU557
 1790 003c 002B     		cmp	r3, #0
 1791 003e 05DC     		bgt	.L78
 1792              	.LVL215:
 1793              	.L72:
 771:user/drivers/u8g2/u8g2_font.c **** }
 1794              		.loc 1 771 3 is_stmt 1 view .LVU558
 771:user/drivers/u8g2/u8g2_font.c **** }
 1795              		.loc 1 771 11 is_stmt 0 view .LVU559
 1796 0040 4FEA4800 		lsl	r0, r8, #1
 1797 0044 40B2     		sxtb	r0, r0
 1798              	.L74:
ARM GAS  /var/folders/21/t9g5rlb91ys800n5npymflf80000gn/T//ccT2Ngli.s 			page 63


 772:user/drivers/u8g2/u8g2_font.c **** 
 1799              		.loc 1 772 1 view .LVU560
 1800 0046 03B0     		add	sp, sp, #12
 1801              	.LCFI17:
 1802              		.cfi_remember_state
 1803              		.cfi_def_cfa_offset 28
 1804              		@ sp needed
 1805 0048 BDE8F083 		pop	{r4, r5, r6, r7, r8, r9, pc}
 1806              	.LVL216:
 1807              	.L78:
 1808              	.LCFI18:
 1809              		.cfi_restore_state
 730:user/drivers/u8g2/u8g2_font.c ****     decode->target_y -= 2*h+y;
 1810              		.loc 1 730 5 is_stmt 1 view .LVU561
 730:user/drivers/u8g2/u8g2_font.c ****     decode->target_y -= 2*h+y;
 1811              		.loc 1 730 11 is_stmt 0 view .LVU562
 1812 004c B4F86410 		ldrh	r1, [r4, #100]
 730:user/drivers/u8g2/u8g2_font.c ****     decode->target_y -= 2*h+y;
 1813              		.loc 1 730 22 view .LVU563
 1814 0050 3944     		add	r1, r1, r7
 1815 0052 89B2     		uxth	r1, r1
 1816 0054 A4F86410 		strh	r1, [r4, #100]	@ movhi
 731:user/drivers/u8g2/u8g2_font.c **** 
 1817              		.loc 1 731 5 is_stmt 1 view .LVU564
 731:user/drivers/u8g2/u8g2_font.c **** 
 1818              		.loc 1 731 11 is_stmt 0 view .LVU565
 1819 0058 B4F86620 		ldrh	r2, [r4, #102]
 731:user/drivers/u8g2/u8g2_font.c **** 
 1820              		.loc 1 731 26 view .LVU566
 1821 005c 4FEA4907 		lsl	r7, r9, #1
 1822              	.LVL217:
 731:user/drivers/u8g2/u8g2_font.c **** 
 1823              		.loc 1 731 26 view .LVU567
 1824 0060 BFB2     		uxth	r7, r7
 731:user/drivers/u8g2/u8g2_font.c **** 
 1825              		.loc 1 731 28 view .LVU568
 1826 0062 3E44     		add	r6, r6, r7
 1827              	.LVL218:
 731:user/drivers/u8g2/u8g2_font.c **** 
 1828              		.loc 1 731 28 view .LVU569
 1829 0064 B6B2     		uxth	r6, r6
 731:user/drivers/u8g2/u8g2_font.c **** 
 1830              		.loc 1 731 22 view .LVU570
 1831 0066 921B     		subs	r2, r2, r6
 1832 0068 92B2     		uxth	r2, r2
 1833 006a A4F86620 		strh	r2, [r4, #102]	@ movhi
 1834              	.LBB5:
 735:user/drivers/u8g2/u8g2_font.c ****       x0 = decode->target_x;
 1835              		.loc 1 735 7 is_stmt 1 view .LVU571
 736:user/drivers/u8g2/u8g2_font.c ****       y0 = decode->target_y;
 1836              		.loc 1 736 7 view .LVU572
 1837              	.LVL219:
 737:user/drivers/u8g2/u8g2_font.c ****       x1 = x0;
 1838              		.loc 1 737 7 view .LVU573
 738:user/drivers/u8g2/u8g2_font.c ****       y1 = y0;
 1839              		.loc 1 738 7 view .LVU574
 739:user/drivers/u8g2/u8g2_font.c ****       
ARM GAS  /var/folders/21/t9g5rlb91ys800n5npymflf80000gn/T//ccT2Ngli.s 			page 64


 1840              		.loc 1 739 7 view .LVU575
 741:user/drivers/u8g2/u8g2_font.c ****       y1 += 2*h;      
 1841              		.loc 1 741 7 view .LVU576
 741:user/drivers/u8g2/u8g2_font.c ****       y1 += 2*h;      
 1842              		.loc 1 741 21 is_stmt 0 view .LVU577
 1843 006e 9BB2     		uxth	r3, r3
 741:user/drivers/u8g2/u8g2_font.c ****       y1 += 2*h;      
 1844              		.loc 1 741 14 view .LVU578
 1845 0070 5B00     		lsls	r3, r3, #1
 1846 0072 9BB2     		uxth	r3, r3
 741:user/drivers/u8g2/u8g2_font.c ****       y1 += 2*h;      
 1847              		.loc 1 741 10 view .LVU579
 1848 0074 0B44     		add	r3, r3, r1
 1849              	.LVL220:
 742:user/drivers/u8g2/u8g2_font.c ****       
 1850              		.loc 1 742 7 is_stmt 1 view .LVU580
 742:user/drivers/u8g2/u8g2_font.c ****       
 1851              		.loc 1 742 10 is_stmt 0 view .LVU581
 1852 0076 1744     		add	r7, r7, r2
 1853 0078 BFB2     		uxth	r7, r7
 1854              	.LVL221:
 744:user/drivers/u8g2/u8g2_font.c **** 	return 2*d;
 1855              		.loc 1 744 7 is_stmt 1 view .LVU582
 744:user/drivers/u8g2/u8g2_font.c **** 	return 2*d;
 1856              		.loc 1 744 12 is_stmt 0 view .LVU583
 1857 007a 0097     		str	r7, [sp]
 1858 007c 9BB2     		uxth	r3, r3
 744:user/drivers/u8g2/u8g2_font.c **** 	return 2*d;
 1859              		.loc 1 744 12 view .LVU584
 1860 007e 2046     		mov	r0, r4
 1861 0080 FFF7FEFF 		bl	u8g2_IsIntersection
 1862              	.LVL222:
 744:user/drivers/u8g2/u8g2_font.c **** 	return 2*d;
 1863              		.loc 1 744 10 view .LVU585
 1864 0084 48B3     		cbz	r0, .L79
 1865              	.LBE5:
 750:user/drivers/u8g2/u8g2_font.c ****     decode->y = 0;
 1866              		.loc 1 750 5 is_stmt 1 view .LVU586
 750:user/drivers/u8g2/u8g2_font.c ****     decode->y = 0;
 1867              		.loc 1 750 15 is_stmt 0 view .LVU587
 1868 0086 0023     		movs	r3, #0
 1869 0088 84F86830 		strb	r3, [r4, #104]
 751:user/drivers/u8g2/u8g2_font.c ****     
 1870              		.loc 1 751 5 is_stmt 1 view .LVU588
 751:user/drivers/u8g2/u8g2_font.c ****     
 1871              		.loc 1 751 15 is_stmt 0 view .LVU589
 1872 008c 84F86930 		strb	r3, [r4, #105]
 1873              	.LVL223:
 1874              	.L76:
 754:user/drivers/u8g2/u8g2_font.c ****     {
 1875              		.loc 1 754 5 is_stmt 1 view .LVU590
 756:user/drivers/u8g2/u8g2_font.c ****       b = u8g2_font_decode_get_unsigned_bits(decode, u8g2->font_info.bits_per_1);
 1876              		.loc 1 756 7 view .LVU591
 756:user/drivers/u8g2/u8g2_font.c ****       b = u8g2_font_decode_get_unsigned_bits(decode, u8g2->font_info.bits_per_1);
 1877              		.loc 1 756 11 is_stmt 0 view .LVU592
 1878 0090 94F87610 		ldrb	r1, [r4, #118]	@ zero_extendqisi2
 1879 0094 2846     		mov	r0, r5
ARM GAS  /var/folders/21/t9g5rlb91ys800n5npymflf80000gn/T//ccT2Ngli.s 			page 65


 1880 0096 FFF7FEFF 		bl	u8g2_font_decode_get_unsigned_bits
 1881              	.LVL224:
 1882 009a 0746     		mov	r7, r0
 1883              	.LVL225:
 757:user/drivers/u8g2/u8g2_font.c ****       do
 1884              		.loc 1 757 7 is_stmt 1 view .LVU593
 757:user/drivers/u8g2/u8g2_font.c ****       do
 1885              		.loc 1 757 11 is_stmt 0 view .LVU594
 1886 009c 94F87710 		ldrb	r1, [r4, #119]	@ zero_extendqisi2
 1887 00a0 2846     		mov	r0, r5
 1888 00a2 FFF7FEFF 		bl	u8g2_font_decode_get_unsigned_bits
 1889              	.LVL226:
 1890 00a6 0646     		mov	r6, r0
 1891              	.LVL227:
 1892              	.L75:
 758:user/drivers/u8g2/u8g2_font.c ****       {
 1893              		.loc 1 758 7 is_stmt 1 discriminator 1 view .LVU595
 760:user/drivers/u8g2/u8g2_font.c **** 	u8g2_font_2x_decode_len(u8g2, b, 1);
 1894              		.loc 1 760 2 discriminator 1 view .LVU596
 1895 00a8 0022     		movs	r2, #0
 1896 00aa 3946     		mov	r1, r7
 1897 00ac 2046     		mov	r0, r4
 1898 00ae FFF7FEFF 		bl	u8g2_font_2x_decode_len
 1899              	.LVL228:
 761:user/drivers/u8g2/u8g2_font.c ****       } while( u8g2_font_decode_get_unsigned_bits(decode, 1) != 0 );
 1900              		.loc 1 761 2 discriminator 1 view .LVU597
 1901 00b2 0122     		movs	r2, #1
 1902 00b4 3146     		mov	r1, r6
 1903 00b6 2046     		mov	r0, r4
 1904 00b8 FFF7FEFF 		bl	u8g2_font_2x_decode_len
 1905              	.LVL229:
 762:user/drivers/u8g2/u8g2_font.c **** 
 1906              		.loc 1 762 62 discriminator 1 view .LVU598
 762:user/drivers/u8g2/u8g2_font.c **** 
 1907              		.loc 1 762 16 is_stmt 0 discriminator 1 view .LVU599
 1908 00bc 0121     		movs	r1, #1
 1909 00be 2846     		mov	r0, r5
 1910 00c0 FFF7FEFF 		bl	u8g2_font_decode_get_unsigned_bits
 1911              	.LVL230:
 762:user/drivers/u8g2/u8g2_font.c **** 
 1912              		.loc 1 762 62 discriminator 1 view .LVU600
 1913 00c4 0028     		cmp	r0, #0
 1914 00c6 EFD1     		bne	.L75
 764:user/drivers/u8g2/u8g2_font.c **** 	break;
 1915              		.loc 1 764 7 is_stmt 1 view .LVU601
 764:user/drivers/u8g2/u8g2_font.c **** 	break;
 1916              		.loc 1 764 18 is_stmt 0 view .LVU602
 1917 00c8 94F96930 		ldrsb	r3, [r4, #105]
 764:user/drivers/u8g2/u8g2_font.c **** 	break;
 1918              		.loc 1 764 10 view .LVU603
 1919 00cc 4B45     		cmp	r3, r9
 1920 00ce DFDB     		blt	.L76
 769:user/drivers/u8g2/u8g2_font.c ****   }
 1921              		.loc 1 769 5 is_stmt 1 view .LVU604
 769:user/drivers/u8g2/u8g2_font.c ****   }
 1922              		.loc 1 769 30 is_stmt 0 view .LVU605
 1923 00d0 94F86E30 		ldrb	r3, [r4, #110]	@ zero_extendqisi2
ARM GAS  /var/folders/21/t9g5rlb91ys800n5npymflf80000gn/T//ccT2Ngli.s 			page 66


 769:user/drivers/u8g2/u8g2_font.c ****   }
 1924              		.loc 1 769 22 view .LVU606
 1925 00d4 84F89230 		strb	r3, [r4, #146]
 1926 00d8 B2E7     		b	.L72
 1927              	.LVL231:
 1928              	.L79:
 1929              	.LBB6:
 745:user/drivers/u8g2/u8g2_font.c ****     }
 1930              		.loc 1 745 2 is_stmt 1 view .LVU607
 745:user/drivers/u8g2/u8g2_font.c ****     }
 1931              		.loc 1 745 10 is_stmt 0 view .LVU608
 1932 00da 4FEA4800 		lsl	r0, r8, #1
 1933 00de 40B2     		sxtb	r0, r0
 1934 00e0 B1E7     		b	.L74
 1935              	.LBE6:
 1936              		.cfi_endproc
 1937              	.LFE17:
 1939              		.section	.text.u8g2_font_get_glyph_data,"ax",%progbits
 1940              		.align	1
 1941              		.global	u8g2_font_get_glyph_data
 1942              		.syntax unified
 1943              		.thumb
 1944              		.thumb_func
 1946              	u8g2_font_get_glyph_data:
 1947              	.LVL232:
 1948              	.LFB18:
 783:user/drivers/u8g2/u8g2_font.c ****   const uint8_t *font = u8g2->font;
 1949              		.loc 1 783 1 is_stmt 1 view -0
 1950              		.cfi_startproc
 1951              		@ args = 0, pretend = 0, frame = 0
 1952              		@ frame_needed = 0, uses_anonymous_args = 0
 783:user/drivers/u8g2/u8g2_font.c ****   const uint8_t *font = u8g2->font;
 1953              		.loc 1 783 1 is_stmt 0 view .LVU610
 1954 0000 70B5     		push	{r4, r5, r6, lr}
 1955              	.LCFI19:
 1956              		.cfi_def_cfa_offset 16
 1957              		.cfi_offset 4, -16
 1958              		.cfi_offset 5, -12
 1959              		.cfi_offset 6, -8
 1960              		.cfi_offset 14, -4
 1961 0002 0E46     		mov	r6, r1
 784:user/drivers/u8g2/u8g2_font.c ****   font += U8G2_FONT_DATA_STRUCT_SIZE;
 1962              		.loc 1 784 3 is_stmt 1 view .LVU611
 784:user/drivers/u8g2/u8g2_font.c ****   font += U8G2_FONT_DATA_STRUCT_SIZE;
 1963              		.loc 1 784 18 is_stmt 0 view .LVU612
 1964 0004 846D     		ldr	r4, [r0, #88]
 1965              	.LVL233:
 785:user/drivers/u8g2/u8g2_font.c **** 
 1966              		.loc 1 785 3 is_stmt 1 view .LVU613
 785:user/drivers/u8g2/u8g2_font.c **** 
 1967              		.loc 1 785 8 is_stmt 0 view .LVU614
 1968 0006 1734     		adds	r4, r4, #23
 1969              	.LVL234:
 788:user/drivers/u8g2/u8g2_font.c ****   {
 1970              		.loc 1 788 3 is_stmt 1 view .LVU615
 788:user/drivers/u8g2/u8g2_font.c ****   {
 1971              		.loc 1 788 6 is_stmt 0 view .LVU616
ARM GAS  /var/folders/21/t9g5rlb91ys800n5npymflf80000gn/T//ccT2Ngli.s 			page 67


 1972 0008 FF29     		cmp	r1, #255
 1973 000a 13D8     		bhi	.L81
 790:user/drivers/u8g2/u8g2_font.c ****     {
 1974              		.loc 1 790 5 is_stmt 1 view .LVU617
 790:user/drivers/u8g2/u8g2_font.c ****     {
 1975              		.loc 1 790 8 is_stmt 0 view .LVU618
 1976 000c 6029     		cmp	r1, #96
 1977 000e 03D9     		bls	.L82
 792:user/drivers/u8g2/u8g2_font.c ****     }
 1978              		.loc 1 792 7 is_stmt 1 view .LVU619
 792:user/drivers/u8g2/u8g2_font.c ****     }
 1979              		.loc 1 792 30 is_stmt 0 view .LVU620
 1980 0010 B0F88830 		ldrh	r3, [r0, #136]
 792:user/drivers/u8g2/u8g2_font.c ****     }
 1981              		.loc 1 792 12 view .LVU621
 1982 0014 1C44     		add	r4, r4, r3
 1983              	.LVL235:
 792:user/drivers/u8g2/u8g2_font.c ****     }
 1984              		.loc 1 792 12 view .LVU622
 1985 0016 06E0     		b	.L86
 1986              	.L82:
 794:user/drivers/u8g2/u8g2_font.c ****     {
 1987              		.loc 1 794 10 is_stmt 1 view .LVU623
 794:user/drivers/u8g2/u8g2_font.c ****     {
 1988              		.loc 1 794 13 is_stmt 0 view .LVU624
 1989 0018 4029     		cmp	r1, #64
 1990 001a 04D9     		bls	.L86
 796:user/drivers/u8g2/u8g2_font.c ****     }
 1991              		.loc 1 796 7 is_stmt 1 view .LVU625
 796:user/drivers/u8g2/u8g2_font.c ****     }
 1992              		.loc 1 796 30 is_stmt 0 view .LVU626
 1993 001c B0F88630 		ldrh	r3, [r0, #134]
 796:user/drivers/u8g2/u8g2_font.c ****     }
 1994              		.loc 1 796 12 view .LVU627
 1995 0020 1C44     		add	r4, r4, r3
 1996              	.LVL236:
 796:user/drivers/u8g2/u8g2_font.c ****     }
 1997              		.loc 1 796 12 view .LVU628
 1998 0022 00E0     		b	.L86
 1999              	.L85:
 807:user/drivers/u8g2/u8g2_font.c ****     }
 2000              		.loc 1 807 7 is_stmt 1 view .LVU629
 807:user/drivers/u8g2/u8g2_font.c ****     }
 2001              		.loc 1 807 12 is_stmt 0 view .LVU630
 2002 0024 1C44     		add	r4, r4, r3
 2003              	.LVL237:
 799:user/drivers/u8g2/u8g2_font.c ****     {
 2004              		.loc 1 799 5 is_stmt 1 view .LVU631
 2005              	.L86:
 799:user/drivers/u8g2/u8g2_font.c ****     {
 2006              		.loc 1 799 5 view .LVU632
 801:user/drivers/u8g2/u8g2_font.c **** 	break;
 2007              		.loc 1 801 7 view .LVU633
 801:user/drivers/u8g2/u8g2_font.c **** 	break;
 2008              		.loc 1 801 12 is_stmt 0 view .LVU634
 2009 0026 6378     		ldrb	r3, [r4, #1]	@ zero_extendqisi2
 801:user/drivers/u8g2/u8g2_font.c **** 	break;
ARM GAS  /var/folders/21/t9g5rlb91ys800n5npymflf80000gn/T//ccT2Ngli.s 			page 68


 2010              		.loc 1 801 10 view .LVU635
 2011 0028 03B3     		cbz	r3, .L90
 803:user/drivers/u8g2/u8g2_font.c ****       {
 2012              		.loc 1 803 7 is_stmt 1 view .LVU636
 803:user/drivers/u8g2/u8g2_font.c ****       {
 2013              		.loc 1 803 12 is_stmt 0 view .LVU637
 2014 002a 2278     		ldrb	r2, [r4]	@ zero_extendqisi2
 803:user/drivers/u8g2/u8g2_font.c ****       {
 2015              		.loc 1 803 10 view .LVU638
 2016 002c B242     		cmp	r2, r6
 2017 002e F9D1     		bne	.L85
 805:user/drivers/u8g2/u8g2_font.c ****       }
 2018              		.loc 1 805 2 is_stmt 1 view .LVU639
 805:user/drivers/u8g2/u8g2_font.c ****       }
 2019              		.loc 1 805 13 is_stmt 0 view .LVU640
 2020 0030 A01C     		adds	r0, r4, #2
 2021              	.LVL238:
 805:user/drivers/u8g2/u8g2_font.c ****       }
 2022              		.loc 1 805 13 view .LVU641
 2023 0032 1CE0     		b	.L80
 2024              	.LVL239:
 2025              	.L81:
 2026              	.LBB7:
 813:user/drivers/u8g2/u8g2_font.c ****     const uint8_t *unicode_lookup_table;
 2027              		.loc 1 813 5 is_stmt 1 view .LVU642
 814:user/drivers/u8g2/u8g2_font.c ****     
 2028              		.loc 1 814 5 view .LVU643
 825:user/drivers/u8g2/u8g2_font.c ****     unicode_lookup_table = font; 
 2029              		.loc 1 825 5 view .LVU644
 825:user/drivers/u8g2/u8g2_font.c ****     unicode_lookup_table = font; 
 2030              		.loc 1 825 28 is_stmt 0 view .LVU645
 2031 0034 B0F88A30 		ldrh	r3, [r0, #138]
 825:user/drivers/u8g2/u8g2_font.c ****     unicode_lookup_table = font; 
 2032              		.loc 1 825 10 view .LVU646
 2033 0038 1C44     		add	r4, r4, r3
 2034              	.LVL240:
 826:user/drivers/u8g2/u8g2_font.c ****   
 2035              		.loc 1 826 5 is_stmt 1 view .LVU647
 826:user/drivers/u8g2/u8g2_font.c ****   
 2036              		.loc 1 826 26 is_stmt 0 view .LVU648
 2037 003a 2546     		mov	r5, r4
 2038              	.LVL241:
 2039              	.L87:
 829:user/drivers/u8g2/u8g2_font.c ****     {
 2040              		.loc 1 829 5 is_stmt 1 discriminator 1 view .LVU649
 831:user/drivers/u8g2/u8g2_font.c ****       e = u8g2_font_get_word(unicode_lookup_table, 2);
 2041              		.loc 1 831 7 discriminator 1 view .LVU650
 831:user/drivers/u8g2/u8g2_font.c ****       e = u8g2_font_get_word(unicode_lookup_table, 2);
 2042              		.loc 1 831 15 is_stmt 0 discriminator 1 view .LVU651
 2043 003c 0021     		movs	r1, #0
 2044 003e 2846     		mov	r0, r5
 2045 0040 FFF7FEFF 		bl	u8g2_font_get_word
 2046              	.LVL242:
 831:user/drivers/u8g2/u8g2_font.c ****       e = u8g2_font_get_word(unicode_lookup_table, 2);
 2047              		.loc 1 831 12 discriminator 1 view .LVU652
 2048 0044 0444     		add	r4, r4, r0
 2049              	.LVL243:
ARM GAS  /var/folders/21/t9g5rlb91ys800n5npymflf80000gn/T//ccT2Ngli.s 			page 69


 832:user/drivers/u8g2/u8g2_font.c ****       unicode_lookup_table+=4;
 2050              		.loc 1 832 7 is_stmt 1 discriminator 1 view .LVU653
 832:user/drivers/u8g2/u8g2_font.c ****       unicode_lookup_table+=4;
 2051              		.loc 1 832 11 is_stmt 0 discriminator 1 view .LVU654
 2052 0046 0221     		movs	r1, #2
 2053 0048 2846     		mov	r0, r5
 2054 004a FFF7FEFF 		bl	u8g2_font_get_word
 2055              	.LVL244:
 833:user/drivers/u8g2/u8g2_font.c ****     } while( e < encoding );
 2056              		.loc 1 833 7 is_stmt 1 discriminator 1 view .LVU655
 833:user/drivers/u8g2/u8g2_font.c ****     } while( e < encoding );
 2057              		.loc 1 833 27 is_stmt 0 discriminator 1 view .LVU656
 2058 004e 0435     		adds	r5, r5, #4
 2059              	.LVL245:
 834:user/drivers/u8g2/u8g2_font.c ****     
 2060              		.loc 1 834 16 is_stmt 1 discriminator 1 view .LVU657
 2061 0050 8642     		cmp	r6, r0
 2062 0052 F3D8     		bhi	.L87
 2063 0054 01E0     		b	.L89
 2064              	.LVL246:
 2065              	.L88:
 861:user/drivers/u8g2/u8g2_font.c ****     }  
 2066              		.loc 1 861 7 view .LVU658
 861:user/drivers/u8g2/u8g2_font.c ****     }  
 2067              		.loc 1 861 15 is_stmt 0 view .LVU659
 2068 0056 A378     		ldrb	r3, [r4, #2]	@ zero_extendqisi2
 2069              	.LVL247:
 861:user/drivers/u8g2/u8g2_font.c ****     }  
 2070              		.loc 1 861 12 view .LVU660
 2071 0058 1C44     		add	r4, r4, r3
 2072              	.LVL248:
 837:user/drivers/u8g2/u8g2_font.c ****     {
 2073              		.loc 1 837 5 is_stmt 1 view .LVU661
 2074              	.L89:
 837:user/drivers/u8g2/u8g2_font.c ****     {
 2075              		.loc 1 837 5 view .LVU662
 839:user/drivers/u8g2/u8g2_font.c ****       e <<= 8;
 2076              		.loc 1 839 7 view .LVU663
 839:user/drivers/u8g2/u8g2_font.c ****       e <<= 8;
 2077              		.loc 1 839 11 is_stmt 0 view .LVU664
 2078 005a 2278     		ldrb	r2, [r4]	@ zero_extendqisi2
 2079              	.LVL249:
 840:user/drivers/u8g2/u8g2_font.c ****       e |= u8x8_pgm_read( font + 1 );
 2080              		.loc 1 840 7 is_stmt 1 view .LVU665
 841:user/drivers/u8g2/u8g2_font.c ****   
 2081              		.loc 1 841 7 view .LVU666
 841:user/drivers/u8g2/u8g2_font.c ****   
 2082              		.loc 1 841 12 is_stmt 0 view .LVU667
 2083 005c 6378     		ldrb	r3, [r4, #1]	@ zero_extendqisi2
 2084              	.LVL250:
 849:user/drivers/u8g2/u8g2_font.c **** 	break;
 2085              		.loc 1 849 7 is_stmt 1 view .LVU668
 849:user/drivers/u8g2/u8g2_font.c **** 	break;
 2086              		.loc 1 849 10 is_stmt 0 view .LVU669
 2087 005e 53EA0223 		orrs	r3, r3, r2, lsl #8
 2088              	.LVL251:
 849:user/drivers/u8g2/u8g2_font.c **** 	break;
ARM GAS  /var/folders/21/t9g5rlb91ys800n5npymflf80000gn/T//ccT2Ngli.s 			page 70


 2089              		.loc 1 849 10 view .LVU670
 2090 0062 05D0     		beq	.L91
 852:user/drivers/u8g2/u8g2_font.c ****       {
 2091              		.loc 1 852 7 is_stmt 1 view .LVU671
 852:user/drivers/u8g2/u8g2_font.c ****       {
 2092              		.loc 1 852 10 is_stmt 0 view .LVU672
 2093 0064 9E42     		cmp	r6, r3
 2094 0066 F6D1     		bne	.L88
 859:user/drivers/u8g2/u8g2_font.c ****       }
 2095              		.loc 1 859 2 is_stmt 1 view .LVU673
 859:user/drivers/u8g2/u8g2_font.c ****       }
 2096              		.loc 1 859 13 is_stmt 0 view .LVU674
 2097 0068 E01C     		adds	r0, r4, #3
 2098 006a 00E0     		b	.L80
 2099              	.LVL252:
 2100              	.L90:
 859:user/drivers/u8g2/u8g2_font.c ****       }
 2101              		.loc 1 859 13 view .LVU675
 2102              	.LBE7:
 866:user/drivers/u8g2/u8g2_font.c **** }
 2103              		.loc 1 866 10 view .LVU676
 2104 006c 0020     		movs	r0, #0
 2105              	.LVL253:
 2106              	.L80:
 867:user/drivers/u8g2/u8g2_font.c **** 
 2107              		.loc 1 867 1 view .LVU677
 2108 006e 70BD     		pop	{r4, r5, r6, pc}
 2109              	.LVL254:
 2110              	.L91:
 866:user/drivers/u8g2/u8g2_font.c **** }
 2111              		.loc 1 866 10 view .LVU678
 2112 0070 0020     		movs	r0, #0
 2113 0072 FCE7     		b	.L80
 2114              		.cfi_endproc
 2115              	.LFE18:
 2117              		.section	.text.u8g2_font_draw_glyph,"ax",%progbits
 2118              		.align	1
 2119              		.syntax unified
 2120              		.thumb
 2121              		.thumb_func
 2123              	u8g2_font_draw_glyph:
 2124              	.LVL255:
 2125              	.LFB19:
 870:user/drivers/u8g2/u8g2_font.c ****   u8g2_uint_t dx = 0;
 2126              		.loc 1 870 1 is_stmt 1 view -0
 2127              		.cfi_startproc
 2128              		@ args = 0, pretend = 0, frame = 0
 2129              		@ frame_needed = 0, uses_anonymous_args = 0
 870:user/drivers/u8g2/u8g2_font.c ****   u8g2_uint_t dx = 0;
 2130              		.loc 1 870 1 is_stmt 0 view .LVU680
 2131 0000 10B5     		push	{r4, lr}
 2132              	.LCFI20:
 2133              		.cfi_def_cfa_offset 8
 2134              		.cfi_offset 4, -8
 2135              		.cfi_offset 14, -4
 2136 0002 0446     		mov	r4, r0
 871:user/drivers/u8g2/u8g2_font.c ****   u8g2->font_decode.target_x = x;
ARM GAS  /var/folders/21/t9g5rlb91ys800n5npymflf80000gn/T//ccT2Ngli.s 			page 71


 2137              		.loc 1 871 3 is_stmt 1 view .LVU681
 2138              	.LVL256:
 872:user/drivers/u8g2/u8g2_font.c ****   u8g2->font_decode.target_y = y;
 2139              		.loc 1 872 3 view .LVU682
 872:user/drivers/u8g2/u8g2_font.c ****   u8g2->font_decode.target_y = y;
 2140              		.loc 1 872 30 is_stmt 0 view .LVU683
 2141 0004 A0F86410 		strh	r1, [r0, #100]	@ movhi
 873:user/drivers/u8g2/u8g2_font.c ****   //u8g2->font_decode.is_transparent = is_transparent; this is already set
 2142              		.loc 1 873 3 is_stmt 1 view .LVU684
 873:user/drivers/u8g2/u8g2_font.c ****   //u8g2->font_decode.is_transparent = is_transparent; this is already set
 2143              		.loc 1 873 30 is_stmt 0 view .LVU685
 2144 0008 A0F86620 		strh	r2, [r0, #102]	@ movhi
 876:user/drivers/u8g2/u8g2_font.c ****   if ( glyph_data != NULL )
 2145              		.loc 1 876 3 is_stmt 1 view .LVU686
 876:user/drivers/u8g2/u8g2_font.c ****   if ( glyph_data != NULL )
 2146              		.loc 1 876 31 is_stmt 0 view .LVU687
 2147 000c 1946     		mov	r1, r3
 2148              	.LVL257:
 876:user/drivers/u8g2/u8g2_font.c ****   if ( glyph_data != NULL )
 2149              		.loc 1 876 31 view .LVU688
 2150 000e FFF7FEFF 		bl	u8g2_font_get_glyph_data
 2151              	.LVL258:
 877:user/drivers/u8g2/u8g2_font.c ****   {
 2152              		.loc 1 877 3 is_stmt 1 view .LVU689
 877:user/drivers/u8g2/u8g2_font.c ****   {
 2153              		.loc 1 877 6 is_stmt 0 view .LVU690
 2154 0012 28B1     		cbz	r0, .L95
 2155 0014 0146     		mov	r1, r0
 879:user/drivers/u8g2/u8g2_font.c ****   }
 2156              		.loc 1 879 5 is_stmt 1 view .LVU691
 879:user/drivers/u8g2/u8g2_font.c ****   }
 2157              		.loc 1 879 10 is_stmt 0 view .LVU692
 2158 0016 2046     		mov	r0, r4
 2159              	.LVL259:
 879:user/drivers/u8g2/u8g2_font.c ****   }
 2160              		.loc 1 879 10 view .LVU693
 2161 0018 FFF7FEFF 		bl	u8g2_font_decode_glyph
 2162              	.LVL260:
 879:user/drivers/u8g2/u8g2_font.c ****   }
 2163              		.loc 1 879 8 view .LVU694
 2164 001c 80B2     		uxth	r0, r0
 2165              	.LVL261:
 2166              	.L94:
 881:user/drivers/u8g2/u8g2_font.c **** }
 2167              		.loc 1 881 3 is_stmt 1 view .LVU695
 882:user/drivers/u8g2/u8g2_font.c **** 
 2168              		.loc 1 882 1 is_stmt 0 view .LVU696
 2169 001e 10BD     		pop	{r4, pc}
 2170              	.LVL262:
 2171              	.L95:
 871:user/drivers/u8g2/u8g2_font.c ****   u8g2->font_decode.target_x = x;
 2172              		.loc 1 871 15 view .LVU697
 2173 0020 0020     		movs	r0, #0
 2174              	.LVL263:
 871:user/drivers/u8g2/u8g2_font.c ****   u8g2->font_decode.target_x = x;
 2175              		.loc 1 871 15 view .LVU698
 2176 0022 FCE7     		b	.L94
ARM GAS  /var/folders/21/t9g5rlb91ys800n5npymflf80000gn/T//ccT2Ngli.s 			page 72


 2177              		.cfi_endproc
 2178              	.LFE19:
 2180              		.section	.text.u8g2_font_2x_draw_glyph,"ax",%progbits
 2181              		.align	1
 2182              		.syntax unified
 2183              		.thumb
 2184              		.thumb_func
 2186              	u8g2_font_2x_draw_glyph:
 2187              	.LVL264:
 2188              	.LFB20:
 885:user/drivers/u8g2/u8g2_font.c ****   u8g2_uint_t dx = 0;
 2189              		.loc 1 885 1 is_stmt 1 view -0
 2190              		.cfi_startproc
 2191              		@ args = 0, pretend = 0, frame = 0
 2192              		@ frame_needed = 0, uses_anonymous_args = 0
 885:user/drivers/u8g2/u8g2_font.c ****   u8g2_uint_t dx = 0;
 2193              		.loc 1 885 1 is_stmt 0 view .LVU700
 2194 0000 10B5     		push	{r4, lr}
 2195              	.LCFI21:
 2196              		.cfi_def_cfa_offset 8
 2197              		.cfi_offset 4, -8
 2198              		.cfi_offset 14, -4
 2199 0002 0446     		mov	r4, r0
 886:user/drivers/u8g2/u8g2_font.c ****   u8g2->font_decode.target_x = x;
 2200              		.loc 1 886 3 is_stmt 1 view .LVU701
 2201              	.LVL265:
 887:user/drivers/u8g2/u8g2_font.c ****   u8g2->font_decode.target_y = y;
 2202              		.loc 1 887 3 view .LVU702
 887:user/drivers/u8g2/u8g2_font.c ****   u8g2->font_decode.target_y = y;
 2203              		.loc 1 887 30 is_stmt 0 view .LVU703
 2204 0004 A0F86410 		strh	r1, [r0, #100]	@ movhi
 888:user/drivers/u8g2/u8g2_font.c ****   const uint8_t *glyph_data = u8g2_font_get_glyph_data(u8g2, encoding);
 2205              		.loc 1 888 3 is_stmt 1 view .LVU704
 888:user/drivers/u8g2/u8g2_font.c ****   const uint8_t *glyph_data = u8g2_font_get_glyph_data(u8g2, encoding);
 2206              		.loc 1 888 30 is_stmt 0 view .LVU705
 2207 0008 A0F86620 		strh	r2, [r0, #102]	@ movhi
 889:user/drivers/u8g2/u8g2_font.c ****   if ( glyph_data != NULL )
 2208              		.loc 1 889 3 is_stmt 1 view .LVU706
 889:user/drivers/u8g2/u8g2_font.c ****   if ( glyph_data != NULL )
 2209              		.loc 1 889 31 is_stmt 0 view .LVU707
 2210 000c 1946     		mov	r1, r3
 2211              	.LVL266:
 889:user/drivers/u8g2/u8g2_font.c ****   if ( glyph_data != NULL )
 2212              		.loc 1 889 31 view .LVU708
 2213 000e FFF7FEFF 		bl	u8g2_font_get_glyph_data
 2214              	.LVL267:
 890:user/drivers/u8g2/u8g2_font.c ****   {
 2215              		.loc 1 890 3 is_stmt 1 view .LVU709
 890:user/drivers/u8g2/u8g2_font.c ****   {
 2216              		.loc 1 890 6 is_stmt 0 view .LVU710
 2217 0012 28B1     		cbz	r0, .L99
 2218 0014 0146     		mov	r1, r0
 892:user/drivers/u8g2/u8g2_font.c ****   }
 2219              		.loc 1 892 5 is_stmt 1 view .LVU711
 892:user/drivers/u8g2/u8g2_font.c ****   }
 2220              		.loc 1 892 10 is_stmt 0 view .LVU712
 2221 0016 2046     		mov	r0, r4
ARM GAS  /var/folders/21/t9g5rlb91ys800n5npymflf80000gn/T//ccT2Ngli.s 			page 73


 2222              	.LVL268:
 892:user/drivers/u8g2/u8g2_font.c ****   }
 2223              		.loc 1 892 10 view .LVU713
 2224 0018 FFF7FEFF 		bl	u8g2_font_2x_decode_glyph
 2225              	.LVL269:
 892:user/drivers/u8g2/u8g2_font.c ****   }
 2226              		.loc 1 892 8 view .LVU714
 2227 001c 80B2     		uxth	r0, r0
 2228              	.LVL270:
 2229              	.L98:
 894:user/drivers/u8g2/u8g2_font.c **** }
 2230              		.loc 1 894 3 is_stmt 1 view .LVU715
 895:user/drivers/u8g2/u8g2_font.c **** 
 2231              		.loc 1 895 1 is_stmt 0 view .LVU716
 2232 001e 10BD     		pop	{r4, pc}
 2233              	.LVL271:
 2234              	.L99:
 886:user/drivers/u8g2/u8g2_font.c ****   u8g2->font_decode.target_x = x;
 2235              		.loc 1 886 15 view .LVU717
 2236 0020 0020     		movs	r0, #0
 2237              	.LVL272:
 886:user/drivers/u8g2/u8g2_font.c ****   u8g2->font_decode.target_x = x;
 2238              		.loc 1 886 15 view .LVU718
 2239 0022 FCE7     		b	.L98
 2240              		.cfi_endproc
 2241              	.LFE20:
 2243              		.section	.text.u8g2_is_all_valid,"ax",%progbits
 2244              		.align	1
 2245              		.syntax unified
 2246              		.thumb
 2247              		.thumb_func
 2249              	u8g2_is_all_valid:
 2250              	.LVL273:
 2251              	.LFB47:
1271:user/drivers/u8g2/u8g2_font.c **** 
1272:user/drivers/u8g2/u8g2_font.c **** void u8g2_SetFontPosCenter(u8g2_t *u8g2)
1273:user/drivers/u8g2/u8g2_font.c **** {
1274:user/drivers/u8g2/u8g2_font.c ****   u8g2->font_calc_vref = u8g2_font_calc_vref_center;
1275:user/drivers/u8g2/u8g2_font.c **** }
1276:user/drivers/u8g2/u8g2_font.c **** 
1277:user/drivers/u8g2/u8g2_font.c **** /*===============================================*/
1278:user/drivers/u8g2/u8g2_font.c **** 
1279:user/drivers/u8g2/u8g2_font.c **** void u8g2_SetFont(u8g2_t *u8g2, const uint8_t  *font)
1280:user/drivers/u8g2/u8g2_font.c **** {
1281:user/drivers/u8g2/u8g2_font.c ****   if ( u8g2->font != font )
1282:user/drivers/u8g2/u8g2_font.c ****   {
1283:user/drivers/u8g2/u8g2_font.c **** //#ifdef  __unix__
1284:user/drivers/u8g2/u8g2_font.c **** //	u8g2->last_font_data = NULL;
1285:user/drivers/u8g2/u8g2_font.c **** //	u8g2->last_unicode = 0x0ffff;
1286:user/drivers/u8g2/u8g2_font.c **** //#endif 
1287:user/drivers/u8g2/u8g2_font.c ****     u8g2->font = font;
1288:user/drivers/u8g2/u8g2_font.c ****     u8g2_read_font_info(&(u8g2->font_info), font);
1289:user/drivers/u8g2/u8g2_font.c ****     u8g2_UpdateRefHeight(u8g2);
1290:user/drivers/u8g2/u8g2_font.c ****     /* u8g2_SetFontPosBaseline(u8g2); */ /* removed with issue 195 */
1291:user/drivers/u8g2/u8g2_font.c ****   }
1292:user/drivers/u8g2/u8g2_font.c **** }
1293:user/drivers/u8g2/u8g2_font.c **** 
ARM GAS  /var/folders/21/t9g5rlb91ys800n5npymflf80000gn/T//ccT2Ngli.s 			page 74


1294:user/drivers/u8g2/u8g2_font.c **** /*===============================================*/
1295:user/drivers/u8g2/u8g2_font.c **** 
1296:user/drivers/u8g2/u8g2_font.c **** static uint8_t u8g2_is_all_valid(u8g2_t *u8g2, const char *str) U8G2_NOINLINE;
1297:user/drivers/u8g2/u8g2_font.c **** static uint8_t u8g2_is_all_valid(u8g2_t *u8g2, const char *str)
1298:user/drivers/u8g2/u8g2_font.c **** {
 2252              		.loc 1 1298 1 is_stmt 1 view -0
 2253              		.cfi_startproc
 2254              		@ args = 0, pretend = 0, frame = 0
 2255              		@ frame_needed = 0, uses_anonymous_args = 0
 2256              		.loc 1 1298 1 is_stmt 0 view .LVU720
 2257 0000 38B5     		push	{r3, r4, r5, lr}
 2258              	.LCFI22:
 2259              		.cfi_def_cfa_offset 16
 2260              		.cfi_offset 3, -16
 2261              		.cfi_offset 4, -12
 2262              		.cfi_offset 5, -8
 2263              		.cfi_offset 14, -4
 2264 0002 0546     		mov	r5, r0
 2265 0004 0C46     		mov	r4, r1
1299:user/drivers/u8g2/u8g2_font.c ****   uint16_t e;
 2266              		.loc 1 1299 3 is_stmt 1 view .LVU721
1300:user/drivers/u8g2/u8g2_font.c ****   u8x8_utf8_init(u8g2_GetU8x8(u8g2));
 2267              		.loc 1 1300 3 view .LVU722
 2268 0006 FFF7FEFF 		bl	u8x8_utf8_init
 2269              	.LVL274:
 2270              	.L103:
1301:user/drivers/u8g2/u8g2_font.c ****   for(;;)
 2271              		.loc 1 1301 3 view .LVU723
1302:user/drivers/u8g2/u8g2_font.c ****   {
1303:user/drivers/u8g2/u8g2_font.c ****     e = u8g2->u8x8.next_cb(u8g2_GetU8x8(u8g2), (uint8_t)*str);
 2272              		.loc 1 1303 5 view .LVU724
 2273              		.loc 1 1303 19 is_stmt 0 view .LVU725
 2274 000a 6B68     		ldr	r3, [r5, #4]
 2275              		.loc 1 1303 9 view .LVU726
 2276 000c 2178     		ldrb	r1, [r4]	@ zero_extendqisi2
 2277 000e 2846     		mov	r0, r5
 2278 0010 9847     		blx	r3
 2279              	.LVL275:
1304:user/drivers/u8g2/u8g2_font.c ****     if ( e == 0x0ffff )
 2280              		.loc 1 1304 5 is_stmt 1 view .LVU727
 2281              		.loc 1 1304 8 is_stmt 0 view .LVU728
 2282 0012 4FF6FF73 		movw	r3, #65535
 2283 0016 9842     		cmp	r0, r3
 2284 0018 0BD0     		beq	.L104
1305:user/drivers/u8g2/u8g2_font.c ****       break;
1306:user/drivers/u8g2/u8g2_font.c ****     str++;
 2285              		.loc 1 1306 5 is_stmt 1 view .LVU729
 2286              		.loc 1 1306 8 is_stmt 0 view .LVU730
 2287 001a 0134     		adds	r4, r4, #1
 2288              	.LVL276:
1307:user/drivers/u8g2/u8g2_font.c ****     if ( e != 0x0fffe )
 2289              		.loc 1 1307 5 is_stmt 1 view .LVU731
 2290              		.loc 1 1307 8 is_stmt 0 view .LVU732
 2291 001c 4FF6FE73 		movw	r3, #65534
 2292 0020 9842     		cmp	r0, r3
 2293 0022 F2D0     		beq	.L103
1308:user/drivers/u8g2/u8g2_font.c ****     {
ARM GAS  /var/folders/21/t9g5rlb91ys800n5npymflf80000gn/T//ccT2Ngli.s 			page 75


1309:user/drivers/u8g2/u8g2_font.c ****       if ( u8g2_font_get_glyph_data(u8g2, e) == NULL )
 2294              		.loc 1 1309 7 is_stmt 1 view .LVU733
 2295              		.loc 1 1309 12 is_stmt 0 view .LVU734
 2296 0024 0146     		mov	r1, r0
 2297 0026 2846     		mov	r0, r5
 2298              	.LVL277:
 2299              		.loc 1 1309 12 view .LVU735
 2300 0028 FFF7FEFF 		bl	u8g2_font_get_glyph_data
 2301              	.LVL278:
 2302              		.loc 1 1309 10 view .LVU736
 2303 002c 0028     		cmp	r0, #0
 2304 002e ECD1     		bne	.L103
 2305 0030 00E0     		b	.L102
 2306              	.LVL279:
 2307              	.L104:
1310:user/drivers/u8g2/u8g2_font.c **** 	return 0;
1311:user/drivers/u8g2/u8g2_font.c ****     }
1312:user/drivers/u8g2/u8g2_font.c ****   }
1313:user/drivers/u8g2/u8g2_font.c ****   return 1;
 2308              		.loc 1 1313 10 view .LVU737
 2309 0032 0120     		movs	r0, #1
 2310              	.LVL280:
 2311              	.L102:
1314:user/drivers/u8g2/u8g2_font.c **** }
 2312              		.loc 1 1314 1 view .LVU738
 2313 0034 38BD     		pop	{r3, r4, r5, pc}
 2314              		.loc 1 1314 1 view .LVU739
 2315              		.cfi_endproc
 2316              	.LFE47:
 2318              		.section	.text.u8g2_GetGlyphHorizontalProperties,"ax",%progbits
 2319              		.align	1
 2320              		.syntax unified
 2321              		.thumb
 2322              		.thumb_func
 2324              	u8g2_GetGlyphHorizontalProperties:
 2325              	.LVL281:
 2326              	.LFB50:
1315:user/drivers/u8g2/u8g2_font.c **** 
1316:user/drivers/u8g2/u8g2_font.c **** uint8_t u8g2_IsAllValidUTF8(u8g2_t *u8g2, const char *str)
1317:user/drivers/u8g2/u8g2_font.c **** {
1318:user/drivers/u8g2/u8g2_font.c ****   u8g2->u8x8.next_cb = u8x8_utf8_next;
1319:user/drivers/u8g2/u8g2_font.c ****   return u8g2_is_all_valid(u8g2, str);
1320:user/drivers/u8g2/u8g2_font.c **** }
1321:user/drivers/u8g2/u8g2_font.c **** 
1322:user/drivers/u8g2/u8g2_font.c **** 
1323:user/drivers/u8g2/u8g2_font.c **** /* string calculation is stilll not 100% perfect as it addes the initial string offset to the overa
1324:user/drivers/u8g2/u8g2_font.c **** static u8g2_uint_t u8g2_string_width(u8g2_t *u8g2, const char *str) U8G2_NOINLINE;
1325:user/drivers/u8g2/u8g2_font.c **** static u8g2_uint_t u8g2_string_width(u8g2_t *u8g2, const char *str)
1326:user/drivers/u8g2/u8g2_font.c **** {
1327:user/drivers/u8g2/u8g2_font.c ****   uint16_t e;
1328:user/drivers/u8g2/u8g2_font.c ****   u8g2_uint_t  w, dx;
1329:user/drivers/u8g2/u8g2_font.c **** #ifdef U8G2_BALANCED_STR_WIDTH_CALCULATION
1330:user/drivers/u8g2/u8g2_font.c ****   int8_t initial_x_offset = -64;
1331:user/drivers/u8g2/u8g2_font.c **** #endif 
1332:user/drivers/u8g2/u8g2_font.c ****   
1333:user/drivers/u8g2/u8g2_font.c ****   u8g2->font_decode.glyph_width = 0;
1334:user/drivers/u8g2/u8g2_font.c ****   u8x8_utf8_init(u8g2_GetU8x8(u8g2));
ARM GAS  /var/folders/21/t9g5rlb91ys800n5npymflf80000gn/T//ccT2Ngli.s 			page 76


1335:user/drivers/u8g2/u8g2_font.c ****   
1336:user/drivers/u8g2/u8g2_font.c ****   /* reset the total width to zero, this will be expanded during calculation */
1337:user/drivers/u8g2/u8g2_font.c ****   w = 0;
1338:user/drivers/u8g2/u8g2_font.c ****   dx = 0;
1339:user/drivers/u8g2/u8g2_font.c **** 
1340:user/drivers/u8g2/u8g2_font.c ****   // printf("str=<%s>\n", str);
1341:user/drivers/u8g2/u8g2_font.c **** 	
1342:user/drivers/u8g2/u8g2_font.c ****   for(;;)
1343:user/drivers/u8g2/u8g2_font.c ****   {
1344:user/drivers/u8g2/u8g2_font.c ****     e = u8g2->u8x8.next_cb(u8g2_GetU8x8(u8g2), (uint8_t)*str);
1345:user/drivers/u8g2/u8g2_font.c ****     if ( e == 0x0ffff )
1346:user/drivers/u8g2/u8g2_font.c ****       break;
1347:user/drivers/u8g2/u8g2_font.c ****     str++;
1348:user/drivers/u8g2/u8g2_font.c ****     if ( e != 0x0fffe )
1349:user/drivers/u8g2/u8g2_font.c ****     {
1350:user/drivers/u8g2/u8g2_font.c ****       dx = u8g2_GetGlyphWidth(u8g2, e);		/* delta x value of the glyph */
1351:user/drivers/u8g2/u8g2_font.c **** #ifdef U8G2_BALANCED_STR_WIDTH_CALCULATION
1352:user/drivers/u8g2/u8g2_font.c ****       if ( initial_x_offset == -64 )
1353:user/drivers/u8g2/u8g2_font.c ****         initial_x_offset = u8g2->glyph_x_offset;
1354:user/drivers/u8g2/u8g2_font.c **** #endif 
1355:user/drivers/u8g2/u8g2_font.c ****       //printf("'%c' x=%d dx=%d w=%d io=%d ", e, u8g2->glyph_x_offset, dx, u8g2->font_decode.glyph_
1356:user/drivers/u8g2/u8g2_font.c ****       w += dx;
1357:user/drivers/u8g2/u8g2_font.c ****     }
1358:user/drivers/u8g2/u8g2_font.c ****   }
1359:user/drivers/u8g2/u8g2_font.c ****   //printf("\n");
1360:user/drivers/u8g2/u8g2_font.c ****   
1361:user/drivers/u8g2/u8g2_font.c ****   /* adjust the last glyph, check for issue #16: do not adjust if width is 0 */
1362:user/drivers/u8g2/u8g2_font.c ****   if ( u8g2->font_decode.glyph_width != 0 )
1363:user/drivers/u8g2/u8g2_font.c ****   {
1364:user/drivers/u8g2/u8g2_font.c ****     //printf("string width adjust dx=%d glyph_width=%d x-offset=%d\n", dx, u8g2->font_decode.glyph_
1365:user/drivers/u8g2/u8g2_font.c ****     w -= dx;
1366:user/drivers/u8g2/u8g2_font.c ****     w += u8g2->font_decode.glyph_width;  /* the real pixel width of the glyph, sideeffect of GetGly
1367:user/drivers/u8g2/u8g2_font.c ****     /* issue #46: we have to add the x offset also */
1368:user/drivers/u8g2/u8g2_font.c ****     w += u8g2->glyph_x_offset;	/* this value is set as a side effect of u8g2_GetGlyphWidth() */
1369:user/drivers/u8g2/u8g2_font.c **** #ifdef U8G2_BALANCED_STR_WIDTH_CALCULATION
1370:user/drivers/u8g2/u8g2_font.c ****     /* https://github.com/olikraus/u8g2/issues/1561 */
1371:user/drivers/u8g2/u8g2_font.c ****     if ( initial_x_offset > 0 )
1372:user/drivers/u8g2/u8g2_font.c ****       w+=initial_x_offset;
1373:user/drivers/u8g2/u8g2_font.c **** #endif 
1374:user/drivers/u8g2/u8g2_font.c ****   }
1375:user/drivers/u8g2/u8g2_font.c ****   // printf("w=%d \n", w);
1376:user/drivers/u8g2/u8g2_font.c ****   
1377:user/drivers/u8g2/u8g2_font.c ****   return w;  
1378:user/drivers/u8g2/u8g2_font.c **** }
1379:user/drivers/u8g2/u8g2_font.c **** 
1380:user/drivers/u8g2/u8g2_font.c **** static void u8g2_GetGlyphHorizontalProperties(u8g2_t *u8g2, uint16_t requested_encoding, uint8_t *w
1381:user/drivers/u8g2/u8g2_font.c **** {
 2327              		.loc 1 1381 1 is_stmt 1 view -0
 2328              		.cfi_startproc
 2329              		@ args = 4, pretend = 0, frame = 0
 2330              		@ frame_needed = 0, uses_anonymous_args = 0
 2331              		.loc 1 1381 1 is_stmt 0 view .LVU741
 2332 0000 70B5     		push	{r4, r5, r6, lr}
 2333              	.LCFI23:
 2334              		.cfi_def_cfa_offset 16
 2335              		.cfi_offset 4, -16
 2336              		.cfi_offset 5, -12
ARM GAS  /var/folders/21/t9g5rlb91ys800n5npymflf80000gn/T//ccT2Ngli.s 			page 77


 2337              		.cfi_offset 6, -8
 2338              		.cfi_offset 14, -4
 2339 0002 0446     		mov	r4, r0
 2340 0004 1646     		mov	r6, r2
 2341 0006 1D46     		mov	r5, r3
1382:user/drivers/u8g2/u8g2_font.c ****   const uint8_t *glyph_data = u8g2_font_get_glyph_data(u8g2, requested_encoding);
 2342              		.loc 1 1382 3 is_stmt 1 view .LVU742
 2343              		.loc 1 1382 31 is_stmt 0 view .LVU743
 2344 0008 FFF7FEFF 		bl	u8g2_font_get_glyph_data
 2345              	.LVL282:
1383:user/drivers/u8g2/u8g2_font.c ****   if ( glyph_data == NULL )
 2346              		.loc 1 1383 3 is_stmt 1 view .LVU744
 2347              		.loc 1 1383 6 is_stmt 0 view .LVU745
 2348 000c D0B1     		cbz	r0, .L106
 2349 000e 0146     		mov	r1, r0
1384:user/drivers/u8g2/u8g2_font.c ****     return; 
1385:user/drivers/u8g2/u8g2_font.c ****   
1386:user/drivers/u8g2/u8g2_font.c ****   u8g2_font_setup_decode(u8g2, glyph_data);
 2350              		.loc 1 1386 3 is_stmt 1 view .LVU746
 2351 0010 2046     		mov	r0, r4
 2352              	.LVL283:
 2353              		.loc 1 1386 3 is_stmt 0 view .LVU747
 2354 0012 FFF7FEFF 		bl	u8g2_font_setup_decode
 2355              	.LVL284:
1387:user/drivers/u8g2/u8g2_font.c ****   *w = u8g2->font_decode.glyph_width;
 2356              		.loc 1 1387 3 is_stmt 1 view .LVU748
 2357              		.loc 1 1387 25 is_stmt 0 view .LVU749
 2358 0016 94F86A30 		ldrb	r3, [r4, #106]	@ zero_extendqisi2
 2359              		.loc 1 1387 6 view .LVU750
 2360 001a 3370     		strb	r3, [r6]
1388:user/drivers/u8g2/u8g2_font.c ****   *ox =  u8g2_font_decode_get_signed_bits(&(u8g2->font_decode), u8g2->font_info.bits_per_char_x);
 2361              		.loc 1 1388 3 is_stmt 1 view .LVU751
 2362              		.loc 1 1388 10 is_stmt 0 view .LVU752
 2363 001c 04F16006 		add	r6, r4, #96
 2364              	.LVL285:
 2365              		.loc 1 1388 10 view .LVU753
 2366 0020 94F87A10 		ldrb	r1, [r4, #122]	@ zero_extendqisi2
 2367 0024 3046     		mov	r0, r6
 2368 0026 FFF7FEFF 		bl	u8g2_font_decode_get_signed_bits
 2369              	.LVL286:
 2370              		.loc 1 1388 7 view .LVU754
 2371 002a 2870     		strb	r0, [r5]
1389:user/drivers/u8g2/u8g2_font.c ****   u8g2_font_decode_get_signed_bits(&(u8g2->font_decode), u8g2->font_info.bits_per_char_y);
 2372              		.loc 1 1389 3 is_stmt 1 view .LVU755
 2373 002c 94F87B10 		ldrb	r1, [r4, #123]	@ zero_extendqisi2
 2374 0030 3046     		mov	r0, r6
 2375 0032 FFF7FEFF 		bl	u8g2_font_decode_get_signed_bits
 2376              	.LVL287:
1390:user/drivers/u8g2/u8g2_font.c ****   *dx = u8g2_font_decode_get_signed_bits(&(u8g2->font_decode), u8g2->font_info.bits_per_delta_x);
 2377              		.loc 1 1390 3 view .LVU756
 2378              		.loc 1 1390 9 is_stmt 0 view .LVU757
 2379 0036 94F87C10 		ldrb	r1, [r4, #124]	@ zero_extendqisi2
 2380 003a 3046     		mov	r0, r6
 2381 003c FFF7FEFF 		bl	u8g2_font_decode_get_signed_bits
 2382              	.LVL288:
 2383              		.loc 1 1390 7 view .LVU758
 2384 0040 049B     		ldr	r3, [sp, #16]
ARM GAS  /var/folders/21/t9g5rlb91ys800n5npymflf80000gn/T//ccT2Ngli.s 			page 78


 2385 0042 1870     		strb	r0, [r3]
 2386              	.L106:
1391:user/drivers/u8g2/u8g2_font.c **** }
 2387              		.loc 1 1391 1 view .LVU759
 2388 0044 70BD     		pop	{r4, r5, r6, pc}
 2389              		.loc 1 1391 1 view .LVU760
 2390              		.cfi_endproc
 2391              	.LFE50:
 2393              		.section	.text.u8g2_IsGlyph,"ax",%progbits
 2394              		.align	1
 2395              		.global	u8g2_IsGlyph
 2396              		.syntax unified
 2397              		.thumb
 2398              		.thumb_func
 2400              	u8g2_IsGlyph:
 2401              	.LVL289:
 2402              	.LFB21:
 900:user/drivers/u8g2/u8g2_font.c ****   /* updated to new code */
 2403              		.loc 1 900 1 is_stmt 1 view -0
 2404              		.cfi_startproc
 2405              		@ args = 0, pretend = 0, frame = 0
 2406              		@ frame_needed = 0, uses_anonymous_args = 0
 900:user/drivers/u8g2/u8g2_font.c ****   /* updated to new code */
 2407              		.loc 1 900 1 is_stmt 0 view .LVU762
 2408 0000 08B5     		push	{r3, lr}
 2409              	.LCFI24:
 2410              		.cfi_def_cfa_offset 8
 2411              		.cfi_offset 3, -8
 2412              		.cfi_offset 14, -4
 902:user/drivers/u8g2/u8g2_font.c ****     return 1;
 2413              		.loc 1 902 3 is_stmt 1 view .LVU763
 902:user/drivers/u8g2/u8g2_font.c ****     return 1;
 2414              		.loc 1 902 8 is_stmt 0 view .LVU764
 2415 0002 FFF7FEFF 		bl	u8g2_font_get_glyph_data
 2416              	.LVL290:
 902:user/drivers/u8g2/u8g2_font.c ****     return 1;
 2417              		.loc 1 902 6 view .LVU765
 2418 0006 00B1     		cbz	r0, .L110
 903:user/drivers/u8g2/u8g2_font.c ****   return 0;
 2419              		.loc 1 903 12 view .LVU766
 2420 0008 0120     		movs	r0, #1
 2421              	.L110:
 905:user/drivers/u8g2/u8g2_font.c **** 
 2422              		.loc 1 905 1 view .LVU767
 2423 000a 08BD     		pop	{r3, pc}
 2424              		.cfi_endproc
 2425              	.LFE21:
 2427              		.section	.text.u8g2_GetGlyphWidth,"ax",%progbits
 2428              		.align	1
 2429              		.global	u8g2_GetGlyphWidth
 2430              		.syntax unified
 2431              		.thumb
 2432              		.thumb_func
 2434              	u8g2_GetGlyphWidth:
 2435              	.LVL291:
 2436              	.LFB22:
 909:user/drivers/u8g2/u8g2_font.c ****   const uint8_t *glyph_data = u8g2_font_get_glyph_data(u8g2, requested_encoding);
ARM GAS  /var/folders/21/t9g5rlb91ys800n5npymflf80000gn/T//ccT2Ngli.s 			page 79


 2437              		.loc 1 909 1 is_stmt 1 view -0
 2438              		.cfi_startproc
 2439              		@ args = 0, pretend = 0, frame = 0
 2440              		@ frame_needed = 0, uses_anonymous_args = 0
 909:user/drivers/u8g2/u8g2_font.c ****   const uint8_t *glyph_data = u8g2_font_get_glyph_data(u8g2, requested_encoding);
 2441              		.loc 1 909 1 is_stmt 0 view .LVU769
 2442 0000 38B5     		push	{r3, r4, r5, lr}
 2443              	.LCFI25:
 2444              		.cfi_def_cfa_offset 16
 2445              		.cfi_offset 3, -16
 2446              		.cfi_offset 4, -12
 2447              		.cfi_offset 5, -8
 2448              		.cfi_offset 14, -4
 2449 0002 0446     		mov	r4, r0
 910:user/drivers/u8g2/u8g2_font.c ****   if ( glyph_data == NULL )
 2450              		.loc 1 910 3 is_stmt 1 view .LVU770
 910:user/drivers/u8g2/u8g2_font.c ****   if ( glyph_data == NULL )
 2451              		.loc 1 910 31 is_stmt 0 view .LVU771
 2452 0004 FFF7FEFF 		bl	u8g2_font_get_glyph_data
 2453              	.LVL292:
 911:user/drivers/u8g2/u8g2_font.c ****     return 0; 
 2454              		.loc 1 911 3 is_stmt 1 view .LVU772
 911:user/drivers/u8g2/u8g2_font.c ****     return 0; 
 2455              		.loc 1 911 6 is_stmt 0 view .LVU773
 2456 0008 B8B1     		cbz	r0, .L115
 2457 000a 0146     		mov	r1, r0
 914:user/drivers/u8g2/u8g2_font.c ****   u8g2->glyph_x_offset = u8g2_font_decode_get_signed_bits(&(u8g2->font_decode), u8g2->font_info.bit
 2458              		.loc 1 914 3 is_stmt 1 view .LVU774
 2459 000c 2046     		mov	r0, r4
 2460              	.LVL293:
 914:user/drivers/u8g2/u8g2_font.c ****   u8g2->glyph_x_offset = u8g2_font_decode_get_signed_bits(&(u8g2->font_decode), u8g2->font_info.bit
 2461              		.loc 1 914 3 is_stmt 0 view .LVU775
 2462 000e FFF7FEFF 		bl	u8g2_font_setup_decode
 2463              	.LVL294:
 915:user/drivers/u8g2/u8g2_font.c ****   u8g2_font_decode_get_signed_bits(&(u8g2->font_decode), u8g2->font_info.bits_per_char_y);
 2464              		.loc 1 915 3 is_stmt 1 view .LVU776
 915:user/drivers/u8g2/u8g2_font.c ****   u8g2_font_decode_get_signed_bits(&(u8g2->font_decode), u8g2->font_info.bits_per_char_y);
 2465              		.loc 1 915 26 is_stmt 0 view .LVU777
 2466 0012 04F16005 		add	r5, r4, #96
 2467 0016 94F87A10 		ldrb	r1, [r4, #122]	@ zero_extendqisi2
 2468 001a 2846     		mov	r0, r5
 2469 001c FFF7FEFF 		bl	u8g2_font_decode_get_signed_bits
 2470              	.LVL295:
 915:user/drivers/u8g2/u8g2_font.c ****   u8g2_font_decode_get_signed_bits(&(u8g2->font_decode), u8g2->font_info.bits_per_char_y);
 2471              		.loc 1 915 24 view .LVU778
 2472 0020 84F89000 		strb	r0, [r4, #144]
 916:user/drivers/u8g2/u8g2_font.c ****   
 2473              		.loc 1 916 3 is_stmt 1 view .LVU779
 2474 0024 94F87B10 		ldrb	r1, [r4, #123]	@ zero_extendqisi2
 2475 0028 2846     		mov	r0, r5
 2476 002a FFF7FEFF 		bl	u8g2_font_decode_get_signed_bits
 2477              	.LVL296:
 920:user/drivers/u8g2/u8g2_font.c **** }
 2478              		.loc 1 920 3 view .LVU780
 920:user/drivers/u8g2/u8g2_font.c **** }
 2479              		.loc 1 920 10 is_stmt 0 view .LVU781
 2480 002e 94F87C10 		ldrb	r1, [r4, #124]	@ zero_extendqisi2
ARM GAS  /var/folders/21/t9g5rlb91ys800n5npymflf80000gn/T//ccT2Ngli.s 			page 80


 2481 0032 2846     		mov	r0, r5
 2482 0034 FFF7FEFF 		bl	u8g2_font_decode_get_signed_bits
 2483              	.LVL297:
 2484              	.L114:
 921:user/drivers/u8g2/u8g2_font.c **** 
 2485              		.loc 1 921 1 view .LVU782
 2486 0038 38BD     		pop	{r3, r4, r5, pc}
 2487              	.LVL298:
 2488              	.L115:
 912:user/drivers/u8g2/u8g2_font.c ****   
 2489              		.loc 1 912 12 view .LVU783
 2490 003a 0020     		movs	r0, #0
 2491              	.LVL299:
 912:user/drivers/u8g2/u8g2_font.c ****   
 2492              		.loc 1 912 12 view .LVU784
 2493 003c FCE7     		b	.L114
 2494              		.cfi_endproc
 2495              	.LFE22:
 2497              		.section	.text.u8g2_string_width,"ax",%progbits
 2498              		.align	1
 2499              		.syntax unified
 2500              		.thumb
 2501              		.thumb_func
 2503              	u8g2_string_width:
 2504              	.LVL300:
 2505              	.LFB49:
1326:user/drivers/u8g2/u8g2_font.c ****   uint16_t e;
 2506              		.loc 1 1326 1 is_stmt 1 view -0
 2507              		.cfi_startproc
 2508              		@ args = 0, pretend = 0, frame = 0
 2509              		@ frame_needed = 0, uses_anonymous_args = 0
1326:user/drivers/u8g2/u8g2_font.c ****   uint16_t e;
 2510              		.loc 1 1326 1 is_stmt 0 view .LVU786
 2511 0000 2DE9F041 		push	{r4, r5, r6, r7, r8, lr}
 2512              	.LCFI26:
 2513              		.cfi_def_cfa_offset 24
 2514              		.cfi_offset 4, -24
 2515              		.cfi_offset 5, -20
 2516              		.cfi_offset 6, -16
 2517              		.cfi_offset 7, -12
 2518              		.cfi_offset 8, -8
 2519              		.cfi_offset 14, -4
 2520 0004 0446     		mov	r4, r0
 2521 0006 0D46     		mov	r5, r1
1327:user/drivers/u8g2/u8g2_font.c ****   u8g2_uint_t  w, dx;
 2522              		.loc 1 1327 3 is_stmt 1 view .LVU787
1328:user/drivers/u8g2/u8g2_font.c **** #ifdef U8G2_BALANCED_STR_WIDTH_CALCULATION
 2523              		.loc 1 1328 3 view .LVU788
1330:user/drivers/u8g2/u8g2_font.c **** #endif 
 2524              		.loc 1 1330 3 view .LVU789
 2525              	.LVL301:
1333:user/drivers/u8g2/u8g2_font.c ****   u8x8_utf8_init(u8g2_GetU8x8(u8g2));
 2526              		.loc 1 1333 3 view .LVU790
1333:user/drivers/u8g2/u8g2_font.c ****   u8x8_utf8_init(u8g2_GetU8x8(u8g2));
 2527              		.loc 1 1333 33 is_stmt 0 view .LVU791
 2528 0008 0026     		movs	r6, #0
 2529 000a 80F86A60 		strb	r6, [r0, #106]
ARM GAS  /var/folders/21/t9g5rlb91ys800n5npymflf80000gn/T//ccT2Ngli.s 			page 81


1334:user/drivers/u8g2/u8g2_font.c ****   
 2530              		.loc 1 1334 3 is_stmt 1 view .LVU792
 2531 000e FFF7FEFF 		bl	u8x8_utf8_init
 2532              	.LVL302:
1337:user/drivers/u8g2/u8g2_font.c ****   dx = 0;
 2533              		.loc 1 1337 3 view .LVU793
1338:user/drivers/u8g2/u8g2_font.c **** 
 2534              		.loc 1 1338 3 view .LVU794
1330:user/drivers/u8g2/u8g2_font.c **** #endif 
 2535              		.loc 1 1330 10 is_stmt 0 view .LVU795
 2536 0012 6FF03F08 		mvn	r8, #63
1338:user/drivers/u8g2/u8g2_font.c **** 
 2537              		.loc 1 1338 6 view .LVU796
 2538 0016 3746     		mov	r7, r6
 2539 0018 01E0     		b	.L118
 2540              	.LVL303:
 2541              	.L121:
1356:user/drivers/u8g2/u8g2_font.c ****     }
 2542              		.loc 1 1356 7 is_stmt 1 view .LVU797
1356:user/drivers/u8g2/u8g2_font.c ****     }
 2543              		.loc 1 1356 9 is_stmt 0 view .LVU798
 2544 001a 3E44     		add	r6, r6, r7
 2545              	.LVL304:
1356:user/drivers/u8g2/u8g2_font.c ****     }
 2546              		.loc 1 1356 9 view .LVU799
 2547 001c B6B2     		uxth	r6, r6
 2548              	.LVL305:
 2549              	.L118:
1342:user/drivers/u8g2/u8g2_font.c ****   {
 2550              		.loc 1 1342 3 is_stmt 1 view .LVU800
1344:user/drivers/u8g2/u8g2_font.c ****     if ( e == 0x0ffff )
 2551              		.loc 1 1344 5 view .LVU801
1344:user/drivers/u8g2/u8g2_font.c ****     if ( e == 0x0ffff )
 2552              		.loc 1 1344 19 is_stmt 0 view .LVU802
 2553 001e 6368     		ldr	r3, [r4, #4]
1344:user/drivers/u8g2/u8g2_font.c ****     if ( e == 0x0ffff )
 2554              		.loc 1 1344 9 view .LVU803
 2555 0020 2978     		ldrb	r1, [r5]	@ zero_extendqisi2
 2556 0022 2046     		mov	r0, r4
 2557 0024 9847     		blx	r3
 2558              	.LVL306:
1345:user/drivers/u8g2/u8g2_font.c ****       break;
 2559              		.loc 1 1345 5 is_stmt 1 view .LVU804
1345:user/drivers/u8g2/u8g2_font.c ****       break;
 2560              		.loc 1 1345 8 is_stmt 0 view .LVU805
 2561 0026 4FF6FF73 		movw	r3, #65535
 2562 002a 9842     		cmp	r0, r3
 2563 002c 0FD0     		beq	.L119
1347:user/drivers/u8g2/u8g2_font.c ****     if ( e != 0x0fffe )
 2564              		.loc 1 1347 5 is_stmt 1 view .LVU806
1347:user/drivers/u8g2/u8g2_font.c ****     if ( e != 0x0fffe )
 2565              		.loc 1 1347 8 is_stmt 0 view .LVU807
 2566 002e 0135     		adds	r5, r5, #1
 2567              	.LVL307:
1348:user/drivers/u8g2/u8g2_font.c ****     {
 2568              		.loc 1 1348 5 is_stmt 1 view .LVU808
1348:user/drivers/u8g2/u8g2_font.c ****     {
ARM GAS  /var/folders/21/t9g5rlb91ys800n5npymflf80000gn/T//ccT2Ngli.s 			page 82


 2569              		.loc 1 1348 8 is_stmt 0 view .LVU809
 2570 0030 4FF6FE73 		movw	r3, #65534
 2571 0034 9842     		cmp	r0, r3
 2572 0036 F2D0     		beq	.L118
1350:user/drivers/u8g2/u8g2_font.c **** #ifdef U8G2_BALANCED_STR_WIDTH_CALCULATION
 2573              		.loc 1 1350 7 is_stmt 1 view .LVU810
1350:user/drivers/u8g2/u8g2_font.c **** #ifdef U8G2_BALANCED_STR_WIDTH_CALCULATION
 2574              		.loc 1 1350 12 is_stmt 0 view .LVU811
 2575 0038 0146     		mov	r1, r0
 2576 003a 2046     		mov	r0, r4
 2577              	.LVL308:
1350:user/drivers/u8g2/u8g2_font.c **** #ifdef U8G2_BALANCED_STR_WIDTH_CALCULATION
 2578              		.loc 1 1350 12 view .LVU812
 2579 003c FFF7FEFF 		bl	u8g2_GetGlyphWidth
 2580              	.LVL309:
1350:user/drivers/u8g2/u8g2_font.c **** #ifdef U8G2_BALANCED_STR_WIDTH_CALCULATION
 2581              		.loc 1 1350 10 view .LVU813
 2582 0040 87B2     		uxth	r7, r0
 2583              	.LVL310:
1352:user/drivers/u8g2/u8g2_font.c ****         initial_x_offset = u8g2->glyph_x_offset;
 2584              		.loc 1 1352 7 is_stmt 1 view .LVU814
1352:user/drivers/u8g2/u8g2_font.c ****         initial_x_offset = u8g2->glyph_x_offset;
 2585              		.loc 1 1352 10 is_stmt 0 view .LVU815
 2586 0042 18F1400F 		cmn	r8, #64
 2587 0046 E8D1     		bne	.L121
1353:user/drivers/u8g2/u8g2_font.c **** #endif 
 2588              		.loc 1 1353 9 is_stmt 1 view .LVU816
1353:user/drivers/u8g2/u8g2_font.c **** #endif 
 2589              		.loc 1 1353 26 is_stmt 0 view .LVU817
 2590 0048 94F99080 		ldrsb	r8, [r4, #144]
 2591              	.LVL311:
1353:user/drivers/u8g2/u8g2_font.c **** #endif 
 2592              		.loc 1 1353 26 view .LVU818
 2593 004c E5E7     		b	.L121
 2594              	.LVL312:
 2595              	.L119:
1362:user/drivers/u8g2/u8g2_font.c ****   {
 2596              		.loc 1 1362 3 is_stmt 1 view .LVU819
1362:user/drivers/u8g2/u8g2_font.c ****   {
 2597              		.loc 1 1362 25 is_stmt 0 view .LVU820
 2598 004e 94F96A20 		ldrsb	r2, [r4, #106]
1362:user/drivers/u8g2/u8g2_font.c ****   {
 2599              		.loc 1 1362 6 view .LVU821
 2600 0052 7AB1     		cbz	r2, .L122
1365:user/drivers/u8g2/u8g2_font.c ****     w += u8g2->font_decode.glyph_width;  /* the real pixel width of the glyph, sideeffect of GetGly
 2601              		.loc 1 1365 5 is_stmt 1 view .LVU822
1365:user/drivers/u8g2/u8g2_font.c ****     w += u8g2->font_decode.glyph_width;  /* the real pixel width of the glyph, sideeffect of GetGly
 2602              		.loc 1 1365 7 is_stmt 0 view .LVU823
 2603 0054 F31B     		subs	r3, r6, r7
 2604              	.LVL313:
1366:user/drivers/u8g2/u8g2_font.c ****     /* issue #46: we have to add the x offset also */
 2605              		.loc 1 1366 5 is_stmt 1 view .LVU824
1366:user/drivers/u8g2/u8g2_font.c ****     /* issue #46: we have to add the x offset also */
 2606              		.loc 1 1366 27 is_stmt 0 view .LVU825
 2607 0056 92B2     		uxth	r2, r2
1366:user/drivers/u8g2/u8g2_font.c ****     /* issue #46: we have to add the x offset also */
 2608              		.loc 1 1366 7 view .LVU826
ARM GAS  /var/folders/21/t9g5rlb91ys800n5npymflf80000gn/T//ccT2Ngli.s 			page 83


 2609 0058 12FA83F3 		uxtah	r3, r2, r3
 2610              	.LVL314:
1368:user/drivers/u8g2/u8g2_font.c **** #ifdef U8G2_BALANCED_STR_WIDTH_CALCULATION
 2611              		.loc 1 1368 5 is_stmt 1 view .LVU827
1368:user/drivers/u8g2/u8g2_font.c **** #ifdef U8G2_BALANCED_STR_WIDTH_CALCULATION
 2612              		.loc 1 1368 14 is_stmt 0 view .LVU828
 2613 005c 94F99020 		ldrsb	r2, [r4, #144]
 2614 0060 92B2     		uxth	r2, r2
1368:user/drivers/u8g2/u8g2_font.c **** #ifdef U8G2_BALANCED_STR_WIDTH_CALCULATION
 2615              		.loc 1 1368 7 view .LVU829
 2616 0062 12FA83F3 		uxtah	r3, r2, r3
 2617              	.LVL315:
1368:user/drivers/u8g2/u8g2_font.c **** #ifdef U8G2_BALANCED_STR_WIDTH_CALCULATION
 2618              		.loc 1 1368 7 view .LVU830
 2619 0066 9EB2     		uxth	r6, r3
 2620              	.LVL316:
1371:user/drivers/u8g2/u8g2_font.c ****       w+=initial_x_offset;
 2621              		.loc 1 1371 5 is_stmt 1 view .LVU831
1371:user/drivers/u8g2/u8g2_font.c ****       w+=initial_x_offset;
 2622              		.loc 1 1371 8 is_stmt 0 view .LVU832
 2623 0068 B8F1000F 		cmp	r8, #0
 2624 006c 02DD     		ble	.L122
1372:user/drivers/u8g2/u8g2_font.c **** #endif 
 2625              		.loc 1 1372 7 is_stmt 1 view .LVU833
1372:user/drivers/u8g2/u8g2_font.c **** #endif 
 2626              		.loc 1 1372 8 is_stmt 0 view .LVU834
 2627 006e B044     		add	r8, r8, r6
 2628              	.LVL317:
1372:user/drivers/u8g2/u8g2_font.c **** #endif 
 2629              		.loc 1 1372 8 view .LVU835
 2630 0070 1FFA88F6 		uxth	r6, r8
 2631              	.LVL318:
 2632              	.L122:
1377:user/drivers/u8g2/u8g2_font.c **** }
 2633              		.loc 1 1377 3 is_stmt 1 view .LVU836
1378:user/drivers/u8g2/u8g2_font.c **** 
 2634              		.loc 1 1378 1 is_stmt 0 view .LVU837
 2635 0074 3046     		mov	r0, r6
 2636              	.LVL319:
1378:user/drivers/u8g2/u8g2_font.c **** 
 2637              		.loc 1 1378 1 view .LVU838
 2638 0076 BDE8F081 		pop	{r4, r5, r6, r7, r8, pc}
1378:user/drivers/u8g2/u8g2_font.c **** 
 2639              		.loc 1 1378 1 view .LVU839
 2640              		.cfi_endproc
 2641              	.LFE49:
 2643              		.section	.text.u8g2_SetFontMode,"ax",%progbits
 2644              		.align	1
 2645              		.global	u8g2_SetFontMode
 2646              		.syntax unified
 2647              		.thumb
 2648              		.thumb_func
 2650              	u8g2_SetFontMode:
 2651              	.LVL320:
 2652              	.LFB23:
 932:user/drivers/u8g2/u8g2_font.c ****   u8g2->font_decode.is_transparent = is_transparent;		// new font procedures
 2653              		.loc 1 932 1 is_stmt 1 view -0
ARM GAS  /var/folders/21/t9g5rlb91ys800n5npymflf80000gn/T//ccT2Ngli.s 			page 84


 2654              		.cfi_startproc
 2655              		@ args = 0, pretend = 0, frame = 0
 2656              		@ frame_needed = 0, uses_anonymous_args = 0
 2657              		@ link register save eliminated.
 933:user/drivers/u8g2/u8g2_font.c **** }
 2658              		.loc 1 933 3 view .LVU841
 933:user/drivers/u8g2/u8g2_font.c **** }
 2659              		.loc 1 933 36 is_stmt 0 view .LVU842
 2660 0000 80F86D10 		strb	r1, [r0, #109]
 934:user/drivers/u8g2/u8g2_font.c **** 
 2661              		.loc 1 934 1 view .LVU843
 2662 0004 7047     		bx	lr
 2663              		.cfi_endproc
 2664              	.LFE23:
 2666              		.section	.text.u8g2_DrawGlyph,"ax",%progbits
 2667              		.align	1
 2668              		.global	u8g2_DrawGlyph
 2669              		.syntax unified
 2670              		.thumb
 2671              		.thumb_func
 2673              	u8g2_DrawGlyph:
 2674              	.LVL321:
 2675              	.LFB24:
 937:user/drivers/u8g2/u8g2_font.c **** #ifdef U8G2_WITH_FONT_ROTATION
 2676              		.loc 1 937 1 is_stmt 1 view -0
 2677              		.cfi_startproc
 2678              		@ args = 0, pretend = 0, frame = 0
 2679              		@ frame_needed = 0, uses_anonymous_args = 0
 937:user/drivers/u8g2/u8g2_font.c **** #ifdef U8G2_WITH_FONT_ROTATION
 2680              		.loc 1 937 1 is_stmt 0 view .LVU845
 2681 0000 F8B5     		push	{r3, r4, r5, r6, r7, lr}
 2682              	.LCFI27:
 2683              		.cfi_def_cfa_offset 24
 2684              		.cfi_offset 3, -24
 2685              		.cfi_offset 4, -20
 2686              		.cfi_offset 5, -16
 2687              		.cfi_offset 6, -12
 2688              		.cfi_offset 7, -8
 2689              		.cfi_offset 14, -4
 2690 0002 0446     		mov	r4, r0
 2691 0004 0D46     		mov	r5, r1
 2692 0006 1646     		mov	r6, r2
 2693 0008 1F46     		mov	r7, r3
 939:user/drivers/u8g2/u8g2_font.c ****   {
 2694              		.loc 1 939 3 is_stmt 1 view .LVU846
 939:user/drivers/u8g2/u8g2_font.c ****   {
 2695              		.loc 1 939 27 is_stmt 0 view .LVU847
 2696 000a 90F87030 		ldrb	r3, [r0, #112]	@ zero_extendqisi2
 2697              	.LVL322:
 939:user/drivers/u8g2/u8g2_font.c ****   {
 2698              		.loc 1 939 3 view .LVU848
 2699 000e 032B     		cmp	r3, #3
 2700 0010 07D8     		bhi	.L126
 2701 0012 DFE803F0 		tbb	[pc, r3]
 2702              	.LVL323:
 2703              	.L128:
 2704 0016 02       		.byte	(.L131-.L128)/2
ARM GAS  /var/folders/21/t9g5rlb91ys800n5npymflf80000gn/T//ccT2Ngli.s 			page 85


 2705 0017 0D       		.byte	(.L130-.L128)/2
 2706 0018 12       		.byte	(.L129-.L128)/2
 2707 0019 17       		.byte	(.L127-.L128)/2
 2708              		.p2align 1
 2709              	.L131:
 942:user/drivers/u8g2/u8g2_font.c ****       break;
 2710              		.loc 1 942 7 is_stmt 1 view .LVU849
 942:user/drivers/u8g2/u8g2_font.c ****       break;
 2711              		.loc 1 942 16 is_stmt 0 view .LVU850
 2712 001a C36D     		ldr	r3, [r0, #92]
 942:user/drivers/u8g2/u8g2_font.c ****       break;
 2713              		.loc 1 942 12 view .LVU851
 2714 001c 9847     		blx	r3
 2715              	.LVL324:
 942:user/drivers/u8g2/u8g2_font.c ****       break;
 2716              		.loc 1 942 9 view .LVU852
 2717 001e 3044     		add	r0, r0, r6
 2718 0020 86B2     		uxth	r6, r0
 2719              	.LVL325:
 943:user/drivers/u8g2/u8g2_font.c ****     case 1:
 2720              		.loc 1 943 7 is_stmt 1 view .LVU853
 2721              	.L126:
 957:user/drivers/u8g2/u8g2_font.c **** }
 2722              		.loc 1 957 3 view .LVU854
 957:user/drivers/u8g2/u8g2_font.c **** }
 2723              		.loc 1 957 10 is_stmt 0 view .LVU855
 2724 0022 3B46     		mov	r3, r7
 2725 0024 3246     		mov	r2, r6
 2726 0026 2946     		mov	r1, r5
 2727 0028 2046     		mov	r0, r4
 2728 002a FFF7FEFF 		bl	u8g2_font_draw_glyph
 2729              	.LVL326:
 958:user/drivers/u8g2/u8g2_font.c **** 
 2730              		.loc 1 958 1 view .LVU856
 2731 002e F8BD     		pop	{r3, r4, r5, r6, r7, pc}
 2732              	.LVL327:
 2733              	.L130:
 945:user/drivers/u8g2/u8g2_font.c ****       break;
 2734              		.loc 1 945 7 is_stmt 1 view .LVU857
 945:user/drivers/u8g2/u8g2_font.c ****       break;
 2735              		.loc 1 945 16 is_stmt 0 view .LVU858
 2736 0030 C36D     		ldr	r3, [r0, #92]
 945:user/drivers/u8g2/u8g2_font.c ****       break;
 2737              		.loc 1 945 12 view .LVU859
 2738 0032 9847     		blx	r3
 2739              	.LVL328:
 945:user/drivers/u8g2/u8g2_font.c ****       break;
 2740              		.loc 1 945 9 view .LVU860
 2741 0034 281A     		subs	r0, r5, r0
 2742 0036 85B2     		uxth	r5, r0
 2743              	.LVL329:
 946:user/drivers/u8g2/u8g2_font.c ****     case 2:
 2744              		.loc 1 946 7 is_stmt 1 view .LVU861
 2745 0038 F3E7     		b	.L126
 2746              	.LVL330:
 2747              	.L129:
 948:user/drivers/u8g2/u8g2_font.c ****       break;
ARM GAS  /var/folders/21/t9g5rlb91ys800n5npymflf80000gn/T//ccT2Ngli.s 			page 86


 2748              		.loc 1 948 7 view .LVU862
 948:user/drivers/u8g2/u8g2_font.c ****       break;
 2749              		.loc 1 948 16 is_stmt 0 view .LVU863
 2750 003a C36D     		ldr	r3, [r0, #92]
 948:user/drivers/u8g2/u8g2_font.c ****       break;
 2751              		.loc 1 948 12 view .LVU864
 2752 003c 9847     		blx	r3
 2753              	.LVL331:
 948:user/drivers/u8g2/u8g2_font.c ****       break;
 2754              		.loc 1 948 9 view .LVU865
 2755 003e 301A     		subs	r0, r6, r0
 2756 0040 86B2     		uxth	r6, r0
 2757              	.LVL332:
 949:user/drivers/u8g2/u8g2_font.c ****     case 3:
 2758              		.loc 1 949 7 is_stmt 1 view .LVU866
 2759 0042 EEE7     		b	.L126
 2760              	.LVL333:
 2761              	.L127:
 951:user/drivers/u8g2/u8g2_font.c ****       break;
 2762              		.loc 1 951 7 view .LVU867
 951:user/drivers/u8g2/u8g2_font.c ****       break;
 2763              		.loc 1 951 16 is_stmt 0 view .LVU868
 2764 0044 C36D     		ldr	r3, [r0, #92]
 951:user/drivers/u8g2/u8g2_font.c ****       break;
 2765              		.loc 1 951 12 view .LVU869
 2766 0046 9847     		blx	r3
 2767              	.LVL334:
 951:user/drivers/u8g2/u8g2_font.c ****       break;
 2768              		.loc 1 951 9 view .LVU870
 2769 0048 2844     		add	r0, r0, r5
 2770 004a 85B2     		uxth	r5, r0
 2771              	.LVL335:
 952:user/drivers/u8g2/u8g2_font.c ****   }
 2772              		.loc 1 952 7 is_stmt 1 view .LVU871
 2773 004c E9E7     		b	.L126
 2774              		.cfi_endproc
 2775              	.LFE24:
 2777              		.section	.text.u8g2_draw_string,"ax",%progbits
 2778              		.align	1
 2779              		.syntax unified
 2780              		.thumb
 2781              		.thumb_func
 2783              	u8g2_draw_string:
 2784              	.LVL336:
 2785              	.LFB26:
 968:user/drivers/u8g2/u8g2_font.c ****   uint16_t e;
 2786              		.loc 1 968 1 view -0
 2787              		.cfi_startproc
 2788              		@ args = 0, pretend = 0, frame = 0
 2789              		@ frame_needed = 0, uses_anonymous_args = 0
 968:user/drivers/u8g2/u8g2_font.c ****   uint16_t e;
 2790              		.loc 1 968 1 is_stmt 0 view .LVU873
 2791 0000 2DE9F041 		push	{r4, r5, r6, r7, r8, lr}
 2792              	.LCFI28:
 2793              		.cfi_def_cfa_offset 24
 2794              		.cfi_offset 4, -24
 2795              		.cfi_offset 5, -20
ARM GAS  /var/folders/21/t9g5rlb91ys800n5npymflf80000gn/T//ccT2Ngli.s 			page 87


 2796              		.cfi_offset 6, -16
 2797              		.cfi_offset 7, -12
 2798              		.cfi_offset 8, -8
 2799              		.cfi_offset 14, -4
 2800 0004 0446     		mov	r4, r0
 2801 0006 0F46     		mov	r7, r1
 2802 0008 1646     		mov	r6, r2
 2803 000a 1D46     		mov	r5, r3
 969:user/drivers/u8g2/u8g2_font.c ****   u8g2_uint_t delta, sum;
 2804              		.loc 1 969 3 is_stmt 1 view .LVU874
 970:user/drivers/u8g2/u8g2_font.c ****   u8x8_utf8_init(u8g2_GetU8x8(u8g2));
 2805              		.loc 1 970 3 view .LVU875
 971:user/drivers/u8g2/u8g2_font.c ****   sum = 0;
 2806              		.loc 1 971 3 view .LVU876
 2807 000c FFF7FEFF 		bl	u8x8_utf8_init
 2808              	.LVL337:
 972:user/drivers/u8g2/u8g2_font.c ****   for(;;)
 2809              		.loc 1 972 3 view .LVU877
 972:user/drivers/u8g2/u8g2_font.c ****   for(;;)
 2810              		.loc 1 972 7 is_stmt 0 view .LVU878
 2811 0010 4FF00008 		mov	r8, #0
 2812 0014 04E0     		b	.L135
 2813              	.LVL338:
 2814              	.L143:
 987:user/drivers/u8g2/u8g2_font.c **** 	  break;
 2815              		.loc 1 987 4 is_stmt 1 view .LVU879
 987:user/drivers/u8g2/u8g2_font.c **** 	  break;
 2816              		.loc 1 987 6 is_stmt 0 view .LVU880
 2817 0016 0744     		add	r7, r7, r0
 2818              	.LVL339:
 987:user/drivers/u8g2/u8g2_font.c **** 	  break;
 2819              		.loc 1 987 6 view .LVU881
 2820 0018 BFB2     		uxth	r7, r7
 2821              	.LVL340:
 988:user/drivers/u8g2/u8g2_font.c **** 	case 1:
 2822              		.loc 1 988 4 is_stmt 1 view .LVU882
 2823              	.L138:
1010:user/drivers/u8g2/u8g2_font.c ****     }
 2824              		.loc 1 1010 7 view .LVU883
1010:user/drivers/u8g2/u8g2_font.c ****     }
 2825              		.loc 1 1010 11 is_stmt 0 view .LVU884
 2826 001a 4044     		add	r0, r0, r8
 2827              	.LVL341:
1010:user/drivers/u8g2/u8g2_font.c ****     }
 2828              		.loc 1 1010 11 view .LVU885
 2829 001c 1FFA80F8 		uxth	r8, r0
 2830              	.LVL342:
 2831              	.L135:
 973:user/drivers/u8g2/u8g2_font.c ****   {
 2832              		.loc 1 973 3 is_stmt 1 view .LVU886
 975:user/drivers/u8g2/u8g2_font.c ****     if ( e == 0x0ffff )
 2833              		.loc 1 975 5 view .LVU887
 975:user/drivers/u8g2/u8g2_font.c ****     if ( e == 0x0ffff )
 2834              		.loc 1 975 19 is_stmt 0 view .LVU888
 2835 0020 6368     		ldr	r3, [r4, #4]
 975:user/drivers/u8g2/u8g2_font.c ****     if ( e == 0x0ffff )
 2836              		.loc 1 975 9 view .LVU889
ARM GAS  /var/folders/21/t9g5rlb91ys800n5npymflf80000gn/T//ccT2Ngli.s 			page 88


 2837 0022 2978     		ldrb	r1, [r5]	@ zero_extendqisi2
 2838 0024 2046     		mov	r0, r4
 2839 0026 9847     		blx	r3
 2840              	.LVL343:
 976:user/drivers/u8g2/u8g2_font.c ****       break;
 2841              		.loc 1 976 5 is_stmt 1 view .LVU890
 976:user/drivers/u8g2/u8g2_font.c ****       break;
 2842              		.loc 1 976 8 is_stmt 0 view .LVU891
 2843 0028 4FF6FF72 		movw	r2, #65535
 2844 002c 9042     		cmp	r0, r2
 2845 002e 22D0     		beq	.L136
 978:user/drivers/u8g2/u8g2_font.c ****     if ( e != 0x0fffe )
 2846              		.loc 1 978 5 is_stmt 1 view .LVU892
 978:user/drivers/u8g2/u8g2_font.c ****     if ( e != 0x0fffe )
 2847              		.loc 1 978 8 is_stmt 0 view .LVU893
 2848 0030 0135     		adds	r5, r5, #1
 2849              	.LVL344:
 979:user/drivers/u8g2/u8g2_font.c ****     {
 2850              		.loc 1 979 5 is_stmt 1 view .LVU894
 979:user/drivers/u8g2/u8g2_font.c ****     {
 2851              		.loc 1 979 8 is_stmt 0 view .LVU895
 2852 0032 4FF6FE72 		movw	r2, #65534
 2853 0036 9042     		cmp	r0, r2
 2854 0038 F2D0     		beq	.L135
 981:user/drivers/u8g2/u8g2_font.c ****     
 2855              		.loc 1 981 7 is_stmt 1 view .LVU896
 981:user/drivers/u8g2/u8g2_font.c ****     
 2856              		.loc 1 981 15 is_stmt 0 view .LVU897
 2857 003a 0346     		mov	r3, r0
 2858 003c 3246     		mov	r2, r6
 2859 003e 3946     		mov	r1, r7
 2860 0040 2046     		mov	r0, r4
 2861              	.LVL345:
 981:user/drivers/u8g2/u8g2_font.c ****     
 2862              		.loc 1 981 15 view .LVU898
 2863 0042 FFF7FEFF 		bl	u8g2_DrawGlyph
 2864              	.LVL346:
 984:user/drivers/u8g2/u8g2_font.c ****       {
 2865              		.loc 1 984 7 is_stmt 1 view .LVU899
 984:user/drivers/u8g2/u8g2_font.c ****       {
 2866              		.loc 1 984 31 is_stmt 0 view .LVU900
 2867 0046 94F87030 		ldrb	r3, [r4, #112]	@ zero_extendqisi2
 984:user/drivers/u8g2/u8g2_font.c ****       {
 2868              		.loc 1 984 7 view .LVU901
 2869 004a 032B     		cmp	r3, #3
 2870 004c E5D8     		bhi	.L138
 2871 004e 01A2     		adr	r2, .L140
 2872 0050 52F823F0 		ldr	pc, [r2, r3, lsl #2]
 2873              		.p2align 2
 2874              	.L140:
 2875 0054 17000000 		.word	.L143+1
 2876 0058 65000000 		.word	.L142+1
 2877 005c 6B000000 		.word	.L141+1
 2878 0060 71000000 		.word	.L139+1
 2879              		.p2align 1
 2880              	.L142:
 990:user/drivers/u8g2/u8g2_font.c **** 	  break;
ARM GAS  /var/folders/21/t9g5rlb91ys800n5npymflf80000gn/T//ccT2Ngli.s 			page 89


 2881              		.loc 1 990 4 is_stmt 1 view .LVU902
 990:user/drivers/u8g2/u8g2_font.c **** 	  break;
 2882              		.loc 1 990 6 is_stmt 0 view .LVU903
 2883 0064 0644     		add	r6, r6, r0
 2884              	.LVL347:
 990:user/drivers/u8g2/u8g2_font.c **** 	  break;
 2885              		.loc 1 990 6 view .LVU904
 2886 0066 B6B2     		uxth	r6, r6
 2887              	.LVL348:
 991:user/drivers/u8g2/u8g2_font.c **** 	case 2:
 2888              		.loc 1 991 4 is_stmt 1 view .LVU905
 2889 0068 D7E7     		b	.L138
 2890              	.L141:
 993:user/drivers/u8g2/u8g2_font.c **** 	  break;
 2891              		.loc 1 993 4 view .LVU906
 993:user/drivers/u8g2/u8g2_font.c **** 	  break;
 2892              		.loc 1 993 6 is_stmt 0 view .LVU907
 2893 006a 3F1A     		subs	r7, r7, r0
 2894              	.LVL349:
 993:user/drivers/u8g2/u8g2_font.c **** 	  break;
 2895              		.loc 1 993 6 view .LVU908
 2896 006c BFB2     		uxth	r7, r7
 2897              	.LVL350:
 994:user/drivers/u8g2/u8g2_font.c **** 	case 3:
 2898              		.loc 1 994 4 is_stmt 1 view .LVU909
 2899 006e D4E7     		b	.L138
 2900              	.L139:
 996:user/drivers/u8g2/u8g2_font.c **** 	  break;
 2901              		.loc 1 996 4 view .LVU910
 996:user/drivers/u8g2/u8g2_font.c **** 	  break;
 2902              		.loc 1 996 6 is_stmt 0 view .LVU911
 2903 0070 361A     		subs	r6, r6, r0
 2904              	.LVL351:
 996:user/drivers/u8g2/u8g2_font.c **** 	  break;
 2905              		.loc 1 996 6 view .LVU912
 2906 0072 B6B2     		uxth	r6, r6
 2907              	.LVL352:
 997:user/drivers/u8g2/u8g2_font.c ****       }
 2908              		.loc 1 997 4 is_stmt 1 view .LVU913
 2909 0074 D1E7     		b	.L138
 2910              	.LVL353:
 2911              	.L136:
1013:user/drivers/u8g2/u8g2_font.c **** }
 2912              		.loc 1 1013 3 view .LVU914
1014:user/drivers/u8g2/u8g2_font.c **** 
 2913              		.loc 1 1014 1 is_stmt 0 view .LVU915
 2914 0076 4046     		mov	r0, r8
 2915              	.LVL354:
1014:user/drivers/u8g2/u8g2_font.c **** 
 2916              		.loc 1 1014 1 view .LVU916
 2917 0078 BDE8F081 		pop	{r4, r5, r6, r7, r8, pc}
1014:user/drivers/u8g2/u8g2_font.c **** 
 2918              		.loc 1 1014 1 view .LVU917
 2919              		.cfi_endproc
 2920              	.LFE26:
 2922              		.section	.text.u8g2_DrawGlyphX2,"ax",%progbits
 2923              		.align	1
ARM GAS  /var/folders/21/t9g5rlb91ys800n5npymflf80000gn/T//ccT2Ngli.s 			page 90


 2924              		.global	u8g2_DrawGlyphX2
 2925              		.syntax unified
 2926              		.thumb
 2927              		.thumb_func
 2929              	u8g2_DrawGlyphX2:
 2930              	.LVL355:
 2931              	.LFB25:
 961:user/drivers/u8g2/u8g2_font.c ****   y += 2*u8g2->font_calc_vref(u8g2);
 2932              		.loc 1 961 1 is_stmt 1 view -0
 2933              		.cfi_startproc
 2934              		@ args = 0, pretend = 0, frame = 0
 2935              		@ frame_needed = 0, uses_anonymous_args = 0
 961:user/drivers/u8g2/u8g2_font.c ****   y += 2*u8g2->font_calc_vref(u8g2);
 2936              		.loc 1 961 1 is_stmt 0 view .LVU919
 2937 0000 F8B5     		push	{r3, r4, r5, r6, r7, lr}
 2938              	.LCFI29:
 2939              		.cfi_def_cfa_offset 24
 2940              		.cfi_offset 3, -24
 2941              		.cfi_offset 4, -20
 2942              		.cfi_offset 5, -16
 2943              		.cfi_offset 6, -12
 2944              		.cfi_offset 7, -8
 2945              		.cfi_offset 14, -4
 2946 0002 0546     		mov	r5, r0
 2947 0004 0E46     		mov	r6, r1
 2948 0006 1446     		mov	r4, r2
 2949 0008 1F46     		mov	r7, r3
 962:user/drivers/u8g2/u8g2_font.c ****   return u8g2_font_2x_draw_glyph(u8g2, x, y, encoding);
 2950              		.loc 1 962 3 is_stmt 1 view .LVU920
 962:user/drivers/u8g2/u8g2_font.c ****   return u8g2_font_2x_draw_glyph(u8g2, x, y, encoding);
 2951              		.loc 1 962 14 is_stmt 0 view .LVU921
 2952 000a C36D     		ldr	r3, [r0, #92]
 2953              	.LVL356:
 962:user/drivers/u8g2/u8g2_font.c ****   return u8g2_font_2x_draw_glyph(u8g2, x, y, encoding);
 2954              		.loc 1 962 10 view .LVU922
 2955 000c 9847     		blx	r3
 2956              	.LVL357:
 962:user/drivers/u8g2/u8g2_font.c ****   return u8g2_font_2x_draw_glyph(u8g2, x, y, encoding);
 2957              		.loc 1 962 5 view .LVU923
 2958 000e 04EB4002 		add	r2, r4, r0, lsl #1
 2959              	.LVL358:
 963:user/drivers/u8g2/u8g2_font.c **** }
 2960              		.loc 1 963 3 is_stmt 1 view .LVU924
 963:user/drivers/u8g2/u8g2_font.c **** }
 2961              		.loc 1 963 10 is_stmt 0 view .LVU925
 2962 0012 3B46     		mov	r3, r7
 2963 0014 92B2     		uxth	r2, r2
 963:user/drivers/u8g2/u8g2_font.c **** }
 2964              		.loc 1 963 10 view .LVU926
 2965 0016 3146     		mov	r1, r6
 2966 0018 2846     		mov	r0, r5
 2967 001a FFF7FEFF 		bl	u8g2_font_2x_draw_glyph
 2968              	.LVL359:
 964:user/drivers/u8g2/u8g2_font.c **** 
 2969              		.loc 1 964 1 view .LVU927
 2970 001e F8BD     		pop	{r3, r4, r5, r6, r7, pc}
 964:user/drivers/u8g2/u8g2_font.c **** 
ARM GAS  /var/folders/21/t9g5rlb91ys800n5npymflf80000gn/T//ccT2Ngli.s 			page 91


 2971              		.loc 1 964 1 view .LVU928
 2972              		.cfi_endproc
 2973              	.LFE25:
 2975              		.section	.text.u8g2_draw_string_2x,"ax",%progbits
 2976              		.align	1
 2977              		.syntax unified
 2978              		.thumb
 2979              		.thumb_func
 2981              	u8g2_draw_string_2x:
 2982              	.LVL360:
 2983              	.LFB27:
1018:user/drivers/u8g2/u8g2_font.c ****   uint16_t e;
 2984              		.loc 1 1018 1 is_stmt 1 view -0
 2985              		.cfi_startproc
 2986              		@ args = 0, pretend = 0, frame = 0
 2987              		@ frame_needed = 0, uses_anonymous_args = 0
1018:user/drivers/u8g2/u8g2_font.c ****   uint16_t e;
 2988              		.loc 1 1018 1 is_stmt 0 view .LVU930
 2989 0000 2DE9F041 		push	{r4, r5, r6, r7, r8, lr}
 2990              	.LCFI30:
 2991              		.cfi_def_cfa_offset 24
 2992              		.cfi_offset 4, -24
 2993              		.cfi_offset 5, -20
 2994              		.cfi_offset 6, -16
 2995              		.cfi_offset 7, -12
 2996              		.cfi_offset 8, -8
 2997              		.cfi_offset 14, -4
 2998 0004 0546     		mov	r5, r0
 2999 0006 0E46     		mov	r6, r1
 3000 0008 1746     		mov	r7, r2
 3001 000a 1C46     		mov	r4, r3
1019:user/drivers/u8g2/u8g2_font.c ****   u8g2_uint_t delta, sum;
 3002              		.loc 1 1019 3 is_stmt 1 view .LVU931
1020:user/drivers/u8g2/u8g2_font.c ****   u8x8_utf8_init(u8g2_GetU8x8(u8g2));
 3003              		.loc 1 1020 3 view .LVU932
1021:user/drivers/u8g2/u8g2_font.c ****   sum = 0;
 3004              		.loc 1 1021 3 view .LVU933
 3005 000c FFF7FEFF 		bl	u8x8_utf8_init
 3006              	.LVL361:
1022:user/drivers/u8g2/u8g2_font.c ****   for(;;)
 3007              		.loc 1 1022 3 view .LVU934
1022:user/drivers/u8g2/u8g2_font.c ****   for(;;)
 3008              		.loc 1 1022 7 is_stmt 0 view .LVU935
 3009 0010 4FF00008 		mov	r8, #0
 3010              	.LVL362:
 3011              	.L149:
1023:user/drivers/u8g2/u8g2_font.c ****   {
 3012              		.loc 1 1023 3 is_stmt 1 view .LVU936
1025:user/drivers/u8g2/u8g2_font.c ****     if ( e == 0x0ffff )
 3013              		.loc 1 1025 5 view .LVU937
1025:user/drivers/u8g2/u8g2_font.c ****     if ( e == 0x0ffff )
 3014              		.loc 1 1025 19 is_stmt 0 view .LVU938
 3015 0014 6B68     		ldr	r3, [r5, #4]
1025:user/drivers/u8g2/u8g2_font.c ****     if ( e == 0x0ffff )
 3016              		.loc 1 1025 9 view .LVU939
 3017 0016 2178     		ldrb	r1, [r4]	@ zero_extendqisi2
 3018 0018 2846     		mov	r0, r5
ARM GAS  /var/folders/21/t9g5rlb91ys800n5npymflf80000gn/T//ccT2Ngli.s 			page 92


 3019 001a 9847     		blx	r3
 3020              	.LVL363:
1026:user/drivers/u8g2/u8g2_font.c ****       break;
 3021              		.loc 1 1026 5 is_stmt 1 view .LVU940
1026:user/drivers/u8g2/u8g2_font.c ****       break;
 3022              		.loc 1 1026 8 is_stmt 0 view .LVU941
 3023 001c 4FF6FF72 		movw	r2, #65535
 3024 0020 9042     		cmp	r0, r2
 3025 0022 10D0     		beq	.L150
1028:user/drivers/u8g2/u8g2_font.c ****     if ( e != 0x0fffe )
 3026              		.loc 1 1028 5 is_stmt 1 view .LVU942
1028:user/drivers/u8g2/u8g2_font.c ****     if ( e != 0x0fffe )
 3027              		.loc 1 1028 8 is_stmt 0 view .LVU943
 3028 0024 0134     		adds	r4, r4, #1
 3029              	.LVL364:
1029:user/drivers/u8g2/u8g2_font.c ****     {
 3030              		.loc 1 1029 5 is_stmt 1 view .LVU944
1029:user/drivers/u8g2/u8g2_font.c ****     {
 3031              		.loc 1 1029 8 is_stmt 0 view .LVU945
 3032 0026 4FF6FE72 		movw	r2, #65534
 3033 002a 9042     		cmp	r0, r2
 3034 002c F2D0     		beq	.L149
1031:user/drivers/u8g2/u8g2_font.c ****       x += delta;
 3035              		.loc 1 1031 7 is_stmt 1 view .LVU946
1031:user/drivers/u8g2/u8g2_font.c ****       x += delta;
 3036              		.loc 1 1031 15 is_stmt 0 view .LVU947
 3037 002e 0346     		mov	r3, r0
 3038 0030 3A46     		mov	r2, r7
 3039 0032 3146     		mov	r1, r6
 3040 0034 2846     		mov	r0, r5
 3041              	.LVL365:
1031:user/drivers/u8g2/u8g2_font.c ****       x += delta;
 3042              		.loc 1 1031 15 view .LVU948
 3043 0036 FFF7FEFF 		bl	u8g2_DrawGlyphX2
 3044              	.LVL366:
1032:user/drivers/u8g2/u8g2_font.c ****       sum += delta;    
 3045              		.loc 1 1032 7 is_stmt 1 view .LVU949
1032:user/drivers/u8g2/u8g2_font.c ****       sum += delta;    
 3046              		.loc 1 1032 9 is_stmt 0 view .LVU950
 3047 003a 0644     		add	r6, r6, r0
 3048              	.LVL367:
1032:user/drivers/u8g2/u8g2_font.c ****       sum += delta;    
 3049              		.loc 1 1032 9 view .LVU951
 3050 003c B6B2     		uxth	r6, r6
 3051              	.LVL368:
1033:user/drivers/u8g2/u8g2_font.c ****     }
 3052              		.loc 1 1033 7 is_stmt 1 view .LVU952
1033:user/drivers/u8g2/u8g2_font.c ****     }
 3053              		.loc 1 1033 11 is_stmt 0 view .LVU953
 3054 003e 4044     		add	r0, r0, r8
 3055              	.LVL369:
1033:user/drivers/u8g2/u8g2_font.c ****     }
 3056              		.loc 1 1033 11 view .LVU954
 3057 0040 1FFA80F8 		uxth	r8, r0
 3058              	.LVL370:
1033:user/drivers/u8g2/u8g2_font.c ****     }
 3059              		.loc 1 1033 11 view .LVU955
ARM GAS  /var/folders/21/t9g5rlb91ys800n5npymflf80000gn/T//ccT2Ngli.s 			page 93


 3060 0044 E6E7     		b	.L149
 3061              	.LVL371:
 3062              	.L150:
1036:user/drivers/u8g2/u8g2_font.c **** }
 3063              		.loc 1 1036 3 is_stmt 1 view .LVU956
1037:user/drivers/u8g2/u8g2_font.c **** 
 3064              		.loc 1 1037 1 is_stmt 0 view .LVU957
 3065 0046 4046     		mov	r0, r8
 3066              	.LVL372:
1037:user/drivers/u8g2/u8g2_font.c **** 
 3067              		.loc 1 1037 1 view .LVU958
 3068 0048 BDE8F081 		pop	{r4, r5, r6, r7, r8, pc}
1037:user/drivers/u8g2/u8g2_font.c **** 
 3069              		.loc 1 1037 1 view .LVU959
 3070              		.cfi_endproc
 3071              	.LFE27:
 3073              		.section	.text.u8g2_DrawStr,"ax",%progbits
 3074              		.align	1
 3075              		.global	u8g2_DrawStr
 3076              		.syntax unified
 3077              		.thumb
 3078              		.thumb_func
 3080              	u8g2_DrawStr:
 3081              	.LVL373:
 3082              	.LFB28:
1040:user/drivers/u8g2/u8g2_font.c ****   u8g2->u8x8.next_cb = u8x8_ascii_next;
 3083              		.loc 1 1040 1 is_stmt 1 view -0
 3084              		.cfi_startproc
 3085              		@ args = 0, pretend = 0, frame = 0
 3086              		@ frame_needed = 0, uses_anonymous_args = 0
1040:user/drivers/u8g2/u8g2_font.c ****   u8g2->u8x8.next_cb = u8x8_ascii_next;
 3087              		.loc 1 1040 1 is_stmt 0 view .LVU961
 3088 0000 10B5     		push	{r4, lr}
 3089              	.LCFI31:
 3090              		.cfi_def_cfa_offset 8
 3091              		.cfi_offset 4, -8
 3092              		.cfi_offset 14, -4
1041:user/drivers/u8g2/u8g2_font.c ****   return u8g2_draw_string(u8g2, x, y, str);
 3093              		.loc 1 1041 3 is_stmt 1 view .LVU962
1041:user/drivers/u8g2/u8g2_font.c ****   return u8g2_draw_string(u8g2, x, y, str);
 3094              		.loc 1 1041 22 is_stmt 0 view .LVU963
 3095 0002 024C     		ldr	r4, .L155
 3096 0004 4460     		str	r4, [r0, #4]
1042:user/drivers/u8g2/u8g2_font.c **** }
 3097              		.loc 1 1042 3 is_stmt 1 view .LVU964
1042:user/drivers/u8g2/u8g2_font.c **** }
 3098              		.loc 1 1042 10 is_stmt 0 view .LVU965
 3099 0006 FFF7FEFF 		bl	u8g2_draw_string
 3100              	.LVL374:
1043:user/drivers/u8g2/u8g2_font.c **** 
 3101              		.loc 1 1043 1 view .LVU966
 3102 000a 10BD     		pop	{r4, pc}
 3103              	.L156:
 3104              		.align	2
 3105              	.L155:
 3106 000c 00000000 		.word	u8x8_ascii_next
 3107              		.cfi_endproc
ARM GAS  /var/folders/21/t9g5rlb91ys800n5npymflf80000gn/T//ccT2Ngli.s 			page 94


 3108              	.LFE28:
 3110              		.section	.text.u8g2_DrawStrX2,"ax",%progbits
 3111              		.align	1
 3112              		.global	u8g2_DrawStrX2
 3113              		.syntax unified
 3114              		.thumb
 3115              		.thumb_func
 3117              	u8g2_DrawStrX2:
 3118              	.LVL375:
 3119              	.LFB29:
1046:user/drivers/u8g2/u8g2_font.c ****   u8g2->u8x8.next_cb = u8x8_ascii_next;
 3120              		.loc 1 1046 1 is_stmt 1 view -0
 3121              		.cfi_startproc
 3122              		@ args = 0, pretend = 0, frame = 0
 3123              		@ frame_needed = 0, uses_anonymous_args = 0
1046:user/drivers/u8g2/u8g2_font.c ****   u8g2->u8x8.next_cb = u8x8_ascii_next;
 3124              		.loc 1 1046 1 is_stmt 0 view .LVU968
 3125 0000 10B5     		push	{r4, lr}
 3126              	.LCFI32:
 3127              		.cfi_def_cfa_offset 8
 3128              		.cfi_offset 4, -8
 3129              		.cfi_offset 14, -4
1047:user/drivers/u8g2/u8g2_font.c ****   return u8g2_draw_string_2x(u8g2, x, y, str);
 3130              		.loc 1 1047 3 is_stmt 1 view .LVU969
1047:user/drivers/u8g2/u8g2_font.c ****   return u8g2_draw_string_2x(u8g2, x, y, str);
 3131              		.loc 1 1047 22 is_stmt 0 view .LVU970
 3132 0002 024C     		ldr	r4, .L159
 3133 0004 4460     		str	r4, [r0, #4]
1048:user/drivers/u8g2/u8g2_font.c **** }
 3134              		.loc 1 1048 3 is_stmt 1 view .LVU971
1048:user/drivers/u8g2/u8g2_font.c **** }
 3135              		.loc 1 1048 10 is_stmt 0 view .LVU972
 3136 0006 FFF7FEFF 		bl	u8g2_draw_string_2x
 3137              	.LVL376:
1049:user/drivers/u8g2/u8g2_font.c **** 
 3138              		.loc 1 1049 1 view .LVU973
 3139 000a 10BD     		pop	{r4, pc}
 3140              	.L160:
 3141              		.align	2
 3142              	.L159:
 3143 000c 00000000 		.word	u8x8_ascii_next
 3144              		.cfi_endproc
 3145              	.LFE29:
 3147              		.section	.text.u8g2_DrawUTF8,"ax",%progbits
 3148              		.align	1
 3149              		.global	u8g2_DrawUTF8
 3150              		.syntax unified
 3151              		.thumb
 3152              		.thumb_func
 3154              	u8g2_DrawUTF8:
 3155              	.LVL377:
 3156              	.LFB30:
1062:user/drivers/u8g2/u8g2_font.c ****   u8g2->u8x8.next_cb = u8x8_utf8_next;
 3157              		.loc 1 1062 1 is_stmt 1 view -0
 3158              		.cfi_startproc
 3159              		@ args = 0, pretend = 0, frame = 0
 3160              		@ frame_needed = 0, uses_anonymous_args = 0
ARM GAS  /var/folders/21/t9g5rlb91ys800n5npymflf80000gn/T//ccT2Ngli.s 			page 95


1062:user/drivers/u8g2/u8g2_font.c ****   u8g2->u8x8.next_cb = u8x8_utf8_next;
 3161              		.loc 1 1062 1 is_stmt 0 view .LVU975
 3162 0000 10B5     		push	{r4, lr}
 3163              	.LCFI33:
 3164              		.cfi_def_cfa_offset 8
 3165              		.cfi_offset 4, -8
 3166              		.cfi_offset 14, -4
1063:user/drivers/u8g2/u8g2_font.c ****   return u8g2_draw_string(u8g2, x, y, str);
 3167              		.loc 1 1063 3 is_stmt 1 view .LVU976
1063:user/drivers/u8g2/u8g2_font.c ****   return u8g2_draw_string(u8g2, x, y, str);
 3168              		.loc 1 1063 22 is_stmt 0 view .LVU977
 3169 0002 024C     		ldr	r4, .L163
 3170 0004 4460     		str	r4, [r0, #4]
1064:user/drivers/u8g2/u8g2_font.c **** }
 3171              		.loc 1 1064 3 is_stmt 1 view .LVU978
1064:user/drivers/u8g2/u8g2_font.c **** }
 3172              		.loc 1 1064 10 is_stmt 0 view .LVU979
 3173 0006 FFF7FEFF 		bl	u8g2_draw_string
 3174              	.LVL378:
1065:user/drivers/u8g2/u8g2_font.c **** 
 3175              		.loc 1 1065 1 view .LVU980
 3176 000a 10BD     		pop	{r4, pc}
 3177              	.L164:
 3178              		.align	2
 3179              	.L163:
 3180 000c 00000000 		.word	u8x8_utf8_next
 3181              		.cfi_endproc
 3182              	.LFE30:
 3184              		.section	.text.u8g2_DrawUTF8X2,"ax",%progbits
 3185              		.align	1
 3186              		.global	u8g2_DrawUTF8X2
 3187              		.syntax unified
 3188              		.thumb
 3189              		.thumb_func
 3191              	u8g2_DrawUTF8X2:
 3192              	.LVL379:
 3193              	.LFB31:
1068:user/drivers/u8g2/u8g2_font.c ****   u8g2->u8x8.next_cb = u8x8_utf8_next;
 3194              		.loc 1 1068 1 is_stmt 1 view -0
 3195              		.cfi_startproc
 3196              		@ args = 0, pretend = 0, frame = 0
 3197              		@ frame_needed = 0, uses_anonymous_args = 0
1068:user/drivers/u8g2/u8g2_font.c ****   u8g2->u8x8.next_cb = u8x8_utf8_next;
 3198              		.loc 1 1068 1 is_stmt 0 view .LVU982
 3199 0000 10B5     		push	{r4, lr}
 3200              	.LCFI34:
 3201              		.cfi_def_cfa_offset 8
 3202              		.cfi_offset 4, -8
 3203              		.cfi_offset 14, -4
1069:user/drivers/u8g2/u8g2_font.c ****   return u8g2_draw_string_2x(u8g2, x, y, str);
 3204              		.loc 1 1069 3 is_stmt 1 view .LVU983
1069:user/drivers/u8g2/u8g2_font.c ****   return u8g2_draw_string_2x(u8g2, x, y, str);
 3205              		.loc 1 1069 22 is_stmt 0 view .LVU984
 3206 0002 024C     		ldr	r4, .L167
 3207 0004 4460     		str	r4, [r0, #4]
1070:user/drivers/u8g2/u8g2_font.c **** }
 3208              		.loc 1 1070 3 is_stmt 1 view .LVU985
ARM GAS  /var/folders/21/t9g5rlb91ys800n5npymflf80000gn/T//ccT2Ngli.s 			page 96


1070:user/drivers/u8g2/u8g2_font.c **** }
 3209              		.loc 1 1070 10 is_stmt 0 view .LVU986
 3210 0006 FFF7FEFF 		bl	u8g2_draw_string_2x
 3211              	.LVL380:
1071:user/drivers/u8g2/u8g2_font.c **** 
 3212              		.loc 1 1071 1 view .LVU987
 3213 000a 10BD     		pop	{r4, pc}
 3214              	.L168:
 3215              		.align	2
 3216              	.L167:
 3217 000c 00000000 		.word	u8x8_utf8_next
 3218              		.cfi_endproc
 3219              	.LFE31:
 3221              		.section	.text.u8g2_DrawExtendedUTF8,"ax",%progbits
 3222              		.align	1
 3223              		.global	u8g2_DrawExtendedUTF8
 3224              		.syntax unified
 3225              		.thumb
 3226              		.thumb_func
 3228              	u8g2_DrawExtendedUTF8:
 3229              	.LVL381:
 3230              	.LFB32:
1075:user/drivers/u8g2/u8g2_font.c ****   u8g2->u8x8.next_cb = u8x8_utf8_next;
 3231              		.loc 1 1075 1 is_stmt 1 view -0
 3232              		.cfi_startproc
 3233              		@ args = 8, pretend = 0, frame = 8
 3234              		@ frame_needed = 0, uses_anonymous_args = 0
1075:user/drivers/u8g2/u8g2_font.c ****   u8g2->u8x8.next_cb = u8x8_utf8_next;
 3235              		.loc 1 1075 1 is_stmt 0 view .LVU989
 3236 0000 2DE9F04F 		push	{r4, r5, r6, r7, r8, r9, r10, fp, lr}
 3237              	.LCFI35:
 3238              		.cfi_def_cfa_offset 36
 3239              		.cfi_offset 4, -36
 3240              		.cfi_offset 5, -32
 3241              		.cfi_offset 6, -28
 3242              		.cfi_offset 7, -24
 3243              		.cfi_offset 8, -20
 3244              		.cfi_offset 9, -16
 3245              		.cfi_offset 10, -12
 3246              		.cfi_offset 11, -8
 3247              		.cfi_offset 14, -4
 3248 0004 83B0     		sub	sp, sp, #12
 3249              	.LCFI36:
 3250              		.cfi_def_cfa_offset 48
 3251 0006 0646     		mov	r6, r0
 3252 0008 0D46     		mov	r5, r1
 3253 000a 0192     		str	r2, [sp, #4]
 3254 000c 9B46     		mov	fp, r3
 3255 000e DDF83490 		ldr	r9, [sp, #52]
1076:user/drivers/u8g2/u8g2_font.c ****   uint16_t e_prev = 0x0ffff;
 3256              		.loc 1 1076 3 is_stmt 1 view .LVU990
1076:user/drivers/u8g2/u8g2_font.c ****   uint16_t e_prev = 0x0ffff;
 3257              		.loc 1 1076 22 is_stmt 0 view .LVU991
 3258 0012 294B     		ldr	r3, .L177
 3259              	.LVL382:
1076:user/drivers/u8g2/u8g2_font.c ****   uint16_t e_prev = 0x0ffff;
 3260              		.loc 1 1076 22 view .LVU992
ARM GAS  /var/folders/21/t9g5rlb91ys800n5npymflf80000gn/T//ccT2Ngli.s 			page 97


 3261 0014 4360     		str	r3, [r0, #4]
1077:user/drivers/u8g2/u8g2_font.c ****   uint16_t e;
 3262              		.loc 1 1077 3 is_stmt 1 view .LVU993
 3263              	.LVL383:
1078:user/drivers/u8g2/u8g2_font.c ****   u8g2_uint_t delta, sum, k;
 3264              		.loc 1 1078 3 view .LVU994
1079:user/drivers/u8g2/u8g2_font.c ****   u8x8_utf8_init(u8g2_GetU8x8(u8g2));
 3265              		.loc 1 1079 3 view .LVU995
1080:user/drivers/u8g2/u8g2_font.c ****   sum = 0;
 3266              		.loc 1 1080 3 view .LVU996
 3267 0016 FFF7FEFF 		bl	u8x8_utf8_init
 3268              	.LVL384:
1081:user/drivers/u8g2/u8g2_font.c ****   for(;;)
 3269              		.loc 1 1081 3 view .LVU997
1081:user/drivers/u8g2/u8g2_font.c ****   for(;;)
 3270              		.loc 1 1081 7 is_stmt 0 view .LVU998
 3271 001a 0027     		movs	r7, #0
1077:user/drivers/u8g2/u8g2_font.c ****   uint16_t e;
 3272              		.loc 1 1077 12 view .LVU999
 3273 001c 4FF6FF78 		movw	r8, #65535
 3274 0020 0FE0     		b	.L170
 3275              	.LVL385:
 3276              	.L173:
1100:user/drivers/u8g2/u8g2_font.c **** 	delta -= k;
 3277              		.loc 1 1100 9 is_stmt 1 view .LVU1000
1100:user/drivers/u8g2/u8g2_font.c **** 	delta -= k;
 3278              		.loc 1 1100 13 is_stmt 0 view .LVU1001
 3279 0022 2346     		mov	r3, r4
 3280 0024 4246     		mov	r2, r8
 3281 0026 0C99     		ldr	r1, [sp, #48]
 3282 0028 3046     		mov	r0, r6
 3283 002a FFF7FEFF 		bl	u8g2_GetKerning
 3284              	.LVL386:
1100:user/drivers/u8g2/u8g2_font.c **** 	delta -= k;
 3285              		.loc 1 1100 11 view .LVU1002
 3286 002e 0090     		str	r0, [sp]
 3287              	.LVL387:
1101:user/drivers/u8g2/u8g2_font.c ****       }
 3288              		.loc 1 1101 2 is_stmt 1 view .LVU1003
1101:user/drivers/u8g2/u8g2_font.c ****       }
 3289              		.loc 1 1101 8 is_stmt 0 view .LVU1004
 3290 0030 AAEB000A 		sub	r10, r10, r0
 3291              	.LVL388:
1101:user/drivers/u8g2/u8g2_font.c ****       }
 3292              		.loc 1 1101 8 view .LVU1005
 3293 0034 1FFA8AF8 		uxth	r8, r10
 3294              	.LVL389:
1101:user/drivers/u8g2/u8g2_font.c ****       }
 3295              		.loc 1 1101 8 view .LVU1006
 3296 0038 2BE0     		b	.L174
 3297              	.LVL390:
 3298              	.L175:
1115:user/drivers/u8g2/u8g2_font.c ****     }
 3299              		.loc 1 1115 7 is_stmt 1 view .LVU1007
1115:user/drivers/u8g2/u8g2_font.c ****     }
 3300              		.loc 1 1115 11 is_stmt 0 view .LVU1008
 3301 003a B844     		add	r8, r8, r7
ARM GAS  /var/folders/21/t9g5rlb91ys800n5npymflf80000gn/T//ccT2Ngli.s 			page 98


 3302              	.LVL391:
1115:user/drivers/u8g2/u8g2_font.c ****     }
 3303              		.loc 1 1115 11 view .LVU1009
 3304 003c 1FFA88F7 		uxth	r7, r8
 3305              	.LVL392:
1103:user/drivers/u8g2/u8g2_font.c **** 
 3306              		.loc 1 1103 14 view .LVU1010
 3307 0040 A046     		mov	r8, r4
 3308              	.LVL393:
 3309              	.L170:
1082:user/drivers/u8g2/u8g2_font.c ****   {
 3310              		.loc 1 1082 3 is_stmt 1 view .LVU1011
1084:user/drivers/u8g2/u8g2_font.c ****     if ( e == 0x0ffff )
 3311              		.loc 1 1084 5 view .LVU1012
1084:user/drivers/u8g2/u8g2_font.c ****     if ( e == 0x0ffff )
 3312              		.loc 1 1084 19 is_stmt 0 view .LVU1013
 3313 0042 7368     		ldr	r3, [r6, #4]
1084:user/drivers/u8g2/u8g2_font.c ****     if ( e == 0x0ffff )
 3314              		.loc 1 1084 9 view .LVU1014
 3315 0044 99F80010 		ldrb	r1, [r9]	@ zero_extendqisi2
 3316 0048 3046     		mov	r0, r6
 3317 004a 9847     		blx	r3
 3318              	.LVL394:
 3319 004c 0446     		mov	r4, r0
 3320              	.LVL395:
1085:user/drivers/u8g2/u8g2_font.c ****       break;
 3321              		.loc 1 1085 5 is_stmt 1 view .LVU1015
1085:user/drivers/u8g2/u8g2_font.c ****       break;
 3322              		.loc 1 1085 8 is_stmt 0 view .LVU1016
 3323 004e 4FF6FF73 		movw	r3, #65535
 3324 0052 9842     		cmp	r0, r3
 3325 0054 2CD0     		beq	.L171
1087:user/drivers/u8g2/u8g2_font.c ****     if ( e != 0x0fffe )
 3326              		.loc 1 1087 5 is_stmt 1 view .LVU1017
1087:user/drivers/u8g2/u8g2_font.c ****     if ( e != 0x0fffe )
 3327              		.loc 1 1087 8 is_stmt 0 view .LVU1018
 3328 0056 09F10109 		add	r9, r9, #1
 3329              	.LVL396:
1088:user/drivers/u8g2/u8g2_font.c ****     {
 3330              		.loc 1 1088 5 is_stmt 1 view .LVU1019
1088:user/drivers/u8g2/u8g2_font.c ****     {
 3331              		.loc 1 1088 8 is_stmt 0 view .LVU1020
 3332 005a 4FF6FE73 		movw	r3, #65534
 3333 005e 9842     		cmp	r0, r3
 3334 0060 EFD0     		beq	.L170
1090:user/drivers/u8g2/u8g2_font.c **** 	    
 3335              		.loc 1 1090 7 is_stmt 1 view .LVU1021
1090:user/drivers/u8g2/u8g2_font.c **** 	    
 3336              		.loc 1 1090 15 is_stmt 0 view .LVU1022
 3337 0062 0146     		mov	r1, r0
 3338 0064 3046     		mov	r0, r6
 3339              	.LVL397:
1090:user/drivers/u8g2/u8g2_font.c **** 	    
 3340              		.loc 1 1090 15 view .LVU1023
 3341 0066 FFF7FEFF 		bl	u8g2_GetGlyphWidth
 3342              	.LVL398:
1090:user/drivers/u8g2/u8g2_font.c **** 	    
ARM GAS  /var/folders/21/t9g5rlb91ys800n5npymflf80000gn/T//ccT2Ngli.s 			page 99


 3343              		.loc 1 1090 13 view .LVU1024
 3344 006a 1FFA80FA 		uxth	r10, r0
 3345              	.LVL399:
1092:user/drivers/u8g2/u8g2_font.c ****       {
 3346              		.loc 1 1092 7 is_stmt 1 view .LVU1025
1092:user/drivers/u8g2/u8g2_font.c ****       {
 3347              		.loc 1 1092 10 is_stmt 0 view .LVU1026
 3348 006e BBF1000F 		cmp	fp, #0
 3349 0072 D6D0     		beq	.L173
1094:user/drivers/u8g2/u8g2_font.c **** 	delta -= k;
 3350              		.loc 1 1094 9 is_stmt 1 view .LVU1027
1094:user/drivers/u8g2/u8g2_font.c **** 	delta -= k;
 3351              		.loc 1 1094 13 is_stmt 0 view .LVU1028
 3352 0074 4346     		mov	r3, r8
 3353 0076 2246     		mov	r2, r4
 3354 0078 0C99     		ldr	r1, [sp, #48]
 3355 007a 3046     		mov	r0, r6
 3356 007c FFF7FEFF 		bl	u8g2_GetKerning
 3357              	.LVL400:
1094:user/drivers/u8g2/u8g2_font.c **** 	delta -= k;
 3358              		.loc 1 1094 11 view .LVU1029
 3359 0080 0090     		str	r0, [sp]
 3360              	.LVL401:
1095:user/drivers/u8g2/u8g2_font.c **** 	x -= delta;
 3361              		.loc 1 1095 2 is_stmt 1 view .LVU1030
1095:user/drivers/u8g2/u8g2_font.c **** 	x -= delta;
 3362              		.loc 1 1095 8 is_stmt 0 view .LVU1031
 3363 0082 AAEB0008 		sub	r8, r10, r0
 3364              	.LVL402:
1095:user/drivers/u8g2/u8g2_font.c **** 	x -= delta;
 3365              		.loc 1 1095 8 view .LVU1032
 3366 0086 1FFA88F8 		uxth	r8, r8
 3367              	.LVL403:
1096:user/drivers/u8g2/u8g2_font.c ****       }
 3368              		.loc 1 1096 2 is_stmt 1 view .LVU1033
1096:user/drivers/u8g2/u8g2_font.c ****       }
 3369              		.loc 1 1096 4 is_stmt 0 view .LVU1034
 3370 008a A0EB0A00 		sub	r0, r0, r10
 3371              	.LVL404:
1096:user/drivers/u8g2/u8g2_font.c ****       }
 3372              		.loc 1 1096 4 view .LVU1035
 3373 008e 2844     		add	r0, r0, r5
 3374 0090 85B2     		uxth	r5, r0
 3375              	.LVL405:
 3376              	.L174:
1103:user/drivers/u8g2/u8g2_font.c **** 
 3377              		.loc 1 1103 7 is_stmt 1 view .LVU1036
1105:user/drivers/u8g2/u8g2_font.c ****       if ( to_left )
 3378              		.loc 1 1105 7 view .LVU1037
 3379 0092 2346     		mov	r3, r4
 3380 0094 019A     		ldr	r2, [sp, #4]
 3381 0096 2946     		mov	r1, r5
 3382 0098 3046     		mov	r0, r6
 3383 009a FFF7FEFF 		bl	u8g2_DrawGlyph
 3384              	.LVL406:
1106:user/drivers/u8g2/u8g2_font.c ****       {
 3385              		.loc 1 1106 7 view .LVU1038
ARM GAS  /var/folders/21/t9g5rlb91ys800n5npymflf80000gn/T//ccT2Ngli.s 			page 100


1106:user/drivers/u8g2/u8g2_font.c ****       {
 3386              		.loc 1 1106 10 is_stmt 0 view .LVU1039
 3387 009e BBF1000F 		cmp	fp, #0
 3388 00a2 CAD1     		bne	.L175
1111:user/drivers/u8g2/u8g2_font.c **** 	x -= k;
 3389              		.loc 1 1111 2 is_stmt 1 view .LVU1040
1111:user/drivers/u8g2/u8g2_font.c **** 	x -= k;
 3390              		.loc 1 1111 4 is_stmt 0 view .LVU1041
 3391 00a4 4544     		add	r5, r5, r8
 3392              	.LVL407:
1111:user/drivers/u8g2/u8g2_font.c **** 	x -= k;
 3393              		.loc 1 1111 4 view .LVU1042
 3394 00a6 ADB2     		uxth	r5, r5
 3395              	.LVL408:
1112:user/drivers/u8g2/u8g2_font.c ****       }
 3396              		.loc 1 1112 2 is_stmt 1 view .LVU1043
1112:user/drivers/u8g2/u8g2_font.c ****       }
 3397              		.loc 1 1112 4 is_stmt 0 view .LVU1044
 3398 00a8 009B     		ldr	r3, [sp]
 3399 00aa ED1A     		subs	r5, r5, r3
 3400              	.LVL409:
1112:user/drivers/u8g2/u8g2_font.c ****       }
 3401              		.loc 1 1112 4 view .LVU1045
 3402 00ac ADB2     		uxth	r5, r5
 3403              	.LVL410:
1112:user/drivers/u8g2/u8g2_font.c ****       }
 3404              		.loc 1 1112 4 view .LVU1046
 3405 00ae C4E7     		b	.L175
 3406              	.LVL411:
 3407              	.L171:
1118:user/drivers/u8g2/u8g2_font.c **** }
 3408              		.loc 1 1118 3 is_stmt 1 view .LVU1047
1119:user/drivers/u8g2/u8g2_font.c **** 
 3409              		.loc 1 1119 1 is_stmt 0 view .LVU1048
 3410 00b0 3846     		mov	r0, r7
 3411              	.LVL412:
1119:user/drivers/u8g2/u8g2_font.c **** 
 3412              		.loc 1 1119 1 view .LVU1049
 3413 00b2 03B0     		add	sp, sp, #12
 3414              	.LCFI37:
 3415              		.cfi_def_cfa_offset 36
 3416              		@ sp needed
 3417 00b4 BDE8F08F 		pop	{r4, r5, r6, r7, r8, r9, r10, fp, pc}
 3418              	.LVL413:
 3419              	.L178:
1119:user/drivers/u8g2/u8g2_font.c **** 
 3420              		.loc 1 1119 1 view .LVU1050
 3421              		.align	2
 3422              	.L177:
 3423 00b8 00000000 		.word	u8x8_utf8_next
 3424              		.cfi_endproc
 3425              	.LFE32:
 3427              		.section	.text.u8g2_DrawExtUTF8,"ax",%progbits
 3428              		.align	1
 3429              		.global	u8g2_DrawExtUTF8
 3430              		.syntax unified
 3431              		.thumb
ARM GAS  /var/folders/21/t9g5rlb91ys800n5npymflf80000gn/T//ccT2Ngli.s 			page 101


 3432              		.thumb_func
 3434              	u8g2_DrawExtUTF8:
 3435              	.LVL414:
 3436              	.LFB33:
1122:user/drivers/u8g2/u8g2_font.c ****   u8g2->u8x8.next_cb = u8x8_utf8_next;
 3437              		.loc 1 1122 1 is_stmt 1 view -0
 3438              		.cfi_startproc
 3439              		@ args = 8, pretend = 0, frame = 8
 3440              		@ frame_needed = 0, uses_anonymous_args = 0
1122:user/drivers/u8g2/u8g2_font.c ****   u8g2->u8x8.next_cb = u8x8_utf8_next;
 3441              		.loc 1 1122 1 is_stmt 0 view .LVU1052
 3442 0000 2DE9F04F 		push	{r4, r5, r6, r7, r8, r9, r10, fp, lr}
 3443              	.LCFI38:
 3444              		.cfi_def_cfa_offset 36
 3445              		.cfi_offset 4, -36
 3446              		.cfi_offset 5, -32
 3447              		.cfi_offset 6, -28
 3448              		.cfi_offset 7, -24
 3449              		.cfi_offset 8, -20
 3450              		.cfi_offset 9, -16
 3451              		.cfi_offset 10, -12
 3452              		.cfi_offset 11, -8
 3453              		.cfi_offset 14, -4
 3454 0004 83B0     		sub	sp, sp, #12
 3455              	.LCFI39:
 3456              		.cfi_def_cfa_offset 48
 3457 0006 0646     		mov	r6, r0
 3458 0008 0D46     		mov	r5, r1
 3459 000a 0192     		str	r2, [sp, #4]
 3460 000c 9B46     		mov	fp, r3
 3461 000e DDF83490 		ldr	r9, [sp, #52]
1123:user/drivers/u8g2/u8g2_font.c ****   uint16_t e_prev = 0x0ffff;
 3462              		.loc 1 1123 3 is_stmt 1 view .LVU1053
1123:user/drivers/u8g2/u8g2_font.c ****   uint16_t e_prev = 0x0ffff;
 3463              		.loc 1 1123 22 is_stmt 0 view .LVU1054
 3464 0012 274B     		ldr	r3, .L187
 3465              	.LVL415:
1123:user/drivers/u8g2/u8g2_font.c ****   uint16_t e_prev = 0x0ffff;
 3466              		.loc 1 1123 22 view .LVU1055
 3467 0014 4360     		str	r3, [r0, #4]
1124:user/drivers/u8g2/u8g2_font.c ****   uint16_t e;
 3468              		.loc 1 1124 3 is_stmt 1 view .LVU1056
 3469              	.LVL416:
1125:user/drivers/u8g2/u8g2_font.c ****   u8g2_uint_t delta, sum, k;
 3470              		.loc 1 1125 3 view .LVU1057
1126:user/drivers/u8g2/u8g2_font.c ****   u8x8_utf8_init(u8g2_GetU8x8(u8g2));
 3471              		.loc 1 1126 3 view .LVU1058
1127:user/drivers/u8g2/u8g2_font.c ****   sum = 0;
 3472              		.loc 1 1127 3 view .LVU1059
 3473 0016 FFF7FEFF 		bl	u8x8_utf8_init
 3474              	.LVL417:
1128:user/drivers/u8g2/u8g2_font.c ****   for(;;)
 3475              		.loc 1 1128 3 view .LVU1060
1128:user/drivers/u8g2/u8g2_font.c ****   for(;;)
 3476              		.loc 1 1128 7 is_stmt 0 view .LVU1061
 3477 001a 0027     		movs	r7, #0
1124:user/drivers/u8g2/u8g2_font.c ****   uint16_t e;
ARM GAS  /var/folders/21/t9g5rlb91ys800n5npymflf80000gn/T//ccT2Ngli.s 			page 102


 3478              		.loc 1 1124 12 view .LVU1062
 3479 001c 4FF6FF78 		movw	r8, #65535
 3480 0020 14E0     		b	.L180
 3481              	.LVL418:
 3482              	.L183:
1147:user/drivers/u8g2/u8g2_font.c **** 	delta -= k;
 3483              		.loc 1 1147 9 is_stmt 1 view .LVU1063
1147:user/drivers/u8g2/u8g2_font.c **** 	delta -= k;
 3484              		.loc 1 1147 13 is_stmt 0 view .LVU1064
 3485 0022 2346     		mov	r3, r4
 3486 0024 4246     		mov	r2, r8
 3487 0026 0C99     		ldr	r1, [sp, #48]
 3488 0028 3046     		mov	r0, r6
 3489 002a FFF7FEFF 		bl	u8g2_GetKerningByTable
 3490              	.LVL419:
1148:user/drivers/u8g2/u8g2_font.c ****       }
 3491              		.loc 1 1148 2 is_stmt 1 view .LVU1065
1148:user/drivers/u8g2/u8g2_font.c ****       }
 3492              		.loc 1 1148 8 is_stmt 0 view .LVU1066
 3493 002e AAEB000A 		sub	r10, r10, r0
 3494              	.LVL420:
1148:user/drivers/u8g2/u8g2_font.c ****       }
 3495              		.loc 1 1148 8 view .LVU1067
 3496 0032 1FFA8AF8 		uxth	r8, r10
 3497              	.LVL421:
1148:user/drivers/u8g2/u8g2_font.c ****       }
 3498              		.loc 1 1148 8 view .LVU1068
 3499 0036 30E0     		b	.L184
 3500              	.LVL422:
 3501              	.L185:
1159:user/drivers/u8g2/u8g2_font.c ****       if ( to_left )
 3502              		.loc 1 1159 7 is_stmt 1 view .LVU1069
 3503 0038 2346     		mov	r3, r4
 3504 003a 019A     		ldr	r2, [sp, #4]
 3505 003c 2946     		mov	r1, r5
 3506 003e 3046     		mov	r0, r6
 3507 0040 FFF7FEFF 		bl	u8g2_DrawGlyph
 3508              	.LVL423:
1160:user/drivers/u8g2/u8g2_font.c ****       {
 3509              		.loc 1 1160 7 view .LVU1070
1167:user/drivers/u8g2/u8g2_font.c ****       
 3510              		.loc 1 1167 7 view .LVU1071
1169:user/drivers/u8g2/u8g2_font.c ****     }
 3511              		.loc 1 1169 7 view .LVU1072
1169:user/drivers/u8g2/u8g2_font.c ****     }
 3512              		.loc 1 1169 11 is_stmt 0 view .LVU1073
 3513 0044 B844     		add	r8, r8, r7
 3514              	.LVL424:
1169:user/drivers/u8g2/u8g2_font.c ****     }
 3515              		.loc 1 1169 11 view .LVU1074
 3516 0046 1FFA88F7 		uxth	r7, r8
 3517              	.LVL425:
1150:user/drivers/u8g2/u8g2_font.c **** 
 3518              		.loc 1 1150 14 view .LVU1075
 3519 004a A046     		mov	r8, r4
 3520              	.LVL426:
 3521              	.L180:
ARM GAS  /var/folders/21/t9g5rlb91ys800n5npymflf80000gn/T//ccT2Ngli.s 			page 103


1129:user/drivers/u8g2/u8g2_font.c ****   {
 3522              		.loc 1 1129 3 is_stmt 1 view .LVU1076
1131:user/drivers/u8g2/u8g2_font.c ****     if ( e == 0x0ffff )
 3523              		.loc 1 1131 5 view .LVU1077
1131:user/drivers/u8g2/u8g2_font.c ****     if ( e == 0x0ffff )
 3524              		.loc 1 1131 19 is_stmt 0 view .LVU1078
 3525 004c 7368     		ldr	r3, [r6, #4]
1131:user/drivers/u8g2/u8g2_font.c ****     if ( e == 0x0ffff )
 3526              		.loc 1 1131 9 view .LVU1079
 3527 004e 99F80010 		ldrb	r1, [r9]	@ zero_extendqisi2
 3528 0052 3046     		mov	r0, r6
 3529 0054 9847     		blx	r3
 3530              	.LVL427:
 3531 0056 0446     		mov	r4, r0
 3532              	.LVL428:
1132:user/drivers/u8g2/u8g2_font.c ****       break;
 3533              		.loc 1 1132 5 is_stmt 1 view .LVU1080
1132:user/drivers/u8g2/u8g2_font.c ****       break;
 3534              		.loc 1 1132 8 is_stmt 0 view .LVU1081
 3535 0058 4FF6FF73 		movw	r3, #65535
 3536 005c 9842     		cmp	r0, r3
 3537 005e 22D0     		beq	.L181
1134:user/drivers/u8g2/u8g2_font.c ****     if ( e != 0x0fffe )
 3538              		.loc 1 1134 5 is_stmt 1 view .LVU1082
1134:user/drivers/u8g2/u8g2_font.c ****     if ( e != 0x0fffe )
 3539              		.loc 1 1134 8 is_stmt 0 view .LVU1083
 3540 0060 09F10109 		add	r9, r9, #1
 3541              	.LVL429:
1135:user/drivers/u8g2/u8g2_font.c ****     {
 3542              		.loc 1 1135 5 is_stmt 1 view .LVU1084
1135:user/drivers/u8g2/u8g2_font.c ****     {
 3543              		.loc 1 1135 8 is_stmt 0 view .LVU1085
 3544 0064 4FF6FE73 		movw	r3, #65534
 3545 0068 9842     		cmp	r0, r3
 3546 006a EFD0     		beq	.L180
1137:user/drivers/u8g2/u8g2_font.c **** 	    
 3547              		.loc 1 1137 7 is_stmt 1 view .LVU1086
1137:user/drivers/u8g2/u8g2_font.c **** 	    
 3548              		.loc 1 1137 15 is_stmt 0 view .LVU1087
 3549 006c 0146     		mov	r1, r0
 3550 006e 3046     		mov	r0, r6
 3551              	.LVL430:
1137:user/drivers/u8g2/u8g2_font.c **** 	    
 3552              		.loc 1 1137 15 view .LVU1088
 3553 0070 FFF7FEFF 		bl	u8g2_GetGlyphWidth
 3554              	.LVL431:
1137:user/drivers/u8g2/u8g2_font.c **** 	    
 3555              		.loc 1 1137 13 view .LVU1089
 3556 0074 1FFA80FA 		uxth	r10, r0
 3557              	.LVL432:
1139:user/drivers/u8g2/u8g2_font.c ****       {
 3558              		.loc 1 1139 7 is_stmt 1 view .LVU1090
1139:user/drivers/u8g2/u8g2_font.c ****       {
 3559              		.loc 1 1139 10 is_stmt 0 view .LVU1091
 3560 0078 BBF1000F 		cmp	fp, #0
 3561 007c D1D0     		beq	.L183
1141:user/drivers/u8g2/u8g2_font.c **** 	delta -= k;
ARM GAS  /var/folders/21/t9g5rlb91ys800n5npymflf80000gn/T//ccT2Ngli.s 			page 104


 3562              		.loc 1 1141 9 is_stmt 1 view .LVU1092
1141:user/drivers/u8g2/u8g2_font.c **** 	delta -= k;
 3563              		.loc 1 1141 13 is_stmt 0 view .LVU1093
 3564 007e 4346     		mov	r3, r8
 3565 0080 2246     		mov	r2, r4
 3566 0082 0C99     		ldr	r1, [sp, #48]
 3567 0084 3046     		mov	r0, r6
 3568 0086 FFF7FEFF 		bl	u8g2_GetKerningByTable
 3569              	.LVL433:
1142:user/drivers/u8g2/u8g2_font.c **** 	x -= delta;
 3570              		.loc 1 1142 2 is_stmt 1 view .LVU1094
1142:user/drivers/u8g2/u8g2_font.c **** 	x -= delta;
 3571              		.loc 1 1142 8 is_stmt 0 view .LVU1095
 3572 008a AAEB0008 		sub	r8, r10, r0
 3573              	.LVL434:
1142:user/drivers/u8g2/u8g2_font.c **** 	x -= delta;
 3574              		.loc 1 1142 8 view .LVU1096
 3575 008e 1FFA88F8 		uxth	r8, r8
 3576              	.LVL435:
1143:user/drivers/u8g2/u8g2_font.c ****       }
 3577              		.loc 1 1143 2 is_stmt 1 view .LVU1097
1143:user/drivers/u8g2/u8g2_font.c ****       }
 3578              		.loc 1 1143 4 is_stmt 0 view .LVU1098
 3579 0092 A0EB0A00 		sub	r0, r0, r10
 3580              	.LVL436:
1143:user/drivers/u8g2/u8g2_font.c ****       }
 3581              		.loc 1 1143 4 view .LVU1099
 3582 0096 2844     		add	r0, r0, r5
 3583 0098 85B2     		uxth	r5, r0
 3584              	.LVL437:
 3585              	.L184:
1150:user/drivers/u8g2/u8g2_font.c **** 
 3586              		.loc 1 1150 7 is_stmt 1 view .LVU1100
1152:user/drivers/u8g2/u8g2_font.c ****       {
 3587              		.loc 1 1152 7 view .LVU1101
1152:user/drivers/u8g2/u8g2_font.c ****       {
 3588              		.loc 1 1152 10 is_stmt 0 view .LVU1102
 3589 009a BBF1000F 		cmp	fp, #0
 3590 009e CBD1     		bne	.L185
1157:user/drivers/u8g2/u8g2_font.c ****       }
 3591              		.loc 1 1157 2 is_stmt 1 view .LVU1103
1157:user/drivers/u8g2/u8g2_font.c ****       }
 3592              		.loc 1 1157 4 is_stmt 0 view .LVU1104
 3593 00a0 4544     		add	r5, r5, r8
 3594              	.LVL438:
1157:user/drivers/u8g2/u8g2_font.c ****       }
 3595              		.loc 1 1157 4 view .LVU1105
 3596 00a2 ADB2     		uxth	r5, r5
 3597              	.LVL439:
1157:user/drivers/u8g2/u8g2_font.c ****       }
 3598              		.loc 1 1157 4 view .LVU1106
 3599 00a4 C8E7     		b	.L185
 3600              	.LVL440:
 3601              	.L181:
1172:user/drivers/u8g2/u8g2_font.c **** }
 3602              		.loc 1 1172 3 is_stmt 1 view .LVU1107
1173:user/drivers/u8g2/u8g2_font.c **** 
ARM GAS  /var/folders/21/t9g5rlb91ys800n5npymflf80000gn/T//ccT2Ngli.s 			page 105


 3603              		.loc 1 1173 1 is_stmt 0 view .LVU1108
 3604 00a6 3846     		mov	r0, r7
 3605              	.LVL441:
1173:user/drivers/u8g2/u8g2_font.c **** 
 3606              		.loc 1 1173 1 view .LVU1109
 3607 00a8 03B0     		add	sp, sp, #12
 3608              	.LCFI40:
 3609              		.cfi_def_cfa_offset 36
 3610              		@ sp needed
 3611 00aa BDE8F08F 		pop	{r4, r5, r6, r7, r8, r9, r10, fp, pc}
 3612              	.LVL442:
 3613              	.L188:
1173:user/drivers/u8g2/u8g2_font.c **** 
 3614              		.loc 1 1173 1 view .LVU1110
 3615 00ae 00BF     		.align	2
 3616              	.L187:
 3617 00b0 00000000 		.word	u8x8_utf8_next
 3618              		.cfi_endproc
 3619              	.LFE33:
 3621              		.section	.text.u8g2_UpdateRefHeight,"ax",%progbits
 3622              		.align	1
 3623              		.global	u8g2_UpdateRefHeight
 3624              		.syntax unified
 3625              		.thumb
 3626              		.thumb_func
 3628              	u8g2_UpdateRefHeight:
 3629              	.LVL443:
 3630              	.LFB34:
1182:user/drivers/u8g2/u8g2_font.c ****   if ( u8g2->font == NULL )
 3631              		.loc 1 1182 1 is_stmt 1 view -0
 3632              		.cfi_startproc
 3633              		@ args = 0, pretend = 0, frame = 0
 3634              		@ frame_needed = 0, uses_anonymous_args = 0
1183:user/drivers/u8g2/u8g2_font.c ****     return;
 3635              		.loc 1 1183 3 view .LVU1112
1183:user/drivers/u8g2/u8g2_font.c ****     return;
 3636              		.loc 1 1183 12 is_stmt 0 view .LVU1113
 3637 0000 836D     		ldr	r3, [r0, #88]
1183:user/drivers/u8g2/u8g2_font.c ****     return;
 3638              		.loc 1 1183 6 view .LVU1114
 3639 0002 6BB3     		cbz	r3, .L195
1185:user/drivers/u8g2/u8g2_font.c ****   u8g2->font_ref_descent = u8g2->font_info.descent_g;
 3640              		.loc 1 1185 3 is_stmt 1 view .LVU1115
1185:user/drivers/u8g2/u8g2_font.c ****   u8g2->font_ref_descent = u8g2->font_info.descent_g;
 3641              		.loc 1 1185 42 is_stmt 0 view .LVU1116
 3642 0004 90F98120 		ldrsb	r2, [r0, #129]
1185:user/drivers/u8g2/u8g2_font.c ****   u8g2->font_ref_descent = u8g2->font_info.descent_g;
 3643              		.loc 1 1185 25 view .LVU1117
 3644 0008 80F88E20 		strb	r2, [r0, #142]
1186:user/drivers/u8g2/u8g2_font.c ****   if ( u8g2->font_height_mode == U8G2_FONT_HEIGHT_MODE_TEXT )
 3645              		.loc 1 1186 3 is_stmt 1 view .LVU1118
1186:user/drivers/u8g2/u8g2_font.c ****   if ( u8g2->font_height_mode == U8G2_FONT_HEIGHT_MODE_TEXT )
 3646              		.loc 1 1186 43 is_stmt 0 view .LVU1119
 3647 000c 90F98230 		ldrsb	r3, [r0, #130]
1186:user/drivers/u8g2/u8g2_font.c ****   if ( u8g2->font_height_mode == U8G2_FONT_HEIGHT_MODE_TEXT )
 3648              		.loc 1 1186 26 view .LVU1120
 3649 0010 80F88F30 		strb	r3, [r0, #143]
ARM GAS  /var/folders/21/t9g5rlb91ys800n5npymflf80000gn/T//ccT2Ngli.s 			page 106


1187:user/drivers/u8g2/u8g2_font.c ****   {
 3650              		.loc 1 1187 3 is_stmt 1 view .LVU1121
1187:user/drivers/u8g2/u8g2_font.c ****   {
 3651              		.loc 1 1187 12 is_stmt 0 view .LVU1122
 3652 0014 90F88D10 		ldrb	r1, [r0, #141]	@ zero_extendqisi2
1187:user/drivers/u8g2/u8g2_font.c ****   {
 3653              		.loc 1 1187 6 view .LVU1123
 3654 0018 11B3     		cbz	r1, .L195
1190:user/drivers/u8g2/u8g2_font.c ****   {
 3655              		.loc 1 1190 8 is_stmt 1 view .LVU1124
1190:user/drivers/u8g2/u8g2_font.c ****   {
 3656              		.loc 1 1190 11 is_stmt 0 view .LVU1125
 3657 001a 0129     		cmp	r1, #1
 3658 001c 13D0     		beq	.L197
1182:user/drivers/u8g2/u8g2_font.c ****   if ( u8g2->font == NULL )
 3659              		.loc 1 1182 1 view .LVU1126
 3660 001e 00B5     		push	{lr}
 3661              	.LCFI41:
 3662              		.cfi_def_cfa_offset 4
 3663              		.cfi_offset 14, -4
1199:user/drivers/u8g2/u8g2_font.c ****       u8g2->font_ref_ascent = u8g2->font_info.max_char_height+u8g2->font_info.y_offset;
 3664              		.loc 1 1199 5 is_stmt 1 view .LVU1127
1199:user/drivers/u8g2/u8g2_font.c ****       u8g2->font_ref_ascent = u8g2->font_info.max_char_height+u8g2->font_info.y_offset;
 3665              		.loc 1 1199 49 is_stmt 0 view .LVU1128
 3666 0020 90F97EC0 		ldrsb	ip, [r0, #126]
1199:user/drivers/u8g2/u8g2_font.c ****       u8g2->font_ref_ascent = u8g2->font_info.max_char_height+u8g2->font_info.y_offset;
 3667              		.loc 1 1199 81 view .LVU1129
 3668 0024 90F98010 		ldrsb	r1, [r0, #128]
1199:user/drivers/u8g2/u8g2_font.c ****       u8g2->font_ref_ascent = u8g2->font_info.max_char_height+u8g2->font_info.y_offset;
 3669              		.loc 1 1199 65 view .LVU1130
 3670 0028 0CEB010E 		add	lr, ip, r1
1199:user/drivers/u8g2/u8g2_font.c ****       u8g2->font_ref_ascent = u8g2->font_info.max_char_height+u8g2->font_info.y_offset;
 3671              		.loc 1 1199 8 view .LVU1131
 3672 002c 7245     		cmp	r2, lr
 3673 002e 04DA     		bge	.L193
1200:user/drivers/u8g2/u8g2_font.c ****     if ( u8g2->font_ref_descent > u8g2->font_info.y_offset )
 3674              		.loc 1 1200 7 is_stmt 1 view .LVU1132
1200:user/drivers/u8g2/u8g2_font.c ****     if ( u8g2->font_ref_descent > u8g2->font_info.y_offset )
 3675              		.loc 1 1200 78 is_stmt 0 view .LVU1133
 3676 0030 CAB2     		uxtb	r2, r1
1200:user/drivers/u8g2/u8g2_font.c ****     if ( u8g2->font_ref_descent > u8g2->font_info.y_offset )
 3677              		.loc 1 1200 62 view .LVU1134
 3678 0032 52FA8CFC 		uxtab	ip, r2, ip
1200:user/drivers/u8g2/u8g2_font.c ****     if ( u8g2->font_ref_descent > u8g2->font_info.y_offset )
 3679              		.loc 1 1200 29 view .LVU1135
 3680 0036 80F88EC0 		strb	ip, [r0, #142]
 3681              	.L193:
1201:user/drivers/u8g2/u8g2_font.c ****       u8g2->font_ref_descent = u8g2->font_info.y_offset;
 3682              		.loc 1 1201 5 is_stmt 1 view .LVU1136
1201:user/drivers/u8g2/u8g2_font.c ****       u8g2->font_ref_descent = u8g2->font_info.y_offset;
 3683              		.loc 1 1201 8 is_stmt 0 view .LVU1137
 3684 003a 8B42     		cmp	r3, r1
 3685 003c 01DD     		ble	.L189
1202:user/drivers/u8g2/u8g2_font.c ****   }  
 3686              		.loc 1 1202 7 is_stmt 1 view .LVU1138
1202:user/drivers/u8g2/u8g2_font.c ****   }  
 3687              		.loc 1 1202 30 is_stmt 0 view .LVU1139
ARM GAS  /var/folders/21/t9g5rlb91ys800n5npymflf80000gn/T//ccT2Ngli.s 			page 107


 3688 003e 80F88F10 		strb	r1, [r0, #143]
 3689              	.L189:
1204:user/drivers/u8g2/u8g2_font.c **** 
 3690              		.loc 1 1204 1 view .LVU1140
 3691 0042 5DF804FB 		ldr	pc, [sp], #4
 3692              	.L197:
 3693              	.LCFI42:
 3694              		.cfi_def_cfa_offset 0
 3695              		.cfi_restore 14
1192:user/drivers/u8g2/u8g2_font.c ****       u8g2->font_ref_ascent = u8g2->font_info.ascent_para;
 3696              		.loc 1 1192 5 is_stmt 1 view .LVU1141
1192:user/drivers/u8g2/u8g2_font.c ****       u8g2->font_ref_ascent = u8g2->font_info.ascent_para;
 3697              		.loc 1 1192 49 is_stmt 0 view .LVU1142
 3698 0046 90F98310 		ldrsb	r1, [r0, #131]
1192:user/drivers/u8g2/u8g2_font.c ****       u8g2->font_ref_ascent = u8g2->font_info.ascent_para;
 3699              		.loc 1 1192 8 view .LVU1143
 3700 004a 8A42     		cmp	r2, r1
 3701 004c 01DA     		bge	.L192
1193:user/drivers/u8g2/u8g2_font.c ****     if ( u8g2->font_ref_descent > u8g2->font_info.descent_para )
 3702              		.loc 1 1193 7 is_stmt 1 view .LVU1144
1193:user/drivers/u8g2/u8g2_font.c ****     if ( u8g2->font_ref_descent > u8g2->font_info.descent_para )
 3703              		.loc 1 1193 29 is_stmt 0 view .LVU1145
 3704 004e 80F88E10 		strb	r1, [r0, #142]
 3705              	.L192:
1194:user/drivers/u8g2/u8g2_font.c ****       u8g2->font_ref_descent = u8g2->font_info.descent_para;
 3706              		.loc 1 1194 5 is_stmt 1 view .LVU1146
1194:user/drivers/u8g2/u8g2_font.c ****       u8g2->font_ref_descent = u8g2->font_info.descent_para;
 3707              		.loc 1 1194 50 is_stmt 0 view .LVU1147
 3708 0052 90F98420 		ldrsb	r2, [r0, #132]
1194:user/drivers/u8g2/u8g2_font.c ****       u8g2->font_ref_descent = u8g2->font_info.descent_para;
 3709              		.loc 1 1194 8 view .LVU1148
 3710 0056 9342     		cmp	r3, r2
 3711 0058 02DD     		ble	.L195
1195:user/drivers/u8g2/u8g2_font.c ****   }
 3712              		.loc 1 1195 7 is_stmt 1 view .LVU1149
1195:user/drivers/u8g2/u8g2_font.c ****   }
 3713              		.loc 1 1195 30 is_stmt 0 view .LVU1150
 3714 005a 80F88F20 		strb	r2, [r0, #143]
 3715 005e 7047     		bx	lr
 3716              	.L195:
1195:user/drivers/u8g2/u8g2_font.c ****   }
 3717              		.loc 1 1195 30 view .LVU1151
 3718 0060 7047     		bx	lr
 3719              		.cfi_endproc
 3720              	.LFE34:
 3722              		.section	.text.u8g2_SetFontRefHeightText,"ax",%progbits
 3723              		.align	1
 3724              		.global	u8g2_SetFontRefHeightText
 3725              		.syntax unified
 3726              		.thumb
 3727              		.thumb_func
 3729              	u8g2_SetFontRefHeightText:
 3730              	.LVL444:
 3731              	.LFB35:
1207:user/drivers/u8g2/u8g2_font.c ****   u8g2->font_height_mode = U8G2_FONT_HEIGHT_MODE_TEXT;
 3732              		.loc 1 1207 1 is_stmt 1 view -0
 3733              		.cfi_startproc
ARM GAS  /var/folders/21/t9g5rlb91ys800n5npymflf80000gn/T//ccT2Ngli.s 			page 108


 3734              		@ args = 0, pretend = 0, frame = 0
 3735              		@ frame_needed = 0, uses_anonymous_args = 0
1207:user/drivers/u8g2/u8g2_font.c ****   u8g2->font_height_mode = U8G2_FONT_HEIGHT_MODE_TEXT;
 3736              		.loc 1 1207 1 is_stmt 0 view .LVU1153
 3737 0000 08B5     		push	{r3, lr}
 3738              	.LCFI43:
 3739              		.cfi_def_cfa_offset 8
 3740              		.cfi_offset 3, -8
 3741              		.cfi_offset 14, -4
1208:user/drivers/u8g2/u8g2_font.c ****   u8g2_UpdateRefHeight(u8g2);
 3742              		.loc 1 1208 3 is_stmt 1 view .LVU1154
1208:user/drivers/u8g2/u8g2_font.c ****   u8g2_UpdateRefHeight(u8g2);
 3743              		.loc 1 1208 26 is_stmt 0 view .LVU1155
 3744 0002 0022     		movs	r2, #0
 3745 0004 80F88D20 		strb	r2, [r0, #141]
1209:user/drivers/u8g2/u8g2_font.c **** }
 3746              		.loc 1 1209 3 is_stmt 1 view .LVU1156
 3747 0008 FFF7FEFF 		bl	u8g2_UpdateRefHeight
 3748              	.LVL445:
1210:user/drivers/u8g2/u8g2_font.c **** 
 3749              		.loc 1 1210 1 is_stmt 0 view .LVU1157
 3750 000c 08BD     		pop	{r3, pc}
 3751              		.cfi_endproc
 3752              	.LFE35:
 3754              		.section	.text.u8g2_SetFontRefHeightExtendedText,"ax",%progbits
 3755              		.align	1
 3756              		.global	u8g2_SetFontRefHeightExtendedText
 3757              		.syntax unified
 3758              		.thumb
 3759              		.thumb_func
 3761              	u8g2_SetFontRefHeightExtendedText:
 3762              	.LVL446:
 3763              	.LFB36:
1213:user/drivers/u8g2/u8g2_font.c ****   u8g2->font_height_mode = U8G2_FONT_HEIGHT_MODE_XTEXT;
 3764              		.loc 1 1213 1 is_stmt 1 view -0
 3765              		.cfi_startproc
 3766              		@ args = 0, pretend = 0, frame = 0
 3767              		@ frame_needed = 0, uses_anonymous_args = 0
1213:user/drivers/u8g2/u8g2_font.c ****   u8g2->font_height_mode = U8G2_FONT_HEIGHT_MODE_XTEXT;
 3768              		.loc 1 1213 1 is_stmt 0 view .LVU1159
 3769 0000 08B5     		push	{r3, lr}
 3770              	.LCFI44:
 3771              		.cfi_def_cfa_offset 8
 3772              		.cfi_offset 3, -8
 3773              		.cfi_offset 14, -4
1214:user/drivers/u8g2/u8g2_font.c ****   u8g2_UpdateRefHeight(u8g2);
 3774              		.loc 1 1214 3 is_stmt 1 view .LVU1160
1214:user/drivers/u8g2/u8g2_font.c ****   u8g2_UpdateRefHeight(u8g2);
 3775              		.loc 1 1214 26 is_stmt 0 view .LVU1161
 3776 0002 0123     		movs	r3, #1
 3777 0004 80F88D30 		strb	r3, [r0, #141]
1215:user/drivers/u8g2/u8g2_font.c **** }
 3778              		.loc 1 1215 3 is_stmt 1 view .LVU1162
 3779 0008 FFF7FEFF 		bl	u8g2_UpdateRefHeight
 3780              	.LVL447:
1216:user/drivers/u8g2/u8g2_font.c **** 
 3781              		.loc 1 1216 1 is_stmt 0 view .LVU1163
ARM GAS  /var/folders/21/t9g5rlb91ys800n5npymflf80000gn/T//ccT2Ngli.s 			page 109


 3782 000c 08BD     		pop	{r3, pc}
 3783              		.cfi_endproc
 3784              	.LFE36:
 3786              		.section	.text.u8g2_SetFontRefHeightAll,"ax",%progbits
 3787              		.align	1
 3788              		.global	u8g2_SetFontRefHeightAll
 3789              		.syntax unified
 3790              		.thumb
 3791              		.thumb_func
 3793              	u8g2_SetFontRefHeightAll:
 3794              	.LVL448:
 3795              	.LFB37:
1219:user/drivers/u8g2/u8g2_font.c ****   u8g2->font_height_mode = U8G2_FONT_HEIGHT_MODE_ALL;
 3796              		.loc 1 1219 1 is_stmt 1 view -0
 3797              		.cfi_startproc
 3798              		@ args = 0, pretend = 0, frame = 0
 3799              		@ frame_needed = 0, uses_anonymous_args = 0
1219:user/drivers/u8g2/u8g2_font.c ****   u8g2->font_height_mode = U8G2_FONT_HEIGHT_MODE_ALL;
 3800              		.loc 1 1219 1 is_stmt 0 view .LVU1165
 3801 0000 08B5     		push	{r3, lr}
 3802              	.LCFI45:
 3803              		.cfi_def_cfa_offset 8
 3804              		.cfi_offset 3, -8
 3805              		.cfi_offset 14, -4
1220:user/drivers/u8g2/u8g2_font.c ****   u8g2_UpdateRefHeight(u8g2);
 3806              		.loc 1 1220 3 is_stmt 1 view .LVU1166
1220:user/drivers/u8g2/u8g2_font.c ****   u8g2_UpdateRefHeight(u8g2);
 3807              		.loc 1 1220 26 is_stmt 0 view .LVU1167
 3808 0002 0223     		movs	r3, #2
 3809 0004 80F88D30 		strb	r3, [r0, #141]
1221:user/drivers/u8g2/u8g2_font.c **** }
 3810              		.loc 1 1221 3 is_stmt 1 view .LVU1168
 3811 0008 FFF7FEFF 		bl	u8g2_UpdateRefHeight
 3812              	.LVL449:
1222:user/drivers/u8g2/u8g2_font.c **** 
 3813              		.loc 1 1222 1 is_stmt 0 view .LVU1169
 3814 000c 08BD     		pop	{r3, pc}
 3815              		.cfi_endproc
 3816              	.LFE37:
 3818              		.section	.text.u8g2_SetFontPosBaseline,"ax",%progbits
 3819              		.align	1
 3820              		.global	u8g2_SetFontPosBaseline
 3821              		.syntax unified
 3822              		.thumb
 3823              		.thumb_func
 3825              	u8g2_SetFontPosBaseline:
 3826              	.LVL450:
 3827              	.LFB39:
1233:user/drivers/u8g2/u8g2_font.c ****   u8g2->font_calc_vref = u8g2_font_calc_vref_font;
 3828              		.loc 1 1233 1 is_stmt 1 view -0
 3829              		.cfi_startproc
 3830              		@ args = 0, pretend = 0, frame = 0
 3831              		@ frame_needed = 0, uses_anonymous_args = 0
 3832              		@ link register save eliminated.
1234:user/drivers/u8g2/u8g2_font.c **** }
 3833              		.loc 1 1234 3 view .LVU1171
1234:user/drivers/u8g2/u8g2_font.c **** }
ARM GAS  /var/folders/21/t9g5rlb91ys800n5npymflf80000gn/T//ccT2Ngli.s 			page 110


 3834              		.loc 1 1234 24 is_stmt 0 view .LVU1172
 3835 0000 014B     		ldr	r3, .L205
 3836 0002 C365     		str	r3, [r0, #92]
1235:user/drivers/u8g2/u8g2_font.c **** 
 3837              		.loc 1 1235 1 view .LVU1173
 3838 0004 7047     		bx	lr
 3839              	.L206:
 3840 0006 00BF     		.align	2
 3841              	.L205:
 3842 0008 00000000 		.word	u8g2_font_calc_vref_font
 3843              		.cfi_endproc
 3844              	.LFE39:
 3846              		.section	.text.u8g2_SetFontPosBottom,"ax",%progbits
 3847              		.align	1
 3848              		.global	u8g2_SetFontPosBottom
 3849              		.syntax unified
 3850              		.thumb
 3851              		.thumb_func
 3853              	u8g2_SetFontPosBottom:
 3854              	.LVL451:
 3855              	.LFB41:
1244:user/drivers/u8g2/u8g2_font.c ****   u8g2->font_calc_vref = u8g2_font_calc_vref_bottom;
 3856              		.loc 1 1244 1 is_stmt 1 view -0
 3857              		.cfi_startproc
 3858              		@ args = 0, pretend = 0, frame = 0
 3859              		@ frame_needed = 0, uses_anonymous_args = 0
 3860              		@ link register save eliminated.
1245:user/drivers/u8g2/u8g2_font.c **** }
 3861              		.loc 1 1245 3 view .LVU1175
1245:user/drivers/u8g2/u8g2_font.c **** }
 3862              		.loc 1 1245 24 is_stmt 0 view .LVU1176
 3863 0000 014B     		ldr	r3, .L208
 3864 0002 C365     		str	r3, [r0, #92]
1246:user/drivers/u8g2/u8g2_font.c **** 
 3865              		.loc 1 1246 1 view .LVU1177
 3866 0004 7047     		bx	lr
 3867              	.L209:
 3868 0006 00BF     		.align	2
 3869              	.L208:
 3870 0008 00000000 		.word	u8g2_font_calc_vref_bottom
 3871              		.cfi_endproc
 3872              	.LFE41:
 3874              		.section	.text.u8g2_SetFontPosTop,"ax",%progbits
 3875              		.align	1
 3876              		.global	u8g2_SetFontPosTop
 3877              		.syntax unified
 3878              		.thumb
 3879              		.thumb_func
 3881              	u8g2_SetFontPosTop:
 3882              	.LVL452:
 3883              	.LFB43:
1258:user/drivers/u8g2/u8g2_font.c ****   u8g2->font_calc_vref = u8g2_font_calc_vref_top;
 3884              		.loc 1 1258 1 is_stmt 1 view -0
 3885              		.cfi_startproc
 3886              		@ args = 0, pretend = 0, frame = 0
 3887              		@ frame_needed = 0, uses_anonymous_args = 0
 3888              		@ link register save eliminated.
ARM GAS  /var/folders/21/t9g5rlb91ys800n5npymflf80000gn/T//ccT2Ngli.s 			page 111


1259:user/drivers/u8g2/u8g2_font.c **** }
 3889              		.loc 1 1259 3 view .LVU1179
1259:user/drivers/u8g2/u8g2_font.c **** }
 3890              		.loc 1 1259 24 is_stmt 0 view .LVU1180
 3891 0000 014B     		ldr	r3, .L211
 3892 0002 C365     		str	r3, [r0, #92]
1260:user/drivers/u8g2/u8g2_font.c **** 
 3893              		.loc 1 1260 1 view .LVU1181
 3894 0004 7047     		bx	lr
 3895              	.L212:
 3896 0006 00BF     		.align	2
 3897              	.L211:
 3898 0008 00000000 		.word	u8g2_font_calc_vref_top
 3899              		.cfi_endproc
 3900              	.LFE43:
 3902              		.section	.text.u8g2_SetFontPosCenter,"ax",%progbits
 3903              		.align	1
 3904              		.global	u8g2_SetFontPosCenter
 3905              		.syntax unified
 3906              		.thumb
 3907              		.thumb_func
 3909              	u8g2_SetFontPosCenter:
 3910              	.LVL453:
 3911              	.LFB45:
1273:user/drivers/u8g2/u8g2_font.c ****   u8g2->font_calc_vref = u8g2_font_calc_vref_center;
 3912              		.loc 1 1273 1 is_stmt 1 view -0
 3913              		.cfi_startproc
 3914              		@ args = 0, pretend = 0, frame = 0
 3915              		@ frame_needed = 0, uses_anonymous_args = 0
 3916              		@ link register save eliminated.
1274:user/drivers/u8g2/u8g2_font.c **** }
 3917              		.loc 1 1274 3 view .LVU1183
1274:user/drivers/u8g2/u8g2_font.c **** }
 3918              		.loc 1 1274 24 is_stmt 0 view .LVU1184
 3919 0000 014B     		ldr	r3, .L214
 3920 0002 C365     		str	r3, [r0, #92]
1275:user/drivers/u8g2/u8g2_font.c **** 
 3921              		.loc 1 1275 1 view .LVU1185
 3922 0004 7047     		bx	lr
 3923              	.L215:
 3924 0006 00BF     		.align	2
 3925              	.L214:
 3926 0008 00000000 		.word	u8g2_font_calc_vref_center
 3927              		.cfi_endproc
 3928              	.LFE45:
 3930              		.section	.text.u8g2_SetFont,"ax",%progbits
 3931              		.align	1
 3932              		.global	u8g2_SetFont
 3933              		.syntax unified
 3934              		.thumb
 3935              		.thumb_func
 3937              	u8g2_SetFont:
 3938              	.LVL454:
 3939              	.LFB46:
1280:user/drivers/u8g2/u8g2_font.c ****   if ( u8g2->font != font )
 3940              		.loc 1 1280 1 is_stmt 1 view -0
 3941              		.cfi_startproc
ARM GAS  /var/folders/21/t9g5rlb91ys800n5npymflf80000gn/T//ccT2Ngli.s 			page 112


 3942              		@ args = 0, pretend = 0, frame = 0
 3943              		@ frame_needed = 0, uses_anonymous_args = 0
1281:user/drivers/u8g2/u8g2_font.c ****   {
 3944              		.loc 1 1281 3 view .LVU1187
1281:user/drivers/u8g2/u8g2_font.c ****   {
 3945              		.loc 1 1281 12 is_stmt 0 view .LVU1188
 3946 0000 836D     		ldr	r3, [r0, #88]
1281:user/drivers/u8g2/u8g2_font.c ****   {
 3947              		.loc 1 1281 6 view .LVU1189
 3948 0002 8B42     		cmp	r3, r1
 3949 0004 09D0     		beq	.L219
1280:user/drivers/u8g2/u8g2_font.c ****   if ( u8g2->font != font )
 3950              		.loc 1 1280 1 view .LVU1190
 3951 0006 10B5     		push	{r4, lr}
 3952              	.LCFI46:
 3953              		.cfi_def_cfa_offset 8
 3954              		.cfi_offset 4, -8
 3955              		.cfi_offset 14, -4
 3956 0008 0446     		mov	r4, r0
1287:user/drivers/u8g2/u8g2_font.c ****     u8g2_read_font_info(&(u8g2->font_info), font);
 3957              		.loc 1 1287 5 is_stmt 1 view .LVU1191
1287:user/drivers/u8g2/u8g2_font.c ****     u8g2_read_font_info(&(u8g2->font_info), font);
 3958              		.loc 1 1287 16 is_stmt 0 view .LVU1192
 3959 000a 8165     		str	r1, [r0, #88]
1288:user/drivers/u8g2/u8g2_font.c ****     u8g2_UpdateRefHeight(u8g2);
 3960              		.loc 1 1288 5 is_stmt 1 view .LVU1193
 3961 000c 7430     		adds	r0, r0, #116
 3962              	.LVL455:
1288:user/drivers/u8g2/u8g2_font.c ****     u8g2_UpdateRefHeight(u8g2);
 3963              		.loc 1 1288 5 is_stmt 0 view .LVU1194
 3964 000e FFF7FEFF 		bl	u8g2_read_font_info
 3965              	.LVL456:
1289:user/drivers/u8g2/u8g2_font.c ****     /* u8g2_SetFontPosBaseline(u8g2); */ /* removed with issue 195 */
 3966              		.loc 1 1289 5 is_stmt 1 view .LVU1195
 3967 0012 2046     		mov	r0, r4
 3968 0014 FFF7FEFF 		bl	u8g2_UpdateRefHeight
 3969              	.LVL457:
1292:user/drivers/u8g2/u8g2_font.c **** 
 3970              		.loc 1 1292 1 is_stmt 0 view .LVU1196
 3971 0018 10BD     		pop	{r4, pc}
 3972              	.LVL458:
 3973              	.L219:
 3974              	.LCFI47:
 3975              		.cfi_def_cfa_offset 0
 3976              		.cfi_restore 4
 3977              		.cfi_restore 14
1292:user/drivers/u8g2/u8g2_font.c **** 
 3978              		.loc 1 1292 1 view .LVU1197
 3979 001a 7047     		bx	lr
 3980              		.cfi_endproc
 3981              	.LFE46:
 3983              		.section	.text.u8g2_IsAllValidUTF8,"ax",%progbits
 3984              		.align	1
 3985              		.global	u8g2_IsAllValidUTF8
 3986              		.syntax unified
 3987              		.thumb
 3988              		.thumb_func
ARM GAS  /var/folders/21/t9g5rlb91ys800n5npymflf80000gn/T//ccT2Ngli.s 			page 113


 3990              	u8g2_IsAllValidUTF8:
 3991              	.LVL459:
 3992              	.LFB48:
1317:user/drivers/u8g2/u8g2_font.c ****   u8g2->u8x8.next_cb = u8x8_utf8_next;
 3993              		.loc 1 1317 1 is_stmt 1 view -0
 3994              		.cfi_startproc
 3995              		@ args = 0, pretend = 0, frame = 0
 3996              		@ frame_needed = 0, uses_anonymous_args = 0
1317:user/drivers/u8g2/u8g2_font.c ****   u8g2->u8x8.next_cb = u8x8_utf8_next;
 3997              		.loc 1 1317 1 is_stmt 0 view .LVU1199
 3998 0000 08B5     		push	{r3, lr}
 3999              	.LCFI48:
 4000              		.cfi_def_cfa_offset 8
 4001              		.cfi_offset 3, -8
 4002              		.cfi_offset 14, -4
1318:user/drivers/u8g2/u8g2_font.c ****   return u8g2_is_all_valid(u8g2, str);
 4003              		.loc 1 1318 3 is_stmt 1 view .LVU1200
1318:user/drivers/u8g2/u8g2_font.c ****   return u8g2_is_all_valid(u8g2, str);
 4004              		.loc 1 1318 22 is_stmt 0 view .LVU1201
 4005 0002 024B     		ldr	r3, .L224
 4006 0004 4360     		str	r3, [r0, #4]
1319:user/drivers/u8g2/u8g2_font.c **** }
 4007              		.loc 1 1319 3 is_stmt 1 view .LVU1202
1319:user/drivers/u8g2/u8g2_font.c **** }
 4008              		.loc 1 1319 10 is_stmt 0 view .LVU1203
 4009 0006 FFF7FEFF 		bl	u8g2_is_all_valid
 4010              	.LVL460:
1320:user/drivers/u8g2/u8g2_font.c **** 
 4011              		.loc 1 1320 1 view .LVU1204
 4012 000a 08BD     		pop	{r3, pc}
 4013              	.L225:
 4014              		.align	2
 4015              	.L224:
 4016 000c 00000000 		.word	u8x8_utf8_next
 4017              		.cfi_endproc
 4018              	.LFE48:
 4020              		.section	.text.u8g2_GetStrX,"ax",%progbits
 4021              		.align	1
 4022              		.global	u8g2_GetStrX
 4023              		.syntax unified
 4024              		.thumb
 4025              		.thumb_func
 4027              	u8g2_GetStrX:
 4028              	.LVL461:
 4029              	.LFB51:
1392:user/drivers/u8g2/u8g2_font.c **** 
1393:user/drivers/u8g2/u8g2_font.c **** /* u8g compatible GetStrX function */
1394:user/drivers/u8g2/u8g2_font.c **** int8_t u8g2_GetStrX(u8g2_t *u8g2, const char *s)
1395:user/drivers/u8g2/u8g2_font.c **** {
 4030              		.loc 1 1395 1 is_stmt 1 view -0
 4031              		.cfi_startproc
 4032              		@ args = 0, pretend = 0, frame = 8
 4033              		@ frame_needed = 0, uses_anonymous_args = 0
 4034              		.loc 1 1395 1 is_stmt 0 view .LVU1206
 4035 0000 00B5     		push	{lr}
 4036              	.LCFI49:
 4037              		.cfi_def_cfa_offset 4
ARM GAS  /var/folders/21/t9g5rlb91ys800n5npymflf80000gn/T//ccT2Ngli.s 			page 114


 4038              		.cfi_offset 14, -4
 4039 0002 85B0     		sub	sp, sp, #20
 4040              	.LCFI50:
 4041              		.cfi_def_cfa_offset 24
1396:user/drivers/u8g2/u8g2_font.c ****   uint8_t w;
 4042              		.loc 1 1396 3 is_stmt 1 view .LVU1207
1397:user/drivers/u8g2/u8g2_font.c ****   int8_t dx;
 4043              		.loc 1 1397 3 view .LVU1208
1398:user/drivers/u8g2/u8g2_font.c ****   int8_t ox = 0;
 4044              		.loc 1 1398 3 view .LVU1209
 4045              		.loc 1 1398 10 is_stmt 0 view .LVU1210
 4046 0004 0023     		movs	r3, #0
 4047 0006 8DF80D30 		strb	r3, [sp, #13]
1399:user/drivers/u8g2/u8g2_font.c ****   u8g2_GetGlyphHorizontalProperties(u8g2, *s, &w, &ox, &dx);
 4048              		.loc 1 1399 3 is_stmt 1 view .LVU1211
 4049              		.loc 1 1399 43 is_stmt 0 view .LVU1212
 4050 000a 0978     		ldrb	r1, [r1]	@ zero_extendqisi2
 4051              	.LVL462:
 4052              		.loc 1 1399 3 view .LVU1213
 4053 000c 0DF10E03 		add	r3, sp, #14
 4054 0010 0093     		str	r3, [sp]
 4055 0012 0DF10D03 		add	r3, sp, #13
 4056 0016 0DF10F02 		add	r2, sp, #15
 4057 001a FFF7FEFF 		bl	u8g2_GetGlyphHorizontalProperties
 4058              	.LVL463:
1400:user/drivers/u8g2/u8g2_font.c ****   return ox;
 4059              		.loc 1 1400 3 is_stmt 1 view .LVU1214
1401:user/drivers/u8g2/u8g2_font.c **** }
 4060              		.loc 1 1401 1 is_stmt 0 view .LVU1215
 4061 001e 9DF90D00 		ldrsb	r0, [sp, #13]
 4062 0022 05B0     		add	sp, sp, #20
 4063              	.LCFI51:
 4064              		.cfi_def_cfa_offset 4
 4065              		@ sp needed
 4066 0024 5DF804FB 		ldr	pc, [sp], #4
 4067              		.cfi_endproc
 4068              	.LFE51:
 4070              		.section	.text.u8g2_GetStrWidth,"ax",%progbits
 4071              		.align	1
 4072              		.global	u8g2_GetStrWidth
 4073              		.syntax unified
 4074              		.thumb
 4075              		.thumb_func
 4077              	u8g2_GetStrWidth:
 4078              	.LVL464:
 4079              	.LFB52:
1402:user/drivers/u8g2/u8g2_font.c **** 
1403:user/drivers/u8g2/u8g2_font.c **** 
1404:user/drivers/u8g2/u8g2_font.c **** /*
1405:user/drivers/u8g2/u8g2_font.c **** Warning: This function needs to be fixed. I think it was taken over from u8glib, but not fixed as o
1406:user/drivers/u8g2/u8g2_font.c **** The main difference for this procedure compared to the normal get width, should be, that the initia
1407:user/drivers/u8g2/u8g2_font.c **** offset is removed
1408:user/drivers/u8g2/u8g2_font.c **** 
1409:user/drivers/u8g2/u8g2_font.c **** Idea: for the user interface it probably would be better to add the xoffset of the first char to th
1410:user/drivers/u8g2/u8g2_font.c **** Maybe then the procedure should be called differently, maybe balanced width instead of exact width
1411:user/drivers/u8g2/u8g2_font.c **** 
1412:user/drivers/u8g2/u8g2_font.c **** u8g2_calculate_exact_string_width is now OBSOLETE, instead the above str width calculation has been
ARM GAS  /var/folders/21/t9g5rlb91ys800n5npymflf80000gn/T//ccT2Ngli.s 			page 115


1413:user/drivers/u8g2/u8g2_font.c **** https://github.com/olikraus/u8g2/issues/1561
1414:user/drivers/u8g2/u8g2_font.c **** */
1415:user/drivers/u8g2/u8g2_font.c **** #ifdef OBSOLETE
1416:user/drivers/u8g2/u8g2_font.c **** static u8g2_uint_t u8g2_calculate_exact_string_width(u8g2_t *u8g2, const char *str)
1417:user/drivers/u8g2/u8g2_font.c **** {
1418:user/drivers/u8g2/u8g2_font.c ****   const char *s = str;
1419:user/drivers/u8g2/u8g2_font.c ****   uint16_t enc;
1420:user/drivers/u8g2/u8g2_font.c ****   u8g2_uint_t  w;
1421:user/drivers/u8g2/u8g2_font.c ****   uint8_t cnt;
1422:user/drivers/u8g2/u8g2_font.c ****   uint8_t gw; 
1423:user/drivers/u8g2/u8g2_font.c ****   int8_t ox, dx;
1424:user/drivers/u8g2/u8g2_font.c ****   
1425:user/drivers/u8g2/u8g2_font.c ****   /* reset the total minimal width to zero, this will be expanded during calculation */
1426:user/drivers/u8g2/u8g2_font.c ****   w = 0;
1427:user/drivers/u8g2/u8g2_font.c ****     
1428:user/drivers/u8g2/u8g2_font.c ****   
1429:user/drivers/u8g2/u8g2_font.c ****   /* check for empty string, width is already 0 */
1430:user/drivers/u8g2/u8g2_font.c ****   cnt = 0;
1431:user/drivers/u8g2/u8g2_font.c ****   
1432:user/drivers/u8g2/u8g2_font.c ****   for(;;)
1433:user/drivers/u8g2/u8g2_font.c ****   {
1434:user/drivers/u8g2/u8g2_font.c ****     enc = u8g2->u8x8.next_cb(u8g2_GetU8x8(u8g2), (uint8_t)*s);
1435:user/drivers/u8g2/u8g2_font.c ****     if ( enc == 0x0ffff )
1436:user/drivers/u8g2/u8g2_font.c ****       break;    
1437:user/drivers/u8g2/u8g2_font.c ****     s++;
1438:user/drivers/u8g2/u8g2_font.c ****     if ( enc != 0x0fffe )
1439:user/drivers/u8g2/u8g2_font.c ****     {
1440:user/drivers/u8g2/u8g2_font.c ****       if ( cnt == 0 )
1441:user/drivers/u8g2/u8g2_font.c ****       {
1442:user/drivers/u8g2/u8g2_font.c ****         /* get glyph properties of the first char */
1443:user/drivers/u8g2/u8g2_font.c ****         u8g2_GetGlyphHorizontalProperties(u8g2, enc, &gw, &ox, &dx);  
1444:user/drivers/u8g2/u8g2_font.c ****       }        
1445:user/drivers/u8g2/u8g2_font.c ****       cnt++;
1446:user/drivers/u8g2/u8g2_font.c ****       if ( cnt > 2 )
1447:user/drivers/u8g2/u8g2_font.c ****         break;
1448:user/drivers/u8g2/u8g2_font.c ****     }
1449:user/drivers/u8g2/u8g2_font.c ****   }
1450:user/drivers/u8g2/u8g2_font.c ****   
1451:user/drivers/u8g2/u8g2_font.c ****   if ( cnt == 0 )
1452:user/drivers/u8g2/u8g2_font.c ****     return 0;
1453:user/drivers/u8g2/u8g2_font.c ****    
1454:user/drivers/u8g2/u8g2_font.c ****   if ( cnt == 1 )
1455:user/drivers/u8g2/u8g2_font.c ****      return gw;
1456:user/drivers/u8g2/u8g2_font.c **** 
1457:user/drivers/u8g2/u8g2_font.c ****   /* strlen(s) == 1:       width = width(s[0]) */
1458:user/drivers/u8g2/u8g2_font.c ****   /* strlen(s) == 2:       width = - offx(s[0]) + deltax(s[0]) + offx(s[1]) + width(s[1]) */
1459:user/drivers/u8g2/u8g2_font.c ****   /* strlen(s) == 3:       width = - offx(s[0]) + deltax(s[0]) + deltax(s[1]) + offx(s[2]) + width(
1460:user/drivers/u8g2/u8g2_font.c ****   
1461:user/drivers/u8g2/u8g2_font.c ****   /* assume that the string has size 2 or more, than start with negative offset-x */
1462:user/drivers/u8g2/u8g2_font.c ****   /* for string with size 1, this will be nullified after the loop */
1463:user/drivers/u8g2/u8g2_font.c ****   w = -ox;  
1464:user/drivers/u8g2/u8g2_font.c ****   for(;;)
1465:user/drivers/u8g2/u8g2_font.c ****   {
1466:user/drivers/u8g2/u8g2_font.c ****     enc = u8g2->u8x8.next_cb(u8g2_GetU8x8(u8g2), (uint8_t)*str);
1467:user/drivers/u8g2/u8g2_font.c ****     if ( enc== 0x0ffff )
1468:user/drivers/u8g2/u8g2_font.c ****       break;
1469:user/drivers/u8g2/u8g2_font.c ****     str++;
ARM GAS  /var/folders/21/t9g5rlb91ys800n5npymflf80000gn/T//ccT2Ngli.s 			page 116


1470:user/drivers/u8g2/u8g2_font.c ****     if ( enc != 0x0fffe )
1471:user/drivers/u8g2/u8g2_font.c ****     {
1472:user/drivers/u8g2/u8g2_font.c ****       u8g2_GetGlyphHorizontalProperties(u8g2, enc, &gw, &ox, &dx);        
1473:user/drivers/u8g2/u8g2_font.c ****       /* if there are still more characters, add the delta to the next glyph */
1474:user/drivers/u8g2/u8g2_font.c ****       w += dx;    
1475:user/drivers/u8g2/u8g2_font.c ****     }
1476:user/drivers/u8g2/u8g2_font.c ****   }
1477:user/drivers/u8g2/u8g2_font.c ****   
1478:user/drivers/u8g2/u8g2_font.c ****   /* finally calculate the width of the last char */
1479:user/drivers/u8g2/u8g2_font.c ****   /* here is another exception, if the last char is a blank, use the dx value instead */
1480:user/drivers/u8g2/u8g2_font.c ****   if ( gw != 0 )
1481:user/drivers/u8g2/u8g2_font.c ****   {
1482:user/drivers/u8g2/u8g2_font.c ****     w -= dx;    /* remove the last dx */
1483:user/drivers/u8g2/u8g2_font.c ****     /* if g was not updated in the for loop (strlen() == 1), then the initial offset x gets removed
1484:user/drivers/u8g2/u8g2_font.c ****     w += gw;
1485:user/drivers/u8g2/u8g2_font.c ****     w += ox;
1486:user/drivers/u8g2/u8g2_font.c ****   }
1487:user/drivers/u8g2/u8g2_font.c ****   else
1488:user/drivers/u8g2/u8g2_font.c ****   {
1489:user/drivers/u8g2/u8g2_font.c ****     //w += dx;
1490:user/drivers/u8g2/u8g2_font.c ****   }
1491:user/drivers/u8g2/u8g2_font.c ****   
1492:user/drivers/u8g2/u8g2_font.c ****   
1493:user/drivers/u8g2/u8g2_font.c ****   return w;
1494:user/drivers/u8g2/u8g2_font.c **** 	
1495:user/drivers/u8g2/u8g2_font.c **** }
1496:user/drivers/u8g2/u8g2_font.c **** #endif
1497:user/drivers/u8g2/u8g2_font.c **** 
1498:user/drivers/u8g2/u8g2_font.c **** 
1499:user/drivers/u8g2/u8g2_font.c **** 
1500:user/drivers/u8g2/u8g2_font.c **** 
1501:user/drivers/u8g2/u8g2_font.c **** 
1502:user/drivers/u8g2/u8g2_font.c **** u8g2_uint_t u8g2_GetStrWidth(u8g2_t *u8g2, const char *s)
1503:user/drivers/u8g2/u8g2_font.c **** {
 4080              		.loc 1 1503 1 is_stmt 1 view -0
 4081              		.cfi_startproc
 4082              		@ args = 0, pretend = 0, frame = 0
 4083              		@ frame_needed = 0, uses_anonymous_args = 0
 4084              		.loc 1 1503 1 is_stmt 0 view .LVU1217
 4085 0000 08B5     		push	{r3, lr}
 4086              	.LCFI52:
 4087              		.cfi_def_cfa_offset 8
 4088              		.cfi_offset 3, -8
 4089              		.cfi_offset 14, -4
1504:user/drivers/u8g2/u8g2_font.c ****   u8g2->u8x8.next_cb = u8x8_ascii_next;
 4090              		.loc 1 1504 3 is_stmt 1 view .LVU1218
 4091              		.loc 1 1504 22 is_stmt 0 view .LVU1219
 4092 0002 024B     		ldr	r3, .L230
 4093 0004 4360     		str	r3, [r0, #4]
1505:user/drivers/u8g2/u8g2_font.c ****   return u8g2_string_width(u8g2, s);
 4094              		.loc 1 1505 3 is_stmt 1 view .LVU1220
 4095              		.loc 1 1505 10 is_stmt 0 view .LVU1221
 4096 0006 FFF7FEFF 		bl	u8g2_string_width
 4097              	.LVL465:
1506:user/drivers/u8g2/u8g2_font.c **** }
 4098              		.loc 1 1506 1 view .LVU1222
 4099 000a 08BD     		pop	{r3, pc}
ARM GAS  /var/folders/21/t9g5rlb91ys800n5npymflf80000gn/T//ccT2Ngli.s 			page 117


 4100              	.L231:
 4101              		.align	2
 4102              	.L230:
 4103 000c 00000000 		.word	u8x8_ascii_next
 4104              		.cfi_endproc
 4105              	.LFE52:
 4107              		.section	.text.u8g2_GetUTF8Width,"ax",%progbits
 4108              		.align	1
 4109              		.global	u8g2_GetUTF8Width
 4110              		.syntax unified
 4111              		.thumb
 4112              		.thumb_func
 4114              	u8g2_GetUTF8Width:
 4115              	.LVL466:
 4116              	.LFB53:
1507:user/drivers/u8g2/u8g2_font.c **** 
1508:user/drivers/u8g2/u8g2_font.c **** /* OBSOLETE
1509:user/drivers/u8g2/u8g2_font.c **** u8g2_uint_t u8g2_GetExactStrWidth(u8g2_t *u8g2, const char *s)
1510:user/drivers/u8g2/u8g2_font.c **** {
1511:user/drivers/u8g2/u8g2_font.c ****   u8g2->u8x8.next_cb = u8x8_ascii_next;
1512:user/drivers/u8g2/u8g2_font.c ****   return u8g2_calculate_exact_string_width(u8g2, s);
1513:user/drivers/u8g2/u8g2_font.c **** }
1514:user/drivers/u8g2/u8g2_font.c **** */
1515:user/drivers/u8g2/u8g2_font.c **** 
1516:user/drivers/u8g2/u8g2_font.c **** /*
1517:user/drivers/u8g2/u8g2_font.c **** source: https://en.wikipedia.org/wiki/UTF-8
1518:user/drivers/u8g2/u8g2_font.c **** Bits	from 		to			bytes	Byte 1 		Byte 2 		Byte 3 		Byte 4 		Byte 5 		Byte 6
1519:user/drivers/u8g2/u8g2_font.c ****   7 	U+0000 		U+007F 		1 		0xxxxxxx
1520:user/drivers/u8g2/u8g2_font.c **** 11 	U+0080 		U+07FF 		2 		110xxxxx 	10xxxxxx
1521:user/drivers/u8g2/u8g2_font.c **** 16 	U+0800 		U+FFFF 		3 		1110xxxx 	10xxxxxx 	10xxxxxx
1522:user/drivers/u8g2/u8g2_font.c **** 21 	U+10000 	U+1FFFFF 	4 		11110xxx 	10xxxxxx 	10xxxxxx 	10xxxxxx
1523:user/drivers/u8g2/u8g2_font.c **** 26 	U+200000 	U+3FFFFFF 	5 		111110xx 	10xxxxxx 	10xxxxxx 	10xxxxxx 	10xxxxxx
1524:user/drivers/u8g2/u8g2_font.c **** 31 	U+4000000 	U+7FFFFFFF 	6 		1111110x 	10xxxxxx 	10xxxxxx 	10xxxxxx 	10xxxxxx 	10xxxxxx  
1525:user/drivers/u8g2/u8g2_font.c **** */
1526:user/drivers/u8g2/u8g2_font.c **** u8g2_uint_t u8g2_GetUTF8Width(u8g2_t *u8g2, const char *str)
1527:user/drivers/u8g2/u8g2_font.c **** {
 4117              		.loc 1 1527 1 is_stmt 1 view -0
 4118              		.cfi_startproc
 4119              		@ args = 0, pretend = 0, frame = 0
 4120              		@ frame_needed = 0, uses_anonymous_args = 0
 4121              		.loc 1 1527 1 is_stmt 0 view .LVU1224
 4122 0000 08B5     		push	{r3, lr}
 4123              	.LCFI53:
 4124              		.cfi_def_cfa_offset 8
 4125              		.cfi_offset 3, -8
 4126              		.cfi_offset 14, -4
1528:user/drivers/u8g2/u8g2_font.c ****   u8g2->u8x8.next_cb = u8x8_utf8_next;
 4127              		.loc 1 1528 3 is_stmt 1 view .LVU1225
 4128              		.loc 1 1528 22 is_stmt 0 view .LVU1226
 4129 0002 024B     		ldr	r3, .L234
 4130 0004 4360     		str	r3, [r0, #4]
1529:user/drivers/u8g2/u8g2_font.c ****   return u8g2_string_width(u8g2, str);
 4131              		.loc 1 1529 3 is_stmt 1 view .LVU1227
 4132              		.loc 1 1529 10 is_stmt 0 view .LVU1228
 4133 0006 FFF7FEFF 		bl	u8g2_string_width
 4134              	.LVL467:
1530:user/drivers/u8g2/u8g2_font.c **** }
ARM GAS  /var/folders/21/t9g5rlb91ys800n5npymflf80000gn/T//ccT2Ngli.s 			page 118


 4135              		.loc 1 1530 1 view .LVU1229
 4136 000a 08BD     		pop	{r3, pc}
 4137              	.L235:
 4138              		.align	2
 4139              	.L234:
 4140 000c 00000000 		.word	u8x8_utf8_next
 4141              		.cfi_endproc
 4142              	.LFE53:
 4144              		.section	.text.u8g2_SetFontDirection,"ax",%progbits
 4145              		.align	1
 4146              		.global	u8g2_SetFontDirection
 4147              		.syntax unified
 4148              		.thumb
 4149              		.thumb_func
 4151              	u8g2_SetFontDirection:
 4152              	.LVL468:
 4153              	.LFB54:
1531:user/drivers/u8g2/u8g2_font.c **** 
1532:user/drivers/u8g2/u8g2_font.c **** 
1533:user/drivers/u8g2/u8g2_font.c **** 
1534:user/drivers/u8g2/u8g2_font.c **** void u8g2_SetFontDirection(u8g2_t *u8g2, uint8_t dir)
1535:user/drivers/u8g2/u8g2_font.c **** {
 4154              		.loc 1 1535 1 is_stmt 1 view -0
 4155              		.cfi_startproc
 4156              		@ args = 0, pretend = 0, frame = 0
 4157              		@ frame_needed = 0, uses_anonymous_args = 0
 4158              		@ link register save eliminated.
1536:user/drivers/u8g2/u8g2_font.c **** #ifdef U8G2_WITH_FONT_ROTATION  
1537:user/drivers/u8g2/u8g2_font.c ****   u8g2->font_decode.dir = dir;
 4159              		.loc 1 1537 3 view .LVU1231
 4160              		.loc 1 1537 25 is_stmt 0 view .LVU1232
 4161 0000 80F87010 		strb	r1, [r0, #112]
1538:user/drivers/u8g2/u8g2_font.c **** #endif
1539:user/drivers/u8g2/u8g2_font.c **** }
 4162              		.loc 1 1539 1 view .LVU1233
 4163 0004 7047     		bx	lr
 4164              		.cfi_endproc
 4165              	.LFE54:
 4167              		.text
 4168              	.Letext0:
 4169              		.file 2 "/usr/local/include/sys/_types/_int8_t.h"
 4170              		.file 3 "/usr/local/include/_types/_uint8_t.h"
 4171              		.file 4 "/usr/local/include/_types/_uint16_t.h"
 4172              		.file 5 "/usr/local/include/_types/_uint32_t.h"
 4173              		.file 6 "/usr/local/include/arm/_types.h"
 4174              		.file 7 "/usr/local/include/sys/_types/_size_t.h"
 4175              		.file 8 "user/drivers/u8g2/u8x8.h"
 4176              		.file 9 "user/drivers/u8g2/u8g2.h"
ARM GAS  /var/folders/21/t9g5rlb91ys800n5npymflf80000gn/T//ccT2Ngli.s 			page 119


DEFINED SYMBOLS
                            *ABS*:00000000 u8g2_font.c
/var/folders/21/t9g5rlb91ys800n5npymflf80000gn/T//ccT2Ngli.s:21     .text.u8g2_font_get_byte:00000000 $t
/var/folders/21/t9g5rlb91ys800n5npymflf80000gn/T//ccT2Ngli.s:26     .text.u8g2_font_get_byte:00000000 u8g2_font_get_byte
/var/folders/21/t9g5rlb91ys800n5npymflf80000gn/T//ccT2Ngli.s:45     .text.u8g2_font_get_word:00000000 $t
/var/folders/21/t9g5rlb91ys800n5npymflf80000gn/T//ccT2Ngli.s:50     .text.u8g2_font_get_word:00000000 u8g2_font_get_word
/var/folders/21/t9g5rlb91ys800n5npymflf80000gn/T//ccT2Ngli.s:84     .text.u8g2_font_calc_vref_font:00000000 $t
/var/folders/21/t9g5rlb91ys800n5npymflf80000gn/T//ccT2Ngli.s:90     .text.u8g2_font_calc_vref_font:00000000 u8g2_font_calc_vref_font
/var/folders/21/t9g5rlb91ys800n5npymflf80000gn/T//ccT2Ngli.s:108    .text.u8g2_font_calc_vref_bottom:00000000 $t
/var/folders/21/t9g5rlb91ys800n5npymflf80000gn/T//ccT2Ngli.s:114    .text.u8g2_font_calc_vref_bottom:00000000 u8g2_font_calc_vref_bottom
/var/folders/21/t9g5rlb91ys800n5npymflf80000gn/T//ccT2Ngli.s:133    .text.u8g2_font_calc_vref_top:00000000 $t
/var/folders/21/t9g5rlb91ys800n5npymflf80000gn/T//ccT2Ngli.s:139    .text.u8g2_font_calc_vref_top:00000000 u8g2_font_calc_vref_top
/var/folders/21/t9g5rlb91ys800n5npymflf80000gn/T//ccT2Ngli.s:168    .text.u8g2_font_calc_vref_center:00000000 $t
/var/folders/21/t9g5rlb91ys800n5npymflf80000gn/T//ccT2Ngli.s:174    .text.u8g2_font_calc_vref_center:00000000 u8g2_font_calc_vref_center
/var/folders/21/t9g5rlb91ys800n5npymflf80000gn/T//ccT2Ngli.s:214    .text.u8g2_read_font_info:00000000 $t
/var/folders/21/t9g5rlb91ys800n5npymflf80000gn/T//ccT2Ngli.s:220    .text.u8g2_read_font_info:00000000 u8g2_read_font_info
/var/folders/21/t9g5rlb91ys800n5npymflf80000gn/T//ccT2Ngli.s:408    .text.u8g2_GetFontSize:00000000 $t
/var/folders/21/t9g5rlb91ys800n5npymflf80000gn/T//ccT2Ngli.s:414    .text.u8g2_GetFontSize:00000000 u8g2_GetFontSize
/var/folders/21/t9g5rlb91ys800n5npymflf80000gn/T//ccT2Ngli.s:507    .text.u8g2_GetFontBBXWidth:00000000 $t
/var/folders/21/t9g5rlb91ys800n5npymflf80000gn/T//ccT2Ngli.s:513    .text.u8g2_GetFontBBXWidth:00000000 u8g2_GetFontBBXWidth
/var/folders/21/t9g5rlb91ys800n5npymflf80000gn/T//ccT2Ngli.s:531    .text.u8g2_GetFontBBXHeight:00000000 $t
/var/folders/21/t9g5rlb91ys800n5npymflf80000gn/T//ccT2Ngli.s:537    .text.u8g2_GetFontBBXHeight:00000000 u8g2_GetFontBBXHeight
/var/folders/21/t9g5rlb91ys800n5npymflf80000gn/T//ccT2Ngli.s:555    .text.u8g2_GetFontBBXOffX:00000000 $t
/var/folders/21/t9g5rlb91ys800n5npymflf80000gn/T//ccT2Ngli.s:561    .text.u8g2_GetFontBBXOffX:00000000 u8g2_GetFontBBXOffX
/var/folders/21/t9g5rlb91ys800n5npymflf80000gn/T//ccT2Ngli.s:579    .text.u8g2_GetFontBBXOffY:00000000 $t
/var/folders/21/t9g5rlb91ys800n5npymflf80000gn/T//ccT2Ngli.s:585    .text.u8g2_GetFontBBXOffY:00000000 u8g2_GetFontBBXOffY
/var/folders/21/t9g5rlb91ys800n5npymflf80000gn/T//ccT2Ngli.s:603    .text.u8g2_GetFontCapitalAHeight:00000000 $t
/var/folders/21/t9g5rlb91ys800n5npymflf80000gn/T//ccT2Ngli.s:609    .text.u8g2_GetFontCapitalAHeight:00000000 u8g2_GetFontCapitalAHeight
/var/folders/21/t9g5rlb91ys800n5npymflf80000gn/T//ccT2Ngli.s:627    .text.u8g2_font_decode_get_unsigned_bits:00000000 $t
/var/folders/21/t9g5rlb91ys800n5npymflf80000gn/T//ccT2Ngli.s:633    .text.u8g2_font_decode_get_unsigned_bits:00000000 u8g2_font_decode_get_unsigned_bits
/var/folders/21/t9g5rlb91ys800n5npymflf80000gn/T//ccT2Ngli.s:728    .text.u8g2_font_setup_decode:00000000 $t
/var/folders/21/t9g5rlb91ys800n5npymflf80000gn/T//ccT2Ngli.s:733    .text.u8g2_font_setup_decode:00000000 u8g2_font_setup_decode
/var/folders/21/t9g5rlb91ys800n5npymflf80000gn/T//ccT2Ngli.s:798    .text.u8g2_font_decode_get_signed_bits:00000000 $t
/var/folders/21/t9g5rlb91ys800n5npymflf80000gn/T//ccT2Ngli.s:804    .text.u8g2_font_decode_get_signed_bits:00000000 u8g2_font_decode_get_signed_bits
/var/folders/21/t9g5rlb91ys800n5npymflf80000gn/T//ccT2Ngli.s:848    .text.u8g2_add_vector_y:00000000 $t
/var/folders/21/t9g5rlb91ys800n5npymflf80000gn/T//ccT2Ngli.s:854    .text.u8g2_add_vector_y:00000000 u8g2_add_vector_y
/var/folders/21/t9g5rlb91ys800n5npymflf80000gn/T//ccT2Ngli.s:913    .text.u8g2_add_vector_x:00000000 $t
/var/folders/21/t9g5rlb91ys800n5npymflf80000gn/T//ccT2Ngli.s:919    .text.u8g2_add_vector_x:00000000 u8g2_add_vector_x
/var/folders/21/t9g5rlb91ys800n5npymflf80000gn/T//ccT2Ngli.s:978    .text.u8g2_font_decode_len:00000000 $t
/var/folders/21/t9g5rlb91ys800n5npymflf80000gn/T//ccT2Ngli.s:984    .text.u8g2_font_decode_len:00000000 u8g2_font_decode_len
/var/folders/21/t9g5rlb91ys800n5npymflf80000gn/T//ccT2Ngli.s:1174   .text.u8g2_font_2x_decode_len:00000000 $t
/var/folders/21/t9g5rlb91ys800n5npymflf80000gn/T//ccT2Ngli.s:1180   .text.u8g2_font_2x_decode_len:00000000 u8g2_font_2x_decode_len
/var/folders/21/t9g5rlb91ys800n5npymflf80000gn/T//ccT2Ngli.s:1388   .text.u8g2_font_decode_glyph:00000000 $t
/var/folders/21/t9g5rlb91ys800n5npymflf80000gn/T//ccT2Ngli.s:1394   .text.u8g2_font_decode_glyph:00000000 u8g2_font_decode_glyph
/var/folders/21/t9g5rlb91ys800n5npymflf80000gn/T//ccT2Ngli.s:1505   .text.u8g2_font_decode_glyph:00000080 $d
/var/folders/21/t9g5rlb91ys800n5npymflf80000gn/T//ccT2Ngli.s:1509   .text.u8g2_font_decode_glyph:00000084 $t
/var/folders/21/t9g5rlb91ys800n5npymflf80000gn/T//ccT2Ngli.s:1719   .text.u8g2_font_2x_decode_glyph:00000000 $t
/var/folders/21/t9g5rlb91ys800n5npymflf80000gn/T//ccT2Ngli.s:1725   .text.u8g2_font_2x_decode_glyph:00000000 u8g2_font_2x_decode_glyph
/var/folders/21/t9g5rlb91ys800n5npymflf80000gn/T//ccT2Ngli.s:1940   .text.u8g2_font_get_glyph_data:00000000 $t
/var/folders/21/t9g5rlb91ys800n5npymflf80000gn/T//ccT2Ngli.s:1946   .text.u8g2_font_get_glyph_data:00000000 u8g2_font_get_glyph_data
/var/folders/21/t9g5rlb91ys800n5npymflf80000gn/T//ccT2Ngli.s:2118   .text.u8g2_font_draw_glyph:00000000 $t
/var/folders/21/t9g5rlb91ys800n5npymflf80000gn/T//ccT2Ngli.s:2123   .text.u8g2_font_draw_glyph:00000000 u8g2_font_draw_glyph
/var/folders/21/t9g5rlb91ys800n5npymflf80000gn/T//ccT2Ngli.s:2181   .text.u8g2_font_2x_draw_glyph:00000000 $t
/var/folders/21/t9g5rlb91ys800n5npymflf80000gn/T//ccT2Ngli.s:2186   .text.u8g2_font_2x_draw_glyph:00000000 u8g2_font_2x_draw_glyph
/var/folders/21/t9g5rlb91ys800n5npymflf80000gn/T//ccT2Ngli.s:2244   .text.u8g2_is_all_valid:00000000 $t
/var/folders/21/t9g5rlb91ys800n5npymflf80000gn/T//ccT2Ngli.s:2249   .text.u8g2_is_all_valid:00000000 u8g2_is_all_valid
/var/folders/21/t9g5rlb91ys800n5npymflf80000gn/T//ccT2Ngli.s:2319   .text.u8g2_GetGlyphHorizontalProperties:00000000 $t
ARM GAS  /var/folders/21/t9g5rlb91ys800n5npymflf80000gn/T//ccT2Ngli.s 			page 120


/var/folders/21/t9g5rlb91ys800n5npymflf80000gn/T//ccT2Ngli.s:2324   .text.u8g2_GetGlyphHorizontalProperties:00000000 u8g2_GetGlyphHorizontalProperties
/var/folders/21/t9g5rlb91ys800n5npymflf80000gn/T//ccT2Ngli.s:2394   .text.u8g2_IsGlyph:00000000 $t
/var/folders/21/t9g5rlb91ys800n5npymflf80000gn/T//ccT2Ngli.s:2400   .text.u8g2_IsGlyph:00000000 u8g2_IsGlyph
/var/folders/21/t9g5rlb91ys800n5npymflf80000gn/T//ccT2Ngli.s:2428   .text.u8g2_GetGlyphWidth:00000000 $t
/var/folders/21/t9g5rlb91ys800n5npymflf80000gn/T//ccT2Ngli.s:2434   .text.u8g2_GetGlyphWidth:00000000 u8g2_GetGlyphWidth
/var/folders/21/t9g5rlb91ys800n5npymflf80000gn/T//ccT2Ngli.s:2498   .text.u8g2_string_width:00000000 $t
/var/folders/21/t9g5rlb91ys800n5npymflf80000gn/T//ccT2Ngli.s:2503   .text.u8g2_string_width:00000000 u8g2_string_width
/var/folders/21/t9g5rlb91ys800n5npymflf80000gn/T//ccT2Ngli.s:2644   .text.u8g2_SetFontMode:00000000 $t
/var/folders/21/t9g5rlb91ys800n5npymflf80000gn/T//ccT2Ngli.s:2650   .text.u8g2_SetFontMode:00000000 u8g2_SetFontMode
/var/folders/21/t9g5rlb91ys800n5npymflf80000gn/T//ccT2Ngli.s:2667   .text.u8g2_DrawGlyph:00000000 $t
/var/folders/21/t9g5rlb91ys800n5npymflf80000gn/T//ccT2Ngli.s:2673   .text.u8g2_DrawGlyph:00000000 u8g2_DrawGlyph
/var/folders/21/t9g5rlb91ys800n5npymflf80000gn/T//ccT2Ngli.s:2704   .text.u8g2_DrawGlyph:00000016 $d
/var/folders/21/t9g5rlb91ys800n5npymflf80000gn/T//ccT2Ngli.s:2708   .text.u8g2_DrawGlyph:0000001a $t
/var/folders/21/t9g5rlb91ys800n5npymflf80000gn/T//ccT2Ngli.s:2778   .text.u8g2_draw_string:00000000 $t
/var/folders/21/t9g5rlb91ys800n5npymflf80000gn/T//ccT2Ngli.s:2783   .text.u8g2_draw_string:00000000 u8g2_draw_string
/var/folders/21/t9g5rlb91ys800n5npymflf80000gn/T//ccT2Ngli.s:2875   .text.u8g2_draw_string:00000054 $d
/var/folders/21/t9g5rlb91ys800n5npymflf80000gn/T//ccT2Ngli.s:2879   .text.u8g2_draw_string:00000064 $t
/var/folders/21/t9g5rlb91ys800n5npymflf80000gn/T//ccT2Ngli.s:2923   .text.u8g2_DrawGlyphX2:00000000 $t
/var/folders/21/t9g5rlb91ys800n5npymflf80000gn/T//ccT2Ngli.s:2929   .text.u8g2_DrawGlyphX2:00000000 u8g2_DrawGlyphX2
/var/folders/21/t9g5rlb91ys800n5npymflf80000gn/T//ccT2Ngli.s:2976   .text.u8g2_draw_string_2x:00000000 $t
/var/folders/21/t9g5rlb91ys800n5npymflf80000gn/T//ccT2Ngli.s:2981   .text.u8g2_draw_string_2x:00000000 u8g2_draw_string_2x
/var/folders/21/t9g5rlb91ys800n5npymflf80000gn/T//ccT2Ngli.s:3074   .text.u8g2_DrawStr:00000000 $t
/var/folders/21/t9g5rlb91ys800n5npymflf80000gn/T//ccT2Ngli.s:3080   .text.u8g2_DrawStr:00000000 u8g2_DrawStr
/var/folders/21/t9g5rlb91ys800n5npymflf80000gn/T//ccT2Ngli.s:3106   .text.u8g2_DrawStr:0000000c $d
/var/folders/21/t9g5rlb91ys800n5npymflf80000gn/T//ccT2Ngli.s:3111   .text.u8g2_DrawStrX2:00000000 $t
/var/folders/21/t9g5rlb91ys800n5npymflf80000gn/T//ccT2Ngli.s:3117   .text.u8g2_DrawStrX2:00000000 u8g2_DrawStrX2
/var/folders/21/t9g5rlb91ys800n5npymflf80000gn/T//ccT2Ngli.s:3143   .text.u8g2_DrawStrX2:0000000c $d
/var/folders/21/t9g5rlb91ys800n5npymflf80000gn/T//ccT2Ngli.s:3148   .text.u8g2_DrawUTF8:00000000 $t
/var/folders/21/t9g5rlb91ys800n5npymflf80000gn/T//ccT2Ngli.s:3154   .text.u8g2_DrawUTF8:00000000 u8g2_DrawUTF8
/var/folders/21/t9g5rlb91ys800n5npymflf80000gn/T//ccT2Ngli.s:3180   .text.u8g2_DrawUTF8:0000000c $d
/var/folders/21/t9g5rlb91ys800n5npymflf80000gn/T//ccT2Ngli.s:3185   .text.u8g2_DrawUTF8X2:00000000 $t
/var/folders/21/t9g5rlb91ys800n5npymflf80000gn/T//ccT2Ngli.s:3191   .text.u8g2_DrawUTF8X2:00000000 u8g2_DrawUTF8X2
/var/folders/21/t9g5rlb91ys800n5npymflf80000gn/T//ccT2Ngli.s:3217   .text.u8g2_DrawUTF8X2:0000000c $d
/var/folders/21/t9g5rlb91ys800n5npymflf80000gn/T//ccT2Ngli.s:3222   .text.u8g2_DrawExtendedUTF8:00000000 $t
/var/folders/21/t9g5rlb91ys800n5npymflf80000gn/T//ccT2Ngli.s:3228   .text.u8g2_DrawExtendedUTF8:00000000 u8g2_DrawExtendedUTF8
/var/folders/21/t9g5rlb91ys800n5npymflf80000gn/T//ccT2Ngli.s:3423   .text.u8g2_DrawExtendedUTF8:000000b8 $d
/var/folders/21/t9g5rlb91ys800n5npymflf80000gn/T//ccT2Ngli.s:3428   .text.u8g2_DrawExtUTF8:00000000 $t
/var/folders/21/t9g5rlb91ys800n5npymflf80000gn/T//ccT2Ngli.s:3434   .text.u8g2_DrawExtUTF8:00000000 u8g2_DrawExtUTF8
/var/folders/21/t9g5rlb91ys800n5npymflf80000gn/T//ccT2Ngli.s:3617   .text.u8g2_DrawExtUTF8:000000b0 $d
/var/folders/21/t9g5rlb91ys800n5npymflf80000gn/T//ccT2Ngli.s:3622   .text.u8g2_UpdateRefHeight:00000000 $t
/var/folders/21/t9g5rlb91ys800n5npymflf80000gn/T//ccT2Ngli.s:3628   .text.u8g2_UpdateRefHeight:00000000 u8g2_UpdateRefHeight
/var/folders/21/t9g5rlb91ys800n5npymflf80000gn/T//ccT2Ngli.s:3723   .text.u8g2_SetFontRefHeightText:00000000 $t
/var/folders/21/t9g5rlb91ys800n5npymflf80000gn/T//ccT2Ngli.s:3729   .text.u8g2_SetFontRefHeightText:00000000 u8g2_SetFontRefHeightText
/var/folders/21/t9g5rlb91ys800n5npymflf80000gn/T//ccT2Ngli.s:3755   .text.u8g2_SetFontRefHeightExtendedText:00000000 $t
/var/folders/21/t9g5rlb91ys800n5npymflf80000gn/T//ccT2Ngli.s:3761   .text.u8g2_SetFontRefHeightExtendedText:00000000 u8g2_SetFontRefHeightExtendedText
/var/folders/21/t9g5rlb91ys800n5npymflf80000gn/T//ccT2Ngli.s:3787   .text.u8g2_SetFontRefHeightAll:00000000 $t
/var/folders/21/t9g5rlb91ys800n5npymflf80000gn/T//ccT2Ngli.s:3793   .text.u8g2_SetFontRefHeightAll:00000000 u8g2_SetFontRefHeightAll
/var/folders/21/t9g5rlb91ys800n5npymflf80000gn/T//ccT2Ngli.s:3819   .text.u8g2_SetFontPosBaseline:00000000 $t
/var/folders/21/t9g5rlb91ys800n5npymflf80000gn/T//ccT2Ngli.s:3825   .text.u8g2_SetFontPosBaseline:00000000 u8g2_SetFontPosBaseline
/var/folders/21/t9g5rlb91ys800n5npymflf80000gn/T//ccT2Ngli.s:3842   .text.u8g2_SetFontPosBaseline:00000008 $d
/var/folders/21/t9g5rlb91ys800n5npymflf80000gn/T//ccT2Ngli.s:3847   .text.u8g2_SetFontPosBottom:00000000 $t
/var/folders/21/t9g5rlb91ys800n5npymflf80000gn/T//ccT2Ngli.s:3853   .text.u8g2_SetFontPosBottom:00000000 u8g2_SetFontPosBottom
/var/folders/21/t9g5rlb91ys800n5npymflf80000gn/T//ccT2Ngli.s:3870   .text.u8g2_SetFontPosBottom:00000008 $d
/var/folders/21/t9g5rlb91ys800n5npymflf80000gn/T//ccT2Ngli.s:3875   .text.u8g2_SetFontPosTop:00000000 $t
/var/folders/21/t9g5rlb91ys800n5npymflf80000gn/T//ccT2Ngli.s:3881   .text.u8g2_SetFontPosTop:00000000 u8g2_SetFontPosTop
/var/folders/21/t9g5rlb91ys800n5npymflf80000gn/T//ccT2Ngli.s:3898   .text.u8g2_SetFontPosTop:00000008 $d
/var/folders/21/t9g5rlb91ys800n5npymflf80000gn/T//ccT2Ngli.s:3903   .text.u8g2_SetFontPosCenter:00000000 $t
ARM GAS  /var/folders/21/t9g5rlb91ys800n5npymflf80000gn/T//ccT2Ngli.s 			page 121


/var/folders/21/t9g5rlb91ys800n5npymflf80000gn/T//ccT2Ngli.s:3909   .text.u8g2_SetFontPosCenter:00000000 u8g2_SetFontPosCenter
/var/folders/21/t9g5rlb91ys800n5npymflf80000gn/T//ccT2Ngli.s:3926   .text.u8g2_SetFontPosCenter:00000008 $d
/var/folders/21/t9g5rlb91ys800n5npymflf80000gn/T//ccT2Ngli.s:3931   .text.u8g2_SetFont:00000000 $t
/var/folders/21/t9g5rlb91ys800n5npymflf80000gn/T//ccT2Ngli.s:3937   .text.u8g2_SetFont:00000000 u8g2_SetFont
/var/folders/21/t9g5rlb91ys800n5npymflf80000gn/T//ccT2Ngli.s:3984   .text.u8g2_IsAllValidUTF8:00000000 $t
/var/folders/21/t9g5rlb91ys800n5npymflf80000gn/T//ccT2Ngli.s:3990   .text.u8g2_IsAllValidUTF8:00000000 u8g2_IsAllValidUTF8
/var/folders/21/t9g5rlb91ys800n5npymflf80000gn/T//ccT2Ngli.s:4016   .text.u8g2_IsAllValidUTF8:0000000c $d
/var/folders/21/t9g5rlb91ys800n5npymflf80000gn/T//ccT2Ngli.s:4021   .text.u8g2_GetStrX:00000000 $t
/var/folders/21/t9g5rlb91ys800n5npymflf80000gn/T//ccT2Ngli.s:4027   .text.u8g2_GetStrX:00000000 u8g2_GetStrX
/var/folders/21/t9g5rlb91ys800n5npymflf80000gn/T//ccT2Ngli.s:4071   .text.u8g2_GetStrWidth:00000000 $t
/var/folders/21/t9g5rlb91ys800n5npymflf80000gn/T//ccT2Ngli.s:4077   .text.u8g2_GetStrWidth:00000000 u8g2_GetStrWidth
/var/folders/21/t9g5rlb91ys800n5npymflf80000gn/T//ccT2Ngli.s:4103   .text.u8g2_GetStrWidth:0000000c $d
/var/folders/21/t9g5rlb91ys800n5npymflf80000gn/T//ccT2Ngli.s:4108   .text.u8g2_GetUTF8Width:00000000 $t
/var/folders/21/t9g5rlb91ys800n5npymflf80000gn/T//ccT2Ngli.s:4114   .text.u8g2_GetUTF8Width:00000000 u8g2_GetUTF8Width
/var/folders/21/t9g5rlb91ys800n5npymflf80000gn/T//ccT2Ngli.s:4140   .text.u8g2_GetUTF8Width:0000000c $d
/var/folders/21/t9g5rlb91ys800n5npymflf80000gn/T//ccT2Ngli.s:4145   .text.u8g2_SetFontDirection:00000000 $t
/var/folders/21/t9g5rlb91ys800n5npymflf80000gn/T//ccT2Ngli.s:4151   .text.u8g2_SetFontDirection:00000000 u8g2_SetFontDirection

UNDEFINED SYMBOLS
u8g2_DrawHVLine
u8g2_IsIntersection
u8x8_utf8_init
u8x8_ascii_next
u8x8_utf8_next
u8g2_GetKerning
u8g2_GetKerningByTable
