ARM GAS  /var/folders/21/t9g5rlb91ys800n5npymflf80000gn/T//cclzeuEY.s 			page 1


   1              		.cpu cortex-m4
   2              		.arch armv7e-m
   3              		.fpu fpv4-sp-d16
   4              		.eabi_attribute 27, 1
   5              		.eabi_attribute 28, 1
   6              		.eabi_attribute 20, 1
   7              		.eabi_attribute 21, 1
   8              		.eabi_attribute 23, 3
   9              		.eabi_attribute 24, 1
  10              		.eabi_attribute 25, 1
  11              		.eabi_attribute 26, 1
  12              		.eabi_attribute 30, 1
  13              		.eabi_attribute 34, 1
  14              		.eabi_attribute 18, 4
  15              		.file	"u8x8_byte.c"
  16              		.text
  17              	.Ltext0:
  18              		.cfi_sections	.debug_frame
  19              		.file 1 "user/drivers/u8g2/u8x8_byte.c"
  20              		.section	.text.i2c_delay,"ax",%progbits
  21              		.align	1
  22              		.syntax unified
  23              		.thumb
  24              		.thumb_func
  26              	i2c_delay:
  27              	.LVL0:
  28              	.LFB13:
   1:user/drivers/u8g2/u8x8_byte.c **** /*
   2:user/drivers/u8g2/u8x8_byte.c **** 
   3:user/drivers/u8g2/u8x8_byte.c ****   u8x8_byte.c 
   4:user/drivers/u8g2/u8x8_byte.c ****   
   5:user/drivers/u8g2/u8x8_byte.c ****   Universal 8bit Graphics Library (https://github.com/olikraus/u8g2/)
   6:user/drivers/u8g2/u8x8_byte.c **** 
   7:user/drivers/u8g2/u8x8_byte.c ****   Copyright (c) 2016, olikraus@gmail.com
   8:user/drivers/u8g2/u8x8_byte.c ****   All rights reserved.
   9:user/drivers/u8g2/u8x8_byte.c **** 
  10:user/drivers/u8g2/u8x8_byte.c ****   Redistribution and use in source and binary forms, with or without modification, 
  11:user/drivers/u8g2/u8x8_byte.c ****   are permitted provided that the following conditions are met:
  12:user/drivers/u8g2/u8x8_byte.c **** 
  13:user/drivers/u8g2/u8x8_byte.c ****   * Redistributions of source code must retain the above copyright notice, this list 
  14:user/drivers/u8g2/u8x8_byte.c ****     of conditions and the following disclaimer.
  15:user/drivers/u8g2/u8x8_byte.c ****     
  16:user/drivers/u8g2/u8x8_byte.c ****   * Redistributions in binary form must reproduce the above copyright notice, this 
  17:user/drivers/u8g2/u8x8_byte.c ****     list of conditions and the following disclaimer in the documentation and/or other 
  18:user/drivers/u8g2/u8x8_byte.c ****     materials provided with the distribution.
  19:user/drivers/u8g2/u8x8_byte.c **** 
  20:user/drivers/u8g2/u8x8_byte.c ****   THIS SOFTWARE IS PROVIDED BY THE COPYRIGHT HOLDERS AND 
  21:user/drivers/u8g2/u8x8_byte.c ****   CONTRIBUTORS "AS IS" AND ANY EXPRESS OR IMPLIED WARRANTIES, 
  22:user/drivers/u8g2/u8x8_byte.c ****   INCLUDING, BUT NOT LIMITED TO, THE IMPLIED WARRANTIES OF 
  23:user/drivers/u8g2/u8x8_byte.c ****   MERCHANTABILITY AND FITNESS FOR A PARTICULAR PURPOSE ARE 
  24:user/drivers/u8g2/u8x8_byte.c ****   DISCLAIMED. IN NO EVENT SHALL THE COPYRIGHT HOLDER OR 
  25:user/drivers/u8g2/u8x8_byte.c ****   CONTRIBUTORS BE LIABLE FOR ANY DIRECT, INDIRECT, INCIDENTAL, 
  26:user/drivers/u8g2/u8x8_byte.c ****   SPECIAL, EXEMPLARY, OR CONSEQUENTIAL DAMAGES (INCLUDING, BUT 
  27:user/drivers/u8g2/u8x8_byte.c ****   NOT LIMITED TO, PROCUREMENT OF SUBSTITUTE GOODS OR SERVICES; 
  28:user/drivers/u8g2/u8x8_byte.c ****   LOSS OF USE, DATA, OR PROFITS; OR BUSINESS INTERRUPTION) HOWEVER 
  29:user/drivers/u8g2/u8x8_byte.c ****   CAUSED AND ON ANY THEORY OF LIABILITY, WHETHER IN CONTRACT, 
  30:user/drivers/u8g2/u8x8_byte.c ****   STRICT LIABILITY, OR TORT (INCLUDING NEGLIGENCE OR OTHERWISE) 
ARM GAS  /var/folders/21/t9g5rlb91ys800n5npymflf80000gn/T//cclzeuEY.s 			page 2


  31:user/drivers/u8g2/u8x8_byte.c ****   ARISING IN ANY WAY OUT OF THE USE OF THIS SOFTWARE, EVEN IF 
  32:user/drivers/u8g2/u8x8_byte.c ****   ADVISED OF THE POSSIBILITY OF SUCH DAMAGE.  
  33:user/drivers/u8g2/u8x8_byte.c ****   
  34:user/drivers/u8g2/u8x8_byte.c ****   
  35:user/drivers/u8g2/u8x8_byte.c **** */
  36:user/drivers/u8g2/u8x8_byte.c **** 
  37:user/drivers/u8g2/u8x8_byte.c **** #include "u8x8.h"
  38:user/drivers/u8g2/u8x8_byte.c **** 
  39:user/drivers/u8g2/u8x8_byte.c **** uint8_t u8x8_byte_SetDC(u8x8_t *u8x8, uint8_t dc)
  40:user/drivers/u8g2/u8x8_byte.c **** {
  41:user/drivers/u8g2/u8x8_byte.c ****   return u8x8->byte_cb(u8x8, U8X8_MSG_BYTE_SET_DC, dc, NULL);
  42:user/drivers/u8g2/u8x8_byte.c **** }
  43:user/drivers/u8g2/u8x8_byte.c **** 
  44:user/drivers/u8g2/u8x8_byte.c **** uint8_t u8x8_byte_SendBytes(u8x8_t *u8x8, uint8_t cnt, uint8_t *data)
  45:user/drivers/u8g2/u8x8_byte.c **** {
  46:user/drivers/u8g2/u8x8_byte.c ****   return u8x8->byte_cb(u8x8, U8X8_MSG_BYTE_SEND, cnt, (void *)data);
  47:user/drivers/u8g2/u8x8_byte.c **** }
  48:user/drivers/u8g2/u8x8_byte.c **** 
  49:user/drivers/u8g2/u8x8_byte.c **** uint8_t u8x8_byte_SendByte(u8x8_t *u8x8, uint8_t byte)
  50:user/drivers/u8g2/u8x8_byte.c **** {
  51:user/drivers/u8g2/u8x8_byte.c ****   return u8x8_byte_SendBytes(u8x8, 1, &byte);
  52:user/drivers/u8g2/u8x8_byte.c **** }
  53:user/drivers/u8g2/u8x8_byte.c **** 
  54:user/drivers/u8g2/u8x8_byte.c **** uint8_t u8x8_byte_StartTransfer(u8x8_t *u8x8)
  55:user/drivers/u8g2/u8x8_byte.c **** {
  56:user/drivers/u8g2/u8x8_byte.c ****   return u8x8->byte_cb(u8x8, U8X8_MSG_BYTE_START_TRANSFER, 0, NULL);
  57:user/drivers/u8g2/u8x8_byte.c **** }
  58:user/drivers/u8g2/u8x8_byte.c **** 
  59:user/drivers/u8g2/u8x8_byte.c **** uint8_t u8x8_byte_EndTransfer(u8x8_t *u8x8)
  60:user/drivers/u8g2/u8x8_byte.c **** {
  61:user/drivers/u8g2/u8x8_byte.c ****   return u8x8->byte_cb(u8x8, U8X8_MSG_BYTE_END_TRANSFER, 0, NULL);
  62:user/drivers/u8g2/u8x8_byte.c **** }
  63:user/drivers/u8g2/u8x8_byte.c **** 
  64:user/drivers/u8g2/u8x8_byte.c **** /*=========================================*/
  65:user/drivers/u8g2/u8x8_byte.c **** 
  66:user/drivers/u8g2/u8x8_byte.c **** uint8_t u8x8_byte_empty(U8X8_UNUSED u8x8_t *u8x8, uint8_t msg, U8X8_UNUSED uint8_t arg_int, U8X8_UN
  67:user/drivers/u8g2/u8x8_byte.c **** {
  68:user/drivers/u8g2/u8x8_byte.c ****   switch(msg)
  69:user/drivers/u8g2/u8x8_byte.c ****   {
  70:user/drivers/u8g2/u8x8_byte.c ****     case U8X8_MSG_BYTE_SEND:
  71:user/drivers/u8g2/u8x8_byte.c ****     case U8X8_MSG_BYTE_INIT:
  72:user/drivers/u8g2/u8x8_byte.c ****     case U8X8_MSG_BYTE_SET_DC:
  73:user/drivers/u8g2/u8x8_byte.c ****     case U8X8_MSG_BYTE_START_TRANSFER:
  74:user/drivers/u8g2/u8x8_byte.c ****     case U8X8_MSG_BYTE_END_TRANSFER:
  75:user/drivers/u8g2/u8x8_byte.c ****       break;	/* do nothing */
  76:user/drivers/u8g2/u8x8_byte.c ****   }
  77:user/drivers/u8g2/u8x8_byte.c ****   return 1;	/* always succeed */
  78:user/drivers/u8g2/u8x8_byte.c **** }
  79:user/drivers/u8g2/u8x8_byte.c **** 
  80:user/drivers/u8g2/u8x8_byte.c **** 
  81:user/drivers/u8g2/u8x8_byte.c **** /*=========================================*/
  82:user/drivers/u8g2/u8x8_byte.c **** 
  83:user/drivers/u8g2/u8x8_byte.c **** 
  84:user/drivers/u8g2/u8x8_byte.c **** /*
  85:user/drivers/u8g2/u8x8_byte.c ****   Uses:
  86:user/drivers/u8g2/u8x8_byte.c ****     u8x8->display_info->sda_setup_time_ns
  87:user/drivers/u8g2/u8x8_byte.c ****     u8x8->display_info->sck_pulse_width_ns
ARM GAS  /var/folders/21/t9g5rlb91ys800n5npymflf80000gn/T//cclzeuEY.s 			page 3


  88:user/drivers/u8g2/u8x8_byte.c ****     u8x8->display_info->spi_mode
  89:user/drivers/u8g2/u8x8_byte.c ****     u8x8->display_info->chip_disable_level
  90:user/drivers/u8g2/u8x8_byte.c ****     u8x8->display_info->chip_enable_level
  91:user/drivers/u8g2/u8x8_byte.c ****     u8x8->display_info->post_chip_enable_wait_ns
  92:user/drivers/u8g2/u8x8_byte.c ****     u8x8->display_info->pre_chip_disable_wait_ns
  93:user/drivers/u8g2/u8x8_byte.c ****   Calls to GPIO and DELAY:
  94:user/drivers/u8g2/u8x8_byte.c ****     U8X8_MSG_DELAY_NANO
  95:user/drivers/u8g2/u8x8_byte.c ****     U8X8_MSG_GPIO_DC
  96:user/drivers/u8g2/u8x8_byte.c ****     U8X8_MSG_GPIO_CS
  97:user/drivers/u8g2/u8x8_byte.c ****     U8X8_MSG_GPIO_CLOCK
  98:user/drivers/u8g2/u8x8_byte.c ****     U8X8_MSG_GPIO_DATA
  99:user/drivers/u8g2/u8x8_byte.c ****   Handles:
 100:user/drivers/u8g2/u8x8_byte.c ****     U8X8_MSG_BYTE_INIT
 101:user/drivers/u8g2/u8x8_byte.c ****     U8X8_MSG_BYTE_SEND
 102:user/drivers/u8g2/u8x8_byte.c ****     U8X8_MSG_BYTE_SET_DC
 103:user/drivers/u8g2/u8x8_byte.c ****     U8X8_MSG_BYTE_START_TRANSFER
 104:user/drivers/u8g2/u8x8_byte.c ****     U8X8_MSG_BYTE_END_TRANSFER
 105:user/drivers/u8g2/u8x8_byte.c **** */
 106:user/drivers/u8g2/u8x8_byte.c **** 
 107:user/drivers/u8g2/u8x8_byte.c **** uint8_t u8x8_byte_4wire_sw_spi(u8x8_t *u8x8, uint8_t msg, uint8_t arg_int, void *arg_ptr)
 108:user/drivers/u8g2/u8x8_byte.c **** {
 109:user/drivers/u8g2/u8x8_byte.c ****   uint8_t i, b;
 110:user/drivers/u8g2/u8x8_byte.c ****   uint8_t *data;
 111:user/drivers/u8g2/u8x8_byte.c ****   uint8_t takeover_edge = u8x8_GetSPIClockPhase(u8x8);
 112:user/drivers/u8g2/u8x8_byte.c ****   uint8_t not_takeover_edge = 1 - takeover_edge;
 113:user/drivers/u8g2/u8x8_byte.c ****  
 114:user/drivers/u8g2/u8x8_byte.c ****   switch(msg)
 115:user/drivers/u8g2/u8x8_byte.c ****   {
 116:user/drivers/u8g2/u8x8_byte.c ****     case U8X8_MSG_BYTE_SEND:
 117:user/drivers/u8g2/u8x8_byte.c ****       data = (uint8_t *)arg_ptr;
 118:user/drivers/u8g2/u8x8_byte.c ****       while( arg_int > 0 )
 119:user/drivers/u8g2/u8x8_byte.c ****       {
 120:user/drivers/u8g2/u8x8_byte.c **** 	b = *data;
 121:user/drivers/u8g2/u8x8_byte.c **** 	data++;
 122:user/drivers/u8g2/u8x8_byte.c **** 	arg_int--;
 123:user/drivers/u8g2/u8x8_byte.c **** 	for( i = 0; i < 8; i++ )
 124:user/drivers/u8g2/u8x8_byte.c **** 	{
 125:user/drivers/u8g2/u8x8_byte.c **** 	  if ( b & 128 )
 126:user/drivers/u8g2/u8x8_byte.c **** 	    u8x8_gpio_SetSPIData(u8x8, 1);
 127:user/drivers/u8g2/u8x8_byte.c **** 	  else
 128:user/drivers/u8g2/u8x8_byte.c **** 	    u8x8_gpio_SetSPIData(u8x8, 0);
 129:user/drivers/u8g2/u8x8_byte.c **** 	  b <<= 1;
 130:user/drivers/u8g2/u8x8_byte.c **** 	  
 131:user/drivers/u8g2/u8x8_byte.c **** 	  u8x8_gpio_SetSPIClock(u8x8, not_takeover_edge);
 132:user/drivers/u8g2/u8x8_byte.c **** 	  u8x8_gpio_Delay(u8x8, U8X8_MSG_DELAY_NANO, u8x8->display_info->sda_setup_time_ns);
 133:user/drivers/u8g2/u8x8_byte.c **** 	  u8x8_gpio_SetSPIClock(u8x8, takeover_edge);
 134:user/drivers/u8g2/u8x8_byte.c **** 	  u8x8_gpio_Delay(u8x8, U8X8_MSG_DELAY_NANO, u8x8->display_info->sck_pulse_width_ns);
 135:user/drivers/u8g2/u8x8_byte.c **** 	}    
 136:user/drivers/u8g2/u8x8_byte.c ****       }
 137:user/drivers/u8g2/u8x8_byte.c ****       break;
 138:user/drivers/u8g2/u8x8_byte.c ****       
 139:user/drivers/u8g2/u8x8_byte.c ****     case U8X8_MSG_BYTE_INIT:
 140:user/drivers/u8g2/u8x8_byte.c ****       /* disable chipselect */
 141:user/drivers/u8g2/u8x8_byte.c ****       u8x8_gpio_SetCS(u8x8, u8x8->display_info->chip_disable_level);
 142:user/drivers/u8g2/u8x8_byte.c ****       /* no wait required here */
 143:user/drivers/u8g2/u8x8_byte.c ****       
 144:user/drivers/u8g2/u8x8_byte.c ****       /* for SPI: setup correct level of the clock signal */
ARM GAS  /var/folders/21/t9g5rlb91ys800n5npymflf80000gn/T//cclzeuEY.s 			page 4


 145:user/drivers/u8g2/u8x8_byte.c ****       u8x8_gpio_SetSPIClock(u8x8, u8x8_GetSPIClockPhase(u8x8));
 146:user/drivers/u8g2/u8x8_byte.c ****       break;
 147:user/drivers/u8g2/u8x8_byte.c ****     case U8X8_MSG_BYTE_SET_DC:
 148:user/drivers/u8g2/u8x8_byte.c ****       u8x8_gpio_SetDC(u8x8, arg_int);
 149:user/drivers/u8g2/u8x8_byte.c ****       break;
 150:user/drivers/u8g2/u8x8_byte.c ****     case U8X8_MSG_BYTE_START_TRANSFER:
 151:user/drivers/u8g2/u8x8_byte.c ****       u8x8_gpio_SetCS(u8x8, u8x8->display_info->chip_enable_level);  
 152:user/drivers/u8g2/u8x8_byte.c ****       u8x8->gpio_and_delay_cb(u8x8, U8X8_MSG_DELAY_NANO, u8x8->display_info->post_chip_enable_wait_
 153:user/drivers/u8g2/u8x8_byte.c ****       break;
 154:user/drivers/u8g2/u8x8_byte.c ****     case U8X8_MSG_BYTE_END_TRANSFER:
 155:user/drivers/u8g2/u8x8_byte.c ****       u8x8->gpio_and_delay_cb(u8x8, U8X8_MSG_DELAY_NANO, u8x8->display_info->pre_chip_disable_wait_
 156:user/drivers/u8g2/u8x8_byte.c ****       u8x8_gpio_SetCS(u8x8, u8x8->display_info->chip_disable_level);
 157:user/drivers/u8g2/u8x8_byte.c ****       break;
 158:user/drivers/u8g2/u8x8_byte.c ****     default:
 159:user/drivers/u8g2/u8x8_byte.c ****       return 0;
 160:user/drivers/u8g2/u8x8_byte.c ****   }
 161:user/drivers/u8g2/u8x8_byte.c ****   return 1;
 162:user/drivers/u8g2/u8x8_byte.c **** }
 163:user/drivers/u8g2/u8x8_byte.c **** 
 164:user/drivers/u8g2/u8x8_byte.c **** /*=========================================*/
 165:user/drivers/u8g2/u8x8_byte.c **** 
 166:user/drivers/u8g2/u8x8_byte.c **** uint8_t u8x8_byte_8bit_6800mode(u8x8_t *u8x8, uint8_t msg, uint8_t arg_int, void *arg_ptr)
 167:user/drivers/u8g2/u8x8_byte.c **** {
 168:user/drivers/u8g2/u8x8_byte.c ****   uint8_t i, b;
 169:user/drivers/u8g2/u8x8_byte.c ****   uint8_t *data;
 170:user/drivers/u8g2/u8x8_byte.c ****  
 171:user/drivers/u8g2/u8x8_byte.c ****   switch(msg)
 172:user/drivers/u8g2/u8x8_byte.c ****   {
 173:user/drivers/u8g2/u8x8_byte.c ****     case U8X8_MSG_BYTE_SEND:
 174:user/drivers/u8g2/u8x8_byte.c ****       data = (uint8_t *)arg_ptr;
 175:user/drivers/u8g2/u8x8_byte.c ****       while( arg_int > 0 )
 176:user/drivers/u8g2/u8x8_byte.c ****       {
 177:user/drivers/u8g2/u8x8_byte.c **** 	b = *data;
 178:user/drivers/u8g2/u8x8_byte.c **** 	data++;
 179:user/drivers/u8g2/u8x8_byte.c **** 	arg_int--;
 180:user/drivers/u8g2/u8x8_byte.c **** 	for( i = U8X8_MSG_GPIO_D0; i <= U8X8_MSG_GPIO_D7; i++ )
 181:user/drivers/u8g2/u8x8_byte.c **** 	{
 182:user/drivers/u8g2/u8x8_byte.c **** 	  u8x8_gpio_call(u8x8, i, b&1);
 183:user/drivers/u8g2/u8x8_byte.c **** 	  b >>= 1;
 184:user/drivers/u8g2/u8x8_byte.c **** 	}    
 185:user/drivers/u8g2/u8x8_byte.c **** 	
 186:user/drivers/u8g2/u8x8_byte.c **** 	u8x8_gpio_Delay(u8x8, U8X8_MSG_DELAY_NANO, u8x8->display_info->data_setup_time_ns);
 187:user/drivers/u8g2/u8x8_byte.c **** 	u8x8_gpio_call(u8x8, U8X8_MSG_GPIO_E, 1);
 188:user/drivers/u8g2/u8x8_byte.c **** 	u8x8_gpio_Delay(u8x8, U8X8_MSG_DELAY_NANO, u8x8->display_info->write_pulse_width_ns);
 189:user/drivers/u8g2/u8x8_byte.c **** 	u8x8_gpio_call(u8x8, U8X8_MSG_GPIO_E, 0);
 190:user/drivers/u8g2/u8x8_byte.c ****       }
 191:user/drivers/u8g2/u8x8_byte.c ****       break;
 192:user/drivers/u8g2/u8x8_byte.c ****       
 193:user/drivers/u8g2/u8x8_byte.c ****     case U8X8_MSG_BYTE_INIT:
 194:user/drivers/u8g2/u8x8_byte.c ****       /* disable chipselect */
 195:user/drivers/u8g2/u8x8_byte.c ****       u8x8_gpio_SetCS(u8x8, u8x8->display_info->chip_disable_level);    
 196:user/drivers/u8g2/u8x8_byte.c ****       /* ensure that the enable signal is high */
 197:user/drivers/u8g2/u8x8_byte.c ****       u8x8_gpio_call(u8x8, U8X8_MSG_GPIO_E, 0);
 198:user/drivers/u8g2/u8x8_byte.c ****       break;
 199:user/drivers/u8g2/u8x8_byte.c ****     case U8X8_MSG_BYTE_SET_DC:
 200:user/drivers/u8g2/u8x8_byte.c ****       u8x8_gpio_SetDC(u8x8, arg_int);
 201:user/drivers/u8g2/u8x8_byte.c ****       break;
ARM GAS  /var/folders/21/t9g5rlb91ys800n5npymflf80000gn/T//cclzeuEY.s 			page 5


 202:user/drivers/u8g2/u8x8_byte.c ****     case U8X8_MSG_BYTE_START_TRANSFER:
 203:user/drivers/u8g2/u8x8_byte.c ****       u8x8_gpio_SetCS(u8x8, u8x8->display_info->chip_enable_level);  
 204:user/drivers/u8g2/u8x8_byte.c ****       u8x8->gpio_and_delay_cb(u8x8, U8X8_MSG_DELAY_NANO, u8x8->display_info->post_chip_enable_wait_
 205:user/drivers/u8g2/u8x8_byte.c ****       break;
 206:user/drivers/u8g2/u8x8_byte.c ****     case U8X8_MSG_BYTE_END_TRANSFER:
 207:user/drivers/u8g2/u8x8_byte.c ****       u8x8->gpio_and_delay_cb(u8x8, U8X8_MSG_DELAY_NANO, u8x8->display_info->pre_chip_disable_wait_
 208:user/drivers/u8g2/u8x8_byte.c ****       u8x8_gpio_SetCS(u8x8, u8x8->display_info->chip_disable_level);
 209:user/drivers/u8g2/u8x8_byte.c ****       break;
 210:user/drivers/u8g2/u8x8_byte.c ****     default:
 211:user/drivers/u8g2/u8x8_byte.c ****       return 0;
 212:user/drivers/u8g2/u8x8_byte.c ****   }
 213:user/drivers/u8g2/u8x8_byte.c ****   return 1;
 214:user/drivers/u8g2/u8x8_byte.c **** }
 215:user/drivers/u8g2/u8x8_byte.c **** 
 216:user/drivers/u8g2/u8x8_byte.c **** uint8_t u8x8_byte_8bit_8080mode(u8x8_t *u8x8, uint8_t msg, uint8_t arg_int, void *arg_ptr)
 217:user/drivers/u8g2/u8x8_byte.c **** {
 218:user/drivers/u8g2/u8x8_byte.c ****   uint8_t i, b;
 219:user/drivers/u8g2/u8x8_byte.c ****   uint8_t *data;
 220:user/drivers/u8g2/u8x8_byte.c ****  
 221:user/drivers/u8g2/u8x8_byte.c ****   switch(msg)
 222:user/drivers/u8g2/u8x8_byte.c ****   {
 223:user/drivers/u8g2/u8x8_byte.c ****     case U8X8_MSG_BYTE_SEND:
 224:user/drivers/u8g2/u8x8_byte.c ****       data = (uint8_t *)arg_ptr;
 225:user/drivers/u8g2/u8x8_byte.c ****       while( arg_int > 0 )
 226:user/drivers/u8g2/u8x8_byte.c ****       {
 227:user/drivers/u8g2/u8x8_byte.c **** 	b = *data;
 228:user/drivers/u8g2/u8x8_byte.c **** 	data++;
 229:user/drivers/u8g2/u8x8_byte.c **** 	arg_int--;
 230:user/drivers/u8g2/u8x8_byte.c **** 	for( i = U8X8_MSG_GPIO_D0; i <= U8X8_MSG_GPIO_D7; i++ )
 231:user/drivers/u8g2/u8x8_byte.c **** 	{
 232:user/drivers/u8g2/u8x8_byte.c **** 	  u8x8_gpio_call(u8x8, i, b&1);
 233:user/drivers/u8g2/u8x8_byte.c **** 	  b >>= 1;
 234:user/drivers/u8g2/u8x8_byte.c **** 	}    
 235:user/drivers/u8g2/u8x8_byte.c **** 	
 236:user/drivers/u8g2/u8x8_byte.c **** 	u8x8_gpio_Delay(u8x8, U8X8_MSG_DELAY_NANO, u8x8->display_info->data_setup_time_ns);
 237:user/drivers/u8g2/u8x8_byte.c **** 	u8x8_gpio_call(u8x8, U8X8_MSG_GPIO_E, 0);
 238:user/drivers/u8g2/u8x8_byte.c **** 	u8x8_gpio_Delay(u8x8, U8X8_MSG_DELAY_NANO, u8x8->display_info->write_pulse_width_ns);
 239:user/drivers/u8g2/u8x8_byte.c **** 	u8x8_gpio_call(u8x8, U8X8_MSG_GPIO_E, 1);
 240:user/drivers/u8g2/u8x8_byte.c ****       }
 241:user/drivers/u8g2/u8x8_byte.c ****       break;
 242:user/drivers/u8g2/u8x8_byte.c ****       
 243:user/drivers/u8g2/u8x8_byte.c ****     case U8X8_MSG_BYTE_INIT:
 244:user/drivers/u8g2/u8x8_byte.c ****       /* disable chipselect */
 245:user/drivers/u8g2/u8x8_byte.c ****       u8x8_gpio_SetCS(u8x8, u8x8->display_info->chip_disable_level);    
 246:user/drivers/u8g2/u8x8_byte.c ****       /* ensure that the enable signal is high */
 247:user/drivers/u8g2/u8x8_byte.c ****       u8x8_gpio_call(u8x8, U8X8_MSG_GPIO_E, 1);
 248:user/drivers/u8g2/u8x8_byte.c ****       break;
 249:user/drivers/u8g2/u8x8_byte.c ****     case U8X8_MSG_BYTE_SET_DC:
 250:user/drivers/u8g2/u8x8_byte.c ****       u8x8_gpio_SetDC(u8x8, arg_int);
 251:user/drivers/u8g2/u8x8_byte.c ****       break;
 252:user/drivers/u8g2/u8x8_byte.c ****     case U8X8_MSG_BYTE_START_TRANSFER:
 253:user/drivers/u8g2/u8x8_byte.c ****       u8x8_gpio_SetCS(u8x8, u8x8->display_info->chip_enable_level);  
 254:user/drivers/u8g2/u8x8_byte.c ****       u8x8->gpio_and_delay_cb(u8x8, U8X8_MSG_DELAY_NANO, u8x8->display_info->post_chip_enable_wait_
 255:user/drivers/u8g2/u8x8_byte.c ****       break;
 256:user/drivers/u8g2/u8x8_byte.c ****     case U8X8_MSG_BYTE_END_TRANSFER:
 257:user/drivers/u8g2/u8x8_byte.c ****       u8x8->gpio_and_delay_cb(u8x8, U8X8_MSG_DELAY_NANO, u8x8->display_info->pre_chip_disable_wait_
 258:user/drivers/u8g2/u8x8_byte.c ****       u8x8_gpio_SetCS(u8x8, u8x8->display_info->chip_disable_level);
ARM GAS  /var/folders/21/t9g5rlb91ys800n5npymflf80000gn/T//cclzeuEY.s 			page 6


 259:user/drivers/u8g2/u8x8_byte.c ****       break;
 260:user/drivers/u8g2/u8x8_byte.c ****     default:
 261:user/drivers/u8g2/u8x8_byte.c ****       return 0;
 262:user/drivers/u8g2/u8x8_byte.c ****   }
 263:user/drivers/u8g2/u8x8_byte.c ****   return 1;
 264:user/drivers/u8g2/u8x8_byte.c **** }
 265:user/drivers/u8g2/u8x8_byte.c **** 
 266:user/drivers/u8g2/u8x8_byte.c **** /*=========================================*/
 267:user/drivers/u8g2/u8x8_byte.c **** 
 268:user/drivers/u8g2/u8x8_byte.c **** uint8_t u8x8_byte_3wire_sw_spi(u8x8_t *u8x8, uint8_t msg, uint8_t arg_int, void *arg_ptr)
 269:user/drivers/u8g2/u8x8_byte.c **** {
 270:user/drivers/u8g2/u8x8_byte.c ****   uint8_t i;
 271:user/drivers/u8g2/u8x8_byte.c ****   uint8_t *data;
 272:user/drivers/u8g2/u8x8_byte.c ****   uint8_t takeover_edge = u8x8_GetSPIClockPhase(u8x8);
 273:user/drivers/u8g2/u8x8_byte.c ****   uint8_t not_takeover_edge = 1 - takeover_edge;
 274:user/drivers/u8g2/u8x8_byte.c ****   uint16_t b;
 275:user/drivers/u8g2/u8x8_byte.c ****   static uint8_t last_dc;
 276:user/drivers/u8g2/u8x8_byte.c ****  
 277:user/drivers/u8g2/u8x8_byte.c ****   switch(msg)
 278:user/drivers/u8g2/u8x8_byte.c ****   {
 279:user/drivers/u8g2/u8x8_byte.c ****     case U8X8_MSG_BYTE_SEND:
 280:user/drivers/u8g2/u8x8_byte.c ****       data = (uint8_t *)arg_ptr;
 281:user/drivers/u8g2/u8x8_byte.c ****       while( arg_int > 0 )
 282:user/drivers/u8g2/u8x8_byte.c ****       {
 283:user/drivers/u8g2/u8x8_byte.c **** 	b = *data;
 284:user/drivers/u8g2/u8x8_byte.c **** 	if ( last_dc != 0 )
 285:user/drivers/u8g2/u8x8_byte.c **** 	  b |= 256;
 286:user/drivers/u8g2/u8x8_byte.c **** 	data++;
 287:user/drivers/u8g2/u8x8_byte.c **** 	arg_int--;
 288:user/drivers/u8g2/u8x8_byte.c **** 	for( i = 0; i < 9; i++ )
 289:user/drivers/u8g2/u8x8_byte.c **** 	{
 290:user/drivers/u8g2/u8x8_byte.c **** 	  if ( b & 256 )
 291:user/drivers/u8g2/u8x8_byte.c **** 	    u8x8_gpio_SetSPIData(u8x8, 1);
 292:user/drivers/u8g2/u8x8_byte.c **** 	  else
 293:user/drivers/u8g2/u8x8_byte.c **** 	    u8x8_gpio_SetSPIData(u8x8, 0);
 294:user/drivers/u8g2/u8x8_byte.c **** 	  b <<= 1;
 295:user/drivers/u8g2/u8x8_byte.c **** 	  
 296:user/drivers/u8g2/u8x8_byte.c **** 	  u8x8_gpio_SetSPIClock(u8x8, not_takeover_edge);
 297:user/drivers/u8g2/u8x8_byte.c **** 	  u8x8_gpio_Delay(u8x8, U8X8_MSG_DELAY_NANO, u8x8->display_info->sda_setup_time_ns);
 298:user/drivers/u8g2/u8x8_byte.c **** 	  u8x8_gpio_SetSPIClock(u8x8, takeover_edge);
 299:user/drivers/u8g2/u8x8_byte.c **** 	  u8x8_gpio_Delay(u8x8, U8X8_MSG_DELAY_NANO, u8x8->display_info->sck_pulse_width_ns);
 300:user/drivers/u8g2/u8x8_byte.c **** 	}    
 301:user/drivers/u8g2/u8x8_byte.c ****       }
 302:user/drivers/u8g2/u8x8_byte.c ****       break;
 303:user/drivers/u8g2/u8x8_byte.c ****       
 304:user/drivers/u8g2/u8x8_byte.c ****     case U8X8_MSG_BYTE_INIT:
 305:user/drivers/u8g2/u8x8_byte.c ****       /* disable chipselect */
 306:user/drivers/u8g2/u8x8_byte.c ****       u8x8_gpio_SetCS(u8x8, u8x8->display_info->chip_disable_level);
 307:user/drivers/u8g2/u8x8_byte.c ****       /* no wait required here */
 308:user/drivers/u8g2/u8x8_byte.c ****       
 309:user/drivers/u8g2/u8x8_byte.c ****       /* for SPI: setup correct level of the clock signal */
 310:user/drivers/u8g2/u8x8_byte.c ****       u8x8_gpio_SetSPIClock(u8x8, u8x8_GetSPIClockPhase(u8x8));
 311:user/drivers/u8g2/u8x8_byte.c ****       break;
 312:user/drivers/u8g2/u8x8_byte.c ****     case U8X8_MSG_BYTE_SET_DC:
 313:user/drivers/u8g2/u8x8_byte.c ****       last_dc = arg_int;
 314:user/drivers/u8g2/u8x8_byte.c ****       break;
 315:user/drivers/u8g2/u8x8_byte.c ****     case U8X8_MSG_BYTE_START_TRANSFER:
ARM GAS  /var/folders/21/t9g5rlb91ys800n5npymflf80000gn/T//cclzeuEY.s 			page 7


 316:user/drivers/u8g2/u8x8_byte.c ****       u8x8_gpio_SetCS(u8x8, u8x8->display_info->chip_enable_level);  
 317:user/drivers/u8g2/u8x8_byte.c ****       u8x8->gpio_and_delay_cb(u8x8, U8X8_MSG_DELAY_NANO, u8x8->display_info->post_chip_enable_wait_
 318:user/drivers/u8g2/u8x8_byte.c ****       break;
 319:user/drivers/u8g2/u8x8_byte.c ****     case U8X8_MSG_BYTE_END_TRANSFER:
 320:user/drivers/u8g2/u8x8_byte.c ****       u8x8->gpio_and_delay_cb(u8x8, U8X8_MSG_DELAY_NANO, u8x8->display_info->pre_chip_disable_wait_
 321:user/drivers/u8g2/u8x8_byte.c ****       u8x8_gpio_SetCS(u8x8, u8x8->display_info->chip_disable_level);
 322:user/drivers/u8g2/u8x8_byte.c ****       break;
 323:user/drivers/u8g2/u8x8_byte.c ****     default:
 324:user/drivers/u8g2/u8x8_byte.c ****       return 0;
 325:user/drivers/u8g2/u8x8_byte.c ****   }
 326:user/drivers/u8g2/u8x8_byte.c ****   return 1;
 327:user/drivers/u8g2/u8x8_byte.c **** }
 328:user/drivers/u8g2/u8x8_byte.c **** 
 329:user/drivers/u8g2/u8x8_byte.c **** /*=========================================*/
 330:user/drivers/u8g2/u8x8_byte.c **** 
 331:user/drivers/u8g2/u8x8_byte.c **** void u8x8_byte_set_ks0108_cs(u8x8_t *u8x8, uint8_t arg)
 332:user/drivers/u8g2/u8x8_byte.c **** {
 333:user/drivers/u8g2/u8x8_byte.c ****   u8x8_gpio_SetCS(u8x8, arg&1);
 334:user/drivers/u8g2/u8x8_byte.c ****   arg = arg >> 1;
 335:user/drivers/u8g2/u8x8_byte.c ****   u8x8_gpio_call(u8x8, U8X8_MSG_GPIO_CS1, arg&1);
 336:user/drivers/u8g2/u8x8_byte.c ****   arg = arg >> 1;
 337:user/drivers/u8g2/u8x8_byte.c ****   u8x8_gpio_call(u8x8, U8X8_MSG_GPIO_CS2, arg&1);
 338:user/drivers/u8g2/u8x8_byte.c **** }
 339:user/drivers/u8g2/u8x8_byte.c **** 
 340:user/drivers/u8g2/u8x8_byte.c **** /* 6800 mode */
 341:user/drivers/u8g2/u8x8_byte.c **** uint8_t u8x8_byte_ks0108(u8x8_t *u8x8, uint8_t msg, uint8_t arg_int, void *arg_ptr)
 342:user/drivers/u8g2/u8x8_byte.c **** {
 343:user/drivers/u8g2/u8x8_byte.c ****   uint8_t i, b;
 344:user/drivers/u8g2/u8x8_byte.c ****   uint8_t *data;
 345:user/drivers/u8g2/u8x8_byte.c ****  
 346:user/drivers/u8g2/u8x8_byte.c ****   switch(msg)
 347:user/drivers/u8g2/u8x8_byte.c ****   {
 348:user/drivers/u8g2/u8x8_byte.c ****     case U8X8_MSG_BYTE_SEND:
 349:user/drivers/u8g2/u8x8_byte.c ****       data = (uint8_t *)arg_ptr;
 350:user/drivers/u8g2/u8x8_byte.c ****       while( arg_int > 0 )
 351:user/drivers/u8g2/u8x8_byte.c ****       {
 352:user/drivers/u8g2/u8x8_byte.c **** 	b = *data;
 353:user/drivers/u8g2/u8x8_byte.c **** 	data++;
 354:user/drivers/u8g2/u8x8_byte.c **** 	arg_int--;
 355:user/drivers/u8g2/u8x8_byte.c **** 	for( i = U8X8_MSG_GPIO_D0; i <= U8X8_MSG_GPIO_D7; i++ )
 356:user/drivers/u8g2/u8x8_byte.c **** 	{
 357:user/drivers/u8g2/u8x8_byte.c **** 	  u8x8_gpio_call(u8x8, i, b&1);
 358:user/drivers/u8g2/u8x8_byte.c **** 	  b >>= 1;
 359:user/drivers/u8g2/u8x8_byte.c **** 	}    
 360:user/drivers/u8g2/u8x8_byte.c **** 	
 361:user/drivers/u8g2/u8x8_byte.c **** 	u8x8_gpio_Delay(u8x8, U8X8_MSG_DELAY_NANO, u8x8->display_info->data_setup_time_ns);
 362:user/drivers/u8g2/u8x8_byte.c **** 	u8x8_gpio_call(u8x8, U8X8_MSG_GPIO_E, 1);
 363:user/drivers/u8g2/u8x8_byte.c **** 	u8x8_gpio_Delay(u8x8, U8X8_MSG_DELAY_NANO, u8x8->display_info->write_pulse_width_ns);
 364:user/drivers/u8g2/u8x8_byte.c **** 	u8x8_gpio_call(u8x8, U8X8_MSG_GPIO_E, 0);
 365:user/drivers/u8g2/u8x8_byte.c ****       }
 366:user/drivers/u8g2/u8x8_byte.c ****       break;
 367:user/drivers/u8g2/u8x8_byte.c ****       
 368:user/drivers/u8g2/u8x8_byte.c ****     case U8X8_MSG_BYTE_INIT:
 369:user/drivers/u8g2/u8x8_byte.c ****       /* disable chipselect */
 370:user/drivers/u8g2/u8x8_byte.c ****       u8x8_gpio_SetCS(u8x8, u8x8->display_info->chip_disable_level);    
 371:user/drivers/u8g2/u8x8_byte.c ****       /* ensure that the enable signal is low */
 372:user/drivers/u8g2/u8x8_byte.c ****       u8x8_gpio_call(u8x8, U8X8_MSG_GPIO_E, 0);
ARM GAS  /var/folders/21/t9g5rlb91ys800n5npymflf80000gn/T//cclzeuEY.s 			page 8


 373:user/drivers/u8g2/u8x8_byte.c ****       break;
 374:user/drivers/u8g2/u8x8_byte.c ****     case U8X8_MSG_BYTE_SET_DC:
 375:user/drivers/u8g2/u8x8_byte.c ****       u8x8_gpio_SetDC(u8x8, arg_int);
 376:user/drivers/u8g2/u8x8_byte.c ****       break;
 377:user/drivers/u8g2/u8x8_byte.c ****     case U8X8_MSG_BYTE_START_TRANSFER:
 378:user/drivers/u8g2/u8x8_byte.c ****       /* expects 3 bits in arg_int for the chip select lines */ 
 379:user/drivers/u8g2/u8x8_byte.c ****       u8x8_byte_set_ks0108_cs(u8x8, arg_int);
 380:user/drivers/u8g2/u8x8_byte.c ****       u8x8->gpio_and_delay_cb(u8x8, U8X8_MSG_DELAY_NANO, u8x8->display_info->post_chip_enable_wait_
 381:user/drivers/u8g2/u8x8_byte.c ****       break;
 382:user/drivers/u8g2/u8x8_byte.c ****     case U8X8_MSG_BYTE_END_TRANSFER:
 383:user/drivers/u8g2/u8x8_byte.c ****       u8x8->gpio_and_delay_cb(u8x8, U8X8_MSG_DELAY_NANO, u8x8->display_info->pre_chip_disable_wait_
 384:user/drivers/u8g2/u8x8_byte.c ****       u8x8_byte_set_ks0108_cs(u8x8, arg_int);
 385:user/drivers/u8g2/u8x8_byte.c ****       break;
 386:user/drivers/u8g2/u8x8_byte.c ****     default:
 387:user/drivers/u8g2/u8x8_byte.c ****       return 0;
 388:user/drivers/u8g2/u8x8_byte.c ****   }
 389:user/drivers/u8g2/u8x8_byte.c ****   return 1;
 390:user/drivers/u8g2/u8x8_byte.c **** }
 391:user/drivers/u8g2/u8x8_byte.c **** 
 392:user/drivers/u8g2/u8x8_byte.c **** 
 393:user/drivers/u8g2/u8x8_byte.c **** /* sed1520 or sbn1661 
 394:user/drivers/u8g2/u8x8_byte.c ****   U8X8_MSG_GPIO_E --> E1
 395:user/drivers/u8g2/u8x8_byte.c ****   U8X8_MSG_GPIO_CS --> E2
 396:user/drivers/u8g2/u8x8_byte.c **** */
 397:user/drivers/u8g2/u8x8_byte.c **** uint8_t u8x8_byte_sed1520(u8x8_t *u8x8, uint8_t msg, uint8_t arg_int, void *arg_ptr)
 398:user/drivers/u8g2/u8x8_byte.c **** {
 399:user/drivers/u8g2/u8x8_byte.c ****   uint8_t i, b;
 400:user/drivers/u8g2/u8x8_byte.c ****   uint8_t *data;
 401:user/drivers/u8g2/u8x8_byte.c ****   static uint8_t enable_pin;
 402:user/drivers/u8g2/u8x8_byte.c ****  
 403:user/drivers/u8g2/u8x8_byte.c ****   switch(msg)
 404:user/drivers/u8g2/u8x8_byte.c ****   {
 405:user/drivers/u8g2/u8x8_byte.c ****     case U8X8_MSG_BYTE_SEND:
 406:user/drivers/u8g2/u8x8_byte.c ****       data = (uint8_t *)arg_ptr;
 407:user/drivers/u8g2/u8x8_byte.c ****       while( arg_int > 0 )
 408:user/drivers/u8g2/u8x8_byte.c ****       {
 409:user/drivers/u8g2/u8x8_byte.c **** 	b = *data;
 410:user/drivers/u8g2/u8x8_byte.c **** 	data++;
 411:user/drivers/u8g2/u8x8_byte.c **** 	arg_int--;
 412:user/drivers/u8g2/u8x8_byte.c **** 	for( i = U8X8_MSG_GPIO_D0; i <= U8X8_MSG_GPIO_D7; i++ )
 413:user/drivers/u8g2/u8x8_byte.c **** 	{
 414:user/drivers/u8g2/u8x8_byte.c **** 	  u8x8_gpio_call(u8x8, i, b&1);
 415:user/drivers/u8g2/u8x8_byte.c **** 	  b >>= 1;
 416:user/drivers/u8g2/u8x8_byte.c **** 	}    
 417:user/drivers/u8g2/u8x8_byte.c **** 	
 418:user/drivers/u8g2/u8x8_byte.c **** 	u8x8_gpio_Delay(u8x8, U8X8_MSG_DELAY_NANO, u8x8->display_info->data_setup_time_ns);
 419:user/drivers/u8g2/u8x8_byte.c **** 	u8x8_gpio_call(u8x8, enable_pin, 1);
 420:user/drivers/u8g2/u8x8_byte.c **** 	u8x8_gpio_Delay(u8x8, U8X8_MSG_DELAY_NANO, 200);		/* KS0108 requires 450 ns, use 200 here */
 421:user/drivers/u8g2/u8x8_byte.c **** 	u8x8_gpio_Delay(u8x8, U8X8_MSG_DELAY_NANO, u8x8->display_info->write_pulse_width_ns);  /* expect 2
 422:user/drivers/u8g2/u8x8_byte.c **** 	u8x8_gpio_call(u8x8, enable_pin, 0);
 423:user/drivers/u8g2/u8x8_byte.c ****       }
 424:user/drivers/u8g2/u8x8_byte.c ****       break;
 425:user/drivers/u8g2/u8x8_byte.c ****       
 426:user/drivers/u8g2/u8x8_byte.c ****     case U8X8_MSG_BYTE_INIT:
 427:user/drivers/u8g2/u8x8_byte.c ****       /* disable chipselect */
 428:user/drivers/u8g2/u8x8_byte.c ****       u8x8_gpio_SetCS(u8x8, u8x8->display_info->chip_disable_level);    
 429:user/drivers/u8g2/u8x8_byte.c ****       /* ensure that the enable signals are low */
ARM GAS  /var/folders/21/t9g5rlb91ys800n5npymflf80000gn/T//cclzeuEY.s 			page 9


 430:user/drivers/u8g2/u8x8_byte.c ****       u8x8_gpio_call(u8x8, U8X8_MSG_GPIO_E, 0);
 431:user/drivers/u8g2/u8x8_byte.c ****       u8x8_gpio_call(u8x8, U8X8_MSG_GPIO_CS, 0);
 432:user/drivers/u8g2/u8x8_byte.c ****       enable_pin = U8X8_MSG_GPIO_E;
 433:user/drivers/u8g2/u8x8_byte.c ****       break;
 434:user/drivers/u8g2/u8x8_byte.c ****     case U8X8_MSG_BYTE_SET_DC:
 435:user/drivers/u8g2/u8x8_byte.c ****       u8x8_gpio_SetDC(u8x8, arg_int);
 436:user/drivers/u8g2/u8x8_byte.c ****       break;
 437:user/drivers/u8g2/u8x8_byte.c ****     case U8X8_MSG_BYTE_START_TRANSFER:
 438:user/drivers/u8g2/u8x8_byte.c ****       /* cs lines are not supported for the SED1520/SBN1661 */
 439:user/drivers/u8g2/u8x8_byte.c ****       /* instead, this will select the E1 or E2 line */ 
 440:user/drivers/u8g2/u8x8_byte.c ****       /* arg_int is set by u8x8_d_sbn1661_122x32() function */
 441:user/drivers/u8g2/u8x8_byte.c ****       enable_pin = U8X8_MSG_GPIO_E;
 442:user/drivers/u8g2/u8x8_byte.c ****       if ( arg_int != 0 )
 443:user/drivers/u8g2/u8x8_byte.c **** 	enable_pin = U8X8_MSG_GPIO_CS;
 444:user/drivers/u8g2/u8x8_byte.c ****       break;
 445:user/drivers/u8g2/u8x8_byte.c ****     case U8X8_MSG_BYTE_END_TRANSFER:
 446:user/drivers/u8g2/u8x8_byte.c ****       break;
 447:user/drivers/u8g2/u8x8_byte.c ****     default:
 448:user/drivers/u8g2/u8x8_byte.c ****       return 0;
 449:user/drivers/u8g2/u8x8_byte.c ****   }
 450:user/drivers/u8g2/u8x8_byte.c ****   return 1;
 451:user/drivers/u8g2/u8x8_byte.c **** }
 452:user/drivers/u8g2/u8x8_byte.c **** 
 453:user/drivers/u8g2/u8x8_byte.c **** /*=========================================*/
 454:user/drivers/u8g2/u8x8_byte.c **** 
 455:user/drivers/u8g2/u8x8_byte.c **** 
 456:user/drivers/u8g2/u8x8_byte.c **** /*
 457:user/drivers/u8g2/u8x8_byte.c ****   software i2c,
 458:user/drivers/u8g2/u8x8_byte.c ****   ignores ACK response (which is anyway not provided by some displays)
 459:user/drivers/u8g2/u8x8_byte.c ****   also does not allow reading from the device
 460:user/drivers/u8g2/u8x8_byte.c **** */
 461:user/drivers/u8g2/u8x8_byte.c **** static void i2c_delay(u8x8_t *u8x8) U8X8_NOINLINE;
 462:user/drivers/u8g2/u8x8_byte.c **** static void i2c_delay(u8x8_t *u8x8)
 463:user/drivers/u8g2/u8x8_byte.c **** {
  29              		.loc 1 463 1 view -0
  30              		.cfi_startproc
  31              		@ args = 0, pretend = 0, frame = 0
  32              		@ frame_needed = 0, uses_anonymous_args = 0
  33              		.loc 1 463 1 is_stmt 0 view .LVU1
  34 0000 08B5     		push	{r3, lr}
  35              	.LCFI0:
  36              		.cfi_def_cfa_offset 8
  37              		.cfi_offset 3, -8
  38              		.cfi_offset 14, -4
 464:user/drivers/u8g2/u8x8_byte.c ****   //u8x8_gpio_Delay(u8x8, U8X8_MSG_DELAY_10MICRO, u8x8->display_info->i2c_bus_clock_100kHz);
 465:user/drivers/u8g2/u8x8_byte.c ****   u8x8_gpio_Delay(u8x8, U8X8_MSG_DELAY_I2C, u8x8->display_info->i2c_bus_clock_100kHz);
  39              		.loc 1 465 3 is_stmt 1 view .LVU2
  40 0002 0368     		ldr	r3, [r0]
  41 0004 5A7B     		ldrb	r2, [r3, #13]	@ zero_extendqisi2
  42 0006 2D21     		movs	r1, #45
  43 0008 FFF7FEFF 		bl	u8x8_gpio_call
  44              	.LVL1:
 466:user/drivers/u8g2/u8x8_byte.c **** }
  45              		.loc 1 466 1 is_stmt 0 view .LVU3
  46 000c 08BD     		pop	{r3, pc}
  47              		.cfi_endproc
  48              	.LFE13:
ARM GAS  /var/folders/21/t9g5rlb91ys800n5npymflf80000gn/T//cclzeuEY.s 			page 10


  50              		.section	.text.i2c_init,"ax",%progbits
  51              		.align	1
  52              		.syntax unified
  53              		.thumb
  54              		.thumb_func
  56              	i2c_init:
  57              	.LVL2:
  58              	.LFB14:
 467:user/drivers/u8g2/u8x8_byte.c **** 
 468:user/drivers/u8g2/u8x8_byte.c **** static void i2c_init(u8x8_t *u8x8)
 469:user/drivers/u8g2/u8x8_byte.c **** {
  59              		.loc 1 469 1 is_stmt 1 view -0
  60              		.cfi_startproc
  61              		@ args = 0, pretend = 0, frame = 0
  62              		@ frame_needed = 0, uses_anonymous_args = 0
  63              		.loc 1 469 1 is_stmt 0 view .LVU5
  64 0000 10B5     		push	{r4, lr}
  65              	.LCFI1:
  66              		.cfi_def_cfa_offset 8
  67              		.cfi_offset 4, -8
  68              		.cfi_offset 14, -4
  69 0002 0446     		mov	r4, r0
 470:user/drivers/u8g2/u8x8_byte.c ****   u8x8_gpio_SetI2CClock(u8x8, 1);
  70              		.loc 1 470 3 is_stmt 1 view .LVU6
  71 0004 0122     		movs	r2, #1
  72 0006 4C21     		movs	r1, #76
  73 0008 FFF7FEFF 		bl	u8x8_gpio_call
  74              	.LVL3:
 471:user/drivers/u8g2/u8x8_byte.c ****   u8x8_gpio_SetI2CData(u8x8, 1);
  75              		.loc 1 471 3 view .LVU7
  76 000c 0122     		movs	r2, #1
  77 000e 4D21     		movs	r1, #77
  78 0010 2046     		mov	r0, r4
  79 0012 FFF7FEFF 		bl	u8x8_gpio_call
  80              	.LVL4:
 472:user/drivers/u8g2/u8x8_byte.c ****   
 473:user/drivers/u8g2/u8x8_byte.c ****   i2c_delay(u8x8);
  81              		.loc 1 473 3 view .LVU8
  82 0016 2046     		mov	r0, r4
  83 0018 FFF7FEFF 		bl	i2c_delay
  84              	.LVL5:
 474:user/drivers/u8g2/u8x8_byte.c **** }
  85              		.loc 1 474 1 is_stmt 0 view .LVU9
  86 001c 10BD     		pop	{r4, pc}
  87              		.loc 1 474 1 view .LVU10
  88              		.cfi_endproc
  89              	.LFE14:
  91              		.section	.text.i2c_read_scl_and_delay,"ax",%progbits
  92              		.align	1
  93              		.syntax unified
  94              		.thumb
  95              		.thumb_func
  97              	i2c_read_scl_and_delay:
  98              	.LVL6:
  99              	.LFB15:
 475:user/drivers/u8g2/u8x8_byte.c **** 
 476:user/drivers/u8g2/u8x8_byte.c **** /* actually, the scl line is not observed, so this procedure does not return a value */
ARM GAS  /var/folders/21/t9g5rlb91ys800n5npymflf80000gn/T//cclzeuEY.s 			page 11


 477:user/drivers/u8g2/u8x8_byte.c **** 
 478:user/drivers/u8g2/u8x8_byte.c **** static void i2c_read_scl_and_delay(u8x8_t *u8x8)
 479:user/drivers/u8g2/u8x8_byte.c **** {
 100              		.loc 1 479 1 is_stmt 1 view -0
 101              		.cfi_startproc
 102              		@ args = 0, pretend = 0, frame = 0
 103              		@ frame_needed = 0, uses_anonymous_args = 0
 104              		.loc 1 479 1 is_stmt 0 view .LVU12
 105 0000 10B5     		push	{r4, lr}
 106              	.LCFI2:
 107              		.cfi_def_cfa_offset 8
 108              		.cfi_offset 4, -8
 109              		.cfi_offset 14, -4
 110 0002 0446     		mov	r4, r0
 480:user/drivers/u8g2/u8x8_byte.c ****   /* set as input (line will be high) */
 481:user/drivers/u8g2/u8x8_byte.c ****   u8x8_gpio_SetI2CClock(u8x8, 1);
 111              		.loc 1 481 3 is_stmt 1 view .LVU13
 112 0004 0122     		movs	r2, #1
 113 0006 4C21     		movs	r1, #76
 114 0008 FFF7FEFF 		bl	u8x8_gpio_call
 115              	.LVL7:
 482:user/drivers/u8g2/u8x8_byte.c **** 
 483:user/drivers/u8g2/u8x8_byte.c ****   i2c_delay(u8x8);
 116              		.loc 1 483 3 view .LVU14
 117 000c 2046     		mov	r0, r4
 118 000e FFF7FEFF 		bl	i2c_delay
 119              	.LVL8:
 484:user/drivers/u8g2/u8x8_byte.c **** }
 120              		.loc 1 484 1 is_stmt 0 view .LVU15
 121 0012 10BD     		pop	{r4, pc}
 122              		.loc 1 484 1 view .LVU16
 123              		.cfi_endproc
 124              	.LFE15:
 126              		.section	.text.i2c_read_sda,"ax",%progbits
 127              		.align	1
 128              		.syntax unified
 129              		.thumb
 130              		.thumb_func
 132              	i2c_read_sda:
 133              	.LVL9:
 134              	.LFB17:
 485:user/drivers/u8g2/u8x8_byte.c **** 
 486:user/drivers/u8g2/u8x8_byte.c **** static void i2c_clear_scl(u8x8_t *u8x8)
 487:user/drivers/u8g2/u8x8_byte.c **** {
 488:user/drivers/u8g2/u8x8_byte.c ****   u8x8_gpio_SetI2CClock(u8x8, 0);
 489:user/drivers/u8g2/u8x8_byte.c **** }
 490:user/drivers/u8g2/u8x8_byte.c **** 
 491:user/drivers/u8g2/u8x8_byte.c **** static void i2c_read_sda(u8x8_t *u8x8)
 492:user/drivers/u8g2/u8x8_byte.c **** {
 135              		.loc 1 492 1 is_stmt 1 view -0
 136              		.cfi_startproc
 137              		@ args = 0, pretend = 0, frame = 0
 138              		@ frame_needed = 0, uses_anonymous_args = 0
 139              		.loc 1 492 1 is_stmt 0 view .LVU18
 140 0000 08B5     		push	{r3, lr}
 141              	.LCFI3:
 142              		.cfi_def_cfa_offset 8
ARM GAS  /var/folders/21/t9g5rlb91ys800n5npymflf80000gn/T//cclzeuEY.s 			page 12


 143              		.cfi_offset 3, -8
 144              		.cfi_offset 14, -4
 493:user/drivers/u8g2/u8x8_byte.c ****   /* set as input (line will be high) */
 494:user/drivers/u8g2/u8x8_byte.c ****   u8x8_gpio_SetI2CData(u8x8, 1);
 145              		.loc 1 494 3 is_stmt 1 view .LVU19
 146 0002 0122     		movs	r2, #1
 147 0004 4D21     		movs	r1, #77
 148 0006 FFF7FEFF 		bl	u8x8_gpio_call
 149              	.LVL10:
 495:user/drivers/u8g2/u8x8_byte.c **** }
 150              		.loc 1 495 1 is_stmt 0 view .LVU20
 151 000a 08BD     		pop	{r3, pc}
 152              		.cfi_endproc
 153              	.LFE17:
 155              		.section	.text.i2c_clear_sda,"ax",%progbits
 156              		.align	1
 157              		.syntax unified
 158              		.thumb
 159              		.thumb_func
 161              	i2c_clear_sda:
 162              	.LVL11:
 163              	.LFB18:
 496:user/drivers/u8g2/u8x8_byte.c **** 
 497:user/drivers/u8g2/u8x8_byte.c **** static void i2c_clear_sda(u8x8_t *u8x8)
 498:user/drivers/u8g2/u8x8_byte.c **** {
 164              		.loc 1 498 1 is_stmt 1 view -0
 165              		.cfi_startproc
 166              		@ args = 0, pretend = 0, frame = 0
 167              		@ frame_needed = 0, uses_anonymous_args = 0
 168              		.loc 1 498 1 is_stmt 0 view .LVU22
 169 0000 08B5     		push	{r3, lr}
 170              	.LCFI4:
 171              		.cfi_def_cfa_offset 8
 172              		.cfi_offset 3, -8
 173              		.cfi_offset 14, -4
 499:user/drivers/u8g2/u8x8_byte.c ****   /* set open collector and drive low */
 500:user/drivers/u8g2/u8x8_byte.c ****   u8x8_gpio_SetI2CData(u8x8, 0);
 174              		.loc 1 500 3 is_stmt 1 view .LVU23
 175 0002 0022     		movs	r2, #0
 176 0004 4D21     		movs	r1, #77
 177 0006 FFF7FEFF 		bl	u8x8_gpio_call
 178              	.LVL12:
 501:user/drivers/u8g2/u8x8_byte.c **** }
 179              		.loc 1 501 1 is_stmt 0 view .LVU24
 180 000a 08BD     		pop	{r3, pc}
 181              		.cfi_endproc
 182              	.LFE18:
 184              		.section	.text.i2c_stop,"ax",%progbits
 185              		.align	1
 186              		.syntax unified
 187              		.thumb
 188              		.thumb_func
 190              	i2c_stop:
 191              	.LVL13:
 192              	.LFB20:
 502:user/drivers/u8g2/u8x8_byte.c **** 
 503:user/drivers/u8g2/u8x8_byte.c **** static void i2c_start(u8x8_t *u8x8)
ARM GAS  /var/folders/21/t9g5rlb91ys800n5npymflf80000gn/T//cclzeuEY.s 			page 13


 504:user/drivers/u8g2/u8x8_byte.c **** {
 505:user/drivers/u8g2/u8x8_byte.c ****   if ( u8x8->i2c_started != 0 )
 506:user/drivers/u8g2/u8x8_byte.c ****   {
 507:user/drivers/u8g2/u8x8_byte.c ****     /* if already started: do restart */
 508:user/drivers/u8g2/u8x8_byte.c ****     i2c_read_sda(u8x8);     /* SDA = 1 */
 509:user/drivers/u8g2/u8x8_byte.c ****     i2c_delay(u8x8);
 510:user/drivers/u8g2/u8x8_byte.c ****     i2c_read_scl_and_delay(u8x8);
 511:user/drivers/u8g2/u8x8_byte.c ****   }
 512:user/drivers/u8g2/u8x8_byte.c ****   i2c_read_sda(u8x8);
 513:user/drivers/u8g2/u8x8_byte.c ****   /* send the start condition, both lines go from 1 to 0 */
 514:user/drivers/u8g2/u8x8_byte.c ****   i2c_clear_sda(u8x8);
 515:user/drivers/u8g2/u8x8_byte.c ****   i2c_delay(u8x8);
 516:user/drivers/u8g2/u8x8_byte.c ****   i2c_clear_scl(u8x8);
 517:user/drivers/u8g2/u8x8_byte.c ****   u8x8->i2c_started = 1;
 518:user/drivers/u8g2/u8x8_byte.c **** }
 519:user/drivers/u8g2/u8x8_byte.c **** 
 520:user/drivers/u8g2/u8x8_byte.c **** 
 521:user/drivers/u8g2/u8x8_byte.c **** static void i2c_stop(u8x8_t *u8x8)
 522:user/drivers/u8g2/u8x8_byte.c **** {
 193              		.loc 1 522 1 is_stmt 1 view -0
 194              		.cfi_startproc
 195              		@ args = 0, pretend = 0, frame = 0
 196              		@ frame_needed = 0, uses_anonymous_args = 0
 197              		.loc 1 522 1 is_stmt 0 view .LVU26
 198 0000 10B5     		push	{r4, lr}
 199              	.LCFI5:
 200              		.cfi_def_cfa_offset 8
 201              		.cfi_offset 4, -8
 202              		.cfi_offset 14, -4
 203 0002 0446     		mov	r4, r0
 523:user/drivers/u8g2/u8x8_byte.c ****   /* set SDA to 0 */
 524:user/drivers/u8g2/u8x8_byte.c ****   i2c_clear_sda(u8x8);  
 204              		.loc 1 524 3 is_stmt 1 view .LVU27
 205 0004 FFF7FEFF 		bl	i2c_clear_sda
 206              	.LVL14:
 525:user/drivers/u8g2/u8x8_byte.c ****   i2c_delay(u8x8);
 207              		.loc 1 525 3 view .LVU28
 208 0008 2046     		mov	r0, r4
 209 000a FFF7FEFF 		bl	i2c_delay
 210              	.LVL15:
 526:user/drivers/u8g2/u8x8_byte.c ****  
 527:user/drivers/u8g2/u8x8_byte.c ****   /* now release all lines */
 528:user/drivers/u8g2/u8x8_byte.c ****   i2c_read_scl_and_delay(u8x8);
 211              		.loc 1 528 3 view .LVU29
 212 000e 2046     		mov	r0, r4
 213 0010 FFF7FEFF 		bl	i2c_read_scl_and_delay
 214              	.LVL16:
 529:user/drivers/u8g2/u8x8_byte.c ****  
 530:user/drivers/u8g2/u8x8_byte.c ****   /* set SDA to 1 */
 531:user/drivers/u8g2/u8x8_byte.c ****   i2c_read_sda(u8x8);
 215              		.loc 1 531 3 view .LVU30
 216 0014 2046     		mov	r0, r4
 217 0016 FFF7FEFF 		bl	i2c_read_sda
 218              	.LVL17:
 532:user/drivers/u8g2/u8x8_byte.c ****   i2c_delay(u8x8);
 219              		.loc 1 532 3 view .LVU31
 220 001a 2046     		mov	r0, r4
ARM GAS  /var/folders/21/t9g5rlb91ys800n5npymflf80000gn/T//cclzeuEY.s 			page 14


 221 001c FFF7FEFF 		bl	i2c_delay
 222              	.LVL18:
 533:user/drivers/u8g2/u8x8_byte.c ****   u8x8->i2c_started = 0;
 223              		.loc 1 533 3 view .LVU32
 224              		.loc 1 533 21 is_stmt 0 view .LVU33
 225 0020 0023     		movs	r3, #0
 226 0022 84F82530 		strb	r3, [r4, #37]
 534:user/drivers/u8g2/u8x8_byte.c **** }
 227              		.loc 1 534 1 view .LVU34
 228 0026 10BD     		pop	{r4, pc}
 229              		.loc 1 534 1 view .LVU35
 230              		.cfi_endproc
 231              	.LFE20:
 233              		.section	.text.i2c_clear_scl,"ax",%progbits
 234              		.align	1
 235              		.syntax unified
 236              		.thumb
 237              		.thumb_func
 239              	i2c_clear_scl:
 240              	.LVL19:
 241              	.LFB16:
 487:user/drivers/u8g2/u8x8_byte.c ****   u8x8_gpio_SetI2CClock(u8x8, 0);
 242              		.loc 1 487 1 is_stmt 1 view -0
 243              		.cfi_startproc
 244              		@ args = 0, pretend = 0, frame = 0
 245              		@ frame_needed = 0, uses_anonymous_args = 0
 487:user/drivers/u8g2/u8x8_byte.c ****   u8x8_gpio_SetI2CClock(u8x8, 0);
 246              		.loc 1 487 1 is_stmt 0 view .LVU37
 247 0000 08B5     		push	{r3, lr}
 248              	.LCFI6:
 249              		.cfi_def_cfa_offset 8
 250              		.cfi_offset 3, -8
 251              		.cfi_offset 14, -4
 488:user/drivers/u8g2/u8x8_byte.c **** }
 252              		.loc 1 488 3 is_stmt 1 view .LVU38
 253 0002 0022     		movs	r2, #0
 254 0004 4C21     		movs	r1, #76
 255 0006 FFF7FEFF 		bl	u8x8_gpio_call
 256              	.LVL20:
 489:user/drivers/u8g2/u8x8_byte.c **** 
 257              		.loc 1 489 1 is_stmt 0 view .LVU39
 258 000a 08BD     		pop	{r3, pc}
 259              		.cfi_endproc
 260              	.LFE16:
 262              		.section	.text.i2c_start,"ax",%progbits
 263              		.align	1
 264              		.syntax unified
 265              		.thumb
 266              		.thumb_func
 268              	i2c_start:
 269              	.LVL21:
 270              	.LFB19:
 504:user/drivers/u8g2/u8x8_byte.c ****   if ( u8x8->i2c_started != 0 )
 271              		.loc 1 504 1 is_stmt 1 view -0
 272              		.cfi_startproc
 273              		@ args = 0, pretend = 0, frame = 0
 274              		@ frame_needed = 0, uses_anonymous_args = 0
ARM GAS  /var/folders/21/t9g5rlb91ys800n5npymflf80000gn/T//cclzeuEY.s 			page 15


 504:user/drivers/u8g2/u8x8_byte.c ****   if ( u8x8->i2c_started != 0 )
 275              		.loc 1 504 1 is_stmt 0 view .LVU41
 276 0000 10B5     		push	{r4, lr}
 277              	.LCFI7:
 278              		.cfi_def_cfa_offset 8
 279              		.cfi_offset 4, -8
 280              		.cfi_offset 14, -4
 281 0002 0446     		mov	r4, r0
 505:user/drivers/u8g2/u8x8_byte.c ****   {
 282              		.loc 1 505 3 is_stmt 1 view .LVU42
 505:user/drivers/u8g2/u8x8_byte.c ****   {
 283              		.loc 1 505 12 is_stmt 0 view .LVU43
 284 0004 90F82530 		ldrb	r3, [r0, #37]	@ zero_extendqisi2
 505:user/drivers/u8g2/u8x8_byte.c ****   {
 285              		.loc 1 505 6 view .LVU44
 286 0008 7BB9     		cbnz	r3, .L18
 287              	.LVL22:
 288              	.L16:
 512:user/drivers/u8g2/u8x8_byte.c ****   /* send the start condition, both lines go from 1 to 0 */
 289              		.loc 1 512 3 is_stmt 1 view .LVU45
 290 000a 2046     		mov	r0, r4
 291 000c FFF7FEFF 		bl	i2c_read_sda
 292              	.LVL23:
 514:user/drivers/u8g2/u8x8_byte.c ****   i2c_delay(u8x8);
 293              		.loc 1 514 3 view .LVU46
 294 0010 2046     		mov	r0, r4
 295 0012 FFF7FEFF 		bl	i2c_clear_sda
 296              	.LVL24:
 515:user/drivers/u8g2/u8x8_byte.c ****   i2c_clear_scl(u8x8);
 297              		.loc 1 515 3 view .LVU47
 298 0016 2046     		mov	r0, r4
 299 0018 FFF7FEFF 		bl	i2c_delay
 300              	.LVL25:
 516:user/drivers/u8g2/u8x8_byte.c ****   u8x8->i2c_started = 1;
 301              		.loc 1 516 3 view .LVU48
 302 001c 2046     		mov	r0, r4
 303 001e FFF7FEFF 		bl	i2c_clear_scl
 304              	.LVL26:
 517:user/drivers/u8g2/u8x8_byte.c **** }
 305              		.loc 1 517 3 view .LVU49
 517:user/drivers/u8g2/u8x8_byte.c **** }
 306              		.loc 1 517 21 is_stmt 0 view .LVU50
 307 0022 0123     		movs	r3, #1
 308 0024 84F82530 		strb	r3, [r4, #37]
 518:user/drivers/u8g2/u8x8_byte.c **** 
 309              		.loc 1 518 1 view .LVU51
 310 0028 10BD     		pop	{r4, pc}
 311              	.LVL27:
 312              	.L18:
 508:user/drivers/u8g2/u8x8_byte.c ****     i2c_delay(u8x8);
 313              		.loc 1 508 5 is_stmt 1 view .LVU52
 314 002a FFF7FEFF 		bl	i2c_read_sda
 315              	.LVL28:
 509:user/drivers/u8g2/u8x8_byte.c ****     i2c_read_scl_and_delay(u8x8);
 316              		.loc 1 509 5 view .LVU53
 317 002e 2046     		mov	r0, r4
 318 0030 FFF7FEFF 		bl	i2c_delay
ARM GAS  /var/folders/21/t9g5rlb91ys800n5npymflf80000gn/T//cclzeuEY.s 			page 16


 319              	.LVL29:
 510:user/drivers/u8g2/u8x8_byte.c ****   }
 320              		.loc 1 510 5 view .LVU54
 321 0034 2046     		mov	r0, r4
 322 0036 FFF7FEFF 		bl	i2c_read_scl_and_delay
 323              	.LVL30:
 324 003a E6E7     		b	.L16
 325              		.cfi_endproc
 326              	.LFE19:
 328              		.section	.text.i2c_write_bit,"ax",%progbits
 329              		.align	1
 330              		.syntax unified
 331              		.thumb
 332              		.thumb_func
 334              	i2c_write_bit:
 335              	.LVL31:
 336              	.LFB21:
 535:user/drivers/u8g2/u8x8_byte.c **** 
 536:user/drivers/u8g2/u8x8_byte.c **** static void i2c_write_bit(u8x8_t *u8x8, uint8_t val)
 537:user/drivers/u8g2/u8x8_byte.c **** {
 337              		.loc 1 537 1 view -0
 338              		.cfi_startproc
 339              		@ args = 0, pretend = 0, frame = 0
 340              		@ frame_needed = 0, uses_anonymous_args = 0
 341              		.loc 1 537 1 is_stmt 0 view .LVU56
 342 0000 10B5     		push	{r4, lr}
 343              	.LCFI8:
 344              		.cfi_def_cfa_offset 8
 345              		.cfi_offset 4, -8
 346              		.cfi_offset 14, -4
 347 0002 0446     		mov	r4, r0
 538:user/drivers/u8g2/u8x8_byte.c ****   if (val)
 348              		.loc 1 538 3 is_stmt 1 view .LVU57
 349              		.loc 1 538 6 is_stmt 0 view .LVU58
 350 0004 59B1     		cbz	r1, .L20
 539:user/drivers/u8g2/u8x8_byte.c ****     i2c_read_sda(u8x8);
 351              		.loc 1 539 5 is_stmt 1 view .LVU59
 352 0006 FFF7FEFF 		bl	i2c_read_sda
 353              	.LVL32:
 354              	.L21:
 540:user/drivers/u8g2/u8x8_byte.c ****   else
 541:user/drivers/u8g2/u8x8_byte.c ****     i2c_clear_sda(u8x8);
 542:user/drivers/u8g2/u8x8_byte.c ****  
 543:user/drivers/u8g2/u8x8_byte.c ****   i2c_delay(u8x8);
 355              		.loc 1 543 3 view .LVU60
 356 000a 2046     		mov	r0, r4
 357 000c FFF7FEFF 		bl	i2c_delay
 358              	.LVL33:
 544:user/drivers/u8g2/u8x8_byte.c ****   i2c_read_scl_and_delay(u8x8);
 359              		.loc 1 544 3 view .LVU61
 360 0010 2046     		mov	r0, r4
 361 0012 FFF7FEFF 		bl	i2c_read_scl_and_delay
 362              	.LVL34:
 545:user/drivers/u8g2/u8x8_byte.c ****   i2c_clear_scl(u8x8);
 363              		.loc 1 545 3 view .LVU62
 364 0016 2046     		mov	r0, r4
 365 0018 FFF7FEFF 		bl	i2c_clear_scl
ARM GAS  /var/folders/21/t9g5rlb91ys800n5npymflf80000gn/T//cclzeuEY.s 			page 17


 366              	.LVL35:
 546:user/drivers/u8g2/u8x8_byte.c **** }
 367              		.loc 1 546 1 is_stmt 0 view .LVU63
 368 001c 10BD     		pop	{r4, pc}
 369              	.LVL36:
 370              	.L20:
 541:user/drivers/u8g2/u8x8_byte.c ****  
 371              		.loc 1 541 5 is_stmt 1 view .LVU64
 372 001e FFF7FEFF 		bl	i2c_clear_sda
 373              	.LVL37:
 541:user/drivers/u8g2/u8x8_byte.c ****  
 374              		.loc 1 541 5 is_stmt 0 view .LVU65
 375 0022 F2E7     		b	.L21
 376              		.cfi_endproc
 377              	.LFE21:
 379              		.section	.text.i2c_read_bit,"ax",%progbits
 380              		.align	1
 381              		.syntax unified
 382              		.thumb
 383              		.thumb_func
 385              	i2c_read_bit:
 386              	.LVL38:
 387              	.LFB22:
 547:user/drivers/u8g2/u8x8_byte.c **** 
 548:user/drivers/u8g2/u8x8_byte.c **** static void i2c_read_bit(u8x8_t *u8x8)
 549:user/drivers/u8g2/u8x8_byte.c **** {
 388              		.loc 1 549 1 is_stmt 1 view -0
 389              		.cfi_startproc
 390              		@ args = 0, pretend = 0, frame = 0
 391              		@ frame_needed = 0, uses_anonymous_args = 0
 392              		.loc 1 549 1 is_stmt 0 view .LVU67
 393 0000 10B5     		push	{r4, lr}
 394              	.LCFI9:
 395              		.cfi_def_cfa_offset 8
 396              		.cfi_offset 4, -8
 397              		.cfi_offset 14, -4
 398 0002 0446     		mov	r4, r0
 550:user/drivers/u8g2/u8x8_byte.c ****   //uint8_t val;
 551:user/drivers/u8g2/u8x8_byte.c ****   /* do not drive SDA */
 552:user/drivers/u8g2/u8x8_byte.c ****   i2c_read_sda(u8x8);
 399              		.loc 1 552 3 is_stmt 1 view .LVU68
 400 0004 FFF7FEFF 		bl	i2c_read_sda
 401              	.LVL39:
 553:user/drivers/u8g2/u8x8_byte.c ****   i2c_delay(u8x8);
 402              		.loc 1 553 3 view .LVU69
 403 0008 2046     		mov	r0, r4
 404 000a FFF7FEFF 		bl	i2c_delay
 405              	.LVL40:
 554:user/drivers/u8g2/u8x8_byte.c ****   i2c_read_scl_and_delay(u8x8);
 406              		.loc 1 554 3 view .LVU70
 407 000e 2046     		mov	r0, r4
 408 0010 FFF7FEFF 		bl	i2c_read_scl_and_delay
 409              	.LVL41:
 555:user/drivers/u8g2/u8x8_byte.c ****   i2c_read_sda(u8x8);
 410              		.loc 1 555 3 view .LVU71
 411 0014 2046     		mov	r0, r4
 412 0016 FFF7FEFF 		bl	i2c_read_sda
ARM GAS  /var/folders/21/t9g5rlb91ys800n5npymflf80000gn/T//cclzeuEY.s 			page 18


 413              	.LVL42:
 556:user/drivers/u8g2/u8x8_byte.c ****   i2c_delay(u8x8);
 414              		.loc 1 556 3 view .LVU72
 415 001a 2046     		mov	r0, r4
 416 001c FFF7FEFF 		bl	i2c_delay
 417              	.LVL43:
 557:user/drivers/u8g2/u8x8_byte.c ****   i2c_clear_scl(u8x8);
 418              		.loc 1 557 3 view .LVU73
 419 0020 2046     		mov	r0, r4
 420 0022 FFF7FEFF 		bl	i2c_clear_scl
 421              	.LVL44:
 558:user/drivers/u8g2/u8x8_byte.c ****   //return val;
 559:user/drivers/u8g2/u8x8_byte.c **** }
 422              		.loc 1 559 1 is_stmt 0 view .LVU74
 423 0026 10BD     		pop	{r4, pc}
 424              		.loc 1 559 1 view .LVU75
 425              		.cfi_endproc
 426              	.LFE22:
 428              		.section	.text.i2c_write_byte,"ax",%progbits
 429              		.align	1
 430              		.syntax unified
 431              		.thumb
 432              		.thumb_func
 434              	i2c_write_byte:
 435              	.LVL45:
 436              	.LFB23:
 560:user/drivers/u8g2/u8x8_byte.c **** 
 561:user/drivers/u8g2/u8x8_byte.c **** static void i2c_write_byte(u8x8_t *u8x8, uint8_t b)
 562:user/drivers/u8g2/u8x8_byte.c **** {
 437              		.loc 1 562 1 is_stmt 1 view -0
 438              		.cfi_startproc
 439              		@ args = 0, pretend = 0, frame = 0
 440              		@ frame_needed = 0, uses_anonymous_args = 0
 441              		.loc 1 562 1 is_stmt 0 view .LVU77
 442 0000 38B5     		push	{r3, r4, r5, lr}
 443              	.LCFI10:
 444              		.cfi_def_cfa_offset 16
 445              		.cfi_offset 3, -16
 446              		.cfi_offset 4, -12
 447              		.cfi_offset 5, -8
 448              		.cfi_offset 14, -4
 449 0002 0446     		mov	r4, r0
 450 0004 0D46     		mov	r5, r1
 563:user/drivers/u8g2/u8x8_byte.c ****   i2c_write_bit(u8x8, b & 128);
 451              		.loc 1 563 3 is_stmt 1 view .LVU78
 452 0006 01F08001 		and	r1, r1, #128
 453              	.LVL46:
 454              		.loc 1 563 3 is_stmt 0 view .LVU79
 455 000a FFF7FEFF 		bl	i2c_write_bit
 456              	.LVL47:
 564:user/drivers/u8g2/u8x8_byte.c ****   i2c_write_bit(u8x8, b & 64);
 457              		.loc 1 564 3 is_stmt 1 view .LVU80
 458 000e 05F04001 		and	r1, r5, #64
 459 0012 2046     		mov	r0, r4
 460 0014 FFF7FEFF 		bl	i2c_write_bit
 461              	.LVL48:
 565:user/drivers/u8g2/u8x8_byte.c ****   i2c_write_bit(u8x8, b & 32);
ARM GAS  /var/folders/21/t9g5rlb91ys800n5npymflf80000gn/T//cclzeuEY.s 			page 19


 462              		.loc 1 565 3 view .LVU81
 463 0018 05F02001 		and	r1, r5, #32
 464 001c 2046     		mov	r0, r4
 465 001e FFF7FEFF 		bl	i2c_write_bit
 466              	.LVL49:
 566:user/drivers/u8g2/u8x8_byte.c ****   i2c_write_bit(u8x8, b & 16);
 467              		.loc 1 566 3 view .LVU82
 468 0022 05F01001 		and	r1, r5, #16
 469 0026 2046     		mov	r0, r4
 470 0028 FFF7FEFF 		bl	i2c_write_bit
 471              	.LVL50:
 567:user/drivers/u8g2/u8x8_byte.c ****   i2c_write_bit(u8x8, b & 8);
 472              		.loc 1 567 3 view .LVU83
 473 002c 05F00801 		and	r1, r5, #8
 474 0030 2046     		mov	r0, r4
 475 0032 FFF7FEFF 		bl	i2c_write_bit
 476              	.LVL51:
 568:user/drivers/u8g2/u8x8_byte.c ****   i2c_write_bit(u8x8, b & 4);
 477              		.loc 1 568 3 view .LVU84
 478 0036 05F00401 		and	r1, r5, #4
 479 003a 2046     		mov	r0, r4
 480 003c FFF7FEFF 		bl	i2c_write_bit
 481              	.LVL52:
 569:user/drivers/u8g2/u8x8_byte.c ****   i2c_write_bit(u8x8, b & 2);
 482              		.loc 1 569 3 view .LVU85
 483 0040 05F00201 		and	r1, r5, #2
 484 0044 2046     		mov	r0, r4
 485 0046 FFF7FEFF 		bl	i2c_write_bit
 486              	.LVL53:
 570:user/drivers/u8g2/u8x8_byte.c ****   i2c_write_bit(u8x8, b & 1);
 487              		.loc 1 570 3 view .LVU86
 488 004a 05F00101 		and	r1, r5, #1
 489 004e 2046     		mov	r0, r4
 490 0050 FFF7FEFF 		bl	i2c_write_bit
 491              	.LVL54:
 571:user/drivers/u8g2/u8x8_byte.c ****     
 572:user/drivers/u8g2/u8x8_byte.c ****   /* read ack from client */
 573:user/drivers/u8g2/u8x8_byte.c ****   /* 0: ack was given by client */
 574:user/drivers/u8g2/u8x8_byte.c ****   /* 1: nothing happend during ack cycle */  
 575:user/drivers/u8g2/u8x8_byte.c ****   i2c_read_bit(u8x8);
 492              		.loc 1 575 3 view .LVU87
 493 0054 2046     		mov	r0, r4
 494 0056 FFF7FEFF 		bl	i2c_read_bit
 495              	.LVL55:
 576:user/drivers/u8g2/u8x8_byte.c **** }
 496              		.loc 1 576 1 is_stmt 0 view .LVU88
 497 005a 38BD     		pop	{r3, r4, r5, pc}
 498              		.loc 1 576 1 view .LVU89
 499              		.cfi_endproc
 500              	.LFE23:
 502              		.section	.text.u8x8_byte_SetDC,"ax",%progbits
 503              		.align	1
 504              		.global	u8x8_byte_SetDC
 505              		.syntax unified
 506              		.thumb
 507              		.thumb_func
 509              	u8x8_byte_SetDC:
ARM GAS  /var/folders/21/t9g5rlb91ys800n5npymflf80000gn/T//cclzeuEY.s 			page 20


 510              	.LVL56:
 511              	.LFB0:
  40:user/drivers/u8g2/u8x8_byte.c ****   return u8x8->byte_cb(u8x8, U8X8_MSG_BYTE_SET_DC, dc, NULL);
 512              		.loc 1 40 1 is_stmt 1 view -0
 513              		.cfi_startproc
 514              		@ args = 0, pretend = 0, frame = 0
 515              		@ frame_needed = 0, uses_anonymous_args = 0
  40:user/drivers/u8g2/u8x8_byte.c ****   return u8x8->byte_cb(u8x8, U8X8_MSG_BYTE_SET_DC, dc, NULL);
 516              		.loc 1 40 1 is_stmt 0 view .LVU91
 517 0000 10B5     		push	{r4, lr}
 518              	.LCFI11:
 519              		.cfi_def_cfa_offset 8
 520              		.cfi_offset 4, -8
 521              		.cfi_offset 14, -4
 522 0002 0A46     		mov	r2, r1
  41:user/drivers/u8g2/u8x8_byte.c **** }
 523              		.loc 1 41 3 is_stmt 1 view .LVU92
  41:user/drivers/u8g2/u8x8_byte.c **** }
 524              		.loc 1 41 14 is_stmt 0 view .LVU93
 525 0004 0469     		ldr	r4, [r0, #16]
  41:user/drivers/u8g2/u8x8_byte.c **** }
 526              		.loc 1 41 10 view .LVU94
 527 0006 0023     		movs	r3, #0
 528 0008 2021     		movs	r1, #32
 529              	.LVL57:
  41:user/drivers/u8g2/u8x8_byte.c **** }
 530              		.loc 1 41 10 view .LVU95
 531 000a A047     		blx	r4
 532              	.LVL58:
  42:user/drivers/u8g2/u8x8_byte.c **** 
 533              		.loc 1 42 1 view .LVU96
 534 000c 10BD     		pop	{r4, pc}
 535              		.cfi_endproc
 536              	.LFE0:
 538              		.section	.text.u8x8_byte_SendBytes,"ax",%progbits
 539              		.align	1
 540              		.global	u8x8_byte_SendBytes
 541              		.syntax unified
 542              		.thumb
 543              		.thumb_func
 545              	u8x8_byte_SendBytes:
 546              	.LVL59:
 547              	.LFB1:
  45:user/drivers/u8g2/u8x8_byte.c ****   return u8x8->byte_cb(u8x8, U8X8_MSG_BYTE_SEND, cnt, (void *)data);
 548              		.loc 1 45 1 is_stmt 1 view -0
 549              		.cfi_startproc
 550              		@ args = 0, pretend = 0, frame = 0
 551              		@ frame_needed = 0, uses_anonymous_args = 0
  45:user/drivers/u8g2/u8x8_byte.c ****   return u8x8->byte_cb(u8x8, U8X8_MSG_BYTE_SEND, cnt, (void *)data);
 552              		.loc 1 45 1 is_stmt 0 view .LVU98
 553 0000 10B5     		push	{r4, lr}
 554              	.LCFI12:
 555              		.cfi_def_cfa_offset 8
 556              		.cfi_offset 4, -8
 557              		.cfi_offset 14, -4
 558 0002 1346     		mov	r3, r2
  46:user/drivers/u8g2/u8x8_byte.c **** }
ARM GAS  /var/folders/21/t9g5rlb91ys800n5npymflf80000gn/T//cclzeuEY.s 			page 21


 559              		.loc 1 46 3 is_stmt 1 view .LVU99
  46:user/drivers/u8g2/u8x8_byte.c **** }
 560              		.loc 1 46 14 is_stmt 0 view .LVU100
 561 0004 0469     		ldr	r4, [r0, #16]
  46:user/drivers/u8g2/u8x8_byte.c **** }
 562              		.loc 1 46 10 view .LVU101
 563 0006 0A46     		mov	r2, r1
 564              	.LVL60:
  46:user/drivers/u8g2/u8x8_byte.c **** }
 565              		.loc 1 46 10 view .LVU102
 566 0008 1721     		movs	r1, #23
 567              	.LVL61:
  46:user/drivers/u8g2/u8x8_byte.c **** }
 568              		.loc 1 46 10 view .LVU103
 569 000a A047     		blx	r4
 570              	.LVL62:
  47:user/drivers/u8g2/u8x8_byte.c **** 
 571              		.loc 1 47 1 view .LVU104
 572 000c 10BD     		pop	{r4, pc}
 573              		.cfi_endproc
 574              	.LFE1:
 576              		.section	.text.u8x8_byte_SendByte,"ax",%progbits
 577              		.align	1
 578              		.global	u8x8_byte_SendByte
 579              		.syntax unified
 580              		.thumb
 581              		.thumb_func
 583              	u8x8_byte_SendByte:
 584              	.LVL63:
 585              	.LFB2:
  50:user/drivers/u8g2/u8x8_byte.c ****   return u8x8_byte_SendBytes(u8x8, 1, &byte);
 586              		.loc 1 50 1 is_stmt 1 view -0
 587              		.cfi_startproc
 588              		@ args = 0, pretend = 0, frame = 8
 589              		@ frame_needed = 0, uses_anonymous_args = 0
  50:user/drivers/u8g2/u8x8_byte.c ****   return u8x8_byte_SendBytes(u8x8, 1, &byte);
 590              		.loc 1 50 1 is_stmt 0 view .LVU106
 591 0000 00B5     		push	{lr}
 592              	.LCFI13:
 593              		.cfi_def_cfa_offset 4
 594              		.cfi_offset 14, -4
 595 0002 83B0     		sub	sp, sp, #12
 596              	.LCFI14:
 597              		.cfi_def_cfa_offset 16
 598 0004 8DF80710 		strb	r1, [sp, #7]
  51:user/drivers/u8g2/u8x8_byte.c **** }
 599              		.loc 1 51 3 is_stmt 1 view .LVU107
  51:user/drivers/u8g2/u8x8_byte.c **** }
 600              		.loc 1 51 10 is_stmt 0 view .LVU108
 601 0008 0DF10702 		add	r2, sp, #7
 602 000c 0121     		movs	r1, #1
 603              	.LVL64:
  51:user/drivers/u8g2/u8x8_byte.c **** }
 604              		.loc 1 51 10 view .LVU109
 605 000e FFF7FEFF 		bl	u8x8_byte_SendBytes
 606              	.LVL65:
  52:user/drivers/u8g2/u8x8_byte.c **** 
ARM GAS  /var/folders/21/t9g5rlb91ys800n5npymflf80000gn/T//cclzeuEY.s 			page 22


 607              		.loc 1 52 1 view .LVU110
 608 0012 03B0     		add	sp, sp, #12
 609              	.LCFI15:
 610              		.cfi_def_cfa_offset 4
 611              		@ sp needed
 612 0014 5DF804FB 		ldr	pc, [sp], #4
 613              		.cfi_endproc
 614              	.LFE2:
 616              		.section	.text.u8x8_byte_StartTransfer,"ax",%progbits
 617              		.align	1
 618              		.global	u8x8_byte_StartTransfer
 619              		.syntax unified
 620              		.thumb
 621              		.thumb_func
 623              	u8x8_byte_StartTransfer:
 624              	.LVL66:
 625              	.LFB3:
  55:user/drivers/u8g2/u8x8_byte.c ****   return u8x8->byte_cb(u8x8, U8X8_MSG_BYTE_START_TRANSFER, 0, NULL);
 626              		.loc 1 55 1 is_stmt 1 view -0
 627              		.cfi_startproc
 628              		@ args = 0, pretend = 0, frame = 0
 629              		@ frame_needed = 0, uses_anonymous_args = 0
  55:user/drivers/u8g2/u8x8_byte.c ****   return u8x8->byte_cb(u8x8, U8X8_MSG_BYTE_START_TRANSFER, 0, NULL);
 630              		.loc 1 55 1 is_stmt 0 view .LVU112
 631 0000 10B5     		push	{r4, lr}
 632              	.LCFI16:
 633              		.cfi_def_cfa_offset 8
 634              		.cfi_offset 4, -8
 635              		.cfi_offset 14, -4
  56:user/drivers/u8g2/u8x8_byte.c **** }
 636              		.loc 1 56 3 is_stmt 1 view .LVU113
  56:user/drivers/u8g2/u8x8_byte.c **** }
 637              		.loc 1 56 14 is_stmt 0 view .LVU114
 638 0002 0469     		ldr	r4, [r0, #16]
  56:user/drivers/u8g2/u8x8_byte.c **** }
 639              		.loc 1 56 10 view .LVU115
 640 0004 0023     		movs	r3, #0
 641 0006 1A46     		mov	r2, r3
 642 0008 1821     		movs	r1, #24
 643 000a A047     		blx	r4
 644              	.LVL67:
  57:user/drivers/u8g2/u8x8_byte.c **** 
 645              		.loc 1 57 1 view .LVU116
 646 000c 10BD     		pop	{r4, pc}
 647              		.cfi_endproc
 648              	.LFE3:
 650              		.section	.text.u8x8_byte_EndTransfer,"ax",%progbits
 651              		.align	1
 652              		.global	u8x8_byte_EndTransfer
 653              		.syntax unified
 654              		.thumb
 655              		.thumb_func
 657              	u8x8_byte_EndTransfer:
 658              	.LVL68:
 659              	.LFB4:
  60:user/drivers/u8g2/u8x8_byte.c ****   return u8x8->byte_cb(u8x8, U8X8_MSG_BYTE_END_TRANSFER, 0, NULL);
 660              		.loc 1 60 1 is_stmt 1 view -0
ARM GAS  /var/folders/21/t9g5rlb91ys800n5npymflf80000gn/T//cclzeuEY.s 			page 23


 661              		.cfi_startproc
 662              		@ args = 0, pretend = 0, frame = 0
 663              		@ frame_needed = 0, uses_anonymous_args = 0
  60:user/drivers/u8g2/u8x8_byte.c ****   return u8x8->byte_cb(u8x8, U8X8_MSG_BYTE_END_TRANSFER, 0, NULL);
 664              		.loc 1 60 1 is_stmt 0 view .LVU118
 665 0000 10B5     		push	{r4, lr}
 666              	.LCFI17:
 667              		.cfi_def_cfa_offset 8
 668              		.cfi_offset 4, -8
 669              		.cfi_offset 14, -4
  61:user/drivers/u8g2/u8x8_byte.c **** }
 670              		.loc 1 61 3 is_stmt 1 view .LVU119
  61:user/drivers/u8g2/u8x8_byte.c **** }
 671              		.loc 1 61 14 is_stmt 0 view .LVU120
 672 0002 0469     		ldr	r4, [r0, #16]
  61:user/drivers/u8g2/u8x8_byte.c **** }
 673              		.loc 1 61 10 view .LVU121
 674 0004 0023     		movs	r3, #0
 675 0006 1A46     		mov	r2, r3
 676 0008 1921     		movs	r1, #25
 677 000a A047     		blx	r4
 678              	.LVL69:
  62:user/drivers/u8g2/u8x8_byte.c **** 
 679              		.loc 1 62 1 view .LVU122
 680 000c 10BD     		pop	{r4, pc}
 681              		.cfi_endproc
 682              	.LFE4:
 684              		.section	.text.u8x8_byte_empty,"ax",%progbits
 685              		.align	1
 686              		.global	u8x8_byte_empty
 687              		.syntax unified
 688              		.thumb
 689              		.thumb_func
 691              	u8x8_byte_empty:
 692              	.LVL70:
 693              	.LFB5:
  67:user/drivers/u8g2/u8x8_byte.c ****   switch(msg)
 694              		.loc 1 67 1 is_stmt 1 view -0
 695              		.cfi_startproc
 696              		@ args = 0, pretend = 0, frame = 0
 697              		@ frame_needed = 0, uses_anonymous_args = 0
 698              		@ link register save eliminated.
  68:user/drivers/u8g2/u8x8_byte.c ****   {
 699              		.loc 1 68 3 view .LVU124
  77:user/drivers/u8g2/u8x8_byte.c **** }
 700              		.loc 1 77 3 view .LVU125
  78:user/drivers/u8g2/u8x8_byte.c **** 
 701              		.loc 1 78 1 is_stmt 0 view .LVU126
 702 0000 0120     		movs	r0, #1
 703              	.LVL71:
  78:user/drivers/u8g2/u8x8_byte.c **** 
 704              		.loc 1 78 1 view .LVU127
 705 0002 7047     		bx	lr
 706              		.cfi_endproc
 707              	.LFE5:
 709              		.section	.text.u8x8_byte_4wire_sw_spi,"ax",%progbits
 710              		.align	1
ARM GAS  /var/folders/21/t9g5rlb91ys800n5npymflf80000gn/T//cclzeuEY.s 			page 24


 711              		.global	u8x8_byte_4wire_sw_spi
 712              		.syntax unified
 713              		.thumb
 714              		.thumb_func
 716              	u8x8_byte_4wire_sw_spi:
 717              	.LVL72:
 718              	.LFB6:
 108:user/drivers/u8g2/u8x8_byte.c ****   uint8_t i, b;
 719              		.loc 1 108 1 is_stmt 1 view -0
 720              		.cfi_startproc
 721              		@ args = 0, pretend = 0, frame = 0
 722              		@ frame_needed = 0, uses_anonymous_args = 0
 108:user/drivers/u8g2/u8x8_byte.c ****   uint8_t i, b;
 723              		.loc 1 108 1 is_stmt 0 view .LVU129
 724 0000 2DE9F047 		push	{r4, r5, r6, r7, r8, r9, r10, lr}
 725              	.LCFI18:
 726              		.cfi_def_cfa_offset 32
 727              		.cfi_offset 4, -32
 728              		.cfi_offset 5, -28
 729              		.cfi_offset 6, -24
 730              		.cfi_offset 7, -20
 731              		.cfi_offset 8, -16
 732              		.cfi_offset 9, -12
 733              		.cfi_offset 10, -8
 734              		.cfi_offset 14, -4
 735 0004 0446     		mov	r4, r0
 736 0006 9146     		mov	r9, r2
 737 0008 9A46     		mov	r10, r3
 109:user/drivers/u8g2/u8x8_byte.c ****   uint8_t *data;
 738              		.loc 1 109 3 is_stmt 1 view .LVU130
 110:user/drivers/u8g2/u8x8_byte.c ****   uint8_t takeover_edge = u8x8_GetSPIClockPhase(u8x8);
 739              		.loc 1 110 3 view .LVU131
 111:user/drivers/u8g2/u8x8_byte.c ****   uint8_t not_takeover_edge = 1 - takeover_edge;
 740              		.loc 1 111 3 view .LVU132
 111:user/drivers/u8g2/u8x8_byte.c ****   uint8_t not_takeover_edge = 1 - takeover_edge;
 741              		.loc 1 111 27 is_stmt 0 view .LVU133
 742 000a 0268     		ldr	r2, [r0]
 743              	.LVL73:
 111:user/drivers/u8g2/u8x8_byte.c ****   uint8_t not_takeover_edge = 1 - takeover_edge;
 744              		.loc 1 111 27 view .LVU134
 745 000c 177B     		ldrb	r7, [r2, #12]	@ zero_extendqisi2
 111:user/drivers/u8g2/u8x8_byte.c ****   uint8_t not_takeover_edge = 1 - takeover_edge;
 746              		.loc 1 111 11 view .LVU135
 747 000e 07F00107 		and	r7, r7, #1
 748              	.LVL74:
 112:user/drivers/u8g2/u8x8_byte.c ****  
 749              		.loc 1 112 3 is_stmt 1 view .LVU136
 112:user/drivers/u8g2/u8x8_byte.c ****  
 750              		.loc 1 112 11 is_stmt 0 view .LVU137
 751 0012 87F00108 		eor	r8, r7, #1
 752              	.LVL75:
 114:user/drivers/u8g2/u8x8_byte.c ****   {
 753              		.loc 1 114 3 is_stmt 1 view .LVU138
 754 0016 1439     		subs	r1, r1, #20
 755              	.LVL76:
 114:user/drivers/u8g2/u8x8_byte.c ****   {
 756              		.loc 1 114 3 is_stmt 0 view .LVU139
ARM GAS  /var/folders/21/t9g5rlb91ys800n5npymflf80000gn/T//cclzeuEY.s 			page 25


 757 0018 0C29     		cmp	r1, #12
 758 001a 6DD8     		bhi	.L51
 759 001c DFE801F0 		tbb	[pc, r1]
 760              	.LVL77:
 761              	.L41:
 762 0020 3E       		.byte	(.L45-.L41)/2
 763 0021 6C       		.byte	(.L51-.L41)/2
 764 0022 6C       		.byte	(.L51-.L41)/2
 765 0023 31       		.byte	(.L44-.L41)/2
 766 0024 52       		.byte	(.L43-.L41)/2
 767 0025 5F       		.byte	(.L42-.L41)/2
 768 0026 6C       		.byte	(.L51-.L41)/2
 769 0027 6C       		.byte	(.L51-.L41)/2
 770 0028 6C       		.byte	(.L51-.L41)/2
 771 0029 6C       		.byte	(.L51-.L41)/2
 772 002a 6C       		.byte	(.L51-.L41)/2
 773 002b 6C       		.byte	(.L51-.L41)/2
 774 002c 4C       		.byte	(.L40-.L41)/2
 775 002d 00       		.p2align 1
 776              	.L47:
 128:user/drivers/u8g2/u8x8_byte.c **** 	  b <<= 1;
 777              		.loc 1 128 6 is_stmt 1 view .LVU140
 778 002e 0022     		movs	r2, #0
 779 0030 4121     		movs	r1, #65
 780 0032 2046     		mov	r0, r4
 781 0034 FFF7FEFF 		bl	u8x8_gpio_call
 782              	.LVL78:
 783              	.L48:
 129:user/drivers/u8g2/u8x8_byte.c **** 	  
 784              		.loc 1 129 4 discriminator 2 view .LVU141
 129:user/drivers/u8g2/u8x8_byte.c **** 	  
 785              		.loc 1 129 6 is_stmt 0 discriminator 2 view .LVU142
 786 0038 7600     		lsls	r6, r6, #1
 787              	.LVL79:
 129:user/drivers/u8g2/u8x8_byte.c **** 	  
 788              		.loc 1 129 6 discriminator 2 view .LVU143
 789 003a F6B2     		uxtb	r6, r6
 790              	.LVL80:
 131:user/drivers/u8g2/u8x8_byte.c **** 	  u8x8_gpio_Delay(u8x8, U8X8_MSG_DELAY_NANO, u8x8->display_info->sda_setup_time_ns);
 791              		.loc 1 131 4 is_stmt 1 discriminator 2 view .LVU144
 792 003c 4246     		mov	r2, r8
 793 003e 4021     		movs	r1, #64
 794 0040 2046     		mov	r0, r4
 795 0042 FFF7FEFF 		bl	u8x8_gpio_call
 796              	.LVL81:
 132:user/drivers/u8g2/u8x8_byte.c **** 	  u8x8_gpio_SetSPIClock(u8x8, takeover_edge);
 797              		.loc 1 132 4 discriminator 2 view .LVU145
 798 0046 2368     		ldr	r3, [r4]
 799 0048 9A79     		ldrb	r2, [r3, #6]	@ zero_extendqisi2
 800 004a 2C21     		movs	r1, #44
 801 004c 2046     		mov	r0, r4
 802 004e FFF7FEFF 		bl	u8x8_gpio_call
 803              	.LVL82:
 133:user/drivers/u8g2/u8x8_byte.c **** 	  u8x8_gpio_Delay(u8x8, U8X8_MSG_DELAY_NANO, u8x8->display_info->sck_pulse_width_ns);
 804              		.loc 1 133 4 discriminator 2 view .LVU146
 805 0052 3A46     		mov	r2, r7
 806 0054 4021     		movs	r1, #64
ARM GAS  /var/folders/21/t9g5rlb91ys800n5npymflf80000gn/T//cclzeuEY.s 			page 26


 807 0056 2046     		mov	r0, r4
 808 0058 FFF7FEFF 		bl	u8x8_gpio_call
 809              	.LVL83:
 134:user/drivers/u8g2/u8x8_byte.c **** 	}    
 810              		.loc 1 134 4 discriminator 2 view .LVU147
 811 005c 2368     		ldr	r3, [r4]
 812 005e DA79     		ldrb	r2, [r3, #7]	@ zero_extendqisi2
 813 0060 2C21     		movs	r1, #44
 814 0062 2046     		mov	r0, r4
 815 0064 FFF7FEFF 		bl	u8x8_gpio_call
 816              	.LVL84:
 123:user/drivers/u8g2/u8x8_byte.c **** 	{
 817              		.loc 1 123 22 discriminator 2 view .LVU148
 818 0068 0135     		adds	r5, r5, #1
 819              	.LVL85:
 123:user/drivers/u8g2/u8x8_byte.c **** 	{
 820              		.loc 1 123 22 is_stmt 0 discriminator 2 view .LVU149
 821 006a EDB2     		uxtb	r5, r5
 822              	.LVL86:
 823              	.L46:
 123:user/drivers/u8g2/u8x8_byte.c **** 	{
 824              		.loc 1 123 16 is_stmt 1 discriminator 1 view .LVU150
 825 006c 072D     		cmp	r5, #7
 826 006e 08D8     		bhi	.L44
 125:user/drivers/u8g2/u8x8_byte.c **** 	    u8x8_gpio_SetSPIData(u8x8, 1);
 827              		.loc 1 125 4 view .LVU151
 125:user/drivers/u8g2/u8x8_byte.c **** 	    u8x8_gpio_SetSPIData(u8x8, 1);
 828              		.loc 1 125 7 is_stmt 0 view .LVU152
 829 0070 16F0800F 		tst	r6, #128
 830 0074 DBD0     		beq	.L47
 126:user/drivers/u8g2/u8x8_byte.c **** 	  else
 831              		.loc 1 126 6 is_stmt 1 view .LVU153
 832 0076 0122     		movs	r2, #1
 833 0078 4121     		movs	r1, #65
 834 007a 2046     		mov	r0, r4
 835 007c FFF7FEFF 		bl	u8x8_gpio_call
 836              	.LVL87:
 837 0080 DAE7     		b	.L48
 838              	.LVL88:
 839              	.L44:
 118:user/drivers/u8g2/u8x8_byte.c ****       {
 840              		.loc 1 118 22 view .LVU154
 841 0082 B9F1000F 		cmp	r9, #0
 842 0086 07D0     		beq	.L54
 120:user/drivers/u8g2/u8x8_byte.c **** 	data++;
 843              		.loc 1 120 2 view .LVU155
 120:user/drivers/u8g2/u8x8_byte.c **** 	data++;
 844              		.loc 1 120 4 is_stmt 0 view .LVU156
 845 0088 1AF8016B 		ldrb	r6, [r10], #1	@ zero_extendqisi2
 846              	.LVL89:
 121:user/drivers/u8g2/u8x8_byte.c **** 	arg_int--;
 847              		.loc 1 121 2 is_stmt 1 view .LVU157
 122:user/drivers/u8g2/u8x8_byte.c **** 	for( i = 0; i < 8; i++ )
 848              		.loc 1 122 2 view .LVU158
 122:user/drivers/u8g2/u8x8_byte.c **** 	for( i = 0; i < 8; i++ )
 849              		.loc 1 122 9 is_stmt 0 view .LVU159
 850 008c 09F1FF39 		add	r9, r9, #-1
ARM GAS  /var/folders/21/t9g5rlb91ys800n5npymflf80000gn/T//cclzeuEY.s 			page 27


 851              	.LVL90:
 122:user/drivers/u8g2/u8x8_byte.c **** 	for( i = 0; i < 8; i++ )
 852              		.loc 1 122 9 view .LVU160
 853 0090 5FFA89F9 		uxtb	r9, r9
 854              	.LVL91:
 123:user/drivers/u8g2/u8x8_byte.c **** 	{
 855              		.loc 1 123 2 is_stmt 1 view .LVU161
 123:user/drivers/u8g2/u8x8_byte.c **** 	{
 856              		.loc 1 123 9 is_stmt 0 view .LVU162
 857 0094 0025     		movs	r5, #0
 123:user/drivers/u8g2/u8x8_byte.c **** 	{
 858              		.loc 1 123 2 view .LVU163
 859 0096 E9E7     		b	.L46
 860              	.LVL92:
 861              	.L54:
 161:user/drivers/u8g2/u8x8_byte.c **** }
 862              		.loc 1 161 10 view .LVU164
 863 0098 0120     		movs	r0, #1
 864 009a 2EE0     		b	.L39
 865              	.LVL93:
 866              	.L45:
 141:user/drivers/u8g2/u8x8_byte.c ****       /* no wait required here */
 867              		.loc 1 141 7 is_stmt 1 view .LVU165
 868 009c 5278     		ldrb	r2, [r2, #1]	@ zero_extendqisi2
 869 009e 4921     		movs	r1, #73
 870 00a0 FFF7FEFF 		bl	u8x8_gpio_call
 871              	.LVL94:
 145:user/drivers/u8g2/u8x8_byte.c ****       break;
 872              		.loc 1 145 7 view .LVU166
 873 00a4 2368     		ldr	r3, [r4]
 874 00a6 1A7B     		ldrb	r2, [r3, #12]	@ zero_extendqisi2
 875 00a8 02F00102 		and	r2, r2, #1
 876 00ac 4021     		movs	r1, #64
 877 00ae 2046     		mov	r0, r4
 878 00b0 FFF7FEFF 		bl	u8x8_gpio_call
 879              	.LVL95:
 146:user/drivers/u8g2/u8x8_byte.c ****     case U8X8_MSG_BYTE_SET_DC:
 880              		.loc 1 146 7 view .LVU167
 161:user/drivers/u8g2/u8x8_byte.c **** }
 881              		.loc 1 161 10 is_stmt 0 view .LVU168
 882 00b4 0120     		movs	r0, #1
 146:user/drivers/u8g2/u8x8_byte.c ****     case U8X8_MSG_BYTE_SET_DC:
 883              		.loc 1 146 7 view .LVU169
 884 00b6 20E0     		b	.L39
 885              	.LVL96:
 886              	.L40:
 148:user/drivers/u8g2/u8x8_byte.c ****       break;
 887              		.loc 1 148 7 is_stmt 1 view .LVU170
 888 00b8 4A46     		mov	r2, r9
 889 00ba 4A21     		movs	r1, #74
 890 00bc FFF7FEFF 		bl	u8x8_gpio_call
 891              	.LVL97:
 149:user/drivers/u8g2/u8x8_byte.c ****     case U8X8_MSG_BYTE_START_TRANSFER:
 892              		.loc 1 149 7 view .LVU171
 161:user/drivers/u8g2/u8x8_byte.c **** }
 893              		.loc 1 161 10 is_stmt 0 view .LVU172
 894 00c0 0120     		movs	r0, #1
ARM GAS  /var/folders/21/t9g5rlb91ys800n5npymflf80000gn/T//cclzeuEY.s 			page 28


 149:user/drivers/u8g2/u8x8_byte.c ****     case U8X8_MSG_BYTE_START_TRANSFER:
 895              		.loc 1 149 7 view .LVU173
 896 00c2 1AE0     		b	.L39
 897              	.LVL98:
 898              	.L43:
 151:user/drivers/u8g2/u8x8_byte.c ****       u8x8->gpio_and_delay_cb(u8x8, U8X8_MSG_DELAY_NANO, u8x8->display_info->post_chip_enable_wait_
 899              		.loc 1 151 7 is_stmt 1 view .LVU174
 900 00c4 1278     		ldrb	r2, [r2]	@ zero_extendqisi2
 901 00c6 4921     		movs	r1, #73
 902 00c8 FFF7FEFF 		bl	u8x8_gpio_call
 903              	.LVL99:
 152:user/drivers/u8g2/u8x8_byte.c ****       break;
 904              		.loc 1 152 7 view .LVU175
 152:user/drivers/u8g2/u8x8_byte.c ****       break;
 905              		.loc 1 152 11 is_stmt 0 view .LVU176
 906 00cc 6569     		ldr	r5, [r4, #20]
 152:user/drivers/u8g2/u8x8_byte.c ****       break;
 907              		.loc 1 152 62 view .LVU177
 908 00ce 2268     		ldr	r2, [r4]
 152:user/drivers/u8g2/u8x8_byte.c ****       break;
 909              		.loc 1 152 7 view .LVU178
 910 00d0 0023     		movs	r3, #0
 911 00d2 9278     		ldrb	r2, [r2, #2]	@ zero_extendqisi2
 912 00d4 2C21     		movs	r1, #44
 913 00d6 2046     		mov	r0, r4
 914 00d8 A847     		blx	r5
 915              	.LVL100:
 153:user/drivers/u8g2/u8x8_byte.c ****     case U8X8_MSG_BYTE_END_TRANSFER:
 916              		.loc 1 153 7 is_stmt 1 view .LVU179
 161:user/drivers/u8g2/u8x8_byte.c **** }
 917              		.loc 1 161 10 is_stmt 0 view .LVU180
 918 00da 0120     		movs	r0, #1
 153:user/drivers/u8g2/u8x8_byte.c ****     case U8X8_MSG_BYTE_END_TRANSFER:
 919              		.loc 1 153 7 view .LVU181
 920 00dc 0DE0     		b	.L39
 921              	.LVL101:
 922              	.L42:
 155:user/drivers/u8g2/u8x8_byte.c ****       u8x8_gpio_SetCS(u8x8, u8x8->display_info->chip_disable_level);
 923              		.loc 1 155 7 is_stmt 1 view .LVU182
 155:user/drivers/u8g2/u8x8_byte.c ****       u8x8_gpio_SetCS(u8x8, u8x8->display_info->chip_disable_level);
 924              		.loc 1 155 11 is_stmt 0 view .LVU183
 925 00de 4569     		ldr	r5, [r0, #20]
 155:user/drivers/u8g2/u8x8_byte.c ****       u8x8_gpio_SetCS(u8x8, u8x8->display_info->chip_disable_level);
 926              		.loc 1 155 7 view .LVU184
 927 00e0 0023     		movs	r3, #0
 928 00e2 D278     		ldrb	r2, [r2, #3]	@ zero_extendqisi2
 929 00e4 2C21     		movs	r1, #44
 930 00e6 A847     		blx	r5
 931              	.LVL102:
 156:user/drivers/u8g2/u8x8_byte.c ****       break;
 932              		.loc 1 156 7 is_stmt 1 view .LVU185
 933 00e8 2368     		ldr	r3, [r4]
 934 00ea 5A78     		ldrb	r2, [r3, #1]	@ zero_extendqisi2
 935 00ec 4921     		movs	r1, #73
 936 00ee 2046     		mov	r0, r4
 937 00f0 FFF7FEFF 		bl	u8x8_gpio_call
 938              	.LVL103:
ARM GAS  /var/folders/21/t9g5rlb91ys800n5npymflf80000gn/T//cclzeuEY.s 			page 29


 157:user/drivers/u8g2/u8x8_byte.c ****     default:
 939              		.loc 1 157 7 view .LVU186
 161:user/drivers/u8g2/u8x8_byte.c **** }
 940              		.loc 1 161 10 is_stmt 0 view .LVU187
 941 00f4 0120     		movs	r0, #1
 157:user/drivers/u8g2/u8x8_byte.c ****     default:
 942              		.loc 1 157 7 view .LVU188
 943 00f6 00E0     		b	.L39
 944              	.LVL104:
 945              	.L51:
 114:user/drivers/u8g2/u8x8_byte.c ****   {
 946              		.loc 1 114 3 view .LVU189
 947 00f8 0020     		movs	r0, #0
 948              	.LVL105:
 949              	.L39:
 162:user/drivers/u8g2/u8x8_byte.c **** 
 950              		.loc 1 162 1 view .LVU190
 951 00fa BDE8F087 		pop	{r4, r5, r6, r7, r8, r9, r10, pc}
 162:user/drivers/u8g2/u8x8_byte.c **** 
 952              		.loc 1 162 1 view .LVU191
 953              		.cfi_endproc
 954              	.LFE6:
 956              		.section	.text.u8x8_byte_8bit_6800mode,"ax",%progbits
 957              		.align	1
 958              		.global	u8x8_byte_8bit_6800mode
 959              		.syntax unified
 960              		.thumb
 961              		.thumb_func
 963              	u8x8_byte_8bit_6800mode:
 964              	.LVL106:
 965              	.LFB7:
 167:user/drivers/u8g2/u8x8_byte.c ****   uint8_t i, b;
 966              		.loc 1 167 1 is_stmt 1 view -0
 967              		.cfi_startproc
 968              		@ args = 0, pretend = 0, frame = 0
 969              		@ frame_needed = 0, uses_anonymous_args = 0
 167:user/drivers/u8g2/u8x8_byte.c ****   uint8_t i, b;
 970              		.loc 1 167 1 is_stmt 0 view .LVU193
 971 0000 2DE9F041 		push	{r4, r5, r6, r7, r8, lr}
 972              	.LCFI19:
 973              		.cfi_def_cfa_offset 24
 974              		.cfi_offset 4, -24
 975              		.cfi_offset 5, -20
 976              		.cfi_offset 6, -16
 977              		.cfi_offset 7, -12
 978              		.cfi_offset 8, -8
 979              		.cfi_offset 14, -4
 980 0004 0646     		mov	r6, r0
 981 0006 1746     		mov	r7, r2
 982 0008 9846     		mov	r8, r3
 168:user/drivers/u8g2/u8x8_byte.c ****   uint8_t *data;
 983              		.loc 1 168 3 is_stmt 1 view .LVU194
 169:user/drivers/u8g2/u8x8_byte.c ****  
 984              		.loc 1 169 3 view .LVU195
 171:user/drivers/u8g2/u8x8_byte.c ****   {
 985              		.loc 1 171 3 view .LVU196
 986 000a 1439     		subs	r1, r1, #20
ARM GAS  /var/folders/21/t9g5rlb91ys800n5npymflf80000gn/T//cclzeuEY.s 			page 30


 987              	.LVL107:
 171:user/drivers/u8g2/u8x8_byte.c ****   {
 988              		.loc 1 171 3 is_stmt 0 view .LVU197
 989 000c 0C29     		cmp	r1, #12
 990 000e 5FD8     		bhi	.L66
 991 0010 DFE801F0 		tbb	[pc, r1]
 992              	.LVL108:
 993              	.L58:
 994 0014 31       		.byte	(.L62-.L58)/2
 995 0015 5E       		.byte	(.L66-.L58)/2
 996 0016 5E       		.byte	(.L66-.L58)/2
 997 0017 28       		.byte	(.L61-.L58)/2
 998 0018 42       		.byte	(.L60-.L58)/2
 999 0019 50       		.byte	(.L59-.L58)/2
 1000 001a 5E       		.byte	(.L66-.L58)/2
 1001 001b 5E       		.byte	(.L66-.L58)/2
 1002 001c 5E       		.byte	(.L66-.L58)/2
 1003 001d 5E       		.byte	(.L66-.L58)/2
 1004 001e 5E       		.byte	(.L66-.L58)/2
 1005 001f 5E       		.byte	(.L66-.L58)/2
 1006 0020 3D       		.byte	(.L57-.L58)/2
 1007 0021 00       		.p2align 1
 1008              	.L64:
 182:user/drivers/u8g2/u8x8_byte.c **** 	  b >>= 1;
 1009              		.loc 1 182 4 is_stmt 1 discriminator 3 view .LVU198
 1010 0022 05F00102 		and	r2, r5, #1
 1011 0026 2146     		mov	r1, r4
 1012 0028 3046     		mov	r0, r6
 1013 002a FFF7FEFF 		bl	u8x8_gpio_call
 1014              	.LVL109:
 183:user/drivers/u8g2/u8x8_byte.c **** 	}    
 1015              		.loc 1 183 4 discriminator 3 view .LVU199
 183:user/drivers/u8g2/u8x8_byte.c **** 	}    
 1016              		.loc 1 183 6 is_stmt 0 discriminator 3 view .LVU200
 1017 002e 6D08     		lsrs	r5, r5, #1
 1018              	.LVL110:
 180:user/drivers/u8g2/u8x8_byte.c **** 	{
 1019              		.loc 1 180 53 is_stmt 1 discriminator 3 view .LVU201
 1020 0030 0134     		adds	r4, r4, #1
 1021              	.LVL111:
 180:user/drivers/u8g2/u8x8_byte.c **** 	{
 1022              		.loc 1 180 53 is_stmt 0 discriminator 3 view .LVU202
 1023 0032 E4B2     		uxtb	r4, r4
 1024              	.LVL112:
 1025              	.L63:
 180:user/drivers/u8g2/u8x8_byte.c **** 	{
 1026              		.loc 1 180 31 is_stmt 1 discriminator 1 view .LVU203
 1027 0034 472C     		cmp	r4, #71
 1028 0036 F4D9     		bls	.L64
 186:user/drivers/u8g2/u8x8_byte.c **** 	u8x8_gpio_call(u8x8, U8X8_MSG_GPIO_E, 1);
 1029              		.loc 1 186 2 view .LVU204
 1030 0038 3368     		ldr	r3, [r6]
 1031 003a 9A7B     		ldrb	r2, [r3, #14]	@ zero_extendqisi2
 1032 003c 2C21     		movs	r1, #44
 1033 003e 3046     		mov	r0, r6
 1034 0040 FFF7FEFF 		bl	u8x8_gpio_call
 1035              	.LVL113:
ARM GAS  /var/folders/21/t9g5rlb91ys800n5npymflf80000gn/T//cclzeuEY.s 			page 31


 187:user/drivers/u8g2/u8x8_byte.c **** 	u8x8_gpio_Delay(u8x8, U8X8_MSG_DELAY_NANO, u8x8->display_info->write_pulse_width_ns);
 1036              		.loc 1 187 2 view .LVU205
 1037 0044 0122     		movs	r2, #1
 1038 0046 4821     		movs	r1, #72
 1039 0048 3046     		mov	r0, r6
 1040 004a FFF7FEFF 		bl	u8x8_gpio_call
 1041              	.LVL114:
 188:user/drivers/u8g2/u8x8_byte.c **** 	u8x8_gpio_call(u8x8, U8X8_MSG_GPIO_E, 0);
 1042              		.loc 1 188 2 view .LVU206
 1043 004e 3368     		ldr	r3, [r6]
 1044 0050 DA7B     		ldrb	r2, [r3, #15]	@ zero_extendqisi2
 1045 0052 2C21     		movs	r1, #44
 1046 0054 3046     		mov	r0, r6
 1047 0056 FFF7FEFF 		bl	u8x8_gpio_call
 1048              	.LVL115:
 189:user/drivers/u8g2/u8x8_byte.c ****       }
 1049              		.loc 1 189 2 view .LVU207
 1050 005a 0022     		movs	r2, #0
 1051 005c 4821     		movs	r1, #72
 1052 005e 3046     		mov	r0, r6
 1053 0060 FFF7FEFF 		bl	u8x8_gpio_call
 1054              	.LVL116:
 1055              	.L61:
 175:user/drivers/u8g2/u8x8_byte.c ****       {
 1056              		.loc 1 175 22 view .LVU208
 1057 0064 2FB1     		cbz	r7, .L69
 177:user/drivers/u8g2/u8x8_byte.c **** 	data++;
 1058              		.loc 1 177 2 view .LVU209
 177:user/drivers/u8g2/u8x8_byte.c **** 	data++;
 1059              		.loc 1 177 4 is_stmt 0 view .LVU210
 1060 0066 18F8015B 		ldrb	r5, [r8], #1	@ zero_extendqisi2
 1061              	.LVL117:
 178:user/drivers/u8g2/u8x8_byte.c **** 	arg_int--;
 1062              		.loc 1 178 2 is_stmt 1 view .LVU211
 179:user/drivers/u8g2/u8x8_byte.c **** 	for( i = U8X8_MSG_GPIO_D0; i <= U8X8_MSG_GPIO_D7; i++ )
 1063              		.loc 1 179 2 view .LVU212
 179:user/drivers/u8g2/u8x8_byte.c **** 	for( i = U8X8_MSG_GPIO_D0; i <= U8X8_MSG_GPIO_D7; i++ )
 1064              		.loc 1 179 9 is_stmt 0 view .LVU213
 1065 006a 013F     		subs	r7, r7, #1
 1066              	.LVL118:
 179:user/drivers/u8g2/u8x8_byte.c **** 	for( i = U8X8_MSG_GPIO_D0; i <= U8X8_MSG_GPIO_D7; i++ )
 1067              		.loc 1 179 9 view .LVU214
 1068 006c FFB2     		uxtb	r7, r7
 1069              	.LVL119:
 180:user/drivers/u8g2/u8x8_byte.c **** 	{
 1070              		.loc 1 180 2 is_stmt 1 view .LVU215
 180:user/drivers/u8g2/u8x8_byte.c **** 	{
 1071              		.loc 1 180 9 is_stmt 0 view .LVU216
 1072 006e 4024     		movs	r4, #64
 180:user/drivers/u8g2/u8x8_byte.c **** 	{
 1073              		.loc 1 180 2 view .LVU217
 1074 0070 E0E7     		b	.L63
 1075              	.LVL120:
 1076              	.L69:
 213:user/drivers/u8g2/u8x8_byte.c **** }
 1077              		.loc 1 213 10 view .LVU218
 1078 0072 0120     		movs	r0, #1
ARM GAS  /var/folders/21/t9g5rlb91ys800n5npymflf80000gn/T//cclzeuEY.s 			page 32


 1079 0074 2DE0     		b	.L56
 1080              	.LVL121:
 1081              	.L62:
 195:user/drivers/u8g2/u8x8_byte.c ****       /* ensure that the enable signal is high */
 1082              		.loc 1 195 7 is_stmt 1 view .LVU219
 1083 0076 0368     		ldr	r3, [r0]
 1084 0078 5A78     		ldrb	r2, [r3, #1]	@ zero_extendqisi2
 1085              	.LVL122:
 195:user/drivers/u8g2/u8x8_byte.c ****       /* ensure that the enable signal is high */
 1086              		.loc 1 195 7 is_stmt 0 view .LVU220
 1087 007a 4921     		movs	r1, #73
 1088 007c FFF7FEFF 		bl	u8x8_gpio_call
 1089              	.LVL123:
 197:user/drivers/u8g2/u8x8_byte.c ****       break;
 1090              		.loc 1 197 7 is_stmt 1 view .LVU221
 1091 0080 0022     		movs	r2, #0
 1092 0082 4821     		movs	r1, #72
 1093 0084 3046     		mov	r0, r6
 1094 0086 FFF7FEFF 		bl	u8x8_gpio_call
 1095              	.LVL124:
 198:user/drivers/u8g2/u8x8_byte.c ****     case U8X8_MSG_BYTE_SET_DC:
 1096              		.loc 1 198 7 view .LVU222
 213:user/drivers/u8g2/u8x8_byte.c **** }
 1097              		.loc 1 213 10 is_stmt 0 view .LVU223
 1098 008a 0120     		movs	r0, #1
 198:user/drivers/u8g2/u8x8_byte.c ****     case U8X8_MSG_BYTE_SET_DC:
 1099              		.loc 1 198 7 view .LVU224
 1100 008c 21E0     		b	.L56
 1101              	.LVL125:
 1102              	.L57:
 200:user/drivers/u8g2/u8x8_byte.c ****       break;
 1103              		.loc 1 200 7 is_stmt 1 view .LVU225
 1104 008e 4A21     		movs	r1, #74
 1105 0090 FFF7FEFF 		bl	u8x8_gpio_call
 1106              	.LVL126:
 201:user/drivers/u8g2/u8x8_byte.c ****     case U8X8_MSG_BYTE_START_TRANSFER:
 1107              		.loc 1 201 7 view .LVU226
 213:user/drivers/u8g2/u8x8_byte.c **** }
 1108              		.loc 1 213 10 is_stmt 0 view .LVU227
 1109 0094 0120     		movs	r0, #1
 201:user/drivers/u8g2/u8x8_byte.c ****     case U8X8_MSG_BYTE_START_TRANSFER:
 1110              		.loc 1 201 7 view .LVU228
 1111 0096 1CE0     		b	.L56
 1112              	.LVL127:
 1113              	.L60:
 203:user/drivers/u8g2/u8x8_byte.c ****       u8x8->gpio_and_delay_cb(u8x8, U8X8_MSG_DELAY_NANO, u8x8->display_info->post_chip_enable_wait_
 1114              		.loc 1 203 7 is_stmt 1 view .LVU229
 1115 0098 0368     		ldr	r3, [r0]
 1116 009a 1A78     		ldrb	r2, [r3]	@ zero_extendqisi2
 1117              	.LVL128:
 203:user/drivers/u8g2/u8x8_byte.c ****       u8x8->gpio_and_delay_cb(u8x8, U8X8_MSG_DELAY_NANO, u8x8->display_info->post_chip_enable_wait_
 1118              		.loc 1 203 7 is_stmt 0 view .LVU230
 1119 009c 4921     		movs	r1, #73
 1120 009e FFF7FEFF 		bl	u8x8_gpio_call
 1121              	.LVL129:
 204:user/drivers/u8g2/u8x8_byte.c ****       break;
 1122              		.loc 1 204 7 is_stmt 1 view .LVU231
ARM GAS  /var/folders/21/t9g5rlb91ys800n5npymflf80000gn/T//cclzeuEY.s 			page 33


 204:user/drivers/u8g2/u8x8_byte.c ****       break;
 1123              		.loc 1 204 11 is_stmt 0 view .LVU232
 1124 00a2 7469     		ldr	r4, [r6, #20]
 204:user/drivers/u8g2/u8x8_byte.c ****       break;
 1125              		.loc 1 204 62 view .LVU233
 1126 00a4 3268     		ldr	r2, [r6]
 204:user/drivers/u8g2/u8x8_byte.c ****       break;
 1127              		.loc 1 204 7 view .LVU234
 1128 00a6 0023     		movs	r3, #0
 1129 00a8 9278     		ldrb	r2, [r2, #2]	@ zero_extendqisi2
 1130 00aa 2C21     		movs	r1, #44
 1131 00ac 3046     		mov	r0, r6
 1132 00ae A047     		blx	r4
 1133              	.LVL130:
 205:user/drivers/u8g2/u8x8_byte.c ****     case U8X8_MSG_BYTE_END_TRANSFER:
 1134              		.loc 1 205 7 is_stmt 1 view .LVU235
 213:user/drivers/u8g2/u8x8_byte.c **** }
 1135              		.loc 1 213 10 is_stmt 0 view .LVU236
 1136 00b0 0120     		movs	r0, #1
 205:user/drivers/u8g2/u8x8_byte.c ****     case U8X8_MSG_BYTE_END_TRANSFER:
 1137              		.loc 1 205 7 view .LVU237
 1138 00b2 0EE0     		b	.L56
 1139              	.LVL131:
 1140              	.L59:
 207:user/drivers/u8g2/u8x8_byte.c ****       u8x8_gpio_SetCS(u8x8, u8x8->display_info->chip_disable_level);
 1141              		.loc 1 207 7 is_stmt 1 view .LVU238
 207:user/drivers/u8g2/u8x8_byte.c ****       u8x8_gpio_SetCS(u8x8, u8x8->display_info->chip_disable_level);
 1142              		.loc 1 207 11 is_stmt 0 view .LVU239
 1143 00b4 4469     		ldr	r4, [r0, #20]
 207:user/drivers/u8g2/u8x8_byte.c ****       u8x8_gpio_SetCS(u8x8, u8x8->display_info->chip_disable_level);
 1144              		.loc 1 207 62 view .LVU240
 1145 00b6 0268     		ldr	r2, [r0]
 1146              	.LVL132:
 207:user/drivers/u8g2/u8x8_byte.c ****       u8x8_gpio_SetCS(u8x8, u8x8->display_info->chip_disable_level);
 1147              		.loc 1 207 7 view .LVU241
 1148 00b8 0023     		movs	r3, #0
 1149 00ba D278     		ldrb	r2, [r2, #3]	@ zero_extendqisi2
 1150 00bc 2C21     		movs	r1, #44
 1151 00be A047     		blx	r4
 1152              	.LVL133:
 208:user/drivers/u8g2/u8x8_byte.c ****       break;
 1153              		.loc 1 208 7 is_stmt 1 view .LVU242
 1154 00c0 3368     		ldr	r3, [r6]
 1155 00c2 5A78     		ldrb	r2, [r3, #1]	@ zero_extendqisi2
 1156 00c4 4921     		movs	r1, #73
 1157 00c6 3046     		mov	r0, r6
 1158 00c8 FFF7FEFF 		bl	u8x8_gpio_call
 1159              	.LVL134:
 209:user/drivers/u8g2/u8x8_byte.c ****     default:
 1160              		.loc 1 209 7 view .LVU243
 213:user/drivers/u8g2/u8x8_byte.c **** }
 1161              		.loc 1 213 10 is_stmt 0 view .LVU244
 1162 00cc 0120     		movs	r0, #1
 209:user/drivers/u8g2/u8x8_byte.c ****     default:
 1163              		.loc 1 209 7 view .LVU245
 1164 00ce 00E0     		b	.L56
 1165              	.LVL135:
ARM GAS  /var/folders/21/t9g5rlb91ys800n5npymflf80000gn/T//cclzeuEY.s 			page 34


 1166              	.L66:
 171:user/drivers/u8g2/u8x8_byte.c ****   {
 1167              		.loc 1 171 3 view .LVU246
 1168 00d0 0020     		movs	r0, #0
 1169              	.LVL136:
 1170              	.L56:
 214:user/drivers/u8g2/u8x8_byte.c **** 
 1171              		.loc 1 214 1 view .LVU247
 1172 00d2 BDE8F081 		pop	{r4, r5, r6, r7, r8, pc}
 214:user/drivers/u8g2/u8x8_byte.c **** 
 1173              		.loc 1 214 1 view .LVU248
 1174              		.cfi_endproc
 1175              	.LFE7:
 1177              		.section	.text.u8x8_byte_8bit_8080mode,"ax",%progbits
 1178              		.align	1
 1179              		.global	u8x8_byte_8bit_8080mode
 1180              		.syntax unified
 1181              		.thumb
 1182              		.thumb_func
 1184              	u8x8_byte_8bit_8080mode:
 1185              	.LVL137:
 1186              	.LFB8:
 217:user/drivers/u8g2/u8x8_byte.c ****   uint8_t i, b;
 1187              		.loc 1 217 1 is_stmt 1 view -0
 1188              		.cfi_startproc
 1189              		@ args = 0, pretend = 0, frame = 0
 1190              		@ frame_needed = 0, uses_anonymous_args = 0
 217:user/drivers/u8g2/u8x8_byte.c ****   uint8_t i, b;
 1191              		.loc 1 217 1 is_stmt 0 view .LVU250
 1192 0000 2DE9F041 		push	{r4, r5, r6, r7, r8, lr}
 1193              	.LCFI20:
 1194              		.cfi_def_cfa_offset 24
 1195              		.cfi_offset 4, -24
 1196              		.cfi_offset 5, -20
 1197              		.cfi_offset 6, -16
 1198              		.cfi_offset 7, -12
 1199              		.cfi_offset 8, -8
 1200              		.cfi_offset 14, -4
 1201 0004 0646     		mov	r6, r0
 1202 0006 1746     		mov	r7, r2
 1203 0008 9846     		mov	r8, r3
 218:user/drivers/u8g2/u8x8_byte.c ****   uint8_t *data;
 1204              		.loc 1 218 3 is_stmt 1 view .LVU251
 219:user/drivers/u8g2/u8x8_byte.c ****  
 1205              		.loc 1 219 3 view .LVU252
 221:user/drivers/u8g2/u8x8_byte.c ****   {
 1206              		.loc 1 221 3 view .LVU253
 1207 000a 1439     		subs	r1, r1, #20
 1208              	.LVL138:
 221:user/drivers/u8g2/u8x8_byte.c ****   {
 1209              		.loc 1 221 3 is_stmt 0 view .LVU254
 1210 000c 0C29     		cmp	r1, #12
 1211 000e 5FD8     		bhi	.L81
 1212 0010 DFE801F0 		tbb	[pc, r1]
 1213              	.LVL139:
 1214              	.L73:
 1215 0014 31       		.byte	(.L77-.L73)/2
ARM GAS  /var/folders/21/t9g5rlb91ys800n5npymflf80000gn/T//cclzeuEY.s 			page 35


 1216 0015 5E       		.byte	(.L81-.L73)/2
 1217 0016 5E       		.byte	(.L81-.L73)/2
 1218 0017 28       		.byte	(.L76-.L73)/2
 1219 0018 42       		.byte	(.L75-.L73)/2
 1220 0019 50       		.byte	(.L74-.L73)/2
 1221 001a 5E       		.byte	(.L81-.L73)/2
 1222 001b 5E       		.byte	(.L81-.L73)/2
 1223 001c 5E       		.byte	(.L81-.L73)/2
 1224 001d 5E       		.byte	(.L81-.L73)/2
 1225 001e 5E       		.byte	(.L81-.L73)/2
 1226 001f 5E       		.byte	(.L81-.L73)/2
 1227 0020 3D       		.byte	(.L72-.L73)/2
 1228 0021 00       		.p2align 1
 1229              	.L79:
 232:user/drivers/u8g2/u8x8_byte.c **** 	  b >>= 1;
 1230              		.loc 1 232 4 is_stmt 1 discriminator 3 view .LVU255
 1231 0022 05F00102 		and	r2, r5, #1
 1232 0026 2146     		mov	r1, r4
 1233 0028 3046     		mov	r0, r6
 1234 002a FFF7FEFF 		bl	u8x8_gpio_call
 1235              	.LVL140:
 233:user/drivers/u8g2/u8x8_byte.c **** 	}    
 1236              		.loc 1 233 4 discriminator 3 view .LVU256
 233:user/drivers/u8g2/u8x8_byte.c **** 	}    
 1237              		.loc 1 233 6 is_stmt 0 discriminator 3 view .LVU257
 1238 002e 6D08     		lsrs	r5, r5, #1
 1239              	.LVL141:
 230:user/drivers/u8g2/u8x8_byte.c **** 	{
 1240              		.loc 1 230 53 is_stmt 1 discriminator 3 view .LVU258
 1241 0030 0134     		adds	r4, r4, #1
 1242              	.LVL142:
 230:user/drivers/u8g2/u8x8_byte.c **** 	{
 1243              		.loc 1 230 53 is_stmt 0 discriminator 3 view .LVU259
 1244 0032 E4B2     		uxtb	r4, r4
 1245              	.LVL143:
 1246              	.L78:
 230:user/drivers/u8g2/u8x8_byte.c **** 	{
 1247              		.loc 1 230 31 is_stmt 1 discriminator 1 view .LVU260
 1248 0034 472C     		cmp	r4, #71
 1249 0036 F4D9     		bls	.L79
 236:user/drivers/u8g2/u8x8_byte.c **** 	u8x8_gpio_call(u8x8, U8X8_MSG_GPIO_E, 0);
 1250              		.loc 1 236 2 view .LVU261
 1251 0038 3368     		ldr	r3, [r6]
 1252 003a 9A7B     		ldrb	r2, [r3, #14]	@ zero_extendqisi2
 1253 003c 2C21     		movs	r1, #44
 1254 003e 3046     		mov	r0, r6
 1255 0040 FFF7FEFF 		bl	u8x8_gpio_call
 1256              	.LVL144:
 237:user/drivers/u8g2/u8x8_byte.c **** 	u8x8_gpio_Delay(u8x8, U8X8_MSG_DELAY_NANO, u8x8->display_info->write_pulse_width_ns);
 1257              		.loc 1 237 2 view .LVU262
 1258 0044 0022     		movs	r2, #0
 1259 0046 4821     		movs	r1, #72
 1260 0048 3046     		mov	r0, r6
 1261 004a FFF7FEFF 		bl	u8x8_gpio_call
 1262              	.LVL145:
 238:user/drivers/u8g2/u8x8_byte.c **** 	u8x8_gpio_call(u8x8, U8X8_MSG_GPIO_E, 1);
 1263              		.loc 1 238 2 view .LVU263
ARM GAS  /var/folders/21/t9g5rlb91ys800n5npymflf80000gn/T//cclzeuEY.s 			page 36


 1264 004e 3368     		ldr	r3, [r6]
 1265 0050 DA7B     		ldrb	r2, [r3, #15]	@ zero_extendqisi2
 1266 0052 2C21     		movs	r1, #44
 1267 0054 3046     		mov	r0, r6
 1268 0056 FFF7FEFF 		bl	u8x8_gpio_call
 1269              	.LVL146:
 239:user/drivers/u8g2/u8x8_byte.c ****       }
 1270              		.loc 1 239 2 view .LVU264
 1271 005a 0122     		movs	r2, #1
 1272 005c 4821     		movs	r1, #72
 1273 005e 3046     		mov	r0, r6
 1274 0060 FFF7FEFF 		bl	u8x8_gpio_call
 1275              	.LVL147:
 1276              	.L76:
 225:user/drivers/u8g2/u8x8_byte.c ****       {
 1277              		.loc 1 225 22 view .LVU265
 1278 0064 2FB1     		cbz	r7, .L84
 227:user/drivers/u8g2/u8x8_byte.c **** 	data++;
 1279              		.loc 1 227 2 view .LVU266
 227:user/drivers/u8g2/u8x8_byte.c **** 	data++;
 1280              		.loc 1 227 4 is_stmt 0 view .LVU267
 1281 0066 18F8015B 		ldrb	r5, [r8], #1	@ zero_extendqisi2
 1282              	.LVL148:
 228:user/drivers/u8g2/u8x8_byte.c **** 	arg_int--;
 1283              		.loc 1 228 2 is_stmt 1 view .LVU268
 229:user/drivers/u8g2/u8x8_byte.c **** 	for( i = U8X8_MSG_GPIO_D0; i <= U8X8_MSG_GPIO_D7; i++ )
 1284              		.loc 1 229 2 view .LVU269
 229:user/drivers/u8g2/u8x8_byte.c **** 	for( i = U8X8_MSG_GPIO_D0; i <= U8X8_MSG_GPIO_D7; i++ )
 1285              		.loc 1 229 9 is_stmt 0 view .LVU270
 1286 006a 013F     		subs	r7, r7, #1
 1287              	.LVL149:
 229:user/drivers/u8g2/u8x8_byte.c **** 	for( i = U8X8_MSG_GPIO_D0; i <= U8X8_MSG_GPIO_D7; i++ )
 1288              		.loc 1 229 9 view .LVU271
 1289 006c FFB2     		uxtb	r7, r7
 1290              	.LVL150:
 230:user/drivers/u8g2/u8x8_byte.c **** 	{
 1291              		.loc 1 230 2 is_stmt 1 view .LVU272
 230:user/drivers/u8g2/u8x8_byte.c **** 	{
 1292              		.loc 1 230 9 is_stmt 0 view .LVU273
 1293 006e 4024     		movs	r4, #64
 230:user/drivers/u8g2/u8x8_byte.c **** 	{
 1294              		.loc 1 230 2 view .LVU274
 1295 0070 E0E7     		b	.L78
 1296              	.LVL151:
 1297              	.L84:
 263:user/drivers/u8g2/u8x8_byte.c **** }
 1298              		.loc 1 263 10 view .LVU275
 1299 0072 0120     		movs	r0, #1
 1300 0074 2DE0     		b	.L71
 1301              	.LVL152:
 1302              	.L77:
 245:user/drivers/u8g2/u8x8_byte.c ****       /* ensure that the enable signal is high */
 1303              		.loc 1 245 7 is_stmt 1 view .LVU276
 1304 0076 0368     		ldr	r3, [r0]
 1305 0078 5A78     		ldrb	r2, [r3, #1]	@ zero_extendqisi2
 1306              	.LVL153:
 245:user/drivers/u8g2/u8x8_byte.c ****       /* ensure that the enable signal is high */
ARM GAS  /var/folders/21/t9g5rlb91ys800n5npymflf80000gn/T//cclzeuEY.s 			page 37


 1307              		.loc 1 245 7 is_stmt 0 view .LVU277
 1308 007a 4921     		movs	r1, #73
 1309 007c FFF7FEFF 		bl	u8x8_gpio_call
 1310              	.LVL154:
 247:user/drivers/u8g2/u8x8_byte.c ****       break;
 1311              		.loc 1 247 7 is_stmt 1 view .LVU278
 1312 0080 0122     		movs	r2, #1
 1313 0082 4821     		movs	r1, #72
 1314 0084 3046     		mov	r0, r6
 1315 0086 FFF7FEFF 		bl	u8x8_gpio_call
 1316              	.LVL155:
 248:user/drivers/u8g2/u8x8_byte.c ****     case U8X8_MSG_BYTE_SET_DC:
 1317              		.loc 1 248 7 view .LVU279
 263:user/drivers/u8g2/u8x8_byte.c **** }
 1318              		.loc 1 263 10 is_stmt 0 view .LVU280
 1319 008a 0120     		movs	r0, #1
 248:user/drivers/u8g2/u8x8_byte.c ****     case U8X8_MSG_BYTE_SET_DC:
 1320              		.loc 1 248 7 view .LVU281
 1321 008c 21E0     		b	.L71
 1322              	.LVL156:
 1323              	.L72:
 250:user/drivers/u8g2/u8x8_byte.c ****       break;
 1324              		.loc 1 250 7 is_stmt 1 view .LVU282
 1325 008e 4A21     		movs	r1, #74
 1326 0090 FFF7FEFF 		bl	u8x8_gpio_call
 1327              	.LVL157:
 251:user/drivers/u8g2/u8x8_byte.c ****     case U8X8_MSG_BYTE_START_TRANSFER:
 1328              		.loc 1 251 7 view .LVU283
 263:user/drivers/u8g2/u8x8_byte.c **** }
 1329              		.loc 1 263 10 is_stmt 0 view .LVU284
 1330 0094 0120     		movs	r0, #1
 251:user/drivers/u8g2/u8x8_byte.c ****     case U8X8_MSG_BYTE_START_TRANSFER:
 1331              		.loc 1 251 7 view .LVU285
 1332 0096 1CE0     		b	.L71
 1333              	.LVL158:
 1334              	.L75:
 253:user/drivers/u8g2/u8x8_byte.c ****       u8x8->gpio_and_delay_cb(u8x8, U8X8_MSG_DELAY_NANO, u8x8->display_info->post_chip_enable_wait_
 1335              		.loc 1 253 7 is_stmt 1 view .LVU286
 1336 0098 0368     		ldr	r3, [r0]
 1337 009a 1A78     		ldrb	r2, [r3]	@ zero_extendqisi2
 1338              	.LVL159:
 253:user/drivers/u8g2/u8x8_byte.c ****       u8x8->gpio_and_delay_cb(u8x8, U8X8_MSG_DELAY_NANO, u8x8->display_info->post_chip_enable_wait_
 1339              		.loc 1 253 7 is_stmt 0 view .LVU287
 1340 009c 4921     		movs	r1, #73
 1341 009e FFF7FEFF 		bl	u8x8_gpio_call
 1342              	.LVL160:
 254:user/drivers/u8g2/u8x8_byte.c ****       break;
 1343              		.loc 1 254 7 is_stmt 1 view .LVU288
 254:user/drivers/u8g2/u8x8_byte.c ****       break;
 1344              		.loc 1 254 11 is_stmt 0 view .LVU289
 1345 00a2 7469     		ldr	r4, [r6, #20]
 254:user/drivers/u8g2/u8x8_byte.c ****       break;
 1346              		.loc 1 254 62 view .LVU290
 1347 00a4 3268     		ldr	r2, [r6]
 254:user/drivers/u8g2/u8x8_byte.c ****       break;
 1348              		.loc 1 254 7 view .LVU291
 1349 00a6 0023     		movs	r3, #0
ARM GAS  /var/folders/21/t9g5rlb91ys800n5npymflf80000gn/T//cclzeuEY.s 			page 38


 1350 00a8 9278     		ldrb	r2, [r2, #2]	@ zero_extendqisi2
 1351 00aa 2C21     		movs	r1, #44
 1352 00ac 3046     		mov	r0, r6
 1353 00ae A047     		blx	r4
 1354              	.LVL161:
 255:user/drivers/u8g2/u8x8_byte.c ****     case U8X8_MSG_BYTE_END_TRANSFER:
 1355              		.loc 1 255 7 is_stmt 1 view .LVU292
 263:user/drivers/u8g2/u8x8_byte.c **** }
 1356              		.loc 1 263 10 is_stmt 0 view .LVU293
 1357 00b0 0120     		movs	r0, #1
 255:user/drivers/u8g2/u8x8_byte.c ****     case U8X8_MSG_BYTE_END_TRANSFER:
 1358              		.loc 1 255 7 view .LVU294
 1359 00b2 0EE0     		b	.L71
 1360              	.LVL162:
 1361              	.L74:
 257:user/drivers/u8g2/u8x8_byte.c ****       u8x8_gpio_SetCS(u8x8, u8x8->display_info->chip_disable_level);
 1362              		.loc 1 257 7 is_stmt 1 view .LVU295
 257:user/drivers/u8g2/u8x8_byte.c ****       u8x8_gpio_SetCS(u8x8, u8x8->display_info->chip_disable_level);
 1363              		.loc 1 257 11 is_stmt 0 view .LVU296
 1364 00b4 4469     		ldr	r4, [r0, #20]
 257:user/drivers/u8g2/u8x8_byte.c ****       u8x8_gpio_SetCS(u8x8, u8x8->display_info->chip_disable_level);
 1365              		.loc 1 257 62 view .LVU297
 1366 00b6 0268     		ldr	r2, [r0]
 1367              	.LVL163:
 257:user/drivers/u8g2/u8x8_byte.c ****       u8x8_gpio_SetCS(u8x8, u8x8->display_info->chip_disable_level);
 1368              		.loc 1 257 7 view .LVU298
 1369 00b8 0023     		movs	r3, #0
 1370 00ba D278     		ldrb	r2, [r2, #3]	@ zero_extendqisi2
 1371 00bc 2C21     		movs	r1, #44
 1372 00be A047     		blx	r4
 1373              	.LVL164:
 258:user/drivers/u8g2/u8x8_byte.c ****       break;
 1374              		.loc 1 258 7 is_stmt 1 view .LVU299
 1375 00c0 3368     		ldr	r3, [r6]
 1376 00c2 5A78     		ldrb	r2, [r3, #1]	@ zero_extendqisi2
 1377 00c4 4921     		movs	r1, #73
 1378 00c6 3046     		mov	r0, r6
 1379 00c8 FFF7FEFF 		bl	u8x8_gpio_call
 1380              	.LVL165:
 259:user/drivers/u8g2/u8x8_byte.c ****     default:
 1381              		.loc 1 259 7 view .LVU300
 263:user/drivers/u8g2/u8x8_byte.c **** }
 1382              		.loc 1 263 10 is_stmt 0 view .LVU301
 1383 00cc 0120     		movs	r0, #1
 259:user/drivers/u8g2/u8x8_byte.c ****     default:
 1384              		.loc 1 259 7 view .LVU302
 1385 00ce 00E0     		b	.L71
 1386              	.LVL166:
 1387              	.L81:
 221:user/drivers/u8g2/u8x8_byte.c ****   {
 1388              		.loc 1 221 3 view .LVU303
 1389 00d0 0020     		movs	r0, #0
 1390              	.LVL167:
 1391              	.L71:
 264:user/drivers/u8g2/u8x8_byte.c **** 
 1392              		.loc 1 264 1 view .LVU304
 1393 00d2 BDE8F081 		pop	{r4, r5, r6, r7, r8, pc}
ARM GAS  /var/folders/21/t9g5rlb91ys800n5npymflf80000gn/T//cclzeuEY.s 			page 39


 264:user/drivers/u8g2/u8x8_byte.c **** 
 1394              		.loc 1 264 1 view .LVU305
 1395              		.cfi_endproc
 1396              	.LFE8:
 1398              		.section	.text.u8x8_byte_3wire_sw_spi,"ax",%progbits
 1399              		.align	1
 1400              		.global	u8x8_byte_3wire_sw_spi
 1401              		.syntax unified
 1402              		.thumb
 1403              		.thumb_func
 1405              	u8x8_byte_3wire_sw_spi:
 1406              	.LVL168:
 1407              	.LFB9:
 269:user/drivers/u8g2/u8x8_byte.c ****   uint8_t i;
 1408              		.loc 1 269 1 is_stmt 1 view -0
 1409              		.cfi_startproc
 1410              		@ args = 0, pretend = 0, frame = 0
 1411              		@ frame_needed = 0, uses_anonymous_args = 0
 269:user/drivers/u8g2/u8x8_byte.c ****   uint8_t i;
 1412              		.loc 1 269 1 is_stmt 0 view .LVU307
 1413 0000 2DE9F047 		push	{r4, r5, r6, r7, r8, r9, r10, lr}
 1414              	.LCFI21:
 1415              		.cfi_def_cfa_offset 32
 1416              		.cfi_offset 4, -32
 1417              		.cfi_offset 5, -28
 1418              		.cfi_offset 6, -24
 1419              		.cfi_offset 7, -20
 1420              		.cfi_offset 8, -16
 1421              		.cfi_offset 9, -12
 1422              		.cfi_offset 10, -8
 1423              		.cfi_offset 14, -4
 1424 0004 0446     		mov	r4, r0
 1425 0006 9146     		mov	r9, r2
 1426 0008 9A46     		mov	r10, r3
 270:user/drivers/u8g2/u8x8_byte.c ****   uint8_t *data;
 1427              		.loc 1 270 3 is_stmt 1 view .LVU308
 271:user/drivers/u8g2/u8x8_byte.c ****   uint8_t takeover_edge = u8x8_GetSPIClockPhase(u8x8);
 1428              		.loc 1 271 3 view .LVU309
 272:user/drivers/u8g2/u8x8_byte.c ****   uint8_t not_takeover_edge = 1 - takeover_edge;
 1429              		.loc 1 272 3 view .LVU310
 272:user/drivers/u8g2/u8x8_byte.c ****   uint8_t not_takeover_edge = 1 - takeover_edge;
 1430              		.loc 1 272 27 is_stmt 0 view .LVU311
 1431 000a 0268     		ldr	r2, [r0]
 1432              	.LVL169:
 272:user/drivers/u8g2/u8x8_byte.c ****   uint8_t not_takeover_edge = 1 - takeover_edge;
 1433              		.loc 1 272 27 view .LVU312
 1434 000c 177B     		ldrb	r7, [r2, #12]	@ zero_extendqisi2
 272:user/drivers/u8g2/u8x8_byte.c ****   uint8_t not_takeover_edge = 1 - takeover_edge;
 1435              		.loc 1 272 11 view .LVU313
 1436 000e 07F00107 		and	r7, r7, #1
 1437              	.LVL170:
 273:user/drivers/u8g2/u8x8_byte.c ****   uint16_t b;
 1438              		.loc 1 273 3 is_stmt 1 view .LVU314
 273:user/drivers/u8g2/u8x8_byte.c ****   uint16_t b;
 1439              		.loc 1 273 11 is_stmt 0 view .LVU315
 1440 0012 87F00108 		eor	r8, r7, #1
 1441              	.LVL171:
ARM GAS  /var/folders/21/t9g5rlb91ys800n5npymflf80000gn/T//cclzeuEY.s 			page 40


 274:user/drivers/u8g2/u8x8_byte.c ****   static uint8_t last_dc;
 1442              		.loc 1 274 3 is_stmt 1 view .LVU316
 275:user/drivers/u8g2/u8x8_byte.c ****  
 1443              		.loc 1 275 3 view .LVU317
 277:user/drivers/u8g2/u8x8_byte.c ****   {
 1444              		.loc 1 277 3 view .LVU318
 1445 0016 1439     		subs	r1, r1, #20
 1446              	.LVL172:
 277:user/drivers/u8g2/u8x8_byte.c ****   {
 1447              		.loc 1 277 3 is_stmt 0 view .LVU319
 1448 0018 0C29     		cmp	r1, #12
 1449 001a 73D8     		bhi	.L99
 1450 001c DFE801F0 		tbb	[pc, r1]
 1451              	.LVL173:
 1452              	.L88:
 1453 0020 45       		.byte	(.L92-.L88)/2
 1454 0021 72       		.byte	(.L99-.L88)/2
 1455 0022 72       		.byte	(.L99-.L88)/2
 1456 0023 31       		.byte	(.L91-.L88)/2
 1457 0024 58       		.byte	(.L90-.L88)/2
 1458 0025 65       		.byte	(.L89-.L88)/2
 1459 0026 72       		.byte	(.L99-.L88)/2
 1460 0027 72       		.byte	(.L99-.L88)/2
 1461 0028 72       		.byte	(.L99-.L88)/2
 1462 0029 72       		.byte	(.L99-.L88)/2
 1463 002a 72       		.byte	(.L99-.L88)/2
 1464 002b 72       		.byte	(.L99-.L88)/2
 1465 002c 53       		.byte	(.L87-.L88)/2
 1466 002d 00       		.p2align 1
 1467              	.L95:
 293:user/drivers/u8g2/u8x8_byte.c **** 	  b <<= 1;
 1468              		.loc 1 293 6 is_stmt 1 view .LVU320
 1469 002e 0022     		movs	r2, #0
 1470 0030 4121     		movs	r1, #65
 1471 0032 2046     		mov	r0, r4
 1472 0034 FFF7FEFF 		bl	u8x8_gpio_call
 1473              	.LVL174:
 1474              	.L96:
 294:user/drivers/u8g2/u8x8_byte.c **** 	  
 1475              		.loc 1 294 4 discriminator 2 view .LVU321
 294:user/drivers/u8g2/u8x8_byte.c **** 	  
 1476              		.loc 1 294 6 is_stmt 0 discriminator 2 view .LVU322
 1477 0038 7600     		lsls	r6, r6, #1
 1478              	.LVL175:
 294:user/drivers/u8g2/u8x8_byte.c **** 	  
 1479              		.loc 1 294 6 discriminator 2 view .LVU323
 1480 003a B6B2     		uxth	r6, r6
 1481              	.LVL176:
 296:user/drivers/u8g2/u8x8_byte.c **** 	  u8x8_gpio_Delay(u8x8, U8X8_MSG_DELAY_NANO, u8x8->display_info->sda_setup_time_ns);
 1482              		.loc 1 296 4 is_stmt 1 discriminator 2 view .LVU324
 1483 003c 4246     		mov	r2, r8
 1484 003e 4021     		movs	r1, #64
 1485 0040 2046     		mov	r0, r4
 1486 0042 FFF7FEFF 		bl	u8x8_gpio_call
 1487              	.LVL177:
 297:user/drivers/u8g2/u8x8_byte.c **** 	  u8x8_gpio_SetSPIClock(u8x8, takeover_edge);
 1488              		.loc 1 297 4 discriminator 2 view .LVU325
ARM GAS  /var/folders/21/t9g5rlb91ys800n5npymflf80000gn/T//cclzeuEY.s 			page 41


 1489 0046 2368     		ldr	r3, [r4]
 1490 0048 9A79     		ldrb	r2, [r3, #6]	@ zero_extendqisi2
 1491 004a 2C21     		movs	r1, #44
 1492 004c 2046     		mov	r0, r4
 1493 004e FFF7FEFF 		bl	u8x8_gpio_call
 1494              	.LVL178:
 298:user/drivers/u8g2/u8x8_byte.c **** 	  u8x8_gpio_Delay(u8x8, U8X8_MSG_DELAY_NANO, u8x8->display_info->sck_pulse_width_ns);
 1495              		.loc 1 298 4 discriminator 2 view .LVU326
 1496 0052 3A46     		mov	r2, r7
 1497 0054 4021     		movs	r1, #64
 1498 0056 2046     		mov	r0, r4
 1499 0058 FFF7FEFF 		bl	u8x8_gpio_call
 1500              	.LVL179:
 299:user/drivers/u8g2/u8x8_byte.c **** 	}    
 1501              		.loc 1 299 4 discriminator 2 view .LVU327
 1502 005c 2368     		ldr	r3, [r4]
 1503 005e DA79     		ldrb	r2, [r3, #7]	@ zero_extendqisi2
 1504 0060 2C21     		movs	r1, #44
 1505 0062 2046     		mov	r0, r4
 1506 0064 FFF7FEFF 		bl	u8x8_gpio_call
 1507              	.LVL180:
 288:user/drivers/u8g2/u8x8_byte.c **** 	{
 1508              		.loc 1 288 22 discriminator 2 view .LVU328
 1509 0068 0135     		adds	r5, r5, #1
 1510              	.LVL181:
 288:user/drivers/u8g2/u8x8_byte.c **** 	{
 1511              		.loc 1 288 22 is_stmt 0 discriminator 2 view .LVU329
 1512 006a EDB2     		uxtb	r5, r5
 1513              	.LVL182:
 1514              	.L94:
 288:user/drivers/u8g2/u8x8_byte.c **** 	{
 1515              		.loc 1 288 16 is_stmt 1 discriminator 1 view .LVU330
 1516 006c 082D     		cmp	r5, #8
 1517 006e 08D8     		bhi	.L91
 290:user/drivers/u8g2/u8x8_byte.c **** 	    u8x8_gpio_SetSPIData(u8x8, 1);
 1518              		.loc 1 290 4 view .LVU331
 290:user/drivers/u8g2/u8x8_byte.c **** 	    u8x8_gpio_SetSPIData(u8x8, 1);
 1519              		.loc 1 290 7 is_stmt 0 view .LVU332
 1520 0070 16F4807F 		tst	r6, #256
 1521 0074 DBD0     		beq	.L95
 291:user/drivers/u8g2/u8x8_byte.c **** 	  else
 1522              		.loc 1 291 6 is_stmt 1 view .LVU333
 1523 0076 0122     		movs	r2, #1
 1524 0078 4121     		movs	r1, #65
 1525 007a 2046     		mov	r0, r4
 1526 007c FFF7FEFF 		bl	u8x8_gpio_call
 1527              	.LVL183:
 1528 0080 DAE7     		b	.L96
 1529              	.LVL184:
 1530              	.L91:
 281:user/drivers/u8g2/u8x8_byte.c ****       {
 1531              		.loc 1 281 22 view .LVU334
 1532 0082 B9F1000F 		cmp	r9, #0
 1533 0086 0ED0     		beq	.L102
 283:user/drivers/u8g2/u8x8_byte.c **** 	if ( last_dc != 0 )
 1534              		.loc 1 283 2 view .LVU335
 283:user/drivers/u8g2/u8x8_byte.c **** 	if ( last_dc != 0 )
ARM GAS  /var/folders/21/t9g5rlb91ys800n5npymflf80000gn/T//cclzeuEY.s 			page 42


 1535              		.loc 1 283 6 is_stmt 0 view .LVU336
 1536 0088 9AF80060 		ldrb	r6, [r10]	@ zero_extendqisi2
 1537              	.LVL185:
 284:user/drivers/u8g2/u8x8_byte.c **** 	  b |= 256;
 1538              		.loc 1 284 2 is_stmt 1 view .LVU337
 284:user/drivers/u8g2/u8x8_byte.c **** 	  b |= 256;
 1539              		.loc 1 284 15 is_stmt 0 view .LVU338
 1540 008c 1F4B     		ldr	r3, .L103
 1541 008e 1B78     		ldrb	r3, [r3]	@ zero_extendqisi2
 284:user/drivers/u8g2/u8x8_byte.c **** 	  b |= 256;
 1542              		.loc 1 284 5 view .LVU339
 1543 0090 0BB1     		cbz	r3, .L93
 285:user/drivers/u8g2/u8x8_byte.c **** 	data++;
 1544              		.loc 1 285 4 is_stmt 1 view .LVU340
 285:user/drivers/u8g2/u8x8_byte.c **** 	data++;
 1545              		.loc 1 285 6 is_stmt 0 view .LVU341
 1546 0092 46F48076 		orr	r6, r6, #256
 1547              	.LVL186:
 1548              	.L93:
 286:user/drivers/u8g2/u8x8_byte.c **** 	arg_int--;
 1549              		.loc 1 286 2 is_stmt 1 view .LVU342
 286:user/drivers/u8g2/u8x8_byte.c **** 	arg_int--;
 1550              		.loc 1 286 6 is_stmt 0 view .LVU343
 1551 0096 0AF1010A 		add	r10, r10, #1
 1552              	.LVL187:
 287:user/drivers/u8g2/u8x8_byte.c **** 	for( i = 0; i < 9; i++ )
 1553              		.loc 1 287 2 is_stmt 1 view .LVU344
 287:user/drivers/u8g2/u8x8_byte.c **** 	for( i = 0; i < 9; i++ )
 1554              		.loc 1 287 9 is_stmt 0 view .LVU345
 1555 009a 09F1FF39 		add	r9, r9, #-1
 1556              	.LVL188:
 287:user/drivers/u8g2/u8x8_byte.c **** 	for( i = 0; i < 9; i++ )
 1557              		.loc 1 287 9 view .LVU346
 1558 009e 5FFA89F9 		uxtb	r9, r9
 1559              	.LVL189:
 288:user/drivers/u8g2/u8x8_byte.c **** 	{
 1560              		.loc 1 288 2 is_stmt 1 view .LVU347
 288:user/drivers/u8g2/u8x8_byte.c **** 	{
 1561              		.loc 1 288 9 is_stmt 0 view .LVU348
 1562 00a2 0025     		movs	r5, #0
 288:user/drivers/u8g2/u8x8_byte.c **** 	{
 1563              		.loc 1 288 2 view .LVU349
 1564 00a4 E2E7     		b	.L94
 1565              	.LVL190:
 1566              	.L102:
 326:user/drivers/u8g2/u8x8_byte.c **** }
 1567              		.loc 1 326 10 view .LVU350
 1568 00a6 0120     		movs	r0, #1
 1569 00a8 2DE0     		b	.L86
 1570              	.LVL191:
 1571              	.L92:
 306:user/drivers/u8g2/u8x8_byte.c ****       /* no wait required here */
 1572              		.loc 1 306 7 is_stmt 1 view .LVU351
 1573 00aa 5278     		ldrb	r2, [r2, #1]	@ zero_extendqisi2
 1574 00ac 4921     		movs	r1, #73
 1575 00ae FFF7FEFF 		bl	u8x8_gpio_call
 1576              	.LVL192:
ARM GAS  /var/folders/21/t9g5rlb91ys800n5npymflf80000gn/T//cclzeuEY.s 			page 43


 310:user/drivers/u8g2/u8x8_byte.c ****       break;
 1577              		.loc 1 310 7 view .LVU352
 1578 00b2 2368     		ldr	r3, [r4]
 1579 00b4 1A7B     		ldrb	r2, [r3, #12]	@ zero_extendqisi2
 1580 00b6 02F00102 		and	r2, r2, #1
 1581 00ba 4021     		movs	r1, #64
 1582 00bc 2046     		mov	r0, r4
 1583 00be FFF7FEFF 		bl	u8x8_gpio_call
 1584              	.LVL193:
 311:user/drivers/u8g2/u8x8_byte.c ****     case U8X8_MSG_BYTE_SET_DC:
 1585              		.loc 1 311 7 view .LVU353
 326:user/drivers/u8g2/u8x8_byte.c **** }
 1586              		.loc 1 326 10 is_stmt 0 view .LVU354
 1587 00c2 0120     		movs	r0, #1
 311:user/drivers/u8g2/u8x8_byte.c ****     case U8X8_MSG_BYTE_SET_DC:
 1588              		.loc 1 311 7 view .LVU355
 1589 00c4 1FE0     		b	.L86
 1590              	.LVL194:
 1591              	.L87:
 313:user/drivers/u8g2/u8x8_byte.c ****       break;
 1592              		.loc 1 313 7 is_stmt 1 view .LVU356
 313:user/drivers/u8g2/u8x8_byte.c ****       break;
 1593              		.loc 1 313 15 is_stmt 0 view .LVU357
 1594 00c6 114B     		ldr	r3, .L103
 1595 00c8 83F80090 		strb	r9, [r3]
 314:user/drivers/u8g2/u8x8_byte.c ****     case U8X8_MSG_BYTE_START_TRANSFER:
 1596              		.loc 1 314 7 is_stmt 1 view .LVU358
 326:user/drivers/u8g2/u8x8_byte.c **** }
 1597              		.loc 1 326 10 is_stmt 0 view .LVU359
 1598 00cc 0120     		movs	r0, #1
 1599              	.LVL195:
 314:user/drivers/u8g2/u8x8_byte.c ****     case U8X8_MSG_BYTE_START_TRANSFER:
 1600              		.loc 1 314 7 view .LVU360
 1601 00ce 1AE0     		b	.L86
 1602              	.LVL196:
 1603              	.L90:
 316:user/drivers/u8g2/u8x8_byte.c ****       u8x8->gpio_and_delay_cb(u8x8, U8X8_MSG_DELAY_NANO, u8x8->display_info->post_chip_enable_wait_
 1604              		.loc 1 316 7 is_stmt 1 view .LVU361
 1605 00d0 1278     		ldrb	r2, [r2]	@ zero_extendqisi2
 1606 00d2 4921     		movs	r1, #73
 1607 00d4 FFF7FEFF 		bl	u8x8_gpio_call
 1608              	.LVL197:
 317:user/drivers/u8g2/u8x8_byte.c ****       break;
 1609              		.loc 1 317 7 view .LVU362
 317:user/drivers/u8g2/u8x8_byte.c ****       break;
 1610              		.loc 1 317 11 is_stmt 0 view .LVU363
 1611 00d8 6569     		ldr	r5, [r4, #20]
 317:user/drivers/u8g2/u8x8_byte.c ****       break;
 1612              		.loc 1 317 62 view .LVU364
 1613 00da 2268     		ldr	r2, [r4]
 317:user/drivers/u8g2/u8x8_byte.c ****       break;
 1614              		.loc 1 317 7 view .LVU365
 1615 00dc 0023     		movs	r3, #0
 1616 00de 9278     		ldrb	r2, [r2, #2]	@ zero_extendqisi2
 1617 00e0 2C21     		movs	r1, #44
 1618 00e2 2046     		mov	r0, r4
 1619 00e4 A847     		blx	r5
ARM GAS  /var/folders/21/t9g5rlb91ys800n5npymflf80000gn/T//cclzeuEY.s 			page 44


 1620              	.LVL198:
 318:user/drivers/u8g2/u8x8_byte.c ****     case U8X8_MSG_BYTE_END_TRANSFER:
 1621              		.loc 1 318 7 is_stmt 1 view .LVU366
 326:user/drivers/u8g2/u8x8_byte.c **** }
 1622              		.loc 1 326 10 is_stmt 0 view .LVU367
 1623 00e6 0120     		movs	r0, #1
 318:user/drivers/u8g2/u8x8_byte.c ****     case U8X8_MSG_BYTE_END_TRANSFER:
 1624              		.loc 1 318 7 view .LVU368
 1625 00e8 0DE0     		b	.L86
 1626              	.LVL199:
 1627              	.L89:
 320:user/drivers/u8g2/u8x8_byte.c ****       u8x8_gpio_SetCS(u8x8, u8x8->display_info->chip_disable_level);
 1628              		.loc 1 320 7 is_stmt 1 view .LVU369
 320:user/drivers/u8g2/u8x8_byte.c ****       u8x8_gpio_SetCS(u8x8, u8x8->display_info->chip_disable_level);
 1629              		.loc 1 320 11 is_stmt 0 view .LVU370
 1630 00ea 4569     		ldr	r5, [r0, #20]
 320:user/drivers/u8g2/u8x8_byte.c ****       u8x8_gpio_SetCS(u8x8, u8x8->display_info->chip_disable_level);
 1631              		.loc 1 320 7 view .LVU371
 1632 00ec 0023     		movs	r3, #0
 1633 00ee D278     		ldrb	r2, [r2, #3]	@ zero_extendqisi2
 1634 00f0 2C21     		movs	r1, #44
 1635 00f2 A847     		blx	r5
 1636              	.LVL200:
 321:user/drivers/u8g2/u8x8_byte.c ****       break;
 1637              		.loc 1 321 7 is_stmt 1 view .LVU372
 1638 00f4 2368     		ldr	r3, [r4]
 1639 00f6 5A78     		ldrb	r2, [r3, #1]	@ zero_extendqisi2
 1640 00f8 4921     		movs	r1, #73
 1641 00fa 2046     		mov	r0, r4
 1642 00fc FFF7FEFF 		bl	u8x8_gpio_call
 1643              	.LVL201:
 322:user/drivers/u8g2/u8x8_byte.c ****     default:
 1644              		.loc 1 322 7 view .LVU373
 326:user/drivers/u8g2/u8x8_byte.c **** }
 1645              		.loc 1 326 10 is_stmt 0 view .LVU374
 1646 0100 0120     		movs	r0, #1
 322:user/drivers/u8g2/u8x8_byte.c ****     default:
 1647              		.loc 1 322 7 view .LVU375
 1648 0102 00E0     		b	.L86
 1649              	.LVL202:
 1650              	.L99:
 277:user/drivers/u8g2/u8x8_byte.c ****   {
 1651              		.loc 1 277 3 view .LVU376
 1652 0104 0020     		movs	r0, #0
 1653              	.LVL203:
 1654              	.L86:
 327:user/drivers/u8g2/u8x8_byte.c **** 
 1655              		.loc 1 327 1 view .LVU377
 1656 0106 BDE8F087 		pop	{r4, r5, r6, r7, r8, r9, r10, pc}
 1657              	.LVL204:
 1658              	.L104:
 327:user/drivers/u8g2/u8x8_byte.c **** 
 1659              		.loc 1 327 1 view .LVU378
 1660 010a 00BF     		.align	2
 1661              	.L103:
 1662 010c 00000000 		.word	last_dc.1
 1663              		.cfi_endproc
ARM GAS  /var/folders/21/t9g5rlb91ys800n5npymflf80000gn/T//cclzeuEY.s 			page 45


 1664              	.LFE9:
 1666              		.section	.text.u8x8_byte_set_ks0108_cs,"ax",%progbits
 1667              		.align	1
 1668              		.global	u8x8_byte_set_ks0108_cs
 1669              		.syntax unified
 1670              		.thumb
 1671              		.thumb_func
 1673              	u8x8_byte_set_ks0108_cs:
 1674              	.LVL205:
 1675              	.LFB10:
 332:user/drivers/u8g2/u8x8_byte.c ****   u8x8_gpio_SetCS(u8x8, arg&1);
 1676              		.loc 1 332 1 is_stmt 1 view -0
 1677              		.cfi_startproc
 1678              		@ args = 0, pretend = 0, frame = 0
 1679              		@ frame_needed = 0, uses_anonymous_args = 0
 332:user/drivers/u8g2/u8x8_byte.c ****   u8x8_gpio_SetCS(u8x8, arg&1);
 1680              		.loc 1 332 1 is_stmt 0 view .LVU380
 1681 0000 38B5     		push	{r3, r4, r5, lr}
 1682              	.LCFI22:
 1683              		.cfi_def_cfa_offset 16
 1684              		.cfi_offset 3, -16
 1685              		.cfi_offset 4, -12
 1686              		.cfi_offset 5, -8
 1687              		.cfi_offset 14, -4
 1688 0002 0546     		mov	r5, r0
 1689 0004 0C46     		mov	r4, r1
 333:user/drivers/u8g2/u8x8_byte.c ****   arg = arg >> 1;
 1690              		.loc 1 333 3 is_stmt 1 view .LVU381
 1691 0006 01F00102 		and	r2, r1, #1
 1692 000a 4921     		movs	r1, #73
 1693              	.LVL206:
 333:user/drivers/u8g2/u8x8_byte.c ****   arg = arg >> 1;
 1694              		.loc 1 333 3 is_stmt 0 view .LVU382
 1695 000c FFF7FEFF 		bl	u8x8_gpio_call
 1696              	.LVL207:
 334:user/drivers/u8g2/u8x8_byte.c ****   u8x8_gpio_call(u8x8, U8X8_MSG_GPIO_CS1, arg&1);
 1697              		.loc 1 334 3 is_stmt 1 view .LVU383
 335:user/drivers/u8g2/u8x8_byte.c ****   arg = arg >> 1;
 1698              		.loc 1 335 3 view .LVU384
 1699 0010 C4F34002 		ubfx	r2, r4, #1, #1
 1700 0014 4E21     		movs	r1, #78
 1701 0016 2846     		mov	r0, r5
 1702 0018 FFF7FEFF 		bl	u8x8_gpio_call
 1703              	.LVL208:
 336:user/drivers/u8g2/u8x8_byte.c ****   u8x8_gpio_call(u8x8, U8X8_MSG_GPIO_CS2, arg&1);
 1704              		.loc 1 336 3 view .LVU385
 337:user/drivers/u8g2/u8x8_byte.c **** }
 1705              		.loc 1 337 3 view .LVU386
 1706 001c C4F38002 		ubfx	r2, r4, #2, #1
 1707 0020 4F21     		movs	r1, #79
 1708 0022 2846     		mov	r0, r5
 1709 0024 FFF7FEFF 		bl	u8x8_gpio_call
 1710              	.LVL209:
 338:user/drivers/u8g2/u8x8_byte.c **** 
 1711              		.loc 1 338 1 is_stmt 0 view .LVU387
 1712 0028 38BD     		pop	{r3, r4, r5, pc}
 338:user/drivers/u8g2/u8x8_byte.c **** 
ARM GAS  /var/folders/21/t9g5rlb91ys800n5npymflf80000gn/T//cclzeuEY.s 			page 46


 1713              		.loc 1 338 1 view .LVU388
 1714              		.cfi_endproc
 1715              	.LFE10:
 1717              		.section	.text.u8x8_byte_ks0108,"ax",%progbits
 1718              		.align	1
 1719              		.global	u8x8_byte_ks0108
 1720              		.syntax unified
 1721              		.thumb
 1722              		.thumb_func
 1724              	u8x8_byte_ks0108:
 1725              	.LVL210:
 1726              	.LFB11:
 342:user/drivers/u8g2/u8x8_byte.c ****   uint8_t i, b;
 1727              		.loc 1 342 1 is_stmt 1 view -0
 1728              		.cfi_startproc
 1729              		@ args = 0, pretend = 0, frame = 0
 1730              		@ frame_needed = 0, uses_anonymous_args = 0
 342:user/drivers/u8g2/u8x8_byte.c ****   uint8_t i, b;
 1731              		.loc 1 342 1 is_stmt 0 view .LVU390
 1732 0000 2DE9F041 		push	{r4, r5, r6, r7, r8, lr}
 1733              	.LCFI23:
 1734              		.cfi_def_cfa_offset 24
 1735              		.cfi_offset 4, -24
 1736              		.cfi_offset 5, -20
 1737              		.cfi_offset 6, -16
 1738              		.cfi_offset 7, -12
 1739              		.cfi_offset 8, -8
 1740              		.cfi_offset 14, -4
 1741 0004 0646     		mov	r6, r0
 1742 0006 1746     		mov	r7, r2
 1743 0008 9846     		mov	r8, r3
 343:user/drivers/u8g2/u8x8_byte.c ****   uint8_t *data;
 1744              		.loc 1 343 3 is_stmt 1 view .LVU391
 344:user/drivers/u8g2/u8x8_byte.c ****  
 1745              		.loc 1 344 3 view .LVU392
 346:user/drivers/u8g2/u8x8_byte.c ****   {
 1746              		.loc 1 346 3 view .LVU393
 1747 000a 1439     		subs	r1, r1, #20
 1748              	.LVL211:
 346:user/drivers/u8g2/u8x8_byte.c ****   {
 1749              		.loc 1 346 3 is_stmt 0 view .LVU394
 1750 000c 0C29     		cmp	r1, #12
 1751 000e 5BD8     		bhi	.L118
 1752 0010 DFE801F0 		tbb	[pc, r1]
 1753              	.LVL212:
 1754              	.L110:
 1755 0014 31       		.byte	(.L114-.L110)/2
 1756 0015 5A       		.byte	(.L118-.L110)/2
 1757 0016 5A       		.byte	(.L118-.L110)/2
 1758 0017 28       		.byte	(.L113-.L110)/2
 1759 0018 42       		.byte	(.L112-.L110)/2
 1760 0019 4E       		.byte	(.L111-.L110)/2
 1761 001a 5A       		.byte	(.L118-.L110)/2
 1762 001b 5A       		.byte	(.L118-.L110)/2
 1763 001c 5A       		.byte	(.L118-.L110)/2
 1764 001d 5A       		.byte	(.L118-.L110)/2
 1765 001e 5A       		.byte	(.L118-.L110)/2
ARM GAS  /var/folders/21/t9g5rlb91ys800n5npymflf80000gn/T//cclzeuEY.s 			page 47


 1766 001f 5A       		.byte	(.L118-.L110)/2
 1767 0020 3D       		.byte	(.L109-.L110)/2
 1768 0021 00       		.p2align 1
 1769              	.L116:
 357:user/drivers/u8g2/u8x8_byte.c **** 	  b >>= 1;
 1770              		.loc 1 357 4 is_stmt 1 discriminator 3 view .LVU395
 1771 0022 05F00102 		and	r2, r5, #1
 1772 0026 2146     		mov	r1, r4
 1773 0028 3046     		mov	r0, r6
 1774 002a FFF7FEFF 		bl	u8x8_gpio_call
 1775              	.LVL213:
 358:user/drivers/u8g2/u8x8_byte.c **** 	}    
 1776              		.loc 1 358 4 discriminator 3 view .LVU396
 358:user/drivers/u8g2/u8x8_byte.c **** 	}    
 1777              		.loc 1 358 6 is_stmt 0 discriminator 3 view .LVU397
 1778 002e 6D08     		lsrs	r5, r5, #1
 1779              	.LVL214:
 355:user/drivers/u8g2/u8x8_byte.c **** 	{
 1780              		.loc 1 355 53 is_stmt 1 discriminator 3 view .LVU398
 1781 0030 0134     		adds	r4, r4, #1
 1782              	.LVL215:
 355:user/drivers/u8g2/u8x8_byte.c **** 	{
 1783              		.loc 1 355 53 is_stmt 0 discriminator 3 view .LVU399
 1784 0032 E4B2     		uxtb	r4, r4
 1785              	.LVL216:
 1786              	.L115:
 355:user/drivers/u8g2/u8x8_byte.c **** 	{
 1787              		.loc 1 355 31 is_stmt 1 discriminator 1 view .LVU400
 1788 0034 472C     		cmp	r4, #71
 1789 0036 F4D9     		bls	.L116
 361:user/drivers/u8g2/u8x8_byte.c **** 	u8x8_gpio_call(u8x8, U8X8_MSG_GPIO_E, 1);
 1790              		.loc 1 361 2 view .LVU401
 1791 0038 3368     		ldr	r3, [r6]
 1792 003a 9A7B     		ldrb	r2, [r3, #14]	@ zero_extendqisi2
 1793 003c 2C21     		movs	r1, #44
 1794 003e 3046     		mov	r0, r6
 1795 0040 FFF7FEFF 		bl	u8x8_gpio_call
 1796              	.LVL217:
 362:user/drivers/u8g2/u8x8_byte.c **** 	u8x8_gpio_Delay(u8x8, U8X8_MSG_DELAY_NANO, u8x8->display_info->write_pulse_width_ns);
 1797              		.loc 1 362 2 view .LVU402
 1798 0044 0122     		movs	r2, #1
 1799 0046 4821     		movs	r1, #72
 1800 0048 3046     		mov	r0, r6
 1801 004a FFF7FEFF 		bl	u8x8_gpio_call
 1802              	.LVL218:
 363:user/drivers/u8g2/u8x8_byte.c **** 	u8x8_gpio_call(u8x8, U8X8_MSG_GPIO_E, 0);
 1803              		.loc 1 363 2 view .LVU403
 1804 004e 3368     		ldr	r3, [r6]
 1805 0050 DA7B     		ldrb	r2, [r3, #15]	@ zero_extendqisi2
 1806 0052 2C21     		movs	r1, #44
 1807 0054 3046     		mov	r0, r6
 1808 0056 FFF7FEFF 		bl	u8x8_gpio_call
 1809              	.LVL219:
 364:user/drivers/u8g2/u8x8_byte.c ****       }
 1810              		.loc 1 364 2 view .LVU404
 1811 005a 0022     		movs	r2, #0
 1812 005c 4821     		movs	r1, #72
ARM GAS  /var/folders/21/t9g5rlb91ys800n5npymflf80000gn/T//cclzeuEY.s 			page 48


 1813 005e 3046     		mov	r0, r6
 1814 0060 FFF7FEFF 		bl	u8x8_gpio_call
 1815              	.LVL220:
 1816              	.L113:
 350:user/drivers/u8g2/u8x8_byte.c ****       {
 1817              		.loc 1 350 22 view .LVU405
 1818 0064 2FB1     		cbz	r7, .L121
 352:user/drivers/u8g2/u8x8_byte.c **** 	data++;
 1819              		.loc 1 352 2 view .LVU406
 352:user/drivers/u8g2/u8x8_byte.c **** 	data++;
 1820              		.loc 1 352 4 is_stmt 0 view .LVU407
 1821 0066 18F8015B 		ldrb	r5, [r8], #1	@ zero_extendqisi2
 1822              	.LVL221:
 353:user/drivers/u8g2/u8x8_byte.c **** 	arg_int--;
 1823              		.loc 1 353 2 is_stmt 1 view .LVU408
 354:user/drivers/u8g2/u8x8_byte.c **** 	for( i = U8X8_MSG_GPIO_D0; i <= U8X8_MSG_GPIO_D7; i++ )
 1824              		.loc 1 354 2 view .LVU409
 354:user/drivers/u8g2/u8x8_byte.c **** 	for( i = U8X8_MSG_GPIO_D0; i <= U8X8_MSG_GPIO_D7; i++ )
 1825              		.loc 1 354 9 is_stmt 0 view .LVU410
 1826 006a 013F     		subs	r7, r7, #1
 1827              	.LVL222:
 354:user/drivers/u8g2/u8x8_byte.c **** 	for( i = U8X8_MSG_GPIO_D0; i <= U8X8_MSG_GPIO_D7; i++ )
 1828              		.loc 1 354 9 view .LVU411
 1829 006c FFB2     		uxtb	r7, r7
 1830              	.LVL223:
 355:user/drivers/u8g2/u8x8_byte.c **** 	{
 1831              		.loc 1 355 2 is_stmt 1 view .LVU412
 355:user/drivers/u8g2/u8x8_byte.c **** 	{
 1832              		.loc 1 355 9 is_stmt 0 view .LVU413
 1833 006e 4024     		movs	r4, #64
 355:user/drivers/u8g2/u8x8_byte.c **** 	{
 1834              		.loc 1 355 2 view .LVU414
 1835 0070 E0E7     		b	.L115
 1836              	.LVL224:
 1837              	.L121:
 389:user/drivers/u8g2/u8x8_byte.c **** }
 1838              		.loc 1 389 10 view .LVU415
 1839 0072 0120     		movs	r0, #1
 1840 0074 29E0     		b	.L108
 1841              	.LVL225:
 1842              	.L114:
 370:user/drivers/u8g2/u8x8_byte.c ****       /* ensure that the enable signal is low */
 1843              		.loc 1 370 7 is_stmt 1 view .LVU416
 1844 0076 0368     		ldr	r3, [r0]
 1845 0078 5A78     		ldrb	r2, [r3, #1]	@ zero_extendqisi2
 1846              	.LVL226:
 370:user/drivers/u8g2/u8x8_byte.c ****       /* ensure that the enable signal is low */
 1847              		.loc 1 370 7 is_stmt 0 view .LVU417
 1848 007a 4921     		movs	r1, #73
 1849 007c FFF7FEFF 		bl	u8x8_gpio_call
 1850              	.LVL227:
 372:user/drivers/u8g2/u8x8_byte.c ****       break;
 1851              		.loc 1 372 7 is_stmt 1 view .LVU418
 1852 0080 0022     		movs	r2, #0
 1853 0082 4821     		movs	r1, #72
 1854 0084 3046     		mov	r0, r6
 1855 0086 FFF7FEFF 		bl	u8x8_gpio_call
ARM GAS  /var/folders/21/t9g5rlb91ys800n5npymflf80000gn/T//cclzeuEY.s 			page 49


 1856              	.LVL228:
 373:user/drivers/u8g2/u8x8_byte.c ****     case U8X8_MSG_BYTE_SET_DC:
 1857              		.loc 1 373 7 view .LVU419
 389:user/drivers/u8g2/u8x8_byte.c **** }
 1858              		.loc 1 389 10 is_stmt 0 view .LVU420
 1859 008a 0120     		movs	r0, #1
 373:user/drivers/u8g2/u8x8_byte.c ****     case U8X8_MSG_BYTE_SET_DC:
 1860              		.loc 1 373 7 view .LVU421
 1861 008c 1DE0     		b	.L108
 1862              	.LVL229:
 1863              	.L109:
 375:user/drivers/u8g2/u8x8_byte.c ****       break;
 1864              		.loc 1 375 7 is_stmt 1 view .LVU422
 1865 008e 4A21     		movs	r1, #74
 1866 0090 FFF7FEFF 		bl	u8x8_gpio_call
 1867              	.LVL230:
 376:user/drivers/u8g2/u8x8_byte.c ****     case U8X8_MSG_BYTE_START_TRANSFER:
 1868              		.loc 1 376 7 view .LVU423
 389:user/drivers/u8g2/u8x8_byte.c **** }
 1869              		.loc 1 389 10 is_stmt 0 view .LVU424
 1870 0094 0120     		movs	r0, #1
 376:user/drivers/u8g2/u8x8_byte.c ****     case U8X8_MSG_BYTE_START_TRANSFER:
 1871              		.loc 1 376 7 view .LVU425
 1872 0096 18E0     		b	.L108
 1873              	.LVL231:
 1874              	.L112:
 379:user/drivers/u8g2/u8x8_byte.c ****       u8x8->gpio_and_delay_cb(u8x8, U8X8_MSG_DELAY_NANO, u8x8->display_info->post_chip_enable_wait_
 1875              		.loc 1 379 7 is_stmt 1 view .LVU426
 1876 0098 1146     		mov	r1, r2
 1877 009a FFF7FEFF 		bl	u8x8_byte_set_ks0108_cs
 1878              	.LVL232:
 380:user/drivers/u8g2/u8x8_byte.c ****       break;
 1879              		.loc 1 380 7 view .LVU427
 380:user/drivers/u8g2/u8x8_byte.c ****       break;
 1880              		.loc 1 380 11 is_stmt 0 view .LVU428
 1881 009e 7469     		ldr	r4, [r6, #20]
 380:user/drivers/u8g2/u8x8_byte.c ****       break;
 1882              		.loc 1 380 62 view .LVU429
 1883 00a0 3268     		ldr	r2, [r6]
 380:user/drivers/u8g2/u8x8_byte.c ****       break;
 1884              		.loc 1 380 7 view .LVU430
 1885 00a2 0023     		movs	r3, #0
 1886 00a4 9278     		ldrb	r2, [r2, #2]	@ zero_extendqisi2
 1887 00a6 2C21     		movs	r1, #44
 1888 00a8 3046     		mov	r0, r6
 1889 00aa A047     		blx	r4
 1890              	.LVL233:
 381:user/drivers/u8g2/u8x8_byte.c ****     case U8X8_MSG_BYTE_END_TRANSFER:
 1891              		.loc 1 381 7 is_stmt 1 view .LVU431
 389:user/drivers/u8g2/u8x8_byte.c **** }
 1892              		.loc 1 389 10 is_stmt 0 view .LVU432
 1893 00ac 0120     		movs	r0, #1
 381:user/drivers/u8g2/u8x8_byte.c ****     case U8X8_MSG_BYTE_END_TRANSFER:
 1894              		.loc 1 381 7 view .LVU433
 1895 00ae 0CE0     		b	.L108
 1896              	.LVL234:
 1897              	.L111:
ARM GAS  /var/folders/21/t9g5rlb91ys800n5npymflf80000gn/T//cclzeuEY.s 			page 50


 383:user/drivers/u8g2/u8x8_byte.c ****       u8x8_byte_set_ks0108_cs(u8x8, arg_int);
 1898              		.loc 1 383 7 is_stmt 1 view .LVU434
 383:user/drivers/u8g2/u8x8_byte.c ****       u8x8_byte_set_ks0108_cs(u8x8, arg_int);
 1899              		.loc 1 383 11 is_stmt 0 view .LVU435
 1900 00b0 4469     		ldr	r4, [r0, #20]
 383:user/drivers/u8g2/u8x8_byte.c ****       u8x8_byte_set_ks0108_cs(u8x8, arg_int);
 1901              		.loc 1 383 62 view .LVU436
 1902 00b2 0268     		ldr	r2, [r0]
 1903              	.LVL235:
 383:user/drivers/u8g2/u8x8_byte.c ****       u8x8_byte_set_ks0108_cs(u8x8, arg_int);
 1904              		.loc 1 383 7 view .LVU437
 1905 00b4 0023     		movs	r3, #0
 1906 00b6 D278     		ldrb	r2, [r2, #3]	@ zero_extendqisi2
 1907 00b8 2C21     		movs	r1, #44
 1908 00ba A047     		blx	r4
 1909              	.LVL236:
 384:user/drivers/u8g2/u8x8_byte.c ****       break;
 1910              		.loc 1 384 7 is_stmt 1 view .LVU438
 1911 00bc 3946     		mov	r1, r7
 1912 00be 3046     		mov	r0, r6
 1913 00c0 FFF7FEFF 		bl	u8x8_byte_set_ks0108_cs
 1914              	.LVL237:
 385:user/drivers/u8g2/u8x8_byte.c ****     default:
 1915              		.loc 1 385 7 view .LVU439
 389:user/drivers/u8g2/u8x8_byte.c **** }
 1916              		.loc 1 389 10 is_stmt 0 view .LVU440
 1917 00c4 0120     		movs	r0, #1
 385:user/drivers/u8g2/u8x8_byte.c ****     default:
 1918              		.loc 1 385 7 view .LVU441
 1919 00c6 00E0     		b	.L108
 1920              	.LVL238:
 1921              	.L118:
 346:user/drivers/u8g2/u8x8_byte.c ****   {
 1922              		.loc 1 346 3 view .LVU442
 1923 00c8 0020     		movs	r0, #0
 1924              	.LVL239:
 1925              	.L108:
 390:user/drivers/u8g2/u8x8_byte.c **** 
 1926              		.loc 1 390 1 view .LVU443
 1927 00ca BDE8F081 		pop	{r4, r5, r6, r7, r8, pc}
 390:user/drivers/u8g2/u8x8_byte.c **** 
 1928              		.loc 1 390 1 view .LVU444
 1929              		.cfi_endproc
 1930              	.LFE11:
 1932              		.section	.text.u8x8_byte_sed1520,"ax",%progbits
 1933              		.align	1
 1934              		.global	u8x8_byte_sed1520
 1935              		.syntax unified
 1936              		.thumb
 1937              		.thumb_func
 1939              	u8x8_byte_sed1520:
 1940              	.LVL240:
 1941              	.LFB12:
 398:user/drivers/u8g2/u8x8_byte.c ****   uint8_t i, b;
 1942              		.loc 1 398 1 is_stmt 1 view -0
 1943              		.cfi_startproc
 1944              		@ args = 0, pretend = 0, frame = 0
ARM GAS  /var/folders/21/t9g5rlb91ys800n5npymflf80000gn/T//cclzeuEY.s 			page 51


 1945              		@ frame_needed = 0, uses_anonymous_args = 0
 398:user/drivers/u8g2/u8x8_byte.c ****   uint8_t i, b;
 1946              		.loc 1 398 1 is_stmt 0 view .LVU446
 1947 0000 2DE9F041 		push	{r4, r5, r6, r7, r8, lr}
 1948              	.LCFI24:
 1949              		.cfi_def_cfa_offset 24
 1950              		.cfi_offset 4, -24
 1951              		.cfi_offset 5, -20
 1952              		.cfi_offset 6, -16
 1953              		.cfi_offset 7, -12
 1954              		.cfi_offset 8, -8
 1955              		.cfi_offset 14, -4
 1956 0004 0646     		mov	r6, r0
 1957 0006 1746     		mov	r7, r2
 1958 0008 9846     		mov	r8, r3
 399:user/drivers/u8g2/u8x8_byte.c ****   uint8_t *data;
 1959              		.loc 1 399 3 is_stmt 1 view .LVU447
 400:user/drivers/u8g2/u8x8_byte.c ****   static uint8_t enable_pin;
 1960              		.loc 1 400 3 view .LVU448
 401:user/drivers/u8g2/u8x8_byte.c ****  
 1961              		.loc 1 401 3 view .LVU449
 403:user/drivers/u8g2/u8x8_byte.c ****   {
 1962              		.loc 1 403 3 view .LVU450
 1963 000a 1439     		subs	r1, r1, #20
 1964              	.LVL241:
 403:user/drivers/u8g2/u8x8_byte.c ****   {
 1965              		.loc 1 403 3 is_stmt 0 view .LVU451
 1966 000c 0C29     		cmp	r1, #12
 1967 000e 08D8     		bhi	.L123
 1968 0010 DFE801F0 		tbb	[pc, r1]
 1969              	.LVL242:
 1970              	.L125:
 1971 0014 3A       		.byte	(.L129-.L125)/2
 1972 0015 07       		.byte	(.L123-.L125)/2
 1973 0016 07       		.byte	(.L123-.L125)/2
 1974 0017 31       		.byte	(.L128-.L125)/2
 1975 0018 53       		.byte	(.L127-.L125)/2
 1976 0019 5B       		.byte	(.L133-.L125)/2
 1977 001a 07       		.byte	(.L123-.L125)/2
 1978 001b 07       		.byte	(.L123-.L125)/2
 1979 001c 07       		.byte	(.L123-.L125)/2
 1980 001d 07       		.byte	(.L123-.L125)/2
 1981 001e 07       		.byte	(.L123-.L125)/2
 1982 001f 07       		.byte	(.L123-.L125)/2
 1983 0020 4E       		.byte	(.L124-.L125)/2
 1984 0021 00       		.p2align 1
 1985              	.L123:
 403:user/drivers/u8g2/u8x8_byte.c ****   {
 1986              		.loc 1 403 3 view .LVU452
 1987 0022 0020     		movs	r0, #0
 1988              	.LVL243:
 1989              	.L126:
 451:user/drivers/u8g2/u8x8_byte.c **** 
 1990              		.loc 1 451 1 view .LVU453
 1991 0024 BDE8F081 		pop	{r4, r5, r6, r7, r8, pc}
 1992              	.LVL244:
 1993              	.L131:
ARM GAS  /var/folders/21/t9g5rlb91ys800n5npymflf80000gn/T//cclzeuEY.s 			page 52


 414:user/drivers/u8g2/u8x8_byte.c **** 	  b >>= 1;
 1994              		.loc 1 414 4 is_stmt 1 discriminator 3 view .LVU454
 1995 0028 05F00102 		and	r2, r5, #1
 1996 002c 2146     		mov	r1, r4
 1997 002e 3046     		mov	r0, r6
 1998 0030 FFF7FEFF 		bl	u8x8_gpio_call
 1999              	.LVL245:
 415:user/drivers/u8g2/u8x8_byte.c **** 	}    
 2000              		.loc 1 415 4 discriminator 3 view .LVU455
 415:user/drivers/u8g2/u8x8_byte.c **** 	}    
 2001              		.loc 1 415 6 is_stmt 0 discriminator 3 view .LVU456
 2002 0034 6D08     		lsrs	r5, r5, #1
 2003              	.LVL246:
 412:user/drivers/u8g2/u8x8_byte.c **** 	{
 2004              		.loc 1 412 53 is_stmt 1 discriminator 3 view .LVU457
 2005 0036 0134     		adds	r4, r4, #1
 2006              	.LVL247:
 412:user/drivers/u8g2/u8x8_byte.c **** 	{
 2007              		.loc 1 412 53 is_stmt 0 discriminator 3 view .LVU458
 2008 0038 E4B2     		uxtb	r4, r4
 2009              	.LVL248:
 2010              	.L130:
 412:user/drivers/u8g2/u8x8_byte.c **** 	{
 2011              		.loc 1 412 31 is_stmt 1 discriminator 1 view .LVU459
 2012 003a 472C     		cmp	r4, #71
 2013 003c F4D9     		bls	.L131
 418:user/drivers/u8g2/u8x8_byte.c **** 	u8x8_gpio_call(u8x8, enable_pin, 1);
 2014              		.loc 1 418 2 view .LVU460
 2015 003e 3368     		ldr	r3, [r6]
 2016 0040 9A7B     		ldrb	r2, [r3, #14]	@ zero_extendqisi2
 2017 0042 2C21     		movs	r1, #44
 2018 0044 3046     		mov	r0, r6
 2019 0046 FFF7FEFF 		bl	u8x8_gpio_call
 2020              	.LVL249:
 419:user/drivers/u8g2/u8x8_byte.c **** 	u8x8_gpio_Delay(u8x8, U8X8_MSG_DELAY_NANO, 200);		/* KS0108 requires 450 ns, use 200 here */
 2021              		.loc 1 419 2 view .LVU461
 2022 004a 224C     		ldr	r4, .L138
 2023              	.LVL250:
 419:user/drivers/u8g2/u8x8_byte.c **** 	u8x8_gpio_Delay(u8x8, U8X8_MSG_DELAY_NANO, 200);		/* KS0108 requires 450 ns, use 200 here */
 2024              		.loc 1 419 2 is_stmt 0 view .LVU462
 2025 004c 0122     		movs	r2, #1
 2026 004e 2178     		ldrb	r1, [r4]	@ zero_extendqisi2
 2027 0050 3046     		mov	r0, r6
 2028 0052 FFF7FEFF 		bl	u8x8_gpio_call
 2029              	.LVL251:
 420:user/drivers/u8g2/u8x8_byte.c **** 	u8x8_gpio_Delay(u8x8, U8X8_MSG_DELAY_NANO, u8x8->display_info->write_pulse_width_ns);  /* expect 2
 2030              		.loc 1 420 2 is_stmt 1 view .LVU463
 2031 0056 C822     		movs	r2, #200
 2032 0058 2C21     		movs	r1, #44
 2033 005a 3046     		mov	r0, r6
 2034 005c FFF7FEFF 		bl	u8x8_gpio_call
 2035              	.LVL252:
 421:user/drivers/u8g2/u8x8_byte.c **** 	u8x8_gpio_call(u8x8, enable_pin, 0);
 2036              		.loc 1 421 2 view .LVU464
 2037 0060 3368     		ldr	r3, [r6]
 2038 0062 DA7B     		ldrb	r2, [r3, #15]	@ zero_extendqisi2
 2039 0064 2C21     		movs	r1, #44
ARM GAS  /var/folders/21/t9g5rlb91ys800n5npymflf80000gn/T//cclzeuEY.s 			page 53


 2040 0066 3046     		mov	r0, r6
 2041 0068 FFF7FEFF 		bl	u8x8_gpio_call
 2042              	.LVL253:
 422:user/drivers/u8g2/u8x8_byte.c ****       }
 2043              		.loc 1 422 2 view .LVU465
 2044 006c 0022     		movs	r2, #0
 2045 006e 2178     		ldrb	r1, [r4]	@ zero_extendqisi2
 2046 0070 3046     		mov	r0, r6
 2047 0072 FFF7FEFF 		bl	u8x8_gpio_call
 2048              	.LVL254:
 2049              	.L128:
 407:user/drivers/u8g2/u8x8_byte.c ****       {
 2050              		.loc 1 407 22 view .LVU466
 2051 0076 2FB1     		cbz	r7, .L137
 409:user/drivers/u8g2/u8x8_byte.c **** 	data++;
 2052              		.loc 1 409 2 view .LVU467
 409:user/drivers/u8g2/u8x8_byte.c **** 	data++;
 2053              		.loc 1 409 4 is_stmt 0 view .LVU468
 2054 0078 18F8015B 		ldrb	r5, [r8], #1	@ zero_extendqisi2
 2055              	.LVL255:
 410:user/drivers/u8g2/u8x8_byte.c **** 	arg_int--;
 2056              		.loc 1 410 2 is_stmt 1 view .LVU469
 411:user/drivers/u8g2/u8x8_byte.c **** 	for( i = U8X8_MSG_GPIO_D0; i <= U8X8_MSG_GPIO_D7; i++ )
 2057              		.loc 1 411 2 view .LVU470
 411:user/drivers/u8g2/u8x8_byte.c **** 	for( i = U8X8_MSG_GPIO_D0; i <= U8X8_MSG_GPIO_D7; i++ )
 2058              		.loc 1 411 9 is_stmt 0 view .LVU471
 2059 007c 013F     		subs	r7, r7, #1
 2060              	.LVL256:
 411:user/drivers/u8g2/u8x8_byte.c **** 	for( i = U8X8_MSG_GPIO_D0; i <= U8X8_MSG_GPIO_D7; i++ )
 2061              		.loc 1 411 9 view .LVU472
 2062 007e FFB2     		uxtb	r7, r7
 2063              	.LVL257:
 412:user/drivers/u8g2/u8x8_byte.c **** 	{
 2064              		.loc 1 412 2 is_stmt 1 view .LVU473
 412:user/drivers/u8g2/u8x8_byte.c **** 	{
 2065              		.loc 1 412 9 is_stmt 0 view .LVU474
 2066 0080 4024     		movs	r4, #64
 412:user/drivers/u8g2/u8x8_byte.c **** 	{
 2067              		.loc 1 412 2 view .LVU475
 2068 0082 DAE7     		b	.L130
 2069              	.LVL258:
 2070              	.L137:
 450:user/drivers/u8g2/u8x8_byte.c **** }
 2071              		.loc 1 450 10 view .LVU476
 2072 0084 0120     		movs	r0, #1
 2073 0086 CDE7     		b	.L126
 2074              	.LVL259:
 2075              	.L129:
 428:user/drivers/u8g2/u8x8_byte.c ****       /* ensure that the enable signals are low */
 2076              		.loc 1 428 7 is_stmt 1 view .LVU477
 2077 0088 0368     		ldr	r3, [r0]
 2078 008a 5A78     		ldrb	r2, [r3, #1]	@ zero_extendqisi2
 2079              	.LVL260:
 428:user/drivers/u8g2/u8x8_byte.c ****       /* ensure that the enable signals are low */
 2080              		.loc 1 428 7 is_stmt 0 view .LVU478
 2081 008c 4921     		movs	r1, #73
 2082 008e FFF7FEFF 		bl	u8x8_gpio_call
ARM GAS  /var/folders/21/t9g5rlb91ys800n5npymflf80000gn/T//cclzeuEY.s 			page 54


 2083              	.LVL261:
 430:user/drivers/u8g2/u8x8_byte.c ****       u8x8_gpio_call(u8x8, U8X8_MSG_GPIO_CS, 0);
 2084              		.loc 1 430 7 is_stmt 1 view .LVU479
 2085 0092 0022     		movs	r2, #0
 2086 0094 4821     		movs	r1, #72
 2087 0096 3046     		mov	r0, r6
 2088 0098 FFF7FEFF 		bl	u8x8_gpio_call
 2089              	.LVL262:
 431:user/drivers/u8g2/u8x8_byte.c ****       enable_pin = U8X8_MSG_GPIO_E;
 2090              		.loc 1 431 7 view .LVU480
 2091 009c 0022     		movs	r2, #0
 2092 009e 4921     		movs	r1, #73
 2093 00a0 3046     		mov	r0, r6
 2094 00a2 FFF7FEFF 		bl	u8x8_gpio_call
 2095              	.LVL263:
 432:user/drivers/u8g2/u8x8_byte.c ****       break;
 2096              		.loc 1 432 7 view .LVU481
 432:user/drivers/u8g2/u8x8_byte.c ****       break;
 2097              		.loc 1 432 18 is_stmt 0 view .LVU482
 2098 00a6 0B4B     		ldr	r3, .L138
 2099 00a8 4822     		movs	r2, #72
 2100 00aa 1A70     		strb	r2, [r3]
 433:user/drivers/u8g2/u8x8_byte.c ****     case U8X8_MSG_BYTE_SET_DC:
 2101              		.loc 1 433 7 is_stmt 1 view .LVU483
 450:user/drivers/u8g2/u8x8_byte.c **** }
 2102              		.loc 1 450 10 is_stmt 0 view .LVU484
 2103 00ac 0120     		movs	r0, #1
 433:user/drivers/u8g2/u8x8_byte.c ****     case U8X8_MSG_BYTE_SET_DC:
 2104              		.loc 1 433 7 view .LVU485
 2105 00ae B9E7     		b	.L126
 2106              	.LVL264:
 2107              	.L124:
 435:user/drivers/u8g2/u8x8_byte.c ****       break;
 2108              		.loc 1 435 7 is_stmt 1 view .LVU486
 2109 00b0 4A21     		movs	r1, #74
 2110 00b2 FFF7FEFF 		bl	u8x8_gpio_call
 2111              	.LVL265:
 436:user/drivers/u8g2/u8x8_byte.c ****     case U8X8_MSG_BYTE_START_TRANSFER:
 2112              		.loc 1 436 7 view .LVU487
 450:user/drivers/u8g2/u8x8_byte.c **** }
 2113              		.loc 1 450 10 is_stmt 0 view .LVU488
 2114 00b6 0120     		movs	r0, #1
 436:user/drivers/u8g2/u8x8_byte.c ****     case U8X8_MSG_BYTE_START_TRANSFER:
 2115              		.loc 1 436 7 view .LVU489
 2116 00b8 B4E7     		b	.L126
 2117              	.LVL266:
 2118              	.L127:
 441:user/drivers/u8g2/u8x8_byte.c ****       if ( arg_int != 0 )
 2119              		.loc 1 441 7 is_stmt 1 view .LVU490
 441:user/drivers/u8g2/u8x8_byte.c ****       if ( arg_int != 0 )
 2120              		.loc 1 441 18 is_stmt 0 view .LVU491
 2121 00ba 064B     		ldr	r3, .L138
 2122 00bc 4822     		movs	r2, #72
 2123              	.LVL267:
 441:user/drivers/u8g2/u8x8_byte.c ****       if ( arg_int != 0 )
 2124              		.loc 1 441 18 view .LVU492
 2125 00be 1A70     		strb	r2, [r3]
ARM GAS  /var/folders/21/t9g5rlb91ys800n5npymflf80000gn/T//cclzeuEY.s 			page 55


 442:user/drivers/u8g2/u8x8_byte.c **** 	enable_pin = U8X8_MSG_GPIO_CS;
 2126              		.loc 1 442 7 is_stmt 1 view .LVU493
 442:user/drivers/u8g2/u8x8_byte.c **** 	enable_pin = U8X8_MSG_GPIO_CS;
 2127              		.loc 1 442 10 is_stmt 0 view .LVU494
 2128 00c0 2FB1     		cbz	r7, .L134
 443:user/drivers/u8g2/u8x8_byte.c ****       break;
 2129              		.loc 1 443 2 is_stmt 1 view .LVU495
 443:user/drivers/u8g2/u8x8_byte.c ****       break;
 2130              		.loc 1 443 13 is_stmt 0 view .LVU496
 2131 00c2 4922     		movs	r2, #73
 2132 00c4 1A70     		strb	r2, [r3]
 450:user/drivers/u8g2/u8x8_byte.c **** }
 2133              		.loc 1 450 10 view .LVU497
 2134 00c6 0120     		movs	r0, #1
 2135              	.LVL268:
 450:user/drivers/u8g2/u8x8_byte.c **** }
 2136              		.loc 1 450 10 view .LVU498
 2137 00c8 ACE7     		b	.L126
 2138              	.LVL269:
 2139              	.L133:
 450:user/drivers/u8g2/u8x8_byte.c **** }
 2140              		.loc 1 450 10 view .LVU499
 2141 00ca 0120     		movs	r0, #1
 2142              	.LVL270:
 450:user/drivers/u8g2/u8x8_byte.c **** }
 2143              		.loc 1 450 10 view .LVU500
 2144 00cc AAE7     		b	.L126
 2145              	.LVL271:
 2146              	.L134:
 450:user/drivers/u8g2/u8x8_byte.c **** }
 2147              		.loc 1 450 10 view .LVU501
 2148 00ce 0120     		movs	r0, #1
 2149              	.LVL272:
 450:user/drivers/u8g2/u8x8_byte.c **** }
 2150              		.loc 1 450 10 view .LVU502
 2151 00d0 A8E7     		b	.L126
 2152              	.L139:
 2153 00d2 00BF     		.align	2
 2154              	.L138:
 2155 00d4 00000000 		.word	enable_pin.0
 2156              		.cfi_endproc
 2157              	.LFE12:
 2159              		.section	.text.u8x8_byte_sw_i2c,"ax",%progbits
 2160              		.align	1
 2161              		.global	u8x8_byte_sw_i2c
 2162              		.syntax unified
 2163              		.thumb
 2164              		.thumb_func
 2166              	u8x8_byte_sw_i2c:
 2167              	.LVL273:
 2168              	.LFB24:
 577:user/drivers/u8g2/u8x8_byte.c **** 
 578:user/drivers/u8g2/u8x8_byte.c **** uint8_t u8x8_byte_sw_i2c(u8x8_t *u8x8, uint8_t msg, uint8_t arg_int, void *arg_ptr)
 579:user/drivers/u8g2/u8x8_byte.c **** {
 2169              		.loc 1 579 1 is_stmt 1 view -0
 2170              		.cfi_startproc
 2171              		@ args = 0, pretend = 0, frame = 0
ARM GAS  /var/folders/21/t9g5rlb91ys800n5npymflf80000gn/T//cclzeuEY.s 			page 56


 2172              		@ frame_needed = 0, uses_anonymous_args = 0
 2173              		.loc 1 579 1 is_stmt 0 view .LVU504
 2174 0000 70B5     		push	{r4, r5, r6, lr}
 2175              	.LCFI25:
 2176              		.cfi_def_cfa_offset 16
 2177              		.cfi_offset 4, -16
 2178              		.cfi_offset 5, -12
 2179              		.cfi_offset 6, -8
 2180              		.cfi_offset 14, -4
 2181 0002 0646     		mov	r6, r0
 2182 0004 1446     		mov	r4, r2
 2183 0006 1D46     		mov	r5, r3
 580:user/drivers/u8g2/u8x8_byte.c ****   uint8_t *data;
 2184              		.loc 1 580 3 is_stmt 1 view .LVU505
 581:user/drivers/u8g2/u8x8_byte.c **** 
 582:user/drivers/u8g2/u8x8_byte.c ****   switch(msg)
 2185              		.loc 1 582 3 view .LVU506
 2186 0008 1439     		subs	r1, r1, #20
 2187              	.LVL274:
 2188              		.loc 1 582 3 is_stmt 0 view .LVU507
 2189 000a 0C29     		cmp	r1, #12
 2190 000c 08D8     		bhi	.L141
 2191 000e DFE801F0 		tbb	[pc, r1]
 2192              	.LVL275:
 2193              	.L143:
 2194 0012 14       		.byte	(.L147-.L143)/2
 2195 0013 07       		.byte	(.L141-.L143)/2
 2196 0014 07       		.byte	(.L141-.L143)/2
 2197 0015 10       		.byte	(.L146-.L143)/2
 2198 0016 18       		.byte	(.L145-.L143)/2
 2199 0017 21       		.byte	(.L144-.L143)/2
 2200 0018 07       		.byte	(.L141-.L143)/2
 2201 0019 07       		.byte	(.L141-.L143)/2
 2202 001a 07       		.byte	(.L141-.L143)/2
 2203 001b 07       		.byte	(.L141-.L143)/2
 2204 001c 07       		.byte	(.L141-.L143)/2
 2205 001d 07       		.byte	(.L141-.L143)/2
 2206 001e 25       		.byte	(.L149-.L143)/2
 2207 001f 00       		.p2align 1
 2208              	.L141:
 2209              		.loc 1 582 3 view .LVU508
 2210 0020 0020     		movs	r0, #0
 2211              	.LVL276:
 2212              	.L142:
 583:user/drivers/u8g2/u8x8_byte.c ****   {
 584:user/drivers/u8g2/u8x8_byte.c ****     case U8X8_MSG_BYTE_SEND:
 585:user/drivers/u8g2/u8x8_byte.c ****       data = (uint8_t *)arg_ptr;
 586:user/drivers/u8g2/u8x8_byte.c ****     
 587:user/drivers/u8g2/u8x8_byte.c ****       while( arg_int > 0 )
 588:user/drivers/u8g2/u8x8_byte.c ****       {
 589:user/drivers/u8g2/u8x8_byte.c **** 	i2c_write_byte(u8x8, *data);
 590:user/drivers/u8g2/u8x8_byte.c **** 	data++;
 591:user/drivers/u8g2/u8x8_byte.c **** 	arg_int--;
 592:user/drivers/u8g2/u8x8_byte.c ****       }
 593:user/drivers/u8g2/u8x8_byte.c ****       
 594:user/drivers/u8g2/u8x8_byte.c ****       break;
 595:user/drivers/u8g2/u8x8_byte.c ****       
ARM GAS  /var/folders/21/t9g5rlb91ys800n5npymflf80000gn/T//cclzeuEY.s 			page 57


 596:user/drivers/u8g2/u8x8_byte.c ****     case U8X8_MSG_BYTE_INIT:
 597:user/drivers/u8g2/u8x8_byte.c ****       i2c_init(u8x8);
 598:user/drivers/u8g2/u8x8_byte.c ****       break;
 599:user/drivers/u8g2/u8x8_byte.c ****     case U8X8_MSG_BYTE_SET_DC:
 600:user/drivers/u8g2/u8x8_byte.c ****       break;
 601:user/drivers/u8g2/u8x8_byte.c ****     case U8X8_MSG_BYTE_START_TRANSFER:
 602:user/drivers/u8g2/u8x8_byte.c ****       i2c_start(u8x8);
 603:user/drivers/u8g2/u8x8_byte.c ****       i2c_write_byte(u8x8, u8x8_GetI2CAddress(u8x8));
 604:user/drivers/u8g2/u8x8_byte.c ****       //i2c_write_byte(u8x8, 0x078);
 605:user/drivers/u8g2/u8x8_byte.c ****       break;
 606:user/drivers/u8g2/u8x8_byte.c ****     case U8X8_MSG_BYTE_END_TRANSFER:
 607:user/drivers/u8g2/u8x8_byte.c ****       i2c_stop(u8x8);
 608:user/drivers/u8g2/u8x8_byte.c ****       break;
 609:user/drivers/u8g2/u8x8_byte.c ****     default:
 610:user/drivers/u8g2/u8x8_byte.c ****       return 0;
 611:user/drivers/u8g2/u8x8_byte.c ****   }
 612:user/drivers/u8g2/u8x8_byte.c ****   return 1;
 613:user/drivers/u8g2/u8x8_byte.c **** }
 2213              		.loc 1 613 1 view .LVU509
 2214 0022 70BD     		pop	{r4, r5, r6, pc}
 2215              	.LVL277:
 2216              	.L148:
 589:user/drivers/u8g2/u8x8_byte.c **** 	data++;
 2217              		.loc 1 589 2 is_stmt 1 view .LVU510
 2218 0024 15F8011B 		ldrb	r1, [r5], #1	@ zero_extendqisi2
 2219              	.LVL278:
 589:user/drivers/u8g2/u8x8_byte.c **** 	data++;
 2220              		.loc 1 589 2 is_stmt 0 view .LVU511
 2221 0028 3046     		mov	r0, r6
 2222 002a FFF7FEFF 		bl	i2c_write_byte
 2223              	.LVL279:
 590:user/drivers/u8g2/u8x8_byte.c **** 	arg_int--;
 2224              		.loc 1 590 2 is_stmt 1 view .LVU512
 591:user/drivers/u8g2/u8x8_byte.c ****       }
 2225              		.loc 1 591 2 view .LVU513
 591:user/drivers/u8g2/u8x8_byte.c ****       }
 2226              		.loc 1 591 9 is_stmt 0 view .LVU514
 2227 002e 013C     		subs	r4, r4, #1
 2228              	.LVL280:
 591:user/drivers/u8g2/u8x8_byte.c ****       }
 2229              		.loc 1 591 9 view .LVU515
 2230 0030 E4B2     		uxtb	r4, r4
 2231              	.LVL281:
 2232              	.L146:
 587:user/drivers/u8g2/u8x8_byte.c ****       {
 2233              		.loc 1 587 22 is_stmt 1 view .LVU516
 2234 0032 002C     		cmp	r4, #0
 2235 0034 F6D1     		bne	.L148
 612:user/drivers/u8g2/u8x8_byte.c **** }
 2236              		.loc 1 612 10 is_stmt 0 view .LVU517
 2237 0036 0120     		movs	r0, #1
 2238 0038 F3E7     		b	.L142
 2239              	.LVL282:
 2240              	.L147:
 597:user/drivers/u8g2/u8x8_byte.c ****       break;
 2241              		.loc 1 597 7 is_stmt 1 view .LVU518
 2242 003a FFF7FEFF 		bl	i2c_init
ARM GAS  /var/folders/21/t9g5rlb91ys800n5npymflf80000gn/T//cclzeuEY.s 			page 58


 2243              	.LVL283:
 598:user/drivers/u8g2/u8x8_byte.c ****     case U8X8_MSG_BYTE_SET_DC:
 2244              		.loc 1 598 7 view .LVU519
 612:user/drivers/u8g2/u8x8_byte.c **** }
 2245              		.loc 1 612 10 is_stmt 0 view .LVU520
 2246 003e 0120     		movs	r0, #1
 598:user/drivers/u8g2/u8x8_byte.c ****     case U8X8_MSG_BYTE_SET_DC:
 2247              		.loc 1 598 7 view .LVU521
 2248 0040 EFE7     		b	.L142
 2249              	.LVL284:
 2250              	.L145:
 602:user/drivers/u8g2/u8x8_byte.c ****       i2c_write_byte(u8x8, u8x8_GetI2CAddress(u8x8));
 2251              		.loc 1 602 7 is_stmt 1 view .LVU522
 2252 0042 FFF7FEFF 		bl	i2c_start
 2253              	.LVL285:
 603:user/drivers/u8g2/u8x8_byte.c ****       //i2c_write_byte(u8x8, 0x078);
 2254              		.loc 1 603 7 view .LVU523
 2255 0046 96F82410 		ldrb	r1, [r6, #36]	@ zero_extendqisi2
 2256 004a 3046     		mov	r0, r6
 2257 004c FFF7FEFF 		bl	i2c_write_byte
 2258              	.LVL286:
 605:user/drivers/u8g2/u8x8_byte.c ****     case U8X8_MSG_BYTE_END_TRANSFER:
 2259              		.loc 1 605 7 view .LVU524
 612:user/drivers/u8g2/u8x8_byte.c **** }
 2260              		.loc 1 612 10 is_stmt 0 view .LVU525
 2261 0050 0120     		movs	r0, #1
 605:user/drivers/u8g2/u8x8_byte.c ****     case U8X8_MSG_BYTE_END_TRANSFER:
 2262              		.loc 1 605 7 view .LVU526
 2263 0052 E6E7     		b	.L142
 2264              	.LVL287:
 2265              	.L144:
 607:user/drivers/u8g2/u8x8_byte.c ****       break;
 2266              		.loc 1 607 7 is_stmt 1 view .LVU527
 2267 0054 FFF7FEFF 		bl	i2c_stop
 2268              	.LVL288:
 608:user/drivers/u8g2/u8x8_byte.c ****     default:
 2269              		.loc 1 608 7 view .LVU528
 612:user/drivers/u8g2/u8x8_byte.c **** }
 2270              		.loc 1 612 10 is_stmt 0 view .LVU529
 2271 0058 0120     		movs	r0, #1
 608:user/drivers/u8g2/u8x8_byte.c ****     default:
 2272              		.loc 1 608 7 view .LVU530
 2273 005a E2E7     		b	.L142
 2274              	.LVL289:
 2275              	.L149:
 612:user/drivers/u8g2/u8x8_byte.c **** }
 2276              		.loc 1 612 10 view .LVU531
 2277 005c 0120     		movs	r0, #1
 2278              	.LVL290:
 612:user/drivers/u8g2/u8x8_byte.c **** }
 2279              		.loc 1 612 10 view .LVU532
 2280 005e E0E7     		b	.L142
 2281              		.cfi_endproc
 2282              	.LFE24:
 2284              		.section	.bss.enable_pin.0,"aw",%nobits
 2287              	enable_pin.0:
 2288 0000 00       		.space	1
ARM GAS  /var/folders/21/t9g5rlb91ys800n5npymflf80000gn/T//cclzeuEY.s 			page 59


 2289              		.section	.bss.last_dc.1,"aw",%nobits
 2292              	last_dc.1:
 2293 0000 00       		.space	1
 2294              		.text
 2295              	.Letext0:
 2296              		.file 2 "/usr/local/include/_types/_uint8_t.h"
 2297              		.file 3 "/usr/local/include/_types/_uint16_t.h"
 2298              		.file 4 "/usr/local/include/_types/_uint32_t.h"
 2299              		.file 5 "user/drivers/u8g2/u8x8.h"
ARM GAS  /var/folders/21/t9g5rlb91ys800n5npymflf80000gn/T//cclzeuEY.s 			page 60

