ARM GAS  /var/folders/21/t9g5rlb91ys800n5npymflf80000gn/T//ccsu9bFS.s 			page 1


   1              		.cpu cortex-m4
   2              		.arch armv7e-m
   3              		.fpu fpv4-sp-d16
   4              		.eabi_attribute 27, 1
   5              		.eabi_attribute 28, 1
   6              		.eabi_attribute 20, 1
   7              		.eabi_attribute 21, 1
   8              		.eabi_attribute 23, 3
   9              		.eabi_attribute 24, 1
  10              		.eabi_attribute 25, 1
  11              		.eabi_attribute 26, 1
  12              		.eabi_attribute 30, 1
  13              		.eabi_attribute 34, 1
  14              		.eabi_attribute 18, 4
  15              		.file	"driver_mpu9250.c"
  16              		.text
  17              	.Ltext0:
  18              		.cfi_sections	.debug_frame
  19              		.file 1 "user/Src/driver_mpu9250.c"
  20              		.section	.text.a_mpu9250_read,"ax",%progbits
  21              		.align	1
  22              		.syntax unified
  23              		.thumb
  24              		.thumb_func
  26              	a_mpu9250_read:
  27              	.LVL0:
  28              	.LFB20:
   1:user/Src/driver_mpu9250.c **** /**
   2:user/Src/driver_mpu9250.c ****  * Copyright (c) 2015 - present LibDriver All rights reserved
   3:user/Src/driver_mpu9250.c ****  * 
   4:user/Src/driver_mpu9250.c ****  * The MIT License (MIT)
   5:user/Src/driver_mpu9250.c ****  *
   6:user/Src/driver_mpu9250.c ****  * Permission is hereby granted, free of charge, to any person obtaining a copy
   7:user/Src/driver_mpu9250.c ****  * of this software and associated documentation files (the "Software"), to deal
   8:user/Src/driver_mpu9250.c ****  * in the Software without restriction, including without limitation the rights
   9:user/Src/driver_mpu9250.c ****  * to use, copy, modify, merge, publish, distribute, sublicense, and/or sell
  10:user/Src/driver_mpu9250.c ****  * copies of the Software, and to permit persons to whom the Software is
  11:user/Src/driver_mpu9250.c ****  * furnished to do so, subject to the following conditions:
  12:user/Src/driver_mpu9250.c ****  *
  13:user/Src/driver_mpu9250.c ****  * The above copyright notice and this permission notice shall be included in all
  14:user/Src/driver_mpu9250.c ****  * copies or substantial portions of the Software.
  15:user/Src/driver_mpu9250.c ****  *
  16:user/Src/driver_mpu9250.c ****  * THE SOFTWARE IS PROVIDED "AS IS", WITHOUT WARRANTY OF ANY KIND, EXPRESS OR
  17:user/Src/driver_mpu9250.c ****  * IMPLIED, INCLUDING BUT NOT LIMITED TO THE WARRANTIES OF MERCHANTABILITY,
  18:user/Src/driver_mpu9250.c ****  * FITNESS FOR A PARTICULAR PURPOSE AND NONINFRINGEMENT. IN NO EVENT SHALL THE
  19:user/Src/driver_mpu9250.c ****  * AUTHORS OR COPYRIGHT HOLDERS BE LIABLE FOR ANY CLAIM, DAMAGES OR OTHER
  20:user/Src/driver_mpu9250.c ****  * LIABILITY, WHETHER IN AN ACTION OF CONTRACT, TORT OR OTHERWISE, ARISING FROM,
  21:user/Src/driver_mpu9250.c ****  * OUT OF OR IN CONNECTION WITH THE SOFTWARE OR THE USE OR OTHER DEALINGS IN THE
  22:user/Src/driver_mpu9250.c ****  * SOFTWARE. 
  23:user/Src/driver_mpu9250.c ****  *
  24:user/Src/driver_mpu9250.c ****  * @file      driver_mpu9250.c
  25:user/Src/driver_mpu9250.c ****  * @brief     driver mpu9250 source file
  26:user/Src/driver_mpu9250.c ****  * @version   1.0.0
  27:user/Src/driver_mpu9250.c ****  * @author    Shifeng Li
  28:user/Src/driver_mpu9250.c ****  * @date      2022-08-30
  29:user/Src/driver_mpu9250.c ****  *
  30:user/Src/driver_mpu9250.c ****  * <h3>history</h3>
ARM GAS  /var/folders/21/t9g5rlb91ys800n5npymflf80000gn/T//ccsu9bFS.s 			page 2


  31:user/Src/driver_mpu9250.c ****  * <table>
  32:user/Src/driver_mpu9250.c ****  * <tr><th>Date        <th>Version  <th>Author      <th>Description
  33:user/Src/driver_mpu9250.c ****  * <tr><td>2022/08/30  <td>1.0      <td>Shifeng Li  <td>first upload
  34:user/Src/driver_mpu9250.c ****  * </table>
  35:user/Src/driver_mpu9250.c ****  */
  36:user/Src/driver_mpu9250.c **** 
  37:user/Src/driver_mpu9250.c **** #include "driver_mpu9250.h"
  38:user/Src/driver_mpu9250.c **** #include "driver_mpu9250_code.h"
  39:user/Src/driver_mpu9250.c **** #include <math.h>
  40:user/Src/driver_mpu9250.c **** 
  41:user/Src/driver_mpu9250.c **** /**
  42:user/Src/driver_mpu9250.c ****  * @brief chip information definition
  43:user/Src/driver_mpu9250.c ****  */
  44:user/Src/driver_mpu9250.c **** #define CHIP_NAME                 "TDK MPU9250"        /**< chip name */
  45:user/Src/driver_mpu9250.c **** #define MANUFACTURER_NAME         "TDK"                /**< manufacturer name */
  46:user/Src/driver_mpu9250.c **** #define SUPPLY_VOLTAGE_MIN        2.4f                 /**< chip min supply voltage */
  47:user/Src/driver_mpu9250.c **** #define SUPPLY_VOLTAGE_MAX        3.6f                 /**< chip max supply voltage */
  48:user/Src/driver_mpu9250.c **** #define MAX_CURRENT               3.7f                 /**< chip max current */
  49:user/Src/driver_mpu9250.c **** #define TEMPERATURE_MIN           -40.0f               /**< chip min operating temperature */
  50:user/Src/driver_mpu9250.c **** #define TEMPERATURE_MAX           85.0f                /**< chip max operating temperature */
  51:user/Src/driver_mpu9250.c **** #define DRIVER_VERSION            1000                 /**< driver version */
  52:user/Src/driver_mpu9250.c **** 
  53:user/Src/driver_mpu9250.c **** /**
  54:user/Src/driver_mpu9250.c ****  * @brief chip ak8963 iic address definition
  55:user/Src/driver_mpu9250.c ****  */
  56:user/Src/driver_mpu9250.c **** #define AK8963_IIC_ADDRESS              0x0C        /**< ak8963 iic address */
  57:user/Src/driver_mpu9250.c **** 
  58:user/Src/driver_mpu9250.c **** /**
  59:user/Src/driver_mpu9250.c ****  * @brief chip register definition
  60:user/Src/driver_mpu9250.c ****  */
  61:user/Src/driver_mpu9250.c **** #define MPU9250_REG_SELF_TEST_X_GYRO    0x00        /**< gyro self test x register */
  62:user/Src/driver_mpu9250.c **** #define MPU9250_REG_SELF_TEST_Y_GYRO    0x01        /**< gyro self test y register */
  63:user/Src/driver_mpu9250.c **** #define MPU9250_REG_SELF_TEST_Z_GYRO    0x02        /**< gyro self test z register */
  64:user/Src/driver_mpu9250.c **** #define MPU9250_REG_SELF_TEST_X_ACCEL   0x0D        /**< accel self test x register */
  65:user/Src/driver_mpu9250.c **** #define MPU9250_REG_SELF_TEST_Y_ACCEL   0x0E        /**< accel self test y register */
  66:user/Src/driver_mpu9250.c **** #define MPU9250_REG_SELF_TEST_Z_ACCEL   0x0F        /**< accel self test z register */
  67:user/Src/driver_mpu9250.c **** #define MPU9250_REG_XG_OFFSET_H         0x13        /**< gyro offset x high register */
  68:user/Src/driver_mpu9250.c **** #define MPU9250_REG_XG_OFFSET_L         0x14        /**< gyro offset x low register */
  69:user/Src/driver_mpu9250.c **** #define MPU9250_REG_YG_OFFSET_H         0x15        /**< gyro offset y high register */
  70:user/Src/driver_mpu9250.c **** #define MPU9250_REG_YG_OFFSET_L         0x16        /**< gyro offset y low register */
  71:user/Src/driver_mpu9250.c **** #define MPU9250_REG_ZG_OFFSET_H         0x17        /**< gyro offset z high register */
  72:user/Src/driver_mpu9250.c **** #define MPU9250_REG_ZG_OFFSET_L         0x18        /**< gyro offset z low register */
  73:user/Src/driver_mpu9250.c **** #define MPU9250_REG_SMPRT_DIV           0x19        /**< smprt div register */
  74:user/Src/driver_mpu9250.c **** #define MPU9250_REG_CONFIG              0x1A        /**< configure register */
  75:user/Src/driver_mpu9250.c **** #define MPU9250_REG_GYRO_CONFIG         0x1B        /**< gyro configure register */
  76:user/Src/driver_mpu9250.c **** #define MPU9250_REG_ACCEL_CONFIG        0x1C        /**< accel configure register */
  77:user/Src/driver_mpu9250.c **** #define MPU9250_REG_ACCEL_CONFIG2       0x1D        /**< accel configure 2 register */
  78:user/Src/driver_mpu9250.c **** #define MPU9250_REG_LP_ACCEL_ODR        0x1E        /**< low power accel odr register */
  79:user/Src/driver_mpu9250.c **** #define MPU9250_REG_WOM_THR             0x1F        /**< wom threshold register */
  80:user/Src/driver_mpu9250.c **** #define MPU9250_REG_MOTION_DURATION     0x20        /**< motion duration register */
  81:user/Src/driver_mpu9250.c **** #define MPU9250_REG_FIFO_EN             0x23        /**< fifo enable register */
  82:user/Src/driver_mpu9250.c **** #define MPU9250_REG_I2C_MST_CTRL        0x24        /**< i2c master ctrl register */
  83:user/Src/driver_mpu9250.c **** #define MPU9250_REG_I2C_MST_STATUS      0x36        /**< i2c master status register */
  84:user/Src/driver_mpu9250.c **** #define MPU9250_REG_I2C_MST_DELAY_CTRL  0x67        /**< i2c master delay ctrl register */
  85:user/Src/driver_mpu9250.c **** #define MPU9250_REG_I2C_SLV0_ADDR       0x25        /**< iic slave0 address register */
  86:user/Src/driver_mpu9250.c **** #define MPU9250_REG_I2C_SLV0_REG        0x26        /**< iic slave0 reg register */
  87:user/Src/driver_mpu9250.c **** #define MPU9250_REG_I2C_SLV0_CTRL       0x27        /**< iic slave0 ctrl register */
ARM GAS  /var/folders/21/t9g5rlb91ys800n5npymflf80000gn/T//ccsu9bFS.s 			page 3


  88:user/Src/driver_mpu9250.c **** #define MPU9250_REG_I2C_SLV0_DO         0x63        /**< iic slave0 do register */
  89:user/Src/driver_mpu9250.c **** #define MPU9250_REG_I2C_SLV1_ADDR       0x28        /**< iic slave1 address register */
  90:user/Src/driver_mpu9250.c **** #define MPU9250_REG_I2C_SLV1_REG        0x29        /**< iic slave1 reg register */
  91:user/Src/driver_mpu9250.c **** #define MPU9250_REG_I2C_SLV1_CTRL       0x2A        /**< iic slave1 ctrl register */
  92:user/Src/driver_mpu9250.c **** #define MPU9250_REG_I2C_SLV1_DO         0x64        /**< iic slave1 do register */
  93:user/Src/driver_mpu9250.c **** #define MPU9250_REG_I2C_SLV2_ADDR       0x2B        /**< iic slave2 address register */
  94:user/Src/driver_mpu9250.c **** #define MPU9250_REG_I2C_SLV2_REG        0x2C        /**< iic slave2 reg register */
  95:user/Src/driver_mpu9250.c **** #define MPU9250_REG_I2C_SLV2_CTRL       0x2D        /**< iic slave2 ctrl register */
  96:user/Src/driver_mpu9250.c **** #define MPU9250_REG_I2C_SLV2_DO         0x65        /**< iic slave2 do register */
  97:user/Src/driver_mpu9250.c **** #define MPU9250_REG_I2C_SLV3_ADDR       0x2E        /**< iic slave3 address register */
  98:user/Src/driver_mpu9250.c **** #define MPU9250_REG_I2C_SLV3_REG        0x2F        /**< iic slave3 reg register */
  99:user/Src/driver_mpu9250.c **** #define MPU9250_REG_I2C_SLV3_CTRL       0x30        /**< iic slave3 ctrl register */
 100:user/Src/driver_mpu9250.c **** #define MPU9250_REG_I2C_SLV3_DO         0x66        /**< iic slave3 do register */
 101:user/Src/driver_mpu9250.c **** #define MPU9250_REG_I2C_SLV4_ADDR       0x31        /**< iic slave4 address register */
 102:user/Src/driver_mpu9250.c **** #define MPU9250_REG_I2C_SLV4_REG        0x32        /**< iic slave4 reg register */
 103:user/Src/driver_mpu9250.c **** #define MPU9250_REG_I2C_SLV4_CTRL       0x34        /**< iic slave4 ctrl register */
 104:user/Src/driver_mpu9250.c **** #define MPU9250_REG_I2C_SLV4_DO         0x33        /**< iic slave4 do register */
 105:user/Src/driver_mpu9250.c **** #define MPU9250_REG_I2C_SLV4_DI         0x35        /**< iic slave4 di register */
 106:user/Src/driver_mpu9250.c **** #define MPU9250_REG_EXT_SENS_DATA_00    0x49        /**< extern sensor data 00 register */
 107:user/Src/driver_mpu9250.c **** #define MPU9250_REG_INT_PIN_CFG         0x37        /**< interrupt pin configure register */
 108:user/Src/driver_mpu9250.c **** #define MPU9250_REG_INT_ENABLE          0x38        /**< interrupt enable register */
 109:user/Src/driver_mpu9250.c **** #define MPU9250_REG_INT_STATUS          0x3A        /**< interrupt status register */
 110:user/Src/driver_mpu9250.c **** #define MPU9250_REG_ACCEL_XOUT_H        0x3B        /**< accel xout high register */
 111:user/Src/driver_mpu9250.c **** #define MPU9250_REG_ACCEL_XOUT_L        0x3C        /**< accel xout low register */
 112:user/Src/driver_mpu9250.c **** #define MPU9250_REG_ACCEL_YOUT_H        0x3D        /**< accel yout high register */
 113:user/Src/driver_mpu9250.c **** #define MPU9250_REG_ACCEL_YOUT_L        0x3E        /**< accel yout low register */
 114:user/Src/driver_mpu9250.c **** #define MPU9250_REG_ACCEL_ZOUT_H        0x3F        /**< accel zout high register */
 115:user/Src/driver_mpu9250.c **** #define MPU9250_REG_ACCEL_ZOUT_L        0x40        /**< accel zout low register */
 116:user/Src/driver_mpu9250.c **** #define MPU9250_REG_TEMP_OUT_H          0x41        /**< temp high register */
 117:user/Src/driver_mpu9250.c **** #define MPU9250_REG_TEMP_OUT_L          0x42        /**< temp low register */
 118:user/Src/driver_mpu9250.c **** #define MPU9250_REG_GYRO_XOUT_H         0x43        /**< gyro xout high register */
 119:user/Src/driver_mpu9250.c **** #define MPU9250_REG_GYRO_XOUT_L         0x44        /**< gyro xout low register */
 120:user/Src/driver_mpu9250.c **** #define MPU9250_REG_GYRO_YOUT_H         0x45        /**< gyro yout high register */
 121:user/Src/driver_mpu9250.c **** #define MPU9250_REG_GYRO_YOUT_L         0x46        /**< gyro yout low register */
 122:user/Src/driver_mpu9250.c **** #define MPU9250_REG_GYRO_ZOUT_H         0x47        /**< gyro zout high register */
 123:user/Src/driver_mpu9250.c **** #define MPU9250_REG_GYRO_ZOUT_L         0x48        /**< gyro zout low register */
 124:user/Src/driver_mpu9250.c **** #define MPU9250_REG_SIGNAL_PATH_RESET   0x68        /**< signal path reset register */
 125:user/Src/driver_mpu9250.c **** #define MPU9250_REG_MOT_DETECT_CTRL     0x69        /**< motion detect ctrl register */
 126:user/Src/driver_mpu9250.c **** #define MPU9250_REG_USER_CTRL           0x6A        /**< user ctrl register */
 127:user/Src/driver_mpu9250.c **** #define MPU9250_REG_PWR_MGMT_1          0x6B        /**< power management 1 register */
 128:user/Src/driver_mpu9250.c **** #define MPU9250_REG_PWR_MGMT_2          0x6C        /**< power management 2 register */
 129:user/Src/driver_mpu9250.c **** #define MPU9250_REG_BANK_SEL            0x6D        /**< bank sel register */
 130:user/Src/driver_mpu9250.c **** #define MPU9250_REG_MEM                 0x6F        /**< memory register */
 131:user/Src/driver_mpu9250.c **** #define MPU9250_REG_PROGRAM_START       0x70        /**< program start register */
 132:user/Src/driver_mpu9250.c **** #define MPU9250_REG_FIFO_COUNTH         0x72        /**< fifo count high threshold register */
 133:user/Src/driver_mpu9250.c **** #define MPU9250_REG_FIFO_COUNTL         0x73        /**< fifo count low threshold register */
 134:user/Src/driver_mpu9250.c **** #define MPU9250_REG_R_W                 0x74        /**< fifo read write data register */
 135:user/Src/driver_mpu9250.c **** #define MPU9250_REG_WHO_AM_I            0x75        /**< who am I register */
 136:user/Src/driver_mpu9250.c **** #define MPU9250_REG_XA_OFFSET_H         0x77        /**< accel offset x high register */
 137:user/Src/driver_mpu9250.c **** #define MPU9250_REG_XA_OFFSET_L         0x78        /**< accel offset x low register */
 138:user/Src/driver_mpu9250.c **** #define MPU9250_REG_YA_OFFSET_H         0x7A        /**< accel offset y high register */
 139:user/Src/driver_mpu9250.c **** #define MPU9250_REG_YA_OFFSET_L         0x7B        /**< accel offset y low register */
 140:user/Src/driver_mpu9250.c **** #define MPU9250_REG_ZA_OFFSET_H         0x7D        /**< accel offset z high register */
 141:user/Src/driver_mpu9250.c **** #define MPU9250_REG_ZA_OFFSET_L         0x7E        /**< accel offset z low register */
 142:user/Src/driver_mpu9250.c **** #define AK8963_REG_WIA                  0x00        /**< device id register */
 143:user/Src/driver_mpu9250.c **** #define AK8963_REG_INFO                 0x01        /**< information register */
 144:user/Src/driver_mpu9250.c **** #define AK8963_REG_ST1                  0x02        /**< status 1 register */
ARM GAS  /var/folders/21/t9g5rlb91ys800n5npymflf80000gn/T//ccsu9bFS.s 			page 4


 145:user/Src/driver_mpu9250.c **** #define AK8963_REG_HXL                  0x03        /**< x axis data high register */
 146:user/Src/driver_mpu9250.c **** #define AK8963_REG_HXH                  0x04        /**< x axis data low register */
 147:user/Src/driver_mpu9250.c **** #define AK8963_REG_HYL                  0x05        /**< y axis data high register */
 148:user/Src/driver_mpu9250.c **** #define AK8963_REG_HYH                  0x06        /**< y axis data low register */
 149:user/Src/driver_mpu9250.c **** #define AK8963_REG_HZL                  0x07        /**< z axis data high register */
 150:user/Src/driver_mpu9250.c **** #define AK8963_REG_HZH                  0x08        /**< z axis data low register */
 151:user/Src/driver_mpu9250.c **** #define AK8963_REG_ST2                  0x09        /**< status 2 register */
 152:user/Src/driver_mpu9250.c **** #define AK8963_REG_CNTL1                0x0A        /**< control 1 register */
 153:user/Src/driver_mpu9250.c **** #define AK8963_REG_CNTL2                0x0B        /**< control 2 register */
 154:user/Src/driver_mpu9250.c **** #define AK8963_REG_ASTC                 0x0C        /**< self test register */
 155:user/Src/driver_mpu9250.c **** #define AK8963_REG_TS1                  0x0D        /**< test 1 register */
 156:user/Src/driver_mpu9250.c **** #define AK8963_REG_TS2                  0x0E        /**< test 2 register */
 157:user/Src/driver_mpu9250.c **** #define AK8963_REG_I2CDIS               0x0F        /**< iic disable register */
 158:user/Src/driver_mpu9250.c **** #define AK8963_REG_ASAX                 0x10        /**< x axis sensitivity adjustment value regist
 159:user/Src/driver_mpu9250.c **** #define AK8963_REG_ASAY                 0x11        /**< y axis sensitivity adjustment value regist
 160:user/Src/driver_mpu9250.c **** #define AK8963_REG_ASAZ                 0x12        /**< z axis sensitivity adjustment value regist
 161:user/Src/driver_mpu9250.c **** 
 162:user/Src/driver_mpu9250.c **** /**
 163:user/Src/driver_mpu9250.c ****  * @brief mpu9250 dmp code definition
 164:user/Src/driver_mpu9250.c ****  */
 165:user/Src/driver_mpu9250.c **** #define MPU9250_DMP_SAMPLE_RATE               200                                                 /
 166:user/Src/driver_mpu9250.c **** #define MPU9250_DMP_GYRO_SF                   (46850825LL * 200 / MPU9250_DMP_SAMPLE_RATE)        /
 167:user/Src/driver_mpu9250.c **** #define MPU9250_DMP_D_PEDSTD_TIMECTR          964                                                 /
 168:user/Src/driver_mpu9250.c **** #define MPU9250_DMP_D_PEDSTD_STEPCTR          (768 + 0x60)                                        /
 169:user/Src/driver_mpu9250.c **** #define MPU9250_DMP_D_1_36                    (256 + 36)                                          /
 170:user/Src/driver_mpu9250.c **** #define MPU9250_DMP_D_1_40                    (256 + 40)                                          /
 171:user/Src/driver_mpu9250.c **** #define MPU9250_DMP_D_1_44                    (256 + 44)                                          /
 172:user/Src/driver_mpu9250.c **** #define MPU9250_DMP_D_1_72                    (256 + 72)                                          /
 173:user/Src/driver_mpu9250.c **** #define MPU9250_DMP_D_1_79                    (256 + 79)                                          /
 174:user/Src/driver_mpu9250.c **** #define MPU9250_DMP_D_1_88                    (256 + 88)                                          /
 175:user/Src/driver_mpu9250.c **** #define MPU9250_DMP_D_1_90                    (256 + 90)                                          /
 176:user/Src/driver_mpu9250.c **** #define MPU9250_DMP_D_1_92                    (256 + 92)                                          /
 177:user/Src/driver_mpu9250.c **** #define MPU9250_DMP_D_1_218                   (256 + 218)                                         /
 178:user/Src/driver_mpu9250.c **** #define MPU9250_DMP_D_0_22                    (512 + 22)                                          /
 179:user/Src/driver_mpu9250.c **** #define MPU9250_DMP_D_0_104                   104                                                 /
 180:user/Src/driver_mpu9250.c **** #define MPU9250_DMP_TAPW_MIN                  478                                                 /
 181:user/Src/driver_mpu9250.c **** #define MPU9250_DMP_TAP_THX                   468                                                 /
 182:user/Src/driver_mpu9250.c **** #define MPU9250_DMP_TAP_THY                   472                                                 /
 183:user/Src/driver_mpu9250.c **** #define MPU9250_DMP_TAP_THZ                   476                                                 /
 184:user/Src/driver_mpu9250.c **** #define MPU9250_DMP_CFG_6                     2753                                                /
 185:user/Src/driver_mpu9250.c **** #define MPU9250_DMP_CFG_8                     2718                                                /
 186:user/Src/driver_mpu9250.c **** #define MPU9250_DMP_CFG_MOTION_BIAS           1208                                                /
 187:user/Src/driver_mpu9250.c **** #define MPU9250_DMP_CFG_LP_QUAT               2712                                                /
 188:user/Src/driver_mpu9250.c **** #define MPU9250_DMP_CFG_FIFO_ON_EVENT         2690                                                /
 189:user/Src/driver_mpu9250.c **** #define MPU9250_DMP_FCFG_1                    1062                                                /
 190:user/Src/driver_mpu9250.c **** #define MPU9250_DMP_FCFG_2                    1066                                                /
 191:user/Src/driver_mpu9250.c **** #define MPU9250_DMP_FCFG_3                    1088                                                /
 192:user/Src/driver_mpu9250.c **** #define MPU9250_DMP_FCFG_7                    1073                                                /
 193:user/Src/driver_mpu9250.c **** #define MPU9250_DMP_D_EXT_GYRO_BIAS_X         (61 * 16)                                           /
 194:user/Src/driver_mpu9250.c **** #define MPU9250_DMP_D_EXT_GYRO_BIAS_Y         (61 * 16 + 4)                                       /
 195:user/Src/driver_mpu9250.c **** #define MPU9250_DMP_D_EXT_GYRO_BIAS_Z         (61 * 16 + 8)                                       /
 196:user/Src/driver_mpu9250.c **** #define MPU9250_DMP_D_ACCEL_BIAS              660                                                 /
 197:user/Src/driver_mpu9250.c **** #define MPU9250_DMP_FEATURE_SEND_ANY_GYRO     (MPU9250_DMP_FEATURE_SEND_RAW_GYRO | \
 198:user/Src/driver_mpu9250.c ****                                                MPU9250_DMP_FEATURE_SEND_CAL_GYRO)                 /
 199:user/Src/driver_mpu9250.c **** #define MPU9250_DMP_CFG_15                    2727                                                /
 200:user/Src/driver_mpu9250.c **** #define MPU9250_DMP_CFG_27                    2742                                                /
 201:user/Src/driver_mpu9250.c **** #define MPU9250_DMP_CFG_GYRO_RAW_DATA         2722                                                /
ARM GAS  /var/folders/21/t9g5rlb91ys800n5npymflf80000gn/T//ccsu9bFS.s 			page 5


 202:user/Src/driver_mpu9250.c **** #define MPU9250_DMP_CFG_20                    2224                                                /
 203:user/Src/driver_mpu9250.c **** #define MPU9250_DMP_CFG_ORIENT_INT            1853                                                /
 204:user/Src/driver_mpu9250.c **** #define MPU9250_DMP_QUAT_ERROR_THRESH         (1L << 24)                                          /
 205:user/Src/driver_mpu9250.c **** #define MPU9250_DMP_QUAT_MAG_SQ_NORMALIZED    (1L << 28)                                          /
 206:user/Src/driver_mpu9250.c **** #define MPU9250_DMP_QUAT_MAG_SQ_MIN           (MPU9250_DMP_QUAT_MAG_SQ_NORMALIZED - \
 207:user/Src/driver_mpu9250.c ****                                                MPU9250_DMP_QUAT_ERROR_THRESH)                     /
 208:user/Src/driver_mpu9250.c **** #define MPU9250_DMP_QUAT_MAG_SQ_MAX           (MPU9250_DMP_QUAT_MAG_SQ_NORMALIZED + \
 209:user/Src/driver_mpu9250.c ****                                                MPU9250_DMP_QUAT_ERROR_THRESH)                     /
 210:user/Src/driver_mpu9250.c **** #define MPU9250_DMP_INT_SRC_TAP               0x01                                                /
 211:user/Src/driver_mpu9250.c **** #define MPU9250_DMP_INT_SRC_ORIENT            0x08                                                /
 212:user/Src/driver_mpu9250.c **** #define MPU9250_DMP_TAP_THRESH                250                                                 /
 213:user/Src/driver_mpu9250.c **** #define MPU9250_DMP_TAP_MIN_TAP_COUNT         1                                                   /
 214:user/Src/driver_mpu9250.c **** #define MPU9250_DMP_TAP_TIME                  100                                                 /
 215:user/Src/driver_mpu9250.c **** #define MPU9250_DMP_TAP_TIME_MULTI            200                                                 /
 216:user/Src/driver_mpu9250.c **** #define MPU9250_DMP_SHAKE_REJECT_THRESH       200                                                 /
 217:user/Src/driver_mpu9250.c **** #define MPU9250_DMP_SHAKE_REJECT_TIME         40                                                  /
 218:user/Src/driver_mpu9250.c **** #define MPU9250_DMP_SHAKE_REJECT_TIMEOUT      10                                                  /
 219:user/Src/driver_mpu9250.c **** 
 220:user/Src/driver_mpu9250.c **** /**
 221:user/Src/driver_mpu9250.c ****  * @brief inner function definition
 222:user/Src/driver_mpu9250.c ****  */
 223:user/Src/driver_mpu9250.c **** #define MIN(a, b) (((a) < (b)) ? (a) : (b))        /**< min function */
 224:user/Src/driver_mpu9250.c **** 
 225:user/Src/driver_mpu9250.c **** /**
 226:user/Src/driver_mpu9250.c ****  * @brief test st table definition
 227:user/Src/driver_mpu9250.c ****  */
 228:user/Src/driver_mpu9250.c **** static uint16_t gs_st_tb[256] = 
 229:user/Src/driver_mpu9250.c **** {
 230:user/Src/driver_mpu9250.c ****     2620, 2646, 2672, 2699, 2726, 2753, 2781, 2808,
 231:user/Src/driver_mpu9250.c ****     2837, 2865, 2894, 2923, 2952, 2981, 3011, 3041,
 232:user/Src/driver_mpu9250.c ****     3072, 3102, 3133, 3165, 3196, 3228, 3261, 3293,
 233:user/Src/driver_mpu9250.c ****     3326, 3359, 3393, 3427, 3461, 3496, 3531, 3566,
 234:user/Src/driver_mpu9250.c ****     3602, 3638, 3674, 3711, 3748, 3786, 3823, 3862,
 235:user/Src/driver_mpu9250.c ****     3900, 3939, 3979, 4019, 4059, 4099, 4140, 4182,
 236:user/Src/driver_mpu9250.c ****     4224, 4266, 4308, 4352, 4395, 4439, 4483, 4528,
 237:user/Src/driver_mpu9250.c ****     4574, 4619, 4665, 4712, 4759, 4807, 4855, 4903,
 238:user/Src/driver_mpu9250.c ****     4953, 5002, 5052, 5103, 5154, 5205, 5257, 5310,
 239:user/Src/driver_mpu9250.c ****     5363, 5417, 5471, 5525, 5581, 5636, 5693, 5750,
 240:user/Src/driver_mpu9250.c ****     5807, 5865, 5924, 5983, 6043, 6104, 6165, 6226,
 241:user/Src/driver_mpu9250.c ****     6289, 6351, 6415, 6479, 6544, 6609, 6675, 6742,
 242:user/Src/driver_mpu9250.c ****     6810, 6878, 6946, 7016, 7086, 7157, 7229, 7301,
 243:user/Src/driver_mpu9250.c ****     7374, 7448, 7522, 7597, 7673, 7750, 7828, 7906,
 244:user/Src/driver_mpu9250.c ****     7985, 8065, 8145, 8227, 8309, 8392, 8476, 8561,
 245:user/Src/driver_mpu9250.c ****     8647, 8733, 8820, 8909, 8998, 9088, 9178, 9270,
 246:user/Src/driver_mpu9250.c ****     9363, 9457, 9551, 9647, 9743, 9841, 9939, 10038,
 247:user/Src/driver_mpu9250.c ****     10139, 10240, 10343, 10446, 10550, 10656, 10763, 10870,
 248:user/Src/driver_mpu9250.c ****     10979, 11089, 11200, 11312, 11425, 11539, 11654, 11771,
 249:user/Src/driver_mpu9250.c ****     11889, 12008, 12128, 12249, 12371, 12495, 12620, 12746,
 250:user/Src/driver_mpu9250.c ****     12874, 13002, 13132, 13264, 13396, 13530, 13666, 13802,
 251:user/Src/driver_mpu9250.c ****     13940, 14080, 14221, 14363, 14506, 14652, 14798, 14946,
 252:user/Src/driver_mpu9250.c ****     15096, 15247, 15399, 15553, 15709, 15866, 16024, 16184,
 253:user/Src/driver_mpu9250.c ****     16346, 16510, 16675, 16842, 17010, 17180, 17352, 17526,
 254:user/Src/driver_mpu9250.c ****     17701, 17878, 18057, 18237, 18420, 18604, 18790, 18978,
 255:user/Src/driver_mpu9250.c ****     19167, 19359, 19553, 19748, 19946, 20145, 20347, 20550,
 256:user/Src/driver_mpu9250.c ****     20756, 20963, 21173, 21385, 21598, 21814, 22033, 22253,
 257:user/Src/driver_mpu9250.c ****     22475, 22700, 22927, 23156, 23388, 23622, 23858, 24097,
 258:user/Src/driver_mpu9250.c ****     24338, 24581, 24827, 25075, 25326, 25579, 25835, 26093,
ARM GAS  /var/folders/21/t9g5rlb91ys800n5npymflf80000gn/T//ccsu9bFS.s 			page 6


 259:user/Src/driver_mpu9250.c ****     26354, 26618, 26884, 27153, 27424, 27699, 27976, 28255,
 260:user/Src/driver_mpu9250.c ****     28538, 28823, 29112, 29403, 29697, 29994, 30294, 30597,
 261:user/Src/driver_mpu9250.c ****     30903, 31212, 31524, 31839, 32157, 32479, 32804, 33132,
 262:user/Src/driver_mpu9250.c **** };
 263:user/Src/driver_mpu9250.c **** 
 264:user/Src/driver_mpu9250.c **** /**
 265:user/Src/driver_mpu9250.c ****  * @brief      read bytes
 266:user/Src/driver_mpu9250.c ****  * @param[in]  *handle points to an mpu9250 handle structure
 267:user/Src/driver_mpu9250.c ****  * @param[in]  reg is the iic register address
 268:user/Src/driver_mpu9250.c ****  * @param[out] *buf points to a data buffer
 269:user/Src/driver_mpu9250.c ****  * @param[in]  len is the data length
 270:user/Src/driver_mpu9250.c ****  * @return     status code
 271:user/Src/driver_mpu9250.c ****  *             - 0 success
 272:user/Src/driver_mpu9250.c ****  *             - 1 read failed
 273:user/Src/driver_mpu9250.c ****  * @note       none
 274:user/Src/driver_mpu9250.c ****  */
 275:user/Src/driver_mpu9250.c **** static uint8_t a_mpu9250_read(mpu9250_handle_t *handle, uint8_t reg, uint8_t *buf, uint16_t len)
 276:user/Src/driver_mpu9250.c **** {
  29              		.loc 1 276 1 view -0
  30              		.cfi_startproc
  31              		@ args = 0, pretend = 0, frame = 0
  32              		@ frame_needed = 0, uses_anonymous_args = 0
  33              		.loc 1 276 1 is_stmt 0 view .LVU1
  34 0000 10B5     		push	{r4, lr}
  35              	.LCFI0:
  36              		.cfi_def_cfa_offset 8
  37              		.cfi_offset 4, -8
  38              		.cfi_offset 14, -4
  39 0002 8C46     		mov	ip, r1
  40 0004 1146     		mov	r1, r2
  41              	.LVL1:
 277:user/Src/driver_mpu9250.c ****     if (handle->iic_spi == MPU9250_INTERFACE_IIC)                                     /* if iic int
  42              		.loc 1 277 5 is_stmt 1 view .LVU2
  43              		.loc 1 277 15 is_stmt 0 view .LVU3
  44 0006 90F83D20 		ldrb	r2, [r0, #61]	@ zero_extendqisi2
  45              	.LVL2:
  46              		.loc 1 277 8 view .LVU4
  47 000a 4AB9     		cbnz	r2, .L2
 278:user/Src/driver_mpu9250.c ****     {
 279:user/Src/driver_mpu9250.c ****         if (handle->iic_read(handle->iic_addr, reg, (uint8_t *)buf, len) != 0)        /* read data 
  48              		.loc 1 279 9 is_stmt 1 view .LVU5
  49              		.loc 1 279 19 is_stmt 0 view .LVU6
  50 000c C468     		ldr	r4, [r0, #12]
  51              		.loc 1 279 13 view .LVU7
  52 000e 0A46     		mov	r2, r1
  53 0010 6146     		mov	r1, ip
  54              	.LVL3:
  55              		.loc 1 279 13 view .LVU8
  56 0012 0078     		ldrb	r0, [r0]	@ zero_extendqisi2
  57              	.LVL4:
  58              		.loc 1 279 13 view .LVU9
  59 0014 A047     		blx	r4
  60              	.LVL5:
  61              		.loc 1 279 12 view .LVU10
  62 0016 0346     		mov	r3, r0
  63 0018 00B1     		cbz	r0, .L3
 280:user/Src/driver_mpu9250.c ****         {
ARM GAS  /var/folders/21/t9g5rlb91ys800n5npymflf80000gn/T//ccsu9bFS.s 			page 7


 281:user/Src/driver_mpu9250.c ****             return 1;                                                                 /* return err
  64              		.loc 1 281 20 view .LVU11
  65 001a 0123     		movs	r3, #1
  66              	.L3:
 282:user/Src/driver_mpu9250.c ****         }
 283:user/Src/driver_mpu9250.c ****         else
 284:user/Src/driver_mpu9250.c ****         {
 285:user/Src/driver_mpu9250.c ****             return 0;                                                                 /* success re
 286:user/Src/driver_mpu9250.c ****         }
 287:user/Src/driver_mpu9250.c ****     }
 288:user/Src/driver_mpu9250.c ****     else                                                                              /* spi interf
 289:user/Src/driver_mpu9250.c ****     {
 290:user/Src/driver_mpu9250.c ****         if (handle->spi_read(reg | 0x80, (uint8_t *)buf, len) != 0)                   /* read data 
 291:user/Src/driver_mpu9250.c ****         {
 292:user/Src/driver_mpu9250.c ****             return 1;                                                                 /* return err
 293:user/Src/driver_mpu9250.c ****         }
 294:user/Src/driver_mpu9250.c ****         else
 295:user/Src/driver_mpu9250.c ****         {
 296:user/Src/driver_mpu9250.c ****             return 0;                                                                 /* success re
 297:user/Src/driver_mpu9250.c ****         }
 298:user/Src/driver_mpu9250.c ****     }
 299:user/Src/driver_mpu9250.c **** }
  67              		.loc 1 299 1 view .LVU12
  68 001c 1846     		mov	r0, r3
  69 001e 10BD     		pop	{r4, pc}
  70              	.LVL6:
  71              	.L2:
 290:user/Src/driver_mpu9250.c ****         {
  72              		.loc 1 290 9 is_stmt 1 view .LVU13
 290:user/Src/driver_mpu9250.c ****         {
  73              		.loc 1 290 19 is_stmt 0 view .LVU14
  74 0020 C469     		ldr	r4, [r0, #28]
 290:user/Src/driver_mpu9250.c ****         {
  75              		.loc 1 290 13 view .LVU15
  76 0022 1A46     		mov	r2, r3
  77 0024 4CF08000 		orr	r0, ip, #128
  78              	.LVL7:
 290:user/Src/driver_mpu9250.c ****         {
  79              		.loc 1 290 13 view .LVU16
  80 0028 A047     		blx	r4
  81              	.LVL8:
 290:user/Src/driver_mpu9250.c ****         {
  82              		.loc 1 290 12 view .LVU17
  83 002a 0346     		mov	r3, r0
  84 002c 0028     		cmp	r0, #0
  85 002e F5D0     		beq	.L3
 292:user/Src/driver_mpu9250.c ****         }
  86              		.loc 1 292 20 view .LVU18
  87 0030 0123     		movs	r3, #1
  88 0032 F3E7     		b	.L3
  89              		.cfi_endproc
  90              	.LFE20:
  92              		.section	.text.a_mpu9250_write,"ax",%progbits
  93              		.align	1
  94              		.syntax unified
  95              		.thumb
  96              		.thumb_func
ARM GAS  /var/folders/21/t9g5rlb91ys800n5npymflf80000gn/T//ccsu9bFS.s 			page 8


  98              	a_mpu9250_write:
  99              	.LVL9:
 100              	.LFB21:
 300:user/Src/driver_mpu9250.c **** 
 301:user/Src/driver_mpu9250.c **** /**
 302:user/Src/driver_mpu9250.c ****  * @brief     write bytes
 303:user/Src/driver_mpu9250.c ****  * @param[in] *handle points to an mpu9250 handle structure
 304:user/Src/driver_mpu9250.c ****  * @param[in] reg is the iic register address
 305:user/Src/driver_mpu9250.c ****  * @param[in] *buf points to a data buffer
 306:user/Src/driver_mpu9250.c ****  * @param[in] len is the data length
 307:user/Src/driver_mpu9250.c ****  * @return    status code
 308:user/Src/driver_mpu9250.c ****  *            - 0 success
 309:user/Src/driver_mpu9250.c ****  *            - 1 write failed
 310:user/Src/driver_mpu9250.c ****  * @note      none
 311:user/Src/driver_mpu9250.c ****  */
 312:user/Src/driver_mpu9250.c **** static uint8_t a_mpu9250_write(mpu9250_handle_t *handle, uint8_t reg, uint8_t *buf, uint16_t len)
 313:user/Src/driver_mpu9250.c **** {
 101              		.loc 1 313 1 is_stmt 1 view -0
 102              		.cfi_startproc
 103              		@ args = 0, pretend = 0, frame = 0
 104              		@ frame_needed = 0, uses_anonymous_args = 0
 105              		.loc 1 313 1 is_stmt 0 view .LVU20
 106 0000 10B5     		push	{r4, lr}
 107              	.LCFI1:
 108              		.cfi_def_cfa_offset 8
 109              		.cfi_offset 4, -8
 110              		.cfi_offset 14, -4
 111 0002 8C46     		mov	ip, r1
 112 0004 1146     		mov	r1, r2
 113              	.LVL10:
 314:user/Src/driver_mpu9250.c ****     if (handle->iic_spi == MPU9250_INTERFACE_IIC)                                      /* if iic in
 114              		.loc 1 314 5 is_stmt 1 view .LVU21
 115              		.loc 1 314 15 is_stmt 0 view .LVU22
 116 0006 90F83D20 		ldrb	r2, [r0, #61]	@ zero_extendqisi2
 117              	.LVL11:
 118              		.loc 1 314 8 view .LVU23
 119 000a 4AB9     		cbnz	r2, .L6
 315:user/Src/driver_mpu9250.c ****     {
 316:user/Src/driver_mpu9250.c ****         if (handle->iic_write(handle->iic_addr, reg, (uint8_t *)buf, len) != 0)        /* write dat
 120              		.loc 1 316 9 is_stmt 1 view .LVU24
 121              		.loc 1 316 19 is_stmt 0 view .LVU25
 122 000c 0469     		ldr	r4, [r0, #16]
 123              		.loc 1 316 13 view .LVU26
 124 000e 0A46     		mov	r2, r1
 125 0010 6146     		mov	r1, ip
 126              	.LVL12:
 127              		.loc 1 316 13 view .LVU27
 128 0012 0078     		ldrb	r0, [r0]	@ zero_extendqisi2
 129              	.LVL13:
 130              		.loc 1 316 13 view .LVU28
 131 0014 A047     		blx	r4
 132              	.LVL14:
 133              		.loc 1 316 12 view .LVU29
 134 0016 0346     		mov	r3, r0
 135 0018 00B1     		cbz	r0, .L7
 317:user/Src/driver_mpu9250.c ****         {
 318:user/Src/driver_mpu9250.c ****             return 1;                                                                  /* return er
ARM GAS  /var/folders/21/t9g5rlb91ys800n5npymflf80000gn/T//ccsu9bFS.s 			page 9


 136              		.loc 1 318 20 view .LVU30
 137 001a 0123     		movs	r3, #1
 138              	.L7:
 319:user/Src/driver_mpu9250.c ****         }
 320:user/Src/driver_mpu9250.c ****         else
 321:user/Src/driver_mpu9250.c ****         {
 322:user/Src/driver_mpu9250.c ****             return 0;                                                                  /* success r
 323:user/Src/driver_mpu9250.c ****         }
 324:user/Src/driver_mpu9250.c ****     }
 325:user/Src/driver_mpu9250.c ****     else                                                                               /* spi inter
 326:user/Src/driver_mpu9250.c ****     {
 327:user/Src/driver_mpu9250.c ****         if (handle->spi_write(reg & (~0x80), (uint8_t *)buf, len) != 0)                /* write dat
 328:user/Src/driver_mpu9250.c ****         {
 329:user/Src/driver_mpu9250.c ****             return 1;                                                                  /* return er
 330:user/Src/driver_mpu9250.c ****         }
 331:user/Src/driver_mpu9250.c ****         else
 332:user/Src/driver_mpu9250.c ****         {
 333:user/Src/driver_mpu9250.c ****             return 0;                                                                  /* success r
 334:user/Src/driver_mpu9250.c ****         }
 335:user/Src/driver_mpu9250.c ****     }
 336:user/Src/driver_mpu9250.c **** }
 139              		.loc 1 336 1 view .LVU31
 140 001c 1846     		mov	r0, r3
 141 001e 10BD     		pop	{r4, pc}
 142              	.LVL15:
 143              	.L6:
 327:user/Src/driver_mpu9250.c ****         {
 144              		.loc 1 327 9 is_stmt 1 view .LVU32
 327:user/Src/driver_mpu9250.c ****         {
 145              		.loc 1 327 19 is_stmt 0 view .LVU33
 146 0020 046A     		ldr	r4, [r0, #32]
 327:user/Src/driver_mpu9250.c ****         {
 147              		.loc 1 327 13 view .LVU34
 148 0022 1A46     		mov	r2, r3
 149 0024 0CF07F00 		and	r0, ip, #127
 150              	.LVL16:
 327:user/Src/driver_mpu9250.c ****         {
 151              		.loc 1 327 13 view .LVU35
 152 0028 A047     		blx	r4
 153              	.LVL17:
 327:user/Src/driver_mpu9250.c ****         {
 154              		.loc 1 327 12 view .LVU36
 155 002a 0346     		mov	r3, r0
 156 002c 0028     		cmp	r0, #0
 157 002e F5D0     		beq	.L7
 329:user/Src/driver_mpu9250.c ****         }
 158              		.loc 1 329 20 view .LVU37
 159 0030 0123     		movs	r3, #1
 160 0032 F3E7     		b	.L7
 161              		.cfi_endproc
 162              	.LFE21:
 164              		.section	.text.a_mpu9250_mag_write,"ax",%progbits
 165              		.align	1
 166              		.syntax unified
 167              		.thumb
 168              		.thumb_func
 170              	a_mpu9250_mag_write:
ARM GAS  /var/folders/21/t9g5rlb91ys800n5npymflf80000gn/T//ccsu9bFS.s 			page 10


 171              	.LVL18:
 172              	.LFB22:
 337:user/Src/driver_mpu9250.c **** 
 338:user/Src/driver_mpu9250.c **** /**
 339:user/Src/driver_mpu9250.c ****  * @brief     magnetometer write bytes
 340:user/Src/driver_mpu9250.c ****  * @param[in] *handle points to an mpu9250 handle structure
 341:user/Src/driver_mpu9250.c ****  * @param[in] reg is the iic register address
 342:user/Src/driver_mpu9250.c ****  * @param[in] *data points to a data buffer
 343:user/Src/driver_mpu9250.c ****  * @return    status code
 344:user/Src/driver_mpu9250.c ****  *            - 0 success
 345:user/Src/driver_mpu9250.c ****  *            - 1 write failed
 346:user/Src/driver_mpu9250.c ****  * @note      none
 347:user/Src/driver_mpu9250.c ****  */
 348:user/Src/driver_mpu9250.c **** static uint8_t a_mpu9250_mag_write(mpu9250_handle_t *handle, uint8_t reg, uint8_t *data)
 349:user/Src/driver_mpu9250.c **** {
 173              		.loc 1 349 1 is_stmt 1 view -0
 174              		.cfi_startproc
 175              		@ args = 0, pretend = 0, frame = 0
 176              		@ frame_needed = 0, uses_anonymous_args = 0
 350:user/Src/driver_mpu9250.c ****     if (handle->iic_spi == MPU9250_INTERFACE_IIC)                                            /* if 
 177              		.loc 1 350 5 view .LVU39
 178              		.loc 1 350 15 is_stmt 0 view .LVU40
 179 0000 90F83D30 		ldrb	r3, [r0, #61]	@ zero_extendqisi2
 180              		.loc 1 350 8 view .LVU41
 181 0004 3BB9     		cbnz	r3, .L11
 349:user/Src/driver_mpu9250.c ****     if (handle->iic_spi == MPU9250_INTERFACE_IIC)                                            /* if 
 182              		.loc 1 349 1 view .LVU42
 183 0006 10B5     		push	{r4, lr}
 184              	.LCFI2:
 185              		.cfi_def_cfa_offset 8
 186              		.cfi_offset 4, -8
 187              		.cfi_offset 14, -4
 351:user/Src/driver_mpu9250.c ****     {
 352:user/Src/driver_mpu9250.c ****         if (handle->iic_write(AK8963_IIC_ADDRESS << 1, reg, (uint8_t *)data, 1) != 0)        /* wri
 188              		.loc 1 352 9 is_stmt 1 view .LVU43
 189              		.loc 1 352 19 is_stmt 0 view .LVU44
 190 0008 0469     		ldr	r4, [r0, #16]
 191              		.loc 1 352 13 view .LVU45
 192 000a 0123     		movs	r3, #1
 193 000c 1820     		movs	r0, #24
 194              	.LVL19:
 195              		.loc 1 352 13 view .LVU46
 196 000e A047     		blx	r4
 197              	.LVL20:
 198              		.loc 1 352 12 view .LVU47
 199 0010 00B1     		cbz	r0, .L10
 353:user/Src/driver_mpu9250.c ****         {
 354:user/Src/driver_mpu9250.c ****             return 1;                                                                        /* ret
 200              		.loc 1 354 20 view .LVU48
 201 0012 0120     		movs	r0, #1
 202              	.L10:
 355:user/Src/driver_mpu9250.c ****         }
 356:user/Src/driver_mpu9250.c ****         else
 357:user/Src/driver_mpu9250.c ****         {
 358:user/Src/driver_mpu9250.c ****             return 0;                                                                        /* suc
 359:user/Src/driver_mpu9250.c ****         }
 360:user/Src/driver_mpu9250.c ****     }
ARM GAS  /var/folders/21/t9g5rlb91ys800n5npymflf80000gn/T//ccsu9bFS.s 			page 11


 361:user/Src/driver_mpu9250.c ****     else                                                                                     /* spi
 362:user/Src/driver_mpu9250.c ****     {
 363:user/Src/driver_mpu9250.c ****         return 1;
 364:user/Src/driver_mpu9250.c ****     }
 365:user/Src/driver_mpu9250.c **** }
 203              		.loc 1 365 1 view .LVU49
 204 0014 10BD     		pop	{r4, pc}
 205              	.LVL21:
 206              	.L11:
 207              	.LCFI3:
 208              		.cfi_def_cfa_offset 0
 209              		.cfi_restore 4
 210              		.cfi_restore 14
 363:user/Src/driver_mpu9250.c ****     }
 211              		.loc 1 363 16 view .LVU50
 212 0016 0120     		movs	r0, #1
 213              	.LVL22:
 214              		.loc 1 365 1 view .LVU51
 215 0018 7047     		bx	lr
 216              		.cfi_endproc
 217              	.LFE22:
 219              		.section	.text.a_mpu9250_mag_read,"ax",%progbits
 220              		.align	1
 221              		.syntax unified
 222              		.thumb
 223              		.thumb_func
 225              	a_mpu9250_mag_read:
 226              	.LVL23:
 227              	.LFB23:
 366:user/Src/driver_mpu9250.c **** 
 367:user/Src/driver_mpu9250.c **** /**
 368:user/Src/driver_mpu9250.c ****  * @brief      magnetometer read bytes
 369:user/Src/driver_mpu9250.c ****  * @param[in]  *handle points to an mpu9250 handle structure
 370:user/Src/driver_mpu9250.c ****  * @param[in]  reg is the iic register address
 371:user/Src/driver_mpu9250.c ****  * @param[out] *buf points to a data buffer
 372:user/Src/driver_mpu9250.c ****  * @param[in]  len is the data length
 373:user/Src/driver_mpu9250.c ****  * @return     status code
 374:user/Src/driver_mpu9250.c ****  *             - 0 success
 375:user/Src/driver_mpu9250.c ****  *             - 1 read failed
 376:user/Src/driver_mpu9250.c ****  * @note       none
 377:user/Src/driver_mpu9250.c ****  */
 378:user/Src/driver_mpu9250.c **** static uint8_t a_mpu9250_mag_read(mpu9250_handle_t *handle, uint8_t reg, uint8_t *buf, uint16_t len
 379:user/Src/driver_mpu9250.c **** {
 228              		.loc 1 379 1 is_stmt 1 view -0
 229              		.cfi_startproc
 230              		@ args = 0, pretend = 0, frame = 0
 231              		@ frame_needed = 0, uses_anonymous_args = 0
 232              		.loc 1 379 1 is_stmt 0 view .LVU53
 233 0000 10B5     		push	{r4, lr}
 234              	.LCFI4:
 235              		.cfi_def_cfa_offset 8
 236              		.cfi_offset 4, -8
 237              		.cfi_offset 14, -4
 380:user/Src/driver_mpu9250.c ****     if (handle->iic_spi == MPU9250_INTERFACE_IIC)                                            /* if 
 238              		.loc 1 380 5 is_stmt 1 view .LVU54
 239              		.loc 1 380 15 is_stmt 0 view .LVU55
 240 0002 90F83D40 		ldrb	r4, [r0, #61]	@ zero_extendqisi2
ARM GAS  /var/folders/21/t9g5rlb91ys800n5npymflf80000gn/T//ccsu9bFS.s 			page 12


 241              		.loc 1 380 8 view .LVU56
 242 0006 2CB9     		cbnz	r4, .L18
 381:user/Src/driver_mpu9250.c ****     {
 382:user/Src/driver_mpu9250.c ****         if (handle->iic_read(AK8963_IIC_ADDRESS << 1, reg, (uint8_t *)buf, len) != 0)        /* rea
 243              		.loc 1 382 9 is_stmt 1 view .LVU57
 244              		.loc 1 382 19 is_stmt 0 view .LVU58
 245 0008 C468     		ldr	r4, [r0, #12]
 246              		.loc 1 382 13 view .LVU59
 247 000a 1820     		movs	r0, #24
 248              	.LVL24:
 249              		.loc 1 382 13 view .LVU60
 250 000c A047     		blx	r4
 251              	.LVL25:
 252              		.loc 1 382 12 view .LVU61
 253 000e 10B1     		cbz	r0, .L17
 383:user/Src/driver_mpu9250.c ****         {
 384:user/Src/driver_mpu9250.c ****             return 1;                                                                        /* ret
 254              		.loc 1 384 20 view .LVU62
 255 0010 0120     		movs	r0, #1
 256 0012 00E0     		b	.L17
 257              	.LVL26:
 258              	.L18:
 385:user/Src/driver_mpu9250.c ****         }
 386:user/Src/driver_mpu9250.c ****         else
 387:user/Src/driver_mpu9250.c ****         {
 388:user/Src/driver_mpu9250.c ****             return 0;                                                                        /* suc
 389:user/Src/driver_mpu9250.c ****         }
 390:user/Src/driver_mpu9250.c ****     }
 391:user/Src/driver_mpu9250.c ****     else                                                                                     /* spi
 392:user/Src/driver_mpu9250.c ****     {
 393:user/Src/driver_mpu9250.c ****         return 1;
 259              		.loc 1 393 16 view .LVU63
 260 0014 0120     		movs	r0, #1
 261              	.LVL27:
 262              	.L17:
 394:user/Src/driver_mpu9250.c ****     }
 395:user/Src/driver_mpu9250.c **** }
 263              		.loc 1 395 1 view .LVU64
 264 0016 10BD     		pop	{r4, pc}
 265              		.cfi_endproc
 266              	.LFE23:
 268              		.section	.text.a_mpu9250_write_mem,"ax",%progbits
 269              		.align	1
 270              		.syntax unified
 271              		.thumb
 272              		.thumb_func
 274              	a_mpu9250_write_mem:
 275              	.LVL28:
 276              	.LFB24:
 396:user/Src/driver_mpu9250.c **** 
 397:user/Src/driver_mpu9250.c **** /**
 398:user/Src/driver_mpu9250.c ****  * @brief     write memory bytes
 399:user/Src/driver_mpu9250.c ****  * @param[in] *handle points to an mpu9250 handle structure
 400:user/Src/driver_mpu9250.c ****  * @param[in] addr is the memory address
 401:user/Src/driver_mpu9250.c ****  * @param[in] *buf points to a data buffer
 402:user/Src/driver_mpu9250.c ****  * @param[in] len is the data length
 403:user/Src/driver_mpu9250.c ****  * @return    status code
ARM GAS  /var/folders/21/t9g5rlb91ys800n5npymflf80000gn/T//ccsu9bFS.s 			page 13


 404:user/Src/driver_mpu9250.c ****  *            - 0 success
 405:user/Src/driver_mpu9250.c ****  *            - 1 write failed
 406:user/Src/driver_mpu9250.c ****  *            - 2 len is invalid
 407:user/Src/driver_mpu9250.c ****  * @note      none
 408:user/Src/driver_mpu9250.c ****  */
 409:user/Src/driver_mpu9250.c **** static uint8_t a_mpu9250_write_mem(mpu9250_handle_t *handle, uint16_t addr, uint8_t *buf, uint16_t 
 410:user/Src/driver_mpu9250.c **** {
 277              		.loc 1 410 1 is_stmt 1 view -0
 278              		.cfi_startproc
 279              		@ args = 0, pretend = 0, frame = 8
 280              		@ frame_needed = 0, uses_anonymous_args = 0
 281              		.loc 1 410 1 is_stmt 0 view .LVU66
 282 0000 F0B5     		push	{r4, r5, r6, r7, lr}
 283              	.LCFI5:
 284              		.cfi_def_cfa_offset 20
 285              		.cfi_offset 4, -20
 286              		.cfi_offset 5, -16
 287              		.cfi_offset 6, -12
 288              		.cfi_offset 7, -8
 289              		.cfi_offset 14, -4
 290 0002 83B0     		sub	sp, sp, #12
 291              	.LCFI6:
 292              		.cfi_def_cfa_offset 32
 293 0004 1D46     		mov	r5, r3
 411:user/Src/driver_mpu9250.c ****     uint8_t tmp[2];
 294              		.loc 1 411 5 is_stmt 1 view .LVU67
 412:user/Src/driver_mpu9250.c ****     
 413:user/Src/driver_mpu9250.c ****     tmp[0] = (addr >> 8) & 0xFF;                                                                  /
 295              		.loc 1 413 5 view .LVU68
 296              		.loc 1 413 12 is_stmt 0 view .LVU69
 297 0006 0B0A     		lsrs	r3, r1, #8
 298              	.LVL29:
 299              		.loc 1 413 12 view .LVU70
 300 0008 8DF80430 		strb	r3, [sp, #4]
 414:user/Src/driver_mpu9250.c ****     tmp[1] = (addr >> 0) & 0xFF;                                                                  /
 301              		.loc 1 414 5 is_stmt 1 view .LVU71
 302              		.loc 1 414 12 is_stmt 0 view .LVU72
 303 000c C9B2     		uxtb	r1, r1
 304              	.LVL30:
 305              		.loc 1 414 12 view .LVU73
 306 000e 8DF80510 		strb	r1, [sp, #5]
 415:user/Src/driver_mpu9250.c ****     
 416:user/Src/driver_mpu9250.c ****     if (tmp[1] + len > 256)                                                                       /
 307              		.loc 1 416 5 is_stmt 1 view .LVU74
 308              		.loc 1 416 16 is_stmt 0 view .LVU75
 309 0012 2944     		add	r1, r1, r5
 310              		.loc 1 416 8 view .LVU76
 311 0014 B1F5807F 		cmp	r1, #256
 312 0018 22DC     		bgt	.L23
 313 001a 0446     		mov	r4, r0
 314 001c 1646     		mov	r6, r2
 417:user/Src/driver_mpu9250.c ****     {
 418:user/Src/driver_mpu9250.c ****         return 2;                                                                                 /
 419:user/Src/driver_mpu9250.c ****     }
 420:user/Src/driver_mpu9250.c ****     
 421:user/Src/driver_mpu9250.c ****     if (handle->iic_spi == MPU9250_INTERFACE_IIC)                                                 /
 315              		.loc 1 421 5 is_stmt 1 view .LVU77
ARM GAS  /var/folders/21/t9g5rlb91ys800n5npymflf80000gn/T//ccsu9bFS.s 			page 14


 316              		.loc 1 421 15 is_stmt 0 view .LVU78
 317 001e 90F83D30 		ldrb	r3, [r0, #61]	@ zero_extendqisi2
 318              		.loc 1 421 8 view .LVU79
 319 0022 7BB9     		cbnz	r3, .L22
 422:user/Src/driver_mpu9250.c ****     {
 423:user/Src/driver_mpu9250.c ****         if (handle->iic_write(handle->iic_addr, MPU9250_REG_BANK_SEL, (uint8_t *)tmp, 2) != 0)    /
 320              		.loc 1 423 9 is_stmt 1 view .LVU80
 321              		.loc 1 423 13 is_stmt 0 view .LVU81
 322 0024 0223     		movs	r3, #2
 323 0026 01AA     		add	r2, sp, #4
 324              	.LVL31:
 325              		.loc 1 423 13 view .LVU82
 326 0028 6D21     		movs	r1, #109
 327 002a 0078     		ldrb	r0, [r0]	@ zero_extendqisi2
 328              	.LVL32:
 329              		.loc 1 423 13 view .LVU83
 330 002c 2769     		ldr	r7, [r4, #16]
 331 002e B847     		blx	r7
 332              	.LVL33:
 333              		.loc 1 423 12 view .LVU84
 334 0030 C8B9     		cbnz	r0, .L24
 424:user/Src/driver_mpu9250.c ****         {
 425:user/Src/driver_mpu9250.c ****             return 1;                                                                             /
 426:user/Src/driver_mpu9250.c ****         }
 427:user/Src/driver_mpu9250.c ****         if (handle->iic_write(handle->iic_addr, MPU9250_REG_MEM, (uint8_t *)buf, len) != 0)       /
 335              		.loc 1 427 9 is_stmt 1 view .LVU85
 336              		.loc 1 427 19 is_stmt 0 view .LVU86
 337 0032 2769     		ldr	r7, [r4, #16]
 338              		.loc 1 427 13 view .LVU87
 339 0034 2B46     		mov	r3, r5
 340 0036 3246     		mov	r2, r6
 341 0038 6F21     		movs	r1, #111
 342 003a 2078     		ldrb	r0, [r4]	@ zero_extendqisi2
 343 003c B847     		blx	r7
 344              	.LVL34:
 345              		.loc 1 427 12 view .LVU88
 346 003e 80B1     		cbz	r0, .L21
 428:user/Src/driver_mpu9250.c ****         {
 429:user/Src/driver_mpu9250.c ****             return 1;                                                                             /
 347              		.loc 1 429 20 view .LVU89
 348 0040 0120     		movs	r0, #1
 349 0042 0EE0     		b	.L21
 350              	.LVL35:
 351              	.L22:
 430:user/Src/driver_mpu9250.c ****         }
 431:user/Src/driver_mpu9250.c ****     }
 432:user/Src/driver_mpu9250.c ****     else                                                                                          /
 433:user/Src/driver_mpu9250.c ****     {
 434:user/Src/driver_mpu9250.c ****         if (handle->spi_write(MPU9250_REG_BANK_SEL & (~0x80), (uint8_t *)tmp, 2) != 0)            /
 352              		.loc 1 434 9 is_stmt 1 view .LVU90
 353              		.loc 1 434 19 is_stmt 0 view .LVU91
 354 0044 036A     		ldr	r3, [r0, #32]
 355              		.loc 1 434 13 view .LVU92
 356 0046 0222     		movs	r2, #2
 357              	.LVL36:
 358              		.loc 1 434 13 view .LVU93
 359 0048 01A9     		add	r1, sp, #4
ARM GAS  /var/folders/21/t9g5rlb91ys800n5npymflf80000gn/T//ccsu9bFS.s 			page 15


 360 004a 6D20     		movs	r0, #109
 361              	.LVL37:
 362              		.loc 1 434 13 view .LVU94
 363 004c 9847     		blx	r3
 364              	.LVL38:
 365              		.loc 1 434 12 view .LVU95
 366 004e 60B9     		cbnz	r0, .L26
 435:user/Src/driver_mpu9250.c ****         {
 436:user/Src/driver_mpu9250.c ****             return 1;                                                                             /
 437:user/Src/driver_mpu9250.c ****         }
 438:user/Src/driver_mpu9250.c ****         if (handle->spi_write(MPU9250_REG_MEM & (~0x80), (uint8_t *)buf, len) != 0)               /
 367              		.loc 1 438 9 is_stmt 1 view .LVU96
 368              		.loc 1 438 19 is_stmt 0 view .LVU97
 369 0050 236A     		ldr	r3, [r4, #32]
 370              		.loc 1 438 13 view .LVU98
 371 0052 2A46     		mov	r2, r5
 372 0054 3146     		mov	r1, r6
 373 0056 6F20     		movs	r0, #111
 374 0058 9847     		blx	r3
 375              	.LVL39:
 376              		.loc 1 438 12 view .LVU99
 377 005a 10B1     		cbz	r0, .L21
 439:user/Src/driver_mpu9250.c ****         {
 440:user/Src/driver_mpu9250.c ****             return 1;                                                                             /
 378              		.loc 1 440 20 view .LVU100
 379 005c 0120     		movs	r0, #1
 380 005e 00E0     		b	.L21
 381              	.LVL40:
 382              	.L23:
 418:user/Src/driver_mpu9250.c ****     }
 383              		.loc 1 418 16 view .LVU101
 384 0060 0220     		movs	r0, #2
 385              	.LVL41:
 386              	.L21:
 441:user/Src/driver_mpu9250.c ****         }
 442:user/Src/driver_mpu9250.c ****     }
 443:user/Src/driver_mpu9250.c ****     
 444:user/Src/driver_mpu9250.c ****     return 0;                                                                                     /
 445:user/Src/driver_mpu9250.c **** }
 387              		.loc 1 445 1 view .LVU102
 388 0062 03B0     		add	sp, sp, #12
 389              	.LCFI7:
 390              		.cfi_remember_state
 391              		.cfi_def_cfa_offset 20
 392              		@ sp needed
 393 0064 F0BD     		pop	{r4, r5, r6, r7, pc}
 394              	.LVL42:
 395              	.L24:
 396              	.LCFI8:
 397              		.cfi_restore_state
 425:user/Src/driver_mpu9250.c ****         }
 398              		.loc 1 425 20 view .LVU103
 399 0066 0120     		movs	r0, #1
 400 0068 FBE7     		b	.L21
 401              	.L26:
 436:user/Src/driver_mpu9250.c ****         }
 402              		.loc 1 436 20 view .LVU104
ARM GAS  /var/folders/21/t9g5rlb91ys800n5npymflf80000gn/T//ccsu9bFS.s 			page 16


 403 006a 0120     		movs	r0, #1
 404 006c F9E7     		b	.L21
 405              		.cfi_endproc
 406              	.LFE24:
 408              		.section	.text.a_mpu9250_read_mem,"ax",%progbits
 409              		.align	1
 410              		.syntax unified
 411              		.thumb
 412              		.thumb_func
 414              	a_mpu9250_read_mem:
 415              	.LVL43:
 416              	.LFB25:
 446:user/Src/driver_mpu9250.c **** 
 447:user/Src/driver_mpu9250.c **** /**
 448:user/Src/driver_mpu9250.c ****  * @brief      read memory bytes
 449:user/Src/driver_mpu9250.c ****  * @param[in]  *handle points to an mpu9250 handle structure
 450:user/Src/driver_mpu9250.c ****  * @param[in]  addr is the memory address
 451:user/Src/driver_mpu9250.c ****  * @param[out] *buf points to a data buffer
 452:user/Src/driver_mpu9250.c ****  * @param[in]  len is the data length
 453:user/Src/driver_mpu9250.c ****  * @return     status code
 454:user/Src/driver_mpu9250.c ****  *             - 0 success
 455:user/Src/driver_mpu9250.c ****  *             - 1 read failed
 456:user/Src/driver_mpu9250.c ****  *             - 2 len is invalid
 457:user/Src/driver_mpu9250.c ****  * @note       none
 458:user/Src/driver_mpu9250.c ****  */
 459:user/Src/driver_mpu9250.c **** static uint8_t a_mpu9250_read_mem(mpu9250_handle_t *handle, uint16_t addr, uint8_t *buf, uint16_t l
 460:user/Src/driver_mpu9250.c **** {
 417              		.loc 1 460 1 is_stmt 1 view -0
 418              		.cfi_startproc
 419              		@ args = 0, pretend = 0, frame = 8
 420              		@ frame_needed = 0, uses_anonymous_args = 0
 421              		.loc 1 460 1 is_stmt 0 view .LVU106
 422 0000 F0B5     		push	{r4, r5, r6, r7, lr}
 423              	.LCFI9:
 424              		.cfi_def_cfa_offset 20
 425              		.cfi_offset 4, -20
 426              		.cfi_offset 5, -16
 427              		.cfi_offset 6, -12
 428              		.cfi_offset 7, -8
 429              		.cfi_offset 14, -4
 430 0002 83B0     		sub	sp, sp, #12
 431              	.LCFI10:
 432              		.cfi_def_cfa_offset 32
 433 0004 1D46     		mov	r5, r3
 461:user/Src/driver_mpu9250.c ****     uint8_t tmp[2];
 434              		.loc 1 461 5 is_stmt 1 view .LVU107
 462:user/Src/driver_mpu9250.c ****     
 463:user/Src/driver_mpu9250.c ****     tmp[0] = (addr >> 8) & 0xFF;                                                                  /
 435              		.loc 1 463 5 view .LVU108
 436              		.loc 1 463 12 is_stmt 0 view .LVU109
 437 0006 0B0A     		lsrs	r3, r1, #8
 438              	.LVL44:
 439              		.loc 1 463 12 view .LVU110
 440 0008 8DF80430 		strb	r3, [sp, #4]
 464:user/Src/driver_mpu9250.c ****     tmp[1] = (addr >> 0) & 0xFF;                                                                  /
 441              		.loc 1 464 5 is_stmt 1 view .LVU111
 442              		.loc 1 464 12 is_stmt 0 view .LVU112
ARM GAS  /var/folders/21/t9g5rlb91ys800n5npymflf80000gn/T//ccsu9bFS.s 			page 17


 443 000c C9B2     		uxtb	r1, r1
 444              	.LVL45:
 445              		.loc 1 464 12 view .LVU113
 446 000e 8DF80510 		strb	r1, [sp, #5]
 465:user/Src/driver_mpu9250.c ****     
 466:user/Src/driver_mpu9250.c ****     if (tmp[1] + len > 256)                                                                       /
 447              		.loc 1 466 5 is_stmt 1 view .LVU114
 448              		.loc 1 466 16 is_stmt 0 view .LVU115
 449 0012 2944     		add	r1, r1, r5
 450              		.loc 1 466 8 view .LVU116
 451 0014 B1F5807F 		cmp	r1, #256
 452 0018 22DC     		bgt	.L32
 453 001a 0446     		mov	r4, r0
 454 001c 1646     		mov	r6, r2
 467:user/Src/driver_mpu9250.c ****     {
 468:user/Src/driver_mpu9250.c ****         return 2;                                                                                 /
 469:user/Src/driver_mpu9250.c ****     }
 470:user/Src/driver_mpu9250.c ****     
 471:user/Src/driver_mpu9250.c ****     if (handle->iic_spi == MPU9250_INTERFACE_IIC)                                                 /
 455              		.loc 1 471 5 is_stmt 1 view .LVU117
 456              		.loc 1 471 15 is_stmt 0 view .LVU118
 457 001e 90F83D30 		ldrb	r3, [r0, #61]	@ zero_extendqisi2
 458              		.loc 1 471 8 view .LVU119
 459 0022 7BB9     		cbnz	r3, .L31
 472:user/Src/driver_mpu9250.c ****     {
 473:user/Src/driver_mpu9250.c ****         if (handle->iic_write(handle->iic_addr, MPU9250_REG_BANK_SEL, (uint8_t *)tmp, 2) != 0)    /
 460              		.loc 1 473 9 is_stmt 1 view .LVU120
 461              		.loc 1 473 13 is_stmt 0 view .LVU121
 462 0024 0223     		movs	r3, #2
 463 0026 01AA     		add	r2, sp, #4
 464              	.LVL46:
 465              		.loc 1 473 13 view .LVU122
 466 0028 6D21     		movs	r1, #109
 467 002a 0078     		ldrb	r0, [r0]	@ zero_extendqisi2
 468              	.LVL47:
 469              		.loc 1 473 13 view .LVU123
 470 002c 2769     		ldr	r7, [r4, #16]
 471 002e B847     		blx	r7
 472              	.LVL48:
 473              		.loc 1 473 12 view .LVU124
 474 0030 C8B9     		cbnz	r0, .L33
 474:user/Src/driver_mpu9250.c ****         {
 475:user/Src/driver_mpu9250.c ****             return 1;                                                                             /
 476:user/Src/driver_mpu9250.c ****         }
 477:user/Src/driver_mpu9250.c ****         if (handle->iic_read(handle->iic_addr, MPU9250_REG_MEM, (uint8_t *)buf, len) != 0)        /
 475              		.loc 1 477 9 is_stmt 1 view .LVU125
 476              		.loc 1 477 19 is_stmt 0 view .LVU126
 477 0032 E768     		ldr	r7, [r4, #12]
 478              		.loc 1 477 13 view .LVU127
 479 0034 2B46     		mov	r3, r5
 480 0036 3246     		mov	r2, r6
 481 0038 6F21     		movs	r1, #111
 482 003a 2078     		ldrb	r0, [r4]	@ zero_extendqisi2
 483 003c B847     		blx	r7
 484              	.LVL49:
 485              		.loc 1 477 12 view .LVU128
 486 003e 80B1     		cbz	r0, .L30
ARM GAS  /var/folders/21/t9g5rlb91ys800n5npymflf80000gn/T//ccsu9bFS.s 			page 18


 478:user/Src/driver_mpu9250.c ****         {
 479:user/Src/driver_mpu9250.c ****             return 1;                                                                             /
 487              		.loc 1 479 20 view .LVU129
 488 0040 0120     		movs	r0, #1
 489 0042 0EE0     		b	.L30
 490              	.LVL50:
 491              	.L31:
 480:user/Src/driver_mpu9250.c ****         }
 481:user/Src/driver_mpu9250.c ****     }
 482:user/Src/driver_mpu9250.c ****     else                                                                                          /
 483:user/Src/driver_mpu9250.c ****     {
 484:user/Src/driver_mpu9250.c ****         if (handle->spi_write(MPU9250_REG_BANK_SEL & (~0x80), (uint8_t *)tmp, 2) != 0)            /
 492              		.loc 1 484 9 is_stmt 1 view .LVU130
 493              		.loc 1 484 19 is_stmt 0 view .LVU131
 494 0044 036A     		ldr	r3, [r0, #32]
 495              		.loc 1 484 13 view .LVU132
 496 0046 0222     		movs	r2, #2
 497              	.LVL51:
 498              		.loc 1 484 13 view .LVU133
 499 0048 01A9     		add	r1, sp, #4
 500 004a 6D20     		movs	r0, #109
 501              	.LVL52:
 502              		.loc 1 484 13 view .LVU134
 503 004c 9847     		blx	r3
 504              	.LVL53:
 505              		.loc 1 484 12 view .LVU135
 506 004e 60B9     		cbnz	r0, .L35
 485:user/Src/driver_mpu9250.c ****         {
 486:user/Src/driver_mpu9250.c ****             return 1;                                                                             /
 487:user/Src/driver_mpu9250.c ****         }
 488:user/Src/driver_mpu9250.c ****         if (handle->spi_read(MPU9250_REG_MEM | 0x80, (uint8_t *)buf, len) != 0)                   /
 507              		.loc 1 488 9 is_stmt 1 view .LVU136
 508              		.loc 1 488 19 is_stmt 0 view .LVU137
 509 0050 E369     		ldr	r3, [r4, #28]
 510              		.loc 1 488 13 view .LVU138
 511 0052 2A46     		mov	r2, r5
 512 0054 3146     		mov	r1, r6
 513 0056 EF20     		movs	r0, #239
 514 0058 9847     		blx	r3
 515              	.LVL54:
 516              		.loc 1 488 12 view .LVU139
 517 005a 10B1     		cbz	r0, .L30
 489:user/Src/driver_mpu9250.c ****         {
 490:user/Src/driver_mpu9250.c ****             return 1;                                                                             /
 518              		.loc 1 490 20 view .LVU140
 519 005c 0120     		movs	r0, #1
 520 005e 00E0     		b	.L30
 521              	.LVL55:
 522              	.L32:
 468:user/Src/driver_mpu9250.c ****     }
 523              		.loc 1 468 16 view .LVU141
 524 0060 0220     		movs	r0, #2
 525              	.LVL56:
 526              	.L30:
 491:user/Src/driver_mpu9250.c ****         }
 492:user/Src/driver_mpu9250.c ****     }
 493:user/Src/driver_mpu9250.c ****     
ARM GAS  /var/folders/21/t9g5rlb91ys800n5npymflf80000gn/T//ccsu9bFS.s 			page 19


 494:user/Src/driver_mpu9250.c ****     return 0;                                                                                     /
 495:user/Src/driver_mpu9250.c **** }
 527              		.loc 1 495 1 view .LVU142
 528 0062 03B0     		add	sp, sp, #12
 529              	.LCFI11:
 530              		.cfi_remember_state
 531              		.cfi_def_cfa_offset 20
 532              		@ sp needed
 533 0064 F0BD     		pop	{r4, r5, r6, r7, pc}
 534              	.LVL57:
 535              	.L33:
 536              	.LCFI12:
 537              		.cfi_restore_state
 475:user/Src/driver_mpu9250.c ****         }
 538              		.loc 1 475 20 view .LVU143
 539 0066 0120     		movs	r0, #1
 540 0068 FBE7     		b	.L30
 541              	.L35:
 486:user/Src/driver_mpu9250.c ****         }
 542              		.loc 1 486 20 view .LVU144
 543 006a 0120     		movs	r0, #1
 544 006c F9E7     		b	.L30
 545              		.cfi_endproc
 546              	.LFE25:
 548              		.section	.rodata.a_mpu9250_reset_fifo.str1.4,"aMS",%progbits,1
 549              		.align	2
 550              	.LC0:
 551 0000 6D707539 		.ascii	"mpu9250: read int enable register failed.\012\000"
 551      3235303A 
 551      20726561 
 551      6420696E 
 551      7420656E 
 552 002b 00       		.align	2
 553              	.LC1:
 554 002c 6D707539 		.ascii	"mpu9250: read fifo enable register failed.\012\000"
 554      3235303A 
 554      20726561 
 554      64206669 
 554      666F2065 
 555              		.align	2
 556              	.LC2:
 557 0058 6D707539 		.ascii	"mpu9250: read user ctrl register failed.\012\000"
 557      3235303A 
 557      20726561 
 557      64207573 
 557      65722063 
 558 0082 0000     		.align	2
 559              	.LC3:
 560 0084 6D707539 		.ascii	"mpu9250: write int enable register failed.\012\000"
 560      3235303A 
 560      20777269 
 560      74652069 
 560      6E742065 
 561              		.align	2
 562              	.LC4:
 563 00b0 6D707539 		.ascii	"mpu9250: write fifo enable register failed.\012\000"
 563      3235303A 
ARM GAS  /var/folders/21/t9g5rlb91ys800n5npymflf80000gn/T//ccsu9bFS.s 			page 20


 563      20777269 
 563      74652066 
 563      69666F20 
 564 00dd 000000   		.align	2
 565              	.LC5:
 566 00e0 6D707539 		.ascii	"mpu9250: write user ctrl register failed.\012\000"
 566      3235303A 
 566      20777269 
 566      74652075 
 566      73657220 
 567              		.section	.text.a_mpu9250_reset_fifo,"ax",%progbits
 568              		.align	1
 569              		.syntax unified
 570              		.thumb
 571              		.thumb_func
 573              	a_mpu9250_reset_fifo:
 574              	.LVL58:
 575              	.LFB26:
 496:user/Src/driver_mpu9250.c **** 
 497:user/Src/driver_mpu9250.c **** /**
 498:user/Src/driver_mpu9250.c ****  * @brief     reset the fifo
 499:user/Src/driver_mpu9250.c ****  * @param[in] *handle points to an mpu9250 handle structure
 500:user/Src/driver_mpu9250.c ****  *            - 0 success
 501:user/Src/driver_mpu9250.c ****  *            - 1 reset fifo failed
 502:user/Src/driver_mpu9250.c ****  * @note       none
 503:user/Src/driver_mpu9250.c ****  */
 504:user/Src/driver_mpu9250.c **** static uint8_t a_mpu9250_reset_fifo(mpu9250_handle_t *handle)
 505:user/Src/driver_mpu9250.c **** {
 576              		.loc 1 505 1 is_stmt 1 view -0
 577              		.cfi_startproc
 578              		@ args = 0, pretend = 0, frame = 8
 579              		@ frame_needed = 0, uses_anonymous_args = 0
 580              		.loc 1 505 1 is_stmt 0 view .LVU146
 581 0000 10B5     		push	{r4, lr}
 582              	.LCFI13:
 583              		.cfi_def_cfa_offset 8
 584              		.cfi_offset 4, -8
 585              		.cfi_offset 14, -4
 586 0002 82B0     		sub	sp, sp, #8
 587              	.LCFI14:
 588              		.cfi_def_cfa_offset 16
 589 0004 0446     		mov	r4, r0
 506:user/Src/driver_mpu9250.c ****     uint8_t res;
 590              		.loc 1 506 5 is_stmt 1 view .LVU147
 507:user/Src/driver_mpu9250.c ****     uint8_t prev;
 591              		.loc 1 507 5 view .LVU148
 508:user/Src/driver_mpu9250.c ****     uint8_t int_enable;
 592              		.loc 1 508 5 view .LVU149
 509:user/Src/driver_mpu9250.c ****     uint8_t fifo_enable;
 593              		.loc 1 509 5 view .LVU150
 510:user/Src/driver_mpu9250.c ****     uint8_t user_ctrl;
 594              		.loc 1 510 5 view .LVU151
 511:user/Src/driver_mpu9250.c ****     
 512:user/Src/driver_mpu9250.c ****     res = a_mpu9250_read(handle, MPU9250_REG_INT_ENABLE, &int_enable, 1);            /* read the in
 595              		.loc 1 512 5 view .LVU152
 596              		.loc 1 512 11 is_stmt 0 view .LVU153
 597 0006 0123     		movs	r3, #1
ARM GAS  /var/folders/21/t9g5rlb91ys800n5npymflf80000gn/T//ccsu9bFS.s 			page 21


 598 0008 0DF10602 		add	r2, sp, #6
 599 000c 3821     		movs	r1, #56
 600 000e FFF7FEFF 		bl	a_mpu9250_read
 601              	.LVL59:
 513:user/Src/driver_mpu9250.c ****     if (res != 0)                                                                    /* check the r
 602              		.loc 1 513 5 is_stmt 1 view .LVU154
 603              		.loc 1 513 8 is_stmt 0 view .LVU155
 604 0012 28B1     		cbz	r0, .L39
 514:user/Src/driver_mpu9250.c ****     {
 515:user/Src/driver_mpu9250.c ****         handle->debug_print("mpu9250: read int enable register failed.\n");          /* read int en
 605              		.loc 1 515 9 is_stmt 1 view .LVU156
 606              		.loc 1 515 15 is_stmt 0 view .LVU157
 607 0014 A36A     		ldr	r3, [r4, #40]
 608              		.loc 1 515 9 view .LVU158
 609 0016 4E48     		ldr	r0, .L57
 610              	.LVL60:
 611              		.loc 1 515 9 view .LVU159
 612 0018 9847     		blx	r3
 613              	.LVL61:
 516:user/Src/driver_mpu9250.c ****         
 517:user/Src/driver_mpu9250.c ****         return 1;                                                                    /* return erro
 614              		.loc 1 517 9 is_stmt 1 view .LVU160
 615              		.loc 1 517 16 is_stmt 0 view .LVU161
 616 001a 0120     		movs	r0, #1
 617              	.LVL62:
 618              	.L40:
 518:user/Src/driver_mpu9250.c ****     }
 519:user/Src/driver_mpu9250.c ****     res = a_mpu9250_read(handle, MPU9250_REG_FIFO_EN, &fifo_enable, 1);              /* read the fi
 520:user/Src/driver_mpu9250.c ****     if (res != 0)                                                                    /* check the r
 521:user/Src/driver_mpu9250.c ****     {
 522:user/Src/driver_mpu9250.c ****         handle->debug_print("mpu9250: read fifo enable register failed.\n");         /* read fifo e
 523:user/Src/driver_mpu9250.c ****         
 524:user/Src/driver_mpu9250.c ****         return 1;                                                                    /* return erro
 525:user/Src/driver_mpu9250.c ****     }
 526:user/Src/driver_mpu9250.c ****     res = a_mpu9250_read(handle, MPU9250_REG_USER_CTRL, &user_ctrl, 1);              /* read the us
 527:user/Src/driver_mpu9250.c ****     if (res != 0)                                                                    /* check the r
 528:user/Src/driver_mpu9250.c ****     {
 529:user/Src/driver_mpu9250.c ****         handle->debug_print("mpu9250: read user ctrl register failed.\n");           /* read user c
 530:user/Src/driver_mpu9250.c ****         
 531:user/Src/driver_mpu9250.c ****         return 1;                                                                    /* return erro
 532:user/Src/driver_mpu9250.c ****     }
 533:user/Src/driver_mpu9250.c ****     
 534:user/Src/driver_mpu9250.c ****     prev = 0;                                                                        /* set 0 */
 535:user/Src/driver_mpu9250.c ****     res = a_mpu9250_write(handle, MPU9250_REG_INT_ENABLE, &prev, 1);                 /* disable all
 536:user/Src/driver_mpu9250.c ****     if (res != 0)                                                                    /* check the r
 537:user/Src/driver_mpu9250.c ****     {
 538:user/Src/driver_mpu9250.c ****         handle->debug_print("mpu9250: write int enable register failed.\n");         /* write int e
 539:user/Src/driver_mpu9250.c ****         
 540:user/Src/driver_mpu9250.c ****         return 1;                                                                    /* return erro
 541:user/Src/driver_mpu9250.c ****     }
 542:user/Src/driver_mpu9250.c ****     prev = 0;                                                                        /* set 0 */
 543:user/Src/driver_mpu9250.c ****     res = a_mpu9250_write(handle, MPU9250_REG_FIFO_EN, &prev, 1);                    /* disable all
 544:user/Src/driver_mpu9250.c ****     if (res != 0)                                                                    /* check the r
 545:user/Src/driver_mpu9250.c ****     {
 546:user/Src/driver_mpu9250.c ****         handle->debug_print("mpu9250: write fifo enable register failed.\n");        /* write fifo 
 547:user/Src/driver_mpu9250.c ****         
 548:user/Src/driver_mpu9250.c ****         return 1;                                                                    /* return erro
ARM GAS  /var/folders/21/t9g5rlb91ys800n5npymflf80000gn/T//ccsu9bFS.s 			page 22


 549:user/Src/driver_mpu9250.c ****     }
 550:user/Src/driver_mpu9250.c ****     user_ctrl &= ~(1 << 6);                                                          /* disable the
 551:user/Src/driver_mpu9250.c ****     user_ctrl &= ~(1 << 7);                                                          /* disable the
 552:user/Src/driver_mpu9250.c ****     if (handle->dmp_inited == 1)                                                     /* if we use d
 553:user/Src/driver_mpu9250.c ****     {
 554:user/Src/driver_mpu9250.c ****         user_ctrl |= (1 << 2) | (1 << 3);                                            /* reset the f
 555:user/Src/driver_mpu9250.c ****     }
 556:user/Src/driver_mpu9250.c ****     else
 557:user/Src/driver_mpu9250.c ****     {
 558:user/Src/driver_mpu9250.c ****         user_ctrl |= 1 << 2;                                                         /* reset the f
 559:user/Src/driver_mpu9250.c ****     }
 560:user/Src/driver_mpu9250.c ****     res = a_mpu9250_write(handle, MPU9250_REG_USER_CTRL, &user_ctrl, 1);             /* write the u
 561:user/Src/driver_mpu9250.c ****     if (res != 0)                                                                    /* check the r
 562:user/Src/driver_mpu9250.c ****     {
 563:user/Src/driver_mpu9250.c ****         handle->debug_print("mpu9250: write user ctrl register failed.\n");          /* write user 
 564:user/Src/driver_mpu9250.c ****         
 565:user/Src/driver_mpu9250.c ****         return 1;                                                                    /* return erro
 566:user/Src/driver_mpu9250.c ****     }
 567:user/Src/driver_mpu9250.c ****     handle->delay_ms(50);                                                            /* delay 50 ms
 568:user/Src/driver_mpu9250.c ****     if (handle->dmp_inited == 1)                                                     /* if we use d
 569:user/Src/driver_mpu9250.c ****     {
 570:user/Src/driver_mpu9250.c ****         user_ctrl |= (1 << 6) | (1 << 7);                                            /* enable fifo
 571:user/Src/driver_mpu9250.c ****     }
 572:user/Src/driver_mpu9250.c ****     else
 573:user/Src/driver_mpu9250.c ****     {
 574:user/Src/driver_mpu9250.c ****         user_ctrl |= 1 << 6;                                                         /* enable fifo
 575:user/Src/driver_mpu9250.c ****     }
 576:user/Src/driver_mpu9250.c ****     res = a_mpu9250_write(handle, MPU9250_REG_USER_CTRL, &user_ctrl, 1);             /* write the u
 577:user/Src/driver_mpu9250.c ****     if (res != 0)                                                                    /* check the r
 578:user/Src/driver_mpu9250.c ****     {
 579:user/Src/driver_mpu9250.c ****         handle->debug_print("mpu9250: write user ctrl register failed.\n");          /* write user 
 580:user/Src/driver_mpu9250.c ****         
 581:user/Src/driver_mpu9250.c ****         return 1;                                                                    /* return erro
 582:user/Src/driver_mpu9250.c ****     }
 583:user/Src/driver_mpu9250.c ****     
 584:user/Src/driver_mpu9250.c ****     res = a_mpu9250_write(handle, MPU9250_REG_INT_ENABLE, &int_enable, 1);           /* restore the
 585:user/Src/driver_mpu9250.c ****     if (res != 0)                                                                    /* check the r
 586:user/Src/driver_mpu9250.c ****     {
 587:user/Src/driver_mpu9250.c ****         handle->debug_print("mpu9250: write int enable register failed.\n");         /* write int e
 588:user/Src/driver_mpu9250.c ****         
 589:user/Src/driver_mpu9250.c ****         return 1;                                                                    /* return erro
 590:user/Src/driver_mpu9250.c ****     }
 591:user/Src/driver_mpu9250.c ****     res = a_mpu9250_write(handle, MPU9250_REG_FIFO_EN, &fifo_enable, 1);             /* restore the
 592:user/Src/driver_mpu9250.c ****     if (res != 0)                                                                    /* check the r
 593:user/Src/driver_mpu9250.c ****     {
 594:user/Src/driver_mpu9250.c ****         handle->debug_print("mpu9250: write fifo enable register failed.\n");        /* write fifo 
 595:user/Src/driver_mpu9250.c ****         
 596:user/Src/driver_mpu9250.c ****         return 1;                                                                    /* return erro
 597:user/Src/driver_mpu9250.c ****     }
 598:user/Src/driver_mpu9250.c ****     
 599:user/Src/driver_mpu9250.c ****     return 0;                                                                        /* success ret
 600:user/Src/driver_mpu9250.c **** }
 619              		.loc 1 600 1 view .LVU162
 620 001c 02B0     		add	sp, sp, #8
 621              	.LCFI15:
 622              		.cfi_remember_state
 623              		.cfi_def_cfa_offset 8
ARM GAS  /var/folders/21/t9g5rlb91ys800n5npymflf80000gn/T//ccsu9bFS.s 			page 23


 624              		@ sp needed
 625 001e 10BD     		pop	{r4, pc}
 626              	.LVL63:
 627              	.L39:
 628              	.LCFI16:
 629              		.cfi_restore_state
 519:user/Src/driver_mpu9250.c ****     if (res != 0)                                                                    /* check the r
 630              		.loc 1 519 5 is_stmt 1 view .LVU163
 519:user/Src/driver_mpu9250.c ****     if (res != 0)                                                                    /* check the r
 631              		.loc 1 519 11 is_stmt 0 view .LVU164
 632 0020 0123     		movs	r3, #1
 633 0022 0DF10502 		add	r2, sp, #5
 634 0026 2321     		movs	r1, #35
 635 0028 2046     		mov	r0, r4
 636              	.LVL64:
 519:user/Src/driver_mpu9250.c ****     if (res != 0)                                                                    /* check the r
 637              		.loc 1 519 11 view .LVU165
 638 002a FFF7FEFF 		bl	a_mpu9250_read
 639              	.LVL65:
 520:user/Src/driver_mpu9250.c ****     {
 640              		.loc 1 520 5 is_stmt 1 view .LVU166
 520:user/Src/driver_mpu9250.c ****     {
 641              		.loc 1 520 8 is_stmt 0 view .LVU167
 642 002e 20B1     		cbz	r0, .L41
 522:user/Src/driver_mpu9250.c ****         
 643              		.loc 1 522 9 is_stmt 1 view .LVU168
 522:user/Src/driver_mpu9250.c ****         
 644              		.loc 1 522 15 is_stmt 0 view .LVU169
 645 0030 A36A     		ldr	r3, [r4, #40]
 522:user/Src/driver_mpu9250.c ****         
 646              		.loc 1 522 9 view .LVU170
 647 0032 4848     		ldr	r0, .L57+4
 648              	.LVL66:
 522:user/Src/driver_mpu9250.c ****         
 649              		.loc 1 522 9 view .LVU171
 650 0034 9847     		blx	r3
 651              	.LVL67:
 524:user/Src/driver_mpu9250.c ****     }
 652              		.loc 1 524 9 is_stmt 1 view .LVU172
 524:user/Src/driver_mpu9250.c ****     }
 653              		.loc 1 524 16 is_stmt 0 view .LVU173
 654 0036 0120     		movs	r0, #1
 655 0038 F0E7     		b	.L40
 656              	.LVL68:
 657              	.L41:
 526:user/Src/driver_mpu9250.c ****     if (res != 0)                                                                    /* check the r
 658              		.loc 1 526 5 is_stmt 1 view .LVU174
 526:user/Src/driver_mpu9250.c ****     if (res != 0)                                                                    /* check the r
 659              		.loc 1 526 11 is_stmt 0 view .LVU175
 660 003a 0123     		movs	r3, #1
 661 003c 01AA     		add	r2, sp, #4
 662 003e 6A21     		movs	r1, #106
 663 0040 2046     		mov	r0, r4
 664              	.LVL69:
 526:user/Src/driver_mpu9250.c ****     if (res != 0)                                                                    /* check the r
 665              		.loc 1 526 11 view .LVU176
 666 0042 FFF7FEFF 		bl	a_mpu9250_read
ARM GAS  /var/folders/21/t9g5rlb91ys800n5npymflf80000gn/T//ccsu9bFS.s 			page 24


 667              	.LVL70:
 527:user/Src/driver_mpu9250.c ****     {
 668              		.loc 1 527 5 is_stmt 1 view .LVU177
 527:user/Src/driver_mpu9250.c ****     {
 669              		.loc 1 527 8 is_stmt 0 view .LVU178
 670 0046 20B1     		cbz	r0, .L42
 529:user/Src/driver_mpu9250.c ****         
 671              		.loc 1 529 9 is_stmt 1 view .LVU179
 529:user/Src/driver_mpu9250.c ****         
 672              		.loc 1 529 15 is_stmt 0 view .LVU180
 673 0048 A36A     		ldr	r3, [r4, #40]
 529:user/Src/driver_mpu9250.c ****         
 674              		.loc 1 529 9 view .LVU181
 675 004a 4348     		ldr	r0, .L57+8
 676              	.LVL71:
 529:user/Src/driver_mpu9250.c ****         
 677              		.loc 1 529 9 view .LVU182
 678 004c 9847     		blx	r3
 679              	.LVL72:
 531:user/Src/driver_mpu9250.c ****     }
 680              		.loc 1 531 9 is_stmt 1 view .LVU183
 531:user/Src/driver_mpu9250.c ****     }
 681              		.loc 1 531 16 is_stmt 0 view .LVU184
 682 004e 0120     		movs	r0, #1
 683 0050 E4E7     		b	.L40
 684              	.LVL73:
 685              	.L42:
 534:user/Src/driver_mpu9250.c ****     res = a_mpu9250_write(handle, MPU9250_REG_INT_ENABLE, &prev, 1);                 /* disable all
 686              		.loc 1 534 5 is_stmt 1 view .LVU185
 534:user/Src/driver_mpu9250.c ****     res = a_mpu9250_write(handle, MPU9250_REG_INT_ENABLE, &prev, 1);                 /* disable all
 687              		.loc 1 534 10 is_stmt 0 view .LVU186
 688 0052 0023     		movs	r3, #0
 689 0054 8DF80730 		strb	r3, [sp, #7]
 535:user/Src/driver_mpu9250.c ****     if (res != 0)                                                                    /* check the r
 690              		.loc 1 535 5 is_stmt 1 view .LVU187
 535:user/Src/driver_mpu9250.c ****     if (res != 0)                                                                    /* check the r
 691              		.loc 1 535 11 is_stmt 0 view .LVU188
 692 0058 0123     		movs	r3, #1
 693 005a 0DF10702 		add	r2, sp, #7
 694 005e 3821     		movs	r1, #56
 695 0060 2046     		mov	r0, r4
 696              	.LVL74:
 535:user/Src/driver_mpu9250.c ****     if (res != 0)                                                                    /* check the r
 697              		.loc 1 535 11 view .LVU189
 698 0062 FFF7FEFF 		bl	a_mpu9250_write
 699              	.LVL75:
 536:user/Src/driver_mpu9250.c ****     {
 700              		.loc 1 536 5 is_stmt 1 view .LVU190
 536:user/Src/driver_mpu9250.c ****     {
 701              		.loc 1 536 8 is_stmt 0 view .LVU191
 702 0066 20B1     		cbz	r0, .L43
 538:user/Src/driver_mpu9250.c ****         
 703              		.loc 1 538 9 is_stmt 1 view .LVU192
 538:user/Src/driver_mpu9250.c ****         
 704              		.loc 1 538 15 is_stmt 0 view .LVU193
 705 0068 A36A     		ldr	r3, [r4, #40]
 538:user/Src/driver_mpu9250.c ****         
ARM GAS  /var/folders/21/t9g5rlb91ys800n5npymflf80000gn/T//ccsu9bFS.s 			page 25


 706              		.loc 1 538 9 view .LVU194
 707 006a 3C48     		ldr	r0, .L57+12
 708              	.LVL76:
 538:user/Src/driver_mpu9250.c ****         
 709              		.loc 1 538 9 view .LVU195
 710 006c 9847     		blx	r3
 711              	.LVL77:
 540:user/Src/driver_mpu9250.c ****     }
 712              		.loc 1 540 9 is_stmt 1 view .LVU196
 540:user/Src/driver_mpu9250.c ****     }
 713              		.loc 1 540 16 is_stmt 0 view .LVU197
 714 006e 0120     		movs	r0, #1
 715 0070 D4E7     		b	.L40
 716              	.LVL78:
 717              	.L43:
 542:user/Src/driver_mpu9250.c ****     res = a_mpu9250_write(handle, MPU9250_REG_FIFO_EN, &prev, 1);                    /* disable all
 718              		.loc 1 542 5 is_stmt 1 view .LVU198
 542:user/Src/driver_mpu9250.c ****     res = a_mpu9250_write(handle, MPU9250_REG_FIFO_EN, &prev, 1);                    /* disable all
 719              		.loc 1 542 10 is_stmt 0 view .LVU199
 720 0072 0023     		movs	r3, #0
 721 0074 8DF80730 		strb	r3, [sp, #7]
 543:user/Src/driver_mpu9250.c ****     if (res != 0)                                                                    /* check the r
 722              		.loc 1 543 5 is_stmt 1 view .LVU200
 543:user/Src/driver_mpu9250.c ****     if (res != 0)                                                                    /* check the r
 723              		.loc 1 543 11 is_stmt 0 view .LVU201
 724 0078 0123     		movs	r3, #1
 725 007a 0DF10702 		add	r2, sp, #7
 726 007e 2321     		movs	r1, #35
 727 0080 2046     		mov	r0, r4
 728              	.LVL79:
 543:user/Src/driver_mpu9250.c ****     if (res != 0)                                                                    /* check the r
 729              		.loc 1 543 11 view .LVU202
 730 0082 FFF7FEFF 		bl	a_mpu9250_write
 731              	.LVL80:
 544:user/Src/driver_mpu9250.c ****     {
 732              		.loc 1 544 5 is_stmt 1 view .LVU203
 544:user/Src/driver_mpu9250.c ****     {
 733              		.loc 1 544 8 is_stmt 0 view .LVU204
 734 0086 88BB     		cbnz	r0, .L53
 550:user/Src/driver_mpu9250.c ****     user_ctrl &= ~(1 << 7);                                                          /* disable the
 735              		.loc 1 550 5 is_stmt 1 view .LVU205
 550:user/Src/driver_mpu9250.c ****     user_ctrl &= ~(1 << 7);                                                          /* disable the
 736              		.loc 1 550 15 is_stmt 0 view .LVU206
 737 0088 9DF80430 		ldrb	r3, [sp, #4]	@ zero_extendqisi2
 738 008c 23F04002 		bic	r2, r3, #64
 739 0090 8DF80420 		strb	r2, [sp, #4]
 551:user/Src/driver_mpu9250.c ****     if (handle->dmp_inited == 1)                                                     /* if we use d
 740              		.loc 1 551 5 is_stmt 1 view .LVU207
 551:user/Src/driver_mpu9250.c ****     if (handle->dmp_inited == 1)                                                     /* if we use d
 741              		.loc 1 551 15 is_stmt 0 view .LVU208
 742 0094 03F03F03 		and	r3, r3, #63
 743 0098 8DF80430 		strb	r3, [sp, #4]
 552:user/Src/driver_mpu9250.c ****     {
 744              		.loc 1 552 5 is_stmt 1 view .LVU209
 552:user/Src/driver_mpu9250.c ****     {
 745              		.loc 1 552 15 is_stmt 0 view .LVU210
 746 009c 94F83E20 		ldrb	r2, [r4, #62]	@ zero_extendqisi2
ARM GAS  /var/folders/21/t9g5rlb91ys800n5npymflf80000gn/T//ccsu9bFS.s 			page 26


 552:user/Src/driver_mpu9250.c ****     {
 747              		.loc 1 552 8 view .LVU211
 748 00a0 012A     		cmp	r2, #1
 749 00a2 28D0     		beq	.L54
 558:user/Src/driver_mpu9250.c ****     }
 750              		.loc 1 558 9 is_stmt 1 view .LVU212
 558:user/Src/driver_mpu9250.c ****     }
 751              		.loc 1 558 19 is_stmt 0 view .LVU213
 752 00a4 43F00403 		orr	r3, r3, #4
 753 00a8 8DF80430 		strb	r3, [sp, #4]
 754              	.L46:
 560:user/Src/driver_mpu9250.c ****     if (res != 0)                                                                    /* check the r
 755              		.loc 1 560 5 is_stmt 1 view .LVU214
 560:user/Src/driver_mpu9250.c ****     if (res != 0)                                                                    /* check the r
 756              		.loc 1 560 11 is_stmt 0 view .LVU215
 757 00ac 0123     		movs	r3, #1
 758 00ae 01AA     		add	r2, sp, #4
 759 00b0 6A21     		movs	r1, #106
 760 00b2 2046     		mov	r0, r4
 761              	.LVL81:
 560:user/Src/driver_mpu9250.c ****     if (res != 0)                                                                    /* check the r
 762              		.loc 1 560 11 view .LVU216
 763 00b4 FFF7FEFF 		bl	a_mpu9250_write
 764              	.LVL82:
 561:user/Src/driver_mpu9250.c ****     {
 765              		.loc 1 561 5 is_stmt 1 view .LVU217
 561:user/Src/driver_mpu9250.c ****     {
 766              		.loc 1 561 8 is_stmt 0 view .LVU218
 767 00b8 10BB     		cbnz	r0, .L55
 567:user/Src/driver_mpu9250.c ****     if (handle->dmp_inited == 1)                                                     /* if we use d
 768              		.loc 1 567 5 is_stmt 1 view .LVU219
 567:user/Src/driver_mpu9250.c ****     if (handle->dmp_inited == 1)                                                     /* if we use d
 769              		.loc 1 567 11 is_stmt 0 view .LVU220
 770 00ba 636A     		ldr	r3, [r4, #36]
 567:user/Src/driver_mpu9250.c ****     if (handle->dmp_inited == 1)                                                     /* if we use d
 771              		.loc 1 567 5 view .LVU221
 772 00bc 3220     		movs	r0, #50
 773              	.LVL83:
 567:user/Src/driver_mpu9250.c ****     if (handle->dmp_inited == 1)                                                     /* if we use d
 774              		.loc 1 567 5 view .LVU222
 775 00be 9847     		blx	r3
 776              	.LVL84:
 568:user/Src/driver_mpu9250.c ****     {
 777              		.loc 1 568 5 is_stmt 1 view .LVU223
 568:user/Src/driver_mpu9250.c ****     {
 778              		.loc 1 568 15 is_stmt 0 view .LVU224
 779 00c0 94F83E30 		ldrb	r3, [r4, #62]	@ zero_extendqisi2
 568:user/Src/driver_mpu9250.c ****     {
 780              		.loc 1 568 8 view .LVU225
 781 00c4 012B     		cmp	r3, #1
 782 00c6 20D0     		beq	.L56
 574:user/Src/driver_mpu9250.c ****     }
 783              		.loc 1 574 9 is_stmt 1 view .LVU226
 574:user/Src/driver_mpu9250.c ****     }
 784              		.loc 1 574 19 is_stmt 0 view .LVU227
 785 00c8 9DF80430 		ldrb	r3, [sp, #4]	@ zero_extendqisi2
 786 00cc 43F04003 		orr	r3, r3, #64
ARM GAS  /var/folders/21/t9g5rlb91ys800n5npymflf80000gn/T//ccsu9bFS.s 			page 27


 787 00d0 8DF80430 		strb	r3, [sp, #4]
 788              	.L49:
 576:user/Src/driver_mpu9250.c ****     if (res != 0)                                                                    /* check the r
 789              		.loc 1 576 5 is_stmt 1 view .LVU228
 576:user/Src/driver_mpu9250.c ****     if (res != 0)                                                                    /* check the r
 790              		.loc 1 576 11 is_stmt 0 view .LVU229
 791 00d4 0123     		movs	r3, #1
 792 00d6 01AA     		add	r2, sp, #4
 793 00d8 6A21     		movs	r1, #106
 794 00da 2046     		mov	r0, r4
 795 00dc FFF7FEFF 		bl	a_mpu9250_write
 796              	.LVL85:
 577:user/Src/driver_mpu9250.c ****     {
 797              		.loc 1 577 5 is_stmt 1 view .LVU230
 577:user/Src/driver_mpu9250.c ****     {
 798              		.loc 1 577 8 is_stmt 0 view .LVU231
 799 00e0 D0B1     		cbz	r0, .L50
 579:user/Src/driver_mpu9250.c ****         
 800              		.loc 1 579 9 is_stmt 1 view .LVU232
 579:user/Src/driver_mpu9250.c ****         
 801              		.loc 1 579 15 is_stmt 0 view .LVU233
 802 00e2 A36A     		ldr	r3, [r4, #40]
 579:user/Src/driver_mpu9250.c ****         
 803              		.loc 1 579 9 view .LVU234
 804 00e4 1E48     		ldr	r0, .L57+16
 805              	.LVL86:
 579:user/Src/driver_mpu9250.c ****         
 806              		.loc 1 579 9 view .LVU235
 807 00e6 9847     		blx	r3
 808              	.LVL87:
 581:user/Src/driver_mpu9250.c ****     }
 809              		.loc 1 581 9 is_stmt 1 view .LVU236
 581:user/Src/driver_mpu9250.c ****     }
 810              		.loc 1 581 16 is_stmt 0 view .LVU237
 811 00e8 0120     		movs	r0, #1
 812 00ea 97E7     		b	.L40
 813              	.LVL88:
 814              	.L53:
 546:user/Src/driver_mpu9250.c ****         
 815              		.loc 1 546 9 is_stmt 1 view .LVU238
 546:user/Src/driver_mpu9250.c ****         
 816              		.loc 1 546 15 is_stmt 0 view .LVU239
 817 00ec A36A     		ldr	r3, [r4, #40]
 546:user/Src/driver_mpu9250.c ****         
 818              		.loc 1 546 9 view .LVU240
 819 00ee 1D48     		ldr	r0, .L57+20
 820              	.LVL89:
 546:user/Src/driver_mpu9250.c ****         
 821              		.loc 1 546 9 view .LVU241
 822 00f0 9847     		blx	r3
 823              	.LVL90:
 548:user/Src/driver_mpu9250.c ****     }
 824              		.loc 1 548 9 is_stmt 1 view .LVU242
 548:user/Src/driver_mpu9250.c ****     }
 825              		.loc 1 548 16 is_stmt 0 view .LVU243
 826 00f2 0120     		movs	r0, #1
 827 00f4 92E7     		b	.L40
ARM GAS  /var/folders/21/t9g5rlb91ys800n5npymflf80000gn/T//ccsu9bFS.s 			page 28


 828              	.LVL91:
 829              	.L54:
 554:user/Src/driver_mpu9250.c ****     }
 830              		.loc 1 554 9 is_stmt 1 view .LVU244
 554:user/Src/driver_mpu9250.c ****     }
 831              		.loc 1 554 19 is_stmt 0 view .LVU245
 832 00f6 43F00C03 		orr	r3, r3, #12
 833 00fa 8DF80430 		strb	r3, [sp, #4]
 834 00fe D5E7     		b	.L46
 835              	.L55:
 563:user/Src/driver_mpu9250.c ****         
 836              		.loc 1 563 9 is_stmt 1 view .LVU246
 563:user/Src/driver_mpu9250.c ****         
 837              		.loc 1 563 15 is_stmt 0 view .LVU247
 838 0100 A36A     		ldr	r3, [r4, #40]
 563:user/Src/driver_mpu9250.c ****         
 839              		.loc 1 563 9 view .LVU248
 840 0102 1748     		ldr	r0, .L57+16
 841              	.LVL92:
 563:user/Src/driver_mpu9250.c ****         
 842              		.loc 1 563 9 view .LVU249
 843 0104 9847     		blx	r3
 844              	.LVL93:
 565:user/Src/driver_mpu9250.c ****     }
 845              		.loc 1 565 9 is_stmt 1 view .LVU250
 565:user/Src/driver_mpu9250.c ****     }
 846              		.loc 1 565 16 is_stmt 0 view .LVU251
 847 0106 0120     		movs	r0, #1
 848 0108 88E7     		b	.L40
 849              	.L56:
 570:user/Src/driver_mpu9250.c ****     }
 850              		.loc 1 570 9 is_stmt 1 view .LVU252
 570:user/Src/driver_mpu9250.c ****     }
 851              		.loc 1 570 19 is_stmt 0 view .LVU253
 852 010a 9DF80430 		ldrb	r3, [sp, #4]	@ zero_extendqisi2
 853 010e 63F03F03 		orn	r3, r3, #63
 854 0112 8DF80430 		strb	r3, [sp, #4]
 855 0116 DDE7     		b	.L49
 856              	.LVL94:
 857              	.L50:
 584:user/Src/driver_mpu9250.c ****     if (res != 0)                                                                    /* check the r
 858              		.loc 1 584 5 is_stmt 1 view .LVU254
 584:user/Src/driver_mpu9250.c ****     if (res != 0)                                                                    /* check the r
 859              		.loc 1 584 11 is_stmt 0 view .LVU255
 860 0118 0123     		movs	r3, #1
 861 011a 0DF10602 		add	r2, sp, #6
 862 011e 3821     		movs	r1, #56
 863 0120 2046     		mov	r0, r4
 864              	.LVL95:
 584:user/Src/driver_mpu9250.c ****     if (res != 0)                                                                    /* check the r
 865              		.loc 1 584 11 view .LVU256
 866 0122 FFF7FEFF 		bl	a_mpu9250_write
 867              	.LVL96:
 585:user/Src/driver_mpu9250.c ****     {
 868              		.loc 1 585 5 is_stmt 1 view .LVU257
 585:user/Src/driver_mpu9250.c ****     {
 869              		.loc 1 585 8 is_stmt 0 view .LVU258
ARM GAS  /var/folders/21/t9g5rlb91ys800n5npymflf80000gn/T//ccsu9bFS.s 			page 29


 870 0126 20B1     		cbz	r0, .L51
 587:user/Src/driver_mpu9250.c ****         
 871              		.loc 1 587 9 is_stmt 1 view .LVU259
 587:user/Src/driver_mpu9250.c ****         
 872              		.loc 1 587 15 is_stmt 0 view .LVU260
 873 0128 A36A     		ldr	r3, [r4, #40]
 587:user/Src/driver_mpu9250.c ****         
 874              		.loc 1 587 9 view .LVU261
 875 012a 0C48     		ldr	r0, .L57+12
 876              	.LVL97:
 587:user/Src/driver_mpu9250.c ****         
 877              		.loc 1 587 9 view .LVU262
 878 012c 9847     		blx	r3
 879              	.LVL98:
 589:user/Src/driver_mpu9250.c ****     }
 880              		.loc 1 589 9 is_stmt 1 view .LVU263
 589:user/Src/driver_mpu9250.c ****     }
 881              		.loc 1 589 16 is_stmt 0 view .LVU264
 882 012e 0120     		movs	r0, #1
 883 0130 74E7     		b	.L40
 884              	.LVL99:
 885              	.L51:
 591:user/Src/driver_mpu9250.c ****     if (res != 0)                                                                    /* check the r
 886              		.loc 1 591 5 is_stmt 1 view .LVU265
 591:user/Src/driver_mpu9250.c ****     if (res != 0)                                                                    /* check the r
 887              		.loc 1 591 11 is_stmt 0 view .LVU266
 888 0132 0123     		movs	r3, #1
 889 0134 0DF10502 		add	r2, sp, #5
 890 0138 2321     		movs	r1, #35
 891 013a 2046     		mov	r0, r4
 892              	.LVL100:
 591:user/Src/driver_mpu9250.c ****     if (res != 0)                                                                    /* check the r
 893              		.loc 1 591 11 view .LVU267
 894 013c FFF7FEFF 		bl	a_mpu9250_write
 895              	.LVL101:
 592:user/Src/driver_mpu9250.c ****     {
 896              		.loc 1 592 5 is_stmt 1 view .LVU268
 592:user/Src/driver_mpu9250.c ****     {
 897              		.loc 1 592 8 is_stmt 0 view .LVU269
 898 0140 0028     		cmp	r0, #0
 899 0142 3FF46BAF 		beq	.L40
 594:user/Src/driver_mpu9250.c ****         
 900              		.loc 1 594 9 is_stmt 1 view .LVU270
 594:user/Src/driver_mpu9250.c ****         
 901              		.loc 1 594 15 is_stmt 0 view .LVU271
 902 0146 A36A     		ldr	r3, [r4, #40]
 594:user/Src/driver_mpu9250.c ****         
 903              		.loc 1 594 9 view .LVU272
 904 0148 0648     		ldr	r0, .L57+20
 905              	.LVL102:
 594:user/Src/driver_mpu9250.c ****         
 906              		.loc 1 594 9 view .LVU273
 907 014a 9847     		blx	r3
 908              	.LVL103:
 596:user/Src/driver_mpu9250.c ****     }
 909              		.loc 1 596 9 is_stmt 1 view .LVU274
 596:user/Src/driver_mpu9250.c ****     }
ARM GAS  /var/folders/21/t9g5rlb91ys800n5npymflf80000gn/T//ccsu9bFS.s 			page 30


 910              		.loc 1 596 16 is_stmt 0 view .LVU275
 911 014c 0120     		movs	r0, #1
 912 014e 65E7     		b	.L40
 913              	.L58:
 914              		.align	2
 915              	.L57:
 916 0150 00000000 		.word	.LC0
 917 0154 2C000000 		.word	.LC1
 918 0158 58000000 		.word	.LC2
 919 015c 84000000 		.word	.LC3
 920 0160 E0000000 		.word	.LC5
 921 0164 B0000000 		.word	.LC4
 922              		.cfi_endproc
 923              	.LFE26:
 925              		.section	.text.a_mpu9250_inv_row_2_scale,"ax",%progbits
 926              		.align	1
 927              		.syntax unified
 928              		.thumb
 929              		.thumb_func
 931              	a_mpu9250_inv_row_2_scale:
 932              	.LVL104:
 933              	.LFB27:
 601:user/Src/driver_mpu9250.c **** 
 602:user/Src/driver_mpu9250.c **** /**
 603:user/Src/driver_mpu9250.c ****  * @brief     inv row to scale
 604:user/Src/driver_mpu9250.c ****  * @param[in] *row points to a row buffer
 605:user/Src/driver_mpu9250.c ****  * @return    scale
 606:user/Src/driver_mpu9250.c ****  * @note      none
 607:user/Src/driver_mpu9250.c ****  */
 608:user/Src/driver_mpu9250.c **** static uint16_t a_mpu9250_inv_row_2_scale(int8_t *row)
 609:user/Src/driver_mpu9250.c **** {
 934              		.loc 1 609 1 is_stmt 1 view -0
 935              		.cfi_startproc
 936              		@ args = 0, pretend = 0, frame = 0
 937              		@ frame_needed = 0, uses_anonymous_args = 0
 938              		@ link register save eliminated.
 610:user/Src/driver_mpu9250.c ****     uint16_t b;
 939              		.loc 1 610 5 view .LVU277
 611:user/Src/driver_mpu9250.c **** 
 612:user/Src/driver_mpu9250.c ****     if (row[0] > 0)             /* check row 0 */
 940              		.loc 1 612 5 view .LVU278
 941              		.loc 1 612 12 is_stmt 0 view .LVU279
 942 0000 90F90030 		ldrsb	r3, [r0]
 943              		.loc 1 612 8 view .LVU280
 944 0004 002B     		cmp	r3, #0
 945 0006 01DD     		ble	.L67
 613:user/Src/driver_mpu9250.c ****     {
 614:user/Src/driver_mpu9250.c ****         b = 0;                  /* set 0 */
 946              		.loc 1 614 11 view .LVU281
 947 0008 0020     		movs	r0, #0
 948              	.LVL105:
 949              		.loc 1 614 11 view .LVU282
 950 000a 7047     		bx	lr
 951              	.LVL106:
 952              	.L67:
 615:user/Src/driver_mpu9250.c ****     }
 616:user/Src/driver_mpu9250.c ****     else if (row[0] < 0)        /* check row 0 */
ARM GAS  /var/folders/21/t9g5rlb91ys800n5npymflf80000gn/T//ccsu9bFS.s 			page 31


 953              		.loc 1 616 10 is_stmt 1 view .LVU283
 954              		.loc 1 616 13 is_stmt 0 view .LVU284
 955 000c 0FDB     		blt	.L62
 617:user/Src/driver_mpu9250.c ****     {
 618:user/Src/driver_mpu9250.c ****         b = 4;                  /* set 4 */
 619:user/Src/driver_mpu9250.c ****     }
 620:user/Src/driver_mpu9250.c ****     else if (row[1] > 0)        /* check row 1 */
 956              		.loc 1 620 10 is_stmt 1 view .LVU285
 957              		.loc 1 620 17 is_stmt 0 view .LVU286
 958 000e 90F90130 		ldrsb	r3, [r0, #1]
 959              		.loc 1 620 13 view .LVU287
 960 0012 002B     		cmp	r3, #0
 961 0014 01DD     		ble	.L68
 621:user/Src/driver_mpu9250.c ****     {
 622:user/Src/driver_mpu9250.c ****         b = 1;                  /* set 1 */
 962              		.loc 1 622 11 view .LVU288
 963 0016 0120     		movs	r0, #1
 964              	.LVL107:
 965              		.loc 1 622 11 view .LVU289
 966 0018 7047     		bx	lr
 967              	.LVL108:
 968              	.L68:
 623:user/Src/driver_mpu9250.c ****     }
 624:user/Src/driver_mpu9250.c ****     else if (row[1] < 0)        /* check row 1 */
 969              		.loc 1 624 10 is_stmt 1 view .LVU290
 970              		.loc 1 624 13 is_stmt 0 view .LVU291
 971 001a 0ADB     		blt	.L64
 625:user/Src/driver_mpu9250.c ****     {
 626:user/Src/driver_mpu9250.c ****         b = 5;                  /* set 5 */
 627:user/Src/driver_mpu9250.c ****     }
 628:user/Src/driver_mpu9250.c ****     else if (row[2] > 0)        /* check row 2 */
 972              		.loc 1 628 10 is_stmt 1 view .LVU292
 973              		.loc 1 628 17 is_stmt 0 view .LVU293
 974 001c 90F90230 		ldrsb	r3, [r0, #2]
 975              		.loc 1 628 13 view .LVU294
 976 0020 002B     		cmp	r3, #0
 977 0022 08DC     		bgt	.L65
 629:user/Src/driver_mpu9250.c ****     {
 630:user/Src/driver_mpu9250.c ****         b = 2;                  /* set 2 */
 631:user/Src/driver_mpu9250.c ****     }
 632:user/Src/driver_mpu9250.c ****     else if (row[2] < 0)        /* check row 2 */
 978              		.loc 1 632 10 is_stmt 1 view .LVU295
 979              		.loc 1 632 13 is_stmt 0 view .LVU296
 980 0024 01DB     		blt	.L69
 633:user/Src/driver_mpu9250.c ****     {
 634:user/Src/driver_mpu9250.c ****         b = 6;                  /* set 6 */
 635:user/Src/driver_mpu9250.c ****     }
 636:user/Src/driver_mpu9250.c ****     else
 637:user/Src/driver_mpu9250.c ****     {
 638:user/Src/driver_mpu9250.c ****         b = 7;                  /* set 7 */
 981              		.loc 1 638 11 view .LVU297
 982 0026 0720     		movs	r0, #7
 983              	.LVL109:
 639:user/Src/driver_mpu9250.c ****     }
 640:user/Src/driver_mpu9250.c ****     
 641:user/Src/driver_mpu9250.c ****     return b;                   /* return scale */
 984              		.loc 1 641 5 is_stmt 1 view .LVU298
ARM GAS  /var/folders/21/t9g5rlb91ys800n5npymflf80000gn/T//ccsu9bFS.s 			page 32


 642:user/Src/driver_mpu9250.c **** }
 985              		.loc 1 642 1 is_stmt 0 view .LVU299
 986 0028 7047     		bx	lr
 987              	.LVL110:
 988              	.L69:
 634:user/Src/driver_mpu9250.c ****     }
 989              		.loc 1 634 11 view .LVU300
 990 002a 0620     		movs	r0, #6
 991              	.LVL111:
 634:user/Src/driver_mpu9250.c ****     }
 992              		.loc 1 634 11 view .LVU301
 993 002c 7047     		bx	lr
 994              	.LVL112:
 995              	.L62:
 618:user/Src/driver_mpu9250.c ****     }
 996              		.loc 1 618 11 view .LVU302
 997 002e 0420     		movs	r0, #4
 998              	.LVL113:
 618:user/Src/driver_mpu9250.c ****     }
 999              		.loc 1 618 11 view .LVU303
 1000 0030 7047     		bx	lr
 1001              	.LVL114:
 1002              	.L64:
 626:user/Src/driver_mpu9250.c ****     }
 1003              		.loc 1 626 11 view .LVU304
 1004 0032 0520     		movs	r0, #5
 1005              	.LVL115:
 626:user/Src/driver_mpu9250.c ****     }
 1006              		.loc 1 626 11 view .LVU305
 1007 0034 7047     		bx	lr
 1008              	.LVL116:
 1009              	.L65:
 630:user/Src/driver_mpu9250.c ****     }
 1010              		.loc 1 630 11 view .LVU306
 1011 0036 0220     		movs	r0, #2
 1012              	.LVL117:
 630:user/Src/driver_mpu9250.c ****     }
 1013              		.loc 1 630 11 view .LVU307
 1014 0038 7047     		bx	lr
 1015              		.cfi_endproc
 1016              	.LFE27:
 1018              		.section	.text.a_mpu9250_inv_orientation_matrix_to_scalar,"ax",%progbits
 1019              		.align	1
 1020              		.syntax unified
 1021              		.thumb
 1022              		.thumb_func
 1024              	a_mpu9250_inv_orientation_matrix_to_scalar:
 1025              	.LVL118:
 1026              	.LFB28:
 643:user/Src/driver_mpu9250.c **** 
 644:user/Src/driver_mpu9250.c **** /**
 645:user/Src/driver_mpu9250.c ****  * @brief     inv orientation matrix to scalar
 646:user/Src/driver_mpu9250.c ****  * @param[in] *mtx points to a matrix buffer
 647:user/Src/driver_mpu9250.c ****  * @return    scale
 648:user/Src/driver_mpu9250.c ****  * @note      none
 649:user/Src/driver_mpu9250.c ****  */
 650:user/Src/driver_mpu9250.c **** static uint16_t a_mpu9250_inv_orientation_matrix_to_scalar(int8_t *mtx)
ARM GAS  /var/folders/21/t9g5rlb91ys800n5npymflf80000gn/T//ccsu9bFS.s 			page 33


 651:user/Src/driver_mpu9250.c **** {
 1027              		.loc 1 651 1 is_stmt 1 view -0
 1028              		.cfi_startproc
 1029              		@ args = 0, pretend = 0, frame = 0
 1030              		@ frame_needed = 0, uses_anonymous_args = 0
 1031              		.loc 1 651 1 is_stmt 0 view .LVU309
 1032 0000 38B5     		push	{r3, r4, r5, lr}
 1033              	.LCFI17:
 1034              		.cfi_def_cfa_offset 16
 1035              		.cfi_offset 3, -16
 1036              		.cfi_offset 4, -12
 1037              		.cfi_offset 5, -8
 1038              		.cfi_offset 14, -4
 1039 0002 0546     		mov	r5, r0
 652:user/Src/driver_mpu9250.c ****     uint16_t scalar; 
 1040              		.loc 1 652 5 is_stmt 1 view .LVU310
 653:user/Src/driver_mpu9250.c ****     
 654:user/Src/driver_mpu9250.c ****     scalar = a_mpu9250_inv_row_2_scale(mtx);                  /* convert the part 0 */
 1041              		.loc 1 654 5 view .LVU311
 1042              		.loc 1 654 14 is_stmt 0 view .LVU312
 1043 0004 FFF7FEFF 		bl	a_mpu9250_inv_row_2_scale
 1044              	.LVL119:
 1045              		.loc 1 654 14 view .LVU313
 1046 0008 0446     		mov	r4, r0
 1047              	.LVL120:
 655:user/Src/driver_mpu9250.c ****     scalar |= a_mpu9250_inv_row_2_scale(mtx + 3) << 3;        /* convert the part 1 */
 1048              		.loc 1 655 5 is_stmt 1 view .LVU314
 1049              		.loc 1 655 15 is_stmt 0 view .LVU315
 1050 000a E81C     		adds	r0, r5, #3
 1051 000c FFF7FEFF 		bl	a_mpu9250_inv_row_2_scale
 1052              	.LVL121:
 1053              		.loc 1 655 12 view .LVU316
 1054 0010 44EAC004 		orr	r4, r4, r0, lsl #3
 1055              	.LVL122:
 1056              		.loc 1 655 12 view .LVU317
 1057 0014 24B2     		sxth	r4, r4
 1058              	.LVL123:
 656:user/Src/driver_mpu9250.c ****     scalar |= a_mpu9250_inv_row_2_scale(mtx + 6) << 6;        /* convert the part 2 */
 1059              		.loc 1 656 5 is_stmt 1 view .LVU318
 1060              		.loc 1 656 15 is_stmt 0 view .LVU319
 1061 0016 A81D     		adds	r0, r5, #6
 1062 0018 FFF7FEFF 		bl	a_mpu9250_inv_row_2_scale
 1063              	.LVL124:
 1064              		.loc 1 656 12 view .LVU320
 1065 001c 44EA8010 		orr	r0, r4, r0, lsl #6
 1066              	.LVL125:
 657:user/Src/driver_mpu9250.c ****     
 658:user/Src/driver_mpu9250.c ****     return scalar;                                            /* return the scalar */
 1067              		.loc 1 658 5 is_stmt 1 view .LVU321
 659:user/Src/driver_mpu9250.c **** }
 1068              		.loc 1 659 1 is_stmt 0 view .LVU322
 1069 0020 80B2     		uxth	r0, r0
 1070              		.loc 1 659 1 view .LVU323
 1071 0022 38BD     		pop	{r3, r4, r5, pc}
 1072              		.loc 1 659 1 view .LVU324
 1073              		.cfi_endproc
 1074              	.LFE28:
ARM GAS  /var/folders/21/t9g5rlb91ys800n5npymflf80000gn/T//ccsu9bFS.s 			page 34


 1076              		.section	.text.a_mpu9250_dmp_decode_gesture,"ax",%progbits
 1077              		.align	1
 1078              		.syntax unified
 1079              		.thumb
 1080              		.thumb_func
 1082              	a_mpu9250_dmp_decode_gesture:
 1083              	.LVL126:
 1084              	.LFB29:
 660:user/Src/driver_mpu9250.c **** 
 661:user/Src/driver_mpu9250.c **** /**
 662:user/Src/driver_mpu9250.c ****  * @brief     dmp decode the gesture
 663:user/Src/driver_mpu9250.c ****  * @param[in] *gesture points to a gesture buffer
 664:user/Src/driver_mpu9250.c ****  * @note      none
 665:user/Src/driver_mpu9250.c ****  */
 666:user/Src/driver_mpu9250.c **** static void a_mpu9250_dmp_decode_gesture(mpu9250_handle_t *handle, uint8_t gesture[4])
 667:user/Src/driver_mpu9250.c **** {
 1085              		.loc 1 667 1 is_stmt 1 view -0
 1086              		.cfi_startproc
 1087              		@ args = 0, pretend = 0, frame = 0
 1088              		@ frame_needed = 0, uses_anonymous_args = 0
 1089              		.loc 1 667 1 is_stmt 0 view .LVU326
 1090 0000 70B5     		push	{r4, r5, r6, lr}
 1091              	.LCFI18:
 1092              		.cfi_def_cfa_offset 16
 1093              		.cfi_offset 4, -16
 1094              		.cfi_offset 5, -12
 1095              		.cfi_offset 6, -8
 1096              		.cfi_offset 14, -4
 1097 0002 0546     		mov	r5, r0
 1098 0004 0C46     		mov	r4, r1
 668:user/Src/driver_mpu9250.c ****     uint8_t tap;
 1099              		.loc 1 668 5 is_stmt 1 view .LVU327
 669:user/Src/driver_mpu9250.c ****     uint8_t orient;
 1100              		.loc 1 669 5 view .LVU328
 670:user/Src/driver_mpu9250.c ****     
 671:user/Src/driver_mpu9250.c ****     orient = gesture[3] & 0xC0;                                /* set the orient */
 1101              		.loc 1 671 5 view .LVU329
 1102              		.loc 1 671 21 is_stmt 0 view .LVU330
 1103 0006 CE78     		ldrb	r6, [r1, #3]	@ zero_extendqisi2
 1104              	.LVL127:
 672:user/Src/driver_mpu9250.c ****     tap = 0x3F & gesture[3];                                   /* set the tap */
 1105              		.loc 1 672 5 is_stmt 1 view .LVU331
 673:user/Src/driver_mpu9250.c ****     if ((gesture[1] & MPU9250_DMP_INT_SRC_TAP) != 0)           /* check the tap output */
 1106              		.loc 1 673 5 view .LVU332
 1107              		.loc 1 673 17 is_stmt 0 view .LVU333
 1108 0008 4A78     		ldrb	r2, [r1, #1]	@ zero_extendqisi2
 1109              		.loc 1 673 8 view .LVU334
 1110 000a 12F0010F 		tst	r2, #1
 1111 000e 08D0     		beq	.L73
 1112 0010 06F03F03 		and	r3, r6, #63
 1113              	.LBB2:
 674:user/Src/driver_mpu9250.c ****     {
 675:user/Src/driver_mpu9250.c ****         uint8_t direction, count;
 1114              		.loc 1 675 9 is_stmt 1 view .LVU335
 676:user/Src/driver_mpu9250.c ****         
 677:user/Src/driver_mpu9250.c ****         direction = tap >> 3;                                  /* get the direction */
 1115              		.loc 1 677 9 view .LVU336
ARM GAS  /var/folders/21/t9g5rlb91ys800n5npymflf80000gn/T//ccsu9bFS.s 			page 35


 1116              		.loc 1 677 19 is_stmt 0 view .LVU337
 1117 0014 D808     		lsrs	r0, r3, #3
 1118              	.LVL128:
 678:user/Src/driver_mpu9250.c ****         count = (tap % 8) + 1;                                 /* get the count */
 1119              		.loc 1 678 9 is_stmt 1 view .LVU338
 1120              		.loc 1 678 22 is_stmt 0 view .LVU339
 1121 0016 06F00701 		and	r1, r6, #7
 1122              	.LVL129:
 1123              		.loc 1 678 15 view .LVU340
 1124 001a 0131     		adds	r1, r1, #1
 1125              	.LVL130:
 679:user/Src/driver_mpu9250.c ****         if (handle->dmp_tap_callback != NULL)                  /* check the dmp tap callback */
 1126              		.loc 1 679 9 is_stmt 1 view .LVU341
 1127              		.loc 1 679 19 is_stmt 0 view .LVU342
 1128 001c 2B6B     		ldr	r3, [r5, #48]
 1129              		.loc 1 679 12 view .LVU343
 1130 001e 03B1     		cbz	r3, .L73
 680:user/Src/driver_mpu9250.c ****         {
 681:user/Src/driver_mpu9250.c ****             handle->dmp_tap_callback(direction, count);        /* run the dmp tap callback */
 1131              		.loc 1 681 13 is_stmt 1 view .LVU344
 1132 0020 9847     		blx	r3
 1133              	.LVL131:
 1134              	.L73:
 1135              		.loc 1 681 13 is_stmt 0 view .LVU345
 1136              	.LBE2:
 682:user/Src/driver_mpu9250.c ****         }
 683:user/Src/driver_mpu9250.c ****     }
 684:user/Src/driver_mpu9250.c ****     if ((gesture[1] & MPU9250_DMP_INT_SRC_ORIENT) != 0)        /* check the orient output */
 1137              		.loc 1 684 5 is_stmt 1 view .LVU346
 1138              		.loc 1 684 17 is_stmt 0 view .LVU347
 1139 0022 6378     		ldrb	r3, [r4, #1]	@ zero_extendqisi2
 1140              		.loc 1 684 8 view .LVU348
 1141 0024 13F0080F 		tst	r3, #8
 1142 0028 03D0     		beq	.L72
 685:user/Src/driver_mpu9250.c ****     {
 686:user/Src/driver_mpu9250.c ****         if (handle->dmp_orient_callback != NULL)               /* check the dmp orient callback */
 1143              		.loc 1 686 9 is_stmt 1 view .LVU349
 1144              		.loc 1 686 19 is_stmt 0 view .LVU350
 1145 002a 6B6B     		ldr	r3, [r5, #52]
 1146              		.loc 1 686 12 view .LVU351
 1147 002c 0BB1     		cbz	r3, .L72
 687:user/Src/driver_mpu9250.c ****         {
 688:user/Src/driver_mpu9250.c ****             handle->dmp_orient_callback(orient >> 6);          /* run the dmp orient callback */
 1148              		.loc 1 688 13 is_stmt 1 view .LVU352
 1149 002e B009     		lsrs	r0, r6, #6
 1150 0030 9847     		blx	r3
 1151              	.LVL132:
 1152              	.L72:
 689:user/Src/driver_mpu9250.c ****         }
 690:user/Src/driver_mpu9250.c ****     }
 691:user/Src/driver_mpu9250.c **** }
 1153              		.loc 1 691 1 is_stmt 0 view .LVU353
 1154 0032 70BD     		pop	{r4, r5, r6, pc}
 1155              		.loc 1 691 1 view .LVU354
 1156              		.cfi_endproc
 1157              	.LFE29:
 1159              		.section	.text.a_mpu9250_accel_self_test,"ax",%progbits
ARM GAS  /var/folders/21/t9g5rlb91ys800n5npymflf80000gn/T//ccsu9bFS.s 			page 36


 1160              		.align	1
 1161              		.syntax unified
 1162              		.thumb
 1163              		.thumb_func
 1165              	a_mpu9250_accel_self_test:
 1166              	.LVL133:
 1167              	.LFB30:
 692:user/Src/driver_mpu9250.c **** 
 693:user/Src/driver_mpu9250.c **** /**
 694:user/Src/driver_mpu9250.c ****  * @brief      run the accel self test
 695:user/Src/driver_mpu9250.c ****  * @param[in]  *handle points to an mpu9250 handle structure
 696:user/Src/driver_mpu9250.c ****  * @param[out] *bias_regular points to a bias regular buffer
 697:user/Src/driver_mpu9250.c ****  * @param[out] *bias_st points to a bias st buffer
 698:user/Src/driver_mpu9250.c ****  * @return     status code
 699:user/Src/driver_mpu9250.c ****  *             - 0 success
 700:user/Src/driver_mpu9250.c ****  *             - others test failed
 701:user/Src/driver_mpu9250.c ****  * @note       none
 702:user/Src/driver_mpu9250.c ****  */
 703:user/Src/driver_mpu9250.c **** static uint8_t a_mpu9250_accel_self_test(mpu9250_handle_t *handle, int32_t *bias_regular, int32_t *
 704:user/Src/driver_mpu9250.c **** {
 1168              		.loc 1 704 1 is_stmt 1 view -0
 1169              		.cfi_startproc
 1170              		@ args = 0, pretend = 0, frame = 40
 1171              		@ frame_needed = 0, uses_anonymous_args = 0
 1172              		.loc 1 704 1 is_stmt 0 view .LVU356
 1173 0000 F0B5     		push	{r4, r5, r6, r7, lr}
 1174              	.LCFI19:
 1175              		.cfi_def_cfa_offset 20
 1176              		.cfi_offset 4, -20
 1177              		.cfi_offset 5, -16
 1178              		.cfi_offset 6, -12
 1179              		.cfi_offset 7, -8
 1180              		.cfi_offset 14, -4
 1181 0002 8BB0     		sub	sp, sp, #44
 1182              	.LCFI20:
 1183              		.cfi_def_cfa_offset 64
 1184 0004 0E46     		mov	r6, r1
 1185 0006 1746     		mov	r7, r2
 705:user/Src/driver_mpu9250.c ****     uint8_t res;
 1186              		.loc 1 705 5 is_stmt 1 view .LVU357
 706:user/Src/driver_mpu9250.c ****     uint8_t i;
 1187              		.loc 1 706 5 view .LVU358
 707:user/Src/driver_mpu9250.c ****     uint8_t otp_value_zero;
 1188              		.loc 1 707 5 view .LVU359
 708:user/Src/driver_mpu9250.c ****     uint8_t regs[3];
 1189              		.loc 1 708 5 view .LVU360
 709:user/Src/driver_mpu9250.c ****     float accel_st_al_min;
 1190              		.loc 1 709 5 view .LVU361
 710:user/Src/driver_mpu9250.c ****     float accel_st_al_max;
 1191              		.loc 1 710 5 view .LVU362
 711:user/Src/driver_mpu9250.c ****     float accel_offset_max;
 1192              		.loc 1 711 5 view .LVU363
 712:user/Src/driver_mpu9250.c ****     float st_shift_cust[3];
 1193              		.loc 1 712 5 view .LVU364
 713:user/Src/driver_mpu9250.c ****     float st_shift_ratio[3];
 1194              		.loc 1 713 5 view .LVU365
 714:user/Src/driver_mpu9250.c ****     float ct_shift_prod[3];
ARM GAS  /var/folders/21/t9g5rlb91ys800n5npymflf80000gn/T//ccsu9bFS.s 			page 37


 1195              		.loc 1 714 5 view .LVU366
 715:user/Src/driver_mpu9250.c ****     
 716:user/Src/driver_mpu9250.c ****     res = a_mpu9250_read(handle, MPU9250_REG_SELF_TEST_X_ACCEL, regs, 3);         /* read the tmp *
 1196              		.loc 1 716 5 view .LVU367
 1197              		.loc 1 716 11 is_stmt 0 view .LVU368
 1198 0008 0323     		movs	r3, #3
 1199 000a 09AA     		add	r2, sp, #36
 1200              	.LVL134:
 1201              		.loc 1 716 11 view .LVU369
 1202 000c 0D21     		movs	r1, #13
 1203              	.LVL135:
 1204              		.loc 1 716 11 view .LVU370
 1205 000e FFF7FEFF 		bl	a_mpu9250_read
 1206              	.LVL136:
 717:user/Src/driver_mpu9250.c ****     if (res != 0)                                                                 /* check the resu
 1207              		.loc 1 717 5 is_stmt 1 view .LVU371
 1208              		.loc 1 717 8 is_stmt 0 view .LVU372
 1209 0012 0028     		cmp	r0, #0
 1210 0014 40F09080 		bne	.L89
 1211 0018 0146     		mov	r1, r0
 718:user/Src/driver_mpu9250.c ****     {
 719:user/Src/driver_mpu9250.c ****         return 1;                                                                 /* return error *
 720:user/Src/driver_mpu9250.c ****     }
 721:user/Src/driver_mpu9250.c ****     
 722:user/Src/driver_mpu9250.c ****     otp_value_zero = 0;
 1212              		.loc 1 722 20 view .LVU373
 1213 001a 0446     		mov	r4, r0
 723:user/Src/driver_mpu9250.c ****     for (i = 0; i < 3; i++)                                                       /* 3 times */
 1214              		.loc 1 723 12 view .LVU374
 1215 001c 0346     		mov	r3, r0
 1216 001e 08E0     		b	.L78
 1217              	.LVL137:
 1218              	.L79:
 724:user/Src/driver_mpu9250.c ****     {
 725:user/Src/driver_mpu9250.c ****         if (regs[i] != 0)                                                         /* check the regs
 726:user/Src/driver_mpu9250.c ****         {
 727:user/Src/driver_mpu9250.c ****             ct_shift_prod[i] = (float)gs_st_tb[regs[i] - 1];                      /* get the table 
 728:user/Src/driver_mpu9250.c ****             ct_shift_prod[i] *= 65536.f;                                          /* x65535.0f */
 729:user/Src/driver_mpu9250.c ****             ct_shift_prod[i] /= 16384.0f;                                         /* 2g */
 730:user/Src/driver_mpu9250.c ****         }
 731:user/Src/driver_mpu9250.c ****         else
 732:user/Src/driver_mpu9250.c ****         {
 733:user/Src/driver_mpu9250.c ****             ct_shift_prod[i] = 0.0f;                                              /* init 0.0f */
 1219              		.loc 1 733 13 is_stmt 1 view .LVU375
 1220              		.loc 1 733 30 is_stmt 0 view .LVU376
 1221 0020 0020     		movs	r0, #0
 1222 0022 0AAA     		add	r2, sp, #40
 1223 0024 02EB8302 		add	r2, r2, r3, lsl #2
 1224 0028 42F8280C 		str	r0, [r2, #-40]	@ float
 734:user/Src/driver_mpu9250.c ****             otp_value_zero = 1;                                                   /* check otp valu
 1225              		.loc 1 734 13 is_stmt 1 view .LVU377
 1226              	.LVL138:
 1227              		.loc 1 734 28 is_stmt 0 view .LVU378
 1228 002c 0124     		movs	r4, #1
 1229              	.LVL139:
 1230              	.L80:
 723:user/Src/driver_mpu9250.c ****     for (i = 0; i < 3; i++)                                                       /* 3 times */
ARM GAS  /var/folders/21/t9g5rlb91ys800n5npymflf80000gn/T//ccsu9bFS.s 			page 38


 1231              		.loc 1 723 25 is_stmt 1 discriminator 2 view .LVU379
 1232 002e 0133     		adds	r3, r3, #1
 1233              	.LVL140:
 723:user/Src/driver_mpu9250.c ****     for (i = 0; i < 3; i++)                                                       /* 3 times */
 1234              		.loc 1 723 25 is_stmt 0 discriminator 2 view .LVU380
 1235 0030 DBB2     		uxtb	r3, r3
 1236              	.LVL141:
 1237              	.L78:
 723:user/Src/driver_mpu9250.c ****     for (i = 0; i < 3; i++)                                                       /* 3 times */
 1238              		.loc 1 723 19 is_stmt 1 discriminator 1 view .LVU381
 1239 0032 022B     		cmp	r3, #2
 1240 0034 20D8     		bhi	.L95
 725:user/Src/driver_mpu9250.c ****         {
 1241              		.loc 1 725 9 view .LVU382
 725:user/Src/driver_mpu9250.c ****         {
 1242              		.loc 1 725 17 is_stmt 0 view .LVU383
 1243 0036 03F12802 		add	r2, r3, #40
 1244 003a 6A44     		add	r2, sp, r2
 1245 003c 12F8045C 		ldrb	r5, [r2, #-4]	@ zero_extendqisi2
 725:user/Src/driver_mpu9250.c ****         {
 1246              		.loc 1 725 12 view .LVU384
 1247 0040 002D     		cmp	r5, #0
 1248 0042 EDD0     		beq	.L79
 727:user/Src/driver_mpu9250.c ****             ct_shift_prod[i] *= 65536.f;                                          /* x65535.0f */
 1249              		.loc 1 727 13 is_stmt 1 view .LVU385
 727:user/Src/driver_mpu9250.c ****             ct_shift_prod[i] *= 65536.f;                                          /* x65535.0f */
 1250              		.loc 1 727 56 is_stmt 0 view .LVU386
 1251 0044 013D     		subs	r5, r5, #1
 727:user/Src/driver_mpu9250.c ****             ct_shift_prod[i] *= 65536.f;                                          /* x65535.0f */
 1252              		.loc 1 727 47 view .LVU387
 1253 0046 414A     		ldr	r2, .L97
 1254 0048 32F81520 		ldrh	r2, [r2, r5, lsl #1]
 1255 004c 07EE902A 		vmov	s15, r2	@ int
 727:user/Src/driver_mpu9250.c ****             ct_shift_prod[i] *= 65536.f;                                          /* x65535.0f */
 1256              		.loc 1 727 32 view .LVU388
 1257 0050 F8EE677A 		vcvt.f32.u32	s15, s15
 727:user/Src/driver_mpu9250.c ****             ct_shift_prod[i] *= 65536.f;                                          /* x65535.0f */
 1258              		.loc 1 727 30 view .LVU389
 1259 0054 0AAA     		add	r2, sp, #40
 1260 0056 02EB8302 		add	r2, r2, r3, lsl #2
 1261 005a 42ED0A7A 		vstr.32	s15, [r2, #-40]
 728:user/Src/driver_mpu9250.c ****             ct_shift_prod[i] /= 16384.0f;                                         /* 2g */
 1262              		.loc 1 728 13 is_stmt 1 view .LVU390
 728:user/Src/driver_mpu9250.c ****             ct_shift_prod[i] /= 16384.0f;                                         /* 2g */
 1263              		.loc 1 728 30 is_stmt 0 view .LVU391
 1264 005e 9FED3C7A 		vldr.32	s14, .L97+4
 1265 0062 67EE877A 		vmul.f32	s15, s15, s14
 1266 0066 42ED0A7A 		vstr.32	s15, [r2, #-40]
 729:user/Src/driver_mpu9250.c ****         }
 1267              		.loc 1 729 13 is_stmt 1 view .LVU392
 729:user/Src/driver_mpu9250.c ****         }
 1268              		.loc 1 729 30 is_stmt 0 view .LVU393
 1269 006a 9FED3A7A 		vldr.32	s14, .L97+8
 1270 006e 67EE877A 		vmul.f32	s15, s15, s14
 1271 0072 42ED0A7A 		vstr.32	s15, [r2, #-40]
 1272 0076 DAE7     		b	.L80
 1273              	.L95:
ARM GAS  /var/folders/21/t9g5rlb91ys800n5npymflf80000gn/T//ccsu9bFS.s 			page 39


 735:user/Src/driver_mpu9250.c ****         }
 736:user/Src/driver_mpu9250.c ****     }
 737:user/Src/driver_mpu9250.c ****     if (otp_value_zero == 0)                                                      /* check otp valu
 1274              		.loc 1 737 5 is_stmt 1 view .LVU394
 1275              		.loc 1 737 8 is_stmt 0 view .LVU395
 1276 0078 0CB3     		cbz	r4, .L82
 738:user/Src/driver_mpu9250.c ****     {
 739:user/Src/driver_mpu9250.c ****         for (i = 0; i < 3; i++)                                                   /* 3 times */
 740:user/Src/driver_mpu9250.c ****         {
 741:user/Src/driver_mpu9250.c ****             st_shift_cust[i] = (float)(bias_st[i] - bias_regular[i]);             /* set the shift 
 742:user/Src/driver_mpu9250.c ****             st_shift_ratio[i] = st_shift_cust[i] / ct_shift_prod[i] - 1.f;        /* set the shift 
 743:user/Src/driver_mpu9250.c ****             if (fabsf(st_shift_ratio[i]) > 0.5f)                                  /* check the shif
 744:user/Src/driver_mpu9250.c ****             {
 745:user/Src/driver_mpu9250.c ****                 return 1;                                                         /* return error *
 746:user/Src/driver_mpu9250.c ****             }
 747:user/Src/driver_mpu9250.c ****         }
 748:user/Src/driver_mpu9250.c ****     }
 749:user/Src/driver_mpu9250.c ****     else
 750:user/Src/driver_mpu9250.c ****     {
 751:user/Src/driver_mpu9250.c ****         accel_st_al_min = 0.225f * 65536.f;                                       /* set the st al 
 752:user/Src/driver_mpu9250.c ****         accel_st_al_max = 0.675f * 65536.f;                                       /* set the st al 
 753:user/Src/driver_mpu9250.c ****         for (i = 0; i < 3; i++)                                                   /* 3 times */
 1277              		.loc 1 753 16 view .LVU396
 1278 007a 0B46     		mov	r3, r1
 1279              	.LVL142:
 1280              	.L83:
 1281              		.loc 1 753 23 is_stmt 1 discriminator 1 view .LVU397
 1282 007c 022B     		cmp	r3, #2
 1283 007e 44D8     		bhi	.L85
 754:user/Src/driver_mpu9250.c ****         {
 755:user/Src/driver_mpu9250.c ****             st_shift_cust[i] = (float)(bias_st[i] - bias_regular[i]);             /* shift cust */
 1284              		.loc 1 755 13 view .LVU398
 1285              		.loc 1 755 47 is_stmt 0 view .LVU399
 1286 0080 57F82320 		ldr	r2, [r7, r3, lsl #2]
 1287              		.loc 1 755 65 view .LVU400
 1288 0084 56F82300 		ldr	r0, [r6, r3, lsl #2]
 1289              		.loc 1 755 51 view .LVU401
 1290 0088 121A     		subs	r2, r2, r0
 1291              		.loc 1 755 32 view .LVU402
 1292 008a 07EE902A 		vmov	s15, r2	@ int
 1293 008e F8EEE77A 		vcvt.f32.s32	s15, s15
 1294              		.loc 1 755 30 view .LVU403
 1295 0092 0AAA     		add	r2, sp, #40
 1296 0094 02EB8302 		add	r2, r2, r3, lsl #2
 1297 0098 42ED047A 		vstr.32	s15, [r2, #-16]
 756:user/Src/driver_mpu9250.c ****             if (st_shift_cust[i] < accel_st_al_min 
 1298              		.loc 1 756 13 is_stmt 1 view .LVU404
 1299              		.loc 1 756 16 is_stmt 0 view .LVU405
 1300 009c 9FED2E7A 		vldr.32	s14, .L97+12
 1301 00a0 F4EEC77A 		vcmpe.f32	s15, s14
 1302 00a4 F1EE10FA 		vmrs	APSR_nzcv, FPSCR
 1303 00a8 4CD4     		bmi	.L91
 757:user/Src/driver_mpu9250.c ****                 || st_shift_cust[i] > accel_st_al_max)                            /* check the resu
 1304              		.loc 1 757 17 view .LVU406
 1305 00aa 9FED2C7A 		vldr.32	s14, .L97+16
 1306 00ae F4EEC77A 		vcmpe.f32	s15, s14
 1307 00b2 F1EE10FA 		vmrs	APSR_nzcv, FPSCR
ARM GAS  /var/folders/21/t9g5rlb91ys800n5npymflf80000gn/T//ccsu9bFS.s 			page 40


 1308 00b6 47DC     		bgt	.L92
 753:user/Src/driver_mpu9250.c ****         {
 1309              		.loc 1 753 29 is_stmt 1 discriminator 2 view .LVU407
 1310 00b8 0133     		adds	r3, r3, #1
 1311              	.LVL143:
 753:user/Src/driver_mpu9250.c ****         {
 1312              		.loc 1 753 29 is_stmt 0 discriminator 2 view .LVU408
 1313 00ba DBB2     		uxtb	r3, r3
 1314              	.LVL144:
 753:user/Src/driver_mpu9250.c ****         {
 1315              		.loc 1 753 29 discriminator 2 view .LVU409
 1316 00bc DEE7     		b	.L83
 1317              	.LVL145:
 1318              	.L82:
 739:user/Src/driver_mpu9250.c ****         {
 1319              		.loc 1 739 23 is_stmt 1 discriminator 1 view .LVU410
 1320 00be 022C     		cmp	r4, #2
 1321 00c0 23D8     		bhi	.L85
 741:user/Src/driver_mpu9250.c ****             st_shift_ratio[i] = st_shift_cust[i] / ct_shift_prod[i] - 1.f;        /* set the shift 
 1322              		.loc 1 741 13 view .LVU411
 741:user/Src/driver_mpu9250.c ****             st_shift_ratio[i] = st_shift_cust[i] / ct_shift_prod[i] - 1.f;        /* set the shift 
 1323              		.loc 1 741 47 is_stmt 0 view .LVU412
 1324 00c2 57F82430 		ldr	r3, [r7, r4, lsl #2]
 741:user/Src/driver_mpu9250.c ****             st_shift_ratio[i] = st_shift_cust[i] / ct_shift_prod[i] - 1.f;        /* set the shift 
 1325              		.loc 1 741 65 view .LVU413
 1326 00c6 56F82420 		ldr	r2, [r6, r4, lsl #2]
 741:user/Src/driver_mpu9250.c ****             st_shift_ratio[i] = st_shift_cust[i] / ct_shift_prod[i] - 1.f;        /* set the shift 
 1327              		.loc 1 741 51 view .LVU414
 1328 00ca 9B1A     		subs	r3, r3, r2
 741:user/Src/driver_mpu9250.c ****             st_shift_ratio[i] = st_shift_cust[i] / ct_shift_prod[i] - 1.f;        /* set the shift 
 1329              		.loc 1 741 32 view .LVU415
 1330 00cc 07EE903A 		vmov	s15, r3	@ int
 1331 00d0 B8EEE77A 		vcvt.f32.s32	s14, s15
 741:user/Src/driver_mpu9250.c ****             st_shift_ratio[i] = st_shift_cust[i] / ct_shift_prod[i] - 1.f;        /* set the shift 
 1332              		.loc 1 741 30 view .LVU416
 1333 00d4 0AAB     		add	r3, sp, #40
 1334 00d6 03EB8403 		add	r3, r3, r4, lsl #2
 1335 00da 03ED047A 		vstr.32	s14, [r3, #-16]
 742:user/Src/driver_mpu9250.c ****             if (fabsf(st_shift_ratio[i]) > 0.5f)                                  /* check the shif
 1336              		.loc 1 742 13 is_stmt 1 view .LVU417
 742:user/Src/driver_mpu9250.c ****             if (fabsf(st_shift_ratio[i]) > 0.5f)                                  /* check the shif
 1337              		.loc 1 742 65 is_stmt 0 view .LVU418
 1338 00de 53ED0A6A 		vldr.32	s13, [r3, #-40]
 742:user/Src/driver_mpu9250.c ****             if (fabsf(st_shift_ratio[i]) > 0.5f)                                  /* check the shif
 1339              		.loc 1 742 50 view .LVU419
 1340 00e2 C7EE267A 		vdiv.f32	s15, s14, s13
 742:user/Src/driver_mpu9250.c ****             if (fabsf(st_shift_ratio[i]) > 0.5f)                                  /* check the shif
 1341              		.loc 1 742 69 view .LVU420
 1342 00e6 B7EE007A 		vmov.f32	s14, #1.0e+0
 1343 00ea 77EEC77A 		vsub.f32	s15, s15, s14
 742:user/Src/driver_mpu9250.c ****             if (fabsf(st_shift_ratio[i]) > 0.5f)                                  /* check the shif
 1344              		.loc 1 742 31 view .LVU421
 1345 00ee 43ED077A 		vstr.32	s15, [r3, #-28]
 743:user/Src/driver_mpu9250.c ****             {
 1346              		.loc 1 743 13 is_stmt 1 view .LVU422
 743:user/Src/driver_mpu9250.c ****             {
 1347              		.loc 1 743 17 is_stmt 0 view .LVU423
ARM GAS  /var/folders/21/t9g5rlb91ys800n5npymflf80000gn/T//ccsu9bFS.s 			page 41


 1348 00f2 F0EEE77A 		vabs.f32	s15, s15
 743:user/Src/driver_mpu9250.c ****             {
 1349              		.loc 1 743 16 view .LVU424
 1350 00f6 B6EE007A 		vmov.f32	s14, #5.0e-1
 1351 00fa F4EEC77A 		vcmpe.f32	s15, s14
 1352 00fe F1EE10FA 		vmrs	APSR_nzcv, FPSCR
 1353 0102 1DDC     		bgt	.L90
 739:user/Src/driver_mpu9250.c ****         {
 1354              		.loc 1 739 29 is_stmt 1 discriminator 2 view .LVU425
 1355 0104 0134     		adds	r4, r4, #1
 1356              	.LVL146:
 739:user/Src/driver_mpu9250.c ****         {
 1357              		.loc 1 739 29 is_stmt 0 discriminator 2 view .LVU426
 1358 0106 E4B2     		uxtb	r4, r4
 1359              	.LVL147:
 739:user/Src/driver_mpu9250.c ****         {
 1360              		.loc 1 739 29 discriminator 2 view .LVU427
 1361 0108 D9E7     		b	.L82
 1362              	.LVL148:
 1363              	.L85:
 758:user/Src/driver_mpu9250.c ****             {
 759:user/Src/driver_mpu9250.c ****                 return 1;                                                         /* return error *
 760:user/Src/driver_mpu9250.c ****             }
 761:user/Src/driver_mpu9250.c ****         }
 762:user/Src/driver_mpu9250.c ****     }
 763:user/Src/driver_mpu9250.c ****     
 764:user/Src/driver_mpu9250.c ****     accel_offset_max = 0.5f * 65536.f;                                            /* set the offset
 1364              		.loc 1 764 5 is_stmt 1 view .LVU428
 765:user/Src/driver_mpu9250.c ****     for (i = 0; i < 3; i++)                                                       /* 3 times */
 1365              		.loc 1 765 5 view .LVU429
 1366              		.loc 1 765 12 is_stmt 0 view .LVU430
 1367 010a 0B46     		mov	r3, r1
 1368              		.loc 1 765 5 view .LVU431
 1369 010c 01E0     		b	.L87
 1370              	.LVL149:
 1371              	.L96:
 1372              		.loc 1 765 25 is_stmt 1 discriminator 2 view .LVU432
 1373 010e 0133     		adds	r3, r3, #1
 1374              	.LVL150:
 1375              		.loc 1 765 25 is_stmt 0 discriminator 2 view .LVU433
 1376 0110 DBB2     		uxtb	r3, r3
 1377              	.LVL151:
 1378              	.L87:
 1379              		.loc 1 765 19 is_stmt 1 discriminator 1 view .LVU434
 1380 0112 022B     		cmp	r3, #2
 1381 0114 11D8     		bhi	.L77
 766:user/Src/driver_mpu9250.c ****     {
 767:user/Src/driver_mpu9250.c ****         if (fabsf((float)bias_regular[i]) > accel_offset_max)                     /* check offset *
 1382              		.loc 1 767 9 view .LVU435
 1383              		.loc 1 767 19 is_stmt 0 view .LVU436
 1384 0116 56F82320 		ldr	r2, [r6, r3, lsl #2]
 1385 011a 07EE902A 		vmov	s15, r2	@ int
 1386 011e F8EEE77A 		vcvt.f32.s32	s15, s15
 1387              		.loc 1 767 13 view .LVU437
 1388 0122 F0EEE77A 		vabs.f32	s15, s15
 1389              		.loc 1 767 12 view .LVU438
 1390 0126 9FED0E7A 		vldr.32	s14, .L97+20
ARM GAS  /var/folders/21/t9g5rlb91ys800n5npymflf80000gn/T//ccsu9bFS.s 			page 42


 1391 012a F4EEC77A 		vcmpe.f32	s15, s14
 1392 012e F1EE10FA 		vmrs	APSR_nzcv, FPSCR
 1393 0132 ECDD     		ble	.L96
 768:user/Src/driver_mpu9250.c ****         {
 769:user/Src/driver_mpu9250.c ****             return 1;                                                             /* return error *
 1394              		.loc 1 769 20 view .LVU439
 1395 0134 0121     		movs	r1, #1
 1396 0136 00E0     		b	.L77
 1397              	.LVL152:
 1398              	.L89:
 719:user/Src/driver_mpu9250.c ****     }
 1399              		.loc 1 719 16 view .LVU440
 1400 0138 0121     		movs	r1, #1
 1401              	.LVL153:
 1402              	.L77:
 770:user/Src/driver_mpu9250.c ****         }
 771:user/Src/driver_mpu9250.c ****     }
 772:user/Src/driver_mpu9250.c **** 
 773:user/Src/driver_mpu9250.c ****     return 0;                                                                     /* success return
 774:user/Src/driver_mpu9250.c **** }
 1403              		.loc 1 774 1 view .LVU441
 1404 013a 0846     		mov	r0, r1
 1405 013c 0BB0     		add	sp, sp, #44
 1406              	.LCFI21:
 1407              		.cfi_remember_state
 1408              		.cfi_def_cfa_offset 20
 1409              		@ sp needed
 1410 013e F0BD     		pop	{r4, r5, r6, r7, pc}
 1411              	.LVL154:
 1412              	.L90:
 1413              	.LCFI22:
 1414              		.cfi_restore_state
 745:user/Src/driver_mpu9250.c ****             }
 1415              		.loc 1 745 24 view .LVU442
 1416 0140 0121     		movs	r1, #1
 1417 0142 FAE7     		b	.L77
 1418              	.LVL155:
 1419              	.L91:
 759:user/Src/driver_mpu9250.c ****             }
 1420              		.loc 1 759 24 view .LVU443
 1421 0144 2146     		mov	r1, r4
 1422 0146 F8E7     		b	.L77
 1423              	.L92:
 1424 0148 2146     		mov	r1, r4
 1425 014a F6E7     		b	.L77
 1426              	.L98:
 1427              		.align	2
 1428              	.L97:
 1429 014c 00000000 		.word	gs_st_tb
 1430 0150 00008047 		.word	1199570944
 1431 0154 00008038 		.word	947912704
 1432 0158 66666646 		.word	1181116006
 1433 015c CDCC2C47 		.word	1194118349
 1434 0160 00000047 		.word	1191182336
 1435              		.cfi_endproc
 1436              	.LFE30:
 1438              		.section	.text.a_mpu9250_gyro_self_test,"ax",%progbits
ARM GAS  /var/folders/21/t9g5rlb91ys800n5npymflf80000gn/T//ccsu9bFS.s 			page 43


 1439              		.align	1
 1440              		.syntax unified
 1441              		.thumb
 1442              		.thumb_func
 1444              	a_mpu9250_gyro_self_test:
 1445              	.LVL156:
 1446              	.LFB31:
 775:user/Src/driver_mpu9250.c **** 
 776:user/Src/driver_mpu9250.c **** /**
 777:user/Src/driver_mpu9250.c ****  * @brief      run the gyro self test
 778:user/Src/driver_mpu9250.c ****  * @param[in]  *handle points to an mpu9250 handle structure
 779:user/Src/driver_mpu9250.c ****  * @param[out] *bias_regular points to a bias regular buffer
 780:user/Src/driver_mpu9250.c ****  * @param[out] *bias_st points to a bias st buffer
 781:user/Src/driver_mpu9250.c ****  * @return     status code
 782:user/Src/driver_mpu9250.c ****  *             - 0 success
 783:user/Src/driver_mpu9250.c ****  *             - others test failed
 784:user/Src/driver_mpu9250.c ****  * @note       none
 785:user/Src/driver_mpu9250.c ****  */
 786:user/Src/driver_mpu9250.c **** static uint8_t a_mpu9250_gyro_self_test(mpu9250_handle_t *handle, int32_t *bias_regular, int32_t *b
 787:user/Src/driver_mpu9250.c **** {
 1447              		.loc 1 787 1 is_stmt 1 view -0
 1448              		.cfi_startproc
 1449              		@ args = 0, pretend = 0, frame = 40
 1450              		@ frame_needed = 0, uses_anonymous_args = 0
 1451              		.loc 1 787 1 is_stmt 0 view .LVU445
 1452 0000 70B5     		push	{r4, r5, r6, lr}
 1453              	.LCFI23:
 1454              		.cfi_def_cfa_offset 16
 1455              		.cfi_offset 4, -16
 1456              		.cfi_offset 5, -12
 1457              		.cfi_offset 6, -8
 1458              		.cfi_offset 14, -4
 1459 0002 8AB0     		sub	sp, sp, #40
 1460              	.LCFI24:
 1461              		.cfi_def_cfa_offset 56
 1462 0004 0D46     		mov	r5, r1
 1463 0006 1646     		mov	r6, r2
 788:user/Src/driver_mpu9250.c ****     uint8_t res;
 1464              		.loc 1 788 5 is_stmt 1 view .LVU446
 789:user/Src/driver_mpu9250.c ****     uint8_t i;
 1465              		.loc 1 789 5 view .LVU447
 790:user/Src/driver_mpu9250.c ****     uint8_t otp_value_zero;
 1466              		.loc 1 790 5 view .LVU448
 791:user/Src/driver_mpu9250.c ****     float gyro_st_al_max;
 1467              		.loc 1 791 5 view .LVU449
 792:user/Src/driver_mpu9250.c ****     float gyro_offset_max;
 1468              		.loc 1 792 5 view .LVU450
 793:user/Src/driver_mpu9250.c ****     float st_shift_cust[3];
 1469              		.loc 1 793 5 view .LVU451
 794:user/Src/driver_mpu9250.c ****     float st_shift_ratio[3];
 1470              		.loc 1 794 5 view .LVU452
 795:user/Src/driver_mpu9250.c ****     float ct_shift_prod[3];
 1471              		.loc 1 795 5 view .LVU453
 796:user/Src/driver_mpu9250.c ****     uint8_t regs[3];
 1472              		.loc 1 796 5 view .LVU454
 797:user/Src/driver_mpu9250.c **** 
 798:user/Src/driver_mpu9250.c ****     res = a_mpu9250_read(handle, MPU9250_REG_SELF_TEST_X_GYRO, regs, 3);        /* read the tmp */
ARM GAS  /var/folders/21/t9g5rlb91ys800n5npymflf80000gn/T//ccsu9bFS.s 			page 44


 1473              		.loc 1 798 5 view .LVU455
 1474              		.loc 1 798 11 is_stmt 0 view .LVU456
 1475 0008 0323     		movs	r3, #3
 1476 000a 6A46     		mov	r2, sp
 1477              	.LVL157:
 1478              		.loc 1 798 11 view .LVU457
 1479 000c 0021     		movs	r1, #0
 1480              	.LVL158:
 1481              		.loc 1 798 11 view .LVU458
 1482 000e FFF7FEFF 		bl	a_mpu9250_read
 1483              	.LVL159:
 799:user/Src/driver_mpu9250.c ****     if (res != 0)                                                               /* check the result
 1484              		.loc 1 799 5 is_stmt 1 view .LVU459
 1485              		.loc 1 799 8 is_stmt 0 view .LVU460
 1486 0012 0028     		cmp	r0, #0
 1487 0014 40F08380 		bne	.L112
 1488 0018 0146     		mov	r1, r0
 800:user/Src/driver_mpu9250.c ****     {
 801:user/Src/driver_mpu9250.c ****         return 1;                                                               /* return error */
 802:user/Src/driver_mpu9250.c ****     }
 803:user/Src/driver_mpu9250.c **** 
 804:user/Src/driver_mpu9250.c ****     otp_value_zero = 0;                                                         /* init otp value z
 1489              		.loc 1 804 20 view .LVU461
 1490 001a 0446     		mov	r4, r0
 805:user/Src/driver_mpu9250.c ****     for (i = 0; i < 3; i++)                                                     /* 3 times */
 1491              		.loc 1 805 12 view .LVU462
 1492 001c 0346     		mov	r3, r0
 1493 001e 08E0     		b	.L101
 1494              	.LVL160:
 1495              	.L102:
 806:user/Src/driver_mpu9250.c ****     {
 807:user/Src/driver_mpu9250.c ****         if (regs[i] != 0)                                                       /* check regs */
 808:user/Src/driver_mpu9250.c ****         {
 809:user/Src/driver_mpu9250.c ****             ct_shift_prod[i] = (float)gs_st_tb[regs[i] - 1];                    /* set shift prod *
 810:user/Src/driver_mpu9250.c ****             ct_shift_prod[i] *= 65536.f;                                        /* x65536.0f */
 811:user/Src/driver_mpu9250.c ****             ct_shift_prod[i] /= 131.0f;                                         /* 250dps */
 812:user/Src/driver_mpu9250.c ****         }
 813:user/Src/driver_mpu9250.c ****         else
 814:user/Src/driver_mpu9250.c ****         {
 815:user/Src/driver_mpu9250.c ****             ct_shift_prod[i] = 0;                                               /* init 0.0f */
 1496              		.loc 1 815 13 is_stmt 1 view .LVU463
 1497              		.loc 1 815 30 is_stmt 0 view .LVU464
 1498 0020 0020     		movs	r0, #0
 1499 0022 0AAA     		add	r2, sp, #40
 1500 0024 02EB8302 		add	r2, r2, r3, lsl #2
 1501 0028 42F8240C 		str	r0, [r2, #-36]	@ float
 816:user/Src/driver_mpu9250.c ****             otp_value_zero = 1;                                                 /* set otp value ze
 1502              		.loc 1 816 13 is_stmt 1 view .LVU465
 1503              	.LVL161:
 1504              		.loc 1 816 28 is_stmt 0 view .LVU466
 1505 002c 0124     		movs	r4, #1
 1506              	.LVL162:
 1507              	.L103:
 805:user/Src/driver_mpu9250.c ****     for (i = 0; i < 3; i++)                                                     /* 3 times */
 1508              		.loc 1 805 25 is_stmt 1 discriminator 2 view .LVU467
 1509 002e 0133     		adds	r3, r3, #1
 1510              	.LVL163:
ARM GAS  /var/folders/21/t9g5rlb91ys800n5npymflf80000gn/T//ccsu9bFS.s 			page 45


 805:user/Src/driver_mpu9250.c ****     for (i = 0; i < 3; i++)                                                     /* 3 times */
 1511              		.loc 1 805 25 is_stmt 0 discriminator 2 view .LVU468
 1512 0030 DBB2     		uxtb	r3, r3
 1513              	.LVL164:
 1514              	.L101:
 805:user/Src/driver_mpu9250.c ****     for (i = 0; i < 3; i++)                                                     /* 3 times */
 1515              		.loc 1 805 19 is_stmt 1 discriminator 1 view .LVU469
 1516 0032 022B     		cmp	r3, #2
 1517 0034 20D8     		bhi	.L117
 807:user/Src/driver_mpu9250.c ****         {
 1518              		.loc 1 807 9 view .LVU470
 807:user/Src/driver_mpu9250.c ****         {
 1519              		.loc 1 807 17 is_stmt 0 view .LVU471
 1520 0036 03F12802 		add	r2, r3, #40
 1521 003a 6A44     		add	r2, sp, r2
 1522 003c 12F8282C 		ldrb	r2, [r2, #-40]	@ zero_extendqisi2
 807:user/Src/driver_mpu9250.c ****         {
 1523              		.loc 1 807 12 view .LVU472
 1524 0040 002A     		cmp	r2, #0
 1525 0042 EDD0     		beq	.L102
 809:user/Src/driver_mpu9250.c ****             ct_shift_prod[i] *= 65536.f;                                        /* x65536.0f */
 1526              		.loc 1 809 13 is_stmt 1 view .LVU473
 809:user/Src/driver_mpu9250.c ****             ct_shift_prod[i] *= 65536.f;                                        /* x65536.0f */
 1527              		.loc 1 809 56 is_stmt 0 view .LVU474
 1528 0044 013A     		subs	r2, r2, #1
 809:user/Src/driver_mpu9250.c ****             ct_shift_prod[i] *= 65536.f;                                        /* x65536.0f */
 1529              		.loc 1 809 47 view .LVU475
 1530 0046 3B48     		ldr	r0, .L118
 1531 0048 30F81220 		ldrh	r2, [r0, r2, lsl #1]
 1532 004c 07EE902A 		vmov	s15, r2	@ int
 809:user/Src/driver_mpu9250.c ****             ct_shift_prod[i] *= 65536.f;                                        /* x65536.0f */
 1533              		.loc 1 809 32 view .LVU476
 1534 0050 F8EE677A 		vcvt.f32.u32	s15, s15
 809:user/Src/driver_mpu9250.c ****             ct_shift_prod[i] *= 65536.f;                                        /* x65536.0f */
 1535              		.loc 1 809 30 view .LVU477
 1536 0054 0AAA     		add	r2, sp, #40
 1537 0056 02EB8302 		add	r2, r2, r3, lsl #2
 1538 005a 42ED097A 		vstr.32	s15, [r2, #-36]
 810:user/Src/driver_mpu9250.c ****             ct_shift_prod[i] /= 131.0f;                                         /* 250dps */
 1539              		.loc 1 810 13 is_stmt 1 view .LVU478
 810:user/Src/driver_mpu9250.c ****             ct_shift_prod[i] /= 131.0f;                                         /* 250dps */
 1540              		.loc 1 810 30 is_stmt 0 view .LVU479
 1541 005e 9FED367A 		vldr.32	s14, .L118+4
 1542 0062 67EE877A 		vmul.f32	s15, s15, s14
 1543 0066 42ED097A 		vstr.32	s15, [r2, #-36]
 811:user/Src/driver_mpu9250.c ****         }
 1544              		.loc 1 811 13 is_stmt 1 view .LVU480
 811:user/Src/driver_mpu9250.c ****         }
 1545              		.loc 1 811 30 is_stmt 0 view .LVU481
 1546 006a DFED346A 		vldr.32	s13, .L118+8
 1547 006e 87EEA67A 		vdiv.f32	s14, s15, s13
 1548 0072 02ED097A 		vstr.32	s14, [r2, #-36]
 1549 0076 DAE7     		b	.L103
 1550              	.L117:
 817:user/Src/driver_mpu9250.c ****         }
 818:user/Src/driver_mpu9250.c ****     }
 819:user/Src/driver_mpu9250.c **** 
ARM GAS  /var/folders/21/t9g5rlb91ys800n5npymflf80000gn/T//ccsu9bFS.s 			page 46


 820:user/Src/driver_mpu9250.c ****     if (otp_value_zero == 0)                                                    /* if otp value zer
 1551              		.loc 1 820 5 is_stmt 1 view .LVU482
 1552              		.loc 1 820 8 is_stmt 0 view .LVU483
 1553 0078 D4B1     		cbz	r4, .L105
 821:user/Src/driver_mpu9250.c ****     {
 822:user/Src/driver_mpu9250.c ****         for (i = 0; i < 3; i++)                                                 /* 3 times */
 823:user/Src/driver_mpu9250.c ****         {
 824:user/Src/driver_mpu9250.c ****             st_shift_cust[i] = (float)(bias_st[i] - bias_regular[i]);           /* shift cust */
 825:user/Src/driver_mpu9250.c ****             st_shift_ratio[i] = st_shift_cust[i] / ct_shift_prod[i];            /* shift ratio */
 826:user/Src/driver_mpu9250.c ****             if (fabsf(st_shift_ratio[i]) < 0.5f)                                /* check ratio */
 827:user/Src/driver_mpu9250.c ****             {
 828:user/Src/driver_mpu9250.c ****                 return 1;                                                       /* return error */
 829:user/Src/driver_mpu9250.c ****             }
 830:user/Src/driver_mpu9250.c ****         }
 831:user/Src/driver_mpu9250.c ****     }
 832:user/Src/driver_mpu9250.c ****     else
 833:user/Src/driver_mpu9250.c ****     {
 834:user/Src/driver_mpu9250.c ****         gyro_st_al_max = 60.f * 65536.f;                                        /* set st al max */
 835:user/Src/driver_mpu9250.c ****         for (i = 0; i < 3; i++)                                                 /* 3 times */
 1554              		.loc 1 835 16 view .LVU484
 1555 007a 0B46     		mov	r3, r1
 1556              	.LVL165:
 1557              	.L106:
 1558              		.loc 1 835 23 is_stmt 1 discriminator 1 view .LVU485
 1559 007c 022B     		cmp	r3, #2
 1560 007e 39D8     		bhi	.L108
 836:user/Src/driver_mpu9250.c ****         {
 837:user/Src/driver_mpu9250.c ****             st_shift_cust[i] = (float)(bias_st[i] - bias_regular[i]);           /* set cust */
 1561              		.loc 1 837 13 view .LVU486
 1562              		.loc 1 837 47 is_stmt 0 view .LVU487
 1563 0080 56F82320 		ldr	r2, [r6, r3, lsl #2]
 1564              		.loc 1 837 65 view .LVU488
 1565 0084 55F82300 		ldr	r0, [r5, r3, lsl #2]
 1566              		.loc 1 837 51 view .LVU489
 1567 0088 121A     		subs	r2, r2, r0
 1568              		.loc 1 837 32 view .LVU490
 1569 008a 07EE902A 		vmov	s15, r2	@ int
 1570 008e F8EEE77A 		vcvt.f32.s32	s15, s15
 1571              		.loc 1 837 30 view .LVU491
 1572 0092 0AAA     		add	r2, sp, #40
 1573 0094 02EB8302 		add	r2, r2, r3, lsl #2
 1574 0098 42ED037A 		vstr.32	s15, [r2, #-12]
 838:user/Src/driver_mpu9250.c ****             if (st_shift_cust[i] < gyro_st_al_max)                              /* check st al max 
 1575              		.loc 1 838 13 is_stmt 1 view .LVU492
 1576              		.loc 1 838 16 is_stmt 0 view .LVU493
 1577 009c 9FED287A 		vldr.32	s14, .L118+12
 1578 00a0 F4EEC77A 		vcmpe.f32	s15, s14
 1579 00a4 F1EE10FA 		vmrs	APSR_nzcv, FPSCR
 1580 00a8 3FD4     		bmi	.L114
 835:user/Src/driver_mpu9250.c ****         {
 1581              		.loc 1 835 29 is_stmt 1 discriminator 2 view .LVU494
 1582 00aa 0133     		adds	r3, r3, #1
 1583              	.LVL166:
 835:user/Src/driver_mpu9250.c ****         {
 1584              		.loc 1 835 29 is_stmt 0 discriminator 2 view .LVU495
 1585 00ac DBB2     		uxtb	r3, r3
 1586              	.LVL167:
ARM GAS  /var/folders/21/t9g5rlb91ys800n5npymflf80000gn/T//ccsu9bFS.s 			page 47


 835:user/Src/driver_mpu9250.c ****         {
 1587              		.loc 1 835 29 discriminator 2 view .LVU496
 1588 00ae E5E7     		b	.L106
 1589              	.LVL168:
 1590              	.L105:
 822:user/Src/driver_mpu9250.c ****         {
 1591              		.loc 1 822 23 is_stmt 1 discriminator 1 view .LVU497
 1592 00b0 022C     		cmp	r4, #2
 1593 00b2 1FD8     		bhi	.L108
 824:user/Src/driver_mpu9250.c ****             st_shift_ratio[i] = st_shift_cust[i] / ct_shift_prod[i];            /* shift ratio */
 1594              		.loc 1 824 13 view .LVU498
 824:user/Src/driver_mpu9250.c ****             st_shift_ratio[i] = st_shift_cust[i] / ct_shift_prod[i];            /* shift ratio */
 1595              		.loc 1 824 47 is_stmt 0 view .LVU499
 1596 00b4 56F82430 		ldr	r3, [r6, r4, lsl #2]
 824:user/Src/driver_mpu9250.c ****             st_shift_ratio[i] = st_shift_cust[i] / ct_shift_prod[i];            /* shift ratio */
 1597              		.loc 1 824 65 view .LVU500
 1598 00b8 55F82420 		ldr	r2, [r5, r4, lsl #2]
 824:user/Src/driver_mpu9250.c ****             st_shift_ratio[i] = st_shift_cust[i] / ct_shift_prod[i];            /* shift ratio */
 1599              		.loc 1 824 51 view .LVU501
 1600 00bc 9B1A     		subs	r3, r3, r2
 824:user/Src/driver_mpu9250.c ****             st_shift_ratio[i] = st_shift_cust[i] / ct_shift_prod[i];            /* shift ratio */
 1601              		.loc 1 824 32 view .LVU502
 1602 00be 07EE903A 		vmov	s15, r3	@ int
 1603 00c2 F8EEE77A 		vcvt.f32.s32	s15, s15
 824:user/Src/driver_mpu9250.c ****             st_shift_ratio[i] = st_shift_cust[i] / ct_shift_prod[i];            /* shift ratio */
 1604              		.loc 1 824 30 view .LVU503
 1605 00c6 0AAB     		add	r3, sp, #40
 1606 00c8 03EB8403 		add	r3, r3, r4, lsl #2
 1607 00cc 43ED037A 		vstr.32	s15, [r3, #-12]
 825:user/Src/driver_mpu9250.c ****             if (fabsf(st_shift_ratio[i]) < 0.5f)                                /* check ratio */
 1608              		.loc 1 825 13 is_stmt 1 view .LVU504
 825:user/Src/driver_mpu9250.c ****             if (fabsf(st_shift_ratio[i]) < 0.5f)                                /* check ratio */
 1609              		.loc 1 825 65 is_stmt 0 view .LVU505
 1610 00d0 53ED096A 		vldr.32	s13, [r3, #-36]
 825:user/Src/driver_mpu9250.c ****             if (fabsf(st_shift_ratio[i]) < 0.5f)                                /* check ratio */
 1611              		.loc 1 825 50 view .LVU506
 1612 00d4 87EEA67A 		vdiv.f32	s14, s15, s13
 825:user/Src/driver_mpu9250.c ****             if (fabsf(st_shift_ratio[i]) < 0.5f)                                /* check ratio */
 1613              		.loc 1 825 31 view .LVU507
 1614 00d8 03ED067A 		vstr.32	s14, [r3, #-24]
 826:user/Src/driver_mpu9250.c ****             {
 1615              		.loc 1 826 13 is_stmt 1 view .LVU508
 826:user/Src/driver_mpu9250.c ****             {
 1616              		.loc 1 826 17 is_stmt 0 view .LVU509
 1617 00dc B0EEC77A 		vabs.f32	s14, s14
 826:user/Src/driver_mpu9250.c ****             {
 1618              		.loc 1 826 16 view .LVU510
 1619 00e0 F6EE007A 		vmov.f32	s15, #5.0e-1
 1620 00e4 B4EEE77A 		vcmpe.f32	s14, s15
 1621 00e8 F1EE10FA 		vmrs	APSR_nzcv, FPSCR
 1622 00ec 1BD4     		bmi	.L113
 822:user/Src/driver_mpu9250.c ****         {
 1623              		.loc 1 822 29 is_stmt 1 discriminator 2 view .LVU511
 1624 00ee 0134     		adds	r4, r4, #1
 1625              	.LVL169:
 822:user/Src/driver_mpu9250.c ****         {
 1626              		.loc 1 822 29 is_stmt 0 discriminator 2 view .LVU512
ARM GAS  /var/folders/21/t9g5rlb91ys800n5npymflf80000gn/T//ccsu9bFS.s 			page 48


 1627 00f0 E4B2     		uxtb	r4, r4
 1628              	.LVL170:
 822:user/Src/driver_mpu9250.c ****         {
 1629              		.loc 1 822 29 discriminator 2 view .LVU513
 1630 00f2 DDE7     		b	.L105
 1631              	.LVL171:
 1632              	.L108:
 839:user/Src/driver_mpu9250.c ****             {
 840:user/Src/driver_mpu9250.c ****                 return 1;                                                       /* return error */
 841:user/Src/driver_mpu9250.c ****             }
 842:user/Src/driver_mpu9250.c ****         }
 843:user/Src/driver_mpu9250.c ****     }
 844:user/Src/driver_mpu9250.c ****     
 845:user/Src/driver_mpu9250.c ****     gyro_offset_max = 20.f * 65536.f;                                           /* set gyro offset 
 1633              		.loc 1 845 5 is_stmt 1 view .LVU514
 846:user/Src/driver_mpu9250.c ****     for (i = 0; i < 3; i++)                                                     /* 3 times */
 1634              		.loc 1 846 5 view .LVU515
 1635              		.loc 1 846 12 is_stmt 0 view .LVU516
 1636 00f4 0B46     		mov	r3, r1
 1637              	.LVL172:
 1638              	.L110:
 1639              		.loc 1 846 19 is_stmt 1 discriminator 1 view .LVU517
 1640 00f6 022B     		cmp	r3, #2
 1641 00f8 12D8     		bhi	.L100
 847:user/Src/driver_mpu9250.c ****     {
 848:user/Src/driver_mpu9250.c ****         if( fabsf((float)bias_regular[i]) > gyro_offset_max)                    /* check gyro offse
 1642              		.loc 1 848 9 view .LVU518
 1643              		.loc 1 848 19 is_stmt 0 view .LVU519
 1644 00fa 55F82320 		ldr	r2, [r5, r3, lsl #2]
 1645 00fe 07EE902A 		vmov	s15, r2	@ int
 1646 0102 F8EEE77A 		vcvt.f32.s32	s15, s15
 1647              		.loc 1 848 13 view .LVU520
 1648 0106 F0EEE77A 		vabs.f32	s15, s15
 1649              		.loc 1 848 11 view .LVU521
 1650 010a 9FED0E7A 		vldr.32	s14, .L118+16
 1651 010e F4EEC77A 		vcmpe.f32	s15, s14
 1652 0112 F1EE10FA 		vmrs	APSR_nzcv, FPSCR
 1653 0116 0ADC     		bgt	.L115
 846:user/Src/driver_mpu9250.c ****     for (i = 0; i < 3; i++)                                                     /* 3 times */
 1654              		.loc 1 846 25 is_stmt 1 discriminator 2 view .LVU522
 1655 0118 0133     		adds	r3, r3, #1
 1656              	.LVL173:
 846:user/Src/driver_mpu9250.c ****     for (i = 0; i < 3; i++)                                                     /* 3 times */
 1657              		.loc 1 846 25 is_stmt 0 discriminator 2 view .LVU523
 1658 011a DBB2     		uxtb	r3, r3
 1659              	.LVL174:
 846:user/Src/driver_mpu9250.c ****     for (i = 0; i < 3; i++)                                                     /* 3 times */
 1660              		.loc 1 846 25 discriminator 2 view .LVU524
 1661 011c EBE7     		b	.L110
 1662              	.LVL175:
 1663              	.L112:
 801:user/Src/driver_mpu9250.c ****     }
 1664              		.loc 1 801 16 view .LVU525
 1665 011e 0121     		movs	r1, #1
 1666              	.LVL176:
 1667              	.L100:
 849:user/Src/driver_mpu9250.c ****         {
ARM GAS  /var/folders/21/t9g5rlb91ys800n5npymflf80000gn/T//ccsu9bFS.s 			page 49


 850:user/Src/driver_mpu9250.c ****             return 1;                                                           /* return error */
 851:user/Src/driver_mpu9250.c ****         }
 852:user/Src/driver_mpu9250.c ****     }
 853:user/Src/driver_mpu9250.c ****     
 854:user/Src/driver_mpu9250.c ****     return 0;                                                                   /* success return 0
 855:user/Src/driver_mpu9250.c **** }
 1668              		.loc 1 855 1 view .LVU526
 1669 0120 0846     		mov	r0, r1
 1670 0122 0AB0     		add	sp, sp, #40
 1671              	.LCFI25:
 1672              		.cfi_remember_state
 1673              		.cfi_def_cfa_offset 16
 1674              		@ sp needed
 1675 0124 70BD     		pop	{r4, r5, r6, pc}
 1676              	.LVL177:
 1677              	.L113:
 1678              	.LCFI26:
 1679              		.cfi_restore_state
 828:user/Src/driver_mpu9250.c ****             }
 1680              		.loc 1 828 24 view .LVU527
 1681 0126 0121     		movs	r1, #1
 1682 0128 FAE7     		b	.L100
 1683              	.LVL178:
 1684              	.L114:
 840:user/Src/driver_mpu9250.c ****             }
 1685              		.loc 1 840 24 view .LVU528
 1686 012a 2146     		mov	r1, r4
 1687 012c F8E7     		b	.L100
 1688              	.LVL179:
 1689              	.L115:
 850:user/Src/driver_mpu9250.c ****         }
 1690              		.loc 1 850 20 view .LVU529
 1691 012e 0121     		movs	r1, #1
 1692 0130 F6E7     		b	.L100
 1693              	.L119:
 1694 0132 00BF     		.align	2
 1695              	.L118:
 1696 0134 00000000 		.word	gs_st_tb
 1697 0138 00008047 		.word	1199570944
 1698 013c 00000343 		.word	1124270080
 1699 0140 0000704A 		.word	1248854016
 1700 0144 0000A049 		.word	1235222528
 1701              		.cfi_endproc
 1702              	.LFE31:
 1704              		.global	__aeabi_ldivmod
 1705              		.section	.text.a_mpu9250_get_st_biases,"ax",%progbits
 1706              		.align	1
 1707              		.syntax unified
 1708              		.thumb
 1709              		.thumb_func
 1711              	a_mpu9250_get_st_biases:
 1712              	.LVL180:
 1713              	.LFB32:
 856:user/Src/driver_mpu9250.c **** 
 857:user/Src/driver_mpu9250.c **** /**
 858:user/Src/driver_mpu9250.c ****  * @brief      get the st biases
 859:user/Src/driver_mpu9250.c ****  * @param[in]  *handle points to an mpu9250 handle structure
ARM GAS  /var/folders/21/t9g5rlb91ys800n5npymflf80000gn/T//ccsu9bFS.s 			page 50


 860:user/Src/driver_mpu9250.c ****  * @param[out] *gyro_offset points to a gyro offset buffer
 861:user/Src/driver_mpu9250.c ****  * @param[out] *accel_offset points to an accel offset buffer
 862:user/Src/driver_mpu9250.c ****  * @param[in]  hw_test_enable is the test bool value
 863:user/Src/driver_mpu9250.c ****  * @return     status code
 864:user/Src/driver_mpu9250.c ****  *             - 0 success
 865:user/Src/driver_mpu9250.c ****  *             - 1 others failed
 866:user/Src/driver_mpu9250.c ****  * @note       none
 867:user/Src/driver_mpu9250.c ****  */
 868:user/Src/driver_mpu9250.c **** static uint8_t a_mpu9250_get_st_biases(mpu9250_handle_t *handle,
 869:user/Src/driver_mpu9250.c ****                                        int32_t gyro_offset[3], int32_t accel_offset[3],
 870:user/Src/driver_mpu9250.c ****                                        uint8_t hw_test_enable)
 871:user/Src/driver_mpu9250.c **** {
 1714              		.loc 1 871 1 is_stmt 1 view -0
 1715              		.cfi_startproc
 1716              		@ args = 0, pretend = 0, frame = 32
 1717              		@ frame_needed = 0, uses_anonymous_args = 0
 1718              		.loc 1 871 1 is_stmt 0 view .LVU531
 1719 0000 2DE9F043 		push	{r4, r5, r6, r7, r8, r9, lr}
 1720              	.LCFI27:
 1721              		.cfi_def_cfa_offset 28
 1722              		.cfi_offset 4, -28
 1723              		.cfi_offset 5, -24
 1724              		.cfi_offset 6, -20
 1725              		.cfi_offset 7, -16
 1726              		.cfi_offset 8, -12
 1727              		.cfi_offset 9, -8
 1728              		.cfi_offset 14, -4
 1729 0004 89B0     		sub	sp, sp, #36
 1730              	.LCFI28:
 1731              		.cfi_def_cfa_offset 64
 1732 0006 0446     		mov	r4, r0
 1733 0008 0E46     		mov	r6, r1
 1734 000a 1546     		mov	r5, r2
 1735 000c 1F46     		mov	r7, r3
 872:user/Src/driver_mpu9250.c ****     uint8_t res;
 1736              		.loc 1 872 5 is_stmt 1 view .LVU532
 873:user/Src/driver_mpu9250.c ****     uint16_t cnt;
 1737              		.loc 1 873 5 view .LVU533
 874:user/Src/driver_mpu9250.c ****     uint16_t pack_cnt;
 1738              		.loc 1 874 5 view .LVU534
 875:user/Src/driver_mpu9250.c ****     uint16_t i;
 1739              		.loc 1 875 5 view .LVU535
 876:user/Src/driver_mpu9250.c ****     uint8_t data[12];
 1740              		.loc 1 876 5 view .LVU536
 877:user/Src/driver_mpu9250.c ****     
 878:user/Src/driver_mpu9250.c ****     data[0] = 0x01;                                                                                
 1741              		.loc 1 878 5 view .LVU537
 1742              		.loc 1 878 13 is_stmt 0 view .LVU538
 1743 000e 0122     		movs	r2, #1
 1744              	.LVL181:
 1745              		.loc 1 878 13 view .LVU539
 1746 0010 8DF81420 		strb	r2, [sp, #20]
 879:user/Src/driver_mpu9250.c ****     data[1] = 0x00;                                                                                
 1747              		.loc 1 879 5 is_stmt 1 view .LVU540
 1748              		.loc 1 879 13 is_stmt 0 view .LVU541
 1749 0014 0022     		movs	r2, #0
 1750 0016 8DF81520 		strb	r2, [sp, #21]
ARM GAS  /var/folders/21/t9g5rlb91ys800n5npymflf80000gn/T//ccsu9bFS.s 			page 51


 880:user/Src/driver_mpu9250.c ****     res = a_mpu9250_write(handle, MPU9250_REG_PWR_MGMT_1, data, 2);                                
 1751              		.loc 1 880 5 is_stmt 1 view .LVU542
 1752              		.loc 1 880 11 is_stmt 0 view .LVU543
 1753 001a 0223     		movs	r3, #2
 1754              	.LVL182:
 1755              		.loc 1 880 11 view .LVU544
 1756 001c 05AA     		add	r2, sp, #20
 1757 001e 6B21     		movs	r1, #107
 1758              	.LVL183:
 1759              		.loc 1 880 11 view .LVU545
 1760 0020 FFF7FEFF 		bl	a_mpu9250_write
 1761              	.LVL184:
 881:user/Src/driver_mpu9250.c ****     if (res != 0)                                                                                  
 1762              		.loc 1 881 5 is_stmt 1 view .LVU546
 1763              		.loc 1 881 8 is_stmt 0 view .LVU547
 1764 0024 0028     		cmp	r0, #0
 1765 0026 40F08881 		bne	.L134
 882:user/Src/driver_mpu9250.c ****     {
 883:user/Src/driver_mpu9250.c ****         return 1;                                                                                  
 884:user/Src/driver_mpu9250.c ****     }
 885:user/Src/driver_mpu9250.c ****     handle->delay_ms(200);                                                                         
 1766              		.loc 1 885 5 is_stmt 1 view .LVU548
 1767              		.loc 1 885 11 is_stmt 0 view .LVU549
 1768 002a 636A     		ldr	r3, [r4, #36]
 1769              		.loc 1 885 5 view .LVU550
 1770 002c C820     		movs	r0, #200
 1771              	.LVL185:
 1772              		.loc 1 885 5 view .LVU551
 1773 002e 9847     		blx	r3
 1774              	.LVL186:
 886:user/Src/driver_mpu9250.c ****     data[0] = 0;                                                                                   
 1775              		.loc 1 886 5 is_stmt 1 view .LVU552
 1776              		.loc 1 886 13 is_stmt 0 view .LVU553
 1777 0030 0023     		movs	r3, #0
 1778 0032 8DF81430 		strb	r3, [sp, #20]
 887:user/Src/driver_mpu9250.c ****     res = a_mpu9250_write(handle, MPU9250_REG_INT_ENABLE, data, 1);                                
 1779              		.loc 1 887 5 is_stmt 1 view .LVU554
 1780              		.loc 1 887 11 is_stmt 0 view .LVU555
 1781 0036 0123     		movs	r3, #1
 1782 0038 05AA     		add	r2, sp, #20
 1783 003a 3821     		movs	r1, #56
 1784 003c 2046     		mov	r0, r4
 1785 003e FFF7FEFF 		bl	a_mpu9250_write
 1786              	.LVL187:
 888:user/Src/driver_mpu9250.c ****     if (res != 0)                                                                                  
 1787              		.loc 1 888 5 is_stmt 1 view .LVU556
 1788              		.loc 1 888 8 is_stmt 0 view .LVU557
 1789 0042 08B1     		cbz	r0, .L150
 889:user/Src/driver_mpu9250.c ****     {
 890:user/Src/driver_mpu9250.c ****         return 1;                                                                                  
 1790              		.loc 1 890 16 view .LVU558
 1791 0044 0127     		movs	r7, #1
 1792 0046 79E1     		b	.L121
 1793              	.L150:
 891:user/Src/driver_mpu9250.c ****     }
 892:user/Src/driver_mpu9250.c ****     res = a_mpu9250_write(handle, MPU9250_REG_FIFO_EN, data, 1);                                   
 1794              		.loc 1 892 5 is_stmt 1 view .LVU559
ARM GAS  /var/folders/21/t9g5rlb91ys800n5npymflf80000gn/T//ccsu9bFS.s 			page 52


 1795              		.loc 1 892 11 is_stmt 0 view .LVU560
 1796 0048 0123     		movs	r3, #1
 1797 004a 05AA     		add	r2, sp, #20
 1798 004c 2321     		movs	r1, #35
 1799 004e 2046     		mov	r0, r4
 1800              	.LVL188:
 1801              		.loc 1 892 11 view .LVU561
 1802 0050 FFF7FEFF 		bl	a_mpu9250_write
 1803              	.LVL189:
 893:user/Src/driver_mpu9250.c ****     if (res != 0)                                                                                  
 1804              		.loc 1 893 5 is_stmt 1 view .LVU562
 1805              		.loc 1 893 8 is_stmt 0 view .LVU563
 1806 0054 08B1     		cbz	r0, .L151
 894:user/Src/driver_mpu9250.c ****     {
 895:user/Src/driver_mpu9250.c ****         return 1;                                                                                  
 1807              		.loc 1 895 16 view .LVU564
 1808 0056 0127     		movs	r7, #1
 1809 0058 70E1     		b	.L121
 1810              	.L151:
 896:user/Src/driver_mpu9250.c ****     }
 897:user/Src/driver_mpu9250.c ****     res = a_mpu9250_write(handle, MPU9250_REG_PWR_MGMT_1, data, 1);                                
 1811              		.loc 1 897 5 is_stmt 1 view .LVU565
 1812              		.loc 1 897 11 is_stmt 0 view .LVU566
 1813 005a 0123     		movs	r3, #1
 1814 005c 05AA     		add	r2, sp, #20
 1815 005e 6B21     		movs	r1, #107
 1816 0060 2046     		mov	r0, r4
 1817              	.LVL190:
 1818              		.loc 1 897 11 view .LVU567
 1819 0062 FFF7FEFF 		bl	a_mpu9250_write
 1820              	.LVL191:
 898:user/Src/driver_mpu9250.c ****     if (res != 0)                                                                                  
 1821              		.loc 1 898 5 is_stmt 1 view .LVU568
 1822              		.loc 1 898 8 is_stmt 0 view .LVU569
 1823 0066 08B1     		cbz	r0, .L152
 899:user/Src/driver_mpu9250.c ****     {
 900:user/Src/driver_mpu9250.c ****         return 1;                                                                                  
 1824              		.loc 1 900 16 view .LVU570
 1825 0068 0127     		movs	r7, #1
 1826 006a 67E1     		b	.L121
 1827              	.L152:
 901:user/Src/driver_mpu9250.c ****     }
 902:user/Src/driver_mpu9250.c ****     res = a_mpu9250_write(handle, MPU9250_REG_I2C_MST_CTRL, data, 1);                              
 1828              		.loc 1 902 5 is_stmt 1 view .LVU571
 1829              		.loc 1 902 11 is_stmt 0 view .LVU572
 1830 006c 0123     		movs	r3, #1
 1831 006e 05AA     		add	r2, sp, #20
 1832 0070 2421     		movs	r1, #36
 1833 0072 2046     		mov	r0, r4
 1834              	.LVL192:
 1835              		.loc 1 902 11 view .LVU573
 1836 0074 FFF7FEFF 		bl	a_mpu9250_write
 1837              	.LVL193:
 903:user/Src/driver_mpu9250.c ****     if (res != 0)                                                                                  
 1838              		.loc 1 903 5 is_stmt 1 view .LVU574
 1839              		.loc 1 903 8 is_stmt 0 view .LVU575
 1840 0078 08B1     		cbz	r0, .L153
ARM GAS  /var/folders/21/t9g5rlb91ys800n5npymflf80000gn/T//ccsu9bFS.s 			page 53


 904:user/Src/driver_mpu9250.c ****     {
 905:user/Src/driver_mpu9250.c ****         return 1;                                                                                  
 1841              		.loc 1 905 16 view .LVU576
 1842 007a 0127     		movs	r7, #1
 1843 007c 5EE1     		b	.L121
 1844              	.L153:
 906:user/Src/driver_mpu9250.c ****     }
 907:user/Src/driver_mpu9250.c ****     res = a_mpu9250_write(handle, MPU9250_REG_USER_CTRL, data, 1);                                 
 1845              		.loc 1 907 5 is_stmt 1 view .LVU577
 1846              		.loc 1 907 11 is_stmt 0 view .LVU578
 1847 007e 0123     		movs	r3, #1
 1848 0080 05AA     		add	r2, sp, #20
 1849 0082 6A21     		movs	r1, #106
 1850 0084 2046     		mov	r0, r4
 1851              	.LVL194:
 1852              		.loc 1 907 11 view .LVU579
 1853 0086 FFF7FEFF 		bl	a_mpu9250_write
 1854              	.LVL195:
 908:user/Src/driver_mpu9250.c ****     if (res != 0)                                                                                  
 1855              		.loc 1 908 5 is_stmt 1 view .LVU580
 1856              		.loc 1 908 8 is_stmt 0 view .LVU581
 1857 008a 08B1     		cbz	r0, .L154
 909:user/Src/driver_mpu9250.c ****     {
 910:user/Src/driver_mpu9250.c ****         return 1;                                                                                  
 1858              		.loc 1 910 16 view .LVU582
 1859 008c 0127     		movs	r7, #1
 1860 008e 55E1     		b	.L121
 1861              	.L154:
 911:user/Src/driver_mpu9250.c ****     }
 912:user/Src/driver_mpu9250.c ****     
 913:user/Src/driver_mpu9250.c ****     data[0] = 1 << 3 | 1 << 2;                                                                     
 1862              		.loc 1 913 5 is_stmt 1 view .LVU583
 1863              		.loc 1 913 13 is_stmt 0 view .LVU584
 1864 0090 0C23     		movs	r3, #12
 1865 0092 8DF81430 		strb	r3, [sp, #20]
 914:user/Src/driver_mpu9250.c ****     res = a_mpu9250_write(handle, MPU9250_REG_USER_CTRL, data, 1);                                 
 1866              		.loc 1 914 5 is_stmt 1 view .LVU585
 1867              		.loc 1 914 11 is_stmt 0 view .LVU586
 1868 0096 0123     		movs	r3, #1
 1869 0098 05AA     		add	r2, sp, #20
 1870 009a 6A21     		movs	r1, #106
 1871 009c 2046     		mov	r0, r4
 1872              	.LVL196:
 1873              		.loc 1 914 11 view .LVU587
 1874 009e FFF7FEFF 		bl	a_mpu9250_write
 1875              	.LVL197:
 915:user/Src/driver_mpu9250.c ****     if (res != 0)                                                                                  
 1876              		.loc 1 915 5 is_stmt 1 view .LVU588
 1877              		.loc 1 915 8 is_stmt 0 view .LVU589
 1878 00a2 0028     		cmp	r0, #0
 1879 00a4 40F04E81 		bne	.L140
 916:user/Src/driver_mpu9250.c ****     {
 917:user/Src/driver_mpu9250.c ****         return 1;                                                                                  
 918:user/Src/driver_mpu9250.c ****     }
 919:user/Src/driver_mpu9250.c ****     handle->delay_ms(15);                                                                          
 1880              		.loc 1 919 5 is_stmt 1 view .LVU590
 1881              		.loc 1 919 11 is_stmt 0 view .LVU591
ARM GAS  /var/folders/21/t9g5rlb91ys800n5npymflf80000gn/T//ccsu9bFS.s 			page 54


 1882 00a8 636A     		ldr	r3, [r4, #36]
 1883              		.loc 1 919 5 view .LVU592
 1884 00aa 0F20     		movs	r0, #15
 1885              	.LVL198:
 1886              		.loc 1 919 5 view .LVU593
 1887 00ac 9847     		blx	r3
 1888              	.LVL199:
 920:user/Src/driver_mpu9250.c ****     data[0] = 0x01;                                                                                
 1889              		.loc 1 920 5 is_stmt 1 view .LVU594
 1890              		.loc 1 920 13 is_stmt 0 view .LVU595
 1891 00ae 0123     		movs	r3, #1
 1892 00b0 8DF81430 		strb	r3, [sp, #20]
 921:user/Src/driver_mpu9250.c ****     res = a_mpu9250_write(handle, MPU9250_REG_CONFIG, data, 1);                                    
 1893              		.loc 1 921 5 is_stmt 1 view .LVU596
 1894              		.loc 1 921 11 is_stmt 0 view .LVU597
 1895 00b4 05AA     		add	r2, sp, #20
 1896 00b6 1A21     		movs	r1, #26
 1897 00b8 2046     		mov	r0, r4
 1898 00ba FFF7FEFF 		bl	a_mpu9250_write
 1899              	.LVL200:
 922:user/Src/driver_mpu9250.c ****     if (res != 0)                                                                                  
 1900              		.loc 1 922 5 is_stmt 1 view .LVU598
 1901              		.loc 1 922 8 is_stmt 0 view .LVU599
 1902 00be 08B1     		cbz	r0, .L155
 923:user/Src/driver_mpu9250.c ****     {
 924:user/Src/driver_mpu9250.c ****         return 1;                                                                                  
 1903              		.loc 1 924 16 view .LVU600
 1904 00c0 0127     		movs	r7, #1
 1905 00c2 3BE1     		b	.L121
 1906              	.L155:
 925:user/Src/driver_mpu9250.c ****     }
 926:user/Src/driver_mpu9250.c ****     data[0] = 0x00;                                                                                
 1907              		.loc 1 926 5 is_stmt 1 view .LVU601
 1908              		.loc 1 926 13 is_stmt 0 view .LVU602
 1909 00c4 0023     		movs	r3, #0
 1910 00c6 8DF81430 		strb	r3, [sp, #20]
 927:user/Src/driver_mpu9250.c ****     res = a_mpu9250_write(handle, MPU9250_REG_SMPRT_DIV, data, 1);                                 
 1911              		.loc 1 927 5 is_stmt 1 view .LVU603
 1912              		.loc 1 927 11 is_stmt 0 view .LVU604
 1913 00ca 0123     		movs	r3, #1
 1914 00cc 05AA     		add	r2, sp, #20
 1915 00ce 1921     		movs	r1, #25
 1916 00d0 2046     		mov	r0, r4
 1917              	.LVL201:
 1918              		.loc 1 927 11 view .LVU605
 1919 00d2 FFF7FEFF 		bl	a_mpu9250_write
 1920              	.LVL202:
 928:user/Src/driver_mpu9250.c ****     if (res != 0)                                                                                  
 1921              		.loc 1 928 5 is_stmt 1 view .LVU606
 1922              		.loc 1 928 8 is_stmt 0 view .LVU607
 1923 00d6 0028     		cmp	r0, #0
 1924 00d8 40F03681 		bne	.L142
 929:user/Src/driver_mpu9250.c ****     {
 930:user/Src/driver_mpu9250.c ****         return 1;                                                                                  
 931:user/Src/driver_mpu9250.c ****     }
 932:user/Src/driver_mpu9250.c ****     if (hw_test_enable != 0)                                                                       
 1925              		.loc 1 932 5 is_stmt 1 view .LVU608
ARM GAS  /var/folders/21/t9g5rlb91ys800n5npymflf80000gn/T//ccsu9bFS.s 			page 55


 1926              		.loc 1 932 8 is_stmt 0 view .LVU609
 1927 00dc 47B3     		cbz	r7, .L122
 933:user/Src/driver_mpu9250.c ****     {
 934:user/Src/driver_mpu9250.c ****         data[0] = 0x00 | 0xE0;                                                                     
 1928              		.loc 1 934 9 is_stmt 1 view .LVU610
 1929              		.loc 1 934 17 is_stmt 0 view .LVU611
 1930 00de E023     		movs	r3, #224
 1931 00e0 8DF81430 		strb	r3, [sp, #20]
 1932              	.L123:
 935:user/Src/driver_mpu9250.c ****     }
 936:user/Src/driver_mpu9250.c ****     else
 937:user/Src/driver_mpu9250.c ****     {
 938:user/Src/driver_mpu9250.c ****         data[0] = 0x00;                                                                            
 939:user/Src/driver_mpu9250.c ****     }
 940:user/Src/driver_mpu9250.c ****     res = a_mpu9250_write(handle, MPU9250_REG_GYRO_CONFIG, data, 1);                               
 1933              		.loc 1 940 5 is_stmt 1 view .LVU612
 1934              		.loc 1 940 11 is_stmt 0 view .LVU613
 1935 00e4 0123     		movs	r3, #1
 1936 00e6 05AA     		add	r2, sp, #20
 1937 00e8 1B21     		movs	r1, #27
 1938 00ea 2046     		mov	r0, r4
 1939              	.LVL203:
 1940              		.loc 1 940 11 view .LVU614
 1941 00ec FFF7FEFF 		bl	a_mpu9250_write
 1942              	.LVL204:
 941:user/Src/driver_mpu9250.c ****     if (res != 0)                                                                                  
 1943              		.loc 1 941 5 is_stmt 1 view .LVU615
 1944              		.loc 1 941 8 is_stmt 0 view .LVU616
 1945 00f0 0028     		cmp	r0, #0
 1946 00f2 40F02B81 		bne	.L143
 942:user/Src/driver_mpu9250.c ****     {
 943:user/Src/driver_mpu9250.c ****         return 1;                                                                                  
 944:user/Src/driver_mpu9250.c ****     }
 945:user/Src/driver_mpu9250.c ****     if (hw_test_enable != 0)                                                                       
 1947              		.loc 1 945 5 is_stmt 1 view .LVU617
 1948              		.loc 1 945 8 is_stmt 0 view .LVU618
 1949 00f6 FFB1     		cbz	r7, .L124
 946:user/Src/driver_mpu9250.c ****     {
 947:user/Src/driver_mpu9250.c ****         data[0] = 0x18 | 0xE0;                                                                     
 1950              		.loc 1 947 9 is_stmt 1 view .LVU619
 1951              		.loc 1 947 17 is_stmt 0 view .LVU620
 1952 00f8 F823     		movs	r3, #248
 1953 00fa 8DF81430 		strb	r3, [sp, #20]
 1954              	.L125:
 948:user/Src/driver_mpu9250.c ****     }
 949:user/Src/driver_mpu9250.c ****     else
 950:user/Src/driver_mpu9250.c ****     {
 951:user/Src/driver_mpu9250.c ****         data[0] = 0x18;                                                                            
 952:user/Src/driver_mpu9250.c ****     }
 953:user/Src/driver_mpu9250.c ****     res = a_mpu9250_write(handle, MPU9250_REG_ACCEL_CONFIG, data, 1);                              
 1955              		.loc 1 953 5 is_stmt 1 view .LVU621
 1956              		.loc 1 953 11 is_stmt 0 view .LVU622
 1957 00fe 0123     		movs	r3, #1
 1958 0100 05AA     		add	r2, sp, #20
 1959 0102 1C21     		movs	r1, #28
 1960 0104 2046     		mov	r0, r4
 1961              	.LVL205:
ARM GAS  /var/folders/21/t9g5rlb91ys800n5npymflf80000gn/T//ccsu9bFS.s 			page 56


 1962              		.loc 1 953 11 view .LVU623
 1963 0106 FFF7FEFF 		bl	a_mpu9250_write
 1964              	.LVL206:
 954:user/Src/driver_mpu9250.c ****     if (res != 0)                                                                                  
 1965              		.loc 1 954 5 is_stmt 1 view .LVU624
 1966              		.loc 1 954 8 is_stmt 0 view .LVU625
 1967 010a 0028     		cmp	r0, #0
 1968 010c 40F02081 		bne	.L144
 955:user/Src/driver_mpu9250.c ****     {
 956:user/Src/driver_mpu9250.c ****         return 1;                                                                                  
 957:user/Src/driver_mpu9250.c ****     }
 958:user/Src/driver_mpu9250.c ****     if (hw_test_enable != 0)                                                                       
 1969              		.loc 1 958 5 is_stmt 1 view .LVU626
 1970              		.loc 1 958 8 is_stmt 0 view .LVU627
 1971 0110 17B1     		cbz	r7, .L126
 959:user/Src/driver_mpu9250.c ****     {
 960:user/Src/driver_mpu9250.c ****         handle->delay_ms(200);                                                                     
 1972              		.loc 1 960 9 is_stmt 1 view .LVU628
 1973              		.loc 1 960 15 is_stmt 0 view .LVU629
 1974 0112 636A     		ldr	r3, [r4, #36]
 1975              		.loc 1 960 9 view .LVU630
 1976 0114 C820     		movs	r0, #200
 1977              	.LVL207:
 1978              		.loc 1 960 9 view .LVU631
 1979 0116 9847     		blx	r3
 1980              	.LVL208:
 1981              	.L126:
 961:user/Src/driver_mpu9250.c ****     }
 962:user/Src/driver_mpu9250.c ****     
 963:user/Src/driver_mpu9250.c ****     data[0] = 1 << 6;                                                                              
 1982              		.loc 1 963 5 is_stmt 1 view .LVU632
 1983              		.loc 1 963 13 is_stmt 0 view .LVU633
 1984 0118 4023     		movs	r3, #64
 1985 011a 8DF81430 		strb	r3, [sp, #20]
 964:user/Src/driver_mpu9250.c ****     res = a_mpu9250_write(handle, MPU9250_REG_USER_CTRL, data, 1);                                 
 1986              		.loc 1 964 5 is_stmt 1 view .LVU634
 1987              		.loc 1 964 11 is_stmt 0 view .LVU635
 1988 011e 0123     		movs	r3, #1
 1989 0120 05AA     		add	r2, sp, #20
 1990 0122 6A21     		movs	r1, #106
 1991 0124 2046     		mov	r0, r4
 1992 0126 FFF7FEFF 		bl	a_mpu9250_write
 1993              	.LVL209:
 965:user/Src/driver_mpu9250.c ****     if (res != 0)                                                                                  
 1994              		.loc 1 965 5 is_stmt 1 view .LVU636
 1995              		.loc 1 965 8 is_stmt 0 view .LVU637
 1996 012a 48B1     		cbz	r0, .L156
 966:user/Src/driver_mpu9250.c ****     {
 967:user/Src/driver_mpu9250.c ****         return 1;                                                                                  
 1997              		.loc 1 967 16 view .LVU638
 1998 012c 0127     		movs	r7, #1
 1999 012e 05E1     		b	.L121
 2000              	.L122:
 938:user/Src/driver_mpu9250.c ****     }
 2001              		.loc 1 938 9 is_stmt 1 view .LVU639
 938:user/Src/driver_mpu9250.c ****     }
 2002              		.loc 1 938 17 is_stmt 0 view .LVU640
ARM GAS  /var/folders/21/t9g5rlb91ys800n5npymflf80000gn/T//ccsu9bFS.s 			page 57


 2003 0130 0023     		movs	r3, #0
 2004 0132 8DF81430 		strb	r3, [sp, #20]
 2005 0136 D5E7     		b	.L123
 2006              	.L124:
 951:user/Src/driver_mpu9250.c ****     }
 2007              		.loc 1 951 9 is_stmt 1 view .LVU641
 951:user/Src/driver_mpu9250.c ****     }
 2008              		.loc 1 951 17 is_stmt 0 view .LVU642
 2009 0138 1823     		movs	r3, #24
 2010 013a 8DF81430 		strb	r3, [sp, #20]
 2011 013e DEE7     		b	.L125
 2012              	.L156:
 968:user/Src/driver_mpu9250.c ****     }
 969:user/Src/driver_mpu9250.c ****     data[0] = 0x78;                                                                                
 2013              		.loc 1 969 5 is_stmt 1 view .LVU643
 2014              		.loc 1 969 13 is_stmt 0 view .LVU644
 2015 0140 7823     		movs	r3, #120
 2016 0142 8DF81430 		strb	r3, [sp, #20]
 970:user/Src/driver_mpu9250.c ****     res = a_mpu9250_write(handle, MPU9250_REG_FIFO_EN, data, 1);                                   
 2017              		.loc 1 970 5 is_stmt 1 view .LVU645
 2018              		.loc 1 970 11 is_stmt 0 view .LVU646
 2019 0146 0123     		movs	r3, #1
 2020 0148 05AA     		add	r2, sp, #20
 2021 014a 2321     		movs	r1, #35
 2022 014c 2046     		mov	r0, r4
 2023              	.LVL210:
 2024              		.loc 1 970 11 view .LVU647
 2025 014e FFF7FEFF 		bl	a_mpu9250_write
 2026              	.LVL211:
 971:user/Src/driver_mpu9250.c ****     if (res != 0)                                                                                  
 2027              		.loc 1 971 5 is_stmt 1 view .LVU648
 2028              		.loc 1 971 8 is_stmt 0 view .LVU649
 2029 0152 0028     		cmp	r0, #0
 2030 0154 40F0FE80 		bne	.L146
 972:user/Src/driver_mpu9250.c ****     {
 973:user/Src/driver_mpu9250.c ****         return 1;                                                                                  
 974:user/Src/driver_mpu9250.c ****     }
 975:user/Src/driver_mpu9250.c ****     handle->delay_ms(50);                                                                          
 2031              		.loc 1 975 5 is_stmt 1 view .LVU650
 2032              		.loc 1 975 11 is_stmt 0 view .LVU651
 2033 0158 636A     		ldr	r3, [r4, #36]
 2034              		.loc 1 975 5 view .LVU652
 2035 015a 3220     		movs	r0, #50
 2036              	.LVL212:
 2037              		.loc 1 975 5 view .LVU653
 2038 015c 9847     		blx	r3
 2039              	.LVL213:
 976:user/Src/driver_mpu9250.c ****     data[0] = 0x00;                                                                                
 2040              		.loc 1 976 5 is_stmt 1 view .LVU654
 2041              		.loc 1 976 13 is_stmt 0 view .LVU655
 2042 015e 0023     		movs	r3, #0
 2043 0160 8DF81430 		strb	r3, [sp, #20]
 977:user/Src/driver_mpu9250.c ****     res = a_mpu9250_write(handle, MPU9250_REG_FIFO_EN, data, 1);                                   
 2044              		.loc 1 977 5 is_stmt 1 view .LVU656
 2045              		.loc 1 977 11 is_stmt 0 view .LVU657
 2046 0164 0123     		movs	r3, #1
 2047 0166 05AA     		add	r2, sp, #20
ARM GAS  /var/folders/21/t9g5rlb91ys800n5npymflf80000gn/T//ccsu9bFS.s 			page 58


 2048 0168 2321     		movs	r1, #35
 2049 016a 2046     		mov	r0, r4
 2050 016c FFF7FEFF 		bl	a_mpu9250_write
 2051              	.LVL214:
 978:user/Src/driver_mpu9250.c ****     if (res != 0)                                                                                  
 2052              		.loc 1 978 5 is_stmt 1 view .LVU658
 2053              		.loc 1 978 8 is_stmt 0 view .LVU659
 2054 0170 08B1     		cbz	r0, .L157
 979:user/Src/driver_mpu9250.c ****     {
 980:user/Src/driver_mpu9250.c ****         return 1;                                                                                  
 2055              		.loc 1 980 16 view .LVU660
 2056 0172 0127     		movs	r7, #1
 2057 0174 E2E0     		b	.L121
 2058              	.L157:
 981:user/Src/driver_mpu9250.c ****     }
 982:user/Src/driver_mpu9250.c ****     
 983:user/Src/driver_mpu9250.c ****     res = a_mpu9250_read(handle, MPU9250_REG_FIFO_COUNTH, data, 2);                                
 2059              		.loc 1 983 5 is_stmt 1 view .LVU661
 2060              		.loc 1 983 11 is_stmt 0 view .LVU662
 2061 0176 0223     		movs	r3, #2
 2062 0178 05AA     		add	r2, sp, #20
 2063 017a 7221     		movs	r1, #114
 2064 017c 2046     		mov	r0, r4
 2065              	.LVL215:
 2066              		.loc 1 983 11 view .LVU663
 2067 017e FFF7FEFF 		bl	a_mpu9250_read
 2068              	.LVL216:
 984:user/Src/driver_mpu9250.c ****     if (res != 0)                                                                                  
 2069              		.loc 1 984 5 is_stmt 1 view .LVU664
 2070              		.loc 1 984 8 is_stmt 0 view .LVU665
 2071 0182 0746     		mov	r7, r0
 2072 0184 0028     		cmp	r0, #0
 2073 0186 40F0E780 		bne	.L148
 985:user/Src/driver_mpu9250.c ****     {
 986:user/Src/driver_mpu9250.c ****         return 1;                                                                                  
 987:user/Src/driver_mpu9250.c ****     }
 988:user/Src/driver_mpu9250.c ****     cnt = ((uint16_t)data[0] << 8) | data[1];                                                      
 2074              		.loc 1 988 5 is_stmt 1 view .LVU666
 2075              		.loc 1 988 26 is_stmt 0 view .LVU667
 2076 018a 9DF81430 		ldrb	r3, [sp, #20]	@ zero_extendqisi2
 2077              		.loc 1 988 42 view .LVU668
 2078 018e 9DF81580 		ldrb	r8, [sp, #21]	@ zero_extendqisi2
 2079              		.loc 1 988 9 view .LVU669
 2080 0192 48EA0328 		orr	r8, r8, r3, lsl #8
 2081              	.LVL217:
 989:user/Src/driver_mpu9250.c ****     pack_cnt = cnt / 12;                                                                           
 2082              		.loc 1 989 5 is_stmt 1 view .LVU670
 2083              		.loc 1 989 14 is_stmt 0 view .LVU671
 2084 0196 0C23     		movs	r3, #12
 2085 0198 B8FBF3F8 		udiv	r8, r8, r3
 2086              	.LVL218:
 990:user/Src/driver_mpu9250.c ****     
 991:user/Src/driver_mpu9250.c ****     gyro_offset[0] = 0;                                                                            
 2087              		.loc 1 991 5 is_stmt 1 view .LVU672
 2088              		.loc 1 991 20 is_stmt 0 view .LVU673
 2089 019c 0023     		movs	r3, #0
 2090 019e 3360     		str	r3, [r6]
ARM GAS  /var/folders/21/t9g5rlb91ys800n5npymflf80000gn/T//ccsu9bFS.s 			page 59


 2091              	.LVL219:
 992:user/Src/driver_mpu9250.c ****     gyro_offset[1] = 0;                                                                            
 2092              		.loc 1 992 5 is_stmt 1 view .LVU674
 2093              		.loc 1 992 20 is_stmt 0 view .LVU675
 2094 01a0 7360     		str	r3, [r6, #4]
 993:user/Src/driver_mpu9250.c ****     gyro_offset[2] = 0;                                                                            
 2095              		.loc 1 993 5 is_stmt 1 view .LVU676
 2096              		.loc 1 993 20 is_stmt 0 view .LVU677
 2097 01a2 B360     		str	r3, [r6, #8]
 994:user/Src/driver_mpu9250.c ****     accel_offset[0] = 0;                                                                           
 2098              		.loc 1 994 5 is_stmt 1 view .LVU678
 2099              		.loc 1 994 21 is_stmt 0 view .LVU679
 2100 01a4 2B60     		str	r3, [r5]
 995:user/Src/driver_mpu9250.c ****     accel_offset[1] = 0;                                                                           
 2101              		.loc 1 995 5 is_stmt 1 view .LVU680
 2102              		.loc 1 995 21 is_stmt 0 view .LVU681
 2103 01a6 6B60     		str	r3, [r5, #4]
 996:user/Src/driver_mpu9250.c ****     accel_offset[2] = 0;                                                                           
 2104              		.loc 1 996 5 is_stmt 1 view .LVU682
 2105              		.loc 1 996 21 is_stmt 0 view .LVU683
 2106 01a8 AB60     		str	r3, [r5, #8]
 997:user/Src/driver_mpu9250.c ****     for (i = 0; i < pack_cnt; i++)                                                                 
 2107              		.loc 1 997 5 is_stmt 1 view .LVU684
 2108              	.LVL220:
 2109              		.loc 1 997 12 is_stmt 0 view .LVU685
 2110 01aa 9946     		mov	r9, r3
 2111              	.LVL221:
 2112              	.L127:
 2113              		.loc 1 997 19 is_stmt 1 discriminator 1 view .LVU686
 2114 01ac C145     		cmp	r9, r8
 2115 01ae 56D2     		bcs	.L158
 2116              	.LBB3:
 998:user/Src/driver_mpu9250.c ****     {
 999:user/Src/driver_mpu9250.c ****         int16_t accel_cur[3];
 2117              		.loc 1 999 9 view .LVU687
1000:user/Src/driver_mpu9250.c ****         int16_t gyro_cur[3];
 2118              		.loc 1 1000 9 view .LVU688
1001:user/Src/driver_mpu9250.c ****         
1002:user/Src/driver_mpu9250.c ****         res = a_mpu9250_read(handle, MPU9250_REG_R_W, data, 12);                                   
 2119              		.loc 1 1002 9 view .LVU689
 2120              		.loc 1 1002 15 is_stmt 0 view .LVU690
 2121 01b0 0C23     		movs	r3, #12
 2122 01b2 05AA     		add	r2, sp, #20
 2123 01b4 7421     		movs	r1, #116
 2124 01b6 2046     		mov	r0, r4
 2125 01b8 FFF7FEFF 		bl	a_mpu9250_read
 2126              	.LVL222:
1003:user/Src/driver_mpu9250.c ****         if (res != 0)                                                                              
 2127              		.loc 1 1003 9 is_stmt 1 view .LVU691
 2128              		.loc 1 1003 12 is_stmt 0 view .LVU692
 2129 01bc 0028     		cmp	r0, #0
 2130 01be 4CD1     		bne	.L159
1004:user/Src/driver_mpu9250.c ****         {
1005:user/Src/driver_mpu9250.c ****             return 1;                                                                              
1006:user/Src/driver_mpu9250.c ****         }
1007:user/Src/driver_mpu9250.c ****         
1008:user/Src/driver_mpu9250.c ****         accel_cur[0] = ((int16_t)data[0] << 8) | data[1];                                          
ARM GAS  /var/folders/21/t9g5rlb91ys800n5npymflf80000gn/T//ccsu9bFS.s 			page 60


 2131              		.loc 1 1008 9 is_stmt 1 view .LVU693
 2132              		.loc 1 1008 38 is_stmt 0 view .LVU694
 2133 01c0 9DF81430 		ldrb	r3, [sp, #20]	@ zero_extendqisi2
 2134              		.loc 1 1008 54 view .LVU695
 2135 01c4 9DF81500 		ldrb	r0, [sp, #21]	@ zero_extendqisi2
 2136              	.LVL223:
 2137              		.loc 1 1008 48 view .LVU696
 2138 01c8 40EA0320 		orr	r0, r0, r3, lsl #8
 2139 01cc 00B2     		sxth	r0, r0
 2140              		.loc 1 1008 22 view .LVU697
 2141 01ce ADF80400 		strh	r0, [sp, #4]	@ movhi
1009:user/Src/driver_mpu9250.c ****         accel_cur[1] = ((int16_t)data[2] << 8) | data[3];                                          
 2142              		.loc 1 1009 9 is_stmt 1 view .LVU698
 2143              		.loc 1 1009 38 is_stmt 0 view .LVU699
 2144 01d2 9DF81630 		ldrb	r3, [sp, #22]	@ zero_extendqisi2
 2145              		.loc 1 1009 54 view .LVU700
 2146 01d6 9DF81720 		ldrb	r2, [sp, #23]	@ zero_extendqisi2
 2147              		.loc 1 1009 48 view .LVU701
 2148 01da 42EA0322 		orr	r2, r2, r3, lsl #8
 2149 01de 12B2     		sxth	r2, r2
 2150              		.loc 1 1009 22 view .LVU702
 2151 01e0 ADF80620 		strh	r2, [sp, #6]	@ movhi
1010:user/Src/driver_mpu9250.c ****         accel_cur[2] = ((int16_t)data[4] << 8) | data[5];                                          
 2152              		.loc 1 1010 9 is_stmt 1 view .LVU703
 2153              		.loc 1 1010 38 is_stmt 0 view .LVU704
 2154 01e4 9DF81810 		ldrb	r1, [sp, #24]	@ zero_extendqisi2
 2155              		.loc 1 1010 54 view .LVU705
 2156 01e8 9DF81930 		ldrb	r3, [sp, #25]	@ zero_extendqisi2
 2157              		.loc 1 1010 48 view .LVU706
 2158 01ec 43EA0123 		orr	r3, r3, r1, lsl #8
 2159 01f0 1BB2     		sxth	r3, r3
 2160              		.loc 1 1010 22 view .LVU707
 2161 01f2 ADF80830 		strh	r3, [sp, #8]	@ movhi
1011:user/Src/driver_mpu9250.c ****         accel_offset[0] += (int32_t)accel_cur[0];                                                  
 2162              		.loc 1 1011 9 is_stmt 1 view .LVU708
 2163              		.loc 1 1011 21 is_stmt 0 view .LVU709
 2164 01f6 2968     		ldr	r1, [r5]
 2165              		.loc 1 1011 25 view .LVU710
 2166 01f8 0144     		add	r1, r1, r0
 2167 01fa 2960     		str	r1, [r5]
1012:user/Src/driver_mpu9250.c ****         accel_offset[1] += (int32_t)accel_cur[1];                                                  
 2168              		.loc 1 1012 9 is_stmt 1 view .LVU711
 2169              		.loc 1 1012 21 is_stmt 0 view .LVU712
 2170 01fc 6968     		ldr	r1, [r5, #4]
 2171              		.loc 1 1012 25 view .LVU713
 2172 01fe 1144     		add	r1, r1, r2
 2173 0200 6960     		str	r1, [r5, #4]
1013:user/Src/driver_mpu9250.c ****         accel_offset[2] += (int32_t)accel_cur[2];                                                  
 2174              		.loc 1 1013 9 is_stmt 1 view .LVU714
 2175              		.loc 1 1013 21 is_stmt 0 view .LVU715
 2176 0202 AA68     		ldr	r2, [r5, #8]
 2177              		.loc 1 1013 25 view .LVU716
 2178 0204 1A44     		add	r2, r2, r3
 2179 0206 AA60     		str	r2, [r5, #8]
1014:user/Src/driver_mpu9250.c ****         gyro_cur[0] = (((int16_t)data[6] << 8) | data[7]);                                         
 2180              		.loc 1 1014 9 is_stmt 1 view .LVU717
 2181              		.loc 1 1014 38 is_stmt 0 view .LVU718
ARM GAS  /var/folders/21/t9g5rlb91ys800n5npymflf80000gn/T//ccsu9bFS.s 			page 61


 2182 0208 9DF81A30 		ldrb	r3, [sp, #26]	@ zero_extendqisi2
 2183              		.loc 1 1014 54 view .LVU719
 2184 020c 9DF81B00 		ldrb	r0, [sp, #27]	@ zero_extendqisi2
 2185              		.loc 1 1014 48 view .LVU720
 2186 0210 40EA0320 		orr	r0, r0, r3, lsl #8
 2187 0214 00B2     		sxth	r0, r0
 2188              		.loc 1 1014 21 view .LVU721
 2189 0216 ADF80C00 		strh	r0, [sp, #12]	@ movhi
1015:user/Src/driver_mpu9250.c ****         gyro_cur[1] = (((int16_t)data[8] << 8) | data[9]);                                         
 2190              		.loc 1 1015 9 is_stmt 1 view .LVU722
 2191              		.loc 1 1015 38 is_stmt 0 view .LVU723
 2192 021a 9DF81C30 		ldrb	r3, [sp, #28]	@ zero_extendqisi2
 2193              		.loc 1 1015 54 view .LVU724
 2194 021e 9DF81D20 		ldrb	r2, [sp, #29]	@ zero_extendqisi2
 2195              		.loc 1 1015 48 view .LVU725
 2196 0222 42EA0322 		orr	r2, r2, r3, lsl #8
 2197 0226 12B2     		sxth	r2, r2
 2198              		.loc 1 1015 21 view .LVU726
 2199 0228 ADF80E20 		strh	r2, [sp, #14]	@ movhi
1016:user/Src/driver_mpu9250.c ****         gyro_cur[2] = (((int16_t)data[10] << 8) | data[11]);                                       
 2200              		.loc 1 1016 9 is_stmt 1 view .LVU727
 2201              		.loc 1 1016 38 is_stmt 0 view .LVU728
 2202 022c 9DF81E10 		ldrb	r1, [sp, #30]	@ zero_extendqisi2
 2203              		.loc 1 1016 55 view .LVU729
 2204 0230 9DF81F30 		ldrb	r3, [sp, #31]	@ zero_extendqisi2
 2205              		.loc 1 1016 49 view .LVU730
 2206 0234 43EA0123 		orr	r3, r3, r1, lsl #8
 2207 0238 1BB2     		sxth	r3, r3
 2208              		.loc 1 1016 21 view .LVU731
 2209 023a ADF81030 		strh	r3, [sp, #16]	@ movhi
1017:user/Src/driver_mpu9250.c ****         gyro_offset[0] += (int32_t)gyro_cur[0];                                                    
 2210              		.loc 1 1017 9 is_stmt 1 view .LVU732
 2211              		.loc 1 1017 20 is_stmt 0 view .LVU733
 2212 023e 3168     		ldr	r1, [r6]
 2213              		.loc 1 1017 24 view .LVU734
 2214 0240 0144     		add	r1, r1, r0
 2215 0242 3160     		str	r1, [r6]
1018:user/Src/driver_mpu9250.c ****         gyro_offset[1] += (int32_t)gyro_cur[1];                                                    
 2216              		.loc 1 1018 9 is_stmt 1 view .LVU735
 2217              		.loc 1 1018 20 is_stmt 0 view .LVU736
 2218 0244 7168     		ldr	r1, [r6, #4]
 2219              		.loc 1 1018 24 view .LVU737
 2220 0246 1144     		add	r1, r1, r2
 2221 0248 7160     		str	r1, [r6, #4]
1019:user/Src/driver_mpu9250.c ****         gyro_offset[2] += (int32_t)gyro_cur[2];                                                    
 2222              		.loc 1 1019 9 is_stmt 1 view .LVU738
 2223              		.loc 1 1019 20 is_stmt 0 view .LVU739
 2224 024a B268     		ldr	r2, [r6, #8]
 2225              		.loc 1 1019 24 view .LVU740
 2226 024c 1A44     		add	r2, r2, r3
 2227 024e B260     		str	r2, [r6, #8]
 2228              	.LBE3:
 997:user/Src/driver_mpu9250.c ****     {
 2229              		.loc 1 997 32 is_stmt 1 view .LVU741
 2230 0250 09F10103 		add	r3, r9, #1
 2231 0254 1FFA83F9 		uxth	r9, r3
 2232              	.LVL224:
ARM GAS  /var/folders/21/t9g5rlb91ys800n5npymflf80000gn/T//ccsu9bFS.s 			page 62


 997:user/Src/driver_mpu9250.c ****     {
 2233              		.loc 1 997 32 is_stmt 0 view .LVU742
 2234 0258 A8E7     		b	.L127
 2235              	.LVL225:
 2236              	.L159:
 2237              	.LBB4:
1005:user/Src/driver_mpu9250.c ****         }
 2238              		.loc 1 1005 13 is_stmt 1 view .LVU743
1005:user/Src/driver_mpu9250.c ****         }
 2239              		.loc 1 1005 20 is_stmt 0 view .LVU744
 2240 025a 0127     		movs	r7, #1
 2241 025c 6EE0     		b	.L121
 2242              	.LVL226:
 2243              	.L158:
1005:user/Src/driver_mpu9250.c ****         }
 2244              		.loc 1 1005 20 view .LVU745
 2245              	.LBE4:
1020:user/Src/driver_mpu9250.c ****     }
1021:user/Src/driver_mpu9250.c ****     
1022:user/Src/driver_mpu9250.c ****     gyro_offset[0] = (int32_t)(((int64_t)gyro_offset[0] << 16) / (32768 / 250) / pack_cnt);        
 2246              		.loc 1 1022 5 is_stmt 1 view .LVU746
 2247              		.loc 1 1022 53 is_stmt 0 view .LVU747
 2248 025e 3168     		ldr	r1, [r6]
 2249              		.loc 1 1022 64 view .LVU748
 2250 0260 8322     		movs	r2, #131
 2251 0262 0023     		movs	r3, #0
 2252 0264 0804     		lsls	r0, r1, #16
 2253 0266 0914     		asrs	r1, r1, #16
 2254 0268 FFF7FEFF 		bl	__aeabi_ldivmod
 2255              	.LVL227:
 2256              		.loc 1 1022 80 view .LVU749
 2257 026c 0024     		movs	r4, #0
 2258              	.LVL228:
 2259              		.loc 1 1022 80 view .LVU750
 2260 026e 4246     		mov	r2, r8
 2261 0270 2346     		mov	r3, r4
 2262 0272 FFF7FEFF 		bl	__aeabi_ldivmod
 2263              	.LVL229:
 2264              		.loc 1 1022 20 view .LVU751
 2265 0276 3060     		str	r0, [r6]
1023:user/Src/driver_mpu9250.c ****     gyro_offset[1] = (int32_t)(((int64_t)gyro_offset[1] << 16) / (32768 / 250) / pack_cnt);        
 2266              		.loc 1 1023 5 is_stmt 1 view .LVU752
 2267              		.loc 1 1023 53 is_stmt 0 view .LVU753
 2268 0278 7168     		ldr	r1, [r6, #4]
 2269              		.loc 1 1023 64 view .LVU754
 2270 027a 8322     		movs	r2, #131
 2271 027c 0023     		movs	r3, #0
 2272 027e 0804     		lsls	r0, r1, #16
 2273 0280 0914     		asrs	r1, r1, #16
 2274 0282 FFF7FEFF 		bl	__aeabi_ldivmod
 2275              	.LVL230:
 2276              		.loc 1 1023 80 view .LVU755
 2277 0286 4246     		mov	r2, r8
 2278 0288 2346     		mov	r3, r4
 2279 028a FFF7FEFF 		bl	__aeabi_ldivmod
 2280              	.LVL231:
 2281              		.loc 1 1023 20 view .LVU756
ARM GAS  /var/folders/21/t9g5rlb91ys800n5npymflf80000gn/T//ccsu9bFS.s 			page 63


 2282 028e 7060     		str	r0, [r6, #4]
1024:user/Src/driver_mpu9250.c ****     gyro_offset[2] = (int32_t)(((int64_t)gyro_offset[2] << 16) / (32768 / 250) / pack_cnt);        
 2283              		.loc 1 1024 5 is_stmt 1 view .LVU757
 2284              		.loc 1 1024 53 is_stmt 0 view .LVU758
 2285 0290 B168     		ldr	r1, [r6, #8]
 2286              		.loc 1 1024 64 view .LVU759
 2287 0292 8322     		movs	r2, #131
 2288 0294 0023     		movs	r3, #0
 2289 0296 0804     		lsls	r0, r1, #16
 2290 0298 0914     		asrs	r1, r1, #16
 2291 029a FFF7FEFF 		bl	__aeabi_ldivmod
 2292              	.LVL232:
 2293              		.loc 1 1024 80 view .LVU760
 2294 029e 4246     		mov	r2, r8
 2295 02a0 2346     		mov	r3, r4
 2296 02a2 FFF7FEFF 		bl	__aeabi_ldivmod
 2297              	.LVL233:
 2298              		.loc 1 1024 20 view .LVU761
 2299 02a6 B060     		str	r0, [r6, #8]
1025:user/Src/driver_mpu9250.c ****     accel_offset[0] = (int32_t)(((int64_t)accel_offset[0] << 16) / (32768 / 16) / pack_cnt);       
 2300              		.loc 1 1025 5 is_stmt 1 view .LVU762
 2301              		.loc 1 1025 55 is_stmt 0 view .LVU763
 2302 02a8 2B68     		ldr	r3, [r5]
 2303              		.loc 1 1025 59 view .LVU764
 2304 02aa 1A14     		asrs	r2, r3, #16
 2305 02ac 1B04     		lsls	r3, r3, #16
 2306              		.loc 1 1025 66 view .LVU765
 2307 02ae 1146     		mov	r1, r2
 2308 02b0 A242     		cmp	r2, r4
 2309 02b2 2CDB     		blt	.L160
 2310              	.L130:
 2311 02b4 D80A     		lsrs	r0, r3, #11
 2312              		.loc 1 1025 81 view .LVU766
 2313 02b6 4246     		mov	r2, r8
 2314 02b8 2346     		mov	r3, r4
 2315 02ba 40EA4150 		orr	r0, r0, r1, lsl #21
 2316 02be C912     		asrs	r1, r1, #11
 2317 02c0 FFF7FEFF 		bl	__aeabi_ldivmod
 2318              	.LVL234:
 2319              		.loc 1 1025 21 view .LVU767
 2320 02c4 2860     		str	r0, [r5]
1026:user/Src/driver_mpu9250.c ****     accel_offset[1] = (int32_t)(((int64_t)accel_offset[1] << 16) / (32768 / 16) / pack_cnt);       
 2321              		.loc 1 1026 5 is_stmt 1 view .LVU768
 2322              		.loc 1 1026 55 is_stmt 0 view .LVU769
 2323 02c6 6B68     		ldr	r3, [r5, #4]
 2324              		.loc 1 1026 59 view .LVU770
 2325 02c8 1A14     		asrs	r2, r3, #16
 2326 02ca 1B04     		lsls	r3, r3, #16
 2327              		.loc 1 1026 66 view .LVU771
 2328 02cc 1146     		mov	r1, r2
 2329 02ce 002A     		cmp	r2, #0
 2330 02d0 23DB     		blt	.L161
 2331              	.L131:
 2332 02d2 D80A     		lsrs	r0, r3, #11
 2333              		.loc 1 1026 81 view .LVU772
 2334 02d4 4246     		mov	r2, r8
 2335 02d6 2346     		mov	r3, r4
ARM GAS  /var/folders/21/t9g5rlb91ys800n5npymflf80000gn/T//ccsu9bFS.s 			page 64


 2336 02d8 40EA4150 		orr	r0, r0, r1, lsl #21
 2337 02dc C912     		asrs	r1, r1, #11
 2338 02de FFF7FEFF 		bl	__aeabi_ldivmod
 2339              	.LVL235:
 2340              		.loc 1 1026 21 view .LVU773
 2341 02e2 6860     		str	r0, [r5, #4]
1027:user/Src/driver_mpu9250.c ****     accel_offset[2] = (int32_t)(((int64_t)accel_offset[2] << 16) / (32768 / 16) / pack_cnt);       
 2342              		.loc 1 1027 5 is_stmt 1 view .LVU774
 2343              		.loc 1 1027 55 is_stmt 0 view .LVU775
 2344 02e4 AB68     		ldr	r3, [r5, #8]
 2345              		.loc 1 1027 59 view .LVU776
 2346 02e6 1A14     		asrs	r2, r3, #16
 2347 02e8 1B04     		lsls	r3, r3, #16
 2348              		.loc 1 1027 66 view .LVU777
 2349 02ea 1146     		mov	r1, r2
 2350 02ec 002A     		cmp	r2, #0
 2351 02ee 1ADB     		blt	.L162
 2352              	.L132:
 2353 02f0 D80A     		lsrs	r0, r3, #11
 2354              		.loc 1 1027 81 view .LVU778
 2355 02f2 4246     		mov	r2, r8
 2356 02f4 2346     		mov	r3, r4
 2357 02f6 40EA4150 		orr	r0, r0, r1, lsl #21
 2358 02fa C912     		asrs	r1, r1, #11
 2359 02fc FFF7FEFF 		bl	__aeabi_ldivmod
 2360              	.LVL236:
 2361              		.loc 1 1027 21 view .LVU779
 2362 0300 A860     		str	r0, [r5, #8]
1028:user/Src/driver_mpu9250.c ****     if (accel_offset[2] > 0L)                                                                      
 2363              		.loc 1 1028 5 is_stmt 1 view .LVU780
 2364              		.loc 1 1028 8 is_stmt 0 view .LVU781
 2365 0302 0028     		cmp	r0, #0
 2366 0304 15DD     		ble	.L133
1029:user/Src/driver_mpu9250.c ****     {
1030:user/Src/driver_mpu9250.c ****         accel_offset[2] -= 65536L;                                                                 
 2367              		.loc 1 1030 9 is_stmt 1 view .LVU782
 2368              		.loc 1 1030 25 is_stmt 0 view .LVU783
 2369 0306 A0F58033 		sub	r3, r0, #65536
 2370 030a AB60     		str	r3, [r5, #8]
 2371 030c 16E0     		b	.L121
 2372              	.L160:
1025:user/Src/driver_mpu9250.c ****     accel_offset[1] = (int32_t)(((int64_t)accel_offset[1] << 16) / (32768 / 16) / pack_cnt);       
 2373              		.loc 1 1025 66 view .LVU784
 2374 030e 40F2FF71 		movw	r1, #2047
 2375 0312 5B18     		adds	r3, r3, r1
 2376 0314 42F10001 		adc	r1, r2, #0
 2377 0318 CCE7     		b	.L130
 2378              	.L161:
1026:user/Src/driver_mpu9250.c ****     accel_offset[2] = (int32_t)(((int64_t)accel_offset[2] << 16) / (32768 / 16) / pack_cnt);       
 2379              		.loc 1 1026 66 view .LVU785
 2380 031a 40F2FF71 		movw	r1, #2047
 2381 031e 5B18     		adds	r3, r3, r1
 2382 0320 42F10001 		adc	r1, r2, #0
 2383 0324 D5E7     		b	.L131
 2384              	.L162:
1027:user/Src/driver_mpu9250.c ****     if (accel_offset[2] > 0L)                                                                      
 2385              		.loc 1 1027 66 view .LVU786
ARM GAS  /var/folders/21/t9g5rlb91ys800n5npymflf80000gn/T//ccsu9bFS.s 			page 65


 2386 0326 40F2FF71 		movw	r1, #2047
 2387 032a 5B18     		adds	r3, r3, r1
 2388 032c 42F10001 		adc	r1, r2, #0
 2389 0330 DEE7     		b	.L132
 2390              	.L133:
1031:user/Src/driver_mpu9250.c ****     }
1032:user/Src/driver_mpu9250.c ****     else
1033:user/Src/driver_mpu9250.c ****     {
1034:user/Src/driver_mpu9250.c ****         accel_offset[2] += 65536L;                                                                 
 2391              		.loc 1 1034 9 is_stmt 1 view .LVU787
 2392              		.loc 1 1034 25 is_stmt 0 view .LVU788
 2393 0332 00F58033 		add	r3, r0, #65536
 2394 0336 AB60     		str	r3, [r5, #8]
 2395 0338 00E0     		b	.L121
 2396              	.LVL237:
 2397              	.L134:
 883:user/Src/driver_mpu9250.c ****     }
 2398              		.loc 1 883 16 view .LVU789
 2399 033a 0127     		movs	r7, #1
 2400              	.LVL238:
 2401              	.L121:
1035:user/Src/driver_mpu9250.c ****     }
1036:user/Src/driver_mpu9250.c ****     
1037:user/Src/driver_mpu9250.c ****     return 0;                                                                                      
1038:user/Src/driver_mpu9250.c **** }
 2402              		.loc 1 1038 1 view .LVU790
 2403 033c 3846     		mov	r0, r7
 2404 033e 09B0     		add	sp, sp, #36
 2405              	.LCFI29:
 2406              		.cfi_remember_state
 2407              		.cfi_def_cfa_offset 28
 2408              		@ sp needed
 2409 0340 BDE8F083 		pop	{r4, r5, r6, r7, r8, r9, pc}
 2410              	.LVL239:
 2411              	.L140:
 2412              	.LCFI30:
 2413              		.cfi_restore_state
 917:user/Src/driver_mpu9250.c ****     }
 2414              		.loc 1 917 16 view .LVU791
 2415 0344 0127     		movs	r7, #1
 2416 0346 F9E7     		b	.L121
 2417              	.L142:
 930:user/Src/driver_mpu9250.c ****     }
 2418              		.loc 1 930 16 view .LVU792
 2419 0348 0127     		movs	r7, #1
 2420 034a F7E7     		b	.L121
 2421              	.L143:
 943:user/Src/driver_mpu9250.c ****     }
 2422              		.loc 1 943 16 view .LVU793
 2423 034c 0127     		movs	r7, #1
 2424 034e F5E7     		b	.L121
 2425              	.L144:
 956:user/Src/driver_mpu9250.c ****     }
 2426              		.loc 1 956 16 view .LVU794
 2427 0350 0127     		movs	r7, #1
 2428 0352 F3E7     		b	.L121
 2429              	.L146:
ARM GAS  /var/folders/21/t9g5rlb91ys800n5npymflf80000gn/T//ccsu9bFS.s 			page 66


 973:user/Src/driver_mpu9250.c ****     }
 2430              		.loc 1 973 16 view .LVU795
 2431 0354 0127     		movs	r7, #1
 2432 0356 F1E7     		b	.L121
 2433              	.L148:
 986:user/Src/driver_mpu9250.c ****     }
 2434              		.loc 1 986 16 view .LVU796
 2435 0358 0127     		movs	r7, #1
 2436 035a EFE7     		b	.L121
 2437              		.cfi_endproc
 2438              	.LFE32:
 2440              		.section	.text.a_mpu9250_deinit,"ax",%progbits
 2441              		.align	1
 2442              		.syntax unified
 2443              		.thumb
 2444              		.thumb_func
 2446              	a_mpu9250_deinit:
 2447              	.LVL240:
 2448              	.LFB33:
1039:user/Src/driver_mpu9250.c **** 
1040:user/Src/driver_mpu9250.c **** /**
1041:user/Src/driver_mpu9250.c ****  * @brief     bus deinit
1042:user/Src/driver_mpu9250.c ****  * @param[in] *handle points to an mpu9250 handle structure
1043:user/Src/driver_mpu9250.c ****  * @return    status code
1044:user/Src/driver_mpu9250.c ****  *            - 0 success
1045:user/Src/driver_mpu9250.c ****  *            - 1 deinit failed
1046:user/Src/driver_mpu9250.c ****  * @note      none
1047:user/Src/driver_mpu9250.c ****  */
1048:user/Src/driver_mpu9250.c **** static uint8_t a_mpu9250_deinit(mpu9250_handle_t *handle)
1049:user/Src/driver_mpu9250.c **** {
 2449              		.loc 1 1049 1 is_stmt 1 view -0
 2450              		.cfi_startproc
 2451              		@ args = 0, pretend = 0, frame = 0
 2452              		@ frame_needed = 0, uses_anonymous_args = 0
 2453              		.loc 1 1049 1 is_stmt 0 view .LVU798
 2454 0000 08B5     		push	{r3, lr}
 2455              	.LCFI31:
 2456              		.cfi_def_cfa_offset 8
 2457              		.cfi_offset 3, -8
 2458              		.cfi_offset 14, -4
1050:user/Src/driver_mpu9250.c ****     if (handle->iic_spi == MPU9250_INTERFACE_IIC)        /* if iic interface */
 2459              		.loc 1 1050 5 is_stmt 1 view .LVU799
 2460              		.loc 1 1050 15 is_stmt 0 view .LVU800
 2461 0002 90F83D30 		ldrb	r3, [r0, #61]	@ zero_extendqisi2
 2462              		.loc 1 1050 8 view .LVU801
 2463 0006 33B9     		cbnz	r3, .L164
1051:user/Src/driver_mpu9250.c ****     {
1052:user/Src/driver_mpu9250.c ****         if (handle->iic_deinit() != 0)                   /* iic deinit */
 2464              		.loc 1 1052 9 is_stmt 1 view .LVU802
 2465              		.loc 1 1052 19 is_stmt 0 view .LVU803
 2466 0008 8368     		ldr	r3, [r0, #8]
 2467              		.loc 1 1052 13 view .LVU804
 2468 000a 9847     		blx	r3
 2469              	.LVL241:
 2470              		.loc 1 1052 12 view .LVU805
 2471 000c 0346     		mov	r3, r0
 2472 000e 00B1     		cbz	r0, .L165
ARM GAS  /var/folders/21/t9g5rlb91ys800n5npymflf80000gn/T//ccsu9bFS.s 			page 67


1053:user/Src/driver_mpu9250.c ****         {
1054:user/Src/driver_mpu9250.c ****             return 1;                                    /* return error */
 2473              		.loc 1 1054 20 view .LVU806
 2474 0010 0123     		movs	r3, #1
 2475              	.L165:
1055:user/Src/driver_mpu9250.c ****         }
1056:user/Src/driver_mpu9250.c ****         else
1057:user/Src/driver_mpu9250.c ****         {
1058:user/Src/driver_mpu9250.c ****             return 0;                                    /* success return 0 */
1059:user/Src/driver_mpu9250.c ****         }
1060:user/Src/driver_mpu9250.c ****     }
1061:user/Src/driver_mpu9250.c ****     else
1062:user/Src/driver_mpu9250.c ****     {
1063:user/Src/driver_mpu9250.c ****         if (handle->spi_deinit() != 0)                   /* if spi interface */
1064:user/Src/driver_mpu9250.c ****         {
1065:user/Src/driver_mpu9250.c ****             return 1;                                    /* return error */
1066:user/Src/driver_mpu9250.c ****         }
1067:user/Src/driver_mpu9250.c ****         else
1068:user/Src/driver_mpu9250.c ****         {
1069:user/Src/driver_mpu9250.c ****             return 0;                                    /* success return 0 */
1070:user/Src/driver_mpu9250.c ****         }
1071:user/Src/driver_mpu9250.c ****     }
1072:user/Src/driver_mpu9250.c **** }
 2476              		.loc 1 1072 1 view .LVU807
 2477 0012 1846     		mov	r0, r3
 2478 0014 08BD     		pop	{r3, pc}
 2479              	.LVL242:
 2480              	.L164:
1063:user/Src/driver_mpu9250.c ****         {
 2481              		.loc 1 1063 9 is_stmt 1 view .LVU808
1063:user/Src/driver_mpu9250.c ****         {
 2482              		.loc 1 1063 19 is_stmt 0 view .LVU809
 2483 0016 8369     		ldr	r3, [r0, #24]
1063:user/Src/driver_mpu9250.c ****         {
 2484              		.loc 1 1063 13 view .LVU810
 2485 0018 9847     		blx	r3
 2486              	.LVL243:
1063:user/Src/driver_mpu9250.c ****         {
 2487              		.loc 1 1063 12 view .LVU811
 2488 001a 0346     		mov	r3, r0
 2489 001c 0028     		cmp	r0, #0
 2490 001e F8D0     		beq	.L165
1065:user/Src/driver_mpu9250.c ****         }
 2491              		.loc 1 1065 20 view .LVU812
 2492 0020 0123     		movs	r3, #1
 2493 0022 F6E7     		b	.L165
 2494              		.cfi_endproc
 2495              	.LFE33:
 2497              		.section	.rodata.mpu9250_dmp_load_firmware.str1.4,"aMS",%progbits,1
 2498              		.align	2
 2499              	.LC6:
 2500 0000 6D707539 		.ascii	"mpu9250: dmp is running.\012\000"
 2500      3235303A 
 2500      20646D70 
 2500      20697320 
 2500      72756E6E 
 2501 001a 0000     		.align	2
ARM GAS  /var/folders/21/t9g5rlb91ys800n5npymflf80000gn/T//ccsu9bFS.s 			page 68


 2502              	.LC7:
 2503 001c 6D707539 		.ascii	"mpu9250: write mem failed.\012\000"
 2503      3235303A 
 2503      20777269 
 2503      7465206D 
 2503      656D2066 
 2504              		.align	2
 2505              	.LC8:
 2506 0038 6D707539 		.ascii	"mpu9250: read mem failed.\012\000"
 2506      3235303A 
 2506      20726561 
 2506      64206D65 
 2506      6D206661 
 2507 0053 00       		.align	2
 2508              	.LC9:
 2509 0054 6D707539 		.ascii	"mpu9250: code compare error.\012\000"
 2509      3235303A 
 2509      20636F64 
 2509      6520636F 
 2509      6D706172 
 2510 0072 0000     		.align	2
 2511              	.LC10:
 2512 0074 6D707539 		.ascii	"mpu9250: set program start failed.\012\000"
 2512      3235303A 
 2512      20736574 
 2512      2070726F 
 2512      6772616D 
 2513              		.section	.text.mpu9250_dmp_load_firmware,"ax",%progbits
 2514              		.align	1
 2515              		.global	mpu9250_dmp_load_firmware
 2516              		.syntax unified
 2517              		.thumb
 2518              		.thumb_func
 2520              	mpu9250_dmp_load_firmware:
 2521              	.LVL244:
 2522              	.LFB34:
1073:user/Src/driver_mpu9250.c **** 
1074:user/Src/driver_mpu9250.c **** /**
1075:user/Src/driver_mpu9250.c ****  * @brief     load the dmp firmware
1076:user/Src/driver_mpu9250.c ****  * @param[in] *handle points to an mpu9250 handle structure
1077:user/Src/driver_mpu9250.c ****  * @return    status code
1078:user/Src/driver_mpu9250.c ****  *            - 0 success
1079:user/Src/driver_mpu9250.c ****  *            - 1 load firmware failed
1080:user/Src/driver_mpu9250.c ****  *            - 2 handle is NULL
1081:user/Src/driver_mpu9250.c ****  *            - 3 handle is not initialized
1082:user/Src/driver_mpu9250.c ****  *            - 4 dmp is running
1083:user/Src/driver_mpu9250.c ****  *            - 5 code compare error
1084:user/Src/driver_mpu9250.c ****  *            - 6 set program start failed
1085:user/Src/driver_mpu9250.c ****  * @note      none
1086:user/Src/driver_mpu9250.c ****  */
1087:user/Src/driver_mpu9250.c **** uint8_t mpu9250_dmp_load_firmware(mpu9250_handle_t *handle)
1088:user/Src/driver_mpu9250.c **** {
 2523              		.loc 1 1088 1 is_stmt 1 view -0
 2524              		.cfi_startproc
 2525              		@ args = 0, pretend = 0, frame = 24
 2526              		@ frame_needed = 0, uses_anonymous_args = 0
 2527              		.loc 1 1088 1 is_stmt 0 view .LVU814
ARM GAS  /var/folders/21/t9g5rlb91ys800n5npymflf80000gn/T//ccsu9bFS.s 			page 69


 2528 0000 2DE9F043 		push	{r4, r5, r6, r7, r8, r9, lr}
 2529              	.LCFI32:
 2530              		.cfi_def_cfa_offset 28
 2531              		.cfi_offset 4, -28
 2532              		.cfi_offset 5, -24
 2533              		.cfi_offset 6, -20
 2534              		.cfi_offset 7, -16
 2535              		.cfi_offset 8, -12
 2536              		.cfi_offset 9, -8
 2537              		.cfi_offset 14, -4
 2538 0004 87B0     		sub	sp, sp, #28
 2539              	.LCFI33:
 2540              		.cfi_def_cfa_offset 56
1089:user/Src/driver_mpu9250.c ****     uint8_t res;
 2541              		.loc 1 1089 5 is_stmt 1 view .LVU815
1090:user/Src/driver_mpu9250.c ****     uint16_t i;
 2542              		.loc 1 1090 5 view .LVU816
1091:user/Src/driver_mpu9250.c ****     uint16_t size;
 2543              		.loc 1 1091 5 view .LVU817
1092:user/Src/driver_mpu9250.c ****     uint16_t this_write;
 2544              		.loc 1 1092 5 view .LVU818
1093:user/Src/driver_mpu9250.c ****     uint8_t tmp[2];
 2545              		.loc 1 1093 5 view .LVU819
1094:user/Src/driver_mpu9250.c ****     uint8_t cur[16];
 2546              		.loc 1 1094 5 view .LVU820
1095:user/Src/driver_mpu9250.c ****     
1096:user/Src/driver_mpu9250.c ****     if (handle == NULL)                                                                  /* check h
 2547              		.loc 1 1096 5 view .LVU821
 2548              		.loc 1 1096 8 is_stmt 0 view .LVU822
 2549 0006 0028     		cmp	r0, #0
 2550 0008 5BD0     		beq	.L175
 2551 000a 0746     		mov	r7, r0
1097:user/Src/driver_mpu9250.c ****     {
1098:user/Src/driver_mpu9250.c ****         return 2;                                                                        /* return 
1099:user/Src/driver_mpu9250.c ****     }
1100:user/Src/driver_mpu9250.c ****     if (handle->inited != 1)                                                             /* check h
 2552              		.loc 1 1100 5 is_stmt 1 view .LVU823
 2553              		.loc 1 1100 15 is_stmt 0 view .LVU824
 2554 000c 90F83880 		ldrb	r8, [r0, #56]	@ zero_extendqisi2
 2555              		.loc 1 1100 8 view .LVU825
 2556 0010 B8F1010F 		cmp	r8, #1
 2557 0014 58D1     		bne	.L176
1101:user/Src/driver_mpu9250.c ****     {
1102:user/Src/driver_mpu9250.c ****         return 3;                                                                        /* return 
1103:user/Src/driver_mpu9250.c ****     }
1104:user/Src/driver_mpu9250.c ****     if (handle->dmp_inited != 0)                                                         /* check d
 2558              		.loc 1 1104 5 is_stmt 1 view .LVU826
 2559              		.loc 1 1104 15 is_stmt 0 view .LVU827
 2560 0016 90F83E30 		ldrb	r3, [r0, #62]	@ zero_extendqisi2
 2561              		.loc 1 1104 8 view .LVU828
 2562 001a 33BB     		cbnz	r3, .L179
1105:user/Src/driver_mpu9250.c ****     {
1106:user/Src/driver_mpu9250.c ****         handle->debug_print("mpu9250: dmp is running.\n");                               /* dmp is 
1107:user/Src/driver_mpu9250.c ****         
1108:user/Src/driver_mpu9250.c ****         return 4;                                                                        /* return 
1109:user/Src/driver_mpu9250.c ****     }
1110:user/Src/driver_mpu9250.c ****     
ARM GAS  /var/folders/21/t9g5rlb91ys800n5npymflf80000gn/T//ccsu9bFS.s 			page 70


1111:user/Src/driver_mpu9250.c ****     size = MPU9250_DMP_CODE_SIZE;                                                        /* set the
1112:user/Src/driver_mpu9250.c ****     for (i = 0; i < size; i += this_write)                                               /* code si
 2563              		.loc 1 1112 12 view .LVU829
 2564 001c 0024     		movs	r4, #0
 2565              	.LVL245:
 2566              	.L169:
 2567              		.loc 1 1112 19 is_stmt 1 discriminator 1 view .LVU830
 2568 001e 40F6F533 		movw	r3, #3061
 2569 0022 9C42     		cmp	r4, r3
 2570 0024 35D8     		bhi	.L180
1113:user/Src/driver_mpu9250.c ****     {
1114:user/Src/driver_mpu9250.c ****         this_write = MIN(16, size - i);                                                  /* get the
 2571              		.loc 1 1114 9 view .LVU831
 2572              		.loc 1 1114 22 is_stmt 0 view .LVU832
 2573 0026 C4F53F62 		rsb	r2, r4, #3056
 2574 002a 0632     		adds	r2, r2, #6
 2575 002c 102A     		cmp	r2, #16
 2576 002e A8BF     		it	ge
 2577 0030 1022     		movge	r2, #16
 2578 0032 9146     		mov	r9, r2
 2579              		.loc 1 1114 20 view .LVU833
 2580 0034 95B2     		uxth	r5, r2
 2581              	.LVL246:
1115:user/Src/driver_mpu9250.c ****         
1116:user/Src/driver_mpu9250.c ****         res = a_mpu9250_write_mem(handle, i, (uint8_t *)(gs_mpu9250_dmp_code + i), 
 2582              		.loc 1 1116 9 is_stmt 1 view .LVU834
 2583              		.loc 1 1116 15 is_stmt 0 view .LVU835
 2584 0036 274E     		ldr	r6, .L185
 2585 0038 2644     		add	r6, r6, r4
 2586 003a 2B46     		mov	r3, r5
 2587 003c 3246     		mov	r2, r6
 2588 003e 2146     		mov	r1, r4
 2589 0040 3846     		mov	r0, r7
 2590 0042 FFF7FEFF 		bl	a_mpu9250_write_mem
 2591              	.LVL247:
1117:user/Src/driver_mpu9250.c ****                                   this_write);                                           /* write d
1118:user/Src/driver_mpu9250.c ****         if (res != 0)                                                                    /* check r
 2592              		.loc 1 1118 9 is_stmt 1 view .LVU836
 2593              		.loc 1 1118 12 is_stmt 0 view .LVU837
 2594 0046 B0B9     		cbnz	r0, .L181
1119:user/Src/driver_mpu9250.c ****         {
1120:user/Src/driver_mpu9250.c ****             handle->debug_print("mpu9250: write mem failed.\n");                         /* write m
1121:user/Src/driver_mpu9250.c ****            
1122:user/Src/driver_mpu9250.c ****             return 1;                                                                    /* return 
1123:user/Src/driver_mpu9250.c ****         }
1124:user/Src/driver_mpu9250.c ****         res = a_mpu9250_read_mem(handle, i, cur, this_write);                            /* read da
 2595              		.loc 1 1124 9 is_stmt 1 view .LVU838
 2596              		.loc 1 1124 15 is_stmt 0 view .LVU839
 2597 0048 2B46     		mov	r3, r5
 2598 004a 01AA     		add	r2, sp, #4
 2599 004c 2146     		mov	r1, r4
 2600 004e 3846     		mov	r0, r7
 2601              	.LVL248:
 2602              		.loc 1 1124 15 view .LVU840
 2603 0050 FFF7FEFF 		bl	a_mpu9250_read_mem
 2604              	.LVL249:
1125:user/Src/driver_mpu9250.c ****         if (res != 0)                                                                    /* check r
ARM GAS  /var/folders/21/t9g5rlb91ys800n5npymflf80000gn/T//ccsu9bFS.s 			page 71


 2605              		.loc 1 1125 9 is_stmt 1 view .LVU841
 2606              		.loc 1 1125 12 is_stmt 0 view .LVU842
 2607 0054 98B9     		cbnz	r0, .L182
1126:user/Src/driver_mpu9250.c ****         {
1127:user/Src/driver_mpu9250.c ****             handle->debug_print("mpu9250: read mem failed.\n");                          /* read me
1128:user/Src/driver_mpu9250.c ****            
1129:user/Src/driver_mpu9250.c ****             return 1;                                                                    /* return 
1130:user/Src/driver_mpu9250.c ****         }
1131:user/Src/driver_mpu9250.c ****         if (memcmp(gs_mpu9250_dmp_code + i, cur, this_write) != 0)                       /* check t
 2608              		.loc 1 1131 9 is_stmt 1 view .LVU843
 2609              		.loc 1 1131 13 is_stmt 0 view .LVU844
 2610 0056 1FFA89F2 		uxth	r2, r9
 2611 005a 01A9     		add	r1, sp, #4
 2612 005c 3046     		mov	r0, r6
 2613              	.LVL250:
 2614              		.loc 1 1131 13 view .LVU845
 2615 005e FFF7FEFF 		bl	memcmp
 2616              	.LVL251:
 2617              		.loc 1 1131 12 view .LVU846
 2618 0062 80B9     		cbnz	r0, .L183
1112:user/Src/driver_mpu9250.c ****     {
 2619              		.loc 1 1112 29 is_stmt 1 discriminator 2 view .LVU847
 2620 0064 2544     		add	r5, r5, r4
 2621              	.LVL252:
1112:user/Src/driver_mpu9250.c ****     {
 2622              		.loc 1 1112 29 is_stmt 0 discriminator 2 view .LVU848
 2623 0066 ACB2     		uxth	r4, r5
 2624              	.LVL253:
1112:user/Src/driver_mpu9250.c ****     {
 2625              		.loc 1 1112 29 discriminator 2 view .LVU849
 2626 0068 D9E7     		b	.L169
 2627              	.LVL254:
 2628              	.L179:
1106:user/Src/driver_mpu9250.c ****         
 2629              		.loc 1 1106 9 is_stmt 1 view .LVU850
1106:user/Src/driver_mpu9250.c ****         
 2630              		.loc 1 1106 15 is_stmt 0 view .LVU851
 2631 006a 836A     		ldr	r3, [r0, #40]
1106:user/Src/driver_mpu9250.c ****         
 2632              		.loc 1 1106 9 view .LVU852
 2633 006c 1A48     		ldr	r0, .L185+4
 2634              	.LVL255:
1106:user/Src/driver_mpu9250.c ****         
 2635              		.loc 1 1106 9 view .LVU853
 2636 006e 9847     		blx	r3
 2637              	.LVL256:
1108:user/Src/driver_mpu9250.c ****     }
 2638              		.loc 1 1108 9 is_stmt 1 view .LVU854
1108:user/Src/driver_mpu9250.c ****     }
 2639              		.loc 1 1108 16 is_stmt 0 view .LVU855
 2640 0070 4FF00408 		mov	r8, #4
 2641 0074 2AE0     		b	.L168
 2642              	.LVL257:
 2643              	.L181:
1120:user/Src/driver_mpu9250.c ****            
 2644              		.loc 1 1120 13 is_stmt 1 view .LVU856
1120:user/Src/driver_mpu9250.c ****            
ARM GAS  /var/folders/21/t9g5rlb91ys800n5npymflf80000gn/T//ccsu9bFS.s 			page 72


 2645              		.loc 1 1120 19 is_stmt 0 view .LVU857
 2646 0076 BB6A     		ldr	r3, [r7, #40]
1120:user/Src/driver_mpu9250.c ****            
 2647              		.loc 1 1120 13 view .LVU858
 2648 0078 1848     		ldr	r0, .L185+8
 2649              	.LVL258:
1120:user/Src/driver_mpu9250.c ****            
 2650              		.loc 1 1120 13 view .LVU859
 2651 007a 9847     		blx	r3
 2652              	.LVL259:
1122:user/Src/driver_mpu9250.c ****         }
 2653              		.loc 1 1122 13 is_stmt 1 view .LVU860
1122:user/Src/driver_mpu9250.c ****         }
 2654              		.loc 1 1122 20 is_stmt 0 view .LVU861
 2655 007c 26E0     		b	.L168
 2656              	.LVL260:
 2657              	.L182:
1127:user/Src/driver_mpu9250.c ****            
 2658              		.loc 1 1127 13 is_stmt 1 view .LVU862
1127:user/Src/driver_mpu9250.c ****            
 2659              		.loc 1 1127 19 is_stmt 0 view .LVU863
 2660 007e BB6A     		ldr	r3, [r7, #40]
1127:user/Src/driver_mpu9250.c ****            
 2661              		.loc 1 1127 13 view .LVU864
 2662 0080 1748     		ldr	r0, .L185+12
 2663              	.LVL261:
1127:user/Src/driver_mpu9250.c ****            
 2664              		.loc 1 1127 13 view .LVU865
 2665 0082 9847     		blx	r3
 2666              	.LVL262:
1129:user/Src/driver_mpu9250.c ****         }
 2667              		.loc 1 1129 13 is_stmt 1 view .LVU866
1129:user/Src/driver_mpu9250.c ****         }
 2668              		.loc 1 1129 20 is_stmt 0 view .LVU867
 2669 0084 22E0     		b	.L168
 2670              	.L183:
1132:user/Src/driver_mpu9250.c ****         {
1133:user/Src/driver_mpu9250.c ****             handle->debug_print("mpu9250: code compare error.\n");                       /* code co
 2671              		.loc 1 1133 13 is_stmt 1 view .LVU868
 2672              		.loc 1 1133 19 is_stmt 0 view .LVU869
 2673 0086 BB6A     		ldr	r3, [r7, #40]
 2674              		.loc 1 1133 13 view .LVU870
 2675 0088 1648     		ldr	r0, .L185+16
 2676 008a 9847     		blx	r3
 2677              	.LVL263:
1134:user/Src/driver_mpu9250.c ****            
1135:user/Src/driver_mpu9250.c ****             return 5;                                                                    /* return 
 2678              		.loc 1 1135 13 is_stmt 1 view .LVU871
 2679              		.loc 1 1135 20 is_stmt 0 view .LVU872
 2680 008c 4FF00508 		mov	r8, #5
 2681 0090 1CE0     		b	.L168
 2682              	.LVL264:
 2683              	.L180:
1136:user/Src/driver_mpu9250.c ****         }
1137:user/Src/driver_mpu9250.c ****     }
1138:user/Src/driver_mpu9250.c ****     tmp[0] = (0x0400 >> 8) & 0xFF;                                                       /* set the
 2684              		.loc 1 1138 5 is_stmt 1 view .LVU873
ARM GAS  /var/folders/21/t9g5rlb91ys800n5npymflf80000gn/T//ccsu9bFS.s 			page 73


 2685              		.loc 1 1138 12 is_stmt 0 view .LVU874
 2686 0092 0423     		movs	r3, #4
 2687 0094 8DF81430 		strb	r3, [sp, #20]
1139:user/Src/driver_mpu9250.c ****     tmp[1] = (0x0400 >> 0) & 0xFF;                                                       /* set the
 2688              		.loc 1 1139 5 is_stmt 1 view .LVU875
 2689              		.loc 1 1139 12 is_stmt 0 view .LVU876
 2690 0098 0023     		movs	r3, #0
 2691 009a 8DF81530 		strb	r3, [sp, #21]
1140:user/Src/driver_mpu9250.c ****     
1141:user/Src/driver_mpu9250.c ****     if (handle->iic_write(handle->iic_addr, MPU9250_REG_PROGRAM_START,
 2692              		.loc 1 1141 5 is_stmt 1 view .LVU877
 2693              		.loc 1 1141 15 is_stmt 0 view .LVU878
 2694 009e 3C69     		ldr	r4, [r7, #16]
 2695              	.LVL265:
 2696              		.loc 1 1141 9 view .LVU879
 2697 00a0 0223     		movs	r3, #2
 2698 00a2 05AA     		add	r2, sp, #20
 2699 00a4 7021     		movs	r1, #112
 2700 00a6 3878     		ldrb	r0, [r7]	@ zero_extendqisi2
 2701 00a8 A047     		blx	r4
 2702              	.LVL266:
 2703              		.loc 1 1141 8 view .LVU880
 2704 00aa 8046     		mov	r8, r0
 2705 00ac 18B9     		cbnz	r0, .L184
1142:user/Src/driver_mpu9250.c ****                          (uint8_t *)tmp, 2) != 0)                                        /* write d
1143:user/Src/driver_mpu9250.c ****     {
1144:user/Src/driver_mpu9250.c ****         handle->debug_print("mpu9250: set program start failed.\n");                     /* set pro
1145:user/Src/driver_mpu9250.c ****         
1146:user/Src/driver_mpu9250.c ****         return 6;                                                                        /* return 
1147:user/Src/driver_mpu9250.c ****     }
1148:user/Src/driver_mpu9250.c ****     handle->dmp_inited = 1;                                                              /* flag th
 2706              		.loc 1 1148 5 is_stmt 1 view .LVU881
 2707              		.loc 1 1148 24 is_stmt 0 view .LVU882
 2708 00ae 0123     		movs	r3, #1
 2709 00b0 87F83E30 		strb	r3, [r7, #62]
1149:user/Src/driver_mpu9250.c ****     
1150:user/Src/driver_mpu9250.c ****     return 0;                                                                            /* success
 2710              		.loc 1 1150 5 is_stmt 1 view .LVU883
 2711              		.loc 1 1150 12 is_stmt 0 view .LVU884
 2712 00b4 0AE0     		b	.L168
 2713              	.L184:
1144:user/Src/driver_mpu9250.c ****         
 2714              		.loc 1 1144 9 is_stmt 1 view .LVU885
1144:user/Src/driver_mpu9250.c ****         
 2715              		.loc 1 1144 15 is_stmt 0 view .LVU886
 2716 00b6 BB6A     		ldr	r3, [r7, #40]
1144:user/Src/driver_mpu9250.c ****         
 2717              		.loc 1 1144 9 view .LVU887
 2718 00b8 0B48     		ldr	r0, .L185+20
 2719 00ba 9847     		blx	r3
 2720              	.LVL267:
1146:user/Src/driver_mpu9250.c ****     }
 2721              		.loc 1 1146 9 is_stmt 1 view .LVU888
1146:user/Src/driver_mpu9250.c ****     }
 2722              		.loc 1 1146 16 is_stmt 0 view .LVU889
 2723 00bc 4FF00608 		mov	r8, #6
 2724 00c0 04E0     		b	.L168
ARM GAS  /var/folders/21/t9g5rlb91ys800n5npymflf80000gn/T//ccsu9bFS.s 			page 74


 2725              	.LVL268:
 2726              	.L175:
1098:user/Src/driver_mpu9250.c ****     }
 2727              		.loc 1 1098 16 view .LVU890
 2728 00c2 4FF00208 		mov	r8, #2
 2729 00c6 01E0     		b	.L168
 2730              	.L176:
1102:user/Src/driver_mpu9250.c ****     }
 2731              		.loc 1 1102 16 view .LVU891
 2732 00c8 4FF00308 		mov	r8, #3
 2733              	.LVL269:
 2734              	.L168:
1151:user/Src/driver_mpu9250.c **** }
 2735              		.loc 1 1151 1 view .LVU892
 2736 00cc 4046     		mov	r0, r8
 2737 00ce 07B0     		add	sp, sp, #28
 2738              	.LCFI34:
 2739              		.cfi_def_cfa_offset 28
 2740              		@ sp needed
 2741 00d0 BDE8F083 		pop	{r4, r5, r6, r7, r8, r9, pc}
 2742              	.L186:
 2743              		.align	2
 2744              	.L185:
 2745 00d4 00000000 		.word	gs_mpu9250_dmp_code
 2746 00d8 00000000 		.word	.LC6
 2747 00dc 1C000000 		.word	.LC7
 2748 00e0 38000000 		.word	.LC8
 2749 00e4 54000000 		.word	.LC9
 2750 00e8 74000000 		.word	.LC10
 2751              		.cfi_endproc
 2752              	.LFE34:
 2754              		.section	.rodata.mpu9250_dmp_set_pedometer_walk_time.str1.4,"aMS",%progbits,1
 2755              		.align	2
 2756              	.LC11:
 2757 0000 6D707539 		.ascii	"mpu9250: dmp is not inited.\012\000"
 2757      3235303A 
 2757      20646D70 
 2757      20697320 
 2757      6E6F7420 
 2758              		.section	.text.mpu9250_dmp_set_pedometer_walk_time,"ax",%progbits
 2759              		.align	1
 2760              		.global	mpu9250_dmp_set_pedometer_walk_time
 2761              		.syntax unified
 2762              		.thumb
 2763              		.thumb_func
 2765              	mpu9250_dmp_set_pedometer_walk_time:
 2766              	.LVL270:
 2767              	.LFB35:
1152:user/Src/driver_mpu9250.c **** 
1153:user/Src/driver_mpu9250.c **** /**
1154:user/Src/driver_mpu9250.c ****  * @brief     dmp set the pedometer walk time
1155:user/Src/driver_mpu9250.c ****  * @param[in] *handle points to an mpu9250 handle structure
1156:user/Src/driver_mpu9250.c ****  * @param[in] ms is the walk time
1157:user/Src/driver_mpu9250.c ****  * @return    status code
1158:user/Src/driver_mpu9250.c ****  *            - 0 success
1159:user/Src/driver_mpu9250.c ****  *            - 1 dmp set pedometer walk time failed
1160:user/Src/driver_mpu9250.c ****  *            - 2 handle is NULL
ARM GAS  /var/folders/21/t9g5rlb91ys800n5npymflf80000gn/T//ccsu9bFS.s 			page 75


1161:user/Src/driver_mpu9250.c ****  *            - 3 handle is not initialized
1162:user/Src/driver_mpu9250.c ****  *            - 4 dmp is not inited
1163:user/Src/driver_mpu9250.c ****  * @note      none
1164:user/Src/driver_mpu9250.c ****  */
1165:user/Src/driver_mpu9250.c **** uint8_t mpu9250_dmp_set_pedometer_walk_time(mpu9250_handle_t *handle, uint32_t ms)
1166:user/Src/driver_mpu9250.c **** {
 2768              		.loc 1 1166 1 is_stmt 1 view -0
 2769              		.cfi_startproc
 2770              		@ args = 0, pretend = 0, frame = 8
 2771              		@ frame_needed = 0, uses_anonymous_args = 0
1167:user/Src/driver_mpu9250.c ****     uint8_t res;
 2772              		.loc 1 1167 5 view .LVU894
1168:user/Src/driver_mpu9250.c ****     uint8_t tmp[4];
 2773              		.loc 1 1168 5 view .LVU895
1169:user/Src/driver_mpu9250.c ****     
1170:user/Src/driver_mpu9250.c ****     if (handle == NULL)                                                                  /* check h
 2774              		.loc 1 1170 5 view .LVU896
 2775              		.loc 1 1170 8 is_stmt 0 view .LVU897
 2776 0000 70B3     		cbz	r0, .L190
1166:user/Src/driver_mpu9250.c ****     uint8_t res;
 2777              		.loc 1 1166 1 view .LVU898
 2778 0002 30B5     		push	{r4, r5, lr}
 2779              	.LCFI35:
 2780              		.cfi_def_cfa_offset 12
 2781              		.cfi_offset 4, -12
 2782              		.cfi_offset 5, -8
 2783              		.cfi_offset 14, -4
 2784 0004 83B0     		sub	sp, sp, #12
 2785              	.LCFI36:
 2786              		.cfi_def_cfa_offset 24
 2787 0006 0446     		mov	r4, r0
1171:user/Src/driver_mpu9250.c ****     {
1172:user/Src/driver_mpu9250.c ****         return 2;                                                                        /* return 
1173:user/Src/driver_mpu9250.c ****     }
1174:user/Src/driver_mpu9250.c ****     if (handle->inited != 1)                                                             /* check h
 2788              		.loc 1 1174 5 is_stmt 1 view .LVU899
 2789              		.loc 1 1174 15 is_stmt 0 view .LVU900
 2790 0008 90F83830 		ldrb	r3, [r0, #56]	@ zero_extendqisi2
 2791              		.loc 1 1174 8 view .LVU901
 2792 000c 012B     		cmp	r3, #1
 2793 000e 29D1     		bne	.L191
1175:user/Src/driver_mpu9250.c ****     {
1176:user/Src/driver_mpu9250.c ****         return 3;                                                                        /* return 
1177:user/Src/driver_mpu9250.c ****     }
1178:user/Src/driver_mpu9250.c ****     if (handle->dmp_inited != 1)                                                         /* check d
 2794              		.loc 1 1178 5 is_stmt 1 view .LVU902
 2795              		.loc 1 1178 15 is_stmt 0 view .LVU903
 2796 0010 90F83E50 		ldrb	r5, [r0, #62]	@ zero_extendqisi2
 2797              		.loc 1 1178 8 view .LVU904
 2798 0014 012D     		cmp	r5, #1
 2799 0016 04D0     		beq	.L189
1179:user/Src/driver_mpu9250.c ****     {
1180:user/Src/driver_mpu9250.c ****         handle->debug_print("mpu9250: dmp is not inited.\n");                            /* dmp is 
 2800              		.loc 1 1180 9 is_stmt 1 view .LVU905
 2801              		.loc 1 1180 15 is_stmt 0 view .LVU906
 2802 0018 836A     		ldr	r3, [r0, #40]
 2803              		.loc 1 1180 9 view .LVU907
ARM GAS  /var/folders/21/t9g5rlb91ys800n5npymflf80000gn/T//ccsu9bFS.s 			page 76


 2804 001a 1448     		ldr	r0, .L196
 2805              	.LVL271:
 2806              		.loc 1 1180 9 view .LVU908
 2807 001c 9847     		blx	r3
 2808              	.LVL272:
1181:user/Src/driver_mpu9250.c ****         
1182:user/Src/driver_mpu9250.c ****         return 4;                                                                        /* return 
 2809              		.loc 1 1182 9 is_stmt 1 view .LVU909
 2810              		.loc 1 1182 16 is_stmt 0 view .LVU910
 2811 001e 0420     		movs	r0, #4
 2812 0020 21E0     		b	.L188
 2813              	.LVL273:
 2814              	.L189:
1183:user/Src/driver_mpu9250.c ****     }
1184:user/Src/driver_mpu9250.c ****     
1185:user/Src/driver_mpu9250.c ****     ms /= 20;                                                                            /* div 20 
 2815              		.loc 1 1185 5 is_stmt 1 view .LVU911
 2816              		.loc 1 1185 8 is_stmt 0 view .LVU912
 2817 0022 134B     		ldr	r3, .L196+4
 2818 0024 A3FB0131 		umull	r3, r1, r3, r1
 2819              	.LVL274:
1186:user/Src/driver_mpu9250.c ****     tmp[0] = (uint8_t)((ms >> 24) & 0xFF);                                               /* set par
 2820              		.loc 1 1186 5 is_stmt 1 view .LVU913
 2821              		.loc 1 1186 14 is_stmt 0 view .LVU914
 2822 0028 0B0F     		lsrs	r3, r1, #28
 2823              		.loc 1 1186 12 view .LVU915
 2824 002a 8DF80430 		strb	r3, [sp, #4]
1187:user/Src/driver_mpu9250.c ****     tmp[1] = (uint8_t)((ms >> 16) & 0xFF);                                               /* set par
 2825              		.loc 1 1187 5 is_stmt 1 view .LVU916
 2826              		.loc 1 1187 14 is_stmt 0 view .LVU917
 2827 002e C1F30753 		ubfx	r3, r1, #20, #8
 2828              		.loc 1 1187 12 view .LVU918
 2829 0032 8DF80530 		strb	r3, [sp, #5]
1188:user/Src/driver_mpu9250.c ****     tmp[2] = (uint8_t)((ms >> 8) & 0xFF);                                                /* set par
 2830              		.loc 1 1188 5 is_stmt 1 view .LVU919
 2831              		.loc 1 1188 14 is_stmt 0 view .LVU920
 2832 0036 C1F30733 		ubfx	r3, r1, #12, #8
 2833              		.loc 1 1188 12 view .LVU921
 2834 003a 8DF80630 		strb	r3, [sp, #6]
1189:user/Src/driver_mpu9250.c ****     tmp[3] = (uint8_t)(ms & 0xFF);                                                       /* set par
 2835              		.loc 1 1189 5 is_stmt 1 view .LVU922
 2836              		.loc 1 1189 14 is_stmt 0 view .LVU923
 2837 003e C1F30711 		ubfx	r1, r1, #4, #8
 2838              	.LVL275:
 2839              		.loc 1 1189 12 view .LVU924
 2840 0042 8DF80710 		strb	r1, [sp, #7]
1190:user/Src/driver_mpu9250.c ****     
1191:user/Src/driver_mpu9250.c ****     res = a_mpu9250_write_mem(handle, MPU9250_DMP_D_PEDSTD_TIMECTR, tmp, 4);             /* write d
 2841              		.loc 1 1191 5 is_stmt 1 view .LVU925
 2842              		.loc 1 1191 11 is_stmt 0 view .LVU926
 2843 0046 0423     		movs	r3, #4
 2844 0048 0DEB0302 		add	r2, sp, r3
 2845 004c 4FF47171 		mov	r1, #964
 2846 0050 FFF7FEFF 		bl	a_mpu9250_write_mem
 2847              	.LVL276:
1192:user/Src/driver_mpu9250.c ****     if (res != 0)                                                                        /* check r
 2848              		.loc 1 1192 5 is_stmt 1 view .LVU927
ARM GAS  /var/folders/21/t9g5rlb91ys800n5npymflf80000gn/T//ccsu9bFS.s 			page 77


 2849              		.loc 1 1192 8 is_stmt 0 view .LVU928
 2850 0054 38B1     		cbz	r0, .L188
1193:user/Src/driver_mpu9250.c ****     {
1194:user/Src/driver_mpu9250.c ****         handle->debug_print("mpu9250: write mem failed.\n");                             /* write m
 2851              		.loc 1 1194 9 is_stmt 1 view .LVU929
 2852              		.loc 1 1194 15 is_stmt 0 view .LVU930
 2853 0056 A36A     		ldr	r3, [r4, #40]
 2854              		.loc 1 1194 9 view .LVU931
 2855 0058 0648     		ldr	r0, .L196+8
 2856              	.LVL277:
 2857              		.loc 1 1194 9 view .LVU932
 2858 005a 9847     		blx	r3
 2859              	.LVL278:
1195:user/Src/driver_mpu9250.c ****        
1196:user/Src/driver_mpu9250.c ****         return 1;                                                                        /* return 
 2860              		.loc 1 1196 9 is_stmt 1 view .LVU933
 2861              		.loc 1 1196 16 is_stmt 0 view .LVU934
 2862 005c 2846     		mov	r0, r5
 2863 005e 02E0     		b	.L188
 2864              	.LVL279:
 2865              	.L190:
 2866              	.LCFI37:
 2867              		.cfi_def_cfa_offset 0
 2868              		.cfi_restore 4
 2869              		.cfi_restore 5
 2870              		.cfi_restore 14
1172:user/Src/driver_mpu9250.c ****     }
 2871              		.loc 1 1172 16 view .LVU935
 2872 0060 0220     		movs	r0, #2
 2873              	.LVL280:
1197:user/Src/driver_mpu9250.c ****     }
1198:user/Src/driver_mpu9250.c ****     
1199:user/Src/driver_mpu9250.c ****     return 0;                                                                            /* success
1200:user/Src/driver_mpu9250.c **** }
 2874              		.loc 1 1200 1 view .LVU936
 2875 0062 7047     		bx	lr
 2876              	.LVL281:
 2877              	.L191:
 2878              	.LCFI38:
 2879              		.cfi_def_cfa_offset 24
 2880              		.cfi_offset 4, -12
 2881              		.cfi_offset 5, -8
 2882              		.cfi_offset 14, -4
1176:user/Src/driver_mpu9250.c ****     }
 2883              		.loc 1 1176 16 view .LVU937
 2884 0064 0320     		movs	r0, #3
 2885              	.LVL282:
 2886              	.L188:
 2887              		.loc 1 1200 1 view .LVU938
 2888 0066 03B0     		add	sp, sp, #12
 2889              	.LCFI39:
 2890              		.cfi_def_cfa_offset 12
 2891              		@ sp needed
 2892 0068 30BD     		pop	{r4, r5, pc}
 2893              	.LVL283:
 2894              	.L197:
 2895              		.loc 1 1200 1 view .LVU939
