ARM GAS  /var/folders/21/t9g5rlb91ys800n5npymflf80000gn/T//cclZ9YEQ.s 			page 1


   1              		.cpu cortex-m4
   2              		.arch armv7e-m
   3              		.fpu fpv4-sp-d16
   4              		.eabi_attribute 27, 1
   5              		.eabi_attribute 28, 1
   6              		.eabi_attribute 20, 1
   7              		.eabi_attribute 21, 1
   8              		.eabi_attribute 23, 3
   9              		.eabi_attribute 24, 1
  10              		.eabi_attribute 25, 1
  11              		.eabi_attribute 26, 1
  12              		.eabi_attribute 30, 1
  13              		.eabi_attribute 34, 1
  14              		.eabi_attribute 18, 4
  15              		.file	"inv_mpu.c"
  16              		.text
  17              	.Ltext0:
  18              		.cfi_sections	.debug_frame
  19              		.file 1 "DMP/driver/eMPL/inv_mpu.c"
  20              		.section	.text.set_int_enable,"ax",%progbits
  21              		.align	1
  22              		.syntax unified
  23              		.thumb
  24              		.thumb_func
  26              	set_int_enable:
  27              	.LVL0:
  28              	.LFB167:
   1:DMP/driver/eMPL/inv_mpu.c **** /*
   2:DMP/driver/eMPL/inv_mpu.c ****  $License:
   3:DMP/driver/eMPL/inv_mpu.c ****     Copyright (C) 2011-2012 InvenSense Corporation, All Rights Reserved.
   4:DMP/driver/eMPL/inv_mpu.c ****     See included License.txt for License information.
   5:DMP/driver/eMPL/inv_mpu.c ****  $
   6:DMP/driver/eMPL/inv_mpu.c ****  */
   7:DMP/driver/eMPL/inv_mpu.c **** /**
   8:DMP/driver/eMPL/inv_mpu.c ****  *  @addtogroup  DRIVERS Sensor Driver Layer
   9:DMP/driver/eMPL/inv_mpu.c ****  *  @brief       Hardware drivers to communicate with sensors via I2C.
  10:DMP/driver/eMPL/inv_mpu.c ****  *
  11:DMP/driver/eMPL/inv_mpu.c ****  *  @{
  12:DMP/driver/eMPL/inv_mpu.c ****  *      @file       inv_mpu.c
  13:DMP/driver/eMPL/inv_mpu.c ****  *      @brief      An I2C-based driver for Invensense gyroscopes.
  14:DMP/driver/eMPL/inv_mpu.c ****  *      @details    This driver currently works for the following devices:
  15:DMP/driver/eMPL/inv_mpu.c ****  *                  MPU6050
  16:DMP/driver/eMPL/inv_mpu.c ****  *                  MPU6500
  17:DMP/driver/eMPL/inv_mpu.c ****  *                  MPU9150 (or MPU6050 w/ AK8975 on the auxiliary bus)
  18:DMP/driver/eMPL/inv_mpu.c ****  *                  MPU9250 (or MPU6500 w/ AK8963 on the auxiliary bus)
  19:DMP/driver/eMPL/inv_mpu.c ****  */
  20:DMP/driver/eMPL/inv_mpu.c **** #include <stdio.h>
  21:DMP/driver/eMPL/inv_mpu.c **** #include <stdint.h>
  22:DMP/driver/eMPL/inv_mpu.c **** #include <stdlib.h>
  23:DMP/driver/eMPL/inv_mpu.c **** #include <string.h>
  24:DMP/driver/eMPL/inv_mpu.c **** #include <math.h>
  25:DMP/driver/eMPL/inv_mpu.c **** #include "inv_mpu.h"
  26:DMP/driver/eMPL/inv_mpu.c **** #include "mpl.h"
  27:DMP/driver/eMPL/inv_mpu.c **** #include "invensense.h"
  28:DMP/driver/eMPL/inv_mpu.c **** #include "invensense_adv.h"
  29:DMP/driver/eMPL/inv_mpu.c **** #include "data_builder.h"
  30:DMP/driver/eMPL/inv_mpu.c **** #include "eMPL_outputs.h"
ARM GAS  /var/folders/21/t9g5rlb91ys800n5npymflf80000gn/T//cclZ9YEQ.s 			page 2


  31:DMP/driver/eMPL/inv_mpu.c **** #include "mltypes.h"
  32:DMP/driver/eMPL/inv_mpu.c **** #include "mpu.h"
  33:DMP/driver/eMPL/inv_mpu.c **** #include "log.h"
  34:DMP/driver/eMPL/inv_mpu.c **** #include "packet.h"
  35:DMP/driver/eMPL/inv_mpu.c **** #include "inv_mpu_dmp_motion_driver.h"
  36:DMP/driver/eMPL/inv_mpu.c **** #include "mpu9250.h"
  37:DMP/driver/eMPL/inv_mpu.c **** 
  38:DMP/driver/eMPL/inv_mpu.c **** /* The following functions must be defined for this platform:
  39:DMP/driver/eMPL/inv_mpu.c ****  * i2c_write(unsigned char slave_addr, unsigned char reg_addr,
  40:DMP/driver/eMPL/inv_mpu.c ****  *      unsigned char length, unsigned char const *data)
  41:DMP/driver/eMPL/inv_mpu.c ****  * i2c_read(unsigned char slave_addr, unsigned char reg_addr,
  42:DMP/driver/eMPL/inv_mpu.c ****  *      unsigned char length, unsigned char *data)
  43:DMP/driver/eMPL/inv_mpu.c ****  * delay_ms(unsigned long num_ms)
  44:DMP/driver/eMPL/inv_mpu.c ****  * get_ms(unsigned long *count)
  45:DMP/driver/eMPL/inv_mpu.c ****  * reg_int_cb(void (*cb)(void), unsigned char port, unsigned char pin)
  46:DMP/driver/eMPL/inv_mpu.c ****  * labs(long x)
  47:DMP/driver/eMPL/inv_mpu.c ****  * fabsf(float x)
  48:DMP/driver/eMPL/inv_mpu.c ****  * min(int a, int b)
  49:DMP/driver/eMPL/inv_mpu.c ****  */
  50:DMP/driver/eMPL/inv_mpu.c **** #if defined EMPL_TARGET_STM32F4
  51:DMP/driver/eMPL/inv_mpu.c **** //#include "main.h"
  52:DMP/driver/eMPL/inv_mpu.c **** #include "log.h"
  53:DMP/driver/eMPL/inv_mpu.c **** unsigned char *mpl_key = (unsigned char*)"eMPL 5.1";
  54:DMP/driver/eMPL/inv_mpu.c **** 
  55:DMP/driver/eMPL/inv_mpu.c **** #define i2c_write   MPU_Write_Len
  56:DMP/driver/eMPL/inv_mpu.c **** #define i2c_read    MPU_Read_Len
  57:DMP/driver/eMPL/inv_mpu.c **** #define delay_ms    HAL_Delay
  58:DMP/driver/eMPL/inv_mpu.c **** #define get_ms      mget_ms
  59:DMP/driver/eMPL/inv_mpu.c **** 
  60:DMP/driver/eMPL/inv_mpu.c **** #define log_i       printf  //打印信息
  61:DMP/driver/eMPL/inv_mpu.c **** #define log_e       printf  //打印信息
  62:DMP/driver/eMPL/inv_mpu.c **** #define min(a,b) ((a<b)?a:b)
  63:DMP/driver/eMPL/inv_mpu.c ****    
  64:DMP/driver/eMPL/inv_mpu.c **** #elif defined MOTION_DRIVER_TARGET_MSP430
  65:DMP/driver/eMPL/inv_mpu.c **** #include "msp430.h"
  66:DMP/driver/eMPL/inv_mpu.c **** #include "msp430_i2c.h"
  67:DMP/driver/eMPL/inv_mpu.c **** #include "msp430_clock.h"
  68:DMP/driver/eMPL/inv_mpu.c **** #include "msp430_interrupt.h"
  69:DMP/driver/eMPL/inv_mpu.c **** #define i2c_write   msp430_i2c_write
  70:DMP/driver/eMPL/inv_mpu.c **** #define i2c_read    msp430_i2c_read
  71:DMP/driver/eMPL/inv_mpu.c **** #define delay_ms    msp430_delay_ms
  72:DMP/driver/eMPL/inv_mpu.c **** #define get_ms      msp430_get_clock_ms
  73:DMP/driver/eMPL/inv_mpu.c **** static inline int reg_int_cb(struct int_param_s *int_param)
  74:DMP/driver/eMPL/inv_mpu.c **** {
  75:DMP/driver/eMPL/inv_mpu.c ****     return msp430_reg_int_cb(int_param->cb, int_param->pin, int_param->lp_exit,
  76:DMP/driver/eMPL/inv_mpu.c ****         int_param->active_low);
  77:DMP/driver/eMPL/inv_mpu.c **** }
  78:DMP/driver/eMPL/inv_mpu.c **** #define log_i(...)     do {} while (0)
  79:DMP/driver/eMPL/inv_mpu.c **** #define log_e(...)     do {} while (0)
  80:DMP/driver/eMPL/inv_mpu.c **** /* labs is already defined by TI's toolchain. */
  81:DMP/driver/eMPL/inv_mpu.c **** /* fabs is for doubles. fabsf is for floats. */
  82:DMP/driver/eMPL/inv_mpu.c **** #define fabs        fabsf
  83:DMP/driver/eMPL/inv_mpu.c **** #define min(a,b) ((a<b)?a:b)
  84:DMP/driver/eMPL/inv_mpu.c **** #elif defined EMPL_TARGET_MSP430
  85:DMP/driver/eMPL/inv_mpu.c **** #include "msp430.h"
  86:DMP/driver/eMPL/inv_mpu.c **** #include "msp430_i2c.h"
  87:DMP/driver/eMPL/inv_mpu.c **** #include "msp430_clock.h"
ARM GAS  /var/folders/21/t9g5rlb91ys800n5npymflf80000gn/T//cclZ9YEQ.s 			page 3


  88:DMP/driver/eMPL/inv_mpu.c **** #include "msp430_interrupt.h"
  89:DMP/driver/eMPL/inv_mpu.c **** #include "log.h"
  90:DMP/driver/eMPL/inv_mpu.c **** #define i2c_write   msp430_i2c_write
  91:DMP/driver/eMPL/inv_mpu.c **** #define i2c_read    msp430_i2c_read
  92:DMP/driver/eMPL/inv_mpu.c **** #define delay_ms    msp430_delay_ms
  93:DMP/driver/eMPL/inv_mpu.c **** #define get_ms      msp430_get_clock_ms
  94:DMP/driver/eMPL/inv_mpu.c **** static inline int reg_int_cb(struct int_param_s *int_param)
  95:DMP/driver/eMPL/inv_mpu.c **** {
  96:DMP/driver/eMPL/inv_mpu.c ****     return msp430_reg_int_cb(int_param->cb, int_param->pin, int_param->lp_exit,
  97:DMP/driver/eMPL/inv_mpu.c ****         int_param->active_low);
  98:DMP/driver/eMPL/inv_mpu.c **** }
  99:DMP/driver/eMPL/inv_mpu.c **** #define log_i       MPL_LOGI
 100:DMP/driver/eMPL/inv_mpu.c **** #define log_e       MPL_LOGE
 101:DMP/driver/eMPL/inv_mpu.c **** /* labs is already defined by TI's toolchain. */
 102:DMP/driver/eMPL/inv_mpu.c **** /* fabs is for doubles. fabsf is for floats. */
 103:DMP/driver/eMPL/inv_mpu.c **** #define fabs        fabsf
 104:DMP/driver/eMPL/inv_mpu.c **** #define min(a,b) ((a<b)?a:b)
 105:DMP/driver/eMPL/inv_mpu.c **** #elif defined EMPL_TARGET_UC3L0
 106:DMP/driver/eMPL/inv_mpu.c **** /* Instead of using the standard TWI driver from the ASF library, we're using
 107:DMP/driver/eMPL/inv_mpu.c ****  * a TWI driver that follows the slave address + register address convention.
 108:DMP/driver/eMPL/inv_mpu.c ****  */
 109:DMP/driver/eMPL/inv_mpu.c **** #include "twi.h"
 110:DMP/driver/eMPL/inv_mpu.c **** #include "delay.h"
 111:DMP/driver/eMPL/inv_mpu.c **** #include "sysclk.h"
 112:DMP/driver/eMPL/inv_mpu.c **** #include "log.h"
 113:DMP/driver/eMPL/inv_mpu.c **** #include "sensors_xplained.h"
 114:DMP/driver/eMPL/inv_mpu.c **** #include "uc3l0_clock.h"
 115:DMP/driver/eMPL/inv_mpu.c **** #define i2c_write(a, b, c, d)   twi_write(a, b, d, c)
 116:DMP/driver/eMPL/inv_mpu.c **** #define i2c_read(a, b, c, d)    twi_read(a, b, d, c)
 117:DMP/driver/eMPL/inv_mpu.c **** /* delay_ms is a function already defined in ASF. */
 118:DMP/driver/eMPL/inv_mpu.c **** #define get_ms  uc3l0_get_clock_ms
 119:DMP/driver/eMPL/inv_mpu.c **** static inline int reg_int_cb(struct int_param_s *int_param)
 120:DMP/driver/eMPL/inv_mpu.c **** {
 121:DMP/driver/eMPL/inv_mpu.c ****     sensor_board_irq_connect(int_param->pin, int_param->cb, int_param->arg);
 122:DMP/driver/eMPL/inv_mpu.c ****     return 0;
 123:DMP/driver/eMPL/inv_mpu.c **** }
 124:DMP/driver/eMPL/inv_mpu.c **** #define log_i       MPL_LOGI
 125:DMP/driver/eMPL/inv_mpu.c **** #define log_e       MPL_LOGE
 126:DMP/driver/eMPL/inv_mpu.c **** /* UC3 is a 32-bit processor, so abs and labs are equivalent. */
 127:DMP/driver/eMPL/inv_mpu.c **** #define labs        abs
 128:DMP/driver/eMPL/inv_mpu.c **** #define fabs(x)     (((x)>0)?(x):-(x))
 129:DMP/driver/eMPL/inv_mpu.c **** #else
 130:DMP/driver/eMPL/inv_mpu.c **** #error  Gyro driver is missing the system layer implementations.
 131:DMP/driver/eMPL/inv_mpu.c **** #endif
 132:DMP/driver/eMPL/inv_mpu.c **** 
 133:DMP/driver/eMPL/inv_mpu.c **** #if !defined MPU6050 && !defined MPU9150 && !defined MPU6500 && !defined MPU9250
 134:DMP/driver/eMPL/inv_mpu.c **** #error  Which gyro are you using? Define MPUxxxx in your compiler options.
 135:DMP/driver/eMPL/inv_mpu.c **** #endif
 136:DMP/driver/eMPL/inv_mpu.c **** 
 137:DMP/driver/eMPL/inv_mpu.c **** /* Time for some messy macro work. =]
 138:DMP/driver/eMPL/inv_mpu.c ****  * #define MPU9150
 139:DMP/driver/eMPL/inv_mpu.c ****  * is equivalent to..
 140:DMP/driver/eMPL/inv_mpu.c ****  * #define MPU6050
 141:DMP/driver/eMPL/inv_mpu.c ****  * #define AK8975_SECONDARY
 142:DMP/driver/eMPL/inv_mpu.c ****  *
 143:DMP/driver/eMPL/inv_mpu.c ****  * #define MPU9250
 144:DMP/driver/eMPL/inv_mpu.c ****  * is equivalent to..
ARM GAS  /var/folders/21/t9g5rlb91ys800n5npymflf80000gn/T//cclZ9YEQ.s 			page 4


 145:DMP/driver/eMPL/inv_mpu.c ****  * #define MPU6500
 146:DMP/driver/eMPL/inv_mpu.c ****  * #define AK8963_SECONDARY
 147:DMP/driver/eMPL/inv_mpu.c ****  */
 148:DMP/driver/eMPL/inv_mpu.c **** #if defined MPU9150
 149:DMP/driver/eMPL/inv_mpu.c **** #ifndef MPU6050
 150:DMP/driver/eMPL/inv_mpu.c **** #define MPU6050
 151:DMP/driver/eMPL/inv_mpu.c **** #endif                          /* #ifndef MPU6050 */
 152:DMP/driver/eMPL/inv_mpu.c **** #if defined AK8963_SECONDARY
 153:DMP/driver/eMPL/inv_mpu.c **** #error "MPU9150 and AK8963_SECONDARY cannot both be defined."
 154:DMP/driver/eMPL/inv_mpu.c **** #elif !defined AK8975_SECONDARY /* #if defined AK8963_SECONDARY */
 155:DMP/driver/eMPL/inv_mpu.c **** #define AK8975_SECONDARY
 156:DMP/driver/eMPL/inv_mpu.c **** #endif                          /* #if defined AK8963_SECONDARY */
 157:DMP/driver/eMPL/inv_mpu.c **** #elif defined MPU9250           /* #if defined MPU9150 */
 158:DMP/driver/eMPL/inv_mpu.c **** #ifndef MPU6500
 159:DMP/driver/eMPL/inv_mpu.c **** #define MPU6500
 160:DMP/driver/eMPL/inv_mpu.c **** #endif                          /* #ifndef MPU6500 */
 161:DMP/driver/eMPL/inv_mpu.c **** #if defined AK8975_SECONDARY
 162:DMP/driver/eMPL/inv_mpu.c **** #error "MPU9250 and AK8975_SECONDARY cannot both be defined."
 163:DMP/driver/eMPL/inv_mpu.c **** #elif !defined AK8963_SECONDARY /* #if defined AK8975_SECONDARY */
 164:DMP/driver/eMPL/inv_mpu.c **** #define AK8963_SECONDARY
 165:DMP/driver/eMPL/inv_mpu.c **** #endif                          /* #if defined AK8975_SECONDARY */
 166:DMP/driver/eMPL/inv_mpu.c **** #endif                          /* #if defined MPU9150 */
 167:DMP/driver/eMPL/inv_mpu.c **** 
 168:DMP/driver/eMPL/inv_mpu.c **** #if defined AK8975_SECONDARY || defined AK8963_SECONDARY
 169:DMP/driver/eMPL/inv_mpu.c **** #define AK89xx_SECONDARY
 170:DMP/driver/eMPL/inv_mpu.c **** #else
 171:DMP/driver/eMPL/inv_mpu.c **** /* #warning "No compass = less profit for Invensense. Lame." */
 172:DMP/driver/eMPL/inv_mpu.c **** #endif
 173:DMP/driver/eMPL/inv_mpu.c **** 
 174:DMP/driver/eMPL/inv_mpu.c **** static int set_int_enable(unsigned char enable);
 175:DMP/driver/eMPL/inv_mpu.c **** 
 176:DMP/driver/eMPL/inv_mpu.c **** /* Hardware registers needed by driver. */
 177:DMP/driver/eMPL/inv_mpu.c **** struct gyro_reg_s {
 178:DMP/driver/eMPL/inv_mpu.c ****     unsigned char who_am_i;
 179:DMP/driver/eMPL/inv_mpu.c ****     unsigned char rate_div;
 180:DMP/driver/eMPL/inv_mpu.c ****     unsigned char lpf;
 181:DMP/driver/eMPL/inv_mpu.c ****     unsigned char prod_id;
 182:DMP/driver/eMPL/inv_mpu.c ****     unsigned char user_ctrl;
 183:DMP/driver/eMPL/inv_mpu.c ****     unsigned char fifo_en;
 184:DMP/driver/eMPL/inv_mpu.c ****     unsigned char gyro_cfg;
 185:DMP/driver/eMPL/inv_mpu.c ****     unsigned char accel_cfg;
 186:DMP/driver/eMPL/inv_mpu.c ****     unsigned char accel_cfg2;
 187:DMP/driver/eMPL/inv_mpu.c ****     unsigned char lp_accel_odr;
 188:DMP/driver/eMPL/inv_mpu.c ****     unsigned char motion_thr;
 189:DMP/driver/eMPL/inv_mpu.c ****     unsigned char motion_dur;
 190:DMP/driver/eMPL/inv_mpu.c ****     unsigned char fifo_count_h;
 191:DMP/driver/eMPL/inv_mpu.c ****     unsigned char fifo_r_w;
 192:DMP/driver/eMPL/inv_mpu.c ****     unsigned char raw_gyro;
 193:DMP/driver/eMPL/inv_mpu.c ****     unsigned char raw_accel;
 194:DMP/driver/eMPL/inv_mpu.c ****     unsigned char temp;
 195:DMP/driver/eMPL/inv_mpu.c ****     unsigned char int_enable;
 196:DMP/driver/eMPL/inv_mpu.c ****     unsigned char dmp_int_status;
 197:DMP/driver/eMPL/inv_mpu.c ****     unsigned char int_status;
 198:DMP/driver/eMPL/inv_mpu.c ****     unsigned char accel_intel;
 199:DMP/driver/eMPL/inv_mpu.c ****     unsigned char pwr_mgmt_1;
 200:DMP/driver/eMPL/inv_mpu.c ****     unsigned char pwr_mgmt_2;
 201:DMP/driver/eMPL/inv_mpu.c ****     unsigned char int_pin_cfg;
ARM GAS  /var/folders/21/t9g5rlb91ys800n5npymflf80000gn/T//cclZ9YEQ.s 			page 5


 202:DMP/driver/eMPL/inv_mpu.c ****     unsigned char mem_r_w;
 203:DMP/driver/eMPL/inv_mpu.c ****     unsigned char accel_offs;
 204:DMP/driver/eMPL/inv_mpu.c ****     unsigned char i2c_mst;
 205:DMP/driver/eMPL/inv_mpu.c ****     unsigned char bank_sel;
 206:DMP/driver/eMPL/inv_mpu.c ****     unsigned char mem_start_addr;
 207:DMP/driver/eMPL/inv_mpu.c ****     unsigned char prgm_start_h;
 208:DMP/driver/eMPL/inv_mpu.c **** #if defined AK89xx_SECONDARY
 209:DMP/driver/eMPL/inv_mpu.c ****     unsigned char s0_addr;
 210:DMP/driver/eMPL/inv_mpu.c ****     unsigned char s0_reg;
 211:DMP/driver/eMPL/inv_mpu.c ****     unsigned char s0_ctrl;
 212:DMP/driver/eMPL/inv_mpu.c ****     unsigned char s1_addr;
 213:DMP/driver/eMPL/inv_mpu.c ****     unsigned char s1_reg;
 214:DMP/driver/eMPL/inv_mpu.c ****     unsigned char s1_ctrl;
 215:DMP/driver/eMPL/inv_mpu.c ****     unsigned char s4_ctrl;
 216:DMP/driver/eMPL/inv_mpu.c ****     unsigned char s0_do;
 217:DMP/driver/eMPL/inv_mpu.c ****     unsigned char s1_do;
 218:DMP/driver/eMPL/inv_mpu.c ****     unsigned char i2c_delay_ctrl;
 219:DMP/driver/eMPL/inv_mpu.c ****     unsigned char raw_compass;
 220:DMP/driver/eMPL/inv_mpu.c ****     /* The I2C_MST_VDDIO bit is in this register. */
 221:DMP/driver/eMPL/inv_mpu.c ****     unsigned char yg_offs_tc;
 222:DMP/driver/eMPL/inv_mpu.c **** #endif
 223:DMP/driver/eMPL/inv_mpu.c **** };
 224:DMP/driver/eMPL/inv_mpu.c **** 
 225:DMP/driver/eMPL/inv_mpu.c **** /* Information specific to a particular device. */
 226:DMP/driver/eMPL/inv_mpu.c **** struct hw_s {
 227:DMP/driver/eMPL/inv_mpu.c ****     unsigned char addr;
 228:DMP/driver/eMPL/inv_mpu.c ****     unsigned short max_fifo;
 229:DMP/driver/eMPL/inv_mpu.c ****     unsigned char num_reg;
 230:DMP/driver/eMPL/inv_mpu.c ****     unsigned short temp_sens;
 231:DMP/driver/eMPL/inv_mpu.c ****     short temp_offset;
 232:DMP/driver/eMPL/inv_mpu.c ****     unsigned short bank_size;
 233:DMP/driver/eMPL/inv_mpu.c **** #if defined AK89xx_SECONDARY
 234:DMP/driver/eMPL/inv_mpu.c ****     unsigned short compass_fsr;
 235:DMP/driver/eMPL/inv_mpu.c **** #endif
 236:DMP/driver/eMPL/inv_mpu.c **** };
 237:DMP/driver/eMPL/inv_mpu.c **** 
 238:DMP/driver/eMPL/inv_mpu.c **** /* When entering motion interrupt mode, the driver keeps track of the
 239:DMP/driver/eMPL/inv_mpu.c ****  * previous state so that it can be restored at a later time.
 240:DMP/driver/eMPL/inv_mpu.c ****  * TODO: This is tacky. Fix it.
 241:DMP/driver/eMPL/inv_mpu.c ****  */
 242:DMP/driver/eMPL/inv_mpu.c **** struct motion_int_cache_s {
 243:DMP/driver/eMPL/inv_mpu.c ****     unsigned short gyro_fsr;
 244:DMP/driver/eMPL/inv_mpu.c ****     unsigned char accel_fsr;
 245:DMP/driver/eMPL/inv_mpu.c ****     unsigned short lpf;
 246:DMP/driver/eMPL/inv_mpu.c ****     unsigned short sample_rate;
 247:DMP/driver/eMPL/inv_mpu.c ****     unsigned char sensors_on;
 248:DMP/driver/eMPL/inv_mpu.c ****     unsigned char fifo_sensors;
 249:DMP/driver/eMPL/inv_mpu.c ****     unsigned char dmp_on;
 250:DMP/driver/eMPL/inv_mpu.c **** };
 251:DMP/driver/eMPL/inv_mpu.c **** 
 252:DMP/driver/eMPL/inv_mpu.c **** /* Cached chip configuration data.
 253:DMP/driver/eMPL/inv_mpu.c ****  * TODO: A lot of these can be handled with a bitmask.
 254:DMP/driver/eMPL/inv_mpu.c ****  */
 255:DMP/driver/eMPL/inv_mpu.c **** struct chip_cfg_s {
 256:DMP/driver/eMPL/inv_mpu.c ****     /* Matches gyro_cfg >> 3 & 0x03 */
 257:DMP/driver/eMPL/inv_mpu.c ****     unsigned char gyro_fsr;
 258:DMP/driver/eMPL/inv_mpu.c ****     /* Matches accel_cfg >> 3 & 0x03 */
ARM GAS  /var/folders/21/t9g5rlb91ys800n5npymflf80000gn/T//cclZ9YEQ.s 			page 6


 259:DMP/driver/eMPL/inv_mpu.c ****     unsigned char accel_fsr;
 260:DMP/driver/eMPL/inv_mpu.c ****     /* Enabled sensors. Uses same masks as fifo_en, NOT pwr_mgmt_2. */
 261:DMP/driver/eMPL/inv_mpu.c ****     unsigned char sensors;
 262:DMP/driver/eMPL/inv_mpu.c ****     /* Matches config register. */
 263:DMP/driver/eMPL/inv_mpu.c ****     unsigned char lpf;
 264:DMP/driver/eMPL/inv_mpu.c ****     unsigned char clk_src;
 265:DMP/driver/eMPL/inv_mpu.c ****     /* Sample rate, NOT rate divider. */
 266:DMP/driver/eMPL/inv_mpu.c ****     unsigned short sample_rate;
 267:DMP/driver/eMPL/inv_mpu.c ****     /* Matches fifo_en register. */
 268:DMP/driver/eMPL/inv_mpu.c ****     unsigned char fifo_enable;
 269:DMP/driver/eMPL/inv_mpu.c ****     /* Matches int enable register. */
 270:DMP/driver/eMPL/inv_mpu.c ****     unsigned char int_enable;
 271:DMP/driver/eMPL/inv_mpu.c ****     /* 1 if devices on auxiliary I2C bus appear on the primary. */
 272:DMP/driver/eMPL/inv_mpu.c ****     unsigned char bypass_mode;
 273:DMP/driver/eMPL/inv_mpu.c ****     /* 1 if half-sensitivity.
 274:DMP/driver/eMPL/inv_mpu.c ****      * NOTE: This doesn't belong here, but everything else in hw_s is const,
 275:DMP/driver/eMPL/inv_mpu.c ****      * and this allows us to save some precious RAM.
 276:DMP/driver/eMPL/inv_mpu.c ****      */
 277:DMP/driver/eMPL/inv_mpu.c ****     unsigned char accel_half;
 278:DMP/driver/eMPL/inv_mpu.c ****     /* 1 if device in low-power accel-only mode. */
 279:DMP/driver/eMPL/inv_mpu.c ****     unsigned char lp_accel_mode;
 280:DMP/driver/eMPL/inv_mpu.c ****     /* 1 if interrupts are only triggered on motion events. */
 281:DMP/driver/eMPL/inv_mpu.c ****     unsigned char int_motion_only;
 282:DMP/driver/eMPL/inv_mpu.c ****     struct motion_int_cache_s cache;
 283:DMP/driver/eMPL/inv_mpu.c ****     /* 1 for active low interrupts. */
 284:DMP/driver/eMPL/inv_mpu.c ****     unsigned char active_low_int;
 285:DMP/driver/eMPL/inv_mpu.c ****     /* 1 for latched interrupts. */
 286:DMP/driver/eMPL/inv_mpu.c ****     unsigned char latched_int;
 287:DMP/driver/eMPL/inv_mpu.c ****     /* 1 if DMP is enabled. */
 288:DMP/driver/eMPL/inv_mpu.c ****     unsigned char dmp_on;
 289:DMP/driver/eMPL/inv_mpu.c ****     /* Ensures that DMP will only be loaded once. */
 290:DMP/driver/eMPL/inv_mpu.c ****     unsigned char dmp_loaded;
 291:DMP/driver/eMPL/inv_mpu.c ****     /* Sampling rate used when DMP is enabled. */
 292:DMP/driver/eMPL/inv_mpu.c ****     unsigned short dmp_sample_rate;
 293:DMP/driver/eMPL/inv_mpu.c **** #ifdef AK89xx_SECONDARY
 294:DMP/driver/eMPL/inv_mpu.c ****     /* Compass sample rate. */
 295:DMP/driver/eMPL/inv_mpu.c ****     unsigned short compass_sample_rate;
 296:DMP/driver/eMPL/inv_mpu.c ****     unsigned char compass_addr;
 297:DMP/driver/eMPL/inv_mpu.c ****     short mag_sens_adj[3];
 298:DMP/driver/eMPL/inv_mpu.c **** #endif
 299:DMP/driver/eMPL/inv_mpu.c **** };
 300:DMP/driver/eMPL/inv_mpu.c **** 
 301:DMP/driver/eMPL/inv_mpu.c **** /* Information for self-test. */
 302:DMP/driver/eMPL/inv_mpu.c **** struct test_s {
 303:DMP/driver/eMPL/inv_mpu.c ****     unsigned long gyro_sens;
 304:DMP/driver/eMPL/inv_mpu.c ****     unsigned long accel_sens;
 305:DMP/driver/eMPL/inv_mpu.c ****     unsigned char reg_rate_div;
 306:DMP/driver/eMPL/inv_mpu.c ****     unsigned char reg_lpf;
 307:DMP/driver/eMPL/inv_mpu.c ****     unsigned char reg_gyro_fsr;
 308:DMP/driver/eMPL/inv_mpu.c ****     unsigned char reg_accel_fsr;
 309:DMP/driver/eMPL/inv_mpu.c ****     unsigned short wait_ms;
 310:DMP/driver/eMPL/inv_mpu.c ****     unsigned char packet_thresh;
 311:DMP/driver/eMPL/inv_mpu.c ****     float min_dps;
 312:DMP/driver/eMPL/inv_mpu.c ****     float max_dps;
 313:DMP/driver/eMPL/inv_mpu.c ****     float max_gyro_var;
 314:DMP/driver/eMPL/inv_mpu.c ****     float min_g;
 315:DMP/driver/eMPL/inv_mpu.c ****     float max_g;
ARM GAS  /var/folders/21/t9g5rlb91ys800n5npymflf80000gn/T//cclZ9YEQ.s 			page 7


 316:DMP/driver/eMPL/inv_mpu.c ****     float max_accel_var;
 317:DMP/driver/eMPL/inv_mpu.c **** #ifdef MPU6500
 318:DMP/driver/eMPL/inv_mpu.c ****     float max_g_offset;
 319:DMP/driver/eMPL/inv_mpu.c ****     unsigned short sample_wait_ms;
 320:DMP/driver/eMPL/inv_mpu.c **** #endif
 321:DMP/driver/eMPL/inv_mpu.c **** };
 322:DMP/driver/eMPL/inv_mpu.c **** 
 323:DMP/driver/eMPL/inv_mpu.c **** /* Gyro driver state variables. */
 324:DMP/driver/eMPL/inv_mpu.c **** struct gyro_state_s {
 325:DMP/driver/eMPL/inv_mpu.c ****     const struct gyro_reg_s *reg;
 326:DMP/driver/eMPL/inv_mpu.c ****     const struct hw_s *hw;
 327:DMP/driver/eMPL/inv_mpu.c ****     struct chip_cfg_s chip_cfg;
 328:DMP/driver/eMPL/inv_mpu.c ****     const struct test_s *test;
 329:DMP/driver/eMPL/inv_mpu.c **** };
 330:DMP/driver/eMPL/inv_mpu.c **** 
 331:DMP/driver/eMPL/inv_mpu.c **** /* Filter configurations. */
 332:DMP/driver/eMPL/inv_mpu.c **** enum lpf_e {
 333:DMP/driver/eMPL/inv_mpu.c ****     INV_FILTER_256HZ_NOLPF2 = 0,
 334:DMP/driver/eMPL/inv_mpu.c ****     INV_FILTER_188HZ,
 335:DMP/driver/eMPL/inv_mpu.c ****     INV_FILTER_98HZ,
 336:DMP/driver/eMPL/inv_mpu.c ****     INV_FILTER_42HZ,
 337:DMP/driver/eMPL/inv_mpu.c ****     INV_FILTER_20HZ,
 338:DMP/driver/eMPL/inv_mpu.c ****     INV_FILTER_10HZ,
 339:DMP/driver/eMPL/inv_mpu.c ****     INV_FILTER_5HZ,
 340:DMP/driver/eMPL/inv_mpu.c ****     INV_FILTER_2100HZ_NOLPF,
 341:DMP/driver/eMPL/inv_mpu.c ****     NUM_FILTER
 342:DMP/driver/eMPL/inv_mpu.c **** };
 343:DMP/driver/eMPL/inv_mpu.c **** 
 344:DMP/driver/eMPL/inv_mpu.c **** /* Full scale ranges. */
 345:DMP/driver/eMPL/inv_mpu.c **** enum gyro_fsr_e {
 346:DMP/driver/eMPL/inv_mpu.c ****     INV_FSR_250DPS = 0,
 347:DMP/driver/eMPL/inv_mpu.c ****     INV_FSR_500DPS,
 348:DMP/driver/eMPL/inv_mpu.c ****     INV_FSR_1000DPS,
 349:DMP/driver/eMPL/inv_mpu.c ****     INV_FSR_2000DPS,
 350:DMP/driver/eMPL/inv_mpu.c ****     NUM_GYRO_FSR
 351:DMP/driver/eMPL/inv_mpu.c **** };
 352:DMP/driver/eMPL/inv_mpu.c **** 
 353:DMP/driver/eMPL/inv_mpu.c **** /* Full scale ranges. */
 354:DMP/driver/eMPL/inv_mpu.c **** enum accel_fsr_e {
 355:DMP/driver/eMPL/inv_mpu.c ****     INV_FSR_2G = 0,
 356:DMP/driver/eMPL/inv_mpu.c ****     INV_FSR_4G,
 357:DMP/driver/eMPL/inv_mpu.c ****     INV_FSR_8G,
 358:DMP/driver/eMPL/inv_mpu.c ****     INV_FSR_16G,
 359:DMP/driver/eMPL/inv_mpu.c ****     NUM_ACCEL_FSR
 360:DMP/driver/eMPL/inv_mpu.c **** };
 361:DMP/driver/eMPL/inv_mpu.c **** 
 362:DMP/driver/eMPL/inv_mpu.c **** /* Clock sources. */
 363:DMP/driver/eMPL/inv_mpu.c **** enum clock_sel_e {
 364:DMP/driver/eMPL/inv_mpu.c ****     INV_CLK_INTERNAL = 0,
 365:DMP/driver/eMPL/inv_mpu.c ****     INV_CLK_PLL,
 366:DMP/driver/eMPL/inv_mpu.c ****     NUM_CLK
 367:DMP/driver/eMPL/inv_mpu.c **** };
 368:DMP/driver/eMPL/inv_mpu.c **** 
 369:DMP/driver/eMPL/inv_mpu.c **** /* Low-power accel wakeup rates. */
 370:DMP/driver/eMPL/inv_mpu.c **** enum lp_accel_rate_e {
 371:DMP/driver/eMPL/inv_mpu.c **** #if defined MPU6050
 372:DMP/driver/eMPL/inv_mpu.c ****     INV_LPA_1_25HZ,
ARM GAS  /var/folders/21/t9g5rlb91ys800n5npymflf80000gn/T//cclZ9YEQ.s 			page 8


 373:DMP/driver/eMPL/inv_mpu.c ****     INV_LPA_5HZ,
 374:DMP/driver/eMPL/inv_mpu.c ****     INV_LPA_20HZ,
 375:DMP/driver/eMPL/inv_mpu.c ****     INV_LPA_40HZ
 376:DMP/driver/eMPL/inv_mpu.c **** #elif defined MPU6500
 377:DMP/driver/eMPL/inv_mpu.c ****     INV_LPA_0_3125HZ,
 378:DMP/driver/eMPL/inv_mpu.c ****     INV_LPA_0_625HZ,
 379:DMP/driver/eMPL/inv_mpu.c ****     INV_LPA_1_25HZ,
 380:DMP/driver/eMPL/inv_mpu.c ****     INV_LPA_2_5HZ,
 381:DMP/driver/eMPL/inv_mpu.c ****     INV_LPA_5HZ,
 382:DMP/driver/eMPL/inv_mpu.c ****     INV_LPA_10HZ,
 383:DMP/driver/eMPL/inv_mpu.c ****     INV_LPA_20HZ,
 384:DMP/driver/eMPL/inv_mpu.c ****     INV_LPA_40HZ,
 385:DMP/driver/eMPL/inv_mpu.c ****     INV_LPA_80HZ,
 386:DMP/driver/eMPL/inv_mpu.c ****     INV_LPA_160HZ,
 387:DMP/driver/eMPL/inv_mpu.c ****     INV_LPA_320HZ,
 388:DMP/driver/eMPL/inv_mpu.c ****     INV_LPA_640HZ
 389:DMP/driver/eMPL/inv_mpu.c **** #endif
 390:DMP/driver/eMPL/inv_mpu.c **** };
 391:DMP/driver/eMPL/inv_mpu.c **** 
 392:DMP/driver/eMPL/inv_mpu.c **** #define BIT_I2C_MST_VDDIO   (0x80)
 393:DMP/driver/eMPL/inv_mpu.c **** #define BIT_FIFO_EN         (0x40)
 394:DMP/driver/eMPL/inv_mpu.c **** #define BIT_DMP_EN          (0x80)
 395:DMP/driver/eMPL/inv_mpu.c **** #define BIT_FIFO_RST        (0x04)
 396:DMP/driver/eMPL/inv_mpu.c **** #define BIT_DMP_RST         (0x08)
 397:DMP/driver/eMPL/inv_mpu.c **** #define BIT_FIFO_OVERFLOW   (0x10)
 398:DMP/driver/eMPL/inv_mpu.c **** #define BIT_DATA_RDY_EN     (0x01)
 399:DMP/driver/eMPL/inv_mpu.c **** #define BIT_DMP_INT_EN      (0x02)
 400:DMP/driver/eMPL/inv_mpu.c **** #define BIT_MOT_INT_EN      (0x40)
 401:DMP/driver/eMPL/inv_mpu.c **** #define BITS_FSR            (0x18)
 402:DMP/driver/eMPL/inv_mpu.c **** #define BITS_LPF            (0x07)
 403:DMP/driver/eMPL/inv_mpu.c **** #define BITS_HPF            (0x07)
 404:DMP/driver/eMPL/inv_mpu.c **** #define BITS_CLK            (0x07)
 405:DMP/driver/eMPL/inv_mpu.c **** #define BIT_FIFO_SIZE_1024  (0x40)
 406:DMP/driver/eMPL/inv_mpu.c **** #define BIT_FIFO_SIZE_2048  (0x80)
 407:DMP/driver/eMPL/inv_mpu.c **** #define BIT_FIFO_SIZE_4096  (0xC0)
 408:DMP/driver/eMPL/inv_mpu.c **** #define BIT_RESET           (0x80)
 409:DMP/driver/eMPL/inv_mpu.c **** #define BIT_SLEEP           (0x40)
 410:DMP/driver/eMPL/inv_mpu.c **** #define BIT_S0_DELAY_EN     (0x01)
 411:DMP/driver/eMPL/inv_mpu.c **** #define BIT_S2_DELAY_EN     (0x04)
 412:DMP/driver/eMPL/inv_mpu.c **** #define BITS_SLAVE_LENGTH   (0x0F)
 413:DMP/driver/eMPL/inv_mpu.c **** #define BIT_SLAVE_BYTE_SW   (0x40)
 414:DMP/driver/eMPL/inv_mpu.c **** #define BIT_SLAVE_GROUP     (0x10)
 415:DMP/driver/eMPL/inv_mpu.c **** #define BIT_SLAVE_EN        (0x80)
 416:DMP/driver/eMPL/inv_mpu.c **** #define BIT_I2C_READ        (0x80)
 417:DMP/driver/eMPL/inv_mpu.c **** #define BITS_I2C_MASTER_DLY (0x1F)
 418:DMP/driver/eMPL/inv_mpu.c **** #define BIT_AUX_IF_EN       (0x20)
 419:DMP/driver/eMPL/inv_mpu.c **** #define BIT_ACTL            (0x80)
 420:DMP/driver/eMPL/inv_mpu.c **** #define BIT_LATCH_EN        (0x20)
 421:DMP/driver/eMPL/inv_mpu.c **** #define BIT_ANY_RD_CLR      (0x10)
 422:DMP/driver/eMPL/inv_mpu.c **** #define BIT_BYPASS_EN       (0x02)
 423:DMP/driver/eMPL/inv_mpu.c **** #define BITS_WOM_EN         (0xC0)
 424:DMP/driver/eMPL/inv_mpu.c **** #define BIT_LPA_CYCLE       (0x20)
 425:DMP/driver/eMPL/inv_mpu.c **** #define BIT_STBY_XA         (0x20)
 426:DMP/driver/eMPL/inv_mpu.c **** #define BIT_STBY_YA         (0x10)
 427:DMP/driver/eMPL/inv_mpu.c **** #define BIT_STBY_ZA         (0x08)
 428:DMP/driver/eMPL/inv_mpu.c **** #define BIT_STBY_XG         (0x04)
 429:DMP/driver/eMPL/inv_mpu.c **** #define BIT_STBY_YG         (0x02)
ARM GAS  /var/folders/21/t9g5rlb91ys800n5npymflf80000gn/T//cclZ9YEQ.s 			page 9


 430:DMP/driver/eMPL/inv_mpu.c **** #define BIT_STBY_ZG         (0x01)
 431:DMP/driver/eMPL/inv_mpu.c **** #define BIT_STBY_XYZA       (BIT_STBY_XA | BIT_STBY_YA | BIT_STBY_ZA)
 432:DMP/driver/eMPL/inv_mpu.c **** #define BIT_STBY_XYZG       (BIT_STBY_XG | BIT_STBY_YG | BIT_STBY_ZG)
 433:DMP/driver/eMPL/inv_mpu.c **** 
 434:DMP/driver/eMPL/inv_mpu.c **** #if defined AK8975_SECONDARY
 435:DMP/driver/eMPL/inv_mpu.c **** #define SUPPORTS_AK89xx_HIGH_SENS   (0x00)
 436:DMP/driver/eMPL/inv_mpu.c **** #define AK89xx_FSR                  (9830)
 437:DMP/driver/eMPL/inv_mpu.c **** #elif defined AK8963_SECONDARY
 438:DMP/driver/eMPL/inv_mpu.c **** #define SUPPORTS_AK89xx_HIGH_SENS   (0x10)
 439:DMP/driver/eMPL/inv_mpu.c **** #define AK89xx_FSR                  (4915)
 440:DMP/driver/eMPL/inv_mpu.c **** #endif
 441:DMP/driver/eMPL/inv_mpu.c **** 
 442:DMP/driver/eMPL/inv_mpu.c **** #ifdef AK89xx_SECONDARY
 443:DMP/driver/eMPL/inv_mpu.c **** #define AKM_REG_WHOAMI      (0x00)
 444:DMP/driver/eMPL/inv_mpu.c **** 
 445:DMP/driver/eMPL/inv_mpu.c **** #define AKM_REG_ST1         (0x02)
 446:DMP/driver/eMPL/inv_mpu.c **** #define AKM_REG_HXL         (0x03)
 447:DMP/driver/eMPL/inv_mpu.c **** #define AKM_REG_ST2         (0x09)
 448:DMP/driver/eMPL/inv_mpu.c **** 
 449:DMP/driver/eMPL/inv_mpu.c **** #define AKM_REG_CNTL        (0x0A)
 450:DMP/driver/eMPL/inv_mpu.c **** #define AKM_REG_ASTC        (0x0C)
 451:DMP/driver/eMPL/inv_mpu.c **** #define AKM_REG_ASAX        (0x10)
 452:DMP/driver/eMPL/inv_mpu.c **** #define AKM_REG_ASAY        (0x11)
 453:DMP/driver/eMPL/inv_mpu.c **** #define AKM_REG_ASAZ        (0x12)
 454:DMP/driver/eMPL/inv_mpu.c **** 
 455:DMP/driver/eMPL/inv_mpu.c **** #define AKM_DATA_READY      (0x01)
 456:DMP/driver/eMPL/inv_mpu.c **** #define AKM_DATA_OVERRUN    (0x02)
 457:DMP/driver/eMPL/inv_mpu.c **** #define AKM_OVERFLOW        (0x80)
 458:DMP/driver/eMPL/inv_mpu.c **** #define AKM_DATA_ERROR      (0x40)
 459:DMP/driver/eMPL/inv_mpu.c **** 
 460:DMP/driver/eMPL/inv_mpu.c **** #define AKM_BIT_SELF_TEST   (0x40)
 461:DMP/driver/eMPL/inv_mpu.c **** 
 462:DMP/driver/eMPL/inv_mpu.c **** #define AKM_POWER_DOWN          (0x00 | SUPPORTS_AK89xx_HIGH_SENS)
 463:DMP/driver/eMPL/inv_mpu.c **** #define AKM_SINGLE_MEASUREMENT  (0x01 | SUPPORTS_AK89xx_HIGH_SENS)
 464:DMP/driver/eMPL/inv_mpu.c **** #define AKM_FUSE_ROM_ACCESS     (0x0F | SUPPORTS_AK89xx_HIGH_SENS)
 465:DMP/driver/eMPL/inv_mpu.c **** #define AKM_MODE_SELF_TEST      (0x08 | SUPPORTS_AK89xx_HIGH_SENS)
 466:DMP/driver/eMPL/inv_mpu.c **** 
 467:DMP/driver/eMPL/inv_mpu.c **** #define AKM_WHOAMI      (0x48)
 468:DMP/driver/eMPL/inv_mpu.c **** #endif
 469:DMP/driver/eMPL/inv_mpu.c **** 
 470:DMP/driver/eMPL/inv_mpu.c **** #if defined MPU6050
 471:DMP/driver/eMPL/inv_mpu.c **** const struct gyro_reg_s reg = {
 472:DMP/driver/eMPL/inv_mpu.c ****     .who_am_i       = 0x75,
 473:DMP/driver/eMPL/inv_mpu.c ****     .rate_div       = 0x19,
 474:DMP/driver/eMPL/inv_mpu.c ****     .lpf            = 0x1A,
 475:DMP/driver/eMPL/inv_mpu.c ****     .prod_id        = 0x0C,
 476:DMP/driver/eMPL/inv_mpu.c ****     .user_ctrl      = 0x6A,
 477:DMP/driver/eMPL/inv_mpu.c ****     .fifo_en        = 0x23,
 478:DMP/driver/eMPL/inv_mpu.c ****     .gyro_cfg       = 0x1B,
 479:DMP/driver/eMPL/inv_mpu.c ****     .accel_cfg      = 0x1C,
 480:DMP/driver/eMPL/inv_mpu.c ****     .motion_thr     = 0x1F,
 481:DMP/driver/eMPL/inv_mpu.c ****     .motion_dur     = 0x20,
 482:DMP/driver/eMPL/inv_mpu.c ****     .fifo_count_h   = 0x72,
 483:DMP/driver/eMPL/inv_mpu.c ****     .fifo_r_w       = 0x74,
 484:DMP/driver/eMPL/inv_mpu.c ****     .raw_gyro       = 0x43,
 485:DMP/driver/eMPL/inv_mpu.c ****     .raw_accel      = 0x3B,
 486:DMP/driver/eMPL/inv_mpu.c ****     .temp           = 0x41,
ARM GAS  /var/folders/21/t9g5rlb91ys800n5npymflf80000gn/T//cclZ9YEQ.s 			page 10


 487:DMP/driver/eMPL/inv_mpu.c ****     .int_enable     = 0x38,
 488:DMP/driver/eMPL/inv_mpu.c ****     .dmp_int_status = 0x39,
 489:DMP/driver/eMPL/inv_mpu.c ****     .int_status     = 0x3A,
 490:DMP/driver/eMPL/inv_mpu.c ****     .pwr_mgmt_1     = 0x6B,
 491:DMP/driver/eMPL/inv_mpu.c ****     .pwr_mgmt_2     = 0x6C,
 492:DMP/driver/eMPL/inv_mpu.c ****     .int_pin_cfg    = 0x37,
 493:DMP/driver/eMPL/inv_mpu.c ****     .mem_r_w        = 0x6F,
 494:DMP/driver/eMPL/inv_mpu.c ****     .accel_offs     = 0x06,
 495:DMP/driver/eMPL/inv_mpu.c ****     .i2c_mst        = 0x24,
 496:DMP/driver/eMPL/inv_mpu.c ****     .bank_sel       = 0x6D,
 497:DMP/driver/eMPL/inv_mpu.c ****     .mem_start_addr = 0x6E,
 498:DMP/driver/eMPL/inv_mpu.c ****     .prgm_start_h   = 0x70
 499:DMP/driver/eMPL/inv_mpu.c **** #ifdef AK89xx_SECONDARY
 500:DMP/driver/eMPL/inv_mpu.c ****     ,.raw_compass   = 0x49,
 501:DMP/driver/eMPL/inv_mpu.c ****     .yg_offs_tc     = 0x01,
 502:DMP/driver/eMPL/inv_mpu.c ****     .s0_addr        = 0x25,
 503:DMP/driver/eMPL/inv_mpu.c ****     .s0_reg         = 0x26,
 504:DMP/driver/eMPL/inv_mpu.c ****     .s0_ctrl        = 0x27,
 505:DMP/driver/eMPL/inv_mpu.c ****     .s1_addr        = 0x28,
 506:DMP/driver/eMPL/inv_mpu.c ****     .s1_reg         = 0x29,
 507:DMP/driver/eMPL/inv_mpu.c ****     .s1_ctrl        = 0x2A,
 508:DMP/driver/eMPL/inv_mpu.c ****     .s4_ctrl        = 0x34,
 509:DMP/driver/eMPL/inv_mpu.c ****     .s0_do          = 0x63,
 510:DMP/driver/eMPL/inv_mpu.c ****     .s1_do          = 0x64,
 511:DMP/driver/eMPL/inv_mpu.c ****     .i2c_delay_ctrl = 0x67
 512:DMP/driver/eMPL/inv_mpu.c **** #endif
 513:DMP/driver/eMPL/inv_mpu.c **** };
 514:DMP/driver/eMPL/inv_mpu.c **** const struct hw_s hw = {
 515:DMP/driver/eMPL/inv_mpu.c ****     .addr           = 0x68,
 516:DMP/driver/eMPL/inv_mpu.c ****     .max_fifo       = 1024,
 517:DMP/driver/eMPL/inv_mpu.c ****     .num_reg        = 118,
 518:DMP/driver/eMPL/inv_mpu.c ****     .temp_sens      = 340,
 519:DMP/driver/eMPL/inv_mpu.c ****     .temp_offset    = -521,
 520:DMP/driver/eMPL/inv_mpu.c ****     .bank_size      = 256
 521:DMP/driver/eMPL/inv_mpu.c **** #if defined AK89xx_SECONDARY
 522:DMP/driver/eMPL/inv_mpu.c ****     ,.compass_fsr    = AK89xx_FSR
 523:DMP/driver/eMPL/inv_mpu.c **** #endif
 524:DMP/driver/eMPL/inv_mpu.c **** };
 525:DMP/driver/eMPL/inv_mpu.c **** 
 526:DMP/driver/eMPL/inv_mpu.c **** const struct test_s test = {
 527:DMP/driver/eMPL/inv_mpu.c ****     .gyro_sens      = 32768/250,
 528:DMP/driver/eMPL/inv_mpu.c ****     .accel_sens     = 32768/16,
 529:DMP/driver/eMPL/inv_mpu.c ****     .reg_rate_div   = 0,    /* 1kHz. */
 530:DMP/driver/eMPL/inv_mpu.c ****     .reg_lpf        = 1,    /* 188Hz. */
 531:DMP/driver/eMPL/inv_mpu.c ****     .reg_gyro_fsr   = 0,    /* 250dps. */
 532:DMP/driver/eMPL/inv_mpu.c ****     .reg_accel_fsr  = 0x18, /* 16g. */
 533:DMP/driver/eMPL/inv_mpu.c ****     .wait_ms        = 50,
 534:DMP/driver/eMPL/inv_mpu.c ****     .packet_thresh  = 5,    /* 5% */
 535:DMP/driver/eMPL/inv_mpu.c ****     .min_dps        = 10.f,
 536:DMP/driver/eMPL/inv_mpu.c ****     .max_dps        = 105.f,
 537:DMP/driver/eMPL/inv_mpu.c ****     .max_gyro_var   = 0.14f,
 538:DMP/driver/eMPL/inv_mpu.c ****     .min_g          = 0.3f,
 539:DMP/driver/eMPL/inv_mpu.c ****     .max_g          = 0.95f,
 540:DMP/driver/eMPL/inv_mpu.c ****     .max_accel_var  = 0.14f
 541:DMP/driver/eMPL/inv_mpu.c **** };
 542:DMP/driver/eMPL/inv_mpu.c **** 
 543:DMP/driver/eMPL/inv_mpu.c **** static struct gyro_state_s st = {
ARM GAS  /var/folders/21/t9g5rlb91ys800n5npymflf80000gn/T//cclZ9YEQ.s 			page 11


 544:DMP/driver/eMPL/inv_mpu.c ****     .reg = &reg,
 545:DMP/driver/eMPL/inv_mpu.c ****     .hw = &hw,
 546:DMP/driver/eMPL/inv_mpu.c ****     .test = &test
 547:DMP/driver/eMPL/inv_mpu.c **** };
 548:DMP/driver/eMPL/inv_mpu.c **** #elif defined MPU6500
 549:DMP/driver/eMPL/inv_mpu.c **** const struct gyro_reg_s reg = {
 550:DMP/driver/eMPL/inv_mpu.c ****     .who_am_i       = 0x75,
 551:DMP/driver/eMPL/inv_mpu.c ****     .rate_div       = 0x19,
 552:DMP/driver/eMPL/inv_mpu.c ****     .lpf            = 0x1A,
 553:DMP/driver/eMPL/inv_mpu.c ****     .prod_id        = 0x0C,
 554:DMP/driver/eMPL/inv_mpu.c ****     .user_ctrl      = 0x6A,
 555:DMP/driver/eMPL/inv_mpu.c ****     .fifo_en        = 0x23,
 556:DMP/driver/eMPL/inv_mpu.c ****     .gyro_cfg       = 0x1B,
 557:DMP/driver/eMPL/inv_mpu.c ****     .accel_cfg      = 0x1C,
 558:DMP/driver/eMPL/inv_mpu.c ****     .accel_cfg2     = 0x1D,
 559:DMP/driver/eMPL/inv_mpu.c ****     .lp_accel_odr   = 0x1E,
 560:DMP/driver/eMPL/inv_mpu.c ****     .motion_thr     = 0x1F,
 561:DMP/driver/eMPL/inv_mpu.c ****     .motion_dur     = 0x20,
 562:DMP/driver/eMPL/inv_mpu.c ****     .fifo_count_h   = 0x72,
 563:DMP/driver/eMPL/inv_mpu.c ****     .fifo_r_w       = 0x74,
 564:DMP/driver/eMPL/inv_mpu.c ****     .raw_gyro       = 0x43,
 565:DMP/driver/eMPL/inv_mpu.c ****     .raw_accel      = 0x3B,
 566:DMP/driver/eMPL/inv_mpu.c ****     .temp           = 0x41,
 567:DMP/driver/eMPL/inv_mpu.c ****     .int_enable     = 0x38,
 568:DMP/driver/eMPL/inv_mpu.c ****     .dmp_int_status = 0x39,
 569:DMP/driver/eMPL/inv_mpu.c ****     .int_status     = 0x3A,
 570:DMP/driver/eMPL/inv_mpu.c ****     .accel_intel    = 0x69,
 571:DMP/driver/eMPL/inv_mpu.c ****     .pwr_mgmt_1     = 0x6B,
 572:DMP/driver/eMPL/inv_mpu.c ****     .pwr_mgmt_2     = 0x6C,
 573:DMP/driver/eMPL/inv_mpu.c ****     .int_pin_cfg    = 0x37,
 574:DMP/driver/eMPL/inv_mpu.c ****     .mem_r_w        = 0x6F,
 575:DMP/driver/eMPL/inv_mpu.c ****     .accel_offs     = 0x77,
 576:DMP/driver/eMPL/inv_mpu.c ****     .i2c_mst        = 0x24,
 577:DMP/driver/eMPL/inv_mpu.c ****     .bank_sel       = 0x6D,
 578:DMP/driver/eMPL/inv_mpu.c ****     .mem_start_addr = 0x6E,
 579:DMP/driver/eMPL/inv_mpu.c ****     .prgm_start_h   = 0x70
 580:DMP/driver/eMPL/inv_mpu.c **** #ifdef AK89xx_SECONDARY
 581:DMP/driver/eMPL/inv_mpu.c ****     ,.raw_compass   = 0x49,
 582:DMP/driver/eMPL/inv_mpu.c ****     .s0_addr        = 0x25,
 583:DMP/driver/eMPL/inv_mpu.c ****     .s0_reg         = 0x26,
 584:DMP/driver/eMPL/inv_mpu.c ****     .s0_ctrl        = 0x27,
 585:DMP/driver/eMPL/inv_mpu.c ****     .s1_addr        = 0x28,
 586:DMP/driver/eMPL/inv_mpu.c ****     .s1_reg         = 0x29,
 587:DMP/driver/eMPL/inv_mpu.c ****     .s1_ctrl        = 0x2A,
 588:DMP/driver/eMPL/inv_mpu.c ****     .s4_ctrl        = 0x34,
 589:DMP/driver/eMPL/inv_mpu.c ****     .s0_do          = 0x63,
 590:DMP/driver/eMPL/inv_mpu.c ****     .s1_do          = 0x64,
 591:DMP/driver/eMPL/inv_mpu.c ****     .i2c_delay_ctrl = 0x67
 592:DMP/driver/eMPL/inv_mpu.c **** #endif
 593:DMP/driver/eMPL/inv_mpu.c **** };
 594:DMP/driver/eMPL/inv_mpu.c **** const struct hw_s hw = {
 595:DMP/driver/eMPL/inv_mpu.c ****     .addr           = 0x68,
 596:DMP/driver/eMPL/inv_mpu.c ****     .max_fifo       = 1024,
 597:DMP/driver/eMPL/inv_mpu.c ****     .num_reg        = 128,
 598:DMP/driver/eMPL/inv_mpu.c ****     .temp_sens      = 321,
 599:DMP/driver/eMPL/inv_mpu.c ****     .temp_offset    = 0,
 600:DMP/driver/eMPL/inv_mpu.c ****     .bank_size      = 256
ARM GAS  /var/folders/21/t9g5rlb91ys800n5npymflf80000gn/T//cclZ9YEQ.s 			page 12


 601:DMP/driver/eMPL/inv_mpu.c **** #if defined AK89xx_SECONDARY
 602:DMP/driver/eMPL/inv_mpu.c ****     ,.compass_fsr    = AK89xx_FSR
 603:DMP/driver/eMPL/inv_mpu.c **** #endif
 604:DMP/driver/eMPL/inv_mpu.c **** };
 605:DMP/driver/eMPL/inv_mpu.c **** 
 606:DMP/driver/eMPL/inv_mpu.c **** const struct test_s test = {
 607:DMP/driver/eMPL/inv_mpu.c ****     .gyro_sens      = 32768/250,
 608:DMP/driver/eMPL/inv_mpu.c ****     .accel_sens     = 32768/2,  //FSR = +-2G = 16384 LSB/G
 609:DMP/driver/eMPL/inv_mpu.c ****     .reg_rate_div   = 0,    /* 1kHz. */
 610:DMP/driver/eMPL/inv_mpu.c ****     .reg_lpf        = 2,    /* 92Hz low pass filter*/
 611:DMP/driver/eMPL/inv_mpu.c ****     .reg_gyro_fsr   = 0,    /* 250dps. */
 612:DMP/driver/eMPL/inv_mpu.c ****     .reg_accel_fsr  = 0x0,  /* Accel FSR setting = 2g. */
 613:DMP/driver/eMPL/inv_mpu.c ****     .wait_ms        = 200,   //200ms stabilization time
 614:DMP/driver/eMPL/inv_mpu.c ****     .packet_thresh  = 200,    /* 200 samples */
 615:DMP/driver/eMPL/inv_mpu.c ****     .min_dps        = 20.f,  //20 dps for Gyro Criteria C
 616:DMP/driver/eMPL/inv_mpu.c ****     .max_dps        = 60.f, //Must exceed 60 dps threshold for Gyro Criteria B
 617:DMP/driver/eMPL/inv_mpu.c ****     .max_gyro_var   = .5f, //Must exceed +50% variation for Gyro Criteria A
 618:DMP/driver/eMPL/inv_mpu.c ****     .min_g          = .225f, //Accel must exceed Min 225 mg for Criteria B
 619:DMP/driver/eMPL/inv_mpu.c ****     .max_g          = .675f, //Accel cannot exceed Max 675 mg for Criteria B
 620:DMP/driver/eMPL/inv_mpu.c ****     .max_accel_var  = .5f,  //Accel must be within 50% variation for Criteria A
 621:DMP/driver/eMPL/inv_mpu.c ****     .max_g_offset   = .5f,   //500 mg for Accel Criteria C
 622:DMP/driver/eMPL/inv_mpu.c ****     .sample_wait_ms = 10    //10ms sample time wait
 623:DMP/driver/eMPL/inv_mpu.c **** };
 624:DMP/driver/eMPL/inv_mpu.c **** 
 625:DMP/driver/eMPL/inv_mpu.c **** static struct gyro_state_s st = {
 626:DMP/driver/eMPL/inv_mpu.c ****     .reg = &reg,
 627:DMP/driver/eMPL/inv_mpu.c ****     .hw = &hw,
 628:DMP/driver/eMPL/inv_mpu.c ****     .test = &test
 629:DMP/driver/eMPL/inv_mpu.c **** };
 630:DMP/driver/eMPL/inv_mpu.c **** #endif
 631:DMP/driver/eMPL/inv_mpu.c **** 
 632:DMP/driver/eMPL/inv_mpu.c **** #define MAX_PACKET_LENGTH (12)
 633:DMP/driver/eMPL/inv_mpu.c **** #ifdef MPU6500
 634:DMP/driver/eMPL/inv_mpu.c **** #define HWST_MAX_PACKET_LENGTH (512)
 635:DMP/driver/eMPL/inv_mpu.c **** #endif
 636:DMP/driver/eMPL/inv_mpu.c **** 
 637:DMP/driver/eMPL/inv_mpu.c **** #ifdef AK89xx_SECONDARY
 638:DMP/driver/eMPL/inv_mpu.c **** static int setup_compass(void);
 639:DMP/driver/eMPL/inv_mpu.c **** #define MAX_COMPASS_SAMPLE_RATE (100)
 640:DMP/driver/eMPL/inv_mpu.c **** #endif
 641:DMP/driver/eMPL/inv_mpu.c **** 
 642:DMP/driver/eMPL/inv_mpu.c **** /**
 643:DMP/driver/eMPL/inv_mpu.c ****  *  @brief      Enable/disable data ready interrupt.
 644:DMP/driver/eMPL/inv_mpu.c ****  *  If the DMP is on, the DMP interrupt is enabled. Otherwise, the data ready
 645:DMP/driver/eMPL/inv_mpu.c ****  *  interrupt is used.
 646:DMP/driver/eMPL/inv_mpu.c ****  *  @param[in]  enable      1 to enable interrupt.
 647:DMP/driver/eMPL/inv_mpu.c ****  *  @return     0 if successful.
 648:DMP/driver/eMPL/inv_mpu.c ****  */
 649:DMP/driver/eMPL/inv_mpu.c **** static int set_int_enable(unsigned char enable)
 650:DMP/driver/eMPL/inv_mpu.c **** {
  29              		.loc 1 650 1 view -0
  30              		.cfi_startproc
  31              		@ args = 0, pretend = 0, frame = 8
  32              		@ frame_needed = 0, uses_anonymous_args = 0
  33              		.loc 1 650 1 is_stmt 0 view .LVU1
  34 0000 00B5     		push	{lr}
  35              	.LCFI0:
ARM GAS  /var/folders/21/t9g5rlb91ys800n5npymflf80000gn/T//cclZ9YEQ.s 			page 13


  36              		.cfi_def_cfa_offset 4
  37              		.cfi_offset 14, -4
  38 0002 83B0     		sub	sp, sp, #12
  39              	.LCFI1:
  40              		.cfi_def_cfa_offset 16
 651:DMP/driver/eMPL/inv_mpu.c ****     unsigned char tmp;
  41              		.loc 1 651 5 is_stmt 1 view .LVU2
 652:DMP/driver/eMPL/inv_mpu.c **** 
 653:DMP/driver/eMPL/inv_mpu.c ****     if (st.chip_cfg.dmp_on) {
  42              		.loc 1 653 5 view .LVU3
  43              		.loc 1 653 20 is_stmt 0 view .LVU4
  44 0004 234B     		ldr	r3, .L13
  45 0006 93F82430 		ldrb	r3, [r3, #36]	@ zero_extendqisi2
  46              		.loc 1 653 8 view .LVU5
  47 000a CBB1     		cbz	r3, .L2
 654:DMP/driver/eMPL/inv_mpu.c ****         if (enable)
  48              		.loc 1 654 9 is_stmt 1 view .LVU6
  49              		.loc 1 654 12 is_stmt 0 view .LVU7
  50 000c A0B1     		cbz	r0, .L3
 655:DMP/driver/eMPL/inv_mpu.c ****             tmp = BIT_DMP_INT_EN;
  51              		.loc 1 655 13 is_stmt 1 view .LVU8
  52              		.loc 1 655 17 is_stmt 0 view .LVU9
  53 000e 0223     		movs	r3, #2
  54 0010 8DF80730 		strb	r3, [sp, #7]
  55              	.L4:
 656:DMP/driver/eMPL/inv_mpu.c ****         else
 657:DMP/driver/eMPL/inv_mpu.c ****             tmp = 0x00;
 658:DMP/driver/eMPL/inv_mpu.c ****         if (i2c_write(st.hw->addr, st.reg->int_enable, 1, &tmp))
  56              		.loc 1 658 9 is_stmt 1 view .LVU10
  57              		.loc 1 658 25 is_stmt 0 view .LVU11
  58 0014 1F4B     		ldr	r3, .L13
  59 0016 5868     		ldr	r0, [r3, #4]
  60              	.LVL1:
  61              		.loc 1 658 38 view .LVU12
  62 0018 1968     		ldr	r1, [r3]
  63              		.loc 1 658 13 view .LVU13
  64 001a 0DF10703 		add	r3, sp, #7
  65 001e 0122     		movs	r2, #1
  66 0020 497C     		ldrb	r1, [r1, #17]	@ zero_extendqisi2
  67 0022 0078     		ldrb	r0, [r0]	@ zero_extendqisi2
  68 0024 FFF7FEFF 		bl	MPU_Write_Len
  69              	.LVL2:
  70              		.loc 1 658 12 view .LVU14
  71 0028 40BB     		cbnz	r0, .L8
 659:DMP/driver/eMPL/inv_mpu.c ****             return -1;
 660:DMP/driver/eMPL/inv_mpu.c ****         st.chip_cfg.int_enable = tmp;
  72              		.loc 1 660 9 is_stmt 1 view .LVU15
  73              		.loc 1 660 32 is_stmt 0 view .LVU16
  74 002a 9DF80720 		ldrb	r2, [sp, #7]	@ zero_extendqisi2
  75 002e 194B     		ldr	r3, .L13
  76 0030 5A74     		strb	r2, [r3, #17]
  77              	.L1:
 661:DMP/driver/eMPL/inv_mpu.c ****     } else {
 662:DMP/driver/eMPL/inv_mpu.c ****         if (!st.chip_cfg.sensors)
 663:DMP/driver/eMPL/inv_mpu.c ****             return -1;
 664:DMP/driver/eMPL/inv_mpu.c ****         if (enable && st.chip_cfg.int_enable)
 665:DMP/driver/eMPL/inv_mpu.c ****             return 0;
ARM GAS  /var/folders/21/t9g5rlb91ys800n5npymflf80000gn/T//cclZ9YEQ.s 			page 14


 666:DMP/driver/eMPL/inv_mpu.c ****         if (enable)
 667:DMP/driver/eMPL/inv_mpu.c ****             tmp = BIT_DATA_RDY_EN;
 668:DMP/driver/eMPL/inv_mpu.c ****         else
 669:DMP/driver/eMPL/inv_mpu.c ****             tmp = 0x00;
 670:DMP/driver/eMPL/inv_mpu.c ****         if (i2c_write(st.hw->addr, st.reg->int_enable, 1, &tmp))
 671:DMP/driver/eMPL/inv_mpu.c ****             return -1;
 672:DMP/driver/eMPL/inv_mpu.c ****         st.chip_cfg.int_enable = tmp;
 673:DMP/driver/eMPL/inv_mpu.c ****     }
 674:DMP/driver/eMPL/inv_mpu.c ****     return 0;
 675:DMP/driver/eMPL/inv_mpu.c **** }
  78              		.loc 1 675 1 view .LVU17
  79 0032 03B0     		add	sp, sp, #12
  80              	.LCFI2:
  81              		.cfi_remember_state
  82              		.cfi_def_cfa_offset 4
  83              		@ sp needed
  84 0034 5DF804FB 		ldr	pc, [sp], #4
  85              	.LVL3:
  86              	.L3:
  87              	.LCFI3:
  88              		.cfi_restore_state
 657:DMP/driver/eMPL/inv_mpu.c ****         if (i2c_write(st.hw->addr, st.reg->int_enable, 1, &tmp))
  89              		.loc 1 657 13 is_stmt 1 view .LVU18
 657:DMP/driver/eMPL/inv_mpu.c ****         if (i2c_write(st.hw->addr, st.reg->int_enable, 1, &tmp))
  90              		.loc 1 657 17 is_stmt 0 view .LVU19
  91 0038 0023     		movs	r3, #0
  92 003a 8DF80730 		strb	r3, [sp, #7]
  93 003e E9E7     		b	.L4
  94              	.L2:
 662:DMP/driver/eMPL/inv_mpu.c ****             return -1;
  95              		.loc 1 662 9 is_stmt 1 view .LVU20
 662:DMP/driver/eMPL/inv_mpu.c ****             return -1;
  96              		.loc 1 662 25 is_stmt 0 view .LVU21
  97 0040 144B     		ldr	r3, .L13
  98 0042 9B7A     		ldrb	r3, [r3, #10]	@ zero_extendqisi2
 662:DMP/driver/eMPL/inv_mpu.c ****             return -1;
  99              		.loc 1 662 12 view .LVU22
 100 0044 EBB1     		cbz	r3, .L9
 664:DMP/driver/eMPL/inv_mpu.c ****             return 0;
 101              		.loc 1 664 9 is_stmt 1 view .LVU23
 664:DMP/driver/eMPL/inv_mpu.c ****             return 0;
 102              		.loc 1 664 12 is_stmt 0 view .LVU24
 103 0046 30B1     		cbz	r0, .L6
 664:DMP/driver/eMPL/inv_mpu.c ****             return 0;
 104              		.loc 1 664 34 discriminator 1 view .LVU25
 105 0048 124B     		ldr	r3, .L13
 106 004a 5B7C     		ldrb	r3, [r3, #17]	@ zero_extendqisi2
 664:DMP/driver/eMPL/inv_mpu.c ****             return 0;
 107              		.loc 1 664 20 discriminator 1 view .LVU26
 108 004c E3B9     		cbnz	r3, .L10
 666:DMP/driver/eMPL/inv_mpu.c ****             tmp = BIT_DATA_RDY_EN;
 109              		.loc 1 666 9 is_stmt 1 view .LVU27
 667:DMP/driver/eMPL/inv_mpu.c ****         else
 110              		.loc 1 667 13 view .LVU28
 667:DMP/driver/eMPL/inv_mpu.c ****         else
 111              		.loc 1 667 17 is_stmt 0 view .LVU29
 112 004e 0123     		movs	r3, #1
ARM GAS  /var/folders/21/t9g5rlb91ys800n5npymflf80000gn/T//cclZ9YEQ.s 			page 15


 113 0050 8DF80730 		strb	r3, [sp, #7]
 114 0054 02E0     		b	.L7
 115              	.L6:
 669:DMP/driver/eMPL/inv_mpu.c ****         if (i2c_write(st.hw->addr, st.reg->int_enable, 1, &tmp))
 116              		.loc 1 669 13 is_stmt 1 view .LVU30
 669:DMP/driver/eMPL/inv_mpu.c ****         if (i2c_write(st.hw->addr, st.reg->int_enable, 1, &tmp))
 117              		.loc 1 669 17 is_stmt 0 view .LVU31
 118 0056 0023     		movs	r3, #0
 119 0058 8DF80730 		strb	r3, [sp, #7]
 120              	.L7:
 670:DMP/driver/eMPL/inv_mpu.c ****             return -1;
 121              		.loc 1 670 9 is_stmt 1 view .LVU32
 670:DMP/driver/eMPL/inv_mpu.c ****             return -1;
 122              		.loc 1 670 25 is_stmt 0 view .LVU33
 123 005c 0D4B     		ldr	r3, .L13
 124 005e 5868     		ldr	r0, [r3, #4]
 125              	.LVL4:
 670:DMP/driver/eMPL/inv_mpu.c ****             return -1;
 126              		.loc 1 670 38 view .LVU34
 127 0060 1968     		ldr	r1, [r3]
 670:DMP/driver/eMPL/inv_mpu.c ****             return -1;
 128              		.loc 1 670 13 view .LVU35
 129 0062 0DF10703 		add	r3, sp, #7
 130 0066 0122     		movs	r2, #1
 131 0068 497C     		ldrb	r1, [r1, #17]	@ zero_extendqisi2
 132 006a 0078     		ldrb	r0, [r0]	@ zero_extendqisi2
 133 006c FFF7FEFF 		bl	MPU_Write_Len
 134              	.LVL5:
 670:DMP/driver/eMPL/inv_mpu.c ****             return -1;
 135              		.loc 1 670 12 view .LVU36
 136 0070 60B9     		cbnz	r0, .L11
 672:DMP/driver/eMPL/inv_mpu.c ****     }
 137              		.loc 1 672 9 is_stmt 1 view .LVU37
 672:DMP/driver/eMPL/inv_mpu.c ****     }
 138              		.loc 1 672 32 is_stmt 0 view .LVU38
 139 0072 9DF80720 		ldrb	r2, [sp, #7]	@ zero_extendqisi2
 140 0076 074B     		ldr	r3, .L13
 141 0078 5A74     		strb	r2, [r3, #17]
 142 007a DAE7     		b	.L1
 143              	.L8:
 659:DMP/driver/eMPL/inv_mpu.c ****         st.chip_cfg.int_enable = tmp;
 144              		.loc 1 659 20 view .LVU39
 145 007c 4FF0FF30 		mov	r0, #-1
 146 0080 D7E7     		b	.L1
 147              	.LVL6:
 148              	.L9:
 663:DMP/driver/eMPL/inv_mpu.c ****         if (enable && st.chip_cfg.int_enable)
 149              		.loc 1 663 20 view .LVU40
 150 0082 4FF0FF30 		mov	r0, #-1
 151              	.LVL7:
 663:DMP/driver/eMPL/inv_mpu.c ****         if (enable && st.chip_cfg.int_enable)
 152              		.loc 1 663 20 view .LVU41
 153 0086 D4E7     		b	.L1
 154              	.LVL8:
 155              	.L10:
 665:DMP/driver/eMPL/inv_mpu.c ****         if (enable)
 156              		.loc 1 665 20 view .LVU42
ARM GAS  /var/folders/21/t9g5rlb91ys800n5npymflf80000gn/T//cclZ9YEQ.s 			page 16


 157 0088 0020     		movs	r0, #0
 158              	.LVL9:
 665:DMP/driver/eMPL/inv_mpu.c ****         if (enable)
 159              		.loc 1 665 20 view .LVU43
 160 008a D2E7     		b	.L1
 161              	.L11:
 671:DMP/driver/eMPL/inv_mpu.c ****         st.chip_cfg.int_enable = tmp;
 162              		.loc 1 671 20 view .LVU44
 163 008c 4FF0FF30 		mov	r0, #-1
 164 0090 CFE7     		b	.L1
 165              	.L14:
 166 0092 00BF     		.align	2
 167              	.L13:
 168 0094 00000000 		.word	st
 169              		.cfi_endproc
 170              	.LFE167:
 172              		.global	__aeabi_ldivmod
 173              		.section	.text.get_st_biases,"ax",%progbits
 174              		.align	1
 175              		.syntax unified
 176              		.thumb
 177              		.thumb_func
 179              	get_st_biases:
 180              	.LVL10:
 181              	.LFB205:
 676:DMP/driver/eMPL/inv_mpu.c **** 
 677:DMP/driver/eMPL/inv_mpu.c **** /**
 678:DMP/driver/eMPL/inv_mpu.c ****  *  @brief      Register dump for testing.
 679:DMP/driver/eMPL/inv_mpu.c ****  *  @return     0 if successful.
 680:DMP/driver/eMPL/inv_mpu.c ****  */
 681:DMP/driver/eMPL/inv_mpu.c **** int mpu_reg_dump(void)
 682:DMP/driver/eMPL/inv_mpu.c **** {
 683:DMP/driver/eMPL/inv_mpu.c ****     unsigned char ii;
 684:DMP/driver/eMPL/inv_mpu.c ****     unsigned char data;
 685:DMP/driver/eMPL/inv_mpu.c **** 
 686:DMP/driver/eMPL/inv_mpu.c ****     for (ii = 0; ii < st.hw->num_reg; ii++) {
 687:DMP/driver/eMPL/inv_mpu.c ****         if (ii == st.reg->fifo_r_w || ii == st.reg->mem_r_w)
 688:DMP/driver/eMPL/inv_mpu.c ****             continue;
 689:DMP/driver/eMPL/inv_mpu.c ****         if (i2c_read(st.hw->addr, ii, 1, &data))
 690:DMP/driver/eMPL/inv_mpu.c ****             return -1;
 691:DMP/driver/eMPL/inv_mpu.c ****         log_i("%#5x: %#5x\r\n", ii, data);
 692:DMP/driver/eMPL/inv_mpu.c ****     }
 693:DMP/driver/eMPL/inv_mpu.c ****     return 0;
 694:DMP/driver/eMPL/inv_mpu.c **** }
 695:DMP/driver/eMPL/inv_mpu.c **** 
 696:DMP/driver/eMPL/inv_mpu.c **** /**
 697:DMP/driver/eMPL/inv_mpu.c ****  *  @brief      Read from a single register.
 698:DMP/driver/eMPL/inv_mpu.c ****  *  NOTE: The memory and FIFO read/write registers cannot be accessed.
 699:DMP/driver/eMPL/inv_mpu.c ****  *  @param[in]  reg     Register address.
 700:DMP/driver/eMPL/inv_mpu.c ****  *  @param[out] data    Register data.
 701:DMP/driver/eMPL/inv_mpu.c ****  *  @return     0 if successful.
 702:DMP/driver/eMPL/inv_mpu.c ****  */
 703:DMP/driver/eMPL/inv_mpu.c **** int mpu_read_reg(unsigned char reg, unsigned char *data)
 704:DMP/driver/eMPL/inv_mpu.c **** {
 705:DMP/driver/eMPL/inv_mpu.c ****     if (reg == st.reg->fifo_r_w || reg == st.reg->mem_r_w)
 706:DMP/driver/eMPL/inv_mpu.c ****         return -1;
 707:DMP/driver/eMPL/inv_mpu.c ****     if (reg >= st.hw->num_reg)
ARM GAS  /var/folders/21/t9g5rlb91ys800n5npymflf80000gn/T//cclZ9YEQ.s 			page 17


 708:DMP/driver/eMPL/inv_mpu.c ****         return -1;
 709:DMP/driver/eMPL/inv_mpu.c ****     return i2c_read(st.hw->addr, reg, 1, data);
 710:DMP/driver/eMPL/inv_mpu.c **** }
 711:DMP/driver/eMPL/inv_mpu.c **** 
 712:DMP/driver/eMPL/inv_mpu.c **** /**
 713:DMP/driver/eMPL/inv_mpu.c ****  *  @brief      Initialize hardware.
 714:DMP/driver/eMPL/inv_mpu.c ****  *  Initial configuration:\n
 715:DMP/driver/eMPL/inv_mpu.c ****  *  Gyro FSR: +/- 2000DPS\n
 716:DMP/driver/eMPL/inv_mpu.c ****  *  Accel FSR +/- 2G\n
 717:DMP/driver/eMPL/inv_mpu.c ****  *  DLPF: 42Hz\n
 718:DMP/driver/eMPL/inv_mpu.c ****  *  FIFO rate: 50Hz\n
 719:DMP/driver/eMPL/inv_mpu.c ****  *  Clock source: Gyro PLL\n
 720:DMP/driver/eMPL/inv_mpu.c ****  *  FIFO: Disabled.\n
 721:DMP/driver/eMPL/inv_mpu.c ****  *  Data ready interrupt: Disabled, active low, unlatched.
 722:DMP/driver/eMPL/inv_mpu.c ****  *  @param[in]  int_param   Platform-specific parameters to interrupt API.
 723:DMP/driver/eMPL/inv_mpu.c ****  *  @return     0 if successful.
 724:DMP/driver/eMPL/inv_mpu.c ****  */
 725:DMP/driver/eMPL/inv_mpu.c **** int mpu_init(struct int_param_s *int_param)
 726:DMP/driver/eMPL/inv_mpu.c **** {
 727:DMP/driver/eMPL/inv_mpu.c ****     unsigned char data[6];
 728:DMP/driver/eMPL/inv_mpu.c **** 
 729:DMP/driver/eMPL/inv_mpu.c ****     /* Reset device. */
 730:DMP/driver/eMPL/inv_mpu.c ****     data[0] = BIT_RESET;
 731:DMP/driver/eMPL/inv_mpu.c ****     if (i2c_write(st.hw->addr, st.reg->pwr_mgmt_1, 1, data))
 732:DMP/driver/eMPL/inv_mpu.c ****         return -1;
 733:DMP/driver/eMPL/inv_mpu.c ****     delay_ms(100);
 734:DMP/driver/eMPL/inv_mpu.c **** 
 735:DMP/driver/eMPL/inv_mpu.c ****     /* Wake up chip. */
 736:DMP/driver/eMPL/inv_mpu.c ****     data[0] = 0x00;
 737:DMP/driver/eMPL/inv_mpu.c ****     if (i2c_write(st.hw->addr, st.reg->pwr_mgmt_1, 1, data))
 738:DMP/driver/eMPL/inv_mpu.c ****         return -1;
 739:DMP/driver/eMPL/inv_mpu.c **** 
 740:DMP/driver/eMPL/inv_mpu.c ****    st.chip_cfg.accel_half = 0;
 741:DMP/driver/eMPL/inv_mpu.c **** 
 742:DMP/driver/eMPL/inv_mpu.c **** #ifdef MPU6500
 743:DMP/driver/eMPL/inv_mpu.c ****     /* MPU6500 shares 4kB of memory between the DMP and the FIFO. Since the
 744:DMP/driver/eMPL/inv_mpu.c ****      * first 3kB are needed by the DMP, we'll use the last 1kB for the FIFO.
 745:DMP/driver/eMPL/inv_mpu.c ****      */
 746:DMP/driver/eMPL/inv_mpu.c ****     data[0] = BIT_FIFO_SIZE_1024 | 0x8;
 747:DMP/driver/eMPL/inv_mpu.c ****     if (i2c_write(st.hw->addr, st.reg->accel_cfg2, 1, data))
 748:DMP/driver/eMPL/inv_mpu.c ****         return -1;
 749:DMP/driver/eMPL/inv_mpu.c **** #endif
 750:DMP/driver/eMPL/inv_mpu.c **** 
 751:DMP/driver/eMPL/inv_mpu.c ****     /* Set to invalid values to ensure no I2C writes are skipped. */
 752:DMP/driver/eMPL/inv_mpu.c ****     st.chip_cfg.sensors = 0xFF;
 753:DMP/driver/eMPL/inv_mpu.c ****     st.chip_cfg.gyro_fsr = 0xFF;
 754:DMP/driver/eMPL/inv_mpu.c ****     st.chip_cfg.accel_fsr = 0xFF;
 755:DMP/driver/eMPL/inv_mpu.c ****     st.chip_cfg.lpf = 0xFF;
 756:DMP/driver/eMPL/inv_mpu.c ****     st.chip_cfg.sample_rate = 0xFFFF;
 757:DMP/driver/eMPL/inv_mpu.c ****     st.chip_cfg.fifo_enable = 0xFF;
 758:DMP/driver/eMPL/inv_mpu.c ****     st.chip_cfg.bypass_mode = 0xFF;
 759:DMP/driver/eMPL/inv_mpu.c **** #ifdef AK89xx_SECONDARY
 760:DMP/driver/eMPL/inv_mpu.c ****     st.chip_cfg.compass_sample_rate = 0xFFFF;
 761:DMP/driver/eMPL/inv_mpu.c **** #endif
 762:DMP/driver/eMPL/inv_mpu.c ****     /* mpu_set_sensors always preserves this setting. */
 763:DMP/driver/eMPL/inv_mpu.c ****     st.chip_cfg.clk_src = INV_CLK_PLL;
 764:DMP/driver/eMPL/inv_mpu.c ****     /* Handled in next call to mpu_set_bypass. */
ARM GAS  /var/folders/21/t9g5rlb91ys800n5npymflf80000gn/T//cclZ9YEQ.s 			page 18


 765:DMP/driver/eMPL/inv_mpu.c ****     st.chip_cfg.active_low_int = 1;
 766:DMP/driver/eMPL/inv_mpu.c ****     st.chip_cfg.latched_int = 0;
 767:DMP/driver/eMPL/inv_mpu.c ****     st.chip_cfg.int_motion_only = 0;
 768:DMP/driver/eMPL/inv_mpu.c ****     st.chip_cfg.lp_accel_mode = 0;
 769:DMP/driver/eMPL/inv_mpu.c ****     memset(&st.chip_cfg.cache, 0, sizeof(st.chip_cfg.cache));
 770:DMP/driver/eMPL/inv_mpu.c ****     st.chip_cfg.dmp_on = 0;
 771:DMP/driver/eMPL/inv_mpu.c ****     st.chip_cfg.dmp_loaded = 0;
 772:DMP/driver/eMPL/inv_mpu.c ****     st.chip_cfg.dmp_sample_rate = 0;
 773:DMP/driver/eMPL/inv_mpu.c **** 
 774:DMP/driver/eMPL/inv_mpu.c ****     if (mpu_set_gyro_fsr(2000))
 775:DMP/driver/eMPL/inv_mpu.c ****         return -1;
 776:DMP/driver/eMPL/inv_mpu.c ****     if (mpu_set_accel_fsr(2))
 777:DMP/driver/eMPL/inv_mpu.c ****         return -1;
 778:DMP/driver/eMPL/inv_mpu.c ****     if (mpu_set_lpf(42))
 779:DMP/driver/eMPL/inv_mpu.c ****         return -1;
 780:DMP/driver/eMPL/inv_mpu.c ****     if (mpu_set_sample_rate(50))
 781:DMP/driver/eMPL/inv_mpu.c ****         return -1;
 782:DMP/driver/eMPL/inv_mpu.c ****     if (mpu_configure_fifo(0))
 783:DMP/driver/eMPL/inv_mpu.c ****         return -1;
 784:DMP/driver/eMPL/inv_mpu.c **** 
 785:DMP/driver/eMPL/inv_mpu.c **** #ifndef EMPL_TARGET_STM32F4    
 786:DMP/driver/eMPL/inv_mpu.c ****     if (int_param)
 787:DMP/driver/eMPL/inv_mpu.c ****         reg_int_cb(int_param);
 788:DMP/driver/eMPL/inv_mpu.c **** #endif
 789:DMP/driver/eMPL/inv_mpu.c **** 
 790:DMP/driver/eMPL/inv_mpu.c **** #ifdef AK89xx_SECONDARY
 791:DMP/driver/eMPL/inv_mpu.c ****     setup_compass();
 792:DMP/driver/eMPL/inv_mpu.c ****     if (mpu_set_compass_sample_rate(10))
 793:DMP/driver/eMPL/inv_mpu.c ****         return -1;
 794:DMP/driver/eMPL/inv_mpu.c **** #else
 795:DMP/driver/eMPL/inv_mpu.c ****     /* Already disabled by setup_compass. */
 796:DMP/driver/eMPL/inv_mpu.c ****     if (mpu_set_bypass(0))
 797:DMP/driver/eMPL/inv_mpu.c ****         return -1;
 798:DMP/driver/eMPL/inv_mpu.c **** #endif
 799:DMP/driver/eMPL/inv_mpu.c **** 
 800:DMP/driver/eMPL/inv_mpu.c ****     mpu_set_sensors(0);
 801:DMP/driver/eMPL/inv_mpu.c ****     return 0;
 802:DMP/driver/eMPL/inv_mpu.c **** }
 803:DMP/driver/eMPL/inv_mpu.c **** 
 804:DMP/driver/eMPL/inv_mpu.c **** /**
 805:DMP/driver/eMPL/inv_mpu.c ****  *  @brief      Enter low-power accel-only mode.
 806:DMP/driver/eMPL/inv_mpu.c ****  *  In low-power accel mode, the chip goes to sleep and only wakes up to sample
 807:DMP/driver/eMPL/inv_mpu.c ****  *  the accelerometer at one of the following frequencies:
 808:DMP/driver/eMPL/inv_mpu.c ****  *  \n MPU6050: 1.25Hz, 5Hz, 20Hz, 40Hz
 809:DMP/driver/eMPL/inv_mpu.c ****  *  \n MPU6500: 1.25Hz, 2.5Hz, 5Hz, 10Hz, 20Hz, 40Hz, 80Hz, 160Hz, 320Hz, 640Hz
 810:DMP/driver/eMPL/inv_mpu.c ****  *  \n If the requested rate is not one listed above, the device will be set to
 811:DMP/driver/eMPL/inv_mpu.c ****  *  the next highest rate. Requesting a rate above the maximum supported
 812:DMP/driver/eMPL/inv_mpu.c ****  *  frequency will result in an error.
 813:DMP/driver/eMPL/inv_mpu.c ****  *  \n To select a fractional wake-up frequency, round down the value passed to
 814:DMP/driver/eMPL/inv_mpu.c ****  *  @e rate.
 815:DMP/driver/eMPL/inv_mpu.c ****  *  @param[in]  rate        Minimum sampling rate, or zero to disable LP
 816:DMP/driver/eMPL/inv_mpu.c ****  *                          accel mode.
 817:DMP/driver/eMPL/inv_mpu.c ****  *  @return     0 if successful.
 818:DMP/driver/eMPL/inv_mpu.c ****  */
 819:DMP/driver/eMPL/inv_mpu.c **** int mpu_lp_accel_mode(unsigned short rate)
 820:DMP/driver/eMPL/inv_mpu.c **** {
 821:DMP/driver/eMPL/inv_mpu.c ****     unsigned char tmp[2];
ARM GAS  /var/folders/21/t9g5rlb91ys800n5npymflf80000gn/T//cclZ9YEQ.s 			page 19


 822:DMP/driver/eMPL/inv_mpu.c **** 
 823:DMP/driver/eMPL/inv_mpu.c ****     if (rate > 40)
 824:DMP/driver/eMPL/inv_mpu.c ****         return -1;
 825:DMP/driver/eMPL/inv_mpu.c **** 
 826:DMP/driver/eMPL/inv_mpu.c ****     if (!rate) {
 827:DMP/driver/eMPL/inv_mpu.c ****         mpu_set_int_latched(0);
 828:DMP/driver/eMPL/inv_mpu.c ****         tmp[0] = 0;
 829:DMP/driver/eMPL/inv_mpu.c ****         tmp[1] = BIT_STBY_XYZG;
 830:DMP/driver/eMPL/inv_mpu.c ****         if (i2c_write(st.hw->addr, st.reg->pwr_mgmt_1, 2, tmp))
 831:DMP/driver/eMPL/inv_mpu.c ****             return -1;
 832:DMP/driver/eMPL/inv_mpu.c ****         st.chip_cfg.lp_accel_mode = 0;
 833:DMP/driver/eMPL/inv_mpu.c ****         return 0;
 834:DMP/driver/eMPL/inv_mpu.c ****     }
 835:DMP/driver/eMPL/inv_mpu.c ****     /* For LP accel, we automatically configure the hardware to produce latched
 836:DMP/driver/eMPL/inv_mpu.c ****      * interrupts. In LP accel mode, the hardware cycles into sleep mode before
 837:DMP/driver/eMPL/inv_mpu.c ****      * it gets a chance to deassert the interrupt pin; therefore, we shift this
 838:DMP/driver/eMPL/inv_mpu.c ****      * responsibility over to the MCU.
 839:DMP/driver/eMPL/inv_mpu.c ****      *
 840:DMP/driver/eMPL/inv_mpu.c ****      * Any register read will clear the interrupt.
 841:DMP/driver/eMPL/inv_mpu.c ****      */
 842:DMP/driver/eMPL/inv_mpu.c ****     mpu_set_int_latched(1);
 843:DMP/driver/eMPL/inv_mpu.c **** #if defined MPU6050
 844:DMP/driver/eMPL/inv_mpu.c ****     tmp[0] = BIT_LPA_CYCLE;
 845:DMP/driver/eMPL/inv_mpu.c ****     if (rate == 1) {
 846:DMP/driver/eMPL/inv_mpu.c ****         tmp[1] = INV_LPA_1_25HZ;
 847:DMP/driver/eMPL/inv_mpu.c ****         mpu_set_lpf(5);
 848:DMP/driver/eMPL/inv_mpu.c ****     } else if (rate <= 5) {
 849:DMP/driver/eMPL/inv_mpu.c ****         tmp[1] = INV_LPA_5HZ;
 850:DMP/driver/eMPL/inv_mpu.c ****         mpu_set_lpf(5);
 851:DMP/driver/eMPL/inv_mpu.c ****     } else if (rate <= 20) {
 852:DMP/driver/eMPL/inv_mpu.c ****         tmp[1] = INV_LPA_20HZ;
 853:DMP/driver/eMPL/inv_mpu.c ****         mpu_set_lpf(10);
 854:DMP/driver/eMPL/inv_mpu.c ****     } else {
 855:DMP/driver/eMPL/inv_mpu.c ****         tmp[1] = INV_LPA_40HZ;
 856:DMP/driver/eMPL/inv_mpu.c ****         mpu_set_lpf(20);
 857:DMP/driver/eMPL/inv_mpu.c ****     }
 858:DMP/driver/eMPL/inv_mpu.c ****     tmp[1] = (tmp[1] << 6) | BIT_STBY_XYZG;
 859:DMP/driver/eMPL/inv_mpu.c ****     if (i2c_write(st.hw->addr, st.reg->pwr_mgmt_1, 2, tmp))
 860:DMP/driver/eMPL/inv_mpu.c ****         return -1;
 861:DMP/driver/eMPL/inv_mpu.c **** #elif defined MPU6500
 862:DMP/driver/eMPL/inv_mpu.c ****     /* Set wake frequency. */
 863:DMP/driver/eMPL/inv_mpu.c ****     if (rate == 1)
 864:DMP/driver/eMPL/inv_mpu.c ****         tmp[0] = INV_LPA_1_25HZ;
 865:DMP/driver/eMPL/inv_mpu.c ****     else if (rate == 2)
 866:DMP/driver/eMPL/inv_mpu.c ****         tmp[0] = INV_LPA_2_5HZ;
 867:DMP/driver/eMPL/inv_mpu.c ****     else if (rate <= 5)
 868:DMP/driver/eMPL/inv_mpu.c ****         tmp[0] = INV_LPA_5HZ;
 869:DMP/driver/eMPL/inv_mpu.c ****     else if (rate <= 10)
 870:DMP/driver/eMPL/inv_mpu.c ****         tmp[0] = INV_LPA_10HZ;
 871:DMP/driver/eMPL/inv_mpu.c ****     else if (rate <= 20)
 872:DMP/driver/eMPL/inv_mpu.c ****         tmp[0] = INV_LPA_20HZ;
 873:DMP/driver/eMPL/inv_mpu.c ****     else if (rate <= 40)
 874:DMP/driver/eMPL/inv_mpu.c ****         tmp[0] = INV_LPA_40HZ;
 875:DMP/driver/eMPL/inv_mpu.c ****     else if (rate <= 80)
 876:DMP/driver/eMPL/inv_mpu.c ****         tmp[0] = INV_LPA_80HZ;
 877:DMP/driver/eMPL/inv_mpu.c ****     else if (rate <= 160)
 878:DMP/driver/eMPL/inv_mpu.c ****         tmp[0] = INV_LPA_160HZ;
ARM GAS  /var/folders/21/t9g5rlb91ys800n5npymflf80000gn/T//cclZ9YEQ.s 			page 20


 879:DMP/driver/eMPL/inv_mpu.c ****     else if (rate <= 320)
 880:DMP/driver/eMPL/inv_mpu.c ****         tmp[0] = INV_LPA_320HZ;
 881:DMP/driver/eMPL/inv_mpu.c ****     else
 882:DMP/driver/eMPL/inv_mpu.c ****         tmp[0] = INV_LPA_640HZ;
 883:DMP/driver/eMPL/inv_mpu.c ****     if (i2c_write(st.hw->addr, st.reg->lp_accel_odr, 1, tmp))
 884:DMP/driver/eMPL/inv_mpu.c ****         return -1;
 885:DMP/driver/eMPL/inv_mpu.c ****     tmp[0] = BIT_LPA_CYCLE;
 886:DMP/driver/eMPL/inv_mpu.c ****     if (i2c_write(st.hw->addr, st.reg->pwr_mgmt_1, 1, tmp))
 887:DMP/driver/eMPL/inv_mpu.c ****         return -1;
 888:DMP/driver/eMPL/inv_mpu.c **** #endif
 889:DMP/driver/eMPL/inv_mpu.c ****     st.chip_cfg.sensors = INV_XYZ_ACCEL;
 890:DMP/driver/eMPL/inv_mpu.c ****     st.chip_cfg.clk_src = 0;
 891:DMP/driver/eMPL/inv_mpu.c ****     st.chip_cfg.lp_accel_mode = 1;
 892:DMP/driver/eMPL/inv_mpu.c ****     mpu_configure_fifo(0);
 893:DMP/driver/eMPL/inv_mpu.c **** 
 894:DMP/driver/eMPL/inv_mpu.c ****     return 0;
 895:DMP/driver/eMPL/inv_mpu.c **** }
 896:DMP/driver/eMPL/inv_mpu.c **** 
 897:DMP/driver/eMPL/inv_mpu.c **** /**
 898:DMP/driver/eMPL/inv_mpu.c ****  *  @brief      Read raw gyro data directly from the registers.
 899:DMP/driver/eMPL/inv_mpu.c ****  *  @param[out] data        Raw data in hardware units.
 900:DMP/driver/eMPL/inv_mpu.c ****  *  @param[out] timestamp   Timestamp in milliseconds. Null if not needed.
 901:DMP/driver/eMPL/inv_mpu.c ****  *  @return     0 if successful.
 902:DMP/driver/eMPL/inv_mpu.c ****  */
 903:DMP/driver/eMPL/inv_mpu.c **** int mpu_get_gyro_reg(short *data, unsigned long *timestamp)
 904:DMP/driver/eMPL/inv_mpu.c **** {
 905:DMP/driver/eMPL/inv_mpu.c ****     unsigned char tmp[6];
 906:DMP/driver/eMPL/inv_mpu.c **** 
 907:DMP/driver/eMPL/inv_mpu.c ****     if (!(st.chip_cfg.sensors & INV_XYZ_GYRO))
 908:DMP/driver/eMPL/inv_mpu.c ****         return -1;
 909:DMP/driver/eMPL/inv_mpu.c **** 
 910:DMP/driver/eMPL/inv_mpu.c ****     if (i2c_read(st.hw->addr, st.reg->raw_gyro, 6, tmp))
 911:DMP/driver/eMPL/inv_mpu.c ****         return -1;
 912:DMP/driver/eMPL/inv_mpu.c ****     data[0] = (tmp[0] << 8) | tmp[1];
 913:DMP/driver/eMPL/inv_mpu.c ****     data[1] = (tmp[2] << 8) | tmp[3];
 914:DMP/driver/eMPL/inv_mpu.c ****     data[2] = (tmp[4] << 8) | tmp[5];
 915:DMP/driver/eMPL/inv_mpu.c ****     if (timestamp)
 916:DMP/driver/eMPL/inv_mpu.c ****         get_ms(timestamp);
 917:DMP/driver/eMPL/inv_mpu.c ****     return 0;
 918:DMP/driver/eMPL/inv_mpu.c **** }
 919:DMP/driver/eMPL/inv_mpu.c **** 
 920:DMP/driver/eMPL/inv_mpu.c **** /**
 921:DMP/driver/eMPL/inv_mpu.c ****  *  @brief      Read raw accel data directly from the registers.
 922:DMP/driver/eMPL/inv_mpu.c ****  *  @param[out] data        Raw data in hardware units.
 923:DMP/driver/eMPL/inv_mpu.c ****  *  @param[out] timestamp   Timestamp in milliseconds. Null if not needed.
 924:DMP/driver/eMPL/inv_mpu.c ****  *  @return     0 if successful.
 925:DMP/driver/eMPL/inv_mpu.c ****  */
 926:DMP/driver/eMPL/inv_mpu.c **** int mpu_get_accel_reg(short *data, unsigned long *timestamp)
 927:DMP/driver/eMPL/inv_mpu.c **** {
 928:DMP/driver/eMPL/inv_mpu.c ****     unsigned char tmp[6];
 929:DMP/driver/eMPL/inv_mpu.c **** 
 930:DMP/driver/eMPL/inv_mpu.c ****     if (!(st.chip_cfg.sensors & INV_XYZ_ACCEL))
 931:DMP/driver/eMPL/inv_mpu.c ****         return -1;
 932:DMP/driver/eMPL/inv_mpu.c **** 
 933:DMP/driver/eMPL/inv_mpu.c ****     if (i2c_read(st.hw->addr, st.reg->raw_accel, 6, tmp))
 934:DMP/driver/eMPL/inv_mpu.c ****         return -1;
 935:DMP/driver/eMPL/inv_mpu.c ****     data[0] = (tmp[0] << 8) | tmp[1];
ARM GAS  /var/folders/21/t9g5rlb91ys800n5npymflf80000gn/T//cclZ9YEQ.s 			page 21


 936:DMP/driver/eMPL/inv_mpu.c ****     data[1] = (tmp[2] << 8) | tmp[3];
 937:DMP/driver/eMPL/inv_mpu.c ****     data[2] = (tmp[4] << 8) | tmp[5];
 938:DMP/driver/eMPL/inv_mpu.c ****     if (timestamp)
 939:DMP/driver/eMPL/inv_mpu.c ****         get_ms(timestamp);
 940:DMP/driver/eMPL/inv_mpu.c ****     return 0;
 941:DMP/driver/eMPL/inv_mpu.c **** }
 942:DMP/driver/eMPL/inv_mpu.c **** 
 943:DMP/driver/eMPL/inv_mpu.c **** /**
 944:DMP/driver/eMPL/inv_mpu.c ****  *  @brief      Read temperature data directly from the registers.
 945:DMP/driver/eMPL/inv_mpu.c ****  *  @param[out] data        Data in q16 format.
 946:DMP/driver/eMPL/inv_mpu.c ****  *  @param[out] timestamp   Timestamp in milliseconds. Null if not needed.
 947:DMP/driver/eMPL/inv_mpu.c ****  *  @return     0 if successful.
 948:DMP/driver/eMPL/inv_mpu.c ****  */
 949:DMP/driver/eMPL/inv_mpu.c **** int mpu_get_temperature(long *data, unsigned long *timestamp)
 950:DMP/driver/eMPL/inv_mpu.c **** {
 951:DMP/driver/eMPL/inv_mpu.c ****     unsigned char tmp[2];
 952:DMP/driver/eMPL/inv_mpu.c ****     short raw;
 953:DMP/driver/eMPL/inv_mpu.c **** 
 954:DMP/driver/eMPL/inv_mpu.c ****     if (!(st.chip_cfg.sensors))
 955:DMP/driver/eMPL/inv_mpu.c ****         return -1;
 956:DMP/driver/eMPL/inv_mpu.c **** 
 957:DMP/driver/eMPL/inv_mpu.c ****     if (i2c_read(st.hw->addr, st.reg->temp, 2, tmp))
 958:DMP/driver/eMPL/inv_mpu.c ****         return -1;
 959:DMP/driver/eMPL/inv_mpu.c ****     raw = (tmp[0] << 8) | tmp[1];
 960:DMP/driver/eMPL/inv_mpu.c ****     if (timestamp)
 961:DMP/driver/eMPL/inv_mpu.c ****         get_ms(timestamp);
 962:DMP/driver/eMPL/inv_mpu.c **** 
 963:DMP/driver/eMPL/inv_mpu.c ****     data[0] = (long)((35 + ((raw - (float)st.hw->temp_offset) / st.hw->temp_sens)) * 65536L);
 964:DMP/driver/eMPL/inv_mpu.c ****     return 0;
 965:DMP/driver/eMPL/inv_mpu.c **** }
 966:DMP/driver/eMPL/inv_mpu.c **** 
 967:DMP/driver/eMPL/inv_mpu.c **** /**
 968:DMP/driver/eMPL/inv_mpu.c ****  *  @brief      Read biases to the accel bias 6500 registers.
 969:DMP/driver/eMPL/inv_mpu.c ****  *  This function reads from the MPU6500 accel offset cancellations registers.
 970:DMP/driver/eMPL/inv_mpu.c ****  *  The format are G in +-8G format. The register is initialized with OTP 
 971:DMP/driver/eMPL/inv_mpu.c ****  *  factory trim values.
 972:DMP/driver/eMPL/inv_mpu.c ****  *  @param[in]  accel_bias  returned structure with the accel bias
 973:DMP/driver/eMPL/inv_mpu.c ****  *  @return     0 if successful.
 974:DMP/driver/eMPL/inv_mpu.c ****  */
 975:DMP/driver/eMPL/inv_mpu.c **** int mpu_read_6500_accel_bias(long *accel_bias) {
 976:DMP/driver/eMPL/inv_mpu.c **** 	unsigned char data[6];
 977:DMP/driver/eMPL/inv_mpu.c **** 	if (i2c_read(st.hw->addr, 0x77, 2, &data[0]))
 978:DMP/driver/eMPL/inv_mpu.c **** 		return -1;
 979:DMP/driver/eMPL/inv_mpu.c **** 	if (i2c_read(st.hw->addr, 0x7A, 2, &data[2]))
 980:DMP/driver/eMPL/inv_mpu.c **** 		return -1;
 981:DMP/driver/eMPL/inv_mpu.c **** 	if (i2c_read(st.hw->addr, 0x7D, 2, &data[4]))
 982:DMP/driver/eMPL/inv_mpu.c **** 		return -1;
 983:DMP/driver/eMPL/inv_mpu.c **** 	accel_bias[0] = ((long)data[0]<<8) | data[1];
 984:DMP/driver/eMPL/inv_mpu.c **** 	accel_bias[1] = ((long)data[2]<<8) | data[3];
 985:DMP/driver/eMPL/inv_mpu.c **** 	accel_bias[2] = ((long)data[4]<<8) | data[5];
 986:DMP/driver/eMPL/inv_mpu.c **** 	return 0;
 987:DMP/driver/eMPL/inv_mpu.c **** }
 988:DMP/driver/eMPL/inv_mpu.c **** 
 989:DMP/driver/eMPL/inv_mpu.c **** /**
 990:DMP/driver/eMPL/inv_mpu.c ****  *  @brief      Read biases to the accel bias 6050 registers.
 991:DMP/driver/eMPL/inv_mpu.c ****  *  This function reads from the MPU6050 accel offset cancellations registers.
 992:DMP/driver/eMPL/inv_mpu.c ****  *  The format are G in +-8G format. The register is initialized with OTP 
ARM GAS  /var/folders/21/t9g5rlb91ys800n5npymflf80000gn/T//cclZ9YEQ.s 			page 22


 993:DMP/driver/eMPL/inv_mpu.c ****  *  factory trim values.
 994:DMP/driver/eMPL/inv_mpu.c ****  *  @param[in]  accel_bias  returned structure with the accel bias
 995:DMP/driver/eMPL/inv_mpu.c ****  *  @return     0 if successful.
 996:DMP/driver/eMPL/inv_mpu.c ****  */
 997:DMP/driver/eMPL/inv_mpu.c **** int mpu_read_6050_accel_bias(long *accel_bias) {
 998:DMP/driver/eMPL/inv_mpu.c **** 	unsigned char data[6];
 999:DMP/driver/eMPL/inv_mpu.c **** 	if (i2c_read(st.hw->addr, 0x06, 2, &data[0]))
1000:DMP/driver/eMPL/inv_mpu.c **** 		return -1;
1001:DMP/driver/eMPL/inv_mpu.c **** 	if (i2c_read(st.hw->addr, 0x08, 2, &data[2]))
1002:DMP/driver/eMPL/inv_mpu.c **** 		return -1;
1003:DMP/driver/eMPL/inv_mpu.c **** 	if (i2c_read(st.hw->addr, 0x0A, 2, &data[4]))
1004:DMP/driver/eMPL/inv_mpu.c **** 		return -1;
1005:DMP/driver/eMPL/inv_mpu.c **** 	accel_bias[0] = ((long)data[0]<<8) | data[1];
1006:DMP/driver/eMPL/inv_mpu.c **** 	accel_bias[1] = ((long)data[2]<<8) | data[3];
1007:DMP/driver/eMPL/inv_mpu.c **** 	accel_bias[2] = ((long)data[4]<<8) | data[5];
1008:DMP/driver/eMPL/inv_mpu.c **** 	return 0;
1009:DMP/driver/eMPL/inv_mpu.c **** }
1010:DMP/driver/eMPL/inv_mpu.c **** 
1011:DMP/driver/eMPL/inv_mpu.c **** int mpu_read_6500_gyro_bias(long *gyro_bias) {
1012:DMP/driver/eMPL/inv_mpu.c **** 	unsigned char data[6];
1013:DMP/driver/eMPL/inv_mpu.c **** 	if (i2c_read(st.hw->addr, 0x13, 2, &data[0]))
1014:DMP/driver/eMPL/inv_mpu.c **** 		return -1;
1015:DMP/driver/eMPL/inv_mpu.c **** 	if (i2c_read(st.hw->addr, 0x15, 2, &data[2]))
1016:DMP/driver/eMPL/inv_mpu.c **** 		return -1;
1017:DMP/driver/eMPL/inv_mpu.c **** 	if (i2c_read(st.hw->addr, 0x17, 2, &data[4]))
1018:DMP/driver/eMPL/inv_mpu.c **** 		return -1;
1019:DMP/driver/eMPL/inv_mpu.c **** 	gyro_bias[0] = ((long)data[0]<<8) | data[1];
1020:DMP/driver/eMPL/inv_mpu.c **** 	gyro_bias[1] = ((long)data[2]<<8) | data[3];
1021:DMP/driver/eMPL/inv_mpu.c **** 	gyro_bias[2] = ((long)data[4]<<8) | data[5];
1022:DMP/driver/eMPL/inv_mpu.c **** 	return 0;
1023:DMP/driver/eMPL/inv_mpu.c **** }
1024:DMP/driver/eMPL/inv_mpu.c **** 
1025:DMP/driver/eMPL/inv_mpu.c **** /**
1026:DMP/driver/eMPL/inv_mpu.c ****  *  @brief      Push biases to the gyro bias 6500/6050 registers.
1027:DMP/driver/eMPL/inv_mpu.c ****  *  This function expects biases relative to the current sensor output, and
1028:DMP/driver/eMPL/inv_mpu.c ****  *  these biases will be added to the factory-supplied values. Bias inputs are LSB
1029:DMP/driver/eMPL/inv_mpu.c ****  *  in +-1000dps format.
1030:DMP/driver/eMPL/inv_mpu.c ****  *  @param[in]  gyro_bias  New biases.
1031:DMP/driver/eMPL/inv_mpu.c ****  *  @return     0 if successful.
1032:DMP/driver/eMPL/inv_mpu.c ****  */
1033:DMP/driver/eMPL/inv_mpu.c **** int mpu_set_gyro_bias_reg(long *gyro_bias)
1034:DMP/driver/eMPL/inv_mpu.c **** {
1035:DMP/driver/eMPL/inv_mpu.c ****     unsigned char data[6] = {0, 0, 0, 0, 0, 0};
1036:DMP/driver/eMPL/inv_mpu.c ****     int i=0;
1037:DMP/driver/eMPL/inv_mpu.c ****     for(i=0;i<3;i++) {
1038:DMP/driver/eMPL/inv_mpu.c ****     	gyro_bias[i]= (-gyro_bias[i]);
1039:DMP/driver/eMPL/inv_mpu.c ****     }
1040:DMP/driver/eMPL/inv_mpu.c ****     data[0] = (gyro_bias[0] >> 8) & 0xff;
1041:DMP/driver/eMPL/inv_mpu.c ****     data[1] = (gyro_bias[0]) & 0xff;
1042:DMP/driver/eMPL/inv_mpu.c ****     data[2] = (gyro_bias[1] >> 8) & 0xff;
1043:DMP/driver/eMPL/inv_mpu.c ****     data[3] = (gyro_bias[1]) & 0xff;
1044:DMP/driver/eMPL/inv_mpu.c ****     data[4] = (gyro_bias[2] >> 8) & 0xff;
1045:DMP/driver/eMPL/inv_mpu.c ****     data[5] = (gyro_bias[2]) & 0xff;
1046:DMP/driver/eMPL/inv_mpu.c ****     if (i2c_write(st.hw->addr, 0x13, 2, &data[0]))
1047:DMP/driver/eMPL/inv_mpu.c ****         return -1;
1048:DMP/driver/eMPL/inv_mpu.c ****     if (i2c_write(st.hw->addr, 0x15, 2, &data[2]))
1049:DMP/driver/eMPL/inv_mpu.c ****         return -1;
ARM GAS  /var/folders/21/t9g5rlb91ys800n5npymflf80000gn/T//cclZ9YEQ.s 			page 23


1050:DMP/driver/eMPL/inv_mpu.c ****     if (i2c_write(st.hw->addr, 0x17, 2, &data[4]))
1051:DMP/driver/eMPL/inv_mpu.c ****         return -1;
1052:DMP/driver/eMPL/inv_mpu.c ****     return 0;
1053:DMP/driver/eMPL/inv_mpu.c **** }
1054:DMP/driver/eMPL/inv_mpu.c **** 
1055:DMP/driver/eMPL/inv_mpu.c **** /**
1056:DMP/driver/eMPL/inv_mpu.c ****  *  @brief      Push biases to the accel bias 6050 registers.
1057:DMP/driver/eMPL/inv_mpu.c ****  *  This function expects biases relative to the current sensor output, and
1058:DMP/driver/eMPL/inv_mpu.c ****  *  these biases will be added to the factory-supplied values. Bias inputs are LSB
1059:DMP/driver/eMPL/inv_mpu.c ****  *  in +-16G format.
1060:DMP/driver/eMPL/inv_mpu.c ****  *  @param[in]  accel_bias  New biases.
1061:DMP/driver/eMPL/inv_mpu.c ****  *  @return     0 if successful.
1062:DMP/driver/eMPL/inv_mpu.c ****  */
1063:DMP/driver/eMPL/inv_mpu.c **** int mpu_set_accel_bias_6050_reg(const long *accel_bias) {
1064:DMP/driver/eMPL/inv_mpu.c ****     unsigned char data[6] = {0, 0, 0, 0, 0, 0};
1065:DMP/driver/eMPL/inv_mpu.c ****     long accel_reg_bias[3] = {0, 0, 0};
1066:DMP/driver/eMPL/inv_mpu.c **** 
1067:DMP/driver/eMPL/inv_mpu.c ****     if(mpu_read_6050_accel_bias(accel_reg_bias))
1068:DMP/driver/eMPL/inv_mpu.c ****         return -1;
1069:DMP/driver/eMPL/inv_mpu.c **** 
1070:DMP/driver/eMPL/inv_mpu.c ****     accel_reg_bias[0] -= (accel_bias[0] & ~1);
1071:DMP/driver/eMPL/inv_mpu.c ****     accel_reg_bias[1] -= (accel_bias[1] & ~1);
1072:DMP/driver/eMPL/inv_mpu.c ****     accel_reg_bias[2] -= (accel_bias[2] & ~1);
1073:DMP/driver/eMPL/inv_mpu.c **** 
1074:DMP/driver/eMPL/inv_mpu.c ****     data[0] = (accel_reg_bias[0] >> 8) & 0xff;
1075:DMP/driver/eMPL/inv_mpu.c ****     data[1] = (accel_reg_bias[0]) & 0xff;
1076:DMP/driver/eMPL/inv_mpu.c ****     data[2] = (accel_reg_bias[1] >> 8) & 0xff;
1077:DMP/driver/eMPL/inv_mpu.c ****     data[3] = (accel_reg_bias[1]) & 0xff;
1078:DMP/driver/eMPL/inv_mpu.c ****     data[4] = (accel_reg_bias[2] >> 8) & 0xff;
1079:DMP/driver/eMPL/inv_mpu.c ****     data[5] = (accel_reg_bias[2]) & 0xff;
1080:DMP/driver/eMPL/inv_mpu.c **** 
1081:DMP/driver/eMPL/inv_mpu.c ****     if (i2c_write(st.hw->addr, 0x06, 2, &data[0]))
1082:DMP/driver/eMPL/inv_mpu.c ****         return -1;
1083:DMP/driver/eMPL/inv_mpu.c ****     if (i2c_write(st.hw->addr, 0x08, 2, &data[2]))
1084:DMP/driver/eMPL/inv_mpu.c ****         return -1;
1085:DMP/driver/eMPL/inv_mpu.c ****     if (i2c_write(st.hw->addr, 0x0A, 2, &data[4]))
1086:DMP/driver/eMPL/inv_mpu.c ****         return -1;
1087:DMP/driver/eMPL/inv_mpu.c **** 
1088:DMP/driver/eMPL/inv_mpu.c ****     return 0;
1089:DMP/driver/eMPL/inv_mpu.c **** }
1090:DMP/driver/eMPL/inv_mpu.c **** 
1091:DMP/driver/eMPL/inv_mpu.c **** 
1092:DMP/driver/eMPL/inv_mpu.c **** 
1093:DMP/driver/eMPL/inv_mpu.c **** /**
1094:DMP/driver/eMPL/inv_mpu.c ****  *  @brief      Push biases to the accel bias 6500 registers.
1095:DMP/driver/eMPL/inv_mpu.c ****  *  This function expects biases relative to the current sensor output, and
1096:DMP/driver/eMPL/inv_mpu.c ****  *  these biases will be added to the factory-supplied values. Bias inputs are LSB
1097:DMP/driver/eMPL/inv_mpu.c ****  *  in +-16G format.
1098:DMP/driver/eMPL/inv_mpu.c ****  *  @param[in]  accel_bias  New biases.
1099:DMP/driver/eMPL/inv_mpu.c ****  *  @return     0 if successful.
1100:DMP/driver/eMPL/inv_mpu.c ****  */
1101:DMP/driver/eMPL/inv_mpu.c **** int mpu_set_accel_bias_6500_reg(const long *accel_bias) {
1102:DMP/driver/eMPL/inv_mpu.c ****     unsigned char data[6] = {0, 0, 0, 0, 0, 0};
1103:DMP/driver/eMPL/inv_mpu.c ****     long accel_reg_bias[3] = {0, 0, 0};
1104:DMP/driver/eMPL/inv_mpu.c **** 
1105:DMP/driver/eMPL/inv_mpu.c ****     if(mpu_read_6500_accel_bias(accel_reg_bias))
1106:DMP/driver/eMPL/inv_mpu.c ****         return -1;
ARM GAS  /var/folders/21/t9g5rlb91ys800n5npymflf80000gn/T//cclZ9YEQ.s 			page 24


1107:DMP/driver/eMPL/inv_mpu.c **** 
1108:DMP/driver/eMPL/inv_mpu.c ****     // Preserve bit 0 of factory value (for temperature compensation)
1109:DMP/driver/eMPL/inv_mpu.c ****     accel_reg_bias[0] -= (accel_bias[0] & ~1);
1110:DMP/driver/eMPL/inv_mpu.c ****     accel_reg_bias[1] -= (accel_bias[1] & ~1);
1111:DMP/driver/eMPL/inv_mpu.c ****     accel_reg_bias[2] -= (accel_bias[2] & ~1);
1112:DMP/driver/eMPL/inv_mpu.c **** 
1113:DMP/driver/eMPL/inv_mpu.c ****     data[0] = (accel_reg_bias[0] >> 8) & 0xff;
1114:DMP/driver/eMPL/inv_mpu.c ****     data[1] = (accel_reg_bias[0]) & 0xff;
1115:DMP/driver/eMPL/inv_mpu.c ****     data[2] = (accel_reg_bias[1] >> 8) & 0xff;
1116:DMP/driver/eMPL/inv_mpu.c ****     data[3] = (accel_reg_bias[1]) & 0xff;
1117:DMP/driver/eMPL/inv_mpu.c ****     data[4] = (accel_reg_bias[2] >> 8) & 0xff;
1118:DMP/driver/eMPL/inv_mpu.c ****     data[5] = (accel_reg_bias[2]) & 0xff;
1119:DMP/driver/eMPL/inv_mpu.c **** 
1120:DMP/driver/eMPL/inv_mpu.c ****     if (i2c_write(st.hw->addr, 0x77, 2, &data[0]))
1121:DMP/driver/eMPL/inv_mpu.c ****         return -1;
1122:DMP/driver/eMPL/inv_mpu.c ****     if (i2c_write(st.hw->addr, 0x7A, 2, &data[2]))
1123:DMP/driver/eMPL/inv_mpu.c ****         return -1;
1124:DMP/driver/eMPL/inv_mpu.c ****     if (i2c_write(st.hw->addr, 0x7D, 2, &data[4]))
1125:DMP/driver/eMPL/inv_mpu.c ****         return -1;
1126:DMP/driver/eMPL/inv_mpu.c **** 
1127:DMP/driver/eMPL/inv_mpu.c ****     return 0;
1128:DMP/driver/eMPL/inv_mpu.c **** }
1129:DMP/driver/eMPL/inv_mpu.c **** 
1130:DMP/driver/eMPL/inv_mpu.c **** 
1131:DMP/driver/eMPL/inv_mpu.c **** /**
1132:DMP/driver/eMPL/inv_mpu.c ****  *  @brief  Reset FIFO read/write pointers.
1133:DMP/driver/eMPL/inv_mpu.c ****  *  @return 0 if successful.
1134:DMP/driver/eMPL/inv_mpu.c ****  */
1135:DMP/driver/eMPL/inv_mpu.c **** int mpu_reset_fifo(void)
1136:DMP/driver/eMPL/inv_mpu.c **** {
1137:DMP/driver/eMPL/inv_mpu.c ****     unsigned char data;
1138:DMP/driver/eMPL/inv_mpu.c **** 
1139:DMP/driver/eMPL/inv_mpu.c ****     if (!(st.chip_cfg.sensors))
1140:DMP/driver/eMPL/inv_mpu.c ****         return -1;
1141:DMP/driver/eMPL/inv_mpu.c **** 
1142:DMP/driver/eMPL/inv_mpu.c ****     data = 0;
1143:DMP/driver/eMPL/inv_mpu.c ****     if (i2c_write(st.hw->addr, st.reg->int_enable, 1, &data))
1144:DMP/driver/eMPL/inv_mpu.c ****         return -1;
1145:DMP/driver/eMPL/inv_mpu.c ****     if (i2c_write(st.hw->addr, st.reg->fifo_en, 1, &data))
1146:DMP/driver/eMPL/inv_mpu.c ****         return -1;
1147:DMP/driver/eMPL/inv_mpu.c ****     if (i2c_write(st.hw->addr, st.reg->user_ctrl, 1, &data))
1148:DMP/driver/eMPL/inv_mpu.c ****         return -1;
1149:DMP/driver/eMPL/inv_mpu.c **** 
1150:DMP/driver/eMPL/inv_mpu.c ****     if (st.chip_cfg.dmp_on) {
1151:DMP/driver/eMPL/inv_mpu.c ****         data = BIT_FIFO_RST | BIT_DMP_RST;
1152:DMP/driver/eMPL/inv_mpu.c ****         if (i2c_write(st.hw->addr, st.reg->user_ctrl, 1, &data))
1153:DMP/driver/eMPL/inv_mpu.c ****             return -1;
1154:DMP/driver/eMPL/inv_mpu.c ****         delay_ms(50);
1155:DMP/driver/eMPL/inv_mpu.c ****         data = BIT_DMP_EN | BIT_FIFO_EN;
1156:DMP/driver/eMPL/inv_mpu.c ****         if (st.chip_cfg.sensors & INV_XYZ_COMPASS)
1157:DMP/driver/eMPL/inv_mpu.c ****             data |= BIT_AUX_IF_EN;
1158:DMP/driver/eMPL/inv_mpu.c ****         if (i2c_write(st.hw->addr, st.reg->user_ctrl, 1, &data))
1159:DMP/driver/eMPL/inv_mpu.c ****             return -1;
1160:DMP/driver/eMPL/inv_mpu.c ****         if (st.chip_cfg.int_enable)
1161:DMP/driver/eMPL/inv_mpu.c ****             data = BIT_DMP_INT_EN;
1162:DMP/driver/eMPL/inv_mpu.c ****         else
1163:DMP/driver/eMPL/inv_mpu.c ****             data = 0;
ARM GAS  /var/folders/21/t9g5rlb91ys800n5npymflf80000gn/T//cclZ9YEQ.s 			page 25


1164:DMP/driver/eMPL/inv_mpu.c ****         if (i2c_write(st.hw->addr, st.reg->int_enable, 1, &data))
1165:DMP/driver/eMPL/inv_mpu.c ****             return -1;
1166:DMP/driver/eMPL/inv_mpu.c ****         data = 0;
1167:DMP/driver/eMPL/inv_mpu.c ****         if (i2c_write(st.hw->addr, st.reg->fifo_en, 1, &data))
1168:DMP/driver/eMPL/inv_mpu.c ****             return -1;
1169:DMP/driver/eMPL/inv_mpu.c ****     } else {
1170:DMP/driver/eMPL/inv_mpu.c ****         data = BIT_FIFO_RST;
1171:DMP/driver/eMPL/inv_mpu.c ****         if (i2c_write(st.hw->addr, st.reg->user_ctrl, 1, &data))
1172:DMP/driver/eMPL/inv_mpu.c ****             return -1;
1173:DMP/driver/eMPL/inv_mpu.c ****         if (st.chip_cfg.bypass_mode || !(st.chip_cfg.sensors & INV_XYZ_COMPASS))
1174:DMP/driver/eMPL/inv_mpu.c ****             data = BIT_FIFO_EN;
1175:DMP/driver/eMPL/inv_mpu.c ****         else
1176:DMP/driver/eMPL/inv_mpu.c ****             data = BIT_FIFO_EN | BIT_AUX_IF_EN;
1177:DMP/driver/eMPL/inv_mpu.c ****         if (i2c_write(st.hw->addr, st.reg->user_ctrl, 1, &data))
1178:DMP/driver/eMPL/inv_mpu.c ****             return -1;
1179:DMP/driver/eMPL/inv_mpu.c ****         delay_ms(50);
1180:DMP/driver/eMPL/inv_mpu.c ****         if (st.chip_cfg.int_enable)
1181:DMP/driver/eMPL/inv_mpu.c ****             data = BIT_DATA_RDY_EN;
1182:DMP/driver/eMPL/inv_mpu.c ****         else
1183:DMP/driver/eMPL/inv_mpu.c ****             data = 0;
1184:DMP/driver/eMPL/inv_mpu.c ****         if (i2c_write(st.hw->addr, st.reg->int_enable, 1, &data))
1185:DMP/driver/eMPL/inv_mpu.c ****             return -1;
1186:DMP/driver/eMPL/inv_mpu.c ****         if (i2c_write(st.hw->addr, st.reg->fifo_en, 1, &st.chip_cfg.fifo_enable))
1187:DMP/driver/eMPL/inv_mpu.c ****             return -1;
1188:DMP/driver/eMPL/inv_mpu.c ****     }
1189:DMP/driver/eMPL/inv_mpu.c ****     return 0;
1190:DMP/driver/eMPL/inv_mpu.c **** }
1191:DMP/driver/eMPL/inv_mpu.c **** 
1192:DMP/driver/eMPL/inv_mpu.c **** /**
1193:DMP/driver/eMPL/inv_mpu.c ****  *  @brief      Get the gyro full-scale range.
1194:DMP/driver/eMPL/inv_mpu.c ****  *  @param[out] fsr Current full-scale range.
1195:DMP/driver/eMPL/inv_mpu.c ****  *  @return     0 if successful.
1196:DMP/driver/eMPL/inv_mpu.c ****  */
1197:DMP/driver/eMPL/inv_mpu.c **** int mpu_get_gyro_fsr(unsigned short *fsr)
1198:DMP/driver/eMPL/inv_mpu.c **** {
1199:DMP/driver/eMPL/inv_mpu.c ****     switch (st.chip_cfg.gyro_fsr) {
1200:DMP/driver/eMPL/inv_mpu.c ****     case INV_FSR_250DPS:
1201:DMP/driver/eMPL/inv_mpu.c ****         fsr[0] = 250;
1202:DMP/driver/eMPL/inv_mpu.c ****         break;
1203:DMP/driver/eMPL/inv_mpu.c ****     case INV_FSR_500DPS:
1204:DMP/driver/eMPL/inv_mpu.c ****         fsr[0] = 500;
1205:DMP/driver/eMPL/inv_mpu.c ****         break;
1206:DMP/driver/eMPL/inv_mpu.c ****     case INV_FSR_1000DPS:
1207:DMP/driver/eMPL/inv_mpu.c ****         fsr[0] = 1000;
1208:DMP/driver/eMPL/inv_mpu.c ****         break;
1209:DMP/driver/eMPL/inv_mpu.c ****     case INV_FSR_2000DPS:
1210:DMP/driver/eMPL/inv_mpu.c ****         fsr[0] = 2000;
1211:DMP/driver/eMPL/inv_mpu.c ****         break;
1212:DMP/driver/eMPL/inv_mpu.c ****     default:
1213:DMP/driver/eMPL/inv_mpu.c ****         fsr[0] = 0;
1214:DMP/driver/eMPL/inv_mpu.c ****         break;
1215:DMP/driver/eMPL/inv_mpu.c ****     }
1216:DMP/driver/eMPL/inv_mpu.c ****     return 0;
1217:DMP/driver/eMPL/inv_mpu.c **** }
1218:DMP/driver/eMPL/inv_mpu.c **** 
1219:DMP/driver/eMPL/inv_mpu.c **** /**
1220:DMP/driver/eMPL/inv_mpu.c ****  *  @brief      Set the gyro full-scale range.
ARM GAS  /var/folders/21/t9g5rlb91ys800n5npymflf80000gn/T//cclZ9YEQ.s 			page 26


1221:DMP/driver/eMPL/inv_mpu.c ****  *  @param[in]  fsr Desired full-scale range.
1222:DMP/driver/eMPL/inv_mpu.c ****  *  @return     0 if successful.
1223:DMP/driver/eMPL/inv_mpu.c ****  */
1224:DMP/driver/eMPL/inv_mpu.c **** int mpu_set_gyro_fsr(unsigned short fsr)
1225:DMP/driver/eMPL/inv_mpu.c **** {
1226:DMP/driver/eMPL/inv_mpu.c ****     unsigned char data;
1227:DMP/driver/eMPL/inv_mpu.c **** 
1228:DMP/driver/eMPL/inv_mpu.c ****     if (!(st.chip_cfg.sensors))
1229:DMP/driver/eMPL/inv_mpu.c ****         return -1;
1230:DMP/driver/eMPL/inv_mpu.c **** 
1231:DMP/driver/eMPL/inv_mpu.c ****     switch (fsr) {
1232:DMP/driver/eMPL/inv_mpu.c ****     case 250:
1233:DMP/driver/eMPL/inv_mpu.c ****         data = INV_FSR_250DPS << 3;
1234:DMP/driver/eMPL/inv_mpu.c ****         break;
1235:DMP/driver/eMPL/inv_mpu.c ****     case 500:
1236:DMP/driver/eMPL/inv_mpu.c ****         data = INV_FSR_500DPS << 3;
1237:DMP/driver/eMPL/inv_mpu.c ****         break;
1238:DMP/driver/eMPL/inv_mpu.c ****     case 1000:
1239:DMP/driver/eMPL/inv_mpu.c ****         data = INV_FSR_1000DPS << 3;
1240:DMP/driver/eMPL/inv_mpu.c ****         break;
1241:DMP/driver/eMPL/inv_mpu.c ****     case 2000:
1242:DMP/driver/eMPL/inv_mpu.c ****         data = INV_FSR_2000DPS << 3;
1243:DMP/driver/eMPL/inv_mpu.c ****         break;
1244:DMP/driver/eMPL/inv_mpu.c ****     default:
1245:DMP/driver/eMPL/inv_mpu.c ****         return -1;
1246:DMP/driver/eMPL/inv_mpu.c ****     }
1247:DMP/driver/eMPL/inv_mpu.c **** 
1248:DMP/driver/eMPL/inv_mpu.c ****     if (st.chip_cfg.gyro_fsr == (data >> 3))
1249:DMP/driver/eMPL/inv_mpu.c ****         return 0;
1250:DMP/driver/eMPL/inv_mpu.c ****     if (i2c_write(st.hw->addr, st.reg->gyro_cfg, 1, &data))
1251:DMP/driver/eMPL/inv_mpu.c ****         return -1;
1252:DMP/driver/eMPL/inv_mpu.c ****     st.chip_cfg.gyro_fsr = data >> 3;
1253:DMP/driver/eMPL/inv_mpu.c ****     return 0;
1254:DMP/driver/eMPL/inv_mpu.c **** }
1255:DMP/driver/eMPL/inv_mpu.c **** 
1256:DMP/driver/eMPL/inv_mpu.c **** /**
1257:DMP/driver/eMPL/inv_mpu.c ****  *  @brief      Get the accel full-scale range.
1258:DMP/driver/eMPL/inv_mpu.c ****  *  @param[out] fsr Current full-scale range.
1259:DMP/driver/eMPL/inv_mpu.c ****  *  @return     0 if successful.
1260:DMP/driver/eMPL/inv_mpu.c ****  */
1261:DMP/driver/eMPL/inv_mpu.c **** int mpu_get_accel_fsr(unsigned char *fsr)
1262:DMP/driver/eMPL/inv_mpu.c **** {
1263:DMP/driver/eMPL/inv_mpu.c ****     switch (st.chip_cfg.accel_fsr) {
1264:DMP/driver/eMPL/inv_mpu.c ****     case INV_FSR_2G:
1265:DMP/driver/eMPL/inv_mpu.c ****         fsr[0] = 2;
1266:DMP/driver/eMPL/inv_mpu.c ****         break;
1267:DMP/driver/eMPL/inv_mpu.c ****     case INV_FSR_4G:
1268:DMP/driver/eMPL/inv_mpu.c ****         fsr[0] = 4;
1269:DMP/driver/eMPL/inv_mpu.c ****         break;
1270:DMP/driver/eMPL/inv_mpu.c ****     case INV_FSR_8G:
1271:DMP/driver/eMPL/inv_mpu.c ****         fsr[0] = 8;
1272:DMP/driver/eMPL/inv_mpu.c ****         break;
1273:DMP/driver/eMPL/inv_mpu.c ****     case INV_FSR_16G:
1274:DMP/driver/eMPL/inv_mpu.c ****         fsr[0] = 16;
1275:DMP/driver/eMPL/inv_mpu.c ****         break;
1276:DMP/driver/eMPL/inv_mpu.c ****     default:
1277:DMP/driver/eMPL/inv_mpu.c ****         return -1;
ARM GAS  /var/folders/21/t9g5rlb91ys800n5npymflf80000gn/T//cclZ9YEQ.s 			page 27


1278:DMP/driver/eMPL/inv_mpu.c ****     }
1279:DMP/driver/eMPL/inv_mpu.c ****     if (st.chip_cfg.accel_half)
1280:DMP/driver/eMPL/inv_mpu.c ****         fsr[0] <<= 1;
1281:DMP/driver/eMPL/inv_mpu.c ****     return 0;
1282:DMP/driver/eMPL/inv_mpu.c **** }
1283:DMP/driver/eMPL/inv_mpu.c **** 
1284:DMP/driver/eMPL/inv_mpu.c **** /**
1285:DMP/driver/eMPL/inv_mpu.c ****  *  @brief      Set the accel full-scale range.
1286:DMP/driver/eMPL/inv_mpu.c ****  *  @param[in]  fsr Desired full-scale range.
1287:DMP/driver/eMPL/inv_mpu.c ****  *  @return     0 if successful.
1288:DMP/driver/eMPL/inv_mpu.c ****  */
1289:DMP/driver/eMPL/inv_mpu.c **** int mpu_set_accel_fsr(unsigned char fsr)
1290:DMP/driver/eMPL/inv_mpu.c **** {
1291:DMP/driver/eMPL/inv_mpu.c ****     unsigned char data;
1292:DMP/driver/eMPL/inv_mpu.c **** 
1293:DMP/driver/eMPL/inv_mpu.c ****     if (!(st.chip_cfg.sensors))
1294:DMP/driver/eMPL/inv_mpu.c ****         return -1;
1295:DMP/driver/eMPL/inv_mpu.c **** 
1296:DMP/driver/eMPL/inv_mpu.c ****     switch (fsr) {
1297:DMP/driver/eMPL/inv_mpu.c ****     case 2:
1298:DMP/driver/eMPL/inv_mpu.c ****         data = INV_FSR_2G << 3;
1299:DMP/driver/eMPL/inv_mpu.c ****         break;
1300:DMP/driver/eMPL/inv_mpu.c ****     case 4:
1301:DMP/driver/eMPL/inv_mpu.c ****         data = INV_FSR_4G << 3;
1302:DMP/driver/eMPL/inv_mpu.c ****         break;
1303:DMP/driver/eMPL/inv_mpu.c ****     case 8:
1304:DMP/driver/eMPL/inv_mpu.c ****         data = INV_FSR_8G << 3;
1305:DMP/driver/eMPL/inv_mpu.c ****         break;
1306:DMP/driver/eMPL/inv_mpu.c ****     case 16:
1307:DMP/driver/eMPL/inv_mpu.c ****         data = INV_FSR_16G << 3;
1308:DMP/driver/eMPL/inv_mpu.c ****         break;
1309:DMP/driver/eMPL/inv_mpu.c ****     default:
1310:DMP/driver/eMPL/inv_mpu.c ****         return -1;
1311:DMP/driver/eMPL/inv_mpu.c ****     }
1312:DMP/driver/eMPL/inv_mpu.c **** 
1313:DMP/driver/eMPL/inv_mpu.c ****     if (st.chip_cfg.accel_fsr == (data >> 3))
1314:DMP/driver/eMPL/inv_mpu.c ****         return 0;
1315:DMP/driver/eMPL/inv_mpu.c ****     if (i2c_write(st.hw->addr, st.reg->accel_cfg, 1, &data))
1316:DMP/driver/eMPL/inv_mpu.c ****         return -1;
1317:DMP/driver/eMPL/inv_mpu.c ****     st.chip_cfg.accel_fsr = data >> 3;
1318:DMP/driver/eMPL/inv_mpu.c ****     return 0;
1319:DMP/driver/eMPL/inv_mpu.c **** }
1320:DMP/driver/eMPL/inv_mpu.c **** 
1321:DMP/driver/eMPL/inv_mpu.c **** /**
1322:DMP/driver/eMPL/inv_mpu.c ****  *  @brief      Get the current DLPF setting.
1323:DMP/driver/eMPL/inv_mpu.c ****  *  @param[out] lpf Current LPF setting.
1324:DMP/driver/eMPL/inv_mpu.c ****  *  0 if successful.
1325:DMP/driver/eMPL/inv_mpu.c ****  */
1326:DMP/driver/eMPL/inv_mpu.c **** int mpu_get_lpf(unsigned short *lpf)
1327:DMP/driver/eMPL/inv_mpu.c **** {
1328:DMP/driver/eMPL/inv_mpu.c ****     switch (st.chip_cfg.lpf) {
1329:DMP/driver/eMPL/inv_mpu.c ****     case INV_FILTER_188HZ:
1330:DMP/driver/eMPL/inv_mpu.c ****         lpf[0] = 188;
1331:DMP/driver/eMPL/inv_mpu.c ****         break;
1332:DMP/driver/eMPL/inv_mpu.c ****     case INV_FILTER_98HZ:
1333:DMP/driver/eMPL/inv_mpu.c ****         lpf[0] = 98;
1334:DMP/driver/eMPL/inv_mpu.c ****         break;
ARM GAS  /var/folders/21/t9g5rlb91ys800n5npymflf80000gn/T//cclZ9YEQ.s 			page 28


1335:DMP/driver/eMPL/inv_mpu.c ****     case INV_FILTER_42HZ:
1336:DMP/driver/eMPL/inv_mpu.c ****         lpf[0] = 42;
1337:DMP/driver/eMPL/inv_mpu.c ****         break;
1338:DMP/driver/eMPL/inv_mpu.c ****     case INV_FILTER_20HZ:
1339:DMP/driver/eMPL/inv_mpu.c ****         lpf[0] = 20;
1340:DMP/driver/eMPL/inv_mpu.c ****         break;
1341:DMP/driver/eMPL/inv_mpu.c ****     case INV_FILTER_10HZ:
1342:DMP/driver/eMPL/inv_mpu.c ****         lpf[0] = 10;
1343:DMP/driver/eMPL/inv_mpu.c ****         break;
1344:DMP/driver/eMPL/inv_mpu.c ****     case INV_FILTER_5HZ:
1345:DMP/driver/eMPL/inv_mpu.c ****         lpf[0] = 5;
1346:DMP/driver/eMPL/inv_mpu.c ****         break;
1347:DMP/driver/eMPL/inv_mpu.c ****     case INV_FILTER_256HZ_NOLPF2:
1348:DMP/driver/eMPL/inv_mpu.c ****     case INV_FILTER_2100HZ_NOLPF:
1349:DMP/driver/eMPL/inv_mpu.c ****     default:
1350:DMP/driver/eMPL/inv_mpu.c ****         lpf[0] = 0;
1351:DMP/driver/eMPL/inv_mpu.c ****         break;
1352:DMP/driver/eMPL/inv_mpu.c ****     }
1353:DMP/driver/eMPL/inv_mpu.c ****     return 0;
1354:DMP/driver/eMPL/inv_mpu.c **** }
1355:DMP/driver/eMPL/inv_mpu.c **** 
1356:DMP/driver/eMPL/inv_mpu.c **** /**
1357:DMP/driver/eMPL/inv_mpu.c ****  *  @brief      Set digital low pass filter.
1358:DMP/driver/eMPL/inv_mpu.c ****  *  The following LPF settings are supported: 188, 98, 42, 20, 10, 5.
1359:DMP/driver/eMPL/inv_mpu.c ****  *  @param[in]  lpf Desired LPF setting.
1360:DMP/driver/eMPL/inv_mpu.c ****  *  @return     0 if successful.
1361:DMP/driver/eMPL/inv_mpu.c ****  */
1362:DMP/driver/eMPL/inv_mpu.c **** int mpu_set_lpf(unsigned short lpf)
1363:DMP/driver/eMPL/inv_mpu.c **** {
1364:DMP/driver/eMPL/inv_mpu.c ****     unsigned char data;
1365:DMP/driver/eMPL/inv_mpu.c **** 
1366:DMP/driver/eMPL/inv_mpu.c ****     if (!(st.chip_cfg.sensors))
1367:DMP/driver/eMPL/inv_mpu.c ****         return -1;
1368:DMP/driver/eMPL/inv_mpu.c **** 
1369:DMP/driver/eMPL/inv_mpu.c ****     if (lpf >= 188)
1370:DMP/driver/eMPL/inv_mpu.c ****         data = INV_FILTER_188HZ;
1371:DMP/driver/eMPL/inv_mpu.c ****     else if (lpf >= 98)
1372:DMP/driver/eMPL/inv_mpu.c ****         data = INV_FILTER_98HZ;
1373:DMP/driver/eMPL/inv_mpu.c ****     else if (lpf >= 42)
1374:DMP/driver/eMPL/inv_mpu.c ****         data = INV_FILTER_42HZ;
1375:DMP/driver/eMPL/inv_mpu.c ****     else if (lpf >= 20)
1376:DMP/driver/eMPL/inv_mpu.c ****         data = INV_FILTER_20HZ;
1377:DMP/driver/eMPL/inv_mpu.c ****     else if (lpf >= 10)
1378:DMP/driver/eMPL/inv_mpu.c ****         data = INV_FILTER_10HZ;
1379:DMP/driver/eMPL/inv_mpu.c ****     else
1380:DMP/driver/eMPL/inv_mpu.c ****         data = INV_FILTER_5HZ;
1381:DMP/driver/eMPL/inv_mpu.c **** 
1382:DMP/driver/eMPL/inv_mpu.c ****     if (st.chip_cfg.lpf == data)
1383:DMP/driver/eMPL/inv_mpu.c ****         return 0;
1384:DMP/driver/eMPL/inv_mpu.c ****     if (i2c_write(st.hw->addr, st.reg->lpf, 1, &data))
1385:DMP/driver/eMPL/inv_mpu.c ****         return -1;
1386:DMP/driver/eMPL/inv_mpu.c ****     st.chip_cfg.lpf = data;
1387:DMP/driver/eMPL/inv_mpu.c ****     return 0;
1388:DMP/driver/eMPL/inv_mpu.c **** }
1389:DMP/driver/eMPL/inv_mpu.c **** 
1390:DMP/driver/eMPL/inv_mpu.c **** /**
1391:DMP/driver/eMPL/inv_mpu.c ****  *  @brief      Get sampling rate.
ARM GAS  /var/folders/21/t9g5rlb91ys800n5npymflf80000gn/T//cclZ9YEQ.s 			page 29


1392:DMP/driver/eMPL/inv_mpu.c ****  *  @param[out] rate    Current sampling rate (Hz).
1393:DMP/driver/eMPL/inv_mpu.c ****  *  @return     0 if successful.
1394:DMP/driver/eMPL/inv_mpu.c ****  */
1395:DMP/driver/eMPL/inv_mpu.c **** int mpu_get_sample_rate(unsigned short *rate)
1396:DMP/driver/eMPL/inv_mpu.c **** {
1397:DMP/driver/eMPL/inv_mpu.c ****     if (st.chip_cfg.dmp_on)
1398:DMP/driver/eMPL/inv_mpu.c ****         return -1;
1399:DMP/driver/eMPL/inv_mpu.c ****     else
1400:DMP/driver/eMPL/inv_mpu.c ****         rate[0] = st.chip_cfg.sample_rate;
1401:DMP/driver/eMPL/inv_mpu.c ****     return 0;
1402:DMP/driver/eMPL/inv_mpu.c **** }
1403:DMP/driver/eMPL/inv_mpu.c **** 
1404:DMP/driver/eMPL/inv_mpu.c **** /**
1405:DMP/driver/eMPL/inv_mpu.c ****  *  @brief      Set sampling rate.
1406:DMP/driver/eMPL/inv_mpu.c ****  *  Sampling rate must be between 4Hz and 1kHz.
1407:DMP/driver/eMPL/inv_mpu.c ****  *  @param[in]  rate    Desired sampling rate (Hz).
1408:DMP/driver/eMPL/inv_mpu.c ****  *  @return     0 if successful.
1409:DMP/driver/eMPL/inv_mpu.c ****  */
1410:DMP/driver/eMPL/inv_mpu.c **** int mpu_set_sample_rate(unsigned short rate)
1411:DMP/driver/eMPL/inv_mpu.c **** {
1412:DMP/driver/eMPL/inv_mpu.c ****     unsigned char data;
1413:DMP/driver/eMPL/inv_mpu.c **** 
1414:DMP/driver/eMPL/inv_mpu.c ****     if (!(st.chip_cfg.sensors))
1415:DMP/driver/eMPL/inv_mpu.c ****         return -1;
1416:DMP/driver/eMPL/inv_mpu.c **** 
1417:DMP/driver/eMPL/inv_mpu.c ****     if (st.chip_cfg.dmp_on)
1418:DMP/driver/eMPL/inv_mpu.c ****         return -1;
1419:DMP/driver/eMPL/inv_mpu.c ****     else {
1420:DMP/driver/eMPL/inv_mpu.c ****         if (st.chip_cfg.lp_accel_mode) {
1421:DMP/driver/eMPL/inv_mpu.c ****             if (rate && (rate <= 40)) {
1422:DMP/driver/eMPL/inv_mpu.c ****                 /* Just stay in low-power accel mode. */
1423:DMP/driver/eMPL/inv_mpu.c ****                 mpu_lp_accel_mode(rate);
1424:DMP/driver/eMPL/inv_mpu.c ****                 return 0;
1425:DMP/driver/eMPL/inv_mpu.c ****             }
1426:DMP/driver/eMPL/inv_mpu.c ****             /* Requested rate exceeds the allowed frequencies in LP accel mode,
1427:DMP/driver/eMPL/inv_mpu.c ****              * switch back to full-power mode.
1428:DMP/driver/eMPL/inv_mpu.c ****              */
1429:DMP/driver/eMPL/inv_mpu.c ****             mpu_lp_accel_mode(0);
1430:DMP/driver/eMPL/inv_mpu.c ****         }
1431:DMP/driver/eMPL/inv_mpu.c ****         if (rate < 4)
1432:DMP/driver/eMPL/inv_mpu.c ****             rate = 4;
1433:DMP/driver/eMPL/inv_mpu.c ****         else if (rate > 1000)
1434:DMP/driver/eMPL/inv_mpu.c ****             rate = 1000;
1435:DMP/driver/eMPL/inv_mpu.c **** 
1436:DMP/driver/eMPL/inv_mpu.c ****         data = 1000 / rate - 1;
1437:DMP/driver/eMPL/inv_mpu.c ****         if (i2c_write(st.hw->addr, st.reg->rate_div, 1, &data))
1438:DMP/driver/eMPL/inv_mpu.c ****             return -1;
1439:DMP/driver/eMPL/inv_mpu.c **** 
1440:DMP/driver/eMPL/inv_mpu.c ****         st.chip_cfg.sample_rate = 1000 / (1 + data);
1441:DMP/driver/eMPL/inv_mpu.c **** 
1442:DMP/driver/eMPL/inv_mpu.c **** #ifdef AK89xx_SECONDARY
1443:DMP/driver/eMPL/inv_mpu.c ****         mpu_set_compass_sample_rate(min(st.chip_cfg.compass_sample_rate, MAX_COMPASS_SAMPLE_RATE));
1444:DMP/driver/eMPL/inv_mpu.c **** #endif
1445:DMP/driver/eMPL/inv_mpu.c **** 
1446:DMP/driver/eMPL/inv_mpu.c ****         /* Automatically set LPF to 1/2 sampling rate. */
1447:DMP/driver/eMPL/inv_mpu.c ****         mpu_set_lpf(st.chip_cfg.sample_rate >> 1);
1448:DMP/driver/eMPL/inv_mpu.c ****         return 0;
ARM GAS  /var/folders/21/t9g5rlb91ys800n5npymflf80000gn/T//cclZ9YEQ.s 			page 30


1449:DMP/driver/eMPL/inv_mpu.c ****     }
1450:DMP/driver/eMPL/inv_mpu.c **** }
1451:DMP/driver/eMPL/inv_mpu.c **** 
1452:DMP/driver/eMPL/inv_mpu.c **** /**
1453:DMP/driver/eMPL/inv_mpu.c ****  *  @brief      Get compass sampling rate.
1454:DMP/driver/eMPL/inv_mpu.c ****  *  @param[out] rate    Current compass sampling rate (Hz).
1455:DMP/driver/eMPL/inv_mpu.c ****  *  @return     0 if successful.
1456:DMP/driver/eMPL/inv_mpu.c ****  */
1457:DMP/driver/eMPL/inv_mpu.c **** int mpu_get_compass_sample_rate(unsigned short *rate)
1458:DMP/driver/eMPL/inv_mpu.c **** {
1459:DMP/driver/eMPL/inv_mpu.c **** #ifdef AK89xx_SECONDARY
1460:DMP/driver/eMPL/inv_mpu.c ****     rate[0] = st.chip_cfg.compass_sample_rate;
1461:DMP/driver/eMPL/inv_mpu.c ****     return 0;
1462:DMP/driver/eMPL/inv_mpu.c **** #else
1463:DMP/driver/eMPL/inv_mpu.c ****     rate[0] = 0;
1464:DMP/driver/eMPL/inv_mpu.c ****     return -1;
1465:DMP/driver/eMPL/inv_mpu.c **** #endif
1466:DMP/driver/eMPL/inv_mpu.c **** }
1467:DMP/driver/eMPL/inv_mpu.c **** 
1468:DMP/driver/eMPL/inv_mpu.c **** /**
1469:DMP/driver/eMPL/inv_mpu.c ****  *  @brief      Set compass sampling rate.
1470:DMP/driver/eMPL/inv_mpu.c ****  *  The compass on the auxiliary I2C bus is read by the MPU hardware at a
1471:DMP/driver/eMPL/inv_mpu.c ****  *  maximum of 100Hz. The actual rate can be set to a fraction of the gyro
1472:DMP/driver/eMPL/inv_mpu.c ****  *  sampling rate.
1473:DMP/driver/eMPL/inv_mpu.c ****  *
1474:DMP/driver/eMPL/inv_mpu.c ****  *  \n WARNING: The new rate may be different than what was requested. Call
1475:DMP/driver/eMPL/inv_mpu.c ****  *  mpu_get_compass_sample_rate to check the actual setting.
1476:DMP/driver/eMPL/inv_mpu.c ****  *  @param[in]  rate    Desired compass sampling rate (Hz).
1477:DMP/driver/eMPL/inv_mpu.c ****  *  @return     0 if successful.
1478:DMP/driver/eMPL/inv_mpu.c ****  */
1479:DMP/driver/eMPL/inv_mpu.c **** int mpu_set_compass_sample_rate(unsigned short rate)
1480:DMP/driver/eMPL/inv_mpu.c **** {
1481:DMP/driver/eMPL/inv_mpu.c **** #ifdef AK89xx_SECONDARY
1482:DMP/driver/eMPL/inv_mpu.c ****     unsigned char div;
1483:DMP/driver/eMPL/inv_mpu.c ****     if (!rate || rate > st.chip_cfg.sample_rate || rate > MAX_COMPASS_SAMPLE_RATE)
1484:DMP/driver/eMPL/inv_mpu.c ****         return -1;
1485:DMP/driver/eMPL/inv_mpu.c **** 
1486:DMP/driver/eMPL/inv_mpu.c ****     div = st.chip_cfg.sample_rate / rate - 1;
1487:DMP/driver/eMPL/inv_mpu.c ****     if (i2c_write(st.hw->addr, st.reg->s4_ctrl, 1, &div))
1488:DMP/driver/eMPL/inv_mpu.c ****         return -1;
1489:DMP/driver/eMPL/inv_mpu.c ****     st.chip_cfg.compass_sample_rate = st.chip_cfg.sample_rate / (div + 1);
1490:DMP/driver/eMPL/inv_mpu.c ****     return 0;
1491:DMP/driver/eMPL/inv_mpu.c **** #else
1492:DMP/driver/eMPL/inv_mpu.c ****     return -1;
1493:DMP/driver/eMPL/inv_mpu.c **** #endif
1494:DMP/driver/eMPL/inv_mpu.c **** }
1495:DMP/driver/eMPL/inv_mpu.c **** 
1496:DMP/driver/eMPL/inv_mpu.c **** /**
1497:DMP/driver/eMPL/inv_mpu.c ****  *  @brief      Get gyro sensitivity scale factor.
1498:DMP/driver/eMPL/inv_mpu.c ****  *  @param[out] sens    Conversion from hardware units to dps.
1499:DMP/driver/eMPL/inv_mpu.c ****  *  @return     0 if successful.
1500:DMP/driver/eMPL/inv_mpu.c ****  */
1501:DMP/driver/eMPL/inv_mpu.c **** int mpu_get_gyro_sens(float *sens)
1502:DMP/driver/eMPL/inv_mpu.c **** {
1503:DMP/driver/eMPL/inv_mpu.c ****     switch (st.chip_cfg.gyro_fsr) {
1504:DMP/driver/eMPL/inv_mpu.c ****     case INV_FSR_250DPS:
1505:DMP/driver/eMPL/inv_mpu.c ****         sens[0] = 131.f;
ARM GAS  /var/folders/21/t9g5rlb91ys800n5npymflf80000gn/T//cclZ9YEQ.s 			page 31


1506:DMP/driver/eMPL/inv_mpu.c ****         break;
1507:DMP/driver/eMPL/inv_mpu.c ****     case INV_FSR_500DPS:
1508:DMP/driver/eMPL/inv_mpu.c ****         sens[0] = 65.5f;
1509:DMP/driver/eMPL/inv_mpu.c ****         break;
1510:DMP/driver/eMPL/inv_mpu.c ****     case INV_FSR_1000DPS:
1511:DMP/driver/eMPL/inv_mpu.c ****         sens[0] = 32.8f;
1512:DMP/driver/eMPL/inv_mpu.c ****         break;
1513:DMP/driver/eMPL/inv_mpu.c ****     case INV_FSR_2000DPS:
1514:DMP/driver/eMPL/inv_mpu.c ****         sens[0] = 16.4f;
1515:DMP/driver/eMPL/inv_mpu.c ****         break;
1516:DMP/driver/eMPL/inv_mpu.c ****     default:
1517:DMP/driver/eMPL/inv_mpu.c ****         return -1;
1518:DMP/driver/eMPL/inv_mpu.c ****     }
1519:DMP/driver/eMPL/inv_mpu.c ****     return 0;
1520:DMP/driver/eMPL/inv_mpu.c **** }
1521:DMP/driver/eMPL/inv_mpu.c **** 
1522:DMP/driver/eMPL/inv_mpu.c **** /**
1523:DMP/driver/eMPL/inv_mpu.c ****  *  @brief      Get accel sensitivity scale factor.
1524:DMP/driver/eMPL/inv_mpu.c ****  *  @param[out] sens    Conversion from hardware units to g's.
1525:DMP/driver/eMPL/inv_mpu.c ****  *  @return     0 if successful.
1526:DMP/driver/eMPL/inv_mpu.c ****  */
1527:DMP/driver/eMPL/inv_mpu.c **** int mpu_get_accel_sens(unsigned short *sens)
1528:DMP/driver/eMPL/inv_mpu.c **** {
1529:DMP/driver/eMPL/inv_mpu.c ****     switch (st.chip_cfg.accel_fsr) {
1530:DMP/driver/eMPL/inv_mpu.c ****     case INV_FSR_2G:
1531:DMP/driver/eMPL/inv_mpu.c ****         sens[0] = 16384;
1532:DMP/driver/eMPL/inv_mpu.c ****         break;
1533:DMP/driver/eMPL/inv_mpu.c ****     case INV_FSR_4G:
1534:DMP/driver/eMPL/inv_mpu.c ****         sens[0] = 8192;
1535:DMP/driver/eMPL/inv_mpu.c ****         break;
1536:DMP/driver/eMPL/inv_mpu.c ****     case INV_FSR_8G:
1537:DMP/driver/eMPL/inv_mpu.c ****         sens[0] = 4096;
1538:DMP/driver/eMPL/inv_mpu.c ****         break;
1539:DMP/driver/eMPL/inv_mpu.c ****     case INV_FSR_16G:
1540:DMP/driver/eMPL/inv_mpu.c ****         sens[0] = 2048;
1541:DMP/driver/eMPL/inv_mpu.c ****         break;
1542:DMP/driver/eMPL/inv_mpu.c ****     default:
1543:DMP/driver/eMPL/inv_mpu.c ****         return -1;
1544:DMP/driver/eMPL/inv_mpu.c ****     }
1545:DMP/driver/eMPL/inv_mpu.c ****     if (st.chip_cfg.accel_half)
1546:DMP/driver/eMPL/inv_mpu.c ****         sens[0] >>= 1;
1547:DMP/driver/eMPL/inv_mpu.c ****     return 0;
1548:DMP/driver/eMPL/inv_mpu.c **** }
1549:DMP/driver/eMPL/inv_mpu.c **** 
1550:DMP/driver/eMPL/inv_mpu.c **** /**
1551:DMP/driver/eMPL/inv_mpu.c ****  *  @brief      Get current FIFO configuration.
1552:DMP/driver/eMPL/inv_mpu.c ****  *  @e sensors can contain a combination of the following flags:
1553:DMP/driver/eMPL/inv_mpu.c ****  *  \n INV_X_GYRO, INV_Y_GYRO, INV_Z_GYRO
1554:DMP/driver/eMPL/inv_mpu.c ****  *  \n INV_XYZ_GYRO
1555:DMP/driver/eMPL/inv_mpu.c ****  *  \n INV_XYZ_ACCEL
1556:DMP/driver/eMPL/inv_mpu.c ****  *  @param[out] sensors Mask of sensors in FIFO.
1557:DMP/driver/eMPL/inv_mpu.c ****  *  @return     0 if successful.
1558:DMP/driver/eMPL/inv_mpu.c ****  */
1559:DMP/driver/eMPL/inv_mpu.c **** int mpu_get_fifo_config(unsigned char *sensors)
1560:DMP/driver/eMPL/inv_mpu.c **** {
1561:DMP/driver/eMPL/inv_mpu.c ****     sensors[0] = st.chip_cfg.fifo_enable;
1562:DMP/driver/eMPL/inv_mpu.c ****     return 0;
ARM GAS  /var/folders/21/t9g5rlb91ys800n5npymflf80000gn/T//cclZ9YEQ.s 			page 32


1563:DMP/driver/eMPL/inv_mpu.c **** }
1564:DMP/driver/eMPL/inv_mpu.c **** 
1565:DMP/driver/eMPL/inv_mpu.c **** /**
1566:DMP/driver/eMPL/inv_mpu.c ****  *  @brief      Select which sensors are pushed to FIFO.
1567:DMP/driver/eMPL/inv_mpu.c ****  *  @e sensors can contain a combination of the following flags:
1568:DMP/driver/eMPL/inv_mpu.c ****  *  \n INV_X_GYRO, INV_Y_GYRO, INV_Z_GYRO
1569:DMP/driver/eMPL/inv_mpu.c ****  *  \n INV_XYZ_GYRO
1570:DMP/driver/eMPL/inv_mpu.c ****  *  \n INV_XYZ_ACCEL
1571:DMP/driver/eMPL/inv_mpu.c ****  *  @param[in]  sensors Mask of sensors to push to FIFO.
1572:DMP/driver/eMPL/inv_mpu.c ****  *  @return     0 if successful.
1573:DMP/driver/eMPL/inv_mpu.c ****  */
1574:DMP/driver/eMPL/inv_mpu.c **** int mpu_configure_fifo(unsigned char sensors)
1575:DMP/driver/eMPL/inv_mpu.c **** {
1576:DMP/driver/eMPL/inv_mpu.c ****     unsigned char prev;
1577:DMP/driver/eMPL/inv_mpu.c ****     int result = 0;
1578:DMP/driver/eMPL/inv_mpu.c **** 
1579:DMP/driver/eMPL/inv_mpu.c ****     /* Compass data isn't going into the FIFO. Stop trying. */
1580:DMP/driver/eMPL/inv_mpu.c ****     sensors &= ~INV_XYZ_COMPASS;
1581:DMP/driver/eMPL/inv_mpu.c **** 
1582:DMP/driver/eMPL/inv_mpu.c ****     if (st.chip_cfg.dmp_on)
1583:DMP/driver/eMPL/inv_mpu.c ****         return 0;
1584:DMP/driver/eMPL/inv_mpu.c ****     else {
1585:DMP/driver/eMPL/inv_mpu.c ****         if (!(st.chip_cfg.sensors))
1586:DMP/driver/eMPL/inv_mpu.c ****             return -1;
1587:DMP/driver/eMPL/inv_mpu.c ****         prev = st.chip_cfg.fifo_enable;
1588:DMP/driver/eMPL/inv_mpu.c ****         st.chip_cfg.fifo_enable = sensors & st.chip_cfg.sensors;
1589:DMP/driver/eMPL/inv_mpu.c ****         if (st.chip_cfg.fifo_enable != sensors)
1590:DMP/driver/eMPL/inv_mpu.c ****             /* You're not getting what you asked for. Some sensors are
1591:DMP/driver/eMPL/inv_mpu.c ****              * asleep.
1592:DMP/driver/eMPL/inv_mpu.c ****              */
1593:DMP/driver/eMPL/inv_mpu.c ****             result = -1;
1594:DMP/driver/eMPL/inv_mpu.c ****         else
1595:DMP/driver/eMPL/inv_mpu.c ****             result = 0;
1596:DMP/driver/eMPL/inv_mpu.c ****         if (sensors || st.chip_cfg.lp_accel_mode)
1597:DMP/driver/eMPL/inv_mpu.c ****             set_int_enable(1);
1598:DMP/driver/eMPL/inv_mpu.c ****         else
1599:DMP/driver/eMPL/inv_mpu.c ****             set_int_enable(0);
1600:DMP/driver/eMPL/inv_mpu.c ****         if (sensors) {
1601:DMP/driver/eMPL/inv_mpu.c ****             if (mpu_reset_fifo()) {
1602:DMP/driver/eMPL/inv_mpu.c ****                 st.chip_cfg.fifo_enable = prev;
1603:DMP/driver/eMPL/inv_mpu.c ****                 return -1;
1604:DMP/driver/eMPL/inv_mpu.c ****             }
1605:DMP/driver/eMPL/inv_mpu.c ****         }
1606:DMP/driver/eMPL/inv_mpu.c ****     }
1607:DMP/driver/eMPL/inv_mpu.c **** 
1608:DMP/driver/eMPL/inv_mpu.c ****     return result;
1609:DMP/driver/eMPL/inv_mpu.c **** }
1610:DMP/driver/eMPL/inv_mpu.c **** 
1611:DMP/driver/eMPL/inv_mpu.c **** /**
1612:DMP/driver/eMPL/inv_mpu.c ****  *  @brief      Get current power state.
1613:DMP/driver/eMPL/inv_mpu.c ****  *  @param[in]  power_on    1 if turned on, 0 if suspended.
1614:DMP/driver/eMPL/inv_mpu.c ****  *  @return     0 if successful.
1615:DMP/driver/eMPL/inv_mpu.c ****  */
1616:DMP/driver/eMPL/inv_mpu.c **** int mpu_get_power_state(unsigned char *power_on)
1617:DMP/driver/eMPL/inv_mpu.c **** {
1618:DMP/driver/eMPL/inv_mpu.c ****     if (st.chip_cfg.sensors)
1619:DMP/driver/eMPL/inv_mpu.c ****         power_on[0] = 1;
ARM GAS  /var/folders/21/t9g5rlb91ys800n5npymflf80000gn/T//cclZ9YEQ.s 			page 33


1620:DMP/driver/eMPL/inv_mpu.c ****     else
1621:DMP/driver/eMPL/inv_mpu.c ****         power_on[0] = 0;
1622:DMP/driver/eMPL/inv_mpu.c ****     return 0;
1623:DMP/driver/eMPL/inv_mpu.c **** }
1624:DMP/driver/eMPL/inv_mpu.c **** 
1625:DMP/driver/eMPL/inv_mpu.c **** /**
1626:DMP/driver/eMPL/inv_mpu.c ****  *  @brief      Turn specific sensors on/off.
1627:DMP/driver/eMPL/inv_mpu.c ****  *  @e sensors can contain a combination of the following flags:
1628:DMP/driver/eMPL/inv_mpu.c ****  *  \n INV_X_GYRO, INV_Y_GYRO, INV_Z_GYRO
1629:DMP/driver/eMPL/inv_mpu.c ****  *  \n INV_XYZ_GYRO
1630:DMP/driver/eMPL/inv_mpu.c ****  *  \n INV_XYZ_ACCEL
1631:DMP/driver/eMPL/inv_mpu.c ****  *  \n INV_XYZ_COMPASS
1632:DMP/driver/eMPL/inv_mpu.c ****  *  @param[in]  sensors    Mask of sensors to wake.
1633:DMP/driver/eMPL/inv_mpu.c ****  *  @return     0 if successful.
1634:DMP/driver/eMPL/inv_mpu.c ****  */
1635:DMP/driver/eMPL/inv_mpu.c **** int mpu_set_sensors(unsigned char sensors)
1636:DMP/driver/eMPL/inv_mpu.c **** {
1637:DMP/driver/eMPL/inv_mpu.c ****     unsigned char data;
1638:DMP/driver/eMPL/inv_mpu.c **** #ifdef AK89xx_SECONDARY
1639:DMP/driver/eMPL/inv_mpu.c ****     unsigned char user_ctrl;
1640:DMP/driver/eMPL/inv_mpu.c **** #endif
1641:DMP/driver/eMPL/inv_mpu.c **** 
1642:DMP/driver/eMPL/inv_mpu.c ****     if (sensors & INV_XYZ_GYRO)
1643:DMP/driver/eMPL/inv_mpu.c ****         data = INV_CLK_PLL;
1644:DMP/driver/eMPL/inv_mpu.c ****     else if (sensors)
1645:DMP/driver/eMPL/inv_mpu.c ****         data = 0;
1646:DMP/driver/eMPL/inv_mpu.c ****     else
1647:DMP/driver/eMPL/inv_mpu.c ****         data = BIT_SLEEP;
1648:DMP/driver/eMPL/inv_mpu.c ****     if (i2c_write(st.hw->addr, st.reg->pwr_mgmt_1, 1, &data)) {
1649:DMP/driver/eMPL/inv_mpu.c ****         st.chip_cfg.sensors = 0;
1650:DMP/driver/eMPL/inv_mpu.c ****         return -1;
1651:DMP/driver/eMPL/inv_mpu.c ****     }
1652:DMP/driver/eMPL/inv_mpu.c ****     st.chip_cfg.clk_src = data & ~BIT_SLEEP;
1653:DMP/driver/eMPL/inv_mpu.c **** 
1654:DMP/driver/eMPL/inv_mpu.c ****     data = 0;
1655:DMP/driver/eMPL/inv_mpu.c ****     if (!(sensors & INV_X_GYRO))
1656:DMP/driver/eMPL/inv_mpu.c ****         data |= BIT_STBY_XG;
1657:DMP/driver/eMPL/inv_mpu.c ****     if (!(sensors & INV_Y_GYRO))
1658:DMP/driver/eMPL/inv_mpu.c ****         data |= BIT_STBY_YG;
1659:DMP/driver/eMPL/inv_mpu.c ****     if (!(sensors & INV_Z_GYRO))
1660:DMP/driver/eMPL/inv_mpu.c ****         data |= BIT_STBY_ZG;
1661:DMP/driver/eMPL/inv_mpu.c ****     if (!(sensors & INV_XYZ_ACCEL))
1662:DMP/driver/eMPL/inv_mpu.c ****         data |= BIT_STBY_XYZA;
1663:DMP/driver/eMPL/inv_mpu.c ****     if (i2c_write(st.hw->addr, st.reg->pwr_mgmt_2, 1, &data)) {
1664:DMP/driver/eMPL/inv_mpu.c ****         st.chip_cfg.sensors = 0;
1665:DMP/driver/eMPL/inv_mpu.c ****         return -1;
1666:DMP/driver/eMPL/inv_mpu.c ****     }
1667:DMP/driver/eMPL/inv_mpu.c **** 
1668:DMP/driver/eMPL/inv_mpu.c ****     if (sensors && (sensors != INV_XYZ_ACCEL))
1669:DMP/driver/eMPL/inv_mpu.c ****         /* Latched interrupts only used in LP accel mode. */
1670:DMP/driver/eMPL/inv_mpu.c ****         mpu_set_int_latched(0);
1671:DMP/driver/eMPL/inv_mpu.c **** 
1672:DMP/driver/eMPL/inv_mpu.c **** #ifdef AK89xx_SECONDARY
1673:DMP/driver/eMPL/inv_mpu.c **** #ifdef AK89xx_BYPASS
1674:DMP/driver/eMPL/inv_mpu.c ****     if (sensors & INV_XYZ_COMPASS)
1675:DMP/driver/eMPL/inv_mpu.c ****         mpu_set_bypass(1);
1676:DMP/driver/eMPL/inv_mpu.c ****     else
ARM GAS  /var/folders/21/t9g5rlb91ys800n5npymflf80000gn/T//cclZ9YEQ.s 			page 34


1677:DMP/driver/eMPL/inv_mpu.c ****         mpu_set_bypass(0);
1678:DMP/driver/eMPL/inv_mpu.c **** #else
1679:DMP/driver/eMPL/inv_mpu.c ****     if (i2c_read(st.hw->addr, st.reg->user_ctrl, 1, &user_ctrl))
1680:DMP/driver/eMPL/inv_mpu.c ****         return -1;
1681:DMP/driver/eMPL/inv_mpu.c ****     /* Handle AKM power management. */
1682:DMP/driver/eMPL/inv_mpu.c ****     if (sensors & INV_XYZ_COMPASS) {
1683:DMP/driver/eMPL/inv_mpu.c ****         data = AKM_SINGLE_MEASUREMENT;
1684:DMP/driver/eMPL/inv_mpu.c ****         user_ctrl |= BIT_AUX_IF_EN;
1685:DMP/driver/eMPL/inv_mpu.c ****     } else {
1686:DMP/driver/eMPL/inv_mpu.c ****         data = AKM_POWER_DOWN;
1687:DMP/driver/eMPL/inv_mpu.c ****         user_ctrl &= ~BIT_AUX_IF_EN;
1688:DMP/driver/eMPL/inv_mpu.c ****     }
1689:DMP/driver/eMPL/inv_mpu.c ****     if (st.chip_cfg.dmp_on)
1690:DMP/driver/eMPL/inv_mpu.c ****         user_ctrl |= BIT_DMP_EN;
1691:DMP/driver/eMPL/inv_mpu.c ****     else
1692:DMP/driver/eMPL/inv_mpu.c ****         user_ctrl &= ~BIT_DMP_EN;
1693:DMP/driver/eMPL/inv_mpu.c ****     if (i2c_write(st.hw->addr, st.reg->s1_do, 1, &data))
1694:DMP/driver/eMPL/inv_mpu.c ****         return -1;
1695:DMP/driver/eMPL/inv_mpu.c ****     /* Enable/disable I2C master mode. */
1696:DMP/driver/eMPL/inv_mpu.c ****     if (i2c_write(st.hw->addr, st.reg->user_ctrl, 1, &user_ctrl))
1697:DMP/driver/eMPL/inv_mpu.c ****         return -1;
1698:DMP/driver/eMPL/inv_mpu.c **** #endif
1699:DMP/driver/eMPL/inv_mpu.c **** #endif
1700:DMP/driver/eMPL/inv_mpu.c **** 
1701:DMP/driver/eMPL/inv_mpu.c ****     st.chip_cfg.sensors = sensors;
1702:DMP/driver/eMPL/inv_mpu.c ****     st.chip_cfg.lp_accel_mode = 0;
1703:DMP/driver/eMPL/inv_mpu.c ****     delay_ms(50);
1704:DMP/driver/eMPL/inv_mpu.c ****     return 0;
1705:DMP/driver/eMPL/inv_mpu.c **** }
1706:DMP/driver/eMPL/inv_mpu.c **** 
1707:DMP/driver/eMPL/inv_mpu.c **** /**
1708:DMP/driver/eMPL/inv_mpu.c ****  *  @brief      Read the MPU interrupt status registers.
1709:DMP/driver/eMPL/inv_mpu.c ****  *  @param[out] status  Mask of interrupt bits.
1710:DMP/driver/eMPL/inv_mpu.c ****  *  @return     0 if successful.
1711:DMP/driver/eMPL/inv_mpu.c ****  */
1712:DMP/driver/eMPL/inv_mpu.c **** int mpu_get_int_status(short *status)
1713:DMP/driver/eMPL/inv_mpu.c **** {
1714:DMP/driver/eMPL/inv_mpu.c ****     unsigned char tmp[2];
1715:DMP/driver/eMPL/inv_mpu.c ****     if (!st.chip_cfg.sensors)
1716:DMP/driver/eMPL/inv_mpu.c ****         return -1;
1717:DMP/driver/eMPL/inv_mpu.c ****     if (i2c_read(st.hw->addr, st.reg->dmp_int_status, 2, tmp))
1718:DMP/driver/eMPL/inv_mpu.c ****         return -1;
1719:DMP/driver/eMPL/inv_mpu.c ****     status[0] = (tmp[0] << 8) | tmp[1];
1720:DMP/driver/eMPL/inv_mpu.c ****     return 0;
1721:DMP/driver/eMPL/inv_mpu.c **** }
1722:DMP/driver/eMPL/inv_mpu.c **** 
1723:DMP/driver/eMPL/inv_mpu.c **** /**
1724:DMP/driver/eMPL/inv_mpu.c ****  *  @brief      Get one packet from the FIFO.
1725:DMP/driver/eMPL/inv_mpu.c ****  *  If @e sensors does not contain a particular sensor, disregard the data
1726:DMP/driver/eMPL/inv_mpu.c ****  *  returned to that pointer.
1727:DMP/driver/eMPL/inv_mpu.c ****  *  \n @e sensors can contain a combination of the following flags:
1728:DMP/driver/eMPL/inv_mpu.c ****  *  \n INV_X_GYRO, INV_Y_GYRO, INV_Z_GYRO
1729:DMP/driver/eMPL/inv_mpu.c ****  *  \n INV_XYZ_GYRO
1730:DMP/driver/eMPL/inv_mpu.c ****  *  \n INV_XYZ_ACCEL
1731:DMP/driver/eMPL/inv_mpu.c ****  *  \n If the FIFO has no new data, @e sensors will be zero.
1732:DMP/driver/eMPL/inv_mpu.c ****  *  \n If the FIFO is disabled, @e sensors will be zero and this function will
1733:DMP/driver/eMPL/inv_mpu.c ****  *  return a non-zero error code.
ARM GAS  /var/folders/21/t9g5rlb91ys800n5npymflf80000gn/T//cclZ9YEQ.s 			page 35


1734:DMP/driver/eMPL/inv_mpu.c ****  *  @param[out] gyro        Gyro data in hardware units.
1735:DMP/driver/eMPL/inv_mpu.c ****  *  @param[out] accel       Accel data in hardware units.
1736:DMP/driver/eMPL/inv_mpu.c ****  *  @param[out] timestamp   Timestamp in milliseconds.
1737:DMP/driver/eMPL/inv_mpu.c ****  *  @param[out] sensors     Mask of sensors read from FIFO.
1738:DMP/driver/eMPL/inv_mpu.c ****  *  @param[out] more        Number of remaining packets.
1739:DMP/driver/eMPL/inv_mpu.c ****  *  @return     0 if successful.
1740:DMP/driver/eMPL/inv_mpu.c ****  */
1741:DMP/driver/eMPL/inv_mpu.c **** int mpu_read_fifo(short *gyro, short *accel, unsigned long *timestamp,
1742:DMP/driver/eMPL/inv_mpu.c ****         unsigned char *sensors, unsigned char *more)
1743:DMP/driver/eMPL/inv_mpu.c **** {
1744:DMP/driver/eMPL/inv_mpu.c ****     /* Assumes maximum packet size is gyro (6) + accel (6). */
1745:DMP/driver/eMPL/inv_mpu.c ****     unsigned char data[MAX_PACKET_LENGTH];
1746:DMP/driver/eMPL/inv_mpu.c ****     unsigned char packet_size = 0;
1747:DMP/driver/eMPL/inv_mpu.c ****     unsigned short fifo_count, index = 0;
1748:DMP/driver/eMPL/inv_mpu.c **** 
1749:DMP/driver/eMPL/inv_mpu.c ****     if (st.chip_cfg.dmp_on)
1750:DMP/driver/eMPL/inv_mpu.c ****         return -1;
1751:DMP/driver/eMPL/inv_mpu.c **** 
1752:DMP/driver/eMPL/inv_mpu.c ****     sensors[0] = 0;
1753:DMP/driver/eMPL/inv_mpu.c ****     if (!st.chip_cfg.sensors)
1754:DMP/driver/eMPL/inv_mpu.c ****         return -1;
1755:DMP/driver/eMPL/inv_mpu.c ****     if (!st.chip_cfg.fifo_enable)
1756:DMP/driver/eMPL/inv_mpu.c ****         return -1;
1757:DMP/driver/eMPL/inv_mpu.c **** 
1758:DMP/driver/eMPL/inv_mpu.c ****     if (st.chip_cfg.fifo_enable & INV_X_GYRO)
1759:DMP/driver/eMPL/inv_mpu.c ****         packet_size += 2;
1760:DMP/driver/eMPL/inv_mpu.c ****     if (st.chip_cfg.fifo_enable & INV_Y_GYRO)
1761:DMP/driver/eMPL/inv_mpu.c ****         packet_size += 2;
1762:DMP/driver/eMPL/inv_mpu.c ****     if (st.chip_cfg.fifo_enable & INV_Z_GYRO)
1763:DMP/driver/eMPL/inv_mpu.c ****         packet_size += 2;
1764:DMP/driver/eMPL/inv_mpu.c ****     if (st.chip_cfg.fifo_enable & INV_XYZ_ACCEL)
1765:DMP/driver/eMPL/inv_mpu.c ****         packet_size += 6;
1766:DMP/driver/eMPL/inv_mpu.c **** 
1767:DMP/driver/eMPL/inv_mpu.c ****     if (i2c_read(st.hw->addr, st.reg->fifo_count_h, 2, data))
1768:DMP/driver/eMPL/inv_mpu.c ****         return -1;
1769:DMP/driver/eMPL/inv_mpu.c ****     fifo_count = (data[0] << 8) | data[1];
1770:DMP/driver/eMPL/inv_mpu.c ****     if (fifo_count < packet_size)
1771:DMP/driver/eMPL/inv_mpu.c ****         return 0;
1772:DMP/driver/eMPL/inv_mpu.c **** //    log_i("FIFO count: %hd\n", fifo_count);
1773:DMP/driver/eMPL/inv_mpu.c ****     if (fifo_count > (st.hw->max_fifo >> 1)) {
1774:DMP/driver/eMPL/inv_mpu.c ****         /* FIFO is 50% full, better check overflow bit. */
1775:DMP/driver/eMPL/inv_mpu.c ****         if (i2c_read(st.hw->addr, st.reg->int_status, 1, data))
1776:DMP/driver/eMPL/inv_mpu.c ****             return -1;
1777:DMP/driver/eMPL/inv_mpu.c ****         if (data[0] & BIT_FIFO_OVERFLOW) {
1778:DMP/driver/eMPL/inv_mpu.c ****             mpu_reset_fifo();
1779:DMP/driver/eMPL/inv_mpu.c ****             return -2;
1780:DMP/driver/eMPL/inv_mpu.c ****         }
1781:DMP/driver/eMPL/inv_mpu.c ****     }
1782:DMP/driver/eMPL/inv_mpu.c ****     get_ms((unsigned long*)timestamp);
1783:DMP/driver/eMPL/inv_mpu.c **** 
1784:DMP/driver/eMPL/inv_mpu.c ****     if (i2c_read(st.hw->addr, st.reg->fifo_r_w, packet_size, data))
1785:DMP/driver/eMPL/inv_mpu.c ****         return -1;
1786:DMP/driver/eMPL/inv_mpu.c ****     more[0] = fifo_count / packet_size - 1;
1787:DMP/driver/eMPL/inv_mpu.c ****     sensors[0] = 0;
1788:DMP/driver/eMPL/inv_mpu.c **** 
1789:DMP/driver/eMPL/inv_mpu.c ****     if ((index != packet_size) && st.chip_cfg.fifo_enable & INV_XYZ_ACCEL) {
1790:DMP/driver/eMPL/inv_mpu.c ****         accel[0] = (data[index+0] << 8) | data[index+1];
ARM GAS  /var/folders/21/t9g5rlb91ys800n5npymflf80000gn/T//cclZ9YEQ.s 			page 36


1791:DMP/driver/eMPL/inv_mpu.c ****         accel[1] = (data[index+2] << 8) | data[index+3];
1792:DMP/driver/eMPL/inv_mpu.c ****         accel[2] = (data[index+4] << 8) | data[index+5];
1793:DMP/driver/eMPL/inv_mpu.c ****         sensors[0] |= INV_XYZ_ACCEL;
1794:DMP/driver/eMPL/inv_mpu.c ****         index += 6;
1795:DMP/driver/eMPL/inv_mpu.c ****     }
1796:DMP/driver/eMPL/inv_mpu.c ****     if ((index != packet_size) && st.chip_cfg.fifo_enable & INV_X_GYRO) {
1797:DMP/driver/eMPL/inv_mpu.c ****         gyro[0] = (data[index+0] << 8) | data[index+1];
1798:DMP/driver/eMPL/inv_mpu.c ****         sensors[0] |= INV_X_GYRO;
1799:DMP/driver/eMPL/inv_mpu.c ****         index += 2;
1800:DMP/driver/eMPL/inv_mpu.c ****     }
1801:DMP/driver/eMPL/inv_mpu.c ****     if ((index != packet_size) && st.chip_cfg.fifo_enable & INV_Y_GYRO) {
1802:DMP/driver/eMPL/inv_mpu.c ****         gyro[1] = (data[index+0] << 8) | data[index+1];
1803:DMP/driver/eMPL/inv_mpu.c ****         sensors[0] |= INV_Y_GYRO;
1804:DMP/driver/eMPL/inv_mpu.c ****         index += 2;
1805:DMP/driver/eMPL/inv_mpu.c ****     }
1806:DMP/driver/eMPL/inv_mpu.c ****     if ((index != packet_size) && st.chip_cfg.fifo_enable & INV_Z_GYRO) {
1807:DMP/driver/eMPL/inv_mpu.c ****         gyro[2] = (data[index+0] << 8) | data[index+1];
1808:DMP/driver/eMPL/inv_mpu.c ****         sensors[0] |= INV_Z_GYRO;
1809:DMP/driver/eMPL/inv_mpu.c ****         index += 2;
1810:DMP/driver/eMPL/inv_mpu.c ****     }
1811:DMP/driver/eMPL/inv_mpu.c **** 
1812:DMP/driver/eMPL/inv_mpu.c ****     return 0;
1813:DMP/driver/eMPL/inv_mpu.c **** }
1814:DMP/driver/eMPL/inv_mpu.c **** 
1815:DMP/driver/eMPL/inv_mpu.c **** /**
1816:DMP/driver/eMPL/inv_mpu.c ****  *  @brief      Get one unparsed packet from the FIFO.
1817:DMP/driver/eMPL/inv_mpu.c ****  *  This function should be used if the packet is to be parsed elsewhere.
1818:DMP/driver/eMPL/inv_mpu.c ****  *  @param[in]  length  Length of one FIFO packet.
1819:DMP/driver/eMPL/inv_mpu.c ****  *  @param[in]  data    FIFO packet.
1820:DMP/driver/eMPL/inv_mpu.c ****  *  @param[in]  more    Number of remaining packets.
1821:DMP/driver/eMPL/inv_mpu.c ****  */
1822:DMP/driver/eMPL/inv_mpu.c **** int mpu_read_fifo_stream(unsigned short length, unsigned char *data,
1823:DMP/driver/eMPL/inv_mpu.c ****     unsigned char *more)
1824:DMP/driver/eMPL/inv_mpu.c **** {
1825:DMP/driver/eMPL/inv_mpu.c ****     unsigned char tmp[2];
1826:DMP/driver/eMPL/inv_mpu.c ****     unsigned short fifo_count;
1827:DMP/driver/eMPL/inv_mpu.c ****     if (!st.chip_cfg.dmp_on)
1828:DMP/driver/eMPL/inv_mpu.c ****         return -1;
1829:DMP/driver/eMPL/inv_mpu.c ****     if (!st.chip_cfg.sensors)
1830:DMP/driver/eMPL/inv_mpu.c ****         return -1;
1831:DMP/driver/eMPL/inv_mpu.c **** 
1832:DMP/driver/eMPL/inv_mpu.c ****     if (i2c_read(st.hw->addr, st.reg->fifo_count_h, 2, tmp))
1833:DMP/driver/eMPL/inv_mpu.c ****         return -1;
1834:DMP/driver/eMPL/inv_mpu.c ****     fifo_count = (tmp[0] << 8) | tmp[1];
1835:DMP/driver/eMPL/inv_mpu.c ****     if (fifo_count < length) {
1836:DMP/driver/eMPL/inv_mpu.c ****         more[0] = 0;
1837:DMP/driver/eMPL/inv_mpu.c ****         return -1;
1838:DMP/driver/eMPL/inv_mpu.c ****     }
1839:DMP/driver/eMPL/inv_mpu.c ****     if (fifo_count > (st.hw->max_fifo >> 1)) {
1840:DMP/driver/eMPL/inv_mpu.c ****         /* FIFO is 50% full, better check overflow bit. */
1841:DMP/driver/eMPL/inv_mpu.c ****         if (i2c_read(st.hw->addr, st.reg->int_status, 1, tmp))
1842:DMP/driver/eMPL/inv_mpu.c ****             return -1;
1843:DMP/driver/eMPL/inv_mpu.c ****         if (tmp[0] & BIT_FIFO_OVERFLOW) {
1844:DMP/driver/eMPL/inv_mpu.c ****             mpu_reset_fifo();
1845:DMP/driver/eMPL/inv_mpu.c ****             return -2;
1846:DMP/driver/eMPL/inv_mpu.c ****         }
1847:DMP/driver/eMPL/inv_mpu.c ****     }
ARM GAS  /var/folders/21/t9g5rlb91ys800n5npymflf80000gn/T//cclZ9YEQ.s 			page 37


1848:DMP/driver/eMPL/inv_mpu.c **** 
1849:DMP/driver/eMPL/inv_mpu.c ****     if (i2c_read(st.hw->addr, st.reg->fifo_r_w, length, data))
1850:DMP/driver/eMPL/inv_mpu.c ****         return -1;
1851:DMP/driver/eMPL/inv_mpu.c ****     more[0] = fifo_count / length - 1;
1852:DMP/driver/eMPL/inv_mpu.c ****     return 0;
1853:DMP/driver/eMPL/inv_mpu.c **** }
1854:DMP/driver/eMPL/inv_mpu.c **** 
1855:DMP/driver/eMPL/inv_mpu.c **** /**
1856:DMP/driver/eMPL/inv_mpu.c ****  *  @brief      Set device to bypass mode.
1857:DMP/driver/eMPL/inv_mpu.c ****  *  @param[in]  bypass_on   1 to enable bypass mode.
1858:DMP/driver/eMPL/inv_mpu.c ****  *  @return     0 if successful.
1859:DMP/driver/eMPL/inv_mpu.c ****  */
1860:DMP/driver/eMPL/inv_mpu.c **** int mpu_set_bypass(unsigned char bypass_on)
1861:DMP/driver/eMPL/inv_mpu.c **** {
1862:DMP/driver/eMPL/inv_mpu.c ****     unsigned char tmp;
1863:DMP/driver/eMPL/inv_mpu.c **** 
1864:DMP/driver/eMPL/inv_mpu.c ****     if (st.chip_cfg.bypass_mode == bypass_on)
1865:DMP/driver/eMPL/inv_mpu.c ****         return 0;
1866:DMP/driver/eMPL/inv_mpu.c **** 
1867:DMP/driver/eMPL/inv_mpu.c ****     if (bypass_on) {
1868:DMP/driver/eMPL/inv_mpu.c ****         if (i2c_read(st.hw->addr, st.reg->user_ctrl, 1, &tmp))
1869:DMP/driver/eMPL/inv_mpu.c ****             return -1;
1870:DMP/driver/eMPL/inv_mpu.c ****         tmp &= ~BIT_AUX_IF_EN;
1871:DMP/driver/eMPL/inv_mpu.c ****         if (i2c_write(st.hw->addr, st.reg->user_ctrl, 1, &tmp))
1872:DMP/driver/eMPL/inv_mpu.c ****             return -1;
1873:DMP/driver/eMPL/inv_mpu.c ****         delay_ms(3);
1874:DMP/driver/eMPL/inv_mpu.c ****         tmp = BIT_BYPASS_EN;
1875:DMP/driver/eMPL/inv_mpu.c ****         if (st.chip_cfg.active_low_int)
1876:DMP/driver/eMPL/inv_mpu.c ****             tmp |= BIT_ACTL;
1877:DMP/driver/eMPL/inv_mpu.c ****         if (st.chip_cfg.latched_int)
1878:DMP/driver/eMPL/inv_mpu.c ****             tmp |= BIT_LATCH_EN | BIT_ANY_RD_CLR;
1879:DMP/driver/eMPL/inv_mpu.c ****         if (i2c_write(st.hw->addr, st.reg->int_pin_cfg, 1, &tmp))
1880:DMP/driver/eMPL/inv_mpu.c ****             return -1;
1881:DMP/driver/eMPL/inv_mpu.c ****     } else {
1882:DMP/driver/eMPL/inv_mpu.c ****         /* Enable I2C master mode if compass is being used. */
1883:DMP/driver/eMPL/inv_mpu.c ****         if (i2c_read(st.hw->addr, st.reg->user_ctrl, 1, &tmp))
1884:DMP/driver/eMPL/inv_mpu.c ****             return -1;
1885:DMP/driver/eMPL/inv_mpu.c ****         if (st.chip_cfg.sensors & INV_XYZ_COMPASS)
1886:DMP/driver/eMPL/inv_mpu.c ****             tmp |= BIT_AUX_IF_EN;
1887:DMP/driver/eMPL/inv_mpu.c ****         else
1888:DMP/driver/eMPL/inv_mpu.c ****             tmp &= ~BIT_AUX_IF_EN;
1889:DMP/driver/eMPL/inv_mpu.c ****         if (i2c_write(st.hw->addr, st.reg->user_ctrl, 1, &tmp))
1890:DMP/driver/eMPL/inv_mpu.c ****             return -1;
1891:DMP/driver/eMPL/inv_mpu.c ****         delay_ms(3);
1892:DMP/driver/eMPL/inv_mpu.c ****         if (st.chip_cfg.active_low_int)
1893:DMP/driver/eMPL/inv_mpu.c ****             tmp = BIT_ACTL;
1894:DMP/driver/eMPL/inv_mpu.c ****         else
1895:DMP/driver/eMPL/inv_mpu.c ****             tmp = 0;
1896:DMP/driver/eMPL/inv_mpu.c ****         if (st.chip_cfg.latched_int)
1897:DMP/driver/eMPL/inv_mpu.c ****             tmp |= BIT_LATCH_EN | BIT_ANY_RD_CLR;
1898:DMP/driver/eMPL/inv_mpu.c ****         if (i2c_write(st.hw->addr, st.reg->int_pin_cfg, 1, &tmp))
1899:DMP/driver/eMPL/inv_mpu.c ****             return -1;
1900:DMP/driver/eMPL/inv_mpu.c ****     }
1901:DMP/driver/eMPL/inv_mpu.c ****     st.chip_cfg.bypass_mode = bypass_on;
1902:DMP/driver/eMPL/inv_mpu.c ****     return 0;
1903:DMP/driver/eMPL/inv_mpu.c **** }
1904:DMP/driver/eMPL/inv_mpu.c **** 
ARM GAS  /var/folders/21/t9g5rlb91ys800n5npymflf80000gn/T//cclZ9YEQ.s 			page 38


1905:DMP/driver/eMPL/inv_mpu.c **** /**
1906:DMP/driver/eMPL/inv_mpu.c ****  *  @brief      Set interrupt level.
1907:DMP/driver/eMPL/inv_mpu.c ****  *  @param[in]  active_low  1 for active low, 0 for active high.
1908:DMP/driver/eMPL/inv_mpu.c ****  *  @return     0 if successful.
1909:DMP/driver/eMPL/inv_mpu.c ****  */
1910:DMP/driver/eMPL/inv_mpu.c **** int mpu_set_int_level(unsigned char active_low)
1911:DMP/driver/eMPL/inv_mpu.c **** {
1912:DMP/driver/eMPL/inv_mpu.c ****     st.chip_cfg.active_low_int = active_low;
1913:DMP/driver/eMPL/inv_mpu.c ****     return 0;
1914:DMP/driver/eMPL/inv_mpu.c **** }
1915:DMP/driver/eMPL/inv_mpu.c **** 
1916:DMP/driver/eMPL/inv_mpu.c **** /**
1917:DMP/driver/eMPL/inv_mpu.c ****  *  @brief      Enable latched interrupts.
1918:DMP/driver/eMPL/inv_mpu.c ****  *  Any MPU register will clear the interrupt.
1919:DMP/driver/eMPL/inv_mpu.c ****  *  @param[in]  enable  1 to enable, 0 to disable.
1920:DMP/driver/eMPL/inv_mpu.c ****  *  @return     0 if successful.
1921:DMP/driver/eMPL/inv_mpu.c ****  */
1922:DMP/driver/eMPL/inv_mpu.c **** int mpu_set_int_latched(unsigned char enable)
1923:DMP/driver/eMPL/inv_mpu.c **** {
1924:DMP/driver/eMPL/inv_mpu.c ****     unsigned char tmp;
1925:DMP/driver/eMPL/inv_mpu.c ****     if (st.chip_cfg.latched_int == enable)
1926:DMP/driver/eMPL/inv_mpu.c ****         return 0;
1927:DMP/driver/eMPL/inv_mpu.c **** 
1928:DMP/driver/eMPL/inv_mpu.c ****     if (enable)
1929:DMP/driver/eMPL/inv_mpu.c ****         tmp = BIT_LATCH_EN | BIT_ANY_RD_CLR;
1930:DMP/driver/eMPL/inv_mpu.c ****     else
1931:DMP/driver/eMPL/inv_mpu.c ****         tmp = 0;
1932:DMP/driver/eMPL/inv_mpu.c ****     if (st.chip_cfg.bypass_mode)
1933:DMP/driver/eMPL/inv_mpu.c ****         tmp |= BIT_BYPASS_EN;
1934:DMP/driver/eMPL/inv_mpu.c ****     if (st.chip_cfg.active_low_int)
1935:DMP/driver/eMPL/inv_mpu.c ****         tmp |= BIT_ACTL;
1936:DMP/driver/eMPL/inv_mpu.c ****     if (i2c_write(st.hw->addr, st.reg->int_pin_cfg, 1, &tmp))
1937:DMP/driver/eMPL/inv_mpu.c ****         return -1;
1938:DMP/driver/eMPL/inv_mpu.c ****     st.chip_cfg.latched_int = enable;
1939:DMP/driver/eMPL/inv_mpu.c ****     return 0;
1940:DMP/driver/eMPL/inv_mpu.c **** }
1941:DMP/driver/eMPL/inv_mpu.c **** 
1942:DMP/driver/eMPL/inv_mpu.c **** #ifdef MPU6050
1943:DMP/driver/eMPL/inv_mpu.c **** static int get_accel_prod_shift(float *st_shift)
1944:DMP/driver/eMPL/inv_mpu.c **** {
1945:DMP/driver/eMPL/inv_mpu.c ****     unsigned char tmp[4], shift_code[3], ii;
1946:DMP/driver/eMPL/inv_mpu.c **** 
1947:DMP/driver/eMPL/inv_mpu.c ****     if (i2c_read(st.hw->addr, 0x0D, 4, tmp))
1948:DMP/driver/eMPL/inv_mpu.c ****         return 0x07;
1949:DMP/driver/eMPL/inv_mpu.c **** 
1950:DMP/driver/eMPL/inv_mpu.c ****     shift_code[0] = ((tmp[0] & 0xE0) >> 3) | ((tmp[3] & 0x30) >> 4);
1951:DMP/driver/eMPL/inv_mpu.c ****     shift_code[1] = ((tmp[1] & 0xE0) >> 3) | ((tmp[3] & 0x0C) >> 2);
1952:DMP/driver/eMPL/inv_mpu.c ****     shift_code[2] = ((tmp[2] & 0xE0) >> 3) | (tmp[3] & 0x03);
1953:DMP/driver/eMPL/inv_mpu.c ****     for (ii = 0; ii < 3; ii++) {
1954:DMP/driver/eMPL/inv_mpu.c ****         if (!shift_code[ii]) {
1955:DMP/driver/eMPL/inv_mpu.c ****             st_shift[ii] = 0.f;
1956:DMP/driver/eMPL/inv_mpu.c ****             continue;
1957:DMP/driver/eMPL/inv_mpu.c ****         }
1958:DMP/driver/eMPL/inv_mpu.c ****         /* Equivalent to..
1959:DMP/driver/eMPL/inv_mpu.c ****          * st_shift[ii] = 0.34f * powf(0.92f/0.34f, (shift_code[ii]-1) / 30.f)
1960:DMP/driver/eMPL/inv_mpu.c ****          */
1961:DMP/driver/eMPL/inv_mpu.c ****         st_shift[ii] = 0.34f;
ARM GAS  /var/folders/21/t9g5rlb91ys800n5npymflf80000gn/T//cclZ9YEQ.s 			page 39


1962:DMP/driver/eMPL/inv_mpu.c ****         while (--shift_code[ii])
1963:DMP/driver/eMPL/inv_mpu.c ****             st_shift[ii] *= 1.034f;
1964:DMP/driver/eMPL/inv_mpu.c ****     }
1965:DMP/driver/eMPL/inv_mpu.c ****     return 0;
1966:DMP/driver/eMPL/inv_mpu.c **** }
1967:DMP/driver/eMPL/inv_mpu.c **** 
1968:DMP/driver/eMPL/inv_mpu.c **** static int accel_self_test(long *bias_regular, long *bias_st)
1969:DMP/driver/eMPL/inv_mpu.c **** {
1970:DMP/driver/eMPL/inv_mpu.c ****     int jj, result = 0;
1971:DMP/driver/eMPL/inv_mpu.c ****     float st_shift[3], st_shift_cust, st_shift_var;
1972:DMP/driver/eMPL/inv_mpu.c **** 
1973:DMP/driver/eMPL/inv_mpu.c ****     get_accel_prod_shift(st_shift);
1974:DMP/driver/eMPL/inv_mpu.c ****     for(jj = 0; jj < 3; jj++) {
1975:DMP/driver/eMPL/inv_mpu.c ****         st_shift_cust = labs(bias_regular[jj] - bias_st[jj]) / 65536.f;
1976:DMP/driver/eMPL/inv_mpu.c ****         if (st_shift[jj]) {
1977:DMP/driver/eMPL/inv_mpu.c ****             st_shift_var = st_shift_cust / st_shift[jj] - 1.f;
1978:DMP/driver/eMPL/inv_mpu.c ****             if (fabs(st_shift_var) > test.max_accel_var)
1979:DMP/driver/eMPL/inv_mpu.c ****                 result |= 1 << jj;
1980:DMP/driver/eMPL/inv_mpu.c ****         } else if ((st_shift_cust < test.min_g) ||
1981:DMP/driver/eMPL/inv_mpu.c ****             (st_shift_cust > test.max_g))
1982:DMP/driver/eMPL/inv_mpu.c ****             result |= 1 << jj;
1983:DMP/driver/eMPL/inv_mpu.c ****     }
1984:DMP/driver/eMPL/inv_mpu.c **** 
1985:DMP/driver/eMPL/inv_mpu.c ****     return result;
1986:DMP/driver/eMPL/inv_mpu.c **** }
1987:DMP/driver/eMPL/inv_mpu.c **** 
1988:DMP/driver/eMPL/inv_mpu.c **** static int gyro_self_test(long *bias_regular, long *bias_st)
1989:DMP/driver/eMPL/inv_mpu.c **** {
1990:DMP/driver/eMPL/inv_mpu.c ****     int jj, result = 0;
1991:DMP/driver/eMPL/inv_mpu.c ****     unsigned char tmp[3];
1992:DMP/driver/eMPL/inv_mpu.c ****     float st_shift, st_shift_cust, st_shift_var;
1993:DMP/driver/eMPL/inv_mpu.c **** 
1994:DMP/driver/eMPL/inv_mpu.c ****     if (i2c_read(st.hw->addr, 0x0D, 3, tmp))
1995:DMP/driver/eMPL/inv_mpu.c ****         return 0x07;
1996:DMP/driver/eMPL/inv_mpu.c **** 
1997:DMP/driver/eMPL/inv_mpu.c ****     tmp[0] &= 0x1F;
1998:DMP/driver/eMPL/inv_mpu.c ****     tmp[1] &= 0x1F;
1999:DMP/driver/eMPL/inv_mpu.c ****     tmp[2] &= 0x1F;
2000:DMP/driver/eMPL/inv_mpu.c **** 
2001:DMP/driver/eMPL/inv_mpu.c ****     for (jj = 0; jj < 3; jj++) {
2002:DMP/driver/eMPL/inv_mpu.c ****         st_shift_cust = labs(bias_regular[jj] - bias_st[jj]) / 65536.f;
2003:DMP/driver/eMPL/inv_mpu.c ****         if (tmp[jj]) {
2004:DMP/driver/eMPL/inv_mpu.c ****             st_shift = 3275.f / test.gyro_sens;
2005:DMP/driver/eMPL/inv_mpu.c ****             while (--tmp[jj])
2006:DMP/driver/eMPL/inv_mpu.c ****                 st_shift *= 1.046f;
2007:DMP/driver/eMPL/inv_mpu.c ****             st_shift_var = st_shift_cust / st_shift - 1.f;
2008:DMP/driver/eMPL/inv_mpu.c ****             if (fabs(st_shift_var) > test.max_gyro_var)
2009:DMP/driver/eMPL/inv_mpu.c ****                 result |= 1 << jj;
2010:DMP/driver/eMPL/inv_mpu.c ****         } else if ((st_shift_cust < test.min_dps) ||
2011:DMP/driver/eMPL/inv_mpu.c ****             (st_shift_cust > test.max_dps))
2012:DMP/driver/eMPL/inv_mpu.c ****             result |= 1 << jj;
2013:DMP/driver/eMPL/inv_mpu.c ****     }
2014:DMP/driver/eMPL/inv_mpu.c ****     return result;
2015:DMP/driver/eMPL/inv_mpu.c **** }
2016:DMP/driver/eMPL/inv_mpu.c **** 
2017:DMP/driver/eMPL/inv_mpu.c **** #endif 
2018:DMP/driver/eMPL/inv_mpu.c **** #ifdef AK89xx_SECONDARY
ARM GAS  /var/folders/21/t9g5rlb91ys800n5npymflf80000gn/T//cclZ9YEQ.s 			page 40


2019:DMP/driver/eMPL/inv_mpu.c **** static int compass_self_test(void)
2020:DMP/driver/eMPL/inv_mpu.c **** {
2021:DMP/driver/eMPL/inv_mpu.c ****     unsigned char tmp[6];
2022:DMP/driver/eMPL/inv_mpu.c ****     unsigned char tries = 10;
2023:DMP/driver/eMPL/inv_mpu.c ****     int result = 0x07;
2024:DMP/driver/eMPL/inv_mpu.c ****     short data;
2025:DMP/driver/eMPL/inv_mpu.c **** 
2026:DMP/driver/eMPL/inv_mpu.c ****     mpu_set_bypass(1);
2027:DMP/driver/eMPL/inv_mpu.c **** 
2028:DMP/driver/eMPL/inv_mpu.c ****     tmp[0] = AKM_POWER_DOWN;
2029:DMP/driver/eMPL/inv_mpu.c ****     if (i2c_write(st.chip_cfg.compass_addr, AKM_REG_CNTL, 1, tmp))
2030:DMP/driver/eMPL/inv_mpu.c ****         return 0x07;
2031:DMP/driver/eMPL/inv_mpu.c ****     tmp[0] = AKM_BIT_SELF_TEST;
2032:DMP/driver/eMPL/inv_mpu.c ****     if (i2c_write(st.chip_cfg.compass_addr, AKM_REG_ASTC, 1, tmp))
2033:DMP/driver/eMPL/inv_mpu.c ****         goto AKM_restore;
2034:DMP/driver/eMPL/inv_mpu.c ****     tmp[0] = AKM_MODE_SELF_TEST;
2035:DMP/driver/eMPL/inv_mpu.c ****     if (i2c_write(st.chip_cfg.compass_addr, AKM_REG_CNTL, 1, tmp))
2036:DMP/driver/eMPL/inv_mpu.c ****         goto AKM_restore;
2037:DMP/driver/eMPL/inv_mpu.c **** 
2038:DMP/driver/eMPL/inv_mpu.c ****     do {
2039:DMP/driver/eMPL/inv_mpu.c ****         delay_ms(10);
2040:DMP/driver/eMPL/inv_mpu.c ****         if (i2c_read(st.chip_cfg.compass_addr, AKM_REG_ST1, 1, tmp))
2041:DMP/driver/eMPL/inv_mpu.c ****             goto AKM_restore;
2042:DMP/driver/eMPL/inv_mpu.c ****         if (tmp[0] & AKM_DATA_READY)
2043:DMP/driver/eMPL/inv_mpu.c ****             break;
2044:DMP/driver/eMPL/inv_mpu.c ****     } while (tries--);
2045:DMP/driver/eMPL/inv_mpu.c ****     if (!(tmp[0] & AKM_DATA_READY))
2046:DMP/driver/eMPL/inv_mpu.c ****         goto AKM_restore;
2047:DMP/driver/eMPL/inv_mpu.c **** 
2048:DMP/driver/eMPL/inv_mpu.c ****     if (i2c_read(st.chip_cfg.compass_addr, AKM_REG_HXL, 6, tmp))
2049:DMP/driver/eMPL/inv_mpu.c ****         goto AKM_restore;
2050:DMP/driver/eMPL/inv_mpu.c **** 
2051:DMP/driver/eMPL/inv_mpu.c ****     result = 0;
2052:DMP/driver/eMPL/inv_mpu.c **** #if defined MPU9150
2053:DMP/driver/eMPL/inv_mpu.c ****     data = (short)(tmp[1] << 8) | tmp[0];
2054:DMP/driver/eMPL/inv_mpu.c ****     if ((data > 100) || (data < -100))
2055:DMP/driver/eMPL/inv_mpu.c ****         result |= 0x01;
2056:DMP/driver/eMPL/inv_mpu.c ****     data = (short)(tmp[3] << 8) | tmp[2];
2057:DMP/driver/eMPL/inv_mpu.c ****     if ((data > 100) || (data < -100))
2058:DMP/driver/eMPL/inv_mpu.c ****         result |= 0x02;
2059:DMP/driver/eMPL/inv_mpu.c ****     data = (short)(tmp[5] << 8) | tmp[4];
2060:DMP/driver/eMPL/inv_mpu.c ****     if ((data > -300) || (data < -1000))
2061:DMP/driver/eMPL/inv_mpu.c ****         result |= 0x04;
2062:DMP/driver/eMPL/inv_mpu.c **** #elif defined MPU9250
2063:DMP/driver/eMPL/inv_mpu.c ****     data = (short)(tmp[1] << 8) | tmp[0];
2064:DMP/driver/eMPL/inv_mpu.c ****     if ((data > 200) || (data < -200))  
2065:DMP/driver/eMPL/inv_mpu.c ****         result |= 0x01;
2066:DMP/driver/eMPL/inv_mpu.c ****     data = (short)(tmp[3] << 8) | tmp[2];
2067:DMP/driver/eMPL/inv_mpu.c ****     if ((data > 200) || (data < -200))  
2068:DMP/driver/eMPL/inv_mpu.c ****         result |= 0x02;
2069:DMP/driver/eMPL/inv_mpu.c ****     data = (short)(tmp[5] << 8) | tmp[4];
2070:DMP/driver/eMPL/inv_mpu.c ****     if ((data > -800) || (data < -3200))  
2071:DMP/driver/eMPL/inv_mpu.c ****         result |= 0x04;
2072:DMP/driver/eMPL/inv_mpu.c **** #endif
2073:DMP/driver/eMPL/inv_mpu.c **** AKM_restore:
2074:DMP/driver/eMPL/inv_mpu.c ****     tmp[0] = 0 | SUPPORTS_AK89xx_HIGH_SENS;
2075:DMP/driver/eMPL/inv_mpu.c ****     i2c_write(st.chip_cfg.compass_addr, AKM_REG_ASTC, 1, tmp);
ARM GAS  /var/folders/21/t9g5rlb91ys800n5npymflf80000gn/T//cclZ9YEQ.s 			page 41


2076:DMP/driver/eMPL/inv_mpu.c ****     tmp[0] = SUPPORTS_AK89xx_HIGH_SENS;
2077:DMP/driver/eMPL/inv_mpu.c ****     i2c_write(st.chip_cfg.compass_addr, AKM_REG_CNTL, 1, tmp);
2078:DMP/driver/eMPL/inv_mpu.c ****     mpu_set_bypass(0);
2079:DMP/driver/eMPL/inv_mpu.c ****     return result;
2080:DMP/driver/eMPL/inv_mpu.c **** }
2081:DMP/driver/eMPL/inv_mpu.c **** #endif
2082:DMP/driver/eMPL/inv_mpu.c **** 
2083:DMP/driver/eMPL/inv_mpu.c **** static int get_st_biases(long *gyro, long *accel, unsigned char hw_test)
2084:DMP/driver/eMPL/inv_mpu.c **** {
 182              		.loc 1 2084 1 is_stmt 1 view -0
 183              		.cfi_startproc
 184              		@ args = 0, pretend = 0, frame = 32
 185              		@ frame_needed = 0, uses_anonymous_args = 0
 186              		.loc 1 2084 1 is_stmt 0 view .LVU46
 187 0000 F0B5     		push	{r4, r5, r6, r7, lr}
 188              	.LCFI4:
 189              		.cfi_def_cfa_offset 20
 190              		.cfi_offset 4, -20
 191              		.cfi_offset 5, -16
 192              		.cfi_offset 6, -12
 193              		.cfi_offset 7, -8
 194              		.cfi_offset 14, -4
 195 0002 89B0     		sub	sp, sp, #36
 196              	.LCFI5:
 197              		.cfi_def_cfa_offset 56
 198 0004 0546     		mov	r5, r0
 199 0006 0C46     		mov	r4, r1
 200 0008 1646     		mov	r6, r2
2085:DMP/driver/eMPL/inv_mpu.c ****     unsigned char data[MAX_PACKET_LENGTH];
 201              		.loc 1 2085 5 is_stmt 1 view .LVU47
2086:DMP/driver/eMPL/inv_mpu.c ****     unsigned char packet_count, ii;
 202              		.loc 1 2086 5 view .LVU48
2087:DMP/driver/eMPL/inv_mpu.c ****     unsigned short fifo_count;
 203              		.loc 1 2087 5 view .LVU49
2088:DMP/driver/eMPL/inv_mpu.c **** 
2089:DMP/driver/eMPL/inv_mpu.c ****     data[0] = 0x01;
 204              		.loc 1 2089 5 view .LVU50
 205              		.loc 1 2089 13 is_stmt 0 view .LVU51
 206 000a 0123     		movs	r3, #1
 207 000c 8DF81430 		strb	r3, [sp, #20]
2090:DMP/driver/eMPL/inv_mpu.c ****     data[1] = 0;
 208              		.loc 1 2090 5 is_stmt 1 view .LVU52
 209              		.loc 1 2090 13 is_stmt 0 view .LVU53
 210 0010 0023     		movs	r3, #0
 211 0012 8DF81530 		strb	r3, [sp, #21]
2091:DMP/driver/eMPL/inv_mpu.c ****     if (i2c_write(st.hw->addr, st.reg->pwr_mgmt_1, 2, data))
 212              		.loc 1 2091 5 is_stmt 1 view .LVU54
 213              		.loc 1 2091 21 is_stmt 0 view .LVU55
 214 0016 854B     		ldr	r3, .L50
 215 0018 5868     		ldr	r0, [r3, #4]
 216              	.LVL11:
 217              		.loc 1 2091 34 view .LVU56
 218 001a 1968     		ldr	r1, [r3]
 219              	.LVL12:
 220              		.loc 1 2091 9 view .LVU57
 221 001c 05AB     		add	r3, sp, #20
 222 001e 0222     		movs	r2, #2
ARM GAS  /var/folders/21/t9g5rlb91ys800n5npymflf80000gn/T//cclZ9YEQ.s 			page 42


 223              	.LVL13:
 224              		.loc 1 2091 9 view .LVU58
 225 0020 497D     		ldrb	r1, [r1, #21]	@ zero_extendqisi2
 226 0022 0078     		ldrb	r0, [r0]	@ zero_extendqisi2
 227 0024 FFF7FEFF 		bl	MPU_Write_Len
 228              	.LVL14:
 229              		.loc 1 2091 8 view .LVU59
 230 0028 0028     		cmp	r0, #0
 231 002a 40F0CE81 		bne	.L29
2092:DMP/driver/eMPL/inv_mpu.c ****         return -1;
2093:DMP/driver/eMPL/inv_mpu.c ****     delay_ms(200);
 232              		.loc 1 2093 5 is_stmt 1 view .LVU60
 233 002e C820     		movs	r0, #200
 234 0030 FFF7FEFF 		bl	HAL_Delay
 235              	.LVL15:
2094:DMP/driver/eMPL/inv_mpu.c ****     data[0] = 0;
 236              		.loc 1 2094 5 view .LVU61
 237              		.loc 1 2094 13 is_stmt 0 view .LVU62
 238 0034 0023     		movs	r3, #0
 239 0036 8DF81430 		strb	r3, [sp, #20]
2095:DMP/driver/eMPL/inv_mpu.c ****     if (i2c_write(st.hw->addr, st.reg->int_enable, 1, data))
 240              		.loc 1 2095 5 is_stmt 1 view .LVU63
 241              		.loc 1 2095 21 is_stmt 0 view .LVU64
 242 003a 7C4B     		ldr	r3, .L50
 243 003c 5868     		ldr	r0, [r3, #4]
 244              		.loc 1 2095 34 view .LVU65
 245 003e 1968     		ldr	r1, [r3]
 246              		.loc 1 2095 9 view .LVU66
 247 0040 05AB     		add	r3, sp, #20
 248 0042 0122     		movs	r2, #1
 249 0044 497C     		ldrb	r1, [r1, #17]	@ zero_extendqisi2
 250 0046 0078     		ldrb	r0, [r0]	@ zero_extendqisi2
 251 0048 FFF7FEFF 		bl	MPU_Write_Len
 252              	.LVL16:
 253              		.loc 1 2095 8 view .LVU67
 254 004c 0028     		cmp	r0, #0
 255 004e 40F0BF81 		bne	.L30
2096:DMP/driver/eMPL/inv_mpu.c ****         return -1;
2097:DMP/driver/eMPL/inv_mpu.c ****     if (i2c_write(st.hw->addr, st.reg->fifo_en, 1, data))
 256              		.loc 1 2097 5 is_stmt 1 view .LVU68
 257              		.loc 1 2097 21 is_stmt 0 view .LVU69
 258 0052 764B     		ldr	r3, .L50
 259 0054 5868     		ldr	r0, [r3, #4]
 260              		.loc 1 2097 34 view .LVU70
 261 0056 1968     		ldr	r1, [r3]
 262              		.loc 1 2097 9 view .LVU71
 263 0058 05AB     		add	r3, sp, #20
 264 005a 0122     		movs	r2, #1
 265 005c 4979     		ldrb	r1, [r1, #5]	@ zero_extendqisi2
 266 005e 0078     		ldrb	r0, [r0]	@ zero_extendqisi2
 267 0060 FFF7FEFF 		bl	MPU_Write_Len
 268              	.LVL17:
 269              		.loc 1 2097 8 view .LVU72
 270 0064 0028     		cmp	r0, #0
 271 0066 40F0B681 		bne	.L31
2098:DMP/driver/eMPL/inv_mpu.c ****         return -1;
2099:DMP/driver/eMPL/inv_mpu.c ****     if (i2c_write(st.hw->addr, st.reg->pwr_mgmt_1, 1, data))
ARM GAS  /var/folders/21/t9g5rlb91ys800n5npymflf80000gn/T//cclZ9YEQ.s 			page 43


 272              		.loc 1 2099 5 is_stmt 1 view .LVU73
 273              		.loc 1 2099 21 is_stmt 0 view .LVU74
 274 006a 704B     		ldr	r3, .L50
 275 006c 5868     		ldr	r0, [r3, #4]
 276              		.loc 1 2099 34 view .LVU75
 277 006e 1968     		ldr	r1, [r3]
 278              		.loc 1 2099 9 view .LVU76
 279 0070 05AB     		add	r3, sp, #20
 280 0072 0122     		movs	r2, #1
 281 0074 497D     		ldrb	r1, [r1, #21]	@ zero_extendqisi2
 282 0076 0078     		ldrb	r0, [r0]	@ zero_extendqisi2
 283 0078 FFF7FEFF 		bl	MPU_Write_Len
 284              	.LVL18:
 285              		.loc 1 2099 8 view .LVU77
 286 007c 0028     		cmp	r0, #0
 287 007e 40F0AD81 		bne	.L32
2100:DMP/driver/eMPL/inv_mpu.c ****         return -1;
2101:DMP/driver/eMPL/inv_mpu.c ****     if (i2c_write(st.hw->addr, st.reg->i2c_mst, 1, data))
 288              		.loc 1 2101 5 is_stmt 1 view .LVU78
 289              		.loc 1 2101 21 is_stmt 0 view .LVU79
 290 0082 6A4B     		ldr	r3, .L50
 291 0084 5868     		ldr	r0, [r3, #4]
 292              		.loc 1 2101 34 view .LVU80
 293 0086 1968     		ldr	r1, [r3]
 294              		.loc 1 2101 9 view .LVU81
 295 0088 05AB     		add	r3, sp, #20
 296 008a 0122     		movs	r2, #1
 297 008c 897E     		ldrb	r1, [r1, #26]	@ zero_extendqisi2
 298 008e 0078     		ldrb	r0, [r0]	@ zero_extendqisi2
 299 0090 FFF7FEFF 		bl	MPU_Write_Len
 300              	.LVL19:
 301              		.loc 1 2101 8 view .LVU82
 302 0094 0028     		cmp	r0, #0
 303 0096 40F0A481 		bne	.L33
2102:DMP/driver/eMPL/inv_mpu.c ****         return -1;
2103:DMP/driver/eMPL/inv_mpu.c ****     if (i2c_write(st.hw->addr, st.reg->user_ctrl, 1, data))
 304              		.loc 1 2103 5 is_stmt 1 view .LVU83
 305              		.loc 1 2103 21 is_stmt 0 view .LVU84
 306 009a 644B     		ldr	r3, .L50
 307 009c 5868     		ldr	r0, [r3, #4]
 308              		.loc 1 2103 34 view .LVU85
 309 009e 1968     		ldr	r1, [r3]
 310              		.loc 1 2103 9 view .LVU86
 311 00a0 05AB     		add	r3, sp, #20
 312 00a2 0122     		movs	r2, #1
 313 00a4 0979     		ldrb	r1, [r1, #4]	@ zero_extendqisi2
 314 00a6 0078     		ldrb	r0, [r0]	@ zero_extendqisi2
 315 00a8 FFF7FEFF 		bl	MPU_Write_Len
 316              	.LVL20:
 317              		.loc 1 2103 8 view .LVU87
 318 00ac 0028     		cmp	r0, #0
 319 00ae 40F09B81 		bne	.L34
2104:DMP/driver/eMPL/inv_mpu.c ****         return -1;
2105:DMP/driver/eMPL/inv_mpu.c ****     data[0] = BIT_FIFO_RST | BIT_DMP_RST;
 320              		.loc 1 2105 5 is_stmt 1 view .LVU88
 321              		.loc 1 2105 13 is_stmt 0 view .LVU89
 322 00b2 0C23     		movs	r3, #12
ARM GAS  /var/folders/21/t9g5rlb91ys800n5npymflf80000gn/T//cclZ9YEQ.s 			page 44


 323 00b4 8DF81430 		strb	r3, [sp, #20]
2106:DMP/driver/eMPL/inv_mpu.c ****     if (i2c_write(st.hw->addr, st.reg->user_ctrl, 1, data))
 324              		.loc 1 2106 5 is_stmt 1 view .LVU90
 325              		.loc 1 2106 21 is_stmt 0 view .LVU91
 326 00b8 5C4B     		ldr	r3, .L50
 327 00ba 5868     		ldr	r0, [r3, #4]
 328              		.loc 1 2106 34 view .LVU92
 329 00bc 1968     		ldr	r1, [r3]
 330              		.loc 1 2106 9 view .LVU93
 331 00be 05AB     		add	r3, sp, #20
 332 00c0 0122     		movs	r2, #1
 333 00c2 0979     		ldrb	r1, [r1, #4]	@ zero_extendqisi2
 334 00c4 0078     		ldrb	r0, [r0]	@ zero_extendqisi2
 335 00c6 FFF7FEFF 		bl	MPU_Write_Len
 336              	.LVL21:
 337              		.loc 1 2106 8 view .LVU94
 338 00ca 0028     		cmp	r0, #0
 339 00cc 40F08F81 		bne	.L35
2107:DMP/driver/eMPL/inv_mpu.c ****         return -1;
2108:DMP/driver/eMPL/inv_mpu.c ****     delay_ms(15);
 340              		.loc 1 2108 5 is_stmt 1 view .LVU95
 341 00d0 0F20     		movs	r0, #15
 342 00d2 FFF7FEFF 		bl	HAL_Delay
 343              	.LVL22:
2109:DMP/driver/eMPL/inv_mpu.c ****     data[0] = st.test->reg_lpf;
 344              		.loc 1 2109 5 view .LVU96
 345              		.loc 1 2109 17 is_stmt 0 view .LVU97
 346 00d6 554B     		ldr	r3, .L50
 347 00d8 5A6B     		ldr	r2, [r3, #52]
 348              		.loc 1 2109 22 view .LVU98
 349 00da 527A     		ldrb	r2, [r2, #9]	@ zero_extendqisi2
 350              		.loc 1 2109 13 view .LVU99
 351 00dc 8DF81420 		strb	r2, [sp, #20]
2110:DMP/driver/eMPL/inv_mpu.c ****     if (i2c_write(st.hw->addr, st.reg->lpf, 1, data))
 352              		.loc 1 2110 5 is_stmt 1 view .LVU100
 353              		.loc 1 2110 21 is_stmt 0 view .LVU101
 354 00e0 5868     		ldr	r0, [r3, #4]
 355              		.loc 1 2110 34 view .LVU102
 356 00e2 1968     		ldr	r1, [r3]
 357              		.loc 1 2110 9 view .LVU103
 358 00e4 05AB     		add	r3, sp, #20
 359 00e6 0122     		movs	r2, #1
 360 00e8 8978     		ldrb	r1, [r1, #2]	@ zero_extendqisi2
 361 00ea 0078     		ldrb	r0, [r0]	@ zero_extendqisi2
 362 00ec FFF7FEFF 		bl	MPU_Write_Len
 363              	.LVL23:
 364              		.loc 1 2110 8 view .LVU104
 365 00f0 0028     		cmp	r0, #0
 366 00f2 40F07F81 		bne	.L36
2111:DMP/driver/eMPL/inv_mpu.c ****         return -1;
2112:DMP/driver/eMPL/inv_mpu.c ****     data[0] = st.test->reg_rate_div;
 367              		.loc 1 2112 5 is_stmt 1 view .LVU105
 368              		.loc 1 2112 17 is_stmt 0 view .LVU106
 369 00f6 4D4B     		ldr	r3, .L50
 370 00f8 5A6B     		ldr	r2, [r3, #52]
 371              		.loc 1 2112 22 view .LVU107
 372 00fa 127A     		ldrb	r2, [r2, #8]	@ zero_extendqisi2
ARM GAS  /var/folders/21/t9g5rlb91ys800n5npymflf80000gn/T//cclZ9YEQ.s 			page 45


 373              		.loc 1 2112 13 view .LVU108
 374 00fc 8DF81420 		strb	r2, [sp, #20]
2113:DMP/driver/eMPL/inv_mpu.c ****     if (i2c_write(st.hw->addr, st.reg->rate_div, 1, data))
 375              		.loc 1 2113 5 is_stmt 1 view .LVU109
 376              		.loc 1 2113 21 is_stmt 0 view .LVU110
 377 0100 5868     		ldr	r0, [r3, #4]
 378              		.loc 1 2113 34 view .LVU111
 379 0102 1968     		ldr	r1, [r3]
 380              		.loc 1 2113 9 view .LVU112
 381 0104 05AB     		add	r3, sp, #20
 382 0106 0122     		movs	r2, #1
 383 0108 4978     		ldrb	r1, [r1, #1]	@ zero_extendqisi2
 384 010a 0078     		ldrb	r0, [r0]	@ zero_extendqisi2
 385 010c FFF7FEFF 		bl	MPU_Write_Len
 386              	.LVL24:
 387              		.loc 1 2113 8 view .LVU113
 388 0110 0028     		cmp	r0, #0
 389 0112 40F07281 		bne	.L37
2114:DMP/driver/eMPL/inv_mpu.c ****         return -1;
2115:DMP/driver/eMPL/inv_mpu.c ****     if (hw_test)
 390              		.loc 1 2115 5 is_stmt 1 view .LVU114
 391              		.loc 1 2115 8 is_stmt 0 view .LVU115
 392 0116 002E     		cmp	r6, #0
 393 0118 79D0     		beq	.L17
2116:DMP/driver/eMPL/inv_mpu.c ****         data[0] = st.test->reg_gyro_fsr | 0xE0;
 394              		.loc 1 2116 9 is_stmt 1 view .LVU116
 395              		.loc 1 2116 21 is_stmt 0 view .LVU117
 396 011a 444B     		ldr	r3, .L50
 397 011c 5B6B     		ldr	r3, [r3, #52]
 398              		.loc 1 2116 26 view .LVU118
 399 011e 9B7A     		ldrb	r3, [r3, #10]	@ zero_extendqisi2
 400              		.loc 1 2116 17 view .LVU119
 401 0120 63F01F03 		orn	r3, r3, #31
 402 0124 8DF81430 		strb	r3, [sp, #20]
 403              	.L18:
2117:DMP/driver/eMPL/inv_mpu.c ****     else
2118:DMP/driver/eMPL/inv_mpu.c ****         data[0] = st.test->reg_gyro_fsr;
2119:DMP/driver/eMPL/inv_mpu.c ****     if (i2c_write(st.hw->addr, st.reg->gyro_cfg, 1, data))
 404              		.loc 1 2119 5 is_stmt 1 view .LVU120
 405              		.loc 1 2119 21 is_stmt 0 view .LVU121
 406 0128 404B     		ldr	r3, .L50
 407 012a 5868     		ldr	r0, [r3, #4]
 408              		.loc 1 2119 34 view .LVU122
 409 012c 1968     		ldr	r1, [r3]
 410              		.loc 1 2119 9 view .LVU123
 411 012e 05AB     		add	r3, sp, #20
 412 0130 0122     		movs	r2, #1
 413 0132 8979     		ldrb	r1, [r1, #6]	@ zero_extendqisi2
 414 0134 0078     		ldrb	r0, [r0]	@ zero_extendqisi2
 415 0136 FFF7FEFF 		bl	MPU_Write_Len
 416              	.LVL25:
 417              		.loc 1 2119 8 view .LVU124
 418 013a 0028     		cmp	r0, #0
 419 013c 40F06081 		bne	.L38
2120:DMP/driver/eMPL/inv_mpu.c ****         return -1;
2121:DMP/driver/eMPL/inv_mpu.c **** 
2122:DMP/driver/eMPL/inv_mpu.c ****     if (hw_test)
ARM GAS  /var/folders/21/t9g5rlb91ys800n5npymflf80000gn/T//cclZ9YEQ.s 			page 46


 420              		.loc 1 2122 5 is_stmt 1 view .LVU125
 421              		.loc 1 2122 8 is_stmt 0 view .LVU126
 422 0140 002E     		cmp	r6, #0
 423 0142 6AD0     		beq	.L19
2123:DMP/driver/eMPL/inv_mpu.c ****         data[0] = st.test->reg_accel_fsr | 0xE0;
 424              		.loc 1 2123 9 is_stmt 1 view .LVU127
 425              		.loc 1 2123 21 is_stmt 0 view .LVU128
 426 0144 394B     		ldr	r3, .L50
 427 0146 5B6B     		ldr	r3, [r3, #52]
 428              		.loc 1 2123 26 view .LVU129
 429 0148 DB7A     		ldrb	r3, [r3, #11]	@ zero_extendqisi2
 430              		.loc 1 2123 17 view .LVU130
 431 014a 63F01F03 		orn	r3, r3, #31
 432 014e 8DF81430 		strb	r3, [sp, #20]
 433              	.L20:
2124:DMP/driver/eMPL/inv_mpu.c ****     else
2125:DMP/driver/eMPL/inv_mpu.c ****         data[0] = test.reg_accel_fsr;
2126:DMP/driver/eMPL/inv_mpu.c ****     if (i2c_write(st.hw->addr, st.reg->accel_cfg, 1, data))
 434              		.loc 1 2126 5 is_stmt 1 view .LVU131
 435              		.loc 1 2126 21 is_stmt 0 view .LVU132
 436 0152 364B     		ldr	r3, .L50
 437 0154 5868     		ldr	r0, [r3, #4]
 438              		.loc 1 2126 34 view .LVU133
 439 0156 1968     		ldr	r1, [r3]
 440              		.loc 1 2126 9 view .LVU134
 441 0158 05AB     		add	r3, sp, #20
 442 015a 0122     		movs	r2, #1
 443 015c C979     		ldrb	r1, [r1, #7]	@ zero_extendqisi2
 444 015e 0078     		ldrb	r0, [r0]	@ zero_extendqisi2
 445 0160 FFF7FEFF 		bl	MPU_Write_Len
 446              	.LVL26:
 447              		.loc 1 2126 8 view .LVU135
 448 0164 0028     		cmp	r0, #0
 449 0166 40F04E81 		bne	.L39
2127:DMP/driver/eMPL/inv_mpu.c ****         return -1;
2128:DMP/driver/eMPL/inv_mpu.c ****     if (hw_test)
 450              		.loc 1 2128 5 is_stmt 1 view .LVU136
 451              		.loc 1 2128 8 is_stmt 0 view .LVU137
 452 016a 002E     		cmp	r6, #0
 453 016c 59D1     		bne	.L45
 454              	.L21:
2129:DMP/driver/eMPL/inv_mpu.c ****         delay_ms(200);
2130:DMP/driver/eMPL/inv_mpu.c **** 
2131:DMP/driver/eMPL/inv_mpu.c ****     /* Fill FIFO for test.wait_ms milliseconds. */
2132:DMP/driver/eMPL/inv_mpu.c ****     data[0] = BIT_FIFO_EN;
 455              		.loc 1 2132 5 is_stmt 1 view .LVU138
 456              		.loc 1 2132 13 is_stmt 0 view .LVU139
 457 016e 4023     		movs	r3, #64
 458 0170 8DF81430 		strb	r3, [sp, #20]
2133:DMP/driver/eMPL/inv_mpu.c ****     if (i2c_write(st.hw->addr, st.reg->user_ctrl, 1, data))
 459              		.loc 1 2133 5 is_stmt 1 view .LVU140
 460              		.loc 1 2133 21 is_stmt 0 view .LVU141
 461 0174 2D4B     		ldr	r3, .L50
 462 0176 5868     		ldr	r0, [r3, #4]
 463              		.loc 1 2133 34 view .LVU142
 464 0178 1968     		ldr	r1, [r3]
 465              		.loc 1 2133 9 view .LVU143
ARM GAS  /var/folders/21/t9g5rlb91ys800n5npymflf80000gn/T//cclZ9YEQ.s 			page 47


 466 017a 05AB     		add	r3, sp, #20
 467 017c 0122     		movs	r2, #1
 468 017e 0979     		ldrb	r1, [r1, #4]	@ zero_extendqisi2
 469 0180 0078     		ldrb	r0, [r0]	@ zero_extendqisi2
 470 0182 FFF7FEFF 		bl	MPU_Write_Len
 471              	.LVL27:
 472              		.loc 1 2133 8 view .LVU144
 473 0186 0028     		cmp	r0, #0
 474 0188 40F04081 		bne	.L40
2134:DMP/driver/eMPL/inv_mpu.c ****         return -1;
2135:DMP/driver/eMPL/inv_mpu.c **** 
2136:DMP/driver/eMPL/inv_mpu.c ****     data[0] = INV_XYZ_GYRO | INV_XYZ_ACCEL;
 475              		.loc 1 2136 5 is_stmt 1 view .LVU145
 476              		.loc 1 2136 13 is_stmt 0 view .LVU146
 477 018c 7823     		movs	r3, #120
 478 018e 8DF81430 		strb	r3, [sp, #20]
2137:DMP/driver/eMPL/inv_mpu.c ****     if (i2c_write(st.hw->addr, st.reg->fifo_en, 1, data))
 479              		.loc 1 2137 5 is_stmt 1 view .LVU147
 480              		.loc 1 2137 21 is_stmt 0 view .LVU148
 481 0192 264B     		ldr	r3, .L50
 482 0194 5868     		ldr	r0, [r3, #4]
 483              		.loc 1 2137 34 view .LVU149
 484 0196 1968     		ldr	r1, [r3]
 485              		.loc 1 2137 9 view .LVU150
 486 0198 05AB     		add	r3, sp, #20
 487 019a 0122     		movs	r2, #1
 488 019c 4979     		ldrb	r1, [r1, #5]	@ zero_extendqisi2
 489 019e 0078     		ldrb	r0, [r0]	@ zero_extendqisi2
 490 01a0 FFF7FEFF 		bl	MPU_Write_Len
 491              	.LVL28:
 492              		.loc 1 2137 8 view .LVU151
 493 01a4 0028     		cmp	r0, #0
 494 01a6 40F03481 		bne	.L41
2138:DMP/driver/eMPL/inv_mpu.c ****         return -1;
2139:DMP/driver/eMPL/inv_mpu.c ****     delay_ms(test.wait_ms);
 495              		.loc 1 2139 5 is_stmt 1 view .LVU152
 496 01aa C820     		movs	r0, #200
 497 01ac FFF7FEFF 		bl	HAL_Delay
 498              	.LVL29:
2140:DMP/driver/eMPL/inv_mpu.c ****     data[0] = 0;
 499              		.loc 1 2140 5 view .LVU153
 500              		.loc 1 2140 13 is_stmt 0 view .LVU154
 501 01b0 0023     		movs	r3, #0
 502 01b2 8DF81430 		strb	r3, [sp, #20]
2141:DMP/driver/eMPL/inv_mpu.c ****     if (i2c_write(st.hw->addr, st.reg->fifo_en, 1, data))
 503              		.loc 1 2141 5 is_stmt 1 view .LVU155
 504              		.loc 1 2141 21 is_stmt 0 view .LVU156
 505 01b6 1D4B     		ldr	r3, .L50
 506 01b8 5868     		ldr	r0, [r3, #4]
 507              		.loc 1 2141 34 view .LVU157
 508 01ba 1968     		ldr	r1, [r3]
 509              		.loc 1 2141 9 view .LVU158
 510 01bc 05AB     		add	r3, sp, #20
 511 01be 0122     		movs	r2, #1
 512 01c0 4979     		ldrb	r1, [r1, #5]	@ zero_extendqisi2
 513 01c2 0078     		ldrb	r0, [r0]	@ zero_extendqisi2
 514 01c4 FFF7FEFF 		bl	MPU_Write_Len
ARM GAS  /var/folders/21/t9g5rlb91ys800n5npymflf80000gn/T//cclZ9YEQ.s 			page 48


 515              	.LVL30:
 516              		.loc 1 2141 8 view .LVU159
 517 01c8 0028     		cmp	r0, #0
 518 01ca 40F02581 		bne	.L42
2142:DMP/driver/eMPL/inv_mpu.c ****         return -1;
2143:DMP/driver/eMPL/inv_mpu.c **** 
2144:DMP/driver/eMPL/inv_mpu.c ****     if (i2c_read(st.hw->addr, st.reg->fifo_count_h, 2, data))
 519              		.loc 1 2144 5 is_stmt 1 view .LVU160
 520              		.loc 1 2144 20 is_stmt 0 view .LVU161
 521 01ce 174B     		ldr	r3, .L50
 522 01d0 5868     		ldr	r0, [r3, #4]
 523              		.loc 1 2144 33 view .LVU162
 524 01d2 1968     		ldr	r1, [r3]
 525              		.loc 1 2144 9 view .LVU163
 526 01d4 05AB     		add	r3, sp, #20
 527 01d6 0222     		movs	r2, #2
 528 01d8 097B     		ldrb	r1, [r1, #12]	@ zero_extendqisi2
 529 01da 0078     		ldrb	r0, [r0]	@ zero_extendqisi2
 530 01dc FFF7FEFF 		bl	MPU_Read_Len
 531              	.LVL31:
 532              		.loc 1 2144 8 view .LVU164
 533 01e0 0646     		mov	r6, r0
 534 01e2 0028     		cmp	r0, #0
 535 01e4 40F01B81 		bne	.L43
2145:DMP/driver/eMPL/inv_mpu.c ****         return -1;
2146:DMP/driver/eMPL/inv_mpu.c **** 
2147:DMP/driver/eMPL/inv_mpu.c ****     fifo_count = (data[0] << 8) | data[1];
 536              		.loc 1 2147 5 is_stmt 1 view .LVU165
 537              		.loc 1 2147 23 is_stmt 0 view .LVU166
 538 01e8 9DF81430 		ldrb	r3, [sp, #20]	@ zero_extendqisi2
 539              		.loc 1 2147 39 view .LVU167
 540 01ec 9DF81570 		ldrb	r7, [sp, #21]	@ zero_extendqisi2
 541              		.loc 1 2147 16 view .LVU168
 542 01f0 47EA0327 		orr	r7, r7, r3, lsl #8
 543              	.LVL32:
2148:DMP/driver/eMPL/inv_mpu.c ****     packet_count = fifo_count / MAX_PACKET_LENGTH;
 544              		.loc 1 2148 5 is_stmt 1 view .LVU169
 545              		.loc 1 2148 18 is_stmt 0 view .LVU170
 546 01f4 0E4B     		ldr	r3, .L50+4
 547 01f6 A3FB0737 		umull	r3, r7, r3, r7
 548              	.LVL33:
 549              		.loc 1 2148 18 view .LVU171
 550 01fa C7F3C707 		ubfx	r7, r7, #3, #8
 551              	.LVL34:
2149:DMP/driver/eMPL/inv_mpu.c ****     gyro[0] = gyro[1] = gyro[2] = 0;
 552              		.loc 1 2149 5 is_stmt 1 view .LVU172
 553              		.loc 1 2149 33 is_stmt 0 view .LVU173
 554 01fe 0023     		movs	r3, #0
 555 0200 AB60     		str	r3, [r5, #8]
 556              		.loc 1 2149 23 view .LVU174
 557 0202 6B60     		str	r3, [r5, #4]
 558              		.loc 1 2149 13 view .LVU175
 559 0204 2B60     		str	r3, [r5]
 560              	.LVL35:
2150:DMP/driver/eMPL/inv_mpu.c ****     accel[0] = accel[1] = accel[2] = 0;
 561              		.loc 1 2150 5 is_stmt 1 view .LVU176
 562              		.loc 1 2150 36 is_stmt 0 view .LVU177
ARM GAS  /var/folders/21/t9g5rlb91ys800n5npymflf80000gn/T//cclZ9YEQ.s 			page 49


 563 0206 A360     		str	r3, [r4, #8]
 564              		.loc 1 2150 25 view .LVU178
 565 0208 6360     		str	r3, [r4, #4]
 566              		.loc 1 2150 14 view .LVU179
 567 020a 2360     		str	r3, [r4]
2151:DMP/driver/eMPL/inv_mpu.c **** 
2152:DMP/driver/eMPL/inv_mpu.c ****     for (ii = 0; ii < packet_count; ii++) {
 568              		.loc 1 2152 5 is_stmt 1 view .LVU180
 569              	.LVL36:
 570              		.loc 1 2152 5 is_stmt 0 view .LVU181
 571 020c 5CE0     		b	.L22
 572              	.LVL37:
 573              	.L17:
2118:DMP/driver/eMPL/inv_mpu.c ****     if (i2c_write(st.hw->addr, st.reg->gyro_cfg, 1, data))
 574              		.loc 1 2118 9 is_stmt 1 view .LVU182
2118:DMP/driver/eMPL/inv_mpu.c ****     if (i2c_write(st.hw->addr, st.reg->gyro_cfg, 1, data))
 575              		.loc 1 2118 21 is_stmt 0 view .LVU183
 576 020e 074B     		ldr	r3, .L50
 577 0210 5B6B     		ldr	r3, [r3, #52]
2118:DMP/driver/eMPL/inv_mpu.c ****     if (i2c_write(st.hw->addr, st.reg->gyro_cfg, 1, data))
 578              		.loc 1 2118 26 view .LVU184
 579 0212 9B7A     		ldrb	r3, [r3, #10]	@ zero_extendqisi2
2118:DMP/driver/eMPL/inv_mpu.c ****     if (i2c_write(st.hw->addr, st.reg->gyro_cfg, 1, data))
 580              		.loc 1 2118 17 view .LVU185
 581 0214 8DF81430 		strb	r3, [sp, #20]
 582 0218 86E7     		b	.L18
 583              	.L19:
2125:DMP/driver/eMPL/inv_mpu.c ****     if (i2c_write(st.hw->addr, st.reg->accel_cfg, 1, data))
 584              		.loc 1 2125 9 is_stmt 1 view .LVU186
2125:DMP/driver/eMPL/inv_mpu.c ****     if (i2c_write(st.hw->addr, st.reg->accel_cfg, 1, data))
 585              		.loc 1 2125 17 is_stmt 0 view .LVU187
 586 021a 0023     		movs	r3, #0
 587 021c 8DF81430 		strb	r3, [sp, #20]
 588 0220 97E7     		b	.L20
 589              	.L45:
2129:DMP/driver/eMPL/inv_mpu.c **** 
 590              		.loc 1 2129 9 is_stmt 1 view .LVU188
 591 0222 C820     		movs	r0, #200
 592 0224 FFF7FEFF 		bl	HAL_Delay
 593              	.LVL38:
 594 0228 A1E7     		b	.L21
 595              	.L51:
 596 022a 00BF     		.align	2
 597              	.L50:
 598 022c 00000000 		.word	st
 599 0230 ABAAAAAA 		.word	-1431655765
 600              	.LVL39:
 601              	.L23:
 602              	.LBB2:
2153:DMP/driver/eMPL/inv_mpu.c ****         short accel_cur[3], gyro_cur[3];
2154:DMP/driver/eMPL/inv_mpu.c ****         if (i2c_read(st.hw->addr, st.reg->fifo_r_w, MAX_PACKET_LENGTH, data))
2155:DMP/driver/eMPL/inv_mpu.c ****             return -1;
2156:DMP/driver/eMPL/inv_mpu.c ****         accel_cur[0] = ((short)data[0] << 8) | data[1];
 603              		.loc 1 2156 9 view .LVU189
 604              		.loc 1 2156 36 is_stmt 0 view .LVU190
 605 0234 9DF81430 		ldrb	r3, [sp, #20]	@ zero_extendqisi2
 606              		.loc 1 2156 52 view .LVU191
ARM GAS  /var/folders/21/t9g5rlb91ys800n5npymflf80000gn/T//cclZ9YEQ.s 			page 50


 607 0238 9DF81510 		ldrb	r1, [sp, #21]	@ zero_extendqisi2
 608              		.loc 1 2156 46 view .LVU192
 609 023c 41EA0321 		orr	r1, r1, r3, lsl #8
 610 0240 09B2     		sxth	r1, r1
 611              		.loc 1 2156 22 view .LVU193
 612 0242 ADF80410 		strh	r1, [sp, #4]	@ movhi
2157:DMP/driver/eMPL/inv_mpu.c ****         accel_cur[1] = ((short)data[2] << 8) | data[3];
 613              		.loc 1 2157 9 is_stmt 1 view .LVU194
 614              		.loc 1 2157 36 is_stmt 0 view .LVU195
 615 0246 9DF81630 		ldrb	r3, [sp, #22]	@ zero_extendqisi2
 616              		.loc 1 2157 52 view .LVU196
 617 024a 9DF81720 		ldrb	r2, [sp, #23]	@ zero_extendqisi2
 618              		.loc 1 2157 46 view .LVU197
 619 024e 42EA0322 		orr	r2, r2, r3, lsl #8
 620 0252 12B2     		sxth	r2, r2
 621              		.loc 1 2157 22 view .LVU198
 622 0254 ADF80620 		strh	r2, [sp, #6]	@ movhi
2158:DMP/driver/eMPL/inv_mpu.c ****         accel_cur[2] = ((short)data[4] << 8) | data[5];
 623              		.loc 1 2158 9 is_stmt 1 view .LVU199
 624              		.loc 1 2158 36 is_stmt 0 view .LVU200
 625 0258 9DF81800 		ldrb	r0, [sp, #24]	@ zero_extendqisi2
 626              		.loc 1 2158 52 view .LVU201
 627 025c 9DF81930 		ldrb	r3, [sp, #25]	@ zero_extendqisi2
 628              		.loc 1 2158 46 view .LVU202
 629 0260 43EA0023 		orr	r3, r3, r0, lsl #8
 630 0264 1BB2     		sxth	r3, r3
 631              		.loc 1 2158 22 view .LVU203
 632 0266 ADF80830 		strh	r3, [sp, #8]	@ movhi
2159:DMP/driver/eMPL/inv_mpu.c ****         accel[0] += (long)accel_cur[0];
 633              		.loc 1 2159 9 is_stmt 1 view .LVU204
 634              		.loc 1 2159 14 is_stmt 0 view .LVU205
 635 026a 2068     		ldr	r0, [r4]
 636              		.loc 1 2159 18 view .LVU206
 637 026c 0844     		add	r0, r0, r1
 638 026e 2060     		str	r0, [r4]
2160:DMP/driver/eMPL/inv_mpu.c ****         accel[1] += (long)accel_cur[1];
 639              		.loc 1 2160 9 is_stmt 1 view .LVU207
 640              		.loc 1 2160 14 is_stmt 0 view .LVU208
 641 0270 6168     		ldr	r1, [r4, #4]
 642              		.loc 1 2160 18 view .LVU209
 643 0272 1144     		add	r1, r1, r2
 644 0274 6160     		str	r1, [r4, #4]
2161:DMP/driver/eMPL/inv_mpu.c ****         accel[2] += (long)accel_cur[2];
 645              		.loc 1 2161 9 is_stmt 1 view .LVU210
 646              		.loc 1 2161 14 is_stmt 0 view .LVU211
 647 0276 A268     		ldr	r2, [r4, #8]
 648              		.loc 1 2161 18 view .LVU212
 649 0278 1A44     		add	r2, r2, r3
 650 027a A260     		str	r2, [r4, #8]
2162:DMP/driver/eMPL/inv_mpu.c ****         gyro_cur[0] = (((short)data[6] << 8) | data[7]);
 651              		.loc 1 2162 9 is_stmt 1 view .LVU213
 652              		.loc 1 2162 36 is_stmt 0 view .LVU214
 653 027c 9DF81A30 		ldrb	r3, [sp, #26]	@ zero_extendqisi2
 654              		.loc 1 2162 52 view .LVU215
 655 0280 9DF81B10 		ldrb	r1, [sp, #27]	@ zero_extendqisi2
 656              		.loc 1 2162 46 view .LVU216
 657 0284 41EA0321 		orr	r1, r1, r3, lsl #8
ARM GAS  /var/folders/21/t9g5rlb91ys800n5npymflf80000gn/T//cclZ9YEQ.s 			page 51


 658 0288 09B2     		sxth	r1, r1
 659              		.loc 1 2162 21 view .LVU217
 660 028a ADF80C10 		strh	r1, [sp, #12]	@ movhi
2163:DMP/driver/eMPL/inv_mpu.c ****         gyro_cur[1] = (((short)data[8] << 8) | data[9]);
 661              		.loc 1 2163 9 is_stmt 1 view .LVU218
 662              		.loc 1 2163 36 is_stmt 0 view .LVU219
 663 028e 9DF81C30 		ldrb	r3, [sp, #28]	@ zero_extendqisi2
 664              		.loc 1 2163 52 view .LVU220
 665 0292 9DF81D20 		ldrb	r2, [sp, #29]	@ zero_extendqisi2
 666              		.loc 1 2163 46 view .LVU221
 667 0296 42EA0322 		orr	r2, r2, r3, lsl #8
 668 029a 12B2     		sxth	r2, r2
 669              		.loc 1 2163 21 view .LVU222
 670 029c ADF80E20 		strh	r2, [sp, #14]	@ movhi
2164:DMP/driver/eMPL/inv_mpu.c ****         gyro_cur[2] = (((short)data[10] << 8) | data[11]);
 671              		.loc 1 2164 9 is_stmt 1 view .LVU223
 672              		.loc 1 2164 36 is_stmt 0 view .LVU224
 673 02a0 9DF81E00 		ldrb	r0, [sp, #30]	@ zero_extendqisi2
 674              		.loc 1 2164 53 view .LVU225
 675 02a4 9DF81F30 		ldrb	r3, [sp, #31]	@ zero_extendqisi2
 676              		.loc 1 2164 47 view .LVU226
 677 02a8 43EA0023 		orr	r3, r3, r0, lsl #8
 678 02ac 1BB2     		sxth	r3, r3
 679              		.loc 1 2164 21 view .LVU227
 680 02ae ADF81030 		strh	r3, [sp, #16]	@ movhi
2165:DMP/driver/eMPL/inv_mpu.c ****         gyro[0] += (long)gyro_cur[0];
 681              		.loc 1 2165 9 is_stmt 1 view .LVU228
 682              		.loc 1 2165 13 is_stmt 0 view .LVU229
 683 02b2 2868     		ldr	r0, [r5]
 684              		.loc 1 2165 17 view .LVU230
 685 02b4 0844     		add	r0, r0, r1
 686 02b6 2860     		str	r0, [r5]
2166:DMP/driver/eMPL/inv_mpu.c ****         gyro[1] += (long)gyro_cur[1];
 687              		.loc 1 2166 9 is_stmt 1 view .LVU231
 688              		.loc 1 2166 13 is_stmt 0 view .LVU232
 689 02b8 6968     		ldr	r1, [r5, #4]
 690              		.loc 1 2166 17 view .LVU233
 691 02ba 1144     		add	r1, r1, r2
 692 02bc 6960     		str	r1, [r5, #4]
2167:DMP/driver/eMPL/inv_mpu.c ****         gyro[2] += (long)gyro_cur[2];
 693              		.loc 1 2167 9 is_stmt 1 view .LVU234
 694              		.loc 1 2167 13 is_stmt 0 view .LVU235
 695 02be AA68     		ldr	r2, [r5, #8]
 696              		.loc 1 2167 17 view .LVU236
 697 02c0 1A44     		add	r2, r2, r3
 698 02c2 AA60     		str	r2, [r5, #8]
 699              	.LBE2:
2152:DMP/driver/eMPL/inv_mpu.c ****         short accel_cur[3], gyro_cur[3];
 700              		.loc 1 2152 39 is_stmt 1 view .LVU237
 701 02c4 0136     		adds	r6, r6, #1
 702              	.LVL40:
2152:DMP/driver/eMPL/inv_mpu.c ****         short accel_cur[3], gyro_cur[3];
 703              		.loc 1 2152 39 is_stmt 0 view .LVU238
 704 02c6 F6B2     		uxtb	r6, r6
 705              	.LVL41:
 706              	.L22:
2152:DMP/driver/eMPL/inv_mpu.c ****         short accel_cur[3], gyro_cur[3];
ARM GAS  /var/folders/21/t9g5rlb91ys800n5npymflf80000gn/T//cclZ9YEQ.s 			page 52


 707              		.loc 1 2152 21 is_stmt 1 discriminator 1 view .LVU239
 708 02c8 BE42     		cmp	r6, r7
 709 02ca 0ED2     		bcs	.L46
 710              	.LBB3:
2153:DMP/driver/eMPL/inv_mpu.c ****         if (i2c_read(st.hw->addr, st.reg->fifo_r_w, MAX_PACKET_LENGTH, data))
 711              		.loc 1 2153 9 view .LVU240
2154:DMP/driver/eMPL/inv_mpu.c ****             return -1;
 712              		.loc 1 2154 9 view .LVU241
2154:DMP/driver/eMPL/inv_mpu.c ****             return -1;
 713              		.loc 1 2154 24 is_stmt 0 view .LVU242
 714 02cc 554B     		ldr	r3, .L52
 715 02ce 5868     		ldr	r0, [r3, #4]
2154:DMP/driver/eMPL/inv_mpu.c ****             return -1;
 716              		.loc 1 2154 37 view .LVU243
 717 02d0 1968     		ldr	r1, [r3]
2154:DMP/driver/eMPL/inv_mpu.c ****             return -1;
 718              		.loc 1 2154 13 view .LVU244
 719 02d2 05AB     		add	r3, sp, #20
 720 02d4 0C22     		movs	r2, #12
 721 02d6 497B     		ldrb	r1, [r1, #13]	@ zero_extendqisi2
 722 02d8 0078     		ldrb	r0, [r0]	@ zero_extendqisi2
 723 02da FFF7FEFF 		bl	MPU_Read_Len
 724              	.LVL42:
2154:DMP/driver/eMPL/inv_mpu.c ****             return -1;
 725              		.loc 1 2154 12 view .LVU245
 726 02de 0028     		cmp	r0, #0
 727 02e0 A8D0     		beq	.L23
2155:DMP/driver/eMPL/inv_mpu.c ****         accel_cur[0] = ((short)data[0] << 8) | data[1];
 728              		.loc 1 2155 13 is_stmt 1 view .LVU246
2155:DMP/driver/eMPL/inv_mpu.c ****         accel_cur[0] = ((short)data[0] << 8) | data[1];
 729              		.loc 1 2155 20 is_stmt 0 view .LVU247
 730 02e2 4FF0FF30 		mov	r0, #-1
 731              	.LVL43:
 732              	.L15:
2155:DMP/driver/eMPL/inv_mpu.c ****         accel_cur[0] = ((short)data[0] << 8) | data[1];
 733              		.loc 1 2155 20 view .LVU248
 734              	.LBE3:
2168:DMP/driver/eMPL/inv_mpu.c ****     }
2169:DMP/driver/eMPL/inv_mpu.c **** #ifdef EMPL_NO_64BIT
2170:DMP/driver/eMPL/inv_mpu.c ****     gyro[0] = (long)(((float)gyro[0]*65536.f) / test.gyro_sens / packet_count);
2171:DMP/driver/eMPL/inv_mpu.c ****     gyro[1] = (long)(((float)gyro[1]*65536.f) / test.gyro_sens / packet_count);
2172:DMP/driver/eMPL/inv_mpu.c ****     gyro[2] = (long)(((float)gyro[2]*65536.f) / test.gyro_sens / packet_count);
2173:DMP/driver/eMPL/inv_mpu.c ****     if (has_accel) {
2174:DMP/driver/eMPL/inv_mpu.c ****         accel[0] = (long)(((float)accel[0]*65536.f) / test.accel_sens /
2175:DMP/driver/eMPL/inv_mpu.c ****             packet_count);
2176:DMP/driver/eMPL/inv_mpu.c ****         accel[1] = (long)(((float)accel[1]*65536.f) / test.accel_sens /
2177:DMP/driver/eMPL/inv_mpu.c ****             packet_count);
2178:DMP/driver/eMPL/inv_mpu.c ****         accel[2] = (long)(((float)accel[2]*65536.f) / test.accel_sens /
2179:DMP/driver/eMPL/inv_mpu.c ****             packet_count);
2180:DMP/driver/eMPL/inv_mpu.c ****         /* Don't remove gravity! */
2181:DMP/driver/eMPL/inv_mpu.c ****         accel[2] -= 65536L;
2182:DMP/driver/eMPL/inv_mpu.c ****     }
2183:DMP/driver/eMPL/inv_mpu.c **** #else
2184:DMP/driver/eMPL/inv_mpu.c ****     gyro[0] = (long)(((long long)gyro[0]<<16) / test.gyro_sens / packet_count);
2185:DMP/driver/eMPL/inv_mpu.c ****     gyro[1] = (long)(((long long)gyro[1]<<16) / test.gyro_sens / packet_count);
2186:DMP/driver/eMPL/inv_mpu.c ****     gyro[2] = (long)(((long long)gyro[2]<<16) / test.gyro_sens / packet_count);
2187:DMP/driver/eMPL/inv_mpu.c ****     accel[0] = (long)(((long long)accel[0]<<16) / test.accel_sens /
ARM GAS  /var/folders/21/t9g5rlb91ys800n5npymflf80000gn/T//cclZ9YEQ.s 			page 53


2188:DMP/driver/eMPL/inv_mpu.c ****         packet_count);
2189:DMP/driver/eMPL/inv_mpu.c ****     accel[1] = (long)(((long long)accel[1]<<16) / test.accel_sens /
2190:DMP/driver/eMPL/inv_mpu.c ****         packet_count);
2191:DMP/driver/eMPL/inv_mpu.c ****     accel[2] = (long)(((long long)accel[2]<<16) / test.accel_sens /
2192:DMP/driver/eMPL/inv_mpu.c ****         packet_count);
2193:DMP/driver/eMPL/inv_mpu.c ****     /* Don't remove gravity! */
2194:DMP/driver/eMPL/inv_mpu.c ****     if (accel[2] > 0L)
2195:DMP/driver/eMPL/inv_mpu.c ****         accel[2] -= 65536L;
2196:DMP/driver/eMPL/inv_mpu.c ****     else
2197:DMP/driver/eMPL/inv_mpu.c ****         accel[2] += 65536L;
2198:DMP/driver/eMPL/inv_mpu.c **** #endif
2199:DMP/driver/eMPL/inv_mpu.c **** 
2200:DMP/driver/eMPL/inv_mpu.c ****     return 0;
2201:DMP/driver/eMPL/inv_mpu.c **** }
 735              		.loc 1 2201 1 view .LVU249
 736 02e6 09B0     		add	sp, sp, #36
 737              	.LCFI6:
 738              		.cfi_remember_state
 739              		.cfi_def_cfa_offset 20
 740              		@ sp needed
 741 02e8 F0BD     		pop	{r4, r5, r6, r7, pc}
 742              	.LVL44:
 743              	.L46:
 744              	.LCFI7:
 745              		.cfi_restore_state
2184:DMP/driver/eMPL/inv_mpu.c ****     gyro[1] = (long)(((long long)gyro[1]<<16) / test.gyro_sens / packet_count);
 746              		.loc 1 2184 5 is_stmt 1 view .LVU250
2184:DMP/driver/eMPL/inv_mpu.c ****     gyro[1] = (long)(((long long)gyro[1]<<16) / test.gyro_sens / packet_count);
 747              		.loc 1 2184 38 is_stmt 0 view .LVU251
 748 02ea 2968     		ldr	r1, [r5]
2184:DMP/driver/eMPL/inv_mpu.c ****     gyro[1] = (long)(((long long)gyro[1]<<16) / test.gyro_sens / packet_count);
 749              		.loc 1 2184 47 view .LVU252
 750 02ec 8322     		movs	r2, #131
 751 02ee 0023     		movs	r3, #0
 752 02f0 0804     		lsls	r0, r1, #16
 753 02f2 0914     		asrs	r1, r1, #16
 754 02f4 FFF7FEFF 		bl	__aeabi_ldivmod
 755              	.LVL45:
2184:DMP/driver/eMPL/inv_mpu.c ****     gyro[1] = (long)(((long long)gyro[1]<<16) / test.gyro_sens / packet_count);
 756              		.loc 1 2184 64 view .LVU253
 757 02f8 0026     		movs	r6, #0
 758              	.LVL46:
2184:DMP/driver/eMPL/inv_mpu.c ****     gyro[1] = (long)(((long long)gyro[1]<<16) / test.gyro_sens / packet_count);
 759              		.loc 1 2184 64 view .LVU254
 760 02fa 3A46     		mov	r2, r7
 761 02fc 3346     		mov	r3, r6
 762 02fe FFF7FEFF 		bl	__aeabi_ldivmod
 763              	.LVL47:
2184:DMP/driver/eMPL/inv_mpu.c ****     gyro[1] = (long)(((long long)gyro[1]<<16) / test.gyro_sens / packet_count);
 764              		.loc 1 2184 13 view .LVU255
 765 0302 2860     		str	r0, [r5]
2185:DMP/driver/eMPL/inv_mpu.c ****     gyro[2] = (long)(((long long)gyro[2]<<16) / test.gyro_sens / packet_count);
 766              		.loc 1 2185 5 is_stmt 1 view .LVU256
2185:DMP/driver/eMPL/inv_mpu.c ****     gyro[2] = (long)(((long long)gyro[2]<<16) / test.gyro_sens / packet_count);
 767              		.loc 1 2185 38 is_stmt 0 view .LVU257
 768 0304 6968     		ldr	r1, [r5, #4]
2185:DMP/driver/eMPL/inv_mpu.c ****     gyro[2] = (long)(((long long)gyro[2]<<16) / test.gyro_sens / packet_count);
ARM GAS  /var/folders/21/t9g5rlb91ys800n5npymflf80000gn/T//cclZ9YEQ.s 			page 54


 769              		.loc 1 2185 47 view .LVU258
 770 0306 8322     		movs	r2, #131
 771 0308 0023     		movs	r3, #0
 772 030a 0804     		lsls	r0, r1, #16
 773 030c 0914     		asrs	r1, r1, #16
 774 030e FFF7FEFF 		bl	__aeabi_ldivmod
 775              	.LVL48:
2185:DMP/driver/eMPL/inv_mpu.c ****     gyro[2] = (long)(((long long)gyro[2]<<16) / test.gyro_sens / packet_count);
 776              		.loc 1 2185 64 view .LVU259
 777 0312 3A46     		mov	r2, r7
 778 0314 3346     		mov	r3, r6
 779 0316 FFF7FEFF 		bl	__aeabi_ldivmod
 780              	.LVL49:
2185:DMP/driver/eMPL/inv_mpu.c ****     gyro[2] = (long)(((long long)gyro[2]<<16) / test.gyro_sens / packet_count);
 781              		.loc 1 2185 13 view .LVU260
 782 031a 6860     		str	r0, [r5, #4]
2186:DMP/driver/eMPL/inv_mpu.c ****     accel[0] = (long)(((long long)accel[0]<<16) / test.accel_sens /
 783              		.loc 1 2186 5 is_stmt 1 view .LVU261
2186:DMP/driver/eMPL/inv_mpu.c ****     accel[0] = (long)(((long long)accel[0]<<16) / test.accel_sens /
 784              		.loc 1 2186 38 is_stmt 0 view .LVU262
 785 031c A968     		ldr	r1, [r5, #8]
2186:DMP/driver/eMPL/inv_mpu.c ****     accel[0] = (long)(((long long)accel[0]<<16) / test.accel_sens /
 786              		.loc 1 2186 47 view .LVU263
 787 031e 8322     		movs	r2, #131
 788 0320 0023     		movs	r3, #0
 789 0322 0804     		lsls	r0, r1, #16
 790 0324 0914     		asrs	r1, r1, #16
 791 0326 FFF7FEFF 		bl	__aeabi_ldivmod
 792              	.LVL50:
2186:DMP/driver/eMPL/inv_mpu.c ****     accel[0] = (long)(((long long)accel[0]<<16) / test.accel_sens /
 793              		.loc 1 2186 64 view .LVU264
 794 032a 3A46     		mov	r2, r7
 795 032c 3346     		mov	r3, r6
 796 032e FFF7FEFF 		bl	__aeabi_ldivmod
 797              	.LVL51:
2186:DMP/driver/eMPL/inv_mpu.c ****     accel[0] = (long)(((long long)accel[0]<<16) / test.accel_sens /
 798              		.loc 1 2186 13 view .LVU265
 799 0332 A860     		str	r0, [r5, #8]
2187:DMP/driver/eMPL/inv_mpu.c ****         packet_count);
 800              		.loc 1 2187 5 is_stmt 1 view .LVU266
2187:DMP/driver/eMPL/inv_mpu.c ****         packet_count);
 801              		.loc 1 2187 40 is_stmt 0 view .LVU267
 802 0334 2068     		ldr	r0, [r4]
2187:DMP/driver/eMPL/inv_mpu.c ****         packet_count);
 803              		.loc 1 2187 43 view .LVU268
 804 0336 0314     		asrs	r3, r0, #16
 805 0338 0004     		lsls	r0, r0, #16
2187:DMP/driver/eMPL/inv_mpu.c ****         packet_count);
 806              		.loc 1 2187 49 view .LVU269
 807 033a 1946     		mov	r1, r3
 808 033c B342     		cmp	r3, r6
 809 033e 2DDB     		blt	.L47
 810              	.L25:
 811 0340 800B     		lsrs	r0, r0, #14
2187:DMP/driver/eMPL/inv_mpu.c ****         packet_count);
 812              		.loc 1 2187 67 view .LVU270
 813 0342 3A46     		mov	r2, r7
ARM GAS  /var/folders/21/t9g5rlb91ys800n5npymflf80000gn/T//cclZ9YEQ.s 			page 55


 814 0344 3346     		mov	r3, r6
 815 0346 40EA8140 		orr	r0, r0, r1, lsl #18
 816 034a 8913     		asrs	r1, r1, #14
 817 034c FFF7FEFF 		bl	__aeabi_ldivmod
 818              	.LVL52:
2187:DMP/driver/eMPL/inv_mpu.c ****         packet_count);
 819              		.loc 1 2187 14 view .LVU271
 820 0350 2060     		str	r0, [r4]
2189:DMP/driver/eMPL/inv_mpu.c ****         packet_count);
 821              		.loc 1 2189 5 is_stmt 1 view .LVU272
2189:DMP/driver/eMPL/inv_mpu.c ****         packet_count);
 822              		.loc 1 2189 40 is_stmt 0 view .LVU273
 823 0352 6068     		ldr	r0, [r4, #4]
2189:DMP/driver/eMPL/inv_mpu.c ****         packet_count);
 824              		.loc 1 2189 43 view .LVU274
 825 0354 0314     		asrs	r3, r0, #16
 826 0356 0004     		lsls	r0, r0, #16
2189:DMP/driver/eMPL/inv_mpu.c ****         packet_count);
 827              		.loc 1 2189 49 view .LVU275
 828 0358 1946     		mov	r1, r3
 829 035a 002B     		cmp	r3, #0
 830 035c 24DB     		blt	.L48
 831              	.L26:
 832 035e 800B     		lsrs	r0, r0, #14
2189:DMP/driver/eMPL/inv_mpu.c ****         packet_count);
 833              		.loc 1 2189 67 view .LVU276
 834 0360 3A46     		mov	r2, r7
 835 0362 3346     		mov	r3, r6
 836 0364 40EA8140 		orr	r0, r0, r1, lsl #18
 837 0368 8913     		asrs	r1, r1, #14
 838 036a FFF7FEFF 		bl	__aeabi_ldivmod
 839              	.LVL53:
2189:DMP/driver/eMPL/inv_mpu.c ****         packet_count);
 840              		.loc 1 2189 14 view .LVU277
 841 036e 6060     		str	r0, [r4, #4]
2191:DMP/driver/eMPL/inv_mpu.c ****         packet_count);
 842              		.loc 1 2191 5 is_stmt 1 view .LVU278
2191:DMP/driver/eMPL/inv_mpu.c ****         packet_count);
 843              		.loc 1 2191 40 is_stmt 0 view .LVU279
 844 0370 A068     		ldr	r0, [r4, #8]
2191:DMP/driver/eMPL/inv_mpu.c ****         packet_count);
 845              		.loc 1 2191 43 view .LVU280
 846 0372 0314     		asrs	r3, r0, #16
 847 0374 0004     		lsls	r0, r0, #16
2191:DMP/driver/eMPL/inv_mpu.c ****         packet_count);
 848              		.loc 1 2191 49 view .LVU281
 849 0376 1946     		mov	r1, r3
 850 0378 002B     		cmp	r3, #0
 851 037a 1BDB     		blt	.L49
 852              	.L27:
 853 037c 800B     		lsrs	r0, r0, #14
2191:DMP/driver/eMPL/inv_mpu.c ****         packet_count);
 854              		.loc 1 2191 67 view .LVU282
 855 037e 3A46     		mov	r2, r7
 856 0380 3346     		mov	r3, r6
 857 0382 40EA8140 		orr	r0, r0, r1, lsl #18
 858 0386 8913     		asrs	r1, r1, #14
ARM GAS  /var/folders/21/t9g5rlb91ys800n5npymflf80000gn/T//cclZ9YEQ.s 			page 56


 859 0388 FFF7FEFF 		bl	__aeabi_ldivmod
 860              	.LVL54:
2191:DMP/driver/eMPL/inv_mpu.c ****         packet_count);
 861              		.loc 1 2191 14 view .LVU283
 862 038c A060     		str	r0, [r4, #8]
2194:DMP/driver/eMPL/inv_mpu.c ****         accel[2] -= 65536L;
 863              		.loc 1 2194 5 is_stmt 1 view .LVU284
2194:DMP/driver/eMPL/inv_mpu.c ****         accel[2] -= 65536L;
 864              		.loc 1 2194 8 is_stmt 0 view .LVU285
 865 038e 0028     		cmp	r0, #0
 866 0390 16DD     		ble	.L28
2195:DMP/driver/eMPL/inv_mpu.c ****     else
 867              		.loc 1 2195 9 is_stmt 1 view .LVU286
2195:DMP/driver/eMPL/inv_mpu.c ****     else
 868              		.loc 1 2195 18 is_stmt 0 view .LVU287
 869 0392 A0F58030 		sub	r0, r0, #65536
 870 0396 A060     		str	r0, [r4, #8]
2200:DMP/driver/eMPL/inv_mpu.c **** }
 871              		.loc 1 2200 12 view .LVU288
 872 0398 0020     		movs	r0, #0
 873 039a A4E7     		b	.L15
 874              	.L47:
2187:DMP/driver/eMPL/inv_mpu.c ****         packet_count);
 875              		.loc 1 2187 49 view .LVU289
 876 039c 43F6FF72 		movw	r2, #16383
 877 03a0 8018     		adds	r0, r0, r2
 878 03a2 43F10001 		adc	r1, r3, #0
 879 03a6 CBE7     		b	.L25
 880              	.L48:
2189:DMP/driver/eMPL/inv_mpu.c ****         packet_count);
 881              		.loc 1 2189 49 view .LVU290
 882 03a8 43F6FF72 		movw	r2, #16383
 883 03ac 8018     		adds	r0, r0, r2
 884 03ae 43F10001 		adc	r1, r3, #0
 885 03b2 D4E7     		b	.L26
 886              	.L49:
2191:DMP/driver/eMPL/inv_mpu.c ****         packet_count);
 887              		.loc 1 2191 49 view .LVU291
 888 03b4 43F6FF72 		movw	r2, #16383
 889 03b8 8018     		adds	r0, r0, r2
 890 03ba 43F10001 		adc	r1, r3, #0
 891 03be DDE7     		b	.L27
 892              	.L28:
2197:DMP/driver/eMPL/inv_mpu.c **** #endif
 893              		.loc 1 2197 9 is_stmt 1 view .LVU292
2197:DMP/driver/eMPL/inv_mpu.c **** #endif
 894              		.loc 1 2197 18 is_stmt 0 view .LVU293
 895 03c0 00F58030 		add	r0, r0, #65536
 896 03c4 A060     		str	r0, [r4, #8]
2200:DMP/driver/eMPL/inv_mpu.c **** }
 897              		.loc 1 2200 12 view .LVU294
 898 03c6 0020     		movs	r0, #0
 899 03c8 8DE7     		b	.L15
 900              	.LVL55:
 901              	.L29:
2092:DMP/driver/eMPL/inv_mpu.c ****     delay_ms(200);
 902              		.loc 1 2092 16 view .LVU295
ARM GAS  /var/folders/21/t9g5rlb91ys800n5npymflf80000gn/T//cclZ9YEQ.s 			page 57


 903 03ca 4FF0FF30 		mov	r0, #-1
 904 03ce 8AE7     		b	.L15
 905              	.L30:
2096:DMP/driver/eMPL/inv_mpu.c ****     if (i2c_write(st.hw->addr, st.reg->fifo_en, 1, data))
 906              		.loc 1 2096 16 view .LVU296
 907 03d0 4FF0FF30 		mov	r0, #-1
 908 03d4 87E7     		b	.L15
 909              	.L31:
2098:DMP/driver/eMPL/inv_mpu.c ****     if (i2c_write(st.hw->addr, st.reg->pwr_mgmt_1, 1, data))
 910              		.loc 1 2098 16 view .LVU297
 911 03d6 4FF0FF30 		mov	r0, #-1
 912 03da 84E7     		b	.L15
 913              	.L32:
2100:DMP/driver/eMPL/inv_mpu.c ****     if (i2c_write(st.hw->addr, st.reg->i2c_mst, 1, data))
 914              		.loc 1 2100 16 view .LVU298
 915 03dc 4FF0FF30 		mov	r0, #-1
 916 03e0 81E7     		b	.L15
 917              	.L33:
2102:DMP/driver/eMPL/inv_mpu.c ****     if (i2c_write(st.hw->addr, st.reg->user_ctrl, 1, data))
 918              		.loc 1 2102 16 view .LVU299
 919 03e2 4FF0FF30 		mov	r0, #-1
 920 03e6 7EE7     		b	.L15
 921              	.L34:
2104:DMP/driver/eMPL/inv_mpu.c ****     data[0] = BIT_FIFO_RST | BIT_DMP_RST;
 922              		.loc 1 2104 16 view .LVU300
 923 03e8 4FF0FF30 		mov	r0, #-1
 924 03ec 7BE7     		b	.L15
 925              	.L35:
2107:DMP/driver/eMPL/inv_mpu.c ****     delay_ms(15);
 926              		.loc 1 2107 16 view .LVU301
 927 03ee 4FF0FF30 		mov	r0, #-1
 928 03f2 78E7     		b	.L15
 929              	.L36:
2111:DMP/driver/eMPL/inv_mpu.c ****     data[0] = st.test->reg_rate_div;
 930              		.loc 1 2111 16 view .LVU302
 931 03f4 4FF0FF30 		mov	r0, #-1
 932 03f8 75E7     		b	.L15
 933              	.L37:
2114:DMP/driver/eMPL/inv_mpu.c ****     if (hw_test)
 934              		.loc 1 2114 16 view .LVU303
 935 03fa 4FF0FF30 		mov	r0, #-1
 936 03fe 72E7     		b	.L15
 937              	.L38:
2120:DMP/driver/eMPL/inv_mpu.c **** 
 938              		.loc 1 2120 16 view .LVU304
 939 0400 4FF0FF30 		mov	r0, #-1
 940 0404 6FE7     		b	.L15
 941              	.L39:
2127:DMP/driver/eMPL/inv_mpu.c ****     if (hw_test)
 942              		.loc 1 2127 16 view .LVU305
 943 0406 4FF0FF30 		mov	r0, #-1
 944 040a 6CE7     		b	.L15
 945              	.L40:
2134:DMP/driver/eMPL/inv_mpu.c **** 
 946              		.loc 1 2134 16 view .LVU306
 947 040c 4FF0FF30 		mov	r0, #-1
 948 0410 69E7     		b	.L15
ARM GAS  /var/folders/21/t9g5rlb91ys800n5npymflf80000gn/T//cclZ9YEQ.s 			page 58


 949              	.L41:
2138:DMP/driver/eMPL/inv_mpu.c ****     delay_ms(test.wait_ms);
 950              		.loc 1 2138 16 view .LVU307
 951 0412 4FF0FF30 		mov	r0, #-1
 952 0416 66E7     		b	.L15
 953              	.L42:
2142:DMP/driver/eMPL/inv_mpu.c **** 
 954              		.loc 1 2142 16 view .LVU308
 955 0418 4FF0FF30 		mov	r0, #-1
 956 041c 63E7     		b	.L15
 957              	.L43:
2145:DMP/driver/eMPL/inv_mpu.c **** 
 958              		.loc 1 2145 16 view .LVU309
 959 041e 4FF0FF30 		mov	r0, #-1
 960 0422 60E7     		b	.L15
 961              	.L53:
 962              		.align	2
 963              	.L52:
 964 0424 00000000 		.word	st
 965              		.cfi_endproc
 966              	.LFE205:
 968              		.section	.rodata.get_st_6500_biases.str1.4,"aMS",%progbits,1
 969              		.align	2
 970              	.LC0:
 971 0000 53746172 		.ascii	"Starting Bias Loop Reads\000"
 971      74696E67 
 971      20426961 
 971      73204C6F 
 971      6F702052 
 972 0019 000000   		.align	2
 973              	.LC1:
 974 001c 53616D70 		.ascii	"Samples: %d\012\000"
 974      6C65733A 
 974      2025640A 
 974      00
 975              		.global	__aeabi_f2d
 976 0029 000000   		.align	2
 977              	.LC2:
 978 002c 41636365 		.ascii	"Accel offset data HWST bit=%d: %7.4f %7.4f %7.4f\015"
 978      6C206F66 
 978      66736574 
 978      20646174 
 978      61204857 
 979 005d 0A00     		.ascii	"\012\000"
 980 005f 00       		.align	2
 981              	.LC3:
 982 0060 4779726F 		.ascii	"Gyro offset data HWST bit=%d: %7.4f %7.4f %7.4f\015"
 982      206F6666 
 982      73657420 
 982      64617461 
 982      20485753 
 983 0090 0A00     		.ascii	"\012\000"
 984              		.section	.text.get_st_6500_biases,"ax",%progbits
 985              		.align	1
 986              		.syntax unified
 987              		.thumb
 988              		.thumb_func
ARM GAS  /var/folders/21/t9g5rlb91ys800n5npymflf80000gn/T//cclZ9YEQ.s 			page 59


 990              	get_st_6500_biases:
 991              	.LVL56:
 992              	.LFB208:
2202:DMP/driver/eMPL/inv_mpu.c **** 
2203:DMP/driver/eMPL/inv_mpu.c **** #ifdef MPU6500
2204:DMP/driver/eMPL/inv_mpu.c **** #define REG_6500_XG_ST_DATA     0x0
2205:DMP/driver/eMPL/inv_mpu.c **** #define REG_6500_XA_ST_DATA     0xD
2206:DMP/driver/eMPL/inv_mpu.c **** static const unsigned short mpu_6500_st_tb[256] = {
2207:DMP/driver/eMPL/inv_mpu.c **** 	2620,2646,2672,2699,2726,2753,2781,2808, //7
2208:DMP/driver/eMPL/inv_mpu.c **** 	2837,2865,2894,2923,2952,2981,3011,3041, //15
2209:DMP/driver/eMPL/inv_mpu.c **** 	3072,3102,3133,3165,3196,3228,3261,3293, //23
2210:DMP/driver/eMPL/inv_mpu.c **** 	3326,3359,3393,3427,3461,3496,3531,3566, //31
2211:DMP/driver/eMPL/inv_mpu.c **** 	3602,3638,3674,3711,3748,3786,3823,3862, //39
2212:DMP/driver/eMPL/inv_mpu.c **** 	3900,3939,3979,4019,4059,4099,4140,4182, //47
2213:DMP/driver/eMPL/inv_mpu.c **** 	4224,4266,4308,4352,4395,4439,4483,4528, //55
2214:DMP/driver/eMPL/inv_mpu.c **** 	4574,4619,4665,4712,4759,4807,4855,4903, //63
2215:DMP/driver/eMPL/inv_mpu.c **** 	4953,5002,5052,5103,5154,5205,5257,5310, //71
2216:DMP/driver/eMPL/inv_mpu.c **** 	5363,5417,5471,5525,5581,5636,5693,5750, //79
2217:DMP/driver/eMPL/inv_mpu.c **** 	5807,5865,5924,5983,6043,6104,6165,6226, //87
2218:DMP/driver/eMPL/inv_mpu.c **** 	6289,6351,6415,6479,6544,6609,6675,6742, //95
2219:DMP/driver/eMPL/inv_mpu.c **** 	6810,6878,6946,7016,7086,7157,7229,7301, //103
2220:DMP/driver/eMPL/inv_mpu.c **** 	7374,7448,7522,7597,7673,7750,7828,7906, //111
2221:DMP/driver/eMPL/inv_mpu.c **** 	7985,8065,8145,8227,8309,8392,8476,8561, //119
2222:DMP/driver/eMPL/inv_mpu.c **** 	8647,8733,8820,8909,8998,9088,9178,9270,
2223:DMP/driver/eMPL/inv_mpu.c **** 	9363,9457,9551,9647,9743,9841,9939,10038,
2224:DMP/driver/eMPL/inv_mpu.c **** 	10139,10240,10343,10446,10550,10656,10763,10870,
2225:DMP/driver/eMPL/inv_mpu.c **** 	10979,11089,11200,11312,11425,11539,11654,11771,
2226:DMP/driver/eMPL/inv_mpu.c **** 	11889,12008,12128,12249,12371,12495,12620,12746,
2227:DMP/driver/eMPL/inv_mpu.c **** 	12874,13002,13132,13264,13396,13530,13666,13802,
2228:DMP/driver/eMPL/inv_mpu.c **** 	13940,14080,14221,14363,14506,14652,14798,14946,
2229:DMP/driver/eMPL/inv_mpu.c **** 	15096,15247,15399,15553,15709,15866,16024,16184,
2230:DMP/driver/eMPL/inv_mpu.c **** 	16346,16510,16675,16842,17010,17180,17352,17526,
2231:DMP/driver/eMPL/inv_mpu.c **** 	17701,17878,18057,18237,18420,18604,18790,18978,
2232:DMP/driver/eMPL/inv_mpu.c **** 	19167,19359,19553,19748,19946,20145,20347,20550,
2233:DMP/driver/eMPL/inv_mpu.c **** 	20756,20963,21173,21385,21598,21814,22033,22253,
2234:DMP/driver/eMPL/inv_mpu.c **** 	22475,22700,22927,23156,23388,23622,23858,24097,
2235:DMP/driver/eMPL/inv_mpu.c **** 	24338,24581,24827,25075,25326,25579,25835,26093,
2236:DMP/driver/eMPL/inv_mpu.c **** 	26354,26618,26884,27153,27424,27699,27976,28255,
2237:DMP/driver/eMPL/inv_mpu.c **** 	28538,28823,29112,29403,29697,29994,30294,30597,
2238:DMP/driver/eMPL/inv_mpu.c **** 	30903,31212,31524,31839,32157,32479,32804,33132
2239:DMP/driver/eMPL/inv_mpu.c **** };
2240:DMP/driver/eMPL/inv_mpu.c **** static int accel_6500_self_test(long *bias_regular, long *bias_st, int debug)
2241:DMP/driver/eMPL/inv_mpu.c **** {
2242:DMP/driver/eMPL/inv_mpu.c ****     int i, result = 0, otp_value_zero = 0;
2243:DMP/driver/eMPL/inv_mpu.c ****     float accel_st_al_min, accel_st_al_max;
2244:DMP/driver/eMPL/inv_mpu.c ****     float st_shift_cust[3], st_shift_ratio[3], ct_shift_prod[3], accel_offset_max;
2245:DMP/driver/eMPL/inv_mpu.c ****     unsigned char regs[3];
2246:DMP/driver/eMPL/inv_mpu.c ****     if (i2c_read(st.hw->addr, REG_6500_XA_ST_DATA, 3, regs)) {
2247:DMP/driver/eMPL/inv_mpu.c ****     	if(debug)
2248:DMP/driver/eMPL/inv_mpu.c ****     		log_i("Reading OTP Register Error.\n");
2249:DMP/driver/eMPL/inv_mpu.c ****     	return 0x07;
2250:DMP/driver/eMPL/inv_mpu.c ****     }
2251:DMP/driver/eMPL/inv_mpu.c ****     if(debug)
2252:DMP/driver/eMPL/inv_mpu.c ****     	log_i("Accel OTP:%d, %d, %d\n", regs[0], regs[1], regs[2]);
2253:DMP/driver/eMPL/inv_mpu.c **** 	for (i = 0; i < 3; i++) {
2254:DMP/driver/eMPL/inv_mpu.c **** 		if (regs[i] != 0) {
2255:DMP/driver/eMPL/inv_mpu.c **** 			ct_shift_prod[i] = mpu_6500_st_tb[regs[i] - 1];
ARM GAS  /var/folders/21/t9g5rlb91ys800n5npymflf80000gn/T//cclZ9YEQ.s 			page 60


2256:DMP/driver/eMPL/inv_mpu.c **** 			ct_shift_prod[i] *= 65536.f;
2257:DMP/driver/eMPL/inv_mpu.c **** 			ct_shift_prod[i] /= test.accel_sens;
2258:DMP/driver/eMPL/inv_mpu.c **** 		}
2259:DMP/driver/eMPL/inv_mpu.c **** 		else {
2260:DMP/driver/eMPL/inv_mpu.c **** 			ct_shift_prod[i] = 0;
2261:DMP/driver/eMPL/inv_mpu.c **** 			otp_value_zero = 1;
2262:DMP/driver/eMPL/inv_mpu.c **** 		}
2263:DMP/driver/eMPL/inv_mpu.c **** 	}
2264:DMP/driver/eMPL/inv_mpu.c **** 	if(otp_value_zero == 0) {
2265:DMP/driver/eMPL/inv_mpu.c **** 		if(debug)
2266:DMP/driver/eMPL/inv_mpu.c **** 			log_i("ACCEL:CRITERIA A\n");
2267:DMP/driver/eMPL/inv_mpu.c **** 		for (i = 0; i < 3; i++) {
2268:DMP/driver/eMPL/inv_mpu.c **** 			st_shift_cust[i] = bias_st[i] - bias_regular[i];
2269:DMP/driver/eMPL/inv_mpu.c **** 			if(debug) {
2270:DMP/driver/eMPL/inv_mpu.c **** 				log_i("Bias_Shift=%7.4f, Bias_Reg=%7.4f, Bias_HWST=%7.4f\r\n",
2271:DMP/driver/eMPL/inv_mpu.c **** 						st_shift_cust[i]/1.f, bias_regular[i]/1.f,
2272:DMP/driver/eMPL/inv_mpu.c **** 						bias_st[i]/1.f);
2273:DMP/driver/eMPL/inv_mpu.c **** 				log_i("OTP value: %7.4f\r\n", ct_shift_prod[i]/1.f);
2274:DMP/driver/eMPL/inv_mpu.c **** 			}
2275:DMP/driver/eMPL/inv_mpu.c **** 
2276:DMP/driver/eMPL/inv_mpu.c **** 			st_shift_ratio[i] = st_shift_cust[i] / ct_shift_prod[i] - 1.f;
2277:DMP/driver/eMPL/inv_mpu.c **** 
2278:DMP/driver/eMPL/inv_mpu.c **** 			if(debug)
2279:DMP/driver/eMPL/inv_mpu.c **** 				log_i("ratio=%7.4f, threshold=%7.4f\r\n", st_shift_ratio[i]/1.f,
2280:DMP/driver/eMPL/inv_mpu.c **** 							test.max_accel_var/1.f);
2281:DMP/driver/eMPL/inv_mpu.c **** 
2282:DMP/driver/eMPL/inv_mpu.c **** 			if (fabs(st_shift_ratio[i]) > test.max_accel_var) {
2283:DMP/driver/eMPL/inv_mpu.c **** 				if(debug)
2284:DMP/driver/eMPL/inv_mpu.c **** 					log_i("ACCEL Fail Axis = %d\n", i);
2285:DMP/driver/eMPL/inv_mpu.c **** 				result |= 1 << i;	//Error condition
2286:DMP/driver/eMPL/inv_mpu.c **** 			}
2287:DMP/driver/eMPL/inv_mpu.c **** 		}
2288:DMP/driver/eMPL/inv_mpu.c **** 	}
2289:DMP/driver/eMPL/inv_mpu.c **** 	else {
2290:DMP/driver/eMPL/inv_mpu.c **** 		/* Self Test Pass/Fail Criteria B */
2291:DMP/driver/eMPL/inv_mpu.c **** 		accel_st_al_min = test.min_g * 65536.f;
2292:DMP/driver/eMPL/inv_mpu.c **** 		accel_st_al_max = test.max_g * 65536.f;
2293:DMP/driver/eMPL/inv_mpu.c **** 
2294:DMP/driver/eMPL/inv_mpu.c **** 		if(debug) {
2295:DMP/driver/eMPL/inv_mpu.c **** 			log_i("ACCEL:CRITERIA B\r\n");
2296:DMP/driver/eMPL/inv_mpu.c **** 			log_i("Min MG: %7.4f\r\n", accel_st_al_min/1.f);
2297:DMP/driver/eMPL/inv_mpu.c **** 			log_i("Max MG: %7.4f\r\n", accel_st_al_max/1.f);
2298:DMP/driver/eMPL/inv_mpu.c **** 		}
2299:DMP/driver/eMPL/inv_mpu.c **** 
2300:DMP/driver/eMPL/inv_mpu.c **** 		for (i = 0; i < 3; i++) {
2301:DMP/driver/eMPL/inv_mpu.c **** 			st_shift_cust[i] = bias_st[i] - bias_regular[i];
2302:DMP/driver/eMPL/inv_mpu.c **** 
2303:DMP/driver/eMPL/inv_mpu.c **** 			if(debug)
2304:DMP/driver/eMPL/inv_mpu.c **** 				log_i("Bias_shift=%7.4f, st=%7.4f, reg=%7.4f\n", st_shift_cust[i]/1.f, bias_st[i]/1.f, bias_reg
2305:DMP/driver/eMPL/inv_mpu.c **** 			if(st_shift_cust[i] < accel_st_al_min || st_shift_cust[i] > accel_st_al_max) {
2306:DMP/driver/eMPL/inv_mpu.c **** 				if(debug)
2307:DMP/driver/eMPL/inv_mpu.c **** 					log_i("Accel FAIL axis:%d <= 225mg or >= 675mg\n", i);
2308:DMP/driver/eMPL/inv_mpu.c **** 				result |= 1 << i;	//Error condition
2309:DMP/driver/eMPL/inv_mpu.c **** 			}
2310:DMP/driver/eMPL/inv_mpu.c **** 		}
2311:DMP/driver/eMPL/inv_mpu.c **** 	}
2312:DMP/driver/eMPL/inv_mpu.c **** 
ARM GAS  /var/folders/21/t9g5rlb91ys800n5npymflf80000gn/T//cclZ9YEQ.s 			page 61


2313:DMP/driver/eMPL/inv_mpu.c **** 	if(result == 0) {
2314:DMP/driver/eMPL/inv_mpu.c **** 	/* Self Test Pass/Fail Criteria C */
2315:DMP/driver/eMPL/inv_mpu.c **** 		accel_offset_max = test.max_g_offset * 65536.f;
2316:DMP/driver/eMPL/inv_mpu.c **** 		if(debug)
2317:DMP/driver/eMPL/inv_mpu.c **** 			log_i("Accel:CRITERIA C: bias less than %7.4f\n", accel_offset_max/1.f);
2318:DMP/driver/eMPL/inv_mpu.c **** 		for (i = 0; i < 3; i++) {
2319:DMP/driver/eMPL/inv_mpu.c **** 			if(fabs(bias_regular[i]) > accel_offset_max) {
2320:DMP/driver/eMPL/inv_mpu.c **** 				if(debug)
2321:DMP/driver/eMPL/inv_mpu.c **** 					log_i("FAILED: Accel axis:%d = %ld > 500mg\n", i, bias_regular[i]);
2322:DMP/driver/eMPL/inv_mpu.c **** 				result |= 1 << i;	//Error condition
2323:DMP/driver/eMPL/inv_mpu.c **** 			}
2324:DMP/driver/eMPL/inv_mpu.c **** 		}
2325:DMP/driver/eMPL/inv_mpu.c **** 	}
2326:DMP/driver/eMPL/inv_mpu.c **** 
2327:DMP/driver/eMPL/inv_mpu.c ****     return result;
2328:DMP/driver/eMPL/inv_mpu.c **** }
2329:DMP/driver/eMPL/inv_mpu.c **** 
2330:DMP/driver/eMPL/inv_mpu.c **** static int gyro_6500_self_test(long *bias_regular, long *bias_st, int debug)
2331:DMP/driver/eMPL/inv_mpu.c **** {
2332:DMP/driver/eMPL/inv_mpu.c ****     int i, result = 0, otp_value_zero = 0;
2333:DMP/driver/eMPL/inv_mpu.c ****     float gyro_st_al_max;
2334:DMP/driver/eMPL/inv_mpu.c ****     float st_shift_cust[3], st_shift_ratio[3], ct_shift_prod[3], gyro_offset_max;
2335:DMP/driver/eMPL/inv_mpu.c ****     unsigned char regs[3];
2336:DMP/driver/eMPL/inv_mpu.c **** 
2337:DMP/driver/eMPL/inv_mpu.c ****     if (i2c_read(st.hw->addr, REG_6500_XG_ST_DATA, 3, regs)) {
2338:DMP/driver/eMPL/inv_mpu.c ****     	if(debug)
2339:DMP/driver/eMPL/inv_mpu.c ****     		log_i("Reading OTP Register Error.\n");
2340:DMP/driver/eMPL/inv_mpu.c ****         return 0x07;
2341:DMP/driver/eMPL/inv_mpu.c ****     }
2342:DMP/driver/eMPL/inv_mpu.c **** 
2343:DMP/driver/eMPL/inv_mpu.c ****     if(debug)
2344:DMP/driver/eMPL/inv_mpu.c ****     	log_i("Gyro OTP:%d, %d, %d\r\n", regs[0], regs[1], regs[2]);
2345:DMP/driver/eMPL/inv_mpu.c **** 
2346:DMP/driver/eMPL/inv_mpu.c **** 	for (i = 0; i < 3; i++) {
2347:DMP/driver/eMPL/inv_mpu.c **** 		if (regs[i] != 0) {
2348:DMP/driver/eMPL/inv_mpu.c **** 			ct_shift_prod[i] = mpu_6500_st_tb[regs[i] - 1];
2349:DMP/driver/eMPL/inv_mpu.c **** 			ct_shift_prod[i] *= 65536.f;
2350:DMP/driver/eMPL/inv_mpu.c **** 			ct_shift_prod[i] /= test.gyro_sens;
2351:DMP/driver/eMPL/inv_mpu.c **** 		}
2352:DMP/driver/eMPL/inv_mpu.c **** 		else {
2353:DMP/driver/eMPL/inv_mpu.c **** 			ct_shift_prod[i] = 0;
2354:DMP/driver/eMPL/inv_mpu.c **** 			otp_value_zero = 1;
2355:DMP/driver/eMPL/inv_mpu.c **** 		}
2356:DMP/driver/eMPL/inv_mpu.c **** 	}
2357:DMP/driver/eMPL/inv_mpu.c **** 
2358:DMP/driver/eMPL/inv_mpu.c **** 	if(otp_value_zero == 0) {
2359:DMP/driver/eMPL/inv_mpu.c **** 		if(debug)
2360:DMP/driver/eMPL/inv_mpu.c **** 			log_i("GYRO:CRITERIA A\n");
2361:DMP/driver/eMPL/inv_mpu.c **** 		/* Self Test Pass/Fail Criteria A */
2362:DMP/driver/eMPL/inv_mpu.c **** 		for (i = 0; i < 3; i++) {
2363:DMP/driver/eMPL/inv_mpu.c **** 			st_shift_cust[i] = bias_st[i] - bias_regular[i];
2364:DMP/driver/eMPL/inv_mpu.c **** 
2365:DMP/driver/eMPL/inv_mpu.c **** 			if(debug) {
2366:DMP/driver/eMPL/inv_mpu.c **** 				log_i("Bias_Shift=%7.4f, Bias_Reg=%7.4f, Bias_HWST=%7.4f\r\n",
2367:DMP/driver/eMPL/inv_mpu.c **** 						st_shift_cust[i]/1.f, bias_regular[i]/1.f,
2368:DMP/driver/eMPL/inv_mpu.c **** 						bias_st[i]/1.f);
2369:DMP/driver/eMPL/inv_mpu.c **** 				log_i("OTP value: %7.4f\r\n", ct_shift_prod[i]/1.f);
ARM GAS  /var/folders/21/t9g5rlb91ys800n5npymflf80000gn/T//cclZ9YEQ.s 			page 62


2370:DMP/driver/eMPL/inv_mpu.c **** 			}
2371:DMP/driver/eMPL/inv_mpu.c **** 
2372:DMP/driver/eMPL/inv_mpu.c **** 			st_shift_ratio[i] = st_shift_cust[i] / ct_shift_prod[i];
2373:DMP/driver/eMPL/inv_mpu.c **** 
2374:DMP/driver/eMPL/inv_mpu.c **** 			if(debug)
2375:DMP/driver/eMPL/inv_mpu.c **** 				log_i("ratio=%7.4f, threshold=%7.4f\r\n", st_shift_ratio[i]/1.f,
2376:DMP/driver/eMPL/inv_mpu.c **** 							test.max_gyro_var/1.f);
2377:DMP/driver/eMPL/inv_mpu.c **** 
2378:DMP/driver/eMPL/inv_mpu.c **** 			if (fabs(st_shift_ratio[i]) < test.max_gyro_var) {
2379:DMP/driver/eMPL/inv_mpu.c **** 				if(debug)
2380:DMP/driver/eMPL/inv_mpu.c **** 					log_i("Gyro Fail Axis = %d\n", i);
2381:DMP/driver/eMPL/inv_mpu.c **** 				result |= 1 << i;	//Error condition
2382:DMP/driver/eMPL/inv_mpu.c **** 			}
2383:DMP/driver/eMPL/inv_mpu.c **** 		}
2384:DMP/driver/eMPL/inv_mpu.c **** 	}
2385:DMP/driver/eMPL/inv_mpu.c **** 	else {
2386:DMP/driver/eMPL/inv_mpu.c **** 		/* Self Test Pass/Fail Criteria B */
2387:DMP/driver/eMPL/inv_mpu.c **** 		gyro_st_al_max = test.max_dps * 65536.f;
2388:DMP/driver/eMPL/inv_mpu.c **** 
2389:DMP/driver/eMPL/inv_mpu.c **** 		if(debug) {
2390:DMP/driver/eMPL/inv_mpu.c **** 			log_i("GYRO:CRITERIA B\r\n");
2391:DMP/driver/eMPL/inv_mpu.c **** 			log_i("Max DPS: %7.4f\r\n", gyro_st_al_max/1.f);
2392:DMP/driver/eMPL/inv_mpu.c **** 		}
2393:DMP/driver/eMPL/inv_mpu.c **** 
2394:DMP/driver/eMPL/inv_mpu.c **** 		for (i = 0; i < 3; i++) {
2395:DMP/driver/eMPL/inv_mpu.c **** 			st_shift_cust[i] = bias_st[i] - bias_regular[i];
2396:DMP/driver/eMPL/inv_mpu.c **** 
2397:DMP/driver/eMPL/inv_mpu.c **** 			if(debug)
2398:DMP/driver/eMPL/inv_mpu.c **** 				log_i("Bias_shift=%7.4f, st=%7.4f, reg=%7.4f\n", st_shift_cust[i]/1.f, bias_st[i]/1.f, bias_reg
2399:DMP/driver/eMPL/inv_mpu.c **** 			if(st_shift_cust[i] < gyro_st_al_max) {
2400:DMP/driver/eMPL/inv_mpu.c **** 				if(debug)
2401:DMP/driver/eMPL/inv_mpu.c **** 					log_i("GYRO FAIL axis:%d greater than 60dps\n", i);
2402:DMP/driver/eMPL/inv_mpu.c **** 				result |= 1 << i;	//Error condition
2403:DMP/driver/eMPL/inv_mpu.c **** 			}
2404:DMP/driver/eMPL/inv_mpu.c **** 		}
2405:DMP/driver/eMPL/inv_mpu.c **** 	}
2406:DMP/driver/eMPL/inv_mpu.c **** 
2407:DMP/driver/eMPL/inv_mpu.c **** 	if(result == 0) {
2408:DMP/driver/eMPL/inv_mpu.c **** 	/* Self Test Pass/Fail Criteria C */
2409:DMP/driver/eMPL/inv_mpu.c **** 		gyro_offset_max = test.min_dps * 65536.f;
2410:DMP/driver/eMPL/inv_mpu.c **** 		if(debug)
2411:DMP/driver/eMPL/inv_mpu.c **** 			log_i("Gyro:CRITERIA C: bias less than %7.4f\n", gyro_offset_max/1.f);
2412:DMP/driver/eMPL/inv_mpu.c **** 		for (i = 0; i < 3; i++) {
2413:DMP/driver/eMPL/inv_mpu.c **** 			if(fabs(bias_regular[i]) > gyro_offset_max) {
2414:DMP/driver/eMPL/inv_mpu.c **** 				if(debug)
2415:DMP/driver/eMPL/inv_mpu.c **** 					log_i("FAILED: Gyro axis:%d = %ld > 20dps\n", i, bias_regular[i]);
2416:DMP/driver/eMPL/inv_mpu.c **** 				result |= 1 << i;	//Error condition
2417:DMP/driver/eMPL/inv_mpu.c **** 			}
2418:DMP/driver/eMPL/inv_mpu.c **** 		}
2419:DMP/driver/eMPL/inv_mpu.c **** 	}
2420:DMP/driver/eMPL/inv_mpu.c ****     return result;
2421:DMP/driver/eMPL/inv_mpu.c **** }
2422:DMP/driver/eMPL/inv_mpu.c **** 
2423:DMP/driver/eMPL/inv_mpu.c **** static int get_st_6500_biases(long *gyro, long *accel, unsigned char hw_test, int debug)
2424:DMP/driver/eMPL/inv_mpu.c **** {
 993              		.loc 1 2424 1 is_stmt 1 view -0
 994              		.cfi_startproc
ARM GAS  /var/folders/21/t9g5rlb91ys800n5npymflf80000gn/T//cclZ9YEQ.s 			page 63


 995              		@ args = 0, pretend = 0, frame = 528
 996              		@ frame_needed = 0, uses_anonymous_args = 0
 997              		.loc 1 2424 1 is_stmt 0 view .LVU311
 998 0000 2DE9F04F 		push	{r4, r5, r6, r7, r8, r9, r10, fp, lr}
 999              	.LCFI8:
 1000              		.cfi_def_cfa_offset 36
 1001              		.cfi_offset 4, -36
 1002              		.cfi_offset 5, -32
 1003              		.cfi_offset 6, -28
 1004              		.cfi_offset 7, -24
 1005              		.cfi_offset 8, -20
 1006              		.cfi_offset 9, -16
 1007              		.cfi_offset 10, -12
 1008              		.cfi_offset 11, -8
 1009              		.cfi_offset 14, -4
 1010 0004 2DED048B 		vpush.64	{d8, d9}
 1011              	.LCFI9:
 1012              		.cfi_def_cfa_offset 52
 1013              		.cfi_offset 80, -52
 1014              		.cfi_offset 81, -48
 1015              		.cfi_offset 82, -44
 1016              		.cfi_offset 83, -40
 1017 0008 ADF5097D 		sub	sp, sp, #548
 1018              	.LCFI10:
 1019              		.cfi_def_cfa_offset 600
 1020 000c 0546     		mov	r5, r0
 1021 000e 0C46     		mov	r4, r1
 1022 0010 9246     		mov	r10, r2
 1023 0012 9946     		mov	r9, r3
2425:DMP/driver/eMPL/inv_mpu.c ****     unsigned char data[HWST_MAX_PACKET_LENGTH];
 1024              		.loc 1 2425 5 is_stmt 1 view .LVU312
2426:DMP/driver/eMPL/inv_mpu.c ****     unsigned char packet_count, ii;
 1025              		.loc 1 2426 5 view .LVU313
2427:DMP/driver/eMPL/inv_mpu.c ****     unsigned short fifo_count;
 1026              		.loc 1 2427 5 view .LVU314
2428:DMP/driver/eMPL/inv_mpu.c ****     int s = 0, read_size = 0, ind;
 1027              		.loc 1 2428 5 view .LVU315
 1028              	.LVL57:
2429:DMP/driver/eMPL/inv_mpu.c **** 
2430:DMP/driver/eMPL/inv_mpu.c ****     data[0] = 0x01;
 1029              		.loc 1 2430 5 view .LVU316
 1030              		.loc 1 2430 13 is_stmt 0 view .LVU317
 1031 0014 0123     		movs	r3, #1
 1032              	.LVL58:
 1033              		.loc 1 2430 13 view .LVU318
 1034 0016 8DF82030 		strb	r3, [sp, #32]
2431:DMP/driver/eMPL/inv_mpu.c ****     data[1] = 0;
 1035              		.loc 1 2431 5 is_stmt 1 view .LVU319
 1036              		.loc 1 2431 13 is_stmt 0 view .LVU320
 1037 001a 0023     		movs	r3, #0
 1038 001c 8DF82130 		strb	r3, [sp, #33]
2432:DMP/driver/eMPL/inv_mpu.c ****     if (i2c_write(st.hw->addr, st.reg->pwr_mgmt_1, 2, data))
 1039              		.loc 1 2432 5 is_stmt 1 view .LVU321
 1040              		.loc 1 2432 21 is_stmt 0 view .LVU322
 1041 0020 734B     		ldr	r3, .L97
 1042 0022 5868     		ldr	r0, [r3, #4]
 1043              	.LVL59:
ARM GAS  /var/folders/21/t9g5rlb91ys800n5npymflf80000gn/T//cclZ9YEQ.s 			page 64


 1044              		.loc 1 2432 34 view .LVU323
 1045 0024 1968     		ldr	r1, [r3]
 1046              	.LVL60:
 1047              		.loc 1 2432 9 view .LVU324
 1048 0026 08AB     		add	r3, sp, #32
 1049 0028 0222     		movs	r2, #2
 1050              	.LVL61:
 1051              		.loc 1 2432 9 view .LVU325
 1052 002a 497D     		ldrb	r1, [r1, #21]	@ zero_extendqisi2
 1053 002c 0078     		ldrb	r0, [r0]	@ zero_extendqisi2
 1054 002e FFF7FEFF 		bl	MPU_Write_Len
 1055              	.LVL62:
 1056              		.loc 1 2432 8 view .LVU326
 1057 0032 0028     		cmp	r0, #0
 1058 0034 40F05D82 		bne	.L72
2433:DMP/driver/eMPL/inv_mpu.c ****         return -1;
2434:DMP/driver/eMPL/inv_mpu.c ****     delay_ms(200);
 1059              		.loc 1 2434 5 is_stmt 1 view .LVU327
 1060 0038 C820     		movs	r0, #200
 1061 003a FFF7FEFF 		bl	HAL_Delay
 1062              	.LVL63:
2435:DMP/driver/eMPL/inv_mpu.c ****     data[0] = 0;
 1063              		.loc 1 2435 5 view .LVU328
 1064              		.loc 1 2435 13 is_stmt 0 view .LVU329
 1065 003e 0023     		movs	r3, #0
 1066 0040 8DF82030 		strb	r3, [sp, #32]
2436:DMP/driver/eMPL/inv_mpu.c ****     if (i2c_write(st.hw->addr, st.reg->int_enable, 1, data))
 1067              		.loc 1 2436 5 is_stmt 1 view .LVU330
 1068              		.loc 1 2436 21 is_stmt 0 view .LVU331
 1069 0044 6A4B     		ldr	r3, .L97
 1070 0046 5868     		ldr	r0, [r3, #4]
 1071              		.loc 1 2436 34 view .LVU332
 1072 0048 1968     		ldr	r1, [r3]
 1073              		.loc 1 2436 9 view .LVU333
 1074 004a 08AB     		add	r3, sp, #32
 1075 004c 0122     		movs	r2, #1
 1076 004e 497C     		ldrb	r1, [r1, #17]	@ zero_extendqisi2
 1077 0050 0078     		ldrb	r0, [r0]	@ zero_extendqisi2
 1078 0052 FFF7FEFF 		bl	MPU_Write_Len
 1079              	.LVL64:
 1080              		.loc 1 2436 8 view .LVU334
 1081 0056 0028     		cmp	r0, #0
 1082 0058 40F04E82 		bne	.L73
2437:DMP/driver/eMPL/inv_mpu.c ****         return -1;
2438:DMP/driver/eMPL/inv_mpu.c ****     if (i2c_write(st.hw->addr, st.reg->fifo_en, 1, data))
 1083              		.loc 1 2438 5 is_stmt 1 view .LVU335
 1084              		.loc 1 2438 21 is_stmt 0 view .LVU336
 1085 005c 644B     		ldr	r3, .L97
 1086 005e 5868     		ldr	r0, [r3, #4]
 1087              		.loc 1 2438 34 view .LVU337
 1088 0060 1968     		ldr	r1, [r3]
 1089              		.loc 1 2438 9 view .LVU338
 1090 0062 08AB     		add	r3, sp, #32
 1091 0064 0122     		movs	r2, #1
 1092 0066 4979     		ldrb	r1, [r1, #5]	@ zero_extendqisi2
 1093 0068 0078     		ldrb	r0, [r0]	@ zero_extendqisi2
 1094 006a FFF7FEFF 		bl	MPU_Write_Len
ARM GAS  /var/folders/21/t9g5rlb91ys800n5npymflf80000gn/T//cclZ9YEQ.s 			page 65


 1095              	.LVL65:
 1096              		.loc 1 2438 8 view .LVU339
 1097 006e 0028     		cmp	r0, #0
 1098 0070 40F04582 		bne	.L74
2439:DMP/driver/eMPL/inv_mpu.c ****         return -1;
2440:DMP/driver/eMPL/inv_mpu.c ****     if (i2c_write(st.hw->addr, st.reg->pwr_mgmt_1, 1, data))
 1099              		.loc 1 2440 5 is_stmt 1 view .LVU340
 1100              		.loc 1 2440 21 is_stmt 0 view .LVU341
 1101 0074 5E4B     		ldr	r3, .L97
 1102 0076 5868     		ldr	r0, [r3, #4]
 1103              		.loc 1 2440 34 view .LVU342
 1104 0078 1968     		ldr	r1, [r3]
 1105              		.loc 1 2440 9 view .LVU343
 1106 007a 08AB     		add	r3, sp, #32
 1107 007c 0122     		movs	r2, #1
 1108 007e 497D     		ldrb	r1, [r1, #21]	@ zero_extendqisi2
 1109 0080 0078     		ldrb	r0, [r0]	@ zero_extendqisi2
 1110 0082 FFF7FEFF 		bl	MPU_Write_Len
 1111              	.LVL66:
 1112              		.loc 1 2440 8 view .LVU344
 1113 0086 0028     		cmp	r0, #0
 1114 0088 40F03C82 		bne	.L75
2441:DMP/driver/eMPL/inv_mpu.c ****         return -1;
2442:DMP/driver/eMPL/inv_mpu.c ****     if (i2c_write(st.hw->addr, st.reg->i2c_mst, 1, data))
 1115              		.loc 1 2442 5 is_stmt 1 view .LVU345
 1116              		.loc 1 2442 21 is_stmt 0 view .LVU346
 1117 008c 584B     		ldr	r3, .L97
 1118 008e 5868     		ldr	r0, [r3, #4]
 1119              		.loc 1 2442 34 view .LVU347
 1120 0090 1968     		ldr	r1, [r3]
 1121              		.loc 1 2442 9 view .LVU348
 1122 0092 08AB     		add	r3, sp, #32
 1123 0094 0122     		movs	r2, #1
 1124 0096 897E     		ldrb	r1, [r1, #26]	@ zero_extendqisi2
 1125 0098 0078     		ldrb	r0, [r0]	@ zero_extendqisi2
 1126 009a FFF7FEFF 		bl	MPU_Write_Len
 1127              	.LVL67:
 1128              		.loc 1 2442 8 view .LVU349
 1129 009e 0028     		cmp	r0, #0
 1130 00a0 40F03382 		bne	.L76
2443:DMP/driver/eMPL/inv_mpu.c ****         return -1;
2444:DMP/driver/eMPL/inv_mpu.c ****     if (i2c_write(st.hw->addr, st.reg->user_ctrl, 1, data))
 1131              		.loc 1 2444 5 is_stmt 1 view .LVU350
 1132              		.loc 1 2444 21 is_stmt 0 view .LVU351
 1133 00a4 524B     		ldr	r3, .L97
 1134 00a6 5868     		ldr	r0, [r3, #4]
 1135              		.loc 1 2444 34 view .LVU352
 1136 00a8 1968     		ldr	r1, [r3]
 1137              		.loc 1 2444 9 view .LVU353
 1138 00aa 08AB     		add	r3, sp, #32
 1139 00ac 0122     		movs	r2, #1
 1140 00ae 0979     		ldrb	r1, [r1, #4]	@ zero_extendqisi2
 1141 00b0 0078     		ldrb	r0, [r0]	@ zero_extendqisi2
 1142 00b2 FFF7FEFF 		bl	MPU_Write_Len
 1143              	.LVL68:
 1144              		.loc 1 2444 8 view .LVU354
 1145 00b6 0028     		cmp	r0, #0
ARM GAS  /var/folders/21/t9g5rlb91ys800n5npymflf80000gn/T//cclZ9YEQ.s 			page 66


 1146 00b8 40F02A82 		bne	.L77
2445:DMP/driver/eMPL/inv_mpu.c ****         return -1;
2446:DMP/driver/eMPL/inv_mpu.c ****     data[0] = BIT_FIFO_RST | BIT_DMP_RST;
 1147              		.loc 1 2446 5 is_stmt 1 view .LVU355
 1148              		.loc 1 2446 13 is_stmt 0 view .LVU356
 1149 00bc 0C23     		movs	r3, #12
 1150 00be 8DF82030 		strb	r3, [sp, #32]
2447:DMP/driver/eMPL/inv_mpu.c ****     if (i2c_write(st.hw->addr, st.reg->user_ctrl, 1, data))
 1151              		.loc 1 2447 5 is_stmt 1 view .LVU357
 1152              		.loc 1 2447 21 is_stmt 0 view .LVU358
 1153 00c2 4B4B     		ldr	r3, .L97
 1154 00c4 5868     		ldr	r0, [r3, #4]
 1155              		.loc 1 2447 34 view .LVU359
 1156 00c6 1968     		ldr	r1, [r3]
 1157              		.loc 1 2447 9 view .LVU360
 1158 00c8 08AB     		add	r3, sp, #32
 1159 00ca 0122     		movs	r2, #1
 1160 00cc 0979     		ldrb	r1, [r1, #4]	@ zero_extendqisi2
 1161 00ce 0078     		ldrb	r0, [r0]	@ zero_extendqisi2
 1162 00d0 FFF7FEFF 		bl	MPU_Write_Len
 1163              	.LVL69:
 1164              		.loc 1 2447 8 view .LVU361
 1165 00d4 0028     		cmp	r0, #0
 1166 00d6 40F01E82 		bne	.L78
2448:DMP/driver/eMPL/inv_mpu.c ****         return -1;
2449:DMP/driver/eMPL/inv_mpu.c ****     delay_ms(15);
 1167              		.loc 1 2449 5 is_stmt 1 view .LVU362
 1168 00da 0F20     		movs	r0, #15
 1169 00dc FFF7FEFF 		bl	HAL_Delay
 1170              	.LVL70:
2450:DMP/driver/eMPL/inv_mpu.c ****     data[0] = st.test->reg_lpf;
 1171              		.loc 1 2450 5 view .LVU363
 1172              		.loc 1 2450 17 is_stmt 0 view .LVU364
 1173 00e0 434B     		ldr	r3, .L97
 1174 00e2 5A6B     		ldr	r2, [r3, #52]
 1175              		.loc 1 2450 22 view .LVU365
 1176 00e4 527A     		ldrb	r2, [r2, #9]	@ zero_extendqisi2
 1177              		.loc 1 2450 13 view .LVU366
 1178 00e6 8DF82020 		strb	r2, [sp, #32]
2451:DMP/driver/eMPL/inv_mpu.c ****     if (i2c_write(st.hw->addr, st.reg->lpf, 1, data))
 1179              		.loc 1 2451 5 is_stmt 1 view .LVU367
 1180              		.loc 1 2451 21 is_stmt 0 view .LVU368
 1181 00ea 5868     		ldr	r0, [r3, #4]
 1182              		.loc 1 2451 34 view .LVU369
 1183 00ec 1968     		ldr	r1, [r3]
 1184              		.loc 1 2451 9 view .LVU370
 1185 00ee 08AB     		add	r3, sp, #32
 1186 00f0 0122     		movs	r2, #1
 1187 00f2 8978     		ldrb	r1, [r1, #2]	@ zero_extendqisi2
 1188 00f4 0078     		ldrb	r0, [r0]	@ zero_extendqisi2
 1189 00f6 FFF7FEFF 		bl	MPU_Write_Len
 1190              	.LVL71:
 1191              		.loc 1 2451 8 view .LVU371
 1192 00fa 0028     		cmp	r0, #0
 1193 00fc 40F00E82 		bne	.L79
2452:DMP/driver/eMPL/inv_mpu.c ****         return -1;
2453:DMP/driver/eMPL/inv_mpu.c ****     data[0] = st.test->reg_rate_div;
ARM GAS  /var/folders/21/t9g5rlb91ys800n5npymflf80000gn/T//cclZ9YEQ.s 			page 67


 1194              		.loc 1 2453 5 is_stmt 1 view .LVU372
 1195              		.loc 1 2453 17 is_stmt 0 view .LVU373
 1196 0100 3B4B     		ldr	r3, .L97
 1197 0102 5A6B     		ldr	r2, [r3, #52]
 1198              		.loc 1 2453 22 view .LVU374
 1199 0104 127A     		ldrb	r2, [r2, #8]	@ zero_extendqisi2
 1200              		.loc 1 2453 13 view .LVU375
 1201 0106 8DF82020 		strb	r2, [sp, #32]
2454:DMP/driver/eMPL/inv_mpu.c ****     if (i2c_write(st.hw->addr, st.reg->rate_div, 1, data))
 1202              		.loc 1 2454 5 is_stmt 1 view .LVU376
 1203              		.loc 1 2454 21 is_stmt 0 view .LVU377
 1204 010a 5868     		ldr	r0, [r3, #4]
 1205              		.loc 1 2454 34 view .LVU378
 1206 010c 1968     		ldr	r1, [r3]
 1207              		.loc 1 2454 9 view .LVU379
 1208 010e 08AB     		add	r3, sp, #32
 1209 0110 0122     		movs	r2, #1
 1210 0112 4978     		ldrb	r1, [r1, #1]	@ zero_extendqisi2
 1211 0114 0078     		ldrb	r0, [r0]	@ zero_extendqisi2
 1212 0116 FFF7FEFF 		bl	MPU_Write_Len
 1213              	.LVL72:
 1214              		.loc 1 2454 8 view .LVU380
 1215 011a 0028     		cmp	r0, #0
 1216 011c 40F00182 		bne	.L80
2455:DMP/driver/eMPL/inv_mpu.c ****         return -1;
2456:DMP/driver/eMPL/inv_mpu.c ****     if (hw_test)
 1217              		.loc 1 2456 5 is_stmt 1 view .LVU381
 1218              		.loc 1 2456 8 is_stmt 0 view .LVU382
 1219 0120 BAF1000F 		cmp	r10, #0
 1220 0124 55D0     		beq	.L56
2457:DMP/driver/eMPL/inv_mpu.c ****         data[0] = st.test->reg_gyro_fsr | 0xE0;
 1221              		.loc 1 2457 9 is_stmt 1 view .LVU383
 1222              		.loc 1 2457 21 is_stmt 0 view .LVU384
 1223 0126 324B     		ldr	r3, .L97
 1224 0128 5B6B     		ldr	r3, [r3, #52]
 1225              		.loc 1 2457 26 view .LVU385
 1226 012a 9B7A     		ldrb	r3, [r3, #10]	@ zero_extendqisi2
 1227              		.loc 1 2457 17 view .LVU386
 1228 012c 63F01F03 		orn	r3, r3, #31
 1229 0130 8DF82030 		strb	r3, [sp, #32]
 1230              	.L57:
2458:DMP/driver/eMPL/inv_mpu.c ****     else
2459:DMP/driver/eMPL/inv_mpu.c ****         data[0] = st.test->reg_gyro_fsr;
2460:DMP/driver/eMPL/inv_mpu.c ****     if (i2c_write(st.hw->addr, st.reg->gyro_cfg, 1, data))
 1231              		.loc 1 2460 5 is_stmt 1 view .LVU387
 1232              		.loc 1 2460 21 is_stmt 0 view .LVU388
 1233 0134 2E4B     		ldr	r3, .L97
 1234 0136 5868     		ldr	r0, [r3, #4]
 1235              		.loc 1 2460 34 view .LVU389
 1236 0138 1968     		ldr	r1, [r3]
 1237              		.loc 1 2460 9 view .LVU390
 1238 013a 08AB     		add	r3, sp, #32
 1239 013c 0122     		movs	r2, #1
 1240 013e 8979     		ldrb	r1, [r1, #6]	@ zero_extendqisi2
 1241 0140 0078     		ldrb	r0, [r0]	@ zero_extendqisi2
 1242 0142 FFF7FEFF 		bl	MPU_Write_Len
 1243              	.LVL73:
ARM GAS  /var/folders/21/t9g5rlb91ys800n5npymflf80000gn/T//cclZ9YEQ.s 			page 68


 1244              		.loc 1 2460 8 view .LVU391
 1245 0146 0028     		cmp	r0, #0
 1246 0148 40F0EE81 		bne	.L81
2461:DMP/driver/eMPL/inv_mpu.c ****         return -1;
2462:DMP/driver/eMPL/inv_mpu.c **** 
2463:DMP/driver/eMPL/inv_mpu.c ****     if (hw_test)
 1247              		.loc 1 2463 5 is_stmt 1 view .LVU392
 1248              		.loc 1 2463 8 is_stmt 0 view .LVU393
 1249 014c BAF1000F 		cmp	r10, #0
 1250 0150 45D0     		beq	.L58
2464:DMP/driver/eMPL/inv_mpu.c ****         data[0] = st.test->reg_accel_fsr | 0xE0;
 1251              		.loc 1 2464 9 is_stmt 1 view .LVU394
 1252              		.loc 1 2464 21 is_stmt 0 view .LVU395
 1253 0152 274B     		ldr	r3, .L97
 1254 0154 5B6B     		ldr	r3, [r3, #52]
 1255              		.loc 1 2464 26 view .LVU396
 1256 0156 DB7A     		ldrb	r3, [r3, #11]	@ zero_extendqisi2
 1257              		.loc 1 2464 17 view .LVU397
 1258 0158 63F01F03 		orn	r3, r3, #31
 1259 015c 8DF82030 		strb	r3, [sp, #32]
 1260              	.L59:
2465:DMP/driver/eMPL/inv_mpu.c ****     else
2466:DMP/driver/eMPL/inv_mpu.c ****         data[0] = test.reg_accel_fsr;
2467:DMP/driver/eMPL/inv_mpu.c ****     if (i2c_write(st.hw->addr, st.reg->accel_cfg, 1, data))
 1261              		.loc 1 2467 5 is_stmt 1 view .LVU398
 1262              		.loc 1 2467 21 is_stmt 0 view .LVU399
 1263 0160 234B     		ldr	r3, .L97
 1264 0162 5868     		ldr	r0, [r3, #4]
 1265              		.loc 1 2467 34 view .LVU400
 1266 0164 1968     		ldr	r1, [r3]
 1267              		.loc 1 2467 9 view .LVU401
 1268 0166 08AB     		add	r3, sp, #32
 1269 0168 0122     		movs	r2, #1
 1270 016a C979     		ldrb	r1, [r1, #7]	@ zero_extendqisi2
 1271 016c 0078     		ldrb	r0, [r0]	@ zero_extendqisi2
 1272 016e FFF7FEFF 		bl	MPU_Write_Len
 1273              	.LVL74:
 1274              		.loc 1 2467 8 view .LVU402
 1275 0172 0028     		cmp	r0, #0
 1276 0174 40F0DB81 		bne	.L82
2468:DMP/driver/eMPL/inv_mpu.c ****         return -1;
2469:DMP/driver/eMPL/inv_mpu.c **** 
2470:DMP/driver/eMPL/inv_mpu.c ****     delay_ms(test.wait_ms);  //wait 200ms for sensors to stabilize
 1277              		.loc 1 2470 5 is_stmt 1 view .LVU403
 1278 0178 C820     		movs	r0, #200
 1279 017a FFF7FEFF 		bl	HAL_Delay
 1280              	.LVL75:
2471:DMP/driver/eMPL/inv_mpu.c **** 
2472:DMP/driver/eMPL/inv_mpu.c ****     /* Enable FIFO */
2473:DMP/driver/eMPL/inv_mpu.c ****     data[0] = BIT_FIFO_EN;
 1281              		.loc 1 2473 5 view .LVU404
 1282              		.loc 1 2473 13 is_stmt 0 view .LVU405
 1283 017e 4023     		movs	r3, #64
 1284 0180 8DF82030 		strb	r3, [sp, #32]
2474:DMP/driver/eMPL/inv_mpu.c ****     if (i2c_write(st.hw->addr, st.reg->user_ctrl, 1, data))
 1285              		.loc 1 2474 5 is_stmt 1 view .LVU406
 1286              		.loc 1 2474 21 is_stmt 0 view .LVU407
ARM GAS  /var/folders/21/t9g5rlb91ys800n5npymflf80000gn/T//cclZ9YEQ.s 			page 69


 1287 0184 1A4B     		ldr	r3, .L97
 1288 0186 5868     		ldr	r0, [r3, #4]
 1289              		.loc 1 2474 34 view .LVU408
 1290 0188 1968     		ldr	r1, [r3]
 1291              		.loc 1 2474 9 view .LVU409
 1292 018a 08AB     		add	r3, sp, #32
 1293 018c 0122     		movs	r2, #1
 1294 018e 0979     		ldrb	r1, [r1, #4]	@ zero_extendqisi2
 1295 0190 0078     		ldrb	r0, [r0]	@ zero_extendqisi2
 1296 0192 FFF7FEFF 		bl	MPU_Write_Len
 1297              	.LVL76:
 1298              		.loc 1 2474 8 view .LVU410
 1299 0196 0028     		cmp	r0, #0
 1300 0198 40F0CC81 		bne	.L83
2475:DMP/driver/eMPL/inv_mpu.c ****         return -1;
2476:DMP/driver/eMPL/inv_mpu.c ****     data[0] = INV_XYZ_GYRO | INV_XYZ_ACCEL;
 1301              		.loc 1 2476 5 is_stmt 1 view .LVU411
 1302              		.loc 1 2476 13 is_stmt 0 view .LVU412
 1303 019c 7823     		movs	r3, #120
 1304 019e 8DF82030 		strb	r3, [sp, #32]
2477:DMP/driver/eMPL/inv_mpu.c ****     if (i2c_write(st.hw->addr, st.reg->fifo_en, 1, data))
 1305              		.loc 1 2477 5 is_stmt 1 view .LVU413
 1306              		.loc 1 2477 21 is_stmt 0 view .LVU414
 1307 01a2 134B     		ldr	r3, .L97
 1308 01a4 5868     		ldr	r0, [r3, #4]
 1309              		.loc 1 2477 34 view .LVU415
 1310 01a6 1968     		ldr	r1, [r3]
 1311              		.loc 1 2477 9 view .LVU416
 1312 01a8 08AB     		add	r3, sp, #32
 1313 01aa 0122     		movs	r2, #1
 1314 01ac 4979     		ldrb	r1, [r1, #5]	@ zero_extendqisi2
 1315 01ae 0078     		ldrb	r0, [r0]	@ zero_extendqisi2
 1316 01b0 FFF7FEFF 		bl	MPU_Write_Len
 1317              	.LVL77:
 1318              		.loc 1 2477 8 view .LVU417
 1319 01b4 0028     		cmp	r0, #0
 1320 01b6 40F0C081 		bne	.L84
2478:DMP/driver/eMPL/inv_mpu.c ****         return -1;
2479:DMP/driver/eMPL/inv_mpu.c **** 
2480:DMP/driver/eMPL/inv_mpu.c ****     //initialize the bias return values
2481:DMP/driver/eMPL/inv_mpu.c ****     gyro[0] = gyro[1] = gyro[2] = 0;
 1321              		.loc 1 2481 5 is_stmt 1 view .LVU418
 1322              		.loc 1 2481 33 is_stmt 0 view .LVU419
 1323 01ba 0023     		movs	r3, #0
 1324 01bc AB60     		str	r3, [r5, #8]
 1325              		.loc 1 2481 23 view .LVU420
 1326 01be 6B60     		str	r3, [r5, #4]
 1327              		.loc 1 2481 13 view .LVU421
 1328 01c0 2B60     		str	r3, [r5]
2482:DMP/driver/eMPL/inv_mpu.c ****     accel[0] = accel[1] = accel[2] = 0;
 1329              		.loc 1 2482 5 is_stmt 1 view .LVU422
 1330              		.loc 1 2482 36 is_stmt 0 view .LVU423
 1331 01c2 A360     		str	r3, [r4, #8]
 1332              		.loc 1 2482 25 view .LVU424
 1333 01c4 6360     		str	r3, [r4, #4]
 1334              		.loc 1 2482 14 view .LVU425
 1335 01c6 2360     		str	r3, [r4]
ARM GAS  /var/folders/21/t9g5rlb91ys800n5npymflf80000gn/T//cclZ9YEQ.s 			page 70


2483:DMP/driver/eMPL/inv_mpu.c **** 
2484:DMP/driver/eMPL/inv_mpu.c ****     if(debug)
 1336              		.loc 1 2484 5 is_stmt 1 view .LVU426
 1337              		.loc 1 2484 7 is_stmt 0 view .LVU427
 1338 01c8 B9F1000F 		cmp	r9, #0
 1339 01cc 0BD1     		bne	.L90
 1340              	.L60:
2485:DMP/driver/eMPL/inv_mpu.c ****     	log_i("Starting Bias Loop Reads\n");
2486:DMP/driver/eMPL/inv_mpu.c **** 
2487:DMP/driver/eMPL/inv_mpu.c ****     //start reading samples
2488:DMP/driver/eMPL/inv_mpu.c ****     while (s < test.packet_thresh) {
2489:DMP/driver/eMPL/inv_mpu.c ****     	delay_ms(test.sample_wait_ms); //wait 10ms to fill FIFO
2490:DMP/driver/eMPL/inv_mpu.c **** 		if (i2c_read(st.hw->addr, st.reg->fifo_count_h, 2, data))
2491:DMP/driver/eMPL/inv_mpu.c **** 			return -1;
2492:DMP/driver/eMPL/inv_mpu.c **** 		fifo_count = (data[0] << 8) | data[1];
2493:DMP/driver/eMPL/inv_mpu.c **** 		packet_count = fifo_count / MAX_PACKET_LENGTH;
2494:DMP/driver/eMPL/inv_mpu.c **** 		if ((test.packet_thresh - s) < packet_count)
2495:DMP/driver/eMPL/inv_mpu.c **** 		            packet_count = test.packet_thresh - s;
2496:DMP/driver/eMPL/inv_mpu.c **** 		read_size = packet_count * MAX_PACKET_LENGTH;
2497:DMP/driver/eMPL/inv_mpu.c **** 
2498:DMP/driver/eMPL/inv_mpu.c **** 		//burst read from FIFO
2499:DMP/driver/eMPL/inv_mpu.c **** 		if (i2c_read(st.hw->addr, st.reg->fifo_r_w, read_size, data))
2500:DMP/driver/eMPL/inv_mpu.c **** 						return -1;
2501:DMP/driver/eMPL/inv_mpu.c **** 		ind = 0;
 1341              		.loc 1 2501 7 view .LVU428
 1342 01ce 0027     		movs	r7, #0
 1343 01d0 72E0     		b	.L64
 1344              	.L56:
2459:DMP/driver/eMPL/inv_mpu.c ****     if (i2c_write(st.hw->addr, st.reg->gyro_cfg, 1, data))
 1345              		.loc 1 2459 9 is_stmt 1 view .LVU429
2459:DMP/driver/eMPL/inv_mpu.c ****     if (i2c_write(st.hw->addr, st.reg->gyro_cfg, 1, data))
 1346              		.loc 1 2459 21 is_stmt 0 view .LVU430
 1347 01d2 074B     		ldr	r3, .L97
 1348 01d4 5B6B     		ldr	r3, [r3, #52]
2459:DMP/driver/eMPL/inv_mpu.c ****     if (i2c_write(st.hw->addr, st.reg->gyro_cfg, 1, data))
 1349              		.loc 1 2459 26 view .LVU431
 1350 01d6 9B7A     		ldrb	r3, [r3, #10]	@ zero_extendqisi2
2459:DMP/driver/eMPL/inv_mpu.c ****     if (i2c_write(st.hw->addr, st.reg->gyro_cfg, 1, data))
 1351              		.loc 1 2459 17 view .LVU432
 1352 01d8 8DF82030 		strb	r3, [sp, #32]
 1353 01dc AAE7     		b	.L57
 1354              	.L58:
2466:DMP/driver/eMPL/inv_mpu.c ****     if (i2c_write(st.hw->addr, st.reg->accel_cfg, 1, data))
 1355              		.loc 1 2466 9 is_stmt 1 view .LVU433
2466:DMP/driver/eMPL/inv_mpu.c ****     if (i2c_write(st.hw->addr, st.reg->accel_cfg, 1, data))
 1356              		.loc 1 2466 17 is_stmt 0 view .LVU434
 1357 01de 0023     		movs	r3, #0
 1358 01e0 8DF82030 		strb	r3, [sp, #32]
 1359 01e4 BCE7     		b	.L59
 1360              	.L90:
2485:DMP/driver/eMPL/inv_mpu.c ****     	log_i("Starting Bias Loop Reads\n");
 1361              		.loc 1 2485 6 is_stmt 1 view .LVU435
 1362 01e6 0348     		ldr	r0, .L97+4
 1363 01e8 FFF7FEFF 		bl	puts
 1364              	.LVL78:
 1365 01ec EFE7     		b	.L60
 1366              	.L98:
ARM GAS  /var/folders/21/t9g5rlb91ys800n5npymflf80000gn/T//cclZ9YEQ.s 			page 71


 1367 01ee 00BF     		.align	2
 1368              	.L97:
 1369 01f0 00000000 		.word	st
 1370 01f4 00000000 		.word	.LC0
 1371              	.LVL79:
 1372              	.L63:
 1373              	.LBB4:
2502:DMP/driver/eMPL/inv_mpu.c **** 		for (ii = 0; ii < packet_count; ii++) {
2503:DMP/driver/eMPL/inv_mpu.c **** 			short accel_cur[3], gyro_cur[3];
 1374              		.loc 1 2503 4 discriminator 3 view .LVU436
2504:DMP/driver/eMPL/inv_mpu.c **** 			accel_cur[0] = ((short)data[ind + 0] << 8) | data[ind + 1];
 1375              		.loc 1 2504 4 discriminator 3 view .LVU437
 1376              		.loc 1 2504 31 is_stmt 0 discriminator 3 view .LVU438
 1377 01f8 08AB     		add	r3, sp, #32
 1378 01fa 13F80C20 		ldrb	r2, [r3, ip]	@ zero_extendqisi2
 1379              		.loc 1 2504 58 discriminator 3 view .LVU439
 1380 01fe 0CF10101 		add	r1, ip, #1
 1381              		.loc 1 2504 53 discriminator 3 view .LVU440
 1382 0202 595C     		ldrb	r1, [r3, r1]	@ zero_extendqisi2
 1383              		.loc 1 2504 47 discriminator 3 view .LVU441
 1384 0204 41EA0221 		orr	r1, r1, r2, lsl #8
 1385 0208 09B2     		sxth	r1, r1
 1386              		.loc 1 2504 17 discriminator 3 view .LVU442
 1387 020a ADF81010 		strh	r1, [sp, #16]	@ movhi
2505:DMP/driver/eMPL/inv_mpu.c **** 			accel_cur[1] = ((short)data[ind + 2] << 8) | data[ind + 3];
 1388              		.loc 1 2505 4 is_stmt 1 discriminator 3 view .LVU443
 1389              		.loc 1 2505 36 is_stmt 0 discriminator 3 view .LVU444
 1390 020e 0CF10202 		add	r2, ip, #2
 1391              		.loc 1 2505 31 discriminator 3 view .LVU445
 1392 0212 985C     		ldrb	r0, [r3, r2]	@ zero_extendqisi2
 1393              		.loc 1 2505 58 discriminator 3 view .LVU446
 1394 0214 0CF10302 		add	r2, ip, #3
 1395              		.loc 1 2505 53 discriminator 3 view .LVU447
 1396 0218 9A5C     		ldrb	r2, [r3, r2]	@ zero_extendqisi2
 1397              		.loc 1 2505 47 discriminator 3 view .LVU448
 1398 021a 42EA0022 		orr	r2, r2, r0, lsl #8
 1399 021e 12B2     		sxth	r2, r2
 1400              		.loc 1 2505 17 discriminator 3 view .LVU449
 1401 0220 ADF81220 		strh	r2, [sp, #18]	@ movhi
2506:DMP/driver/eMPL/inv_mpu.c **** 			accel_cur[2] = ((short)data[ind + 4] << 8) | data[ind + 5];
 1402              		.loc 1 2506 4 is_stmt 1 discriminator 3 view .LVU450
 1403              		.loc 1 2506 36 is_stmt 0 discriminator 3 view .LVU451
 1404 0224 0CF10400 		add	r0, ip, #4
 1405              		.loc 1 2506 31 discriminator 3 view .LVU452
 1406 0228 185C     		ldrb	r0, [r3, r0]	@ zero_extendqisi2
 1407              		.loc 1 2506 58 discriminator 3 view .LVU453
 1408 022a 0CF1050B 		add	fp, ip, #5
 1409              		.loc 1 2506 53 discriminator 3 view .LVU454
 1410 022e 13F80BB0 		ldrb	fp, [r3, fp]	@ zero_extendqisi2
 1411              		.loc 1 2506 47 discriminator 3 view .LVU455
 1412 0232 4BEA002B 		orr	fp, fp, r0, lsl #8
 1413 0236 0FFA8BFB 		sxth	fp, fp
 1414              		.loc 1 2506 17 discriminator 3 view .LVU456
 1415 023a ADF814B0 		strh	fp, [sp, #20]	@ movhi
2507:DMP/driver/eMPL/inv_mpu.c **** 			accel[0] += (long)accel_cur[0];
 1416              		.loc 1 2507 4 is_stmt 1 discriminator 3 view .LVU457
 1417              		.loc 1 2507 9 is_stmt 0 discriminator 3 view .LVU458
ARM GAS  /var/folders/21/t9g5rlb91ys800n5npymflf80000gn/T//cclZ9YEQ.s 			page 72


 1418 023e 2068     		ldr	r0, [r4]
 1419              		.loc 1 2507 13 discriminator 3 view .LVU459
 1420 0240 0844     		add	r0, r0, r1
 1421 0242 2060     		str	r0, [r4]
2508:DMP/driver/eMPL/inv_mpu.c **** 			accel[1] += (long)accel_cur[1];
 1422              		.loc 1 2508 4 is_stmt 1 discriminator 3 view .LVU460
 1423              		.loc 1 2508 9 is_stmt 0 discriminator 3 view .LVU461
 1424 0244 6168     		ldr	r1, [r4, #4]
 1425              		.loc 1 2508 13 discriminator 3 view .LVU462
 1426 0246 1144     		add	r1, r1, r2
 1427 0248 6160     		str	r1, [r4, #4]
2509:DMP/driver/eMPL/inv_mpu.c **** 			accel[2] += (long)accel_cur[2];
 1428              		.loc 1 2509 4 is_stmt 1 discriminator 3 view .LVU463
 1429              		.loc 1 2509 9 is_stmt 0 discriminator 3 view .LVU464
 1430 024a A268     		ldr	r2, [r4, #8]
 1431              		.loc 1 2509 13 discriminator 3 view .LVU465
 1432 024c 5A44     		add	r2, r2, fp
 1433 024e A260     		str	r2, [r4, #8]
2510:DMP/driver/eMPL/inv_mpu.c **** 			gyro_cur[0] = (((short)data[ind + 6] << 8) | data[ind + 7]);
 1434              		.loc 1 2510 4 is_stmt 1 discriminator 3 view .LVU466
 1435              		.loc 1 2510 36 is_stmt 0 discriminator 3 view .LVU467
 1436 0250 0CF10602 		add	r2, ip, #6
 1437              		.loc 1 2510 31 discriminator 3 view .LVU468
 1438 0254 9A5C     		ldrb	r2, [r3, r2]	@ zero_extendqisi2
 1439              		.loc 1 2510 58 discriminator 3 view .LVU469
 1440 0256 0CF10701 		add	r1, ip, #7
 1441              		.loc 1 2510 53 discriminator 3 view .LVU470
 1442 025a 585C     		ldrb	r0, [r3, r1]	@ zero_extendqisi2
 1443              		.loc 1 2510 47 discriminator 3 view .LVU471
 1444 025c 40EA0220 		orr	r0, r0, r2, lsl #8
 1445 0260 00B2     		sxth	r0, r0
 1446              		.loc 1 2510 16 discriminator 3 view .LVU472
 1447 0262 ADF81800 		strh	r0, [sp, #24]	@ movhi
2511:DMP/driver/eMPL/inv_mpu.c **** 			gyro_cur[1] = (((short)data[ind + 8] << 8) | data[ind + 9]);
 1448              		.loc 1 2511 4 is_stmt 1 discriminator 3 view .LVU473
 1449              		.loc 1 2511 36 is_stmt 0 discriminator 3 view .LVU474
 1450 0266 0CF10802 		add	r2, ip, #8
 1451              		.loc 1 2511 31 discriminator 3 view .LVU475
 1452 026a 995C     		ldrb	r1, [r3, r2]	@ zero_extendqisi2
 1453              		.loc 1 2511 58 discriminator 3 view .LVU476
 1454 026c 0CF10902 		add	r2, ip, #9
 1455              		.loc 1 2511 53 discriminator 3 view .LVU477
 1456 0270 9A5C     		ldrb	r2, [r3, r2]	@ zero_extendqisi2
 1457              		.loc 1 2511 47 discriminator 3 view .LVU478
 1458 0272 42EA0122 		orr	r2, r2, r1, lsl #8
 1459 0276 12B2     		sxth	r2, r2
 1460              		.loc 1 2511 16 discriminator 3 view .LVU479
 1461 0278 ADF81A20 		strh	r2, [sp, #26]	@ movhi
2512:DMP/driver/eMPL/inv_mpu.c **** 			gyro_cur[2] = (((short)data[ind + 10] << 8) | data[ind + 11]);
 1462              		.loc 1 2512 4 is_stmt 1 discriminator 3 view .LVU480
 1463              		.loc 1 2512 36 is_stmt 0 discriminator 3 view .LVU481
 1464 027c 0CF10A01 		add	r1, ip, #10
 1465              		.loc 1 2512 31 discriminator 3 view .LVU482
 1466 0280 595C     		ldrb	r1, [r3, r1]	@ zero_extendqisi2
 1467              		.loc 1 2512 59 discriminator 3 view .LVU483
 1468 0282 0CF10B0B 		add	fp, ip, #11
 1469              		.loc 1 2512 54 discriminator 3 view .LVU484
ARM GAS  /var/folders/21/t9g5rlb91ys800n5npymflf80000gn/T//cclZ9YEQ.s 			page 73


 1470 0286 13F80B30 		ldrb	r3, [r3, fp]	@ zero_extendqisi2
 1471              		.loc 1 2512 48 discriminator 3 view .LVU485
 1472 028a 43EA0123 		orr	r3, r3, r1, lsl #8
 1473 028e 1BB2     		sxth	r3, r3
 1474              		.loc 1 2512 16 discriminator 3 view .LVU486
 1475 0290 ADF81C30 		strh	r3, [sp, #28]	@ movhi
2513:DMP/driver/eMPL/inv_mpu.c **** 			gyro[0] += (long)gyro_cur[0];
 1476              		.loc 1 2513 4 is_stmt 1 discriminator 3 view .LVU487
 1477              		.loc 1 2513 8 is_stmt 0 discriminator 3 view .LVU488
 1478 0294 2968     		ldr	r1, [r5]
 1479              		.loc 1 2513 12 discriminator 3 view .LVU489
 1480 0296 0144     		add	r1, r1, r0
 1481 0298 2960     		str	r1, [r5]
2514:DMP/driver/eMPL/inv_mpu.c **** 			gyro[1] += (long)gyro_cur[1];
 1482              		.loc 1 2514 4 is_stmt 1 discriminator 3 view .LVU490
 1483              		.loc 1 2514 8 is_stmt 0 discriminator 3 view .LVU491
 1484 029a 6968     		ldr	r1, [r5, #4]
 1485              		.loc 1 2514 12 discriminator 3 view .LVU492
 1486 029c 1144     		add	r1, r1, r2
 1487 029e 6960     		str	r1, [r5, #4]
2515:DMP/driver/eMPL/inv_mpu.c **** 			gyro[2] += (long)gyro_cur[2];
 1488              		.loc 1 2515 4 is_stmt 1 discriminator 3 view .LVU493
 1489              		.loc 1 2515 8 is_stmt 0 discriminator 3 view .LVU494
 1490 02a0 AA68     		ldr	r2, [r5, #8]
 1491              		.loc 1 2515 12 discriminator 3 view .LVU495
 1492 02a2 1A44     		add	r2, r2, r3
 1493 02a4 AA60     		str	r2, [r5, #8]
2516:DMP/driver/eMPL/inv_mpu.c **** 			ind += MAX_PACKET_LENGTH;
 1494              		.loc 1 2516 4 is_stmt 1 discriminator 3 view .LVU496
 1495              		.loc 1 2516 8 is_stmt 0 discriminator 3 view .LVU497
 1496 02a6 0CF10C0C 		add	ip, ip, #12
 1497              	.LVL80:
 1498              		.loc 1 2516 8 discriminator 3 view .LVU498
 1499              	.LBE4:
2502:DMP/driver/eMPL/inv_mpu.c **** 			short accel_cur[3], gyro_cur[3];
 1500              		.loc 1 2502 37 is_stmt 1 discriminator 3 view .LVU499
 1501 02aa 0EF1010E 		add	lr, lr, #1
 1502              	.LVL81:
2502:DMP/driver/eMPL/inv_mpu.c **** 			short accel_cur[3], gyro_cur[3];
 1503              		.loc 1 2502 37 is_stmt 0 discriminator 3 view .LVU500
 1504 02ae 5FFA8EFE 		uxtb	lr, lr
 1505              	.LVL82:
 1506              	.L62:
2502:DMP/driver/eMPL/inv_mpu.c **** 			short accel_cur[3], gyro_cur[3];
 1507              		.loc 1 2502 19 is_stmt 1 discriminator 1 view .LVU501
 1508 02b2 7645     		cmp	r6, lr
 1509 02b4 A0D8     		bhi	.L63
2517:DMP/driver/eMPL/inv_mpu.c **** 		}
2518:DMP/driver/eMPL/inv_mpu.c **** 		s += packet_count;
 1510              		.loc 1 2518 3 view .LVU502
 1511              		.loc 1 2518 5 is_stmt 0 view .LVU503
 1512 02b6 4744     		add	r7, r7, r8
 1513              	.LVL83:
 1514              	.L64:
2488:DMP/driver/eMPL/inv_mpu.c ****     	delay_ms(test.sample_wait_ms); //wait 10ms to fill FIFO
 1515              		.loc 1 2488 14 is_stmt 1 view .LVU504
 1516 02b8 C72F     		cmp	r7, #199
ARM GAS  /var/folders/21/t9g5rlb91ys800n5npymflf80000gn/T//cclZ9YEQ.s 			page 74


 1517 02ba 36DC     		bgt	.L91
2489:DMP/driver/eMPL/inv_mpu.c **** 		if (i2c_read(st.hw->addr, st.reg->fifo_count_h, 2, data))
 1518              		.loc 1 2489 6 view .LVU505
 1519 02bc 0A20     		movs	r0, #10
 1520 02be FFF7FEFF 		bl	HAL_Delay
 1521              	.LVL84:
2490:DMP/driver/eMPL/inv_mpu.c **** 			return -1;
 1522              		.loc 1 2490 3 view .LVU506
2490:DMP/driver/eMPL/inv_mpu.c **** 			return -1;
 1523              		.loc 1 2490 18 is_stmt 0 view .LVU507
 1524 02c2 A64B     		ldr	r3, .L99
 1525 02c4 5868     		ldr	r0, [r3, #4]
2490:DMP/driver/eMPL/inv_mpu.c **** 			return -1;
 1526              		.loc 1 2490 31 view .LVU508
 1527 02c6 1968     		ldr	r1, [r3]
2490:DMP/driver/eMPL/inv_mpu.c **** 			return -1;
 1528              		.loc 1 2490 7 view .LVU509
 1529 02c8 08AB     		add	r3, sp, #32
 1530 02ca 0222     		movs	r2, #2
 1531 02cc 097B     		ldrb	r1, [r1, #12]	@ zero_extendqisi2
 1532 02ce 0078     		ldrb	r0, [r0]	@ zero_extendqisi2
 1533 02d0 FFF7FEFF 		bl	MPU_Read_Len
 1534              	.LVL85:
2490:DMP/driver/eMPL/inv_mpu.c **** 			return -1;
 1535              		.loc 1 2490 6 view .LVU510
 1536 02d4 0028     		cmp	r0, #0
 1537 02d6 40F03381 		bne	.L85
2492:DMP/driver/eMPL/inv_mpu.c **** 		packet_count = fifo_count / MAX_PACKET_LENGTH;
 1538              		.loc 1 2492 3 is_stmt 1 view .LVU511
2492:DMP/driver/eMPL/inv_mpu.c **** 		packet_count = fifo_count / MAX_PACKET_LENGTH;
 1539              		.loc 1 2492 21 is_stmt 0 view .LVU512
 1540 02da 9DF82030 		ldrb	r3, [sp, #32]	@ zero_extendqisi2
2492:DMP/driver/eMPL/inv_mpu.c **** 		packet_count = fifo_count / MAX_PACKET_LENGTH;
 1541              		.loc 1 2492 37 view .LVU513
 1542 02de 9DF82160 		ldrb	r6, [sp, #33]	@ zero_extendqisi2
2492:DMP/driver/eMPL/inv_mpu.c **** 		packet_count = fifo_count / MAX_PACKET_LENGTH;
 1543              		.loc 1 2492 14 view .LVU514
 1544 02e2 46EA0326 		orr	r6, r6, r3, lsl #8
 1545              	.LVL86:
2493:DMP/driver/eMPL/inv_mpu.c **** 		if ((test.packet_thresh - s) < packet_count)
 1546              		.loc 1 2493 3 is_stmt 1 view .LVU515
2493:DMP/driver/eMPL/inv_mpu.c **** 		if ((test.packet_thresh - s) < packet_count)
 1547              		.loc 1 2493 16 is_stmt 0 view .LVU516
 1548 02e6 9E4B     		ldr	r3, .L99+4
 1549 02e8 A3FB0636 		umull	r3, r6, r3, r6
 1550              	.LVL87:
2493:DMP/driver/eMPL/inv_mpu.c **** 		if ((test.packet_thresh - s) < packet_count)
 1551              		.loc 1 2493 16 view .LVU517
 1552 02ec C6F3C706 		ubfx	r6, r6, #3, #8
 1553              	.LVL88:
2494:DMP/driver/eMPL/inv_mpu.c **** 		            packet_count = test.packet_thresh - s;
 1554              		.loc 1 2494 3 is_stmt 1 view .LVU518
2494:DMP/driver/eMPL/inv_mpu.c **** 		            packet_count = test.packet_thresh - s;
 1555              		.loc 1 2494 27 is_stmt 0 view .LVU519
 1556 02f0 C7F1C803 		rsb	r3, r7, #200
2494:DMP/driver/eMPL/inv_mpu.c **** 		            packet_count = test.packet_thresh - s;
 1557              		.loc 1 2494 6 view .LVU520
ARM GAS  /var/folders/21/t9g5rlb91ys800n5npymflf80000gn/T//cclZ9YEQ.s 			page 75


 1558 02f4 B342     		cmp	r3, r6
 1559 02f6 03DA     		bge	.L61
2495:DMP/driver/eMPL/inv_mpu.c **** 		read_size = packet_count * MAX_PACKET_LENGTH;
 1560              		.loc 1 2495 15 is_stmt 1 view .LVU521
2495:DMP/driver/eMPL/inv_mpu.c **** 		read_size = packet_count * MAX_PACKET_LENGTH;
 1561              		.loc 1 2495 49 is_stmt 0 view .LVU522
 1562 02f8 FEB2     		uxtb	r6, r7
 1563              	.LVL89:
2495:DMP/driver/eMPL/inv_mpu.c **** 		read_size = packet_count * MAX_PACKET_LENGTH;
 1564              		.loc 1 2495 28 view .LVU523
 1565 02fa C6F1C806 		rsb	r6, r6, #200
 1566 02fe F6B2     		uxtb	r6, r6
 1567              	.LVL90:
 1568              	.L61:
2496:DMP/driver/eMPL/inv_mpu.c **** 
 1569              		.loc 1 2496 3 is_stmt 1 view .LVU524
2496:DMP/driver/eMPL/inv_mpu.c **** 
 1570              		.loc 1 2496 28 is_stmt 0 view .LVU525
 1571 0300 B046     		mov	r8, r6
2496:DMP/driver/eMPL/inv_mpu.c **** 
 1572              		.loc 1 2496 13 view .LVU526
 1573 0302 06EB4602 		add	r2, r6, r6, lsl #1
 1574 0306 9200     		lsls	r2, r2, #2
 1575              	.LVL91:
2499:DMP/driver/eMPL/inv_mpu.c **** 						return -1;
 1576              		.loc 1 2499 3 is_stmt 1 view .LVU527
2499:DMP/driver/eMPL/inv_mpu.c **** 						return -1;
 1577              		.loc 1 2499 18 is_stmt 0 view .LVU528
 1578 0308 944B     		ldr	r3, .L99
 1579 030a 5868     		ldr	r0, [r3, #4]
2499:DMP/driver/eMPL/inv_mpu.c **** 						return -1;
 1580              		.loc 1 2499 31 view .LVU529
 1581 030c 1968     		ldr	r1, [r3]
2499:DMP/driver/eMPL/inv_mpu.c **** 						return -1;
 1582              		.loc 1 2499 7 view .LVU530
 1583 030e 08AB     		add	r3, sp, #32
 1584              	.LVL92:
2499:DMP/driver/eMPL/inv_mpu.c **** 						return -1;
 1585              		.loc 1 2499 7 view .LVU531
 1586 0310 02F0FC02 		and	r2, r2, #252
 1587              	.LVL93:
2499:DMP/driver/eMPL/inv_mpu.c **** 						return -1;
 1588              		.loc 1 2499 7 view .LVU532
 1589 0314 497B     		ldrb	r1, [r1, #13]	@ zero_extendqisi2
 1590 0316 0078     		ldrb	r0, [r0]	@ zero_extendqisi2
 1591 0318 FFF7FEFF 		bl	MPU_Read_Len
 1592              	.LVL94:
2499:DMP/driver/eMPL/inv_mpu.c **** 						return -1;
 1593              		.loc 1 2499 6 view .LVU533
 1594 031c 8646     		mov	lr, r0
 1595 031e 0028     		cmp	r0, #0
 1596 0320 40F01681 		bne	.L86
2501:DMP/driver/eMPL/inv_mpu.c **** 		for (ii = 0; ii < packet_count; ii++) {
 1597              		.loc 1 2501 7 view .LVU534
 1598 0324 4FF0000C 		mov	ip, #0
 1599 0328 C3E7     		b	.L62
 1600              	.LVL95:
ARM GAS  /var/folders/21/t9g5rlb91ys800n5npymflf80000gn/T//cclZ9YEQ.s 			page 76


 1601              	.L91:
2519:DMP/driver/eMPL/inv_mpu.c ****     }
2520:DMP/driver/eMPL/inv_mpu.c **** 
2521:DMP/driver/eMPL/inv_mpu.c ****     if(debug)
 1602              		.loc 1 2521 5 is_stmt 1 view .LVU535
 1603              		.loc 1 2521 7 is_stmt 0 view .LVU536
 1604 032a B9F1000F 		cmp	r9, #0
 1605 032e 6DD1     		bne	.L92
 1606              	.L66:
2522:DMP/driver/eMPL/inv_mpu.c ****     	log_i("Samples: %d\n", s);
2523:DMP/driver/eMPL/inv_mpu.c **** 
2524:DMP/driver/eMPL/inv_mpu.c ****     //stop FIFO
2525:DMP/driver/eMPL/inv_mpu.c ****     data[0] = 0;
 1607              		.loc 1 2525 5 is_stmt 1 view .LVU537
 1608              		.loc 1 2525 13 is_stmt 0 view .LVU538
 1609 0330 0023     		movs	r3, #0
 1610 0332 8DF82030 		strb	r3, [sp, #32]
2526:DMP/driver/eMPL/inv_mpu.c ****     if (i2c_write(st.hw->addr, st.reg->fifo_en, 1, data))
 1611              		.loc 1 2526 5 is_stmt 1 view .LVU539
 1612              		.loc 1 2526 21 is_stmt 0 view .LVU540
 1613 0336 894B     		ldr	r3, .L99
 1614 0338 5868     		ldr	r0, [r3, #4]
 1615              		.loc 1 2526 34 view .LVU541
 1616 033a 1968     		ldr	r1, [r3]
 1617              		.loc 1 2526 9 view .LVU542
 1618 033c 08AB     		add	r3, sp, #32
 1619 033e 0122     		movs	r2, #1
