ARM GAS  /var/folders/21/t9g5rlb91ys800n5npymflf80000gn/T//ccWnr5oL.s 			page 1


   1              		.cpu cortex-m4
   2              		.arch armv7e-m
   3              		.fpu fpv4-sp-d16
   4              		.eabi_attribute 27, 1
   5              		.eabi_attribute 28, 1
   6              		.eabi_attribute 20, 1
   7              		.eabi_attribute 21, 1
   8              		.eabi_attribute 23, 3
   9              		.eabi_attribute 24, 1
  10              		.eabi_attribute 25, 1
  11              		.eabi_attribute 26, 1
  12              		.eabi_attribute 30, 1
  13              		.eabi_attribute 34, 1
  14              		.eabi_attribute 18, 4
  15              		.file	"inv_mpu_dmp_motion_driver.c"
  16              		.text
  17              	.Ltext0:
  18              		.cfi_sections	.debug_frame
  19              		.file 1 "DMP/driver/eMPL/inv_mpu_dmp_motion_driver.c"
  20              		.section	.text.decode_gesture,"ax",%progbits
  21              		.align	1
  22              		.syntax unified
  23              		.thumb
  24              		.thumb_func
  26              	decode_gesture:
  27              	.LVL0:
  28              	.LFB185:
   1:DMP/driver/eMPL/inv_mpu_dmp_motion_driver.c **** /*
   2:DMP/driver/eMPL/inv_mpu_dmp_motion_driver.c ****  $License:
   3:DMP/driver/eMPL/inv_mpu_dmp_motion_driver.c ****     Copyright (C) 2011-2012 InvenSense Corporation, All Rights Reserved.
   4:DMP/driver/eMPL/inv_mpu_dmp_motion_driver.c ****     See included License.txt for License information.
   5:DMP/driver/eMPL/inv_mpu_dmp_motion_driver.c ****  $
   6:DMP/driver/eMPL/inv_mpu_dmp_motion_driver.c ****  */
   7:DMP/driver/eMPL/inv_mpu_dmp_motion_driver.c **** /**
   8:DMP/driver/eMPL/inv_mpu_dmp_motion_driver.c ****  *  @addtogroup  DRIVERS Sensor Driver Layer
   9:DMP/driver/eMPL/inv_mpu_dmp_motion_driver.c ****  *  @brief       Hardware drivers to communicate with sensors via I2C.
  10:DMP/driver/eMPL/inv_mpu_dmp_motion_driver.c ****  *
  11:DMP/driver/eMPL/inv_mpu_dmp_motion_driver.c ****  *  @{
  12:DMP/driver/eMPL/inv_mpu_dmp_motion_driver.c ****  *      @file       inv_mpu_dmp_motion_driver.c
  13:DMP/driver/eMPL/inv_mpu_dmp_motion_driver.c ****  *      @brief      DMP image and interface functions.
  14:DMP/driver/eMPL/inv_mpu_dmp_motion_driver.c ****  *      @details    All functions are preceded by the dmp_ prefix to
  15:DMP/driver/eMPL/inv_mpu_dmp_motion_driver.c ****  *                  differentiate among MPL and general driver function calls.
  16:DMP/driver/eMPL/inv_mpu_dmp_motion_driver.c ****  */
  17:DMP/driver/eMPL/inv_mpu_dmp_motion_driver.c **** #include <stdio.h>
  18:DMP/driver/eMPL/inv_mpu_dmp_motion_driver.c **** #include <stdint.h>
  19:DMP/driver/eMPL/inv_mpu_dmp_motion_driver.c **** #include <stdlib.h>
  20:DMP/driver/eMPL/inv_mpu_dmp_motion_driver.c **** #include <string.h>
  21:DMP/driver/eMPL/inv_mpu_dmp_motion_driver.c **** #include <math.h>
  22:DMP/driver/eMPL/inv_mpu_dmp_motion_driver.c **** #include "cmsis_gcc.h"
  23:DMP/driver/eMPL/inv_mpu_dmp_motion_driver.c **** #include "inv_mpu.h"
  24:DMP/driver/eMPL/inv_mpu_dmp_motion_driver.c **** #include "inv_mpu_dmp_motion_driver.h"
  25:DMP/driver/eMPL/inv_mpu_dmp_motion_driver.c **** #include "dmpKey.h"
  26:DMP/driver/eMPL/inv_mpu_dmp_motion_driver.c **** #include "dmpmap.h"
  27:DMP/driver/eMPL/inv_mpu_dmp_motion_driver.c **** 
  28:DMP/driver/eMPL/inv_mpu_dmp_motion_driver.c **** /* The following functions must be defined for this platform:
  29:DMP/driver/eMPL/inv_mpu_dmp_motion_driver.c ****  * i2c_write(unsigned char slave_addr, unsigned char reg_addr,
  30:DMP/driver/eMPL/inv_mpu_dmp_motion_driver.c ****  *      unsigned char length, unsigned char const *data)
ARM GAS  /var/folders/21/t9g5rlb91ys800n5npymflf80000gn/T//ccWnr5oL.s 			page 2


  31:DMP/driver/eMPL/inv_mpu_dmp_motion_driver.c ****  * i2c_read(unsigned char slave_addr, unsigned char reg_addr,
  32:DMP/driver/eMPL/inv_mpu_dmp_motion_driver.c ****  *      unsigned char length, unsigned char *data)
  33:DMP/driver/eMPL/inv_mpu_dmp_motion_driver.c ****  * delay_ms(unsigned long num_ms)
  34:DMP/driver/eMPL/inv_mpu_dmp_motion_driver.c ****  * get_ms(unsigned long *count)
  35:DMP/driver/eMPL/inv_mpu_dmp_motion_driver.c ****  */
  36:DMP/driver/eMPL/inv_mpu_dmp_motion_driver.c **** #if defined EMPL_TARGET_STM32F4
  37:DMP/driver/eMPL/inv_mpu_dmp_motion_driver.c **** #include "i2c.h"   
  38:DMP/driver/eMPL/inv_mpu_dmp_motion_driver.c ****    
  39:DMP/driver/eMPL/inv_mpu_dmp_motion_driver.c **** #define i2c_write   Sensors_I2C_WriteRegister
  40:DMP/driver/eMPL/inv_mpu_dmp_motion_driver.c **** #define i2c_read    Sensors_I2C_ReadRegister
  41:DMP/driver/eMPL/inv_mpu_dmp_motion_driver.c **** #define get_ms      get_tick_count
  42:DMP/driver/eMPL/inv_mpu_dmp_motion_driver.c **** 
  43:DMP/driver/eMPL/inv_mpu_dmp_motion_driver.c **** void get_tick_count(unsigned long *count){}
  44:DMP/driver/eMPL/inv_mpu_dmp_motion_driver.c **** #elif defined MOTION_DRIVER_TARGET_MSP430
  45:DMP/driver/eMPL/inv_mpu_dmp_motion_driver.c **** #include "msp430.h"
  46:DMP/driver/eMPL/inv_mpu_dmp_motion_driver.c **** #include "msp430_clock.h"
  47:DMP/driver/eMPL/inv_mpu_dmp_motion_driver.c **** #define delay_ms    msp430_delay_ms
  48:DMP/driver/eMPL/inv_mpu_dmp_motion_driver.c **** #define get_ms      msp430_get_clock_ms
  49:DMP/driver/eMPL/inv_mpu_dmp_motion_driver.c **** #define log_i(...)     do {} while (0)
  50:DMP/driver/eMPL/inv_mpu_dmp_motion_driver.c **** #define log_e(...)     do {} while (0)
  51:DMP/driver/eMPL/inv_mpu_dmp_motion_driver.c **** 
  52:DMP/driver/eMPL/inv_mpu_dmp_motion_driver.c **** #elif defined EMPL_TARGET_MSP430
  53:DMP/driver/eMPL/inv_mpu_dmp_motion_driver.c **** #include "msp430.h"
  54:DMP/driver/eMPL/inv_mpu_dmp_motion_driver.c **** #include "msp430_clock.h"
  55:DMP/driver/eMPL/inv_mpu_dmp_motion_driver.c **** #include "log.h"
  56:DMP/driver/eMPL/inv_mpu_dmp_motion_driver.c **** #define delay_ms    msp430_delay_ms
  57:DMP/driver/eMPL/inv_mpu_dmp_motion_driver.c **** #define get_ms      msp430_get_clock_ms
  58:DMP/driver/eMPL/inv_mpu_dmp_motion_driver.c **** #define log_i       MPL_LOGI
  59:DMP/driver/eMPL/inv_mpu_dmp_motion_driver.c **** #define log_e       MPL_LOGE
  60:DMP/driver/eMPL/inv_mpu_dmp_motion_driver.c **** 
  61:DMP/driver/eMPL/inv_mpu_dmp_motion_driver.c **** #elif defined EMPL_TARGET_UC3L0
  62:DMP/driver/eMPL/inv_mpu_dmp_motion_driver.c **** /* Instead of using the standard TWI driver from the ASF library, we're using
  63:DMP/driver/eMPL/inv_mpu_dmp_motion_driver.c ****  * a TWI driver that follows the slave address + register address convention.
  64:DMP/driver/eMPL/inv_mpu_dmp_motion_driver.c ****  */
  65:DMP/driver/eMPL/inv_mpu_dmp_motion_driver.c **** #include "delay.h"
  66:DMP/driver/eMPL/inv_mpu_dmp_motion_driver.c **** #include "sysclk.h"
  67:DMP/driver/eMPL/inv_mpu_dmp_motion_driver.c **** #include "log.h"
  68:DMP/driver/eMPL/inv_mpu_dmp_motion_driver.c **** #include "uc3l0_clock.h"
  69:DMP/driver/eMPL/inv_mpu_dmp_motion_driver.c **** /* delay_ms is a function already defined in ASF. */
  70:DMP/driver/eMPL/inv_mpu_dmp_motion_driver.c **** #define get_ms  uc3l0_get_clock_ms
  71:DMP/driver/eMPL/inv_mpu_dmp_motion_driver.c **** #define log_i       MPL_LOGI
  72:DMP/driver/eMPL/inv_mpu_dmp_motion_driver.c **** #define log_e       MPL_LOGE
  73:DMP/driver/eMPL/inv_mpu_dmp_motion_driver.c **** 
  74:DMP/driver/eMPL/inv_mpu_dmp_motion_driver.c **** #else
  75:DMP/driver/eMPL/inv_mpu_dmp_motion_driver.c **** #error  Gyro driver is missing the system layer implementations.
  76:DMP/driver/eMPL/inv_mpu_dmp_motion_driver.c **** #endif
  77:DMP/driver/eMPL/inv_mpu_dmp_motion_driver.c **** 
  78:DMP/driver/eMPL/inv_mpu_dmp_motion_driver.c **** /* These defines are copied from dmpDefaultMPU6050.c in the general MPL
  79:DMP/driver/eMPL/inv_mpu_dmp_motion_driver.c ****  * releases. These defines may change for each DMP image, so be sure to modify
  80:DMP/driver/eMPL/inv_mpu_dmp_motion_driver.c ****  * these values when switching to a new image.
  81:DMP/driver/eMPL/inv_mpu_dmp_motion_driver.c ****  */
  82:DMP/driver/eMPL/inv_mpu_dmp_motion_driver.c **** #define CFG_LP_QUAT             (2712)
  83:DMP/driver/eMPL/inv_mpu_dmp_motion_driver.c **** #define END_ORIENT_TEMP         (1866)
  84:DMP/driver/eMPL/inv_mpu_dmp_motion_driver.c **** #define CFG_27                  (2742)
  85:DMP/driver/eMPL/inv_mpu_dmp_motion_driver.c **** #define CFG_20                  (2224)
  86:DMP/driver/eMPL/inv_mpu_dmp_motion_driver.c **** #define CFG_23                  (2745)
  87:DMP/driver/eMPL/inv_mpu_dmp_motion_driver.c **** #define CFG_FIFO_ON_EVENT       (2690)
ARM GAS  /var/folders/21/t9g5rlb91ys800n5npymflf80000gn/T//ccWnr5oL.s 			page 3


  88:DMP/driver/eMPL/inv_mpu_dmp_motion_driver.c **** #define END_PREDICTION_UPDATE   (1761)
  89:DMP/driver/eMPL/inv_mpu_dmp_motion_driver.c **** #define CGNOTICE_INTR           (2620)
  90:DMP/driver/eMPL/inv_mpu_dmp_motion_driver.c **** #define X_GRT_Y_TMP             (1358)
  91:DMP/driver/eMPL/inv_mpu_dmp_motion_driver.c **** #define CFG_DR_INT              (1029)
  92:DMP/driver/eMPL/inv_mpu_dmp_motion_driver.c **** #define CFG_AUTH                (1035)
  93:DMP/driver/eMPL/inv_mpu_dmp_motion_driver.c **** #define UPDATE_PROP_ROT         (1835)
  94:DMP/driver/eMPL/inv_mpu_dmp_motion_driver.c **** #define END_COMPARE_Y_X_TMP2    (1455)
  95:DMP/driver/eMPL/inv_mpu_dmp_motion_driver.c **** #define SKIP_X_GRT_Y_TMP        (1359)
  96:DMP/driver/eMPL/inv_mpu_dmp_motion_driver.c **** #define SKIP_END_COMPARE        (1435)
  97:DMP/driver/eMPL/inv_mpu_dmp_motion_driver.c **** #define FCFG_3                  (1088)
  98:DMP/driver/eMPL/inv_mpu_dmp_motion_driver.c **** #define FCFG_2                  (1066)
  99:DMP/driver/eMPL/inv_mpu_dmp_motion_driver.c **** #define FCFG_1                  (1062)
 100:DMP/driver/eMPL/inv_mpu_dmp_motion_driver.c **** #define END_COMPARE_Y_X_TMP3    (1434)
 101:DMP/driver/eMPL/inv_mpu_dmp_motion_driver.c **** #define FCFG_7                  (1073)
 102:DMP/driver/eMPL/inv_mpu_dmp_motion_driver.c **** #define FCFG_6                  (1106)
 103:DMP/driver/eMPL/inv_mpu_dmp_motion_driver.c **** #define FLAT_STATE_END          (1713)
 104:DMP/driver/eMPL/inv_mpu_dmp_motion_driver.c **** #define SWING_END_4             (1616)
 105:DMP/driver/eMPL/inv_mpu_dmp_motion_driver.c **** #define SWING_END_2             (1565)
 106:DMP/driver/eMPL/inv_mpu_dmp_motion_driver.c **** #define SWING_END_3             (1587)
 107:DMP/driver/eMPL/inv_mpu_dmp_motion_driver.c **** #define SWING_END_1             (1550)
 108:DMP/driver/eMPL/inv_mpu_dmp_motion_driver.c **** #define CFG_8                   (2718)
 109:DMP/driver/eMPL/inv_mpu_dmp_motion_driver.c **** #define CFG_15                  (2727)
 110:DMP/driver/eMPL/inv_mpu_dmp_motion_driver.c **** #define CFG_16                  (2746)
 111:DMP/driver/eMPL/inv_mpu_dmp_motion_driver.c **** #define CFG_EXT_GYRO_BIAS       (1189)
 112:DMP/driver/eMPL/inv_mpu_dmp_motion_driver.c **** #define END_COMPARE_Y_X_TMP     (1407)
 113:DMP/driver/eMPL/inv_mpu_dmp_motion_driver.c **** #define DO_NOT_UPDATE_PROP_ROT  (1839)
 114:DMP/driver/eMPL/inv_mpu_dmp_motion_driver.c **** #define CFG_7                   (1205)
 115:DMP/driver/eMPL/inv_mpu_dmp_motion_driver.c **** #define FLAT_STATE_END_TEMP     (1683)
 116:DMP/driver/eMPL/inv_mpu_dmp_motion_driver.c **** #define END_COMPARE_Y_X         (1484)
 117:DMP/driver/eMPL/inv_mpu_dmp_motion_driver.c **** #define SKIP_SWING_END_1        (1551)
 118:DMP/driver/eMPL/inv_mpu_dmp_motion_driver.c **** #define SKIP_SWING_END_3        (1588)
 119:DMP/driver/eMPL/inv_mpu_dmp_motion_driver.c **** #define SKIP_SWING_END_2        (1566)
 120:DMP/driver/eMPL/inv_mpu_dmp_motion_driver.c **** #define TILTG75_START           (1672)
 121:DMP/driver/eMPL/inv_mpu_dmp_motion_driver.c **** #define CFG_6                   (2753)
 122:DMP/driver/eMPL/inv_mpu_dmp_motion_driver.c **** #define TILTL75_END             (1669)
 123:DMP/driver/eMPL/inv_mpu_dmp_motion_driver.c **** #define END_ORIENT              (1884)
 124:DMP/driver/eMPL/inv_mpu_dmp_motion_driver.c **** #define CFG_FLICK_IN            (2573)
 125:DMP/driver/eMPL/inv_mpu_dmp_motion_driver.c **** #define TILTL75_START           (1643)
 126:DMP/driver/eMPL/inv_mpu_dmp_motion_driver.c **** #define CFG_MOTION_BIAS         (1208)
 127:DMP/driver/eMPL/inv_mpu_dmp_motion_driver.c **** #define X_GRT_Y                 (1408)
 128:DMP/driver/eMPL/inv_mpu_dmp_motion_driver.c **** #define TEMPLABEL               (2324)
 129:DMP/driver/eMPL/inv_mpu_dmp_motion_driver.c **** #define CFG_ANDROID_ORIENT_INT  (1853)
 130:DMP/driver/eMPL/inv_mpu_dmp_motion_driver.c **** #define CFG_GYRO_RAW_DATA       (2722)
 131:DMP/driver/eMPL/inv_mpu_dmp_motion_driver.c **** #define X_GRT_Y_TMP2            (1379)
 132:DMP/driver/eMPL/inv_mpu_dmp_motion_driver.c **** 
 133:DMP/driver/eMPL/inv_mpu_dmp_motion_driver.c **** #define D_0_22                  (22+512)
 134:DMP/driver/eMPL/inv_mpu_dmp_motion_driver.c **** #define D_0_24                  (24+512)
 135:DMP/driver/eMPL/inv_mpu_dmp_motion_driver.c **** 
 136:DMP/driver/eMPL/inv_mpu_dmp_motion_driver.c **** #define D_0_36                  (36)
 137:DMP/driver/eMPL/inv_mpu_dmp_motion_driver.c **** #define D_0_52                  (52)
 138:DMP/driver/eMPL/inv_mpu_dmp_motion_driver.c **** #define D_0_96                  (96)
 139:DMP/driver/eMPL/inv_mpu_dmp_motion_driver.c **** #define D_0_104                 (104)
 140:DMP/driver/eMPL/inv_mpu_dmp_motion_driver.c **** #define D_0_108                 (108)
 141:DMP/driver/eMPL/inv_mpu_dmp_motion_driver.c **** #define D_0_163                 (163)
 142:DMP/driver/eMPL/inv_mpu_dmp_motion_driver.c **** #define D_0_188                 (188)
 143:DMP/driver/eMPL/inv_mpu_dmp_motion_driver.c **** #define D_0_192                 (192)
 144:DMP/driver/eMPL/inv_mpu_dmp_motion_driver.c **** #define D_0_224                 (224)
ARM GAS  /var/folders/21/t9g5rlb91ys800n5npymflf80000gn/T//ccWnr5oL.s 			page 4


 145:DMP/driver/eMPL/inv_mpu_dmp_motion_driver.c **** #define D_0_228                 (228)
 146:DMP/driver/eMPL/inv_mpu_dmp_motion_driver.c **** #define D_0_232                 (232)
 147:DMP/driver/eMPL/inv_mpu_dmp_motion_driver.c **** #define D_0_236                 (236)
 148:DMP/driver/eMPL/inv_mpu_dmp_motion_driver.c **** 
 149:DMP/driver/eMPL/inv_mpu_dmp_motion_driver.c **** #define D_1_2                   (256 + 2)
 150:DMP/driver/eMPL/inv_mpu_dmp_motion_driver.c **** #define D_1_4                   (256 + 4)
 151:DMP/driver/eMPL/inv_mpu_dmp_motion_driver.c **** #define D_1_8                   (256 + 8)
 152:DMP/driver/eMPL/inv_mpu_dmp_motion_driver.c **** #define D_1_10                  (256 + 10)
 153:DMP/driver/eMPL/inv_mpu_dmp_motion_driver.c **** #define D_1_24                  (256 + 24)
 154:DMP/driver/eMPL/inv_mpu_dmp_motion_driver.c **** #define D_1_28                  (256 + 28)
 155:DMP/driver/eMPL/inv_mpu_dmp_motion_driver.c **** #define D_1_36                  (256 + 36)
 156:DMP/driver/eMPL/inv_mpu_dmp_motion_driver.c **** #define D_1_40                  (256 + 40)
 157:DMP/driver/eMPL/inv_mpu_dmp_motion_driver.c **** #define D_1_44                  (256 + 44)
 158:DMP/driver/eMPL/inv_mpu_dmp_motion_driver.c **** #define D_1_72                  (256 + 72)
 159:DMP/driver/eMPL/inv_mpu_dmp_motion_driver.c **** #define D_1_74                  (256 + 74)
 160:DMP/driver/eMPL/inv_mpu_dmp_motion_driver.c **** #define D_1_79                  (256 + 79)
 161:DMP/driver/eMPL/inv_mpu_dmp_motion_driver.c **** #define D_1_88                  (256 + 88)
 162:DMP/driver/eMPL/inv_mpu_dmp_motion_driver.c **** #define D_1_90                  (256 + 90)
 163:DMP/driver/eMPL/inv_mpu_dmp_motion_driver.c **** #define D_1_92                  (256 + 92)
 164:DMP/driver/eMPL/inv_mpu_dmp_motion_driver.c **** #define D_1_96                  (256 + 96)
 165:DMP/driver/eMPL/inv_mpu_dmp_motion_driver.c **** #define D_1_98                  (256 + 98)
 166:DMP/driver/eMPL/inv_mpu_dmp_motion_driver.c **** #define D_1_106                 (256 + 106)
 167:DMP/driver/eMPL/inv_mpu_dmp_motion_driver.c **** #define D_1_108                 (256 + 108)
 168:DMP/driver/eMPL/inv_mpu_dmp_motion_driver.c **** #define D_1_112                 (256 + 112)
 169:DMP/driver/eMPL/inv_mpu_dmp_motion_driver.c **** #define D_1_128                 (256 + 144)
 170:DMP/driver/eMPL/inv_mpu_dmp_motion_driver.c **** #define D_1_152                 (256 + 12)
 171:DMP/driver/eMPL/inv_mpu_dmp_motion_driver.c **** #define D_1_160                 (256 + 160)
 172:DMP/driver/eMPL/inv_mpu_dmp_motion_driver.c **** #define D_1_176                 (256 + 176)
 173:DMP/driver/eMPL/inv_mpu_dmp_motion_driver.c **** #define D_1_178                 (256 + 178)
 174:DMP/driver/eMPL/inv_mpu_dmp_motion_driver.c **** #define D_1_218                 (256 + 218)
 175:DMP/driver/eMPL/inv_mpu_dmp_motion_driver.c **** #define D_1_232                 (256 + 232)
 176:DMP/driver/eMPL/inv_mpu_dmp_motion_driver.c **** #define D_1_236                 (256 + 236)
 177:DMP/driver/eMPL/inv_mpu_dmp_motion_driver.c **** #define D_1_240                 (256 + 240)
 178:DMP/driver/eMPL/inv_mpu_dmp_motion_driver.c **** #define D_1_244                 (256 + 244)
 179:DMP/driver/eMPL/inv_mpu_dmp_motion_driver.c **** #define D_1_250                 (256 + 250)
 180:DMP/driver/eMPL/inv_mpu_dmp_motion_driver.c **** #define D_1_252                 (256 + 252)
 181:DMP/driver/eMPL/inv_mpu_dmp_motion_driver.c **** #define D_2_12                  (512 + 12)
 182:DMP/driver/eMPL/inv_mpu_dmp_motion_driver.c **** #define D_2_96                  (512 + 96)
 183:DMP/driver/eMPL/inv_mpu_dmp_motion_driver.c **** #define D_2_108                 (512 + 108)
 184:DMP/driver/eMPL/inv_mpu_dmp_motion_driver.c **** #define D_2_208                 (512 + 208)
 185:DMP/driver/eMPL/inv_mpu_dmp_motion_driver.c **** #define D_2_224                 (512 + 224)
 186:DMP/driver/eMPL/inv_mpu_dmp_motion_driver.c **** #define D_2_236                 (512 + 236)
 187:DMP/driver/eMPL/inv_mpu_dmp_motion_driver.c **** #define D_2_244                 (512 + 244)
 188:DMP/driver/eMPL/inv_mpu_dmp_motion_driver.c **** #define D_2_248                 (512 + 248)
 189:DMP/driver/eMPL/inv_mpu_dmp_motion_driver.c **** #define D_2_252                 (512 + 252)
 190:DMP/driver/eMPL/inv_mpu_dmp_motion_driver.c **** 
 191:DMP/driver/eMPL/inv_mpu_dmp_motion_driver.c **** #define CPASS_BIAS_X            (35 * 16 + 4)
 192:DMP/driver/eMPL/inv_mpu_dmp_motion_driver.c **** #define CPASS_BIAS_Y            (35 * 16 + 8)
 193:DMP/driver/eMPL/inv_mpu_dmp_motion_driver.c **** #define CPASS_BIAS_Z            (35 * 16 + 12)
 194:DMP/driver/eMPL/inv_mpu_dmp_motion_driver.c **** #define CPASS_MTX_00            (36 * 16)
 195:DMP/driver/eMPL/inv_mpu_dmp_motion_driver.c **** #define CPASS_MTX_01            (36 * 16 + 4)
 196:DMP/driver/eMPL/inv_mpu_dmp_motion_driver.c **** #define CPASS_MTX_02            (36 * 16 + 8)
 197:DMP/driver/eMPL/inv_mpu_dmp_motion_driver.c **** #define CPASS_MTX_10            (36 * 16 + 12)
 198:DMP/driver/eMPL/inv_mpu_dmp_motion_driver.c **** #define CPASS_MTX_11            (37 * 16)
 199:DMP/driver/eMPL/inv_mpu_dmp_motion_driver.c **** #define CPASS_MTX_12            (37 * 16 + 4)
 200:DMP/driver/eMPL/inv_mpu_dmp_motion_driver.c **** #define CPASS_MTX_20            (37 * 16 + 8)
 201:DMP/driver/eMPL/inv_mpu_dmp_motion_driver.c **** #define CPASS_MTX_21            (37 * 16 + 12)
ARM GAS  /var/folders/21/t9g5rlb91ys800n5npymflf80000gn/T//ccWnr5oL.s 			page 5


 202:DMP/driver/eMPL/inv_mpu_dmp_motion_driver.c **** #define CPASS_MTX_22            (43 * 16 + 12)
 203:DMP/driver/eMPL/inv_mpu_dmp_motion_driver.c **** #define D_EXT_GYRO_BIAS_X       (61 * 16)
 204:DMP/driver/eMPL/inv_mpu_dmp_motion_driver.c **** #define D_EXT_GYRO_BIAS_Y       (61 * 16) + 4
 205:DMP/driver/eMPL/inv_mpu_dmp_motion_driver.c **** #define D_EXT_GYRO_BIAS_Z       (61 * 16) + 8
 206:DMP/driver/eMPL/inv_mpu_dmp_motion_driver.c **** #define D_ACT0                  (40 * 16)
 207:DMP/driver/eMPL/inv_mpu_dmp_motion_driver.c **** #define D_ACSX                  (40 * 16 + 4)
 208:DMP/driver/eMPL/inv_mpu_dmp_motion_driver.c **** #define D_ACSY                  (40 * 16 + 8)
 209:DMP/driver/eMPL/inv_mpu_dmp_motion_driver.c **** #define D_ACSZ                  (40 * 16 + 12)
 210:DMP/driver/eMPL/inv_mpu_dmp_motion_driver.c **** 
 211:DMP/driver/eMPL/inv_mpu_dmp_motion_driver.c **** #define FLICK_MSG               (45 * 16 + 4)
 212:DMP/driver/eMPL/inv_mpu_dmp_motion_driver.c **** #define FLICK_COUNTER           (45 * 16 + 8)
 213:DMP/driver/eMPL/inv_mpu_dmp_motion_driver.c **** #define FLICK_LOWER             (45 * 16 + 12)
 214:DMP/driver/eMPL/inv_mpu_dmp_motion_driver.c **** #define FLICK_UPPER             (46 * 16 + 12)
 215:DMP/driver/eMPL/inv_mpu_dmp_motion_driver.c **** 
 216:DMP/driver/eMPL/inv_mpu_dmp_motion_driver.c **** #define D_AUTH_OUT              (992)
 217:DMP/driver/eMPL/inv_mpu_dmp_motion_driver.c **** #define D_AUTH_IN               (996)
 218:DMP/driver/eMPL/inv_mpu_dmp_motion_driver.c **** #define D_AUTH_A                (1000)
 219:DMP/driver/eMPL/inv_mpu_dmp_motion_driver.c **** #define D_AUTH_B                (1004)
 220:DMP/driver/eMPL/inv_mpu_dmp_motion_driver.c **** 
 221:DMP/driver/eMPL/inv_mpu_dmp_motion_driver.c **** #define D_PEDSTD_BP_B           (768 + 0x1C)
 222:DMP/driver/eMPL/inv_mpu_dmp_motion_driver.c **** #define D_PEDSTD_HP_A           (768 + 0x78)
 223:DMP/driver/eMPL/inv_mpu_dmp_motion_driver.c **** #define D_PEDSTD_HP_B           (768 + 0x7C)
 224:DMP/driver/eMPL/inv_mpu_dmp_motion_driver.c **** #define D_PEDSTD_BP_A4          (768 + 0x40)
 225:DMP/driver/eMPL/inv_mpu_dmp_motion_driver.c **** #define D_PEDSTD_BP_A3          (768 + 0x44)
 226:DMP/driver/eMPL/inv_mpu_dmp_motion_driver.c **** #define D_PEDSTD_BP_A2          (768 + 0x48)
 227:DMP/driver/eMPL/inv_mpu_dmp_motion_driver.c **** #define D_PEDSTD_BP_A1          (768 + 0x4C)
 228:DMP/driver/eMPL/inv_mpu_dmp_motion_driver.c **** #define D_PEDSTD_INT_THRSH      (768 + 0x68)
 229:DMP/driver/eMPL/inv_mpu_dmp_motion_driver.c **** #define D_PEDSTD_CLIP           (768 + 0x6C)
 230:DMP/driver/eMPL/inv_mpu_dmp_motion_driver.c **** #define D_PEDSTD_SB             (768 + 0x28)
 231:DMP/driver/eMPL/inv_mpu_dmp_motion_driver.c **** #define D_PEDSTD_SB_TIME        (768 + 0x2C)
 232:DMP/driver/eMPL/inv_mpu_dmp_motion_driver.c **** #define D_PEDSTD_PEAKTHRSH      (768 + 0x98)
 233:DMP/driver/eMPL/inv_mpu_dmp_motion_driver.c **** #define D_PEDSTD_TIML           (768 + 0x2A)
 234:DMP/driver/eMPL/inv_mpu_dmp_motion_driver.c **** #define D_PEDSTD_TIMH           (768 + 0x2E)
 235:DMP/driver/eMPL/inv_mpu_dmp_motion_driver.c **** #define D_PEDSTD_PEAK           (768 + 0X94)
 236:DMP/driver/eMPL/inv_mpu_dmp_motion_driver.c **** #define D_PEDSTD_STEPCTR        (768 + 0x60)
 237:DMP/driver/eMPL/inv_mpu_dmp_motion_driver.c **** #define D_PEDSTD_TIMECTR        (964)
 238:DMP/driver/eMPL/inv_mpu_dmp_motion_driver.c **** #define D_PEDSTD_DECI           (768 + 0xA0)
 239:DMP/driver/eMPL/inv_mpu_dmp_motion_driver.c **** 
 240:DMP/driver/eMPL/inv_mpu_dmp_motion_driver.c **** #define D_HOST_NO_MOT           (976)
 241:DMP/driver/eMPL/inv_mpu_dmp_motion_driver.c **** #define D_ACCEL_BIAS            (660)
 242:DMP/driver/eMPL/inv_mpu_dmp_motion_driver.c **** 
 243:DMP/driver/eMPL/inv_mpu_dmp_motion_driver.c **** #define D_ORIENT_GAP            (76)
 244:DMP/driver/eMPL/inv_mpu_dmp_motion_driver.c **** 
 245:DMP/driver/eMPL/inv_mpu_dmp_motion_driver.c **** #define D_TILT0_H               (48)
 246:DMP/driver/eMPL/inv_mpu_dmp_motion_driver.c **** #define D_TILT0_L               (50)
 247:DMP/driver/eMPL/inv_mpu_dmp_motion_driver.c **** #define D_TILT1_H               (52)
 248:DMP/driver/eMPL/inv_mpu_dmp_motion_driver.c **** #define D_TILT1_L               (54)
 249:DMP/driver/eMPL/inv_mpu_dmp_motion_driver.c **** #define D_TILT2_H               (56)
 250:DMP/driver/eMPL/inv_mpu_dmp_motion_driver.c **** #define D_TILT2_L               (58)
 251:DMP/driver/eMPL/inv_mpu_dmp_motion_driver.c **** #define D_TILT3_H               (60)
 252:DMP/driver/eMPL/inv_mpu_dmp_motion_driver.c **** #define D_TILT3_L               (62)
 253:DMP/driver/eMPL/inv_mpu_dmp_motion_driver.c **** 
 254:DMP/driver/eMPL/inv_mpu_dmp_motion_driver.c **** #define DMP_CODE_SIZE           (3062)
 255:DMP/driver/eMPL/inv_mpu_dmp_motion_driver.c **** 
 256:DMP/driver/eMPL/inv_mpu_dmp_motion_driver.c **** static const unsigned char dmp_memory[DMP_CODE_SIZE] = {
 257:DMP/driver/eMPL/inv_mpu_dmp_motion_driver.c ****     /* bank # 0 */
 258:DMP/driver/eMPL/inv_mpu_dmp_motion_driver.c ****     0x00, 0x00, 0x70, 0x00, 0x00, 0x00, 0x00, 0x24, 0x00, 0x00, 0x00, 0x02, 0x00, 0x03, 0x00, 0x00,
ARM GAS  /var/folders/21/t9g5rlb91ys800n5npymflf80000gn/T//ccWnr5oL.s 			page 6


 259:DMP/driver/eMPL/inv_mpu_dmp_motion_driver.c ****     0x00, 0x65, 0x00, 0x54, 0xff, 0xef, 0x00, 0x00, 0xfa, 0x80, 0x00, 0x0b, 0x12, 0x82, 0x00, 0x01,
 260:DMP/driver/eMPL/inv_mpu_dmp_motion_driver.c ****     0x03, 0x0c, 0x30, 0xc3, 0x0e, 0x8c, 0x8c, 0xe9, 0x14, 0xd5, 0x40, 0x02, 0x13, 0x71, 0x0f, 0x8e,
 261:DMP/driver/eMPL/inv_mpu_dmp_motion_driver.c ****     0x38, 0x83, 0xf8, 0x83, 0x30, 0x00, 0xf8, 0x83, 0x25, 0x8e, 0xf8, 0x83, 0x30, 0x00, 0xf8, 0x83,
 262:DMP/driver/eMPL/inv_mpu_dmp_motion_driver.c ****     0xff, 0xff, 0xff, 0xff, 0x0f, 0xfe, 0xa9, 0xd6, 0x24, 0x00, 0x04, 0x00, 0x1a, 0x82, 0x79, 0xa1,
 263:DMP/driver/eMPL/inv_mpu_dmp_motion_driver.c ****     0x00, 0x00, 0x00, 0x3c, 0xff, 0xff, 0x00, 0x00, 0x00, 0x10, 0x00, 0x00, 0x38, 0x83, 0x6f, 0xa2,
 264:DMP/driver/eMPL/inv_mpu_dmp_motion_driver.c ****     0x00, 0x3e, 0x03, 0x30, 0x40, 0x00, 0x00, 0x00, 0x02, 0xca, 0xe3, 0x09, 0x3e, 0x80, 0x00, 0x00,
 265:DMP/driver/eMPL/inv_mpu_dmp_motion_driver.c ****     0x20, 0x00, 0x00, 0x00, 0x00, 0x00, 0x00, 0x00, 0x40, 0x00, 0x00, 0x00, 0x60, 0x00, 0x00, 0x00,
 266:DMP/driver/eMPL/inv_mpu_dmp_motion_driver.c ****     0x00, 0x0c, 0x00, 0x00, 0x00, 0x0c, 0x18, 0x6e, 0x00, 0x00, 0x06, 0x92, 0x0a, 0x16, 0xc0, 0xdf,
 267:DMP/driver/eMPL/inv_mpu_dmp_motion_driver.c ****     0xff, 0xff, 0x02, 0x56, 0xfd, 0x8c, 0xd3, 0x77, 0xff, 0xe1, 0xc4, 0x96, 0xe0, 0xc5, 0xbe, 0xaa,
 268:DMP/driver/eMPL/inv_mpu_dmp_motion_driver.c ****     0x00, 0x00, 0x00, 0x00, 0xff, 0xff, 0x0b, 0x2b, 0x00, 0x00, 0x16, 0x57, 0x00, 0x00, 0x03, 0x59,
 269:DMP/driver/eMPL/inv_mpu_dmp_motion_driver.c ****     0x40, 0x00, 0x00, 0x00, 0x00, 0x00, 0x1d, 0xfa, 0x00, 0x02, 0x6c, 0x1d, 0x00, 0x00, 0x00, 0x00,
 270:DMP/driver/eMPL/inv_mpu_dmp_motion_driver.c ****     0x3f, 0xff, 0xdf, 0xeb, 0x00, 0x3e, 0xb3, 0xb6, 0x00, 0x0d, 0x22, 0x78, 0x00, 0x00, 0x2f, 0x3c,
 271:DMP/driver/eMPL/inv_mpu_dmp_motion_driver.c ****     0x00, 0x00, 0x00, 0x00, 0x00, 0x19, 0x42, 0xb5, 0x00, 0x00, 0x39, 0xa2, 0x00, 0x00, 0xb3, 0x65,
 272:DMP/driver/eMPL/inv_mpu_dmp_motion_driver.c ****     0xd9, 0x0e, 0x9f, 0xc9, 0x1d, 0xcf, 0x4c, 0x34, 0x30, 0x00, 0x00, 0x00, 0x50, 0x00, 0x00, 0x00,
 273:DMP/driver/eMPL/inv_mpu_dmp_motion_driver.c ****     0x3b, 0xb6, 0x7a, 0xe8, 0x00, 0x64, 0x00, 0x00, 0x00, 0xc8, 0x00, 0x00, 0x00, 0x00, 0x00, 0x00,
 274:DMP/driver/eMPL/inv_mpu_dmp_motion_driver.c ****     /* bank # 1 */
 275:DMP/driver/eMPL/inv_mpu_dmp_motion_driver.c ****     0x10, 0x00, 0x00, 0x00, 0x10, 0x00, 0xfa, 0x92, 0x10, 0x00, 0x22, 0x5e, 0x00, 0x0d, 0x22, 0x9f,
 276:DMP/driver/eMPL/inv_mpu_dmp_motion_driver.c ****     0x00, 0x01, 0x00, 0x00, 0x00, 0x32, 0x00, 0x00, 0xff, 0x46, 0x00, 0x00, 0x63, 0xd4, 0x00, 0x00,
 277:DMP/driver/eMPL/inv_mpu_dmp_motion_driver.c ****     0x10, 0x00, 0x00, 0x00, 0x04, 0xd6, 0x00, 0x00, 0x04, 0xcc, 0x00, 0x00, 0x04, 0xcc, 0x00, 0x00,
 278:DMP/driver/eMPL/inv_mpu_dmp_motion_driver.c ****     0x00, 0x00, 0x10, 0x72, 0x00, 0x00, 0x00, 0x40, 0x00, 0x00, 0x00, 0x00, 0x00, 0x00, 0x00, 0x00,
 279:DMP/driver/eMPL/inv_mpu_dmp_motion_driver.c ****     0x00, 0x06, 0x00, 0x02, 0x00, 0x05, 0x00, 0x07, 0x00, 0x00, 0x00, 0x00, 0x00, 0x64, 0x00, 0x00,
 280:DMP/driver/eMPL/inv_mpu_dmp_motion_driver.c ****     0x00, 0x00, 0x00, 0x00, 0x00, 0x00, 0x00, 0x05, 0x00, 0x05, 0x00, 0x64, 0x00, 0x20, 0x00, 0x00,
 281:DMP/driver/eMPL/inv_mpu_dmp_motion_driver.c ****     0x00, 0x00, 0x00, 0x00, 0x00, 0x00, 0x00, 0x00, 0x00, 0x00, 0x40, 0x00, 0x00, 0x00, 0x03, 0x00,
 282:DMP/driver/eMPL/inv_mpu_dmp_motion_driver.c ****     0x00, 0x00, 0x00, 0x32, 0xf8, 0x98, 0x00, 0x00, 0xff, 0x65, 0x00, 0x00, 0x83, 0x0f, 0x00, 0x00,
 283:DMP/driver/eMPL/inv_mpu_dmp_motion_driver.c ****     0xff, 0x9b, 0xfc, 0x00, 0x00, 0x00, 0x00, 0x00, 0x00, 0x00, 0x00, 0x00, 0x00, 0x00, 0x00, 0x00,
 284:DMP/driver/eMPL/inv_mpu_dmp_motion_driver.c ****     0x00, 0x00, 0x00, 0x00, 0x00, 0x00, 0x00, 0x00, 0x00, 0x00, 0x00, 0x00, 0x00, 0x00, 0x00, 0x00,
 285:DMP/driver/eMPL/inv_mpu_dmp_motion_driver.c ****     0x00, 0x00, 0x00, 0x00, 0x00, 0x00, 0x00, 0x00, 0x00, 0x00, 0x00, 0x00, 0x00, 0x00, 0x10, 0x00,
 286:DMP/driver/eMPL/inv_mpu_dmp_motion_driver.c ****     0x40, 0x00, 0x00, 0x00, 0x00, 0x00, 0x00, 0x06, 0x00, 0x00, 0xb2, 0x6a, 0x00, 0x02, 0x00, 0x00,
 287:DMP/driver/eMPL/inv_mpu_dmp_motion_driver.c ****     0x00, 0x01, 0xfb, 0x83, 0x00, 0x68, 0x00, 0x00, 0x00, 0xd9, 0xfc, 0x00, 0x7c, 0xf1, 0xff, 0x83,
 288:DMP/driver/eMPL/inv_mpu_dmp_motion_driver.c ****     0x00, 0x00, 0x00, 0x00, 0x00, 0x65, 0x00, 0x00, 0x00, 0x64, 0x03, 0xe8, 0x00, 0x64, 0x00, 0x28,
 289:DMP/driver/eMPL/inv_mpu_dmp_motion_driver.c ****     0x00, 0x00, 0x00, 0x25, 0x00, 0x00, 0x00, 0x00, 0x16, 0xa0, 0x00, 0x00, 0x00, 0x00, 0x10, 0x00,
 290:DMP/driver/eMPL/inv_mpu_dmp_motion_driver.c ****     0x00, 0x00, 0x10, 0x00, 0x00, 0x2f, 0x00, 0x00, 0x00, 0x00, 0x01, 0xf4, 0x00, 0x00, 0x10, 0x00,
 291:DMP/driver/eMPL/inv_mpu_dmp_motion_driver.c ****     /* bank # 2 */
 292:DMP/driver/eMPL/inv_mpu_dmp_motion_driver.c ****     0x00, 0x28, 0x00, 0x00, 0xff, 0xff, 0x45, 0x81, 0xff, 0xff, 0xfa, 0x72, 0x00, 0x00, 0x00, 0x00,
 293:DMP/driver/eMPL/inv_mpu_dmp_motion_driver.c ****     0x00, 0x00, 0x00, 0x00, 0x00, 0x44, 0x00, 0x05, 0x00, 0x05, 0xba, 0xc6, 0x00, 0x47, 0x78, 0xa2,
 294:DMP/driver/eMPL/inv_mpu_dmp_motion_driver.c ****     0x00, 0x00, 0x00, 0x01, 0x00, 0x00, 0x00, 0x00, 0x00, 0x00, 0x06, 0x00, 0x00, 0x00, 0x00, 0x14,
 295:DMP/driver/eMPL/inv_mpu_dmp_motion_driver.c ****     0x00, 0x00, 0x25, 0x4d, 0x00, 0x2f, 0x70, 0x6d, 0x00, 0x00, 0x05, 0xae, 0x00, 0x0c, 0x02, 0xd0,
 296:DMP/driver/eMPL/inv_mpu_dmp_motion_driver.c ****     0x00, 0x00, 0x00, 0x00, 0x00, 0x00, 0x00, 0x00, 0x00, 0x00, 0x00, 0x00, 0x00, 0x00, 0x00, 0x00,
 297:DMP/driver/eMPL/inv_mpu_dmp_motion_driver.c ****     0x00, 0x1b, 0x00, 0x00, 0x00, 0x00, 0x00, 0x00, 0x00, 0x00, 0x00, 0x00, 0x00, 0x00, 0x00, 0x00,
 298:DMP/driver/eMPL/inv_mpu_dmp_motion_driver.c ****     0x00, 0x64, 0x00, 0x00, 0x00, 0x08, 0x00, 0x00, 0x00, 0x00, 0x00, 0x00, 0x00, 0x00, 0x00, 0x00,
 299:DMP/driver/eMPL/inv_mpu_dmp_motion_driver.c ****     0x00, 0x00, 0x00, 0x00, 0x00, 0x00, 0x00, 0x00, 0x00, 0x00, 0x00, 0x00, 0x00, 0x00, 0x00, 0x00,
 300:DMP/driver/eMPL/inv_mpu_dmp_motion_driver.c ****     0x00, 0x00, 0x00, 0x00, 0x00, 0x00, 0x00, 0x00, 0x00, 0x00, 0x00, 0x00, 0x00, 0x00, 0x00, 0x00,
 301:DMP/driver/eMPL/inv_mpu_dmp_motion_driver.c ****     0x00, 0x00, 0x00, 0x00, 0x00, 0x00, 0x00, 0x00, 0x00, 0x00, 0x00, 0x00, 0x00, 0x00, 0x00, 0x00,
 302:DMP/driver/eMPL/inv_mpu_dmp_motion_driver.c ****     0x00, 0x00, 0x00, 0x00, 0x00, 0x00, 0x00, 0x00, 0x00, 0x00, 0x00, 0x00, 0x00, 0x00, 0x00, 0x00,
 303:DMP/driver/eMPL/inv_mpu_dmp_motion_driver.c ****     0x00, 0x00, 0x00, 0x00, 0x00, 0x00, 0x00, 0x00, 0x00, 0x00, 0x00, 0x00, 0x00, 0x00, 0x00, 0x00,
 304:DMP/driver/eMPL/inv_mpu_dmp_motion_driver.c ****     0x00, 0x1b, 0x00, 0x00, 0x00, 0x00, 0x00, 0x00, 0x00, 0x00, 0x00, 0x00, 0x00, 0x0e, 0x00, 0x0e,
 305:DMP/driver/eMPL/inv_mpu_dmp_motion_driver.c ****     0x00, 0x00, 0x0a, 0xc7, 0x00, 0x04, 0x00, 0x00, 0x00, 0x00, 0x00, 0x32, 0xff, 0xff, 0xff, 0x9c,
 306:DMP/driver/eMPL/inv_mpu_dmp_motion_driver.c ****     0x00, 0x00, 0x0b, 0x2b, 0x00, 0x00, 0x00, 0x02, 0x00, 0x00, 0x00, 0x01, 0x00, 0x00, 0x00, 0x64,
 307:DMP/driver/eMPL/inv_mpu_dmp_motion_driver.c ****     0xff, 0xe5, 0x00, 0x00, 0x00, 0x00, 0x00, 0x00, 0x00, 0x00, 0x00, 0x00, 0x00, 0x00, 0x00, 0x00,
 308:DMP/driver/eMPL/inv_mpu_dmp_motion_driver.c ****     /* bank # 3 */
 309:DMP/driver/eMPL/inv_mpu_dmp_motion_driver.c ****     0x00, 0x00, 0x00, 0x01, 0x00, 0x00, 0x00, 0x00, 0x00, 0x01, 0x00, 0x00, 0x00, 0x00, 0x00, 0x00,
 310:DMP/driver/eMPL/inv_mpu_dmp_motion_driver.c ****     0x00, 0x01, 0x80, 0x00, 0x00, 0x01, 0x80, 0x00, 0x00, 0x01, 0x80, 0x00, 0x00, 0x24, 0x26, 0xd3,
 311:DMP/driver/eMPL/inv_mpu_dmp_motion_driver.c ****     0x00, 0x00, 0x00, 0x00, 0x00, 0x00, 0x00, 0x00, 0x00, 0x06, 0x00, 0x10, 0x00, 0x96, 0x00, 0x3c,
 312:DMP/driver/eMPL/inv_mpu_dmp_motion_driver.c ****     0x00, 0x00, 0x00, 0x00, 0x00, 0x00, 0x00, 0x00, 0x00, 0x00, 0x00, 0x00, 0x00, 0x00, 0x00, 0x00,
 313:DMP/driver/eMPL/inv_mpu_dmp_motion_driver.c ****     0x0c, 0x0a, 0x4e, 0x68, 0xcd, 0xcf, 0x77, 0x09, 0x50, 0x16, 0x67, 0x59, 0xc6, 0x19, 0xce, 0x82,
 314:DMP/driver/eMPL/inv_mpu_dmp_motion_driver.c ****     0x00, 0x00, 0x00, 0x00, 0x00, 0x00, 0x00, 0x00, 0x00, 0x00, 0x00, 0x00, 0x00, 0x00, 0x00, 0x00,
 315:DMP/driver/eMPL/inv_mpu_dmp_motion_driver.c ****     0x00, 0x00, 0x00, 0x00, 0x00, 0x00, 0x00, 0x00, 0x17, 0xd7, 0x84, 0x00, 0x03, 0x00, 0x00, 0x00,
ARM GAS  /var/folders/21/t9g5rlb91ys800n5npymflf80000gn/T//ccWnr5oL.s 			page 7


 316:DMP/driver/eMPL/inv_mpu_dmp_motion_driver.c ****     0x00, 0x00, 0x00, 0x00, 0x00, 0x00, 0x00, 0x00, 0xc7, 0x93, 0x8f, 0x9d, 0x1e, 0x1b, 0x1c, 0x19,
 317:DMP/driver/eMPL/inv_mpu_dmp_motion_driver.c ****     0x00, 0x00, 0x00, 0x00, 0x00, 0x00, 0x00, 0x00, 0x00, 0x00, 0x00, 0x00, 0x00, 0x00, 0x00, 0x00,
 318:DMP/driver/eMPL/inv_mpu_dmp_motion_driver.c ****     0x00, 0x00, 0x00, 0x00, 0x00, 0x00, 0x00, 0x00, 0x02, 0x03, 0x18, 0x85, 0x00, 0x00, 0x40, 0x00,
 319:DMP/driver/eMPL/inv_mpu_dmp_motion_driver.c ****     0x00, 0x00, 0x00, 0x03, 0x00, 0x00, 0x00, 0x03, 0x00, 0x00, 0x00, 0x00, 0x00, 0x00, 0x00, 0x00,
 320:DMP/driver/eMPL/inv_mpu_dmp_motion_driver.c ****     0x40, 0x00, 0x00, 0x00, 0x00, 0x00, 0x00, 0x00, 0x00, 0x00, 0x00, 0x00, 0x00, 0x00, 0x00, 0x00,
 321:DMP/driver/eMPL/inv_mpu_dmp_motion_driver.c ****     0x00, 0x00, 0x00, 0x00, 0x00, 0x00, 0x00, 0x00, 0x00, 0x00, 0x00, 0x00, 0x00, 0x00, 0x00, 0x00,
 322:DMP/driver/eMPL/inv_mpu_dmp_motion_driver.c ****     0x00, 0x00, 0x00, 0x00, 0x00, 0x00, 0x00, 0x00, 0x00, 0x00, 0x00, 0x00, 0x00, 0x00, 0x00, 0x00,
 323:DMP/driver/eMPL/inv_mpu_dmp_motion_driver.c ****     0x00, 0x00, 0x00, 0x00, 0x67, 0x7d, 0xdf, 0x7e, 0x72, 0x90, 0x2e, 0x55, 0x4c, 0xf6, 0xe6, 0x88,
 324:DMP/driver/eMPL/inv_mpu_dmp_motion_driver.c ****     0x00, 0x00, 0x00, 0x00, 0x00, 0x00, 0x00, 0x00, 0x00, 0x00, 0x00, 0x00, 0x00, 0x00, 0x00, 0x00,
 325:DMP/driver/eMPL/inv_mpu_dmp_motion_driver.c **** 
 326:DMP/driver/eMPL/inv_mpu_dmp_motion_driver.c ****     /* bank # 4 */
 327:DMP/driver/eMPL/inv_mpu_dmp_motion_driver.c ****     0xd8, 0xdc, 0xb4, 0xb8, 0xb0, 0xd8, 0xb9, 0xab, 0xf3, 0xf8, 0xfa, 0xb3, 0xb7, 0xbb, 0x8e, 0x9e,
 328:DMP/driver/eMPL/inv_mpu_dmp_motion_driver.c ****     0xae, 0xf1, 0x32, 0xf5, 0x1b, 0xf1, 0xb4, 0xb8, 0xb0, 0x80, 0x97, 0xf1, 0xa9, 0xdf, 0xdf, 0xdf,
 329:DMP/driver/eMPL/inv_mpu_dmp_motion_driver.c ****     0xaa, 0xdf, 0xdf, 0xdf, 0xf2, 0xaa, 0xc5, 0xcd, 0xc7, 0xa9, 0x0c, 0xc9, 0x2c, 0x97, 0xf1, 0xa9,
 330:DMP/driver/eMPL/inv_mpu_dmp_motion_driver.c ****     0x89, 0x26, 0x46, 0x66, 0xb2, 0x89, 0x99, 0xa9, 0x2d, 0x55, 0x7d, 0xb0, 0xb0, 0x8a, 0xa8, 0x96,
 331:DMP/driver/eMPL/inv_mpu_dmp_motion_driver.c ****     0x36, 0x56, 0x76, 0xf1, 0xba, 0xa3, 0xb4, 0xb2, 0x80, 0xc0, 0xb8, 0xa8, 0x97, 0x11, 0xb2, 0x83,
 332:DMP/driver/eMPL/inv_mpu_dmp_motion_driver.c ****     0x98, 0xba, 0xa3, 0xf0, 0x24, 0x08, 0x44, 0x10, 0x64, 0x18, 0xb2, 0xb9, 0xb4, 0x98, 0x83, 0xf1,
 333:DMP/driver/eMPL/inv_mpu_dmp_motion_driver.c ****     0xa3, 0x29, 0x55, 0x7d, 0xba, 0xb5, 0xb1, 0xa3, 0x83, 0x93, 0xf0, 0x00, 0x28, 0x50, 0xf5, 0xb2,
 334:DMP/driver/eMPL/inv_mpu_dmp_motion_driver.c ****     0xb6, 0xaa, 0x83, 0x93, 0x28, 0x54, 0x7c, 0xf1, 0xb9, 0xa3, 0x82, 0x93, 0x61, 0xba, 0xa2, 0xda,
 335:DMP/driver/eMPL/inv_mpu_dmp_motion_driver.c ****     0xde, 0xdf, 0xdb, 0x81, 0x9a, 0xb9, 0xae, 0xf5, 0x60, 0x68, 0x70, 0xf1, 0xda, 0xba, 0xa2, 0xdf,
 336:DMP/driver/eMPL/inv_mpu_dmp_motion_driver.c ****     0xd9, 0xba, 0xa2, 0xfa, 0xb9, 0xa3, 0x82, 0x92, 0xdb, 0x31, 0xba, 0xa2, 0xd9, 0xba, 0xa2, 0xf8,
 337:DMP/driver/eMPL/inv_mpu_dmp_motion_driver.c ****     0xdf, 0x85, 0xa4, 0xd0, 0xc1, 0xbb, 0xad, 0x83, 0xc2, 0xc5, 0xc7, 0xb8, 0xa2, 0xdf, 0xdf, 0xdf,
 338:DMP/driver/eMPL/inv_mpu_dmp_motion_driver.c ****     0xba, 0xa0, 0xdf, 0xdf, 0xdf, 0xd8, 0xd8, 0xf1, 0xb8, 0xaa, 0xb3, 0x8d, 0xb4, 0x98, 0x0d, 0x35,
 339:DMP/driver/eMPL/inv_mpu_dmp_motion_driver.c ****     0x5d, 0xb2, 0xb6, 0xba, 0xaf, 0x8c, 0x96, 0x19, 0x8f, 0x9f, 0xa7, 0x0e, 0x16, 0x1e, 0xb4, 0x9a,
 340:DMP/driver/eMPL/inv_mpu_dmp_motion_driver.c ****     0xb8, 0xaa, 0x87, 0x2c, 0x54, 0x7c, 0xba, 0xa4, 0xb0, 0x8a, 0xb6, 0x91, 0x32, 0x56, 0x76, 0xb2,
 341:DMP/driver/eMPL/inv_mpu_dmp_motion_driver.c ****     0x84, 0x94, 0xa4, 0xc8, 0x08, 0xcd, 0xd8, 0xb8, 0xb4, 0xb0, 0xf1, 0x99, 0x82, 0xa8, 0x2d, 0x55,
 342:DMP/driver/eMPL/inv_mpu_dmp_motion_driver.c ****     0x7d, 0x98, 0xa8, 0x0e, 0x16, 0x1e, 0xa2, 0x2c, 0x54, 0x7c, 0x92, 0xa4, 0xf0, 0x2c, 0x50, 0x78,
 343:DMP/driver/eMPL/inv_mpu_dmp_motion_driver.c ****     /* bank # 5 */
 344:DMP/driver/eMPL/inv_mpu_dmp_motion_driver.c ****     0xf1, 0x84, 0xa8, 0x98, 0xc4, 0xcd, 0xfc, 0xd8, 0x0d, 0xdb, 0xa8, 0xfc, 0x2d, 0xf3, 0xd9, 0xba,
 345:DMP/driver/eMPL/inv_mpu_dmp_motion_driver.c ****     0xa6, 0xf8, 0xda, 0xba, 0xa6, 0xde, 0xd8, 0xba, 0xb2, 0xb6, 0x86, 0x96, 0xa6, 0xd0, 0xf3, 0xc8,
 346:DMP/driver/eMPL/inv_mpu_dmp_motion_driver.c ****     0x41, 0xda, 0xa6, 0xc8, 0xf8, 0xd8, 0xb0, 0xb4, 0xb8, 0x82, 0xa8, 0x92, 0xf5, 0x2c, 0x54, 0x88,
 347:DMP/driver/eMPL/inv_mpu_dmp_motion_driver.c ****     0x98, 0xf1, 0x35, 0xd9, 0xf4, 0x18, 0xd8, 0xf1, 0xa2, 0xd0, 0xf8, 0xf9, 0xa8, 0x84, 0xd9, 0xc7,
 348:DMP/driver/eMPL/inv_mpu_dmp_motion_driver.c ****     0xdf, 0xf8, 0xf8, 0x83, 0xc5, 0xda, 0xdf, 0x69, 0xdf, 0x83, 0xc1, 0xd8, 0xf4, 0x01, 0x14, 0xf1,
 349:DMP/driver/eMPL/inv_mpu_dmp_motion_driver.c ****     0xa8, 0x82, 0x4e, 0xa8, 0x84, 0xf3, 0x11, 0xd1, 0x82, 0xf5, 0xd9, 0x92, 0x28, 0x97, 0x88, 0xf1,
 350:DMP/driver/eMPL/inv_mpu_dmp_motion_driver.c ****     0x09, 0xf4, 0x1c, 0x1c, 0xd8, 0x84, 0xa8, 0xf3, 0xc0, 0xf9, 0xd1, 0xd9, 0x97, 0x82, 0xf1, 0x29,
 351:DMP/driver/eMPL/inv_mpu_dmp_motion_driver.c ****     0xf4, 0x0d, 0xd8, 0xf3, 0xf9, 0xf9, 0xd1, 0xd9, 0x82, 0xf4, 0xc2, 0x03, 0xd8, 0xde, 0xdf, 0x1a,
 352:DMP/driver/eMPL/inv_mpu_dmp_motion_driver.c ****     0xd8, 0xf1, 0xa2, 0xfa, 0xf9, 0xa8, 0x84, 0x98, 0xd9, 0xc7, 0xdf, 0xf8, 0xf8, 0xf8, 0x83, 0xc7,
 353:DMP/driver/eMPL/inv_mpu_dmp_motion_driver.c ****     0xda, 0xdf, 0x69, 0xdf, 0xf8, 0x83, 0xc3, 0xd8, 0xf4, 0x01, 0x14, 0xf1, 0x98, 0xa8, 0x82, 0x2e,
 354:DMP/driver/eMPL/inv_mpu_dmp_motion_driver.c ****     0xa8, 0x84, 0xf3, 0x11, 0xd1, 0x82, 0xf5, 0xd9, 0x92, 0x50, 0x97, 0x88, 0xf1, 0x09, 0xf4, 0x1c,
 355:DMP/driver/eMPL/inv_mpu_dmp_motion_driver.c ****     0xd8, 0x84, 0xa8, 0xf3, 0xc0, 0xf8, 0xf9, 0xd1, 0xd9, 0x97, 0x82, 0xf1, 0x49, 0xf4, 0x0d, 0xd8,
 356:DMP/driver/eMPL/inv_mpu_dmp_motion_driver.c ****     0xf3, 0xf9, 0xf9, 0xd1, 0xd9, 0x82, 0xf4, 0xc4, 0x03, 0xd8, 0xde, 0xdf, 0xd8, 0xf1, 0xad, 0x88,
 357:DMP/driver/eMPL/inv_mpu_dmp_motion_driver.c ****     0x98, 0xcc, 0xa8, 0x09, 0xf9, 0xd9, 0x82, 0x92, 0xa8, 0xf5, 0x7c, 0xf1, 0x88, 0x3a, 0xcf, 0x94,
 358:DMP/driver/eMPL/inv_mpu_dmp_motion_driver.c ****     0x4a, 0x6e, 0x98, 0xdb, 0x69, 0x31, 0xda, 0xad, 0xf2, 0xde, 0xf9, 0xd8, 0x87, 0x95, 0xa8, 0xf2,
 359:DMP/driver/eMPL/inv_mpu_dmp_motion_driver.c ****     0x21, 0xd1, 0xda, 0xa5, 0xf9, 0xf4, 0x17, 0xd9, 0xf1, 0xae, 0x8e, 0xd0, 0xc0, 0xc3, 0xae, 0x82,
 360:DMP/driver/eMPL/inv_mpu_dmp_motion_driver.c ****     /* bank # 6 */
 361:DMP/driver/eMPL/inv_mpu_dmp_motion_driver.c ****     0xc6, 0x84, 0xc3, 0xa8, 0x85, 0x95, 0xc8, 0xa5, 0x88, 0xf2, 0xc0, 0xf1, 0xf4, 0x01, 0x0e, 0xf1,
 362:DMP/driver/eMPL/inv_mpu_dmp_motion_driver.c ****     0x8e, 0x9e, 0xa8, 0xc6, 0x3e, 0x56, 0xf5, 0x54, 0xf1, 0x88, 0x72, 0xf4, 0x01, 0x15, 0xf1, 0x98,
 363:DMP/driver/eMPL/inv_mpu_dmp_motion_driver.c ****     0x45, 0x85, 0x6e, 0xf5, 0x8e, 0x9e, 0x04, 0x88, 0xf1, 0x42, 0x98, 0x5a, 0x8e, 0x9e, 0x06, 0x88,
 364:DMP/driver/eMPL/inv_mpu_dmp_motion_driver.c ****     0x69, 0xf4, 0x01, 0x1c, 0xf1, 0x98, 0x1e, 0x11, 0x08, 0xd0, 0xf5, 0x04, 0xf1, 0x1e, 0x97, 0x02,
 365:DMP/driver/eMPL/inv_mpu_dmp_motion_driver.c ****     0x02, 0x98, 0x36, 0x25, 0xdb, 0xf9, 0xd9, 0x85, 0xa5, 0xf3, 0xc1, 0xda, 0x85, 0xa5, 0xf3, 0xdf,
 366:DMP/driver/eMPL/inv_mpu_dmp_motion_driver.c ****     0xd8, 0x85, 0x95, 0xa8, 0xf3, 0x09, 0xda, 0xa5, 0xfa, 0xd8, 0x82, 0x92, 0xa8, 0xf5, 0x78, 0xf1,
 367:DMP/driver/eMPL/inv_mpu_dmp_motion_driver.c ****     0x88, 0x1a, 0x84, 0x9f, 0x26, 0x88, 0x98, 0x21, 0xda, 0xf4, 0x1d, 0xf3, 0xd8, 0x87, 0x9f, 0x39,
 368:DMP/driver/eMPL/inv_mpu_dmp_motion_driver.c ****     0xd1, 0xaf, 0xd9, 0xdf, 0xdf, 0xfb, 0xf9, 0xf4, 0x0c, 0xf3, 0xd8, 0xfa, 0xd0, 0xf8, 0xda, 0xf9,
 369:DMP/driver/eMPL/inv_mpu_dmp_motion_driver.c ****     0xf9, 0xd0, 0xdf, 0xd9, 0xf9, 0xd8, 0xf4, 0x0b, 0xd8, 0xf3, 0x87, 0x9f, 0x39, 0xd1, 0xaf, 0xd9,
 370:DMP/driver/eMPL/inv_mpu_dmp_motion_driver.c ****     0xdf, 0xdf, 0xf4, 0x1d, 0xf3, 0xd8, 0xfa, 0xfc, 0xa8, 0x69, 0xf9, 0xf9, 0xaf, 0xd0, 0xda, 0xde,
 371:DMP/driver/eMPL/inv_mpu_dmp_motion_driver.c ****     0xfa, 0xd9, 0xf8, 0x8f, 0x9f, 0xa8, 0xf1, 0xcc, 0xf3, 0x98, 0xdb, 0x45, 0xd9, 0xaf, 0xdf, 0xd0,
 372:DMP/driver/eMPL/inv_mpu_dmp_motion_driver.c ****     0xf8, 0xd8, 0xf1, 0x8f, 0x9f, 0xa8, 0xca, 0xf3, 0x88, 0x09, 0xda, 0xaf, 0x8f, 0xcb, 0xf8, 0xd8,
ARM GAS  /var/folders/21/t9g5rlb91ys800n5npymflf80000gn/T//ccWnr5oL.s 			page 8


 373:DMP/driver/eMPL/inv_mpu_dmp_motion_driver.c ****     0xf2, 0xad, 0x97, 0x8d, 0x0c, 0xd9, 0xa5, 0xdf, 0xf9, 0xba, 0xa6, 0xf3, 0xfa, 0xf4, 0x12, 0xf2,
 374:DMP/driver/eMPL/inv_mpu_dmp_motion_driver.c ****     0xd8, 0x95, 0x0d, 0xd1, 0xd9, 0xba, 0xa6, 0xf3, 0xfa, 0xda, 0xa5, 0xf2, 0xc1, 0xba, 0xa6, 0xf3,
 375:DMP/driver/eMPL/inv_mpu_dmp_motion_driver.c ****     0xdf, 0xd8, 0xf1, 0xba, 0xb2, 0xb6, 0x86, 0x96, 0xa6, 0xd0, 0xca, 0xf3, 0x49, 0xda, 0xa6, 0xcb,
 376:DMP/driver/eMPL/inv_mpu_dmp_motion_driver.c ****     0xf8, 0xd8, 0xb0, 0xb4, 0xb8, 0xd8, 0xad, 0x84, 0xf2, 0xc0, 0xdf, 0xf1, 0x8f, 0xcb, 0xc3, 0xa8,
 377:DMP/driver/eMPL/inv_mpu_dmp_motion_driver.c ****     /* bank # 7 */
 378:DMP/driver/eMPL/inv_mpu_dmp_motion_driver.c ****     0xb2, 0xb6, 0x86, 0x96, 0xc8, 0xc1, 0xcb, 0xc3, 0xf3, 0xb0, 0xb4, 0x88, 0x98, 0xa8, 0x21, 0xdb,
 379:DMP/driver/eMPL/inv_mpu_dmp_motion_driver.c ****     0x71, 0x8d, 0x9d, 0x71, 0x85, 0x95, 0x21, 0xd9, 0xad, 0xf2, 0xfa, 0xd8, 0x85, 0x97, 0xa8, 0x28,
 380:DMP/driver/eMPL/inv_mpu_dmp_motion_driver.c ****     0xd9, 0xf4, 0x08, 0xd8, 0xf2, 0x8d, 0x29, 0xda, 0xf4, 0x05, 0xd9, 0xf2, 0x85, 0xa4, 0xc2, 0xf2,
 381:DMP/driver/eMPL/inv_mpu_dmp_motion_driver.c ****     0xd8, 0xa8, 0x8d, 0x94, 0x01, 0xd1, 0xd9, 0xf4, 0x11, 0xf2, 0xd8, 0x87, 0x21, 0xd8, 0xf4, 0x0a,
 382:DMP/driver/eMPL/inv_mpu_dmp_motion_driver.c ****     0xd8, 0xf2, 0x84, 0x98, 0xa8, 0xc8, 0x01, 0xd1, 0xd9, 0xf4, 0x11, 0xd8, 0xf3, 0xa4, 0xc8, 0xbb,
 383:DMP/driver/eMPL/inv_mpu_dmp_motion_driver.c ****     0xaf, 0xd0, 0xf2, 0xde, 0xf8, 0xf8, 0xf8, 0xf8, 0xf8, 0xf8, 0xf8, 0xf8, 0xd8, 0xf1, 0xb8, 0xf6,
 384:DMP/driver/eMPL/inv_mpu_dmp_motion_driver.c ****     0xb5, 0xb9, 0xb0, 0x8a, 0x95, 0xa3, 0xde, 0x3c, 0xa3, 0xd9, 0xf8, 0xd8, 0x5c, 0xa3, 0xd9, 0xf8,
 385:DMP/driver/eMPL/inv_mpu_dmp_motion_driver.c ****     0xd8, 0x7c, 0xa3, 0xd9, 0xf8, 0xd8, 0xf8, 0xf9, 0xd1, 0xa5, 0xd9, 0xdf, 0xda, 0xfa, 0xd8, 0xb1,
 386:DMP/driver/eMPL/inv_mpu_dmp_motion_driver.c ****     0x85, 0x30, 0xf7, 0xd9, 0xde, 0xd8, 0xf8, 0x30, 0xad, 0xda, 0xde, 0xd8, 0xf2, 0xb4, 0x8c, 0x99,
 387:DMP/driver/eMPL/inv_mpu_dmp_motion_driver.c ****     0xa3, 0x2d, 0x55, 0x7d, 0xa0, 0x83, 0xdf, 0xdf, 0xdf, 0xb5, 0x91, 0xa0, 0xf6, 0x29, 0xd9, 0xfb,
 388:DMP/driver/eMPL/inv_mpu_dmp_motion_driver.c ****     0xd8, 0xa0, 0xfc, 0x29, 0xd9, 0xfa, 0xd8, 0xa0, 0xd0, 0x51, 0xd9, 0xf8, 0xd8, 0xfc, 0x51, 0xd9,
 389:DMP/driver/eMPL/inv_mpu_dmp_motion_driver.c ****     0xf9, 0xd8, 0x79, 0xd9, 0xfb, 0xd8, 0xa0, 0xd0, 0xfc, 0x79, 0xd9, 0xfa, 0xd8, 0xa1, 0xf9, 0xf9,
 390:DMP/driver/eMPL/inv_mpu_dmp_motion_driver.c ****     0xf9, 0xf9, 0xf9, 0xa0, 0xda, 0xdf, 0xdf, 0xdf, 0xd8, 0xa1, 0xf8, 0xf8, 0xf8, 0xf8, 0xf8, 0xac,
 391:DMP/driver/eMPL/inv_mpu_dmp_motion_driver.c ****     0xde, 0xf8, 0xad, 0xde, 0x83, 0x93, 0xac, 0x2c, 0x54, 0x7c, 0xf1, 0xa8, 0xdf, 0xdf, 0xdf, 0xf6,
 392:DMP/driver/eMPL/inv_mpu_dmp_motion_driver.c ****     0x9d, 0x2c, 0xda, 0xa0, 0xdf, 0xd9, 0xfa, 0xdb, 0x2d, 0xf8, 0xd8, 0xa8, 0x50, 0xda, 0xa0, 0xd0,
 393:DMP/driver/eMPL/inv_mpu_dmp_motion_driver.c ****     0xde, 0xd9, 0xd0, 0xf8, 0xf8, 0xf8, 0xdb, 0x55, 0xf8, 0xd8, 0xa8, 0x78, 0xda, 0xa0, 0xd0, 0xdf,
 394:DMP/driver/eMPL/inv_mpu_dmp_motion_driver.c ****     /* bank # 8 */
 395:DMP/driver/eMPL/inv_mpu_dmp_motion_driver.c ****     0xd9, 0xd0, 0xfa, 0xf8, 0xf8, 0xf8, 0xf8, 0xdb, 0x7d, 0xf8, 0xd8, 0x9c, 0xa8, 0x8c, 0xf5, 0x30,
 396:DMP/driver/eMPL/inv_mpu_dmp_motion_driver.c ****     0xdb, 0x38, 0xd9, 0xd0, 0xde, 0xdf, 0xa0, 0xd0, 0xde, 0xdf, 0xd8, 0xa8, 0x48, 0xdb, 0x58, 0xd9,
 397:DMP/driver/eMPL/inv_mpu_dmp_motion_driver.c ****     0xdf, 0xd0, 0xde, 0xa0, 0xdf, 0xd0, 0xde, 0xd8, 0xa8, 0x68, 0xdb, 0x70, 0xd9, 0xdf, 0xdf, 0xa0,
 398:DMP/driver/eMPL/inv_mpu_dmp_motion_driver.c ****     0xdf, 0xdf, 0xd8, 0xf1, 0xa8, 0x88, 0x90, 0x2c, 0x54, 0x7c, 0x98, 0xa8, 0xd0, 0x5c, 0x38, 0xd1,
 399:DMP/driver/eMPL/inv_mpu_dmp_motion_driver.c ****     0xda, 0xf2, 0xae, 0x8c, 0xdf, 0xf9, 0xd8, 0xb0, 0x87, 0xa8, 0xc1, 0xc1, 0xb1, 0x88, 0xa8, 0xc6,
 400:DMP/driver/eMPL/inv_mpu_dmp_motion_driver.c ****     0xf9, 0xf9, 0xda, 0x36, 0xd8, 0xa8, 0xf9, 0xda, 0x36, 0xd8, 0xa8, 0xf9, 0xda, 0x36, 0xd8, 0xa8,
 401:DMP/driver/eMPL/inv_mpu_dmp_motion_driver.c ****     0xf9, 0xda, 0x36, 0xd8, 0xa8, 0xf9, 0xda, 0x36, 0xd8, 0xf7, 0x8d, 0x9d, 0xad, 0xf8, 0x18, 0xda,
 402:DMP/driver/eMPL/inv_mpu_dmp_motion_driver.c ****     0xf2, 0xae, 0xdf, 0xd8, 0xf7, 0xad, 0xfa, 0x30, 0xd9, 0xa4, 0xde, 0xf9, 0xd8, 0xf2, 0xae, 0xde,
 403:DMP/driver/eMPL/inv_mpu_dmp_motion_driver.c ****     0xfa, 0xf9, 0x83, 0xa7, 0xd9, 0xc3, 0xc5, 0xc7, 0xf1, 0x88, 0x9b, 0xa7, 0x7a, 0xad, 0xf7, 0xde,
 404:DMP/driver/eMPL/inv_mpu_dmp_motion_driver.c ****     0xdf, 0xa4, 0xf8, 0x84, 0x94, 0x08, 0xa7, 0x97, 0xf3, 0x00, 0xae, 0xf2, 0x98, 0x19, 0xa4, 0x88,
 405:DMP/driver/eMPL/inv_mpu_dmp_motion_driver.c ****     0xc6, 0xa3, 0x94, 0x88, 0xf6, 0x32, 0xdf, 0xf2, 0x83, 0x93, 0xdb, 0x09, 0xd9, 0xf2, 0xaa, 0xdf,
 406:DMP/driver/eMPL/inv_mpu_dmp_motion_driver.c ****     0xd8, 0xd8, 0xae, 0xf8, 0xf9, 0xd1, 0xda, 0xf3, 0xa4, 0xde, 0xa7, 0xf1, 0x88, 0x9b, 0x7a, 0xd8,
 407:DMP/driver/eMPL/inv_mpu_dmp_motion_driver.c ****     0xf3, 0x84, 0x94, 0xae, 0x19, 0xf9, 0xda, 0xaa, 0xf1, 0xdf, 0xd8, 0xa8, 0x81, 0xc0, 0xc3, 0xc5,
 408:DMP/driver/eMPL/inv_mpu_dmp_motion_driver.c ****     0xc7, 0xa3, 0x92, 0x83, 0xf6, 0x28, 0xad, 0xde, 0xd9, 0xf8, 0xd8, 0xa3, 0x50, 0xad, 0xd9, 0xf8,
 409:DMP/driver/eMPL/inv_mpu_dmp_motion_driver.c ****     0xd8, 0xa3, 0x78, 0xad, 0xd9, 0xf8, 0xd8, 0xf8, 0xf9, 0xd1, 0xa1, 0xda, 0xde, 0xc3, 0xc5, 0xc7,
 410:DMP/driver/eMPL/inv_mpu_dmp_motion_driver.c ****     0xd8, 0xa1, 0x81, 0x94, 0xf8, 0x18, 0xf2, 0xb0, 0x89, 0xac, 0xc3, 0xc5, 0xc7, 0xf1, 0xd8, 0xb8,
 411:DMP/driver/eMPL/inv_mpu_dmp_motion_driver.c ****     /* bank # 9 */
 412:DMP/driver/eMPL/inv_mpu_dmp_motion_driver.c ****     0xb4, 0xb0, 0x97, 0x86, 0xa8, 0x31, 0x9b, 0x06, 0x99, 0x07, 0xab, 0x97, 0x28, 0x88, 0x9b, 0xf0,
 413:DMP/driver/eMPL/inv_mpu_dmp_motion_driver.c ****     0x0c, 0x20, 0x14, 0x40, 0xb0, 0xb4, 0xb8, 0xf0, 0xa8, 0x8a, 0x9a, 0x28, 0x50, 0x78, 0xb7, 0x9b,
 414:DMP/driver/eMPL/inv_mpu_dmp_motion_driver.c ****     0xa8, 0x29, 0x51, 0x79, 0x24, 0x70, 0x59, 0x44, 0x69, 0x38, 0x64, 0x48, 0x31, 0xf1, 0xbb, 0xab,
 415:DMP/driver/eMPL/inv_mpu_dmp_motion_driver.c ****     0x88, 0x00, 0x2c, 0x54, 0x7c, 0xf0, 0xb3, 0x8b, 0xb8, 0xa8, 0x04, 0x28, 0x50, 0x78, 0xf1, 0xb0,
 416:DMP/driver/eMPL/inv_mpu_dmp_motion_driver.c ****     0x88, 0xb4, 0x97, 0x26, 0xa8, 0x59, 0x98, 0xbb, 0xab, 0xb3, 0x8b, 0x02, 0x26, 0x46, 0x66, 0xb0,
 417:DMP/driver/eMPL/inv_mpu_dmp_motion_driver.c ****     0xb8, 0xf0, 0x8a, 0x9c, 0xa8, 0x29, 0x51, 0x79, 0x8b, 0x29, 0x51, 0x79, 0x8a, 0x24, 0x70, 0x59,
 418:DMP/driver/eMPL/inv_mpu_dmp_motion_driver.c ****     0x8b, 0x20, 0x58, 0x71, 0x8a, 0x44, 0x69, 0x38, 0x8b, 0x39, 0x40, 0x68, 0x8a, 0x64, 0x48, 0x31,
 419:DMP/driver/eMPL/inv_mpu_dmp_motion_driver.c ****     0x8b, 0x30, 0x49, 0x60, 0x88, 0xf1, 0xac, 0x00, 0x2c, 0x54, 0x7c, 0xf0, 0x8c, 0xa8, 0x04, 0x28,
 420:DMP/driver/eMPL/inv_mpu_dmp_motion_driver.c ****     0x50, 0x78, 0xf1, 0x88, 0x97, 0x26, 0xa8, 0x59, 0x98, 0xac, 0x8c, 0x02, 0x26, 0x46, 0x66, 0xf0,
 421:DMP/driver/eMPL/inv_mpu_dmp_motion_driver.c ****     0x89, 0x9c, 0xa8, 0x29, 0x51, 0x79, 0x24, 0x70, 0x59, 0x44, 0x69, 0x38, 0x64, 0x48, 0x31, 0xa9,
 422:DMP/driver/eMPL/inv_mpu_dmp_motion_driver.c ****     0x88, 0x09, 0x20, 0x59, 0x70, 0xab, 0x11, 0x38, 0x40, 0x69, 0xa8, 0x19, 0x31, 0x48, 0x60, 0x8c,
 423:DMP/driver/eMPL/inv_mpu_dmp_motion_driver.c ****     0xa8, 0x3c, 0x41, 0x5c, 0x20, 0x7c, 0x00, 0xf1, 0x87, 0x98, 0x19, 0x86, 0xa8, 0x6e, 0x76, 0x7e,
 424:DMP/driver/eMPL/inv_mpu_dmp_motion_driver.c ****     0xa9, 0x99, 0x88, 0x2d, 0x55, 0x7d, 0xd8, 0xb1, 0xb5, 0xb9, 0xa3, 0xdf, 0xdf, 0xdf, 0xae, 0xd0,
 425:DMP/driver/eMPL/inv_mpu_dmp_motion_driver.c ****     0xdf, 0xaa, 0xd0, 0xde, 0xf2, 0xab, 0xf8, 0xf9, 0xd9, 0xb0, 0x87, 0xc4, 0xaa, 0xf1, 0xdf, 0xdf,
 426:DMP/driver/eMPL/inv_mpu_dmp_motion_driver.c ****     0xbb, 0xaf, 0xdf, 0xdf, 0xb9, 0xd8, 0xb1, 0xf1, 0xa3, 0x97, 0x8e, 0x60, 0xdf, 0xb0, 0x84, 0xf2,
 427:DMP/driver/eMPL/inv_mpu_dmp_motion_driver.c ****     0xc8, 0xf8, 0xf9, 0xd9, 0xde, 0xd8, 0x93, 0x85, 0xf1, 0x4a, 0xb1, 0x83, 0xa3, 0x08, 0xb5, 0x83,
 428:DMP/driver/eMPL/inv_mpu_dmp_motion_driver.c ****     /* bank # 10 */
 429:DMP/driver/eMPL/inv_mpu_dmp_motion_driver.c ****     0x9a, 0x08, 0x10, 0xb7, 0x9f, 0x10, 0xd8, 0xf1, 0xb0, 0xba, 0xae, 0xb0, 0x8a, 0xc2, 0xb2, 0xb6,
ARM GAS  /var/folders/21/t9g5rlb91ys800n5npymflf80000gn/T//ccWnr5oL.s 			page 9


 430:DMP/driver/eMPL/inv_mpu_dmp_motion_driver.c ****     0x8e, 0x9e, 0xf1, 0xfb, 0xd9, 0xf4, 0x1d, 0xd8, 0xf9, 0xd9, 0x0c, 0xf1, 0xd8, 0xf8, 0xf8, 0xad,
 431:DMP/driver/eMPL/inv_mpu_dmp_motion_driver.c ****     0x61, 0xd9, 0xae, 0xfb, 0xd8, 0xf4, 0x0c, 0xf1, 0xd8, 0xf8, 0xf8, 0xad, 0x19, 0xd9, 0xae, 0xfb,
 432:DMP/driver/eMPL/inv_mpu_dmp_motion_driver.c ****     0xdf, 0xd8, 0xf4, 0x16, 0xf1, 0xd8, 0xf8, 0xad, 0x8d, 0x61, 0xd9, 0xf4, 0xf4, 0xac, 0xf5, 0x9c,
 433:DMP/driver/eMPL/inv_mpu_dmp_motion_driver.c ****     0x9c, 0x8d, 0xdf, 0x2b, 0xba, 0xb6, 0xae, 0xfa, 0xf8, 0xf4, 0x0b, 0xd8, 0xf1, 0xae, 0xd0, 0xf8,
 434:DMP/driver/eMPL/inv_mpu_dmp_motion_driver.c ****     0xad, 0x51, 0xda, 0xae, 0xfa, 0xf8, 0xf1, 0xd8, 0xb9, 0xb1, 0xb6, 0xa3, 0x83, 0x9c, 0x08, 0xb9,
 435:DMP/driver/eMPL/inv_mpu_dmp_motion_driver.c ****     0xb1, 0x83, 0x9a, 0xb5, 0xaa, 0xc0, 0xfd, 0x30, 0x83, 0xb7, 0x9f, 0x10, 0xb5, 0x8b, 0x93, 0xf2,
 436:DMP/driver/eMPL/inv_mpu_dmp_motion_driver.c ****     0x02, 0x02, 0xd1, 0xab, 0xda, 0xde, 0xd8, 0xf1, 0xb0, 0x80, 0xba, 0xab, 0xc0, 0xc3, 0xb2, 0x84,
 437:DMP/driver/eMPL/inv_mpu_dmp_motion_driver.c ****     0xc1, 0xc3, 0xd8, 0xb1, 0xb9, 0xf3, 0x8b, 0xa3, 0x91, 0xb6, 0x09, 0xb4, 0xd9, 0xab, 0xde, 0xb0,
 438:DMP/driver/eMPL/inv_mpu_dmp_motion_driver.c ****     0x87, 0x9c, 0xb9, 0xa3, 0xdd, 0xf1, 0xb3, 0x8b, 0x8b, 0x8b, 0x8b, 0x8b, 0xb0, 0x87, 0xa3, 0xa3,
 439:DMP/driver/eMPL/inv_mpu_dmp_motion_driver.c ****     0xa3, 0xa3, 0xb2, 0x8b, 0xb6, 0x9b, 0xf2, 0xa3, 0xa3, 0xa3, 0xa3, 0xa3, 0xa3, 0xa3, 0xa3, 0xa3,
 440:DMP/driver/eMPL/inv_mpu_dmp_motion_driver.c ****     0xa3, 0xf1, 0xb0, 0x87, 0xb5, 0x9a, 0xa3, 0xf3, 0x9b, 0xa3, 0xa3, 0xdc, 0xba, 0xac, 0xdf, 0xb9,
 441:DMP/driver/eMPL/inv_mpu_dmp_motion_driver.c ****     0xa3, 0xa3, 0xa3, 0xa3, 0xa3, 0xa3, 0xa3, 0xa3, 0xa3, 0xa3, 0xa3, 0xa3, 0xa3, 0xa3, 0xa3, 0xa3,
 442:DMP/driver/eMPL/inv_mpu_dmp_motion_driver.c ****     0xd8, 0xd8, 0xd8, 0xbb, 0xb3, 0xb7, 0xf1, 0xaa, 0xf9, 0xda, 0xff, 0xd9, 0x80, 0x9a, 0xaa, 0x28,
 443:DMP/driver/eMPL/inv_mpu_dmp_motion_driver.c ****     0xb4, 0x80, 0x98, 0xa7, 0x20, 0xb7, 0x97, 0x87, 0xa8, 0x66, 0x88, 0xf0, 0x79, 0x51, 0xf1, 0x90,
 444:DMP/driver/eMPL/inv_mpu_dmp_motion_driver.c ****     0x2c, 0x87, 0x0c, 0xa7, 0x81, 0x97, 0x62, 0x93, 0xf0, 0x71, 0x71, 0x60, 0x85, 0x94, 0x01, 0x29,
 445:DMP/driver/eMPL/inv_mpu_dmp_motion_driver.c ****     /* bank # 11 */
 446:DMP/driver/eMPL/inv_mpu_dmp_motion_driver.c ****     0x51, 0x79, 0x90, 0xa5, 0xf1, 0x28, 0x4c, 0x6c, 0x87, 0x0c, 0x95, 0x18, 0x85, 0x78, 0xa3, 0x83,
 447:DMP/driver/eMPL/inv_mpu_dmp_motion_driver.c ****     0x90, 0x28, 0x4c, 0x6c, 0x88, 0x6c, 0xd8, 0xf3, 0xa2, 0x82, 0x00, 0xf2, 0x10, 0xa8, 0x92, 0x19,
 448:DMP/driver/eMPL/inv_mpu_dmp_motion_driver.c ****     0x80, 0xa2, 0xf2, 0xd9, 0x26, 0xd8, 0xf1, 0x88, 0xa8, 0x4d, 0xd9, 0x48, 0xd8, 0x96, 0xa8, 0x39,
 449:DMP/driver/eMPL/inv_mpu_dmp_motion_driver.c ****     0x80, 0xd9, 0x3c, 0xd8, 0x95, 0x80, 0xa8, 0x39, 0xa6, 0x86, 0x98, 0xd9, 0x2c, 0xda, 0x87, 0xa7,
 450:DMP/driver/eMPL/inv_mpu_dmp_motion_driver.c ****     0x2c, 0xd8, 0xa8, 0x89, 0x95, 0x19, 0xa9, 0x80, 0xd9, 0x38, 0xd8, 0xa8, 0x89, 0x39, 0xa9, 0x80,
 451:DMP/driver/eMPL/inv_mpu_dmp_motion_driver.c ****     0xda, 0x3c, 0xd8, 0xa8, 0x2e, 0xa8, 0x39, 0x90, 0xd9, 0x0c, 0xd8, 0xa8, 0x95, 0x31, 0x98, 0xd9,
 452:DMP/driver/eMPL/inv_mpu_dmp_motion_driver.c ****     0x0c, 0xd8, 0xa8, 0x09, 0xd9, 0xff, 0xd8, 0x01, 0xda, 0xff, 0xd8, 0x95, 0x39, 0xa9, 0xda, 0x26,
 453:DMP/driver/eMPL/inv_mpu_dmp_motion_driver.c ****     0xff, 0xd8, 0x90, 0xa8, 0x0d, 0x89, 0x99, 0xa8, 0x10, 0x80, 0x98, 0x21, 0xda, 0x2e, 0xd8, 0x89,
 454:DMP/driver/eMPL/inv_mpu_dmp_motion_driver.c ****     0x99, 0xa8, 0x31, 0x80, 0xda, 0x2e, 0xd8, 0xa8, 0x86, 0x96, 0x31, 0x80, 0xda, 0x2e, 0xd8, 0xa8,
 455:DMP/driver/eMPL/inv_mpu_dmp_motion_driver.c ****     0x87, 0x31, 0x80, 0xda, 0x2e, 0xd8, 0xa8, 0x82, 0x92, 0xf3, 0x41, 0x80, 0xf1, 0xd9, 0x2e, 0xd8,
 456:DMP/driver/eMPL/inv_mpu_dmp_motion_driver.c ****     0xa8, 0x82, 0xf3, 0x19, 0x80, 0xf1, 0xd9, 0x2e, 0xd8, 0x82, 0xac, 0xf3, 0xc0, 0xa2, 0x80, 0x22,
 457:DMP/driver/eMPL/inv_mpu_dmp_motion_driver.c ****     0xf1, 0xa6, 0x2e, 0xa7, 0x2e, 0xa9, 0x22, 0x98, 0xa8, 0x29, 0xda, 0xac, 0xde, 0xff, 0xd8, 0xa2,
 458:DMP/driver/eMPL/inv_mpu_dmp_motion_driver.c ****     0xf2, 0x2a, 0xf1, 0xa9, 0x2e, 0x82, 0x92, 0xa8, 0xf2, 0x31, 0x80, 0xa6, 0x96, 0xf1, 0xd9, 0x00,
 459:DMP/driver/eMPL/inv_mpu_dmp_motion_driver.c ****     0xac, 0x8c, 0x9c, 0x0c, 0x30, 0xac, 0xde, 0xd0, 0xde, 0xff, 0xd8, 0x8c, 0x9c, 0xac, 0xd0, 0x10,
 460:DMP/driver/eMPL/inv_mpu_dmp_motion_driver.c ****     0xac, 0xde, 0x80, 0x92, 0xa2, 0xf2, 0x4c, 0x82, 0xa8, 0xf1, 0xca, 0xf2, 0x35, 0xf1, 0x96, 0x88,
 461:DMP/driver/eMPL/inv_mpu_dmp_motion_driver.c ****     0xa6, 0xd9, 0x00, 0xd8, 0xf1, 0xff
 462:DMP/driver/eMPL/inv_mpu_dmp_motion_driver.c **** };
 463:DMP/driver/eMPL/inv_mpu_dmp_motion_driver.c **** 
 464:DMP/driver/eMPL/inv_mpu_dmp_motion_driver.c **** static const unsigned short sStartAddress = 0x0400;
 465:DMP/driver/eMPL/inv_mpu_dmp_motion_driver.c **** 
 466:DMP/driver/eMPL/inv_mpu_dmp_motion_driver.c **** /* END OF SECTION COPIED FROM dmpDefaultMPU6050.c */
 467:DMP/driver/eMPL/inv_mpu_dmp_motion_driver.c **** 
 468:DMP/driver/eMPL/inv_mpu_dmp_motion_driver.c **** #define INT_SRC_TAP             (0x01)
 469:DMP/driver/eMPL/inv_mpu_dmp_motion_driver.c **** #define INT_SRC_ANDROID_ORIENT  (0x08)
 470:DMP/driver/eMPL/inv_mpu_dmp_motion_driver.c **** 
 471:DMP/driver/eMPL/inv_mpu_dmp_motion_driver.c **** #define DMP_FEATURE_SEND_ANY_GYRO   (DMP_FEATURE_SEND_RAW_GYRO | \
 472:DMP/driver/eMPL/inv_mpu_dmp_motion_driver.c ****                                      DMP_FEATURE_SEND_CAL_GYRO)
 473:DMP/driver/eMPL/inv_mpu_dmp_motion_driver.c **** 
 474:DMP/driver/eMPL/inv_mpu_dmp_motion_driver.c **** #define MAX_PACKET_LENGTH   (32)
 475:DMP/driver/eMPL/inv_mpu_dmp_motion_driver.c **** 
 476:DMP/driver/eMPL/inv_mpu_dmp_motion_driver.c **** #define DMP_SAMPLE_RATE     (200)
 477:DMP/driver/eMPL/inv_mpu_dmp_motion_driver.c **** #define GYRO_SF             (46850825LL * 200 / DMP_SAMPLE_RATE)
 478:DMP/driver/eMPL/inv_mpu_dmp_motion_driver.c **** 
 479:DMP/driver/eMPL/inv_mpu_dmp_motion_driver.c **** #define FIFO_CORRUPTION_CHECK
 480:DMP/driver/eMPL/inv_mpu_dmp_motion_driver.c **** #ifdef FIFO_CORRUPTION_CHECK
 481:DMP/driver/eMPL/inv_mpu_dmp_motion_driver.c **** #define QUAT_ERROR_THRESH       (1L<<24)
 482:DMP/driver/eMPL/inv_mpu_dmp_motion_driver.c **** #define QUAT_MAG_SQ_NORMALIZED  (1L<<28)
 483:DMP/driver/eMPL/inv_mpu_dmp_motion_driver.c **** #define QUAT_MAG_SQ_MIN         (QUAT_MAG_SQ_NORMALIZED - QUAT_ERROR_THRESH)
 484:DMP/driver/eMPL/inv_mpu_dmp_motion_driver.c **** #define QUAT_MAG_SQ_MAX         (QUAT_MAG_SQ_NORMALIZED + QUAT_ERROR_THRESH)
 485:DMP/driver/eMPL/inv_mpu_dmp_motion_driver.c **** #endif
 486:DMP/driver/eMPL/inv_mpu_dmp_motion_driver.c **** 
ARM GAS  /var/folders/21/t9g5rlb91ys800n5npymflf80000gn/T//ccWnr5oL.s 			page 10


 487:DMP/driver/eMPL/inv_mpu_dmp_motion_driver.c **** struct dmp_s {
 488:DMP/driver/eMPL/inv_mpu_dmp_motion_driver.c ****     void (*tap_cb)(unsigned char count, unsigned char direction);
 489:DMP/driver/eMPL/inv_mpu_dmp_motion_driver.c ****     void (*android_orient_cb)(unsigned char orientation);
 490:DMP/driver/eMPL/inv_mpu_dmp_motion_driver.c ****     unsigned short orient;
 491:DMP/driver/eMPL/inv_mpu_dmp_motion_driver.c ****     unsigned short feature_mask;
 492:DMP/driver/eMPL/inv_mpu_dmp_motion_driver.c ****     unsigned short fifo_rate;
 493:DMP/driver/eMPL/inv_mpu_dmp_motion_driver.c ****     unsigned char packet_length;
 494:DMP/driver/eMPL/inv_mpu_dmp_motion_driver.c **** };
 495:DMP/driver/eMPL/inv_mpu_dmp_motion_driver.c **** 
 496:DMP/driver/eMPL/inv_mpu_dmp_motion_driver.c **** static struct dmp_s dmp = {
 497:DMP/driver/eMPL/inv_mpu_dmp_motion_driver.c ****     .tap_cb = NULL,
 498:DMP/driver/eMPL/inv_mpu_dmp_motion_driver.c ****     .android_orient_cb = NULL,
 499:DMP/driver/eMPL/inv_mpu_dmp_motion_driver.c ****     .orient = 0,
 500:DMP/driver/eMPL/inv_mpu_dmp_motion_driver.c ****     .feature_mask = 0,
 501:DMP/driver/eMPL/inv_mpu_dmp_motion_driver.c ****     .fifo_rate = 0,
 502:DMP/driver/eMPL/inv_mpu_dmp_motion_driver.c ****     .packet_length = 0
 503:DMP/driver/eMPL/inv_mpu_dmp_motion_driver.c **** };
 504:DMP/driver/eMPL/inv_mpu_dmp_motion_driver.c **** 
 505:DMP/driver/eMPL/inv_mpu_dmp_motion_driver.c **** /**
 506:DMP/driver/eMPL/inv_mpu_dmp_motion_driver.c ****  *  @brief  Load the DMP with this image.
 507:DMP/driver/eMPL/inv_mpu_dmp_motion_driver.c ****  *  @return 0 if successful.
 508:DMP/driver/eMPL/inv_mpu_dmp_motion_driver.c ****  */
 509:DMP/driver/eMPL/inv_mpu_dmp_motion_driver.c **** int dmp_load_motion_driver_firmware(void)
 510:DMP/driver/eMPL/inv_mpu_dmp_motion_driver.c **** {
 511:DMP/driver/eMPL/inv_mpu_dmp_motion_driver.c ****     return mpu_load_firmware(DMP_CODE_SIZE, dmp_memory, sStartAddress,
 512:DMP/driver/eMPL/inv_mpu_dmp_motion_driver.c ****         DMP_SAMPLE_RATE);
 513:DMP/driver/eMPL/inv_mpu_dmp_motion_driver.c **** }
 514:DMP/driver/eMPL/inv_mpu_dmp_motion_driver.c **** 
 515:DMP/driver/eMPL/inv_mpu_dmp_motion_driver.c **** /**
 516:DMP/driver/eMPL/inv_mpu_dmp_motion_driver.c ****  *  @brief      Push gyro and accel orientation to the DMP.
 517:DMP/driver/eMPL/inv_mpu_dmp_motion_driver.c ****  *  The orientation is represented here as the output of
 518:DMP/driver/eMPL/inv_mpu_dmp_motion_driver.c ****  *  @e inv_orientation_matrix_to_scalar.
 519:DMP/driver/eMPL/inv_mpu_dmp_motion_driver.c ****  *  @param[in]  orient  Gyro and accel orientation in body frame.
 520:DMP/driver/eMPL/inv_mpu_dmp_motion_driver.c ****  *  @return     0 if successful.
 521:DMP/driver/eMPL/inv_mpu_dmp_motion_driver.c ****  */
 522:DMP/driver/eMPL/inv_mpu_dmp_motion_driver.c **** int dmp_set_orientation(unsigned short orient)
 523:DMP/driver/eMPL/inv_mpu_dmp_motion_driver.c **** {
 524:DMP/driver/eMPL/inv_mpu_dmp_motion_driver.c ****     unsigned char gyro_regs[3], accel_regs[3];
 525:DMP/driver/eMPL/inv_mpu_dmp_motion_driver.c ****     const unsigned char gyro_axes[3] = {DINA4C, DINACD, DINA6C};
 526:DMP/driver/eMPL/inv_mpu_dmp_motion_driver.c ****     const unsigned char accel_axes[3] = {DINA0C, DINAC9, DINA2C};
 527:DMP/driver/eMPL/inv_mpu_dmp_motion_driver.c ****     const unsigned char gyro_sign[3] = {DINA36, DINA56, DINA76};
 528:DMP/driver/eMPL/inv_mpu_dmp_motion_driver.c ****     const unsigned char accel_sign[3] = {DINA26, DINA46, DINA66};
 529:DMP/driver/eMPL/inv_mpu_dmp_motion_driver.c **** 
 530:DMP/driver/eMPL/inv_mpu_dmp_motion_driver.c ****     gyro_regs[0] = gyro_axes[orient & 3];
 531:DMP/driver/eMPL/inv_mpu_dmp_motion_driver.c ****     gyro_regs[1] = gyro_axes[(orient >> 3) & 3];
 532:DMP/driver/eMPL/inv_mpu_dmp_motion_driver.c ****     gyro_regs[2] = gyro_axes[(orient >> 6) & 3];
 533:DMP/driver/eMPL/inv_mpu_dmp_motion_driver.c ****     accel_regs[0] = accel_axes[orient & 3];
 534:DMP/driver/eMPL/inv_mpu_dmp_motion_driver.c ****     accel_regs[1] = accel_axes[(orient >> 3) & 3];
 535:DMP/driver/eMPL/inv_mpu_dmp_motion_driver.c ****     accel_regs[2] = accel_axes[(orient >> 6) & 3];
 536:DMP/driver/eMPL/inv_mpu_dmp_motion_driver.c **** 
 537:DMP/driver/eMPL/inv_mpu_dmp_motion_driver.c ****     /* Chip-to-body, axes only. */
 538:DMP/driver/eMPL/inv_mpu_dmp_motion_driver.c ****     if (mpu_write_mem(FCFG_1, 3, gyro_regs))
 539:DMP/driver/eMPL/inv_mpu_dmp_motion_driver.c ****         return -1;
 540:DMP/driver/eMPL/inv_mpu_dmp_motion_driver.c ****     if (mpu_write_mem(FCFG_2, 3, accel_regs))
 541:DMP/driver/eMPL/inv_mpu_dmp_motion_driver.c ****         return -1;
 542:DMP/driver/eMPL/inv_mpu_dmp_motion_driver.c **** 
 543:DMP/driver/eMPL/inv_mpu_dmp_motion_driver.c ****     memcpy(gyro_regs, gyro_sign, 3);
ARM GAS  /var/folders/21/t9g5rlb91ys800n5npymflf80000gn/T//ccWnr5oL.s 			page 11


 544:DMP/driver/eMPL/inv_mpu_dmp_motion_driver.c ****     memcpy(accel_regs, accel_sign, 3);
 545:DMP/driver/eMPL/inv_mpu_dmp_motion_driver.c ****     if (orient & 4) {
 546:DMP/driver/eMPL/inv_mpu_dmp_motion_driver.c ****         gyro_regs[0] |= 1;
 547:DMP/driver/eMPL/inv_mpu_dmp_motion_driver.c ****         accel_regs[0] |= 1;
 548:DMP/driver/eMPL/inv_mpu_dmp_motion_driver.c ****     }
 549:DMP/driver/eMPL/inv_mpu_dmp_motion_driver.c ****     if (orient & 0x20) {
 550:DMP/driver/eMPL/inv_mpu_dmp_motion_driver.c ****         gyro_regs[1] |= 1;
 551:DMP/driver/eMPL/inv_mpu_dmp_motion_driver.c ****         accel_regs[1] |= 1;
 552:DMP/driver/eMPL/inv_mpu_dmp_motion_driver.c ****     }
 553:DMP/driver/eMPL/inv_mpu_dmp_motion_driver.c ****     if (orient & 0x100) {
 554:DMP/driver/eMPL/inv_mpu_dmp_motion_driver.c ****         gyro_regs[2] |= 1;
 555:DMP/driver/eMPL/inv_mpu_dmp_motion_driver.c ****         accel_regs[2] |= 1;
 556:DMP/driver/eMPL/inv_mpu_dmp_motion_driver.c ****     }
 557:DMP/driver/eMPL/inv_mpu_dmp_motion_driver.c **** 
 558:DMP/driver/eMPL/inv_mpu_dmp_motion_driver.c ****     /* Chip-to-body, sign only. */
 559:DMP/driver/eMPL/inv_mpu_dmp_motion_driver.c ****     if (mpu_write_mem(FCFG_3, 3, gyro_regs))
 560:DMP/driver/eMPL/inv_mpu_dmp_motion_driver.c ****         return -1;
 561:DMP/driver/eMPL/inv_mpu_dmp_motion_driver.c ****     if (mpu_write_mem(FCFG_7, 3, accel_regs))
 562:DMP/driver/eMPL/inv_mpu_dmp_motion_driver.c ****         return -1;
 563:DMP/driver/eMPL/inv_mpu_dmp_motion_driver.c ****     dmp.orient = orient;
 564:DMP/driver/eMPL/inv_mpu_dmp_motion_driver.c ****     return 0;
 565:DMP/driver/eMPL/inv_mpu_dmp_motion_driver.c **** }
 566:DMP/driver/eMPL/inv_mpu_dmp_motion_driver.c **** 
 567:DMP/driver/eMPL/inv_mpu_dmp_motion_driver.c **** /**
 568:DMP/driver/eMPL/inv_mpu_dmp_motion_driver.c ****  *  @brief      Push gyro biases to the DMP.
 569:DMP/driver/eMPL/inv_mpu_dmp_motion_driver.c ****  *  Because the gyro integration is handled in the DMP, any gyro biases
 570:DMP/driver/eMPL/inv_mpu_dmp_motion_driver.c ****  *  calculated by the MPL should be pushed down to DMP memory to remove
 571:DMP/driver/eMPL/inv_mpu_dmp_motion_driver.c ****  *  3-axis quaternion drift.
 572:DMP/driver/eMPL/inv_mpu_dmp_motion_driver.c ****  *  \n NOTE: If the DMP-based gyro calibration is enabled, the DMP will
 573:DMP/driver/eMPL/inv_mpu_dmp_motion_driver.c ****  *  overwrite the biases written to this location once a new one is computed.
 574:DMP/driver/eMPL/inv_mpu_dmp_motion_driver.c ****  *  @param[in]  bias    Gyro biases in q16.
 575:DMP/driver/eMPL/inv_mpu_dmp_motion_driver.c ****  *  @return     0 if successful.
 576:DMP/driver/eMPL/inv_mpu_dmp_motion_driver.c ****  */
 577:DMP/driver/eMPL/inv_mpu_dmp_motion_driver.c **** int dmp_set_gyro_bias(long *bias)
 578:DMP/driver/eMPL/inv_mpu_dmp_motion_driver.c **** {
 579:DMP/driver/eMPL/inv_mpu_dmp_motion_driver.c ****     long gyro_bias_body[3];
 580:DMP/driver/eMPL/inv_mpu_dmp_motion_driver.c ****     unsigned char regs[4];
 581:DMP/driver/eMPL/inv_mpu_dmp_motion_driver.c **** 
 582:DMP/driver/eMPL/inv_mpu_dmp_motion_driver.c ****     gyro_bias_body[0] = bias[dmp.orient & 3];
 583:DMP/driver/eMPL/inv_mpu_dmp_motion_driver.c ****     if (dmp.orient & 4)
 584:DMP/driver/eMPL/inv_mpu_dmp_motion_driver.c ****         gyro_bias_body[0] *= -1;
 585:DMP/driver/eMPL/inv_mpu_dmp_motion_driver.c ****     gyro_bias_body[1] = bias[(dmp.orient >> 3) & 3];
 586:DMP/driver/eMPL/inv_mpu_dmp_motion_driver.c ****     if (dmp.orient & 0x20)
 587:DMP/driver/eMPL/inv_mpu_dmp_motion_driver.c ****         gyro_bias_body[1] *= -1;
 588:DMP/driver/eMPL/inv_mpu_dmp_motion_driver.c ****     gyro_bias_body[2] = bias[(dmp.orient >> 6) & 3];
 589:DMP/driver/eMPL/inv_mpu_dmp_motion_driver.c ****     if (dmp.orient & 0x100)
 590:DMP/driver/eMPL/inv_mpu_dmp_motion_driver.c ****         gyro_bias_body[2] *= -1;
 591:DMP/driver/eMPL/inv_mpu_dmp_motion_driver.c **** 
 592:DMP/driver/eMPL/inv_mpu_dmp_motion_driver.c **** #ifdef EMPL_NO_64BIT
 593:DMP/driver/eMPL/inv_mpu_dmp_motion_driver.c ****     gyro_bias_body[0] = (long)(((float)gyro_bias_body[0] * GYRO_SF) / 1073741824.f);
 594:DMP/driver/eMPL/inv_mpu_dmp_motion_driver.c ****     gyro_bias_body[1] = (long)(((float)gyro_bias_body[1] * GYRO_SF) / 1073741824.f);
 595:DMP/driver/eMPL/inv_mpu_dmp_motion_driver.c ****     gyro_bias_body[2] = (long)(((float)gyro_bias_body[2] * GYRO_SF) / 1073741824.f);
 596:DMP/driver/eMPL/inv_mpu_dmp_motion_driver.c **** #else
 597:DMP/driver/eMPL/inv_mpu_dmp_motion_driver.c ****     gyro_bias_body[0] = (long)(((long long)gyro_bias_body[0] * GYRO_SF) >> 30);
 598:DMP/driver/eMPL/inv_mpu_dmp_motion_driver.c ****     gyro_bias_body[1] = (long)(((long long)gyro_bias_body[1] * GYRO_SF) >> 30);
 599:DMP/driver/eMPL/inv_mpu_dmp_motion_driver.c ****     gyro_bias_body[2] = (long)(((long long)gyro_bias_body[2] * GYRO_SF) >> 30);
 600:DMP/driver/eMPL/inv_mpu_dmp_motion_driver.c **** #endif
ARM GAS  /var/folders/21/t9g5rlb91ys800n5npymflf80000gn/T//ccWnr5oL.s 			page 12


 601:DMP/driver/eMPL/inv_mpu_dmp_motion_driver.c **** 
 602:DMP/driver/eMPL/inv_mpu_dmp_motion_driver.c ****     regs[0] = (unsigned char)((gyro_bias_body[0] >> 24) & 0xFF);
 603:DMP/driver/eMPL/inv_mpu_dmp_motion_driver.c ****     regs[1] = (unsigned char)((gyro_bias_body[0] >> 16) & 0xFF);
 604:DMP/driver/eMPL/inv_mpu_dmp_motion_driver.c ****     regs[2] = (unsigned char)((gyro_bias_body[0] >> 8) & 0xFF);
 605:DMP/driver/eMPL/inv_mpu_dmp_motion_driver.c ****     regs[3] = (unsigned char)(gyro_bias_body[0] & 0xFF);
 606:DMP/driver/eMPL/inv_mpu_dmp_motion_driver.c ****     if (mpu_write_mem(D_EXT_GYRO_BIAS_X, 4, regs))
 607:DMP/driver/eMPL/inv_mpu_dmp_motion_driver.c ****         return -1;
 608:DMP/driver/eMPL/inv_mpu_dmp_motion_driver.c **** 
 609:DMP/driver/eMPL/inv_mpu_dmp_motion_driver.c ****     regs[0] = (unsigned char)((gyro_bias_body[1] >> 24) & 0xFF);
 610:DMP/driver/eMPL/inv_mpu_dmp_motion_driver.c ****     regs[1] = (unsigned char)((gyro_bias_body[1] >> 16) & 0xFF);
 611:DMP/driver/eMPL/inv_mpu_dmp_motion_driver.c ****     regs[2] = (unsigned char)((gyro_bias_body[1] >> 8) & 0xFF);
 612:DMP/driver/eMPL/inv_mpu_dmp_motion_driver.c ****     regs[3] = (unsigned char)(gyro_bias_body[1] & 0xFF);
 613:DMP/driver/eMPL/inv_mpu_dmp_motion_driver.c ****     if (mpu_write_mem(D_EXT_GYRO_BIAS_Y, 4, regs))
 614:DMP/driver/eMPL/inv_mpu_dmp_motion_driver.c ****         return -1;
 615:DMP/driver/eMPL/inv_mpu_dmp_motion_driver.c **** 
 616:DMP/driver/eMPL/inv_mpu_dmp_motion_driver.c ****     regs[0] = (unsigned char)((gyro_bias_body[2] >> 24) & 0xFF);
 617:DMP/driver/eMPL/inv_mpu_dmp_motion_driver.c ****     regs[1] = (unsigned char)((gyro_bias_body[2] >> 16) & 0xFF);
 618:DMP/driver/eMPL/inv_mpu_dmp_motion_driver.c ****     regs[2] = (unsigned char)((gyro_bias_body[2] >> 8) & 0xFF);
 619:DMP/driver/eMPL/inv_mpu_dmp_motion_driver.c ****     regs[3] = (unsigned char)(gyro_bias_body[2] & 0xFF);
 620:DMP/driver/eMPL/inv_mpu_dmp_motion_driver.c ****     return mpu_write_mem(D_EXT_GYRO_BIAS_Z, 4, regs);
 621:DMP/driver/eMPL/inv_mpu_dmp_motion_driver.c **** }
 622:DMP/driver/eMPL/inv_mpu_dmp_motion_driver.c **** 
 623:DMP/driver/eMPL/inv_mpu_dmp_motion_driver.c **** /**
 624:DMP/driver/eMPL/inv_mpu_dmp_motion_driver.c ****  *  @brief      Push accel biases to the DMP.
 625:DMP/driver/eMPL/inv_mpu_dmp_motion_driver.c ****  *  These biases will be removed from the DMP 6-axis quaternion.
 626:DMP/driver/eMPL/inv_mpu_dmp_motion_driver.c ****  *  @param[in]  bias    Accel biases in q16.
 627:DMP/driver/eMPL/inv_mpu_dmp_motion_driver.c ****  *  @return     0 if successful.
 628:DMP/driver/eMPL/inv_mpu_dmp_motion_driver.c ****  */
 629:DMP/driver/eMPL/inv_mpu_dmp_motion_driver.c **** int dmp_set_accel_bias(long *bias)
 630:DMP/driver/eMPL/inv_mpu_dmp_motion_driver.c **** {
 631:DMP/driver/eMPL/inv_mpu_dmp_motion_driver.c ****     long accel_bias_body[3];
 632:DMP/driver/eMPL/inv_mpu_dmp_motion_driver.c ****     unsigned char regs[12];
 633:DMP/driver/eMPL/inv_mpu_dmp_motion_driver.c ****     long long accel_sf;
 634:DMP/driver/eMPL/inv_mpu_dmp_motion_driver.c ****     unsigned short accel_sens;
 635:DMP/driver/eMPL/inv_mpu_dmp_motion_driver.c **** 
 636:DMP/driver/eMPL/inv_mpu_dmp_motion_driver.c ****     mpu_get_accel_sens(&accel_sens);
 637:DMP/driver/eMPL/inv_mpu_dmp_motion_driver.c ****     accel_sf = (long long)accel_sens << 15;
 638:DMP/driver/eMPL/inv_mpu_dmp_motion_driver.c ****     /*__no_operation();*/
 639:DMP/driver/eMPL/inv_mpu_dmp_motion_driver.c ****     __NOP();
 640:DMP/driver/eMPL/inv_mpu_dmp_motion_driver.c **** 
 641:DMP/driver/eMPL/inv_mpu_dmp_motion_driver.c ****     accel_bias_body[0] = bias[dmp.orient & 3];
 642:DMP/driver/eMPL/inv_mpu_dmp_motion_driver.c ****     if (dmp.orient & 4)
 643:DMP/driver/eMPL/inv_mpu_dmp_motion_driver.c ****         accel_bias_body[0] *= -1;
 644:DMP/driver/eMPL/inv_mpu_dmp_motion_driver.c ****     accel_bias_body[1] = bias[(dmp.orient >> 3) & 3];
 645:DMP/driver/eMPL/inv_mpu_dmp_motion_driver.c ****     if (dmp.orient & 0x20)
 646:DMP/driver/eMPL/inv_mpu_dmp_motion_driver.c ****         accel_bias_body[1] *= -1;
 647:DMP/driver/eMPL/inv_mpu_dmp_motion_driver.c ****     accel_bias_body[2] = bias[(dmp.orient >> 6) & 3];
 648:DMP/driver/eMPL/inv_mpu_dmp_motion_driver.c ****     if (dmp.orient & 0x100)
 649:DMP/driver/eMPL/inv_mpu_dmp_motion_driver.c ****         accel_bias_body[2] *= -1;
 650:DMP/driver/eMPL/inv_mpu_dmp_motion_driver.c **** 
 651:DMP/driver/eMPL/inv_mpu_dmp_motion_driver.c **** #ifdef EMPL_NO_64BIT
 652:DMP/driver/eMPL/inv_mpu_dmp_motion_driver.c ****     accel_bias_body[0] = (long)(((float)accel_bias_body[0] * accel_sf) / 1073741824.f);
 653:DMP/driver/eMPL/inv_mpu_dmp_motion_driver.c ****     accel_bias_body[1] = (long)(((float)accel_bias_body[1] * accel_sf) / 1073741824.f);
 654:DMP/driver/eMPL/inv_mpu_dmp_motion_driver.c ****     accel_bias_body[2] = (long)(((float)accel_bias_body[2] * accel_sf) / 1073741824.f);
 655:DMP/driver/eMPL/inv_mpu_dmp_motion_driver.c **** #else
 656:DMP/driver/eMPL/inv_mpu_dmp_motion_driver.c ****     accel_bias_body[0] = (long)(((long long)accel_bias_body[0] * accel_sf) >> 30);
 657:DMP/driver/eMPL/inv_mpu_dmp_motion_driver.c ****     accel_bias_body[1] = (long)(((long long)accel_bias_body[1] * accel_sf) >> 30);
ARM GAS  /var/folders/21/t9g5rlb91ys800n5npymflf80000gn/T//ccWnr5oL.s 			page 13


 658:DMP/driver/eMPL/inv_mpu_dmp_motion_driver.c ****     accel_bias_body[2] = (long)(((long long)accel_bias_body[2] * accel_sf) >> 30);
 659:DMP/driver/eMPL/inv_mpu_dmp_motion_driver.c **** #endif
 660:DMP/driver/eMPL/inv_mpu_dmp_motion_driver.c **** 
 661:DMP/driver/eMPL/inv_mpu_dmp_motion_driver.c ****     regs[0] = (unsigned char)((accel_bias_body[0] >> 24) & 0xFF);
 662:DMP/driver/eMPL/inv_mpu_dmp_motion_driver.c ****     regs[1] = (unsigned char)((accel_bias_body[0] >> 16) & 0xFF);
 663:DMP/driver/eMPL/inv_mpu_dmp_motion_driver.c ****     regs[2] = (unsigned char)((accel_bias_body[0] >> 8) & 0xFF);
 664:DMP/driver/eMPL/inv_mpu_dmp_motion_driver.c ****     regs[3] = (unsigned char)(accel_bias_body[0] & 0xFF);
 665:DMP/driver/eMPL/inv_mpu_dmp_motion_driver.c ****     regs[4] = (unsigned char)((accel_bias_body[1] >> 24) & 0xFF);
 666:DMP/driver/eMPL/inv_mpu_dmp_motion_driver.c ****     regs[5] = (unsigned char)((accel_bias_body[1] >> 16) & 0xFF);
 667:DMP/driver/eMPL/inv_mpu_dmp_motion_driver.c ****     regs[6] = (unsigned char)((accel_bias_body[1] >> 8) & 0xFF);
 668:DMP/driver/eMPL/inv_mpu_dmp_motion_driver.c ****     regs[7] = (unsigned char)(accel_bias_body[1] & 0xFF);
 669:DMP/driver/eMPL/inv_mpu_dmp_motion_driver.c ****     regs[8] = (unsigned char)((accel_bias_body[2] >> 24) & 0xFF);
 670:DMP/driver/eMPL/inv_mpu_dmp_motion_driver.c ****     regs[9] = (unsigned char)((accel_bias_body[2] >> 16) & 0xFF);
 671:DMP/driver/eMPL/inv_mpu_dmp_motion_driver.c ****     regs[10] = (unsigned char)((accel_bias_body[2] >> 8) & 0xFF);
 672:DMP/driver/eMPL/inv_mpu_dmp_motion_driver.c ****     regs[11] = (unsigned char)(accel_bias_body[2] & 0xFF);
 673:DMP/driver/eMPL/inv_mpu_dmp_motion_driver.c ****     return mpu_write_mem(D_ACCEL_BIAS, 12, regs);
 674:DMP/driver/eMPL/inv_mpu_dmp_motion_driver.c **** }
 675:DMP/driver/eMPL/inv_mpu_dmp_motion_driver.c **** 
 676:DMP/driver/eMPL/inv_mpu_dmp_motion_driver.c **** /**
 677:DMP/driver/eMPL/inv_mpu_dmp_motion_driver.c ****  *  @brief      Set DMP output rate.
 678:DMP/driver/eMPL/inv_mpu_dmp_motion_driver.c ****  *  Only used when DMP is on.
 679:DMP/driver/eMPL/inv_mpu_dmp_motion_driver.c ****  *  @param[in]  rate    Desired fifo rate (Hz).
 680:DMP/driver/eMPL/inv_mpu_dmp_motion_driver.c ****  *  @return     0 if successful.
 681:DMP/driver/eMPL/inv_mpu_dmp_motion_driver.c ****  */
 682:DMP/driver/eMPL/inv_mpu_dmp_motion_driver.c **** int dmp_set_fifo_rate(unsigned short rate)
 683:DMP/driver/eMPL/inv_mpu_dmp_motion_driver.c **** {
 684:DMP/driver/eMPL/inv_mpu_dmp_motion_driver.c ****     const unsigned char regs_end[12] = {DINAFE, DINAF2, DINAAB,
 685:DMP/driver/eMPL/inv_mpu_dmp_motion_driver.c ****         0xc4, DINAAA, DINAF1, DINADF, DINADF, 0xBB, 0xAF, DINADF, DINADF};
 686:DMP/driver/eMPL/inv_mpu_dmp_motion_driver.c ****     unsigned short div;
 687:DMP/driver/eMPL/inv_mpu_dmp_motion_driver.c ****     unsigned char tmp[8];
 688:DMP/driver/eMPL/inv_mpu_dmp_motion_driver.c **** 
 689:DMP/driver/eMPL/inv_mpu_dmp_motion_driver.c ****     if (rate > DMP_SAMPLE_RATE)
 690:DMP/driver/eMPL/inv_mpu_dmp_motion_driver.c ****         return -1;
 691:DMP/driver/eMPL/inv_mpu_dmp_motion_driver.c ****     div = DMP_SAMPLE_RATE / rate - 1;
 692:DMP/driver/eMPL/inv_mpu_dmp_motion_driver.c ****     tmp[0] = (unsigned char)((div >> 8) & 0xFF);
 693:DMP/driver/eMPL/inv_mpu_dmp_motion_driver.c ****     tmp[1] = (unsigned char)(div & 0xFF);
 694:DMP/driver/eMPL/inv_mpu_dmp_motion_driver.c ****     if (mpu_write_mem(D_0_22, 2, tmp))
 695:DMP/driver/eMPL/inv_mpu_dmp_motion_driver.c ****         return -1;
 696:DMP/driver/eMPL/inv_mpu_dmp_motion_driver.c ****     if (mpu_write_mem(CFG_6, 12, (unsigned char*)regs_end))
 697:DMP/driver/eMPL/inv_mpu_dmp_motion_driver.c ****         return -1;
 698:DMP/driver/eMPL/inv_mpu_dmp_motion_driver.c **** 
 699:DMP/driver/eMPL/inv_mpu_dmp_motion_driver.c ****     dmp.fifo_rate = rate;
 700:DMP/driver/eMPL/inv_mpu_dmp_motion_driver.c ****     return 0;
 701:DMP/driver/eMPL/inv_mpu_dmp_motion_driver.c **** }
 702:DMP/driver/eMPL/inv_mpu_dmp_motion_driver.c **** 
 703:DMP/driver/eMPL/inv_mpu_dmp_motion_driver.c **** /**
 704:DMP/driver/eMPL/inv_mpu_dmp_motion_driver.c ****  *  @brief      Get DMP output rate.
 705:DMP/driver/eMPL/inv_mpu_dmp_motion_driver.c ****  *  @param[out] rate    Current fifo rate (Hz).
 706:DMP/driver/eMPL/inv_mpu_dmp_motion_driver.c ****  *  @return     0 if successful.
 707:DMP/driver/eMPL/inv_mpu_dmp_motion_driver.c ****  */
 708:DMP/driver/eMPL/inv_mpu_dmp_motion_driver.c **** int dmp_get_fifo_rate(unsigned short *rate)
 709:DMP/driver/eMPL/inv_mpu_dmp_motion_driver.c **** {
 710:DMP/driver/eMPL/inv_mpu_dmp_motion_driver.c ****     rate[0] = dmp.fifo_rate;
 711:DMP/driver/eMPL/inv_mpu_dmp_motion_driver.c ****     return 0;
 712:DMP/driver/eMPL/inv_mpu_dmp_motion_driver.c **** }
 713:DMP/driver/eMPL/inv_mpu_dmp_motion_driver.c **** 
 714:DMP/driver/eMPL/inv_mpu_dmp_motion_driver.c **** /**
ARM GAS  /var/folders/21/t9g5rlb91ys800n5npymflf80000gn/T//ccWnr5oL.s 			page 14


 715:DMP/driver/eMPL/inv_mpu_dmp_motion_driver.c ****  *  @brief      Set tap threshold for a specific axis.
 716:DMP/driver/eMPL/inv_mpu_dmp_motion_driver.c ****  *  @param[in]  axis    1, 2, and 4 for XYZ accel, respectively.
 717:DMP/driver/eMPL/inv_mpu_dmp_motion_driver.c ****  *  @param[in]  thresh  Tap threshold, in mg/ms.
 718:DMP/driver/eMPL/inv_mpu_dmp_motion_driver.c ****  *  @return     0 if successful.
 719:DMP/driver/eMPL/inv_mpu_dmp_motion_driver.c ****  */
 720:DMP/driver/eMPL/inv_mpu_dmp_motion_driver.c **** int dmp_set_tap_thresh(unsigned char axis, unsigned short thresh)
 721:DMP/driver/eMPL/inv_mpu_dmp_motion_driver.c **** {
 722:DMP/driver/eMPL/inv_mpu_dmp_motion_driver.c ****     unsigned char tmp[4], accel_fsr;
 723:DMP/driver/eMPL/inv_mpu_dmp_motion_driver.c ****     float scaled_thresh;
 724:DMP/driver/eMPL/inv_mpu_dmp_motion_driver.c ****     unsigned short dmp_thresh, dmp_thresh_2;
 725:DMP/driver/eMPL/inv_mpu_dmp_motion_driver.c ****     if (!(axis & TAP_XYZ) || thresh > 1600)
 726:DMP/driver/eMPL/inv_mpu_dmp_motion_driver.c ****         return -1;
 727:DMP/driver/eMPL/inv_mpu_dmp_motion_driver.c **** 
 728:DMP/driver/eMPL/inv_mpu_dmp_motion_driver.c ****     scaled_thresh = (float)thresh / DMP_SAMPLE_RATE;
 729:DMP/driver/eMPL/inv_mpu_dmp_motion_driver.c **** 
 730:DMP/driver/eMPL/inv_mpu_dmp_motion_driver.c ****     mpu_get_accel_fsr(&accel_fsr);
 731:DMP/driver/eMPL/inv_mpu_dmp_motion_driver.c ****     switch (accel_fsr) {
 732:DMP/driver/eMPL/inv_mpu_dmp_motion_driver.c ****     case 2:
 733:DMP/driver/eMPL/inv_mpu_dmp_motion_driver.c ****         dmp_thresh = (unsigned short)(scaled_thresh * 16384);
 734:DMP/driver/eMPL/inv_mpu_dmp_motion_driver.c ****         /* dmp_thresh * 0.75 */
 735:DMP/driver/eMPL/inv_mpu_dmp_motion_driver.c ****         dmp_thresh_2 = (unsigned short)(scaled_thresh * 12288);
 736:DMP/driver/eMPL/inv_mpu_dmp_motion_driver.c ****         break;
 737:DMP/driver/eMPL/inv_mpu_dmp_motion_driver.c ****     case 4:
 738:DMP/driver/eMPL/inv_mpu_dmp_motion_driver.c ****         dmp_thresh = (unsigned short)(scaled_thresh * 8192);
 739:DMP/driver/eMPL/inv_mpu_dmp_motion_driver.c ****         /* dmp_thresh * 0.75 */
 740:DMP/driver/eMPL/inv_mpu_dmp_motion_driver.c ****         dmp_thresh_2 = (unsigned short)(scaled_thresh * 6144);
 741:DMP/driver/eMPL/inv_mpu_dmp_motion_driver.c ****         break;
 742:DMP/driver/eMPL/inv_mpu_dmp_motion_driver.c ****     case 8:
 743:DMP/driver/eMPL/inv_mpu_dmp_motion_driver.c ****         dmp_thresh = (unsigned short)(scaled_thresh * 4096);
 744:DMP/driver/eMPL/inv_mpu_dmp_motion_driver.c ****         /* dmp_thresh * 0.75 */
 745:DMP/driver/eMPL/inv_mpu_dmp_motion_driver.c ****         dmp_thresh_2 = (unsigned short)(scaled_thresh * 3072);
 746:DMP/driver/eMPL/inv_mpu_dmp_motion_driver.c ****         break;
 747:DMP/driver/eMPL/inv_mpu_dmp_motion_driver.c ****     case 16:
 748:DMP/driver/eMPL/inv_mpu_dmp_motion_driver.c ****         dmp_thresh = (unsigned short)(scaled_thresh * 2048);
 749:DMP/driver/eMPL/inv_mpu_dmp_motion_driver.c ****         /* dmp_thresh * 0.75 */
 750:DMP/driver/eMPL/inv_mpu_dmp_motion_driver.c ****         dmp_thresh_2 = (unsigned short)(scaled_thresh * 1536);
 751:DMP/driver/eMPL/inv_mpu_dmp_motion_driver.c ****         break;
 752:DMP/driver/eMPL/inv_mpu_dmp_motion_driver.c ****     default:
 753:DMP/driver/eMPL/inv_mpu_dmp_motion_driver.c ****         return -1;
 754:DMP/driver/eMPL/inv_mpu_dmp_motion_driver.c ****     }
 755:DMP/driver/eMPL/inv_mpu_dmp_motion_driver.c ****     tmp[0] = (unsigned char)(dmp_thresh >> 8);
 756:DMP/driver/eMPL/inv_mpu_dmp_motion_driver.c ****     tmp[1] = (unsigned char)(dmp_thresh & 0xFF);
 757:DMP/driver/eMPL/inv_mpu_dmp_motion_driver.c ****     tmp[2] = (unsigned char)(dmp_thresh_2 >> 8);
 758:DMP/driver/eMPL/inv_mpu_dmp_motion_driver.c ****     tmp[3] = (unsigned char)(dmp_thresh_2 & 0xFF);
 759:DMP/driver/eMPL/inv_mpu_dmp_motion_driver.c **** 
 760:DMP/driver/eMPL/inv_mpu_dmp_motion_driver.c ****     if (axis & TAP_X) {
 761:DMP/driver/eMPL/inv_mpu_dmp_motion_driver.c ****         if (mpu_write_mem(DMP_TAP_THX, 2, tmp))
 762:DMP/driver/eMPL/inv_mpu_dmp_motion_driver.c ****             return -1;
 763:DMP/driver/eMPL/inv_mpu_dmp_motion_driver.c ****         if (mpu_write_mem(D_1_36, 2, tmp+2))
 764:DMP/driver/eMPL/inv_mpu_dmp_motion_driver.c ****             return -1;
 765:DMP/driver/eMPL/inv_mpu_dmp_motion_driver.c ****     }
 766:DMP/driver/eMPL/inv_mpu_dmp_motion_driver.c ****     if (axis & TAP_Y) {
 767:DMP/driver/eMPL/inv_mpu_dmp_motion_driver.c ****         if (mpu_write_mem(DMP_TAP_THY, 2, tmp))
 768:DMP/driver/eMPL/inv_mpu_dmp_motion_driver.c ****             return -1;
 769:DMP/driver/eMPL/inv_mpu_dmp_motion_driver.c ****         if (mpu_write_mem(D_1_40, 2, tmp+2))
 770:DMP/driver/eMPL/inv_mpu_dmp_motion_driver.c ****             return -1;
 771:DMP/driver/eMPL/inv_mpu_dmp_motion_driver.c ****     }
ARM GAS  /var/folders/21/t9g5rlb91ys800n5npymflf80000gn/T//ccWnr5oL.s 			page 15


 772:DMP/driver/eMPL/inv_mpu_dmp_motion_driver.c ****     if (axis & TAP_Z) {
 773:DMP/driver/eMPL/inv_mpu_dmp_motion_driver.c ****         if (mpu_write_mem(DMP_TAP_THZ, 2, tmp))
 774:DMP/driver/eMPL/inv_mpu_dmp_motion_driver.c ****             return -1;
 775:DMP/driver/eMPL/inv_mpu_dmp_motion_driver.c ****         if (mpu_write_mem(D_1_44, 2, tmp+2))
 776:DMP/driver/eMPL/inv_mpu_dmp_motion_driver.c ****             return -1;
 777:DMP/driver/eMPL/inv_mpu_dmp_motion_driver.c ****     }
 778:DMP/driver/eMPL/inv_mpu_dmp_motion_driver.c ****     return 0;
 779:DMP/driver/eMPL/inv_mpu_dmp_motion_driver.c **** }
 780:DMP/driver/eMPL/inv_mpu_dmp_motion_driver.c **** 
 781:DMP/driver/eMPL/inv_mpu_dmp_motion_driver.c **** /**
 782:DMP/driver/eMPL/inv_mpu_dmp_motion_driver.c ****  *  @brief      Set which axes will register a tap.
 783:DMP/driver/eMPL/inv_mpu_dmp_motion_driver.c ****  *  @param[in]  axis    1, 2, and 4 for XYZ, respectively.
 784:DMP/driver/eMPL/inv_mpu_dmp_motion_driver.c ****  *  @return     0 if successful.
 785:DMP/driver/eMPL/inv_mpu_dmp_motion_driver.c ****  */
 786:DMP/driver/eMPL/inv_mpu_dmp_motion_driver.c **** int dmp_set_tap_axes(unsigned char axis)
 787:DMP/driver/eMPL/inv_mpu_dmp_motion_driver.c **** {
 788:DMP/driver/eMPL/inv_mpu_dmp_motion_driver.c ****     unsigned char tmp = 0;
 789:DMP/driver/eMPL/inv_mpu_dmp_motion_driver.c **** 
 790:DMP/driver/eMPL/inv_mpu_dmp_motion_driver.c ****     if (axis & TAP_X)
 791:DMP/driver/eMPL/inv_mpu_dmp_motion_driver.c ****         tmp |= 0x30;
 792:DMP/driver/eMPL/inv_mpu_dmp_motion_driver.c ****     if (axis & TAP_Y)
 793:DMP/driver/eMPL/inv_mpu_dmp_motion_driver.c ****         tmp |= 0x0C;
 794:DMP/driver/eMPL/inv_mpu_dmp_motion_driver.c ****     if (axis & TAP_Z)
 795:DMP/driver/eMPL/inv_mpu_dmp_motion_driver.c ****         tmp |= 0x03;
 796:DMP/driver/eMPL/inv_mpu_dmp_motion_driver.c ****     return mpu_write_mem(D_1_72, 1, &tmp);
 797:DMP/driver/eMPL/inv_mpu_dmp_motion_driver.c **** }
 798:DMP/driver/eMPL/inv_mpu_dmp_motion_driver.c **** 
 799:DMP/driver/eMPL/inv_mpu_dmp_motion_driver.c **** /**
 800:DMP/driver/eMPL/inv_mpu_dmp_motion_driver.c ****  *  @brief      Set minimum number of taps needed for an interrupt.
 801:DMP/driver/eMPL/inv_mpu_dmp_motion_driver.c ****  *  @param[in]  min_taps    Minimum consecutive taps (1-4).
 802:DMP/driver/eMPL/inv_mpu_dmp_motion_driver.c ****  *  @return     0 if successful.
 803:DMP/driver/eMPL/inv_mpu_dmp_motion_driver.c ****  */
 804:DMP/driver/eMPL/inv_mpu_dmp_motion_driver.c **** int dmp_set_tap_count(unsigned char min_taps)
 805:DMP/driver/eMPL/inv_mpu_dmp_motion_driver.c **** {
 806:DMP/driver/eMPL/inv_mpu_dmp_motion_driver.c ****     unsigned char tmp;
 807:DMP/driver/eMPL/inv_mpu_dmp_motion_driver.c **** 
 808:DMP/driver/eMPL/inv_mpu_dmp_motion_driver.c ****     if (min_taps < 1)
 809:DMP/driver/eMPL/inv_mpu_dmp_motion_driver.c ****         min_taps = 1;
 810:DMP/driver/eMPL/inv_mpu_dmp_motion_driver.c ****     else if (min_taps > 4)
 811:DMP/driver/eMPL/inv_mpu_dmp_motion_driver.c ****         min_taps = 4;
 812:DMP/driver/eMPL/inv_mpu_dmp_motion_driver.c **** 
 813:DMP/driver/eMPL/inv_mpu_dmp_motion_driver.c ****     tmp = min_taps - 1;
 814:DMP/driver/eMPL/inv_mpu_dmp_motion_driver.c ****     return mpu_write_mem(D_1_79, 1, &tmp);
 815:DMP/driver/eMPL/inv_mpu_dmp_motion_driver.c **** }
 816:DMP/driver/eMPL/inv_mpu_dmp_motion_driver.c **** 
 817:DMP/driver/eMPL/inv_mpu_dmp_motion_driver.c **** /**
 818:DMP/driver/eMPL/inv_mpu_dmp_motion_driver.c ****  *  @brief      Set length between valid taps.
 819:DMP/driver/eMPL/inv_mpu_dmp_motion_driver.c ****  *  @param[in]  time    Milliseconds between taps.
 820:DMP/driver/eMPL/inv_mpu_dmp_motion_driver.c ****  *  @return     0 if successful.
 821:DMP/driver/eMPL/inv_mpu_dmp_motion_driver.c ****  */
 822:DMP/driver/eMPL/inv_mpu_dmp_motion_driver.c **** int dmp_set_tap_time(unsigned short time)
 823:DMP/driver/eMPL/inv_mpu_dmp_motion_driver.c **** {
 824:DMP/driver/eMPL/inv_mpu_dmp_motion_driver.c ****     unsigned short dmp_time;
 825:DMP/driver/eMPL/inv_mpu_dmp_motion_driver.c ****     unsigned char tmp[2];
 826:DMP/driver/eMPL/inv_mpu_dmp_motion_driver.c **** 
 827:DMP/driver/eMPL/inv_mpu_dmp_motion_driver.c ****     dmp_time = time / (1000 / DMP_SAMPLE_RATE);
 828:DMP/driver/eMPL/inv_mpu_dmp_motion_driver.c ****     tmp[0] = (unsigned char)(dmp_time >> 8);
ARM GAS  /var/folders/21/t9g5rlb91ys800n5npymflf80000gn/T//ccWnr5oL.s 			page 16


 829:DMP/driver/eMPL/inv_mpu_dmp_motion_driver.c ****     tmp[1] = (unsigned char)(dmp_time & 0xFF);
 830:DMP/driver/eMPL/inv_mpu_dmp_motion_driver.c ****     return mpu_write_mem(DMP_TAPW_MIN, 2, tmp);
 831:DMP/driver/eMPL/inv_mpu_dmp_motion_driver.c **** }
 832:DMP/driver/eMPL/inv_mpu_dmp_motion_driver.c **** 
 833:DMP/driver/eMPL/inv_mpu_dmp_motion_driver.c **** /**
 834:DMP/driver/eMPL/inv_mpu_dmp_motion_driver.c ****  *  @brief      Set max time between taps to register as a multi-tap.
 835:DMP/driver/eMPL/inv_mpu_dmp_motion_driver.c ****  *  @param[in]  time    Max milliseconds between taps.
 836:DMP/driver/eMPL/inv_mpu_dmp_motion_driver.c ****  *  @return     0 if successful.
 837:DMP/driver/eMPL/inv_mpu_dmp_motion_driver.c ****  */
 838:DMP/driver/eMPL/inv_mpu_dmp_motion_driver.c **** int dmp_set_tap_time_multi(unsigned short time)
 839:DMP/driver/eMPL/inv_mpu_dmp_motion_driver.c **** {
 840:DMP/driver/eMPL/inv_mpu_dmp_motion_driver.c ****     unsigned short dmp_time;
 841:DMP/driver/eMPL/inv_mpu_dmp_motion_driver.c ****     unsigned char tmp[2];
 842:DMP/driver/eMPL/inv_mpu_dmp_motion_driver.c **** 
 843:DMP/driver/eMPL/inv_mpu_dmp_motion_driver.c ****     dmp_time = time / (1000 / DMP_SAMPLE_RATE);
 844:DMP/driver/eMPL/inv_mpu_dmp_motion_driver.c ****     tmp[0] = (unsigned char)(dmp_time >> 8);
 845:DMP/driver/eMPL/inv_mpu_dmp_motion_driver.c ****     tmp[1] = (unsigned char)(dmp_time & 0xFF);
 846:DMP/driver/eMPL/inv_mpu_dmp_motion_driver.c ****     return mpu_write_mem(D_1_218, 2, tmp);
 847:DMP/driver/eMPL/inv_mpu_dmp_motion_driver.c **** }
 848:DMP/driver/eMPL/inv_mpu_dmp_motion_driver.c **** 
 849:DMP/driver/eMPL/inv_mpu_dmp_motion_driver.c **** /**
 850:DMP/driver/eMPL/inv_mpu_dmp_motion_driver.c ****  *  @brief      Set shake rejection threshold.
 851:DMP/driver/eMPL/inv_mpu_dmp_motion_driver.c ****  *  If the DMP detects a gyro sample larger than @e thresh, taps are rejected.
 852:DMP/driver/eMPL/inv_mpu_dmp_motion_driver.c ****  *  @param[in]  sf      Gyro scale factor.
 853:DMP/driver/eMPL/inv_mpu_dmp_motion_driver.c ****  *  @param[in]  thresh  Gyro threshold in dps.
 854:DMP/driver/eMPL/inv_mpu_dmp_motion_driver.c ****  *  @return     0 if successful.
 855:DMP/driver/eMPL/inv_mpu_dmp_motion_driver.c ****  */
 856:DMP/driver/eMPL/inv_mpu_dmp_motion_driver.c **** int dmp_set_shake_reject_thresh(long sf, unsigned short thresh)
 857:DMP/driver/eMPL/inv_mpu_dmp_motion_driver.c **** {
 858:DMP/driver/eMPL/inv_mpu_dmp_motion_driver.c ****     unsigned char tmp[4];
 859:DMP/driver/eMPL/inv_mpu_dmp_motion_driver.c ****     long thresh_scaled = sf / 1000 * thresh;
 860:DMP/driver/eMPL/inv_mpu_dmp_motion_driver.c ****     tmp[0] = (unsigned char)(((long)thresh_scaled >> 24) & 0xFF);
 861:DMP/driver/eMPL/inv_mpu_dmp_motion_driver.c ****     tmp[1] = (unsigned char)(((long)thresh_scaled >> 16) & 0xFF);
 862:DMP/driver/eMPL/inv_mpu_dmp_motion_driver.c ****     tmp[2] = (unsigned char)(((long)thresh_scaled >> 8) & 0xFF);
 863:DMP/driver/eMPL/inv_mpu_dmp_motion_driver.c ****     tmp[3] = (unsigned char)((long)thresh_scaled & 0xFF);
 864:DMP/driver/eMPL/inv_mpu_dmp_motion_driver.c ****     return mpu_write_mem(D_1_92, 4, tmp);
 865:DMP/driver/eMPL/inv_mpu_dmp_motion_driver.c **** }
 866:DMP/driver/eMPL/inv_mpu_dmp_motion_driver.c **** 
 867:DMP/driver/eMPL/inv_mpu_dmp_motion_driver.c **** /**
 868:DMP/driver/eMPL/inv_mpu_dmp_motion_driver.c ****  *  @brief      Set shake rejection time.
 869:DMP/driver/eMPL/inv_mpu_dmp_motion_driver.c ****  *  Sets the length of time that the gyro must be outside of the threshold set
 870:DMP/driver/eMPL/inv_mpu_dmp_motion_driver.c ****  *  by @e gyro_set_shake_reject_thresh before taps are rejected. A mandatory
 871:DMP/driver/eMPL/inv_mpu_dmp_motion_driver.c ****  *  60 ms is added to this parameter.
 872:DMP/driver/eMPL/inv_mpu_dmp_motion_driver.c ****  *  @param[in]  time    Time in milliseconds.
 873:DMP/driver/eMPL/inv_mpu_dmp_motion_driver.c ****  *  @return     0 if successful.
 874:DMP/driver/eMPL/inv_mpu_dmp_motion_driver.c ****  */
 875:DMP/driver/eMPL/inv_mpu_dmp_motion_driver.c **** int dmp_set_shake_reject_time(unsigned short time)
 876:DMP/driver/eMPL/inv_mpu_dmp_motion_driver.c **** {
 877:DMP/driver/eMPL/inv_mpu_dmp_motion_driver.c ****     unsigned char tmp[2];
 878:DMP/driver/eMPL/inv_mpu_dmp_motion_driver.c **** 
 879:DMP/driver/eMPL/inv_mpu_dmp_motion_driver.c ****     time /= (1000 / DMP_SAMPLE_RATE);
 880:DMP/driver/eMPL/inv_mpu_dmp_motion_driver.c ****     tmp[0] = time >> 8;
 881:DMP/driver/eMPL/inv_mpu_dmp_motion_driver.c ****     tmp[1] = time & 0xFF;
 882:DMP/driver/eMPL/inv_mpu_dmp_motion_driver.c ****     return mpu_write_mem(D_1_90,2,tmp);
 883:DMP/driver/eMPL/inv_mpu_dmp_motion_driver.c **** }
 884:DMP/driver/eMPL/inv_mpu_dmp_motion_driver.c **** 
 885:DMP/driver/eMPL/inv_mpu_dmp_motion_driver.c **** /**
ARM GAS  /var/folders/21/t9g5rlb91ys800n5npymflf80000gn/T//ccWnr5oL.s 			page 17


 886:DMP/driver/eMPL/inv_mpu_dmp_motion_driver.c ****  *  @brief      Set shake rejection timeout.
 887:DMP/driver/eMPL/inv_mpu_dmp_motion_driver.c ****  *  Sets the length of time after a shake rejection that the gyro must stay
 888:DMP/driver/eMPL/inv_mpu_dmp_motion_driver.c ****  *  inside of the threshold before taps can be detected again. A mandatory
 889:DMP/driver/eMPL/inv_mpu_dmp_motion_driver.c ****  *  60 ms is added to this parameter.
 890:DMP/driver/eMPL/inv_mpu_dmp_motion_driver.c ****  *  @param[in]  time    Time in milliseconds.
 891:DMP/driver/eMPL/inv_mpu_dmp_motion_driver.c ****  *  @return     0 if successful.
 892:DMP/driver/eMPL/inv_mpu_dmp_motion_driver.c ****  */
 893:DMP/driver/eMPL/inv_mpu_dmp_motion_driver.c **** int dmp_set_shake_reject_timeout(unsigned short time)
 894:DMP/driver/eMPL/inv_mpu_dmp_motion_driver.c **** {
 895:DMP/driver/eMPL/inv_mpu_dmp_motion_driver.c ****     unsigned char tmp[2];
 896:DMP/driver/eMPL/inv_mpu_dmp_motion_driver.c **** 
 897:DMP/driver/eMPL/inv_mpu_dmp_motion_driver.c ****     time /= (1000 / DMP_SAMPLE_RATE);
 898:DMP/driver/eMPL/inv_mpu_dmp_motion_driver.c ****     tmp[0] = time >> 8;
 899:DMP/driver/eMPL/inv_mpu_dmp_motion_driver.c ****     tmp[1] = time & 0xFF;
 900:DMP/driver/eMPL/inv_mpu_dmp_motion_driver.c ****     return mpu_write_mem(D_1_88,2,tmp);
 901:DMP/driver/eMPL/inv_mpu_dmp_motion_driver.c **** }
 902:DMP/driver/eMPL/inv_mpu_dmp_motion_driver.c **** 
 903:DMP/driver/eMPL/inv_mpu_dmp_motion_driver.c **** /**
 904:DMP/driver/eMPL/inv_mpu_dmp_motion_driver.c ****  *  @brief      Get current step count.
 905:DMP/driver/eMPL/inv_mpu_dmp_motion_driver.c ****  *  @param[out] count   Number of steps detected.
 906:DMP/driver/eMPL/inv_mpu_dmp_motion_driver.c ****  *  @return     0 if successful.
 907:DMP/driver/eMPL/inv_mpu_dmp_motion_driver.c ****  */
 908:DMP/driver/eMPL/inv_mpu_dmp_motion_driver.c **** int dmp_get_pedometer_step_count(unsigned long *count)
 909:DMP/driver/eMPL/inv_mpu_dmp_motion_driver.c **** {
 910:DMP/driver/eMPL/inv_mpu_dmp_motion_driver.c ****     unsigned char tmp[4];
 911:DMP/driver/eMPL/inv_mpu_dmp_motion_driver.c ****     if (!count)
 912:DMP/driver/eMPL/inv_mpu_dmp_motion_driver.c ****         return -1;
 913:DMP/driver/eMPL/inv_mpu_dmp_motion_driver.c **** 
 914:DMP/driver/eMPL/inv_mpu_dmp_motion_driver.c ****     if (mpu_read_mem(D_PEDSTD_STEPCTR, 4, tmp))
 915:DMP/driver/eMPL/inv_mpu_dmp_motion_driver.c ****         return -1;
 916:DMP/driver/eMPL/inv_mpu_dmp_motion_driver.c **** 
 917:DMP/driver/eMPL/inv_mpu_dmp_motion_driver.c ****     count[0] = ((unsigned long)tmp[0] << 24) | ((unsigned long)tmp[1] << 16) |
 918:DMP/driver/eMPL/inv_mpu_dmp_motion_driver.c ****         ((unsigned long)tmp[2] << 8) | tmp[3];
 919:DMP/driver/eMPL/inv_mpu_dmp_motion_driver.c ****     return 0;
 920:DMP/driver/eMPL/inv_mpu_dmp_motion_driver.c **** }
 921:DMP/driver/eMPL/inv_mpu_dmp_motion_driver.c **** 
 922:DMP/driver/eMPL/inv_mpu_dmp_motion_driver.c **** /**
 923:DMP/driver/eMPL/inv_mpu_dmp_motion_driver.c ****  *  @brief      Overwrite current step count.
 924:DMP/driver/eMPL/inv_mpu_dmp_motion_driver.c ****  *  WARNING: This function writes to DMP memory and could potentially encounter
 925:DMP/driver/eMPL/inv_mpu_dmp_motion_driver.c ****  *  a race condition if called while the pedometer is enabled.
 926:DMP/driver/eMPL/inv_mpu_dmp_motion_driver.c ****  *  @param[in]  count   New step count.
 927:DMP/driver/eMPL/inv_mpu_dmp_motion_driver.c ****  *  @return     0 if successful.
 928:DMP/driver/eMPL/inv_mpu_dmp_motion_driver.c ****  */
 929:DMP/driver/eMPL/inv_mpu_dmp_motion_driver.c **** int dmp_set_pedometer_step_count(unsigned long count)
 930:DMP/driver/eMPL/inv_mpu_dmp_motion_driver.c **** {
 931:DMP/driver/eMPL/inv_mpu_dmp_motion_driver.c ****     unsigned char tmp[4];
 932:DMP/driver/eMPL/inv_mpu_dmp_motion_driver.c **** 
 933:DMP/driver/eMPL/inv_mpu_dmp_motion_driver.c ****     tmp[0] = (unsigned char)((count >> 24) & 0xFF);
 934:DMP/driver/eMPL/inv_mpu_dmp_motion_driver.c ****     tmp[1] = (unsigned char)((count >> 16) & 0xFF);
 935:DMP/driver/eMPL/inv_mpu_dmp_motion_driver.c ****     tmp[2] = (unsigned char)((count >> 8) & 0xFF);
 936:DMP/driver/eMPL/inv_mpu_dmp_motion_driver.c ****     tmp[3] = (unsigned char)(count & 0xFF);
 937:DMP/driver/eMPL/inv_mpu_dmp_motion_driver.c ****     return mpu_write_mem(D_PEDSTD_STEPCTR, 4, tmp);
 938:DMP/driver/eMPL/inv_mpu_dmp_motion_driver.c **** }
 939:DMP/driver/eMPL/inv_mpu_dmp_motion_driver.c **** 
 940:DMP/driver/eMPL/inv_mpu_dmp_motion_driver.c **** /**
 941:DMP/driver/eMPL/inv_mpu_dmp_motion_driver.c ****  *  @brief      Get duration of walking time.
 942:DMP/driver/eMPL/inv_mpu_dmp_motion_driver.c ****  *  @param[in]  time    Walk time in milliseconds.
ARM GAS  /var/folders/21/t9g5rlb91ys800n5npymflf80000gn/T//ccWnr5oL.s 			page 18


 943:DMP/driver/eMPL/inv_mpu_dmp_motion_driver.c ****  *  @return     0 if successful.
 944:DMP/driver/eMPL/inv_mpu_dmp_motion_driver.c ****  */
 945:DMP/driver/eMPL/inv_mpu_dmp_motion_driver.c **** int dmp_get_pedometer_walk_time(unsigned long *time)
 946:DMP/driver/eMPL/inv_mpu_dmp_motion_driver.c **** {
 947:DMP/driver/eMPL/inv_mpu_dmp_motion_driver.c ****     unsigned char tmp[4];
 948:DMP/driver/eMPL/inv_mpu_dmp_motion_driver.c ****     if (!time)
 949:DMP/driver/eMPL/inv_mpu_dmp_motion_driver.c ****         return -1;
 950:DMP/driver/eMPL/inv_mpu_dmp_motion_driver.c **** 
 951:DMP/driver/eMPL/inv_mpu_dmp_motion_driver.c ****     if (mpu_read_mem(D_PEDSTD_TIMECTR, 4, tmp))
 952:DMP/driver/eMPL/inv_mpu_dmp_motion_driver.c ****         return -1;
 953:DMP/driver/eMPL/inv_mpu_dmp_motion_driver.c **** 
 954:DMP/driver/eMPL/inv_mpu_dmp_motion_driver.c ****     time[0] = (((unsigned long)tmp[0] << 24) | ((unsigned long)tmp[1] << 16) |
 955:DMP/driver/eMPL/inv_mpu_dmp_motion_driver.c ****         ((unsigned long)tmp[2] << 8) | tmp[3]) * 20;
 956:DMP/driver/eMPL/inv_mpu_dmp_motion_driver.c ****     return 0;
 957:DMP/driver/eMPL/inv_mpu_dmp_motion_driver.c **** }
 958:DMP/driver/eMPL/inv_mpu_dmp_motion_driver.c **** 
 959:DMP/driver/eMPL/inv_mpu_dmp_motion_driver.c **** /**
 960:DMP/driver/eMPL/inv_mpu_dmp_motion_driver.c ****  *  @brief      Overwrite current walk time.
 961:DMP/driver/eMPL/inv_mpu_dmp_motion_driver.c ****  *  WARNING: This function writes to DMP memory and could potentially encounter
 962:DMP/driver/eMPL/inv_mpu_dmp_motion_driver.c ****  *  a race condition if called while the pedometer is enabled.
 963:DMP/driver/eMPL/inv_mpu_dmp_motion_driver.c ****  *  @param[in]  time    New walk time in milliseconds.
 964:DMP/driver/eMPL/inv_mpu_dmp_motion_driver.c ****  */
 965:DMP/driver/eMPL/inv_mpu_dmp_motion_driver.c **** int dmp_set_pedometer_walk_time(unsigned long time)
 966:DMP/driver/eMPL/inv_mpu_dmp_motion_driver.c **** {
 967:DMP/driver/eMPL/inv_mpu_dmp_motion_driver.c ****     unsigned char tmp[4];
 968:DMP/driver/eMPL/inv_mpu_dmp_motion_driver.c **** 
 969:DMP/driver/eMPL/inv_mpu_dmp_motion_driver.c ****     time /= 20;
 970:DMP/driver/eMPL/inv_mpu_dmp_motion_driver.c **** 
 971:DMP/driver/eMPL/inv_mpu_dmp_motion_driver.c ****     tmp[0] = (unsigned char)((time >> 24) & 0xFF);
 972:DMP/driver/eMPL/inv_mpu_dmp_motion_driver.c ****     tmp[1] = (unsigned char)((time >> 16) & 0xFF);
 973:DMP/driver/eMPL/inv_mpu_dmp_motion_driver.c ****     tmp[2] = (unsigned char)((time >> 8) & 0xFF);
 974:DMP/driver/eMPL/inv_mpu_dmp_motion_driver.c ****     tmp[3] = (unsigned char)(time & 0xFF);
 975:DMP/driver/eMPL/inv_mpu_dmp_motion_driver.c ****     return mpu_write_mem(D_PEDSTD_TIMECTR, 4, tmp);
 976:DMP/driver/eMPL/inv_mpu_dmp_motion_driver.c **** }
 977:DMP/driver/eMPL/inv_mpu_dmp_motion_driver.c **** 
 978:DMP/driver/eMPL/inv_mpu_dmp_motion_driver.c **** /**
 979:DMP/driver/eMPL/inv_mpu_dmp_motion_driver.c ****  *  @brief      Enable DMP features.
 980:DMP/driver/eMPL/inv_mpu_dmp_motion_driver.c ****  *  The following \#define's are used in the input mask:
 981:DMP/driver/eMPL/inv_mpu_dmp_motion_driver.c ****  *  \n DMP_FEATURE_TAP
 982:DMP/driver/eMPL/inv_mpu_dmp_motion_driver.c ****  *  \n DMP_FEATURE_ANDROID_ORIENT
 983:DMP/driver/eMPL/inv_mpu_dmp_motion_driver.c ****  *  \n DMP_FEATURE_LP_QUAT
 984:DMP/driver/eMPL/inv_mpu_dmp_motion_driver.c ****  *  \n DMP_FEATURE_6X_LP_QUAT
 985:DMP/driver/eMPL/inv_mpu_dmp_motion_driver.c ****  *  \n DMP_FEATURE_GYRO_CAL
 986:DMP/driver/eMPL/inv_mpu_dmp_motion_driver.c ****  *  \n DMP_FEATURE_SEND_RAW_ACCEL
 987:DMP/driver/eMPL/inv_mpu_dmp_motion_driver.c ****  *  \n DMP_FEATURE_SEND_RAW_GYRO
 988:DMP/driver/eMPL/inv_mpu_dmp_motion_driver.c ****  *  \n NOTE: DMP_FEATURE_LP_QUAT and DMP_FEATURE_6X_LP_QUAT are mutually
 989:DMP/driver/eMPL/inv_mpu_dmp_motion_driver.c ****  *  exclusive.
 990:DMP/driver/eMPL/inv_mpu_dmp_motion_driver.c ****  *  \n NOTE: DMP_FEATURE_SEND_RAW_GYRO and DMP_FEATURE_SEND_CAL_GYRO are also
 991:DMP/driver/eMPL/inv_mpu_dmp_motion_driver.c ****  *  mutually exclusive.
 992:DMP/driver/eMPL/inv_mpu_dmp_motion_driver.c ****  *  @param[in]  mask    Mask of features to enable.
 993:DMP/driver/eMPL/inv_mpu_dmp_motion_driver.c ****  *  @return     0 if successful.
 994:DMP/driver/eMPL/inv_mpu_dmp_motion_driver.c ****  */
 995:DMP/driver/eMPL/inv_mpu_dmp_motion_driver.c **** int dmp_enable_feature(unsigned short mask)
 996:DMP/driver/eMPL/inv_mpu_dmp_motion_driver.c **** {
 997:DMP/driver/eMPL/inv_mpu_dmp_motion_driver.c ****     unsigned char tmp[10];
 998:DMP/driver/eMPL/inv_mpu_dmp_motion_driver.c **** 
 999:DMP/driver/eMPL/inv_mpu_dmp_motion_driver.c ****     /* TODO: All of these settings can probably be integrated into the default
ARM GAS  /var/folders/21/t9g5rlb91ys800n5npymflf80000gn/T//ccWnr5oL.s 			page 19


1000:DMP/driver/eMPL/inv_mpu_dmp_motion_driver.c ****      * DMP image.
1001:DMP/driver/eMPL/inv_mpu_dmp_motion_driver.c ****      */
1002:DMP/driver/eMPL/inv_mpu_dmp_motion_driver.c ****     /* Set integration scale factor. */
1003:DMP/driver/eMPL/inv_mpu_dmp_motion_driver.c ****     tmp[0] = (unsigned char)((GYRO_SF >> 24) & 0xFF);
1004:DMP/driver/eMPL/inv_mpu_dmp_motion_driver.c ****     tmp[1] = (unsigned char)((GYRO_SF >> 16) & 0xFF);
1005:DMP/driver/eMPL/inv_mpu_dmp_motion_driver.c ****     tmp[2] = (unsigned char)((GYRO_SF >> 8) & 0xFF);
1006:DMP/driver/eMPL/inv_mpu_dmp_motion_driver.c ****     tmp[3] = (unsigned char)(GYRO_SF & 0xFF);
1007:DMP/driver/eMPL/inv_mpu_dmp_motion_driver.c ****     mpu_write_mem(D_0_104, 4, tmp);
1008:DMP/driver/eMPL/inv_mpu_dmp_motion_driver.c **** 
1009:DMP/driver/eMPL/inv_mpu_dmp_motion_driver.c ****     /* Send sensor data to the FIFO. */
1010:DMP/driver/eMPL/inv_mpu_dmp_motion_driver.c ****     tmp[0] = 0xA3;
1011:DMP/driver/eMPL/inv_mpu_dmp_motion_driver.c ****     if (mask & DMP_FEATURE_SEND_RAW_ACCEL) {
1012:DMP/driver/eMPL/inv_mpu_dmp_motion_driver.c ****         tmp[1] = 0xC0;
1013:DMP/driver/eMPL/inv_mpu_dmp_motion_driver.c ****         tmp[2] = 0xC8;
1014:DMP/driver/eMPL/inv_mpu_dmp_motion_driver.c ****         tmp[3] = 0xC2;
1015:DMP/driver/eMPL/inv_mpu_dmp_motion_driver.c ****     } else {
1016:DMP/driver/eMPL/inv_mpu_dmp_motion_driver.c ****         tmp[1] = 0xA3;
1017:DMP/driver/eMPL/inv_mpu_dmp_motion_driver.c ****         tmp[2] = 0xA3;
1018:DMP/driver/eMPL/inv_mpu_dmp_motion_driver.c ****         tmp[3] = 0xA3;
1019:DMP/driver/eMPL/inv_mpu_dmp_motion_driver.c ****     }
1020:DMP/driver/eMPL/inv_mpu_dmp_motion_driver.c ****     if (mask & DMP_FEATURE_SEND_ANY_GYRO) {
1021:DMP/driver/eMPL/inv_mpu_dmp_motion_driver.c ****         tmp[4] = 0xC4;
1022:DMP/driver/eMPL/inv_mpu_dmp_motion_driver.c ****         tmp[5] = 0xCC;
1023:DMP/driver/eMPL/inv_mpu_dmp_motion_driver.c ****         tmp[6] = 0xC6;
1024:DMP/driver/eMPL/inv_mpu_dmp_motion_driver.c ****     } else {
1025:DMP/driver/eMPL/inv_mpu_dmp_motion_driver.c ****         tmp[4] = 0xA3;
1026:DMP/driver/eMPL/inv_mpu_dmp_motion_driver.c ****         tmp[5] = 0xA3;
1027:DMP/driver/eMPL/inv_mpu_dmp_motion_driver.c ****         tmp[6] = 0xA3;
1028:DMP/driver/eMPL/inv_mpu_dmp_motion_driver.c ****     }
1029:DMP/driver/eMPL/inv_mpu_dmp_motion_driver.c ****     tmp[7] = 0xA3;
1030:DMP/driver/eMPL/inv_mpu_dmp_motion_driver.c ****     tmp[8] = 0xA3;
1031:DMP/driver/eMPL/inv_mpu_dmp_motion_driver.c ****     tmp[9] = 0xA3;
1032:DMP/driver/eMPL/inv_mpu_dmp_motion_driver.c ****     mpu_write_mem(CFG_15,10,tmp);
1033:DMP/driver/eMPL/inv_mpu_dmp_motion_driver.c **** 
1034:DMP/driver/eMPL/inv_mpu_dmp_motion_driver.c ****     /* Send gesture data to the FIFO. */
1035:DMP/driver/eMPL/inv_mpu_dmp_motion_driver.c ****     if (mask & (DMP_FEATURE_TAP | DMP_FEATURE_ANDROID_ORIENT))
1036:DMP/driver/eMPL/inv_mpu_dmp_motion_driver.c ****         tmp[0] = DINA20;
1037:DMP/driver/eMPL/inv_mpu_dmp_motion_driver.c ****     else
1038:DMP/driver/eMPL/inv_mpu_dmp_motion_driver.c ****         tmp[0] = 0xD8;
1039:DMP/driver/eMPL/inv_mpu_dmp_motion_driver.c ****     mpu_write_mem(CFG_27,1,tmp);
1040:DMP/driver/eMPL/inv_mpu_dmp_motion_driver.c **** 
1041:DMP/driver/eMPL/inv_mpu_dmp_motion_driver.c ****     if (mask & DMP_FEATURE_GYRO_CAL)
1042:DMP/driver/eMPL/inv_mpu_dmp_motion_driver.c ****         dmp_enable_gyro_cal(1);
1043:DMP/driver/eMPL/inv_mpu_dmp_motion_driver.c ****     else
1044:DMP/driver/eMPL/inv_mpu_dmp_motion_driver.c ****         dmp_enable_gyro_cal(0);
1045:DMP/driver/eMPL/inv_mpu_dmp_motion_driver.c **** 
1046:DMP/driver/eMPL/inv_mpu_dmp_motion_driver.c ****     if (mask & DMP_FEATURE_SEND_ANY_GYRO) {
1047:DMP/driver/eMPL/inv_mpu_dmp_motion_driver.c ****         if (mask & DMP_FEATURE_SEND_CAL_GYRO) {
1048:DMP/driver/eMPL/inv_mpu_dmp_motion_driver.c ****             tmp[0] = 0xB2;
1049:DMP/driver/eMPL/inv_mpu_dmp_motion_driver.c ****             tmp[1] = 0x8B;
1050:DMP/driver/eMPL/inv_mpu_dmp_motion_driver.c ****             tmp[2] = 0xB6;
1051:DMP/driver/eMPL/inv_mpu_dmp_motion_driver.c ****             tmp[3] = 0x9B;
1052:DMP/driver/eMPL/inv_mpu_dmp_motion_driver.c ****         } else {
1053:DMP/driver/eMPL/inv_mpu_dmp_motion_driver.c ****             tmp[0] = DINAC0;
1054:DMP/driver/eMPL/inv_mpu_dmp_motion_driver.c ****             tmp[1] = DINA80;
1055:DMP/driver/eMPL/inv_mpu_dmp_motion_driver.c ****             tmp[2] = DINAC2;
1056:DMP/driver/eMPL/inv_mpu_dmp_motion_driver.c ****             tmp[3] = DINA90;
ARM GAS  /var/folders/21/t9g5rlb91ys800n5npymflf80000gn/T//ccWnr5oL.s 			page 20


1057:DMP/driver/eMPL/inv_mpu_dmp_motion_driver.c ****         }
1058:DMP/driver/eMPL/inv_mpu_dmp_motion_driver.c ****         mpu_write_mem(CFG_GYRO_RAW_DATA, 4, tmp);
1059:DMP/driver/eMPL/inv_mpu_dmp_motion_driver.c ****     }
1060:DMP/driver/eMPL/inv_mpu_dmp_motion_driver.c **** 
1061:DMP/driver/eMPL/inv_mpu_dmp_motion_driver.c ****     if (mask & DMP_FEATURE_TAP) {
1062:DMP/driver/eMPL/inv_mpu_dmp_motion_driver.c ****         /* Enable tap. */
1063:DMP/driver/eMPL/inv_mpu_dmp_motion_driver.c ****         tmp[0] = 0xF8;
1064:DMP/driver/eMPL/inv_mpu_dmp_motion_driver.c ****         mpu_write_mem(CFG_20, 1, tmp);
1065:DMP/driver/eMPL/inv_mpu_dmp_motion_driver.c ****         dmp_set_tap_thresh(TAP_XYZ, 250);
1066:DMP/driver/eMPL/inv_mpu_dmp_motion_driver.c ****         dmp_set_tap_axes(TAP_XYZ);
1067:DMP/driver/eMPL/inv_mpu_dmp_motion_driver.c ****         dmp_set_tap_count(1);
1068:DMP/driver/eMPL/inv_mpu_dmp_motion_driver.c ****         dmp_set_tap_time(100);
1069:DMP/driver/eMPL/inv_mpu_dmp_motion_driver.c ****         dmp_set_tap_time_multi(500);
1070:DMP/driver/eMPL/inv_mpu_dmp_motion_driver.c **** 
1071:DMP/driver/eMPL/inv_mpu_dmp_motion_driver.c ****         dmp_set_shake_reject_thresh(GYRO_SF, 200);
1072:DMP/driver/eMPL/inv_mpu_dmp_motion_driver.c ****         dmp_set_shake_reject_time(40);
1073:DMP/driver/eMPL/inv_mpu_dmp_motion_driver.c ****         dmp_set_shake_reject_timeout(10);
1074:DMP/driver/eMPL/inv_mpu_dmp_motion_driver.c ****     } else {
1075:DMP/driver/eMPL/inv_mpu_dmp_motion_driver.c ****         tmp[0] = 0xD8;
1076:DMP/driver/eMPL/inv_mpu_dmp_motion_driver.c ****         mpu_write_mem(CFG_20, 1, tmp);
1077:DMP/driver/eMPL/inv_mpu_dmp_motion_driver.c ****     }
1078:DMP/driver/eMPL/inv_mpu_dmp_motion_driver.c **** 
1079:DMP/driver/eMPL/inv_mpu_dmp_motion_driver.c ****     if (mask & DMP_FEATURE_ANDROID_ORIENT) {
1080:DMP/driver/eMPL/inv_mpu_dmp_motion_driver.c ****         tmp[0] = 0xD9;
1081:DMP/driver/eMPL/inv_mpu_dmp_motion_driver.c ****     } else
1082:DMP/driver/eMPL/inv_mpu_dmp_motion_driver.c ****         tmp[0] = 0xD8;
1083:DMP/driver/eMPL/inv_mpu_dmp_motion_driver.c ****     mpu_write_mem(CFG_ANDROID_ORIENT_INT, 1, tmp);
1084:DMP/driver/eMPL/inv_mpu_dmp_motion_driver.c **** 
1085:DMP/driver/eMPL/inv_mpu_dmp_motion_driver.c ****     if (mask & DMP_FEATURE_LP_QUAT)
1086:DMP/driver/eMPL/inv_mpu_dmp_motion_driver.c ****         dmp_enable_lp_quat(1);
1087:DMP/driver/eMPL/inv_mpu_dmp_motion_driver.c ****     else
1088:DMP/driver/eMPL/inv_mpu_dmp_motion_driver.c ****         dmp_enable_lp_quat(0);
1089:DMP/driver/eMPL/inv_mpu_dmp_motion_driver.c **** 
1090:DMP/driver/eMPL/inv_mpu_dmp_motion_driver.c ****     if (mask & DMP_FEATURE_6X_LP_QUAT)
1091:DMP/driver/eMPL/inv_mpu_dmp_motion_driver.c ****         dmp_enable_6x_lp_quat(1);
1092:DMP/driver/eMPL/inv_mpu_dmp_motion_driver.c ****     else
1093:DMP/driver/eMPL/inv_mpu_dmp_motion_driver.c ****         dmp_enable_6x_lp_quat(0);
1094:DMP/driver/eMPL/inv_mpu_dmp_motion_driver.c **** 
1095:DMP/driver/eMPL/inv_mpu_dmp_motion_driver.c ****     /* Pedometer is always enabled. */
1096:DMP/driver/eMPL/inv_mpu_dmp_motion_driver.c ****     dmp.feature_mask = mask | DMP_FEATURE_PEDOMETER;
1097:DMP/driver/eMPL/inv_mpu_dmp_motion_driver.c ****     mpu_reset_fifo();
1098:DMP/driver/eMPL/inv_mpu_dmp_motion_driver.c **** 
1099:DMP/driver/eMPL/inv_mpu_dmp_motion_driver.c ****     dmp.packet_length = 0;
1100:DMP/driver/eMPL/inv_mpu_dmp_motion_driver.c ****     if (mask & DMP_FEATURE_SEND_RAW_ACCEL)
1101:DMP/driver/eMPL/inv_mpu_dmp_motion_driver.c ****         dmp.packet_length += 6;
1102:DMP/driver/eMPL/inv_mpu_dmp_motion_driver.c ****     if (mask & DMP_FEATURE_SEND_ANY_GYRO)
1103:DMP/driver/eMPL/inv_mpu_dmp_motion_driver.c ****         dmp.packet_length += 6;
1104:DMP/driver/eMPL/inv_mpu_dmp_motion_driver.c ****     if (mask & (DMP_FEATURE_LP_QUAT | DMP_FEATURE_6X_LP_QUAT))
1105:DMP/driver/eMPL/inv_mpu_dmp_motion_driver.c ****         dmp.packet_length += 16;
1106:DMP/driver/eMPL/inv_mpu_dmp_motion_driver.c ****     if (mask & (DMP_FEATURE_TAP | DMP_FEATURE_ANDROID_ORIENT))
1107:DMP/driver/eMPL/inv_mpu_dmp_motion_driver.c ****         dmp.packet_length += 4;
1108:DMP/driver/eMPL/inv_mpu_dmp_motion_driver.c **** 
1109:DMP/driver/eMPL/inv_mpu_dmp_motion_driver.c ****     return 0;
1110:DMP/driver/eMPL/inv_mpu_dmp_motion_driver.c **** }
1111:DMP/driver/eMPL/inv_mpu_dmp_motion_driver.c **** 
1112:DMP/driver/eMPL/inv_mpu_dmp_motion_driver.c **** /**
1113:DMP/driver/eMPL/inv_mpu_dmp_motion_driver.c ****  *  @brief      Get list of currently enabled DMP features.
ARM GAS  /var/folders/21/t9g5rlb91ys800n5npymflf80000gn/T//ccWnr5oL.s 			page 21


1114:DMP/driver/eMPL/inv_mpu_dmp_motion_driver.c ****  *  @param[out] Mask of enabled features.
1115:DMP/driver/eMPL/inv_mpu_dmp_motion_driver.c ****  *  @return     0 if successful.
1116:DMP/driver/eMPL/inv_mpu_dmp_motion_driver.c ****  */
1117:DMP/driver/eMPL/inv_mpu_dmp_motion_driver.c **** int dmp_get_enabled_features(unsigned short *mask)
1118:DMP/driver/eMPL/inv_mpu_dmp_motion_driver.c **** {
1119:DMP/driver/eMPL/inv_mpu_dmp_motion_driver.c ****     mask[0] = dmp.feature_mask;
1120:DMP/driver/eMPL/inv_mpu_dmp_motion_driver.c ****     return 0;
1121:DMP/driver/eMPL/inv_mpu_dmp_motion_driver.c **** }
1122:DMP/driver/eMPL/inv_mpu_dmp_motion_driver.c **** 
1123:DMP/driver/eMPL/inv_mpu_dmp_motion_driver.c **** /**
1124:DMP/driver/eMPL/inv_mpu_dmp_motion_driver.c ****  *  @brief      Calibrate the gyro data in the DMP.
1125:DMP/driver/eMPL/inv_mpu_dmp_motion_driver.c ****  *  After eight seconds of no motion, the DMP will compute gyro biases and
1126:DMP/driver/eMPL/inv_mpu_dmp_motion_driver.c ****  *  subtract them from the quaternion output. If @e dmp_enable_feature is
1127:DMP/driver/eMPL/inv_mpu_dmp_motion_driver.c ****  *  called with @e DMP_FEATURE_SEND_CAL_GYRO, the biases will also be
1128:DMP/driver/eMPL/inv_mpu_dmp_motion_driver.c ****  *  subtracted from the gyro output.
1129:DMP/driver/eMPL/inv_mpu_dmp_motion_driver.c ****  *  @param[in]  enable  1 to enable gyro calibration.
1130:DMP/driver/eMPL/inv_mpu_dmp_motion_driver.c ****  *  @return     0 if successful.
1131:DMP/driver/eMPL/inv_mpu_dmp_motion_driver.c ****  */
1132:DMP/driver/eMPL/inv_mpu_dmp_motion_driver.c **** int dmp_enable_gyro_cal(unsigned char enable)
1133:DMP/driver/eMPL/inv_mpu_dmp_motion_driver.c **** {
1134:DMP/driver/eMPL/inv_mpu_dmp_motion_driver.c ****     if (enable) {
1135:DMP/driver/eMPL/inv_mpu_dmp_motion_driver.c ****         unsigned char regs[9] = {0xb8, 0xaa, 0xb3, 0x8d, 0xb4, 0x98, 0x0d, 0x35, 0x5d};
1136:DMP/driver/eMPL/inv_mpu_dmp_motion_driver.c ****         return mpu_write_mem(CFG_MOTION_BIAS, 9, regs);
1137:DMP/driver/eMPL/inv_mpu_dmp_motion_driver.c ****     } else {
1138:DMP/driver/eMPL/inv_mpu_dmp_motion_driver.c ****         unsigned char regs[9] = {0xb8, 0xaa, 0xaa, 0xaa, 0xb0, 0x88, 0xc3, 0xc5, 0xc7};
1139:DMP/driver/eMPL/inv_mpu_dmp_motion_driver.c ****         return mpu_write_mem(CFG_MOTION_BIAS, 9, regs);
1140:DMP/driver/eMPL/inv_mpu_dmp_motion_driver.c ****     }
1141:DMP/driver/eMPL/inv_mpu_dmp_motion_driver.c **** }
1142:DMP/driver/eMPL/inv_mpu_dmp_motion_driver.c **** 
1143:DMP/driver/eMPL/inv_mpu_dmp_motion_driver.c **** /**
1144:DMP/driver/eMPL/inv_mpu_dmp_motion_driver.c ****  *  @brief      Generate 3-axis quaternions from the DMP.
1145:DMP/driver/eMPL/inv_mpu_dmp_motion_driver.c ****  *  In this driver, the 3-axis and 6-axis DMP quaternion features are mutually
1146:DMP/driver/eMPL/inv_mpu_dmp_motion_driver.c ****  *  exclusive.
1147:DMP/driver/eMPL/inv_mpu_dmp_motion_driver.c ****  *  @param[in]  enable  1 to enable 3-axis quaternion.
1148:DMP/driver/eMPL/inv_mpu_dmp_motion_driver.c ****  *  @return     0 if successful.
1149:DMP/driver/eMPL/inv_mpu_dmp_motion_driver.c ****  */
1150:DMP/driver/eMPL/inv_mpu_dmp_motion_driver.c **** int dmp_enable_lp_quat(unsigned char enable)
1151:DMP/driver/eMPL/inv_mpu_dmp_motion_driver.c **** {
1152:DMP/driver/eMPL/inv_mpu_dmp_motion_driver.c ****     unsigned char regs[4];
1153:DMP/driver/eMPL/inv_mpu_dmp_motion_driver.c ****     if (enable) {
1154:DMP/driver/eMPL/inv_mpu_dmp_motion_driver.c ****         regs[0] = DINBC0;
1155:DMP/driver/eMPL/inv_mpu_dmp_motion_driver.c ****         regs[1] = DINBC2;
1156:DMP/driver/eMPL/inv_mpu_dmp_motion_driver.c ****         regs[2] = DINBC4;
1157:DMP/driver/eMPL/inv_mpu_dmp_motion_driver.c ****         regs[3] = DINBC6;
1158:DMP/driver/eMPL/inv_mpu_dmp_motion_driver.c ****     }
1159:DMP/driver/eMPL/inv_mpu_dmp_motion_driver.c ****     else
1160:DMP/driver/eMPL/inv_mpu_dmp_motion_driver.c ****         memset(regs, 0x8B, 4);
1161:DMP/driver/eMPL/inv_mpu_dmp_motion_driver.c **** 
1162:DMP/driver/eMPL/inv_mpu_dmp_motion_driver.c ****     mpu_write_mem(CFG_LP_QUAT, 4, regs);
1163:DMP/driver/eMPL/inv_mpu_dmp_motion_driver.c **** 
1164:DMP/driver/eMPL/inv_mpu_dmp_motion_driver.c ****     return mpu_reset_fifo();
1165:DMP/driver/eMPL/inv_mpu_dmp_motion_driver.c **** }
1166:DMP/driver/eMPL/inv_mpu_dmp_motion_driver.c **** 
1167:DMP/driver/eMPL/inv_mpu_dmp_motion_driver.c **** /**
1168:DMP/driver/eMPL/inv_mpu_dmp_motion_driver.c ****  *  @brief       Generate 6-axis quaternions from the DMP.
1169:DMP/driver/eMPL/inv_mpu_dmp_motion_driver.c ****  *  In this driver, the 3-axis and 6-axis DMP quaternion features are mutually
1170:DMP/driver/eMPL/inv_mpu_dmp_motion_driver.c ****  *  exclusive.
ARM GAS  /var/folders/21/t9g5rlb91ys800n5npymflf80000gn/T//ccWnr5oL.s 			page 22


1171:DMP/driver/eMPL/inv_mpu_dmp_motion_driver.c ****  *  @param[in]   enable  1 to enable 6-axis quaternion.
1172:DMP/driver/eMPL/inv_mpu_dmp_motion_driver.c ****  *  @return      0 if successful.
1173:DMP/driver/eMPL/inv_mpu_dmp_motion_driver.c ****  */
1174:DMP/driver/eMPL/inv_mpu_dmp_motion_driver.c **** int dmp_enable_6x_lp_quat(unsigned char enable)
1175:DMP/driver/eMPL/inv_mpu_dmp_motion_driver.c **** {
1176:DMP/driver/eMPL/inv_mpu_dmp_motion_driver.c ****     unsigned char regs[4];
1177:DMP/driver/eMPL/inv_mpu_dmp_motion_driver.c ****     if (enable) {
1178:DMP/driver/eMPL/inv_mpu_dmp_motion_driver.c ****         regs[0] = DINA20;
1179:DMP/driver/eMPL/inv_mpu_dmp_motion_driver.c ****         regs[1] = DINA28;
1180:DMP/driver/eMPL/inv_mpu_dmp_motion_driver.c ****         regs[2] = DINA30;
1181:DMP/driver/eMPL/inv_mpu_dmp_motion_driver.c ****         regs[3] = DINA38;
1182:DMP/driver/eMPL/inv_mpu_dmp_motion_driver.c ****     } else
1183:DMP/driver/eMPL/inv_mpu_dmp_motion_driver.c ****         memset(regs, 0xA3, 4);
1184:DMP/driver/eMPL/inv_mpu_dmp_motion_driver.c **** 
1185:DMP/driver/eMPL/inv_mpu_dmp_motion_driver.c ****     mpu_write_mem(CFG_8, 4, regs);
1186:DMP/driver/eMPL/inv_mpu_dmp_motion_driver.c **** 
1187:DMP/driver/eMPL/inv_mpu_dmp_motion_driver.c ****     return mpu_reset_fifo();
1188:DMP/driver/eMPL/inv_mpu_dmp_motion_driver.c **** }
1189:DMP/driver/eMPL/inv_mpu_dmp_motion_driver.c **** 
1190:DMP/driver/eMPL/inv_mpu_dmp_motion_driver.c **** /**
1191:DMP/driver/eMPL/inv_mpu_dmp_motion_driver.c ****  *  @brief      Decode the four-byte gesture data and execute any callbacks.
1192:DMP/driver/eMPL/inv_mpu_dmp_motion_driver.c ****  *  @param[in]  gesture Gesture data from DMP packet.
1193:DMP/driver/eMPL/inv_mpu_dmp_motion_driver.c ****  *  @return     0 if successful.
1194:DMP/driver/eMPL/inv_mpu_dmp_motion_driver.c ****  */
1195:DMP/driver/eMPL/inv_mpu_dmp_motion_driver.c **** static int decode_gesture(unsigned char *gesture)
1196:DMP/driver/eMPL/inv_mpu_dmp_motion_driver.c **** {
  29              		.loc 1 1196 1 view -0
  30              		.cfi_startproc
  31              		@ args = 0, pretend = 0, frame = 0
  32              		@ frame_needed = 0, uses_anonymous_args = 0
  33              		.loc 1 1196 1 is_stmt 0 view .LVU1
  34 0000 38B5     		push	{r3, r4, r5, lr}
  35              	.LCFI0:
  36              		.cfi_def_cfa_offset 16
  37              		.cfi_offset 3, -16
  38              		.cfi_offset 4, -12
  39              		.cfi_offset 5, -8
  40              		.cfi_offset 14, -4
  41 0002 0446     		mov	r4, r0
1197:DMP/driver/eMPL/inv_mpu_dmp_motion_driver.c ****     unsigned char tap, android_orient;
  42              		.loc 1 1197 5 is_stmt 1 view .LVU2
1198:DMP/driver/eMPL/inv_mpu_dmp_motion_driver.c **** 
1199:DMP/driver/eMPL/inv_mpu_dmp_motion_driver.c ****     android_orient = gesture[3] & 0xC0;
  43              		.loc 1 1199 5 view .LVU3
  44              		.loc 1 1199 29 is_stmt 0 view .LVU4
  45 0004 C578     		ldrb	r5, [r0, #3]	@ zero_extendqisi2
  46              	.LVL1:
1200:DMP/driver/eMPL/inv_mpu_dmp_motion_driver.c ****     tap = 0x3F & gesture[3];
  47              		.loc 1 1200 5 is_stmt 1 view .LVU5
1201:DMP/driver/eMPL/inv_mpu_dmp_motion_driver.c **** 
1202:DMP/driver/eMPL/inv_mpu_dmp_motion_driver.c ****     if (gesture[1] & INT_SRC_TAP) {
  48              		.loc 1 1202 5 view .LVU6
  49              		.loc 1 1202 16 is_stmt 0 view .LVU7
  50 0006 4378     		ldrb	r3, [r0, #1]	@ zero_extendqisi2
  51              		.loc 1 1202 8 view .LVU8
  52 0008 13F0010F 		tst	r3, #1
  53 000c 09D0     		beq	.L2
ARM GAS  /var/folders/21/t9g5rlb91ys800n5npymflf80000gn/T//ccWnr5oL.s 			page 23


  54 000e 05F03F00 		and	r0, r5, #63
  55              	.LVL2:
  56              	.LBB2:
1203:DMP/driver/eMPL/inv_mpu_dmp_motion_driver.c ****         unsigned char direction, count;
  57              		.loc 1 1203 9 is_stmt 1 view .LVU9
1204:DMP/driver/eMPL/inv_mpu_dmp_motion_driver.c ****         direction = tap >> 3;
  58              		.loc 1 1204 9 view .LVU10
  59              		.loc 1 1204 19 is_stmt 0 view .LVU11
  60 0012 C008     		lsrs	r0, r0, #3
  61              	.LVL3:
1205:DMP/driver/eMPL/inv_mpu_dmp_motion_driver.c ****         count = (tap % 8) + 1;
  62              		.loc 1 1205 9 is_stmt 1 view .LVU12
  63              		.loc 1 1205 22 is_stmt 0 view .LVU13
  64 0014 05F00701 		and	r1, r5, #7
  65              		.loc 1 1205 15 view .LVU14
  66 0018 0131     		adds	r1, r1, #1
  67              	.LVL4:
1206:DMP/driver/eMPL/inv_mpu_dmp_motion_driver.c ****         if (dmp.tap_cb)
  68              		.loc 1 1206 9 is_stmt 1 view .LVU15
  69              		.loc 1 1206 16 is_stmt 0 view .LVU16
  70 001a 074B     		ldr	r3, .L5
  71 001c 1B68     		ldr	r3, [r3]
  72              		.loc 1 1206 12 view .LVU17
  73 001e 03B1     		cbz	r3, .L2
1207:DMP/driver/eMPL/inv_mpu_dmp_motion_driver.c ****             dmp.tap_cb(direction, count);
  74              		.loc 1 1207 13 is_stmt 1 view .LVU18
  75 0020 9847     		blx	r3
  76              	.LVL5:
  77              	.L2:
  78              		.loc 1 1207 13 is_stmt 0 view .LVU19
  79              	.LBE2:
1208:DMP/driver/eMPL/inv_mpu_dmp_motion_driver.c ****     }
1209:DMP/driver/eMPL/inv_mpu_dmp_motion_driver.c **** 
1210:DMP/driver/eMPL/inv_mpu_dmp_motion_driver.c ****     if (gesture[1] & INT_SRC_ANDROID_ORIENT) {
  80              		.loc 1 1210 5 is_stmt 1 view .LVU20
  81              		.loc 1 1210 16 is_stmt 0 view .LVU21
  82 0022 6378     		ldrb	r3, [r4, #1]	@ zero_extendqisi2
  83              		.loc 1 1210 8 view .LVU22
  84 0024 13F0080F 		tst	r3, #8
  85 0028 04D0     		beq	.L3
1211:DMP/driver/eMPL/inv_mpu_dmp_motion_driver.c ****         if (dmp.android_orient_cb)
  86              		.loc 1 1211 9 is_stmt 1 view .LVU23
  87              		.loc 1 1211 16 is_stmt 0 view .LVU24
  88 002a 034B     		ldr	r3, .L5
  89 002c 5B68     		ldr	r3, [r3, #4]
  90              		.loc 1 1211 12 view .LVU25
  91 002e 0BB1     		cbz	r3, .L3
1212:DMP/driver/eMPL/inv_mpu_dmp_motion_driver.c ****             dmp.android_orient_cb(android_orient >> 6);
  92              		.loc 1 1212 13 is_stmt 1 view .LVU26
  93 0030 A809     		lsrs	r0, r5, #6
  94 0032 9847     		blx	r3
  95              	.LVL6:
  96              	.L3:
1213:DMP/driver/eMPL/inv_mpu_dmp_motion_driver.c ****     }
1214:DMP/driver/eMPL/inv_mpu_dmp_motion_driver.c **** 
1215:DMP/driver/eMPL/inv_mpu_dmp_motion_driver.c ****     return 0;
  97              		.loc 1 1215 5 view .LVU27
ARM GAS  /var/folders/21/t9g5rlb91ys800n5npymflf80000gn/T//ccWnr5oL.s 			page 24


1216:DMP/driver/eMPL/inv_mpu_dmp_motion_driver.c **** }
  98              		.loc 1 1216 1 is_stmt 0 view .LVU28
  99 0034 0020     		movs	r0, #0
 100 0036 38BD     		pop	{r3, r4, r5, pc}
 101              	.LVL7:
 102              	.L6:
 103              		.loc 1 1216 1 view .LVU29
 104              		.align	2
 105              	.L5:
 106 0038 00000000 		.word	dmp
 107              		.cfi_endproc
 108              	.LFE185:
 110              		.section	.text.get_tick_count,"ax",%progbits
 111              		.align	1
 112              		.global	get_tick_count
 113              		.syntax unified
 114              		.thumb
 115              		.thumb_func
 117              	get_tick_count:
 118              	.LVL8:
 119              	.LFB161:
  43:DMP/driver/eMPL/inv_mpu_dmp_motion_driver.c **** #elif defined MOTION_DRIVER_TARGET_MSP430
 120              		.loc 1 43 42 is_stmt 1 view -0
 121              		.cfi_startproc
 122              		@ args = 0, pretend = 0, frame = 0
 123              		@ frame_needed = 0, uses_anonymous_args = 0
 124              		@ link register save eliminated.
  43:DMP/driver/eMPL/inv_mpu_dmp_motion_driver.c **** #elif defined MOTION_DRIVER_TARGET_MSP430
 125              		.loc 1 43 43 view .LVU31
 126 0000 7047     		bx	lr
 127              		.cfi_endproc
 128              	.LFE161:
 130              		.section	.text.dmp_load_motion_driver_firmware,"ax",%progbits
 131              		.align	1
 132              		.global	dmp_load_motion_driver_firmware
 133              		.syntax unified
 134              		.thumb
 135              		.thumb_func
 137              	dmp_load_motion_driver_firmware:
 138              	.LFB162:
 510:DMP/driver/eMPL/inv_mpu_dmp_motion_driver.c ****     return mpu_load_firmware(DMP_CODE_SIZE, dmp_memory, sStartAddress,
 139              		.loc 1 510 1 view -0
 140              		.cfi_startproc
 141              		@ args = 0, pretend = 0, frame = 0
 142              		@ frame_needed = 0, uses_anonymous_args = 0
 143 0000 08B5     		push	{r3, lr}
 144              	.LCFI1:
 145              		.cfi_def_cfa_offset 8
 146              		.cfi_offset 3, -8
 147              		.cfi_offset 14, -4
 511:DMP/driver/eMPL/inv_mpu_dmp_motion_driver.c ****         DMP_SAMPLE_RATE);
 148              		.loc 1 511 5 view .LVU33
 511:DMP/driver/eMPL/inv_mpu_dmp_motion_driver.c ****         DMP_SAMPLE_RATE);
 149              		.loc 1 511 12 is_stmt 0 view .LVU34
 150 0002 C823     		movs	r3, #200
 151 0004 4FF48062 		mov	r2, #1024
 152 0008 0249     		ldr	r1, .L10
ARM GAS  /var/folders/21/t9g5rlb91ys800n5npymflf80000gn/T//ccWnr5oL.s 			page 25


 153 000a 40F6F630 		movw	r0, #3062
 154 000e FFF7FEFF 		bl	mpu_load_firmware
 155              	.LVL9:
 513:DMP/driver/eMPL/inv_mpu_dmp_motion_driver.c **** 
 156              		.loc 1 513 1 view .LVU35
 157 0012 08BD     		pop	{r3, pc}
 158              	.L11:
 159              		.align	2
 160              	.L10:
 161 0014 00000000 		.word	dmp_memory
 162              		.cfi_endproc
 163              	.LFE162:
 165              		.section	.rodata.dmp_set_orientation.str1.4,"aMS",%progbits,1
 166              		.align	2
 167              	.LC0:
 168 0000 4CCD6C00 		.ascii	"L\315l\000"
 169              		.align	2
 170              	.LC1:
 171 0004 0CC92C00 		.ascii	"\014\311,\000"
 172              		.align	2
 173              	.LC2:
 174 0008 36567600 		.ascii	"6Vv\000"
 175              		.align	2
 176              	.LC3:
 177 000c 26466600 		.ascii	"&Ff\000"
 178              		.section	.text.dmp_set_orientation,"ax",%progbits
 179              		.align	1
 180              		.global	dmp_set_orientation
 181              		.syntax unified
 182              		.thumb
 183              		.thumb_func
 185              	dmp_set_orientation:
 186              	.LVL10:
 187              	.LFB163:
 523:DMP/driver/eMPL/inv_mpu_dmp_motion_driver.c ****     unsigned char gyro_regs[3], accel_regs[3];
 188              		.loc 1 523 1 is_stmt 1 view -0
 189              		.cfi_startproc
 190              		@ args = 0, pretend = 0, frame = 24
 191              		@ frame_needed = 0, uses_anonymous_args = 0
 523:DMP/driver/eMPL/inv_mpu_dmp_motion_driver.c ****     unsigned char gyro_regs[3], accel_regs[3];
 192              		.loc 1 523 1 is_stmt 0 view .LVU37
 193 0000 10B5     		push	{r4, lr}
 194              	.LCFI2:
 195              		.cfi_def_cfa_offset 8
 196              		.cfi_offset 4, -8
 197              		.cfi_offset 14, -4
 198 0002 86B0     		sub	sp, sp, #24
 199              	.LCFI3:
 200              		.cfi_def_cfa_offset 32
 201 0004 0446     		mov	r4, r0
 524:DMP/driver/eMPL/inv_mpu_dmp_motion_driver.c ****     const unsigned char gyro_axes[3] = {DINA4C, DINACD, DINA6C};
 202              		.loc 1 524 5 is_stmt 1 view .LVU38
 525:DMP/driver/eMPL/inv_mpu_dmp_motion_driver.c ****     const unsigned char accel_axes[3] = {DINA0C, DINAC9, DINA2C};
 203              		.loc 1 525 5 view .LVU39
 525:DMP/driver/eMPL/inv_mpu_dmp_motion_driver.c ****     const unsigned char accel_axes[3] = {DINA0C, DINAC9, DINA2C};
 204              		.loc 1 525 25 is_stmt 0 view .LVU40
 205 0006 4C4B     		ldr	r3, .L22
ARM GAS  /var/folders/21/t9g5rlb91ys800n5npymflf80000gn/T//ccWnr5oL.s 			page 26


 206 0008 1B68     		ldr	r3, [r3]
 207 000a ADF80C30 		strh	r3, [sp, #12]	@ movhi
 208 000e 1B0C     		lsrs	r3, r3, #16
 209 0010 8DF80E30 		strb	r3, [sp, #14]
 526:DMP/driver/eMPL/inv_mpu_dmp_motion_driver.c ****     const unsigned char gyro_sign[3] = {DINA36, DINA56, DINA76};
 210              		.loc 1 526 5 is_stmt 1 view .LVU41
 526:DMP/driver/eMPL/inv_mpu_dmp_motion_driver.c ****     const unsigned char gyro_sign[3] = {DINA36, DINA56, DINA76};
 211              		.loc 1 526 25 is_stmt 0 view .LVU42
 212 0014 494B     		ldr	r3, .L22+4
 213 0016 1B68     		ldr	r3, [r3]
 214 0018 ADF80830 		strh	r3, [sp, #8]	@ movhi
 215 001c 1B0C     		lsrs	r3, r3, #16
 216 001e 8DF80A30 		strb	r3, [sp, #10]
 527:DMP/driver/eMPL/inv_mpu_dmp_motion_driver.c ****     const unsigned char accel_sign[3] = {DINA26, DINA46, DINA66};
 217              		.loc 1 527 5 is_stmt 1 view .LVU43
 527:DMP/driver/eMPL/inv_mpu_dmp_motion_driver.c ****     const unsigned char accel_sign[3] = {DINA26, DINA46, DINA66};
 218              		.loc 1 527 25 is_stmt 0 view .LVU44
 219 0022 474B     		ldr	r3, .L22+8
 220 0024 1B68     		ldr	r3, [r3]
 221 0026 ADF80430 		strh	r3, [sp, #4]	@ movhi
 222 002a 1B0C     		lsrs	r3, r3, #16
 223 002c 8DF80630 		strb	r3, [sp, #6]
 528:DMP/driver/eMPL/inv_mpu_dmp_motion_driver.c **** 
 224              		.loc 1 528 5 is_stmt 1 view .LVU45
 528:DMP/driver/eMPL/inv_mpu_dmp_motion_driver.c **** 
 225              		.loc 1 528 25 is_stmt 0 view .LVU46
 226 0030 444B     		ldr	r3, .L22+12
 227 0032 1B68     		ldr	r3, [r3]
 228 0034 ADF80030 		strh	r3, [sp]	@ movhi
 229 0038 1B0C     		lsrs	r3, r3, #16
 230 003a 8DF80230 		strb	r3, [sp, #2]
 530:DMP/driver/eMPL/inv_mpu_dmp_motion_driver.c ****     gyro_regs[1] = gyro_axes[(orient >> 3) & 3];
 231              		.loc 1 530 5 is_stmt 1 view .LVU47
 530:DMP/driver/eMPL/inv_mpu_dmp_motion_driver.c ****     gyro_regs[1] = gyro_axes[(orient >> 3) & 3];
 232              		.loc 1 530 37 is_stmt 0 view .LVU48
 233 003e 00F00301 		and	r1, r0, #3
 530:DMP/driver/eMPL/inv_mpu_dmp_motion_driver.c ****     gyro_regs[1] = gyro_axes[(orient >> 3) & 3];
 234              		.loc 1 530 29 view .LVU49
 235 0042 01F11803 		add	r3, r1, #24
 236 0046 0DEB0301 		add	r1, sp, r3
 237 004a 11F80C3C 		ldrb	r3, [r1, #-12]	@ zero_extendqisi2
 530:DMP/driver/eMPL/inv_mpu_dmp_motion_driver.c ****     gyro_regs[1] = gyro_axes[(orient >> 3) & 3];
 238              		.loc 1 530 18 view .LVU50
 239 004e 8DF81430 		strb	r3, [sp, #20]
 531:DMP/driver/eMPL/inv_mpu_dmp_motion_driver.c ****     gyro_regs[2] = gyro_axes[(orient >> 6) & 3];
 240              		.loc 1 531 5 is_stmt 1 view .LVU51
 531:DMP/driver/eMPL/inv_mpu_dmp_motion_driver.c ****     gyro_regs[2] = gyro_axes[(orient >> 6) & 3];
 241              		.loc 1 531 44 is_stmt 0 view .LVU52
 242 0052 C0F3C102 		ubfx	r2, r0, #3, #2
 531:DMP/driver/eMPL/inv_mpu_dmp_motion_driver.c ****     gyro_regs[2] = gyro_axes[(orient >> 6) & 3];
 243              		.loc 1 531 29 view .LVU53
 244 0056 02F11803 		add	r3, r2, #24
 245 005a 0DEB0302 		add	r2, sp, r3
 246 005e 12F80C3C 		ldrb	r3, [r2, #-12]	@ zero_extendqisi2
 531:DMP/driver/eMPL/inv_mpu_dmp_motion_driver.c ****     gyro_regs[2] = gyro_axes[(orient >> 6) & 3];
 247              		.loc 1 531 18 view .LVU54
 248 0062 8DF81530 		strb	r3, [sp, #21]
ARM GAS  /var/folders/21/t9g5rlb91ys800n5npymflf80000gn/T//ccWnr5oL.s 			page 27


 532:DMP/driver/eMPL/inv_mpu_dmp_motion_driver.c ****     accel_regs[0] = accel_axes[orient & 3];
 249              		.loc 1 532 5 is_stmt 1 view .LVU55
 532:DMP/driver/eMPL/inv_mpu_dmp_motion_driver.c ****     accel_regs[0] = accel_axes[orient & 3];
 250              		.loc 1 532 44 is_stmt 0 view .LVU56
 251 0066 C0F38113 		ubfx	r3, r0, #6, #2
 532:DMP/driver/eMPL/inv_mpu_dmp_motion_driver.c ****     accel_regs[0] = accel_axes[orient & 3];
 252              		.loc 1 532 29 view .LVU57
 253 006a 1833     		adds	r3, r3, #24
 254 006c 6B44     		add	r3, sp, r3
 255 006e 13F80C0C 		ldrb	r0, [r3, #-12]	@ zero_extendqisi2
 256              	.LVL11:
 532:DMP/driver/eMPL/inv_mpu_dmp_motion_driver.c ****     accel_regs[0] = accel_axes[orient & 3];
 257              		.loc 1 532 18 view .LVU58
 258 0072 8DF81600 		strb	r0, [sp, #22]
 533:DMP/driver/eMPL/inv_mpu_dmp_motion_driver.c ****     accel_regs[1] = accel_axes[(orient >> 3) & 3];
 259              		.loc 1 533 5 is_stmt 1 view .LVU59
 533:DMP/driver/eMPL/inv_mpu_dmp_motion_driver.c ****     accel_regs[1] = accel_axes[(orient >> 3) & 3];
 260              		.loc 1 533 31 is_stmt 0 view .LVU60
 261 0076 11F8101C 		ldrb	r1, [r1, #-16]	@ zero_extendqisi2
 533:DMP/driver/eMPL/inv_mpu_dmp_motion_driver.c ****     accel_regs[1] = accel_axes[(orient >> 3) & 3];
 262              		.loc 1 533 19 view .LVU61
 263 007a 8DF81010 		strb	r1, [sp, #16]
 534:DMP/driver/eMPL/inv_mpu_dmp_motion_driver.c ****     accel_regs[2] = accel_axes[(orient >> 6) & 3];
 264              		.loc 1 534 5 is_stmt 1 view .LVU62
 534:DMP/driver/eMPL/inv_mpu_dmp_motion_driver.c ****     accel_regs[2] = accel_axes[(orient >> 6) & 3];
 265              		.loc 1 534 31 is_stmt 0 view .LVU63
 266 007e 12F8102C 		ldrb	r2, [r2, #-16]	@ zero_extendqisi2
 534:DMP/driver/eMPL/inv_mpu_dmp_motion_driver.c ****     accel_regs[2] = accel_axes[(orient >> 6) & 3];
 267              		.loc 1 534 19 view .LVU64
 268 0082 8DF81120 		strb	r2, [sp, #17]
 535:DMP/driver/eMPL/inv_mpu_dmp_motion_driver.c **** 
 269              		.loc 1 535 5 is_stmt 1 view .LVU65
 535:DMP/driver/eMPL/inv_mpu_dmp_motion_driver.c **** 
 270              		.loc 1 535 31 is_stmt 0 view .LVU66
 271 0086 13F8103C 		ldrb	r3, [r3, #-16]	@ zero_extendqisi2
 535:DMP/driver/eMPL/inv_mpu_dmp_motion_driver.c **** 
 272              		.loc 1 535 19 view .LVU67
 273 008a 8DF81230 		strb	r3, [sp, #18]
 538:DMP/driver/eMPL/inv_mpu_dmp_motion_driver.c ****         return -1;
 274              		.loc 1 538 5 is_stmt 1 view .LVU68
 538:DMP/driver/eMPL/inv_mpu_dmp_motion_driver.c ****         return -1;
 275              		.loc 1 538 9 is_stmt 0 view .LVU69
 276 008e 05AA     		add	r2, sp, #20
 277 0090 0321     		movs	r1, #3
 278 0092 40F22640 		movw	r0, #1062
 279 0096 FFF7FEFF 		bl	mpu_write_mem
 280              	.LVL12:
 538:DMP/driver/eMPL/inv_mpu_dmp_motion_driver.c ****         return -1;
 281              		.loc 1 538 8 view .LVU70
 282 009a 0028     		cmp	r0, #0
 283 009c 40D1     		bne	.L17
 540:DMP/driver/eMPL/inv_mpu_dmp_motion_driver.c ****         return -1;
 284              		.loc 1 540 5 is_stmt 1 view .LVU71
 540:DMP/driver/eMPL/inv_mpu_dmp_motion_driver.c ****         return -1;
 285              		.loc 1 540 9 is_stmt 0 view .LVU72
 286 009e 04AA     		add	r2, sp, #16
 287 00a0 0321     		movs	r1, #3
ARM GAS  /var/folders/21/t9g5rlb91ys800n5npymflf80000gn/T//ccWnr5oL.s 			page 28


 288 00a2 40F22A40 		movw	r0, #1066
 289 00a6 FFF7FEFF 		bl	mpu_write_mem
 290              	.LVL13:
 540:DMP/driver/eMPL/inv_mpu_dmp_motion_driver.c ****         return -1;
 291              		.loc 1 540 8 view .LVU73
 292 00aa 0028     		cmp	r0, #0
 293 00ac 3BD1     		bne	.L18
 543:DMP/driver/eMPL/inv_mpu_dmp_motion_driver.c ****     memcpy(accel_regs, accel_sign, 3);
 294              		.loc 1 543 5 is_stmt 1 view .LVU74
 295 00ae 019B     		ldr	r3, [sp, #4]
 296 00b0 ADF81430 		strh	r3, [sp, #20]	@ movhi
 297 00b4 1B0C     		lsrs	r3, r3, #16
 298 00b6 8DF81630 		strb	r3, [sp, #22]
 544:DMP/driver/eMPL/inv_mpu_dmp_motion_driver.c ****     if (orient & 4) {
 299              		.loc 1 544 5 view .LVU75
 300 00ba 009B     		ldr	r3, [sp]
 301 00bc ADF81030 		strh	r3, [sp, #16]	@ movhi
 302 00c0 1B0C     		lsrs	r3, r3, #16
 303 00c2 8DF81230 		strb	r3, [sp, #18]
 545:DMP/driver/eMPL/inv_mpu_dmp_motion_driver.c ****         gyro_regs[0] |= 1;
 304              		.loc 1 545 5 view .LVU76
 545:DMP/driver/eMPL/inv_mpu_dmp_motion_driver.c ****         gyro_regs[0] |= 1;
 305              		.loc 1 545 8 is_stmt 0 view .LVU77
 306 00c6 14F0040F 		tst	r4, #4
 307 00ca 05D0     		beq	.L14
 546:DMP/driver/eMPL/inv_mpu_dmp_motion_driver.c ****         accel_regs[0] |= 1;
 308              		.loc 1 546 9 is_stmt 1 view .LVU78
 546:DMP/driver/eMPL/inv_mpu_dmp_motion_driver.c ****         accel_regs[0] |= 1;
 309              		.loc 1 546 22 is_stmt 0 view .LVU79
 310 00cc 3723     		movs	r3, #55
 311 00ce 8DF81430 		strb	r3, [sp, #20]
 547:DMP/driver/eMPL/inv_mpu_dmp_motion_driver.c ****     }
 312              		.loc 1 547 9 is_stmt 1 view .LVU80
 547:DMP/driver/eMPL/inv_mpu_dmp_motion_driver.c ****     }
 313              		.loc 1 547 23 is_stmt 0 view .LVU81
 314 00d2 2723     		movs	r3, #39
 315 00d4 8DF81030 		strb	r3, [sp, #16]
 316              	.L14:
 549:DMP/driver/eMPL/inv_mpu_dmp_motion_driver.c ****         gyro_regs[1] |= 1;
 317              		.loc 1 549 5 is_stmt 1 view .LVU82
 549:DMP/driver/eMPL/inv_mpu_dmp_motion_driver.c ****         gyro_regs[1] |= 1;
 318              		.loc 1 549 8 is_stmt 0 view .LVU83
 319 00d8 14F0200F 		tst	r4, #32
 320 00dc 05D0     		beq	.L15
 550:DMP/driver/eMPL/inv_mpu_dmp_motion_driver.c ****         accel_regs[1] |= 1;
 321              		.loc 1 550 9 is_stmt 1 view .LVU84
 550:DMP/driver/eMPL/inv_mpu_dmp_motion_driver.c ****         accel_regs[1] |= 1;
 322              		.loc 1 550 22 is_stmt 0 view .LVU85
 323 00de 5723     		movs	r3, #87
 324 00e0 8DF81530 		strb	r3, [sp, #21]
 551:DMP/driver/eMPL/inv_mpu_dmp_motion_driver.c ****     }
 325              		.loc 1 551 9 is_stmt 1 view .LVU86
 551:DMP/driver/eMPL/inv_mpu_dmp_motion_driver.c ****     }
 326              		.loc 1 551 23 is_stmt 0 view .LVU87
 327 00e4 4723     		movs	r3, #71
 328 00e6 8DF81130 		strb	r3, [sp, #17]
 329              	.L15:
ARM GAS  /var/folders/21/t9g5rlb91ys800n5npymflf80000gn/T//ccWnr5oL.s 			page 29


 553:DMP/driver/eMPL/inv_mpu_dmp_motion_driver.c ****         gyro_regs[2] |= 1;
 330              		.loc 1 553 5 is_stmt 1 view .LVU88
 553:DMP/driver/eMPL/inv_mpu_dmp_motion_driver.c ****         gyro_regs[2] |= 1;
 331              		.loc 1 553 8 is_stmt 0 view .LVU89
 332 00ea 14F4807F 		tst	r4, #256
 333 00ee 05D0     		beq	.L16
 554:DMP/driver/eMPL/inv_mpu_dmp_motion_driver.c ****         accel_regs[2] |= 1;
 334              		.loc 1 554 9 is_stmt 1 view .LVU90
 554:DMP/driver/eMPL/inv_mpu_dmp_motion_driver.c ****         accel_regs[2] |= 1;
 335              		.loc 1 554 22 is_stmt 0 view .LVU91
 336 00f0 7723     		movs	r3, #119
 337 00f2 8DF81630 		strb	r3, [sp, #22]
 555:DMP/driver/eMPL/inv_mpu_dmp_motion_driver.c ****     }
 338              		.loc 1 555 9 is_stmt 1 view .LVU92
 555:DMP/driver/eMPL/inv_mpu_dmp_motion_driver.c ****     }
 339              		.loc 1 555 23 is_stmt 0 view .LVU93
 340 00f6 6723     		movs	r3, #103
 341 00f8 8DF81230 		strb	r3, [sp, #18]
 342              	.L16:
 559:DMP/driver/eMPL/inv_mpu_dmp_motion_driver.c ****         return -1;
 343              		.loc 1 559 5 is_stmt 1 view .LVU94
 559:DMP/driver/eMPL/inv_mpu_dmp_motion_driver.c ****         return -1;
 344              		.loc 1 559 9 is_stmt 0 view .LVU95
 345 00fc 05AA     		add	r2, sp, #20
 346 00fe 0321     		movs	r1, #3
 347 0100 4FF48860 		mov	r0, #1088
 348 0104 FFF7FEFF 		bl	mpu_write_mem
 349              	.LVL14:
 559:DMP/driver/eMPL/inv_mpu_dmp_motion_driver.c ****         return -1;
 350              		.loc 1 559 8 view .LVU96
 351 0108 80B9     		cbnz	r0, .L19
 561:DMP/driver/eMPL/inv_mpu_dmp_motion_driver.c ****         return -1;
 352              		.loc 1 561 5 is_stmt 1 view .LVU97
 561:DMP/driver/eMPL/inv_mpu_dmp_motion_driver.c ****         return -1;
 353              		.loc 1 561 9 is_stmt 0 view .LVU98
 354 010a 04AA     		add	r2, sp, #16
 355 010c 0321     		movs	r1, #3
 356 010e 40F23140 		movw	r0, #1073
 357 0112 FFF7FEFF 		bl	mpu_write_mem
 358              	.LVL15:
 561:DMP/driver/eMPL/inv_mpu_dmp_motion_driver.c ****         return -1;
 359              		.loc 1 561 8 view .LVU99
 360 0116 60B9     		cbnz	r0, .L20
 563:DMP/driver/eMPL/inv_mpu_dmp_motion_driver.c ****     return 0;
 361              		.loc 1 563 5 is_stmt 1 view .LVU100
 563:DMP/driver/eMPL/inv_mpu_dmp_motion_driver.c ****     return 0;
 362              		.loc 1 563 16 is_stmt 0 view .LVU101
 363 0118 0B4B     		ldr	r3, .L22+16
 364 011a 1C81     		strh	r4, [r3, #8]	@ movhi
 564:DMP/driver/eMPL/inv_mpu_dmp_motion_driver.c **** }
 365              		.loc 1 564 5 is_stmt 1 view .LVU102
 366              	.L12:
 565:DMP/driver/eMPL/inv_mpu_dmp_motion_driver.c **** 
 367              		.loc 1 565 1 is_stmt 0 view .LVU103
 368 011c 06B0     		add	sp, sp, #24
 369              	.LCFI4:
 370              		.cfi_remember_state
ARM GAS  /var/folders/21/t9g5rlb91ys800n5npymflf80000gn/T//ccWnr5oL.s 			page 30


 371              		.cfi_def_cfa_offset 8
 372              		@ sp needed
 373 011e 10BD     		pop	{r4, pc}
 374              	.L17:
 375              	.LCFI5:
 376              		.cfi_restore_state
 539:DMP/driver/eMPL/inv_mpu_dmp_motion_driver.c ****     if (mpu_write_mem(FCFG_2, 3, accel_regs))
 377              		.loc 1 539 16 view .LVU104
 378 0120 4FF0FF30 		mov	r0, #-1
 379 0124 FAE7     		b	.L12
 380              	.L18:
 541:DMP/driver/eMPL/inv_mpu_dmp_motion_driver.c **** 
 381              		.loc 1 541 16 view .LVU105
 382 0126 4FF0FF30 		mov	r0, #-1
 383 012a F7E7     		b	.L12
 384              	.L19:
 560:DMP/driver/eMPL/inv_mpu_dmp_motion_driver.c ****     if (mpu_write_mem(FCFG_7, 3, accel_regs))
 385              		.loc 1 560 16 view .LVU106
 386 012c 4FF0FF30 		mov	r0, #-1
 387 0130 F4E7     		b	.L12
 388              	.L20:
 562:DMP/driver/eMPL/inv_mpu_dmp_motion_driver.c ****     dmp.orient = orient;
 389              		.loc 1 562 16 view .LVU107
 390 0132 4FF0FF30 		mov	r0, #-1
 391 0136 F1E7     		b	.L12
 392              	.L23:
 393              		.align	2
 394              	.L22:
 395 0138 00000000 		.word	.LC0
 396 013c 04000000 		.word	.LC1
 397 0140 08000000 		.word	.LC2
 398 0144 0C000000 		.word	.LC3
 399 0148 00000000 		.word	dmp
 400              		.cfi_endproc
 401              	.LFE163:
 403              		.section	.text.dmp_set_gyro_bias,"ax",%progbits
 404              		.align	1
 405              		.global	dmp_set_gyro_bias
 406              		.syntax unified
 407              		.thumb
 408              		.thumb_func
 410              	dmp_set_gyro_bias:
 411              	.LVL16:
 412              	.LFB164:
 578:DMP/driver/eMPL/inv_mpu_dmp_motion_driver.c ****     long gyro_bias_body[3];
 413              		.loc 1 578 1 is_stmt 1 view -0
 414              		.cfi_startproc
 415              		@ args = 0, pretend = 0, frame = 16
 416              		@ frame_needed = 0, uses_anonymous_args = 0
 578:DMP/driver/eMPL/inv_mpu_dmp_motion_driver.c ****     long gyro_bias_body[3];
 417              		.loc 1 578 1 is_stmt 0 view .LVU109
 418 0000 70B5     		push	{r4, r5, r6, lr}
 419              	.LCFI6:
 420              		.cfi_def_cfa_offset 16
 421              		.cfi_offset 4, -16
 422              		.cfi_offset 5, -12
 423              		.cfi_offset 6, -8
ARM GAS  /var/folders/21/t9g5rlb91ys800n5npymflf80000gn/T//ccWnr5oL.s 			page 31


 424              		.cfi_offset 14, -4
 425 0002 84B0     		sub	sp, sp, #16
 426              	.LCFI7:
 427              		.cfi_def_cfa_offset 32
 579:DMP/driver/eMPL/inv_mpu_dmp_motion_driver.c ****     unsigned char regs[4];
 428              		.loc 1 579 5 is_stmt 1 view .LVU110
 580:DMP/driver/eMPL/inv_mpu_dmp_motion_driver.c **** 
 429              		.loc 1 580 5 view .LVU111
 582:DMP/driver/eMPL/inv_mpu_dmp_motion_driver.c ****     if (dmp.orient & 4)
 430              		.loc 1 582 5 view .LVU112
 582:DMP/driver/eMPL/inv_mpu_dmp_motion_driver.c ****     if (dmp.orient & 4)
 431              		.loc 1 582 33 is_stmt 0 view .LVU113
 432 0004 404B     		ldr	r3, .L32
 433 0006 1B89     		ldrh	r3, [r3, #8]
 582:DMP/driver/eMPL/inv_mpu_dmp_motion_driver.c ****     if (dmp.orient & 4)
 434              		.loc 1 582 41 view .LVU114
 435 0008 03F00302 		and	r2, r3, #3
 582:DMP/driver/eMPL/inv_mpu_dmp_motion_driver.c ****     if (dmp.orient & 4)
 436              		.loc 1 582 29 view .LVU115
 437 000c 50F82220 		ldr	r2, [r0, r2, lsl #2]
 582:DMP/driver/eMPL/inv_mpu_dmp_motion_driver.c ****     if (dmp.orient & 4)
 438              		.loc 1 582 23 view .LVU116
 439 0010 0192     		str	r2, [sp, #4]
 583:DMP/driver/eMPL/inv_mpu_dmp_motion_driver.c ****         gyro_bias_body[0] *= -1;
 440              		.loc 1 583 5 is_stmt 1 view .LVU117
 583:DMP/driver/eMPL/inv_mpu_dmp_motion_driver.c ****         gyro_bias_body[0] *= -1;
 441              		.loc 1 583 8 is_stmt 0 view .LVU118
 442 0012 13F0040F 		tst	r3, #4
 443 0016 01D0     		beq	.L25
 584:DMP/driver/eMPL/inv_mpu_dmp_motion_driver.c ****     gyro_bias_body[1] = bias[(dmp.orient >> 3) & 3];
 444              		.loc 1 584 9 is_stmt 1 view .LVU119
 584:DMP/driver/eMPL/inv_mpu_dmp_motion_driver.c ****     gyro_bias_body[1] = bias[(dmp.orient >> 3) & 3];
 445              		.loc 1 584 27 is_stmt 0 view .LVU120
 446 0018 5242     		rsbs	r2, r2, #0
 447 001a 0192     		str	r2, [sp, #4]
 448              	.L25:
 585:DMP/driver/eMPL/inv_mpu_dmp_motion_driver.c ****     if (dmp.orient & 0x20)
 449              		.loc 1 585 5 is_stmt 1 view .LVU121
 585:DMP/driver/eMPL/inv_mpu_dmp_motion_driver.c ****     if (dmp.orient & 0x20)
 450              		.loc 1 585 48 is_stmt 0 view .LVU122
 451 001c C3F3C102 		ubfx	r2, r3, #3, #2
 585:DMP/driver/eMPL/inv_mpu_dmp_motion_driver.c ****     if (dmp.orient & 0x20)
 452              		.loc 1 585 29 view .LVU123
 453 0020 50F82220 		ldr	r2, [r0, r2, lsl #2]
 585:DMP/driver/eMPL/inv_mpu_dmp_motion_driver.c ****     if (dmp.orient & 0x20)
 454              		.loc 1 585 23 view .LVU124
 455 0024 0292     		str	r2, [sp, #8]
 586:DMP/driver/eMPL/inv_mpu_dmp_motion_driver.c ****         gyro_bias_body[1] *= -1;
 456              		.loc 1 586 5 is_stmt 1 view .LVU125
 586:DMP/driver/eMPL/inv_mpu_dmp_motion_driver.c ****         gyro_bias_body[1] *= -1;
 457              		.loc 1 586 8 is_stmt 0 view .LVU126
 458 0026 13F0200F 		tst	r3, #32
 459 002a 01D0     		beq	.L26
 587:DMP/driver/eMPL/inv_mpu_dmp_motion_driver.c ****     gyro_bias_body[2] = bias[(dmp.orient >> 6) & 3];
 460              		.loc 1 587 9 is_stmt 1 view .LVU127
 587:DMP/driver/eMPL/inv_mpu_dmp_motion_driver.c ****     gyro_bias_body[2] = bias[(dmp.orient >> 6) & 3];
 461              		.loc 1 587 27 is_stmt 0 view .LVU128
ARM GAS  /var/folders/21/t9g5rlb91ys800n5npymflf80000gn/T//ccWnr5oL.s 			page 32


 462 002c 5242     		rsbs	r2, r2, #0
 463 002e 0292     		str	r2, [sp, #8]
 464              	.L26:
 588:DMP/driver/eMPL/inv_mpu_dmp_motion_driver.c ****     if (dmp.orient & 0x100)
 465              		.loc 1 588 5 is_stmt 1 view .LVU129
 588:DMP/driver/eMPL/inv_mpu_dmp_motion_driver.c ****     if (dmp.orient & 0x100)
 466              		.loc 1 588 48 is_stmt 0 view .LVU130
 467 0030 C3F38112 		ubfx	r2, r3, #6, #2
 588:DMP/driver/eMPL/inv_mpu_dmp_motion_driver.c ****     if (dmp.orient & 0x100)
 468              		.loc 1 588 29 view .LVU131
 469 0034 50F82220 		ldr	r2, [r0, r2, lsl #2]
 588:DMP/driver/eMPL/inv_mpu_dmp_motion_driver.c ****     if (dmp.orient & 0x100)
 470              		.loc 1 588 23 view .LVU132
 471 0038 0392     		str	r2, [sp, #12]
 589:DMP/driver/eMPL/inv_mpu_dmp_motion_driver.c ****         gyro_bias_body[2] *= -1;
 472              		.loc 1 589 5 is_stmt 1 view .LVU133
 589:DMP/driver/eMPL/inv_mpu_dmp_motion_driver.c ****         gyro_bias_body[2] *= -1;
 473              		.loc 1 589 8 is_stmt 0 view .LVU134
 474 003a 13F4807F 		tst	r3, #256
 475 003e 01D0     		beq	.L27
 590:DMP/driver/eMPL/inv_mpu_dmp_motion_driver.c **** 
 476              		.loc 1 590 9 is_stmt 1 view .LVU135
 590:DMP/driver/eMPL/inv_mpu_dmp_motion_driver.c **** 
 477              		.loc 1 590 27 is_stmt 0 view .LVU136
 478 0040 5242     		rsbs	r2, r2, #0
 479 0042 0392     		str	r2, [sp, #12]
 480              	.L27:
 597:DMP/driver/eMPL/inv_mpu_dmp_motion_driver.c ****     gyro_bias_body[1] = (long)(((long long)gyro_bias_body[1] * GYRO_SF) >> 30);
 481              		.loc 1 597 5 is_stmt 1 view .LVU137
 597:DMP/driver/eMPL/inv_mpu_dmp_motion_driver.c ****     gyro_bias_body[1] = (long)(((long long)gyro_bias_body[1] * GYRO_SF) >> 30);
 482              		.loc 1 597 58 is_stmt 0 view .LVU138
 483 0044 019B     		ldr	r3, [sp, #4]
 597:DMP/driver/eMPL/inv_mpu_dmp_motion_driver.c ****     gyro_bias_body[1] = (long)(((long long)gyro_bias_body[1] * GYRO_SF) >> 30);
 484              		.loc 1 597 33 view .LVU139
 485 0046 D817     		asrs	r0, r3, #31
 486              	.LVL17:
 597:DMP/driver/eMPL/inv_mpu_dmp_motion_driver.c ****     gyro_bias_body[1] = (long)(((long long)gyro_bias_body[1] * GYRO_SF) >> 30);
 487              		.loc 1 597 62 view .LVU140
 488 0048 304A     		ldr	r2, .L32+4
 489 004a A3FB0231 		umull	r3, r1, r3, r2
 490 004e 02FB0011 		mla	r1, r2, r0, r1
 597:DMP/driver/eMPL/inv_mpu_dmp_motion_driver.c ****     gyro_bias_body[1] = (long)(((long long)gyro_bias_body[1] * GYRO_SF) >> 30);
 491              		.loc 1 597 73 view .LVU141
 492 0052 9B0F     		lsrs	r3, r3, #30
 493 0054 43EA8103 		orr	r3, r3, r1, lsl #2
 597:DMP/driver/eMPL/inv_mpu_dmp_motion_driver.c ****     gyro_bias_body[1] = (long)(((long long)gyro_bias_body[1] * GYRO_SF) >> 30);
 494              		.loc 1 597 23 view .LVU142
 495 0058 0193     		str	r3, [sp, #4]
 598:DMP/driver/eMPL/inv_mpu_dmp_motion_driver.c ****     gyro_bias_body[2] = (long)(((long long)gyro_bias_body[2] * GYRO_SF) >> 30);
 496              		.loc 1 598 5 is_stmt 1 view .LVU143
 598:DMP/driver/eMPL/inv_mpu_dmp_motion_driver.c ****     gyro_bias_body[2] = (long)(((long long)gyro_bias_body[2] * GYRO_SF) >> 30);
 497              		.loc 1 598 58 is_stmt 0 view .LVU144
 498 005a 0299     		ldr	r1, [sp, #8]
 598:DMP/driver/eMPL/inv_mpu_dmp_motion_driver.c ****     gyro_bias_body[2] = (long)(((long long)gyro_bias_body[2] * GYRO_SF) >> 30);
 499              		.loc 1 598 33 view .LVU145
 500 005c CC17     		asrs	r4, r1, #31
 598:DMP/driver/eMPL/inv_mpu_dmp_motion_driver.c ****     gyro_bias_body[2] = (long)(((long long)gyro_bias_body[2] * GYRO_SF) >> 30);
ARM GAS  /var/folders/21/t9g5rlb91ys800n5npymflf80000gn/T//ccWnr5oL.s 			page 33


 501              		.loc 1 598 62 view .LVU146
 502 005e A1FB0210 		umull	r1, r0, r1, r2
 503 0062 02FB0400 		mla	r0, r2, r4, r0
 598:DMP/driver/eMPL/inv_mpu_dmp_motion_driver.c ****     gyro_bias_body[2] = (long)(((long long)gyro_bias_body[2] * GYRO_SF) >> 30);
 504              		.loc 1 598 73 view .LVU147
 505 0066 8D0F     		lsrs	r5, r1, #30
 506 0068 45EA8005 		orr	r5, r5, r0, lsl #2
 598:DMP/driver/eMPL/inv_mpu_dmp_motion_driver.c ****     gyro_bias_body[2] = (long)(((long long)gyro_bias_body[2] * GYRO_SF) >> 30);
 507              		.loc 1 598 23 view .LVU148
 508 006c 0295     		str	r5, [sp, #8]
 599:DMP/driver/eMPL/inv_mpu_dmp_motion_driver.c **** #endif
 509              		.loc 1 599 5 is_stmt 1 view .LVU149
 599:DMP/driver/eMPL/inv_mpu_dmp_motion_driver.c **** #endif
 510              		.loc 1 599 58 is_stmt 0 view .LVU150
 511 006e 039C     		ldr	r4, [sp, #12]
 599:DMP/driver/eMPL/inv_mpu_dmp_motion_driver.c **** #endif
 512              		.loc 1 599 33 view .LVU151
 513 0070 E017     		asrs	r0, r4, #31
 599:DMP/driver/eMPL/inv_mpu_dmp_motion_driver.c **** #endif
 514              		.loc 1 599 62 view .LVU152
 515 0072 A4FB0241 		umull	r4, r1, r4, r2
 516 0076 02FB0012 		mla	r2, r2, r0, r1
 599:DMP/driver/eMPL/inv_mpu_dmp_motion_driver.c **** #endif
 517              		.loc 1 599 73 view .LVU153
 518 007a A40F     		lsrs	r4, r4, #30
 519 007c 44EA8204 		orr	r4, r4, r2, lsl #2
 599:DMP/driver/eMPL/inv_mpu_dmp_motion_driver.c **** #endif
 520              		.loc 1 599 23 view .LVU154
 521 0080 0394     		str	r4, [sp, #12]
 602:DMP/driver/eMPL/inv_mpu_dmp_motion_driver.c ****     regs[1] = (unsigned char)((gyro_bias_body[0] >> 16) & 0xFF);
 522              		.loc 1 602 5 is_stmt 1 view .LVU155
 602:DMP/driver/eMPL/inv_mpu_dmp_motion_driver.c ****     regs[1] = (unsigned char)((gyro_bias_body[0] >> 16) & 0xFF);
 523              		.loc 1 602 15 is_stmt 0 view .LVU156
 524 0082 1A0E     		lsrs	r2, r3, #24
 602:DMP/driver/eMPL/inv_mpu_dmp_motion_driver.c ****     regs[1] = (unsigned char)((gyro_bias_body[0] >> 16) & 0xFF);
 525              		.loc 1 602 13 view .LVU157
 526 0084 8DF80020 		strb	r2, [sp]
 603:DMP/driver/eMPL/inv_mpu_dmp_motion_driver.c ****     regs[2] = (unsigned char)((gyro_bias_body[0] >> 8) & 0xFF);
 527              		.loc 1 603 5 is_stmt 1 view .LVU158
 603:DMP/driver/eMPL/inv_mpu_dmp_motion_driver.c ****     regs[2] = (unsigned char)((gyro_bias_body[0] >> 8) & 0xFF);
 528              		.loc 1 603 15 is_stmt 0 view .LVU159
 529 0088 C3F30742 		ubfx	r2, r3, #16, #8
 603:DMP/driver/eMPL/inv_mpu_dmp_motion_driver.c ****     regs[2] = (unsigned char)((gyro_bias_body[0] >> 8) & 0xFF);
 530              		.loc 1 603 13 view .LVU160
 531 008c 8DF80120 		strb	r2, [sp, #1]
 604:DMP/driver/eMPL/inv_mpu_dmp_motion_driver.c ****     regs[3] = (unsigned char)(gyro_bias_body[0] & 0xFF);
 532              		.loc 1 604 5 is_stmt 1 view .LVU161
 604:DMP/driver/eMPL/inv_mpu_dmp_motion_driver.c ****     regs[3] = (unsigned char)(gyro_bias_body[0] & 0xFF);
 533              		.loc 1 604 15 is_stmt 0 view .LVU162
 534 0090 C3F30722 		ubfx	r2, r3, #8, #8
 604:DMP/driver/eMPL/inv_mpu_dmp_motion_driver.c ****     regs[3] = (unsigned char)(gyro_bias_body[0] & 0xFF);
 535              		.loc 1 604 13 view .LVU163
 536 0094 8DF80220 		strb	r2, [sp, #2]
 605:DMP/driver/eMPL/inv_mpu_dmp_motion_driver.c ****     if (mpu_write_mem(D_EXT_GYRO_BIAS_X, 4, regs))
 537              		.loc 1 605 5 is_stmt 1 view .LVU164
 605:DMP/driver/eMPL/inv_mpu_dmp_motion_driver.c ****     if (mpu_write_mem(D_EXT_GYRO_BIAS_X, 4, regs))
 538              		.loc 1 605 13 is_stmt 0 view .LVU165
ARM GAS  /var/folders/21/t9g5rlb91ys800n5npymflf80000gn/T//ccWnr5oL.s 			page 34


 539 0098 8DF80330 		strb	r3, [sp, #3]
 606:DMP/driver/eMPL/inv_mpu_dmp_motion_driver.c ****         return -1;
 540              		.loc 1 606 5 is_stmt 1 view .LVU166
 606:DMP/driver/eMPL/inv_mpu_dmp_motion_driver.c ****         return -1;
 541              		.loc 1 606 9 is_stmt 0 view .LVU167
 542 009c 6A46     		mov	r2, sp
 543 009e 0421     		movs	r1, #4
 544 00a0 4FF47470 		mov	r0, #976
 545 00a4 FFF7FEFF 		bl	mpu_write_mem
 546              	.LVL18:
 606:DMP/driver/eMPL/inv_mpu_dmp_motion_driver.c ****         return -1;
 547              		.loc 1 606 8 view .LVU168
 548 00a8 40BB     		cbnz	r0, .L29
 609:DMP/driver/eMPL/inv_mpu_dmp_motion_driver.c ****     regs[1] = (unsigned char)((gyro_bias_body[1] >> 16) & 0xFF);
 549              		.loc 1 609 5 is_stmt 1 view .LVU169
 609:DMP/driver/eMPL/inv_mpu_dmp_motion_driver.c ****     regs[1] = (unsigned char)((gyro_bias_body[1] >> 16) & 0xFF);
 550              		.loc 1 609 15 is_stmt 0 view .LVU170
 551 00aa 2B0E     		lsrs	r3, r5, #24
 609:DMP/driver/eMPL/inv_mpu_dmp_motion_driver.c ****     regs[1] = (unsigned char)((gyro_bias_body[1] >> 16) & 0xFF);
 552              		.loc 1 609 13 view .LVU171
 553 00ac 8DF80030 		strb	r3, [sp]
 610:DMP/driver/eMPL/inv_mpu_dmp_motion_driver.c ****     regs[2] = (unsigned char)((gyro_bias_body[1] >> 8) & 0xFF);
 554              		.loc 1 610 5 is_stmt 1 view .LVU172
 610:DMP/driver/eMPL/inv_mpu_dmp_motion_driver.c ****     regs[2] = (unsigned char)((gyro_bias_body[1] >> 8) & 0xFF);
 555              		.loc 1 610 15 is_stmt 0 view .LVU173
 556 00b0 C5F30743 		ubfx	r3, r5, #16, #8
 610:DMP/driver/eMPL/inv_mpu_dmp_motion_driver.c ****     regs[2] = (unsigned char)((gyro_bias_body[1] >> 8) & 0xFF);
 557              		.loc 1 610 13 view .LVU174
 558 00b4 8DF80130 		strb	r3, [sp, #1]
 611:DMP/driver/eMPL/inv_mpu_dmp_motion_driver.c ****     regs[3] = (unsigned char)(gyro_bias_body[1] & 0xFF);
 559              		.loc 1 611 5 is_stmt 1 view .LVU175
 611:DMP/driver/eMPL/inv_mpu_dmp_motion_driver.c ****     regs[3] = (unsigned char)(gyro_bias_body[1] & 0xFF);
 560              		.loc 1 611 15 is_stmt 0 view .LVU176
 561 00b8 C5F30723 		ubfx	r3, r5, #8, #8
 611:DMP/driver/eMPL/inv_mpu_dmp_motion_driver.c ****     regs[3] = (unsigned char)(gyro_bias_body[1] & 0xFF);
 562              		.loc 1 611 13 view .LVU177
 563 00bc 8DF80230 		strb	r3, [sp, #2]
 612:DMP/driver/eMPL/inv_mpu_dmp_motion_driver.c ****     if (mpu_write_mem(D_EXT_GYRO_BIAS_Y, 4, regs))
 564              		.loc 1 612 5 is_stmt 1 view .LVU178
 612:DMP/driver/eMPL/inv_mpu_dmp_motion_driver.c ****     if (mpu_write_mem(D_EXT_GYRO_BIAS_Y, 4, regs))
 565              		.loc 1 612 13 is_stmt 0 view .LVU179
 566 00c0 8DF80350 		strb	r5, [sp, #3]
 613:DMP/driver/eMPL/inv_mpu_dmp_motion_driver.c ****         return -1;
 567              		.loc 1 613 5 is_stmt 1 view .LVU180
 613:DMP/driver/eMPL/inv_mpu_dmp_motion_driver.c ****         return -1;
 568              		.loc 1 613 9 is_stmt 0 view .LVU181
 569 00c4 6A46     		mov	r2, sp
 570 00c6 0421     		movs	r1, #4
 571 00c8 4FF47570 		mov	r0, #980
 572 00cc FFF7FEFF 		bl	mpu_write_mem
 573              	.LVL19:
 613:DMP/driver/eMPL/inv_mpu_dmp_motion_driver.c ****         return -1;
 574              		.loc 1 613 8 view .LVU182
 575 00d0 B8B9     		cbnz	r0, .L30
 616:DMP/driver/eMPL/inv_mpu_dmp_motion_driver.c ****     regs[1] = (unsigned char)((gyro_bias_body[2] >> 16) & 0xFF);
 576              		.loc 1 616 5 is_stmt 1 view .LVU183
 616:DMP/driver/eMPL/inv_mpu_dmp_motion_driver.c ****     regs[1] = (unsigned char)((gyro_bias_body[2] >> 16) & 0xFF);
ARM GAS  /var/folders/21/t9g5rlb91ys800n5npymflf80000gn/T//ccWnr5oL.s 			page 35


 577              		.loc 1 616 15 is_stmt 0 view .LVU184
 578 00d2 230E     		lsrs	r3, r4, #24
 616:DMP/driver/eMPL/inv_mpu_dmp_motion_driver.c ****     regs[1] = (unsigned char)((gyro_bias_body[2] >> 16) & 0xFF);
 579              		.loc 1 616 13 view .LVU185
 580 00d4 8DF80030 		strb	r3, [sp]
 617:DMP/driver/eMPL/inv_mpu_dmp_motion_driver.c ****     regs[2] = (unsigned char)((gyro_bias_body[2] >> 8) & 0xFF);
 581              		.loc 1 617 5 is_stmt 1 view .LVU186
 617:DMP/driver/eMPL/inv_mpu_dmp_motion_driver.c ****     regs[2] = (unsigned char)((gyro_bias_body[2] >> 8) & 0xFF);
 582              		.loc 1 617 15 is_stmt 0 view .LVU187
 583 00d8 C4F30743 		ubfx	r3, r4, #16, #8
 617:DMP/driver/eMPL/inv_mpu_dmp_motion_driver.c ****     regs[2] = (unsigned char)((gyro_bias_body[2] >> 8) & 0xFF);
 584              		.loc 1 617 13 view .LVU188
 585 00dc 8DF80130 		strb	r3, [sp, #1]
 618:DMP/driver/eMPL/inv_mpu_dmp_motion_driver.c ****     regs[3] = (unsigned char)(gyro_bias_body[2] & 0xFF);
 586              		.loc 1 618 5 is_stmt 1 view .LVU189
 618:DMP/driver/eMPL/inv_mpu_dmp_motion_driver.c ****     regs[3] = (unsigned char)(gyro_bias_body[2] & 0xFF);
 587              		.loc 1 618 15 is_stmt 0 view .LVU190
 588 00e0 C4F30726 		ubfx	r6, r4, #8, #8
 618:DMP/driver/eMPL/inv_mpu_dmp_motion_driver.c ****     regs[3] = (unsigned char)(gyro_bias_body[2] & 0xFF);
 589              		.loc 1 618 13 view .LVU191
 590 00e4 8DF80260 		strb	r6, [sp, #2]
 619:DMP/driver/eMPL/inv_mpu_dmp_motion_driver.c ****     return mpu_write_mem(D_EXT_GYRO_BIAS_Z, 4, regs);
 591              		.loc 1 619 5 is_stmt 1 view .LVU192
 619:DMP/driver/eMPL/inv_mpu_dmp_motion_driver.c ****     return mpu_write_mem(D_EXT_GYRO_BIAS_Z, 4, regs);
 592              		.loc 1 619 13 is_stmt 0 view .LVU193
 593 00e8 8DF80340 		strb	r4, [sp, #3]
 620:DMP/driver/eMPL/inv_mpu_dmp_motion_driver.c **** }
 594              		.loc 1 620 5 is_stmt 1 view .LVU194
 620:DMP/driver/eMPL/inv_mpu_dmp_motion_driver.c **** }
 595              		.loc 1 620 12 is_stmt 0 view .LVU195
 596 00ec 6A46     		mov	r2, sp
 597 00ee 0421     		movs	r1, #4
 598 00f0 4FF47670 		mov	r0, #984
 599 00f4 FFF7FEFF 		bl	mpu_write_mem
 600              	.LVL20:
 601              	.L24:
 621:DMP/driver/eMPL/inv_mpu_dmp_motion_driver.c **** 
 602              		.loc 1 621 1 view .LVU196
 603 00f8 04B0     		add	sp, sp, #16
 604              	.LCFI8:
 605              		.cfi_remember_state
 606              		.cfi_def_cfa_offset 16
 607              		@ sp needed
 608 00fa 70BD     		pop	{r4, r5, r6, pc}
 609              	.L29:
 610              	.LCFI9:
 611              		.cfi_restore_state
 607:DMP/driver/eMPL/inv_mpu_dmp_motion_driver.c **** 
 612              		.loc 1 607 16 view .LVU197
 613 00fc 4FF0FF30 		mov	r0, #-1
 614 0100 FAE7     		b	.L24
 615              	.L30:
 614:DMP/driver/eMPL/inv_mpu_dmp_motion_driver.c **** 
 616              		.loc 1 614 16 view .LVU198
 617 0102 4FF0FF30 		mov	r0, #-1
 618 0106 F7E7     		b	.L24
 619              	.L33:
ARM GAS  /var/folders/21/t9g5rlb91ys800n5npymflf80000gn/T//ccWnr5oL.s 			page 36


 620              		.align	2
 621              	.L32:
 622 0108 00000000 		.word	dmp
 623 010c 09E3CA02 		.word	46850825
 624              		.cfi_endproc
 625              	.LFE164:
 627              		.section	.text.dmp_set_accel_bias,"ax",%progbits
 628              		.align	1
 629              		.global	dmp_set_accel_bias
 630              		.syntax unified
 631              		.thumb
 632              		.thumb_func
 634              	dmp_set_accel_bias:
 635              	.LVL21:
 636              	.LFB165:
 630:DMP/driver/eMPL/inv_mpu_dmp_motion_driver.c ****     long accel_bias_body[3];
 637              		.loc 1 630 1 is_stmt 1 view -0
 638              		.cfi_startproc
 639              		@ args = 0, pretend = 0, frame = 32
 640              		@ frame_needed = 0, uses_anonymous_args = 0
 630:DMP/driver/eMPL/inv_mpu_dmp_motion_driver.c ****     long accel_bias_body[3];
 641              		.loc 1 630 1 is_stmt 0 view .LVU200
 642 0000 10B5     		push	{r4, lr}
 643              	.LCFI10:
 644              		.cfi_def_cfa_offset 8
 645              		.cfi_offset 4, -8
 646              		.cfi_offset 14, -4
 647 0002 88B0     		sub	sp, sp, #32
 648              	.LCFI11:
 649              		.cfi_def_cfa_offset 40
 650 0004 0446     		mov	r4, r0
 631:DMP/driver/eMPL/inv_mpu_dmp_motion_driver.c ****     unsigned char regs[12];
 651              		.loc 1 631 5 is_stmt 1 view .LVU201
 632:DMP/driver/eMPL/inv_mpu_dmp_motion_driver.c ****     long long accel_sf;
 652              		.loc 1 632 5 view .LVU202
 633:DMP/driver/eMPL/inv_mpu_dmp_motion_driver.c ****     unsigned short accel_sens;
 653              		.loc 1 633 5 view .LVU203
 634:DMP/driver/eMPL/inv_mpu_dmp_motion_driver.c **** 
 654              		.loc 1 634 5 view .LVU204
 636:DMP/driver/eMPL/inv_mpu_dmp_motion_driver.c ****     accel_sf = (long long)accel_sens << 15;
 655              		.loc 1 636 5 view .LVU205
 656 0006 0DF10600 		add	r0, sp, #6
 657              	.LVL22:
 636:DMP/driver/eMPL/inv_mpu_dmp_motion_driver.c ****     accel_sf = (long long)accel_sens << 15;
 658              		.loc 1 636 5 is_stmt 0 view .LVU206
 659 000a FFF7FEFF 		bl	mpu_get_accel_sens
 660              	.LVL23:
 637:DMP/driver/eMPL/inv_mpu_dmp_motion_driver.c ****     /*__no_operation();*/
 661              		.loc 1 637 5 is_stmt 1 view .LVU207
 637:DMP/driver/eMPL/inv_mpu_dmp_motion_driver.c ****     /*__no_operation();*/
 662              		.loc 1 637 16 is_stmt 0 view .LVU208
 663 000e BDF806C0 		ldrh	ip, [sp, #6]
 637:DMP/driver/eMPL/inv_mpu_dmp_motion_driver.c ****     /*__no_operation();*/
 664              		.loc 1 637 14 view .LVU209
 665 0012 4FEACC3C 		lsl	ip, ip, #15
 666              	.LVL24:
 639:DMP/driver/eMPL/inv_mpu_dmp_motion_driver.c **** 
ARM GAS  /var/folders/21/t9g5rlb91ys800n5npymflf80000gn/T//ccWnr5oL.s 			page 37


 667              		.loc 1 639 5 is_stmt 1 view .LVU210
 668              		.syntax unified
 669              	@ 639 "DMP/driver/eMPL/inv_mpu_dmp_motion_driver.c" 1
 670 0016 00BF     		nop
 671              	@ 0 "" 2
 641:DMP/driver/eMPL/inv_mpu_dmp_motion_driver.c ****     if (dmp.orient & 4)
 672              		.loc 1 641 5 view .LVU211
 641:DMP/driver/eMPL/inv_mpu_dmp_motion_driver.c ****     if (dmp.orient & 4)
 673              		.loc 1 641 34 is_stmt 0 view .LVU212
 674              		.thumb
 675              		.syntax unified
 676 0018 364B     		ldr	r3, .L39
 677 001a 1B89     		ldrh	r3, [r3, #8]
 641:DMP/driver/eMPL/inv_mpu_dmp_motion_driver.c ****     if (dmp.orient & 4)
 678              		.loc 1 641 42 view .LVU213
 679 001c 03F00302 		and	r2, r3, #3
 641:DMP/driver/eMPL/inv_mpu_dmp_motion_driver.c ****     if (dmp.orient & 4)
 680              		.loc 1 641 30 view .LVU214
 681 0020 54F82220 		ldr	r2, [r4, r2, lsl #2]
 641:DMP/driver/eMPL/inv_mpu_dmp_motion_driver.c ****     if (dmp.orient & 4)
 682              		.loc 1 641 24 view .LVU215
 683 0024 0592     		str	r2, [sp, #20]
 642:DMP/driver/eMPL/inv_mpu_dmp_motion_driver.c ****         accel_bias_body[0] *= -1;
 684              		.loc 1 642 5 is_stmt 1 view .LVU216
 642:DMP/driver/eMPL/inv_mpu_dmp_motion_driver.c ****         accel_bias_body[0] *= -1;
 685              		.loc 1 642 8 is_stmt 0 view .LVU217
 686 0026 13F0040F 		tst	r3, #4
 687 002a 01D0     		beq	.L35
 643:DMP/driver/eMPL/inv_mpu_dmp_motion_driver.c ****     accel_bias_body[1] = bias[(dmp.orient >> 3) & 3];
 688              		.loc 1 643 9 is_stmt 1 view .LVU218
 643:DMP/driver/eMPL/inv_mpu_dmp_motion_driver.c ****     accel_bias_body[1] = bias[(dmp.orient >> 3) & 3];
 689              		.loc 1 643 28 is_stmt 0 view .LVU219
 690 002c 5242     		rsbs	r2, r2, #0
 691 002e 0592     		str	r2, [sp, #20]
 692              	.L35:
 644:DMP/driver/eMPL/inv_mpu_dmp_motion_driver.c ****     if (dmp.orient & 0x20)
 693              		.loc 1 644 5 is_stmt 1 view .LVU220
 644:DMP/driver/eMPL/inv_mpu_dmp_motion_driver.c ****     if (dmp.orient & 0x20)
 694              		.loc 1 644 49 is_stmt 0 view .LVU221
 695 0030 C3F3C102 		ubfx	r2, r3, #3, #2
 644:DMP/driver/eMPL/inv_mpu_dmp_motion_driver.c ****     if (dmp.orient & 0x20)
 696              		.loc 1 644 30 view .LVU222
 697 0034 54F82220 		ldr	r2, [r4, r2, lsl #2]
 644:DMP/driver/eMPL/inv_mpu_dmp_motion_driver.c ****     if (dmp.orient & 0x20)
 698              		.loc 1 644 24 view .LVU223
 699 0038 0692     		str	r2, [sp, #24]
 645:DMP/driver/eMPL/inv_mpu_dmp_motion_driver.c ****         accel_bias_body[1] *= -1;
 700              		.loc 1 645 5 is_stmt 1 view .LVU224
 645:DMP/driver/eMPL/inv_mpu_dmp_motion_driver.c ****         accel_bias_body[1] *= -1;
 701              		.loc 1 645 8 is_stmt 0 view .LVU225
 702 003a 13F0200F 		tst	r3, #32
 703 003e 01D0     		beq	.L36
 646:DMP/driver/eMPL/inv_mpu_dmp_motion_driver.c ****     accel_bias_body[2] = bias[(dmp.orient >> 6) & 3];
 704              		.loc 1 646 9 is_stmt 1 view .LVU226
 646:DMP/driver/eMPL/inv_mpu_dmp_motion_driver.c ****     accel_bias_body[2] = bias[(dmp.orient >> 6) & 3];
 705              		.loc 1 646 28 is_stmt 0 view .LVU227
 706 0040 5242     		rsbs	r2, r2, #0
ARM GAS  /var/folders/21/t9g5rlb91ys800n5npymflf80000gn/T//ccWnr5oL.s 			page 38


 707 0042 0692     		str	r2, [sp, #24]
 708              	.L36:
 647:DMP/driver/eMPL/inv_mpu_dmp_motion_driver.c ****     if (dmp.orient & 0x100)
 709              		.loc 1 647 5 is_stmt 1 view .LVU228
 647:DMP/driver/eMPL/inv_mpu_dmp_motion_driver.c ****     if (dmp.orient & 0x100)
 710              		.loc 1 647 49 is_stmt 0 view .LVU229
 711 0044 C3F38112 		ubfx	r2, r3, #6, #2
 647:DMP/driver/eMPL/inv_mpu_dmp_motion_driver.c ****     if (dmp.orient & 0x100)
 712              		.loc 1 647 30 view .LVU230
 713 0048 54F82220 		ldr	r2, [r4, r2, lsl #2]
 647:DMP/driver/eMPL/inv_mpu_dmp_motion_driver.c ****     if (dmp.orient & 0x100)
 714              		.loc 1 647 24 view .LVU231
 715 004c 0792     		str	r2, [sp, #28]
 648:DMP/driver/eMPL/inv_mpu_dmp_motion_driver.c ****         accel_bias_body[2] *= -1;
 716              		.loc 1 648 5 is_stmt 1 view .LVU232
 648:DMP/driver/eMPL/inv_mpu_dmp_motion_driver.c ****         accel_bias_body[2] *= -1;
 717              		.loc 1 648 8 is_stmt 0 view .LVU233
 718 004e 13F4807F 		tst	r3, #256
 719 0052 01D0     		beq	.L37
 649:DMP/driver/eMPL/inv_mpu_dmp_motion_driver.c **** 
 720              		.loc 1 649 9 is_stmt 1 view .LVU234
 649:DMP/driver/eMPL/inv_mpu_dmp_motion_driver.c **** 
 721              		.loc 1 649 28 is_stmt 0 view .LVU235
 722 0054 5242     		rsbs	r2, r2, #0
 723 0056 0792     		str	r2, [sp, #28]
 724              	.L37:
 656:DMP/driver/eMPL/inv_mpu_dmp_motion_driver.c ****     accel_bias_body[1] = (long)(((long long)accel_bias_body[1] * accel_sf) >> 30);
 725              		.loc 1 656 5 is_stmt 1 view .LVU236
 656:DMP/driver/eMPL/inv_mpu_dmp_motion_driver.c ****     accel_bias_body[1] = (long)(((long long)accel_bias_body[1] * accel_sf) >> 30);
 726              		.loc 1 656 60 is_stmt 0 view .LVU237
 727 0058 0599     		ldr	r1, [sp, #20]
 656:DMP/driver/eMPL/inv_mpu_dmp_motion_driver.c ****     accel_bias_body[1] = (long)(((long long)accel_bias_body[1] * accel_sf) >> 30);
 728              		.loc 1 656 34 view .LVU238
 729 005a CA17     		asrs	r2, r1, #31
 656:DMP/driver/eMPL/inv_mpu_dmp_motion_driver.c ****     accel_bias_body[1] = (long)(((long long)accel_bias_body[1] * accel_sf) >> 30);
 730              		.loc 1 656 64 view .LVU239
 731 005c A1FB0C13 		umull	r1, r3, r1, ip
 732 0060 0CFB0233 		mla	r3, ip, r2, r3
 656:DMP/driver/eMPL/inv_mpu_dmp_motion_driver.c ****     accel_bias_body[1] = (long)(((long long)accel_bias_body[1] * accel_sf) >> 30);
 733              		.loc 1 656 76 view .LVU240
 734 0064 890F     		lsrs	r1, r1, #30
 735 0066 41EA8301 		orr	r1, r1, r3, lsl #2
 656:DMP/driver/eMPL/inv_mpu_dmp_motion_driver.c ****     accel_bias_body[1] = (long)(((long long)accel_bias_body[1] * accel_sf) >> 30);
 736              		.loc 1 656 24 view .LVU241
 737 006a 0591     		str	r1, [sp, #20]
 657:DMP/driver/eMPL/inv_mpu_dmp_motion_driver.c ****     accel_bias_body[2] = (long)(((long long)accel_bias_body[2] * accel_sf) >> 30);
 738              		.loc 1 657 5 is_stmt 1 view .LVU242
 657:DMP/driver/eMPL/inv_mpu_dmp_motion_driver.c ****     accel_bias_body[2] = (long)(((long long)accel_bias_body[2] * accel_sf) >> 30);
 739              		.loc 1 657 60 is_stmt 0 view .LVU243
 740 006c 069A     		ldr	r2, [sp, #24]
 657:DMP/driver/eMPL/inv_mpu_dmp_motion_driver.c ****     accel_bias_body[2] = (long)(((long long)accel_bias_body[2] * accel_sf) >> 30);
 741              		.loc 1 657 34 view .LVU244
 742 006e D017     		asrs	r0, r2, #31
 657:DMP/driver/eMPL/inv_mpu_dmp_motion_driver.c ****     accel_bias_body[2] = (long)(((long long)accel_bias_body[2] * accel_sf) >> 30);
 743              		.loc 1 657 64 view .LVU245
 744 0070 A2FB0C23 		umull	r2, r3, r2, ip
 745 0074 0CFB0033 		mla	r3, ip, r0, r3
ARM GAS  /var/folders/21/t9g5rlb91ys800n5npymflf80000gn/T//ccWnr5oL.s 			page 39


 657:DMP/driver/eMPL/inv_mpu_dmp_motion_driver.c ****     accel_bias_body[2] = (long)(((long long)accel_bias_body[2] * accel_sf) >> 30);
 746              		.loc 1 657 76 view .LVU246
 747 0078 920F     		lsrs	r2, r2, #30
 748 007a 42EA8302 		orr	r2, r2, r3, lsl #2
 657:DMP/driver/eMPL/inv_mpu_dmp_motion_driver.c ****     accel_bias_body[2] = (long)(((long long)accel_bias_body[2] * accel_sf) >> 30);
 749              		.loc 1 657 24 view .LVU247
 750 007e 0692     		str	r2, [sp, #24]
 658:DMP/driver/eMPL/inv_mpu_dmp_motion_driver.c **** #endif
 751              		.loc 1 658 5 is_stmt 1 view .LVU248
 658:DMP/driver/eMPL/inv_mpu_dmp_motion_driver.c **** #endif
 752              		.loc 1 658 60 is_stmt 0 view .LVU249
 753 0080 079B     		ldr	r3, [sp, #28]
 658:DMP/driver/eMPL/inv_mpu_dmp_motion_driver.c **** #endif
 754              		.loc 1 658 34 view .LVU250
 755 0082 DC17     		asrs	r4, r3, #31
 756              	.LVL25:
 658:DMP/driver/eMPL/inv_mpu_dmp_motion_driver.c **** #endif
 757              		.loc 1 658 64 view .LVU251
 758 0084 A3FB0C30 		umull	r3, r0, r3, ip
 759 0088 0CFB0400 		mla	r0, ip, r4, r0
 658:DMP/driver/eMPL/inv_mpu_dmp_motion_driver.c **** #endif
 760              		.loc 1 658 76 view .LVU252
 761 008c 9B0F     		lsrs	r3, r3, #30
 762 008e 43EA8003 		orr	r3, r3, r0, lsl #2
 658:DMP/driver/eMPL/inv_mpu_dmp_motion_driver.c **** #endif
 763              		.loc 1 658 24 view .LVU253
 764 0092 0793     		str	r3, [sp, #28]
 661:DMP/driver/eMPL/inv_mpu_dmp_motion_driver.c ****     regs[1] = (unsigned char)((accel_bias_body[0] >> 16) & 0xFF);
 765              		.loc 1 661 5 is_stmt 1 view .LVU254
 661:DMP/driver/eMPL/inv_mpu_dmp_motion_driver.c ****     regs[1] = (unsigned char)((accel_bias_body[0] >> 16) & 0xFF);
 766              		.loc 1 661 15 is_stmt 0 view .LVU255
 767 0094 080E     		lsrs	r0, r1, #24
 661:DMP/driver/eMPL/inv_mpu_dmp_motion_driver.c ****     regs[1] = (unsigned char)((accel_bias_body[0] >> 16) & 0xFF);
 768              		.loc 1 661 13 view .LVU256
 769 0096 8DF80800 		strb	r0, [sp, #8]
 662:DMP/driver/eMPL/inv_mpu_dmp_motion_driver.c ****     regs[2] = (unsigned char)((accel_bias_body[0] >> 8) & 0xFF);
 770              		.loc 1 662 5 is_stmt 1 view .LVU257
 662:DMP/driver/eMPL/inv_mpu_dmp_motion_driver.c ****     regs[2] = (unsigned char)((accel_bias_body[0] >> 8) & 0xFF);
 771              		.loc 1 662 15 is_stmt 0 view .LVU258
 772 009a C1F30740 		ubfx	r0, r1, #16, #8
 662:DMP/driver/eMPL/inv_mpu_dmp_motion_driver.c ****     regs[2] = (unsigned char)((accel_bias_body[0] >> 8) & 0xFF);
 773              		.loc 1 662 13 view .LVU259
 774 009e 8DF80900 		strb	r0, [sp, #9]
 663:DMP/driver/eMPL/inv_mpu_dmp_motion_driver.c ****     regs[3] = (unsigned char)(accel_bias_body[0] & 0xFF);
 775              		.loc 1 663 5 is_stmt 1 view .LVU260
 663:DMP/driver/eMPL/inv_mpu_dmp_motion_driver.c ****     regs[3] = (unsigned char)(accel_bias_body[0] & 0xFF);
 776              		.loc 1 663 15 is_stmt 0 view .LVU261
 777 00a2 C1F30720 		ubfx	r0, r1, #8, #8
 663:DMP/driver/eMPL/inv_mpu_dmp_motion_driver.c ****     regs[3] = (unsigned char)(accel_bias_body[0] & 0xFF);
 778              		.loc 1 663 13 view .LVU262
 779 00a6 8DF80A00 		strb	r0, [sp, #10]
 664:DMP/driver/eMPL/inv_mpu_dmp_motion_driver.c ****     regs[4] = (unsigned char)((accel_bias_body[1] >> 24) & 0xFF);
 780              		.loc 1 664 5 is_stmt 1 view .LVU263
 664:DMP/driver/eMPL/inv_mpu_dmp_motion_driver.c ****     regs[4] = (unsigned char)((accel_bias_body[1] >> 24) & 0xFF);
 781              		.loc 1 664 13 is_stmt 0 view .LVU264
 782 00aa 8DF80B10 		strb	r1, [sp, #11]
 665:DMP/driver/eMPL/inv_mpu_dmp_motion_driver.c ****     regs[5] = (unsigned char)((accel_bias_body[1] >> 16) & 0xFF);
ARM GAS  /var/folders/21/t9g5rlb91ys800n5npymflf80000gn/T//ccWnr5oL.s 			page 40


 783              		.loc 1 665 5 is_stmt 1 view .LVU265
 665:DMP/driver/eMPL/inv_mpu_dmp_motion_driver.c ****     regs[5] = (unsigned char)((accel_bias_body[1] >> 16) & 0xFF);
 784              		.loc 1 665 15 is_stmt 0 view .LVU266
 785 00ae 110E     		lsrs	r1, r2, #24
 665:DMP/driver/eMPL/inv_mpu_dmp_motion_driver.c ****     regs[5] = (unsigned char)((accel_bias_body[1] >> 16) & 0xFF);
 786              		.loc 1 665 13 view .LVU267
 787 00b0 8DF80C10 		strb	r1, [sp, #12]
 666:DMP/driver/eMPL/inv_mpu_dmp_motion_driver.c ****     regs[6] = (unsigned char)((accel_bias_body[1] >> 8) & 0xFF);
 788              		.loc 1 666 5 is_stmt 1 view .LVU268
 666:DMP/driver/eMPL/inv_mpu_dmp_motion_driver.c ****     regs[6] = (unsigned char)((accel_bias_body[1] >> 8) & 0xFF);
 789              		.loc 1 666 15 is_stmt 0 view .LVU269
 790 00b4 C2F30741 		ubfx	r1, r2, #16, #8
 666:DMP/driver/eMPL/inv_mpu_dmp_motion_driver.c ****     regs[6] = (unsigned char)((accel_bias_body[1] >> 8) & 0xFF);
 791              		.loc 1 666 13 view .LVU270
 792 00b8 8DF80D10 		strb	r1, [sp, #13]
 667:DMP/driver/eMPL/inv_mpu_dmp_motion_driver.c ****     regs[7] = (unsigned char)(accel_bias_body[1] & 0xFF);
 793              		.loc 1 667 5 is_stmt 1 view .LVU271
 667:DMP/driver/eMPL/inv_mpu_dmp_motion_driver.c ****     regs[7] = (unsigned char)(accel_bias_body[1] & 0xFF);
 794              		.loc 1 667 15 is_stmt 0 view .LVU272
 795 00bc C2F30721 		ubfx	r1, r2, #8, #8
 667:DMP/driver/eMPL/inv_mpu_dmp_motion_driver.c ****     regs[7] = (unsigned char)(accel_bias_body[1] & 0xFF);
 796              		.loc 1 667 13 view .LVU273
 797 00c0 8DF80E10 		strb	r1, [sp, #14]
 668:DMP/driver/eMPL/inv_mpu_dmp_motion_driver.c ****     regs[8] = (unsigned char)((accel_bias_body[2] >> 24) & 0xFF);
 798              		.loc 1 668 5 is_stmt 1 view .LVU274
 668:DMP/driver/eMPL/inv_mpu_dmp_motion_driver.c ****     regs[8] = (unsigned char)((accel_bias_body[2] >> 24) & 0xFF);
 799              		.loc 1 668 13 is_stmt 0 view .LVU275
 800 00c4 8DF80F20 		strb	r2, [sp, #15]
 669:DMP/driver/eMPL/inv_mpu_dmp_motion_driver.c ****     regs[9] = (unsigned char)((accel_bias_body[2] >> 16) & 0xFF);
 801              		.loc 1 669 5 is_stmt 1 view .LVU276
 669:DMP/driver/eMPL/inv_mpu_dmp_motion_driver.c ****     regs[9] = (unsigned char)((accel_bias_body[2] >> 16) & 0xFF);
 802              		.loc 1 669 15 is_stmt 0 view .LVU277
 803 00c8 1A0E     		lsrs	r2, r3, #24
 669:DMP/driver/eMPL/inv_mpu_dmp_motion_driver.c ****     regs[9] = (unsigned char)((accel_bias_body[2] >> 16) & 0xFF);
 804              		.loc 1 669 13 view .LVU278
 805 00ca 8DF81020 		strb	r2, [sp, #16]
 670:DMP/driver/eMPL/inv_mpu_dmp_motion_driver.c ****     regs[10] = (unsigned char)((accel_bias_body[2] >> 8) & 0xFF);
 806              		.loc 1 670 5 is_stmt 1 view .LVU279
 670:DMP/driver/eMPL/inv_mpu_dmp_motion_driver.c ****     regs[10] = (unsigned char)((accel_bias_body[2] >> 8) & 0xFF);
 807              		.loc 1 670 15 is_stmt 0 view .LVU280
 808 00ce C3F30742 		ubfx	r2, r3, #16, #8
 670:DMP/driver/eMPL/inv_mpu_dmp_motion_driver.c ****     regs[10] = (unsigned char)((accel_bias_body[2] >> 8) & 0xFF);
 809              		.loc 1 670 13 view .LVU281
 810 00d2 8DF81120 		strb	r2, [sp, #17]
 671:DMP/driver/eMPL/inv_mpu_dmp_motion_driver.c ****     regs[11] = (unsigned char)(accel_bias_body[2] & 0xFF);
 811              		.loc 1 671 5 is_stmt 1 view .LVU282
 671:DMP/driver/eMPL/inv_mpu_dmp_motion_driver.c ****     regs[11] = (unsigned char)(accel_bias_body[2] & 0xFF);
 812              		.loc 1 671 16 is_stmt 0 view .LVU283
 813 00d6 C3F30722 		ubfx	r2, r3, #8, #8
 671:DMP/driver/eMPL/inv_mpu_dmp_motion_driver.c ****     regs[11] = (unsigned char)(accel_bias_body[2] & 0xFF);
 814              		.loc 1 671 14 view .LVU284
 815 00da 8DF81220 		strb	r2, [sp, #18]
 672:DMP/driver/eMPL/inv_mpu_dmp_motion_driver.c ****     return mpu_write_mem(D_ACCEL_BIAS, 12, regs);
 816              		.loc 1 672 5 is_stmt 1 view .LVU285
 672:DMP/driver/eMPL/inv_mpu_dmp_motion_driver.c ****     return mpu_write_mem(D_ACCEL_BIAS, 12, regs);
 817              		.loc 1 672 14 is_stmt 0 view .LVU286
 818 00de 8DF81330 		strb	r3, [sp, #19]
ARM GAS  /var/folders/21/t9g5rlb91ys800n5npymflf80000gn/T//ccWnr5oL.s 			page 41


 673:DMP/driver/eMPL/inv_mpu_dmp_motion_driver.c **** }
 819              		.loc 1 673 5 is_stmt 1 view .LVU287
 673:DMP/driver/eMPL/inv_mpu_dmp_motion_driver.c **** }
 820              		.loc 1 673 12 is_stmt 0 view .LVU288
 821 00e2 02AA     		add	r2, sp, #8
 822 00e4 0C21     		movs	r1, #12
 823 00e6 4FF42570 		mov	r0, #660
 824 00ea FFF7FEFF 		bl	mpu_write_mem
 825              	.LVL26:
 674:DMP/driver/eMPL/inv_mpu_dmp_motion_driver.c **** 
 826              		.loc 1 674 1 view .LVU289
 827 00ee 08B0     		add	sp, sp, #32
 828              	.LCFI12:
 829              		.cfi_def_cfa_offset 8
 830              		@ sp needed
 831 00f0 10BD     		pop	{r4, pc}
 832              	.L40:
 833 00f2 00BF     		.align	2
 834              	.L39:
 835 00f4 00000000 		.word	dmp
 836              		.cfi_endproc
 837              	.LFE165:
 839              		.section	.rodata.dmp_set_fifo_rate.str1.4,"aMS",%progbits,1
 840              		.align	2
 841              	.LC4:
 842 0000 FEF2ABC4 		.ascii	"\376\362\253\304\252\361\337\337\273\257\337\337\000"
 842      AAF1DFDF 
 842      BBAFDFDF 
 842      00
 843              		.section	.text.dmp_set_fifo_rate,"ax",%progbits
 844              		.align	1
 845              		.global	dmp_set_fifo_rate
 846              		.syntax unified
 847              		.thumb
 848              		.thumb_func
 850              	dmp_set_fifo_rate:
 851              	.LVL27:
 852              	.LFB166:
 683:DMP/driver/eMPL/inv_mpu_dmp_motion_driver.c ****     const unsigned char regs_end[12] = {DINAFE, DINAF2, DINAAB,
 853              		.loc 1 683 1 is_stmt 1 view -0
 854              		.cfi_startproc
 855              		@ args = 0, pretend = 0, frame = 24
 856              		@ frame_needed = 0, uses_anonymous_args = 0
 683:DMP/driver/eMPL/inv_mpu_dmp_motion_driver.c ****     const unsigned char regs_end[12] = {DINAFE, DINAF2, DINAAB,
 857              		.loc 1 683 1 is_stmt 0 view .LVU291
 858 0000 10B5     		push	{r4, lr}
 859              	.LCFI13:
 860              		.cfi_def_cfa_offset 8
 861              		.cfi_offset 4, -8
 862              		.cfi_offset 14, -4
 863 0002 86B0     		sub	sp, sp, #24
 864              	.LCFI14:
 865              		.cfi_def_cfa_offset 32
 866 0004 0446     		mov	r4, r0
 684:DMP/driver/eMPL/inv_mpu_dmp_motion_driver.c ****         0xc4, DINAAA, DINAF1, DINADF, DINADF, 0xBB, 0xAF, DINADF, DINADF};
 867              		.loc 1 684 5 is_stmt 1 view .LVU292
 684:DMP/driver/eMPL/inv_mpu_dmp_motion_driver.c ****         0xc4, DINAAA, DINAF1, DINADF, DINADF, 0xBB, 0xAF, DINADF, DINADF};
ARM GAS  /var/folders/21/t9g5rlb91ys800n5npymflf80000gn/T//ccWnr5oL.s 			page 42


 868              		.loc 1 684 25 is_stmt 0 view .LVU293
 869 0006 164B     		ldr	r3, .L47
 870 0008 93E80700 		ldm	r3, {r0, r1, r2}
 871              	.LVL28:
 684:DMP/driver/eMPL/inv_mpu_dmp_motion_driver.c ****         0xc4, DINAAA, DINAF1, DINADF, DINADF, 0xBB, 0xAF, DINADF, DINADF};
 872              		.loc 1 684 25 view .LVU294
 873 000c 06AB     		add	r3, sp, #24
 874 000e 03E90700 		stmdb	r3, {r0, r1, r2}
 686:DMP/driver/eMPL/inv_mpu_dmp_motion_driver.c ****     unsigned char tmp[8];
 875              		.loc 1 686 5 is_stmt 1 view .LVU295
 687:DMP/driver/eMPL/inv_mpu_dmp_motion_driver.c **** 
 876              		.loc 1 687 5 view .LVU296
 689:DMP/driver/eMPL/inv_mpu_dmp_motion_driver.c ****         return -1;
 877              		.loc 1 689 5 view .LVU297
 689:DMP/driver/eMPL/inv_mpu_dmp_motion_driver.c ****         return -1;
 878              		.loc 1 689 8 is_stmt 0 view .LVU298
 879 0012 C82C     		cmp	r4, #200
 880 0014 1AD8     		bhi	.L43
 691:DMP/driver/eMPL/inv_mpu_dmp_motion_driver.c ****     tmp[0] = (unsigned char)((div >> 8) & 0xFF);
 881              		.loc 1 691 5 is_stmt 1 view .LVU299
 691:DMP/driver/eMPL/inv_mpu_dmp_motion_driver.c ****     tmp[0] = (unsigned char)((div >> 8) & 0xFF);
 882              		.loc 1 691 34 is_stmt 0 view .LVU300
 883 0016 C823     		movs	r3, #200
 884 0018 93FBF4F3 		sdiv	r3, r3, r4
 691:DMP/driver/eMPL/inv_mpu_dmp_motion_driver.c ****     tmp[0] = (unsigned char)((div >> 8) & 0xFF);
 885              		.loc 1 691 9 view .LVU301
 886 001c 013B     		subs	r3, r3, #1
 887              	.LVL29:
 692:DMP/driver/eMPL/inv_mpu_dmp_motion_driver.c ****     tmp[1] = (unsigned char)(div & 0xFF);
 888              		.loc 1 692 5 is_stmt 1 view .LVU302
 692:DMP/driver/eMPL/inv_mpu_dmp_motion_driver.c ****     tmp[1] = (unsigned char)(div & 0xFF);
 889              		.loc 1 692 14 is_stmt 0 view .LVU303
 890 001e 1A0E     		lsrs	r2, r3, #24
 692:DMP/driver/eMPL/inv_mpu_dmp_motion_driver.c ****     tmp[1] = (unsigned char)(div & 0xFF);
 891              		.loc 1 692 12 view .LVU304
 892 0020 8DF80420 		strb	r2, [sp, #4]
 693:DMP/driver/eMPL/inv_mpu_dmp_motion_driver.c ****     if (mpu_write_mem(D_0_22, 2, tmp))
 893              		.loc 1 693 5 is_stmt 1 view .LVU305
 693:DMP/driver/eMPL/inv_mpu_dmp_motion_driver.c ****     if (mpu_write_mem(D_0_22, 2, tmp))
 894              		.loc 1 693 12 is_stmt 0 view .LVU306
 895 0024 8DF80530 		strb	r3, [sp, #5]
 694:DMP/driver/eMPL/inv_mpu_dmp_motion_driver.c ****         return -1;
 896              		.loc 1 694 5 is_stmt 1 view .LVU307
 694:DMP/driver/eMPL/inv_mpu_dmp_motion_driver.c ****         return -1;
 897              		.loc 1 694 9 is_stmt 0 view .LVU308
 898 0028 01AA     		add	r2, sp, #4
 899 002a 0221     		movs	r1, #2
 900 002c 40F21620 		movw	r0, #534
 901 0030 FFF7FEFF 		bl	mpu_write_mem
 902              	.LVL30:
 694:DMP/driver/eMPL/inv_mpu_dmp_motion_driver.c ****         return -1;
 903              		.loc 1 694 8 view .LVU309
 904 0034 68B9     		cbnz	r0, .L44
 696:DMP/driver/eMPL/inv_mpu_dmp_motion_driver.c ****         return -1;
 905              		.loc 1 696 5 is_stmt 1 view .LVU310
 696:DMP/driver/eMPL/inv_mpu_dmp_motion_driver.c ****         return -1;
 906              		.loc 1 696 9 is_stmt 0 view .LVU311
ARM GAS  /var/folders/21/t9g5rlb91ys800n5npymflf80000gn/T//ccWnr5oL.s 			page 43


 907 0036 03AA     		add	r2, sp, #12
 908 0038 0C21     		movs	r1, #12
 909 003a 40F6C120 		movw	r0, #2753
 910 003e FFF7FEFF 		bl	mpu_write_mem
 911              	.LVL31:
 696:DMP/driver/eMPL/inv_mpu_dmp_motion_driver.c ****         return -1;
 912              		.loc 1 696 8 view .LVU312
 913 0042 48B9     		cbnz	r0, .L45
 699:DMP/driver/eMPL/inv_mpu_dmp_motion_driver.c ****     return 0;
 914              		.loc 1 699 5 is_stmt 1 view .LVU313
 699:DMP/driver/eMPL/inv_mpu_dmp_motion_driver.c ****     return 0;
 915              		.loc 1 699 19 is_stmt 0 view .LVU314
 916 0044 074B     		ldr	r3, .L47+4
 917 0046 9C81     		strh	r4, [r3, #12]	@ movhi
 700:DMP/driver/eMPL/inv_mpu_dmp_motion_driver.c **** }
 918              		.loc 1 700 5 is_stmt 1 view .LVU315
 919              	.LVL32:
 920              	.L41:
 701:DMP/driver/eMPL/inv_mpu_dmp_motion_driver.c **** 
 921              		.loc 1 701 1 is_stmt 0 view .LVU316
 922 0048 06B0     		add	sp, sp, #24
 923              	.LCFI15:
 924              		.cfi_remember_state
 925              		.cfi_def_cfa_offset 8
 926              		@ sp needed
 927 004a 10BD     		pop	{r4, pc}
 928              	.L43:
 929              	.LCFI16:
 930              		.cfi_restore_state
 690:DMP/driver/eMPL/inv_mpu_dmp_motion_driver.c ****     div = DMP_SAMPLE_RATE / rate - 1;
 931              		.loc 1 690 16 view .LVU317
 932 004c 4FF0FF30 		mov	r0, #-1
 933 0050 FAE7     		b	.L41
 934              	.LVL33:
 935              	.L44:
 695:DMP/driver/eMPL/inv_mpu_dmp_motion_driver.c ****     if (mpu_write_mem(CFG_6, 12, (unsigned char*)regs_end))
 936              		.loc 1 695 16 view .LVU318
 937 0052 4FF0FF30 		mov	r0, #-1
 938 0056 F7E7     		b	.L41
 939              	.L45:
 697:DMP/driver/eMPL/inv_mpu_dmp_motion_driver.c **** 
 940              		.loc 1 697 16 view .LVU319
 941 0058 4FF0FF30 		mov	r0, #-1
 942 005c F4E7     		b	.L41
 943              	.L48:
 944 005e 00BF     		.align	2
 945              	.L47:
 946 0060 00000000 		.word	.LC4
 947 0064 00000000 		.word	dmp
 948              		.cfi_endproc
 949              	.LFE166:
 951              		.section	.text.dmp_get_fifo_rate,"ax",%progbits
 952              		.align	1
 953              		.global	dmp_get_fifo_rate
 954              		.syntax unified
 955              		.thumb
 956              		.thumb_func
ARM GAS  /var/folders/21/t9g5rlb91ys800n5npymflf80000gn/T//ccWnr5oL.s 			page 44


 958              	dmp_get_fifo_rate:
 959              	.LVL34:
 960              	.LFB167:
 709:DMP/driver/eMPL/inv_mpu_dmp_motion_driver.c ****     rate[0] = dmp.fifo_rate;
 961              		.loc 1 709 1 is_stmt 1 view -0
 962              		.cfi_startproc
 963              		@ args = 0, pretend = 0, frame = 0
 964              		@ frame_needed = 0, uses_anonymous_args = 0
 965              		@ link register save eliminated.
 710:DMP/driver/eMPL/inv_mpu_dmp_motion_driver.c ****     return 0;
 966              		.loc 1 710 5 view .LVU321
 710:DMP/driver/eMPL/inv_mpu_dmp_motion_driver.c ****     return 0;
 967              		.loc 1 710 18 is_stmt 0 view .LVU322
 968 0000 024B     		ldr	r3, .L50
 969 0002 9B89     		ldrh	r3, [r3, #12]
 710:DMP/driver/eMPL/inv_mpu_dmp_motion_driver.c ****     return 0;
 970              		.loc 1 710 13 view .LVU323
 971 0004 0380     		strh	r3, [r0]	@ movhi
 711:DMP/driver/eMPL/inv_mpu_dmp_motion_driver.c **** }
 972              		.loc 1 711 5 is_stmt 1 view .LVU324
 712:DMP/driver/eMPL/inv_mpu_dmp_motion_driver.c **** 
 973              		.loc 1 712 1 is_stmt 0 view .LVU325
 974 0006 0020     		movs	r0, #0
 975              	.LVL35:
 712:DMP/driver/eMPL/inv_mpu_dmp_motion_driver.c **** 
 976              		.loc 1 712 1 view .LVU326
 977 0008 7047     		bx	lr
 978              	.L51:
 979 000a 00BF     		.align	2
 980              	.L50:
 981 000c 00000000 		.word	dmp
 982              		.cfi_endproc
 983              	.LFE167:
 985              		.section	.text.dmp_set_tap_thresh,"ax",%progbits
 986              		.align	1
 987              		.global	dmp_set_tap_thresh
 988              		.syntax unified
 989              		.thumb
 990              		.thumb_func
 992              	dmp_set_tap_thresh:
 993              	.LVL36:
 994              	.LFB168:
 721:DMP/driver/eMPL/inv_mpu_dmp_motion_driver.c ****     unsigned char tmp[4], accel_fsr;
 995              		.loc 1 721 1 is_stmt 1 view -0
 996              		.cfi_startproc
 997              		@ args = 0, pretend = 0, frame = 8
 998              		@ frame_needed = 0, uses_anonymous_args = 0
 722:DMP/driver/eMPL/inv_mpu_dmp_motion_driver.c ****     float scaled_thresh;
 999              		.loc 1 722 5 view .LVU328
 723:DMP/driver/eMPL/inv_mpu_dmp_motion_driver.c ****     unsigned short dmp_thresh, dmp_thresh_2;
 1000              		.loc 1 723 5 view .LVU329
 724:DMP/driver/eMPL/inv_mpu_dmp_motion_driver.c ****     if (!(axis & TAP_XYZ) || thresh > 1600)
 1001              		.loc 1 724 5 view .LVU330
 725:DMP/driver/eMPL/inv_mpu_dmp_motion_driver.c ****         return -1;
 1002              		.loc 1 725 5 view .LVU331
 725:DMP/driver/eMPL/inv_mpu_dmp_motion_driver.c ****         return -1;
 1003              		.loc 1 725 8 is_stmt 0 view .LVU332
ARM GAS  /var/folders/21/t9g5rlb91ys800n5npymflf80000gn/T//ccWnr5oL.s 			page 45


 1004 0000 10F0070F 		tst	r0, #7
 1005 0004 00F0BE80 		beq	.L62
 721:DMP/driver/eMPL/inv_mpu_dmp_motion_driver.c ****     unsigned char tmp[4], accel_fsr;
 1006              		.loc 1 721 1 discriminator 1 view .LVU333
 1007 0008 10B5     		push	{r4, lr}
 1008              	.LCFI17:
 1009              		.cfi_def_cfa_offset 8
 1010              		.cfi_offset 4, -8
 1011              		.cfi_offset 14, -4
 1012 000a 2DED028B 		vpush.64	{d8}
 1013              	.LCFI18:
 1014              		.cfi_def_cfa_offset 16
 1015              		.cfi_offset 80, -16
 1016              		.cfi_offset 81, -12
 1017 000e 82B0     		sub	sp, sp, #8
 1018              	.LCFI19:
 1019              		.cfi_def_cfa_offset 24
 1020 0010 0446     		mov	r4, r0
 725:DMP/driver/eMPL/inv_mpu_dmp_motion_driver.c ****         return -1;
 1021              		.loc 1 725 27 discriminator 1 view .LVU334
 1022 0012 B1F5C86F 		cmp	r1, #1600
 1023 0016 00F2B880 		bhi	.L63
 728:DMP/driver/eMPL/inv_mpu_dmp_motion_driver.c **** 
 1024              		.loc 1 728 5 is_stmt 1 view .LVU335
 728:DMP/driver/eMPL/inv_mpu_dmp_motion_driver.c **** 
 1025              		.loc 1 728 21 is_stmt 0 view .LVU336
 1026 001a 07EE901A 		vmov	s15, r1	@ int
 1027 001e F8EE677A 		vcvt.f32.u32	s15, s15
 728:DMP/driver/eMPL/inv_mpu_dmp_motion_driver.c **** 
 1028              		.loc 1 728 19 view .LVU337
 1029 0022 9FED637A 		vldr.32	s14, .L79
 1030 0026 87EE878A 		vdiv.f32	s16, s15, s14
 1031              	.LVL37:
 730:DMP/driver/eMPL/inv_mpu_dmp_motion_driver.c ****     switch (accel_fsr) {
 1032              		.loc 1 730 5 is_stmt 1 view .LVU338
 1033 002a 0DF10300 		add	r0, sp, #3
 1034              	.LVL38:
 730:DMP/driver/eMPL/inv_mpu_dmp_motion_driver.c ****     switch (accel_fsr) {
 1035              		.loc 1 730 5 is_stmt 0 view .LVU339
 1036 002e FFF7FEFF 		bl	mpu_get_accel_fsr
 1037              	.LVL39:
 731:DMP/driver/eMPL/inv_mpu_dmp_motion_driver.c ****     case 2:
 1038              		.loc 1 731 5 is_stmt 1 view .LVU340
 1039 0032 9DF80330 		ldrb	r3, [sp, #3]	@ zero_extendqisi2
 1040 0036 023B     		subs	r3, r3, #2
 1041 0038 0E2B     		cmp	r3, #14
 1042 003a 00F2A980 		bhi	.L64
 1043 003e DFE803F0 		tbb	[pc, r3]
 1044              	.L55:
 1045 0042 08       		.byte	(.L58-.L55)/2
 1046 0043 A7       		.byte	(.L64-.L55)/2
 1047 0044 2F       		.byte	(.L57-.L55)/2
 1048 0045 A7       		.byte	(.L64-.L55)/2
 1049 0046 A7       		.byte	(.L64-.L55)/2
 1050 0047 A7       		.byte	(.L64-.L55)/2
 1051 0048 42       		.byte	(.L56-.L55)/2
 1052 0049 A7       		.byte	(.L64-.L55)/2
ARM GAS  /var/folders/21/t9g5rlb91ys800n5npymflf80000gn/T//ccWnr5oL.s 			page 46


 1053 004a A7       		.byte	(.L64-.L55)/2
 1054 004b A7       		.byte	(.L64-.L55)/2
 1055 004c A7       		.byte	(.L64-.L55)/2
 1056 004d A7       		.byte	(.L64-.L55)/2
 1057 004e A7       		.byte	(.L64-.L55)/2
 1058 004f A7       		.byte	(.L64-.L55)/2
 1059 0050 55       		.byte	(.L54-.L55)/2
 1060 0051 00       		.p2align 1
 1061              	.L58:
 733:DMP/driver/eMPL/inv_mpu_dmp_motion_driver.c ****         /* dmp_thresh * 0.75 */
 1062              		.loc 1 733 9 view .LVU341
 733:DMP/driver/eMPL/inv_mpu_dmp_motion_driver.c ****         /* dmp_thresh * 0.75 */
 1063              		.loc 1 733 53 is_stmt 0 view .LVU342
 1064 0052 DFED587A 		vldr.32	s15, .L79+4
 1065 0056 68EE277A 		vmul.f32	s15, s16, s15
 733:DMP/driver/eMPL/inv_mpu_dmp_motion_driver.c ****         /* dmp_thresh * 0.75 */
 1066              		.loc 1 733 20 view .LVU343
 1067 005a FCEEE77A 		vcvt.u32.f32	s15, s15
 1068 005e 17EE903A 		vmov	r3, s15	@ int
 1069 0062 9BB2     		uxth	r3, r3
 1070              	.LVL40:
 735:DMP/driver/eMPL/inv_mpu_dmp_motion_driver.c ****         break;
 1071              		.loc 1 735 9 is_stmt 1 view .LVU344
 735:DMP/driver/eMPL/inv_mpu_dmp_motion_driver.c ****         break;
 1072              		.loc 1 735 55 is_stmt 0 view .LVU345
 1073 0064 DFED547A 		vldr.32	s15, .L79+8
 1074 0068 68EE277A 		vmul.f32	s15, s16, s15
 735:DMP/driver/eMPL/inv_mpu_dmp_motion_driver.c ****         break;
 1075              		.loc 1 735 22 view .LVU346
 1076 006c FCEEE77A 		vcvt.u32.f32	s15, s15
 1077 0070 17EE902A 		vmov	r2, s15	@ int
 1078 0074 92B2     		uxth	r2, r2
 1079              	.LVL41:
 736:DMP/driver/eMPL/inv_mpu_dmp_motion_driver.c ****     case 4:
 1080              		.loc 1 736 9 is_stmt 1 view .LVU347
 1081              	.L59:
 755:DMP/driver/eMPL/inv_mpu_dmp_motion_driver.c ****     tmp[1] = (unsigned char)(dmp_thresh & 0xFF);
 1082              		.loc 1 755 5 view .LVU348
 755:DMP/driver/eMPL/inv_mpu_dmp_motion_driver.c ****     tmp[1] = (unsigned char)(dmp_thresh & 0xFF);
 1083              		.loc 1 755 14 is_stmt 0 view .LVU349
 1084 0076 190A     		lsrs	r1, r3, #8
 755:DMP/driver/eMPL/inv_mpu_dmp_motion_driver.c ****     tmp[1] = (unsigned char)(dmp_thresh & 0xFF);
 1085              		.loc 1 755 12 view .LVU350
 1086 0078 8DF80410 		strb	r1, [sp, #4]
 756:DMP/driver/eMPL/inv_mpu_dmp_motion_driver.c ****     tmp[2] = (unsigned char)(dmp_thresh_2 >> 8);
 1087              		.loc 1 756 5 is_stmt 1 view .LVU351
 756:DMP/driver/eMPL/inv_mpu_dmp_motion_driver.c ****     tmp[2] = (unsigned char)(dmp_thresh_2 >> 8);
 1088              		.loc 1 756 12 is_stmt 0 view .LVU352
 1089 007c 8DF80530 		strb	r3, [sp, #5]
 757:DMP/driver/eMPL/inv_mpu_dmp_motion_driver.c ****     tmp[3] = (unsigned char)(dmp_thresh_2 & 0xFF);
 1090              		.loc 1 757 5 is_stmt 1 view .LVU353
 757:DMP/driver/eMPL/inv_mpu_dmp_motion_driver.c ****     tmp[3] = (unsigned char)(dmp_thresh_2 & 0xFF);
 1091              		.loc 1 757 14 is_stmt 0 view .LVU354
 1092 0080 130A     		lsrs	r3, r2, #8
 1093              	.LVL42:
 757:DMP/driver/eMPL/inv_mpu_dmp_motion_driver.c ****     tmp[3] = (unsigned char)(dmp_thresh_2 & 0xFF);
 1094              		.loc 1 757 12 view .LVU355
ARM GAS  /var/folders/21/t9g5rlb91ys800n5npymflf80000gn/T//ccWnr5oL.s 			page 47


 1095 0082 8DF80630 		strb	r3, [sp, #6]
 758:DMP/driver/eMPL/inv_mpu_dmp_motion_driver.c **** 
 1096              		.loc 1 758 5 is_stmt 1 view .LVU356
 758:DMP/driver/eMPL/inv_mpu_dmp_motion_driver.c **** 
 1097              		.loc 1 758 12 is_stmt 0 view .LVU357
 1098 0086 8DF80720 		strb	r2, [sp, #7]
 760:DMP/driver/eMPL/inv_mpu_dmp_motion_driver.c ****         if (mpu_write_mem(DMP_TAP_THX, 2, tmp))
 1099              		.loc 1 760 5 is_stmt 1 view .LVU358
 760:DMP/driver/eMPL/inv_mpu_dmp_motion_driver.c ****         if (mpu_write_mem(DMP_TAP_THX, 2, tmp))
 1100              		.loc 1 760 8 is_stmt 0 view .LVU359
 1101 008a 14F0010F 		tst	r4, #1
 1102 008e 40D1     		bne	.L76
 1103              	.LVL43:
 1104              	.L60:
 766:DMP/driver/eMPL/inv_mpu_dmp_motion_driver.c ****         if (mpu_write_mem(DMP_TAP_THY, 2, tmp))
 1105              		.loc 1 766 5 is_stmt 1 view .LVU360
 766:DMP/driver/eMPL/inv_mpu_dmp_motion_driver.c ****         if (mpu_write_mem(DMP_TAP_THY, 2, tmp))
 1106              		.loc 1 766 8 is_stmt 0 view .LVU361
 1107 0090 14F0020F 		tst	r4, #2
 1108 0094 51D1     		bne	.L77
 1109              	.L61:
 772:DMP/driver/eMPL/inv_mpu_dmp_motion_driver.c ****         if (mpu_write_mem(DMP_TAP_THZ, 2, tmp))
 1110              		.loc 1 772 5 is_stmt 1 view .LVU362
 772:DMP/driver/eMPL/inv_mpu_dmp_motion_driver.c ****         if (mpu_write_mem(DMP_TAP_THZ, 2, tmp))
 1111              		.loc 1 772 8 is_stmt 0 view .LVU363
 1112 0096 14F0040F 		tst	r4, #4
 1113 009a 61D1     		bne	.L78
 778:DMP/driver/eMPL/inv_mpu_dmp_motion_driver.c **** }
 1114              		.loc 1 778 12 view .LVU364
 1115 009c 0020     		movs	r0, #0
 1116 009e 79E0     		b	.L52
 1117              	.LVL44:
 1118              	.L57:
 738:DMP/driver/eMPL/inv_mpu_dmp_motion_driver.c ****         /* dmp_thresh * 0.75 */
 1119              		.loc 1 738 9 is_stmt 1 view .LVU365
 738:DMP/driver/eMPL/inv_mpu_dmp_motion_driver.c ****         /* dmp_thresh * 0.75 */
 1120              		.loc 1 738 53 is_stmt 0 view .LVU366
 1121 00a0 DFED467A 		vldr.32	s15, .L79+12
 1122 00a4 68EE277A 		vmul.f32	s15, s16, s15
 738:DMP/driver/eMPL/inv_mpu_dmp_motion_driver.c ****         /* dmp_thresh * 0.75 */
 1123              		.loc 1 738 20 view .LVU367
 1124 00a8 FCEEE77A 		vcvt.u32.f32	s15, s15
 1125 00ac 17EE903A 		vmov	r3, s15	@ int
 1126 00b0 9BB2     		uxth	r3, r3
 1127              	.LVL45:
 740:DMP/driver/eMPL/inv_mpu_dmp_motion_driver.c ****         break;
 1128              		.loc 1 740 9 is_stmt 1 view .LVU368
 740:DMP/driver/eMPL/inv_mpu_dmp_motion_driver.c ****         break;
 1129              		.loc 1 740 55 is_stmt 0 view .LVU369
 1130 00b2 DFED437A 		vldr.32	s15, .L79+16
 1131 00b6 68EE277A 		vmul.f32	s15, s16, s15
 740:DMP/driver/eMPL/inv_mpu_dmp_motion_driver.c ****         break;
 1132              		.loc 1 740 22 view .LVU370
 1133 00ba FCEEE77A 		vcvt.u32.f32	s15, s15
 1134 00be 17EE902A 		vmov	r2, s15	@ int
 1135 00c2 92B2     		uxth	r2, r2
 1136              	.LVL46:
ARM GAS  /var/folders/21/t9g5rlb91ys800n5npymflf80000gn/T//ccWnr5oL.s 			page 48


 741:DMP/driver/eMPL/inv_mpu_dmp_motion_driver.c ****     case 8:
 1137              		.loc 1 741 9 is_stmt 1 view .LVU371
 1138 00c4 D7E7     		b	.L59
 1139              	.LVL47:
 1140              	.L56:
 743:DMP/driver/eMPL/inv_mpu_dmp_motion_driver.c ****         /* dmp_thresh * 0.75 */
 1141              		.loc 1 743 9 view .LVU372
 743:DMP/driver/eMPL/inv_mpu_dmp_motion_driver.c ****         /* dmp_thresh * 0.75 */
 1142              		.loc 1 743 53 is_stmt 0 view .LVU373
 1143 00c6 DFED3F7A 		vldr.32	s15, .L79+20
 1144 00ca 68EE277A 		vmul.f32	s15, s16, s15
 743:DMP/driver/eMPL/inv_mpu_dmp_motion_driver.c ****         /* dmp_thresh * 0.75 */
 1145              		.loc 1 743 20 view .LVU374
 1146 00ce FCEEE77A 		vcvt.u32.f32	s15, s15
 1147 00d2 17EE903A 		vmov	r3, s15	@ int
 1148 00d6 9BB2     		uxth	r3, r3
 1149              	.LVL48:
 745:DMP/driver/eMPL/inv_mpu_dmp_motion_driver.c ****         break;
 1150              		.loc 1 745 9 is_stmt 1 view .LVU375
 745:DMP/driver/eMPL/inv_mpu_dmp_motion_driver.c ****         break;
 1151              		.loc 1 745 55 is_stmt 0 view .LVU376
 1152 00d8 DFED3B7A 		vldr.32	s15, .L79+24
 1153 00dc 68EE277A 		vmul.f32	s15, s16, s15
 745:DMP/driver/eMPL/inv_mpu_dmp_motion_driver.c ****         break;
 1154              		.loc 1 745 22 view .LVU377
 1155 00e0 FCEEE77A 		vcvt.u32.f32	s15, s15
 1156 00e4 17EE902A 		vmov	r2, s15	@ int
 1157 00e8 92B2     		uxth	r2, r2
 1158              	.LVL49:
 746:DMP/driver/eMPL/inv_mpu_dmp_motion_driver.c ****     case 16:
 1159              		.loc 1 746 9 is_stmt 1 view .LVU378
 1160 00ea C4E7     		b	.L59
 1161              	.LVL50:
 1162              	.L54:
 748:DMP/driver/eMPL/inv_mpu_dmp_motion_driver.c ****         /* dmp_thresh * 0.75 */
 1163              		.loc 1 748 9 view .LVU379
 748:DMP/driver/eMPL/inv_mpu_dmp_motion_driver.c ****         /* dmp_thresh * 0.75 */
 1164              		.loc 1 748 53 is_stmt 0 view .LVU380
 1165 00ec DFED377A 		vldr.32	s15, .L79+28
 1166 00f0 68EE277A 		vmul.f32	s15, s16, s15
 748:DMP/driver/eMPL/inv_mpu_dmp_motion_driver.c ****         /* dmp_thresh * 0.75 */
 1167              		.loc 1 748 20 view .LVU381
 1168 00f4 FCEEE77A 		vcvt.u32.f32	s15, s15
 1169 00f8 17EE903A 		vmov	r3, s15	@ int
 1170 00fc 9BB2     		uxth	r3, r3
 1171              	.LVL51:
 750:DMP/driver/eMPL/inv_mpu_dmp_motion_driver.c ****         break;
 1172              		.loc 1 750 9 is_stmt 1 view .LVU382
 750:DMP/driver/eMPL/inv_mpu_dmp_motion_driver.c ****         break;
 1173              		.loc 1 750 55 is_stmt 0 view .LVU383
 1174 00fe DFED347A 		vldr.32	s15, .L79+32
 1175 0102 28EE278A 		vmul.f32	s16, s16, s15
 1176              	.LVL52:
 750:DMP/driver/eMPL/inv_mpu_dmp_motion_driver.c ****         break;
 1177              		.loc 1 750 22 view .LVU384
 1178 0106 BCEEC88A 		vcvt.u32.f32	s16, s16
 1179 010a 18EE102A 		vmov	r2, s16	@ int
ARM GAS  /var/folders/21/t9g5rlb91ys800n5npymflf80000gn/T//ccWnr5oL.s 			page 49


 1180 010e 92B2     		uxth	r2, r2
 1181              	.LVL53:
 751:DMP/driver/eMPL/inv_mpu_dmp_motion_driver.c ****     default:
 1182              		.loc 1 751 9 is_stmt 1 view .LVU385
 1183 0110 B1E7     		b	.L59
 1184              	.LVL54:
 1185              	.L76:
 761:DMP/driver/eMPL/inv_mpu_dmp_motion_driver.c ****             return -1;
 1186              		.loc 1 761 9 view .LVU386
 761:DMP/driver/eMPL/inv_mpu_dmp_motion_driver.c ****             return -1;
 1187              		.loc 1 761 13 is_stmt 0 view .LVU387
 1188 0112 01AA     		add	r2, sp, #4
 1189              	.LVL55:
 761:DMP/driver/eMPL/inv_mpu_dmp_motion_driver.c ****             return -1;
 1190              		.loc 1 761 13 view .LVU388
 1191 0114 0221     		movs	r1, #2
 1192 0116 4FF4EA70 		mov	r0, #468
 1193 011a FFF7FEFF 		bl	mpu_write_mem
 1194              	.LVL56:
 761:DMP/driver/eMPL/inv_mpu_dmp_motion_driver.c ****             return -1;
 1195              		.loc 1 761 12 view .LVU389
 1196 011e 0028     		cmp	r0, #0
 1197 0120 3CD1     		bne	.L65
 763:DMP/driver/eMPL/inv_mpu_dmp_motion_driver.c ****             return -1;
 1198              		.loc 1 763 9 is_stmt 1 view .LVU390
 763:DMP/driver/eMPL/inv_mpu_dmp_motion_driver.c ****             return -1;
 1199              		.loc 1 763 13 is_stmt 0 view .LVU391
 1200 0122 0DF10602 		add	r2, sp, #6
 1201 0126 0221     		movs	r1, #2
 1202 0128 4FF49270 		mov	r0, #292
 1203 012c FFF7FEFF 		bl	mpu_write_mem
 1204              	.LVL57:
 763:DMP/driver/eMPL/inv_mpu_dmp_motion_driver.c ****             return -1;
 1205              		.loc 1 763 12 view .LVU392
 1206 0130 0028     		cmp	r0, #0
 1207 0132 ADD0     		beq	.L60
 764:DMP/driver/eMPL/inv_mpu_dmp_motion_driver.c ****     }
 1208              		.loc 1 764 20 view .LVU393
 1209 0134 4FF0FF30 		mov	r0, #-1
 1210 0138 2CE0     		b	.L52
 1211              	.L77:
 767:DMP/driver/eMPL/inv_mpu_dmp_motion_driver.c ****             return -1;
 1212              		.loc 1 767 9 is_stmt 1 view .LVU394
 767:DMP/driver/eMPL/inv_mpu_dmp_motion_driver.c ****             return -1;
 1213              		.loc 1 767 13 is_stmt 0 view .LVU395
 1214 013a 01AA     		add	r2, sp, #4
 1215 013c 0221     		movs	r1, #2
 1216 013e 4FF4EC70 		mov	r0, #472
 1217 0142 FFF7FEFF 		bl	mpu_write_mem
 1218              	.LVL58:
 767:DMP/driver/eMPL/inv_mpu_dmp_motion_driver.c ****             return -1;
 1219              		.loc 1 767 12 view .LVU396
 1220 0146 60BB     		cbnz	r0, .L67
 769:DMP/driver/eMPL/inv_mpu_dmp_motion_driver.c ****             return -1;
 1221              		.loc 1 769 9 is_stmt 1 view .LVU397
 769:DMP/driver/eMPL/inv_mpu_dmp_motion_driver.c ****             return -1;
 1222              		.loc 1 769 13 is_stmt 0 view .LVU398
ARM GAS  /var/folders/21/t9g5rlb91ys800n5npymflf80000gn/T//ccWnr5oL.s 			page 50


 1223 0148 0DF10602 		add	r2, sp, #6
 1224 014c 0221     		movs	r1, #2
 1225 014e 4FF49470 		mov	r0, #296
 1226 0152 FFF7FEFF 		bl	mpu_write_mem
 1227              	.LVL59:
 769:DMP/driver/eMPL/inv_mpu_dmp_motion_driver.c ****             return -1;
 1228              		.loc 1 769 12 view .LVU399
 1229 0156 0028     		cmp	r0, #0
 1230 0158 9DD0     		beq	.L61
 770:DMP/driver/eMPL/inv_mpu_dmp_motion_driver.c ****     }
 1231              		.loc 1 770 20 view .LVU400
 1232 015a 4FF0FF30 		mov	r0, #-1
 1233 015e 19E0     		b	.L52
 1234              	.L78:
 773:DMP/driver/eMPL/inv_mpu_dmp_motion_driver.c ****             return -1;
 1235              		.loc 1 773 9 is_stmt 1 view .LVU401
 773:DMP/driver/eMPL/inv_mpu_dmp_motion_driver.c ****             return -1;
 1236              		.loc 1 773 13 is_stmt 0 view .LVU402
 1237 0160 01AA     		add	r2, sp, #4
 1238 0162 0221     		movs	r1, #2
 1239 0164 4FF4EE70 		mov	r0, #476
 1240 0168 FFF7FEFF 		bl	mpu_write_mem
 1241              	.LVL60:
 773:DMP/driver/eMPL/inv_mpu_dmp_motion_driver.c ****             return -1;
 1242              		.loc 1 773 12 view .LVU403
 1243 016c E0B9     		cbnz	r0, .L70
 775:DMP/driver/eMPL/inv_mpu_dmp_motion_driver.c ****             return -1;
 1244              		.loc 1 775 9 is_stmt 1 view .LVU404
 775:DMP/driver/eMPL/inv_mpu_dmp_motion_driver.c ****             return -1;
 1245              		.loc 1 775 13 is_stmt 0 view .LVU405
 1246 016e 0DF10602 		add	r2, sp, #6
 1247 0172 0221     		movs	r1, #2
 1248 0174 4FF49670 		mov	r0, #300
 1249 0178 FFF7FEFF 		bl	mpu_write_mem
 1250              	.LVL61:
 775:DMP/driver/eMPL/inv_mpu_dmp_motion_driver.c ****             return -1;
 1251              		.loc 1 775 12 view .LVU406
 1252 017c 50B1     		cbz	r0, .L52
 776:DMP/driver/eMPL/inv_mpu_dmp_motion_driver.c ****     }
 1253              		.loc 1 776 20 view .LVU407
 1254 017e 4FF0FF30 		mov	r0, #-1
 1255 0182 07E0     		b	.L52
 1256              	.LVL62:
 1257              	.L62:
 1258              	.LCFI20:
 1259              		.cfi_def_cfa_offset 0
 1260              		.cfi_restore 4
 1261              		.cfi_restore 14
 1262              		.cfi_restore 80
 1263              		.cfi_restore 81
 726:DMP/driver/eMPL/inv_mpu_dmp_motion_driver.c **** 
 1264              		.loc 1 726 16 view .LVU408
 1265 0184 4FF0FF30 		mov	r0, #-1
 1266              	.LVL63:
 779:DMP/driver/eMPL/inv_mpu_dmp_motion_driver.c **** 
 1267              		.loc 1 779 1 view .LVU409
 1268 0188 7047     		bx	lr
ARM GAS  /var/folders/21/t9g5rlb91ys800n5npymflf80000gn/T//ccWnr5oL.s 			page 51


 1269              	.LVL64:
 1270              	.L63:
 1271              	.LCFI21:
 1272              		.cfi_def_cfa_offset 24
 1273              		.cfi_offset 4, -8
 1274              		.cfi_offset 14, -4
 1275              		.cfi_offset 80, -16
 1276              		.cfi_offset 81, -12
 726:DMP/driver/eMPL/inv_mpu_dmp_motion_driver.c **** 
 1277              		.loc 1 726 16 view .LVU410
 1278 018a 4FF0FF30 		mov	r0, #-1
 1279              	.LVL65:
 726:DMP/driver/eMPL/inv_mpu_dmp_motion_driver.c **** 
 1280              		.loc 1 726 16 view .LVU411
 1281 018e 01E0     		b	.L52
 1282              	.LVL66:
 1283              	.L64:
 731:DMP/driver/eMPL/inv_mpu_dmp_motion_driver.c ****     case 2:
 1284              		.loc 1 731 5 view .LVU412
 1285 0190 4FF0FF30 		mov	r0, #-1
 1286              	.LVL67:
 1287              	.L52:
 779:DMP/driver/eMPL/inv_mpu_dmp_motion_driver.c **** 
 1288              		.loc 1 779 1 view .LVU413
 1289 0194 02B0     		add	sp, sp, #8
 1290              	.LCFI22:
 1291              		.cfi_remember_state
 1292              		.cfi_def_cfa_offset 16
 1293              		@ sp needed
 1294 0196 BDEC028B 		vldm	sp!, {d8}
 1295              	.LCFI23:
 1296              		.cfi_restore 80
 1297              		.cfi_restore 81
 1298              		.cfi_def_cfa_offset 8
 1299 019a 10BD     		pop	{r4, pc}
 1300              	.LVL68:
 1301              	.L65:
 1302              	.LCFI24:
 1303              		.cfi_restore_state
 762:DMP/driver/eMPL/inv_mpu_dmp_motion_driver.c ****         if (mpu_write_mem(D_1_36, 2, tmp+2))
 1304              		.loc 1 762 20 view .LVU414
 1305 019c 4FF0FF30 		mov	r0, #-1
 1306 01a0 F8E7     		b	.L52
 1307              	.L67:
 768:DMP/driver/eMPL/inv_mpu_dmp_motion_driver.c ****         if (mpu_write_mem(D_1_40, 2, tmp+2))
 1308              		.loc 1 768 20 view .LVU415
 1309 01a2 4FF0FF30 		mov	r0, #-1
 1310 01a6 F5E7     		b	.L52
 1311              	.L70:
 774:DMP/driver/eMPL/inv_mpu_dmp_motion_driver.c ****         if (mpu_write_mem(D_1_44, 2, tmp+2))
 1312              		.loc 1 774 20 view .LVU416
 1313 01a8 4FF0FF30 		mov	r0, #-1
 1314 01ac F2E7     		b	.L52
 1315              	.L80:
 1316 01ae 00BF     		.align	2
 1317              	.L79:
 1318 01b0 00004843 		.word	1128792064
ARM GAS  /var/folders/21/t9g5rlb91ys800n5npymflf80000gn/T//ccWnr5oL.s 			page 52


 1319 01b4 00008046 		.word	1182793728
 1320 01b8 00004046 		.word	1178599424
 1321 01bc 00000046 		.word	1174405120
 1322 01c0 0000C045 		.word	1170210816
 1323 01c4 00008045 		.word	1166016512
 1324 01c8 00004045 		.word	1161822208
 1325 01cc 00000045 		.word	1157627904
 1326 01d0 0000C044 		.word	1153433600
 1327              		.cfi_endproc
 1328              	.LFE168:
 1330              		.section	.text.dmp_set_tap_axes,"ax",%progbits
 1331              		.align	1
 1332              		.global	dmp_set_tap_axes
 1333              		.syntax unified
 1334              		.thumb
 1335              		.thumb_func
 1337              	dmp_set_tap_axes:
 1338              	.LVL69:
 1339              	.LFB169:
 787:DMP/driver/eMPL/inv_mpu_dmp_motion_driver.c ****     unsigned char tmp = 0;
 1340              		.loc 1 787 1 is_stmt 1 view -0
 1341              		.cfi_startproc
 1342              		@ args = 0, pretend = 0, frame = 8
 1343              		@ frame_needed = 0, uses_anonymous_args = 0
 787:DMP/driver/eMPL/inv_mpu_dmp_motion_driver.c ****     unsigned char tmp = 0;
 1344              		.loc 1 787 1 is_stmt 0 view .LVU418
 1345 0000 00B5     		push	{lr}
 1346              	.LCFI25:
 1347              		.cfi_def_cfa_offset 4
 1348              		.cfi_offset 14, -4
 1349 0002 83B0     		sub	sp, sp, #12
 1350              	.LCFI26:
 1351              		.cfi_def_cfa_offset 16
 788:DMP/driver/eMPL/inv_mpu_dmp_motion_driver.c **** 
 1352              		.loc 1 788 5 is_stmt 1 view .LVU419
 788:DMP/driver/eMPL/inv_mpu_dmp_motion_driver.c **** 
 1353              		.loc 1 788 19 is_stmt 0 view .LVU420
 1354 0004 0023     		movs	r3, #0
 1355 0006 8DF80730 		strb	r3, [sp, #7]
 790:DMP/driver/eMPL/inv_mpu_dmp_motion_driver.c ****         tmp |= 0x30;
 1356              		.loc 1 790 5 is_stmt 1 view .LVU421
 790:DMP/driver/eMPL/inv_mpu_dmp_motion_driver.c ****         tmp |= 0x30;
 1357              		.loc 1 790 8 is_stmt 0 view .LVU422
 1358 000a 10F0010F 		tst	r0, #1
 1359 000e 02D0     		beq	.L82
 791:DMP/driver/eMPL/inv_mpu_dmp_motion_driver.c ****     if (axis & TAP_Y)
 1360              		.loc 1 791 9 is_stmt 1 view .LVU423
 791:DMP/driver/eMPL/inv_mpu_dmp_motion_driver.c ****     if (axis & TAP_Y)
 1361              		.loc 1 791 13 is_stmt 0 view .LVU424
 1362 0010 3023     		movs	r3, #48
 1363 0012 8DF80730 		strb	r3, [sp, #7]
 1364              	.L82:
 792:DMP/driver/eMPL/inv_mpu_dmp_motion_driver.c ****         tmp |= 0x0C;
 1365              		.loc 1 792 5 is_stmt 1 view .LVU425
 792:DMP/driver/eMPL/inv_mpu_dmp_motion_driver.c ****         tmp |= 0x0C;
 1366              		.loc 1 792 8 is_stmt 0 view .LVU426
 1367 0016 10F0020F 		tst	r0, #2
ARM GAS  /var/folders/21/t9g5rlb91ys800n5npymflf80000gn/T//ccWnr5oL.s 			page 53


 1368 001a 05D0     		beq	.L83
 793:DMP/driver/eMPL/inv_mpu_dmp_motion_driver.c ****     if (axis & TAP_Z)
 1369              		.loc 1 793 9 is_stmt 1 view .LVU427
 793:DMP/driver/eMPL/inv_mpu_dmp_motion_driver.c ****     if (axis & TAP_Z)
 1370              		.loc 1 793 13 is_stmt 0 view .LVU428
 1371 001c 9DF80730 		ldrb	r3, [sp, #7]	@ zero_extendqisi2
 1372 0020 43F00C03 		orr	r3, r3, #12
 1373 0024 8DF80730 		strb	r3, [sp, #7]
 1374              	.L83:
 794:DMP/driver/eMPL/inv_mpu_dmp_motion_driver.c ****         tmp |= 0x03;
 1375              		.loc 1 794 5 is_stmt 1 view .LVU429
 794:DMP/driver/eMPL/inv_mpu_dmp_motion_driver.c ****         tmp |= 0x03;
 1376              		.loc 1 794 8 is_stmt 0 view .LVU430
 1377 0028 10F0040F 		tst	r0, #4
 1378 002c 05D0     		beq	.L84
 795:DMP/driver/eMPL/inv_mpu_dmp_motion_driver.c ****     return mpu_write_mem(D_1_72, 1, &tmp);
 1379              		.loc 1 795 9 is_stmt 1 view .LVU431
 795:DMP/driver/eMPL/inv_mpu_dmp_motion_driver.c ****     return mpu_write_mem(D_1_72, 1, &tmp);
 1380              		.loc 1 795 13 is_stmt 0 view .LVU432
 1381 002e 9DF80730 		ldrb	r3, [sp, #7]	@ zero_extendqisi2
 1382 0032 43F00303 		orr	r3, r3, #3
 1383 0036 8DF80730 		strb	r3, [sp, #7]
 1384              	.L84:
 796:DMP/driver/eMPL/inv_mpu_dmp_motion_driver.c **** }
 1385              		.loc 1 796 5 is_stmt 1 view .LVU433
 796:DMP/driver/eMPL/inv_mpu_dmp_motion_driver.c **** }
 1386              		.loc 1 796 12 is_stmt 0 view .LVU434
 1387 003a 0DF10702 		add	r2, sp, #7
 1388 003e 0121     		movs	r1, #1
 1389 0040 4FF4A470 		mov	r0, #328
 1390              	.LVL70:
 796:DMP/driver/eMPL/inv_mpu_dmp_motion_driver.c **** }
 1391              		.loc 1 796 12 view .LVU435
 1392 0044 FFF7FEFF 		bl	mpu_write_mem
 1393              	.LVL71:
 797:DMP/driver/eMPL/inv_mpu_dmp_motion_driver.c **** 
 1394              		.loc 1 797 1 view .LVU436
 1395 0048 03B0     		add	sp, sp, #12
 1396              	.LCFI27:
 1397              		.cfi_def_cfa_offset 4
 1398              		@ sp needed
 1399 004a 5DF804FB 		ldr	pc, [sp], #4
 1400              		.cfi_endproc
 1401              	.LFE169:
 1403              		.section	.text.dmp_set_tap_count,"ax",%progbits
 1404              		.align	1
 1405              		.global	dmp_set_tap_count
 1406              		.syntax unified
 1407              		.thumb
 1408              		.thumb_func
 1410              	dmp_set_tap_count:
 1411              	.LVL72:
 1412              	.LFB170:
 805:DMP/driver/eMPL/inv_mpu_dmp_motion_driver.c ****     unsigned char tmp;
 1413              		.loc 1 805 1 is_stmt 1 view -0
 1414              		.cfi_startproc
 1415              		@ args = 0, pretend = 0, frame = 8
ARM GAS  /var/folders/21/t9g5rlb91ys800n5npymflf80000gn/T//ccWnr5oL.s 			page 54


 1416              		@ frame_needed = 0, uses_anonymous_args = 0
 805:DMP/driver/eMPL/inv_mpu_dmp_motion_driver.c ****     unsigned char tmp;
 1417              		.loc 1 805 1 is_stmt 0 view .LVU438
 1418 0000 00B5     		push	{lr}
 1419              	.LCFI28:
 1420              		.cfi_def_cfa_offset 4
 1421              		.cfi_offset 14, -4
 1422 0002 83B0     		sub	sp, sp, #12
 1423              	.LCFI29:
 1424              		.cfi_def_cfa_offset 16
 806:DMP/driver/eMPL/inv_mpu_dmp_motion_driver.c **** 
 1425              		.loc 1 806 5 is_stmt 1 view .LVU439
 808:DMP/driver/eMPL/inv_mpu_dmp_motion_driver.c ****         min_taps = 1;
 1426              		.loc 1 808 5 view .LVU440
 808:DMP/driver/eMPL/inv_mpu_dmp_motion_driver.c ****         min_taps = 1;
 1427              		.loc 1 808 8 is_stmt 0 view .LVU441
 1428 0004 20B1     		cbz	r0, .L88
 1429 0006 0346     		mov	r3, r0
 810:DMP/driver/eMPL/inv_mpu_dmp_motion_driver.c ****         min_taps = 4;
 1430              		.loc 1 810 10 is_stmt 1 view .LVU442
 810:DMP/driver/eMPL/inv_mpu_dmp_motion_driver.c ****         min_taps = 4;
 1431              		.loc 1 810 13 is_stmt 0 view .LVU443
 1432 0008 0428     		cmp	r0, #4
 1433 000a 02D9     		bls	.L87
 811:DMP/driver/eMPL/inv_mpu_dmp_motion_driver.c **** 
 1434              		.loc 1 811 18 view .LVU444
 1435 000c 0423     		movs	r3, #4
 1436 000e 00E0     		b	.L87
 1437              	.L88:
 809:DMP/driver/eMPL/inv_mpu_dmp_motion_driver.c ****     else if (min_taps > 4)
 1438              		.loc 1 809 18 view .LVU445
 1439 0010 0123     		movs	r3, #1
 1440              	.L87:
 1441              	.LVL73:
 813:DMP/driver/eMPL/inv_mpu_dmp_motion_driver.c ****     return mpu_write_mem(D_1_79, 1, &tmp);
 1442              		.loc 1 813 5 is_stmt 1 view .LVU446
 813:DMP/driver/eMPL/inv_mpu_dmp_motion_driver.c ****     return mpu_write_mem(D_1_79, 1, &tmp);
 1443              		.loc 1 813 20 is_stmt 0 view .LVU447
 1444 0012 013B     		subs	r3, r3, #1
 1445              	.LVL74:
 813:DMP/driver/eMPL/inv_mpu_dmp_motion_driver.c ****     return mpu_write_mem(D_1_79, 1, &tmp);
 1446              		.loc 1 813 9 view .LVU448
 1447 0014 8DF80730 		strb	r3, [sp, #7]
 814:DMP/driver/eMPL/inv_mpu_dmp_motion_driver.c **** }
 1448              		.loc 1 814 5 is_stmt 1 view .LVU449
 814:DMP/driver/eMPL/inv_mpu_dmp_motion_driver.c **** }
 1449              		.loc 1 814 12 is_stmt 0 view .LVU450
 1450 0018 0DF10702 		add	r2, sp, #7
 1451 001c 0121     		movs	r1, #1
 1452 001e 40F24F10 		movw	r0, #335
 1453 0022 FFF7FEFF 		bl	mpu_write_mem
 1454              	.LVL75:
 815:DMP/driver/eMPL/inv_mpu_dmp_motion_driver.c **** 
 1455              		.loc 1 815 1 view .LVU451
 1456 0026 03B0     		add	sp, sp, #12
 1457              	.LCFI30:
 1458              		.cfi_def_cfa_offset 4
ARM GAS  /var/folders/21/t9g5rlb91ys800n5npymflf80000gn/T//ccWnr5oL.s 			page 55


 1459              		@ sp needed
 1460 0028 5DF804FB 		ldr	pc, [sp], #4
 1461              		.cfi_endproc
 1462              	.LFE170:
 1464              		.section	.text.dmp_set_tap_time,"ax",%progbits
 1465              		.align	1
 1466              		.global	dmp_set_tap_time
 1467              		.syntax unified
 1468              		.thumb
 1469              		.thumb_func
 1471              	dmp_set_tap_time:
 1472              	.LVL76:
 1473              	.LFB171:
 823:DMP/driver/eMPL/inv_mpu_dmp_motion_driver.c ****     unsigned short dmp_time;
 1474              		.loc 1 823 1 is_stmt 1 view -0
 1475              		.cfi_startproc
 1476              		@ args = 0, pretend = 0, frame = 8
 1477              		@ frame_needed = 0, uses_anonymous_args = 0
 823:DMP/driver/eMPL/inv_mpu_dmp_motion_driver.c ****     unsigned short dmp_time;
 1478              		.loc 1 823 1 is_stmt 0 view .LVU453
 1479 0000 00B5     		push	{lr}
 1480              	.LCFI31:
 1481              		.cfi_def_cfa_offset 4
 1482              		.cfi_offset 14, -4
 1483 0002 83B0     		sub	sp, sp, #12
 1484              	.LCFI32:
 1485              		.cfi_def_cfa_offset 16
 824:DMP/driver/eMPL/inv_mpu_dmp_motion_driver.c ****     unsigned char tmp[2];
 1486              		.loc 1 824 5 is_stmt 1 view .LVU454
 825:DMP/driver/eMPL/inv_mpu_dmp_motion_driver.c **** 
 1487              		.loc 1 825 5 view .LVU455
 827:DMP/driver/eMPL/inv_mpu_dmp_motion_driver.c ****     tmp[0] = (unsigned char)(dmp_time >> 8);
 1488              		.loc 1 827 5 view .LVU456
 827:DMP/driver/eMPL/inv_mpu_dmp_motion_driver.c ****     tmp[0] = (unsigned char)(dmp_time >> 8);
 1489              		.loc 1 827 14 is_stmt 0 view .LVU457
 1490 0004 094B     		ldr	r3, .L93
 1491 0006 A3FB0030 		umull	r3, r0, r3, r0
 1492              	.LVL77:
 828:DMP/driver/eMPL/inv_mpu_dmp_motion_driver.c ****     tmp[1] = (unsigned char)(dmp_time & 0xFF);
 1493              		.loc 1 828 5 is_stmt 1 view .LVU458
 828:DMP/driver/eMPL/inv_mpu_dmp_motion_driver.c ****     tmp[1] = (unsigned char)(dmp_time & 0xFF);
 1494              		.loc 1 828 14 is_stmt 0 view .LVU459
 1495 000a 830A     		lsrs	r3, r0, #10
 828:DMP/driver/eMPL/inv_mpu_dmp_motion_driver.c ****     tmp[1] = (unsigned char)(dmp_time & 0xFF);
 1496              		.loc 1 828 12 view .LVU460
 1497 000c 8DF80430 		strb	r3, [sp, #4]
 829:DMP/driver/eMPL/inv_mpu_dmp_motion_driver.c ****     return mpu_write_mem(DMP_TAPW_MIN, 2, tmp);
 1498              		.loc 1 829 5 is_stmt 1 view .LVU461
 829:DMP/driver/eMPL/inv_mpu_dmp_motion_driver.c ****     return mpu_write_mem(DMP_TAPW_MIN, 2, tmp);
 1499              		.loc 1 829 14 is_stmt 0 view .LVU462
 1500 0010 C0F38700 		ubfx	r0, r0, #2, #8
 1501              	.LVL78:
 829:DMP/driver/eMPL/inv_mpu_dmp_motion_driver.c ****     return mpu_write_mem(DMP_TAPW_MIN, 2, tmp);
 1502              		.loc 1 829 12 view .LVU463
 1503 0014 8DF80500 		strb	r0, [sp, #5]
 830:DMP/driver/eMPL/inv_mpu_dmp_motion_driver.c **** }
 1504              		.loc 1 830 5 is_stmt 1 view .LVU464
ARM GAS  /var/folders/21/t9g5rlb91ys800n5npymflf80000gn/T//ccWnr5oL.s 			page 56


 830:DMP/driver/eMPL/inv_mpu_dmp_motion_driver.c **** }
 1505              		.loc 1 830 12 is_stmt 0 view .LVU465
 1506 0018 01AA     		add	r2, sp, #4
 1507 001a 0221     		movs	r1, #2
 1508 001c 4FF4EF70 		mov	r0, #478
 1509 0020 FFF7FEFF 		bl	mpu_write_mem
 1510              	.LVL79:
 831:DMP/driver/eMPL/inv_mpu_dmp_motion_driver.c **** 
 1511              		.loc 1 831 1 view .LVU466
 1512 0024 03B0     		add	sp, sp, #12
 1513              	.LCFI33:
 1514              		.cfi_def_cfa_offset 4
 1515              		@ sp needed
 1516 0026 5DF804FB 		ldr	pc, [sp], #4
 1517              	.L94:
 1518 002a 00BF     		.align	2
 1519              	.L93:
 1520 002c CDCCCCCC 		.word	-858993459
 1521              		.cfi_endproc
 1522              	.LFE171:
 1524              		.section	.text.dmp_set_tap_time_multi,"ax",%progbits
 1525              		.align	1
 1526              		.global	dmp_set_tap_time_multi
 1527              		.syntax unified
 1528              		.thumb
 1529              		.thumb_func
 1531              	dmp_set_tap_time_multi:
 1532              	.LVL80:
 1533              	.LFB172:
 839:DMP/driver/eMPL/inv_mpu_dmp_motion_driver.c ****     unsigned short dmp_time;
 1534              		.loc 1 839 1 is_stmt 1 view -0
 1535              		.cfi_startproc
 1536              		@ args = 0, pretend = 0, frame = 8
 1537              		@ frame_needed = 0, uses_anonymous_args = 0
 839:DMP/driver/eMPL/inv_mpu_dmp_motion_driver.c ****     unsigned short dmp_time;
 1538              		.loc 1 839 1 is_stmt 0 view .LVU468
 1539 0000 00B5     		push	{lr}
 1540              	.LCFI34:
 1541              		.cfi_def_cfa_offset 4
 1542              		.cfi_offset 14, -4
 1543 0002 83B0     		sub	sp, sp, #12
 1544              	.LCFI35:
 1545              		.cfi_def_cfa_offset 16
 840:DMP/driver/eMPL/inv_mpu_dmp_motion_driver.c ****     unsigned char tmp[2];
 1546              		.loc 1 840 5 is_stmt 1 view .LVU469
 841:DMP/driver/eMPL/inv_mpu_dmp_motion_driver.c **** 
 1547              		.loc 1 841 5 view .LVU470
 843:DMP/driver/eMPL/inv_mpu_dmp_motion_driver.c ****     tmp[0] = (unsigned char)(dmp_time >> 8);
 1548              		.loc 1 843 5 view .LVU471
 843:DMP/driver/eMPL/inv_mpu_dmp_motion_driver.c ****     tmp[0] = (unsigned char)(dmp_time >> 8);
 1549              		.loc 1 843 14 is_stmt 0 view .LVU472
 1550 0004 094B     		ldr	r3, .L97
 1551 0006 A3FB0030 		umull	r3, r0, r3, r0
 1552              	.LVL81:
 844:DMP/driver/eMPL/inv_mpu_dmp_motion_driver.c ****     tmp[1] = (unsigned char)(dmp_time & 0xFF);
 1553              		.loc 1 844 5 is_stmt 1 view .LVU473
 844:DMP/driver/eMPL/inv_mpu_dmp_motion_driver.c ****     tmp[1] = (unsigned char)(dmp_time & 0xFF);
ARM GAS  /var/folders/21/t9g5rlb91ys800n5npymflf80000gn/T//ccWnr5oL.s 			page 57


 1554              		.loc 1 844 14 is_stmt 0 view .LVU474
 1555 000a 830A     		lsrs	r3, r0, #10
 844:DMP/driver/eMPL/inv_mpu_dmp_motion_driver.c ****     tmp[1] = (unsigned char)(dmp_time & 0xFF);
 1556              		.loc 1 844 12 view .LVU475
 1557 000c 8DF80430 		strb	r3, [sp, #4]
 845:DMP/driver/eMPL/inv_mpu_dmp_motion_driver.c ****     return mpu_write_mem(D_1_218, 2, tmp);
 1558              		.loc 1 845 5 is_stmt 1 view .LVU476
 845:DMP/driver/eMPL/inv_mpu_dmp_motion_driver.c ****     return mpu_write_mem(D_1_218, 2, tmp);
 1559              		.loc 1 845 14 is_stmt 0 view .LVU477
 1560 0010 C0F38700 		ubfx	r0, r0, #2, #8
 1561              	.LVL82:
 845:DMP/driver/eMPL/inv_mpu_dmp_motion_driver.c ****     return mpu_write_mem(D_1_218, 2, tmp);
 1562              		.loc 1 845 12 view .LVU478
 1563 0014 8DF80500 		strb	r0, [sp, #5]
 846:DMP/driver/eMPL/inv_mpu_dmp_motion_driver.c **** }
 1564              		.loc 1 846 5 is_stmt 1 view .LVU479
 846:DMP/driver/eMPL/inv_mpu_dmp_motion_driver.c **** }
 1565              		.loc 1 846 12 is_stmt 0 view .LVU480
 1566 0018 01AA     		add	r2, sp, #4
 1567 001a 0221     		movs	r1, #2
 1568 001c 4FF4ED70 		mov	r0, #474
 1569 0020 FFF7FEFF 		bl	mpu_write_mem
 1570              	.LVL83:
 847:DMP/driver/eMPL/inv_mpu_dmp_motion_driver.c **** 
 1571              		.loc 1 847 1 view .LVU481
 1572 0024 03B0     		add	sp, sp, #12
 1573              	.LCFI36:
 1574              		.cfi_def_cfa_offset 4
 1575              		@ sp needed
 1576 0026 5DF804FB 		ldr	pc, [sp], #4
 1577              	.L98:
 1578 002a 00BF     		.align	2
 1579              	.L97:
 1580 002c CDCCCCCC 		.word	-858993459
 1581              		.cfi_endproc
 1582              	.LFE172:
 1584              		.section	.text.dmp_set_shake_reject_thresh,"ax",%progbits
 1585              		.align	1
 1586              		.global	dmp_set_shake_reject_thresh
 1587              		.syntax unified
 1588              		.thumb
 1589              		.thumb_func
 1591              	dmp_set_shake_reject_thresh:
 1592              	.LVL84:
 1593              	.LFB173:
 857:DMP/driver/eMPL/inv_mpu_dmp_motion_driver.c ****     unsigned char tmp[4];
 1594              		.loc 1 857 1 is_stmt 1 view -0
 1595              		.cfi_startproc
 1596              		@ args = 0, pretend = 0, frame = 8
 1597              		@ frame_needed = 0, uses_anonymous_args = 0
 857:DMP/driver/eMPL/inv_mpu_dmp_motion_driver.c ****     unsigned char tmp[4];
 1598              		.loc 1 857 1 is_stmt 0 view .LVU483
 1599 0000 00B5     		push	{lr}
 1600              	.LCFI37:
 1601              		.cfi_def_cfa_offset 4
 1602              		.cfi_offset 14, -4
 1603 0002 83B0     		sub	sp, sp, #12
ARM GAS  /var/folders/21/t9g5rlb91ys800n5npymflf80000gn/T//ccWnr5oL.s 			page 58


 1604              	.LCFI38:
 1605              		.cfi_def_cfa_offset 16
 858:DMP/driver/eMPL/inv_mpu_dmp_motion_driver.c ****     long thresh_scaled = sf / 1000 * thresh;
 1606              		.loc 1 858 5 is_stmt 1 view .LVU484
 859:DMP/driver/eMPL/inv_mpu_dmp_motion_driver.c ****     tmp[0] = (unsigned char)(((long)thresh_scaled >> 24) & 0xFF);
 1607              		.loc 1 859 5 view .LVU485
 859:DMP/driver/eMPL/inv_mpu_dmp_motion_driver.c ****     tmp[0] = (unsigned char)(((long)thresh_scaled >> 24) & 0xFF);
 1608              		.loc 1 859 29 is_stmt 0 view .LVU486
 1609 0004 0E4B     		ldr	r3, .L101
 1610 0006 83FB0023 		smull	r2, r3, r3, r0
 1611 000a C017     		asrs	r0, r0, #31
 1612              	.LVL85:
 859:DMP/driver/eMPL/inv_mpu_dmp_motion_driver.c ****     tmp[0] = (unsigned char)(((long)thresh_scaled >> 24) & 0xFF);
 1613              		.loc 1 859 29 view .LVU487
 1614 000c C0EBA310 		rsb	r0, r0, r3, asr #6
 859:DMP/driver/eMPL/inv_mpu_dmp_motion_driver.c ****     tmp[0] = (unsigned char)(((long)thresh_scaled >> 24) & 0xFF);
 1615              		.loc 1 859 10 view .LVU488
 1616 0010 00FB01F1 		mul	r1, r0, r1
 1617              	.LVL86:
 860:DMP/driver/eMPL/inv_mpu_dmp_motion_driver.c ****     tmp[1] = (unsigned char)(((long)thresh_scaled >> 16) & 0xFF);
 1618              		.loc 1 860 5 is_stmt 1 view .LVU489
 860:DMP/driver/eMPL/inv_mpu_dmp_motion_driver.c ****     tmp[1] = (unsigned char)(((long)thresh_scaled >> 16) & 0xFF);
 1619              		.loc 1 860 14 is_stmt 0 view .LVU490
 1620 0014 0B0E     		lsrs	r3, r1, #24
 860:DMP/driver/eMPL/inv_mpu_dmp_motion_driver.c ****     tmp[1] = (unsigned char)(((long)thresh_scaled >> 16) & 0xFF);
 1621              		.loc 1 860 12 view .LVU491
 1622 0016 8DF80430 		strb	r3, [sp, #4]
 861:DMP/driver/eMPL/inv_mpu_dmp_motion_driver.c ****     tmp[2] = (unsigned char)(((long)thresh_scaled >> 8) & 0xFF);
 1623              		.loc 1 861 5 is_stmt 1 view .LVU492
 861:DMP/driver/eMPL/inv_mpu_dmp_motion_driver.c ****     tmp[2] = (unsigned char)(((long)thresh_scaled >> 8) & 0xFF);
 1624              		.loc 1 861 14 is_stmt 0 view .LVU493
 1625 001a C1F30743 		ubfx	r3, r1, #16, #8
 861:DMP/driver/eMPL/inv_mpu_dmp_motion_driver.c ****     tmp[2] = (unsigned char)(((long)thresh_scaled >> 8) & 0xFF);
 1626              		.loc 1 861 12 view .LVU494
 1627 001e 8DF80530 		strb	r3, [sp, #5]
 862:DMP/driver/eMPL/inv_mpu_dmp_motion_driver.c ****     tmp[3] = (unsigned char)((long)thresh_scaled & 0xFF);
 1628              		.loc 1 862 5 is_stmt 1 view .LVU495
 862:DMP/driver/eMPL/inv_mpu_dmp_motion_driver.c ****     tmp[3] = (unsigned char)((long)thresh_scaled & 0xFF);
 1629              		.loc 1 862 14 is_stmt 0 view .LVU496
 1630 0022 C1F30723 		ubfx	r3, r1, #8, #8
 862:DMP/driver/eMPL/inv_mpu_dmp_motion_driver.c ****     tmp[3] = (unsigned char)((long)thresh_scaled & 0xFF);
 1631              		.loc 1 862 12 view .LVU497
 1632 0026 8DF80630 		strb	r3, [sp, #6]
 863:DMP/driver/eMPL/inv_mpu_dmp_motion_driver.c ****     return mpu_write_mem(D_1_92, 4, tmp);
 1633              		.loc 1 863 5 is_stmt 1 view .LVU498
 863:DMP/driver/eMPL/inv_mpu_dmp_motion_driver.c ****     return mpu_write_mem(D_1_92, 4, tmp);
 1634              		.loc 1 863 12 is_stmt 0 view .LVU499
 1635 002a 8DF80710 		strb	r1, [sp, #7]
 864:DMP/driver/eMPL/inv_mpu_dmp_motion_driver.c **** }
 1636              		.loc 1 864 5 is_stmt 1 view .LVU500
 864:DMP/driver/eMPL/inv_mpu_dmp_motion_driver.c **** }
 1637              		.loc 1 864 12 is_stmt 0 view .LVU501
 1638 002e 01AA     		add	r2, sp, #4
 1639 0030 0421     		movs	r1, #4
 1640              	.LVL87:
 864:DMP/driver/eMPL/inv_mpu_dmp_motion_driver.c **** }
 1641              		.loc 1 864 12 view .LVU502
ARM GAS  /var/folders/21/t9g5rlb91ys800n5npymflf80000gn/T//ccWnr5oL.s 			page 59


 1642 0032 4FF4AE70 		mov	r0, #348
 864:DMP/driver/eMPL/inv_mpu_dmp_motion_driver.c **** }
 1643              		.loc 1 864 12 view .LVU503
 1644 0036 FFF7FEFF 		bl	mpu_write_mem
 1645              	.LVL88:
 865:DMP/driver/eMPL/inv_mpu_dmp_motion_driver.c **** 
 1646              		.loc 1 865 1 view .LVU504
 1647 003a 03B0     		add	sp, sp, #12
 1648              	.LCFI39:
 1649              		.cfi_def_cfa_offset 4
 1650              		@ sp needed
 1651 003c 5DF804FB 		ldr	pc, [sp], #4
 1652              	.L102:
 1653              		.align	2
 1654              	.L101:
 1655 0040 D34D6210 		.word	274877907
 1656              		.cfi_endproc
 1657              	.LFE173:
 1659              		.section	.text.dmp_set_shake_reject_time,"ax",%progbits
 1660              		.align	1
 1661              		.global	dmp_set_shake_reject_time
 1662              		.syntax unified
 1663              		.thumb
 1664              		.thumb_func
 1666              	dmp_set_shake_reject_time:
 1667              	.LVL89:
 1668              	.LFB174:
 876:DMP/driver/eMPL/inv_mpu_dmp_motion_driver.c ****     unsigned char tmp[2];
 1669              		.loc 1 876 1 is_stmt 1 view -0
 1670              		.cfi_startproc
 1671              		@ args = 0, pretend = 0, frame = 8
 1672              		@ frame_needed = 0, uses_anonymous_args = 0
 876:DMP/driver/eMPL/inv_mpu_dmp_motion_driver.c ****     unsigned char tmp[2];
 1673              		.loc 1 876 1 is_stmt 0 view .LVU506
 1674 0000 00B5     		push	{lr}
 1675              	.LCFI40:
 1676              		.cfi_def_cfa_offset 4
 1677              		.cfi_offset 14, -4
 1678 0002 83B0     		sub	sp, sp, #12
 1679              	.LCFI41:
 1680              		.cfi_def_cfa_offset 16
 877:DMP/driver/eMPL/inv_mpu_dmp_motion_driver.c **** 
 1681              		.loc 1 877 5 is_stmt 1 view .LVU507
 879:DMP/driver/eMPL/inv_mpu_dmp_motion_driver.c ****     tmp[0] = time >> 8;
 1682              		.loc 1 879 5 view .LVU508
 879:DMP/driver/eMPL/inv_mpu_dmp_motion_driver.c ****     tmp[0] = time >> 8;
 1683              		.loc 1 879 10 is_stmt 0 view .LVU509
 1684 0004 084B     		ldr	r3, .L105
 1685 0006 A3FB0030 		umull	r3, r0, r3, r0
 1686              	.LVL90:
 879:DMP/driver/eMPL/inv_mpu_dmp_motion_driver.c ****     tmp[0] = time >> 8;
 1687              		.loc 1 879 10 view .LVU510
 1688 000a 8308     		lsrs	r3, r0, #2
 1689              	.LVL91:
 880:DMP/driver/eMPL/inv_mpu_dmp_motion_driver.c ****     tmp[1] = time & 0xFF;
 1690              		.loc 1 880 5 is_stmt 1 view .LVU511
 880:DMP/driver/eMPL/inv_mpu_dmp_motion_driver.c ****     tmp[1] = time & 0xFF;
ARM GAS  /var/folders/21/t9g5rlb91ys800n5npymflf80000gn/T//ccWnr5oL.s 			page 60


 1691              		.loc 1 880 12 is_stmt 0 view .LVU512
 1692 000c 800A     		lsrs	r0, r0, #10
 1693 000e 8DF80400 		strb	r0, [sp, #4]
 881:DMP/driver/eMPL/inv_mpu_dmp_motion_driver.c ****     return mpu_write_mem(D_1_90,2,tmp);
 1694              		.loc 1 881 5 is_stmt 1 view .LVU513
 881:DMP/driver/eMPL/inv_mpu_dmp_motion_driver.c ****     return mpu_write_mem(D_1_90,2,tmp);
 1695              		.loc 1 881 12 is_stmt 0 view .LVU514
 1696 0012 8DF80530 		strb	r3, [sp, #5]
 882:DMP/driver/eMPL/inv_mpu_dmp_motion_driver.c **** }
 1697              		.loc 1 882 5 is_stmt 1 view .LVU515
 882:DMP/driver/eMPL/inv_mpu_dmp_motion_driver.c **** }
 1698              		.loc 1 882 12 is_stmt 0 view .LVU516
 1699 0016 01AA     		add	r2, sp, #4
 1700 0018 0221     		movs	r1, #2
 1701 001a 4FF4AD70 		mov	r0, #346
 1702 001e FFF7FEFF 		bl	mpu_write_mem
 1703              	.LVL92:
 883:DMP/driver/eMPL/inv_mpu_dmp_motion_driver.c **** 
 1704              		.loc 1 883 1 view .LVU517
 1705 0022 03B0     		add	sp, sp, #12
 1706              	.LCFI42:
 1707              		.cfi_def_cfa_offset 4
 1708              		@ sp needed
 1709 0024 5DF804FB 		ldr	pc, [sp], #4
 1710              	.L106:
 1711              		.align	2
 1712              	.L105:
 1713 0028 CDCCCCCC 		.word	-858993459
 1714              		.cfi_endproc
 1715              	.LFE174:
 1717              		.section	.text.dmp_set_shake_reject_timeout,"ax",%progbits
 1718              		.align	1
 1719              		.global	dmp_set_shake_reject_timeout
 1720              		.syntax unified
 1721              		.thumb
 1722              		.thumb_func
 1724              	dmp_set_shake_reject_timeout:
 1725              	.LVL93:
 1726              	.LFB175:
 894:DMP/driver/eMPL/inv_mpu_dmp_motion_driver.c ****     unsigned char tmp[2];
 1727              		.loc 1 894 1 is_stmt 1 view -0
 1728              		.cfi_startproc
 1729              		@ args = 0, pretend = 0, frame = 8
 1730              		@ frame_needed = 0, uses_anonymous_args = 0
 894:DMP/driver/eMPL/inv_mpu_dmp_motion_driver.c ****     unsigned char tmp[2];
 1731              		.loc 1 894 1 is_stmt 0 view .LVU519
 1732 0000 00B5     		push	{lr}
 1733              	.LCFI43:
 1734              		.cfi_def_cfa_offset 4
 1735              		.cfi_offset 14, -4
 1736 0002 83B0     		sub	sp, sp, #12
 1737              	.LCFI44:
 1738              		.cfi_def_cfa_offset 16
 895:DMP/driver/eMPL/inv_mpu_dmp_motion_driver.c **** 
 1739              		.loc 1 895 5 is_stmt 1 view .LVU520
 897:DMP/driver/eMPL/inv_mpu_dmp_motion_driver.c ****     tmp[0] = time >> 8;
 1740              		.loc 1 897 5 view .LVU521
ARM GAS  /var/folders/21/t9g5rlb91ys800n5npymflf80000gn/T//ccWnr5oL.s 			page 61


 897:DMP/driver/eMPL/inv_mpu_dmp_motion_driver.c ****     tmp[0] = time >> 8;
 1741              		.loc 1 897 10 is_stmt 0 view .LVU522
 1742 0004 084B     		ldr	r3, .L109
 1743 0006 A3FB0030 		umull	r3, r0, r3, r0
 1744              	.LVL94:
 897:DMP/driver/eMPL/inv_mpu_dmp_motion_driver.c ****     tmp[0] = time >> 8;
 1745              		.loc 1 897 10 view .LVU523
 1746 000a 8308     		lsrs	r3, r0, #2
 1747              	.LVL95:
 898:DMP/driver/eMPL/inv_mpu_dmp_motion_driver.c ****     tmp[1] = time & 0xFF;
 1748              		.loc 1 898 5 is_stmt 1 view .LVU524
 898:DMP/driver/eMPL/inv_mpu_dmp_motion_driver.c ****     tmp[1] = time & 0xFF;
 1749              		.loc 1 898 12 is_stmt 0 view .LVU525
 1750 000c 800A     		lsrs	r0, r0, #10
 1751 000e 8DF80400 		strb	r0, [sp, #4]
 899:DMP/driver/eMPL/inv_mpu_dmp_motion_driver.c ****     return mpu_write_mem(D_1_88,2,tmp);
 1752              		.loc 1 899 5 is_stmt 1 view .LVU526
 899:DMP/driver/eMPL/inv_mpu_dmp_motion_driver.c ****     return mpu_write_mem(D_1_88,2,tmp);
 1753              		.loc 1 899 12 is_stmt 0 view .LVU527
 1754 0012 8DF80530 		strb	r3, [sp, #5]
 900:DMP/driver/eMPL/inv_mpu_dmp_motion_driver.c **** }
 1755              		.loc 1 900 5 is_stmt 1 view .LVU528
 900:DMP/driver/eMPL/inv_mpu_dmp_motion_driver.c **** }
 1756              		.loc 1 900 12 is_stmt 0 view .LVU529
 1757 0016 01AA     		add	r2, sp, #4
 1758 0018 0221     		movs	r1, #2
 1759 001a 4FF4AC70 		mov	r0, #344
 1760 001e FFF7FEFF 		bl	mpu_write_mem
 1761              	.LVL96:
 901:DMP/driver/eMPL/inv_mpu_dmp_motion_driver.c **** 
 1762              		.loc 1 901 1 view .LVU530
 1763 0022 03B0     		add	sp, sp, #12
 1764              	.LCFI45:
 1765              		.cfi_def_cfa_offset 4
 1766              		@ sp needed
 1767 0024 5DF804FB 		ldr	pc, [sp], #4
 1768              	.L110:
 1769              		.align	2
 1770              	.L109:
 1771 0028 CDCCCCCC 		.word	-858993459
 1772              		.cfi_endproc
 1773              	.LFE175:
 1775              		.section	.text.dmp_get_pedometer_step_count,"ax",%progbits
 1776              		.align	1
 1777              		.global	dmp_get_pedometer_step_count
 1778              		.syntax unified
 1779              		.thumb
 1780              		.thumb_func
 1782              	dmp_get_pedometer_step_count:
 1783              	.LVL97:
 1784              	.LFB176:
 909:DMP/driver/eMPL/inv_mpu_dmp_motion_driver.c ****     unsigned char tmp[4];
 1785              		.loc 1 909 1 is_stmt 1 view -0
 1786              		.cfi_startproc
 1787              		@ args = 0, pretend = 0, frame = 8
 1788              		@ frame_needed = 0, uses_anonymous_args = 0
 910:DMP/driver/eMPL/inv_mpu_dmp_motion_driver.c ****     if (!count)
ARM GAS  /var/folders/21/t9g5rlb91ys800n5npymflf80000gn/T//ccWnr5oL.s 			page 62


 1789              		.loc 1 910 5 view .LVU532
 911:DMP/driver/eMPL/inv_mpu_dmp_motion_driver.c ****         return -1;
 1790              		.loc 1 911 5 view .LVU533
 911:DMP/driver/eMPL/inv_mpu_dmp_motion_driver.c ****         return -1;
 1791              		.loc 1 911 8 is_stmt 0 view .LVU534
 1792 0000 D0B1     		cbz	r0, .L113
 909:DMP/driver/eMPL/inv_mpu_dmp_motion_driver.c ****     unsigned char tmp[4];
 1793              		.loc 1 909 1 view .LVU535
 1794 0002 10B5     		push	{r4, lr}
 1795              	.LCFI46:
 1796              		.cfi_def_cfa_offset 8
 1797              		.cfi_offset 4, -8
 1798              		.cfi_offset 14, -4
 1799 0004 82B0     		sub	sp, sp, #8
 1800              	.LCFI47:
 1801              		.cfi_def_cfa_offset 16
 1802 0006 0446     		mov	r4, r0
 914:DMP/driver/eMPL/inv_mpu_dmp_motion_driver.c ****         return -1;
 1803              		.loc 1 914 5 is_stmt 1 view .LVU536
 914:DMP/driver/eMPL/inv_mpu_dmp_motion_driver.c ****         return -1;
 1804              		.loc 1 914 9 is_stmt 0 view .LVU537
 1805 0008 01AA     		add	r2, sp, #4
 1806 000a 0421     		movs	r1, #4
 1807 000c 4FF45870 		mov	r0, #864
 1808              	.LVL98:
 914:DMP/driver/eMPL/inv_mpu_dmp_motion_driver.c ****         return -1;
 1809              		.loc 1 914 9 view .LVU538
 1810 0010 FFF7FEFF 		bl	mpu_read_mem
 1811              	.LVL99:
 914:DMP/driver/eMPL/inv_mpu_dmp_motion_driver.c ****         return -1;
 1812              		.loc 1 914 8 view .LVU539
 1813 0014 98B9     		cbnz	r0, .L114
 917:DMP/driver/eMPL/inv_mpu_dmp_motion_driver.c ****         ((unsigned long)tmp[2] << 8) | tmp[3];
 1814              		.loc 1 917 5 is_stmt 1 view .LVU540
 917:DMP/driver/eMPL/inv_mpu_dmp_motion_driver.c ****         ((unsigned long)tmp[2] << 8) | tmp[3];
 1815              		.loc 1 917 35 is_stmt 0 view .LVU541
 1816 0016 9DF80420 		ldrb	r2, [sp, #4]	@ zero_extendqisi2
 917:DMP/driver/eMPL/inv_mpu_dmp_motion_driver.c ****         ((unsigned long)tmp[2] << 8) | tmp[3];
 1817              		.loc 1 917 67 view .LVU542
 1818 001a 9DF80530 		ldrb	r3, [sp, #5]	@ zero_extendqisi2
 917:DMP/driver/eMPL/inv_mpu_dmp_motion_driver.c ****         ((unsigned long)tmp[2] << 8) | tmp[3];
 1819              		.loc 1 917 71 view .LVU543
 1820 001e 1B04     		lsls	r3, r3, #16
 917:DMP/driver/eMPL/inv_mpu_dmp_motion_driver.c ****         ((unsigned long)tmp[2] << 8) | tmp[3];
 1821              		.loc 1 917 46 view .LVU544
 1822 0020 43EA0263 		orr	r3, r3, r2, lsl #24
 918:DMP/driver/eMPL/inv_mpu_dmp_motion_driver.c ****     return 0;
 1823              		.loc 1 918 28 view .LVU545
 1824 0024 9DF80620 		ldrb	r2, [sp, #6]	@ zero_extendqisi2
 917:DMP/driver/eMPL/inv_mpu_dmp_motion_driver.c ****         ((unsigned long)tmp[2] << 8) | tmp[3];
 1825              		.loc 1 917 78 view .LVU546
 1826 0028 43EA0223 		orr	r3, r3, r2, lsl #8
 918:DMP/driver/eMPL/inv_mpu_dmp_motion_driver.c ****     return 0;
 1827              		.loc 1 918 43 view .LVU547
 1828 002c 9DF80720 		ldrb	r2, [sp, #7]	@ zero_extendqisi2
 918:DMP/driver/eMPL/inv_mpu_dmp_motion_driver.c ****     return 0;
 1829              		.loc 1 918 38 view .LVU548
ARM GAS  /var/folders/21/t9g5rlb91ys800n5npymflf80000gn/T//ccWnr5oL.s 			page 63


 1830 0030 1343     		orrs	r3, r3, r2
 917:DMP/driver/eMPL/inv_mpu_dmp_motion_driver.c ****         ((unsigned long)tmp[2] << 8) | tmp[3];
 1831              		.loc 1 917 14 view .LVU549
 1832 0032 2360     		str	r3, [r4]
 919:DMP/driver/eMPL/inv_mpu_dmp_motion_driver.c **** }
 1833              		.loc 1 919 5 is_stmt 1 view .LVU550
 1834              	.L111:
 920:DMP/driver/eMPL/inv_mpu_dmp_motion_driver.c **** 
 1835              		.loc 1 920 1 is_stmt 0 view .LVU551
 1836 0034 02B0     		add	sp, sp, #8
 1837              	.LCFI48:
 1838              		.cfi_def_cfa_offset 8
 1839              		@ sp needed
 1840 0036 10BD     		pop	{r4, pc}
 1841              	.LVL100:
 1842              	.L113:
 1843              	.LCFI49:
 1844              		.cfi_def_cfa_offset 0
 1845              		.cfi_restore 4
 1846              		.cfi_restore 14
 912:DMP/driver/eMPL/inv_mpu_dmp_motion_driver.c **** 
 1847              		.loc 1 912 16 view .LVU552
 1848 0038 4FF0FF30 		mov	r0, #-1
 1849              	.LVL101:
 920:DMP/driver/eMPL/inv_mpu_dmp_motion_driver.c **** 
 1850              		.loc 1 920 1 view .LVU553
 1851 003c 7047     		bx	lr
 1852              	.LVL102:
 1853              	.L114:
 1854              	.LCFI50:
 1855              		.cfi_def_cfa_offset 16
 1856              		.cfi_offset 4, -8
 1857              		.cfi_offset 14, -4
 915:DMP/driver/eMPL/inv_mpu_dmp_motion_driver.c **** 
 1858              		.loc 1 915 16 view .LVU554
 1859 003e 4FF0FF30 		mov	r0, #-1
 1860 0042 F7E7     		b	.L111
 1861              		.cfi_endproc
 1862              	.LFE176:
 1864              		.section	.text.dmp_set_pedometer_step_count,"ax",%progbits
 1865              		.align	1
 1866              		.global	dmp_set_pedometer_step_count
 1867              		.syntax unified
 1868              		.thumb
 1869              		.thumb_func
 1871              	dmp_set_pedometer_step_count:
 1872              	.LVL103:
 1873              	.LFB177:
 930:DMP/driver/eMPL/inv_mpu_dmp_motion_driver.c ****     unsigned char tmp[4];
 1874              		.loc 1 930 1 is_stmt 1 view -0
 1875              		.cfi_startproc
 1876              		@ args = 0, pretend = 0, frame = 8
 1877              		@ frame_needed = 0, uses_anonymous_args = 0
 930:DMP/driver/eMPL/inv_mpu_dmp_motion_driver.c ****     unsigned char tmp[4];
 1878              		.loc 1 930 1 is_stmt 0 view .LVU556
 1879 0000 00B5     		push	{lr}
 1880              	.LCFI51:
ARM GAS  /var/folders/21/t9g5rlb91ys800n5npymflf80000gn/T//ccWnr5oL.s 			page 64


 1881              		.cfi_def_cfa_offset 4
 1882              		.cfi_offset 14, -4
 1883 0002 83B0     		sub	sp, sp, #12
 1884              	.LCFI52:
 1885              		.cfi_def_cfa_offset 16
 931:DMP/driver/eMPL/inv_mpu_dmp_motion_driver.c **** 
 1886              		.loc 1 931 5 is_stmt 1 view .LVU557
 933:DMP/driver/eMPL/inv_mpu_dmp_motion_driver.c ****     tmp[1] = (unsigned char)((count >> 16) & 0xFF);
 1887              		.loc 1 933 5 view .LVU558
 933:DMP/driver/eMPL/inv_mpu_dmp_motion_driver.c ****     tmp[1] = (unsigned char)((count >> 16) & 0xFF);
 1888              		.loc 1 933 14 is_stmt 0 view .LVU559
 1889 0004 030E     		lsrs	r3, r0, #24
 933:DMP/driver/eMPL/inv_mpu_dmp_motion_driver.c ****     tmp[1] = (unsigned char)((count >> 16) & 0xFF);
 1890              		.loc 1 933 12 view .LVU560
 1891 0006 8DF80430 		strb	r3, [sp, #4]
 934:DMP/driver/eMPL/inv_mpu_dmp_motion_driver.c ****     tmp[2] = (unsigned char)((count >> 8) & 0xFF);
 1892              		.loc 1 934 5 is_stmt 1 view .LVU561
 934:DMP/driver/eMPL/inv_mpu_dmp_motion_driver.c ****     tmp[2] = (unsigned char)((count >> 8) & 0xFF);
 1893              		.loc 1 934 14 is_stmt 0 view .LVU562
 1894 000a C0F30743 		ubfx	r3, r0, #16, #8
 934:DMP/driver/eMPL/inv_mpu_dmp_motion_driver.c ****     tmp[2] = (unsigned char)((count >> 8) & 0xFF);
 1895              		.loc 1 934 12 view .LVU563
 1896 000e 8DF80530 		strb	r3, [sp, #5]
 935:DMP/driver/eMPL/inv_mpu_dmp_motion_driver.c ****     tmp[3] = (unsigned char)(count & 0xFF);
 1897              		.loc 1 935 5 is_stmt 1 view .LVU564
 935:DMP/driver/eMPL/inv_mpu_dmp_motion_driver.c ****     tmp[3] = (unsigned char)(count & 0xFF);
 1898              		.loc 1 935 14 is_stmt 0 view .LVU565
 1899 0012 C0F30723 		ubfx	r3, r0, #8, #8
 935:DMP/driver/eMPL/inv_mpu_dmp_motion_driver.c ****     tmp[3] = (unsigned char)(count & 0xFF);
 1900              		.loc 1 935 12 view .LVU566
 1901 0016 8DF80630 		strb	r3, [sp, #6]
 936:DMP/driver/eMPL/inv_mpu_dmp_motion_driver.c ****     return mpu_write_mem(D_PEDSTD_STEPCTR, 4, tmp);
 1902              		.loc 1 936 5 is_stmt 1 view .LVU567
 936:DMP/driver/eMPL/inv_mpu_dmp_motion_driver.c ****     return mpu_write_mem(D_PEDSTD_STEPCTR, 4, tmp);
 1903              		.loc 1 936 12 is_stmt 0 view .LVU568
 1904 001a 8DF80700 		strb	r0, [sp, #7]
 937:DMP/driver/eMPL/inv_mpu_dmp_motion_driver.c **** }
 1905              		.loc 1 937 5 is_stmt 1 view .LVU569
 937:DMP/driver/eMPL/inv_mpu_dmp_motion_driver.c **** }
 1906              		.loc 1 937 12 is_stmt 0 view .LVU570
 1907 001e 01AA     		add	r2, sp, #4
 1908 0020 0421     		movs	r1, #4
 1909 0022 4FF45870 		mov	r0, #864
 1910              	.LVL104:
 937:DMP/driver/eMPL/inv_mpu_dmp_motion_driver.c **** }
 1911              		.loc 1 937 12 view .LVU571
 1912 0026 FFF7FEFF 		bl	mpu_write_mem
 1913              	.LVL105:
 938:DMP/driver/eMPL/inv_mpu_dmp_motion_driver.c **** 
 1914              		.loc 1 938 1 view .LVU572
 1915 002a 03B0     		add	sp, sp, #12
 1916              	.LCFI53:
 1917              		.cfi_def_cfa_offset 4
 1918              		@ sp needed
 1919 002c 5DF804FB 		ldr	pc, [sp], #4
 1920              		.cfi_endproc
 1921              	.LFE177:
ARM GAS  /var/folders/21/t9g5rlb91ys800n5npymflf80000gn/T//ccWnr5oL.s 			page 65


 1923              		.section	.text.dmp_get_pedometer_walk_time,"ax",%progbits
 1924              		.align	1
 1925              		.global	dmp_get_pedometer_walk_time
 1926              		.syntax unified
 1927              		.thumb
 1928              		.thumb_func
 1930              	dmp_get_pedometer_walk_time:
 1931              	.LVL106:
 1932              	.LFB178:
 946:DMP/driver/eMPL/inv_mpu_dmp_motion_driver.c ****     unsigned char tmp[4];
 1933              		.loc 1 946 1 is_stmt 1 view -0
 1934              		.cfi_startproc
 1935              		@ args = 0, pretend = 0, frame = 8
 1936              		@ frame_needed = 0, uses_anonymous_args = 0
 947:DMP/driver/eMPL/inv_mpu_dmp_motion_driver.c ****     if (!time)
 1937              		.loc 1 947 5 view .LVU574
 948:DMP/driver/eMPL/inv_mpu_dmp_motion_driver.c ****         return -1;
 1938              		.loc 1 948 5 view .LVU575
 948:DMP/driver/eMPL/inv_mpu_dmp_motion_driver.c ****         return -1;
 1939              		.loc 1 948 8 is_stmt 0 view .LVU576
 1940 0000 E8B1     		cbz	r0, .L123
 946:DMP/driver/eMPL/inv_mpu_dmp_motion_driver.c ****     unsigned char tmp[4];
 1941              		.loc 1 946 1 view .LVU577
 1942 0002 10B5     		push	{r4, lr}
 1943              	.LCFI54:
 1944              		.cfi_def_cfa_offset 8
 1945              		.cfi_offset 4, -8
 1946              		.cfi_offset 14, -4
 1947 0004 82B0     		sub	sp, sp, #8
 1948              	.LCFI55:
 1949              		.cfi_def_cfa_offset 16
 1950 0006 0446     		mov	r4, r0
 951:DMP/driver/eMPL/inv_mpu_dmp_motion_driver.c ****         return -1;
 1951              		.loc 1 951 5 is_stmt 1 view .LVU578
 951:DMP/driver/eMPL/inv_mpu_dmp_motion_driver.c ****         return -1;
 1952              		.loc 1 951 9 is_stmt 0 view .LVU579
 1953 0008 01AA     		add	r2, sp, #4
 1954 000a 0421     		movs	r1, #4
 1955 000c 4FF47170 		mov	r0, #964
 1956              	.LVL107:
 951:DMP/driver/eMPL/inv_mpu_dmp_motion_driver.c ****         return -1;
 1957              		.loc 1 951 9 view .LVU580
 1958 0010 FFF7FEFF 		bl	mpu_read_mem
 1959              	.LVL108:
 951:DMP/driver/eMPL/inv_mpu_dmp_motion_driver.c ****         return -1;
 1960              		.loc 1 951 8 view .LVU581
 1961 0014 B0B9     		cbnz	r0, .L124
 954:DMP/driver/eMPL/inv_mpu_dmp_motion_driver.c ****         ((unsigned long)tmp[2] << 8) | tmp[3]) * 20;
 1962              		.loc 1 954 5 is_stmt 1 view .LVU582
 954:DMP/driver/eMPL/inv_mpu_dmp_motion_driver.c ****         ((unsigned long)tmp[2] << 8) | tmp[3]) * 20;
 1963              		.loc 1 954 35 is_stmt 0 view .LVU583
 1964 0016 9DF80420 		ldrb	r2, [sp, #4]	@ zero_extendqisi2
 954:DMP/driver/eMPL/inv_mpu_dmp_motion_driver.c ****         ((unsigned long)tmp[2] << 8) | tmp[3]) * 20;
 1965              		.loc 1 954 67 view .LVU584
 1966 001a 9DF80530 		ldrb	r3, [sp, #5]	@ zero_extendqisi2
 954:DMP/driver/eMPL/inv_mpu_dmp_motion_driver.c ****         ((unsigned long)tmp[2] << 8) | tmp[3]) * 20;
 1967              		.loc 1 954 71 view .LVU585
ARM GAS  /var/folders/21/t9g5rlb91ys800n5npymflf80000gn/T//ccWnr5oL.s 			page 66


 1968 001e 1B04     		lsls	r3, r3, #16
 954:DMP/driver/eMPL/inv_mpu_dmp_motion_driver.c ****         ((unsigned long)tmp[2] << 8) | tmp[3]) * 20;
 1969              		.loc 1 954 46 view .LVU586
 1970 0020 43EA0263 		orr	r3, r3, r2, lsl #24
 955:DMP/driver/eMPL/inv_mpu_dmp_motion_driver.c ****     return 0;
 1971              		.loc 1 955 28 view .LVU587
 1972 0024 9DF80620 		ldrb	r2, [sp, #6]	@ zero_extendqisi2
 954:DMP/driver/eMPL/inv_mpu_dmp_motion_driver.c ****         ((unsigned long)tmp[2] << 8) | tmp[3]) * 20;
 1973              		.loc 1 954 78 view .LVU588
 1974 0028 43EA0223 		orr	r3, r3, r2, lsl #8
 955:DMP/driver/eMPL/inv_mpu_dmp_motion_driver.c ****     return 0;
 1975              		.loc 1 955 43 view .LVU589
 1976 002c 9DF80720 		ldrb	r2, [sp, #7]	@ zero_extendqisi2
 955:DMP/driver/eMPL/inv_mpu_dmp_motion_driver.c ****     return 0;
 1977              		.loc 1 955 38 view .LVU590
 1978 0030 1343     		orrs	r3, r3, r2
 955:DMP/driver/eMPL/inv_mpu_dmp_motion_driver.c ****     return 0;
 1979              		.loc 1 955 48 view .LVU591
 1980 0032 03EB8303 		add	r3, r3, r3, lsl #2
 1981 0036 9B00     		lsls	r3, r3, #2
 954:DMP/driver/eMPL/inv_mpu_dmp_motion_driver.c ****         ((unsigned long)tmp[2] << 8) | tmp[3]) * 20;
 1982              		.loc 1 954 13 view .LVU592
 1983 0038 2360     		str	r3, [r4]
 956:DMP/driver/eMPL/inv_mpu_dmp_motion_driver.c **** }
 1984              		.loc 1 956 5 is_stmt 1 view .LVU593
 1985              	.L121:
 957:DMP/driver/eMPL/inv_mpu_dmp_motion_driver.c **** 
 1986              		.loc 1 957 1 is_stmt 0 view .LVU594
 1987 003a 02B0     		add	sp, sp, #8
 1988              	.LCFI56:
 1989              		.cfi_def_cfa_offset 8
 1990              		@ sp needed
 1991 003c 10BD     		pop	{r4, pc}
 1992              	.LVL109:
 1993              	.L123:
 1994              	.LCFI57:
 1995              		.cfi_def_cfa_offset 0
 1996              		.cfi_restore 4
 1997              		.cfi_restore 14
 949:DMP/driver/eMPL/inv_mpu_dmp_motion_driver.c **** 
 1998              		.loc 1 949 16 view .LVU595
 1999 003e 4FF0FF30 		mov	r0, #-1
 2000              	.LVL110:
 957:DMP/driver/eMPL/inv_mpu_dmp_motion_driver.c **** 
 2001              		.loc 1 957 1 view .LVU596
 2002 0042 7047     		bx	lr
 2003              	.LVL111:
 2004              	.L124:
 2005              	.LCFI58:
 2006              		.cfi_def_cfa_offset 16
 2007              		.cfi_offset 4, -8
 2008              		.cfi_offset 14, -4
 952:DMP/driver/eMPL/inv_mpu_dmp_motion_driver.c **** 
 2009              		.loc 1 952 16 view .LVU597
 2010 0044 4FF0FF30 		mov	r0, #-1
 2011 0048 F7E7     		b	.L121
 2012              		.cfi_endproc
ARM GAS  /var/folders/21/t9g5rlb91ys800n5npymflf80000gn/T//ccWnr5oL.s 			page 67


 2013              	.LFE178:
 2015              		.section	.text.dmp_set_pedometer_walk_time,"ax",%progbits
 2016              		.align	1
 2017              		.global	dmp_set_pedometer_walk_time
 2018              		.syntax unified
 2019              		.thumb
 2020              		.thumb_func
 2022              	dmp_set_pedometer_walk_time:
 2023              	.LVL112:
 2024              	.LFB179:
 966:DMP/driver/eMPL/inv_mpu_dmp_motion_driver.c ****     unsigned char tmp[4];
 2025              		.loc 1 966 1 is_stmt 1 view -0
 2026              		.cfi_startproc
 2027              		@ args = 0, pretend = 0, frame = 8
 2028              		@ frame_needed = 0, uses_anonymous_args = 0
 966:DMP/driver/eMPL/inv_mpu_dmp_motion_driver.c ****     unsigned char tmp[4];
 2029              		.loc 1 966 1 is_stmt 0 view .LVU599
 2030 0000 00B5     		push	{lr}
 2031              	.LCFI59:
 2032              		.cfi_def_cfa_offset 4
 2033              		.cfi_offset 14, -4
 2034 0002 83B0     		sub	sp, sp, #12
 2035              	.LCFI60:
 2036              		.cfi_def_cfa_offset 16
 967:DMP/driver/eMPL/inv_mpu_dmp_motion_driver.c **** 
 2037              		.loc 1 967 5 is_stmt 1 view .LVU600
 969:DMP/driver/eMPL/inv_mpu_dmp_motion_driver.c **** 
 2038              		.loc 1 969 5 view .LVU601
 969:DMP/driver/eMPL/inv_mpu_dmp_motion_driver.c **** 
 2039              		.loc 1 969 10 is_stmt 0 view .LVU602
 2040 0004 0D4B     		ldr	r3, .L131
 2041 0006 A3FB0030 		umull	r3, r0, r3, r0
 2042              	.LVL113:
 971:DMP/driver/eMPL/inv_mpu_dmp_motion_driver.c ****     tmp[1] = (unsigned char)((time >> 16) & 0xFF);
 2043              		.loc 1 971 5 is_stmt 1 view .LVU603
 971:DMP/driver/eMPL/inv_mpu_dmp_motion_driver.c ****     tmp[1] = (unsigned char)((time >> 16) & 0xFF);
 2044              		.loc 1 971 14 is_stmt 0 view .LVU604
 2045 000a 030F     		lsrs	r3, r0, #28
 971:DMP/driver/eMPL/inv_mpu_dmp_motion_driver.c ****     tmp[1] = (unsigned char)((time >> 16) & 0xFF);
 2046              		.loc 1 971 12 view .LVU605
 2047 000c 8DF80430 		strb	r3, [sp, #4]
 972:DMP/driver/eMPL/inv_mpu_dmp_motion_driver.c ****     tmp[2] = (unsigned char)((time >> 8) & 0xFF);
 2048              		.loc 1 972 5 is_stmt 1 view .LVU606
 972:DMP/driver/eMPL/inv_mpu_dmp_motion_driver.c ****     tmp[2] = (unsigned char)((time >> 8) & 0xFF);
 2049              		.loc 1 972 14 is_stmt 0 view .LVU607
 2050 0010 C0F30753 		ubfx	r3, r0, #20, #8
 972:DMP/driver/eMPL/inv_mpu_dmp_motion_driver.c ****     tmp[2] = (unsigned char)((time >> 8) & 0xFF);
 2051              		.loc 1 972 12 view .LVU608
 2052 0014 8DF80530 		strb	r3, [sp, #5]
 973:DMP/driver/eMPL/inv_mpu_dmp_motion_driver.c ****     tmp[3] = (unsigned char)(time & 0xFF);
 2053              		.loc 1 973 5 is_stmt 1 view .LVU609
 973:DMP/driver/eMPL/inv_mpu_dmp_motion_driver.c ****     tmp[3] = (unsigned char)(time & 0xFF);
 2054              		.loc 1 973 14 is_stmt 0 view .LVU610
 2055 0018 C0F30733 		ubfx	r3, r0, #12, #8
 973:DMP/driver/eMPL/inv_mpu_dmp_motion_driver.c ****     tmp[3] = (unsigned char)(time & 0xFF);
 2056              		.loc 1 973 12 view .LVU611
 2057 001c 8DF80630 		strb	r3, [sp, #6]
ARM GAS  /var/folders/21/t9g5rlb91ys800n5npymflf80000gn/T//ccWnr5oL.s 			page 68


 974:DMP/driver/eMPL/inv_mpu_dmp_motion_driver.c ****     return mpu_write_mem(D_PEDSTD_TIMECTR, 4, tmp);
 2058              		.loc 1 974 5 is_stmt 1 view .LVU612
 974:DMP/driver/eMPL/inv_mpu_dmp_motion_driver.c ****     return mpu_write_mem(D_PEDSTD_TIMECTR, 4, tmp);
 2059              		.loc 1 974 14 is_stmt 0 view .LVU613
 2060 0020 C0F30710 		ubfx	r0, r0, #4, #8
 2061              	.LVL114:
 974:DMP/driver/eMPL/inv_mpu_dmp_motion_driver.c ****     return mpu_write_mem(D_PEDSTD_TIMECTR, 4, tmp);
 2062              		.loc 1 974 12 view .LVU614
 2063 0024 8DF80700 		strb	r0, [sp, #7]
 975:DMP/driver/eMPL/inv_mpu_dmp_motion_driver.c **** }
 2064              		.loc 1 975 5 is_stmt 1 view .LVU615
 975:DMP/driver/eMPL/inv_mpu_dmp_motion_driver.c **** }
 2065              		.loc 1 975 12 is_stmt 0 view .LVU616
 2066 0028 01AA     		add	r2, sp, #4
 2067 002a 0421     		movs	r1, #4
 2068 002c 4FF47170 		mov	r0, #964
 2069 0030 FFF7FEFF 		bl	mpu_write_mem
 2070              	.LVL115:
 976:DMP/driver/eMPL/inv_mpu_dmp_motion_driver.c **** 
 2071              		.loc 1 976 1 view .LVU617
 2072 0034 03B0     		add	sp, sp, #12
 2073              	.LCFI61:
 2074              		.cfi_def_cfa_offset 4
 2075              		@ sp needed
 2076 0036 5DF804FB 		ldr	pc, [sp], #4
 2077              	.L132:
 2078 003a 00BF     		.align	2
 2079              	.L131:
 2080 003c CDCCCCCC 		.word	-858993459
 2081              		.cfi_endproc
 2082              	.LFE179:
 2084              		.section	.text.dmp_get_enabled_features,"ax",%progbits
 2085              		.align	1
 2086              		.global	dmp_get_enabled_features
 2087              		.syntax unified
 2088              		.thumb
 2089              		.thumb_func
 2091              	dmp_get_enabled_features:
 2092              	.LVL116:
 2093              	.LFB181:
1118:DMP/driver/eMPL/inv_mpu_dmp_motion_driver.c ****     mask[0] = dmp.feature_mask;
 2094              		.loc 1 1118 1 is_stmt 1 view -0
 2095              		.cfi_startproc
 2096              		@ args = 0, pretend = 0, frame = 0
 2097              		@ frame_needed = 0, uses_anonymous_args = 0
 2098              		@ link register save eliminated.
1119:DMP/driver/eMPL/inv_mpu_dmp_motion_driver.c ****     return 0;
 2099              		.loc 1 1119 5 view .LVU619
1119:DMP/driver/eMPL/inv_mpu_dmp_motion_driver.c ****     return 0;
 2100              		.loc 1 1119 18 is_stmt 0 view .LVU620
 2101 0000 024B     		ldr	r3, .L134
 2102 0002 5B89     		ldrh	r3, [r3, #10]
1119:DMP/driver/eMPL/inv_mpu_dmp_motion_driver.c ****     return 0;
 2103              		.loc 1 1119 13 view .LVU621
 2104 0004 0380     		strh	r3, [r0]	@ movhi
1120:DMP/driver/eMPL/inv_mpu_dmp_motion_driver.c **** }
 2105              		.loc 1 1120 5 is_stmt 1 view .LVU622
ARM GAS  /var/folders/21/t9g5rlb91ys800n5npymflf80000gn/T//ccWnr5oL.s 			page 69


1121:DMP/driver/eMPL/inv_mpu_dmp_motion_driver.c **** 
 2106              		.loc 1 1121 1 is_stmt 0 view .LVU623
 2107 0006 0020     		movs	r0, #0
 2108              	.LVL117:
1121:DMP/driver/eMPL/inv_mpu_dmp_motion_driver.c **** 
 2109              		.loc 1 1121 1 view .LVU624
 2110 0008 7047     		bx	lr
 2111              	.L135:
 2112 000a 00BF     		.align	2
 2113              	.L134:
 2114 000c 00000000 		.word	dmp
 2115              		.cfi_endproc
 2116              	.LFE181:
 2118              		.section	.rodata.dmp_enable_gyro_cal.str1.4,"aMS",%progbits,1
 2119              		.align	2
 2120              	.LC5:
 2121 0000 B8AAB38D 		.ascii	"\270\252\263\215\264\230\0155]\000"
 2121      B4980D35 
 2121      5D00
 2122 000a 0000     		.align	2
 2123              	.LC6:
 2124 000c B8AAAAAA 		.ascii	"\270\252\252\252\260\210\303\305\307\000"
 2124      B088C3C5 
 2124      C700
 2125              		.section	.text.dmp_enable_gyro_cal,"ax",%progbits
 2126              		.align	1
 2127              		.global	dmp_enable_gyro_cal
 2128              		.syntax unified
 2129              		.thumb
 2130              		.thumb_func
 2132              	dmp_enable_gyro_cal:
 2133              	.LVL118:
 2134              	.LFB182:
1133:DMP/driver/eMPL/inv_mpu_dmp_motion_driver.c ****     if (enable) {
 2135              		.loc 1 1133 1 is_stmt 1 view -0
 2136              		.cfi_startproc
 2137              		@ args = 0, pretend = 0, frame = 16
 2138              		@ frame_needed = 0, uses_anonymous_args = 0
1133:DMP/driver/eMPL/inv_mpu_dmp_motion_driver.c ****     if (enable) {
 2139              		.loc 1 1133 1 is_stmt 0 view .LVU626
 2140 0000 00B5     		push	{lr}
 2141              	.LCFI62:
 2142              		.cfi_def_cfa_offset 4
 2143              		.cfi_offset 14, -4
 2144 0002 85B0     		sub	sp, sp, #20
 2145              	.LCFI63:
 2146              		.cfi_def_cfa_offset 24
1134:DMP/driver/eMPL/inv_mpu_dmp_motion_driver.c ****         unsigned char regs[9] = {0xb8, 0xaa, 0xb3, 0x8d, 0xb4, 0x98, 0x0d, 0x35, 0x5d};
 2147              		.loc 1 1134 5 is_stmt 1 view .LVU627
1134:DMP/driver/eMPL/inv_mpu_dmp_motion_driver.c ****         unsigned char regs[9] = {0xb8, 0xaa, 0xb3, 0x8d, 0xb4, 0x98, 0x0d, 0x35, 0x5d};
 2148              		.loc 1 1134 8 is_stmt 0 view .LVU628
 2149 0004 68B1     		cbz	r0, .L137
 2150              	.LBB3:
1135:DMP/driver/eMPL/inv_mpu_dmp_motion_driver.c ****         return mpu_write_mem(CFG_MOTION_BIAS, 9, regs);
 2151              		.loc 1 1135 9 is_stmt 1 view .LVU629
1135:DMP/driver/eMPL/inv_mpu_dmp_motion_driver.c ****         return mpu_write_mem(CFG_MOTION_BIAS, 9, regs);
 2152              		.loc 1 1135 23 is_stmt 0 view .LVU630
ARM GAS  /var/folders/21/t9g5rlb91ys800n5npymflf80000gn/T//ccWnr5oL.s 			page 70


 2153 0006 0D4A     		ldr	r2, .L140
 2154 0008 01AB     		add	r3, sp, #4
 2155 000a 07CA     		ldm	r2, {r0, r1, r2}
 2156              	.LVL119:
1135:DMP/driver/eMPL/inv_mpu_dmp_motion_driver.c ****         return mpu_write_mem(CFG_MOTION_BIAS, 9, regs);
 2157              		.loc 1 1135 23 view .LVU631
 2158 000c 03C3     		stmia	r3!, {r0, r1}
 2159 000e 1A70     		strb	r2, [r3]
1136:DMP/driver/eMPL/inv_mpu_dmp_motion_driver.c ****     } else {
 2160              		.loc 1 1136 9 is_stmt 1 view .LVU632
1136:DMP/driver/eMPL/inv_mpu_dmp_motion_driver.c ****     } else {
 2161              		.loc 1 1136 16 is_stmt 0 view .LVU633
 2162 0010 01AA     		add	r2, sp, #4
 2163 0012 0921     		movs	r1, #9
 2164 0014 4FF49760 		mov	r0, #1208
 2165 0018 FFF7FEFF 		bl	mpu_write_mem
 2166              	.LVL120:
 2167              	.L136:
 2168              	.LBE3:
1141:DMP/driver/eMPL/inv_mpu_dmp_motion_driver.c **** 
 2169              		.loc 1 1141 1 view .LVU634
 2170 001c 05B0     		add	sp, sp, #20
 2171              	.LCFI64:
 2172              		.cfi_remember_state
 2173              		.cfi_def_cfa_offset 4
 2174              		@ sp needed
 2175 001e 5DF804FB 		ldr	pc, [sp], #4
 2176              	.LVL121:
 2177              	.L137:
 2178              	.LCFI65:
 2179              		.cfi_restore_state
 2180              	.LBB4:
1138:DMP/driver/eMPL/inv_mpu_dmp_motion_driver.c ****         return mpu_write_mem(CFG_MOTION_BIAS, 9, regs);
 2181              		.loc 1 1138 9 is_stmt 1 view .LVU635
1138:DMP/driver/eMPL/inv_mpu_dmp_motion_driver.c ****         return mpu_write_mem(CFG_MOTION_BIAS, 9, regs);
 2182              		.loc 1 1138 23 is_stmt 0 view .LVU636
 2183 0022 074A     		ldr	r2, .L140+4
 2184 0024 01AB     		add	r3, sp, #4
 2185 0026 07CA     		ldm	r2, {r0, r1, r2}
 2186              	.LVL122:
1138:DMP/driver/eMPL/inv_mpu_dmp_motion_driver.c ****         return mpu_write_mem(CFG_MOTION_BIAS, 9, regs);
 2187              		.loc 1 1138 23 view .LVU637
 2188 0028 03C3     		stmia	r3!, {r0, r1}
 2189 002a 1A70     		strb	r2, [r3]
1139:DMP/driver/eMPL/inv_mpu_dmp_motion_driver.c ****     }
 2190              		.loc 1 1139 9 is_stmt 1 view .LVU638
1139:DMP/driver/eMPL/inv_mpu_dmp_motion_driver.c ****     }
 2191              		.loc 1 1139 16 is_stmt 0 view .LVU639
 2192 002c 01AA     		add	r2, sp, #4
 2193 002e 0921     		movs	r1, #9
 2194 0030 4FF49760 		mov	r0, #1208
 2195 0034 FFF7FEFF 		bl	mpu_write_mem
 2196              	.LVL123:
 2197 0038 F0E7     		b	.L136
 2198              	.L141:
 2199 003a 00BF     		.align	2
 2200              	.L140:
ARM GAS  /var/folders/21/t9g5rlb91ys800n5npymflf80000gn/T//ccWnr5oL.s 			page 71


 2201 003c 00000000 		.word	.LC5
 2202 0040 0C000000 		.word	.LC6
 2203              	.LBE4:
 2204              		.cfi_endproc
 2205              	.LFE182:
 2207              		.section	.text.dmp_enable_lp_quat,"ax",%progbits
 2208              		.align	1
 2209              		.global	dmp_enable_lp_quat
 2210              		.syntax unified
 2211              		.thumb
 2212              		.thumb_func
 2214              	dmp_enable_lp_quat:
 2215              	.LVL124:
 2216              	.LFB183:
1151:DMP/driver/eMPL/inv_mpu_dmp_motion_driver.c ****     unsigned char regs[4];
 2217              		.loc 1 1151 1 is_stmt 1 view -0
 2218              		.cfi_startproc
 2219              		@ args = 0, pretend = 0, frame = 8
 2220              		@ frame_needed = 0, uses_anonymous_args = 0
1151:DMP/driver/eMPL/inv_mpu_dmp_motion_driver.c ****     unsigned char regs[4];
 2221              		.loc 1 1151 1 is_stmt 0 view .LVU641
 2222 0000 00B5     		push	{lr}
 2223              	.LCFI66:
 2224              		.cfi_def_cfa_offset 4
 2225              		.cfi_offset 14, -4
 2226 0002 83B0     		sub	sp, sp, #12
 2227              	.LCFI67:
 2228              		.cfi_def_cfa_offset 16
1152:DMP/driver/eMPL/inv_mpu_dmp_motion_driver.c ****     if (enable) {
 2229              		.loc 1 1152 5 is_stmt 1 view .LVU642
1153:DMP/driver/eMPL/inv_mpu_dmp_motion_driver.c ****         regs[0] = DINBC0;
 2230              		.loc 1 1153 5 view .LVU643
1153:DMP/driver/eMPL/inv_mpu_dmp_motion_driver.c ****         regs[0] = DINBC0;
 2231              		.loc 1 1153 8 is_stmt 0 view .LVU644
 2232 0004 B0B1     		cbz	r0, .L143
1154:DMP/driver/eMPL/inv_mpu_dmp_motion_driver.c ****         regs[1] = DINBC2;
 2233              		.loc 1 1154 9 is_stmt 1 view .LVU645
1154:DMP/driver/eMPL/inv_mpu_dmp_motion_driver.c ****         regs[1] = DINBC2;
 2234              		.loc 1 1154 17 is_stmt 0 view .LVU646
 2235 0006 C023     		movs	r3, #192
 2236 0008 8DF80430 		strb	r3, [sp, #4]
1155:DMP/driver/eMPL/inv_mpu_dmp_motion_driver.c ****         regs[2] = DINBC4;
 2237              		.loc 1 1155 9 is_stmt 1 view .LVU647
1155:DMP/driver/eMPL/inv_mpu_dmp_motion_driver.c ****         regs[2] = DINBC4;
 2238              		.loc 1 1155 17 is_stmt 0 view .LVU648
 2239 000c C223     		movs	r3, #194
 2240 000e 8DF80530 		strb	r3, [sp, #5]
1156:DMP/driver/eMPL/inv_mpu_dmp_motion_driver.c ****         regs[3] = DINBC6;
 2241              		.loc 1 1156 9 is_stmt 1 view .LVU649
1156:DMP/driver/eMPL/inv_mpu_dmp_motion_driver.c ****         regs[3] = DINBC6;
 2242              		.loc 1 1156 17 is_stmt 0 view .LVU650
 2243 0012 C423     		movs	r3, #196
 2244 0014 8DF80630 		strb	r3, [sp, #6]
1157:DMP/driver/eMPL/inv_mpu_dmp_motion_driver.c ****     }
 2245              		.loc 1 1157 9 is_stmt 1 view .LVU651
1157:DMP/driver/eMPL/inv_mpu_dmp_motion_driver.c ****     }
 2246              		.loc 1 1157 17 is_stmt 0 view .LVU652
ARM GAS  /var/folders/21/t9g5rlb91ys800n5npymflf80000gn/T//ccWnr5oL.s 			page 72


 2247 0018 C623     		movs	r3, #198
 2248 001a 8DF80730 		strb	r3, [sp, #7]
 2249              	.L144:
1162:DMP/driver/eMPL/inv_mpu_dmp_motion_driver.c **** 
 2250              		.loc 1 1162 5 is_stmt 1 view .LVU653
 2251 001e 01AA     		add	r2, sp, #4
 2252 0020 0421     		movs	r1, #4
 2253 0022 40F69820 		movw	r0, #2712
 2254              	.LVL125:
1162:DMP/driver/eMPL/inv_mpu_dmp_motion_driver.c **** 
 2255              		.loc 1 1162 5 is_stmt 0 view .LVU654
 2256 0026 FFF7FEFF 		bl	mpu_write_mem
 2257              	.LVL126:
1164:DMP/driver/eMPL/inv_mpu_dmp_motion_driver.c **** }
 2258              		.loc 1 1164 5 is_stmt 1 view .LVU655
1164:DMP/driver/eMPL/inv_mpu_dmp_motion_driver.c **** }
 2259              		.loc 1 1164 12 is_stmt 0 view .LVU656
 2260 002a FFF7FEFF 		bl	mpu_reset_fifo
 2261              	.LVL127:
1165:DMP/driver/eMPL/inv_mpu_dmp_motion_driver.c **** 
 2262              		.loc 1 1165 1 view .LVU657
 2263 002e 03B0     		add	sp, sp, #12
 2264              	.LCFI68:
 2265              		.cfi_remember_state
 2266              		.cfi_def_cfa_offset 4
 2267              		@ sp needed
 2268 0030 5DF804FB 		ldr	pc, [sp], #4
 2269              	.LVL128:
 2270              	.L143:
 2271              	.LCFI69:
 2272              		.cfi_restore_state
1160:DMP/driver/eMPL/inv_mpu_dmp_motion_driver.c **** 
 2273              		.loc 1 1160 9 is_stmt 1 view .LVU658
 2274 0034 4FF08B33 		mov	r3, #-1953789045
 2275 0038 0193     		str	r3, [sp, #4]
 2276 003a F0E7     		b	.L144
 2277              		.cfi_endproc
 2278              	.LFE183:
 2280              		.section	.text.dmp_enable_6x_lp_quat,"ax",%progbits
 2281              		.align	1
 2282              		.global	dmp_enable_6x_lp_quat
 2283              		.syntax unified
 2284              		.thumb
 2285              		.thumb_func
 2287              	dmp_enable_6x_lp_quat:
 2288              	.LVL129:
 2289              	.LFB184:
1175:DMP/driver/eMPL/inv_mpu_dmp_motion_driver.c ****     unsigned char regs[4];
 2290              		.loc 1 1175 1 view -0
 2291              		.cfi_startproc
 2292              		@ args = 0, pretend = 0, frame = 8
 2293              		@ frame_needed = 0, uses_anonymous_args = 0
1175:DMP/driver/eMPL/inv_mpu_dmp_motion_driver.c ****     unsigned char regs[4];
 2294              		.loc 1 1175 1 is_stmt 0 view .LVU660
 2295 0000 00B5     		push	{lr}
 2296              	.LCFI70:
 2297              		.cfi_def_cfa_offset 4
ARM GAS  /var/folders/21/t9g5rlb91ys800n5npymflf80000gn/T//ccWnr5oL.s 			page 73


 2298              		.cfi_offset 14, -4
 2299 0002 83B0     		sub	sp, sp, #12
 2300              	.LCFI71:
 2301              		.cfi_def_cfa_offset 16
1176:DMP/driver/eMPL/inv_mpu_dmp_motion_driver.c ****     if (enable) {
 2302              		.loc 1 1176 5 is_stmt 1 view .LVU661
1177:DMP/driver/eMPL/inv_mpu_dmp_motion_driver.c ****         regs[0] = DINA20;
 2303              		.loc 1 1177 5 view .LVU662
1177:DMP/driver/eMPL/inv_mpu_dmp_motion_driver.c ****         regs[0] = DINA20;
 2304              		.loc 1 1177 8 is_stmt 0 view .LVU663
 2305 0004 B0B1     		cbz	r0, .L147
1178:DMP/driver/eMPL/inv_mpu_dmp_motion_driver.c ****         regs[1] = DINA28;
 2306              		.loc 1 1178 9 is_stmt 1 view .LVU664
1178:DMP/driver/eMPL/inv_mpu_dmp_motion_driver.c ****         regs[1] = DINA28;
 2307              		.loc 1 1178 17 is_stmt 0 view .LVU665
 2308 0006 2023     		movs	r3, #32
 2309 0008 8DF80430 		strb	r3, [sp, #4]
1179:DMP/driver/eMPL/inv_mpu_dmp_motion_driver.c ****         regs[2] = DINA30;
 2310              		.loc 1 1179 9 is_stmt 1 view .LVU666
1179:DMP/driver/eMPL/inv_mpu_dmp_motion_driver.c ****         regs[2] = DINA30;
 2311              		.loc 1 1179 17 is_stmt 0 view .LVU667
 2312 000c 2823     		movs	r3, #40
 2313 000e 8DF80530 		strb	r3, [sp, #5]
1180:DMP/driver/eMPL/inv_mpu_dmp_motion_driver.c ****         regs[3] = DINA38;
 2314              		.loc 1 1180 9 is_stmt 1 view .LVU668
1180:DMP/driver/eMPL/inv_mpu_dmp_motion_driver.c ****         regs[3] = DINA38;
 2315              		.loc 1 1180 17 is_stmt 0 view .LVU669
 2316 0012 3023     		movs	r3, #48
 2317 0014 8DF80630 		strb	r3, [sp, #6]
1181:DMP/driver/eMPL/inv_mpu_dmp_motion_driver.c ****     } else
 2318              		.loc 1 1181 9 is_stmt 1 view .LVU670
1181:DMP/driver/eMPL/inv_mpu_dmp_motion_driver.c ****     } else
 2319              		.loc 1 1181 17 is_stmt 0 view .LVU671
 2320 0018 3823     		movs	r3, #56
 2321 001a 8DF80730 		strb	r3, [sp, #7]
 2322              	.L148:
1185:DMP/driver/eMPL/inv_mpu_dmp_motion_driver.c **** 
 2323              		.loc 1 1185 5 is_stmt 1 view .LVU672
 2324 001e 01AA     		add	r2, sp, #4
 2325 0020 0421     		movs	r1, #4
 2326 0022 40F69E20 		movw	r0, #2718
 2327              	.LVL130:
1185:DMP/driver/eMPL/inv_mpu_dmp_motion_driver.c **** 
 2328              		.loc 1 1185 5 is_stmt 0 view .LVU673
 2329 0026 FFF7FEFF 		bl	mpu_write_mem
 2330              	.LVL131:
1187:DMP/driver/eMPL/inv_mpu_dmp_motion_driver.c **** }
 2331              		.loc 1 1187 5 is_stmt 1 view .LVU674
1187:DMP/driver/eMPL/inv_mpu_dmp_motion_driver.c **** }
 2332              		.loc 1 1187 12 is_stmt 0 view .LVU675
 2333 002a FFF7FEFF 		bl	mpu_reset_fifo
 2334              	.LVL132:
1188:DMP/driver/eMPL/inv_mpu_dmp_motion_driver.c **** 
 2335              		.loc 1 1188 1 view .LVU676
 2336 002e 03B0     		add	sp, sp, #12
 2337              	.LCFI72:
 2338              		.cfi_remember_state
ARM GAS  /var/folders/21/t9g5rlb91ys800n5npymflf80000gn/T//ccWnr5oL.s 			page 74


 2339              		.cfi_def_cfa_offset 4
 2340              		@ sp needed
 2341 0030 5DF804FB 		ldr	pc, [sp], #4
 2342              	.LVL133:
 2343              	.L147:
 2344              	.LCFI73:
 2345              		.cfi_restore_state
1183:DMP/driver/eMPL/inv_mpu_dmp_motion_driver.c **** 
 2346              		.loc 1 1183 9 is_stmt 1 view .LVU677
 2347 0034 4FF0A333 		mov	r3, #-1549556829
 2348 0038 0193     		str	r3, [sp, #4]
 2349 003a F0E7     		b	.L148
 2350              		.cfi_endproc
 2351              	.LFE184:
 2353              		.section	.text.dmp_enable_feature,"ax",%progbits
 2354              		.align	1
 2355              		.global	dmp_enable_feature
 2356              		.syntax unified
 2357              		.thumb
 2358              		.thumb_func
 2360              	dmp_enable_feature:
 2361              	.LVL134:
 2362              	.LFB180:
 996:DMP/driver/eMPL/inv_mpu_dmp_motion_driver.c ****     unsigned char tmp[10];
 2363              		.loc 1 996 1 view -0
 2364              		.cfi_startproc
 2365              		@ args = 0, pretend = 0, frame = 16
 2366              		@ frame_needed = 0, uses_anonymous_args = 0
 996:DMP/driver/eMPL/inv_mpu_dmp_motion_driver.c ****     unsigned char tmp[10];
 2367              		.loc 1 996 1 is_stmt 0 view .LVU679
 2368 0000 2DE9F041 		push	{r4, r5, r6, r7, r8, lr}
 2369              	.LCFI74:
 2370              		.cfi_def_cfa_offset 24
 2371              		.cfi_offset 4, -24
 2372              		.cfi_offset 5, -20
 2373              		.cfi_offset 6, -16
 2374              		.cfi_offset 7, -12
 2375              		.cfi_offset 8, -8
 2376              		.cfi_offset 14, -4
 2377 0004 84B0     		sub	sp, sp, #16
 2378              	.LCFI75:
 2379              		.cfi_def_cfa_offset 40
 2380 0006 0446     		mov	r4, r0
 997:DMP/driver/eMPL/inv_mpu_dmp_motion_driver.c **** 
 2381              		.loc 1 997 5 is_stmt 1 view .LVU680
1003:DMP/driver/eMPL/inv_mpu_dmp_motion_driver.c ****     tmp[1] = (unsigned char)((GYRO_SF >> 16) & 0xFF);
 2382              		.loc 1 1003 5 view .LVU681
1003:DMP/driver/eMPL/inv_mpu_dmp_motion_driver.c ****     tmp[1] = (unsigned char)((GYRO_SF >> 16) & 0xFF);
 2383              		.loc 1 1003 12 is_stmt 0 view .LVU682
 2384 0008 0223     		movs	r3, #2
 2385 000a 8DF80430 		strb	r3, [sp, #4]
1004:DMP/driver/eMPL/inv_mpu_dmp_motion_driver.c ****     tmp[2] = (unsigned char)((GYRO_SF >> 8) & 0xFF);
 2386              		.loc 1 1004 5 is_stmt 1 view .LVU683
1004:DMP/driver/eMPL/inv_mpu_dmp_motion_driver.c ****     tmp[2] = (unsigned char)((GYRO_SF >> 8) & 0xFF);
 2387              		.loc 1 1004 12 is_stmt 0 view .LVU684
 2388 000e CA23     		movs	r3, #202
 2389 0010 8DF80530 		strb	r3, [sp, #5]
ARM GAS  /var/folders/21/t9g5rlb91ys800n5npymflf80000gn/T//ccWnr5oL.s 			page 75


1005:DMP/driver/eMPL/inv_mpu_dmp_motion_driver.c ****     tmp[3] = (unsigned char)(GYRO_SF & 0xFF);
 2390              		.loc 1 1005 5 is_stmt 1 view .LVU685
1005:DMP/driver/eMPL/inv_mpu_dmp_motion_driver.c ****     tmp[3] = (unsigned char)(GYRO_SF & 0xFF);
 2391              		.loc 1 1005 12 is_stmt 0 view .LVU686
 2392 0014 E323     		movs	r3, #227
 2393 0016 8DF80630 		strb	r3, [sp, #6]
1006:DMP/driver/eMPL/inv_mpu_dmp_motion_driver.c ****     mpu_write_mem(D_0_104, 4, tmp);
 2394              		.loc 1 1006 5 is_stmt 1 view .LVU687
1006:DMP/driver/eMPL/inv_mpu_dmp_motion_driver.c ****     mpu_write_mem(D_0_104, 4, tmp);
 2395              		.loc 1 1006 12 is_stmt 0 view .LVU688
 2396 001a 0923     		movs	r3, #9
 2397 001c 8DF80730 		strb	r3, [sp, #7]
1007:DMP/driver/eMPL/inv_mpu_dmp_motion_driver.c **** 
 2398              		.loc 1 1007 5 is_stmt 1 view .LVU689
 2399 0020 01AA     		add	r2, sp, #4
 2400 0022 0421     		movs	r1, #4
 2401 0024 6820     		movs	r0, #104
 2402              	.LVL135:
1007:DMP/driver/eMPL/inv_mpu_dmp_motion_driver.c **** 
 2403              		.loc 1 1007 5 is_stmt 0 view .LVU690
 2404 0026 FFF7FEFF 		bl	mpu_write_mem
 2405              	.LVL136:
1010:DMP/driver/eMPL/inv_mpu_dmp_motion_driver.c ****     if (mask & DMP_FEATURE_SEND_RAW_ACCEL) {
 2406              		.loc 1 1010 5 is_stmt 1 view .LVU691
1010:DMP/driver/eMPL/inv_mpu_dmp_motion_driver.c ****     if (mask & DMP_FEATURE_SEND_RAW_ACCEL) {
 2407              		.loc 1 1010 12 is_stmt 0 view .LVU692
 2408 002a A323     		movs	r3, #163
 2409 002c 8DF80430 		strb	r3, [sp, #4]
1011:DMP/driver/eMPL/inv_mpu_dmp_motion_driver.c ****         tmp[1] = 0xC0;
 2410              		.loc 1 1011 5 is_stmt 1 view .LVU693
1011:DMP/driver/eMPL/inv_mpu_dmp_motion_driver.c ****         tmp[1] = 0xC0;
 2411              		.loc 1 1011 8 is_stmt 0 view .LVU694
 2412 0030 14F04008 		ands	r8, r4, #64
 2413 0034 00F0B080 		beq	.L151
1012:DMP/driver/eMPL/inv_mpu_dmp_motion_driver.c ****         tmp[2] = 0xC8;
 2414              		.loc 1 1012 9 is_stmt 1 view .LVU695
1012:DMP/driver/eMPL/inv_mpu_dmp_motion_driver.c ****         tmp[2] = 0xC8;
 2415              		.loc 1 1012 16 is_stmt 0 view .LVU696
 2416 0038 C023     		movs	r3, #192
 2417 003a 8DF80530 		strb	r3, [sp, #5]
1013:DMP/driver/eMPL/inv_mpu_dmp_motion_driver.c ****         tmp[3] = 0xC2;
 2418              		.loc 1 1013 9 is_stmt 1 view .LVU697
1013:DMP/driver/eMPL/inv_mpu_dmp_motion_driver.c ****         tmp[3] = 0xC2;
 2419              		.loc 1 1013 16 is_stmt 0 view .LVU698
 2420 003e C823     		movs	r3, #200
 2421 0040 8DF80630 		strb	r3, [sp, #6]
1014:DMP/driver/eMPL/inv_mpu_dmp_motion_driver.c ****     } else {
 2422              		.loc 1 1014 9 is_stmt 1 view .LVU699
1014:DMP/driver/eMPL/inv_mpu_dmp_motion_driver.c ****     } else {
 2423              		.loc 1 1014 16 is_stmt 0 view .LVU700
 2424 0044 C223     		movs	r3, #194
 2425 0046 8DF80730 		strb	r3, [sp, #7]
 2426              	.L152:
1020:DMP/driver/eMPL/inv_mpu_dmp_motion_driver.c ****         tmp[4] = 0xC4;
 2427              		.loc 1 1020 5 is_stmt 1 view .LVU701
1020:DMP/driver/eMPL/inv_mpu_dmp_motion_driver.c ****         tmp[4] = 0xC4;
 2428              		.loc 1 1020 8 is_stmt 0 view .LVU702
ARM GAS  /var/folders/21/t9g5rlb91ys800n5npymflf80000gn/T//ccWnr5oL.s 			page 76


 2429 004a 14F4C075 		ands	r5, r4, #384
 2430 004e 00F0AB80 		beq	.L153
1021:DMP/driver/eMPL/inv_mpu_dmp_motion_driver.c ****         tmp[5] = 0xCC;
 2431              		.loc 1 1021 9 is_stmt 1 view .LVU703
1021:DMP/driver/eMPL/inv_mpu_dmp_motion_driver.c ****         tmp[5] = 0xCC;
 2432              		.loc 1 1021 16 is_stmt 0 view .LVU704
 2433 0052 C423     		movs	r3, #196
 2434 0054 8DF80830 		strb	r3, [sp, #8]
1022:DMP/driver/eMPL/inv_mpu_dmp_motion_driver.c ****         tmp[6] = 0xC6;
 2435              		.loc 1 1022 9 is_stmt 1 view .LVU705
1022:DMP/driver/eMPL/inv_mpu_dmp_motion_driver.c ****         tmp[6] = 0xC6;
 2436              		.loc 1 1022 16 is_stmt 0 view .LVU706
 2437 0058 CC23     		movs	r3, #204
 2438 005a 8DF80930 		strb	r3, [sp, #9]
1023:DMP/driver/eMPL/inv_mpu_dmp_motion_driver.c ****     } else {
 2439              		.loc 1 1023 9 is_stmt 1 view .LVU707
1023:DMP/driver/eMPL/inv_mpu_dmp_motion_driver.c ****     } else {
 2440              		.loc 1 1023 16 is_stmt 0 view .LVU708
 2441 005e C623     		movs	r3, #198
 2442 0060 8DF80A30 		strb	r3, [sp, #10]
 2443              	.L154:
1029:DMP/driver/eMPL/inv_mpu_dmp_motion_driver.c ****     tmp[8] = 0xA3;
 2444              		.loc 1 1029 5 is_stmt 1 view .LVU709
1029:DMP/driver/eMPL/inv_mpu_dmp_motion_driver.c ****     tmp[8] = 0xA3;
 2445              		.loc 1 1029 12 is_stmt 0 view .LVU710
 2446 0064 A323     		movs	r3, #163
 2447 0066 8DF80B30 		strb	r3, [sp, #11]
1030:DMP/driver/eMPL/inv_mpu_dmp_motion_driver.c ****     tmp[9] = 0xA3;
 2448              		.loc 1 1030 5 is_stmt 1 view .LVU711
1030:DMP/driver/eMPL/inv_mpu_dmp_motion_driver.c ****     tmp[9] = 0xA3;
 2449              		.loc 1 1030 12 is_stmt 0 view .LVU712
 2450 006a 8DF80C30 		strb	r3, [sp, #12]
1031:DMP/driver/eMPL/inv_mpu_dmp_motion_driver.c ****     mpu_write_mem(CFG_15,10,tmp);
 2451              		.loc 1 1031 5 is_stmt 1 view .LVU713
1031:DMP/driver/eMPL/inv_mpu_dmp_motion_driver.c ****     mpu_write_mem(CFG_15,10,tmp);
 2452              		.loc 1 1031 12 is_stmt 0 view .LVU714
 2453 006e 8DF80D30 		strb	r3, [sp, #13]
1032:DMP/driver/eMPL/inv_mpu_dmp_motion_driver.c **** 
 2454              		.loc 1 1032 5 is_stmt 1 view .LVU715
 2455 0072 01AA     		add	r2, sp, #4
 2456 0074 0A21     		movs	r1, #10
 2457 0076 40F6A720 		movw	r0, #2727
 2458 007a FFF7FEFF 		bl	mpu_write_mem
 2459              	.LVL137:
1035:DMP/driver/eMPL/inv_mpu_dmp_motion_driver.c ****         tmp[0] = DINA20;
 2460              		.loc 1 1035 5 view .LVU716
1035:DMP/driver/eMPL/inv_mpu_dmp_motion_driver.c ****         tmp[0] = DINA20;
 2461              		.loc 1 1035 8 is_stmt 0 view .LVU717
 2462 007e 14F00307 		ands	r7, r4, #3
 2463 0082 00F09980 		beq	.L155
1036:DMP/driver/eMPL/inv_mpu_dmp_motion_driver.c ****     else
 2464              		.loc 1 1036 9 is_stmt 1 view .LVU718
1036:DMP/driver/eMPL/inv_mpu_dmp_motion_driver.c ****     else
 2465              		.loc 1 1036 16 is_stmt 0 view .LVU719
 2466 0086 2023     		movs	r3, #32
 2467 0088 8DF80430 		strb	r3, [sp, #4]
 2468              	.L156:
ARM GAS  /var/folders/21/t9g5rlb91ys800n5npymflf80000gn/T//ccWnr5oL.s 			page 77


1039:DMP/driver/eMPL/inv_mpu_dmp_motion_driver.c **** 
 2469              		.loc 1 1039 5 is_stmt 1 view .LVU720
 2470 008c 01AA     		add	r2, sp, #4
 2471 008e 0121     		movs	r1, #1
 2472 0090 40F6B620 		movw	r0, #2742
 2473 0094 FFF7FEFF 		bl	mpu_write_mem
 2474              	.LVL138:
1041:DMP/driver/eMPL/inv_mpu_dmp_motion_driver.c ****         dmp_enable_gyro_cal(1);
 2475              		.loc 1 1041 5 view .LVU721
1041:DMP/driver/eMPL/inv_mpu_dmp_motion_driver.c ****         dmp_enable_gyro_cal(1);
 2476              		.loc 1 1041 8 is_stmt 0 view .LVU722
 2477 0098 14F0200F 		tst	r4, #32
 2478 009c 00F09080 		beq	.L157
1042:DMP/driver/eMPL/inv_mpu_dmp_motion_driver.c ****     else
 2479              		.loc 1 1042 9 is_stmt 1 view .LVU723
 2480 00a0 0120     		movs	r0, #1
 2481 00a2 FFF7FEFF 		bl	dmp_enable_gyro_cal
 2482              	.LVL139:
 2483              	.L158:
1046:DMP/driver/eMPL/inv_mpu_dmp_motion_driver.c ****         if (mask & DMP_FEATURE_SEND_CAL_GYRO) {
 2484              		.loc 1 1046 5 view .LVU724
1046:DMP/driver/eMPL/inv_mpu_dmp_motion_driver.c ****         if (mask & DMP_FEATURE_SEND_CAL_GYRO) {
 2485              		.loc 1 1046 8 is_stmt 0 view .LVU725
 2486 00a6 ADB1     		cbz	r5, .L159
1047:DMP/driver/eMPL/inv_mpu_dmp_motion_driver.c ****             tmp[0] = 0xB2;
 2487              		.loc 1 1047 9 is_stmt 1 view .LVU726
1047:DMP/driver/eMPL/inv_mpu_dmp_motion_driver.c ****             tmp[0] = 0xB2;
 2488              		.loc 1 1047 12 is_stmt 0 view .LVU727
 2489 00a8 14F4807F 		tst	r4, #256
 2490 00ac 00F08C80 		beq	.L160
1048:DMP/driver/eMPL/inv_mpu_dmp_motion_driver.c ****             tmp[1] = 0x8B;
 2491              		.loc 1 1048 13 is_stmt 1 view .LVU728
1048:DMP/driver/eMPL/inv_mpu_dmp_motion_driver.c ****             tmp[1] = 0x8B;
 2492              		.loc 1 1048 20 is_stmt 0 view .LVU729
 2493 00b0 B223     		movs	r3, #178
 2494 00b2 8DF80430 		strb	r3, [sp, #4]
1049:DMP/driver/eMPL/inv_mpu_dmp_motion_driver.c ****             tmp[2] = 0xB6;
 2495              		.loc 1 1049 13 is_stmt 1 view .LVU730
1049:DMP/driver/eMPL/inv_mpu_dmp_motion_driver.c ****             tmp[2] = 0xB6;
 2496              		.loc 1 1049 20 is_stmt 0 view .LVU731
 2497 00b6 8B23     		movs	r3, #139
 2498 00b8 8DF80530 		strb	r3, [sp, #5]
1050:DMP/driver/eMPL/inv_mpu_dmp_motion_driver.c ****             tmp[3] = 0x9B;
 2499              		.loc 1 1050 13 is_stmt 1 view .LVU732
1050:DMP/driver/eMPL/inv_mpu_dmp_motion_driver.c ****             tmp[3] = 0x9B;
 2500              		.loc 1 1050 20 is_stmt 0 view .LVU733
 2501 00bc B623     		movs	r3, #182
 2502 00be 8DF80630 		strb	r3, [sp, #6]
1051:DMP/driver/eMPL/inv_mpu_dmp_motion_driver.c ****         } else {
 2503              		.loc 1 1051 13 is_stmt 1 view .LVU734
1051:DMP/driver/eMPL/inv_mpu_dmp_motion_driver.c ****         } else {
 2504              		.loc 1 1051 20 is_stmt 0 view .LVU735
 2505 00c2 9B23     		movs	r3, #155
 2506 00c4 8DF80730 		strb	r3, [sp, #7]
 2507              	.L161:
1058:DMP/driver/eMPL/inv_mpu_dmp_motion_driver.c ****     }
 2508              		.loc 1 1058 9 is_stmt 1 view .LVU736
ARM GAS  /var/folders/21/t9g5rlb91ys800n5npymflf80000gn/T//ccWnr5oL.s 			page 78


 2509 00c8 01AA     		add	r2, sp, #4
 2510 00ca 0421     		movs	r1, #4
 2511 00cc 40F6A220 		movw	r0, #2722
 2512 00d0 FFF7FEFF 		bl	mpu_write_mem
 2513              	.LVL140:
 2514              	.L159:
1061:DMP/driver/eMPL/inv_mpu_dmp_motion_driver.c ****         /* Enable tap. */
 2515              		.loc 1 1061 5 view .LVU737
1061:DMP/driver/eMPL/inv_mpu_dmp_motion_driver.c ****         /* Enable tap. */
 2516              		.loc 1 1061 8 is_stmt 0 view .LVU738
 2517 00d4 14F0010F 		tst	r4, #1
 2518 00d8 00F08380 		beq	.L162
1063:DMP/driver/eMPL/inv_mpu_dmp_motion_driver.c ****         mpu_write_mem(CFG_20, 1, tmp);
 2519              		.loc 1 1063 9 is_stmt 1 view .LVU739
1063:DMP/driver/eMPL/inv_mpu_dmp_motion_driver.c ****         mpu_write_mem(CFG_20, 1, tmp);
 2520              		.loc 1 1063 16 is_stmt 0 view .LVU740
 2521 00dc F823     		movs	r3, #248
 2522 00de 8DF80430 		strb	r3, [sp, #4]
1064:DMP/driver/eMPL/inv_mpu_dmp_motion_driver.c ****         dmp_set_tap_thresh(TAP_XYZ, 250);
 2523              		.loc 1 1064 9 is_stmt 1 view .LVU741
 2524 00e2 01AA     		add	r2, sp, #4
 2525 00e4 0121     		movs	r1, #1
 2526 00e6 4FF40B60 		mov	r0, #2224
 2527 00ea FFF7FEFF 		bl	mpu_write_mem
 2528              	.LVL141:
1065:DMP/driver/eMPL/inv_mpu_dmp_motion_driver.c ****         dmp_set_tap_axes(TAP_XYZ);
 2529              		.loc 1 1065 9 view .LVU742
 2530 00ee FA21     		movs	r1, #250
 2531 00f0 0720     		movs	r0, #7
 2532 00f2 FFF7FEFF 		bl	dmp_set_tap_thresh
 2533              	.LVL142:
1066:DMP/driver/eMPL/inv_mpu_dmp_motion_driver.c ****         dmp_set_tap_count(1);
 2534              		.loc 1 1066 9 view .LVU743
 2535 00f6 0720     		movs	r0, #7
 2536 00f8 FFF7FEFF 		bl	dmp_set_tap_axes
 2537              	.LVL143:
1067:DMP/driver/eMPL/inv_mpu_dmp_motion_driver.c ****         dmp_set_tap_time(100);
 2538              		.loc 1 1067 9 view .LVU744
 2539 00fc 0120     		movs	r0, #1
 2540 00fe FFF7FEFF 		bl	dmp_set_tap_count
 2541              	.LVL144:
1068:DMP/driver/eMPL/inv_mpu_dmp_motion_driver.c ****         dmp_set_tap_time_multi(500);
 2542              		.loc 1 1068 9 view .LVU745
 2543 0102 6420     		movs	r0, #100
 2544 0104 FFF7FEFF 		bl	dmp_set_tap_time
 2545              	.LVL145:
1069:DMP/driver/eMPL/inv_mpu_dmp_motion_driver.c **** 
 2546              		.loc 1 1069 9 view .LVU746
 2547 0108 4FF4FA70 		mov	r0, #500
 2548 010c FFF7FEFF 		bl	dmp_set_tap_time_multi
 2549              	.LVL146:
1071:DMP/driver/eMPL/inv_mpu_dmp_motion_driver.c ****         dmp_set_shake_reject_time(40);
 2550              		.loc 1 1071 9 view .LVU747
 2551 0110 C821     		movs	r1, #200
 2552 0112 3F48     		ldr	r0, .L175
 2553 0114 FFF7FEFF 		bl	dmp_set_shake_reject_thresh
 2554              	.LVL147:
ARM GAS  /var/folders/21/t9g5rlb91ys800n5npymflf80000gn/T//ccWnr5oL.s 			page 79


1072:DMP/driver/eMPL/inv_mpu_dmp_motion_driver.c ****         dmp_set_shake_reject_timeout(10);
 2555              		.loc 1 1072 9 view .LVU748
 2556 0118 2820     		movs	r0, #40
 2557 011a FFF7FEFF 		bl	dmp_set_shake_reject_time
 2558              	.LVL148:
1073:DMP/driver/eMPL/inv_mpu_dmp_motion_driver.c ****     } else {
 2559              		.loc 1 1073 9 view .LVU749
 2560 011e 0A20     		movs	r0, #10
 2561 0120 FFF7FEFF 		bl	dmp_set_shake_reject_timeout
 2562              	.LVL149:
 2563              	.L163:
1079:DMP/driver/eMPL/inv_mpu_dmp_motion_driver.c ****         tmp[0] = 0xD9;
 2564              		.loc 1 1079 5 view .LVU750
1079:DMP/driver/eMPL/inv_mpu_dmp_motion_driver.c ****         tmp[0] = 0xD9;
 2565              		.loc 1 1079 8 is_stmt 0 view .LVU751
 2566 0124 14F0020F 		tst	r4, #2
 2567 0128 65D0     		beq	.L164
1080:DMP/driver/eMPL/inv_mpu_dmp_motion_driver.c ****     } else
 2568              		.loc 1 1080 9 is_stmt 1 view .LVU752
1080:DMP/driver/eMPL/inv_mpu_dmp_motion_driver.c ****     } else
 2569              		.loc 1 1080 16 is_stmt 0 view .LVU753
 2570 012a D923     		movs	r3, #217
 2571 012c 8DF80430 		strb	r3, [sp, #4]
 2572              	.L165:
1083:DMP/driver/eMPL/inv_mpu_dmp_motion_driver.c **** 
 2573              		.loc 1 1083 5 is_stmt 1 view .LVU754
 2574 0130 01AA     		add	r2, sp, #4
 2575 0132 0121     		movs	r1, #1
 2576 0134 40F23D70 		movw	r0, #1853
 2577 0138 FFF7FEFF 		bl	mpu_write_mem
 2578              	.LVL150:
1085:DMP/driver/eMPL/inv_mpu_dmp_motion_driver.c ****         dmp_enable_lp_quat(1);
 2579              		.loc 1 1085 5 view .LVU755
1085:DMP/driver/eMPL/inv_mpu_dmp_motion_driver.c ****         dmp_enable_lp_quat(1);
 2580              		.loc 1 1085 8 is_stmt 0 view .LVU756
 2581 013c 14F0040F 		tst	r4, #4
 2582 0140 5DD0     		beq	.L166
1086:DMP/driver/eMPL/inv_mpu_dmp_motion_driver.c ****     else
 2583              		.loc 1 1086 9 is_stmt 1 view .LVU757
 2584 0142 0120     		movs	r0, #1
 2585 0144 FFF7FEFF 		bl	dmp_enable_lp_quat
 2586              	.LVL151:
 2587              	.L167:
1090:DMP/driver/eMPL/inv_mpu_dmp_motion_driver.c ****         dmp_enable_6x_lp_quat(1);
 2588              		.loc 1 1090 5 view .LVU758
1090:DMP/driver/eMPL/inv_mpu_dmp_motion_driver.c ****         dmp_enable_6x_lp_quat(1);
 2589              		.loc 1 1090 8 is_stmt 0 view .LVU759
 2590 0148 14F0100F 		tst	r4, #16
 2591 014c 5BD0     		beq	.L168
1091:DMP/driver/eMPL/inv_mpu_dmp_motion_driver.c ****     else
 2592              		.loc 1 1091 9 is_stmt 1 view .LVU760
 2593 014e 0120     		movs	r0, #1
 2594 0150 FFF7FEFF 		bl	dmp_enable_6x_lp_quat
 2595              	.LVL152:
 2596              	.L169:
1096:DMP/driver/eMPL/inv_mpu_dmp_motion_driver.c ****     mpu_reset_fifo();
 2597              		.loc 1 1096 5 view .LVU761
ARM GAS  /var/folders/21/t9g5rlb91ys800n5npymflf80000gn/T//ccWnr5oL.s 			page 80


1096:DMP/driver/eMPL/inv_mpu_dmp_motion_driver.c ****     mpu_reset_fifo();
 2598              		.loc 1 1096 22 is_stmt 0 view .LVU762
 2599 0154 2F4E     		ldr	r6, .L175+4
 2600 0156 44F00803 		orr	r3, r4, #8
 2601 015a 7381     		strh	r3, [r6, #10]	@ movhi
1097:DMP/driver/eMPL/inv_mpu_dmp_motion_driver.c **** 
 2602              		.loc 1 1097 5 is_stmt 1 view .LVU763
 2603 015c FFF7FEFF 		bl	mpu_reset_fifo
 2604              	.LVL153:
1099:DMP/driver/eMPL/inv_mpu_dmp_motion_driver.c ****     if (mask & DMP_FEATURE_SEND_RAW_ACCEL)
 2605              		.loc 1 1099 5 view .LVU764
1099:DMP/driver/eMPL/inv_mpu_dmp_motion_driver.c ****     if (mask & DMP_FEATURE_SEND_RAW_ACCEL)
 2606              		.loc 1 1099 23 is_stmt 0 view .LVU765
 2607 0160 0023     		movs	r3, #0
 2608 0162 B373     		strb	r3, [r6, #14]
1100:DMP/driver/eMPL/inv_mpu_dmp_motion_driver.c ****         dmp.packet_length += 6;
 2609              		.loc 1 1100 5 is_stmt 1 view .LVU766
1100:DMP/driver/eMPL/inv_mpu_dmp_motion_driver.c ****         dmp.packet_length += 6;
 2610              		.loc 1 1100 8 is_stmt 0 view .LVU767
 2611 0164 B8F1000F 		cmp	r8, #0
 2612 0168 01D0     		beq	.L170
1101:DMP/driver/eMPL/inv_mpu_dmp_motion_driver.c ****     if (mask & DMP_FEATURE_SEND_ANY_GYRO)
 2613              		.loc 1 1101 9 is_stmt 1 view .LVU768
1101:DMP/driver/eMPL/inv_mpu_dmp_motion_driver.c ****     if (mask & DMP_FEATURE_SEND_ANY_GYRO)
 2614              		.loc 1 1101 27 is_stmt 0 view .LVU769
 2615 016a 0622     		movs	r2, #6
 2616 016c B273     		strb	r2, [r6, #14]
 2617              	.L170:
1102:DMP/driver/eMPL/inv_mpu_dmp_motion_driver.c ****         dmp.packet_length += 6;
 2618              		.loc 1 1102 5 is_stmt 1 view .LVU770
1102:DMP/driver/eMPL/inv_mpu_dmp_motion_driver.c ****         dmp.packet_length += 6;
 2619              		.loc 1 1102 8 is_stmt 0 view .LVU771
 2620 016e 1DB1     		cbz	r5, .L171
1103:DMP/driver/eMPL/inv_mpu_dmp_motion_driver.c ****     if (mask & (DMP_FEATURE_LP_QUAT | DMP_FEATURE_6X_LP_QUAT))
 2621              		.loc 1 1103 9 is_stmt 1 view .LVU772
1103:DMP/driver/eMPL/inv_mpu_dmp_motion_driver.c ****     if (mask & (DMP_FEATURE_LP_QUAT | DMP_FEATURE_6X_LP_QUAT))
 2622              		.loc 1 1103 12 is_stmt 0 view .LVU773
 2623 0170 284A     		ldr	r2, .L175+4
 2624 0172 937B     		ldrb	r3, [r2, #14]	@ zero_extendqisi2
1103:DMP/driver/eMPL/inv_mpu_dmp_motion_driver.c ****     if (mask & (DMP_FEATURE_LP_QUAT | DMP_FEATURE_6X_LP_QUAT))
 2625              		.loc 1 1103 27 view .LVU774
 2626 0174 0633     		adds	r3, r3, #6
 2627 0176 9373     		strb	r3, [r2, #14]
 2628              	.L171:
1104:DMP/driver/eMPL/inv_mpu_dmp_motion_driver.c ****         dmp.packet_length += 16;
 2629              		.loc 1 1104 5 is_stmt 1 view .LVU775
1104:DMP/driver/eMPL/inv_mpu_dmp_motion_driver.c ****         dmp.packet_length += 16;
 2630              		.loc 1 1104 8 is_stmt 0 view .LVU776
 2631 0178 14F0140F 		tst	r4, #20
 2632 017c 03D0     		beq	.L172
1105:DMP/driver/eMPL/inv_mpu_dmp_motion_driver.c ****     if (mask & (DMP_FEATURE_TAP | DMP_FEATURE_ANDROID_ORIENT))
 2633              		.loc 1 1105 9 is_stmt 1 view .LVU777
1105:DMP/driver/eMPL/inv_mpu_dmp_motion_driver.c ****     if (mask & (DMP_FEATURE_TAP | DMP_FEATURE_ANDROID_ORIENT))
 2634              		.loc 1 1105 12 is_stmt 0 view .LVU778
 2635 017e 254A     		ldr	r2, .L175+4
 2636 0180 937B     		ldrb	r3, [r2, #14]	@ zero_extendqisi2
1105:DMP/driver/eMPL/inv_mpu_dmp_motion_driver.c ****     if (mask & (DMP_FEATURE_TAP | DMP_FEATURE_ANDROID_ORIENT))
ARM GAS  /var/folders/21/t9g5rlb91ys800n5npymflf80000gn/T//ccWnr5oL.s 			page 81


 2637              		.loc 1 1105 27 view .LVU779
 2638 0182 1033     		adds	r3, r3, #16
 2639 0184 9373     		strb	r3, [r2, #14]
 2640              	.L172:
1106:DMP/driver/eMPL/inv_mpu_dmp_motion_driver.c ****         dmp.packet_length += 4;
 2641              		.loc 1 1106 5 is_stmt 1 view .LVU780
1106:DMP/driver/eMPL/inv_mpu_dmp_motion_driver.c ****         dmp.packet_length += 4;
 2642              		.loc 1 1106 8 is_stmt 0 view .LVU781
 2643 0186 1FB1     		cbz	r7, .L173
1107:DMP/driver/eMPL/inv_mpu_dmp_motion_driver.c **** 
 2644              		.loc 1 1107 9 is_stmt 1 view .LVU782
1107:DMP/driver/eMPL/inv_mpu_dmp_motion_driver.c **** 
 2645              		.loc 1 1107 12 is_stmt 0 view .LVU783
 2646 0188 224A     		ldr	r2, .L175+4
 2647 018a 937B     		ldrb	r3, [r2, #14]	@ zero_extendqisi2
1107:DMP/driver/eMPL/inv_mpu_dmp_motion_driver.c **** 
 2648              		.loc 1 1107 27 view .LVU784
 2649 018c 0433     		adds	r3, r3, #4
 2650 018e 9373     		strb	r3, [r2, #14]
 2651              	.L173:
1109:DMP/driver/eMPL/inv_mpu_dmp_motion_driver.c **** }
 2652              		.loc 1 1109 5 is_stmt 1 view .LVU785
1110:DMP/driver/eMPL/inv_mpu_dmp_motion_driver.c **** 
 2653              		.loc 1 1110 1 is_stmt 0 view .LVU786
 2654 0190 0020     		movs	r0, #0
 2655 0192 04B0     		add	sp, sp, #16
 2656              	.LCFI76:
 2657              		.cfi_remember_state
 2658              		.cfi_def_cfa_offset 24
 2659              		@ sp needed
 2660 0194 BDE8F081 		pop	{r4, r5, r6, r7, r8, pc}
 2661              	.L151:
 2662              	.LCFI77:
 2663              		.cfi_restore_state
1016:DMP/driver/eMPL/inv_mpu_dmp_motion_driver.c ****         tmp[2] = 0xA3;
 2664              		.loc 1 1016 9 is_stmt 1 view .LVU787
1016:DMP/driver/eMPL/inv_mpu_dmp_motion_driver.c ****         tmp[2] = 0xA3;
 2665              		.loc 1 1016 16 is_stmt 0 view .LVU788
 2666 0198 A323     		movs	r3, #163
 2667 019a 8DF80530 		strb	r3, [sp, #5]
1017:DMP/driver/eMPL/inv_mpu_dmp_motion_driver.c ****         tmp[3] = 0xA3;
 2668              		.loc 1 1017 9 is_stmt 1 view .LVU789
1017:DMP/driver/eMPL/inv_mpu_dmp_motion_driver.c ****         tmp[3] = 0xA3;
 2669              		.loc 1 1017 16 is_stmt 0 view .LVU790
 2670 019e 8DF80630 		strb	r3, [sp, #6]
1018:DMP/driver/eMPL/inv_mpu_dmp_motion_driver.c ****     }
 2671              		.loc 1 1018 9 is_stmt 1 view .LVU791
1018:DMP/driver/eMPL/inv_mpu_dmp_motion_driver.c ****     }
 2672              		.loc 1 1018 16 is_stmt 0 view .LVU792
 2673 01a2 8DF80730 		strb	r3, [sp, #7]
 2674 01a6 50E7     		b	.L152
 2675              	.L153:
1025:DMP/driver/eMPL/inv_mpu_dmp_motion_driver.c ****         tmp[5] = 0xA3;
 2676              		.loc 1 1025 9 is_stmt 1 view .LVU793
1025:DMP/driver/eMPL/inv_mpu_dmp_motion_driver.c ****         tmp[5] = 0xA3;
 2677              		.loc 1 1025 16 is_stmt 0 view .LVU794
 2678 01a8 A323     		movs	r3, #163
ARM GAS  /var/folders/21/t9g5rlb91ys800n5npymflf80000gn/T//ccWnr5oL.s 			page 82


 2679 01aa 8DF80830 		strb	r3, [sp, #8]
1026:DMP/driver/eMPL/inv_mpu_dmp_motion_driver.c ****         tmp[6] = 0xA3;
 2680              		.loc 1 1026 9 is_stmt 1 view .LVU795
1026:DMP/driver/eMPL/inv_mpu_dmp_motion_driver.c ****         tmp[6] = 0xA3;
 2681              		.loc 1 1026 16 is_stmt 0 view .LVU796
 2682 01ae 8DF80930 		strb	r3, [sp, #9]
1027:DMP/driver/eMPL/inv_mpu_dmp_motion_driver.c ****     }
 2683              		.loc 1 1027 9 is_stmt 1 view .LVU797
1027:DMP/driver/eMPL/inv_mpu_dmp_motion_driver.c ****     }
 2684              		.loc 1 1027 16 is_stmt 0 view .LVU798
 2685 01b2 8DF80A30 		strb	r3, [sp, #10]
 2686 01b6 55E7     		b	.L154
 2687              	.L155:
1038:DMP/driver/eMPL/inv_mpu_dmp_motion_driver.c ****     mpu_write_mem(CFG_27,1,tmp);
 2688              		.loc 1 1038 9 is_stmt 1 view .LVU799
1038:DMP/driver/eMPL/inv_mpu_dmp_motion_driver.c ****     mpu_write_mem(CFG_27,1,tmp);
 2689              		.loc 1 1038 16 is_stmt 0 view .LVU800
 2690 01b8 D823     		movs	r3, #216
 2691 01ba 8DF80430 		strb	r3, [sp, #4]
 2692 01be 65E7     		b	.L156
 2693              	.L157:
1044:DMP/driver/eMPL/inv_mpu_dmp_motion_driver.c **** 
 2694              		.loc 1 1044 9 is_stmt 1 view .LVU801
 2695 01c0 0020     		movs	r0, #0
 2696 01c2 FFF7FEFF 		bl	dmp_enable_gyro_cal
 2697              	.LVL154:
 2698 01c6 6EE7     		b	.L158
 2699              	.L160:
1053:DMP/driver/eMPL/inv_mpu_dmp_motion_driver.c ****             tmp[1] = DINA80;
 2700              		.loc 1 1053 13 view .LVU802
1053:DMP/driver/eMPL/inv_mpu_dmp_motion_driver.c ****             tmp[1] = DINA80;
 2701              		.loc 1 1053 20 is_stmt 0 view .LVU803
 2702 01c8 B023     		movs	r3, #176
 2703 01ca 8DF80430 		strb	r3, [sp, #4]
1054:DMP/driver/eMPL/inv_mpu_dmp_motion_driver.c ****             tmp[2] = DINAC2;
 2704              		.loc 1 1054 13 is_stmt 1 view .LVU804
1054:DMP/driver/eMPL/inv_mpu_dmp_motion_driver.c ****             tmp[2] = DINAC2;
 2705              		.loc 1 1054 20 is_stmt 0 view .LVU805
 2706 01ce 8023     		movs	r3, #128
 2707 01d0 8DF80530 		strb	r3, [sp, #5]
1055:DMP/driver/eMPL/inv_mpu_dmp_motion_driver.c ****             tmp[3] = DINA90;
 2708              		.loc 1 1055 13 is_stmt 1 view .LVU806
1055:DMP/driver/eMPL/inv_mpu_dmp_motion_driver.c ****             tmp[3] = DINA90;
 2709              		.loc 1 1055 20 is_stmt 0 view .LVU807
 2710 01d4 B423     		movs	r3, #180
 2711 01d6 8DF80630 		strb	r3, [sp, #6]
1056:DMP/driver/eMPL/inv_mpu_dmp_motion_driver.c ****         }
 2712              		.loc 1 1056 13 is_stmt 1 view .LVU808
1056:DMP/driver/eMPL/inv_mpu_dmp_motion_driver.c ****         }
 2713              		.loc 1 1056 20 is_stmt 0 view .LVU809
 2714 01da 9023     		movs	r3, #144
 2715 01dc 8DF80730 		strb	r3, [sp, #7]
 2716 01e0 72E7     		b	.L161
 2717              	.L162:
1075:DMP/driver/eMPL/inv_mpu_dmp_motion_driver.c ****         mpu_write_mem(CFG_20, 1, tmp);
 2718              		.loc 1 1075 9 is_stmt 1 view .LVU810
1075:DMP/driver/eMPL/inv_mpu_dmp_motion_driver.c ****         mpu_write_mem(CFG_20, 1, tmp);
ARM GAS  /var/folders/21/t9g5rlb91ys800n5npymflf80000gn/T//ccWnr5oL.s 			page 83


 2719              		.loc 1 1075 16 is_stmt 0 view .LVU811
 2720 01e2 D823     		movs	r3, #216
 2721 01e4 8DF80430 		strb	r3, [sp, #4]
1076:DMP/driver/eMPL/inv_mpu_dmp_motion_driver.c ****     }
 2722              		.loc 1 1076 9 is_stmt 1 view .LVU812
 2723 01e8 01AA     		add	r2, sp, #4
 2724 01ea 0121     		movs	r1, #1
 2725 01ec 4FF40B60 		mov	r0, #2224
 2726 01f0 FFF7FEFF 		bl	mpu_write_mem
 2727              	.LVL155:
 2728 01f4 96E7     		b	.L163
 2729              	.L164:
1082:DMP/driver/eMPL/inv_mpu_dmp_motion_driver.c ****     mpu_write_mem(CFG_ANDROID_ORIENT_INT, 1, tmp);
 2730              		.loc 1 1082 9 view .LVU813
1082:DMP/driver/eMPL/inv_mpu_dmp_motion_driver.c ****     mpu_write_mem(CFG_ANDROID_ORIENT_INT, 1, tmp);
 2731              		.loc 1 1082 16 is_stmt 0 view .LVU814
 2732 01f6 D823     		movs	r3, #216
 2733 01f8 8DF80430 		strb	r3, [sp, #4]
 2734 01fc 98E7     		b	.L165
 2735              	.L166:
1088:DMP/driver/eMPL/inv_mpu_dmp_motion_driver.c **** 
 2736              		.loc 1 1088 9 is_stmt 1 view .LVU815
 2737 01fe 0020     		movs	r0, #0
 2738 0200 FFF7FEFF 		bl	dmp_enable_lp_quat
 2739              	.LVL156:
 2740 0204 A0E7     		b	.L167
 2741              	.L168:
1093:DMP/driver/eMPL/inv_mpu_dmp_motion_driver.c **** 
 2742              		.loc 1 1093 9 view .LVU816
 2743 0206 0020     		movs	r0, #0
 2744 0208 FFF7FEFF 		bl	dmp_enable_6x_lp_quat
 2745              	.LVL157:
 2746 020c A2E7     		b	.L169
 2747              	.L176:
 2748 020e 00BF     		.align	2
 2749              	.L175:
 2750 0210 09E3CA02 		.word	46850825
 2751 0214 00000000 		.word	dmp
 2752              		.cfi_endproc
 2753              	.LFE180:
 2755              		.section	.rodata.dmp_set_interrupt_mode.str1.4,"aMS",%progbits,1
 2756              		.align	2
 2757              	.LC7:
 2758 0000 D8B1B9F3 		.ascii	"\330\261\271\363\213\243\221\266\011\264\331\000"
 2758      8BA391B6 
 2758      09B4D900 
 2759              		.align	2
 2760              	.LC8:
 2761 000c DAB1B9F3 		.ascii	"\332\261\271\363\213\243\221\266\332\264\332\000"
 2761      8BA391B6 
 2761      DAB4DA00 
 2762              		.section	.text.dmp_set_interrupt_mode,"ax",%progbits
 2763              		.align	1
 2764              		.global	dmp_set_interrupt_mode
 2765              		.syntax unified
 2766              		.thumb
 2767              		.thumb_func
ARM GAS  /var/folders/21/t9g5rlb91ys800n5npymflf80000gn/T//ccWnr5oL.s 			page 84


 2769              	dmp_set_interrupt_mode:
 2770              	.LVL158:
 2771              	.LFB186:
1217:DMP/driver/eMPL/inv_mpu_dmp_motion_driver.c **** 
1218:DMP/driver/eMPL/inv_mpu_dmp_motion_driver.c **** /**
1219:DMP/driver/eMPL/inv_mpu_dmp_motion_driver.c ****  *  @brief      Specify when a DMP interrupt should occur.
1220:DMP/driver/eMPL/inv_mpu_dmp_motion_driver.c ****  *  A DMP interrupt can be configured to trigger on either of the two
1221:DMP/driver/eMPL/inv_mpu_dmp_motion_driver.c ****  *  conditions below:
1222:DMP/driver/eMPL/inv_mpu_dmp_motion_driver.c ****  *  \n a. One FIFO period has elapsed (set by @e mpu_set_sample_rate).
1223:DMP/driver/eMPL/inv_mpu_dmp_motion_driver.c ****  *  \n b. A tap event has been detected.
1224:DMP/driver/eMPL/inv_mpu_dmp_motion_driver.c ****  *  @param[in]  mode    DMP_INT_GESTURE or DMP_INT_CONTINUOUS.
1225:DMP/driver/eMPL/inv_mpu_dmp_motion_driver.c ****  *  @return     0 if successful.
1226:DMP/driver/eMPL/inv_mpu_dmp_motion_driver.c ****  */
1227:DMP/driver/eMPL/inv_mpu_dmp_motion_driver.c **** int dmp_set_interrupt_mode(unsigned char mode)
1228:DMP/driver/eMPL/inv_mpu_dmp_motion_driver.c **** {
 2772              		.loc 1 1228 1 view -0
 2773              		.cfi_startproc
 2774              		@ args = 0, pretend = 0, frame = 24
 2775              		@ frame_needed = 0, uses_anonymous_args = 0
 2776              		.loc 1 1228 1 is_stmt 0 view .LVU818
 2777 0000 00B5     		push	{lr}
 2778              	.LCFI78:
 2779              		.cfi_def_cfa_offset 4
 2780              		.cfi_offset 14, -4
 2781 0002 87B0     		sub	sp, sp, #28
 2782              	.LCFI79:
 2783              		.cfi_def_cfa_offset 32
 2784 0004 8446     		mov	ip, r0
1229:DMP/driver/eMPL/inv_mpu_dmp_motion_driver.c ****     const unsigned char regs_continuous[11] =
 2785              		.loc 1 1229 5 is_stmt 1 view .LVU819
 2786              		.loc 1 1229 25 is_stmt 0 view .LVU820
 2787 0006 144A     		ldr	r2, .L182
 2788 0008 03AB     		add	r3, sp, #12
 2789 000a 07CA     		ldm	r2, {r0, r1, r2}
 2790              	.LVL159:
 2791              		.loc 1 1229 25 view .LVU821
 2792 000c 03C3     		stmia	r3!, {r0, r1}
 2793 000e 23F8022B 		strh	r2, [r3], #2	@ movhi
 2794 0012 120C     		lsrs	r2, r2, #16
 2795 0014 1A70     		strb	r2, [r3]
1230:DMP/driver/eMPL/inv_mpu_dmp_motion_driver.c ****         {0xd8, 0xb1, 0xb9, 0xf3, 0x8b, 0xa3, 0x91, 0xb6, 0x09, 0xb4, 0xd9};
1231:DMP/driver/eMPL/inv_mpu_dmp_motion_driver.c ****     const unsigned char regs_gesture[11] =
 2796              		.loc 1 1231 5 is_stmt 1 view .LVU822
 2797              		.loc 1 1231 25 is_stmt 0 view .LVU823
 2798 0016 114A     		ldr	r2, .L182+4
 2799 0018 6B46     		mov	r3, sp
 2800 001a 07CA     		ldm	r2, {r0, r1, r2}
 2801 001c 03C3     		stmia	r3!, {r0, r1}
 2802 001e 23F8022B 		strh	r2, [r3], #2	@ movhi
 2803 0022 120C     		lsrs	r2, r2, #16
 2804 0024 1A70     		strb	r2, [r3]
1232:DMP/driver/eMPL/inv_mpu_dmp_motion_driver.c ****         {0xda, 0xb1, 0xb9, 0xf3, 0x8b, 0xa3, 0x91, 0xb6, 0xda, 0xb4, 0xda};
1233:DMP/driver/eMPL/inv_mpu_dmp_motion_driver.c **** 
1234:DMP/driver/eMPL/inv_mpu_dmp_motion_driver.c ****     switch (mode) {
 2805              		.loc 1 1234 5 is_stmt 1 view .LVU824
 2806 0026 BCF1010F 		cmp	ip, #1
 2807 002a 09D0     		beq	.L178
ARM GAS  /var/folders/21/t9g5rlb91ys800n5npymflf80000gn/T//ccWnr5oL.s 			page 85


 2808 002c BCF1020F 		cmp	ip, #2
 2809 0030 0DD1     		bne	.L180
1235:DMP/driver/eMPL/inv_mpu_dmp_motion_driver.c ****     case DMP_INT_CONTINUOUS:
1236:DMP/driver/eMPL/inv_mpu_dmp_motion_driver.c ****         return mpu_write_mem(CFG_FIFO_ON_EVENT, 11,
 2810              		.loc 1 1236 9 view .LVU825
 2811              		.loc 1 1236 16 is_stmt 0 view .LVU826
 2812 0032 03AA     		add	r2, sp, #12
 2813 0034 0B21     		movs	r1, #11
 2814 0036 40F68220 		movw	r0, #2690
 2815 003a FFF7FEFF 		bl	mpu_write_mem
 2816              	.LVL160:
 2817 003e 08E0     		b	.L177
 2818              	.L178:
1237:DMP/driver/eMPL/inv_mpu_dmp_motion_driver.c ****             (unsigned char*)regs_continuous);
1238:DMP/driver/eMPL/inv_mpu_dmp_motion_driver.c ****     case DMP_INT_GESTURE:
1239:DMP/driver/eMPL/inv_mpu_dmp_motion_driver.c ****         return mpu_write_mem(CFG_FIFO_ON_EVENT, 11,
 2819              		.loc 1 1239 9 is_stmt 1 view .LVU827
 2820              		.loc 1 1239 16 is_stmt 0 view .LVU828
 2821 0040 6A46     		mov	r2, sp
 2822 0042 0B21     		movs	r1, #11
 2823 0044 40F68220 		movw	r0, #2690
 2824 0048 FFF7FEFF 		bl	mpu_write_mem
 2825              	.LVL161:
 2826 004c 01E0     		b	.L177
 2827              	.L180:
1234:DMP/driver/eMPL/inv_mpu_dmp_motion_driver.c ****     case DMP_INT_CONTINUOUS:
 2828              		.loc 1 1234 5 view .LVU829
 2829 004e 4FF0FF30 		mov	r0, #-1
 2830              	.L177:
1240:DMP/driver/eMPL/inv_mpu_dmp_motion_driver.c ****             (unsigned char*)regs_gesture);
1241:DMP/driver/eMPL/inv_mpu_dmp_motion_driver.c ****     default:
1242:DMP/driver/eMPL/inv_mpu_dmp_motion_driver.c ****         return -1;
1243:DMP/driver/eMPL/inv_mpu_dmp_motion_driver.c ****     }
1244:DMP/driver/eMPL/inv_mpu_dmp_motion_driver.c **** }
 2831              		.loc 1 1244 1 view .LVU830
 2832 0052 07B0     		add	sp, sp, #28
 2833              	.LCFI80:
 2834              		.cfi_def_cfa_offset 4
 2835              		@ sp needed
 2836 0054 5DF804FB 		ldr	pc, [sp], #4
 2837              	.L183:
 2838              		.align	2
 2839              	.L182:
 2840 0058 00000000 		.word	.LC7
 2841 005c 0C000000 		.word	.LC8
 2842              		.cfi_endproc
 2843              	.LFE186:
 2845              		.section	.text.dmp_read_fifo,"ax",%progbits
 2846              		.align	1
 2847              		.global	dmp_read_fifo
 2848              		.syntax unified
 2849              		.thumb
 2850              		.thumb_func
 2852              	dmp_read_fifo:
 2853              	.LVL162:
 2854              	.LFB187:
1245:DMP/driver/eMPL/inv_mpu_dmp_motion_driver.c **** 
ARM GAS  /var/folders/21/t9g5rlb91ys800n5npymflf80000gn/T//ccWnr5oL.s 			page 86


1246:DMP/driver/eMPL/inv_mpu_dmp_motion_driver.c **** /**
1247:DMP/driver/eMPL/inv_mpu_dmp_motion_driver.c ****  *  @brief      Get one packet from the FIFO.
1248:DMP/driver/eMPL/inv_mpu_dmp_motion_driver.c ****  *  If @e sensors does not contain a particular sensor, disregard the data
1249:DMP/driver/eMPL/inv_mpu_dmp_motion_driver.c ****  *  returned to that pointer.
1250:DMP/driver/eMPL/inv_mpu_dmp_motion_driver.c ****  *  \n @e sensors can contain a combination of the following flags:
1251:DMP/driver/eMPL/inv_mpu_dmp_motion_driver.c ****  *  \n INV_X_GYRO, INV_Y_GYRO, INV_Z_GYRO
1252:DMP/driver/eMPL/inv_mpu_dmp_motion_driver.c ****  *  \n INV_XYZ_GYRO
1253:DMP/driver/eMPL/inv_mpu_dmp_motion_driver.c ****  *  \n INV_XYZ_ACCEL
1254:DMP/driver/eMPL/inv_mpu_dmp_motion_driver.c ****  *  \n INV_WXYZ_QUAT
1255:DMP/driver/eMPL/inv_mpu_dmp_motion_driver.c ****  *  \n If the FIFO has no new data, @e sensors will be zero.
1256:DMP/driver/eMPL/inv_mpu_dmp_motion_driver.c ****  *  \n If the FIFO is disabled, @e sensors will be zero and this function will
1257:DMP/driver/eMPL/inv_mpu_dmp_motion_driver.c ****  *  return a non-zero error code.
1258:DMP/driver/eMPL/inv_mpu_dmp_motion_driver.c ****  *  @param[out] gyro        Gyro data in hardware units.
1259:DMP/driver/eMPL/inv_mpu_dmp_motion_driver.c ****  *  @param[out] accel       Accel data in hardware units.
1260:DMP/driver/eMPL/inv_mpu_dmp_motion_driver.c ****  *  @param[out] quat        3-axis quaternion data in hardware units.
1261:DMP/driver/eMPL/inv_mpu_dmp_motion_driver.c ****  *  @param[out] timestamp   Timestamp in milliseconds.
1262:DMP/driver/eMPL/inv_mpu_dmp_motion_driver.c ****  *  @param[out] sensors     Mask of sensors read from FIFO.
1263:DMP/driver/eMPL/inv_mpu_dmp_motion_driver.c ****  *  @param[out] more        Number of remaining packets.
1264:DMP/driver/eMPL/inv_mpu_dmp_motion_driver.c ****  *  @return     0 if successful.
1265:DMP/driver/eMPL/inv_mpu_dmp_motion_driver.c ****  */
1266:DMP/driver/eMPL/inv_mpu_dmp_motion_driver.c **** int dmp_read_fifo(short *gyro, short *accel, long *quat,
1267:DMP/driver/eMPL/inv_mpu_dmp_motion_driver.c ****     unsigned long *timestamp, short *sensors, unsigned char *more)
1268:DMP/driver/eMPL/inv_mpu_dmp_motion_driver.c **** {
 2855              		.loc 1 1268 1 is_stmt 1 view -0
 2856              		.cfi_startproc
 2857              		@ args = 8, pretend = 0, frame = 48
 2858              		@ frame_needed = 0, uses_anonymous_args = 0
 2859              		.loc 1 1268 1 is_stmt 0 view .LVU832
 2860 0000 2DE9F041 		push	{r4, r5, r6, r7, r8, lr}
 2861              	.LCFI81:
 2862              		.cfi_def_cfa_offset 24
 2863              		.cfi_offset 4, -24
 2864              		.cfi_offset 5, -20
 2865              		.cfi_offset 6, -16
 2866              		.cfi_offset 7, -12
 2867              		.cfi_offset 8, -8
 2868              		.cfi_offset 14, -4
 2869 0004 8CB0     		sub	sp, sp, #48
 2870              	.LCFI82:
 2871              		.cfi_def_cfa_offset 72
 2872 0006 0546     		mov	r5, r0
 2873 0008 0E46     		mov	r6, r1
 2874 000a 9046     		mov	r8, r2
 2875 000c 129C     		ldr	r4, [sp, #72]
1269:DMP/driver/eMPL/inv_mpu_dmp_motion_driver.c ****     unsigned char fifo_data[MAX_PACKET_LENGTH];
 2876              		.loc 1 1269 5 is_stmt 1 view .LVU833
1270:DMP/driver/eMPL/inv_mpu_dmp_motion_driver.c ****     unsigned char ii = 0;
 2877              		.loc 1 1270 5 view .LVU834
 2878              	.LVL163:
1271:DMP/driver/eMPL/inv_mpu_dmp_motion_driver.c **** 
1272:DMP/driver/eMPL/inv_mpu_dmp_motion_driver.c ****     /* TODO: sensors[0] only changes when dmp_enable_feature is called. We can
1273:DMP/driver/eMPL/inv_mpu_dmp_motion_driver.c ****      * cache this value and save some cycles.
1274:DMP/driver/eMPL/inv_mpu_dmp_motion_driver.c ****      */
1275:DMP/driver/eMPL/inv_mpu_dmp_motion_driver.c ****     sensors[0] = 0;
 2879              		.loc 1 1275 5 view .LVU835
 2880              		.loc 1 1275 16 is_stmt 0 view .LVU836
 2881 000e 0023     		movs	r3, #0
ARM GAS  /var/folders/21/t9g5rlb91ys800n5npymflf80000gn/T//ccWnr5oL.s 			page 87


 2882              	.LVL164:
 2883              		.loc 1 1275 16 view .LVU837
 2884 0010 2380     		strh	r3, [r4]	@ movhi
1276:DMP/driver/eMPL/inv_mpu_dmp_motion_driver.c **** 
1277:DMP/driver/eMPL/inv_mpu_dmp_motion_driver.c ****     /* Get a packet. */
1278:DMP/driver/eMPL/inv_mpu_dmp_motion_driver.c ****     if (mpu_read_fifo_stream(dmp.packet_length, fifo_data, more))
 2885              		.loc 1 1278 5 is_stmt 1 view .LVU838
 2886              		.loc 1 1278 9 is_stmt 0 view .LVU839
 2887 0012 139A     		ldr	r2, [sp, #76]
 2888              	.LVL165:
 2889              		.loc 1 1278 9 view .LVU840
 2890 0014 04A9     		add	r1, sp, #16
 2891              	.LVL166:
 2892              		.loc 1 1278 9 view .LVU841
 2893 0016 734B     		ldr	r3, .L196
 2894 0018 987B     		ldrb	r0, [r3, #14]	@ zero_extendqisi2
 2895              	.LVL167:
 2896              		.loc 1 1278 9 view .LVU842
 2897 001a FFF7FEFF 		bl	mpu_read_fifo_stream
 2898              	.LVL168:
 2899              		.loc 1 1278 8 view .LVU843
 2900 001e 0028     		cmp	r0, #0
 2901 0020 40F0DD80 		bne	.L191
 2902 0024 0746     		mov	r7, r0
1279:DMP/driver/eMPL/inv_mpu_dmp_motion_driver.c ****         return -1;
1280:DMP/driver/eMPL/inv_mpu_dmp_motion_driver.c **** 
1281:DMP/driver/eMPL/inv_mpu_dmp_motion_driver.c ****     /* Parse DMP packet. */
1282:DMP/driver/eMPL/inv_mpu_dmp_motion_driver.c ****     if (dmp.feature_mask & (DMP_FEATURE_LP_QUAT | DMP_FEATURE_6X_LP_QUAT)) {
 2903              		.loc 1 1282 5 is_stmt 1 view .LVU844
 2904              		.loc 1 1282 12 is_stmt 0 view .LVU845
 2905 0026 6F4B     		ldr	r3, .L196
 2906 0028 5A89     		ldrh	r2, [r3, #10]
 2907              		.loc 1 1282 8 view .LVU846
 2908 002a 12F0140F 		tst	r2, #20
 2909 002e 67D0     		beq	.L192
 2910              	.LBB5:
1283:DMP/driver/eMPL/inv_mpu_dmp_motion_driver.c **** #ifdef FIFO_CORRUPTION_CHECK
1284:DMP/driver/eMPL/inv_mpu_dmp_motion_driver.c ****         long quat_q14[4], quat_mag_sq;
 2911              		.loc 1 1284 9 is_stmt 1 view .LVU847
1285:DMP/driver/eMPL/inv_mpu_dmp_motion_driver.c **** #endif
1286:DMP/driver/eMPL/inv_mpu_dmp_motion_driver.c ****         quat[0] = ((long)fifo_data[0] << 24) | ((long)fifo_data[1] << 16) |
 2912              		.loc 1 1286 9 view .LVU848
 2913              		.loc 1 1286 35 is_stmt 0 view .LVU849
 2914 0030 9DF81030 		ldrb	r3, [sp, #16]	@ zero_extendqisi2
 2915              		.loc 1 1286 64 view .LVU850
 2916 0034 9DF81100 		ldrb	r0, [sp, #17]	@ zero_extendqisi2
 2917              		.loc 1 1286 68 view .LVU851
 2918 0038 0004     		lsls	r0, r0, #16
 2919              		.loc 1 1286 46 view .LVU852
 2920 003a 40EA0360 		orr	r0, r0, r3, lsl #24
1287:DMP/driver/eMPL/inv_mpu_dmp_motion_driver.c ****             ((long)fifo_data[2] << 8) | fifo_data[3];
 2921              		.loc 1 1287 29 view .LVU853
 2922 003e 9DF81230 		ldrb	r3, [sp, #18]	@ zero_extendqisi2
1286:DMP/driver/eMPL/inv_mpu_dmp_motion_driver.c ****             ((long)fifo_data[2] << 8) | fifo_data[3];
 2923              		.loc 1 1286 75 view .LVU854
 2924 0042 40EA0320 		orr	r0, r0, r3, lsl #8
 2925              		.loc 1 1287 50 view .LVU855
ARM GAS  /var/folders/21/t9g5rlb91ys800n5npymflf80000gn/T//ccWnr5oL.s 			page 88


 2926 0046 9DF81330 		ldrb	r3, [sp, #19]	@ zero_extendqisi2
 2927              		.loc 1 1287 39 view .LVU856
 2928 004a 1843     		orrs	r0, r0, r3
1286:DMP/driver/eMPL/inv_mpu_dmp_motion_driver.c ****             ((long)fifo_data[2] << 8) | fifo_data[3];
 2929              		.loc 1 1286 17 view .LVU857
 2930 004c C8F80000 		str	r0, [r8]
1288:DMP/driver/eMPL/inv_mpu_dmp_motion_driver.c ****         quat[1] = ((long)fifo_data[4] << 24) | ((long)fifo_data[5] << 16) |
 2931              		.loc 1 1288 9 is_stmt 1 view .LVU858
 2932              		.loc 1 1288 35 is_stmt 0 view .LVU859
 2933 0050 9DF81430 		ldrb	r3, [sp, #20]	@ zero_extendqisi2
 2934              		.loc 1 1288 64 view .LVU860
 2935 0054 9DF815C0 		ldrb	ip, [sp, #21]	@ zero_extendqisi2
 2936              		.loc 1 1288 68 view .LVU861
 2937 0058 4FEA0C4C 		lsl	ip, ip, #16
 2938              		.loc 1 1288 46 view .LVU862
 2939 005c 4CEA036C 		orr	ip, ip, r3, lsl #24
1289:DMP/driver/eMPL/inv_mpu_dmp_motion_driver.c ****             ((long)fifo_data[6] << 8) | fifo_data[7];
 2940              		.loc 1 1289 29 view .LVU863
 2941 0060 9DF81630 		ldrb	r3, [sp, #22]	@ zero_extendqisi2
1288:DMP/driver/eMPL/inv_mpu_dmp_motion_driver.c ****         quat[1] = ((long)fifo_data[4] << 24) | ((long)fifo_data[5] << 16) |
 2942              		.loc 1 1288 75 view .LVU864
 2943 0064 4CEA032C 		orr	ip, ip, r3, lsl #8
 2944              		.loc 1 1289 50 view .LVU865
 2945 0068 9DF81730 		ldrb	r3, [sp, #23]	@ zero_extendqisi2
 2946              		.loc 1 1289 39 view .LVU866
 2947 006c 4CEA030C 		orr	ip, ip, r3
1288:DMP/driver/eMPL/inv_mpu_dmp_motion_driver.c ****         quat[1] = ((long)fifo_data[4] << 24) | ((long)fifo_data[5] << 16) |
 2948              		.loc 1 1288 17 view .LVU867
 2949 0070 C8F804C0 		str	ip, [r8, #4]
1290:DMP/driver/eMPL/inv_mpu_dmp_motion_driver.c ****         quat[2] = ((long)fifo_data[8] << 24) | ((long)fifo_data[9] << 16) |
 2950              		.loc 1 1290 9 is_stmt 1 view .LVU868
 2951              		.loc 1 1290 35 is_stmt 0 view .LVU869
 2952 0074 9DF81830 		ldrb	r3, [sp, #24]	@ zero_extendqisi2
 2953              		.loc 1 1290 64 view .LVU870
 2954 0078 9DF81910 		ldrb	r1, [sp, #25]	@ zero_extendqisi2
 2955              		.loc 1 1290 68 view .LVU871
 2956 007c 0904     		lsls	r1, r1, #16
 2957              		.loc 1 1290 46 view .LVU872
 2958 007e 41EA0361 		orr	r1, r1, r3, lsl #24
1291:DMP/driver/eMPL/inv_mpu_dmp_motion_driver.c ****             ((long)fifo_data[10] << 8) | fifo_data[11];
 2959              		.loc 1 1291 29 view .LVU873
 2960 0082 9DF81A30 		ldrb	r3, [sp, #26]	@ zero_extendqisi2
1290:DMP/driver/eMPL/inv_mpu_dmp_motion_driver.c ****         quat[2] = ((long)fifo_data[8] << 24) | ((long)fifo_data[9] << 16) |
 2961              		.loc 1 1290 75 view .LVU874
 2962 0086 41EA0321 		orr	r1, r1, r3, lsl #8
 2963              		.loc 1 1291 51 view .LVU875
 2964 008a 9DF81B30 		ldrb	r3, [sp, #27]	@ zero_extendqisi2
 2965              		.loc 1 1291 40 view .LVU876
 2966 008e 1943     		orrs	r1, r1, r3
1290:DMP/driver/eMPL/inv_mpu_dmp_motion_driver.c ****         quat[2] = ((long)fifo_data[8] << 24) | ((long)fifo_data[9] << 16) |
 2967              		.loc 1 1290 17 view .LVU877
 2968 0090 C8F80810 		str	r1, [r8, #8]
1292:DMP/driver/eMPL/inv_mpu_dmp_motion_driver.c ****         quat[3] = ((long)fifo_data[12] << 24) | ((long)fifo_data[13] << 16) |
 2969              		.loc 1 1292 9 is_stmt 1 view .LVU878
 2970              		.loc 1 1292 35 is_stmt 0 view .LVU879
 2971 0094 9DF81CE0 		ldrb	lr, [sp, #28]	@ zero_extendqisi2
 2972              		.loc 1 1292 65 view .LVU880
ARM GAS  /var/folders/21/t9g5rlb91ys800n5npymflf80000gn/T//ccWnr5oL.s 			page 89


 2973 0098 9DF81D30 		ldrb	r3, [sp, #29]	@ zero_extendqisi2
 2974              		.loc 1 1292 70 view .LVU881
 2975 009c 1B04     		lsls	r3, r3, #16
 2976              		.loc 1 1292 47 view .LVU882
 2977 009e 43EA0E63 		orr	r3, r3, lr, lsl #24
1293:DMP/driver/eMPL/inv_mpu_dmp_motion_driver.c ****             ((long)fifo_data[14] << 8) | fifo_data[15];
 2978              		.loc 1 1293 29 view .LVU883
 2979 00a2 9DF81EE0 		ldrb	lr, [sp, #30]	@ zero_extendqisi2
1292:DMP/driver/eMPL/inv_mpu_dmp_motion_driver.c ****         quat[3] = ((long)fifo_data[12] << 24) | ((long)fifo_data[13] << 16) |
 2980              		.loc 1 1292 77 view .LVU884
 2981 00a6 43EA0E23 		orr	r3, r3, lr, lsl #8
 2982              		.loc 1 1293 51 view .LVU885
 2983 00aa 9DF81FE0 		ldrb	lr, [sp, #31]	@ zero_extendqisi2
 2984              		.loc 1 1293 40 view .LVU886
 2985 00ae 43EA0E03 		orr	r3, r3, lr
1292:DMP/driver/eMPL/inv_mpu_dmp_motion_driver.c ****         quat[3] = ((long)fifo_data[12] << 24) | ((long)fifo_data[13] << 16) |
 2986              		.loc 1 1292 17 view .LVU887
 2987 00b2 C8F80C30 		str	r3, [r8, #12]
1294:DMP/driver/eMPL/inv_mpu_dmp_motion_driver.c ****         ii += 16;
 2988              		.loc 1 1294 9 is_stmt 1 view .LVU888
 2989              	.LVL169:
1295:DMP/driver/eMPL/inv_mpu_dmp_motion_driver.c **** #ifdef FIFO_CORRUPTION_CHECK
1296:DMP/driver/eMPL/inv_mpu_dmp_motion_driver.c ****         /* We can detect a corrupted FIFO by monitoring the quaternion data and
1297:DMP/driver/eMPL/inv_mpu_dmp_motion_driver.c ****          * ensuring that the magnitude is always normalized to one. This
1298:DMP/driver/eMPL/inv_mpu_dmp_motion_driver.c ****          * shouldn't happen in normal operation, but if an I2C error occurs,
1299:DMP/driver/eMPL/inv_mpu_dmp_motion_driver.c ****          * the FIFO reads might become misaligned.
1300:DMP/driver/eMPL/inv_mpu_dmp_motion_driver.c ****          *
1301:DMP/driver/eMPL/inv_mpu_dmp_motion_driver.c ****          * Let's start by scaling down the quaternion data to avoid long long
1302:DMP/driver/eMPL/inv_mpu_dmp_motion_driver.c ****          * math.
1303:DMP/driver/eMPL/inv_mpu_dmp_motion_driver.c ****          */
1304:DMP/driver/eMPL/inv_mpu_dmp_motion_driver.c ****         quat_q14[0] = quat[0] >> 16;
 2990              		.loc 1 1304 9 view .LVU889
 2991              		.loc 1 1304 31 is_stmt 0 view .LVU890
 2992 00b6 0014     		asrs	r0, r0, #16
 2993              		.loc 1 1304 21 view .LVU891
 2994 00b8 0090     		str	r0, [sp]
1305:DMP/driver/eMPL/inv_mpu_dmp_motion_driver.c ****         quat_q14[1] = quat[1] >> 16;
 2995              		.loc 1 1305 9 is_stmt 1 view .LVU892
 2996              		.loc 1 1305 31 is_stmt 0 view .LVU893
 2997 00ba 4FEA2C4C 		asr	ip, ip, #16
 2998              		.loc 1 1305 21 view .LVU894
 2999 00be CDF804C0 		str	ip, [sp, #4]
1306:DMP/driver/eMPL/inv_mpu_dmp_motion_driver.c ****         quat_q14[2] = quat[2] >> 16;
 3000              		.loc 1 1306 9 is_stmt 1 view .LVU895
 3001              		.loc 1 1306 31 is_stmt 0 view .LVU896
 3002 00c2 0914     		asrs	r1, r1, #16
 3003              		.loc 1 1306 21 view .LVU897
 3004 00c4 0291     		str	r1, [sp, #8]
1307:DMP/driver/eMPL/inv_mpu_dmp_motion_driver.c ****         quat_q14[3] = quat[3] >> 16;
 3005              		.loc 1 1307 9 is_stmt 1 view .LVU898
 3006              		.loc 1 1307 31 is_stmt 0 view .LVU899
 3007 00c6 1B14     		asrs	r3, r3, #16
 3008              		.loc 1 1307 21 view .LVU900
 3009 00c8 0393     		str	r3, [sp, #12]
1308:DMP/driver/eMPL/inv_mpu_dmp_motion_driver.c ****         quat_mag_sq = quat_q14[0] * quat_q14[0] + quat_q14[1] * quat_q14[1] +
 3010              		.loc 1 1308 9 is_stmt 1 view .LVU901
 3011              		.loc 1 1308 63 is_stmt 0 view .LVU902
ARM GAS  /var/folders/21/t9g5rlb91ys800n5npymflf80000gn/T//ccWnr5oL.s 			page 90


 3012 00ca 0CFB0CFC 		mul	ip, ip, ip
 3013              		.loc 1 1308 49 view .LVU903
 3014 00ce 00FB00C0 		mla	r0, r0, r0, ip
 3015              		.loc 1 1308 77 view .LVU904
 3016 00d2 01FB0101 		mla	r1, r1, r1, r0
 3017              		.loc 1 1308 21 view .LVU905
 3018 00d6 03FB0313 		mla	r3, r3, r3, r1
 3019              	.LVL170:
1309:DMP/driver/eMPL/inv_mpu_dmp_motion_driver.c ****             quat_q14[2] * quat_q14[2] + quat_q14[3] * quat_q14[3];
1310:DMP/driver/eMPL/inv_mpu_dmp_motion_driver.c ****         if ((quat_mag_sq < QUAT_MAG_SQ_MIN) ||
 3020              		.loc 1 1310 9 is_stmt 1 view .LVU906
 3021              		.loc 1 1310 45 is_stmt 0 view .LVU907
 3022 00da 03F17143 		add	r3, r3, #-251658240
 3023              	.LVL171:
 3024              		.loc 1 1310 12 view .LVU908
 3025 00de B3F1007F 		cmp	r3, #33554432
 3026 00e2 06D8     		bhi	.L194
1311:DMP/driver/eMPL/inv_mpu_dmp_motion_driver.c ****             (quat_mag_sq > QUAT_MAG_SQ_MAX)) {
1312:DMP/driver/eMPL/inv_mpu_dmp_motion_driver.c ****             /* Quaternion is outside of the acceptable threshold. */
1313:DMP/driver/eMPL/inv_mpu_dmp_motion_driver.c ****             mpu_reset_fifo();
1314:DMP/driver/eMPL/inv_mpu_dmp_motion_driver.c ****             sensors[0] = 0;
1315:DMP/driver/eMPL/inv_mpu_dmp_motion_driver.c ****             return -1;
1316:DMP/driver/eMPL/inv_mpu_dmp_motion_driver.c ****         }
1317:DMP/driver/eMPL/inv_mpu_dmp_motion_driver.c ****         sensors[0] |= INV_WXYZ_QUAT;
 3027              		.loc 1 1317 9 is_stmt 1 view .LVU909
 3028              		.loc 1 1317 16 is_stmt 0 view .LVU910
 3029 00e4 B4F90030 		ldrsh	r3, [r4]
 3030              	.LVL172:
 3031              		.loc 1 1317 20 view .LVU911
 3032 00e8 43F48073 		orr	r3, r3, #256
 3033 00ec 2380     		strh	r3, [r4]	@ movhi
1294:DMP/driver/eMPL/inv_mpu_dmp_motion_driver.c **** #ifdef FIFO_CORRUPTION_CHECK
 3034              		.loc 1 1294 12 view .LVU912
 3035 00ee 1023     		movs	r3, #16
 3036 00f0 07E0     		b	.L186
 3037              	.L194:
1313:DMP/driver/eMPL/inv_mpu_dmp_motion_driver.c ****             sensors[0] = 0;
 3038              		.loc 1 1313 13 is_stmt 1 view .LVU913
 3039 00f2 FFF7FEFF 		bl	mpu_reset_fifo
 3040              	.LVL173:
1314:DMP/driver/eMPL/inv_mpu_dmp_motion_driver.c ****             return -1;
 3041              		.loc 1 1314 13 view .LVU914
1314:DMP/driver/eMPL/inv_mpu_dmp_motion_driver.c ****             return -1;
 3042              		.loc 1 1314 24 is_stmt 0 view .LVU915
 3043 00f6 0023     		movs	r3, #0
 3044 00f8 2380     		strh	r3, [r4]	@ movhi
1315:DMP/driver/eMPL/inv_mpu_dmp_motion_driver.c ****         }
 3045              		.loc 1 1315 13 is_stmt 1 view .LVU916
1315:DMP/driver/eMPL/inv_mpu_dmp_motion_driver.c ****         }
 3046              		.loc 1 1315 20 is_stmt 0 view .LVU917
 3047 00fa 4FF0FF37 		mov	r7, #-1
 3048 00fe 65E0     		b	.L184
 3049              	.LVL174:
 3050              	.L192:
1315:DMP/driver/eMPL/inv_mpu_dmp_motion_driver.c ****         }
 3051              		.loc 1 1315 20 view .LVU918
 3052              	.LBE5:
ARM GAS  /var/folders/21/t9g5rlb91ys800n5npymflf80000gn/T//ccWnr5oL.s 			page 91


1270:DMP/driver/eMPL/inv_mpu_dmp_motion_driver.c **** 
 3053              		.loc 1 1270 19 view .LVU919
 3054 0100 0023     		movs	r3, #0
 3055              	.LVL175:
 3056              	.L186:
1318:DMP/driver/eMPL/inv_mpu_dmp_motion_driver.c **** #endif
1319:DMP/driver/eMPL/inv_mpu_dmp_motion_driver.c ****     }
1320:DMP/driver/eMPL/inv_mpu_dmp_motion_driver.c **** 
1321:DMP/driver/eMPL/inv_mpu_dmp_motion_driver.c ****     if (dmp.feature_mask & DMP_FEATURE_SEND_RAW_ACCEL) {
 3057              		.loc 1 1321 5 is_stmt 1 view .LVU920
 3058              		.loc 1 1321 8 is_stmt 0 view .LVU921
 3059 0102 12F0400F 		tst	r2, #64
 3060 0106 2DD0     		beq	.L188
1322:DMP/driver/eMPL/inv_mpu_dmp_motion_driver.c ****         accel[0] = ((short)fifo_data[ii+0] << 8) | fifo_data[ii+1];
 3061              		.loc 1 1322 9 is_stmt 1 view .LVU922
 3062              		.loc 1 1322 37 is_stmt 0 view .LVU923
 3063 0108 03F13001 		add	r1, r3, #48
 3064 010c 6944     		add	r1, sp, r1
 3065 010e 11F8200C 		ldrb	r0, [r1, #-32]	@ zero_extendqisi2
 3066              		.loc 1 1322 61 view .LVU924
 3067 0112 03F13101 		add	r1, r3, #49
 3068 0116 6944     		add	r1, sp, r1
 3069 0118 11F8201C 		ldrb	r1, [r1, #-32]	@ zero_extendqisi2
 3070              		.loc 1 1322 50 view .LVU925
 3071 011c 41EA0021 		orr	r1, r1, r0, lsl #8
 3072              		.loc 1 1322 18 view .LVU926
 3073 0120 3180     		strh	r1, [r6]	@ movhi
1323:DMP/driver/eMPL/inv_mpu_dmp_motion_driver.c ****         accel[1] = ((short)fifo_data[ii+2] << 8) | fifo_data[ii+3];
 3074              		.loc 1 1323 9 is_stmt 1 view .LVU927
 3075              		.loc 1 1323 37 is_stmt 0 view .LVU928
 3076 0122 03F13201 		add	r1, r3, #50
 3077 0126 6944     		add	r1, sp, r1
 3078 0128 11F8200C 		ldrb	r0, [r1, #-32]	@ zero_extendqisi2
 3079              		.loc 1 1323 61 view .LVU929
 3080 012c 03F13301 		add	r1, r3, #51
 3081 0130 6944     		add	r1, sp, r1
 3082 0132 11F8201C 		ldrb	r1, [r1, #-32]	@ zero_extendqisi2
 3083              		.loc 1 1323 50 view .LVU930
 3084 0136 41EA0021 		orr	r1, r1, r0, lsl #8
 3085              		.loc 1 1323 18 view .LVU931
 3086 013a 7180     		strh	r1, [r6, #2]	@ movhi
1324:DMP/driver/eMPL/inv_mpu_dmp_motion_driver.c ****         accel[2] = ((short)fifo_data[ii+4] << 8) | fifo_data[ii+5];
 3087              		.loc 1 1324 9 is_stmt 1 view .LVU932
 3088              		.loc 1 1324 37 is_stmt 0 view .LVU933
 3089 013c 03F13401 		add	r1, r3, #52
 3090 0140 6944     		add	r1, sp, r1
 3091 0142 11F8200C 		ldrb	r0, [r1, #-32]	@ zero_extendqisi2
 3092              		.loc 1 1324 61 view .LVU934
 3093 0146 03F13501 		add	r1, r3, #53
 3094 014a 6944     		add	r1, sp, r1
 3095 014c 11F8201C 		ldrb	r1, [r1, #-32]	@ zero_extendqisi2
 3096              		.loc 1 1324 50 view .LVU935
 3097 0150 41EA0021 		orr	r1, r1, r0, lsl #8
 3098              		.loc 1 1324 18 view .LVU936
 3099 0154 B180     		strh	r1, [r6, #4]	@ movhi
1325:DMP/driver/eMPL/inv_mpu_dmp_motion_driver.c ****         ii += 6;
 3100              		.loc 1 1325 9 is_stmt 1 view .LVU937
ARM GAS  /var/folders/21/t9g5rlb91ys800n5npymflf80000gn/T//ccWnr5oL.s 			page 92


 3101              		.loc 1 1325 12 is_stmt 0 view .LVU938
 3102 0156 0633     		adds	r3, r3, #6
 3103              	.LVL176:
 3104              		.loc 1 1325 12 view .LVU939
 3105 0158 DBB2     		uxtb	r3, r3
 3106              	.LVL177:
1326:DMP/driver/eMPL/inv_mpu_dmp_motion_driver.c ****         sensors[0] |= INV_XYZ_ACCEL;
 3107              		.loc 1 1326 9 is_stmt 1 view .LVU940
 3108              		.loc 1 1326 16 is_stmt 0 view .LVU941
 3109 015a B4F90010 		ldrsh	r1, [r4]
 3110              		.loc 1 1326 20 view .LVU942
 3111 015e 41F00801 		orr	r1, r1, #8
 3112 0162 2180     		strh	r1, [r4]	@ movhi
 3113              	.L188:
1327:DMP/driver/eMPL/inv_mpu_dmp_motion_driver.c ****     }
1328:DMP/driver/eMPL/inv_mpu_dmp_motion_driver.c **** 
1329:DMP/driver/eMPL/inv_mpu_dmp_motion_driver.c ****     if (dmp.feature_mask & DMP_FEATURE_SEND_ANY_GYRO) {
 3114              		.loc 1 1329 5 is_stmt 1 view .LVU943
 3115              		.loc 1 1329 8 is_stmt 0 view .LVU944
 3116 0164 12F4C07F 		tst	r2, #384
 3117 0168 2DD0     		beq	.L189
1330:DMP/driver/eMPL/inv_mpu_dmp_motion_driver.c ****         gyro[0] = ((short)fifo_data[ii+0] << 8) | fifo_data[ii+1];
 3118              		.loc 1 1330 9 is_stmt 1 view .LVU945
 3119              		.loc 1 1330 36 is_stmt 0 view .LVU946
 3120 016a 03F13001 		add	r1, r3, #48
 3121 016e 6944     		add	r1, sp, r1
 3122 0170 11F8200C 		ldrb	r0, [r1, #-32]	@ zero_extendqisi2
 3123              		.loc 1 1330 60 view .LVU947
 3124 0174 03F13101 		add	r1, r3, #49
 3125 0178 6944     		add	r1, sp, r1
 3126 017a 11F8201C 		ldrb	r1, [r1, #-32]	@ zero_extendqisi2
 3127              		.loc 1 1330 49 view .LVU948
 3128 017e 41EA0021 		orr	r1, r1, r0, lsl #8
 3129              		.loc 1 1330 17 view .LVU949
 3130 0182 2980     		strh	r1, [r5]	@ movhi
1331:DMP/driver/eMPL/inv_mpu_dmp_motion_driver.c ****         gyro[1] = ((short)fifo_data[ii+2] << 8) | fifo_data[ii+3];
 3131              		.loc 1 1331 9 is_stmt 1 view .LVU950
 3132              		.loc 1 1331 36 is_stmt 0 view .LVU951
 3133 0184 03F13201 		add	r1, r3, #50
 3134 0188 6944     		add	r1, sp, r1
 3135 018a 11F8200C 		ldrb	r0, [r1, #-32]	@ zero_extendqisi2
 3136              		.loc 1 1331 60 view .LVU952
 3137 018e 03F13301 		add	r1, r3, #51
 3138 0192 6944     		add	r1, sp, r1
 3139 0194 11F8201C 		ldrb	r1, [r1, #-32]	@ zero_extendqisi2
 3140              		.loc 1 1331 49 view .LVU953
 3141 0198 41EA0021 		orr	r1, r1, r0, lsl #8
 3142              		.loc 1 1331 17 view .LVU954
 3143 019c 6980     		strh	r1, [r5, #2]	@ movhi
1332:DMP/driver/eMPL/inv_mpu_dmp_motion_driver.c ****         gyro[2] = ((short)fifo_data[ii+4] << 8) | fifo_data[ii+5];
 3144              		.loc 1 1332 9 is_stmt 1 view .LVU955
 3145              		.loc 1 1332 36 is_stmt 0 view .LVU956
 3146 019e 03F13401 		add	r1, r3, #52
 3147 01a2 6944     		add	r1, sp, r1
 3148 01a4 11F8200C 		ldrb	r0, [r1, #-32]	@ zero_extendqisi2
 3149              		.loc 1 1332 60 view .LVU957
 3150 01a8 03F13501 		add	r1, r3, #53
ARM GAS  /var/folders/21/t9g5rlb91ys800n5npymflf80000gn/T//ccWnr5oL.s 			page 93


 3151 01ac 6944     		add	r1, sp, r1
 3152 01ae 11F8201C 		ldrb	r1, [r1, #-32]	@ zero_extendqisi2
 3153              		.loc 1 1332 49 view .LVU958
 3154 01b2 41EA0021 		orr	r1, r1, r0, lsl #8
 3155              		.loc 1 1332 17 view .LVU959
 3156 01b6 A980     		strh	r1, [r5, #4]	@ movhi
1333:DMP/driver/eMPL/inv_mpu_dmp_motion_driver.c ****         ii += 6;
 3157              		.loc 1 1333 9 is_stmt 1 view .LVU960
 3158              		.loc 1 1333 12 is_stmt 0 view .LVU961
 3159 01b8 0633     		adds	r3, r3, #6
 3160              	.LVL178:
 3161              		.loc 1 1333 12 view .LVU962
 3162 01ba DBB2     		uxtb	r3, r3
 3163              	.LVL179:
1334:DMP/driver/eMPL/inv_mpu_dmp_motion_driver.c ****         sensors[0] |= INV_XYZ_GYRO;
 3164              		.loc 1 1334 9 is_stmt 1 view .LVU963
 3165              		.loc 1 1334 16 is_stmt 0 view .LVU964
 3166 01bc B4F90010 		ldrsh	r1, [r4]
 3167              		.loc 1 1334 20 view .LVU965
 3168 01c0 41F07001 		orr	r1, r1, #112
 3169 01c4 2180     		strh	r1, [r4]	@ movhi
 3170              	.L189:
1335:DMP/driver/eMPL/inv_mpu_dmp_motion_driver.c ****     }
1336:DMP/driver/eMPL/inv_mpu_dmp_motion_driver.c **** 
1337:DMP/driver/eMPL/inv_mpu_dmp_motion_driver.c ****     /* Gesture data is at the end of the DMP packet. Parse it and call
1338:DMP/driver/eMPL/inv_mpu_dmp_motion_driver.c ****      * the gesture callbacks (if registered).
1339:DMP/driver/eMPL/inv_mpu_dmp_motion_driver.c ****      */
1340:DMP/driver/eMPL/inv_mpu_dmp_motion_driver.c ****     if (dmp.feature_mask & (DMP_FEATURE_TAP | DMP_FEATURE_ANDROID_ORIENT))
 3171              		.loc 1 1340 5 is_stmt 1 view .LVU966
 3172              		.loc 1 1340 8 is_stmt 0 view .LVU967
 3173 01c6 12F0030F 		tst	r2, #3
 3174 01ca 03D1     		bne	.L195
 3175              	.LVL180:
 3176              	.L184:
1341:DMP/driver/eMPL/inv_mpu_dmp_motion_driver.c ****         decode_gesture(fifo_data + ii);
1342:DMP/driver/eMPL/inv_mpu_dmp_motion_driver.c **** 
1343:DMP/driver/eMPL/inv_mpu_dmp_motion_driver.c ****     get_ms(timestamp);
1344:DMP/driver/eMPL/inv_mpu_dmp_motion_driver.c ****     return 0;
1345:DMP/driver/eMPL/inv_mpu_dmp_motion_driver.c **** }
 3177              		.loc 1 1345 1 view .LVU968
 3178 01cc 3846     		mov	r0, r7
 3179 01ce 0CB0     		add	sp, sp, #48
 3180              	.LCFI83:
 3181              		.cfi_remember_state
 3182              		.cfi_def_cfa_offset 24
 3183              		@ sp needed
 3184 01d0 BDE8F081 		pop	{r4, r5, r6, r7, r8, pc}
 3185              	.LVL181:
 3186              	.L195:
 3187              	.LCFI84:
 3188              		.cfi_restore_state
1341:DMP/driver/eMPL/inv_mpu_dmp_motion_driver.c ****         decode_gesture(fifo_data + ii);
 3189              		.loc 1 1341 9 is_stmt 1 view .LVU969
 3190 01d4 04AA     		add	r2, sp, #16
 3191 01d6 D018     		adds	r0, r2, r3
 3192 01d8 FFF7FEFF 		bl	decode_gesture
 3193              	.LVL182:
ARM GAS  /var/folders/21/t9g5rlb91ys800n5npymflf80000gn/T//ccWnr5oL.s 			page 94


1343:DMP/driver/eMPL/inv_mpu_dmp_motion_driver.c ****     return 0;
 3194              		.loc 1 1343 5 view .LVU970
1344:DMP/driver/eMPL/inv_mpu_dmp_motion_driver.c **** }
 3195              		.loc 1 1344 5 view .LVU971
1344:DMP/driver/eMPL/inv_mpu_dmp_motion_driver.c **** }
 3196              		.loc 1 1344 12 is_stmt 0 view .LVU972
 3197 01dc F6E7     		b	.L184
 3198              	.LVL183:
 3199              	.L191:
1279:DMP/driver/eMPL/inv_mpu_dmp_motion_driver.c **** 
 3200              		.loc 1 1279 16 view .LVU973
 3201 01de 4FF0FF37 		mov	r7, #-1
 3202 01e2 F3E7     		b	.L184
 3203              	.L197:
 3204              		.align	2
 3205              	.L196:
 3206 01e4 00000000 		.word	dmp
 3207              		.cfi_endproc
 3208              	.LFE187:
 3210              		.section	.text.dmp_register_tap_cb,"ax",%progbits
 3211              		.align	1
 3212              		.global	dmp_register_tap_cb
 3213              		.syntax unified
 3214              		.thumb
 3215              		.thumb_func
 3217              	dmp_register_tap_cb:
 3218              	.LVL184:
 3219              	.LFB188:
1346:DMP/driver/eMPL/inv_mpu_dmp_motion_driver.c **** 
1347:DMP/driver/eMPL/inv_mpu_dmp_motion_driver.c **** /**
1348:DMP/driver/eMPL/inv_mpu_dmp_motion_driver.c ****  *  @brief      Register a function to be executed on a tap event.
1349:DMP/driver/eMPL/inv_mpu_dmp_motion_driver.c ****  *  The tap direction is represented by one of the following:
1350:DMP/driver/eMPL/inv_mpu_dmp_motion_driver.c ****  *  \n TAP_X_UP
1351:DMP/driver/eMPL/inv_mpu_dmp_motion_driver.c ****  *  \n TAP_X_DOWN
1352:DMP/driver/eMPL/inv_mpu_dmp_motion_driver.c ****  *  \n TAP_Y_UP
1353:DMP/driver/eMPL/inv_mpu_dmp_motion_driver.c ****  *  \n TAP_Y_DOWN
1354:DMP/driver/eMPL/inv_mpu_dmp_motion_driver.c ****  *  \n TAP_Z_UP
1355:DMP/driver/eMPL/inv_mpu_dmp_motion_driver.c ****  *  \n TAP_Z_DOWN
1356:DMP/driver/eMPL/inv_mpu_dmp_motion_driver.c ****  *  @param[in]  func    Callback function.
1357:DMP/driver/eMPL/inv_mpu_dmp_motion_driver.c ****  *  @return     0 if successful.
1358:DMP/driver/eMPL/inv_mpu_dmp_motion_driver.c ****  */
1359:DMP/driver/eMPL/inv_mpu_dmp_motion_driver.c **** int dmp_register_tap_cb(void (*func)(unsigned char, unsigned char))
1360:DMP/driver/eMPL/inv_mpu_dmp_motion_driver.c **** {
 3220              		.loc 1 1360 1 is_stmt 1 view -0
 3221              		.cfi_startproc
 3222              		@ args = 0, pretend = 0, frame = 0
 3223              		@ frame_needed = 0, uses_anonymous_args = 0
 3224              		@ link register save eliminated.
1361:DMP/driver/eMPL/inv_mpu_dmp_motion_driver.c ****     dmp.tap_cb = func;
 3225              		.loc 1 1361 5 view .LVU975
 3226              		.loc 1 1361 16 is_stmt 0 view .LVU976
 3227 0000 014B     		ldr	r3, .L199
 3228 0002 1860     		str	r0, [r3]
1362:DMP/driver/eMPL/inv_mpu_dmp_motion_driver.c ****     return 0;
 3229              		.loc 1 1362 5 is_stmt 1 view .LVU977
1363:DMP/driver/eMPL/inv_mpu_dmp_motion_driver.c **** }
 3230              		.loc 1 1363 1 is_stmt 0 view .LVU978
ARM GAS  /var/folders/21/t9g5rlb91ys800n5npymflf80000gn/T//ccWnr5oL.s 			page 95


 3231 0004 0020     		movs	r0, #0
 3232              	.LVL185:
 3233              		.loc 1 1363 1 view .LVU979
 3234 0006 7047     		bx	lr
 3235              	.L200:
 3236              		.align	2
 3237              	.L199:
 3238 0008 00000000 		.word	dmp
 3239              		.cfi_endproc
 3240              	.LFE188:
 3242              		.section	.text.dmp_register_android_orient_cb,"ax",%progbits
 3243              		.align	1
 3244              		.global	dmp_register_android_orient_cb
 3245              		.syntax unified
 3246              		.thumb
 3247              		.thumb_func
 3249              	dmp_register_android_orient_cb:
 3250              	.LVL186:
 3251              	.LFB189:
1364:DMP/driver/eMPL/inv_mpu_dmp_motion_driver.c **** 
1365:DMP/driver/eMPL/inv_mpu_dmp_motion_driver.c **** /**
1366:DMP/driver/eMPL/inv_mpu_dmp_motion_driver.c ****  *  @brief      Register a function to be executed on a android orientation event.
1367:DMP/driver/eMPL/inv_mpu_dmp_motion_driver.c ****  *  @param[in]  func    Callback function.
1368:DMP/driver/eMPL/inv_mpu_dmp_motion_driver.c ****  *  @return     0 if successful.
1369:DMP/driver/eMPL/inv_mpu_dmp_motion_driver.c ****  */
1370:DMP/driver/eMPL/inv_mpu_dmp_motion_driver.c **** int dmp_register_android_orient_cb(void (*func)(unsigned char))
1371:DMP/driver/eMPL/inv_mpu_dmp_motion_driver.c **** {
 3252              		.loc 1 1371 1 is_stmt 1 view -0
 3253              		.cfi_startproc
 3254              		@ args = 0, pretend = 0, frame = 0
 3255              		@ frame_needed = 0, uses_anonymous_args = 0
 3256              		@ link register save eliminated.
1372:DMP/driver/eMPL/inv_mpu_dmp_motion_driver.c ****     dmp.android_orient_cb = func;
 3257              		.loc 1 1372 5 view .LVU981
 3258              		.loc 1 1372 27 is_stmt 0 view .LVU982
 3259 0000 014B     		ldr	r3, .L202
 3260 0002 5860     		str	r0, [r3, #4]
1373:DMP/driver/eMPL/inv_mpu_dmp_motion_driver.c ****     return 0;
 3261              		.loc 1 1373 5 is_stmt 1 view .LVU983
1374:DMP/driver/eMPL/inv_mpu_dmp_motion_driver.c **** }
 3262              		.loc 1 1374 1 is_stmt 0 view .LVU984
 3263 0004 0020     		movs	r0, #0
 3264              	.LVL187:
 3265              		.loc 1 1374 1 view .LVU985
 3266 0006 7047     		bx	lr
 3267              	.L203:
 3268              		.align	2
 3269              	.L202:
 3270 0008 00000000 		.word	dmp
 3271              		.cfi_endproc
 3272              	.LFE189:
 3274              		.section	.bss.dmp,"aw",%nobits
 3275              		.align	2
 3278              	dmp:
 3279 0000 00000000 		.space	16
 3279      00000000 
 3279      00000000 
ARM GAS  /var/folders/21/t9g5rlb91ys800n5npymflf80000gn/T//ccWnr5oL.s 			page 96


 3279      00000000 
 3280              		.section	.rodata.dmp_memory,"a"
 3281              		.align	2
 3284              	dmp_memory:
 3285 0000 00007000 		.ascii	"\000\000p\000\000\000\000$\000\000\000\002\000\003\000"
 3285      00000024 
 3285      00000002 
 3285      000300
 3286 000f 00006500 		.ascii	"\000\000e\000T\377\357\000\000\372\200\000\013\022\202"
 3286      54FFEF00 
 3286      00FA8000 
 3286      0B1282
 3287 001e 0001030C 		.ascii	"\000\001\003\0140\303\016\214\214\351\024\325@\002\023"
 3287      30C30E8C 
 3287      8CE914D5 
 3287      400213
 3288 002d 710F8E38 		.ascii	"q\017\2168\203\370\2030\000\370\203%\216\370\2030\000"
 3288      83F88330 
 3288      00F88325 
 3288      8EF88330 
 3288      00
 3289 003e F883FFFF 		.ascii	"\370\203\377\377\377\377\017\376\251\326$\000\004\000"
 3289      FFFF0FFE 
 3289      A9D62400 
 3289      0400
 3290 004c 1A8279A1 		.ascii	"\032\202y\241\000\000\000<\377\377\000\000\000\020\000"
 3290      0000003C 
 3290      FFFF0000 
 3290      001000
 3291 005b 0038836F 		.ascii	"\0008\203o\242\000>\0030@\000\000\000\002\312\343\011"
 3291      A2003E03 
 3291      30400000 
 3291      0002CAE3 
 3291      09
 3292 006c 3E800000 		.ascii	">\200\000\000 \000\000\000\000\000\000\000@\000\000"
 3292      20000000 
 3292      00000000 
 3292      400000
 3293 007b 00600000 		.ascii	"\000`\000\000\000\000\014\000\000\000\014\030n\000\000"
 3293      00000C00 
 3293      00000C18 
 3293      6E0000
 3294 008a 06920A16 		.ascii	"\006\222\012\026\300\337\377\377\002V\375\214\323w\377"
 3294      C0DFFFFF 
 3294      0256FD8C 
 3294      D377FF
 3295 0099 E1C496E0 		.ascii	"\341\304\226\340\305\276\252\000\000\000\000\377\377"
 3295      C5BEAA00 
 3295      000000FF 
 3295      FF
 3296 00a6 0B2B0000 		.ascii	"\013+\000\000\026W\000\000\003Y@\000\000\000\000\000"
 3296      16570000 
 3296      03594000 
 3296      00000000 
 3297 00b6 1DFA0002 		.ascii	"\035\372\000\002l\035\000\000\000\000?\377\337\353\000"
 3297      6C1D0000 
 3297      00003FFF 
ARM GAS  /var/folders/21/t9g5rlb91ys800n5npymflf80000gn/T//ccWnr5oL.s 			page 97


 3297      DFEB00
 3298 00c5 3EB3B600 		.ascii	">\263\266\000\015\"x\000\000/<\000\000\000\000\000\031"
 3298      0D227800 
 3298      002F3C00 
 3298      00000000 
 3298      19
 3299 00d6 42B50000 		.ascii	"B\265\000\0009\242\000\000\263e\331\016\237\311\035"
 3299      39A20000 
 3299      B365D90E 
 3299      9FC91D
 3300 00e5 CF4C3430 		.ascii	"\317L40\000\000\000P\000\000\000;\266z\350\000d\000"
 3300      00000050 
 3300      0000003B 
 3300      B67AE800 
 3300      6400
 3301 00f7 0000C800 		.ascii	"\000\000\310\000\000\000\000\000\000\020\000\000\000"
 3301      00000000 
 3301      00100000 
 3301      00
 3302 0104 1000FA92 		.ascii	"\020\000\372\222\020\000\"^\000\015\"\237\000\001\000"
 3302      1000225E 
 3302      000D229F 
 3302      000100
 3303 0113 00003200 		.ascii	"\000\0002\000\000\377F\000\000c\324\000\000\020\000"
 3303      00FF4600 
 3303      0063D400 
 3303      001000
 3304 0122 000004D6 		.ascii	"\000\000\004\326\000\000\004\314\000\000\004\314\000"
 3304      000004CC 
 3304      000004CC 
 3304      00
 3305 012f 00000010 		.ascii	"\000\000\000\020r\000\000\000@\000\000\000\000\000\000"
 3305      72000000 
 3305      40000000 
 3305      000000
 3306 013e 00000006 		.ascii	"\000\000\000\006\000\002\000\005\000\007\000\000\000"
 3306      00020005 
 3306      00070000 
 3306      00
 3307 014b 00006400 		.ascii	"\000\000d\000\000\000\000\000\000\000\000\000\005\000"
 3307      00000000 
 3307      00000000 
 3307      0500
 3308 0159 05006400 		.ascii	"\005\000d\000 \000\000\000\000\000\000\000\000\000\000"
 3308      20000000 
 3308      00000000 
 3308      000000
 3309 0168 00004000 		.ascii	"\000\000@\000\000\000\003\000\000\000\0002\370\230\000"
 3309      00000300 
 3309      00000032 
 3309      F89800
 3310 0177 00FF6500 		.ascii	"\000\377e\000\000\203\017\000\000\377\233\374\000\000"
 3310      00830F00 
 3310      00FF9BFC 
 3310      0000
 3311 0185 00000000 		.ascii	"\000\000\000\000\000\000\000\000\000\000\000\000\000"
 3311      00000000 
ARM GAS  /var/folders/21/t9g5rlb91ys800n5npymflf80000gn/T//ccWnr5oL.s 			page 98


 3311      00000000 
 3311      00
 3312 0192 00000000 		.ascii	"\000\000\000\000\000\000\000\000\000\000\000\000\000"
 3312      00000000 
 3312      00000000 
 3312      00
 3313 019f 00000000 		.ascii	"\000\000\000\000\000\000\000\000\000\000\000\000\000"
 3313      00000000 
 3313      00000000 
 3313      00
 3314 01ac 00001000 		.ascii	"\000\000\020\000@\000\000\000\000\000\000\006\000\000"
 3314      40000000 
 3314      00000006 
 3314      0000
 3315 01ba B26A0002 		.ascii	"\262j\000\002\000\000\000\001\373\203\000h\000\000\000"
 3315      00000001 
 3315      FB830068 
 3315      000000
 3316 01c9 D9FC007C 		.ascii	"\331\374\000|\361\377\203\000\000\000\000\000e\000\000"
 3316      F1FF8300 
 3316      00000000 
 3316      650000
 3317 01d8 006403E8 		.ascii	"\000d\003\350\000d\000(\000\000\000%\000\000\000\000"
 3317      00640028 
 3317      00000025 
 3317      00000000 
 3318 01e8 16A00000 		.ascii	"\026\240\000\000\000\000\020\000\000\000\020\000\000"
 3318      00001000 
 3318      00001000 
 3318      00
 3319 01f5 2F000000 		.ascii	"/\000\000\000\000\001\364\000\000\020\000\000(\000\000"
 3319      0001F400 
 3319      00100000 
 3319      280000
 3320 0204 FFFF4581 		.ascii	"\377\377E\201\377\377\372r\000\000\000\000\000\000\000"
 3320      FFFFFA72 
 3320      00000000 
 3320      000000
 3321 0213 00004400 		.ascii	"\000\000D\000\005\000\005\272\306\000Gx\242\000\000"
 3321      050005BA 
 3321      C6004778 
 3321      A20000
 3322 0222 00010000 		.ascii	"\000\001\000\000\000\000\000\000\006\000\000\000\000"
 3322      00000000 
 3322      06000000 
 3322      00
 3323 022f 14000025 		.ascii	"\024\000\000%M\000/pm\000\000\005\256\000\014\002\320"
 3323      4D002F70 
 3323      6D000005 
 3323      AE000C02 
 3323      D0
 3324 0240 00000000 		.ascii	"\000\000\000\000\000\000\000\000\000\000\000\000\000"
 3324      00000000 
 3324      00000000 
 3324      00
 3325 024d 00000000 		.ascii	"\000\000\000\000\033\000\000\000\000\000\000\000\000"
 3325      1B000000 
ARM GAS  /var/folders/21/t9g5rlb91ys800n5npymflf80000gn/T//ccWnr5oL.s 			page 99


 3325      00000000 
 3325      00
 3326 025a 00000000 		.ascii	"\000\000\000\000\000\000\000d\000\000\000\010\000\000"
 3326      00000064 
 3326      00000008 
 3326      0000
 3327 0268 00000000 		.ascii	"\000\000\000\000\000\000\000\000\000\000\000\000\000"
 3327      00000000 
 3327      00000000 
 3327      00
 3328 0275 00000000 		.ascii	"\000\000\000\000\000\000\000\000\000\000\000\000\000"
 3328      00000000 
 3328      00000000 
 3328      00
 3329 0282 00000000 		.ascii	"\000\000\000\000\000\000\000\000\000\000\000\000\000"
 3329      00000000 
 3329      00000000 
 3329      00
 3330 028f 00000000 		.ascii	"\000\000\000\000\000\000\000\000\000\000\000\000\000"
 3330      00000000 
 3330      00000000 
 3330      00
 3331 029c 00000000 		.ascii	"\000\000\000\000\000\000\000\000\000\000\000\000\000"
 3331      00000000 
 3331      00000000 
 3331      00
 3332 02a9 00000000 		.ascii	"\000\000\000\000\000\000\000\000\000\000\000\000\000"
 3332      00000000 
 3332      00000000 
 3332      00
 3333 02b6 00000000 		.ascii	"\000\000\000\000\000\000\000\000\000\000\000\033\000"
 3333      00000000 
 3333      0000001B 
 3333      00
 3334 02c3 00000000 		.ascii	"\000\000\000\000\000\000\000\000\000\000\016\000\016"
 3334      00000000 
 3334      00000E00 
 3334      0E
 3335 02d0 00000AC7 		.ascii	"\000\000\012\307\000\004\000\000\000\000\0002\377\377"
 3335      00040000 
 3335      00000032 
 3335      FFFF
 3336 02de FF9C0000 		.ascii	"\377\234\000\000\013+\000\000\000\002\000\000\000\001"
 3336      0B2B0000 
 3336      00020000 
 3336      0001
 3337 02ec 00000064 		.ascii	"\000\000\000d\377\345\000\000\000\000\000\000\000\000"
 3337      FFE50000 
 3337      00000000 
 3337      0000
 3338 02fa 00000000 		.ascii	"\000\000\000\000\000\000\000\000\000\001\000\000\000"
 3338      00000000 
 3338      00010000 
 3338      00
 3339 0307 00000100 		.ascii	"\000\000\001\000\000\000\000\000\000\000\001\200\000"
 3339      00000000 
 3339      00000180 
ARM GAS  /var/folders/21/t9g5rlb91ys800n5npymflf80000gn/T//ccWnr5oL.s 			page 100


 3339      00
 3340 0314 00018000 		.ascii	"\000\001\200\000\000\001\200\000\000$&\323\000\000\000"
 3340      00018000 
 3340      002426D3 
 3340      000000
 3341 0323 00000000 		.ascii	"\000\000\000\000\000\000\006\000\020\000\226\000<\000"
 3341      00000600 
 3341      10009600 
 3341      3C00
 3342 0331 00000000 		.ascii	"\000\000\000\000\000\000\000\000\000\000\000\000\000"
 3342      00000000 
 3342      00000000 
 3342      00
 3343 033e 00000C0A 		.ascii	"\000\000\014\012Nh\315\317w\011P\026gY\306\031\316\202"
 3343      4E68CDCF 
 3343      77095016 
 3343      6759C619 
 3343      CE82
 3344 0350 00000000 		.ascii	"\000\000\000\000\000\000\000\000\000\000\000\000\000"
 3344      00000000 
 3344      00000000 
 3344      00
 3345 035d 00000000 		.ascii	"\000\000\000\000\000\000\000\000\000\000\000\027\327"
 3345      00000000 
 3345      00000017 
 3345      D7
 3346 036a 84000300 		.ascii	"\204\000\003\000\000\000\000\000\000\000\000\000\000"
 3346      00000000 
 3346      00000000 
 3346      00
 3347 0377 00C7938F 		.ascii	"\000\307\223\217\235\036\033\034\031\000\000\000\000"
 3347      9D1E1B1C 
 3347      19000000 
 3347      00
 3348 0384 00000000 		.ascii	"\000\000\000\000\000\000\000\000\000\000\000\000\000"
 3348      00000000 
 3348      00000000 
 3348      00
 3349 0391 00000000 		.ascii	"\000\000\000\000\000\000\000\002\003\030\205\000\000"
 3349      00000002 
 3349      03188500 
 3349      00
 3350 039e 40000000 		.ascii	"@\000\000\000\000\003\000\000\000\003\000\000\000\000"
 3350      00030000 
 3350      00030000 
 3350      0000
 3351 03ac 00000000 		.ascii	"\000\000\000\000@\000\000\000\000\000\000\000\000\000"
 3351      40000000 
 3351      00000000 
 3351      0000
 3352 03ba 00000000 		.ascii	"\000\000\000\000\000\000\000\000\000\000\000\000\000"
 3352      00000000 
 3352      00000000 
 3352      00
 3353 03c7 00000000 		.ascii	"\000\000\000\000\000\000\000\000\000\000\000\000\000"
 3353      00000000 
 3353      00000000 
ARM GAS  /var/folders/21/t9g5rlb91ys800n5npymflf80000gn/T//ccWnr5oL.s 			page 101


 3353      00
 3354 03d4 00000000 		.ascii	"\000\000\000\000\000\000\000\000\000\000\000\000\000"
 3354      00000000 
 3354      00000000 
 3354      00
 3355 03e1 00000067 		.ascii	"\000\000\000g}\337~r\220.UL\366\346\210\000\000\000"
 3355      7DDF7E72 
 3355      902E554C 
 3355      F6E68800 
 3355      0000
 3356 03f3 00000000 		.ascii	"\000\000\000\000\000\000\000\000\000\000\000\000\000"
 3356      00000000 
 3356      00000000 
 3356      00
 3357 0400 D8DCB4B8 		.ascii	"\330\334\264\270\260\330\271\253\363\370\372\263\267"
 3357      B0D8B9AB 
 3357      F3F8FAB3 
 3357      B7
 3358 040d BB8E9EAE 		.ascii	"\273\216\236\256\3612\365\033\361\264\270\260\200\227"
 3358      F132F51B 
 3358      F1B4B8B0 
 3358      8097
 3359 041b F1A9DFDF 		.ascii	"\361\251\337\337\337\252\337\337\337\362\252\305\315"
 3359      DFAADFDF 
 3359      DFF2AAC5 
 3359      CD
 3360 0428 C7A90CC9 		.ascii	"\307\251\014\311,\227\361\251\211&Ff\262\211\231\251"
 3360      2C97F1A9 
 3360      89264666 
 3360      B28999A9 
 3361 0438 2D557DB0 		.ascii	"-U}\260\260\212\250\2266Vv\361\272\243\264\262\200\300"
 3361      B08AA896 
 3361      365676F1 
 3361      BAA3B4B2 
 3361      80C0
 3362 044a B8A89711 		.ascii	"\270\250\227\021\262\203\230\272\243\360$\010D\020d"
 3362      B28398BA 
 3362      A3F02408 
 3362      441064
 3363 0459 18B2B9B4 		.ascii	"\030\262\271\264\230\203\361\243)U}\272\265\261\243"
 3363      9883F1A3 
 3363      29557DBA 
 3363      B5B1A3
 3364 0468 8393F000 		.ascii	"\203\223\360\000(P\365\262\266\252\203\223(T|\361\271"
 3364      2850F5B2 
 3364      B6AA8393 
 3364      28547CF1 
 3364      B9
 3365 0479 A3829361 		.ascii	"\243\202\223a\272\242\332\336\337\333\201\232\271\256"
 3365      BAA2DADE 
 3365      DFDB819A 
 3365      B9AE
 3366 0487 F5606870 		.ascii	"\365`hp\361\332\272\242\337\331\272\242\372\271\243"
 3366      F1DABAA2 
 3366      DFD9BAA2 
 3366      FAB9A3
 3367 0496 8292DB31 		.ascii	"\202\222\3331\272\242\331\272\242\370\337\205\244\320"
ARM GAS  /var/folders/21/t9g5rlb91ys800n5npymflf80000gn/T//ccWnr5oL.s 			page 102


 3367      BAA2D9BA 
 3367      A2F8DF85 
 3367      A4D0
 3368 04a4 C1BBAD83 		.ascii	"\301\273\255\203\302\305\307\270\242\337\337\337\272"
 3368      C2C5C7B8 
 3368      A2DFDFDF 
 3368      BA
 3369 04b1 A0DFDFDF 		.ascii	"\240\337\337\337\330\330\361\270\252\263\215\264\230"
 3369      D8D8F1B8 
 3369      AAB38DB4 
 3369      98
 3370 04be 0D355DB2 		.ascii	"\0155]\262\266\272\257\214\226\031\217\237\247\016\026"
 3370      B6BAAF8C 
 3370      96198F9F 
 3370      A70E16
 3371 04cd 1EB49AB8 		.ascii	"\036\264\232\270\252\207,T|\272\244\260\212\266\221"
 3371      AA872C54 
 3371      7CBAA4B0 
 3371      8AB691
 3372 04dc 325676B2 		.ascii	"2Vv\262\204\224\244\310\010\315\330\270\264\260\361"
 3372      8494A4C8 
 3372      08CDD8B8 
 3372      B4B0F1
 3373 04eb 9982A82D 		.ascii	"\231\202\250-U}\230\250\016\026\036\242,T|\222\244\360"
 3373      557D98A8 
 3373      0E161EA2 
 3373      2C547C92 
 3373      A4F0
 3374 04fd 2C5078F1 		.ascii	",Px\361\204\250\230\304\315\374\330\015\333\250\374"
 3374      84A898C4 
 3374      CDFCD80D 
 3374      DBA8FC
 3375 050c 2DF3D9BA 		.ascii	"-\363\331\272\246\370\332\272\246\336\330\272\262\266"
 3375      A6F8DABA 
 3375      A6DED8BA 
 3375      B2B6
 3376 051a 8696A6D0 		.ascii	"\206\226\246\320\363\310A\332\246\310\370\330\260\264"
 3376      F3C841DA 
 3376      A6C8F8D8 
 3376      B0B4
 3377 0528 B882A892 		.ascii	"\270\202\250\222\365,T\210\230\3615\331\364\030\330"
 3377      F52C5488 
 3377      98F135D9 
 3377      F418D8
 3378 0537 F1A2D0F8 		.ascii	"\361\242\320\370\371\250\204\331\307\337\370\370\203"
 3378      F9A884D9 
 3378      C7DFF8F8 
 3378      83
 3379 0544 C5DADF69 		.ascii	"\305\332\337i\337\203\301\330\364\001\024\361\250\202"
 3379      DF83C1D8 
 3379      F40114F1 
 3379      A882
 3380 0552 4EA884F3 		.ascii	"N\250\204\363\021\321\202\365\331\222(\227\210\361\011"
 3380      11D182F5 
 3380      D9922897 
 3380      88F109
 3381 0561 F41C1CD8 		.ascii	"\364\034\034\330\204\250\363\300\371\321\331\227\202"
ARM GAS  /var/folders/21/t9g5rlb91ys800n5npymflf80000gn/T//ccWnr5oL.s 			page 103


 3381      84A8F3C0 
 3381      F9D1D997 
 3381      82
 3382 056e F129F40D 		.ascii	"\361)\364\015\330\363\371\371\321\331\202\364\302\003"
 3382      D8F3F9F9 
 3382      D1D982F4 
 3382      C203
 3383 057c D8DEDF1A 		.ascii	"\330\336\337\032\330\361\242\372\371\250\204\230\331"
 3383      D8F1A2FA 
 3383      F9A88498 
 3383      D9
 3384 0589 C7DFF8F8 		.ascii	"\307\337\370\370\370\203\307\332\337i\337\370\203\303"
 3384      F883C7DA 
 3384      DF69DFF8 
 3384      83C3
 3385 0597 D8F40114 		.ascii	"\330\364\001\024\361\230\250\202.\250\204\363\021\321"
 3385      F198A882 
 3385      2EA884F3 
 3385      11D1
 3386 05a5 82F5D992 		.ascii	"\202\365\331\222P\227\210\361\011\364\034\330\204\250"
 3386      509788F1 
 3386      09F41CD8 
 3386      84A8
 3387 05b3 F3C0F8F9 		.ascii	"\363\300\370\371\321\331\227\202\361I\364\015\330\363"
 3387      D1D99782 
 3387      F149F40D 
 3387      D8F3
 3388 05c1 F9F9D1D9 		.ascii	"\371\371\321\331\202\364\304\003\330\336\337\330\361"
 3388      82F4C403 
 3388      D8DEDFD8 
 3388      F1
 3389 05ce AD8898CC 		.ascii	"\255\210\230\314\250\011\371\331\202\222\250\365|\361"
 3389      A809F9D9 
 3389      8292A8F5 
 3389      7CF1
 3390 05dc 883ACF94 		.ascii	"\210:\317\224Jn\230\333i1\332\255\362\336\371\330\207"
 3390      4A6E98DB 
 3390      6931DAAD 
 3390      F2DEF9D8 
 3390      87
 3391 05ed 95A8F221 		.ascii	"\225\250\362!\321\332\245\371\364\027\331\361\256\216"
 3391      D1DAA5F9 
 3391      F417D9F1 
 3391      AE8E
 3392 05fb D0C0C3AE 		.ascii	"\320\300\303\256\202\306\204\303\250\205\225\310\245"
 3392      82C684C3 
 3392      A88595C8 
 3392      A5
 3393 0608 88F2C0F1 		.ascii	"\210\362\300\361\364\001\016\361\216\236\250\306>V\365"
 3393      F4010EF1 
 3393      8E9EA8C6 
 3393      3E56F5
 3394 0617 54F18872 		.ascii	"T\361\210r\364\001\025\361\230E\205n\365\216\236\004"
 3394      F40115F1 
 3394      9845856E 
 3394      F58E9E04 
 3395 0627 88F14298 		.ascii	"\210\361B\230Z\216\236\006\210i\364\001\034\361\230"
ARM GAS  /var/folders/21/t9g5rlb91ys800n5npymflf80000gn/T//ccWnr5oL.s 			page 104


 3395      5A8E9E06 
 3395      8869F401 
 3395      1CF198
 3396 0636 1E1108D0 		.ascii	"\036\021\010\320\365\004\361\036\227\002\002\2306%\333"
 3396      F504F11E 
 3396      97020298 
 3396      3625DB
 3397 0645 F9D985A5 		.ascii	"\371\331\205\245\363\301\332\205\245\363\337\330\205"
 3397      F3C1DA85 
 3397      A5F3DFD8 
 3397      85
 3398 0652 95A8F309 		.ascii	"\225\250\363\011\332\245\372\330\202\222\250\365x\361"
 3398      DAA5FAD8 
 3398      8292A8F5 
 3398      78F1
 3399 0660 881A849F 		.ascii	"\210\032\204\237&\210\230!\332\364\035\363\330\207\237"
 3399      26889821 
 3399      DAF41DF3 
 3399      D8879F
 3400 066f 39D1AFD9 		.ascii	"9\321\257\331\337\337\373\371\364\014\363\330\372\320"
 3400      DFDFFBF9 
 3400      F40CF3D8 
 3400      FAD0
 3401 067d F8DAF9F9 		.ascii	"\370\332\371\371\320\337\331\371\330\364\013\330\363"
 3401      D0DFD9F9 
 3401      D8F40BD8 
 3401      F3
 3402 068a 879F39D1 		.ascii	"\207\2379\321\257\331\337\337\364\035\363\330\372\374"
 3402      AFD9DFDF 
 3402      F41DF3D8 
 3402      FAFC
 3403 0698 A869F9F9 		.ascii	"\250i\371\371\257\320\332\336\372\331\370\217\237\250"
 3403      AFD0DADE 
 3403      FAD9F88F 
 3403      9FA8
 3404 06a6 F1CCF398 		.ascii	"\361\314\363\230\333E\331\257\337\320\370\330\361\217"
 3404      DB45D9AF 
 3404      DFD0F8D8 
 3404      F18F
 3405 06b4 9FA8CAF3 		.ascii	"\237\250\312\363\210\011\332\257\217\313\370\330\362"
 3405      8809DAAF 
 3405      8FCBF8D8 
 3405      F2
 3406 06c1 AD978D0C 		.ascii	"\255\227\215\014\331\245\337\371\272\246\363\372\364"
 3406      D9A5DFF9 
 3406      BAA6F3FA 
 3406      F4
 3407 06ce 12F2D895 		.ascii	"\022\362\330\225\015\321\331\272\246\363\372\332\245"
 3407      0DD1D9BA 
 3407      A6F3FADA 
 3407      A5
 3408 06db F2C1BAA6 		.ascii	"\362\301\272\246\363\337\330\361\272\262\266\206\226"
 3408      F3DFD8F1 
 3408      BAB2B686 
 3408      96
 3409 06e8 A6D0CAF3 		.ascii	"\246\320\312\363I\332\246\313\370\330\260\264\270\330"
 3409      49DAA6CB 
ARM GAS  /var/folders/21/t9g5rlb91ys800n5npymflf80000gn/T//ccWnr5oL.s 			page 105


 3409      F8D8B0B4 
 3409      B8D8
 3410 06f6 AD84F2C0 		.ascii	"\255\204\362\300\337\361\217\313\303\250\262\266\206"
 3410      DFF18FCB 
 3410      C3A8B2B6 
 3410      86
 3411 0703 96C8C1CB 		.ascii	"\226\310\301\313\303\363\260\264\210\230\250!\333q\215"
 3411      C3F3B0B4 
 3411      8898A821 
 3411      DB718D
 3412 0712 9D718595 		.ascii	"\235q\205\225!\331\255\362\372\330\205\227\250(\331"
 3412      21D9ADF2 
 3412      FAD88597 
 3412      A828D9
 3413 0721 F408D8F2 		.ascii	"\364\010\330\362\215)\332\364\005\331\362\205\244\302"
 3413      8D29DAF4 
 3413      05D9F285 
 3413      A4C2
 3414 072f F2D8A88D 		.ascii	"\362\330\250\215\224\001\321\331\364\021\362\330\207"
 3414      9401D1D9 
 3414      F411F2D8 
 3414      87
 3415 073c 21D8F40A 		.ascii	"!\330\364\012\330\362\204\230\250\310\001\321\331\364"
 3415      D8F28498 
 3415      A8C801D1 
 3415      D9F4
 3416 074a 11D8F3A4 		.ascii	"\021\330\363\244\310\273\257\320\362\336\370\370\370"
 3416      C8BBAFD0 
 3416      F2DEF8F8 
 3416      F8
 3417 0757 F8F8F8F8 		.ascii	"\370\370\370\370\370\330\361\270\366\265\271\260\212"
 3417      F8D8F1B8 
 3417      F6B5B9B0 
 3417      8A
 3418 0764 95A3DE3C 		.ascii	"\225\243\336<\243\331\370\330\\\243\331\370\330|\243"
 3418      A3D9F8D8 
 3418      5CA3D9F8 
 3418      D87CA3
 3419 0773 D9F8D8F8 		.ascii	"\331\370\330\370\371\321\245\331\337\332\372\330\261"
 3419      F9D1A5D9 
 3419      DFDAFAD8 
 3419      B1
 3420 0780 8530F7D9 		.ascii	"\2050\367\331\336\330\3700\255\332\336\330\362\264\214"
 3420      DED8F830 
 3420      ADDADED8 
 3420      F2B48C
 3421 078f 99A32D55 		.ascii	"\231\243-U}\240\203\337\337\337\265\221\240\366)\331"
 3421      7DA083DF 
 3421      DFDFB591 
 3421      A0F629D9 
 3422 079f FBD8A0FC 		.ascii	"\373\330\240\374)\331\372\330\240\320Q\331\370\330\374"
 3422      29D9FAD8 
 3422      A0D051D9 
 3422      F8D8FC
 3423 07ae 51D9F9D8 		.ascii	"Q\331\371\330y\331\373\330\240\320\374y\331\372\330"
 3423      79D9FBD8 
 3423      A0D0FC79 
ARM GAS  /var/folders/21/t9g5rlb91ys800n5npymflf80000gn/T//ccWnr5oL.s 			page 106


 3423      D9FAD8
 3424 07bd A1F9F9F9 		.ascii	"\241\371\371\371\371\371\240\332\337\337\337\330\241"
 3424      F9F9A0DA 
 3424      DFDFDFD8 
 3424      A1
 3425 07ca F8F8F8F8 		.ascii	"\370\370\370\370\370\254"
 3425      F8AC
 3426 07d0 DEF8ADDE 		.ascii	"\336\370\255\336\203\223\254,T|\361\250\337\337\337"
 3426      8393AC2C 
 3426      547CF1A8 
 3426      DFDFDF
 3427 07df F69D2CDA 		.ascii	"\366\235,\332\240\337\331\372\333-\370\330\250P\332"
 3427      A0DFD9FA 
 3427      DB2DF8D8 
 3427      A850DA
 3428 07ee A0D0DED9 		.ascii	"\240\320\336\331\320\370\370\370\333U\370\330\250x\332"
 3428      D0F8F8F8 
 3428      DB55F8D8 
 3428      A878DA
 3429 07fd A0D0DFD9 		.ascii	"\240\320\337\331\320\372\370\370\370\370\333}\370\330"
 3429      D0FAF8F8 
 3429      F8F8DB7D 
 3429      F8D8
 3430 080b 9CA88CF5 		.ascii	"\234\250\214\3650\3338\331\320\336\337\240\320\336\337"
 3430      30DB38D9 
 3430      D0DEDFA0 
 3430      D0DEDF
 3431 081a D8A848DB 		.ascii	"\330\250H\333X\331\337\320\336\240\337\320\336\330\250"
 3431      58D9DFD0 
 3431      DEA0DFD0 
 3431      DED8A8
 3432 0829 68DB70D9 		.ascii	"h\333p\331\337\337\240\337\337\330\361\250\210\220,"
 3432      DFDFA0DF 
 3432      DFD8F1A8 
 3432      88902C
 3433 0838 547C98A8 		.ascii	"T|\230\250\320\\8\321\332\362\256\214\337\371\330\260"
 3433      D05C38D1 
 3433      DAF2AE8C 
 3433      DFF9D8B0 
 3434 0848 87A8C1C1 		.ascii	"\207\250\301\301\261\210\250\306\371\371\3326\330\250"
 3434      B188A8C6 
 3434      F9F9DA36 
 3434      D8A8
 3435 0856 F9DA36D8 		.ascii	"\371\3326\330\250\371\3326\330\250\371\3326\330\250"
 3435      A8F9DA36 
 3435      D8A8F9DA 
 3435      36D8A8
 3436 0865 F9DA36D8 		.ascii	"\371\3326\330\367\215\235\255\370\030\332\362\256\337"
 3436      F78D9DAD 
 3436      F818DAF2 
 3436      AEDF
 3437 0873 D8F7ADFA 		.ascii	"\330\367\255\3720\331\244\336\371\330\362\256\336\372"
 3437      30D9A4DE 
 3437      F9D8F2AE 
 3437      DEFA
 3438 0881 F983A7D9 		.ascii	"\371\203\247\331\303\305\307\361\210\233\247z\255\367"
 3438      C3C5C7F1 
ARM GAS  /var/folders/21/t9g5rlb91ys800n5npymflf80000gn/T//ccWnr5oL.s 			page 107


 3438      889BA77A 
 3438      ADF7
 3439 088f DEDFA4F8 		.ascii	"\336\337\244\370\204\224\010\247\227\363\000\256\362"
 3439      849408A7 
 3439      97F300AE 
 3439      F2
 3440 089c 9819A488 		.ascii	"\230\031\244\210\306\243\224\210\3662\337\362\203\223"
 3440      C6A39488 
 3440      F632DFF2 
 3440      8393
 3441 08aa DB09D9F2 		.ascii	"\333\011\331\362\252\337\330\330\256\370\371\321\332"
 3441      AADFD8D8 
 3441      AEF8F9D1 
 3441      DA
 3442 08b7 F3A4DEA7 		.ascii	"\363\244\336\247\361\210\233z\330\363\204\224\256\031"
 3442      F1889B7A 
 3442      D8F38494 
 3442      AE19
 3443 08c5 F9DAAAF1 		.ascii	"\371\332\252\361\337\330\250\201\300\303\305\307\243"
 3443      DFD8A881 
 3443      C0C3C5C7 
 3443      A3
 3444 08d2 9283F628 		.ascii	"\222\203\366(\255\336\331\370\330\243P\255\331\370\330"
 3444      ADDED9F8 
 3444      D8A350AD 
 3444      D9F8D8
 3445 08e1 A378ADD9 		.ascii	"\243x\255\331\370\330\370\371\321\241\332\336\303\305"
 3445      F8D8F8F9 
 3445      D1A1DADE 
 3445      C3C5
 3446 08ef C7D8A181 		.ascii	"\307\330\241\201\224\370\030\362\260\211\254\303\305"
 3446      94F818F2 
 3446      B089ACC3 
 3446      C5
 3447 08fc C7F1D8B8 		.ascii	"\307\361\330\270\264\260\227\206\2501\233\006\231\007"
 3447      B4B09786 
 3447      A8319B06 
 3447      9907
 3448 090a AB972888 		.ascii	"\253\227(\210\233\360\014 \024@\260\264\270\360\250"
 3448      9BF00C20 
 3448      1440B0B4 
 3448      B8F0A8
 3449 0919 8A9A2850 		.ascii	"\212\232(Px\267\233\250)Qy$pYDi8dH1\361\273\253\210"
 3449      78B79BA8 
 3449      29517924 
 3449      70594469 
 3449      38644831 
 3450 0931 002C547C 		.ascii	"\000,T|\360\263\213\270\250\004(Px\361\260\210\264\227"
 3450      F0B38BB8 
 3450      A8042850 
 3450      78F1B088 
 3450      B497
 3451 0943 26A85998 		.ascii	"&\250Y\230\273\253\263\213\002&Ff\260\270\360\212\234"
 3451      BBABB38B 
 3451      02264666 
 3451      B0B8F08A 
 3451      9C
ARM GAS  /var/folders/21/t9g5rlb91ys800n5npymflf80000gn/T//ccWnr5oL.s 			page 108


 3452 0954 A8295179 		.ascii	"\250)Qy\213)Qy\212$pY\213 Xq\212Di8\2139@h\212dH1\213"
 3452      8B295179 
 3452      8A247059 
 3452      8B205871 
 3452      8A446938 
 3453 0971 30496088 		.ascii	"0I`\210\361\254\000,T|\360\214\250\004(Px\361\210\227"
 3453      F1AC002C 
 3453      547CF08C 
 3453      A8042850 
 3453      78F18897 
 3454 0985 26A85998 		.ascii	"&\250Y\230\254\214\002&Ff\360\211\234\250)Qy$pYDi8d"
 3454      AC8C0226 
 3454      4666F089 
 3454      9CA82951 
 3454      79247059 
 3455 099d 4831A988 		.ascii	"H1\251\210\011 Yp\253\0218@i\250\0311H`\214\250<A\\"
 3455      09205970 
 3455      AB113840 
 3455      69A81931 
 3455      48608CA8 
 3456 09b4 207C00F1 		.ascii	" |\000\361\207\230\031\206\250nv~\251\231\210-U}\330"
 3456      87981986 
 3456      A86E767E 
 3456      A999882D 
 3456      557DD8
 3457 09c7 B1B5B9A3 		.ascii	"\261\265\271\243\337\337\337\256\320\337\252\320\336"
 3457      DFDFDFAE 
 3457      D0DFAAD0 
 3457      DE
 3458 09d4 F2ABF8F9 		.ascii	"\362\253\370\371\331\260\207\304\252\361\337\337\273"
 3458      D9B087C4 
 3458      AAF1DFDF 
 3458      BB
 3459 09e1 AFDFDFB9 		.ascii	"\257\337\337\271\330\261\361\243\227\216`\337\260\204"
 3459      D8B1F1A3 
 3459      978E60DF 
 3459      B084
 3460 09ef F2C8F8F9 		.ascii	"\362\310\370\371\331\336\330\223\205\361J\261\203\243"
 3460      D9DED893 
 3460      85F14AB1 
 3460      83A3
 3461 09fd 08B5839A 		.ascii	"\010\265\203\232\010\020\267\237\020\330\361\260\272"
 3461      0810B79F 
 3461      10D8F1B0 
 3461      BA
 3462 0a0a AEB08AC2 		.ascii	"\256\260\212\302\262\266\216\236\361\373\331\364\035"
 3462      B2B68E9E 
 3462      F1FBD9F4 
 3462      1D
 3463 0a17 D8F9D90C 		.ascii	"\330\371\331\014\361\330\370\370\255a\331\256\373\330"
 3463      F1D8F8F8 
 3463      AD61D9AE 
 3463      FBD8
 3464 0a25 F40CF1D8 		.ascii	"\364\014\361\330\370\370\255\031\331\256\373\337\330"
 3464      F8F8AD19 
 3464      D9AEFBDF 
 3464      D8
ARM GAS  /var/folders/21/t9g5rlb91ys800n5npymflf80000gn/T//ccWnr5oL.s 			page 109


 3465 0a32 F416F1D8 		.ascii	"\364\026\361\330\370\255\215a\331\364\364\254\365\234"
 3465      F8AD8D61 
 3465      D9F4F4AC 
 3465      F59C
 3466 0a40 9C8DDF2B 		.ascii	"\234\215\337+\272\266\256\372\370\364\013\330\361\256"
 3466      BAB6AEFA 
 3466      F8F40BD8 
 3466      F1AE
 3467 0a4e D0F8AD51 		.ascii	"\320\370\255Q\332\256\372\370\361\330\271\261\266\243"
 3467      DAAEFAF8 
 3467      F1D8B9B1 
 3467      B6A3
 3468 0a5c 839C08B9 		.ascii	"\203\234\010\271\261\203\232\265\252\300\3750\203\267"
 3468      B1839AB5 
 3468      AAC0FD30 
 3468      83B7
 3469 0a6a 9F10B58B 		.ascii	"\237\020\265\213\223\362\002\002\321\253\332\336\330"
 3469      93F20202 
 3469      D1ABDADE 
 3469      D8
 3470 0a77 F1B080BA 		.ascii	"\361\260\200\272\253\300\303\262\204\301\303\330\261"
 3470      ABC0C3B2 
 3470      84C1C3D8 
 3470      B1
 3471 0a84 B9F38BA3 		.ascii	"\271\363\213\243\221\266\011\264\331\253\336\260\207"
 3471      91B609B4 
 3471      D9ABDEB0 
 3471      87
 3472 0a91 9CB9A3DD 		.ascii	"\234\271\243\335\361\263\213\213\213\213\213\260\207"
 3472      F1B38B8B 
 3472      8B8B8BB0 
 3472      87
 3473 0a9e A3A3A3A3 		.ascii	"\243\243\243\243\262\213\266\233\362\243\243\243\243"
 3473      B28BB69B 
 3473      F2A3A3A3 
 3473      A3
 3474 0aab A3A3A3A3 		.ascii	"\243\243\243\243\243\243\361\260\207\265\232\243\363"
 3474      A3A3F1B0 
 3474      87B59AA3 
 3474      F3
 3475 0ab8 9BA3A3DC 		.ascii	"\233\243\243\334\272\254\337\271\243\243\243\243\243"
 3475      BAACDFB9 
 3475      A3A3A3A3 
 3475      A3
 3476 0ac5 A3A3A3A3 		.ascii	"\243\243\243\243\243\243\243\243\243\243\243\330\330"
 3476      A3A3A3A3 
 3476      A3A3A3D8 
 3476      D8
 3477 0ad2 D8BBB3B7 		.ascii	"\330\273\263\267\361\252\371\332\377\331\200\232\252"
 3477      F1AAF9DA 
 3477      FFD9809A 
 3477      AA
 3478 0adf 28B48098 		.ascii	"(\264\200\230\247 \267\227\207\250f\210\360yQ\361\220"
 3478      A720B797 
 3478      87A86688 
 3478      F07951F1 
 3478      90
ARM GAS  /var/folders/21/t9g5rlb91ys800n5npymflf80000gn/T//ccWnr5oL.s 			page 110


 3479 0af0 2C870CA7 		.ascii	",\207\014\247\201\227b\223\360qq`\205\224\001)Qy\220"
 3479      81976293 
 3479      F0717160 
 3479      85940129 
 3479      517990
 3480 0b03 A5F1284C 		.ascii	"\245\361(Ll\207\014\225\030\205x\243\203\220(Ll\210"
 3480      6C870C95 
 3480      188578A3 
 3480      8390284C 
 3480      6C88
 3481 0b15 6CD8F3A2 		.ascii	"l\330\363\242\202\000\362\020\250\222\031\200\242\362"
 3481      8200F210 
 3481      A8921980 
 3481      A2F2
 3482 0b23 D926D8F1 		.ascii	"\331&\330\361\210\250M\331H\330\226\2509\200\331<\330"
 3482      88A84DD9 
 3482      48D896A8 
 3482      3980D93C 
 3482      D8
 3483 0b34 9580A839 		.ascii	"\225\200\2509\246\206\230\331,\332\207\247,\330\250"
 3483      A68698D9 
 3483      2CDA87A7 
 3483      2CD8A8
 3484 0b43 899519A9 		.ascii	"\211\225\031\251\200\3318\330\250\2119\251\200\332<"
 3484      80D938D8 
 3484      A88939A9 
 3484      80DA3C
 3485 0b52 D8A82EA8 		.ascii	"\330\250.\2509\220\331\014\330\250\2251\230\331\014"
 3485      3990D90C 
 3485      D8A89531 
 3485      98D90C
 3486 0b61 D8A809D9 		.ascii	"\330\250\011\331\377\330\001\332\377\330\2259\251\332"
 3486      FFD801DA 
 3486      FFD89539 
 3486      A9DA
 3487 0b6f 26FFD890 		.ascii	"&\377\330\220\250\015\211\231\250\020\200\230!\332."
 3487      A80D8999 
 3487      A8108098 
 3487      21DA2E
 3488 0b7e D88999A8 		.ascii	"\330\211\231\2501\200\332.\330\250\206\2261\200\332"
 3488      3180DA2E 
 3488      D8A88696 
 3488      3180DA
 3489 0b8d 2ED8A887 		.ascii	".\330\250\2071\200\332.\330\250\202\222\363A\200\361"
 3489      3180DA2E 
 3489      D8A88292 
 3489      F34180F1 
 3490 0b9d D92ED8A8 		.ascii	"\331.\330\250\202\363\031\200\361\331.\330\202\254\363"
 3490      82F31980 
 3490      F1D92ED8 
 3490      82ACF3
 3491 0bac C0A28022 		.ascii	"\300\242\200\"\361\246.\247.\251\"\230\250)\332\254"
 3491      F1A62EA7 
 3491      2EA92298 
 3491      A829DAAC 
 3492 0bbc DEFFD8A2 		.ascii	"\336\377\330\242\362*\361\251.\202\222\250\3621\200"
 3492      F22AF1A9 
ARM GAS  /var/folders/21/t9g5rlb91ys800n5npymflf80000gn/T//ccWnr5oL.s 			page 111


 3492      2E8292A8 
 3492      F23180
 3493 0bcb A696F1D9 		.ascii	"\246\226\361\331\000\254\214\234\0140\254\336\320\336"
 3493      00AC8C9C 
 3493      0C30ACDE 
 3493      D0DE
 3494 0bd9 FFD88C9C 		.ascii	"\377\330\214\234\254\320\020\254\336\200\222\242\362"
 3494      ACD010AC 
 3494      DE8092A2 
 3494      F2
 3495 0be6 4C82A8F1 		.ascii	"L\202\250\361\312\3625\361\226\210\246\331\000\330\361"
 3495      CAF235F1 
 3495      9688A6D9 
 3495      00D8F1
 3496 0bf5 FF       		.ascii	"\377"
 3497              		.text
 3498              	.Letext0:
 3499              		.file 2 "DMP/driver/eMPL/inv_mpu.h"
ARM GAS  /var/folders/21/t9g5rlb91ys800n5npymflf80000gn/T//ccWnr5oL.s 			page 112


DEFINED SYMBOLS
                            *ABS*:00000000 inv_mpu_dmp_motion_driver.c
/var/folders/21/t9g5rlb91ys800n5npymflf80000gn/T//ccWnr5oL.s:21     .text.decode_gesture:00000000 $t
/var/folders/21/t9g5rlb91ys800n5npymflf80000gn/T//ccWnr5oL.s:26     .text.decode_gesture:00000000 decode_gesture
/var/folders/21/t9g5rlb91ys800n5npymflf80000gn/T//ccWnr5oL.s:106    .text.decode_gesture:00000038 $d
/var/folders/21/t9g5rlb91ys800n5npymflf80000gn/T//ccWnr5oL.s:3278   .bss.dmp:00000000 dmp
/var/folders/21/t9g5rlb91ys800n5npymflf80000gn/T//ccWnr5oL.s:111    .text.get_tick_count:00000000 $t
/var/folders/21/t9g5rlb91ys800n5npymflf80000gn/T//ccWnr5oL.s:117    .text.get_tick_count:00000000 get_tick_count
/var/folders/21/t9g5rlb91ys800n5npymflf80000gn/T//ccWnr5oL.s:131    .text.dmp_load_motion_driver_firmware:00000000 $t
/var/folders/21/t9g5rlb91ys800n5npymflf80000gn/T//ccWnr5oL.s:137    .text.dmp_load_motion_driver_firmware:00000000 dmp_load_motion_driver_firmware
/var/folders/21/t9g5rlb91ys800n5npymflf80000gn/T//ccWnr5oL.s:161    .text.dmp_load_motion_driver_firmware:00000014 $d
/var/folders/21/t9g5rlb91ys800n5npymflf80000gn/T//ccWnr5oL.s:3284   .rodata.dmp_memory:00000000 dmp_memory
/var/folders/21/t9g5rlb91ys800n5npymflf80000gn/T//ccWnr5oL.s:166    .rodata.dmp_set_orientation.str1.4:00000000 $d
/var/folders/21/t9g5rlb91ys800n5npymflf80000gn/T//ccWnr5oL.s:179    .text.dmp_set_orientation:00000000 $t
/var/folders/21/t9g5rlb91ys800n5npymflf80000gn/T//ccWnr5oL.s:185    .text.dmp_set_orientation:00000000 dmp_set_orientation
/var/folders/21/t9g5rlb91ys800n5npymflf80000gn/T//ccWnr5oL.s:395    .text.dmp_set_orientation:00000138 $d
/var/folders/21/t9g5rlb91ys800n5npymflf80000gn/T//ccWnr5oL.s:404    .text.dmp_set_gyro_bias:00000000 $t
/var/folders/21/t9g5rlb91ys800n5npymflf80000gn/T//ccWnr5oL.s:410    .text.dmp_set_gyro_bias:00000000 dmp_set_gyro_bias
/var/folders/21/t9g5rlb91ys800n5npymflf80000gn/T//ccWnr5oL.s:622    .text.dmp_set_gyro_bias:00000108 $d
/var/folders/21/t9g5rlb91ys800n5npymflf80000gn/T//ccWnr5oL.s:628    .text.dmp_set_accel_bias:00000000 $t
/var/folders/21/t9g5rlb91ys800n5npymflf80000gn/T//ccWnr5oL.s:634    .text.dmp_set_accel_bias:00000000 dmp_set_accel_bias
/var/folders/21/t9g5rlb91ys800n5npymflf80000gn/T//ccWnr5oL.s:835    .text.dmp_set_accel_bias:000000f4 $d
/var/folders/21/t9g5rlb91ys800n5npymflf80000gn/T//ccWnr5oL.s:840    .rodata.dmp_set_fifo_rate.str1.4:00000000 $d
/var/folders/21/t9g5rlb91ys800n5npymflf80000gn/T//ccWnr5oL.s:844    .text.dmp_set_fifo_rate:00000000 $t
/var/folders/21/t9g5rlb91ys800n5npymflf80000gn/T//ccWnr5oL.s:850    .text.dmp_set_fifo_rate:00000000 dmp_set_fifo_rate
/var/folders/21/t9g5rlb91ys800n5npymflf80000gn/T//ccWnr5oL.s:946    .text.dmp_set_fifo_rate:00000060 $d
/var/folders/21/t9g5rlb91ys800n5npymflf80000gn/T//ccWnr5oL.s:952    .text.dmp_get_fifo_rate:00000000 $t
/var/folders/21/t9g5rlb91ys800n5npymflf80000gn/T//ccWnr5oL.s:958    .text.dmp_get_fifo_rate:00000000 dmp_get_fifo_rate
/var/folders/21/t9g5rlb91ys800n5npymflf80000gn/T//ccWnr5oL.s:981    .text.dmp_get_fifo_rate:0000000c $d
/var/folders/21/t9g5rlb91ys800n5npymflf80000gn/T//ccWnr5oL.s:986    .text.dmp_set_tap_thresh:00000000 $t
/var/folders/21/t9g5rlb91ys800n5npymflf80000gn/T//ccWnr5oL.s:992    .text.dmp_set_tap_thresh:00000000 dmp_set_tap_thresh
/var/folders/21/t9g5rlb91ys800n5npymflf80000gn/T//ccWnr5oL.s:1045   .text.dmp_set_tap_thresh:00000042 $d
/var/folders/21/t9g5rlb91ys800n5npymflf80000gn/T//ccWnr5oL.s:1318   .text.dmp_set_tap_thresh:000001b0 $d
/var/folders/21/t9g5rlb91ys800n5npymflf80000gn/T//ccWnr5oL.s:1331   .text.dmp_set_tap_axes:00000000 $t
/var/folders/21/t9g5rlb91ys800n5npymflf80000gn/T//ccWnr5oL.s:1337   .text.dmp_set_tap_axes:00000000 dmp_set_tap_axes
/var/folders/21/t9g5rlb91ys800n5npymflf80000gn/T//ccWnr5oL.s:1404   .text.dmp_set_tap_count:00000000 $t
/var/folders/21/t9g5rlb91ys800n5npymflf80000gn/T//ccWnr5oL.s:1410   .text.dmp_set_tap_count:00000000 dmp_set_tap_count
/var/folders/21/t9g5rlb91ys800n5npymflf80000gn/T//ccWnr5oL.s:1465   .text.dmp_set_tap_time:00000000 $t
/var/folders/21/t9g5rlb91ys800n5npymflf80000gn/T//ccWnr5oL.s:1471   .text.dmp_set_tap_time:00000000 dmp_set_tap_time
/var/folders/21/t9g5rlb91ys800n5npymflf80000gn/T//ccWnr5oL.s:1520   .text.dmp_set_tap_time:0000002c $d
/var/folders/21/t9g5rlb91ys800n5npymflf80000gn/T//ccWnr5oL.s:1525   .text.dmp_set_tap_time_multi:00000000 $t
/var/folders/21/t9g5rlb91ys800n5npymflf80000gn/T//ccWnr5oL.s:1531   .text.dmp_set_tap_time_multi:00000000 dmp_set_tap_time_multi
/var/folders/21/t9g5rlb91ys800n5npymflf80000gn/T//ccWnr5oL.s:1580   .text.dmp_set_tap_time_multi:0000002c $d
/var/folders/21/t9g5rlb91ys800n5npymflf80000gn/T//ccWnr5oL.s:1585   .text.dmp_set_shake_reject_thresh:00000000 $t
/var/folders/21/t9g5rlb91ys800n5npymflf80000gn/T//ccWnr5oL.s:1591   .text.dmp_set_shake_reject_thresh:00000000 dmp_set_shake_reject_thresh
/var/folders/21/t9g5rlb91ys800n5npymflf80000gn/T//ccWnr5oL.s:1655   .text.dmp_set_shake_reject_thresh:00000040 $d
/var/folders/21/t9g5rlb91ys800n5npymflf80000gn/T//ccWnr5oL.s:1660   .text.dmp_set_shake_reject_time:00000000 $t
/var/folders/21/t9g5rlb91ys800n5npymflf80000gn/T//ccWnr5oL.s:1666   .text.dmp_set_shake_reject_time:00000000 dmp_set_shake_reject_time
/var/folders/21/t9g5rlb91ys800n5npymflf80000gn/T//ccWnr5oL.s:1713   .text.dmp_set_shake_reject_time:00000028 $d
/var/folders/21/t9g5rlb91ys800n5npymflf80000gn/T//ccWnr5oL.s:1718   .text.dmp_set_shake_reject_timeout:00000000 $t
/var/folders/21/t9g5rlb91ys800n5npymflf80000gn/T//ccWnr5oL.s:1724   .text.dmp_set_shake_reject_timeout:00000000 dmp_set_shake_reject_timeout
/var/folders/21/t9g5rlb91ys800n5npymflf80000gn/T//ccWnr5oL.s:1771   .text.dmp_set_shake_reject_timeout:00000028 $d
/var/folders/21/t9g5rlb91ys800n5npymflf80000gn/T//ccWnr5oL.s:1776   .text.dmp_get_pedometer_step_count:00000000 $t
/var/folders/21/t9g5rlb91ys800n5npymflf80000gn/T//ccWnr5oL.s:1782   .text.dmp_get_pedometer_step_count:00000000 dmp_get_pedometer_step_count
/var/folders/21/t9g5rlb91ys800n5npymflf80000gn/T//ccWnr5oL.s:1865   .text.dmp_set_pedometer_step_count:00000000 $t
/var/folders/21/t9g5rlb91ys800n5npymflf80000gn/T//ccWnr5oL.s:1871   .text.dmp_set_pedometer_step_count:00000000 dmp_set_pedometer_step_count
/var/folders/21/t9g5rlb91ys800n5npymflf80000gn/T//ccWnr5oL.s:1924   .text.dmp_get_pedometer_walk_time:00000000 $t
ARM GAS  /var/folders/21/t9g5rlb91ys800n5npymflf80000gn/T//ccWnr5oL.s 			page 113


/var/folders/21/t9g5rlb91ys800n5npymflf80000gn/T//ccWnr5oL.s:1930   .text.dmp_get_pedometer_walk_time:00000000 dmp_get_pedometer_walk_time
/var/folders/21/t9g5rlb91ys800n5npymflf80000gn/T//ccWnr5oL.s:2016   .text.dmp_set_pedometer_walk_time:00000000 $t
/var/folders/21/t9g5rlb91ys800n5npymflf80000gn/T//ccWnr5oL.s:2022   .text.dmp_set_pedometer_walk_time:00000000 dmp_set_pedometer_walk_time
/var/folders/21/t9g5rlb91ys800n5npymflf80000gn/T//ccWnr5oL.s:2080   .text.dmp_set_pedometer_walk_time:0000003c $d
/var/folders/21/t9g5rlb91ys800n5npymflf80000gn/T//ccWnr5oL.s:2085   .text.dmp_get_enabled_features:00000000 $t
/var/folders/21/t9g5rlb91ys800n5npymflf80000gn/T//ccWnr5oL.s:2091   .text.dmp_get_enabled_features:00000000 dmp_get_enabled_features
/var/folders/21/t9g5rlb91ys800n5npymflf80000gn/T//ccWnr5oL.s:2114   .text.dmp_get_enabled_features:0000000c $d
/var/folders/21/t9g5rlb91ys800n5npymflf80000gn/T//ccWnr5oL.s:2119   .rodata.dmp_enable_gyro_cal.str1.4:00000000 $d
/var/folders/21/t9g5rlb91ys800n5npymflf80000gn/T//ccWnr5oL.s:2126   .text.dmp_enable_gyro_cal:00000000 $t
/var/folders/21/t9g5rlb91ys800n5npymflf80000gn/T//ccWnr5oL.s:2132   .text.dmp_enable_gyro_cal:00000000 dmp_enable_gyro_cal
/var/folders/21/t9g5rlb91ys800n5npymflf80000gn/T//ccWnr5oL.s:2201   .text.dmp_enable_gyro_cal:0000003c $d
/var/folders/21/t9g5rlb91ys800n5npymflf80000gn/T//ccWnr5oL.s:2208   .text.dmp_enable_lp_quat:00000000 $t
/var/folders/21/t9g5rlb91ys800n5npymflf80000gn/T//ccWnr5oL.s:2214   .text.dmp_enable_lp_quat:00000000 dmp_enable_lp_quat
/var/folders/21/t9g5rlb91ys800n5npymflf80000gn/T//ccWnr5oL.s:2281   .text.dmp_enable_6x_lp_quat:00000000 $t
/var/folders/21/t9g5rlb91ys800n5npymflf80000gn/T//ccWnr5oL.s:2287   .text.dmp_enable_6x_lp_quat:00000000 dmp_enable_6x_lp_quat
/var/folders/21/t9g5rlb91ys800n5npymflf80000gn/T//ccWnr5oL.s:2354   .text.dmp_enable_feature:00000000 $t
/var/folders/21/t9g5rlb91ys800n5npymflf80000gn/T//ccWnr5oL.s:2360   .text.dmp_enable_feature:00000000 dmp_enable_feature
/var/folders/21/t9g5rlb91ys800n5npymflf80000gn/T//ccWnr5oL.s:2750   .text.dmp_enable_feature:00000210 $d
/var/folders/21/t9g5rlb91ys800n5npymflf80000gn/T//ccWnr5oL.s:2756   .rodata.dmp_set_interrupt_mode.str1.4:00000000 $d
/var/folders/21/t9g5rlb91ys800n5npymflf80000gn/T//ccWnr5oL.s:2763   .text.dmp_set_interrupt_mode:00000000 $t
/var/folders/21/t9g5rlb91ys800n5npymflf80000gn/T//ccWnr5oL.s:2769   .text.dmp_set_interrupt_mode:00000000 dmp_set_interrupt_mode
/var/folders/21/t9g5rlb91ys800n5npymflf80000gn/T//ccWnr5oL.s:2840   .text.dmp_set_interrupt_mode:00000058 $d
/var/folders/21/t9g5rlb91ys800n5npymflf80000gn/T//ccWnr5oL.s:2846   .text.dmp_read_fifo:00000000 $t
/var/folders/21/t9g5rlb91ys800n5npymflf80000gn/T//ccWnr5oL.s:2852   .text.dmp_read_fifo:00000000 dmp_read_fifo
/var/folders/21/t9g5rlb91ys800n5npymflf80000gn/T//ccWnr5oL.s:3206   .text.dmp_read_fifo:000001e4 $d
/var/folders/21/t9g5rlb91ys800n5npymflf80000gn/T//ccWnr5oL.s:3211   .text.dmp_register_tap_cb:00000000 $t
/var/folders/21/t9g5rlb91ys800n5npymflf80000gn/T//ccWnr5oL.s:3217   .text.dmp_register_tap_cb:00000000 dmp_register_tap_cb
/var/folders/21/t9g5rlb91ys800n5npymflf80000gn/T//ccWnr5oL.s:3238   .text.dmp_register_tap_cb:00000008 $d
/var/folders/21/t9g5rlb91ys800n5npymflf80000gn/T//ccWnr5oL.s:3243   .text.dmp_register_android_orient_cb:00000000 $t
/var/folders/21/t9g5rlb91ys800n5npymflf80000gn/T//ccWnr5oL.s:3249   .text.dmp_register_android_orient_cb:00000000 dmp_register_android_orient_cb
/var/folders/21/t9g5rlb91ys800n5npymflf80000gn/T//ccWnr5oL.s:3270   .text.dmp_register_android_orient_cb:00000008 $d
/var/folders/21/t9g5rlb91ys800n5npymflf80000gn/T//ccWnr5oL.s:3275   .bss.dmp:00000000 $d
/var/folders/21/t9g5rlb91ys800n5npymflf80000gn/T//ccWnr5oL.s:3281   .rodata.dmp_memory:00000000 $d
/var/folders/21/t9g5rlb91ys800n5npymflf80000gn/T//ccWnr5oL.s:1060   .text.dmp_set_tap_thresh:00000051 $d
/var/folders/21/t9g5rlb91ys800n5npymflf80000gn/T//ccWnr5oL.s:1060   .text.dmp_set_tap_thresh:00000052 $t

UNDEFINED SYMBOLS
mpu_load_firmware
mpu_write_mem
mpu_get_accel_sens
mpu_get_accel_fsr
mpu_read_mem
mpu_reset_fifo
mpu_read_fifo_stream
