ARM GAS  /var/folders/21/t9g5rlb91ys800n5npymflf80000gn/T//ccRXhZ8G.s 			page 1


   1              		.cpu cortex-m4
   2              		.arch armv7e-m
   3              		.fpu fpv4-sp-d16
   4              		.eabi_attribute 27, 1
   5              		.eabi_attribute 28, 1
   6              		.eabi_attribute 20, 1
   7              		.eabi_attribute 21, 1
   8              		.eabi_attribute 23, 3
   9              		.eabi_attribute 24, 1
  10              		.eabi_attribute 25, 1
  11              		.eabi_attribute 26, 1
  12              		.eabi_attribute 30, 1
  13              		.eabi_attribute 34, 1
  14              		.eabi_attribute 18, 4
  15              		.file	"log_stm32.c"
  16              		.text
  17              	.Ltext0:
  18              		.cfi_sections	.debug_frame
  19              		.file 1 "DMP/driver/stm32L/log_stm32.c"
  20              		.section	.text.fputcc,"ax",%progbits
  21              		.align	1
  22              		.global	fputcc
  23              		.syntax unified
  24              		.thumb
  25              		.thumb_func
  27              	fputcc:
  28              	.LVL0:
  29              	.LFB143:
   1:DMP/driver/stm32L/log_stm32.c **** /*
   2:DMP/driver/stm32L/log_stm32.c ****  $License:
   3:DMP/driver/stm32L/log_stm32.c ****     Copyright (C) 2010 InvenSense Corporation, All Rights Reserved.
   4:DMP/driver/stm32L/log_stm32.c ****  $
   5:DMP/driver/stm32L/log_stm32.c ****  */
   6:DMP/driver/stm32L/log_stm32.c **** /*******************************************************************************
   7:DMP/driver/stm32L/log_stm32.c ****  * $Id: $
   8:DMP/driver/stm32L/log_stm32.c ****  *******************************************************************************/
   9:DMP/driver/stm32L/log_stm32.c **** 
  10:DMP/driver/stm32L/log_stm32.c **** /**
  11:DMP/driver/stm32L/log_stm32.c ****  *  @defgroup MSP430_System_Layer MSP430 System Layer
  12:DMP/driver/stm32L/log_stm32.c ****  *  @brief  MSP430 System Layer APIs.
  13:DMP/driver/stm32L/log_stm32.c ****  *          To interface with any platform, eMPL needs access to various
  14:DMP/driver/stm32L/log_stm32.c ****  *          system layer functions.
  15:DMP/driver/stm32L/log_stm32.c ****  *
  16:DMP/driver/stm32L/log_stm32.c ****  *  @{
  17:DMP/driver/stm32L/log_stm32.c ****  *      @file   log_msp430.c
  18:DMP/driver/stm32L/log_stm32.c ****  *      @brief  Logging facility for the TI MSP430.
  19:DMP/driver/stm32L/log_stm32.c ****  */
  20:DMP/driver/stm32L/log_stm32.c **** 
  21:DMP/driver/stm32L/log_stm32.c **** #include <stdarg.h>
  22:DMP/driver/stm32L/log_stm32.c **** #include <stdint.h>
  23:DMP/driver/stm32L/log_stm32.c **** #include <stdio.h>
  24:DMP/driver/stm32L/log_stm32.c **** #include <stdlib.h>
  25:DMP/driver/stm32L/log_stm32.c **** #include <string.h>
  26:DMP/driver/stm32L/log_stm32.c **** 
  27:DMP/driver/stm32L/log_stm32.c **** #include "log.h"
  28:DMP/driver/stm32L/log_stm32.c **** #include "packet.h"
  29:DMP/driver/stm32L/log_stm32.c **** #include "stm32g4xx.h"
ARM GAS  /var/folders/21/t9g5rlb91ys800n5npymflf80000gn/T//ccRXhZ8G.s 			page 2


  30:DMP/driver/stm32L/log_stm32.c **** #include "stm32g4xx_hal_uart.h"
  31:DMP/driver/stm32L/log_stm32.c **** #include "usart.h"
  32:DMP/driver/stm32L/log_stm32.c **** 
  33:DMP/driver/stm32L/log_stm32.c **** #define BUF_SIZE (256)
  34:DMP/driver/stm32L/log_stm32.c **** #define PACKET_LENGTH (23)
  35:DMP/driver/stm32L/log_stm32.c **** 
  36:DMP/driver/stm32L/log_stm32.c **** #define PACKET_DEBUG (1)
  37:DMP/driver/stm32L/log_stm32.c **** #define PACKET_QUAT (2)
  38:DMP/driver/stm32L/log_stm32.c **** #define PACKET_DATA (3)
  39:DMP/driver/stm32L/log_stm32.c **** 
  40:DMP/driver/stm32L/log_stm32.c **** int fputcc(int ch) {
  30              		.loc 1 40 20 view -0
  31              		.cfi_startproc
  32              		@ args = 0, pretend = 0, frame = 8
  33              		@ frame_needed = 0, uses_anonymous_args = 0
  34              		.loc 1 40 20 is_stmt 0 view .LVU1
  35 0000 00B5     		push	{lr}
  36              	.LCFI0:
  37              		.cfi_def_cfa_offset 4
  38              		.cfi_offset 14, -4
  39 0002 83B0     		sub	sp, sp, #12
  40              	.LCFI1:
  41              		.cfi_def_cfa_offset 16
  42 0004 0190     		str	r0, [sp, #4]
  41:DMP/driver/stm32L/log_stm32.c ****   HAL_UART_Transmit(&huart1, (uint8_t *)&ch, 1, 0xffff);
  43              		.loc 1 41 3 is_stmt 1 view .LVU2
  44 0006 4FF6FF73 		movw	r3, #65535
  45 000a 0122     		movs	r2, #1
  46 000c 01A9     		add	r1, sp, #4
  47 000e 0348     		ldr	r0, .L3
  48              	.LVL1:
  49              		.loc 1 41 3 is_stmt 0 view .LVU3
  50 0010 FFF7FEFF 		bl	HAL_UART_Transmit
  51              	.LVL2:
  42:DMP/driver/stm32L/log_stm32.c ****   return ch;
  52              		.loc 1 42 3 is_stmt 1 view .LVU4
  43:DMP/driver/stm32L/log_stm32.c **** }
  53              		.loc 1 43 1 is_stmt 0 view .LVU5
  54 0014 0198     		ldr	r0, [sp, #4]
  55 0016 03B0     		add	sp, sp, #12
  56              	.LCFI2:
  57              		.cfi_def_cfa_offset 4
  58              		@ sp needed
  59 0018 5DF804FB 		ldr	pc, [sp], #4
  60              	.L4:
  61              		.align	2
  62              	.L3:
  63 001c 00000000 		.word	huart1
  64              		.cfi_endproc
  65              	.LFE143:
  67              		.section	.text._MLPrintLog,"ax",%progbits
  68              		.align	1
  69              		.global	_MLPrintLog
  70              		.syntax unified
  71              		.thumb
  72              		.thumb_func
  74              	_MLPrintLog:
ARM GAS  /var/folders/21/t9g5rlb91ys800n5npymflf80000gn/T//ccRXhZ8G.s 			page 3


  75              	.LVL3:
  76              	.LFB144:
  44:DMP/driver/stm32L/log_stm32.c **** /**
  45:DMP/driver/stm32L/log_stm32.c ****  *  @brief      Prints a variable argument log message.
  46:DMP/driver/stm32L/log_stm32.c ****  *  USB output will be formatted as follows:\n
  47:DMP/driver/stm32L/log_stm32.c ****  *  packet[0]       = $\n
  48:DMP/driver/stm32L/log_stm32.c ****  *  packet[1]       = packet type (1: debug, 2: quat, 3: data)\n
  49:DMP/driver/stm32L/log_stm32.c ****  *  packet[2]       = \n for debug packets: log priority\n
  50:DMP/driver/stm32L/log_stm32.c ****  *                    for quaternion packets: unused\n
  51:DMP/driver/stm32L/log_stm32.c ****  *                    for data packets: packet content (accel, gyro, etc)\n
  52:DMP/driver/stm32L/log_stm32.c ****  *  packet[3-20]    = data\n
  53:DMP/driver/stm32L/log_stm32.c ****  *  packet[21]      = \\r\n
  54:DMP/driver/stm32L/log_stm32.c ****  *  packet[22]      = \\n
  55:DMP/driver/stm32L/log_stm32.c ****  *  @param[in]  priority    Log priority (based on Android).
  56:DMP/driver/stm32L/log_stm32.c ****  *  @param[in]  tag         File specific string.
  57:DMP/driver/stm32L/log_stm32.c ****  *  @param[in]  fmt         String of text with optional format tags.
  58:DMP/driver/stm32L/log_stm32.c ****  *
  59:DMP/driver/stm32L/log_stm32.c ****  *  @return     0 if successful.
  60:DMP/driver/stm32L/log_stm32.c ****  */
  61:DMP/driver/stm32L/log_stm32.c **** int _MLPrintLog(int priority, const char *tag, const char *fmt, ...) {
  77              		.loc 1 61 70 is_stmt 1 view -0
  78              		.cfi_startproc
  79              		@ args = 4, pretend = 8, frame = 288
  80              		@ frame_needed = 0, uses_anonymous_args = 1
  81              		.loc 1 61 70 is_stmt 0 view .LVU7
  82 0000 0CB4     		push	{r2, r3}
  83              	.LCFI3:
  84              		.cfi_def_cfa_offset 8
  85              		.cfi_offset 2, -8
  86              		.cfi_offset 3, -4
  87 0002 70B5     		push	{r4, r5, r6, lr}
  88              	.LCFI4:
  89              		.cfi_def_cfa_offset 24
  90              		.cfi_offset 4, -24
  91              		.cfi_offset 5, -20
  92              		.cfi_offset 6, -16
  93              		.cfi_offset 14, -12
  94 0004 CAB0     		sub	sp, sp, #296
  95              	.LCFI5:
  96              		.cfi_def_cfa_offset 320
  97 0006 0446     		mov	r4, r0
  62:DMP/driver/stm32L/log_stm32.c ****   va_list args;
  98              		.loc 1 62 3 is_stmt 1 view .LVU8
  63:DMP/driver/stm32L/log_stm32.c ****   int length, ii, i;
  99              		.loc 1 63 3 view .LVU9
  64:DMP/driver/stm32L/log_stm32.c ****   char buf[BUF_SIZE], out[PACKET_LENGTH], this_length;
 100              		.loc 1 64 3 view .LVU10
  65:DMP/driver/stm32L/log_stm32.c **** 
  66:DMP/driver/stm32L/log_stm32.c ****   /* This can be modified to exit for unsupported priorities. */
  67:DMP/driver/stm32L/log_stm32.c ****   switch (priority) {
 101              		.loc 1 67 3 view .LVU11
 102 0008 0628     		cmp	r0, #6
 103 000a 08DC     		bgt	.L6
 104 000c 0028     		cmp	r0, #0
 105 000e 0ADA     		bge	.L7
 106 0010 0026     		movs	r6, #0
 107              	.LVL4:
ARM GAS  /var/folders/21/t9g5rlb91ys800n5npymflf80000gn/T//ccRXhZ8G.s 			page 4


 108              	.L5:
  68:DMP/driver/stm32L/log_stm32.c ****   case MPL_LOG_UNKNOWN:
  69:DMP/driver/stm32L/log_stm32.c ****   case MPL_LOG_DEFAULT:
  70:DMP/driver/stm32L/log_stm32.c ****   case MPL_LOG_VERBOSE:
  71:DMP/driver/stm32L/log_stm32.c ****   case MPL_LOG_DEBUG:
  72:DMP/driver/stm32L/log_stm32.c ****   case MPL_LOG_INFO:
  73:DMP/driver/stm32L/log_stm32.c ****   case MPL_LOG_WARN:
  74:DMP/driver/stm32L/log_stm32.c ****   case MPL_LOG_ERROR:
  75:DMP/driver/stm32L/log_stm32.c ****   case MPL_LOG_SILENT:
  76:DMP/driver/stm32L/log_stm32.c ****     break;
  77:DMP/driver/stm32L/log_stm32.c ****   default:
  78:DMP/driver/stm32L/log_stm32.c ****     return 0;
  79:DMP/driver/stm32L/log_stm32.c ****   }
  80:DMP/driver/stm32L/log_stm32.c **** 
  81:DMP/driver/stm32L/log_stm32.c ****   va_start(args, fmt);
  82:DMP/driver/stm32L/log_stm32.c **** 
  83:DMP/driver/stm32L/log_stm32.c ****   length = vsprintf(buf, fmt, args);
  84:DMP/driver/stm32L/log_stm32.c ****   if (length <= 0) {
  85:DMP/driver/stm32L/log_stm32.c ****     va_end(args);
  86:DMP/driver/stm32L/log_stm32.c ****     return length;
  87:DMP/driver/stm32L/log_stm32.c ****   }
  88:DMP/driver/stm32L/log_stm32.c **** 
  89:DMP/driver/stm32L/log_stm32.c ****   memset(out, 0, PACKET_LENGTH);
  90:DMP/driver/stm32L/log_stm32.c ****   out[0] = '$';
  91:DMP/driver/stm32L/log_stm32.c ****   out[1] = PACKET_DEBUG;
  92:DMP/driver/stm32L/log_stm32.c ****   out[2] = priority;
  93:DMP/driver/stm32L/log_stm32.c ****   out[21] = '\r';
  94:DMP/driver/stm32L/log_stm32.c ****   out[22] = '\n';
  95:DMP/driver/stm32L/log_stm32.c ****   for (ii = 0; ii < length; ii += (PACKET_LENGTH - 5)) {
  96:DMP/driver/stm32L/log_stm32.c **** #define min(a, b) ((a < b) ? a : b)
  97:DMP/driver/stm32L/log_stm32.c ****     this_length = min(length - ii, PACKET_LENGTH - 5);
  98:DMP/driver/stm32L/log_stm32.c ****     memset(out + 3, 0, 18);
  99:DMP/driver/stm32L/log_stm32.c ****     memcpy(out + 3, buf + ii, this_length);
 100:DMP/driver/stm32L/log_stm32.c ****     for (i = 0; i < PACKET_LENGTH; i++) {
 101:DMP/driver/stm32L/log_stm32.c ****       fputcc(out[i]);
 102:DMP/driver/stm32L/log_stm32.c ****     }
 103:DMP/driver/stm32L/log_stm32.c ****   }
 104:DMP/driver/stm32L/log_stm32.c **** 
 105:DMP/driver/stm32L/log_stm32.c ****   va_end(args);
 106:DMP/driver/stm32L/log_stm32.c **** 
 107:DMP/driver/stm32L/log_stm32.c ****   return 0;
 108:DMP/driver/stm32L/log_stm32.c **** }
 109              		.loc 1 108 1 is_stmt 0 view .LVU12
 110 0012 3046     		mov	r0, r6
 111 0014 4AB0     		add	sp, sp, #296
 112              	.LCFI6:
 113              		.cfi_remember_state
 114              		.cfi_def_cfa_offset 24
 115              		@ sp needed
 116 0016 BDE87040 		pop	{r4, r5, r6, lr}
 117              	.LCFI7:
 118              		.cfi_restore 14
 119              		.cfi_restore 6
 120              		.cfi_restore 5
 121              		.cfi_restore 4
 122              		.cfi_def_cfa_offset 8
 123 001a 02B0     		add	sp, sp, #8
ARM GAS  /var/folders/21/t9g5rlb91ys800n5npymflf80000gn/T//ccRXhZ8G.s 			page 5


 124              	.LCFI8:
 125              		.cfi_restore 3
 126              		.cfi_restore 2
 127              		.cfi_def_cfa_offset 0
 128 001c 7047     		bx	lr
 129              	.LVL5:
 130              	.L6:
 131              	.LCFI9:
 132              		.cfi_restore_state
  67:DMP/driver/stm32L/log_stm32.c ****   case MPL_LOG_UNKNOWN:
 133              		.loc 1 67 3 view .LVU13
 134 001e 0828     		cmp	r0, #8
 135 0020 01D0     		beq	.L7
 136 0022 0026     		movs	r6, #0
 137 0024 F5E7     		b	.L5
 138              	.L7:
  76:DMP/driver/stm32L/log_stm32.c ****   default:
 139              		.loc 1 76 5 is_stmt 1 view .LVU14
  81:DMP/driver/stm32L/log_stm32.c **** 
 140              		.loc 1 81 3 view .LVU15
 141 0026 4FAB     		add	r3, sp, #316
 142 0028 4993     		str	r3, [sp, #292]
  83:DMP/driver/stm32L/log_stm32.c ****   if (length <= 0) {
 143              		.loc 1 83 3 view .LVU16
  83:DMP/driver/stm32L/log_stm32.c ****   if (length <= 0) {
 144              		.loc 1 83 12 is_stmt 0 view .LVU17
 145 002a 0093     		str	r3, [sp]
 146 002c 4E9B     		ldr	r3, [sp, #312]
 147 002e 4FF48072 		mov	r2, #256
 148 0032 0021     		movs	r1, #0
 149              	.LVL6:
  83:DMP/driver/stm32L/log_stm32.c ****   if (length <= 0) {
 150              		.loc 1 83 12 view .LVU18
 151 0034 09A8     		add	r0, sp, #36
 152              	.LVL7:
  83:DMP/driver/stm32L/log_stm32.c ****   if (length <= 0) {
 153              		.loc 1 83 12 view .LVU19
 154 0036 FFF7FEFF 		bl	__vsprintf_chk
 155              	.LVL8:
  84:DMP/driver/stm32L/log_stm32.c ****     va_end(args);
 156              		.loc 1 84 3 is_stmt 1 view .LVU20
  84:DMP/driver/stm32L/log_stm32.c ****     va_end(args);
 157              		.loc 1 84 6 is_stmt 0 view .LVU21
 158 003a 061E     		subs	r6, r0, #0
 159 003c E9DD     		ble	.L5
  89:DMP/driver/stm32L/log_stm32.c ****   out[0] = '$';
 160              		.loc 1 89 3 is_stmt 1 view .LVU22
 161 003e 0025     		movs	r5, #0
 162 0040 0395     		str	r5, [sp, #12]
 163 0042 0495     		str	r5, [sp, #16]
 164 0044 0595     		str	r5, [sp, #20]
 165 0046 0695     		str	r5, [sp, #24]
 166 0048 0795     		str	r5, [sp, #28]
 167 004a CDF81F50 		str	r5, [sp, #31]	@ unaligned
  90:DMP/driver/stm32L/log_stm32.c ****   out[1] = PACKET_DEBUG;
 168              		.loc 1 90 3 view .LVU23
  90:DMP/driver/stm32L/log_stm32.c ****   out[1] = PACKET_DEBUG;
ARM GAS  /var/folders/21/t9g5rlb91ys800n5npymflf80000gn/T//ccRXhZ8G.s 			page 6


 169              		.loc 1 90 10 is_stmt 0 view .LVU24
 170 004e 2423     		movs	r3, #36
 171 0050 8DF80C30 		strb	r3, [sp, #12]
  91:DMP/driver/stm32L/log_stm32.c ****   out[2] = priority;
 172              		.loc 1 91 3 is_stmt 1 view .LVU25
  91:DMP/driver/stm32L/log_stm32.c ****   out[2] = priority;
 173              		.loc 1 91 10 is_stmt 0 view .LVU26
 174 0054 0123     		movs	r3, #1
 175 0056 8DF80D30 		strb	r3, [sp, #13]
  92:DMP/driver/stm32L/log_stm32.c ****   out[21] = '\r';
 176              		.loc 1 92 3 is_stmt 1 view .LVU27
  92:DMP/driver/stm32L/log_stm32.c ****   out[21] = '\r';
 177              		.loc 1 92 10 is_stmt 0 view .LVU28
 178 005a 8DF80E40 		strb	r4, [sp, #14]
  93:DMP/driver/stm32L/log_stm32.c ****   out[22] = '\n';
 179              		.loc 1 93 3 is_stmt 1 view .LVU29
  93:DMP/driver/stm32L/log_stm32.c ****   out[22] = '\n';
 180              		.loc 1 93 11 is_stmt 0 view .LVU30
 181 005e 0D23     		movs	r3, #13
 182 0060 8DF82130 		strb	r3, [sp, #33]
  94:DMP/driver/stm32L/log_stm32.c ****   for (ii = 0; ii < length; ii += (PACKET_LENGTH - 5)) {
 183              		.loc 1 94 3 is_stmt 1 view .LVU31
  94:DMP/driver/stm32L/log_stm32.c ****   for (ii = 0; ii < length; ii += (PACKET_LENGTH - 5)) {
 184              		.loc 1 94 11 is_stmt 0 view .LVU32
 185 0064 0A23     		movs	r3, #10
 186 0066 8DF82230 		strb	r3, [sp, #34]
  95:DMP/driver/stm32L/log_stm32.c **** #define min(a, b) ((a < b) ? a : b)
 187              		.loc 1 95 3 is_stmt 1 view .LVU33
 188              	.LVL9:
  95:DMP/driver/stm32L/log_stm32.c **** #define min(a, b) ((a < b) ? a : b)
 189              		.loc 1 95 3 is_stmt 0 view .LVU34
 190 006a 07E0     		b	.L9
 191              	.LVL10:
 192              	.L11:
 101:DMP/driver/stm32L/log_stm32.c ****     }
 193              		.loc 1 101 7 is_stmt 1 discriminator 3 view .LVU35
 194 006c 03AB     		add	r3, sp, #12
 195 006e 185D     		ldrb	r0, [r3, r4]	@ zero_extendqisi2
 196 0070 FFF7FEFF 		bl	fputcc
 197              	.LVL11:
 100:DMP/driver/stm32L/log_stm32.c ****       fputcc(out[i]);
 198              		.loc 1 100 37 discriminator 3 view .LVU36
 199 0074 0134     		adds	r4, r4, #1
 200              	.LVL12:
 201              	.L10:
 100:DMP/driver/stm32L/log_stm32.c ****       fputcc(out[i]);
 202              		.loc 1 100 19 discriminator 1 view .LVU37
 203 0076 162C     		cmp	r4, #22
 204 0078 F8DD     		ble	.L11
  95:DMP/driver/stm32L/log_stm32.c **** #define min(a, b) ((a < b) ? a : b)
 205              		.loc 1 95 32 discriminator 2 view .LVU38
 206 007a 1235     		adds	r5, r5, #18
 207              	.LVL13:
 208              	.L9:
  95:DMP/driver/stm32L/log_stm32.c **** #define min(a, b) ((a < b) ? a : b)
 209              		.loc 1 95 19 discriminator 1 view .LVU39
 210 007c B542     		cmp	r5, r6
ARM GAS  /var/folders/21/t9g5rlb91ys800n5npymflf80000gn/T//ccRXhZ8G.s 			page 7


 211 007e 17DA     		bge	.L15
  97:DMP/driver/stm32L/log_stm32.c ****     memset(out + 3, 0, 18);
 212              		.loc 1 97 5 view .LVU40
  97:DMP/driver/stm32L/log_stm32.c ****     memset(out + 3, 0, 18);
 213              		.loc 1 97 19 is_stmt 0 view .LVU41
 214 0080 721B     		subs	r2, r6, r5
 215 0082 122A     		cmp	r2, #18
 216 0084 A8BF     		it	ge
 217 0086 1222     		movge	r2, #18
 218              	.LVL14:
  98:DMP/driver/stm32L/log_stm32.c ****     memcpy(out + 3, buf + ii, this_length);
 219              		.loc 1 98 5 is_stmt 1 view .LVU42
 220 0088 0024     		movs	r4, #0
 221 008a CDF80F40 		str	r4, [sp, #15]	@ unaligned
 222 008e CDF81340 		str	r4, [sp, #19]	@ unaligned
 223 0092 CDF81740 		str	r4, [sp, #23]	@ unaligned
 224 0096 CDF81B40 		str	r4, [sp, #27]	@ unaligned
 225 009a ADF81F40 		strh	r4, [sp, #31]	@ unaligned
  99:DMP/driver/stm32L/log_stm32.c ****     for (i = 0; i < PACKET_LENGTH; i++) {
 226              		.loc 1 99 5 view .LVU43
 227 009e 1423     		movs	r3, #20
 228 00a0 D2B2     		uxtb	r2, r2
  99:DMP/driver/stm32L/log_stm32.c ****     for (i = 0; i < PACKET_LENGTH; i++) {
 229              		.loc 1 99 5 is_stmt 0 view .LVU44
 230 00a2 09A9     		add	r1, sp, #36
 231 00a4 2944     		add	r1, r1, r5
 232 00a6 0DF10F00 		add	r0, sp, #15
 233 00aa FFF7FEFF 		bl	__memcpy_chk
 234              	.LVL15:
 100:DMP/driver/stm32L/log_stm32.c ****       fputcc(out[i]);
 235              		.loc 1 100 5 is_stmt 1 view .LVU45
 100:DMP/driver/stm32L/log_stm32.c ****       fputcc(out[i]);
 236              		.loc 1 100 5 is_stmt 0 view .LVU46
 237 00ae E2E7     		b	.L10
 238              	.LVL16:
 239              	.L15:
 107:DMP/driver/stm32L/log_stm32.c **** }
 240              		.loc 1 107 10 view .LVU47
 241 00b0 0026     		movs	r6, #0
 242              	.LVL17:
 107:DMP/driver/stm32L/log_stm32.c **** }
 243              		.loc 1 107 10 view .LVU48
 244 00b2 AEE7     		b	.L5
 245              		.cfi_endproc
 246              	.LFE144:
 248              		.section	.text.eMPL_send_quat,"ax",%progbits
 249              		.align	1
 250              		.global	eMPL_send_quat
 251              		.syntax unified
 252              		.thumb
 253              		.thumb_func
 255              	eMPL_send_quat:
 256              	.LVL18:
 257              	.LFB145:
 109:DMP/driver/stm32L/log_stm32.c **** 
 110:DMP/driver/stm32L/log_stm32.c **** void eMPL_send_quat(long *quat) {
 258              		.loc 1 110 33 is_stmt 1 view -0
ARM GAS  /var/folders/21/t9g5rlb91ys800n5npymflf80000gn/T//ccRXhZ8G.s 			page 8


 259              		.cfi_startproc
 260              		@ args = 0, pretend = 0, frame = 24
 261              		@ frame_needed = 0, uses_anonymous_args = 0
 111:DMP/driver/stm32L/log_stm32.c ****   char out[PACKET_LENGTH];
 262              		.loc 1 111 3 view .LVU50
 112:DMP/driver/stm32L/log_stm32.c ****   int i;
 263              		.loc 1 112 3 view .LVU51
 113:DMP/driver/stm32L/log_stm32.c ****   if (!quat)
 264              		.loc 1 113 3 view .LVU52
 265              		.loc 1 113 6 is_stmt 0 view .LVU53
 266 0000 0028     		cmp	r0, #0
 267 0002 5AD0     		beq	.L22
 110:DMP/driver/stm32L/log_stm32.c ****   char out[PACKET_LENGTH];
 268              		.loc 1 110 33 view .LVU54
 269 0004 10B5     		push	{r4, lr}
 270              	.LCFI10:
 271              		.cfi_def_cfa_offset 8
 272              		.cfi_offset 4, -8
 273              		.cfi_offset 14, -4
 274 0006 86B0     		sub	sp, sp, #24
 275              	.LCFI11:
 276              		.cfi_def_cfa_offset 32
 114:DMP/driver/stm32L/log_stm32.c ****     return;
 115:DMP/driver/stm32L/log_stm32.c ****   memset(out, 0, PACKET_LENGTH);
 277              		.loc 1 115 3 is_stmt 1 view .LVU55
 278 0008 0024     		movs	r4, #0
 279 000a 0094     		str	r4, [sp]
 280 000c 0194     		str	r4, [sp, #4]
 281 000e 0294     		str	r4, [sp, #8]
 282 0010 0394     		str	r4, [sp, #12]
 283 0012 0494     		str	r4, [sp, #16]
 284 0014 CDF81340 		str	r4, [sp, #19]	@ unaligned
 116:DMP/driver/stm32L/log_stm32.c ****   out[0] = '$';
 285              		.loc 1 116 3 view .LVU56
 286              		.loc 1 116 10 is_stmt 0 view .LVU57
 287 0018 2422     		movs	r2, #36
 288 001a 8DF80020 		strb	r2, [sp]
 117:DMP/driver/stm32L/log_stm32.c ****   out[1] = PACKET_QUAT;
 289              		.loc 1 117 3 is_stmt 1 view .LVU58
 290              		.loc 1 117 10 is_stmt 0 view .LVU59
 291 001e 0222     		movs	r2, #2
 292 0020 8DF80120 		strb	r2, [sp, #1]
 118:DMP/driver/stm32L/log_stm32.c ****   out[3] = (char)(quat[0] >> 24);
 293              		.loc 1 118 3 is_stmt 1 view .LVU60
 294              		.loc 1 118 23 is_stmt 0 view .LVU61
 295 0024 0268     		ldr	r2, [r0]
 296              		.loc 1 118 12 view .LVU62
 297 0026 110E     		lsrs	r1, r2, #24
 298              		.loc 1 118 10 view .LVU63
 299 0028 8DF80310 		strb	r1, [sp, #3]
 119:DMP/driver/stm32L/log_stm32.c ****   out[4] = (char)(quat[0] >> 16);
 300              		.loc 1 119 3 is_stmt 1 view .LVU64
 301              		.loc 1 119 12 is_stmt 0 view .LVU65
 302 002c C2F30741 		ubfx	r1, r2, #16, #8
 303              		.loc 1 119 10 view .LVU66
 304 0030 8DF80410 		strb	r1, [sp, #4]
 120:DMP/driver/stm32L/log_stm32.c ****   out[5] = (char)(quat[0] >> 8);
ARM GAS  /var/folders/21/t9g5rlb91ys800n5npymflf80000gn/T//ccRXhZ8G.s 			page 9


 305              		.loc 1 120 3 is_stmt 1 view .LVU67
 306              		.loc 1 120 12 is_stmt 0 view .LVU68
 307 0034 C2F30721 		ubfx	r1, r2, #8, #8
 308              		.loc 1 120 10 view .LVU69
 309 0038 8DF80510 		strb	r1, [sp, #5]
 121:DMP/driver/stm32L/log_stm32.c ****   out[6] = (char)quat[0];
 310              		.loc 1 121 3 is_stmt 1 view .LVU70
 311              		.loc 1 121 10 is_stmt 0 view .LVU71
 312 003c 8DF80620 		strb	r2, [sp, #6]
 122:DMP/driver/stm32L/log_stm32.c ****   out[7] = (char)(quat[1] >> 24);
 313              		.loc 1 122 3 is_stmt 1 view .LVU72
 314              		.loc 1 122 23 is_stmt 0 view .LVU73
 315 0040 4268     		ldr	r2, [r0, #4]
 316              		.loc 1 122 12 view .LVU74
 317 0042 110E     		lsrs	r1, r2, #24
 318              		.loc 1 122 10 view .LVU75
 319 0044 8DF80710 		strb	r1, [sp, #7]
 123:DMP/driver/stm32L/log_stm32.c ****   out[8] = (char)(quat[1] >> 16);
 320              		.loc 1 123 3 is_stmt 1 view .LVU76
 321              		.loc 1 123 12 is_stmt 0 view .LVU77
 322 0048 C2F30741 		ubfx	r1, r2, #16, #8
 323              		.loc 1 123 10 view .LVU78
 324 004c 8DF80810 		strb	r1, [sp, #8]
 124:DMP/driver/stm32L/log_stm32.c ****   out[9] = (char)(quat[1] >> 8);
 325              		.loc 1 124 3 is_stmt 1 view .LVU79
 326              		.loc 1 124 12 is_stmt 0 view .LVU80
 327 0050 C2F30721 		ubfx	r1, r2, #8, #8
 328              		.loc 1 124 10 view .LVU81
 329 0054 8DF80910 		strb	r1, [sp, #9]
 125:DMP/driver/stm32L/log_stm32.c ****   out[10] = (char)quat[1];
 330              		.loc 1 125 3 is_stmt 1 view .LVU82
 331              		.loc 1 125 11 is_stmt 0 view .LVU83
 332 0058 8DF80A20 		strb	r2, [sp, #10]
 126:DMP/driver/stm32L/log_stm32.c ****   out[11] = (char)(quat[2] >> 24);
 333              		.loc 1 126 3 is_stmt 1 view .LVU84
 334              		.loc 1 126 24 is_stmt 0 view .LVU85
 335 005c 8268     		ldr	r2, [r0, #8]
 336              		.loc 1 126 13 view .LVU86
 337 005e 110E     		lsrs	r1, r2, #24
 338              		.loc 1 126 11 view .LVU87
 339 0060 8DF80B10 		strb	r1, [sp, #11]
 127:DMP/driver/stm32L/log_stm32.c ****   out[12] = (char)(quat[2] >> 16);
 340              		.loc 1 127 3 is_stmt 1 view .LVU88
 341              		.loc 1 127 13 is_stmt 0 view .LVU89
 342 0064 C2F30741 		ubfx	r1, r2, #16, #8
 343              		.loc 1 127 11 view .LVU90
 344 0068 8DF80C10 		strb	r1, [sp, #12]
 128:DMP/driver/stm32L/log_stm32.c ****   out[13] = (char)(quat[2] >> 8);
 345              		.loc 1 128 3 is_stmt 1 view .LVU91
 346              		.loc 1 128 13 is_stmt 0 view .LVU92
 347 006c C2F30721 		ubfx	r1, r2, #8, #8
 348              		.loc 1 128 11 view .LVU93
 349 0070 8DF80D10 		strb	r1, [sp, #13]
 129:DMP/driver/stm32L/log_stm32.c ****   out[14] = (char)quat[2];
 350              		.loc 1 129 3 is_stmt 1 view .LVU94
 351              		.loc 1 129 11 is_stmt 0 view .LVU95
 352 0074 8DF80E20 		strb	r2, [sp, #14]
ARM GAS  /var/folders/21/t9g5rlb91ys800n5npymflf80000gn/T//ccRXhZ8G.s 			page 10


 130:DMP/driver/stm32L/log_stm32.c ****   out[15] = (char)(quat[3] >> 24);
 353              		.loc 1 130 3 is_stmt 1 view .LVU96
 354              		.loc 1 130 24 is_stmt 0 view .LVU97
 355 0078 C368     		ldr	r3, [r0, #12]
 356              		.loc 1 130 13 view .LVU98
 357 007a 1A0E     		lsrs	r2, r3, #24
 358              		.loc 1 130 11 view .LVU99
 359 007c 8DF80F20 		strb	r2, [sp, #15]
 131:DMP/driver/stm32L/log_stm32.c ****   out[16] = (char)(quat[3] >> 16);
 360              		.loc 1 131 3 is_stmt 1 view .LVU100
 361              		.loc 1 131 13 is_stmt 0 view .LVU101
 362 0080 C3F30742 		ubfx	r2, r3, #16, #8
 363              		.loc 1 131 11 view .LVU102
 364 0084 8DF81020 		strb	r2, [sp, #16]
 132:DMP/driver/stm32L/log_stm32.c ****   out[17] = (char)(quat[3] >> 8);
 365              		.loc 1 132 3 is_stmt 1 view .LVU103
 366              		.loc 1 132 13 is_stmt 0 view .LVU104
 367 0088 C3F30722 		ubfx	r2, r3, #8, #8
 368              		.loc 1 132 11 view .LVU105
 369 008c 8DF81120 		strb	r2, [sp, #17]
 133:DMP/driver/stm32L/log_stm32.c ****   out[18] = (char)quat[3];
 370              		.loc 1 133 3 is_stmt 1 view .LVU106
 371              		.loc 1 133 11 is_stmt 0 view .LVU107
 372 0090 8DF81230 		strb	r3, [sp, #18]
 134:DMP/driver/stm32L/log_stm32.c ****   out[21] = '\r';
 373              		.loc 1 134 3 is_stmt 1 view .LVU108
 374              		.loc 1 134 11 is_stmt 0 view .LVU109
 375 0094 0D23     		movs	r3, #13
 376 0096 8DF81530 		strb	r3, [sp, #21]
 135:DMP/driver/stm32L/log_stm32.c ****   out[22] = '\n';
 377              		.loc 1 135 3 is_stmt 1 view .LVU110
 378              		.loc 1 135 11 is_stmt 0 view .LVU111
 379 009a 0A23     		movs	r3, #10
 380 009c 8DF81630 		strb	r3, [sp, #22]
 136:DMP/driver/stm32L/log_stm32.c **** 
 137:DMP/driver/stm32L/log_stm32.c ****   for (i = 0; i < PACKET_LENGTH; i++) {
 381              		.loc 1 137 3 is_stmt 1 view .LVU112
 382              	.LVL19:
 383              		.loc 1 137 3 is_stmt 0 view .LVU113
 384 00a0 07E0     		b	.L19
 385              	.LVL20:
 386              	.L20:
 138:DMP/driver/stm32L/log_stm32.c ****     fputcc(out[i]);
 387              		.loc 1 138 5 is_stmt 1 discriminator 3 view .LVU114
 388              		.loc 1 138 15 is_stmt 0 discriminator 3 view .LVU115
 389 00a2 04F11803 		add	r3, r4, #24
 390 00a6 6B44     		add	r3, sp, r3
 391              		.loc 1 138 5 discriminator 3 view .LVU116
 392 00a8 13F8180C 		ldrb	r0, [r3, #-24]	@ zero_extendqisi2
 393 00ac FFF7FEFF 		bl	fputcc
 394              	.LVL21:
 137:DMP/driver/stm32L/log_stm32.c ****     fputcc(out[i]);
 395              		.loc 1 137 35 is_stmt 1 discriminator 3 view .LVU117
 396 00b0 0134     		adds	r4, r4, #1
 397              	.LVL22:
 398              	.L19:
 137:DMP/driver/stm32L/log_stm32.c ****     fputcc(out[i]);
ARM GAS  /var/folders/21/t9g5rlb91ys800n5npymflf80000gn/T//ccRXhZ8G.s 			page 11


 399              		.loc 1 137 17 discriminator 1 view .LVU118
 400 00b2 162C     		cmp	r4, #22
 401 00b4 F5DD     		ble	.L20
 139:DMP/driver/stm32L/log_stm32.c ****   }
 140:DMP/driver/stm32L/log_stm32.c **** }
 402              		.loc 1 140 1 is_stmt 0 view .LVU119
 403 00b6 06B0     		add	sp, sp, #24
 404              	.LCFI12:
 405              		.cfi_def_cfa_offset 8
 406              		@ sp needed
 407 00b8 10BD     		pop	{r4, pc}
 408              	.LVL23:
 409              	.L22:
 410              	.LCFI13:
 411              		.cfi_def_cfa_offset 0
 412              		.cfi_restore 4
 413              		.cfi_restore 14
 414              		.loc 1 140 1 view .LVU120
 415 00ba 7047     		bx	lr
 416              		.cfi_endproc
 417              	.LFE145:
 419              		.section	.text.eMPL_send_data,"ax",%progbits
 420              		.align	1
 421              		.global	eMPL_send_data
 422              		.syntax unified
 423              		.thumb
 424              		.thumb_func
 426              	eMPL_send_data:
 427              	.LVL24:
 428              	.LFB146:
 141:DMP/driver/stm32L/log_stm32.c **** 
 142:DMP/driver/stm32L/log_stm32.c **** void eMPL_send_data(unsigned char type, long *data) {
 429              		.loc 1 142 53 is_stmt 1 view -0
 430              		.cfi_startproc
 431              		@ args = 0, pretend = 0, frame = 24
 432              		@ frame_needed = 0, uses_anonymous_args = 0
 143:DMP/driver/stm32L/log_stm32.c ****   char out[PACKET_LENGTH];
 433              		.loc 1 143 3 view .LVU122
 144:DMP/driver/stm32L/log_stm32.c ****   int i;
 434              		.loc 1 144 3 view .LVU123
 145:DMP/driver/stm32L/log_stm32.c ****   if (!data)
 435              		.loc 1 145 3 view .LVU124
 436              		.loc 1 145 6 is_stmt 0 view .LVU125
 437 0000 0029     		cmp	r1, #0
 438 0002 00F0C080 		beq	.L39
 142:DMP/driver/stm32L/log_stm32.c ****   char out[PACKET_LENGTH];
 439              		.loc 1 142 53 view .LVU126
 440 0006 10B5     		push	{r4, lr}
 441              	.LCFI14:
 442              		.cfi_def_cfa_offset 8
 443              		.cfi_offset 4, -8
 444              		.cfi_offset 14, -4
 445 0008 86B0     		sub	sp, sp, #24
 446              	.LCFI15:
 447              		.cfi_def_cfa_offset 32
 448 000a 0A46     		mov	r2, r1
 146:DMP/driver/stm32L/log_stm32.c ****     return;
ARM GAS  /var/folders/21/t9g5rlb91ys800n5npymflf80000gn/T//ccRXhZ8G.s 			page 12


 147:DMP/driver/stm32L/log_stm32.c ****   memset(out, 0, PACKET_LENGTH);
 449              		.loc 1 147 3 is_stmt 1 view .LVU127
 450 000c 0023     		movs	r3, #0
 451 000e 0093     		str	r3, [sp]
 452 0010 0193     		str	r3, [sp, #4]
 453 0012 0293     		str	r3, [sp, #8]
 454 0014 0393     		str	r3, [sp, #12]
 455 0016 0493     		str	r3, [sp, #16]
 456 0018 CDF81330 		str	r3, [sp, #19]	@ unaligned
 148:DMP/driver/stm32L/log_stm32.c ****   out[0] = '$';
 457              		.loc 1 148 3 view .LVU128
 458              		.loc 1 148 10 is_stmt 0 view .LVU129
 459 001c 2423     		movs	r3, #36
 460 001e 8DF80030 		strb	r3, [sp]
 149:DMP/driver/stm32L/log_stm32.c ****   out[1] = PACKET_DATA;
 461              		.loc 1 149 3 is_stmt 1 view .LVU130
 462              		.loc 1 149 10 is_stmt 0 view .LVU131
 463 0022 0323     		movs	r3, #3
 464 0024 8DF80130 		strb	r3, [sp, #1]
 150:DMP/driver/stm32L/log_stm32.c ****   out[2] = type;
 465              		.loc 1 150 3 is_stmt 1 view .LVU132
 466              		.loc 1 150 10 is_stmt 0 view .LVU133
 467 0028 8DF80200 		strb	r0, [sp, #2]
 151:DMP/driver/stm32L/log_stm32.c ****   out[21] = '\r';
 468              		.loc 1 151 3 is_stmt 1 view .LVU134
 469              		.loc 1 151 11 is_stmt 0 view .LVU135
 470 002c 0D23     		movs	r3, #13
 471 002e 8DF81530 		strb	r3, [sp, #21]
 152:DMP/driver/stm32L/log_stm32.c ****   out[22] = '\n';
 472              		.loc 1 152 3 is_stmt 1 view .LVU136
 473              		.loc 1 152 11 is_stmt 0 view .LVU137
 474 0032 0A23     		movs	r3, #10
 475 0034 8DF81630 		strb	r3, [sp, #22]
 153:DMP/driver/stm32L/log_stm32.c ****   switch (type) {
 476              		.loc 1 153 3 is_stmt 1 view .LVU138
 477 0038 0628     		cmp	r0, #6
 478 003a 00F2A280 		bhi	.L25
 479 003e DFE800F0 		tbb	[pc, r0]
 480              	.L28:
 481 0042 5B       		.byte	(.L30-.L28)/2
 482 0043 5B       		.byte	(.L30-.L28)/2
 483 0044 5B       		.byte	(.L30-.L28)/2
 484 0045 4D       		.byte	(.L31-.L28)/2
 485 0046 5B       		.byte	(.L30-.L28)/2
 486 0047 04       		.byte	(.L29-.L28)/2
 487 0048 87       		.byte	(.L27-.L28)/2
 488 0049 00       		.p2align 1
 489              	.L29:
 154:DMP/driver/stm32L/log_stm32.c ****   /* Two bytes per-element. */
 155:DMP/driver/stm32L/log_stm32.c ****   case PACKET_DATA_ROT:
 156:DMP/driver/stm32L/log_stm32.c ****     out[3] = (char)(data[0] >> 24);
 490              		.loc 1 156 5 view .LVU139
 491              		.loc 1 156 25 is_stmt 0 view .LVU140
 492 004a 0B68     		ldr	r3, [r1]
 493              		.loc 1 156 14 view .LVU141
 494 004c 190E     		lsrs	r1, r3, #24
 495              	.LVL25:
ARM GAS  /var/folders/21/t9g5rlb91ys800n5npymflf80000gn/T//ccRXhZ8G.s 			page 13


 496              		.loc 1 156 12 view .LVU142
 497 004e 8DF80310 		strb	r1, [sp, #3]
 157:DMP/driver/stm32L/log_stm32.c ****     out[4] = (char)(data[0] >> 16);
 498              		.loc 1 157 5 is_stmt 1 view .LVU143
 499              		.loc 1 157 14 is_stmt 0 view .LVU144
 500 0052 C3F30743 		ubfx	r3, r3, #16, #8
 501              		.loc 1 157 12 view .LVU145
 502 0056 8DF80430 		strb	r3, [sp, #4]
 158:DMP/driver/stm32L/log_stm32.c ****     out[5] = (char)(data[1] >> 24);
 503              		.loc 1 158 5 is_stmt 1 view .LVU146
 504              		.loc 1 158 25 is_stmt 0 view .LVU147
 505 005a 5368     		ldr	r3, [r2, #4]
 506              		.loc 1 158 14 view .LVU148
 507 005c 190E     		lsrs	r1, r3, #24
 508              		.loc 1 158 12 view .LVU149
 509 005e 8DF80510 		strb	r1, [sp, #5]
 159:DMP/driver/stm32L/log_stm32.c ****     out[6] = (char)(data[1] >> 16);
 510              		.loc 1 159 5 is_stmt 1 view .LVU150
 511              		.loc 1 159 14 is_stmt 0 view .LVU151
 512 0062 C3F30743 		ubfx	r3, r3, #16, #8
 513              		.loc 1 159 12 view .LVU152
 514 0066 8DF80630 		strb	r3, [sp, #6]
 160:DMP/driver/stm32L/log_stm32.c ****     out[7] = (char)(data[2] >> 24);
 515              		.loc 1 160 5 is_stmt 1 view .LVU153
 516              		.loc 1 160 25 is_stmt 0 view .LVU154
 517 006a 9368     		ldr	r3, [r2, #8]
 518              		.loc 1 160 14 view .LVU155
 519 006c 190E     		lsrs	r1, r3, #24
 520              		.loc 1 160 12 view .LVU156
 521 006e 8DF80710 		strb	r1, [sp, #7]
 161:DMP/driver/stm32L/log_stm32.c ****     out[8] = (char)(data[2] >> 16);
 522              		.loc 1 161 5 is_stmt 1 view .LVU157
 523              		.loc 1 161 14 is_stmt 0 view .LVU158
 524 0072 C3F30743 		ubfx	r3, r3, #16, #8
 525              		.loc 1 161 12 view .LVU159
 526 0076 8DF80830 		strb	r3, [sp, #8]
 162:DMP/driver/stm32L/log_stm32.c ****     out[9] = (char)(data[3] >> 24);
 527              		.loc 1 162 5 is_stmt 1 view .LVU160
 528              		.loc 1 162 25 is_stmt 0 view .LVU161
 529 007a D368     		ldr	r3, [r2, #12]
 530              		.loc 1 162 14 view .LVU162
 531 007c 190E     		lsrs	r1, r3, #24
 532              		.loc 1 162 12 view .LVU163
 533 007e 8DF80910 		strb	r1, [sp, #9]
 163:DMP/driver/stm32L/log_stm32.c ****     out[10] = (char)(data[3] >> 16);
 534              		.loc 1 163 5 is_stmt 1 view .LVU164
 535              		.loc 1 163 15 is_stmt 0 view .LVU165
 536 0082 C3F30743 		ubfx	r3, r3, #16, #8
 537              		.loc 1 163 13 view .LVU166
 538 0086 8DF80A30 		strb	r3, [sp, #10]
 164:DMP/driver/stm32L/log_stm32.c ****     out[11] = (char)(data[4] >> 24);
 539              		.loc 1 164 5 is_stmt 1 view .LVU167
 540              		.loc 1 164 26 is_stmt 0 view .LVU168
 541 008a 1369     		ldr	r3, [r2, #16]
 542              		.loc 1 164 15 view .LVU169
 543 008c 190E     		lsrs	r1, r3, #24
 544              		.loc 1 164 13 view .LVU170
ARM GAS  /var/folders/21/t9g5rlb91ys800n5npymflf80000gn/T//ccRXhZ8G.s 			page 14


 545 008e 8DF80B10 		strb	r1, [sp, #11]
 165:DMP/driver/stm32L/log_stm32.c ****     out[12] = (char)(data[4] >> 16);
 546              		.loc 1 165 5 is_stmt 1 view .LVU171
 547              		.loc 1 165 15 is_stmt 0 view .LVU172
 548 0092 C3F30743 		ubfx	r3, r3, #16, #8
 549              		.loc 1 165 13 view .LVU173
 550 0096 8DF80C30 		strb	r3, [sp, #12]
 166:DMP/driver/stm32L/log_stm32.c ****     out[13] = (char)(data[5] >> 24);
 551              		.loc 1 166 5 is_stmt 1 view .LVU174
 552              		.loc 1 166 26 is_stmt 0 view .LVU175
 553 009a 5369     		ldr	r3, [r2, #20]
 554              		.loc 1 166 15 view .LVU176
 555 009c 190E     		lsrs	r1, r3, #24
 556              		.loc 1 166 13 view .LVU177
 557 009e 8DF80D10 		strb	r1, [sp, #13]
 167:DMP/driver/stm32L/log_stm32.c ****     out[14] = (char)(data[5] >> 16);
 558              		.loc 1 167 5 is_stmt 1 view .LVU178
 559              		.loc 1 167 15 is_stmt 0 view .LVU179
 560 00a2 C3F30743 		ubfx	r3, r3, #16, #8
 561              		.loc 1 167 13 view .LVU180
 562 00a6 8DF80E30 		strb	r3, [sp, #14]
 168:DMP/driver/stm32L/log_stm32.c ****     out[15] = (char)(data[6] >> 24);
 563              		.loc 1 168 5 is_stmt 1 view .LVU181
 564              		.loc 1 168 26 is_stmt 0 view .LVU182
 565 00aa 9369     		ldr	r3, [r2, #24]
 566              		.loc 1 168 15 view .LVU183
 567 00ac 190E     		lsrs	r1, r3, #24
 568              		.loc 1 168 13 view .LVU184
 569 00ae 8DF80F10 		strb	r1, [sp, #15]
 169:DMP/driver/stm32L/log_stm32.c ****     out[16] = (char)(data[6] >> 16);
 570              		.loc 1 169 5 is_stmt 1 view .LVU185
 571              		.loc 1 169 15 is_stmt 0 view .LVU186
 572 00b2 C3F30743 		ubfx	r3, r3, #16, #8
 573              		.loc 1 169 13 view .LVU187
 574 00b6 8DF81030 		strb	r3, [sp, #16]
 170:DMP/driver/stm32L/log_stm32.c ****     out[17] = (char)(data[7] >> 24);
 575              		.loc 1 170 5 is_stmt 1 view .LVU188
 576              		.loc 1 170 26 is_stmt 0 view .LVU189
 577 00ba D369     		ldr	r3, [r2, #28]
 578              		.loc 1 170 15 view .LVU190
 579 00bc 190E     		lsrs	r1, r3, #24
 580              		.loc 1 170 13 view .LVU191
 581 00be 8DF81110 		strb	r1, [sp, #17]
 171:DMP/driver/stm32L/log_stm32.c ****     out[18] = (char)(data[7] >> 16);
 582              		.loc 1 171 5 is_stmt 1 view .LVU192
 583              		.loc 1 171 15 is_stmt 0 view .LVU193
 584 00c2 C3F30743 		ubfx	r3, r3, #16, #8
 585              		.loc 1 171 13 view .LVU194
 586 00c6 8DF81230 		strb	r3, [sp, #18]
 172:DMP/driver/stm32L/log_stm32.c ****     out[19] = (char)(data[8] >> 24);
 587              		.loc 1 172 5 is_stmt 1 view .LVU195
 588              		.loc 1 172 26 is_stmt 0 view .LVU196
 589 00ca 136A     		ldr	r3, [r2, #32]
 590              		.loc 1 172 15 view .LVU197
 591 00cc 1A0E     		lsrs	r2, r3, #24
 592              	.LVL26:
 593              		.loc 1 172 13 view .LVU198
ARM GAS  /var/folders/21/t9g5rlb91ys800n5npymflf80000gn/T//ccRXhZ8G.s 			page 15


 594 00ce 8DF81320 		strb	r2, [sp, #19]
 173:DMP/driver/stm32L/log_stm32.c ****     out[20] = (char)(data[8] >> 16);
 595              		.loc 1 173 5 is_stmt 1 view .LVU199
 596              		.loc 1 173 15 is_stmt 0 view .LVU200
 597 00d2 C3F30743 		ubfx	r3, r3, #16, #8
 598              		.loc 1 173 13 view .LVU201
 599 00d6 8DF81430 		strb	r3, [sp, #20]
 174:DMP/driver/stm32L/log_stm32.c ****     break;
 600              		.loc 1 174 5 is_stmt 1 view .LVU202
 601 00da 37E0     		b	.L32
 602              	.LVL27:
 603              	.L31:
 175:DMP/driver/stm32L/log_stm32.c ****   /* Four bytes per-element. */
 176:DMP/driver/stm32L/log_stm32.c ****   /* Four elements. */
 177:DMP/driver/stm32L/log_stm32.c ****   case PACKET_DATA_QUAT:
 178:DMP/driver/stm32L/log_stm32.c ****     out[15] = (char)(data[3] >> 24);
 604              		.loc 1 178 5 view .LVU203
 605              		.loc 1 178 26 is_stmt 0 view .LVU204
 606 00dc CB68     		ldr	r3, [r1, #12]
 607              		.loc 1 178 15 view .LVU205
 608 00de 190E     		lsrs	r1, r3, #24
 609              	.LVL28:
 610              		.loc 1 178 13 view .LVU206
 611 00e0 8DF80F10 		strb	r1, [sp, #15]
 179:DMP/driver/stm32L/log_stm32.c ****     out[16] = (char)(data[3] >> 16);
 612              		.loc 1 179 5 is_stmt 1 view .LVU207
 613              		.loc 1 179 15 is_stmt 0 view .LVU208
 614 00e4 C3F30741 		ubfx	r1, r3, #16, #8
 615              		.loc 1 179 13 view .LVU209
 616 00e8 8DF81010 		strb	r1, [sp, #16]
 180:DMP/driver/stm32L/log_stm32.c ****     out[17] = (char)(data[3] >> 8);
 617              		.loc 1 180 5 is_stmt 1 view .LVU210
 618              		.loc 1 180 15 is_stmt 0 view .LVU211
 619 00ec C3F30721 		ubfx	r1, r3, #8, #8
 620              		.loc 1 180 13 view .LVU212
 621 00f0 8DF81110 		strb	r1, [sp, #17]
 181:DMP/driver/stm32L/log_stm32.c ****     out[18] = (char)data[3];
 622              		.loc 1 181 5 is_stmt 1 view .LVU213
 623              		.loc 1 181 13 is_stmt 0 view .LVU214
 624 00f4 8DF81230 		strb	r3, [sp, #18]
 625              	.L30:
 182:DMP/driver/stm32L/log_stm32.c ****   /* Three elements. */
 183:DMP/driver/stm32L/log_stm32.c ****   case PACKET_DATA_ACCEL:
 184:DMP/driver/stm32L/log_stm32.c ****   case PACKET_DATA_GYRO:
 185:DMP/driver/stm32L/log_stm32.c ****   case PACKET_DATA_COMPASS:
 186:DMP/driver/stm32L/log_stm32.c ****   case PACKET_DATA_EULER:
 187:DMP/driver/stm32L/log_stm32.c ****     out[3] = (char)(data[0] >> 24);
 626              		.loc 1 187 5 is_stmt 1 view .LVU215
 627              		.loc 1 187 25 is_stmt 0 view .LVU216
 628 00f8 1368     		ldr	r3, [r2]
 629              		.loc 1 187 14 view .LVU217
 630 00fa 190E     		lsrs	r1, r3, #24
 631              		.loc 1 187 12 view .LVU218
 632 00fc 8DF80310 		strb	r1, [sp, #3]
 188:DMP/driver/stm32L/log_stm32.c ****     out[4] = (char)(data[0] >> 16);
 633              		.loc 1 188 5 is_stmt 1 view .LVU219
 634              		.loc 1 188 14 is_stmt 0 view .LVU220
ARM GAS  /var/folders/21/t9g5rlb91ys800n5npymflf80000gn/T//ccRXhZ8G.s 			page 16


 635 0100 C3F30741 		ubfx	r1, r3, #16, #8
 636              		.loc 1 188 12 view .LVU221
 637 0104 8DF80410 		strb	r1, [sp, #4]
 189:DMP/driver/stm32L/log_stm32.c ****     out[5] = (char)(data[0] >> 8);
 638              		.loc 1 189 5 is_stmt 1 view .LVU222
 639              		.loc 1 189 14 is_stmt 0 view .LVU223
 640 0108 C3F30721 		ubfx	r1, r3, #8, #8
 641              		.loc 1 189 12 view .LVU224
 642 010c 8DF80510 		strb	r1, [sp, #5]
 190:DMP/driver/stm32L/log_stm32.c ****     out[6] = (char)data[0];
 643              		.loc 1 190 5 is_stmt 1 view .LVU225
 644              		.loc 1 190 12 is_stmt 0 view .LVU226
 645 0110 8DF80630 		strb	r3, [sp, #6]
 191:DMP/driver/stm32L/log_stm32.c ****     out[7] = (char)(data[1] >> 24);
 646              		.loc 1 191 5 is_stmt 1 view .LVU227
 647              		.loc 1 191 25 is_stmt 0 view .LVU228
 648 0114 5368     		ldr	r3, [r2, #4]
 649              		.loc 1 191 14 view .LVU229
 650 0116 190E     		lsrs	r1, r3, #24
 651              		.loc 1 191 12 view .LVU230
 652 0118 8DF80710 		strb	r1, [sp, #7]
 192:DMP/driver/stm32L/log_stm32.c ****     out[8] = (char)(data[1] >> 16);
 653              		.loc 1 192 5 is_stmt 1 view .LVU231
 654              		.loc 1 192 14 is_stmt 0 view .LVU232
 655 011c C3F30741 		ubfx	r1, r3, #16, #8
 656              		.loc 1 192 12 view .LVU233
 657 0120 8DF80810 		strb	r1, [sp, #8]
 193:DMP/driver/stm32L/log_stm32.c ****     out[9] = (char)(data[1] >> 8);
 658              		.loc 1 193 5 is_stmt 1 view .LVU234
 659              		.loc 1 193 14 is_stmt 0 view .LVU235
 660 0124 C3F30721 		ubfx	r1, r3, #8, #8
 661              		.loc 1 193 12 view .LVU236
 662 0128 8DF80910 		strb	r1, [sp, #9]
 194:DMP/driver/stm32L/log_stm32.c ****     out[10] = (char)data[1];
 663              		.loc 1 194 5 is_stmt 1 view .LVU237
 664              		.loc 1 194 13 is_stmt 0 view .LVU238
 665 012c 8DF80A30 		strb	r3, [sp, #10]
 195:DMP/driver/stm32L/log_stm32.c ****     out[11] = (char)(data[2] >> 24);
 666              		.loc 1 195 5 is_stmt 1 view .LVU239
 667              		.loc 1 195 26 is_stmt 0 view .LVU240
 668 0130 9368     		ldr	r3, [r2, #8]
 669              		.loc 1 195 15 view .LVU241
 670 0132 1A0E     		lsrs	r2, r3, #24
 671              	.LVL29:
 672              		.loc 1 195 13 view .LVU242
 673 0134 8DF80B20 		strb	r2, [sp, #11]
 196:DMP/driver/stm32L/log_stm32.c ****     out[12] = (char)(data[2] >> 16);
 674              		.loc 1 196 5 is_stmt 1 view .LVU243
 675              		.loc 1 196 15 is_stmt 0 view .LVU244
 676 0138 C3F30742 		ubfx	r2, r3, #16, #8
 677              		.loc 1 196 13 view .LVU245
 678 013c 8DF80C20 		strb	r2, [sp, #12]
 197:DMP/driver/stm32L/log_stm32.c ****     out[13] = (char)(data[2] >> 8);
 679              		.loc 1 197 5 is_stmt 1 view .LVU246
 680              		.loc 1 197 15 is_stmt 0 view .LVU247
 681 0140 C3F30722 		ubfx	r2, r3, #8, #8
 682              		.loc 1 197 13 view .LVU248
ARM GAS  /var/folders/21/t9g5rlb91ys800n5npymflf80000gn/T//ccRXhZ8G.s 			page 17


 683 0144 8DF80D20 		strb	r2, [sp, #13]
 198:DMP/driver/stm32L/log_stm32.c ****     out[14] = (char)data[2];
 684              		.loc 1 198 5 is_stmt 1 view .LVU249
 685              		.loc 1 198 13 is_stmt 0 view .LVU250
 686 0148 8DF80E30 		strb	r3, [sp, #14]
 199:DMP/driver/stm32L/log_stm32.c ****     break;
 687              		.loc 1 199 5 is_stmt 1 view .LVU251
 688              	.L32:
 142:DMP/driver/stm32L/log_stm32.c ****   char out[PACKET_LENGTH];
 689              		.loc 1 142 53 is_stmt 0 discriminator 1 view .LVU252
 690 014c 0024     		movs	r4, #0
 691 014e 16E0     		b	.L33
 692              	.LVL30:
 693              	.L27:
 200:DMP/driver/stm32L/log_stm32.c ****   case PACKET_DATA_HEADING:
 201:DMP/driver/stm32L/log_stm32.c ****     out[3] = (char)(data[0] >> 24);
 694              		.loc 1 201 5 is_stmt 1 view .LVU253
 695              		.loc 1 201 25 is_stmt 0 view .LVU254
 696 0150 0B68     		ldr	r3, [r1]
 697              		.loc 1 201 14 view .LVU255
 698 0152 1A0E     		lsrs	r2, r3, #24
 699              		.loc 1 201 12 view .LVU256
 700 0154 8DF80320 		strb	r2, [sp, #3]
 202:DMP/driver/stm32L/log_stm32.c ****     out[4] = (char)(data[0] >> 16);
 701              		.loc 1 202 5 is_stmt 1 view .LVU257
 702              		.loc 1 202 14 is_stmt 0 view .LVU258
 703 0158 C3F30742 		ubfx	r2, r3, #16, #8
 704              		.loc 1 202 12 view .LVU259
 705 015c 8DF80420 		strb	r2, [sp, #4]
 203:DMP/driver/stm32L/log_stm32.c ****     out[5] = (char)(data[0] >> 8);
 706              		.loc 1 203 5 is_stmt 1 view .LVU260
 707              		.loc 1 203 14 is_stmt 0 view .LVU261
 708 0160 C3F30722 		ubfx	r2, r3, #8, #8
 709              		.loc 1 203 12 view .LVU262
 710 0164 8DF80520 		strb	r2, [sp, #5]
 204:DMP/driver/stm32L/log_stm32.c ****     out[6] = (char)data[0];
 711              		.loc 1 204 5 is_stmt 1 view .LVU263
 712              		.loc 1 204 12 is_stmt 0 view .LVU264
 713 0168 8DF80630 		strb	r3, [sp, #6]
 205:DMP/driver/stm32L/log_stm32.c ****     break;
 714              		.loc 1 205 5 is_stmt 1 view .LVU265
 715 016c EEE7     		b	.L32
 716              	.LVL31:
 717              	.L34:
 206:DMP/driver/stm32L/log_stm32.c ****   default:
 207:DMP/driver/stm32L/log_stm32.c ****     return;
 208:DMP/driver/stm32L/log_stm32.c ****   }
 209:DMP/driver/stm32L/log_stm32.c ****   for (i = 0; i < PACKET_LENGTH; i++) {
 210:DMP/driver/stm32L/log_stm32.c ****     fputcc(out[i]);
 718              		.loc 1 210 5 discriminator 3 view .LVU266
 719              		.loc 1 210 15 is_stmt 0 discriminator 3 view .LVU267
 720 016e 04F11803 		add	r3, r4, #24
 721 0172 6B44     		add	r3, sp, r3
 722              		.loc 1 210 5 discriminator 3 view .LVU268
 723 0174 13F8180C 		ldrb	r0, [r3, #-24]	@ zero_extendqisi2
 724 0178 FFF7FEFF 		bl	fputcc
 725              	.LVL32:
ARM GAS  /var/folders/21/t9g5rlb91ys800n5npymflf80000gn/T//ccRXhZ8G.s 			page 18


 209:DMP/driver/stm32L/log_stm32.c ****     fputcc(out[i]);
 726              		.loc 1 209 35 is_stmt 1 discriminator 3 view .LVU269
 727 017c 0134     		adds	r4, r4, #1
 728              	.LVL33:
 729              	.L33:
 209:DMP/driver/stm32L/log_stm32.c ****     fputcc(out[i]);
 730              		.loc 1 209 17 discriminator 1 view .LVU270
 731 017e 162C     		cmp	r4, #22
 732 0180 F5DD     		ble	.L34
 733              	.LVL34:
 734              	.L25:
 211:DMP/driver/stm32L/log_stm32.c ****   }
 212:DMP/driver/stm32L/log_stm32.c **** }
 735              		.loc 1 212 1 is_stmt 0 view .LVU271
 736 0182 06B0     		add	sp, sp, #24
 737              	.LCFI16:
 738              		.cfi_def_cfa_offset 8
 739              		@ sp needed
 740 0184 10BD     		pop	{r4, pc}
 741              	.LVL35:
 742              	.L39:
 743              	.LCFI17:
 744              		.cfi_def_cfa_offset 0
 745              		.cfi_restore 4
 746              		.cfi_restore 14
 747              		.loc 1 212 1 view .LVU272
 748 0186 7047     		bx	lr
 749              		.cfi_endproc
 750              	.LFE146:
 752              		.text
 753              	.Letext0:
 754              		.file 2 "/Applications/ArmGNUToolchain/12.2.mpacbti-rel1/arm-none-eabi/lib/gcc/arm-none-eabi/12.2.
 755              		.file 3 "/usr/local/include/_types/_uint8_t.h"
 756              		.file 4 "/usr/local/include/_types/_uint16_t.h"
 757              		.file 5 "/usr/local/include/_types/_uint32_t.h"
 758              		.file 6 "Drivers/CMSIS/Device/ST/STM32G4xx/Include/stm32g474xx.h"
 759              		.file 7 "DMP/driver/stm32L/packet.h"
 760              		.file 8 "Drivers/STM32G4xx_HAL_Driver/Inc/stm32g4xx_hal_def.h"
 761              		.file 9 "Drivers/STM32G4xx_HAL_Driver/Inc/stm32g4xx_hal_dma.h"
 762              		.file 10 "Drivers/STM32G4xx_HAL_Driver/Inc/stm32g4xx_hal_uart.h"
 763              		.file 11 "Core/Inc/usart.h"
 764              		.file 12 "<built-in>"
ARM GAS  /var/folders/21/t9g5rlb91ys800n5npymflf80000gn/T//ccRXhZ8G.s 			page 19

