ARM GAS  /var/folders/21/t9g5rlb91ys800n5npymflf80000gn/T//cczuhb3m.s 			page 1


   1              		.cpu cortex-m4
   2              		.arch armv7e-m
   3              		.fpu fpv4-sp-d16
   4              		.eabi_attribute 27, 1
   5              		.eabi_attribute 28, 1
   6              		.eabi_attribute 20, 1
   7              		.eabi_attribute 21, 1
   8              		.eabi_attribute 23, 3
   9              		.eabi_attribute 24, 1
  10              		.eabi_attribute 25, 1
  11              		.eabi_attribute 26, 1
  12              		.eabi_attribute 30, 1
  13              		.eabi_attribute 34, 1
  14              		.eabi_attribute 18, 4
  15              		.file	"mpu9250.c"
  16              		.text
  17              	.Ltext0:
  18              		.cfi_sections	.debug_frame
  19              		.file 1 "user/Src/mpu9250.c"
  20              		.section	.text.inv_row_2_scale,"ax",%progbits
  21              		.align	1
  22              		.syntax unified
  23              		.thumb
  24              		.thumb_func
  26              	inv_row_2_scale:
  27              	.LVL0:
  28              	.LFB19:
   1:user/Src/mpu9250.c **** #include "inv_mpu.h"
   2:user/Src/mpu9250.c **** #include "inv_mpu_dmp_motion_driver.h"
   3:user/Src/mpu9250.c **** #include "math.h"
   4:user/Src/mpu9250.c **** #include "mpu9250.h"
   5:user/Src/mpu9250.c **** 
   6:user/Src/mpu9250.c **** /* The sensors can be mounted onto the board in any orientation. The mounting
   7:user/Src/mpu9250.c ****  * matrix seen below tells the MPL how to rotate the raw data from thei
   8:user/Src/mpu9250.c ****  * driver(s).
   9:user/Src/mpu9250.c ****  * TODO: The following matrices refer to the configuration on an internal test
  10:user/Src/mpu9250.c ****  * board at Invensense. If needed, please modify the matrices to match the
  11:user/Src/mpu9250.c ****  * chip-to-body matrix for your particular set up.
  12:user/Src/mpu9250.c ****  */
  13:user/Src/mpu9250.c **** extern void uart_printf(char *fmt, ...);
  14:user/Src/mpu9250.c **** static signed char gyro_orientation[9] = {-1, 0, 0, 0, -1, 0, 0, 0, 1};
  15:user/Src/mpu9250.c **** 
  16:user/Src/mpu9250.c **** /* These next two functions converts the orientation matrix (see
  17:user/Src/mpu9250.c ****  * gyro_orientation) to a scalar representation for use by the DMP.
  18:user/Src/mpu9250.c ****  * NOTE: These functions are borrowed from Invensense's MPL.
  19:user/Src/mpu9250.c ****  */
  20:user/Src/mpu9250.c **** static unsigned short inv_row_2_scale(const signed char *row) {
  29              		.loc 1 20 63 view -0
  30              		.cfi_startproc
  31              		@ args = 0, pretend = 0, frame = 0
  32              		@ frame_needed = 0, uses_anonymous_args = 0
  33              		@ link register save eliminated.
  21:user/Src/mpu9250.c ****   unsigned short b;
  34              		.loc 1 21 3 view .LVU1
  22:user/Src/mpu9250.c **** 
  23:user/Src/mpu9250.c ****   if (row[0] > 0)
  35              		.loc 1 23 3 view .LVU2
ARM GAS  /var/folders/21/t9g5rlb91ys800n5npymflf80000gn/T//cczuhb3m.s 			page 2


  36              		.loc 1 23 10 is_stmt 0 view .LVU3
  37 0000 90F90030 		ldrsb	r3, [r0]
  38              		.loc 1 23 6 view .LVU4
  39 0004 002B     		cmp	r3, #0
  40 0006 01DD     		ble	.L9
  24:user/Src/mpu9250.c ****     b = 0;
  41              		.loc 1 24 7 view .LVU5
  42 0008 0020     		movs	r0, #0
  43              	.LVL1:
  44              		.loc 1 24 7 view .LVU6
  45 000a 7047     		bx	lr
  46              	.LVL2:
  47              	.L9:
  25:user/Src/mpu9250.c ****   else if (row[0] < 0)
  48              		.loc 1 25 8 is_stmt 1 view .LVU7
  49              		.loc 1 25 11 is_stmt 0 view .LVU8
  50 000c 0FDB     		blt	.L4
  26:user/Src/mpu9250.c ****     b = 4;
  27:user/Src/mpu9250.c ****   else if (row[1] > 0)
  51              		.loc 1 27 8 is_stmt 1 view .LVU9
  52              		.loc 1 27 15 is_stmt 0 view .LVU10
  53 000e 90F90130 		ldrsb	r3, [r0, #1]
  54              		.loc 1 27 11 view .LVU11
  55 0012 002B     		cmp	r3, #0
  56 0014 01DD     		ble	.L10
  28:user/Src/mpu9250.c ****     b = 1;
  57              		.loc 1 28 7 view .LVU12
  58 0016 0120     		movs	r0, #1
  59              	.LVL3:
  60              		.loc 1 28 7 view .LVU13
  61 0018 7047     		bx	lr
  62              	.LVL4:
  63              	.L10:
  29:user/Src/mpu9250.c ****   else if (row[1] < 0)
  64              		.loc 1 29 8 is_stmt 1 view .LVU14
  65              		.loc 1 29 11 is_stmt 0 view .LVU15
  66 001a 0ADB     		blt	.L6
  30:user/Src/mpu9250.c ****     b = 5;
  31:user/Src/mpu9250.c ****   else if (row[2] > 0)
  67              		.loc 1 31 8 is_stmt 1 view .LVU16
  68              		.loc 1 31 15 is_stmt 0 view .LVU17
  69 001c 90F90230 		ldrsb	r3, [r0, #2]
  70              		.loc 1 31 11 view .LVU18
  71 0020 002B     		cmp	r3, #0
  72 0022 08DC     		bgt	.L7
  32:user/Src/mpu9250.c ****     b = 2;
  33:user/Src/mpu9250.c ****   else if (row[2] < 0)
  73              		.loc 1 33 8 is_stmt 1 view .LVU19
  74              		.loc 1 33 11 is_stmt 0 view .LVU20
  75 0024 01DB     		blt	.L11
  34:user/Src/mpu9250.c ****     b = 6;
  35:user/Src/mpu9250.c ****   else
  36:user/Src/mpu9250.c ****     b = 7; // error
  76              		.loc 1 36 7 view .LVU21
  77 0026 0720     		movs	r0, #7
  78              	.LVL5:
  37:user/Src/mpu9250.c ****   return b;
ARM GAS  /var/folders/21/t9g5rlb91ys800n5npymflf80000gn/T//cczuhb3m.s 			page 3


  79              		.loc 1 37 3 is_stmt 1 view .LVU22
  38:user/Src/mpu9250.c **** }
  80              		.loc 1 38 1 is_stmt 0 view .LVU23
  81 0028 7047     		bx	lr
  82              	.LVL6:
  83              	.L11:
  34:user/Src/mpu9250.c ****     b = 6;
  84              		.loc 1 34 7 view .LVU24
  85 002a 0620     		movs	r0, #6
  86              	.LVL7:
  34:user/Src/mpu9250.c ****     b = 6;
  87              		.loc 1 34 7 view .LVU25
  88 002c 7047     		bx	lr
  89              	.LVL8:
  90              	.L4:
  26:user/Src/mpu9250.c ****   else if (row[1] > 0)
  91              		.loc 1 26 7 view .LVU26
  92 002e 0420     		movs	r0, #4
  93              	.LVL9:
  26:user/Src/mpu9250.c ****   else if (row[1] > 0)
  94              		.loc 1 26 7 view .LVU27
  95 0030 7047     		bx	lr
  96              	.LVL10:
  97              	.L6:
  30:user/Src/mpu9250.c ****   else if (row[2] > 0)
  98              		.loc 1 30 7 view .LVU28
  99 0032 0520     		movs	r0, #5
 100              	.LVL11:
  30:user/Src/mpu9250.c ****   else if (row[2] > 0)
 101              		.loc 1 30 7 view .LVU29
 102 0034 7047     		bx	lr
 103              	.LVL12:
 104              	.L7:
  32:user/Src/mpu9250.c ****   else if (row[2] < 0)
 105              		.loc 1 32 7 view .LVU30
 106 0036 0220     		movs	r0, #2
 107              	.LVL13:
  32:user/Src/mpu9250.c ****   else if (row[2] < 0)
 108              		.loc 1 32 7 view .LVU31
 109 0038 7047     		bx	lr
 110              		.cfi_endproc
 111              	.LFE19:
 113              		.section	.text.inv_orientation_matrix_to_scalar,"ax",%progbits
 114              		.align	1
 115              		.syntax unified
 116              		.thumb
 117              		.thumb_func
 119              	inv_orientation_matrix_to_scalar:
 120              	.LVL14:
 121              	.LFB20:
  39:user/Src/mpu9250.c **** 
  40:user/Src/mpu9250.c **** static unsigned short inv_orientation_matrix_to_scalar(const signed char *mtx) {
 122              		.loc 1 40 80 is_stmt 1 view -0
 123              		.cfi_startproc
 124              		@ args = 0, pretend = 0, frame = 0
 125              		@ frame_needed = 0, uses_anonymous_args = 0
 126              		.loc 1 40 80 is_stmt 0 view .LVU33
ARM GAS  /var/folders/21/t9g5rlb91ys800n5npymflf80000gn/T//cczuhb3m.s 			page 4


 127 0000 38B5     		push	{r3, r4, r5, lr}
 128              	.LCFI0:
 129              		.cfi_def_cfa_offset 16
 130              		.cfi_offset 3, -16
 131              		.cfi_offset 4, -12
 132              		.cfi_offset 5, -8
 133              		.cfi_offset 14, -4
 134 0002 0546     		mov	r5, r0
  41:user/Src/mpu9250.c ****   unsigned short scalar;
 135              		.loc 1 41 3 is_stmt 1 view .LVU34
  42:user/Src/mpu9250.c **** 
  43:user/Src/mpu9250.c ****   /*
  44:user/Src/mpu9250.c ****      XYZ  010_001_000 Identity Matrix
  45:user/Src/mpu9250.c ****      XZY  001_010_000
  46:user/Src/mpu9250.c ****      YXZ  010_000_001
  47:user/Src/mpu9250.c ****      YZX  000_010_001
  48:user/Src/mpu9250.c ****      ZXY  001_000_010
  49:user/Src/mpu9250.c ****      ZYX  000_001_010
  50:user/Src/mpu9250.c ****    */
  51:user/Src/mpu9250.c **** 
  52:user/Src/mpu9250.c ****   scalar = inv_row_2_scale(mtx);
 136              		.loc 1 52 3 view .LVU35
 137              		.loc 1 52 12 is_stmt 0 view .LVU36
 138 0004 FFF7FEFF 		bl	inv_row_2_scale
 139              	.LVL15:
 140              		.loc 1 52 12 view .LVU37
 141 0008 0446     		mov	r4, r0
 142              	.LVL16:
  53:user/Src/mpu9250.c ****   scalar |= inv_row_2_scale(mtx + 3) << 3;
 143              		.loc 1 53 3 is_stmt 1 view .LVU38
 144              		.loc 1 53 13 is_stmt 0 view .LVU39
 145 000a E81C     		adds	r0, r5, #3
 146 000c FFF7FEFF 		bl	inv_row_2_scale
 147              	.LVL17:
 148              		.loc 1 53 10 view .LVU40
 149 0010 44EAC004 		orr	r4, r4, r0, lsl #3
 150              	.LVL18:
 151              		.loc 1 53 10 view .LVU41
 152 0014 24B2     		sxth	r4, r4
 153              	.LVL19:
  54:user/Src/mpu9250.c ****   scalar |= inv_row_2_scale(mtx + 6) << 6;
 154              		.loc 1 54 3 is_stmt 1 view .LVU42
 155              		.loc 1 54 13 is_stmt 0 view .LVU43
 156 0016 A81D     		adds	r0, r5, #6
 157 0018 FFF7FEFF 		bl	inv_row_2_scale
 158              	.LVL20:
 159              		.loc 1 54 10 view .LVU44
 160 001c 44EA8010 		orr	r0, r4, r0, lsl #6
 161              	.LVL21:
  55:user/Src/mpu9250.c **** 
  56:user/Src/mpu9250.c ****   return scalar;
 162              		.loc 1 56 3 is_stmt 1 view .LVU45
  57:user/Src/mpu9250.c **** }
 163              		.loc 1 57 1 is_stmt 0 view .LVU46
 164 0020 80B2     		uxth	r0, r0
 165              		.loc 1 57 1 view .LVU47
 166 0022 38BD     		pop	{r3, r4, r5, pc}
ARM GAS  /var/folders/21/t9g5rlb91ys800n5npymflf80000gn/T//cczuhb3m.s 			page 5


 167              		.loc 1 57 1 view .LVU48
 168              		.cfi_endproc
 169              	.LFE20:
 171              		.section	.text.MPU9250_DMP_init,"ax",%progbits
 172              		.align	1
 173              		.global	MPU9250_DMP_init
 174              		.syntax unified
 175              		.thumb
 176              		.thumb_func
 178              	MPU9250_DMP_init:
 179              	.LFB22:
  58:user/Src/mpu9250.c **** 
  59:user/Src/mpu9250.c **** static int run_self_test(void) {
  60:user/Src/mpu9250.c ****   int result;
  61:user/Src/mpu9250.c ****   long gyro[3], accel[3];
  62:user/Src/mpu9250.c **** 
  63:user/Src/mpu9250.c ****   result = mpu_run_self_test(gyro, accel);
  64:user/Src/mpu9250.c ****   if (result == 0x7) {
  65:user/Src/mpu9250.c ****     /* Test passed. We can trust the gyro data here, so let's push it down
  66:user/Src/mpu9250.c ****      * to the DMP.
  67:user/Src/mpu9250.c ****      */
  68:user/Src/mpu9250.c ****     float sens;
  69:user/Src/mpu9250.c ****     unsigned short accel_sens;
  70:user/Src/mpu9250.c ****     mpu_get_gyro_sens(&sens);
  71:user/Src/mpu9250.c ****     gyro[0] = (long)(gyro[0] * sens);
  72:user/Src/mpu9250.c ****     gyro[1] = (long)(gyro[1] * sens);
  73:user/Src/mpu9250.c ****     gyro[2] = (long)(gyro[2] * sens);
  74:user/Src/mpu9250.c ****     dmp_set_gyro_bias(gyro);
  75:user/Src/mpu9250.c ****     mpu_get_accel_sens(&accel_sens);
  76:user/Src/mpu9250.c ****     accel[0] *= accel_sens;
  77:user/Src/mpu9250.c ****     accel[1] *= accel_sens;
  78:user/Src/mpu9250.c ****     accel[2] *= accel_sens;
  79:user/Src/mpu9250.c ****     dmp_set_accel_bias(accel);
  80:user/Src/mpu9250.c ****   } else {
  81:user/Src/mpu9250.c ****     return -1;
  82:user/Src/mpu9250.c ****   }
  83:user/Src/mpu9250.c **** 
  84:user/Src/mpu9250.c ****   return 0;
  85:user/Src/mpu9250.c **** }
  86:user/Src/mpu9250.c **** 
  87:user/Src/mpu9250.c **** int MPU9250_DMP_init(void) {
 180              		.loc 1 87 28 is_stmt 1 view -0
 181              		.cfi_startproc
 182              		@ args = 0, pretend = 0, frame = 8
 183              		@ frame_needed = 0, uses_anonymous_args = 0
 184 0000 00B5     		push	{lr}
 185              	.LCFI1:
 186              		.cfi_def_cfa_offset 4
 187              		.cfi_offset 14, -4
 188 0002 83B0     		sub	sp, sp, #12
 189              	.LCFI2:
 190              		.cfi_def_cfa_offset 16
  88:user/Src/mpu9250.c ****   int ret;
 191              		.loc 1 88 3 view .LVU50
  89:user/Src/mpu9250.c ****   struct int_param_s int_param;
 192              		.loc 1 89 3 view .LVU51
  90:user/Src/mpu9250.c ****   // mpu_init
ARM GAS  /var/folders/21/t9g5rlb91ys800n5npymflf80000gn/T//cczuhb3m.s 			page 6


  91:user/Src/mpu9250.c ****   ret = mpu_init(&int_param);
 193              		.loc 1 91 3 view .LVU52
 194              		.loc 1 91 9 is_stmt 0 view .LVU53
 195 0004 01A8     		add	r0, sp, #4
 196 0006 FFF7FEFF 		bl	mpu_init
 197              	.LVL22:
  92:user/Src/mpu9250.c ****   if (ret != 0) {
 198              		.loc 1 92 3 is_stmt 1 view .LVU54
 199              		.loc 1 92 6 is_stmt 0 view .LVU55
 200 000a 20BB     		cbnz	r0, .L16
  93:user/Src/mpu9250.c ****     return ERROR_MPU_INIT;
  94:user/Src/mpu9250.c ****   }
  95:user/Src/mpu9250.c ****   // 设置传感器
  96:user/Src/mpu9250.c ****   ret = mpu_set_sensors(INV_XYZ_GYRO | INV_XYZ_ACCEL);
 201              		.loc 1 96 3 is_stmt 1 view .LVU56
 202              		.loc 1 96 9 is_stmt 0 view .LVU57
 203 000c 7820     		movs	r0, #120
 204              	.LVL23:
 205              		.loc 1 96 9 view .LVU58
 206 000e FFF7FEFF 		bl	mpu_set_sensors
 207              	.LVL24:
  97:user/Src/mpu9250.c ****   if (ret != 0) {
 208              		.loc 1 97 3 is_stmt 1 view .LVU59
 209              		.loc 1 97 6 is_stmt 0 view .LVU60
 210 0012 18BB     		cbnz	r0, .L17
  98:user/Src/mpu9250.c ****     return ERROR_SET_SENSOR;
  99:user/Src/mpu9250.c ****   }
 100:user/Src/mpu9250.c ****   // 设置fifo
 101:user/Src/mpu9250.c ****   ret = mpu_configure_fifo(INV_XYZ_GYRO | INV_XYZ_ACCEL);
 211              		.loc 1 101 3 is_stmt 1 view .LVU61
 212              		.loc 1 101 9 is_stmt 0 view .LVU62
 213 0014 7820     		movs	r0, #120
 214              	.LVL25:
 215              		.loc 1 101 9 view .LVU63
 216 0016 FFF7FEFF 		bl	mpu_configure_fifo
 217              	.LVL26:
 102:user/Src/mpu9250.c ****   if (ret != 0) {
 218              		.loc 1 102 3 is_stmt 1 view .LVU64
 219              		.loc 1 102 6 is_stmt 0 view .LVU65
 220 001a 10BB     		cbnz	r0, .L18
 103:user/Src/mpu9250.c ****     return ERROR_CONFIG_FIFO;
 104:user/Src/mpu9250.c ****   }
 105:user/Src/mpu9250.c ****   // 设置采样率
 106:user/Src/mpu9250.c ****   ret = mpu_set_sample_rate(DEFAULT_MPU_HZ);
 221              		.loc 1 106 3 is_stmt 1 view .LVU66
 222              		.loc 1 106 9 is_stmt 0 view .LVU67
 223 001c 6420     		movs	r0, #100
 224              	.LVL27:
 225              		.loc 1 106 9 view .LVU68
 226 001e FFF7FEFF 		bl	mpu_set_sample_rate
 227              	.LVL28:
 107:user/Src/mpu9250.c ****   if (ret != 0) {
 228              		.loc 1 107 3 is_stmt 1 view .LVU69
 229              		.loc 1 107 6 is_stmt 0 view .LVU70
 230 0022 08BB     		cbnz	r0, .L19
 108:user/Src/mpu9250.c ****     return ERROR_SET_RATE;
 109:user/Src/mpu9250.c ****   }
ARM GAS  /var/folders/21/t9g5rlb91ys800n5npymflf80000gn/T//cczuhb3m.s 			page 7


 110:user/Src/mpu9250.c ****   // 加载DMP固件
 111:user/Src/mpu9250.c ****   ret = dmp_load_motion_driver_firmware();
 231              		.loc 1 111 3 is_stmt 1 view .LVU71
 232              		.loc 1 111 9 is_stmt 0 view .LVU72
 233 0024 FFF7FEFF 		bl	dmp_load_motion_driver_firmware
 234              	.LVL29:
 112:user/Src/mpu9250.c ****   if (ret != 0) {
 235              		.loc 1 112 3 is_stmt 1 view .LVU73
 236              		.loc 1 112 6 is_stmt 0 view .LVU74
 237 0028 08BB     		cbnz	r0, .L20
 113:user/Src/mpu9250.c ****     return ERROR_LOAD_MOTION_DRIVER;
 114:user/Src/mpu9250.c ****   }
 115:user/Src/mpu9250.c ****   // 设置陀螺仪方向
 116:user/Src/mpu9250.c ****   ret = dmp_set_orientation(inv_orientation_matrix_to_scalar(gyro_orientation));
 238              		.loc 1 116 3 is_stmt 1 view .LVU75
 239              		.loc 1 116 9 is_stmt 0 view .LVU76
 240 002a 1848     		ldr	r0, .L27
 241              	.LVL30:
 242              		.loc 1 116 9 view .LVU77
 243 002c FFF7FEFF 		bl	inv_orientation_matrix_to_scalar
 244              	.LVL31:
 245 0030 FFF7FEFF 		bl	dmp_set_orientation
 246              	.LVL32:
 117:user/Src/mpu9250.c ****   if (ret != 0) {
 247              		.loc 1 117 3 is_stmt 1 view .LVU78
 248              		.loc 1 117 6 is_stmt 0 view .LVU79
 249 0034 F0B9     		cbnz	r0, .L21
 118:user/Src/mpu9250.c ****     return ERROR_SET_ORIENTATION;
 119:user/Src/mpu9250.c ****   }
 120:user/Src/mpu9250.c ****   // 设置DMP功能
 121:user/Src/mpu9250.c ****   ret = dmp_enable_feature(DMP_FEATURE_6X_LP_QUAT | DMP_FEATURE_TAP |
 250              		.loc 1 121 3 is_stmt 1 view .LVU80
 251              		.loc 1 121 9 is_stmt 0 view .LVU81
 252 0036 40F27310 		movw	r0, #371
 253              	.LVL33:
 254              		.loc 1 121 9 view .LVU82
 255 003a FFF7FEFF 		bl	dmp_enable_feature
 256              	.LVL34:
 122:user/Src/mpu9250.c ****                            DMP_FEATURE_ANDROID_ORIENT |
 123:user/Src/mpu9250.c ****                            DMP_FEATURE_SEND_RAW_ACCEL |
 124:user/Src/mpu9250.c ****                            DMP_FEATURE_SEND_CAL_GYRO | DMP_FEATURE_GYRO_CAL);
 125:user/Src/mpu9250.c ****   if (ret != 0) {
 257              		.loc 1 125 3 is_stmt 1 view .LVU83
 258              		.loc 1 125 6 is_stmt 0 view .LVU84
 259 003e E0B9     		cbnz	r0, .L22
 126:user/Src/mpu9250.c ****     return ERROR_ENABLE_FEATURE;
 127:user/Src/mpu9250.c ****   }
 128:user/Src/mpu9250.c ****   // 设置输出速率
 129:user/Src/mpu9250.c ****   ret = dmp_set_fifo_rate(DEFAULT_MPU_HZ);
 260              		.loc 1 129 3 is_stmt 1 view .LVU85
 261              		.loc 1 129 9 is_stmt 0 view .LVU86
 262 0040 6420     		movs	r0, #100
 263              	.LVL35:
 264              		.loc 1 129 9 view .LVU87
 265 0042 FFF7FEFF 		bl	dmp_set_fifo_rate
 266              	.LVL36:
 130:user/Src/mpu9250.c ****   if (ret != 0) {
ARM GAS  /var/folders/21/t9g5rlb91ys800n5npymflf80000gn/T//cczuhb3m.s 			page 8


 267              		.loc 1 130 3 is_stmt 1 view .LVU88
 268              		.loc 1 130 6 is_stmt 0 view .LVU89
 269 0046 D8B9     		cbnz	r0, .L23
 131:user/Src/mpu9250.c ****     return ERROR_SET_FIFO_RATE;
 132:user/Src/mpu9250.c ****   }
 133:user/Src/mpu9250.c ****   // 自检
 134:user/Src/mpu9250.c ****   /*ret = run_self_test();*/
 135:user/Src/mpu9250.c ****   /*if (ret != 0) {*/
 136:user/Src/mpu9250.c ****     /*return ERROR_SELF_TEST;*/
 137:user/Src/mpu9250.c ****   /*}*/
 138:user/Src/mpu9250.c ****   // 使能DMP
 139:user/Src/mpu9250.c ****   ret = mpu_set_dmp_state(1);
 270              		.loc 1 139 3 is_stmt 1 view .LVU90
 271              		.loc 1 139 9 is_stmt 0 view .LVU91
 272 0048 0120     		movs	r0, #1
 273              	.LVL37:
 274              		.loc 1 139 9 view .LVU92
 275 004a FFF7FEFF 		bl	mpu_set_dmp_state
 276              	.LVL38:
 140:user/Src/mpu9250.c ****   if (ret != 0) {
 277              		.loc 1 140 3 is_stmt 1 view .LVU93
 278              		.loc 1 140 6 is_stmt 0 view .LVU94
 279 004e D0B9     		cbnz	r0, .L26
 280              	.LVL39:
 281              	.L14:
 141:user/Src/mpu9250.c ****     return ERROR_DMP_STATE;
 142:user/Src/mpu9250.c ****   }
 143:user/Src/mpu9250.c **** 
 144:user/Src/mpu9250.c ****   return 0;
 145:user/Src/mpu9250.c **** }
 282              		.loc 1 145 1 view .LVU95
 283 0050 03B0     		add	sp, sp, #12
 284              	.LCFI3:
 285              		.cfi_remember_state
 286              		.cfi_def_cfa_offset 4
 287              		@ sp needed
 288 0052 5DF804FB 		ldr	pc, [sp], #4
 289              	.LVL40:
 290              	.L16:
 291              	.LCFI4:
 292              		.cfi_restore_state
  93:user/Src/mpu9250.c ****   }
 293              		.loc 1 93 12 view .LVU96
 294 0056 4FF0FF30 		mov	r0, #-1
 295              	.LVL41:
  93:user/Src/mpu9250.c ****   }
 296              		.loc 1 93 12 view .LVU97
 297 005a F9E7     		b	.L14
 298              	.LVL42:
 299              	.L17:
  98:user/Src/mpu9250.c ****   }
 300              		.loc 1 98 12 view .LVU98
 301 005c 6FF00100 		mvn	r0, #1
 302              	.LVL43:
  98:user/Src/mpu9250.c ****   }
 303              		.loc 1 98 12 view .LVU99
 304 0060 F6E7     		b	.L14
ARM GAS  /var/folders/21/t9g5rlb91ys800n5npymflf80000gn/T//cczuhb3m.s 			page 9


 305              	.LVL44:
 306              	.L18:
 103:user/Src/mpu9250.c ****   }
 307              		.loc 1 103 12 view .LVU100
 308 0062 6FF00200 		mvn	r0, #2
 309              	.LVL45:
 103:user/Src/mpu9250.c ****   }
 310              		.loc 1 103 12 view .LVU101
 311 0066 F3E7     		b	.L14
 312              	.LVL46:
 313              	.L19:
 108:user/Src/mpu9250.c ****   }
 314              		.loc 1 108 12 view .LVU102
 315 0068 6FF00300 		mvn	r0, #3
 316              	.LVL47:
 108:user/Src/mpu9250.c ****   }
 317              		.loc 1 108 12 view .LVU103
 318 006c F0E7     		b	.L14
 319              	.LVL48:
 320              	.L20:
 113:user/Src/mpu9250.c ****   }
 321              		.loc 1 113 12 view .LVU104
 322 006e 6FF00400 		mvn	r0, #4
 323              	.LVL49:
 113:user/Src/mpu9250.c ****   }
 324              		.loc 1 113 12 view .LVU105
 325 0072 EDE7     		b	.L14
 326              	.LVL50:
 327              	.L21:
 118:user/Src/mpu9250.c ****   }
 328              		.loc 1 118 12 view .LVU106
 329 0074 6FF00500 		mvn	r0, #5
 330              	.LVL51:
 118:user/Src/mpu9250.c ****   }
 331              		.loc 1 118 12 view .LVU107
 332 0078 EAE7     		b	.L14
 333              	.LVL52:
 334              	.L22:
 126:user/Src/mpu9250.c ****   }
 335              		.loc 1 126 12 view .LVU108
 336 007a 6FF00600 		mvn	r0, #6
 337              	.LVL53:
 126:user/Src/mpu9250.c ****   }
 338              		.loc 1 126 12 view .LVU109
 339 007e E7E7     		b	.L14
 340              	.LVL54:
 341              	.L23:
 131:user/Src/mpu9250.c ****   }
 342              		.loc 1 131 12 view .LVU110
 343 0080 6FF00700 		mvn	r0, #7
 344              	.LVL55:
 131:user/Src/mpu9250.c ****   }
 345              		.loc 1 131 12 view .LVU111
 346 0084 E4E7     		b	.L14
 347              	.LVL56:
 348              	.L26:
 141:user/Src/mpu9250.c ****   }
ARM GAS  /var/folders/21/t9g5rlb91ys800n5npymflf80000gn/T//cczuhb3m.s 			page 10


 349              		.loc 1 141 12 view .LVU112
 350 0086 6FF00900 		mvn	r0, #9
 351              	.LVL57:
 141:user/Src/mpu9250.c ****   }
 352              		.loc 1 141 12 view .LVU113
 353 008a E1E7     		b	.L14
 354              	.L28:
 355              		.align	2
 356              	.L27:
 357 008c 00000000 		.word	gyro_orientation
 358              		.cfi_endproc
 359              	.LFE22:
 361              		.global	__aeabi_f2d
 362              		.global	__aeabi_dmul
 363              		.global	__aeabi_d2f
 364              		.section	.text.MPU9250_DMP_Get_Data,"ax",%progbits
 365              		.align	1
 366              		.global	MPU9250_DMP_Get_Data
 367              		.syntax unified
 368              		.thumb
 369              		.thumb_func
 371              	MPU9250_DMP_Get_Data:
 372              	.LVL58:
 373              	.LFB23:
 146:user/Src/mpu9250.c **** 
 147:user/Src/mpu9250.c **** int MPU9250_DMP_Get_Data(float *pitch, float *roll, float *yaw) {
 374              		.loc 1 147 65 is_stmt 1 view -0
 375              		.cfi_startproc
 376              		@ args = 0, pretend = 0, frame = 40
 377              		@ frame_needed = 0, uses_anonymous_args = 0
 378              		.loc 1 147 65 is_stmt 0 view .LVU115
 379 0000 F0B5     		push	{r4, r5, r6, r7, lr}
 380              	.LCFI5:
 381              		.cfi_def_cfa_offset 20
 382              		.cfi_offset 4, -20
 383              		.cfi_offset 5, -16
 384              		.cfi_offset 6, -12
 385              		.cfi_offset 7, -8
 386              		.cfi_offset 14, -4
 387 0002 2DED088B 		vpush.64	{d8, d9, d10, d11}
 388              	.LCFI6:
 389              		.cfi_def_cfa_offset 52
 390              		.cfi_offset 80, -52
 391              		.cfi_offset 81, -48
 392              		.cfi_offset 82, -44
 393              		.cfi_offset 83, -40
 394              		.cfi_offset 84, -36
 395              		.cfi_offset 85, -32
 396              		.cfi_offset 86, -28
 397              		.cfi_offset 87, -24
 398 0006 8DB0     		sub	sp, sp, #52
 399              	.LCFI7:
 400              		.cfi_def_cfa_offset 104
 401 0008 0646     		mov	r6, r0
 402 000a 0F46     		mov	r7, r1
 403 000c 1546     		mov	r5, r2
 148:user/Src/mpu9250.c ****   float q0 = 1.0f, q1 = 0.0f, q2 = 0.0f, q3 = 0.0f;
ARM GAS  /var/folders/21/t9g5rlb91ys800n5npymflf80000gn/T//cczuhb3m.s 			page 11


 404              		.loc 1 148 3 is_stmt 1 view .LVU116
 405              	.LVL59:
 149:user/Src/mpu9250.c ****   short gyro[3];
 406              		.loc 1 149 3 view .LVU117
 150:user/Src/mpu9250.c ****   short accel[3];
 407              		.loc 1 150 3 view .LVU118
 151:user/Src/mpu9250.c ****   long quat[4];
 408              		.loc 1 151 3 view .LVU119
 152:user/Src/mpu9250.c ****   unsigned long timestamp;
 409              		.loc 1 152 3 view .LVU120
 153:user/Src/mpu9250.c ****   short sensors;
 410              		.loc 1 153 3 view .LVU121
 154:user/Src/mpu9250.c ****   unsigned char more;
 411              		.loc 1 154 3 view .LVU122
 155:user/Src/mpu9250.c ****   if (dmp_read_fifo(gyro, accel, quat, &timestamp, &sensors, &more)) {
 412              		.loc 1 155 3 view .LVU123
 413              		.loc 1 155 7 is_stmt 0 view .LVU124
 414 000e 0DF10903 		add	r3, sp, #9
 415 0012 0193     		str	r3, [sp, #4]
 416 0014 0DF10A03 		add	r3, sp, #10
 417 0018 0093     		str	r3, [sp]
 418 001a 03AB     		add	r3, sp, #12
 419 001c 04AA     		add	r2, sp, #16
 420              	.LVL60:
 421              		.loc 1 155 7 view .LVU125
 422 001e 08A9     		add	r1, sp, #32
 423              	.LVL61:
 424              		.loc 1 155 7 view .LVU126
 425 0020 0AA8     		add	r0, sp, #40
 426              	.LVL62:
 427              		.loc 1 155 7 view .LVU127
 428 0022 FFF7FEFF 		bl	dmp_read_fifo
 429              	.LVL63:
 430              		.loc 1 155 6 view .LVU128
 431 0026 0028     		cmp	r0, #0
 432 0028 40F0A480 		bne	.L31
 433 002c 0446     		mov	r4, r0
 156:user/Src/mpu9250.c ****     return -1;
 157:user/Src/mpu9250.c ****   }
 158:user/Src/mpu9250.c **** 
 159:user/Src/mpu9250.c ****   if (sensors & INV_WXYZ_QUAT) {
 434              		.loc 1 159 3 is_stmt 1 view .LVU129
 435              		.loc 1 159 15 is_stmt 0 view .LVU130
 436 002e BDF90A30 		ldrsh	r3, [sp, #10]
 437              		.loc 1 159 6 view .LVU131
 438 0032 13F4807F 		tst	r3, #256
 439 0036 04D1     		bne	.L33
 440              	.LVL64:
 441              	.L29:
 160:user/Src/mpu9250.c ****     q0 = quat[0] / Q30;
 161:user/Src/mpu9250.c ****     q1 = quat[1] / Q30;
 162:user/Src/mpu9250.c ****     q2 = quat[2] / Q30;
 163:user/Src/mpu9250.c ****     q3 = quat[3] / Q30;
 164:user/Src/mpu9250.c **** 
 165:user/Src/mpu9250.c ****     *pitch = asin(-2 * q1 * q3 + 2 * q0 * q2) * 57.3; // pitch
 166:user/Src/mpu9250.c ****     *roll = atan2(2 * q2 * q3 + 2 * q0 * q1, -2 * q1 * q1 - 2 * q2 * q2 + 1) *
 167:user/Src/mpu9250.c ****             57.3; // roll
ARM GAS  /var/folders/21/t9g5rlb91ys800n5npymflf80000gn/T//cczuhb3m.s 			page 12


 168:user/Src/mpu9250.c ****     *yaw =
 169:user/Src/mpu9250.c ****         atan2(2 * (q0 * q3 + q1 * q2), q0 * q0 + q1 * q1 - q2 * q2 - q3 * q3) *
 170:user/Src/mpu9250.c ****         57.3; // yaw
 171:user/Src/mpu9250.c ****   }
 172:user/Src/mpu9250.c **** 
 173:user/Src/mpu9250.c ****   return 0;
 174:user/Src/mpu9250.c **** }
 442              		.loc 1 174 1 view .LVU132
 443 0038 2046     		mov	r0, r4
 444 003a 0DB0     		add	sp, sp, #52
 445              	.LCFI8:
 446              		.cfi_remember_state
 447              		.cfi_def_cfa_offset 52
 448              		@ sp needed
 449 003c BDEC088B 		vldm	sp!, {d8-d11}
 450              	.LCFI9:
 451              		.cfi_restore 86
 452              		.cfi_restore 87
 453              		.cfi_restore 84
 454              		.cfi_restore 85
 455              		.cfi_restore 82
 456              		.cfi_restore 83
 457              		.cfi_restore 80
 458              		.cfi_restore 81
 459              		.cfi_def_cfa_offset 20
 460 0040 F0BD     		pop	{r4, r5, r6, r7, pc}
 461              	.LVL65:
 462              	.L33:
 463              	.LCFI10:
 464              		.cfi_restore_state
 160:user/Src/mpu9250.c ****     q0 = quat[0] / Q30;
 465              		.loc 1 160 5 is_stmt 1 view .LVU133
 160:user/Src/mpu9250.c ****     q0 = quat[0] / Q30;
 466              		.loc 1 160 18 is_stmt 0 view .LVU134
 467 0042 DDED047A 		vldr.32	s15, [sp, #16]	@ int
 468 0046 B8EEE78A 		vcvt.f32.s32	s16, s15
 160:user/Src/mpu9250.c ****     q0 = quat[0] / Q30;
 469              		.loc 1 160 8 view .LVU135
 470 004a DFED4F7A 		vldr.32	s15, .L34+8
 471 004e 28EE278A 		vmul.f32	s16, s16, s15
 472              	.LVL66:
 161:user/Src/mpu9250.c ****     q2 = quat[2] / Q30;
 473              		.loc 1 161 5 is_stmt 1 view .LVU136
 161:user/Src/mpu9250.c ****     q2 = quat[2] / Q30;
 474              		.loc 1 161 18 is_stmt 0 view .LVU137
 475 0052 9DED057A 		vldr.32	s14, [sp, #20]	@ int
 476 0056 B8EEC79A 		vcvt.f32.s32	s18, s14
 161:user/Src/mpu9250.c ****     q2 = quat[2] / Q30;
 477              		.loc 1 161 8 view .LVU138
 478 005a 29EE279A 		vmul.f32	s18, s18, s15
 479              	.LVL67:
 162:user/Src/mpu9250.c ****     q3 = quat[3] / Q30;
 480              		.loc 1 162 5 is_stmt 1 view .LVU139
 162:user/Src/mpu9250.c ****     q3 = quat[3] / Q30;
 481              		.loc 1 162 18 is_stmt 0 view .LVU140
 482 005e 9DED067A 		vldr.32	s14, [sp, #24]	@ int
 483 0062 F8EEC78A 		vcvt.f32.s32	s17, s14
ARM GAS  /var/folders/21/t9g5rlb91ys800n5npymflf80000gn/T//cczuhb3m.s 			page 13


 162:user/Src/mpu9250.c ****     q3 = quat[3] / Q30;
 484              		.loc 1 162 8 view .LVU141
 485 0066 68EEA78A 		vmul.f32	s17, s17, s15
 486              	.LVL68:
 163:user/Src/mpu9250.c **** 
 487              		.loc 1 163 5 is_stmt 1 view .LVU142
 163:user/Src/mpu9250.c **** 
 488              		.loc 1 163 18 is_stmt 0 view .LVU143
 489 006a 9DED077A 		vldr.32	s14, [sp, #28]	@ int
 490 006e F8EEC79A 		vcvt.f32.s32	s19, s14
 163:user/Src/mpu9250.c **** 
 491              		.loc 1 163 8 view .LVU144
 492 0072 69EEA79A 		vmul.f32	s19, s19, s15
 493              	.LVL69:
 165:user/Src/mpu9250.c ****     *roll = atan2(2 * q2 * q3 + 2 * q0 * q1, -2 * q1 * q1 - 2 * q2 * q2 + 1) *
 494              		.loc 1 165 5 is_stmt 1 view .LVU145
 165:user/Src/mpu9250.c ****     *roll = atan2(2 * q2 * q3 + 2 * q0 * q1, -2 * q1 * q1 - 2 * q2 * q2 + 1) *
 495              		.loc 1 165 22 is_stmt 0 view .LVU146
 496 0076 B8EE00AA 		vmov.f32	s20, #-2.0e+0
 497 007a 29EE0AAA 		vmul.f32	s20, s18, s20
 165:user/Src/mpu9250.c ****     *roll = atan2(2 * q2 * q3 + 2 * q0 * q1, -2 * q1 * q1 - 2 * q2 * q2 + 1) *
 498              		.loc 1 165 27 view .LVU147
 499 007e 2AEE297A 		vmul.f32	s14, s20, s19
 165:user/Src/mpu9250.c ****     *roll = atan2(2 * q2 * q3 + 2 * q0 * q1, -2 * q1 * q1 - 2 * q2 * q2 + 1) *
 500              		.loc 1 165 36 view .LVU148
 501 0082 78EE08AA 		vadd.f32	s21, s16, s16
 165:user/Src/mpu9250.c ****     *roll = atan2(2 * q2 * q3 + 2 * q0 * q1, -2 * q1 * q1 - 2 * q2 * q2 + 1) *
 502              		.loc 1 165 41 view .LVU149
 503 0086 6AEEA87A 		vmul.f32	s15, s21, s17
 165:user/Src/mpu9250.c ****     *roll = atan2(2 * q2 * q3 + 2 * q0 * q1, -2 * q1 * q1 - 2 * q2 * q2 + 1) *
 504              		.loc 1 165 14 view .LVU150
 505 008a 77EE277A 		vadd.f32	s15, s14, s15
 506 008e 17EE900A 		vmov	r0, s15
 507 0092 FFF7FEFF 		bl	__aeabi_f2d
 508              	.LVL70:
 509 0096 41EC100B 		vmov	d0, r0, r1
 510 009a FFF7FEFF 		bl	asin
 511              	.LVL71:
 512 009e 51EC100B 		vmov	r0, r1, d0
 165:user/Src/mpu9250.c ****     *roll = atan2(2 * q2 * q3 + 2 * q0 * q1, -2 * q1 * q1 - 2 * q2 * q2 + 1) *
 513              		.loc 1 165 47 view .LVU151
 514 00a2 37A3     		adr	r3, .L34
 515 00a4 D3E90023 		ldrd	r2, [r3]
 516 00a8 FFF7FEFF 		bl	__aeabi_dmul
 517              	.LVL72:
 518 00ac FFF7FEFF 		bl	__aeabi_d2f
 519              	.LVL73:
 165:user/Src/mpu9250.c ****     *roll = atan2(2 * q2 * q3 + 2 * q0 * q1, -2 * q1 * q1 - 2 * q2 * q2 + 1) *
 520              		.loc 1 165 12 view .LVU152
 521 00b0 3060     		str	r0, [r6]	@ float
 166:user/Src/mpu9250.c ****             57.3; // roll
 522              		.loc 1 166 5 is_stmt 1 view .LVU153
 166:user/Src/mpu9250.c ****             57.3; // roll
 523              		.loc 1 166 21 is_stmt 0 view .LVU154
 524 00b2 78EEA87A 		vadd.f32	s15, s17, s17
 166:user/Src/mpu9250.c ****             57.3; // roll
 525              		.loc 1 166 26 view .LVU155
ARM GAS  /var/folders/21/t9g5rlb91ys800n5npymflf80000gn/T//cczuhb3m.s 			page 14


 526 00b6 27EEA9BA 		vmul.f32	s22, s15, s19
 166:user/Src/mpu9250.c ****             57.3; // roll
 527              		.loc 1 166 40 view .LVU156
 528 00ba 6AEE89AA 		vmul.f32	s21, s21, s18
 166:user/Src/mpu9250.c ****             57.3; // roll
 529              		.loc 1 166 31 view .LVU157
 530 00be 3BEE2ABA 		vadd.f32	s22, s22, s21
 166:user/Src/mpu9250.c ****             57.3; // roll
 531              		.loc 1 166 54 view .LVU158
 532 00c2 2AEE09AA 		vmul.f32	s20, s20, s18
 166:user/Src/mpu9250.c ****             57.3; // roll
 533              		.loc 1 166 68 view .LVU159
 534 00c6 67EEA87A 		vmul.f32	s15, s15, s17
 166:user/Src/mpu9250.c ****             57.3; // roll
 535              		.loc 1 166 59 view .LVU160
 536 00ca 3AEE67AA 		vsub.f32	s20, s20, s15
 166:user/Src/mpu9250.c ****             57.3; // roll
 537              		.loc 1 166 13 view .LVU161
 538 00ce F7EE007A 		vmov.f32	s15, #1.0e+0
 539 00d2 7AEE277A 		vadd.f32	s15, s20, s15
 540 00d6 17EE900A 		vmov	r0, s15
 541 00da FFF7FEFF 		bl	__aeabi_f2d
 542              	.LVL74:
 543 00de 41EC1A0B 		vmov	d10, r0, r1
 544 00e2 1BEE100A 		vmov	r0, s22
 545 00e6 FFF7FEFF 		bl	__aeabi_f2d
 546              	.LVL75:
 547 00ea B0EE4A1A 		vmov.f32	s2, s20
 548 00ee F0EE6A1A 		vmov.f32	s3, s21
 549 00f2 41EC100B 		vmov	d0, r0, r1
 550 00f6 FFF7FEFF 		bl	atan2
 551              	.LVL76:
 552 00fa 51EC100B 		vmov	r0, r1, d0
 166:user/Src/mpu9250.c ****             57.3; // roll
 553              		.loc 1 166 78 view .LVU162
 554 00fe 20A3     		adr	r3, .L34
 555 0100 D3E90023 		ldrd	r2, [r3]
 556 0104 FFF7FEFF 		bl	__aeabi_dmul
 557              	.LVL77:
 558 0108 FFF7FEFF 		bl	__aeabi_d2f
 559              	.LVL78:
 166:user/Src/mpu9250.c ****             57.3; // roll
 560              		.loc 1 166 11 view .LVU163
 561 010c 3860     		str	r0, [r7]	@ float
 168:user/Src/mpu9250.c ****         atan2(2 * (q0 * q3 + q1 * q2), q0 * q0 + q1 * q1 - q2 * q2 - q3 * q3) *
 562              		.loc 1 168 5 is_stmt 1 view .LVU164
 169:user/Src/mpu9250.c ****         57.3; // yaw
 563              		.loc 1 169 23 is_stmt 0 view .LVU165
 564 010e 68EE297A 		vmul.f32	s15, s16, s19
 169:user/Src/mpu9250.c ****         57.3; // yaw
 565              		.loc 1 169 33 view .LVU166
 566 0112 29EE287A 		vmul.f32	s14, s18, s17
 169:user/Src/mpu9250.c ****         57.3; // yaw
 567              		.loc 1 169 28 view .LVU167
 568 0116 77EE877A 		vadd.f32	s15, s15, s14
 169:user/Src/mpu9250.c ****         57.3; // yaw
 569              		.loc 1 169 17 view .LVU168
ARM GAS  /var/folders/21/t9g5rlb91ys800n5npymflf80000gn/T//cczuhb3m.s 			page 15


 570 011a 37EEA7AA 		vadd.f32	s20, s15, s15
 169:user/Src/mpu9250.c ****         57.3; // yaw
 571              		.loc 1 169 43 view .LVU169
 572 011e 28EE088A 		vmul.f32	s16, s16, s16
 573              	.LVL79:
 169:user/Src/mpu9250.c ****         57.3; // yaw
 574              		.loc 1 169 53 view .LVU170
 575 0122 29EE099A 		vmul.f32	s18, s18, s18
 576              	.LVL80:
 169:user/Src/mpu9250.c ****         57.3; // yaw
 577              		.loc 1 169 48 view .LVU171
 578 0126 38EE098A 		vadd.f32	s16, s16, s18
 169:user/Src/mpu9250.c ****         57.3; // yaw
 579              		.loc 1 169 63 view .LVU172
 580 012a 68EEA88A 		vmul.f32	s17, s17, s17
 581              	.LVL81:
 169:user/Src/mpu9250.c ****         57.3; // yaw
 582              		.loc 1 169 58 view .LVU173
 583 012e 38EE688A 		vsub.f32	s16, s16, s17
 169:user/Src/mpu9250.c ****         57.3; // yaw
 584              		.loc 1 169 73 view .LVU174
 585 0132 69EEA99A 		vmul.f32	s19, s19, s19
 586              	.LVL82:
 169:user/Src/mpu9250.c ****         57.3; // yaw
 587              		.loc 1 169 9 view .LVU175
 588 0136 78EE697A 		vsub.f32	s15, s16, s19
 589 013a 17EE900A 		vmov	r0, s15
 590 013e FFF7FEFF 		bl	__aeabi_f2d
 591              	.LVL83:
 592 0142 41EC180B 		vmov	d8, r0, r1
 593 0146 1AEE100A 		vmov	r0, s20
 594 014a FFF7FEFF 		bl	__aeabi_f2d
 595              	.LVL84:
 596 014e B0EE481A 		vmov.f32	s2, s16
 597 0152 F0EE681A 		vmov.f32	s3, s17
 598 0156 41EC100B 		vmov	d0, r0, r1
 599 015a FFF7FEFF 		bl	atan2
 600              	.LVL85:
 601 015e 51EC100B 		vmov	r0, r1, d0
 169:user/Src/mpu9250.c ****         57.3; // yaw
 602              		.loc 1 169 79 view .LVU176
 603 0162 07A3     		adr	r3, .L34
 604 0164 D3E90023 		ldrd	r2, [r3]
 605 0168 FFF7FEFF 		bl	__aeabi_dmul
 606              	.LVL86:
 607 016c FFF7FEFF 		bl	__aeabi_d2f
 608              	.LVL87:
 168:user/Src/mpu9250.c ****         atan2(2 * (q0 * q3 + q1 * q2), q0 * q0 + q1 * q1 - q2 * q2 - q3 * q3) *
 609              		.loc 1 168 10 view .LVU177
 610 0170 2860     		str	r0, [r5]	@ float
 611 0172 61E7     		b	.L29
 612              	.LVL88:
 613              	.L31:
 156:user/Src/mpu9250.c ****   }
 614              		.loc 1 156 12 view .LVU178
 615 0174 4FF0FF34 		mov	r4, #-1
 616 0178 5EE7     		b	.L29
ARM GAS  /var/folders/21/t9g5rlb91ys800n5npymflf80000gn/T//cczuhb3m.s 			page 16


 617              	.L35:
 618 017a 00BFAFF3 		.align	3
 618      0080
 619              	.L34:
 620 0180 66666666 		.word	1717986918
 621 0184 66A64C40 		.word	1078765158
 622 0188 00008030 		.word	813694976
 623              		.cfi_endproc
 624              	.LFE23:
 626              		.section	.data.gyro_orientation,"aw"
 627              		.align	2
 630              	gyro_orientation:
 631 0000 FF000000 		.ascii	"\377\000\000\000\377\000\000\000\001"
 631      FF000000 
 631      01
 632              		.text
 633              	.Letext0:
 634              		.file 2 "/usr/local/include/math.h"
 635              		.file 3 "DMP/driver/eMPL/inv_mpu_dmp_motion_driver.h"
 636              		.file 4 "DMP/driver/eMPL/inv_mpu.h"
ARM GAS  /var/folders/21/t9g5rlb91ys800n5npymflf80000gn/T//cczuhb3m.s 			page 17

